ARM GAS  C:\Users\z80\AppData\Local\Temp\ccyX2tGd.s 			page 1


   1              		.syntax unified
   2              		.cpu cortex-m3
   3              		.fpu softvfp
   4              		.eabi_attribute 20, 1
   5              		.eabi_attribute 21, 1
   6              		.eabi_attribute 23, 3
   7              		.eabi_attribute 24, 1
   8              		.eabi_attribute 25, 1
   9              		.eabi_attribute 26, 1
  10              		.eabi_attribute 30, 6
  11              		.eabi_attribute 18, 4
  12              		.thumb
  13              		.file	"adc_lld.c"
  20 0000 12030000 		.text
  20      02000302 
  20      00000201 
  20      FB0E0D00 
  20      01010101 
  21              	.Ltext0:
  22              		.cfi_sections	.debug_frame
  23              		.global	ADCD1
  24              		.section	.bss.ADCD1,"aw",%nobits
  25              		.align	2
  26              		.type	ADCD1, %object
  27              		.size	ADCD1, 52
  28              	ADCD1:
  29 0000 00000000 		.space	52
  29      00000000 
  29      00000000 
  29      00000000 
  29      00000000 
  30              		.section	.text.adc_lld_serve_rx_interrupt,"ax",%progbits
  31              		.align	2
  32              		.p2align 4,,15
  33              		.thumb
  34              		.thumb_func
  35              		.type	adc_lld_serve_rx_interrupt, %function
  36              	adc_lld_serve_rx_interrupt:
  37              	.LFB63:
  38              		.file 1 "../chibios_2.6.3/os/hal/platforms/STM32F1xx/adc_lld.c"
  39              		.loc 1 57 0
  40              		.cfi_startproc
  41              		@ args = 0, pretend = 0, frame = 24
  42              		@ frame_needed = 0, uses_anonymous_args = 0
  43 0000 00B5     		push	{lr}
  44              	.LCFI0:
  45              		.cfi_def_cfa_offset 4
  46 0002 87B0     		sub	sp, sp, #28
  47              	.LCFI1:
  48              		.cfi_def_cfa_offset 32
  49 0004 0190     		str	r0, [sp, #4]
ARM GAS  C:\Users\z80\AppData\Local\Temp\ccyX2tGd.s 			page 2


  50 0006 0091     		str	r1, [sp, #0]
  51              		.loc 1 60 0
  52 0008 009B     		ldr	r3, [sp, #0]
  53 000a 03F00803 		and	r3, r3, #8
  54 000e 002B     		cmp	r3, #0
  55 0010 39D0     		beq	.L2
  56              		.cfi_offset 14, -4
  57              		.loc 1 63 0
  58 0012 0198     		ldr	r0, [sp, #4]
  59 0014 FFF7FEFF 		bl	adc_lld_stop_conversion
  60 0018 019B     		ldr	r3, [sp, #4]
  61 001a 1B69     		ldr	r3, [r3, #16]
  62 001c 9B68     		ldr	r3, [r3, #8]
  63 001e 002B     		cmp	r3, #0
  64 0020 12D0     		beq	.L3
  65              		.loc 1 63 0 is_stmt 0 discriminator 1
  66 0022 019B     		ldr	r3, [sp, #4]
  67 0024 4FF00502 		mov	r2, #5
  68 0028 1A70     		strb	r2, [r3, #0]
  69 002a 019B     		ldr	r3, [sp, #4]
  70 002c 1B69     		ldr	r3, [r3, #16]
  71 002e 9B68     		ldr	r3, [r3, #8]
  72 0030 0198     		ldr	r0, [sp, #4]
  73 0032 4FF00001 		mov	r1, #0
  74 0036 9847     		blx	r3
  75 0038 019B     		ldr	r3, [sp, #4]
  76 003a 1B78     		ldrb	r3, [r3, #0]	@ zero_extendqisi2
  77 003c 052B     		cmp	r3, #5
  78 003e 03D1     		bne	.L3
  79              		.loc 1 63 0 discriminator 3
  80 0040 019B     		ldr	r3, [sp, #4]
  81 0042 4FF00202 		mov	r2, #2
  82 0046 1A70     		strb	r2, [r3, #0]
  83              	.L3:
  84              		.loc 1 63 0 discriminator 2
  85 0048 019B     		ldr	r3, [sp, #4]
  86 004a 4FF00002 		mov	r2, #0
  87 004e 1A61     		str	r2, [r3, #16]
  88              	.LBB2:
  89 0050 4FF02003 		mov	r3, #32
  90              	@ 63 "../chibios_2.6.3/os/hal/platforms/STM32F1xx/adc_lld.c" 1
  91 0054 83F31188 		msr     BASEPRI, r3
  92              	@ 0 "" 2
  93              		.thumb
  94              	.LBE2:
  95 0058 019B     		ldr	r3, [sp, #4]
  96 005a 5B69     		ldr	r3, [r3, #20]
  97 005c 002B     		cmp	r3, #0
  98 005e 0DD0     		beq	.L4
  99              	.LBB3:
 100              		.loc 1 63 0 discriminator 4
 101 0060 019B     		ldr	r3, [sp, #4]
 102 0062 5B69     		ldr	r3, [r3, #20]
 103 0064 0593     		str	r3, [sp, #20]
 104 0066 019B     		ldr	r3, [sp, #4]
 105 0068 4FF00002 		mov	r2, #0
 106 006c 5A61     		str	r2, [r3, #20]
ARM GAS  C:\Users\z80\AppData\Local\Temp\ccyX2tGd.s 			page 3


 107 006e 059B     		ldr	r3, [sp, #20]
 108 0070 4FF0FF32 		mov	r2, #-1
 109 0074 5A62     		str	r2, [r3, #36]
 110 0076 0598     		ldr	r0, [sp, #20]
 111 0078 FFF7FEFF 		bl	chSchReadyI
 112              	.L4:
 113              	.LBE3:
 114              	.LBB4:
 115              		.loc 1 63 0 discriminator 5
 116 007c 4FF00003 		mov	r3, #0
 117              	@ 63 "../chibios_2.6.3/os/hal/platforms/STM32F1xx/adc_lld.c" 1
 118 0080 83F31188 		msr     BASEPRI, r3
 119              	@ 0 "" 2
 120              		.thumb
 121 0084 93E0     		b	.L1
 122              	.L2:
 123              	.LBE4:
 124              		.loc 1 66 0 is_stmt 1
 125 0086 009B     		ldr	r3, [sp, #0]
 126 0088 03F00203 		and	r3, r3, #2
 127 008c 002B     		cmp	r3, #0
 128 008e 77D0     		beq	.L6
 129              		.loc 1 68 0
 130 0090 019B     		ldr	r3, [sp, #4]
 131 0092 1B69     		ldr	r3, [r3, #16]
 132 0094 1B78     		ldrb	r3, [r3, #0]	@ zero_extendqisi2
 133 0096 002B     		cmp	r3, #0
 134 0098 2DD0     		beq	.L7
 135              		.loc 1 68 0 is_stmt 0 discriminator 1
 136 009a 019B     		ldr	r3, [sp, #4]
 137 009c 1B69     		ldr	r3, [r3, #16]
 138 009e 5B68     		ldr	r3, [r3, #4]
 139 00a0 002B     		cmp	r3, #0
 140 00a2 00F08380 		beq	.L15
 141              		.loc 1 68 0 discriminator 3
 142 00a6 019B     		ldr	r3, [sp, #4]
 143 00a8 DB68     		ldr	r3, [r3, #12]
 144 00aa 012B     		cmp	r3, #1
 145 00ac 19D9     		bls	.L9
 146              	.LBB5:
 147              		.loc 1 68 0 discriminator 4
 148 00ae 019B     		ldr	r3, [sp, #4]
 149 00b0 DB68     		ldr	r3, [r3, #12]
 150 00b2 4FEA5303 		lsr	r3, r3, #1
 151 00b6 0493     		str	r3, [sp, #16]
 152 00b8 019B     		ldr	r3, [sp, #4]
 153 00ba 1B69     		ldr	r3, [r3, #16]
 154 00bc 5B88     		ldrh	r3, [r3, #2]
 155 00be 049A     		ldr	r2, [sp, #16]
 156 00c0 02FB03F3 		mul	r3, r2, r3
 157 00c4 0393     		str	r3, [sp, #12]
 158 00c6 019B     		ldr	r3, [sp, #4]
 159 00c8 1B69     		ldr	r3, [r3, #16]
 160 00ca 5B68     		ldr	r3, [r3, #4]
 161 00cc 019A     		ldr	r2, [sp, #4]
 162 00ce 9168     		ldr	r1, [r2, #8]
 163 00d0 039A     		ldr	r2, [sp, #12]
ARM GAS  C:\Users\z80\AppData\Local\Temp\ccyX2tGd.s 			page 4


 164 00d2 4FEA4202 		lsl	r2, r2, #1
 165 00d6 0A44     		add	r2, r1, r2
 166 00d8 0198     		ldr	r0, [sp, #4]
 167 00da 1146     		mov	r1, r2
 168 00dc 049A     		ldr	r2, [sp, #16]
 169 00de 9847     		blx	r3
 170              	.LBE5:
 171              	.LBB6:
 172 00e0 65E0     		b	.L1
 173              	.L9:
 174              	.LBE6:
 175              		.loc 1 68 0 discriminator 5
 176 00e2 019B     		ldr	r3, [sp, #4]
 177 00e4 1B69     		ldr	r3, [r3, #16]
 178 00e6 5B68     		ldr	r3, [r3, #4]
 179 00e8 019A     		ldr	r2, [sp, #4]
 180 00ea 9168     		ldr	r1, [r2, #8]
 181 00ec 019A     		ldr	r2, [sp, #4]
 182 00ee D268     		ldr	r2, [r2, #12]
 183 00f0 0198     		ldr	r0, [sp, #4]
 184 00f2 9847     		blx	r3
 185              	.LBB7:
 186 00f4 5BE0     		b	.L1
 187              	.L7:
 188              	.LBE7:
 189              		.loc 1 68 0 discriminator 2
 190 00f6 0198     		ldr	r0, [sp, #4]
 191 00f8 FFF7FEFF 		bl	adc_lld_stop_conversion
 192 00fc 019B     		ldr	r3, [sp, #4]
 193 00fe 1B69     		ldr	r3, [r3, #16]
 194 0100 5B68     		ldr	r3, [r3, #4]
 195 0102 002B     		cmp	r3, #0
 196 0104 19D0     		beq	.L11
 197              		.loc 1 68 0 discriminator 6
 198 0106 019B     		ldr	r3, [sp, #4]
 199 0108 4FF00402 		mov	r2, #4
 200 010c 1A70     		strb	r2, [r3, #0]
 201 010e 019B     		ldr	r3, [sp, #4]
 202 0110 1B69     		ldr	r3, [r3, #16]
 203 0112 5B68     		ldr	r3, [r3, #4]
 204 0114 019A     		ldr	r2, [sp, #4]
 205 0116 9168     		ldr	r1, [r2, #8]
 206 0118 019A     		ldr	r2, [sp, #4]
 207 011a D268     		ldr	r2, [r2, #12]
 208 011c 0198     		ldr	r0, [sp, #4]
 209 011e 9847     		blx	r3
 210 0120 019B     		ldr	r3, [sp, #4]
 211 0122 1B78     		ldrb	r3, [r3, #0]	@ zero_extendqisi2
 212 0124 042B     		cmp	r3, #4
 213 0126 10D1     		bne	.L13
 214              		.loc 1 68 0 discriminator 8
 215 0128 019B     		ldr	r3, [sp, #4]
 216 012a 4FF00202 		mov	r2, #2
 217 012e 1A70     		strb	r2, [r3, #0]
 218 0130 019B     		ldr	r3, [sp, #4]
 219 0132 4FF00002 		mov	r2, #0
 220 0136 1A61     		str	r2, [r3, #16]
ARM GAS  C:\Users\z80\AppData\Local\Temp\ccyX2tGd.s 			page 5


 221 0138 07E0     		b	.L13
 222              	.L11:
 223              		.loc 1 68 0 discriminator 7
 224 013a 019B     		ldr	r3, [sp, #4]
 225 013c 4FF00202 		mov	r2, #2
 226 0140 1A70     		strb	r2, [r3, #0]
 227 0142 019B     		ldr	r3, [sp, #4]
 228 0144 4FF00002 		mov	r2, #0
 229 0148 1A61     		str	r2, [r3, #16]
 230              	.L13:
 231              	.LBB8:
 232              		.loc 1 68 0 discriminator 9
 233 014a 4FF02003 		mov	r3, #32
 234              	@ 68 "../chibios_2.6.3/os/hal/platforms/STM32F1xx/adc_lld.c" 1
 235 014e 83F31188 		msr     BASEPRI, r3
 236              	@ 0 "" 2
 237              		.thumb
 238              	.LBE8:
 239 0152 019B     		ldr	r3, [sp, #4]
 240 0154 5B69     		ldr	r3, [r3, #20]
 241 0156 002B     		cmp	r3, #0
 242 0158 0DD0     		beq	.L14
 243              	.LBB9:
 244              		.loc 1 68 0 discriminator 10
 245 015a 019B     		ldr	r3, [sp, #4]
 246 015c 5B69     		ldr	r3, [r3, #20]
 247 015e 0293     		str	r3, [sp, #8]
 248 0160 019B     		ldr	r3, [sp, #4]
 249 0162 4FF00002 		mov	r2, #0
 250 0166 5A61     		str	r2, [r3, #20]
 251 0168 029B     		ldr	r3, [sp, #8]
 252 016a 4FF00002 		mov	r2, #0
 253 016e 5A62     		str	r2, [r3, #36]
 254 0170 0298     		ldr	r0, [sp, #8]
 255 0172 FFF7FEFF 		bl	chSchReadyI
 256              	.L14:
 257              	.LBE9:
 258              	.LBB10:
 259              		.loc 1 68 0 discriminator 11
 260 0176 4FF00003 		mov	r3, #0
 261              	@ 68 "../chibios_2.6.3/os/hal/platforms/STM32F1xx/adc_lld.c" 1
 262 017a 83F31188 		msr     BASEPRI, r3
 263              	@ 0 "" 2
 264              		.thumb
 265 017e 16E0     		b	.L1
 266              	.L6:
 267              	.LBE10:
 268              		.loc 1 70 0 is_stmt 1
 269 0180 009B     		ldr	r3, [sp, #0]
 270 0182 03F00403 		and	r3, r3, #4
 271 0186 002B     		cmp	r3, #0
 272 0188 11D0     		beq	.L1
 273              		.loc 1 72 0
 274 018a 019B     		ldr	r3, [sp, #4]
 275 018c 1B69     		ldr	r3, [r3, #16]
 276 018e 5B68     		ldr	r3, [r3, #4]
 277 0190 002B     		cmp	r3, #0
ARM GAS  C:\Users\z80\AppData\Local\Temp\ccyX2tGd.s 			page 6


 278 0192 0CD0     		beq	.L1
 279              		.loc 1 72 0 is_stmt 0 discriminator 1
 280 0194 019B     		ldr	r3, [sp, #4]
 281 0196 1B69     		ldr	r3, [r3, #16]
 282 0198 5B68     		ldr	r3, [r3, #4]
 283 019a 019A     		ldr	r2, [sp, #4]
 284 019c 9168     		ldr	r1, [r2, #8]
 285 019e 019A     		ldr	r2, [sp, #4]
 286 01a0 D268     		ldr	r2, [r2, #12]
 287 01a2 4FEA5202 		lsr	r2, r2, #1
 288 01a6 0198     		ldr	r0, [sp, #4]
 289 01a8 9847     		blx	r3
 290 01aa 00E0     		b	.L1
 291              	.L15:
 292              	.LBB11:
 293              		.loc 1 68 0 is_stmt 1
 294 01ac 00BF     		nop
 295              	.L1:
 296              	.LBE11:
 297              		.loc 1 75 0
 298 01ae 07B0     		add	sp, sp, #28
 299 01b0 00BD     		pop	{pc}
 300              		.cfi_endproc
 301              	.LFE63:
 302              		.size	adc_lld_serve_rx_interrupt, .-adc_lld_serve_rx_interrupt
 303 01b2 00BFAFF3 		.section	.text.adc_lld_init,"ax",%progbits
 303      0080AFF3 
 303      0080AFF3 
 303      0080
 304              		.align	2
 305              		.p2align 4,,15
 306              		.global	adc_lld_init
 307              		.thumb
 308              		.thumb_func
 309              		.type	adc_lld_init, %function
 310              	adc_lld_init:
 311              	.LFB64:
 312              		.loc 1 90 0
 313              		.cfi_startproc
 314              		@ args = 0, pretend = 0, frame = 0
 315              		@ frame_needed = 0, uses_anonymous_args = 0
 316 0000 08B5     		push	{r3, lr}
 317              	.LCFI2:
 318              		.cfi_def_cfa_offset 8
 319              		.loc 1 94 0
 320 0002 40F20000 		movw	r0, #:lower16:ADCD1
 321 0006 C0F20000 		movt	r0, #:upper16:ADCD1
 322              		.cfi_offset 14, -4
 323              		.cfi_offset 3, -8
 324 000a FFF7FEFF 		bl	adcObjectInit
 325              		.loc 1 95 0
 326 000e 40F20003 		movw	r3, #:lower16:ADCD1
 327 0012 C0F20003 		movt	r3, #:upper16:ADCD1
 328 0016 4FF41052 		mov	r2, #9216
 329 001a C4F20102 		movt	r2, 16385
 330 001e 9A62     		str	r2, [r3, #40]
 331              		.loc 1 96 0
ARM GAS  C:\Users\z80\AppData\Local\Temp\ccyX2tGd.s 			page 7


 332 0020 40F20003 		movw	r3, #:lower16:ADCD1
 333 0024 C0F20003 		movt	r3, #:upper16:ADCD1
 334 0028 40F20002 		movw	r2, #:lower16:_stm32_dma_streams
 335 002c C0F20002 		movt	r2, #:upper16:_stm32_dma_streams
 336 0030 DA62     		str	r2, [r3, #44]
 337              		.loc 1 97 0
 338 0032 40F20003 		movw	r3, #:lower16:ADCD1
 339 0036 C0F20003 		movt	r3, #:upper16:ADCD1
 340 003a 42F28A52 		movw	r2, #9610
 341 003e 1A63     		str	r2, [r3, #48]
 342              		.loc 1 103 0
 343 0040 4FF48053 		mov	r3, #4096
 344 0044 C4F20203 		movt	r3, 16386
 345 0048 4FF48052 		mov	r2, #4096
 346 004c C4F20202 		movt	r2, 16386
 347 0050 9269     		ldr	r2, [r2, #24]
 348 0052 42F40072 		orr	r2, r2, #512
 349 0056 9A61     		str	r2, [r3, #24]
 350              		.loc 1 104 0
 351 0058 4FF41053 		mov	r3, #9216
 352 005c C4F20103 		movt	r3, 16385
 353 0060 4FF00002 		mov	r2, #0
 354 0064 5A60     		str	r2, [r3, #4]
 355              		.loc 1 105 0
 356 0066 4FF41053 		mov	r3, #9216
 357 006a C4F20103 		movt	r3, 16385
 358 006e 4FF00102 		mov	r2, #1
 359 0072 9A60     		str	r2, [r3, #8]
 360              		.loc 1 108 0
 361 0074 4FF41053 		mov	r3, #9216
 362 0078 C4F20103 		movt	r3, 16385
 363 007c 4FF00902 		mov	r2, #9
 364 0080 9A60     		str	r2, [r3, #8]
 365              		.loc 1 109 0
 366 0082 00BF     		nop
 367              	.L17:
 368              		.loc 1 109 0 is_stmt 0 discriminator 1
 369 0084 4FF41053 		mov	r3, #9216
 370 0088 C4F20103 		movt	r3, 16385
 371 008c 9B68     		ldr	r3, [r3, #8]
 372 008e 03F00803 		and	r3, r3, #8
 373 0092 002B     		cmp	r3, #0
 374 0094 F6D1     		bne	.L17
 375              		.loc 1 113 0 is_stmt 1
 376 0096 4FF41053 		mov	r3, #9216
 377 009a C4F20103 		movt	r3, 16385
 378 009e 4FF00502 		mov	r2, #5
 379 00a2 9A60     		str	r2, [r3, #8]
 380              		.loc 1 114 0
 381 00a4 00BF     		nop
 382              	.L18:
 383              		.loc 1 114 0 is_stmt 0 discriminator 1
 384 00a6 4FF41053 		mov	r3, #9216
 385 00aa C4F20103 		movt	r3, 16385
 386 00ae 9B68     		ldr	r3, [r3, #8]
 387 00b0 03F00403 		and	r3, r3, #4
 388 00b4 002B     		cmp	r3, #0
ARM GAS  C:\Users\z80\AppData\Local\Temp\ccyX2tGd.s 			page 8


 389 00b6 F6D1     		bne	.L18
 390              		.loc 1 118 0 is_stmt 1
 391 00b8 4FF41053 		mov	r3, #9216
 392 00bc C4F20103 		movt	r3, 16385
 393 00c0 4FF00002 		mov	r2, #0
 394 00c4 9A60     		str	r2, [r3, #8]
 395              		.loc 1 119 0
 396 00c6 4FF48053 		mov	r3, #4096
 397 00ca C4F20203 		movt	r3, 16386
 398 00ce 4FF48052 		mov	r2, #4096
 399 00d2 C4F20202 		movt	r2, 16386
 400 00d6 9269     		ldr	r2, [r2, #24]
 401 00d8 22F40072 		bic	r2, r2, #512
 402 00dc 9A61     		str	r2, [r3, #24]
 403              		.loc 1 121 0
 404 00de 08BD     		pop	{r3, pc}
 405              		.cfi_endproc
 406              	.LFE64:
 407              		.size	adc_lld_init, .-adc_lld_init
 408              		.section	.text.adc_lld_start,"ax",%progbits
 409              		.align	2
 410              		.p2align 4,,15
 411              		.global	adc_lld_start
 412              		.thumb
 413              		.thumb_func
 414              		.type	adc_lld_start, %function
 415              	adc_lld_start:
 416              	.LFB65:
 417              		.loc 1 130 0
 418              		.cfi_startproc
 419              		@ args = 0, pretend = 0, frame = 16
 420              		@ frame_needed = 0, uses_anonymous_args = 0
 421 0000 00B5     		push	{lr}
 422              	.LCFI3:
 423              		.cfi_def_cfa_offset 4
 424 0002 85B0     		sub	sp, sp, #20
 425              	.LCFI4:
 426              		.cfi_def_cfa_offset 24
 427 0004 0190     		str	r0, [sp, #4]
 428              		.loc 1 133 0
 429 0006 019B     		ldr	r3, [sp, #4]
 430 0008 1B78     		ldrb	r3, [r3, #0]	@ zero_extendqisi2
 431 000a 012B     		cmp	r3, #1
 432 000c 34D1     		bne	.L19
 433              		.cfi_offset 14, -4
 434              		.loc 1 135 0
 435 000e 019A     		ldr	r2, [sp, #4]
 436 0010 40F20003 		movw	r3, #:lower16:ADCD1
 437 0014 C0F20003 		movt	r3, #:upper16:ADCD1
 438 0018 9A42     		cmp	r2, r3
 439 001a 23D1     		bne	.L21
 440              	.LBB12:
 441              		.loc 1 137 0
 442 001c 019B     		ldr	r3, [sp, #4]
 443 001e DA6A     		ldr	r2, [r3, #44]
 444 0020 40F20003 		movw	r3, #:lower16:adc_lld_serve_rx_interrupt
 445 0024 C0F20003 		movt	r3, #:upper16:adc_lld_serve_rx_interrupt
ARM GAS  C:\Users\z80\AppData\Local\Temp\ccyX2tGd.s 			page 9


 446 0028 1046     		mov	r0, r2
 447 002a 4FF00601 		mov	r1, #6
 448 002e 1A46     		mov	r2, r3
 449 0030 019B     		ldr	r3, [sp, #4]
 450 0032 FFF7FEFF 		bl	dmaStreamAllocate
 451 0036 0346     		mov	r3, r0
 452 0038 8DF80F30 		strb	r3, [sp, #15]
 453              		.loc 1 142 0
 454 003c 019B     		ldr	r3, [sp, #4]
 455 003e DB6A     		ldr	r3, [r3, #44]
 456 0040 1A68     		ldr	r2, [r3, #0]
 457 0042 42F24C43 		movw	r3, #9292
 458 0046 C4F20103 		movt	r3, 16385
 459 004a 9360     		str	r3, [r2, #8]
 460              		.loc 1 143 0
 461 004c 4FF48053 		mov	r3, #4096
 462 0050 C4F20203 		movt	r3, 16386
 463 0054 4FF48052 		mov	r2, #4096
 464 0058 C4F20202 		movt	r2, 16386
 465 005c 9269     		ldr	r2, [r2, #24]
 466 005e 42F40072 		orr	r2, r2, #512
 467 0062 9A61     		str	r2, [r3, #24]
 468              	.L21:
 469              	.LBE12:
 470              		.loc 1 149 0
 471 0064 019B     		ldr	r3, [sp, #4]
 472 0066 9B6A     		ldr	r3, [r3, #40]
 473 0068 4FF00002 		mov	r2, #0
 474 006c 5A60     		str	r2, [r3, #4]
 475              		.loc 1 150 0
 476 006e 019B     		ldr	r3, [sp, #4]
 477 0070 9B6A     		ldr	r3, [r3, #40]
 478 0072 4FF00002 		mov	r2, #0
 479 0076 9A60     		str	r2, [r3, #8]
 480              	.L19:
 481              		.loc 1 152 0
 482 0078 05B0     		add	sp, sp, #20
 483 007a 00BD     		pop	{pc}
 484              		.cfi_endproc
 485              	.LFE65:
 486              		.size	adc_lld_start, .-adc_lld_start
 487 007c AFF30080 		.section	.text.adc_lld_stop,"ax",%progbits
 488              		.align	2
 489              		.p2align 4,,15
 490              		.global	adc_lld_stop
 491              		.thumb
 492              		.thumb_func
 493              		.type	adc_lld_stop, %function
 494              	adc_lld_stop:
 495              	.LFB66:
 496              		.loc 1 161 0
 497              		.cfi_startproc
 498              		@ args = 0, pretend = 0, frame = 8
 499              		@ frame_needed = 0, uses_anonymous_args = 0
 500 0000 00B5     		push	{lr}
 501              	.LCFI5:
 502              		.cfi_def_cfa_offset 4
ARM GAS  C:\Users\z80\AppData\Local\Temp\ccyX2tGd.s 			page 10


 503 0002 83B0     		sub	sp, sp, #12
 504              	.LCFI6:
 505              		.cfi_def_cfa_offset 16
 506 0004 0190     		str	r0, [sp, #4]
 507              		.loc 1 164 0
 508 0006 019B     		ldr	r3, [sp, #4]
 509 0008 1B78     		ldrb	r3, [r3, #0]	@ zero_extendqisi2
 510 000a 022B     		cmp	r3, #2
 511 000c 25D1     		bne	.L22
 512              		.cfi_offset 14, -4
 513              		.loc 1 166 0
 514 000e 019A     		ldr	r2, [sp, #4]
 515 0010 40F20003 		movw	r3, #:lower16:ADCD1
 516 0014 C0F20003 		movt	r3, #:upper16:ADCD1
 517 0018 9A42     		cmp	r2, r3
 518 001a 1ED1     		bne	.L22
 519              		.loc 1 167 0
 520 001c 4FF41053 		mov	r3, #9216
 521 0020 C4F20103 		movt	r3, 16385
 522 0024 4FF00002 		mov	r2, #0
 523 0028 5A60     		str	r2, [r3, #4]
 524              		.loc 1 168 0
 525 002a 4FF41053 		mov	r3, #9216
 526 002e C4F20103 		movt	r3, 16385
 527 0032 4FF00002 		mov	r2, #0
 528 0036 9A60     		str	r2, [r3, #8]
 529              		.loc 1 169 0
 530 0038 019B     		ldr	r3, [sp, #4]
 531 003a DB6A     		ldr	r3, [r3, #44]
 532 003c 1846     		mov	r0, r3
 533 003e FFF7FEFF 		bl	dmaStreamRelease
 534              		.loc 1 170 0
 535 0042 4FF48053 		mov	r3, #4096
 536 0046 C4F20203 		movt	r3, 16386
 537 004a 4FF48052 		mov	r2, #4096
 538 004e C4F20202 		movt	r2, 16386
 539 0052 9269     		ldr	r2, [r2, #24]
 540 0054 22F40072 		bic	r2, r2, #512
 541 0058 9A61     		str	r2, [r3, #24]
 542              	.L22:
 543              		.loc 1 174 0
 544 005a 03B0     		add	sp, sp, #12
 545 005c 00BD     		pop	{pc}
 546              		.cfi_endproc
 547              	.LFE66:
 548              		.size	adc_lld_stop, .-adc_lld_stop
 549 005e 00BF     		.section	.text.adc_lld_start_conversion,"ax",%progbits
 550              		.align	2
 551              		.p2align 4,,15
 552              		.global	adc_lld_start_conversion
 553              		.thumb
 554              		.thumb_func
 555              		.type	adc_lld_start_conversion, %function
 556              	adc_lld_start_conversion:
 557              	.LFB67:
 558              		.loc 1 183 0
 559              		.cfi_startproc
ARM GAS  C:\Users\z80\AppData\Local\Temp\ccyX2tGd.s 			page 11


 560              		@ args = 0, pretend = 0, frame = 24
 561              		@ frame_needed = 0, uses_anonymous_args = 0
 562              		@ link register save eliminated.
 563 0000 86B0     		sub	sp, sp, #24
 564              	.LCFI7:
 565              		.cfi_def_cfa_offset 24
 566 0002 0190     		str	r0, [sp, #4]
 567              		.loc 1 185 0
 568 0004 019B     		ldr	r3, [sp, #4]
 569 0006 1B69     		ldr	r3, [r3, #16]
 570 0008 0393     		str	r3, [sp, #12]
 571              		.loc 1 188 0
 572 000a 019B     		ldr	r3, [sp, #4]
 573 000c 1B6B     		ldr	r3, [r3, #48]
 574 000e 0593     		str	r3, [sp, #20]
 575              		.loc 1 189 0
 576 0010 039B     		ldr	r3, [sp, #12]
 577 0012 1B78     		ldrb	r3, [r3, #0]	@ zero_extendqisi2
 578 0014 002B     		cmp	r3, #0
 579 0016 0BD0     		beq	.L25
 580              		.loc 1 190 0
 581 0018 059B     		ldr	r3, [sp, #20]
 582 001a 43F02003 		orr	r3, r3, #32
 583 001e 0593     		str	r3, [sp, #20]
 584              		.loc 1 191 0
 585 0020 019B     		ldr	r3, [sp, #4]
 586 0022 DB68     		ldr	r3, [r3, #12]
 587 0024 012B     		cmp	r3, #1
 588 0026 03D9     		bls	.L25
 589              		.loc 1 194 0
 590 0028 059B     		ldr	r3, [sp, #20]
 591 002a 43F00403 		orr	r3, r3, #4
 592 002e 0593     		str	r3, [sp, #20]
 593              	.L25:
 594              		.loc 1 197 0
 595 0030 019B     		ldr	r3, [sp, #4]
 596 0032 DB6A     		ldr	r3, [r3, #44]
 597 0034 1B68     		ldr	r3, [r3, #0]
 598 0036 019A     		ldr	r2, [sp, #4]
 599 0038 9268     		ldr	r2, [r2, #8]
 600 003a DA60     		str	r2, [r3, #12]
 601              		.loc 1 198 0
 602 003c 019B     		ldr	r3, [sp, #4]
 603 003e DB6A     		ldr	r3, [r3, #44]
 604 0040 1B68     		ldr	r3, [r3, #0]
 605 0042 039A     		ldr	r2, [sp, #12]
 606 0044 5288     		ldrh	r2, [r2, #2]
 607 0046 0199     		ldr	r1, [sp, #4]
 608 0048 C968     		ldr	r1, [r1, #12]
 609 004a 01FB02F2 		mul	r2, r1, r2
 610 004e 5A60     		str	r2, [r3, #4]
 611              		.loc 1 200 0
 612 0050 019B     		ldr	r3, [sp, #4]
 613 0052 DB6A     		ldr	r3, [r3, #44]
 614 0054 1B68     		ldr	r3, [r3, #0]
 615 0056 059A     		ldr	r2, [sp, #20]
 616 0058 1A60     		str	r2, [r3, #0]
ARM GAS  C:\Users\z80\AppData\Local\Temp\ccyX2tGd.s 			page 12


 617              		.loc 1 201 0
 618 005a 019B     		ldr	r3, [sp, #4]
 619 005c DB6A     		ldr	r3, [r3, #44]
 620 005e 1B68     		ldr	r3, [r3, #0]
 621 0060 019A     		ldr	r2, [sp, #4]
 622 0062 D26A     		ldr	r2, [r2, #44]
 623 0064 1268     		ldr	r2, [r2, #0]
 624 0066 1268     		ldr	r2, [r2, #0]
 625 0068 42F00102 		orr	r2, r2, #1
 626 006c 1A60     		str	r2, [r3, #0]
 627              		.loc 1 204 0
 628 006e 019B     		ldr	r3, [sp, #4]
 629 0070 9B6A     		ldr	r3, [r3, #40]
 630 0072 039A     		ldr	r2, [sp, #12]
 631 0074 D268     		ldr	r2, [r2, #12]
 632 0076 42F48072 		orr	r2, r2, #256
 633 007a 5A60     		str	r2, [r3, #4]
 634              		.loc 1 205 0
 635 007c 039B     		ldr	r3, [sp, #12]
 636 007e 1B69     		ldr	r3, [r3, #16]
 637 0080 43F48073 		orr	r3, r3, #256
 638 0084 43F00103 		orr	r3, r3, #1
 639 0088 0493     		str	r3, [sp, #16]
 640              		.loc 1 206 0
 641 008a 049B     		ldr	r3, [sp, #16]
 642 008c 03F48413 		and	r3, r3, #1081344
 643 0090 002B     		cmp	r3, #0
 644 0092 03D1     		bne	.L26
 645              		.loc 1 207 0
 646 0094 049B     		ldr	r3, [sp, #16]
 647 0096 43F00203 		orr	r3, r3, #2
 648 009a 0493     		str	r3, [sp, #16]
 649              	.L26:
 650              		.loc 1 208 0
 651 009c 019B     		ldr	r3, [sp, #4]
 652 009e 9B6A     		ldr	r3, [r3, #40]
 653 00a0 039A     		ldr	r2, [sp, #12]
 654 00a2 1169     		ldr	r1, [r2, #16]
 655 00a4 049A     		ldr	r2, [sp, #16]
 656 00a6 41EA0202 		orr	r2, r1, r2
 657 00aa 9A60     		str	r2, [r3, #8]
 658              		.loc 1 209 0
 659 00ac 019B     		ldr	r3, [sp, #4]
 660 00ae 9B6A     		ldr	r3, [r3, #40]
 661 00b0 039A     		ldr	r2, [sp, #12]
 662 00b2 5269     		ldr	r2, [r2, #20]
 663 00b4 DA60     		str	r2, [r3, #12]
 664              		.loc 1 210 0
 665 00b6 019B     		ldr	r3, [sp, #4]
 666 00b8 9B6A     		ldr	r3, [r3, #40]
 667 00ba 039A     		ldr	r2, [sp, #12]
 668 00bc 9269     		ldr	r2, [r2, #24]
 669 00be 1A61     		str	r2, [r3, #16]
 670              		.loc 1 211 0
 671 00c0 019B     		ldr	r3, [sp, #4]
 672 00c2 9B6A     		ldr	r3, [r3, #40]
 673 00c4 039A     		ldr	r2, [sp, #12]
ARM GAS  C:\Users\z80\AppData\Local\Temp\ccyX2tGd.s 			page 13


 674 00c6 D269     		ldr	r2, [r2, #28]
 675 00c8 DA62     		str	r2, [r3, #44]
 676              		.loc 1 212 0
 677 00ca 019B     		ldr	r3, [sp, #4]
 678 00cc 9B6A     		ldr	r3, [r3, #40]
 679 00ce 039A     		ldr	r2, [sp, #12]
 680 00d0 126A     		ldr	r2, [r2, #32]
 681 00d2 1A63     		str	r2, [r3, #48]
 682              		.loc 1 213 0
 683 00d4 019B     		ldr	r3, [sp, #4]
 684 00d6 9B6A     		ldr	r3, [r3, #40]
 685 00d8 039A     		ldr	r2, [sp, #12]
 686 00da 526A     		ldr	r2, [r2, #36]
 687 00dc 5A63     		str	r2, [r3, #52]
 688              		.loc 1 216 0
 689 00de 019B     		ldr	r3, [sp, #4]
 690 00e0 9B6A     		ldr	r3, [r3, #40]
 691 00e2 049A     		ldr	r2, [sp, #16]
 692 00e4 9A60     		str	r2, [r3, #8]
 693              		.loc 1 217 0
 694 00e6 06B0     		add	sp, sp, #24
 695 00e8 7047     		bx	lr
 696              		.cfi_endproc
 697              	.LFE67:
 698              		.size	adc_lld_start_conversion, .-adc_lld_start_conversion
 699 00ea 00BFAFF3 		.section	.text.adc_lld_stop_conversion,"ax",%progbits
 699      0080
 700              		.align	2
 701              		.p2align 4,,15
 702              		.global	adc_lld_stop_conversion
 703              		.thumb
 704              		.thumb_func
 705              		.type	adc_lld_stop_conversion, %function
 706              	adc_lld_stop_conversion:
 707              	.LFB68:
 708              		.loc 1 226 0
 709              		.cfi_startproc
 710              		@ args = 0, pretend = 0, frame = 8
 711              		@ frame_needed = 0, uses_anonymous_args = 0
 712              		@ link register save eliminated.
 713 0000 82B0     		sub	sp, sp, #8
 714              	.LCFI8:
 715              		.cfi_def_cfa_offset 8
 716 0002 0190     		str	r0, [sp, #4]
 717              		.loc 1 228 0
 718 0004 019B     		ldr	r3, [sp, #4]
 719 0006 DB6A     		ldr	r3, [r3, #44]
 720 0008 1B68     		ldr	r3, [r3, #0]
 721 000a 019A     		ldr	r2, [sp, #4]
 722 000c D26A     		ldr	r2, [r2, #44]
 723 000e 1268     		ldr	r2, [r2, #0]
 724 0010 1268     		ldr	r2, [r2, #0]
 725 0012 22F00F02 		bic	r2, r2, #15
 726 0016 1A60     		str	r2, [r3, #0]
 727 0018 019B     		ldr	r3, [sp, #4]
 728 001a DB6A     		ldr	r3, [r3, #44]
 729 001c 5B68     		ldr	r3, [r3, #4]
ARM GAS  C:\Users\z80\AppData\Local\Temp\ccyX2tGd.s 			page 14


 730 001e 019A     		ldr	r2, [sp, #4]
 731 0020 D26A     		ldr	r2, [r2, #44]
 732 0022 127A     		ldrb	r2, [r2, #8]	@ zero_extendqisi2
 733 0024 4FF00F01 		mov	r1, #15
 734 0028 01FA02F2 		lsl	r2, r1, r2
 735 002c 1A60     		str	r2, [r3, #0]
 736              		.loc 1 229 0
 737 002e 019B     		ldr	r3, [sp, #4]
 738 0030 9B6A     		ldr	r3, [r3, #40]
 739 0032 4FF00002 		mov	r2, #0
 740 0036 9A60     		str	r2, [r3, #8]
 741              		.loc 1 230 0
 742 0038 02B0     		add	sp, sp, #8
 743 003a 7047     		bx	lr
 744              		.cfi_endproc
 745              	.LFE68:
 746              		.size	adc_lld_stop_conversion, .-adc_lld_stop_conversion
 747 003c AFF30080 		.text
 748              	.Letext0: