ARM GAS  C:\Users\z80\AppData\Local\Temp\cc0Ltrhr.s 			page 1


   1              		.syntax unified
   2              		.cpu cortex-m3
   3              		.fpu softvfp
   4              		.eabi_attribute 20, 1
   5              		.eabi_attribute 21, 1
   6              		.eabi_attribute 23, 3
   7              		.eabi_attribute 24, 1
   8              		.eabi_attribute 25, 1
   9              		.eabi_attribute 26, 1
  10              		.eabi_attribute 30, 6
  11              		.eabi_attribute 18, 4
  12              		.thumb
  13              		.file	"chcore_v7m.c"
  20 0000 ED010000 		.text
  20      02003501 
  20      00000201 
  20      FB0E0D00 
  20      01010101 
  21              	.Ltext0:
  22              		.cfi_sections	.debug_frame
  23              		.section	.text.SysTickVector,"ax",%progbits
  24              		.align	2
  25              		.p2align 4,,15
  26              		.global	SysTickVector
  27              		.thumb
  28              		.thumb_func
  29              		.type	SysTickVector, %function
  30              	SysTickVector:
  31              	.LFB7:
  32              		.file 1 "../chibios_2.6.3/os/ports/GCC/ARMCMx/chcore_v7m.c"
  33              		.loc 1 47 0
  34              		.cfi_startproc
  35              		@ args = 0, pretend = 0, frame = 0
  36              		@ frame_needed = 0, uses_anonymous_args = 0
  37 0000 08B5     		push	{r3, lr}
  38              	.LCFI0:
  39              		.cfi_def_cfa_offset 8
  40              	.LBB2:
  41              		.loc 1 51 0
  42 0002 4FF02003 		mov	r3, #32
  43              		.cfi_offset 14, -4
  44              		.cfi_offset 3, -8
  45              	@ 51 "../chibios_2.6.3/os/ports/GCC/ARMCMx/chcore_v7m.c" 1
  46 0006 83F31188 		msr     BASEPRI, r3
  47              	@ 0 "" 2
  48              		.thumb
  49              	.LBE2:
  50              		.loc 1 52 0
  51 000a FFF7FEFF 		bl	chSysTimerHandlerI
  52              	.LBB3:
  53              		.loc 1 53 0
ARM GAS  C:\Users\z80\AppData\Local\Temp\cc0Ltrhr.s 			page 2


  54 000e 4FF00003 		mov	r3, #0
  55              	@ 53 "../chibios_2.6.3/os/ports/GCC/ARMCMx/chcore_v7m.c" 1
  56 0012 83F31188 		msr     BASEPRI, r3
  57              	@ 0 "" 2
  58              		.thumb
  59              	.LBE3:
  60              		.loc 1 55 0
  61 0016 FFF7FEFF 		bl	_port_irq_epilogue
  62              		.loc 1 56 0
  63 001a 08BD     		pop	{r3, pc}
  64              		.cfi_endproc
  65              	.LFE7:
  66              		.size	SysTickVector, .-SysTickVector
  67 001c AFF30080 		.section	.text.SVCallVector,"ax",%progbits
  68              		.align	2
  69              		.p2align 4,,15
  70              		.global	SVCallVector
  71              		.thumb
  72              		.thumb_func
  73              		.type	SVCallVector, %function
  74              	SVCallVector:
  75              	.LFB8:
  76              		.loc 1 65 0
  77              		.cfi_startproc
  78              		@ args = 0, pretend = 0, frame = 8
  79              		@ frame_needed = 0, uses_anonymous_args = 0
  80              		@ link register save eliminated.
  81 0000 10B4     		push	{r4}
  82              	.LCFI1:
  83              		.cfi_def_cfa_offset 4
  84 0002 83B0     		sub	sp, sp, #12
  85              	.LCFI2:
  86              		.cfi_def_cfa_offset 16
  87              		.loc 1 69 0
  88              	@ 69 "../chibios_2.6.3/os/ports/GCC/ARMCMx/chcore_v7m.c" 1
  89 0004 EFF30984 		mrs     r4, PSP
  90              	@ 0 "" 2
  91              		.thumb
  92 0008 0194     		str	r4, [sp, #4]
  93              		.loc 1 73 0
  94 000a 019B     		ldr	r3, [sp, #4]
  95 000c 03F12003 		add	r3, r3, #32
  96 0010 0193     		str	r3, [sp, #4]
  97              		.loc 1 80 0
  98 0012 019B     		ldr	r3, [sp, #4]
  99              	@ 80 "../chibios_2.6.3/os/ports/GCC/ARMCMx/chcore_v7m.c" 1
 100 0014 83F30988 		msr     PSP, r3
 101              	@ 0 "" 2
 102              		.thumb
 103              	.LBB4:
 104              		.loc 1 81 0
 105 0018 4FF00003 		mov	r3, #0
 106              	@ 81 "../chibios_2.6.3/os/ports/GCC/ARMCMx/chcore_v7m.c" 1
 107 001c 83F31188 		msr     BASEPRI, r3
 108              	@ 0 "" 2
 109              		.thumb
 110              	.LBE4:
ARM GAS  C:\Users\z80\AppData\Local\Temp\cc0Ltrhr.s 			page 3


 111              		.loc 1 82 0
 112 0020 03B0     		add	sp, sp, #12
 113 0022 10BC     		pop	{r4}
 114 0024 7047     		bx	lr
 115              		.cfi_offset 4, -4
 116              		.cfi_endproc
 117              	.LFE8:
 118              		.size	SVCallVector, .-SVCallVector
 119 0026 00BFAFF3 		.section	.text._port_init,"ax",%progbits
 119      0080AFF3 
 119      0080
 120              		.align	2
 121              		.p2align 4,,15
 122              		.global	_port_init
 123              		.thumb
 124              		.thumb_func
 125              		.type	_port_init, %function
 126              	_port_init:
 127              	.LFB9:
 128              		.loc 1 118 0
 129              		.cfi_startproc
 130              		@ args = 0, pretend = 0, frame = 0
 131              		@ frame_needed = 0, uses_anonymous_args = 0
 132 0000 08B5     		push	{r3, lr}
 133              	.LCFI3:
 134              		.cfi_def_cfa_offset 8
 135              		.loc 1 121 0
 136 0002 4FF46D43 		mov	r3, #60672
 137              		.cfi_offset 14, -4
 138              		.cfi_offset 3, -8
 139 0006 CEF20003 		movt	r3, 57344
 140 000a 4FF00002 		mov	r2, #0
 141 000e 9A60     		str	r2, [r3, #8]
 142              		.loc 1 122 0
 143 0010 4FF46D43 		mov	r3, #60672
 144 0014 CEF20003 		movt	r3, 57344
 145 0018 4FF44072 		mov	r2, #768
 146 001c C0F2FA52 		movt	r2, 1530
 147 0020 DA60     		str	r2, [r3, #12]
 148              		.loc 1 125 0
 149 0022 4FF00700 		mov	r0, #7
 150 0026 4FF01001 		mov	r1, #16
 151 002a FFF7FEFF 		bl	nvicSetSystemHandlerPriority
 152              		.loc 1 127 0
 153 002e 4FF00A00 		mov	r0, #10
 154 0032 4FF02001 		mov	r1, #32
 155 0036 FFF7FEFF 		bl	nvicSetSystemHandlerPriority
 156              		.loc 1 129 0
 157 003a 4FF00B00 		mov	r0, #11
 158 003e 4FF08001 		mov	r1, #128
 159 0042 FFF7FEFF 		bl	nvicSetSystemHandlerPriority
 160              		.loc 1 131 0
 161 0046 08BD     		pop	{r3, pc}
 162              		.cfi_endproc
 163              	.LFE9:
 164              		.size	_port_init, .-_port_init
 165 0048 AFF30080 		.section	.text._port_irq_epilogue,"ax",%progbits
ARM GAS  C:\Users\z80\AppData\Local\Temp\cc0Ltrhr.s 			page 4


 165      AFF30080 
 166              		.align	2
 167              		.p2align 4,,15
 168              		.global	_port_irq_epilogue
 169              		.thumb
 170              		.thumb_func
 171              		.type	_port_irq_epilogue, %function
 172              	_port_irq_epilogue:
 173              	.LFB10:
 174              		.loc 1 148 0
 175              		.cfi_startproc
 176              		@ args = 0, pretend = 0, frame = 8
 177              		@ frame_needed = 0, uses_anonymous_args = 0
 178              		@ link register save eliminated.
 179 0000 10B4     		push	{r4}
 180              	.LCFI4:
 181              		.cfi_def_cfa_offset 4
 182 0002 83B0     		sub	sp, sp, #12
 183              	.LCFI5:
 184              		.cfi_def_cfa_offset 16
 185              	.LBB5:
 186              		.loc 1 150 0
 187 0004 4FF02003 		mov	r3, #32
 188              	@ 150 "../chibios_2.6.3/os/ports/GCC/ARMCMx/chcore_v7m.c" 1
 189 0008 83F31188 		msr     BASEPRI, r3
 190              	@ 0 "" 2
 191              		.thumb
 192              	.LBE5:
 193              		.loc 1 151 0
 194 000c 4FF46D43 		mov	r3, #60672
 195 0010 CEF20003 		movt	r3, 57344
 196 0014 5B68     		ldr	r3, [r3, #4]
 197 0016 03F40063 		and	r3, r3, #2048
 198 001a 002B     		cmp	r3, #0
 199 001c 48D0     		beq	.L5
 200              		.cfi_offset 4, -4
 201              	.LBB6:
 202              		.loc 1 155 0
 203              	@ 155 "../chibios_2.6.3/os/ports/GCC/ARMCMx/chcore_v7m.c" 1
 204 001e EFF30984 		mrs     r4, PSP
 205              	@ 0 "" 2
 206              		.thumb
 207 0022 0194     		str	r4, [sp, #4]
 208              		.loc 1 159 0
 209 0024 019B     		ldr	r3, [sp, #4]
 210 0026 A3F12003 		sub	r3, r3, #32
 211 002a 0193     		str	r3, [sp, #4]
 212              		.loc 1 160 0
 213 002c 019B     		ldr	r3, [sp, #4]
 214              	@ 160 "../chibios_2.6.3/os/ports/GCC/ARMCMx/chcore_v7m.c" 1
 215 002e 83F30988 		msr     PSP, r3
 216              	@ 0 "" 2
 217              		.loc 1 161 0
 218              		.thumb
 219 0032 019B     		ldr	r3, [sp, #4]
 220 0034 4FF08072 		mov	r2, #16777216
 221 0038 DA61     		str	r2, [r3, #28]
ARM GAS  C:\Users\z80\AppData\Local\Temp\cc0Ltrhr.s 			page 5


 222              		.loc 1 165 0
 223 003a 40F20003 		movw	r3, #:lower16:rlist
 224 003e C0F20003 		movt	r3, #:upper16:rlist
 225 0042 9B69     		ldr	r3, [r3, #24]
 226 0044 DB7F     		ldrb	r3, [r3, #31]	@ zero_extendqisi2
 227 0046 002B     		cmp	r3, #0
 228 0048 11D0     		beq	.L6
 229              		.loc 1 165 0 is_stmt 0 discriminator 1
 230 004a 40F20003 		movw	r3, #:lower16:rlist
 231 004e C0F20003 		movt	r3, #:upper16:rlist
 232 0052 1B68     		ldr	r3, [r3, #0]
 233 0054 9A68     		ldr	r2, [r3, #8]
 234 0056 40F20003 		movw	r3, #:lower16:rlist
 235 005a C0F20003 		movt	r3, #:upper16:rlist
 236 005e 9B69     		ldr	r3, [r3, #24]
 237 0060 9B68     		ldr	r3, [r3, #8]
 238 0062 9A42     		cmp	r2, r3
 239 0064 94BF     		ite	ls
 240 0066 0023     		movls	r3, #0
 241 0068 0123     		movhi	r3, #1
 242 006a DBB2     		uxtb	r3, r3
 243 006c 10E0     		b	.L7
 244              	.L6:
 245              		.loc 1 165 0 discriminator 2
 246 006e 40F20003 		movw	r3, #:lower16:rlist
 247 0072 C0F20003 		movt	r3, #:upper16:rlist
 248 0076 1B68     		ldr	r3, [r3, #0]
 249 0078 9A68     		ldr	r2, [r3, #8]
 250 007a 40F20003 		movw	r3, #:lower16:rlist
 251 007e C0F20003 		movt	r3, #:upper16:rlist
 252 0082 9B69     		ldr	r3, [r3, #24]
 253 0084 9B68     		ldr	r3, [r3, #8]
 254 0086 9A42     		cmp	r2, r3
 255 0088 34BF     		ite	cc
 256 008a 0023     		movcc	r3, #0
 257 008c 0123     		movcs	r3, #1
 258 008e DBB2     		uxtb	r3, r3
 259              	.L7:
 260              		.loc 1 165 0 discriminator 3
 261 0090 002B     		cmp	r3, #0
 262 0092 06D0     		beq	.L8
 263              		.loc 1 167 0 is_stmt 1
 264 0094 019A     		ldr	r2, [sp, #4]
 265 0096 40F20003 		movw	r3, #:lower16:_port_switch_from_isr
 266 009a C0F20003 		movt	r3, #:upper16:_port_switch_from_isr
 267 009e 9361     		str	r3, [r2, #24]
 268              		.loc 1 195 0
 269 00a0 0AE0     		b	.L4
 270              	.L8:
 271              		.loc 1 176 0
 272 00a2 019A     		ldr	r2, [sp, #4]
 273 00a4 40F20003 		movw	r3, #:lower16:_port_exit_from_isr
 274 00a8 C0F20003 		movt	r3, #:upper16:_port_exit_from_isr
 275 00ac 9361     		str	r3, [r2, #24]
 276              		.loc 1 195 0
 277 00ae 03E0     		b	.L4
 278              	.L5:
ARM GAS  C:\Users\z80\AppData\Local\Temp\cc0Ltrhr.s 			page 6


 279              	.LBE6:
 280              	.LBB7:
 281              		.loc 1 197 0
 282 00b0 4FF00003 		mov	r3, #0
 283              	@ 197 "../chibios_2.6.3/os/ports/GCC/ARMCMx/chcore_v7m.c" 1
 284 00b4 83F31188 		msr     BASEPRI, r3
 285              	@ 0 "" 2
 286              		.thumb
 287              	.L4:
 288              	.LBE7:
 289              		.loc 1 198 0
 290 00b8 03B0     		add	sp, sp, #12
 291 00ba 10BC     		pop	{r4}
 292 00bc 7047     		bx	lr
 293              		.cfi_endproc
 294              	.LFE10:
 295              		.size	_port_irq_epilogue, .-_port_irq_epilogue
 296 00be 00BF     		.section	.text._port_switch_from_isr,"ax",%progbits
 297              		.align	2
 298              		.p2align 4,,15
 299              		.global	_port_switch_from_isr
 300              		.thumb
 301              		.thumb_func
 302              		.type	_port_switch_from_isr, %function
 303              	_port_switch_from_isr:
 304              	.LFB11:
 305              		.loc 1 207 0
 306              		.cfi_startproc
 307              		@ Naked Function: prologue and epilogue provided by programmer.
 308              		@ args = 0, pretend = 0, frame = 0
 309              		@ frame_needed = 0, uses_anonymous_args = 0
 310              		.loc 1 210 0
 311 0000 FFF7FEFF 		bl	chSchDoReschedule
 312              		.loc 1 212 0
 313              	@ 212 "../chibios_2.6.3/os/ports/GCC/ARMCMx/chcore_v7m.c" 1
 314              		_port_exit_from_isr:
 315              	@ 0 "" 2
 316              		.loc 1 214 0
 317              	@ 214 "../chibios_2.6.3/os/ports/GCC/ARMCMx/chcore_v7m.c" 1
 318 0004 00DF     		svc     #0
 319              	@ 0 "" 2
 320              		.loc 1 221 0
 321              		.thumb
 322              		.cfi_endproc
 323              	.LFE11:
 324              		.size	_port_switch_from_isr, .-_port_switch_from_isr
 325 0006 00BFAFF3 		.section	.text._port_switch,"ax",%progbits
 325      0080AFF3 
 325      0080
 326              		.align	2
 327              		.p2align 4,,15
 328              		.global	_port_switch
 329              		.thumb
 330              		.thumb_func
 331              		.type	_port_switch, %function
 332              	_port_switch:
 333              	.LFB12:
ARM GAS  C:\Users\z80\AppData\Local\Temp\cc0Ltrhr.s 			page 7


 334              		.loc 1 236 0
 335              		.cfi_startproc
 336              		@ Naked Function: prologue and epilogue provided by programmer.
 337              		@ args = 0, pretend = 0, frame = 0
 338              		@ frame_needed = 0, uses_anonymous_args = 0
 339 0000 0346     		mov	r3, r0
 340 0002 0A46     		mov	r2, r1
 341              		.loc 1 238 0
 342              	@ 238 "../chibios_2.6.3/os/ports/GCC/ARMCMx/chcore_v7m.c" 1
 343 0004 2DE9F04F 		push    {r4, r5, r6, r7, r8, r9, r10, r11, lr}
 344              	@ 0 "" 2
 345              		.loc 1 244 0
 346              	@ 244 "../chibios_2.6.3/os/ports/GCC/ARMCMx/chcore_v7m.c" 1
 347 0008 C2F80CD0 		str     sp, [r2, #12]                          
 348 000c D3F80CD0 		ldr     sp, [r3, #12]
 349              	@ 0 "" 2
 350              		.loc 1 250 0
 351              	@ 250 "../chibios_2.6.3/os/ports/GCC/ARMCMx/chcore_v7m.c" 1
 352 0010 BDE8F08F 		pop     {r4, r5, r6, r7, r8, r9, r10, r11, pc}
 353              	@ 0 "" 2
 354              		.loc 1 252 0
 355              		.thumb
 356              		.cfi_endproc
 357              	.LFE12:
 358              		.size	_port_switch, .-_port_switch
 359 0014 AFF30080 		.section	.text._port_thread_start,"ax",%progbits
 359      AFF30080 
 359      AFF30080 
 360              		.align	2
 361              		.p2align 4,,15
 362              		.global	_port_thread_start
 363              		.thumb
 364              		.thumb_func
 365              		.type	_port_thread_start, %function
 366              	_port_thread_start:
 367              	.LFB13:
 368              		.loc 1 259 0
 369              		.cfi_startproc
 370              		@ args = 0, pretend = 0, frame = 0
 371              		@ frame_needed = 0, uses_anonymous_args = 0
 372              		@ link register save eliminated.
 373              	.LBB8:
 374              		.loc 1 261 0
 375 0000 4FF00003 		mov	r3, #0
 376              	@ 261 "../chibios_2.6.3/os/ports/GCC/ARMCMx/chcore_v7m.c" 1
 377 0004 83F31188 		msr     BASEPRI, r3
 378              	@ 0 "" 2
 379              		.thumb
 380              	.LBE8:
 381              		.loc 1 262 0
 382              	@ 262 "../chibios_2.6.3/os/ports/GCC/ARMCMx/chcore_v7m.c" 1
 383 0008 2846     		mov     r0, r5                                 
 384 000a A047     		blx     r4                                     
 385 000c FFF7FEFF 		bl      chThdExit
 386              	@ 0 "" 2
 387              		.loc 1 265 0
 388              		.thumb
ARM GAS  C:\Users\z80\AppData\Local\Temp\cc0Ltrhr.s 			page 8


 389 0010 7047     		bx	lr
 390              		.cfi_endproc
 391              	.LFE13:
 392              		.size	_port_thread_start, .-_port_thread_start
 393 0012 00BFAFF3 		.text
 393      0080AFF3 
 393      0080AFF3 
 393      0080
 394              	.Letext0: