ARM GAS  C:\Users\z80\AppData\Local\Temp\cc94IzVL.s 			page 1


   1              		.syntax unified
   2              		.cpu cortex-m3
   3              		.fpu softvfp
   4              		.eabi_attribute 20, 1
   5              		.eabi_attribute 21, 1
   6              		.eabi_attribute 23, 3
   7              		.eabi_attribute 24, 1
   8              		.eabi_attribute 25, 1
   9              		.eabi_attribute 26, 1
  10              		.eabi_attribute 30, 6
  11              		.eabi_attribute 18, 4
  12              		.thumb
  13              		.file	"chevents.c"
  20 0000 08030000 		.text
  20      02002E01 
  20      00000201 
  20      FB0E0D00 
  20      01010101 
  21              	.Ltext0:
  22              		.cfi_sections	.debug_frame
  23              		.section	.text.chEvtRegisterMask,"ax",%progbits
  24              		.align	2
  25              		.p2align 4,,15
  26              		.global	chEvtRegisterMask
  27              		.thumb
  28              		.thumb_func
  29              		.type	chEvtRegisterMask, %function
  30              	chEvtRegisterMask:
  31              	.LFB7:
  32              		.file 1 "../chibios_2.6.3/os/kernel/src/chevents.c"
  33              		.loc 1 85 0
  34              		.cfi_startproc
  35              		@ args = 0, pretend = 0, frame = 16
  36              		@ frame_needed = 0, uses_anonymous_args = 0
  37              		@ link register save eliminated.
  38 0000 84B0     		sub	sp, sp, #16
  39              	.LCFI0:
  40              		.cfi_def_cfa_offset 16
  41 0002 0390     		str	r0, [sp, #12]
  42 0004 0291     		str	r1, [sp, #8]
  43 0006 0192     		str	r2, [sp, #4]
  44              		.loc 1 87 0
  45 0008 039B     		ldr	r3, [sp, #12]
  46 000a 002B     		cmp	r3, #0
  47 000c 01D0     		beq	.L3
  48              		.loc 1 87 0 is_stmt 0 discriminator 1
  49 000e 029B     		ldr	r3, [sp, #8]
  50 0010 002B     		cmp	r3, #0
  51              	.L3:
  52              	.LBB2:
  53              		.loc 1 89 0 is_stmt 1
ARM GAS  C:\Users\z80\AppData\Local\Temp\cc94IzVL.s 			page 2


  54 0012 4FF02003 		mov	r3, #32
  55              	@ 89 "../chibios_2.6.3/os/kernel/src/chevents.c" 1
  56 0016 83F31188 		msr     BASEPRI, r3
  57              	@ 0 "" 2
  58              		.thumb
  59              	.LBE2:
  60              		.loc 1 90 0
  61 001a 039B     		ldr	r3, [sp, #12]
  62 001c 1A68     		ldr	r2, [r3, #0]
  63 001e 029B     		ldr	r3, [sp, #8]
  64 0020 1A60     		str	r2, [r3, #0]
  65              		.loc 1 91 0
  66 0022 039B     		ldr	r3, [sp, #12]
  67 0024 029A     		ldr	r2, [sp, #8]
  68 0026 1A60     		str	r2, [r3, #0]
  69              		.loc 1 92 0
  70 0028 40F20003 		movw	r3, #:lower16:rlist
  71 002c C0F20003 		movt	r3, #:upper16:rlist
  72 0030 9A69     		ldr	r2, [r3, #24]
  73 0032 029B     		ldr	r3, [sp, #8]
  74 0034 5A60     		str	r2, [r3, #4]
  75              		.loc 1 93 0
  76 0036 029B     		ldr	r3, [sp, #8]
  77 0038 019A     		ldr	r2, [sp, #4]
  78 003a 9A60     		str	r2, [r3, #8]
  79              		.loc 1 94 0
  80 003c 029B     		ldr	r3, [sp, #8]
  81 003e 4FF00002 		mov	r2, #0
  82 0042 DA60     		str	r2, [r3, #12]
  83              	.LBB3:
  84              		.loc 1 95 0
  85 0044 4FF00003 		mov	r3, #0
  86              	@ 95 "../chibios_2.6.3/os/kernel/src/chevents.c" 1
  87 0048 83F31188 		msr     BASEPRI, r3
  88              	@ 0 "" 2
  89              		.thumb
  90              	.LBE3:
  91              		.loc 1 96 0
  92 004c 04B0     		add	sp, sp, #16
  93 004e 7047     		bx	lr
  94              		.cfi_endproc
  95              	.LFE7:
  96              		.size	chEvtRegisterMask, .-chEvtRegisterMask
  97              		.section	.text.chEvtUnregister,"ax",%progbits
  98              		.align	2
  99              		.p2align 4,,15
 100              		.global	chEvtUnregister
 101              		.thumb
 102              		.thumb_func
 103              		.type	chEvtUnregister, %function
 104              	chEvtUnregister:
 105              	.LFB8:
 106              		.loc 1 111 0
 107              		.cfi_startproc
 108              		@ args = 0, pretend = 0, frame = 16
 109              		@ frame_needed = 0, uses_anonymous_args = 0
 110              		@ link register save eliminated.
ARM GAS  C:\Users\z80\AppData\Local\Temp\cc94IzVL.s 			page 3


 111 0000 84B0     		sub	sp, sp, #16
 112              	.LCFI1:
 113              		.cfi_def_cfa_offset 16
 114 0002 0190     		str	r0, [sp, #4]
 115 0004 0091     		str	r1, [sp, #0]
 116              		.loc 1 114 0
 117 0006 019B     		ldr	r3, [sp, #4]
 118 0008 002B     		cmp	r3, #0
 119 000a 01D0     		beq	.L6
 120              		.loc 1 114 0 is_stmt 0 discriminator 1
 121 000c 009B     		ldr	r3, [sp, #0]
 122 000e 002B     		cmp	r3, #0
 123              	.L6:
 124              		.loc 1 116 0 is_stmt 1
 125 0010 019B     		ldr	r3, [sp, #4]
 126 0012 0393     		str	r3, [sp, #12]
 127              	.LBB4:
 128              		.loc 1 117 0
 129 0014 4FF02003 		mov	r3, #32
 130              	@ 117 "../chibios_2.6.3/os/kernel/src/chevents.c" 1
 131 0018 83F31188 		msr     BASEPRI, r3
 132              	@ 0 "" 2
 133              		.thumb
 134              	.LBE4:
 135              		.loc 1 118 0
 136 001c 0CE0     		b	.L7
 137              	.L10:
 138              		.loc 1 119 0
 139 001e 039B     		ldr	r3, [sp, #12]
 140 0020 1A68     		ldr	r2, [r3, #0]
 141 0022 009B     		ldr	r3, [sp, #0]
 142 0024 9A42     		cmp	r2, r3
 143 0026 04D1     		bne	.L8
 144              		.loc 1 120 0
 145 0028 009B     		ldr	r3, [sp, #0]
 146 002a 1A68     		ldr	r2, [r3, #0]
 147 002c 039B     		ldr	r3, [sp, #12]
 148 002e 1A60     		str	r2, [r3, #0]
 149              		.loc 1 121 0
 150 0030 07E0     		b	.L9
 151              	.L8:
 152              		.loc 1 123 0
 153 0032 039B     		ldr	r3, [sp, #12]
 154 0034 1B68     		ldr	r3, [r3, #0]
 155 0036 0393     		str	r3, [sp, #12]
 156              	.L7:
 157              		.loc 1 118 0 discriminator 1
 158 0038 039B     		ldr	r3, [sp, #12]
 159 003a 1A68     		ldr	r2, [r3, #0]
 160 003c 019B     		ldr	r3, [sp, #4]
 161 003e 9A42     		cmp	r2, r3
 162 0040 EDD1     		bne	.L10
 163              	.L9:
 164              	.LBB5:
 165              		.loc 1 125 0
 166 0042 4FF00003 		mov	r3, #0
 167              	@ 125 "../chibios_2.6.3/os/kernel/src/chevents.c" 1
ARM GAS  C:\Users\z80\AppData\Local\Temp\cc94IzVL.s 			page 4


 168 0046 83F31188 		msr     BASEPRI, r3
 169              	@ 0 "" 2
 170              		.thumb
 171              	.LBE5:
 172              		.loc 1 126 0
 173 004a 04B0     		add	sp, sp, #16
 174 004c 7047     		bx	lr
 175              		.cfi_endproc
 176              	.LFE8:
 177              		.size	chEvtUnregister, .-chEvtUnregister
 178 004e 00BF     		.section	.text.chEvtGetAndClearEvents,"ax",%progbits
 179              		.align	2
 180              		.p2align 4,,15
 181              		.global	chEvtGetAndClearEvents
 182              		.thumb
 183              		.thumb_func
 184              		.type	chEvtGetAndClearEvents, %function
 185              	chEvtGetAndClearEvents:
 186              	.LFB9:
 187              		.loc 1 136 0
 188              		.cfi_startproc
 189              		@ args = 0, pretend = 0, frame = 16
 190              		@ frame_needed = 0, uses_anonymous_args = 0
 191              		@ link register save eliminated.
 192 0000 84B0     		sub	sp, sp, #16
 193              	.LCFI2:
 194              		.cfi_def_cfa_offset 16
 195 0002 0190     		str	r0, [sp, #4]
 196              	.LBB6:
 197              		.loc 1 139 0
 198 0004 4FF02003 		mov	r3, #32
 199              	@ 139 "../chibios_2.6.3/os/kernel/src/chevents.c" 1
 200 0008 83F31188 		msr     BASEPRI, r3
 201              	@ 0 "" 2
 202              		.thumb
 203              	.LBE6:
 204              		.loc 1 141 0
 205 000c 40F20003 		movw	r3, #:lower16:rlist
 206 0010 C0F20003 		movt	r3, #:upper16:rlist
 207 0014 9B69     		ldr	r3, [r3, #24]
 208 0016 9A6B     		ldr	r2, [r3, #56]
 209 0018 019B     		ldr	r3, [sp, #4]
 210 001a 02EA0303 		and	r3, r2, r3
 211 001e 0393     		str	r3, [sp, #12]
 212              		.loc 1 142 0
 213 0020 40F20003 		movw	r3, #:lower16:rlist
 214 0024 C0F20003 		movt	r3, #:upper16:rlist
 215 0028 9A69     		ldr	r2, [r3, #24]
 216 002a 40F20003 		movw	r3, #:lower16:rlist
 217 002e C0F20003 		movt	r3, #:upper16:rlist
 218 0032 9B69     		ldr	r3, [r3, #24]
 219 0034 996B     		ldr	r1, [r3, #56]
 220 0036 019B     		ldr	r3, [sp, #4]
 221 0038 6FEA0303 		mvn	r3, r3
 222 003c 01EA0303 		and	r3, r1, r3
 223 0040 9363     		str	r3, [r2, #56]
 224              	.LBB7:
ARM GAS  C:\Users\z80\AppData\Local\Temp\cc94IzVL.s 			page 5


 225              		.loc 1 144 0
 226 0042 4FF00003 		mov	r3, #0
 227              	@ 144 "../chibios_2.6.3/os/kernel/src/chevents.c" 1
 228 0046 83F31188 		msr     BASEPRI, r3
 229              	@ 0 "" 2
 230              		.thumb
 231              	.LBE7:
 232              		.loc 1 145 0
 233 004a 039B     		ldr	r3, [sp, #12]
 234              		.loc 1 146 0
 235 004c 1846     		mov	r0, r3
 236 004e 04B0     		add	sp, sp, #16
 237 0050 7047     		bx	lr
 238              		.cfi_endproc
 239              	.LFE9:
 240              		.size	chEvtGetAndClearEvents, .-chEvtGetAndClearEvents
 241 0052 00BFAFF3 		.section	.text.chEvtAddEvents,"ax",%progbits
 241      0080AFF3 
 241      0080AFF3 
 241      0080
 242              		.align	2
 243              		.p2align 4,,15
 244              		.global	chEvtAddEvents
 245              		.thumb
 246              		.thumb_func
 247              		.type	chEvtAddEvents, %function
 248              	chEvtAddEvents:
 249              	.LFB10:
 250              		.loc 1 157 0
 251              		.cfi_startproc
 252              		@ args = 0, pretend = 0, frame = 8
 253              		@ frame_needed = 0, uses_anonymous_args = 0
 254              		@ link register save eliminated.
 255 0000 82B0     		sub	sp, sp, #8
 256              	.LCFI3:
 257              		.cfi_def_cfa_offset 8
 258 0002 0190     		str	r0, [sp, #4]
 259              	.LBB8:
 260              		.loc 1 159 0
 261 0004 4FF02003 		mov	r3, #32
 262              	@ 159 "../chibios_2.6.3/os/kernel/src/chevents.c" 1
 263 0008 83F31188 		msr     BASEPRI, r3
 264              	@ 0 "" 2
 265              		.thumb
 266              	.LBE8:
 267              		.loc 1 161 0
 268 000c 40F20003 		movw	r3, #:lower16:rlist
 269 0010 C0F20003 		movt	r3, #:upper16:rlist
 270 0014 9A69     		ldr	r2, [r3, #24]
 271 0016 40F20003 		movw	r3, #:lower16:rlist
 272 001a C0F20003 		movt	r3, #:upper16:rlist
 273 001e 9B69     		ldr	r3, [r3, #24]
 274 0020 996B     		ldr	r1, [r3, #56]
 275 0022 019B     		ldr	r3, [sp, #4]
 276 0024 41EA0303 		orr	r3, r1, r3
 277 0028 9363     		str	r3, [r2, #56]
 278 002a 936B     		ldr	r3, [r2, #56]
ARM GAS  C:\Users\z80\AppData\Local\Temp\cc94IzVL.s 			page 6


 279 002c 0193     		str	r3, [sp, #4]
 280              	.LBB9:
 281              		.loc 1 163 0
 282 002e 4FF00003 		mov	r3, #0
 283              	@ 163 "../chibios_2.6.3/os/kernel/src/chevents.c" 1
 284 0032 83F31188 		msr     BASEPRI, r3
 285              	@ 0 "" 2
 286              		.thumb
 287              	.LBE9:
 288              		.loc 1 164 0
 289 0036 019B     		ldr	r3, [sp, #4]
 290              		.loc 1 165 0
 291 0038 1846     		mov	r0, r3
 292 003a 02B0     		add	sp, sp, #8
 293 003c 7047     		bx	lr
 294              		.cfi_endproc
 295              	.LFE10:
 296              		.size	chEvtAddEvents, .-chEvtAddEvents
 297 003e 00BF     		.section	.text.chEvtBroadcastFlagsI,"ax",%progbits
 298              		.align	2
 299              		.p2align 4,,15
 300              		.global	chEvtBroadcastFlagsI
 301              		.thumb
 302              		.thumb_func
 303              		.type	chEvtBroadcastFlagsI, %function
 304              	chEvtBroadcastFlagsI:
 305              	.LFB11:
 306              		.loc 1 184 0
 307              		.cfi_startproc
 308              		@ args = 0, pretend = 0, frame = 16
 309              		@ frame_needed = 0, uses_anonymous_args = 0
 310 0000 00B5     		push	{lr}
 311              	.LCFI4:
 312              		.cfi_def_cfa_offset 4
 313 0002 85B0     		sub	sp, sp, #20
 314              	.LCFI5:
 315              		.cfi_def_cfa_offset 24
 316 0004 0190     		str	r0, [sp, #4]
 317 0006 0091     		str	r1, [sp, #0]
 318              		.loc 1 188 0
 319 0008 019B     		ldr	r3, [sp, #4]
 320 000a 002B     		cmp	r3, #0
 321              		.loc 1 190 0
 322 000c 019B     		ldr	r3, [sp, #4]
 323 000e 1B68     		ldr	r3, [r3, #0]
 324 0010 0393     		str	r3, [sp, #12]
 325              		.loc 1 191 0
 326 0012 11E0     		b	.L15
 327              		.cfi_offset 14, -4
 328              	.L16:
 329              		.loc 1 192 0
 330 0014 039B     		ldr	r3, [sp, #12]
 331 0016 DA68     		ldr	r2, [r3, #12]
 332 0018 009B     		ldr	r3, [sp, #0]
 333 001a 42EA0302 		orr	r2, r2, r3
 334 001e 039B     		ldr	r3, [sp, #12]
 335 0020 DA60     		str	r2, [r3, #12]
ARM GAS  C:\Users\z80\AppData\Local\Temp\cc94IzVL.s 			page 7


 336              		.loc 1 193 0
 337 0022 039B     		ldr	r3, [sp, #12]
 338 0024 5A68     		ldr	r2, [r3, #4]
 339 0026 039B     		ldr	r3, [sp, #12]
 340 0028 9B68     		ldr	r3, [r3, #8]
 341 002a 1046     		mov	r0, r2
 342 002c 1946     		mov	r1, r3
 343 002e FFF7FEFF 		bl	chEvtSignalI
 344              		.loc 1 194 0
 345 0032 039B     		ldr	r3, [sp, #12]
 346 0034 1B68     		ldr	r3, [r3, #0]
 347 0036 0393     		str	r3, [sp, #12]
 348              	.L15:
 349              		.loc 1 191 0 discriminator 1
 350 0038 019B     		ldr	r3, [sp, #4]
 351 003a 039A     		ldr	r2, [sp, #12]
 352 003c 9A42     		cmp	r2, r3
 353 003e E9D1     		bne	.L16
 354              		.loc 1 196 0
 355 0040 05B0     		add	sp, sp, #20
 356 0042 00BD     		pop	{pc}
 357              		.cfi_endproc
 358              	.LFE11:
 359              		.size	chEvtBroadcastFlagsI, .-chEvtBroadcastFlagsI
 360 0044 AFF30080 		.section	.text.chEvtGetAndClearFlags,"ax",%progbits
 360      AFF30080 
 360      AFF30080 
 361              		.align	2
 362              		.p2align 4,,15
 363              		.global	chEvtGetAndClearFlags
 364              		.thumb
 365              		.thumb_func
 366              		.type	chEvtGetAndClearFlags, %function
 367              	chEvtGetAndClearFlags:
 368              	.LFB12:
 369              		.loc 1 209 0
 370              		.cfi_startproc
 371              		@ args = 0, pretend = 0, frame = 16
 372              		@ frame_needed = 0, uses_anonymous_args = 0
 373              		@ link register save eliminated.
 374 0000 84B0     		sub	sp, sp, #16
 375              	.LCFI6:
 376              		.cfi_def_cfa_offset 16
 377 0002 0190     		str	r0, [sp, #4]
 378              	.LBB10:
 379              		.loc 1 212 0
 380 0004 4FF02003 		mov	r3, #32
 381              	@ 212 "../chibios_2.6.3/os/kernel/src/chevents.c" 1
 382 0008 83F31188 		msr     BASEPRI, r3
 383              	@ 0 "" 2
 384              		.thumb
 385              	.LBE10:
 386              		.loc 1 214 0
 387 000c 019B     		ldr	r3, [sp, #4]
 388 000e DB68     		ldr	r3, [r3, #12]
 389 0010 0393     		str	r3, [sp, #12]
 390              		.loc 1 215 0
ARM GAS  C:\Users\z80\AppData\Local\Temp\cc94IzVL.s 			page 8


 391 0012 019B     		ldr	r3, [sp, #4]
 392 0014 4FF00002 		mov	r2, #0
 393 0018 DA60     		str	r2, [r3, #12]
 394              	.LBB11:
 395              		.loc 1 217 0
 396 001a 4FF00003 		mov	r3, #0
 397              	@ 217 "../chibios_2.6.3/os/kernel/src/chevents.c" 1
 398 001e 83F31188 		msr     BASEPRI, r3
 399              	@ 0 "" 2
 400              		.thumb
 401              	.LBE11:
 402              		.loc 1 218 0
 403 0022 039B     		ldr	r3, [sp, #12]
 404              		.loc 1 219 0
 405 0024 1846     		mov	r0, r3
 406 0026 04B0     		add	sp, sp, #16
 407 0028 7047     		bx	lr
 408              		.cfi_endproc
 409              	.LFE12:
 410              		.size	chEvtGetAndClearFlags, .-chEvtGetAndClearFlags
 411 002a 00BFAFF3 		.section	.text.chEvtSignal,"ax",%progbits
 411      0080
 412              		.align	2
 413              		.p2align 4,,15
 414              		.global	chEvtSignal
 415              		.thumb
 416              		.thumb_func
 417              		.type	chEvtSignal, %function
 418              	chEvtSignal:
 419              	.LFB13:
 420              		.loc 1 229 0
 421              		.cfi_startproc
 422              		@ args = 0, pretend = 0, frame = 8
 423              		@ frame_needed = 0, uses_anonymous_args = 0
 424 0000 00B5     		push	{lr}
 425              	.LCFI7:
 426              		.cfi_def_cfa_offset 4
 427 0002 83B0     		sub	sp, sp, #12
 428              	.LCFI8:
 429              		.cfi_def_cfa_offset 16
 430 0004 0190     		str	r0, [sp, #4]
 431 0006 0091     		str	r1, [sp, #0]
 432              		.loc 1 231 0
 433 0008 019B     		ldr	r3, [sp, #4]
 434 000a 002B     		cmp	r3, #0
 435              	.LBB12:
 436              		.loc 1 233 0
 437 000c 4FF02003 		mov	r3, #32
 438              	@ 233 "../chibios_2.6.3/os/kernel/src/chevents.c" 1
 439 0010 83F31188 		msr     BASEPRI, r3
 440              	@ 0 "" 2
 441              		.thumb
 442              	.LBE12:
 443              		.loc 1 234 0
 444 0014 0198     		ldr	r0, [sp, #4]
 445 0016 0099     		ldr	r1, [sp, #0]
 446              		.cfi_offset 14, -4
ARM GAS  C:\Users\z80\AppData\Local\Temp\cc94IzVL.s 			page 9


 447 0018 FFF7FEFF 		bl	chEvtSignalI
 448              		.loc 1 235 0
 449 001c FFF7FEFF 		bl	chSchRescheduleS
 450              	.LBB13:
 451              		.loc 1 236 0
 452 0020 4FF00003 		mov	r3, #0
 453              	@ 236 "../chibios_2.6.3/os/kernel/src/chevents.c" 1
 454 0024 83F31188 		msr     BASEPRI, r3
 455              	@ 0 "" 2
 456              		.thumb
 457              	.LBE13:
 458              		.loc 1 237 0
 459 0028 03B0     		add	sp, sp, #12
 460 002a 00BD     		pop	{pc}
 461              		.cfi_endproc
 462              	.LFE13:
 463              		.size	chEvtSignal, .-chEvtSignal
 464 002c AFF30080 		.section	.text.chEvtSignalI,"ax",%progbits
 465              		.align	2
 466              		.p2align 4,,15
 467              		.global	chEvtSignalI
 468              		.thumb
 469              		.thumb_func
 470              		.type	chEvtSignalI, %function
 471              	chEvtSignalI:
 472              	.LFB14:
 473              		.loc 1 251 0
 474              		.cfi_startproc
 475              		@ args = 0, pretend = 0, frame = 8
 476              		@ frame_needed = 0, uses_anonymous_args = 0
 477 0000 00B5     		push	{lr}
 478              	.LCFI9:
 479              		.cfi_def_cfa_offset 4
 480 0002 83B0     		sub	sp, sp, #12
 481              	.LCFI10:
 482              		.cfi_def_cfa_offset 16
 483 0004 0190     		str	r0, [sp, #4]
 484 0006 0091     		str	r1, [sp, #0]
 485              		.loc 1 254 0
 486 0008 019B     		ldr	r3, [sp, #4]
 487 000a 002B     		cmp	r3, #0
 488              		.loc 1 256 0
 489 000c 019B     		ldr	r3, [sp, #4]
 490 000e 9A6B     		ldr	r2, [r3, #56]
 491 0010 009B     		ldr	r3, [sp, #0]
 492 0012 42EA0302 		orr	r2, r2, r3
 493 0016 019B     		ldr	r3, [sp, #4]
 494 0018 9A63     		str	r2, [r3, #56]
 495              		.loc 1 258 0
 496 001a 019B     		ldr	r3, [sp, #4]
 497 001c 1B7F     		ldrb	r3, [r3, #28]	@ zero_extendqisi2
 498 001e 082B     		cmp	r3, #8
 499 0020 07D1     		bne	.L22
 500              		.cfi_offset 14, -4
 501              		.loc 1 259 0 discriminator 1
 502 0022 019B     		ldr	r3, [sp, #4]
 503 0024 9A6B     		ldr	r2, [r3, #56]
ARM GAS  C:\Users\z80\AppData\Local\Temp\cc94IzVL.s 			page 10


 504 0026 019B     		ldr	r3, [sp, #4]
 505 0028 5B6A     		ldr	r3, [r3, #36]
 506 002a 02EA0303 		and	r3, r2, r3
 507              		.loc 1 258 0 discriminator 1
 508 002e 002B     		cmp	r3, #0
 509 0030 0DD1     		bne	.L23
 510              	.L22:
 511              		.loc 1 260 0
 512 0032 019B     		ldr	r3, [sp, #4]
 513 0034 1B7F     		ldrb	r3, [r3, #28]	@ zero_extendqisi2
 514              		.loc 1 259 0
 515 0036 092B     		cmp	r3, #9
 516 0038 10D1     		bne	.L20
 517              		.loc 1 261 0
 518 003a 019B     		ldr	r3, [sp, #4]
 519 003c 9A6B     		ldr	r2, [r3, #56]
 520 003e 019B     		ldr	r3, [sp, #4]
 521 0040 5B6A     		ldr	r3, [r3, #36]
 522 0042 02EA0302 		and	r2, r2, r3
 523 0046 019B     		ldr	r3, [sp, #4]
 524 0048 5B6A     		ldr	r3, [r3, #36]
 525              		.loc 1 260 0
 526 004a 9A42     		cmp	r2, r3
 527 004c 06D1     		bne	.L20
 528              	.L23:
 529              		.loc 1 262 0
 530 004e 0198     		ldr	r0, [sp, #4]
 531 0050 FFF7FEFF 		bl	chSchReadyI
 532 0054 0346     		mov	r3, r0
 533 0056 4FF00002 		mov	r2, #0
 534 005a 5A62     		str	r2, [r3, #36]
 535              	.L20:
 536              		.loc 1 263 0
 537 005c 03B0     		add	sp, sp, #12
 538 005e 00BD     		pop	{pc}
 539              		.cfi_endproc
 540              	.LFE14:
 541              		.size	chEvtSignalI, .-chEvtSignalI
 542              		.section	.text.chEvtBroadcastFlags,"ax",%progbits
 543              		.align	2
 544              		.p2align 4,,15
 545              		.global	chEvtBroadcastFlags
 546              		.thumb
 547              		.thumb_func
 548              		.type	chEvtBroadcastFlags, %function
 549              	chEvtBroadcastFlags:
 550              	.LFB15:
 551              		.loc 1 278 0
 552              		.cfi_startproc
 553              		@ args = 0, pretend = 0, frame = 8
 554              		@ frame_needed = 0, uses_anonymous_args = 0
 555 0000 00B5     		push	{lr}
 556              	.LCFI11:
 557              		.cfi_def_cfa_offset 4
 558 0002 83B0     		sub	sp, sp, #12
 559              	.LCFI12:
 560              		.cfi_def_cfa_offset 16
ARM GAS  C:\Users\z80\AppData\Local\Temp\cc94IzVL.s 			page 11


 561 0004 0190     		str	r0, [sp, #4]
 562 0006 0091     		str	r1, [sp, #0]
 563              	.LBB14:
 564              		.loc 1 280 0
 565 0008 4FF02003 		mov	r3, #32
 566              	@ 280 "../chibios_2.6.3/os/kernel/src/chevents.c" 1
 567 000c 83F31188 		msr     BASEPRI, r3
 568              	@ 0 "" 2
 569              		.thumb
 570              	.LBE14:
 571              		.loc 1 281 0
 572 0010 0198     		ldr	r0, [sp, #4]
 573 0012 0099     		ldr	r1, [sp, #0]
 574              		.cfi_offset 14, -4
 575 0014 FFF7FEFF 		bl	chEvtBroadcastFlagsI
 576              		.loc 1 282 0
 577 0018 FFF7FEFF 		bl	chSchRescheduleS
 578              	.LBB15:
 579              		.loc 1 283 0
 580 001c 4FF00003 		mov	r3, #0
 581              	@ 283 "../chibios_2.6.3/os/kernel/src/chevents.c" 1
 582 0020 83F31188 		msr     BASEPRI, r3
 583              	@ 0 "" 2
 584              		.thumb
 585              	.LBE15:
 586              		.loc 1 284 0
 587 0024 03B0     		add	sp, sp, #12
 588 0026 00BD     		pop	{pc}
 589              		.cfi_endproc
 590              	.LFE15:
 591              		.size	chEvtBroadcastFlags, .-chEvtBroadcastFlags
 592 0028 AFF30080 		.section	.text.chEvtGetAndClearFlagsI,"ax",%progbits
 592      AFF30080 
 593              		.align	2
 594              		.p2align 4,,15
 595              		.global	chEvtGetAndClearFlagsI
 596              		.thumb
 597              		.thumb_func
 598              		.type	chEvtGetAndClearFlagsI, %function
 599              	chEvtGetAndClearFlagsI:
 600              	.LFB16:
 601              		.loc 1 297 0
 602              		.cfi_startproc
 603              		@ args = 0, pretend = 0, frame = 16
 604              		@ frame_needed = 0, uses_anonymous_args = 0
 605              		@ link register save eliminated.
 606 0000 84B0     		sub	sp, sp, #16
 607              	.LCFI13:
 608              		.cfi_def_cfa_offset 16
 609 0002 0190     		str	r0, [sp, #4]
 610              		.loc 1 300 0
 611 0004 019B     		ldr	r3, [sp, #4]
 612 0006 DB68     		ldr	r3, [r3, #12]
 613 0008 0393     		str	r3, [sp, #12]
 614              		.loc 1 301 0
 615 000a 019B     		ldr	r3, [sp, #4]
 616 000c 4FF00002 		mov	r2, #0
ARM GAS  C:\Users\z80\AppData\Local\Temp\cc94IzVL.s 			page 12


 617 0010 DA60     		str	r2, [r3, #12]
 618              		.loc 1 303 0
 619 0012 039B     		ldr	r3, [sp, #12]
 620              		.loc 1 304 0
 621 0014 1846     		mov	r0, r3
 622 0016 04B0     		add	sp, sp, #16
 623 0018 7047     		bx	lr
 624              		.cfi_endproc
 625              	.LFE16:
 626              		.size	chEvtGetAndClearFlagsI, .-chEvtGetAndClearFlagsI
 627 001a 00BFAFF3 		.section	.text.chEvtDispatch,"ax",%progbits
 627      0080
 628              		.align	2
 629              		.p2align 4,,15
 630              		.global	chEvtDispatch
 631              		.thumb
 632              		.thumb_func
 633              		.type	chEvtDispatch, %function
 634              	chEvtDispatch:
 635              	.LFB17:
 636              		.loc 1 315 0
 637              		.cfi_startproc
 638              		@ args = 0, pretend = 0, frame = 16
 639              		@ frame_needed = 0, uses_anonymous_args = 0
 640 0000 00B5     		push	{lr}
 641              	.LCFI14:
 642              		.cfi_def_cfa_offset 4
 643 0002 85B0     		sub	sp, sp, #20
 644              	.LCFI15:
 645              		.cfi_def_cfa_offset 24
 646 0004 0190     		str	r0, [sp, #4]
 647 0006 0091     		str	r1, [sp, #0]
 648              		.loc 1 318 0
 649 0008 019B     		ldr	r3, [sp, #4]
 650 000a 002B     		cmp	r3, #0
 651              		.loc 1 320 0
 652 000c 4FF00003 		mov	r3, #0
 653 0010 0393     		str	r3, [sp, #12]
 654              		.loc 1 321 0
 655 0012 28E0     		b	.L29
 656              		.cfi_offset 14, -4
 657              	.L32:
 658              		.loc 1 322 0
 659 0014 4FF00102 		mov	r2, #1
 660 0018 039B     		ldr	r3, [sp, #12]
 661 001a 02FA03F3 		lsl	r3, r2, r3
 662 001e 1A46     		mov	r2, r3
 663 0020 009B     		ldr	r3, [sp, #0]
 664 0022 02EA0303 		and	r3, r2, r3
 665 0026 002B     		cmp	r3, #0
 666 0028 19D0     		beq	.L30
 667              		.loc 1 323 0
 668 002a 039B     		ldr	r3, [sp, #12]
 669 002c 4FEA8303 		lsl	r3, r3, #2
 670 0030 019A     		ldr	r2, [sp, #4]
 671 0032 1344     		add	r3, r2, r3
 672 0034 1B68     		ldr	r3, [r3, #0]
ARM GAS  C:\Users\z80\AppData\Local\Temp\cc94IzVL.s 			page 13


 673 0036 002B     		cmp	r3, #0
 674              		.loc 1 326 0
 675 0038 4FF00102 		mov	r2, #1
 676 003c 039B     		ldr	r3, [sp, #12]
 677 003e 02FA03F3 		lsl	r3, r2, r3
 678 0042 6FEA0303 		mvn	r3, r3
 679 0046 009A     		ldr	r2, [sp, #0]
 680 0048 02EA0303 		and	r3, r2, r3
 681 004c 0093     		str	r3, [sp, #0]
 682              		.loc 1 327 0
 683 004e 039B     		ldr	r3, [sp, #12]
 684 0050 4FEA8303 		lsl	r3, r3, #2
 685 0054 019A     		ldr	r2, [sp, #4]
 686 0056 1344     		add	r3, r2, r3
 687 0058 1B68     		ldr	r3, [r3, #0]
 688 005a 0398     		ldr	r0, [sp, #12]
 689 005c 9847     		blx	r3
 690              	.L30:
 691              		.loc 1 329 0
 692 005e 039B     		ldr	r3, [sp, #12]
 693 0060 03F10103 		add	r3, r3, #1
 694 0064 0393     		str	r3, [sp, #12]
 695              	.L29:
 696              		.loc 1 321 0 discriminator 1
 697 0066 009B     		ldr	r3, [sp, #0]
 698 0068 002B     		cmp	r3, #0
 699 006a D3D1     		bne	.L32
 700              		.loc 1 331 0
 701 006c 05B0     		add	sp, sp, #20
 702 006e 00BD     		pop	{pc}
 703              		.cfi_endproc
 704              	.LFE17:
 705              		.size	chEvtDispatch, .-chEvtDispatch
 706              		.section	.text.chEvtWaitOne,"ax",%progbits
 707              		.align	2
 708              		.p2align 4,,15
 709              		.global	chEvtWaitOne
 710              		.thumb
 711              		.thumb_func
 712              		.type	chEvtWaitOne, %function
 713              	chEvtWaitOne:
 714              	.LFB18:
 715              		.loc 1 350 0
 716              		.cfi_startproc
 717              		@ args = 0, pretend = 0, frame = 16
 718              		@ frame_needed = 0, uses_anonymous_args = 0
 719 0000 00B5     		push	{lr}
 720              	.LCFI16:
 721              		.cfi_def_cfa_offset 4
 722 0002 85B0     		sub	sp, sp, #20
 723              	.LCFI17:
 724              		.cfi_def_cfa_offset 24
 725 0004 0190     		str	r0, [sp, #4]
 726              		.loc 1 351 0
 727 0006 40F20003 		movw	r3, #:lower16:rlist
 728 000a C0F20003 		movt	r3, #:upper16:rlist
 729 000e 9B69     		ldr	r3, [r3, #24]
ARM GAS  C:\Users\z80\AppData\Local\Temp\cc94IzVL.s 			page 14


 730 0010 0293     		str	r3, [sp, #8]
 731              	.LBB16:
 732              		.loc 1 354 0
 733 0012 4FF02003 		mov	r3, #32
 734              	@ 354 "../chibios_2.6.3/os/kernel/src/chevents.c" 1
 735 0016 83F31188 		msr     BASEPRI, r3
 736              	@ 0 "" 2
 737              		.thumb
 738              	.LBE16:
 739              		.loc 1 356 0
 740 001a 029B     		ldr	r3, [sp, #8]
 741 001c 9A6B     		ldr	r2, [r3, #56]
 742 001e 019B     		ldr	r3, [sp, #4]
 743 0020 02EA0303 		and	r3, r2, r3
 744 0024 0393     		str	r3, [sp, #12]
 745 0026 039B     		ldr	r3, [sp, #12]
 746 0028 002B     		cmp	r3, #0
 747 002a 0CD1     		bne	.L34
 748              		.cfi_offset 14, -4
 749              		.loc 1 357 0
 750 002c 029B     		ldr	r3, [sp, #8]
 751 002e 019A     		ldr	r2, [sp, #4]
 752 0030 5A62     		str	r2, [r3, #36]
 753              		.loc 1 358 0
 754 0032 4FF00800 		mov	r0, #8
 755 0036 FFF7FEFF 		bl	chSchGoSleepS
 756              		.loc 1 359 0
 757 003a 029B     		ldr	r3, [sp, #8]
 758 003c 9A6B     		ldr	r2, [r3, #56]
 759 003e 019B     		ldr	r3, [sp, #4]
 760 0040 02EA0303 		and	r3, r2, r3
 761 0044 0393     		str	r3, [sp, #12]
 762              	.L34:
 763              		.loc 1 361 0
 764 0046 039B     		ldr	r3, [sp, #12]
 765 0048 C3F10003 		rsb	r3, r3, #0
 766 004c 039A     		ldr	r2, [sp, #12]
 767 004e 02EA0303 		and	r3, r2, r3
 768 0052 0393     		str	r3, [sp, #12]
 769              		.loc 1 362 0
 770 0054 029B     		ldr	r3, [sp, #8]
 771 0056 9A6B     		ldr	r2, [r3, #56]
 772 0058 039B     		ldr	r3, [sp, #12]
 773 005a 6FEA0303 		mvn	r3, r3
 774 005e 02EA0302 		and	r2, r2, r3
 775 0062 029B     		ldr	r3, [sp, #8]
 776 0064 9A63     		str	r2, [r3, #56]
 777              	.LBB17:
 778              		.loc 1 364 0
 779 0066 4FF00003 		mov	r3, #0
 780              	@ 364 "../chibios_2.6.3/os/kernel/src/chevents.c" 1
 781 006a 83F31188 		msr     BASEPRI, r3
 782              	@ 0 "" 2
 783              		.thumb
 784              	.LBE17:
 785              		.loc 1 365 0
 786 006e 039B     		ldr	r3, [sp, #12]
ARM GAS  C:\Users\z80\AppData\Local\Temp\cc94IzVL.s 			page 15


 787              		.loc 1 366 0
 788 0070 1846     		mov	r0, r3
 789 0072 05B0     		add	sp, sp, #20
 790 0074 00BD     		pop	{pc}
 791              		.cfi_endproc
 792              	.LFE18:
 793              		.size	chEvtWaitOne, .-chEvtWaitOne
 794 0076 00BFAFF3 		.section	.text.chEvtWaitAny,"ax",%progbits
 794      0080AFF3 
 794      0080
 795              		.align	2
 796              		.p2align 4,,15
 797              		.global	chEvtWaitAny
 798              		.thumb
 799              		.thumb_func
 800              		.type	chEvtWaitAny, %function
 801              	chEvtWaitAny:
 802              	.LFB19:
 803              		.loc 1 379 0
 804              		.cfi_startproc
 805              		@ args = 0, pretend = 0, frame = 16
 806              		@ frame_needed = 0, uses_anonymous_args = 0
 807 0000 00B5     		push	{lr}
 808              	.LCFI18:
 809              		.cfi_def_cfa_offset 4
 810 0002 85B0     		sub	sp, sp, #20
 811              	.LCFI19:
 812              		.cfi_def_cfa_offset 24
 813 0004 0190     		str	r0, [sp, #4]
 814              		.loc 1 380 0
 815 0006 40F20003 		movw	r3, #:lower16:rlist
 816 000a C0F20003 		movt	r3, #:upper16:rlist
 817 000e 9B69     		ldr	r3, [r3, #24]
 818 0010 0293     		str	r3, [sp, #8]
 819              	.LBB18:
 820              		.loc 1 383 0
 821 0012 4FF02003 		mov	r3, #32
 822              	@ 383 "../chibios_2.6.3/os/kernel/src/chevents.c" 1
 823 0016 83F31188 		msr     BASEPRI, r3
 824              	@ 0 "" 2
 825              		.thumb
 826              	.LBE18:
 827              		.loc 1 385 0
 828 001a 029B     		ldr	r3, [sp, #8]
 829 001c 9A6B     		ldr	r2, [r3, #56]
 830 001e 019B     		ldr	r3, [sp, #4]
 831 0020 02EA0303 		and	r3, r2, r3
 832 0024 0393     		str	r3, [sp, #12]
 833 0026 039B     		ldr	r3, [sp, #12]
 834 0028 002B     		cmp	r3, #0
 835 002a 0CD1     		bne	.L36
 836              		.cfi_offset 14, -4
 837              		.loc 1 386 0
 838 002c 029B     		ldr	r3, [sp, #8]
 839 002e 019A     		ldr	r2, [sp, #4]
 840 0030 5A62     		str	r2, [r3, #36]
 841              		.loc 1 387 0
ARM GAS  C:\Users\z80\AppData\Local\Temp\cc94IzVL.s 			page 16


 842 0032 4FF00800 		mov	r0, #8
 843 0036 FFF7FEFF 		bl	chSchGoSleepS
 844              		.loc 1 388 0
 845 003a 029B     		ldr	r3, [sp, #8]
 846 003c 9A6B     		ldr	r2, [r3, #56]
 847 003e 019B     		ldr	r3, [sp, #4]
 848 0040 02EA0303 		and	r3, r2, r3
 849 0044 0393     		str	r3, [sp, #12]
 850              	.L36:
 851              		.loc 1 390 0
 852 0046 029B     		ldr	r3, [sp, #8]
 853 0048 9A6B     		ldr	r2, [r3, #56]
 854 004a 039B     		ldr	r3, [sp, #12]
 855 004c 6FEA0303 		mvn	r3, r3
 856 0050 02EA0302 		and	r2, r2, r3
 857 0054 029B     		ldr	r3, [sp, #8]
 858 0056 9A63     		str	r2, [r3, #56]
 859              	.LBB19:
 860              		.loc 1 392 0
 861 0058 4FF00003 		mov	r3, #0
 862              	@ 392 "../chibios_2.6.3/os/kernel/src/chevents.c" 1
 863 005c 83F31188 		msr     BASEPRI, r3
 864              	@ 0 "" 2
 865              		.thumb
 866              	.LBE19:
 867              		.loc 1 393 0
 868 0060 039B     		ldr	r3, [sp, #12]
 869              		.loc 1 394 0
 870 0062 1846     		mov	r0, r3
 871 0064 05B0     		add	sp, sp, #20
 872 0066 00BD     		pop	{pc}
 873              		.cfi_endproc
 874              	.LFE19:
 875              		.size	chEvtWaitAny, .-chEvtWaitAny
 876 0068 AFF30080 		.section	.text.chEvtWaitAll,"ax",%progbits
 876      AFF30080 
 877              		.align	2
 878              		.p2align 4,,15
 879              		.global	chEvtWaitAll
 880              		.thumb
 881              		.thumb_func
 882              		.type	chEvtWaitAll, %function
 883              	chEvtWaitAll:
 884              	.LFB20:
 885              		.loc 1 407 0
 886              		.cfi_startproc
 887              		@ args = 0, pretend = 0, frame = 16
 888              		@ frame_needed = 0, uses_anonymous_args = 0
 889 0000 00B5     		push	{lr}
 890              	.LCFI20:
 891              		.cfi_def_cfa_offset 4
 892 0002 85B0     		sub	sp, sp, #20
 893              	.LCFI21:
 894              		.cfi_def_cfa_offset 24
 895 0004 0190     		str	r0, [sp, #4]
 896              		.loc 1 408 0
 897 0006 40F20003 		movw	r3, #:lower16:rlist
ARM GAS  C:\Users\z80\AppData\Local\Temp\cc94IzVL.s 			page 17


 898 000a C0F20003 		movt	r3, #:upper16:rlist
 899 000e 9B69     		ldr	r3, [r3, #24]
 900 0010 0393     		str	r3, [sp, #12]
 901              	.LBB20:
 902              		.loc 1 410 0
 903 0012 4FF02003 		mov	r3, #32
 904              	@ 410 "../chibios_2.6.3/os/kernel/src/chevents.c" 1
 905 0016 83F31188 		msr     BASEPRI, r3
 906              	@ 0 "" 2
 907              		.thumb
 908              	.LBE20:
 909              		.loc 1 412 0
 910 001a 039B     		ldr	r3, [sp, #12]
 911 001c 9A6B     		ldr	r2, [r3, #56]
 912 001e 019B     		ldr	r3, [sp, #4]
 913 0020 02EA0302 		and	r2, r2, r3
 914 0024 019B     		ldr	r3, [sp, #4]
 915 0026 9A42     		cmp	r2, r3
 916 0028 06D0     		beq	.L38
 917              		.cfi_offset 14, -4
 918              		.loc 1 413 0
 919 002a 039B     		ldr	r3, [sp, #12]
 920 002c 019A     		ldr	r2, [sp, #4]
 921 002e 5A62     		str	r2, [r3, #36]
 922              		.loc 1 414 0
 923 0030 4FF00900 		mov	r0, #9
 924 0034 FFF7FEFF 		bl	chSchGoSleepS
 925              	.L38:
 926              		.loc 1 416 0
 927 0038 039B     		ldr	r3, [sp, #12]
 928 003a 9A6B     		ldr	r2, [r3, #56]
 929 003c 019B     		ldr	r3, [sp, #4]
 930 003e 6FEA0303 		mvn	r3, r3
 931 0042 02EA0302 		and	r2, r2, r3
 932 0046 039B     		ldr	r3, [sp, #12]
 933 0048 9A63     		str	r2, [r3, #56]
 934              	.LBB21:
 935              		.loc 1 418 0
 936 004a 4FF00003 		mov	r3, #0
 937              	@ 418 "../chibios_2.6.3/os/kernel/src/chevents.c" 1
 938 004e 83F31188 		msr     BASEPRI, r3
 939              	@ 0 "" 2
 940              		.thumb
 941              	.LBE21:
 942              		.loc 1 419 0
 943 0052 019B     		ldr	r3, [sp, #4]
 944              		.loc 1 420 0
 945 0054 1846     		mov	r0, r3
 946 0056 05B0     		add	sp, sp, #20
 947 0058 00BD     		pop	{pc}
 948              		.cfi_endproc
 949              	.LFE20:
 950              		.size	chEvtWaitAll, .-chEvtWaitAll
 951 005a 00BFAFF3 		.section	.text.chEvtWaitOneTimeout,"ax",%progbits
 951      0080
 952              		.align	2
 953              		.p2align 4,,15
ARM GAS  C:\Users\z80\AppData\Local\Temp\cc94IzVL.s 			page 18


 954              		.global	chEvtWaitOneTimeout
 955              		.thumb
 956              		.thumb_func
 957              		.type	chEvtWaitOneTimeout, %function
 958              	chEvtWaitOneTimeout:
 959              	.LFB21:
 960              		.loc 1 446 0
 961              		.cfi_startproc
 962              		@ args = 0, pretend = 0, frame = 16
 963              		@ frame_needed = 0, uses_anonymous_args = 0
 964 0000 00B5     		push	{lr}
 965              	.LCFI22:
 966              		.cfi_def_cfa_offset 4
 967 0002 85B0     		sub	sp, sp, #20
 968              	.LCFI23:
 969              		.cfi_def_cfa_offset 24
 970 0004 0190     		str	r0, [sp, #4]
 971 0006 0091     		str	r1, [sp, #0]
 972              		.loc 1 447 0
 973 0008 40F20003 		movw	r3, #:lower16:rlist
 974 000c C0F20003 		movt	r3, #:upper16:rlist
 975 0010 9B69     		ldr	r3, [r3, #24]
 976 0012 0293     		str	r3, [sp, #8]
 977              	.LBB22:
 978              		.loc 1 450 0
 979 0014 4FF02003 		mov	r3, #32
 980              	@ 450 "../chibios_2.6.3/os/kernel/src/chevents.c" 1
 981 0018 83F31188 		msr     BASEPRI, r3
 982              	@ 0 "" 2
 983              		.thumb
 984              	.LBE22:
 985              		.loc 1 452 0
 986 001c 029B     		ldr	r3, [sp, #8]
 987 001e 9A6B     		ldr	r2, [r3, #56]
 988 0020 019B     		ldr	r3, [sp, #4]
 989 0022 02EA0303 		and	r3, r2, r3
 990 0026 0393     		str	r3, [sp, #12]
 991 0028 039B     		ldr	r3, [sp, #12]
 992 002a 002B     		cmp	r3, #0
 993 002c 21D1     		bne	.L40
 994              		.cfi_offset 14, -4
 995              		.loc 1 453 0
 996 002e 009B     		ldr	r3, [sp, #0]
 997 0030 002B     		cmp	r3, #0
 998 0032 06D1     		bne	.L41
 999              	.LBB23:
 1000              		.loc 1 454 0
 1001 0034 4FF00003 		mov	r3, #0
 1002              	@ 454 "../chibios_2.6.3/os/kernel/src/chevents.c" 1
 1003 0038 83F31188 		msr     BASEPRI, r3
 1004              	@ 0 "" 2
 1005              		.thumb
 1006              	.LBE23:
 1007              		.loc 1 455 0
 1008 003c 4FF00003 		mov	r3, #0
 1009 0040 2CE0     		b	.L42
 1010              	.L41:
ARM GAS  C:\Users\z80\AppData\Local\Temp\cc94IzVL.s 			page 19


 1011              		.loc 1 457 0
 1012 0042 029B     		ldr	r3, [sp, #8]
 1013 0044 019A     		ldr	r2, [sp, #4]
 1014 0046 5A62     		str	r2, [r3, #36]
 1015              		.loc 1 458 0
 1016 0048 4FF00800 		mov	r0, #8
 1017 004c 0099     		ldr	r1, [sp, #0]
 1018 004e FFF7FEFF 		bl	chSchGoSleepTimeoutS
 1019 0052 0346     		mov	r3, r0
 1020 0054 002B     		cmp	r3, #0
 1021 0056 06DA     		bge	.L43
 1022              	.LBB24:
 1023              		.loc 1 459 0
 1024 0058 4FF00003 		mov	r3, #0
 1025              	@ 459 "../chibios_2.6.3/os/kernel/src/chevents.c" 1
 1026 005c 83F31188 		msr     BASEPRI, r3
 1027              	@ 0 "" 2
 1028              		.thumb
 1029              	.LBE24:
 1030              		.loc 1 460 0
 1031 0060 4FF00003 		mov	r3, #0
 1032 0064 1AE0     		b	.L42
 1033              	.L43:
 1034              		.loc 1 462 0
 1035 0066 029B     		ldr	r3, [sp, #8]
 1036 0068 9A6B     		ldr	r2, [r3, #56]
 1037 006a 019B     		ldr	r3, [sp, #4]
 1038 006c 02EA0303 		and	r3, r2, r3
 1039 0070 0393     		str	r3, [sp, #12]
 1040              	.L40:
 1041              		.loc 1 464 0
 1042 0072 039B     		ldr	r3, [sp, #12]
 1043 0074 C3F10003 		rsb	r3, r3, #0
 1044 0078 039A     		ldr	r2, [sp, #12]
 1045 007a 02EA0303 		and	r3, r2, r3
 1046 007e 0393     		str	r3, [sp, #12]
 1047              		.loc 1 465 0
 1048 0080 029B     		ldr	r3, [sp, #8]
 1049 0082 9A6B     		ldr	r2, [r3, #56]
 1050 0084 039B     		ldr	r3, [sp, #12]
 1051 0086 6FEA0303 		mvn	r3, r3
 1052 008a 02EA0302 		and	r2, r2, r3
 1053 008e 029B     		ldr	r3, [sp, #8]
 1054 0090 9A63     		str	r2, [r3, #56]
 1055              	.LBB25:
 1056              		.loc 1 467 0
 1057 0092 4FF00003 		mov	r3, #0
 1058              	@ 467 "../chibios_2.6.3/os/kernel/src/chevents.c" 1
 1059 0096 83F31188 		msr     BASEPRI, r3
 1060              	@ 0 "" 2
 1061              		.thumb
 1062              	.LBE25:
 1063              		.loc 1 468 0
 1064 009a 039B     		ldr	r3, [sp, #12]
 1065              	.L42:
 1066              		.loc 1 469 0
 1067 009c 1846     		mov	r0, r3
ARM GAS  C:\Users\z80\AppData\Local\Temp\cc94IzVL.s 			page 20


 1068 009e 05B0     		add	sp, sp, #20
 1069 00a0 00BD     		pop	{pc}
 1070              		.cfi_endproc
 1071              	.LFE21:
 1072              		.size	chEvtWaitOneTimeout, .-chEvtWaitOneTimeout
 1073 00a2 00BFAFF3 		.section	.text.chEvtWaitAnyTimeout,"ax",%progbits
 1073      0080AFF3 
 1073      0080AFF3 
 1073      0080
 1074              		.align	2
 1075              		.p2align 4,,15
 1076              		.global	chEvtWaitAnyTimeout
 1077              		.thumb
 1078              		.thumb_func
 1079              		.type	chEvtWaitAnyTimeout, %function
 1080              	chEvtWaitAnyTimeout:
 1081              	.LFB22:
 1082              		.loc 1 489 0
 1083              		.cfi_startproc
 1084              		@ args = 0, pretend = 0, frame = 16
 1085              		@ frame_needed = 0, uses_anonymous_args = 0
 1086 0000 00B5     		push	{lr}
 1087              	.LCFI24:
 1088              		.cfi_def_cfa_offset 4
 1089 0002 85B0     		sub	sp, sp, #20
 1090              	.LCFI25:
 1091              		.cfi_def_cfa_offset 24
 1092 0004 0190     		str	r0, [sp, #4]
 1093 0006 0091     		str	r1, [sp, #0]
 1094              		.loc 1 490 0
 1095 0008 40F20003 		movw	r3, #:lower16:rlist
 1096 000c C0F20003 		movt	r3, #:upper16:rlist
 1097 0010 9B69     		ldr	r3, [r3, #24]
 1098 0012 0293     		str	r3, [sp, #8]
 1099              	.LBB26:
 1100              		.loc 1 493 0
 1101 0014 4FF02003 		mov	r3, #32
 1102              	@ 493 "../chibios_2.6.3/os/kernel/src/chevents.c" 1
 1103 0018 83F31188 		msr     BASEPRI, r3
 1104              	@ 0 "" 2
 1105              		.thumb
 1106              	.LBE26:
 1107              		.loc 1 495 0
 1108 001c 029B     		ldr	r3, [sp, #8]
 1109 001e 9A6B     		ldr	r2, [r3, #56]
 1110 0020 019B     		ldr	r3, [sp, #4]
 1111 0022 02EA0303 		and	r3, r2, r3
 1112 0026 0393     		str	r3, [sp, #12]
 1113 0028 039B     		ldr	r3, [sp, #12]
 1114 002a 002B     		cmp	r3, #0
 1115 002c 21D1     		bne	.L45
 1116              		.cfi_offset 14, -4
 1117              		.loc 1 496 0
 1118 002e 009B     		ldr	r3, [sp, #0]
 1119 0030 002B     		cmp	r3, #0
 1120 0032 06D1     		bne	.L46
 1121              	.LBB27:
ARM GAS  C:\Users\z80\AppData\Local\Temp\cc94IzVL.s 			page 21


 1122              		.loc 1 497 0
 1123 0034 4FF00003 		mov	r3, #0
 1124              	@ 497 "../chibios_2.6.3/os/kernel/src/chevents.c" 1
 1125 0038 83F31188 		msr     BASEPRI, r3
 1126              	@ 0 "" 2
 1127              		.thumb
 1128              	.LBE27:
 1129              		.loc 1 498 0
 1130 003c 4FF00003 		mov	r3, #0
 1131 0040 25E0     		b	.L47
 1132              	.L46:
 1133              		.loc 1 500 0
 1134 0042 029B     		ldr	r3, [sp, #8]
 1135 0044 019A     		ldr	r2, [sp, #4]
 1136 0046 5A62     		str	r2, [r3, #36]
 1137              		.loc 1 501 0
 1138 0048 4FF00800 		mov	r0, #8
 1139 004c 0099     		ldr	r1, [sp, #0]
 1140 004e FFF7FEFF 		bl	chSchGoSleepTimeoutS
 1141 0052 0346     		mov	r3, r0
 1142 0054 002B     		cmp	r3, #0
 1143 0056 06DA     		bge	.L48
 1144              	.LBB28:
 1145              		.loc 1 502 0
 1146 0058 4FF00003 		mov	r3, #0
 1147              	@ 502 "../chibios_2.6.3/os/kernel/src/chevents.c" 1
 1148 005c 83F31188 		msr     BASEPRI, r3
 1149              	@ 0 "" 2
 1150              		.thumb
 1151              	.LBE28:
 1152              		.loc 1 503 0
 1153 0060 4FF00003 		mov	r3, #0
 1154 0064 13E0     		b	.L47
 1155              	.L48:
 1156              		.loc 1 505 0
 1157 0066 029B     		ldr	r3, [sp, #8]
 1158 0068 9A6B     		ldr	r2, [r3, #56]
 1159 006a 019B     		ldr	r3, [sp, #4]
 1160 006c 02EA0303 		and	r3, r2, r3
 1161 0070 0393     		str	r3, [sp, #12]
 1162              	.L45:
 1163              		.loc 1 507 0
 1164 0072 029B     		ldr	r3, [sp, #8]
 1165 0074 9A6B     		ldr	r2, [r3, #56]
 1166 0076 039B     		ldr	r3, [sp, #12]
 1167 0078 6FEA0303 		mvn	r3, r3
 1168 007c 02EA0302 		and	r2, r2, r3
 1169 0080 029B     		ldr	r3, [sp, #8]
 1170 0082 9A63     		str	r2, [r3, #56]
 1171              	.LBB29:
 1172              		.loc 1 509 0
 1173 0084 4FF00003 		mov	r3, #0
 1174              	@ 509 "../chibios_2.6.3/os/kernel/src/chevents.c" 1
 1175 0088 83F31188 		msr     BASEPRI, r3
 1176              	@ 0 "" 2
 1177              		.thumb
 1178              	.LBE29:
ARM GAS  C:\Users\z80\AppData\Local\Temp\cc94IzVL.s 			page 22


 1179              		.loc 1 510 0
 1180 008c 039B     		ldr	r3, [sp, #12]
 1181              	.L47:
 1182              		.loc 1 511 0
 1183 008e 1846     		mov	r0, r3
 1184 0090 05B0     		add	sp, sp, #20
 1185 0092 00BD     		pop	{pc}
 1186              		.cfi_endproc
 1187              	.LFE22:
 1188              		.size	chEvtWaitAnyTimeout, .-chEvtWaitAnyTimeout
 1189 0094 AFF30080 		.section	.text.chEvtWaitAllTimeout,"ax",%progbits
 1189      AFF30080 
 1189      AFF30080 
 1190              		.align	2
 1191              		.p2align 4,,15
 1192              		.global	chEvtWaitAllTimeout
 1193              		.thumb
 1194              		.thumb_func
 1195              		.type	chEvtWaitAllTimeout, %function
 1196              	chEvtWaitAllTimeout:
 1197              	.LFB23:
 1198              		.loc 1 530 0
 1199              		.cfi_startproc
 1200              		@ args = 0, pretend = 0, frame = 16
 1201              		@ frame_needed = 0, uses_anonymous_args = 0
 1202 0000 00B5     		push	{lr}
 1203              	.LCFI26:
 1204              		.cfi_def_cfa_offset 4
 1205 0002 85B0     		sub	sp, sp, #20
 1206              	.LCFI27:
 1207              		.cfi_def_cfa_offset 24
 1208 0004 0190     		str	r0, [sp, #4]
 1209 0006 0091     		str	r1, [sp, #0]
 1210              		.loc 1 531 0
 1211 0008 40F20003 		movw	r3, #:lower16:rlist
 1212 000c C0F20003 		movt	r3, #:upper16:rlist
 1213 0010 9B69     		ldr	r3, [r3, #24]
 1214 0012 0393     		str	r3, [sp, #12]
 1215              	.LBB30:
 1216              		.loc 1 533 0
 1217 0014 4FF02003 		mov	r3, #32
 1218              	@ 533 "../chibios_2.6.3/os/kernel/src/chevents.c" 1
 1219 0018 83F31188 		msr     BASEPRI, r3
 1220              	@ 0 "" 2
 1221              		.thumb
 1222              	.LBE30:
 1223              		.loc 1 535 0
 1224 001c 039B     		ldr	r3, [sp, #12]
 1225 001e 9A6B     		ldr	r2, [r3, #56]
 1226 0020 019B     		ldr	r3, [sp, #4]
 1227 0022 02EA0302 		and	r2, r2, r3
 1228 0026 019B     		ldr	r3, [sp, #4]
 1229 0028 9A42     		cmp	r2, r3
 1230 002a 1BD0     		beq	.L50
 1231              		.cfi_offset 14, -4
 1232              		.loc 1 536 0
 1233 002c 009B     		ldr	r3, [sp, #0]
ARM GAS  C:\Users\z80\AppData\Local\Temp\cc94IzVL.s 			page 23


 1234 002e 002B     		cmp	r3, #0
 1235 0030 06D1     		bne	.L51
 1236              	.LBB31:
 1237              		.loc 1 537 0
 1238 0032 4FF00003 		mov	r3, #0
 1239              	@ 537 "../chibios_2.6.3/os/kernel/src/chevents.c" 1
 1240 0036 83F31188 		msr     BASEPRI, r3
 1241              	@ 0 "" 2
 1242              		.thumb
 1243              	.LBE31:
 1244              		.loc 1 538 0
 1245 003a 4FF00003 		mov	r3, #0
 1246 003e 1FE0     		b	.L52
 1247              	.L51:
 1248              		.loc 1 540 0
 1249 0040 039B     		ldr	r3, [sp, #12]
 1250 0042 019A     		ldr	r2, [sp, #4]
 1251 0044 5A62     		str	r2, [r3, #36]
 1252              		.loc 1 541 0
 1253 0046 4FF00900 		mov	r0, #9
 1254 004a 0099     		ldr	r1, [sp, #0]
 1255 004c FFF7FEFF 		bl	chSchGoSleepTimeoutS
 1256 0050 0346     		mov	r3, r0
 1257 0052 002B     		cmp	r3, #0
 1258 0054 06DA     		bge	.L50
 1259              	.LBB32:
 1260              		.loc 1 542 0
 1261 0056 4FF00003 		mov	r3, #0
 1262              	@ 542 "../chibios_2.6.3/os/kernel/src/chevents.c" 1
 1263 005a 83F31188 		msr     BASEPRI, r3
 1264              	@ 0 "" 2
 1265              		.thumb
 1266              	.LBE32:
 1267              		.loc 1 543 0
 1268 005e 4FF00003 		mov	r3, #0
 1269 0062 0DE0     		b	.L52
 1270              	.L50:
 1271              		.loc 1 546 0
 1272 0064 039B     		ldr	r3, [sp, #12]
 1273 0066 9A6B     		ldr	r2, [r3, #56]
 1274 0068 019B     		ldr	r3, [sp, #4]
 1275 006a 6FEA0303 		mvn	r3, r3
 1276 006e 02EA0302 		and	r2, r2, r3
 1277 0072 039B     		ldr	r3, [sp, #12]
 1278 0074 9A63     		str	r2, [r3, #56]
 1279              	.LBB33:
 1280              		.loc 1 548 0
 1281 0076 4FF00003 		mov	r3, #0
 1282              	@ 548 "../chibios_2.6.3/os/kernel/src/chevents.c" 1
 1283 007a 83F31188 		msr     BASEPRI, r3
 1284              	@ 0 "" 2
 1285              		.thumb
 1286              	.LBE33:
 1287              		.loc 1 549 0
 1288 007e 019B     		ldr	r3, [sp, #4]
 1289              	.L52:
 1290              		.loc 1 550 0
ARM GAS  C:\Users\z80\AppData\Local\Temp\cc94IzVL.s 			page 24


 1291 0080 1846     		mov	r0, r3
 1292 0082 05B0     		add	sp, sp, #20
 1293 0084 00BD     		pop	{pc}
 1294              		.cfi_endproc
 1295              	.LFE23:
 1296              		.size	chEvtWaitAllTimeout, .-chEvtWaitAllTimeout
 1297 0086 00BFAFF3 		.text
 1297      0080AFF3 
 1297      0080
 1298              	.Letext0: