ARM GAS  C:\Users\z80\AppData\Local\Temp\cc94IzVL.s 			page 1


   1              		.syntax unified
   2              		.cpu cortex-m3
   3              		.fpu softvfp
   4              		.eabi_attribute 20, 1
   5              		.eabi_attribute 21, 1
   6              		.eabi_attribute 23, 3
   7              		.eabi_attribute 24, 1
   8              		.eabi_attribute 25, 1
   9              		.eabi_attribute 26, 1
  10              		.eabi_attribute 30, 6
  11              		.eabi_attribute 18, 4
  12              		.thumb
  13              		.file	"chevents.c"
  14              		.section	.debug_abbrev,"",%progbits
  15              	.Ldebug_abbrev0:
  16              		.section	.debug_info,"",%progbits
  17              	.Ldebug_info0:
  18              		.section	.debug_line,"",%progbits
  19              	.Ldebug_line0:
  20 0000 08030000 		.text
  20      02002E01 
  20      00000201 
  20      FB0E0D00 
  20      01010101 
  21              	.Ltext0:
  22              		.cfi_sections	.debug_frame
  23              		.section	.text.chEvtRegisterMask,"ax",%progbits
  24              		.align	2
  25              		.p2align 4,,15
  26              		.global	chEvtRegisterMask
  27              		.thumb
  28              		.thumb_func
  29              		.type	chEvtRegisterMask, %function
  30              	chEvtRegisterMask:
  31              	.LFB7:
  32              		.file 1 "../chibios_2.6.3/os/kernel/src/chevents.c"
  33              		.loc 1 85 0
  34              		.cfi_startproc
  35              		@ args = 0, pretend = 0, frame = 16
  36              		@ frame_needed = 0, uses_anonymous_args = 0
  37              		@ link register save eliminated.
  38 0000 84B0     		sub	sp, sp, #16
  39              	.LCFI0:
  40              		.cfi_def_cfa_offset 16
  41 0002 0390     		str	r0, [sp, #12]
  42 0004 0291     		str	r1, [sp, #8]
  43 0006 0192     		str	r2, [sp, #4]
  44              		.loc 1 87 0
  45 0008 039B     		ldr	r3, [sp, #12]
  46 000a 002B     		cmp	r3, #0
  47 000c 01D0     		beq	.L3
  48              		.loc 1 87 0 is_stmt 0 discriminator 1
  49 000e 029B     		ldr	r3, [sp, #8]
  50 0010 002B     		cmp	r3, #0
  51              	.L3:
  52              	.LBB2:
  53              		.loc 1 89 0 is_stmt 1
ARM GAS  C:\Users\z80\AppData\Local\Temp\cc94IzVL.s 			page 2


  54 0012 4FF02003 		mov	r3, #32
  55              	@ 89 "../chibios_2.6.3/os/kernel/src/chevents.c" 1
  56 0016 83F31188 		msr     BASEPRI, r3
  57              	@ 0 "" 2
  58              		.thumb
  59              	.LBE2:
  60              		.loc 1 90 0
  61 001a 039B     		ldr	r3, [sp, #12]
  62 001c 1A68     		ldr	r2, [r3, #0]
  63 001e 029B     		ldr	r3, [sp, #8]
  64 0020 1A60     		str	r2, [r3, #0]
  65              		.loc 1 91 0
  66 0022 039B     		ldr	r3, [sp, #12]
  67 0024 029A     		ldr	r2, [sp, #8]
  68 0026 1A60     		str	r2, [r3, #0]
  69              		.loc 1 92 0
  70 0028 40F20003 		movw	r3, #:lower16:rlist
  71 002c C0F20003 		movt	r3, #:upper16:rlist
  72 0030 9A69     		ldr	r2, [r3, #24]
  73 0032 029B     		ldr	r3, [sp, #8]
  74 0034 5A60     		str	r2, [r3, #4]
  75              		.loc 1 93 0
  76 0036 029B     		ldr	r3, [sp, #8]
  77 0038 019A     		ldr	r2, [sp, #4]
  78 003a 9A60     		str	r2, [r3, #8]
  79              		.loc 1 94 0
  80 003c 029B     		ldr	r3, [sp, #8]
  81 003e 4FF00002 		mov	r2, #0
  82 0042 DA60     		str	r2, [r3, #12]
  83              	.LBB3:
  84              		.loc 1 95 0
  85 0044 4FF00003 		mov	r3, #0
  86              	@ 95 "../chibios_2.6.3/os/kernel/src/chevents.c" 1
  87 0048 83F31188 		msr     BASEPRI, r3
  88              	@ 0 "" 2
  89              		.thumb
  90              	.LBE3:
  91              		.loc 1 96 0
  92 004c 04B0     		add	sp, sp, #16
  93 004e 7047     		bx	lr
  94              		.cfi_endproc
  95              	.LFE7:
  96              		.size	chEvtRegisterMask, .-chEvtRegisterMask
  97              		.section	.text.chEvtUnregister,"ax",%progbits
  98              		.align	2
  99              		.p2align 4,,15
 100              		.global	chEvtUnregister
 101              		.thumb
 102              		.thumb_func
 103              		.type	chEvtUnregister, %function
 104              	chEvtUnregister:
 105              	.LFB8:
 106              		.loc 1 111 0
 107              		.cfi_startproc
 108              		@ args = 0, pretend = 0, frame = 16
 109              		@ frame_needed = 0, uses_anonymous_args = 0
 110              		@ link register save eliminated.
ARM GAS  C:\Users\z80\AppData\Local\Temp\cc94IzVL.s 			page 3


 111 0000 84B0     		sub	sp, sp, #16
 112              	.LCFI1:
 113              		.cfi_def_cfa_offset 16
 114 0002 0190     		str	r0, [sp, #4]
 115 0004 0091     		str	r1, [sp, #0]
 116              		.loc 1 114 0
 117 0006 019B     		ldr	r3, [sp, #4]
 118 0008 002B     		cmp	r3, #0
 119 000a 01D0     		beq	.L6
 120              		.loc 1 114 0 is_stmt 0 discriminator 1
 121 000c 009B     		ldr	r3, [sp, #0]
 122 000e 002B     		cmp	r3, #0
 123              	.L6:
 124              		.loc 1 116 0 is_stmt 1
 125 0010 019B     		ldr	r3, [sp, #4]
 126 0012 0393     		str	r3, [sp, #12]
 127              	.LBB4:
 128              		.loc 1 117 0
 129 0014 4FF02003 		mov	r3, #32
 130              	@ 117 "../chibios_2.6.3/os/kernel/src/chevents.c" 1
 131 0018 83F31188 		msr     BASEPRI, r3
 132              	@ 0 "" 2
 133              		.thumb
 134              	.LBE4:
 135              		.loc 1 118 0
 136 001c 0CE0     		b	.L7
 137              	.L10:
 138              		.loc 1 119 0
 139 001e 039B     		ldr	r3, [sp, #12]
 140 0020 1A68     		ldr	r2, [r3, #0]
 141 0022 009B     		ldr	r3, [sp, #0]
 142 0024 9A42     		cmp	r2, r3
 143 0026 04D1     		bne	.L8
 144              		.loc 1 120 0
 145 0028 009B     		ldr	r3, [sp, #0]
 146 002a 1A68     		ldr	r2, [r3, #0]
 147 002c 039B     		ldr	r3, [sp, #12]
 148 002e 1A60     		str	r2, [r3, #0]
 149              		.loc 1 121 0
 150 0030 07E0     		b	.L9
 151              	.L8:
 152              		.loc 1 123 0
 153 0032 039B     		ldr	r3, [sp, #12]
 154 0034 1B68     		ldr	r3, [r3, #0]
 155 0036 0393     		str	r3, [sp, #12]
 156              	.L7:
 157              		.loc 1 118 0 discriminator 1
 158 0038 039B     		ldr	r3, [sp, #12]
 159 003a 1A68     		ldr	r2, [r3, #0]
 160 003c 019B     		ldr	r3, [sp, #4]
 161 003e 9A42     		cmp	r2, r3
 162 0040 EDD1     		bne	.L10
 163              	.L9:
 164              	.LBB5:
 165              		.loc 1 125 0
 166 0042 4FF00003 		mov	r3, #0
 167              	@ 125 "../chibios_2.6.3/os/kernel/src/chevents.c" 1
ARM GAS  C:\Users\z80\AppData\Local\Temp\cc94IzVL.s 			page 4


 168 0046 83F31188 		msr     BASEPRI, r3
 169              	@ 0 "" 2
 170              		.thumb
 171              	.LBE5:
 172              		.loc 1 126 0
 173 004a 04B0     		add	sp, sp, #16
 174 004c 7047     		bx	lr
 175              		.cfi_endproc
 176              	.LFE8:
 177              		.size	chEvtUnregister, .-chEvtUnregister
 178 004e 00BF     		.section	.text.chEvtGetAndClearEvents,"ax",%progbits
 179              		.align	2
 180              		.p2align 4,,15
 181              		.global	chEvtGetAndClearEvents
 182              		.thumb
 183              		.thumb_func
 184              		.type	chEvtGetAndClearEvents, %function
 185              	chEvtGetAndClearEvents:
 186              	.LFB9:
 187              		.loc 1 136 0
 188              		.cfi_startproc
 189              		@ args = 0, pretend = 0, frame = 16
 190              		@ frame_needed = 0, uses_anonymous_args = 0
 191              		@ link register save eliminated.
 192 0000 84B0     		sub	sp, sp, #16
 193              	.LCFI2:
 194              		.cfi_def_cfa_offset 16
 195 0002 0190     		str	r0, [sp, #4]
 196              	.LBB6:
 197              		.loc 1 139 0
 198 0004 4FF02003 		mov	r3, #32
 199              	@ 139 "../chibios_2.6.3/os/kernel/src/chevents.c" 1
 200 0008 83F31188 		msr     BASEPRI, r3
 201              	@ 0 "" 2
 202              		.thumb
 203              	.LBE6:
 204              		.loc 1 141 0
 205 000c 40F20003 		movw	r3, #:lower16:rlist
 206 0010 C0F20003 		movt	r3, #:upper16:rlist
 207 0014 9B69     		ldr	r3, [r3, #24]
 208 0016 9A6B     		ldr	r2, [r3, #56]
 209 0018 019B     		ldr	r3, [sp, #4]
 210 001a 02EA0303 		and	r3, r2, r3
 211 001e 0393     		str	r3, [sp, #12]
 212              		.loc 1 142 0
 213 0020 40F20003 		movw	r3, #:lower16:rlist
 214 0024 C0F20003 		movt	r3, #:upper16:rlist
 215 0028 9A69     		ldr	r2, [r3, #24]
 216 002a 40F20003 		movw	r3, #:lower16:rlist
 217 002e C0F20003 		movt	r3, #:upper16:rlist
 218 0032 9B69     		ldr	r3, [r3, #24]
 219 0034 996B     		ldr	r1, [r3, #56]
 220 0036 019B     		ldr	r3, [sp, #4]
 221 0038 6FEA0303 		mvn	r3, r3
 222 003c 01EA0303 		and	r3, r1, r3
 223 0040 9363     		str	r3, [r2, #56]
 224              	.LBB7:
ARM GAS  C:\Users\z80\AppData\Local\Temp\cc94IzVL.s 			page 5


 225              		.loc 1 144 0
 226 0042 4FF00003 		mov	r3, #0
 227              	@ 144 "../chibios_2.6.3/os/kernel/src/chevents.c" 1
 228 0046 83F31188 		msr     BASEPRI, r3
 229              	@ 0 "" 2
 230              		.thumb
 231              	.LBE7:
 232              		.loc 1 145 0
 233 004a 039B     		ldr	r3, [sp, #12]
 234              		.loc 1 146 0
 235 004c 1846     		mov	r0, r3
 236 004e 04B0     		add	sp, sp, #16
 237 0050 7047     		bx	lr
 238              		.cfi_endproc
 239              	.LFE9:
 240              		.size	chEvtGetAndClearEvents, .-chEvtGetAndClearEvents
 241 0052 00BFAFF3 		.section	.text.chEvtAddEvents,"ax",%progbits
 241      0080AFF3 
 241      0080AFF3 
 241      0080
 242              		.align	2
 243              		.p2align 4,,15
 244              		.global	chEvtAddEvents
 245              		.thumb
 246              		.thumb_func
 247              		.type	chEvtAddEvents, %function
 248              	chEvtAddEvents:
 249              	.LFB10:
 250              		.loc 1 157 0
 251              		.cfi_startproc
 252              		@ args = 0, pretend = 0, frame = 8
 253              		@ frame_needed = 0, uses_anonymous_args = 0
 254              		@ link register save eliminated.
 255 0000 82B0     		sub	sp, sp, #8
 256              	.LCFI3:
 257              		.cfi_def_cfa_offset 8
 258 0002 0190     		str	r0, [sp, #4]
 259              	.LBB8:
 260              		.loc 1 159 0
 261 0004 4FF02003 		mov	r3, #32
 262              	@ 159 "../chibios_2.6.3/os/kernel/src/chevents.c" 1
 263 0008 83F31188 		msr     BASEPRI, r3
 264              	@ 0 "" 2
 265              		.thumb
 266              	.LBE8:
 267              		.loc 1 161 0
 268 000c 40F20003 		movw	r3, #:lower16:rlist
 269 0010 C0F20003 		movt	r3, #:upper16:rlist
 270 0014 9A69     		ldr	r2, [r3, #24]
 271 0016 40F20003 		movw	r3, #:lower16:rlist
 272 001a C0F20003 		movt	r3, #:upper16:rlist
 273 001e 9B69     		ldr	r3, [r3, #24]
 274 0020 996B     		ldr	r1, [r3, #56]
 275 0022 019B     		ldr	r3, [sp, #4]
 276 0024 41EA0303 		orr	r3, r1, r3
 277 0028 9363     		str	r3, [r2, #56]
 278 002a 936B     		ldr	r3, [r2, #56]
ARM GAS  C:\Users\z80\AppData\Local\Temp\cc94IzVL.s 			page 6


 279 002c 0193     		str	r3, [sp, #4]
 280              	.LBB9:
 281              		.loc 1 163 0
 282 002e 4FF00003 		mov	r3, #0
 283              	@ 163 "../chibios_2.6.3/os/kernel/src/chevents.c" 1
 284 0032 83F31188 		msr     BASEPRI, r3
 285              	@ 0 "" 2
 286              		.thumb
 287              	.LBE9:
 288              		.loc 1 164 0
 289 0036 019B     		ldr	r3, [sp, #4]
 290              		.loc 1 165 0
 291 0038 1846     		mov	r0, r3
 292 003a 02B0     		add	sp, sp, #8
 293 003c 7047     		bx	lr
 294              		.cfi_endproc
 295              	.LFE10:
 296              		.size	chEvtAddEvents, .-chEvtAddEvents
 297 003e 00BF     		.section	.text.chEvtBroadcastFlagsI,"ax",%progbits
 298              		.align	2
 299              		.p2align 4,,15
 300              		.global	chEvtBroadcastFlagsI
 301              		.thumb
 302              		.thumb_func
 303              		.type	chEvtBroadcastFlagsI, %function
 304              	chEvtBroadcastFlagsI:
 305              	.LFB11:
 306              		.loc 1 184 0
 307              		.cfi_startproc
 308              		@ args = 0, pretend = 0, frame = 16
 309              		@ frame_needed = 0, uses_anonymous_args = 0
 310 0000 00B5     		push	{lr}
 311              	.LCFI4:
 312              		.cfi_def_cfa_offset 4
 313 0002 85B0     		sub	sp, sp, #20
 314              	.LCFI5:
 315              		.cfi_def_cfa_offset 24
 316 0004 0190     		str	r0, [sp, #4]
 317 0006 0091     		str	r1, [sp, #0]
 318              		.loc 1 188 0
 319 0008 019B     		ldr	r3, [sp, #4]
 320 000a 002B     		cmp	r3, #0
 321              		.loc 1 190 0
 322 000c 019B     		ldr	r3, [sp, #4]
 323 000e 1B68     		ldr	r3, [r3, #0]
 324 0010 0393     		str	r3, [sp, #12]
 325              		.loc 1 191 0
 326 0012 11E0     		b	.L15
 327              		.cfi_offset 14, -4
 328              	.L16:
 329              		.loc 1 192 0
 330 0014 039B     		ldr	r3, [sp, #12]
 331 0016 DA68     		ldr	r2, [r3, #12]
 332 0018 009B     		ldr	r3, [sp, #0]
 333 001a 42EA0302 		orr	r2, r2, r3
 334 001e 039B     		ldr	r3, [sp, #12]
 335 0020 DA60     		str	r2, [r3, #12]
ARM GAS  C:\Users\z80\AppData\Local\Temp\cc94IzVL.s 			page 7


 336              		.loc 1 193 0
 337 0022 039B     		ldr	r3, [sp, #12]
 338 0024 5A68     		ldr	r2, [r3, #4]
 339 0026 039B     		ldr	r3, [sp, #12]
 340 0028 9B68     		ldr	r3, [r3, #8]
 341 002a 1046     		mov	r0, r2
 342 002c 1946     		mov	r1, r3
 343 002e FFF7FEFF 		bl	chEvtSignalI
 344              		.loc 1 194 0
 345 0032 039B     		ldr	r3, [sp, #12]
 346 0034 1B68     		ldr	r3, [r3, #0]
 347 0036 0393     		str	r3, [sp, #12]
 348              	.L15:
 349              		.loc 1 191 0 discriminator 1
 350 0038 019B     		ldr	r3, [sp, #4]
 351 003a 039A     		ldr	r2, [sp, #12]
 352 003c 9A42     		cmp	r2, r3
 353 003e E9D1     		bne	.L16
 354              		.loc 1 196 0
 355 0040 05B0     		add	sp, sp, #20
 356 0042 00BD     		pop	{pc}
 357              		.cfi_endproc
 358              	.LFE11:
 359              		.size	chEvtBroadcastFlagsI, .-chEvtBroadcastFlagsI
 360 0044 AFF30080 		.section	.text.chEvtGetAndClearFlags,"ax",%progbits
 360      AFF30080 
 360      AFF30080 
 361              		.align	2
 362              		.p2align 4,,15
 363              		.global	chEvtGetAndClearFlags
 364              		.thumb
 365              		.thumb_func
 366              		.type	chEvtGetAndClearFlags, %function
 367              	chEvtGetAndClearFlags:
 368              	.LFB12:
 369              		.loc 1 209 0
 370              		.cfi_startproc
 371              		@ args = 0, pretend = 0, frame = 16
 372              		@ frame_needed = 0, uses_anonymous_args = 0
 373              		@ link register save eliminated.
 374 0000 84B0     		sub	sp, sp, #16
 375              	.LCFI6:
 376              		.cfi_def_cfa_offset 16
 377 0002 0190     		str	r0, [sp, #4]
 378              	.LBB10:
 379              		.loc 1 212 0
 380 0004 4FF02003 		mov	r3, #32
 381              	@ 212 "../chibios_2.6.3/os/kernel/src/chevents.c" 1
 382 0008 83F31188 		msr     BASEPRI, r3
 383              	@ 0 "" 2
 384              		.thumb
 385              	.LBE10:
 386              		.loc 1 214 0
 387 000c 019B     		ldr	r3, [sp, #4]
 388 000e DB68     		ldr	r3, [r3, #12]
 389 0010 0393     		str	r3, [sp, #12]
 390              		.loc 1 215 0
ARM GAS  C:\Users\z80\AppData\Local\Temp\cc94IzVL.s 			page 8


 391 0012 019B     		ldr	r3, [sp, #4]
 392 0014 4FF00002 		mov	r2, #0
 393 0018 DA60     		str	r2, [r3, #12]
 394              	.LBB11:
 395              		.loc 1 217 0
 396 001a 4FF00003 		mov	r3, #0
 397              	@ 217 "../chibios_2.6.3/os/kernel/src/chevents.c" 1
 398 001e 83F31188 		msr     BASEPRI, r3
 399              	@ 0 "" 2
 400              		.thumb
 401              	.LBE11:
 402              		.loc 1 218 0
 403 0022 039B     		ldr	r3, [sp, #12]
 404              		.loc 1 219 0
 405 0024 1846     		mov	r0, r3
 406 0026 04B0     		add	sp, sp, #16
 407 0028 7047     		bx	lr
 408              		.cfi_endproc
 409              	.LFE12:
 410              		.size	chEvtGetAndClearFlags, .-chEvtGetAndClearFlags
 411 002a 00BFAFF3 		.section	.text.chEvtSignal,"ax",%progbits
 411      0080
 412              		.align	2
 413              		.p2align 4,,15
 414              		.global	chEvtSignal
 415              		.thumb
 416              		.thumb_func
 417              		.type	chEvtSignal, %function
 418              	chEvtSignal:
 419              	.LFB13:
 420              		.loc 1 229 0
 421              		.cfi_startproc
 422              		@ args = 0, pretend = 0, frame = 8
 423              		@ frame_needed = 0, uses_anonymous_args = 0
 424 0000 00B5     		push	{lr}
 425              	.LCFI7:
 426              		.cfi_def_cfa_offset 4
 427 0002 83B0     		sub	sp, sp, #12
 428              	.LCFI8:
 429              		.cfi_def_cfa_offset 16
 430 0004 0190     		str	r0, [sp, #4]
 431 0006 0091     		str	r1, [sp, #0]
 432              		.loc 1 231 0
 433 0008 019B     		ldr	r3, [sp, #4]
 434 000a 002B     		cmp	r3, #0
 435              	.LBB12:
 436              		.loc 1 233 0
 437 000c 4FF02003 		mov	r3, #32
 438              	@ 233 "../chibios_2.6.3/os/kernel/src/chevents.c" 1
 439 0010 83F31188 		msr     BASEPRI, r3
 440              	@ 0 "" 2
 441              		.thumb
 442              	.LBE12:
 443              		.loc 1 234 0
 444 0014 0198     		ldr	r0, [sp, #4]
 445 0016 0099     		ldr	r1, [sp, #0]
 446              		.cfi_offset 14, -4
ARM GAS  C:\Users\z80\AppData\Local\Temp\cc94IzVL.s 			page 9


 447 0018 FFF7FEFF 		bl	chEvtSignalI
 448              		.loc 1 235 0
 449 001c FFF7FEFF 		bl	chSchRescheduleS
 450              	.LBB13:
 451              		.loc 1 236 0
 452 0020 4FF00003 		mov	r3, #0
 453              	@ 236 "../chibios_2.6.3/os/kernel/src/chevents.c" 1
 454 0024 83F31188 		msr     BASEPRI, r3
 455              	@ 0 "" 2
 456              		.thumb
 457              	.LBE13:
 458              		.loc 1 237 0
 459 0028 03B0     		add	sp, sp, #12
 460 002a 00BD     		pop	{pc}
 461              		.cfi_endproc
 462              	.LFE13:
 463              		.size	chEvtSignal, .-chEvtSignal
 464 002c AFF30080 		.section	.text.chEvtSignalI,"ax",%progbits
 465              		.align	2
 466              		.p2align 4,,15
 467              		.global	chEvtSignalI
 468              		.thumb
 469              		.thumb_func
 470              		.type	chEvtSignalI, %function
 471              	chEvtSignalI:
 472              	.LFB14:
 473              		.loc 1 251 0
 474              		.cfi_startproc
 475              		@ args = 0, pretend = 0, frame = 8
 476              		@ frame_needed = 0, uses_anonymous_args = 0
 477 0000 00B5     		push	{lr}
 478              	.LCFI9:
 479              		.cfi_def_cfa_offset 4
 480 0002 83B0     		sub	sp, sp, #12
 481              	.LCFI10:
 482              		.cfi_def_cfa_offset 16
 483 0004 0190     		str	r0, [sp, #4]
 484 0006 0091     		str	r1, [sp, #0]
 485              		.loc 1 254 0
 486 0008 019B     		ldr	r3, [sp, #4]
 487 000a 002B     		cmp	r3, #0
 488              		.loc 1 256 0
 489 000c 019B     		ldr	r3, [sp, #4]
 490 000e 9A6B     		ldr	r2, [r3, #56]
 491 0010 009B     		ldr	r3, [sp, #0]
 492 0012 42EA0302 		orr	r2, r2, r3
 493 0016 019B     		ldr	r3, [sp, #4]
 494 0018 9A63     		str	r2, [r3, #56]
 495              		.loc 1 258 0
 496 001a 019B     		ldr	r3, [sp, #4]
 497 001c 1B7F     		ldrb	r3, [r3, #28]	@ zero_extendqisi2
 498 001e 082B     		cmp	r3, #8
 499 0020 07D1     		bne	.L22
 500              		.cfi_offset 14, -4
 501              		.loc 1 259 0 discriminator 1
 502 0022 019B     		ldr	r3, [sp, #4]
 503 0024 9A6B     		ldr	r2, [r3, #56]
ARM GAS  C:\Users\z80\AppData\Local\Temp\cc94IzVL.s 			page 10


 504 0026 019B     		ldr	r3, [sp, #4]
 505 0028 5B6A     		ldr	r3, [r3, #36]
 506 002a 02EA0303 		and	r3, r2, r3
 507              		.loc 1 258 0 discriminator 1
 508 002e 002B     		cmp	r3, #0
 509 0030 0DD1     		bne	.L23
 510              	.L22:
 511              		.loc 1 260 0
 512 0032 019B     		ldr	r3, [sp, #4]
 513 0034 1B7F     		ldrb	r3, [r3, #28]	@ zero_extendqisi2
 514              		.loc 1 259 0
 515 0036 092B     		cmp	r3, #9
 516 0038 10D1     		bne	.L20
 517              		.loc 1 261 0
 518 003a 019B     		ldr	r3, [sp, #4]
 519 003c 9A6B     		ldr	r2, [r3, #56]
 520 003e 019B     		ldr	r3, [sp, #4]
 521 0040 5B6A     		ldr	r3, [r3, #36]
 522 0042 02EA0302 		and	r2, r2, r3
 523 0046 019B     		ldr	r3, [sp, #4]
 524 0048 5B6A     		ldr	r3, [r3, #36]
 525              		.loc 1 260 0
 526 004a 9A42     		cmp	r2, r3
 527 004c 06D1     		bne	.L20
 528              	.L23:
 529              		.loc 1 262 0
 530 004e 0198     		ldr	r0, [sp, #4]
 531 0050 FFF7FEFF 		bl	chSchReadyI
 532 0054 0346     		mov	r3, r0
 533 0056 4FF00002 		mov	r2, #0
 534 005a 5A62     		str	r2, [r3, #36]
 535              	.L20:
 536              		.loc 1 263 0
 537 005c 03B0     		add	sp, sp, #12
 538 005e 00BD     		pop	{pc}
 539              		.cfi_endproc
 540              	.LFE14:
 541              		.size	chEvtSignalI, .-chEvtSignalI
 542              		.section	.text.chEvtBroadcastFlags,"ax",%progbits
 543              		.align	2
 544              		.p2align 4,,15
 545              		.global	chEvtBroadcastFlags
 546              		.thumb
 547              		.thumb_func
 548              		.type	chEvtBroadcastFlags, %function
 549              	chEvtBroadcastFlags:
 550              	.LFB15:
 551              		.loc 1 278 0
 552              		.cfi_startproc
 553              		@ args = 0, pretend = 0, frame = 8
 554              		@ frame_needed = 0, uses_anonymous_args = 0
 555 0000 00B5     		push	{lr}
 556              	.LCFI11:
 557              		.cfi_def_cfa_offset 4
 558 0002 83B0     		sub	sp, sp, #12
 559              	.LCFI12:
 560              		.cfi_def_cfa_offset 16
ARM GAS  C:\Users\z80\AppData\Local\Temp\cc94IzVL.s 			page 11


 561 0004 0190     		str	r0, [sp, #4]
 562 0006 0091     		str	r1, [sp, #0]
 563              	.LBB14:
 564              		.loc 1 280 0
 565 0008 4FF02003 		mov	r3, #32
 566              	@ 280 "../chibios_2.6.3/os/kernel/src/chevents.c" 1
 567 000c 83F31188 		msr     BASEPRI, r3
 568              	@ 0 "" 2
 569              		.thumb
 570              	.LBE14:
 571              		.loc 1 281 0
 572 0010 0198     		ldr	r0, [sp, #4]
 573 0012 0099     		ldr	r1, [sp, #0]
 574              		.cfi_offset 14, -4
 575 0014 FFF7FEFF 		bl	chEvtBroadcastFlagsI
 576              		.loc 1 282 0
 577 0018 FFF7FEFF 		bl	chSchRescheduleS
 578              	.LBB15:
 579              		.loc 1 283 0
 580 001c 4FF00003 		mov	r3, #0
 581              	@ 283 "../chibios_2.6.3/os/kernel/src/chevents.c" 1
 582 0020 83F31188 		msr     BASEPRI, r3
 583              	@ 0 "" 2
 584              		.thumb
 585              	.LBE15:
 586              		.loc 1 284 0
 587 0024 03B0     		add	sp, sp, #12
 588 0026 00BD     		pop	{pc}
 589              		.cfi_endproc
 590              	.LFE15:
 591              		.size	chEvtBroadcastFlags, .-chEvtBroadcastFlags
 592 0028 AFF30080 		.section	.text.chEvtGetAndClearFlagsI,"ax",%progbits
 592      AFF30080 
 593              		.align	2
 594              		.p2align 4,,15
 595              		.global	chEvtGetAndClearFlagsI
 596              		.thumb
 597              		.thumb_func
 598              		.type	chEvtGetAndClearFlagsI, %function
 599              	chEvtGetAndClearFlagsI:
 600              	.LFB16:
 601              		.loc 1 297 0
 602              		.cfi_startproc
 603              		@ args = 0, pretend = 0, frame = 16
 604              		@ frame_needed = 0, uses_anonymous_args = 0
 605              		@ link register save eliminated.
 606 0000 84B0     		sub	sp, sp, #16
 607              	.LCFI13:
 608              		.cfi_def_cfa_offset 16
 609 0002 0190     		str	r0, [sp, #4]
 610              		.loc 1 300 0
 611 0004 019B     		ldr	r3, [sp, #4]
 612 0006 DB68     		ldr	r3, [r3, #12]
 613 0008 0393     		str	r3, [sp, #12]
 614              		.loc 1 301 0
 615 000a 019B     		ldr	r3, [sp, #4]
 616 000c 4FF00002 		mov	r2, #0
ARM GAS  C:\Users\z80\AppData\Local\Temp\cc94IzVL.s 			page 12


 617 0010 DA60     		str	r2, [r3, #12]
 618              		.loc 1 303 0
 619 0012 039B     		ldr	r3, [sp, #12]
 620              		.loc 1 304 0
 621 0014 1846     		mov	r0, r3
 622 0016 04B0     		add	sp, sp, #16
 623 0018 7047     		bx	lr
 624              		.cfi_endproc
 625              	.LFE16:
 626              		.size	chEvtGetAndClearFlagsI, .-chEvtGetAndClearFlagsI
 627 001a 00BFAFF3 		.section	.text.chEvtDispatch,"ax",%progbits
 627      0080
 628              		.align	2
 629              		.p2align 4,,15
 630              		.global	chEvtDispatch
 631              		.thumb
 632              		.thumb_func
 633              		.type	chEvtDispatch, %function
 634              	chEvtDispatch:
 635              	.LFB17:
 636              		.loc 1 315 0
 637              		.cfi_startproc
 638              		@ args = 0, pretend = 0, frame = 16
 639              		@ frame_needed = 0, uses_anonymous_args = 0
 640 0000 00B5     		push	{lr}
 641              	.LCFI14:
 642              		.cfi_def_cfa_offset 4
 643 0002 85B0     		sub	sp, sp, #20
 644              	.LCFI15:
 645              		.cfi_def_cfa_offset 24
 646 0004 0190     		str	r0, [sp, #4]
 647 0006 0091     		str	r1, [sp, #0]
 648              		.loc 1 318 0
 649 0008 019B     		ldr	r3, [sp, #4]
 650 000a 002B     		cmp	r3, #0
 651              		.loc 1 320 0
 652 000c 4FF00003 		mov	r3, #0
 653 0010 0393     		str	r3, [sp, #12]
 654              		.loc 1 321 0
 655 0012 28E0     		b	.L29
 656              		.cfi_offset 14, -4
 657              	.L32:
 658              		.loc 1 322 0
 659 0014 4FF00102 		mov	r2, #1
 660 0018 039B     		ldr	r3, [sp, #12]
 661 001a 02FA03F3 		lsl	r3, r2, r3
 662 001e 1A46     		mov	r2, r3
 663 0020 009B     		ldr	r3, [sp, #0]
 664 0022 02EA0303 		and	r3, r2, r3
 665 0026 002B     		cmp	r3, #0
 666 0028 19D0     		beq	.L30
 667              		.loc 1 323 0
 668 002a 039B     		ldr	r3, [sp, #12]
 669 002c 4FEA8303 		lsl	r3, r3, #2
 670 0030 019A     		ldr	r2, [sp, #4]
 671 0032 1344     		add	r3, r2, r3
 672 0034 1B68     		ldr	r3, [r3, #0]
ARM GAS  C:\Users\z80\AppData\Local\Temp\cc94IzVL.s 			page 13


 673 0036 002B     		cmp	r3, #0
 674              		.loc 1 326 0
 675 0038 4FF00102 		mov	r2, #1
 676 003c 039B     		ldr	r3, [sp, #12]
 677 003e 02FA03F3 		lsl	r3, r2, r3
 678 0042 6FEA0303 		mvn	r3, r3
 679 0046 009A     		ldr	r2, [sp, #0]
 680 0048 02EA0303 		and	r3, r2, r3
 681 004c 0093     		str	r3, [sp, #0]
 682              		.loc 1 327 0
 683 004e 039B     		ldr	r3, [sp, #12]
 684 0050 4FEA8303 		lsl	r3, r3, #2
 685 0054 019A     		ldr	r2, [sp, #4]
 686 0056 1344     		add	r3, r2, r3
 687 0058 1B68     		ldr	r3, [r3, #0]
 688 005a 0398     		ldr	r0, [sp, #12]
 689 005c 9847     		blx	r3
 690              	.L30:
 691              		.loc 1 329 0
 692 005e 039B     		ldr	r3, [sp, #12]
 693 0060 03F10103 		add	r3, r3, #1
 694 0064 0393     		str	r3, [sp, #12]
 695              	.L29:
 696              		.loc 1 321 0 discriminator 1
 697 0066 009B     		ldr	r3, [sp, #0]
 698 0068 002B     		cmp	r3, #0
 699 006a D3D1     		bne	.L32
 700              		.loc 1 331 0
 701 006c 05B0     		add	sp, sp, #20
 702 006e 00BD     		pop	{pc}
 703              		.cfi_endproc
 704              	.LFE17:
 705              		.size	chEvtDispatch, .-chEvtDispatch
 706              		.section	.text.chEvtWaitOne,"ax",%progbits
 707              		.align	2
 708              		.p2align 4,,15
 709              		.global	chEvtWaitOne
 710              		.thumb
 711              		.thumb_func
 712              		.type	chEvtWaitOne, %function
 713              	chEvtWaitOne:
 714              	.LFB18:
 715              		.loc 1 350 0
 716              		.cfi_startproc
 717              		@ args = 0, pretend = 0, frame = 16
 718              		@ frame_needed = 0, uses_anonymous_args = 0
 719 0000 00B5     		push	{lr}
 720              	.LCFI16:
 721              		.cfi_def_cfa_offset 4
 722 0002 85B0     		sub	sp, sp, #20
 723              	.LCFI17:
 724              		.cfi_def_cfa_offset 24
 725 0004 0190     		str	r0, [sp, #4]
 726              		.loc 1 351 0
 727 0006 40F20003 		movw	r3, #:lower16:rlist
 728 000a C0F20003 		movt	r3, #:upper16:rlist
 729 000e 9B69     		ldr	r3, [r3, #24]
ARM GAS  C:\Users\z80\AppData\Local\Temp\cc94IzVL.s 			page 14


 730 0010 0293     		str	r3, [sp, #8]
 731              	.LBB16:
 732              		.loc 1 354 0
 733 0012 4FF02003 		mov	r3, #32
 734              	@ 354 "../chibios_2.6.3/os/kernel/src/chevents.c" 1
 735 0016 83F31188 		msr     BASEPRI, r3
 736              	@ 0 "" 2
 737              		.thumb
 738              	.LBE16:
 739              		.loc 1 356 0
 740 001a 029B     		ldr	r3, [sp, #8]
 741 001c 9A6B     		ldr	r2, [r3, #56]
 742 001e 019B     		ldr	r3, [sp, #4]
 743 0020 02EA0303 		and	r3, r2, r3
 744 0024 0393     		str	r3, [sp, #12]
 745 0026 039B     		ldr	r3, [sp, #12]
 746 0028 002B     		cmp	r3, #0
 747 002a 0CD1     		bne	.L34
 748              		.cfi_offset 14, -4
 749              		.loc 1 357 0
 750 002c 029B     		ldr	r3, [sp, #8]
 751 002e 019A     		ldr	r2, [sp, #4]
 752 0030 5A62     		str	r2, [r3, #36]
 753              		.loc 1 358 0
 754 0032 4FF00800 		mov	r0, #8
 755 0036 FFF7FEFF 		bl	chSchGoSleepS
 756              		.loc 1 359 0
 757 003a 029B     		ldr	r3, [sp, #8]
 758 003c 9A6B     		ldr	r2, [r3, #56]
 759 003e 019B     		ldr	r3, [sp, #4]
 760 0040 02EA0303 		and	r3, r2, r3
 761 0044 0393     		str	r3, [sp, #12]
 762              	.L34:
 763              		.loc 1 361 0
 764 0046 039B     		ldr	r3, [sp, #12]
 765 0048 C3F10003 		rsb	r3, r3, #0
 766 004c 039A     		ldr	r2, [sp, #12]
 767 004e 02EA0303 		and	r3, r2, r3
 768 0052 0393     		str	r3, [sp, #12]
 769              		.loc 1 362 0
 770 0054 029B     		ldr	r3, [sp, #8]
 771 0056 9A6B     		ldr	r2, [r3, #56]
 772 0058 039B     		ldr	r3, [sp, #12]
 773 005a 6FEA0303 		mvn	r3, r3
 774 005e 02EA0302 		and	r2, r2, r3
 775 0062 029B     		ldr	r3, [sp, #8]
 776 0064 9A63     		str	r2, [r3, #56]
 777              	.LBB17:
 778              		.loc 1 364 0
 779 0066 4FF00003 		mov	r3, #0
 780              	@ 364 "../chibios_2.6.3/os/kernel/src/chevents.c" 1
 781 006a 83F31188 		msr     BASEPRI, r3
 782              	@ 0 "" 2
 783              		.thumb
 784              	.LBE17:
 785              		.loc 1 365 0
 786 006e 039B     		ldr	r3, [sp, #12]
ARM GAS  C:\Users\z80\AppData\Local\Temp\cc94IzVL.s 			page 15


 787              		.loc 1 366 0
 788 0070 1846     		mov	r0, r3
 789 0072 05B0     		add	sp, sp, #20
 790 0074 00BD     		pop	{pc}
 791              		.cfi_endproc
 792              	.LFE18:
 793              		.size	chEvtWaitOne, .-chEvtWaitOne
 794 0076 00BFAFF3 		.section	.text.chEvtWaitAny,"ax",%progbits
 794      0080AFF3 
 794      0080
 795              		.align	2
 796              		.p2align 4,,15
 797              		.global	chEvtWaitAny
 798              		.thumb
 799              		.thumb_func
 800              		.type	chEvtWaitAny, %function
 801              	chEvtWaitAny:
 802              	.LFB19:
 803              		.loc 1 379 0
 804              		.cfi_startproc
 805              		@ args = 0, pretend = 0, frame = 16
 806              		@ frame_needed = 0, uses_anonymous_args = 0
 807 0000 00B5     		push	{lr}
 808              	.LCFI18:
 809              		.cfi_def_cfa_offset 4
 810 0002 85B0     		sub	sp, sp, #20
 811              	.LCFI19:
 812              		.cfi_def_cfa_offset 24
 813 0004 0190     		str	r0, [sp, #4]
 814              		.loc 1 380 0
 815 0006 40F20003 		movw	r3, #:lower16:rlist
 816 000a C0F20003 		movt	r3, #:upper16:rlist
 817 000e 9B69     		ldr	r3, [r3, #24]
 818 0010 0293     		str	r3, [sp, #8]
 819              	.LBB18:
 820              		.loc 1 383 0
 821 0012 4FF02003 		mov	r3, #32
 822              	@ 383 "../chibios_2.6.3/os/kernel/src/chevents.c" 1
 823 0016 83F31188 		msr     BASEPRI, r3
 824              	@ 0 "" 2
 825              		.thumb
 826              	.LBE18:
 827              		.loc 1 385 0
 828 001a 029B     		ldr	r3, [sp, #8]
 829 001c 9A6B     		ldr	r2, [r3, #56]
 830 001e 019B     		ldr	r3, [sp, #4]
 831 0020 02EA0303 		and	r3, r2, r3
 832 0024 0393     		str	r3, [sp, #12]
 833 0026 039B     		ldr	r3, [sp, #12]
 834 0028 002B     		cmp	r3, #0
 835 002a 0CD1     		bne	.L36
 836              		.cfi_offset 14, -4
 837              		.loc 1 386 0
 838 002c 029B     		ldr	r3, [sp, #8]
 839 002e 019A     		ldr	r2, [sp, #4]
 840 0030 5A62     		str	r2, [r3, #36]
 841              		.loc 1 387 0
ARM GAS  C:\Users\z80\AppData\Local\Temp\cc94IzVL.s 			page 16


 842 0032 4FF00800 		mov	r0, #8
 843 0036 FFF7FEFF 		bl	chSchGoSleepS
 844              		.loc 1 388 0
 845 003a 029B     		ldr	r3, [sp, #8]
 846 003c 9A6B     		ldr	r2, [r3, #56]
 847 003e 019B     		ldr	r3, [sp, #4]
 848 0040 02EA0303 		and	r3, r2, r3
 849 0044 0393     		str	r3, [sp, #12]
 850              	.L36:
 851              		.loc 1 390 0
 852 0046 029B     		ldr	r3, [sp, #8]
 853 0048 9A6B     		ldr	r2, [r3, #56]
 854 004a 039B     		ldr	r3, [sp, #12]
 855 004c 6FEA0303 		mvn	r3, r3
 856 0050 02EA0302 		and	r2, r2, r3
 857 0054 029B     		ldr	r3, [sp, #8]
 858 0056 9A63     		str	r2, [r3, #56]
 859              	.LBB19:
 860              		.loc 1 392 0
 861 0058 4FF00003 		mov	r3, #0
 862              	@ 392 "../chibios_2.6.3/os/kernel/src/chevents.c" 1
 863 005c 83F31188 		msr     BASEPRI, r3
 864              	@ 0 "" 2
 865              		.thumb
 866              	.LBE19:
 867              		.loc 1 393 0
 868 0060 039B     		ldr	r3, [sp, #12]
 869              		.loc 1 394 0
 870 0062 1846     		mov	r0, r3
 871 0064 05B0     		add	sp, sp, #20
 872 0066 00BD     		pop	{pc}
 873              		.cfi_endproc
 874              	.LFE19:
 875              		.size	chEvtWaitAny, .-chEvtWaitAny
 876 0068 AFF30080 		.section	.text.chEvtWaitAll,"ax",%progbits
 876      AFF30080 
 877              		.align	2
 878              		.p2align 4,,15
 879              		.global	chEvtWaitAll
 880              		.thumb
 881              		.thumb_func
 882              		.type	chEvtWaitAll, %function
 883              	chEvtWaitAll:
 884              	.LFB20:
 885              		.loc 1 407 0
 886              		.cfi_startproc
 887              		@ args = 0, pretend = 0, frame = 16
 888              		@ frame_needed = 0, uses_anonymous_args = 0
 889 0000 00B5     		push	{lr}
 890              	.LCFI20:
 891              		.cfi_def_cfa_offset 4
 892 0002 85B0     		sub	sp, sp, #20
 893              	.LCFI21:
 894              		.cfi_def_cfa_offset 24
 895 0004 0190     		str	r0, [sp, #4]
 896              		.loc 1 408 0
 897 0006 40F20003 		movw	r3, #:lower16:rlist
ARM GAS  C:\Users\z80\AppData\Local\Temp\cc94IzVL.s 			page 17


 898 000a C0F20003 		movt	r3, #:upper16:rlist
 899 000e 9B69     		ldr	r3, [r3, #24]
 900 0010 0393     		str	r3, [sp, #12]
 901              	.LBB20:
 902              		.loc 1 410 0
 903 0012 4FF02003 		mov	r3, #32
 904              	@ 410 "../chibios_2.6.3/os/kernel/src/chevents.c" 1
 905 0016 83F31188 		msr     BASEPRI, r3
 906              	@ 0 "" 2
 907              		.thumb
 908              	.LBE20:
 909              		.loc 1 412 0
 910 001a 039B     		ldr	r3, [sp, #12]
 911 001c 9A6B     		ldr	r2, [r3, #56]
 912 001e 019B     		ldr	r3, [sp, #4]
 913 0020 02EA0302 		and	r2, r2, r3
 914 0024 019B     		ldr	r3, [sp, #4]
 915 0026 9A42     		cmp	r2, r3
 916 0028 06D0     		beq	.L38
 917              		.cfi_offset 14, -4
 918              		.loc 1 413 0
 919 002a 039B     		ldr	r3, [sp, #12]
 920 002c 019A     		ldr	r2, [sp, #4]
 921 002e 5A62     		str	r2, [r3, #36]
 922              		.loc 1 414 0
 923 0030 4FF00900 		mov	r0, #9
 924 0034 FFF7FEFF 		bl	chSchGoSleepS
 925              	.L38:
 926              		.loc 1 416 0
 927 0038 039B     		ldr	r3, [sp, #12]
 928 003a 9A6B     		ldr	r2, [r3, #56]
 929 003c 019B     		ldr	r3, [sp, #4]
 930 003e 6FEA0303 		mvn	r3, r3
 931 0042 02EA0302 		and	r2, r2, r3
 932 0046 039B     		ldr	r3, [sp, #12]
 933 0048 9A63     		str	r2, [r3, #56]
 934              	.LBB21:
 935              		.loc 1 418 0
 936 004a 4FF00003 		mov	r3, #0
 937              	@ 418 "../chibios_2.6.3/os/kernel/src/chevents.c" 1
 938 004e 83F31188 		msr     BASEPRI, r3
 939              	@ 0 "" 2
 940              		.thumb
 941              	.LBE21:
 942              		.loc 1 419 0
 943 0052 019B     		ldr	r3, [sp, #4]
 944              		.loc 1 420 0
 945 0054 1846     		mov	r0, r3
 946 0056 05B0     		add	sp, sp, #20
 947 0058 00BD     		pop	{pc}
 948              		.cfi_endproc
 949              	.LFE20:
 950              		.size	chEvtWaitAll, .-chEvtWaitAll
 951 005a 00BFAFF3 		.section	.text.chEvtWaitOneTimeout,"ax",%progbits
 951      0080
 952              		.align	2
 953              		.p2align 4,,15
ARM GAS  C:\Users\z80\AppData\Local\Temp\cc94IzVL.s 			page 18


 954              		.global	chEvtWaitOneTimeout
 955              		.thumb
 956              		.thumb_func
 957              		.type	chEvtWaitOneTimeout, %function
 958              	chEvtWaitOneTimeout:
 959              	.LFB21:
 960              		.loc 1 446 0
 961              		.cfi_startproc
 962              		@ args = 0, pretend = 0, frame = 16
 963              		@ frame_needed = 0, uses_anonymous_args = 0
 964 0000 00B5     		push	{lr}
 965              	.LCFI22:
 966              		.cfi_def_cfa_offset 4
 967 0002 85B0     		sub	sp, sp, #20
 968              	.LCFI23:
 969              		.cfi_def_cfa_offset 24
 970 0004 0190     		str	r0, [sp, #4]
 971 0006 0091     		str	r1, [sp, #0]
 972              		.loc 1 447 0
 973 0008 40F20003 		movw	r3, #:lower16:rlist
 974 000c C0F20003 		movt	r3, #:upper16:rlist
 975 0010 9B69     		ldr	r3, [r3, #24]
 976 0012 0293     		str	r3, [sp, #8]
 977              	.LBB22:
 978              		.loc 1 450 0
 979 0014 4FF02003 		mov	r3, #32
 980              	@ 450 "../chibios_2.6.3/os/kernel/src/chevents.c" 1
 981 0018 83F31188 		msr     BASEPRI, r3
 982              	@ 0 "" 2
 983              		.thumb
 984              	.LBE22:
 985              		.loc 1 452 0
 986 001c 029B     		ldr	r3, [sp, #8]
 987 001e 9A6B     		ldr	r2, [r3, #56]
 988 0020 019B     		ldr	r3, [sp, #4]
 989 0022 02EA0303 		and	r3, r2, r3
 990 0026 0393     		str	r3, [sp, #12]
 991 0028 039B     		ldr	r3, [sp, #12]
 992 002a 002B     		cmp	r3, #0
 993 002c 21D1     		bne	.L40
 994              		.cfi_offset 14, -4
 995              		.loc 1 453 0
 996 002e 009B     		ldr	r3, [sp, #0]
 997 0030 002B     		cmp	r3, #0
 998 0032 06D1     		bne	.L41
 999              	.LBB23:
 1000              		.loc 1 454 0
 1001 0034 4FF00003 		mov	r3, #0
 1002              	@ 454 "../chibios_2.6.3/os/kernel/src/chevents.c" 1
 1003 0038 83F31188 		msr     BASEPRI, r3
 1004              	@ 0 "" 2
 1005              		.thumb
 1006              	.LBE23:
 1007              		.loc 1 455 0
 1008 003c 4FF00003 		mov	r3, #0
 1009 0040 2CE0     		b	.L42
 1010              	.L41:
ARM GAS  C:\Users\z80\AppData\Local\Temp\cc94IzVL.s 			page 19


 1011              		.loc 1 457 0
 1012 0042 029B     		ldr	r3, [sp, #8]
 1013 0044 019A     		ldr	r2, [sp, #4]
 1014 0046 5A62     		str	r2, [r3, #36]
 1015              		.loc 1 458 0
 1016 0048 4FF00800 		mov	r0, #8
 1017 004c 0099     		ldr	r1, [sp, #0]
 1018 004e FFF7FEFF 		bl	chSchGoSleepTimeoutS
 1019 0052 0346     		mov	r3, r0
 1020 0054 002B     		cmp	r3, #0
 1021 0056 06DA     		bge	.L43
 1022              	.LBB24:
 1023              		.loc 1 459 0
 1024 0058 4FF00003 		mov	r3, #0
 1025              	@ 459 "../chibios_2.6.3/os/kernel/src/chevents.c" 1
 1026 005c 83F31188 		msr     BASEPRI, r3
 1027              	@ 0 "" 2
 1028              		.thumb
 1029              	.LBE24:
 1030              		.loc 1 460 0
 1031 0060 4FF00003 		mov	r3, #0
 1032 0064 1AE0     		b	.L42
 1033              	.L43:
 1034              		.loc 1 462 0
 1035 0066 029B     		ldr	r3, [sp, #8]
 1036 0068 9A6B     		ldr	r2, [r3, #56]
 1037 006a 019B     		ldr	r3, [sp, #4]
 1038 006c 02EA0303 		and	r3, r2, r3
 1039 0070 0393     		str	r3, [sp, #12]
 1040              	.L40:
 1041              		.loc 1 464 0
 1042 0072 039B     		ldr	r3, [sp, #12]
 1043 0074 C3F10003 		rsb	r3, r3, #0
 1044 0078 039A     		ldr	r2, [sp, #12]
 1045 007a 02EA0303 		and	r3, r2, r3
 1046 007e 0393     		str	r3, [sp, #12]
 1047              		.loc 1 465 0
 1048 0080 029B     		ldr	r3, [sp, #8]
 1049 0082 9A6B     		ldr	r2, [r3, #56]
 1050 0084 039B     		ldr	r3, [sp, #12]
 1051 0086 6FEA0303 		mvn	r3, r3
 1052 008a 02EA0302 		and	r2, r2, r3
 1053 008e 029B     		ldr	r3, [sp, #8]
 1054 0090 9A63     		str	r2, [r3, #56]
 1055              	.LBB25:
 1056              		.loc 1 467 0
 1057 0092 4FF00003 		mov	r3, #0
 1058              	@ 467 "../chibios_2.6.3/os/kernel/src/chevents.c" 1
 1059 0096 83F31188 		msr     BASEPRI, r3
 1060              	@ 0 "" 2
 1061              		.thumb
 1062              	.LBE25:
 1063              		.loc 1 468 0
 1064 009a 039B     		ldr	r3, [sp, #12]
 1065              	.L42:
 1066              		.loc 1 469 0
 1067 009c 1846     		mov	r0, r3
ARM GAS  C:\Users\z80\AppData\Local\Temp\cc94IzVL.s 			page 20


 1068 009e 05B0     		add	sp, sp, #20
 1069 00a0 00BD     		pop	{pc}
 1070              		.cfi_endproc
 1071              	.LFE21:
 1072              		.size	chEvtWaitOneTimeout, .-chEvtWaitOneTimeout
 1073 00a2 00BFAFF3 		.section	.text.chEvtWaitAnyTimeout,"ax",%progbits
 1073      0080AFF3 
 1073      0080AFF3 
 1073      0080
 1074              		.align	2
 1075              		.p2align 4,,15
 1076              		.global	chEvtWaitAnyTimeout
 1077              		.thumb
 1078              		.thumb_func
 1079              		.type	chEvtWaitAnyTimeout, %function
 1080              	chEvtWaitAnyTimeout:
 1081              	.LFB22:
 1082              		.loc 1 489 0
 1083              		.cfi_startproc
 1084              		@ args = 0, pretend = 0, frame = 16
 1085              		@ frame_needed = 0, uses_anonymous_args = 0
 1086 0000 00B5     		push	{lr}
 1087              	.LCFI24:
 1088              		.cfi_def_cfa_offset 4
 1089 0002 85B0     		sub	sp, sp, #20
 1090              	.LCFI25:
 1091              		.cfi_def_cfa_offset 24
 1092 0004 0190     		str	r0, [sp, #4]
 1093 0006 0091     		str	r1, [sp, #0]
 1094              		.loc 1 490 0
 1095 0008 40F20003 		movw	r3, #:lower16:rlist
 1096 000c C0F20003 		movt	r3, #:upper16:rlist
 1097 0010 9B69     		ldr	r3, [r3, #24]
 1098 0012 0293     		str	r3, [sp, #8]
 1099              	.LBB26:
 1100              		.loc 1 493 0
 1101 0014 4FF02003 		mov	r3, #32
 1102              	@ 493 "../chibios_2.6.3/os/kernel/src/chevents.c" 1
 1103 0018 83F31188 		msr     BASEPRI, r3
 1104              	@ 0 "" 2
 1105              		.thumb
 1106              	.LBE26:
 1107              		.loc 1 495 0
 1108 001c 029B     		ldr	r3, [sp, #8]
 1109 001e 9A6B     		ldr	r2, [r3, #56]
 1110 0020 019B     		ldr	r3, [sp, #4]
 1111 0022 02EA0303 		and	r3, r2, r3
 1112 0026 0393     		str	r3, [sp, #12]
 1113 0028 039B     		ldr	r3, [sp, #12]
 1114 002a 002B     		cmp	r3, #0
 1115 002c 21D1     		bne	.L45
 1116              		.cfi_offset 14, -4
 1117              		.loc 1 496 0
 1118 002e 009B     		ldr	r3, [sp, #0]
 1119 0030 002B     		cmp	r3, #0
 1120 0032 06D1     		bne	.L46
 1121              	.LBB27:
ARM GAS  C:\Users\z80\AppData\Local\Temp\cc94IzVL.s 			page 21


 1122              		.loc 1 497 0
 1123 0034 4FF00003 		mov	r3, #0
 1124              	@ 497 "../chibios_2.6.3/os/kernel/src/chevents.c" 1
 1125 0038 83F31188 		msr     BASEPRI, r3
 1126              	@ 0 "" 2
 1127              		.thumb
 1128              	.LBE27:
 1129              		.loc 1 498 0
 1130 003c 4FF00003 		mov	r3, #0
 1131 0040 25E0     		b	.L47
 1132              	.L46:
 1133              		.loc 1 500 0
 1134 0042 029B     		ldr	r3, [sp, #8]
 1135 0044 019A     		ldr	r2, [sp, #4]
 1136 0046 5A62     		str	r2, [r3, #36]
 1137              		.loc 1 501 0
 1138 0048 4FF00800 		mov	r0, #8
 1139 004c 0099     		ldr	r1, [sp, #0]
 1140 004e FFF7FEFF 		bl	chSchGoSleepTimeoutS
 1141 0052 0346     		mov	r3, r0
 1142 0054 002B     		cmp	r3, #0
 1143 0056 06DA     		bge	.L48
 1144              	.LBB28:
 1145              		.loc 1 502 0
 1146 0058 4FF00003 		mov	r3, #0
 1147              	@ 502 "../chibios_2.6.3/os/kernel/src/chevents.c" 1
 1148 005c 83F31188 		msr     BASEPRI, r3
 1149              	@ 0 "" 2
 1150              		.thumb
 1151              	.LBE28:
 1152              		.loc 1 503 0
 1153 0060 4FF00003 		mov	r3, #0
 1154 0064 13E0     		b	.L47
 1155              	.L48:
 1156              		.loc 1 505 0
 1157 0066 029B     		ldr	r3, [sp, #8]
 1158 0068 9A6B     		ldr	r2, [r3, #56]
 1159 006a 019B     		ldr	r3, [sp, #4]
 1160 006c 02EA0303 		and	r3, r2, r3
 1161 0070 0393     		str	r3, [sp, #12]
 1162              	.L45:
 1163              		.loc 1 507 0
 1164 0072 029B     		ldr	r3, [sp, #8]
 1165 0074 9A6B     		ldr	r2, [r3, #56]
 1166 0076 039B     		ldr	r3, [sp, #12]
 1167 0078 6FEA0303 		mvn	r3, r3
 1168 007c 02EA0302 		and	r2, r2, r3
 1169 0080 029B     		ldr	r3, [sp, #8]
 1170 0082 9A63     		str	r2, [r3, #56]
 1171              	.LBB29:
 1172              		.loc 1 509 0
 1173 0084 4FF00003 		mov	r3, #0
 1174              	@ 509 "../chibios_2.6.3/os/kernel/src/chevents.c" 1
 1175 0088 83F31188 		msr     BASEPRI, r3
 1176              	@ 0 "" 2
 1177              		.thumb
 1178              	.LBE29:
ARM GAS  C:\Users\z80\AppData\Local\Temp\cc94IzVL.s 			page 22


 1179              		.loc 1 510 0
 1180 008c 039B     		ldr	r3, [sp, #12]
 1181              	.L47:
 1182              		.loc 1 511 0
 1183 008e 1846     		mov	r0, r3
 1184 0090 05B0     		add	sp, sp, #20
 1185 0092 00BD     		pop	{pc}
 1186              		.cfi_endproc
 1187              	.LFE22:
 1188              		.size	chEvtWaitAnyTimeout, .-chEvtWaitAnyTimeout
 1189 0094 AFF30080 		.section	.text.chEvtWaitAllTimeout,"ax",%progbits
 1189      AFF30080 
 1189      AFF30080 
 1190              		.align	2
 1191              		.p2align 4,,15
 1192              		.global	chEvtWaitAllTimeout
 1193              		.thumb
 1194              		.thumb_func
 1195              		.type	chEvtWaitAllTimeout, %function
 1196              	chEvtWaitAllTimeout:
 1197              	.LFB23:
 1198              		.loc 1 530 0
 1199              		.cfi_startproc
 1200              		@ args = 0, pretend = 0, frame = 16
 1201              		@ frame_needed = 0, uses_anonymous_args = 0
 1202 0000 00B5     		push	{lr}
 1203              	.LCFI26:
 1204              		.cfi_def_cfa_offset 4
 1205 0002 85B0     		sub	sp, sp, #20
 1206              	.LCFI27:
 1207              		.cfi_def_cfa_offset 24
 1208 0004 0190     		str	r0, [sp, #4]
 1209 0006 0091     		str	r1, [sp, #0]
 1210              		.loc 1 531 0
 1211 0008 40F20003 		movw	r3, #:lower16:rlist
 1212 000c C0F20003 		movt	r3, #:upper16:rlist
 1213 0010 9B69     		ldr	r3, [r3, #24]
 1214 0012 0393     		str	r3, [sp, #12]
 1215              	.LBB30:
 1216              		.loc 1 533 0
 1217 0014 4FF02003 		mov	r3, #32
 1218              	@ 533 "../chibios_2.6.3/os/kernel/src/chevents.c" 1
 1219 0018 83F31188 		msr     BASEPRI, r3
 1220              	@ 0 "" 2
 1221              		.thumb
 1222              	.LBE30:
 1223              		.loc 1 535 0
 1224 001c 039B     		ldr	r3, [sp, #12]
 1225 001e 9A6B     		ldr	r2, [r3, #56]
 1226 0020 019B     		ldr	r3, [sp, #4]
 1227 0022 02EA0302 		and	r2, r2, r3
 1228 0026 019B     		ldr	r3, [sp, #4]
 1229 0028 9A42     		cmp	r2, r3
 1230 002a 1BD0     		beq	.L50
 1231              		.cfi_offset 14, -4
 1232              		.loc 1 536 0
 1233 002c 009B     		ldr	r3, [sp, #0]
ARM GAS  C:\Users\z80\AppData\Local\Temp\cc94IzVL.s 			page 23


 1234 002e 002B     		cmp	r3, #0
 1235 0030 06D1     		bne	.L51
 1236              	.LBB31:
 1237              		.loc 1 537 0
 1238 0032 4FF00003 		mov	r3, #0
 1239              	@ 537 "../chibios_2.6.3/os/kernel/src/chevents.c" 1
 1240 0036 83F31188 		msr     BASEPRI, r3
 1241              	@ 0 "" 2
 1242              		.thumb
 1243              	.LBE31:
 1244              		.loc 1 538 0
 1245 003a 4FF00003 		mov	r3, #0
 1246 003e 1FE0     		b	.L52
 1247              	.L51:
 1248              		.loc 1 540 0
 1249 0040 039B     		ldr	r3, [sp, #12]
 1250 0042 019A     		ldr	r2, [sp, #4]
 1251 0044 5A62     		str	r2, [r3, #36]
 1252              		.loc 1 541 0
 1253 0046 4FF00900 		mov	r0, #9
 1254 004a 0099     		ldr	r1, [sp, #0]
 1255 004c FFF7FEFF 		bl	chSchGoSleepTimeoutS
 1256 0050 0346     		mov	r3, r0
 1257 0052 002B     		cmp	r3, #0
 1258 0054 06DA     		bge	.L50
 1259              	.LBB32:
 1260              		.loc 1 542 0
 1261 0056 4FF00003 		mov	r3, #0
 1262              	@ 542 "../chibios_2.6.3/os/kernel/src/chevents.c" 1
 1263 005a 83F31188 		msr     BASEPRI, r3
 1264              	@ 0 "" 2
 1265              		.thumb
 1266              	.LBE32:
 1267              		.loc 1 543 0
 1268 005e 4FF00003 		mov	r3, #0
 1269 0062 0DE0     		b	.L52
 1270              	.L50:
 1271              		.loc 1 546 0
 1272 0064 039B     		ldr	r3, [sp, #12]
 1273 0066 9A6B     		ldr	r2, [r3, #56]
 1274 0068 019B     		ldr	r3, [sp, #4]
 1275 006a 6FEA0303 		mvn	r3, r3
 1276 006e 02EA0302 		and	r2, r2, r3
 1277 0072 039B     		ldr	r3, [sp, #12]
 1278 0074 9A63     		str	r2, [r3, #56]
 1279              	.LBB33:
 1280              		.loc 1 548 0
 1281 0076 4FF00003 		mov	r3, #0
 1282              	@ 548 "../chibios_2.6.3/os/kernel/src/chevents.c" 1
 1283 007a 83F31188 		msr     BASEPRI, r3
 1284              	@ 0 "" 2
 1285              		.thumb
 1286              	.LBE33:
 1287              		.loc 1 549 0
 1288 007e 019B     		ldr	r3, [sp, #4]
 1289              	.L52:
 1290              		.loc 1 550 0
ARM GAS  C:\Users\z80\AppData\Local\Temp\cc94IzVL.s 			page 24


 1291 0080 1846     		mov	r0, r3
 1292 0082 05B0     		add	sp, sp, #20
 1293 0084 00BD     		pop	{pc}
 1294              		.cfi_endproc
 1295              	.LFE23:
 1296              		.size	chEvtWaitAllTimeout, .-chEvtWaitAllTimeout
 1297 0086 00BFAFF3 		.text
 1297      0080AFF3 
 1297      0080
 1298              	.Letext0:
 1299              		.section	.debug_loc,"",%progbits
 1300              	.Ldebug_loc0:
 1301              	.LLST0:
 1302 0000 00000000 		.4byte	.LFB7
 1303 0004 02000000 		.4byte	.LCFI0
 1304 0008 0200     		.2byte	0x2
 1305 000a 7D       		.byte	0x7d
 1306 000b 00       		.sleb128 0
 1307 000c 02000000 		.4byte	.LCFI0
 1308 0010 50000000 		.4byte	.LFE7
 1309 0014 0200     		.2byte	0x2
 1310 0016 7D       		.byte	0x7d
 1311 0017 10       		.sleb128 16
 1312 0018 00000000 		.4byte	0x0
 1313 001c 00000000 		.4byte	0x0
 1314              	.LLST1:
 1315 0020 00000000 		.4byte	.LFB8
 1316 0024 02000000 		.4byte	.LCFI1
 1317 0028 0200     		.2byte	0x2
 1318 002a 7D       		.byte	0x7d
 1319 002b 00       		.sleb128 0
 1320 002c 02000000 		.4byte	.LCFI1
 1321 0030 4E000000 		.4byte	.LFE8
 1322 0034 0200     		.2byte	0x2
 1323 0036 7D       		.byte	0x7d
 1324 0037 10       		.sleb128 16
 1325 0038 00000000 		.4byte	0x0
 1326 003c 00000000 		.4byte	0x0
 1327              	.LLST2:
 1328 0040 00000000 		.4byte	.LFB9
 1329 0044 02000000 		.4byte	.LCFI2
 1330 0048 0200     		.2byte	0x2
 1331 004a 7D       		.byte	0x7d
 1332 004b 00       		.sleb128 0
 1333 004c 02000000 		.4byte	.LCFI2
 1334 0050 52000000 		.4byte	.LFE9
 1335 0054 0200     		.2byte	0x2
 1336 0056 7D       		.byte	0x7d
 1337 0057 10       		.sleb128 16
 1338 0058 00000000 		.4byte	0x0
 1339 005c 00000000 		.4byte	0x0
 1340              	.LLST3:
 1341 0060 00000000 		.4byte	.LFB10
 1342 0064 02000000 		.4byte	.LCFI3
 1343 0068 0200     		.2byte	0x2
 1344 006a 7D       		.byte	0x7d
 1345 006b 00       		.sleb128 0
ARM GAS  C:\Users\z80\AppData\Local\Temp\cc94IzVL.s 			page 25


 1346 006c 02000000 		.4byte	.LCFI3
 1347 0070 3E000000 		.4byte	.LFE10
 1348 0074 0200     		.2byte	0x2
 1349 0076 7D       		.byte	0x7d
 1350 0077 08       		.sleb128 8
 1351 0078 00000000 		.4byte	0x0
 1352 007c 00000000 		.4byte	0x0
 1353              	.LLST4:
 1354 0080 00000000 		.4byte	.LFB11
 1355 0084 02000000 		.4byte	.LCFI4
 1356 0088 0200     		.2byte	0x2
 1357 008a 7D       		.byte	0x7d
 1358 008b 00       		.sleb128 0
 1359 008c 02000000 		.4byte	.LCFI4
 1360 0090 04000000 		.4byte	.LCFI5
 1361 0094 0200     		.2byte	0x2
 1362 0096 7D       		.byte	0x7d
 1363 0097 04       		.sleb128 4
 1364 0098 04000000 		.4byte	.LCFI5
 1365 009c 44000000 		.4byte	.LFE11
 1366 00a0 0200     		.2byte	0x2
 1367 00a2 7D       		.byte	0x7d
 1368 00a3 18       		.sleb128 24
 1369 00a4 00000000 		.4byte	0x0
 1370 00a8 00000000 		.4byte	0x0
 1371              	.LLST5:
 1372 00ac 00000000 		.4byte	.LFB12
 1373 00b0 02000000 		.4byte	.LCFI6
 1374 00b4 0200     		.2byte	0x2
 1375 00b6 7D       		.byte	0x7d
 1376 00b7 00       		.sleb128 0
 1377 00b8 02000000 		.4byte	.LCFI6
 1378 00bc 2A000000 		.4byte	.LFE12
 1379 00c0 0200     		.2byte	0x2
 1380 00c2 7D       		.byte	0x7d
 1381 00c3 10       		.sleb128 16
 1382 00c4 00000000 		.4byte	0x0
 1383 00c8 00000000 		.4byte	0x0
 1384              	.LLST6:
 1385 00cc 00000000 		.4byte	.LFB13
 1386 00d0 02000000 		.4byte	.LCFI7
 1387 00d4 0200     		.2byte	0x2
 1388 00d6 7D       		.byte	0x7d
 1389 00d7 00       		.sleb128 0
 1390 00d8 02000000 		.4byte	.LCFI7
 1391 00dc 04000000 		.4byte	.LCFI8
 1392 00e0 0200     		.2byte	0x2
 1393 00e2 7D       		.byte	0x7d
 1394 00e3 04       		.sleb128 4
 1395 00e4 04000000 		.4byte	.LCFI8
 1396 00e8 2C000000 		.4byte	.LFE13
 1397 00ec 0200     		.2byte	0x2
 1398 00ee 7D       		.byte	0x7d
 1399 00ef 10       		.sleb128 16
 1400 00f0 00000000 		.4byte	0x0
 1401 00f4 00000000 		.4byte	0x0
 1402              	.LLST7:
ARM GAS  C:\Users\z80\AppData\Local\Temp\cc94IzVL.s 			page 26


 1403 00f8 00000000 		.4byte	.LFB14
 1404 00fc 02000000 		.4byte	.LCFI9
 1405 0100 0200     		.2byte	0x2
 1406 0102 7D       		.byte	0x7d
 1407 0103 00       		.sleb128 0
 1408 0104 02000000 		.4byte	.LCFI9
 1409 0108 04000000 		.4byte	.LCFI10
 1410 010c 0200     		.2byte	0x2
 1411 010e 7D       		.byte	0x7d
 1412 010f 04       		.sleb128 4
 1413 0110 04000000 		.4byte	.LCFI10
 1414 0114 60000000 		.4byte	.LFE14
 1415 0118 0200     		.2byte	0x2
 1416 011a 7D       		.byte	0x7d
 1417 011b 10       		.sleb128 16
 1418 011c 00000000 		.4byte	0x0
 1419 0120 00000000 		.4byte	0x0
 1420              	.LLST8:
 1421 0124 00000000 		.4byte	.LFB15
 1422 0128 02000000 		.4byte	.LCFI11
 1423 012c 0200     		.2byte	0x2
 1424 012e 7D       		.byte	0x7d
 1425 012f 00       		.sleb128 0
 1426 0130 02000000 		.4byte	.LCFI11
 1427 0134 04000000 		.4byte	.LCFI12
 1428 0138 0200     		.2byte	0x2
 1429 013a 7D       		.byte	0x7d
 1430 013b 04       		.sleb128 4
 1431 013c 04000000 		.4byte	.LCFI12
 1432 0140 28000000 		.4byte	.LFE15
 1433 0144 0200     		.2byte	0x2
 1434 0146 7D       		.byte	0x7d
 1435 0147 10       		.sleb128 16
 1436 0148 00000000 		.4byte	0x0
 1437 014c 00000000 		.4byte	0x0
 1438              	.LLST9:
 1439 0150 00000000 		.4byte	.LFB16
 1440 0154 02000000 		.4byte	.LCFI13
 1441 0158 0200     		.2byte	0x2
 1442 015a 7D       		.byte	0x7d
 1443 015b 00       		.sleb128 0
 1444 015c 02000000 		.4byte	.LCFI13
 1445 0160 1A000000 		.4byte	.LFE16
 1446 0164 0200     		.2byte	0x2
 1447 0166 7D       		.byte	0x7d
 1448 0167 10       		.sleb128 16
 1449 0168 00000000 		.4byte	0x0
 1450 016c 00000000 		.4byte	0x0
 1451              	.LLST10:
 1452 0170 00000000 		.4byte	.LFB17
 1453 0174 02000000 		.4byte	.LCFI14
 1454 0178 0200     		.2byte	0x2
 1455 017a 7D       		.byte	0x7d
 1456 017b 00       		.sleb128 0
 1457 017c 02000000 		.4byte	.LCFI14
 1458 0180 04000000 		.4byte	.LCFI15
 1459 0184 0200     		.2byte	0x2
ARM GAS  C:\Users\z80\AppData\Local\Temp\cc94IzVL.s 			page 27


 1460 0186 7D       		.byte	0x7d
 1461 0187 04       		.sleb128 4
 1462 0188 04000000 		.4byte	.LCFI15
 1463 018c 70000000 		.4byte	.LFE17
 1464 0190 0200     		.2byte	0x2
 1465 0192 7D       		.byte	0x7d
 1466 0193 18       		.sleb128 24
 1467 0194 00000000 		.4byte	0x0
 1468 0198 00000000 		.4byte	0x0
 1469              	.LLST11:
 1470 019c 00000000 		.4byte	.LFB18
 1471 01a0 02000000 		.4byte	.LCFI16
 1472 01a4 0200     		.2byte	0x2
 1473 01a6 7D       		.byte	0x7d
 1474 01a7 00       		.sleb128 0
 1475 01a8 02000000 		.4byte	.LCFI16
 1476 01ac 04000000 		.4byte	.LCFI17
 1477 01b0 0200     		.2byte	0x2
 1478 01b2 7D       		.byte	0x7d
 1479 01b3 04       		.sleb128 4
 1480 01b4 04000000 		.4byte	.LCFI17
 1481 01b8 76000000 		.4byte	.LFE18
 1482 01bc 0200     		.2byte	0x2
 1483 01be 7D       		.byte	0x7d
 1484 01bf 18       		.sleb128 24
 1485 01c0 00000000 		.4byte	0x0
 1486 01c4 00000000 		.4byte	0x0
 1487              	.LLST12:
 1488 01c8 00000000 		.4byte	.LFB19
 1489 01cc 02000000 		.4byte	.LCFI18
 1490 01d0 0200     		.2byte	0x2
 1491 01d2 7D       		.byte	0x7d
 1492 01d3 00       		.sleb128 0
 1493 01d4 02000000 		.4byte	.LCFI18
 1494 01d8 04000000 		.4byte	.LCFI19
 1495 01dc 0200     		.2byte	0x2
 1496 01de 7D       		.byte	0x7d
 1497 01df 04       		.sleb128 4
 1498 01e0 04000000 		.4byte	.LCFI19
 1499 01e4 68000000 		.4byte	.LFE19
 1500 01e8 0200     		.2byte	0x2
 1501 01ea 7D       		.byte	0x7d
 1502 01eb 18       		.sleb128 24
 1503 01ec 00000000 		.4byte	0x0
 1504 01f0 00000000 		.4byte	0x0
 1505              	.LLST13:
 1506 01f4 00000000 		.4byte	.LFB20
 1507 01f8 02000000 		.4byte	.LCFI20
 1508 01fc 0200     		.2byte	0x2
 1509 01fe 7D       		.byte	0x7d
 1510 01ff 00       		.sleb128 0
 1511 0200 02000000 		.4byte	.LCFI20
 1512 0204 04000000 		.4byte	.LCFI21
 1513 0208 0200     		.2byte	0x2
 1514 020a 7D       		.byte	0x7d
 1515 020b 04       		.sleb128 4
 1516 020c 04000000 		.4byte	.LCFI21
ARM GAS  C:\Users\z80\AppData\Local\Temp\cc94IzVL.s 			page 28


 1517 0210 5A000000 		.4byte	.LFE20
 1518 0214 0200     		.2byte	0x2
 1519 0216 7D       		.byte	0x7d
 1520 0217 18       		.sleb128 24
 1521 0218 00000000 		.4byte	0x0
 1522 021c 00000000 		.4byte	0x0
 1523              	.LLST14:
 1524 0220 00000000 		.4byte	.LFB21
 1525 0224 02000000 		.4byte	.LCFI22
 1526 0228 0200     		.2byte	0x2
 1527 022a 7D       		.byte	0x7d
 1528 022b 00       		.sleb128 0
 1529 022c 02000000 		.4byte	.LCFI22
 1530 0230 04000000 		.4byte	.LCFI23
 1531 0234 0200     		.2byte	0x2
 1532 0236 7D       		.byte	0x7d
 1533 0237 04       		.sleb128 4
 1534 0238 04000000 		.4byte	.LCFI23
 1535 023c A2000000 		.4byte	.LFE21
 1536 0240 0200     		.2byte	0x2
 1537 0242 7D       		.byte	0x7d
 1538 0243 18       		.sleb128 24
 1539 0244 00000000 		.4byte	0x0
 1540 0248 00000000 		.4byte	0x0
 1541              	.LLST15:
 1542 024c 00000000 		.4byte	.LFB22
 1543 0250 02000000 		.4byte	.LCFI24
 1544 0254 0200     		.2byte	0x2
 1545 0256 7D       		.byte	0x7d
 1546 0257 00       		.sleb128 0
 1547 0258 02000000 		.4byte	.LCFI24
 1548 025c 04000000 		.4byte	.LCFI25
 1549 0260 0200     		.2byte	0x2
 1550 0262 7D       		.byte	0x7d
 1551 0263 04       		.sleb128 4
 1552 0264 04000000 		.4byte	.LCFI25
 1553 0268 94000000 		.4byte	.LFE22
 1554 026c 0200     		.2byte	0x2
 1555 026e 7D       		.byte	0x7d
 1556 026f 18       		.sleb128 24
 1557 0270 00000000 		.4byte	0x0
 1558 0274 00000000 		.4byte	0x0
 1559              	.LLST16:
 1560 0278 00000000 		.4byte	.LFB23
 1561 027c 02000000 		.4byte	.LCFI26
 1562 0280 0200     		.2byte	0x2
 1563 0282 7D       		.byte	0x7d
 1564 0283 00       		.sleb128 0
 1565 0284 02000000 		.4byte	.LCFI26
 1566 0288 04000000 		.4byte	.LCFI27
 1567 028c 0200     		.2byte	0x2
 1568 028e 7D       		.byte	0x7d
 1569 028f 04       		.sleb128 4
 1570 0290 04000000 		.4byte	.LCFI27
 1571 0294 86000000 		.4byte	.LFE23
 1572 0298 0200     		.2byte	0x2
 1573 029a 7D       		.byte	0x7d
ARM GAS  C:\Users\z80\AppData\Local\Temp\cc94IzVL.s 			page 29


 1574 029b 18       		.sleb128 24
 1575 029c 00000000 		.4byte	0x0
 1576 02a0 00000000 		.4byte	0x0
 1577              		.file 2 "c:/programs/yagarto/lib/gcc/../../arm-none-eabi/sys-include/stdint.h"
 1578              		.file 3 "../chibios_2.6.3/os/ports/GCC/ARMCMx/chtypes.h"
 1579              		.file 4 "../chibios_2.6.3/os/kernel/include/chlists.h"
 1580              		.file 5 "../chibios_2.6.3/os/kernel/include/chthreads.h"
 1581              		.file 6 "../chibios_2.6.3/os/ports/GCC/ARMCMx/chcore_v7m.h"
 1582              		.file 7 "../chibios_2.6.3/os/kernel/include/chschd.h"
 1583              		.file 8 "../chibios_2.6.3/os/kernel/include/chmtx.h"
 1584              		.file 9 "../chibios_2.6.3/os/kernel/include/chevents.h"
 1585              		.section	.debug_info
 1586 0000 B00C0000 		.4byte	0xcb0
 1587 0004 0200     		.2byte	0x2
 1588 0006 00000000 		.4byte	.Ldebug_abbrev0
 1589 000a 04       		.byte	0x4
 1590 000b 01       		.uleb128 0x1
 1591 000c E9030000 		.4byte	.LASF94
 1592 0010 01       		.byte	0x1
 1593 0011 F9020000 		.4byte	.LASF95
 1594 0015 DA010000 		.4byte	.LASF96
 1595 0019 00000000 		.4byte	0x0
 1596 001d 00000000 		.4byte	0x0
 1597 0021 00000000 		.4byte	.Ldebug_ranges0+0x0
 1598 0025 00000000 		.4byte	.Ldebug_line0
 1599 0029 02       		.uleb128 0x2
 1600 002a 04       		.byte	0x4
 1601 002b 05       		.byte	0x5
 1602 002c 696E7400 		.ascii	"int\000"
 1603 0030 03       		.uleb128 0x3
 1604 0031 04       		.byte	0x4
 1605 0032 07       		.byte	0x7
 1606 0033 33010000 		.4byte	.LASF0
 1607 0037 03       		.uleb128 0x3
 1608 0038 01       		.byte	0x1
 1609 0039 06       		.byte	0x6
 1610 003a 71000000 		.4byte	.LASF1
 1611 003e 04       		.uleb128 0x4
 1612 003f CD030000 		.4byte	.LASF5
 1613 0043 02       		.byte	0x2
 1614 0044 2A       		.byte	0x2a
 1615 0045 49000000 		.4byte	0x49
 1616 0049 03       		.uleb128 0x3
 1617 004a 01       		.byte	0x1
 1618 004b 08       		.byte	0x8
 1619 004c 85020000 		.4byte	.LASF2
 1620 0050 03       		.uleb128 0x3
 1621 0051 02       		.byte	0x2
 1622 0052 05       		.byte	0x5
 1623 0053 BF020000 		.4byte	.LASF3
 1624 0057 03       		.uleb128 0x3
 1625 0058 02       		.byte	0x2
 1626 0059 07       		.byte	0x7
 1627 005a 77010000 		.4byte	.LASF4
 1628 005e 04       		.uleb128 0x4
 1629 005f 7D020000 		.4byte	.LASF6
 1630 0063 02       		.byte	0x2
ARM GAS  C:\Users\z80\AppData\Local\Temp\cc94IzVL.s 			page 30


 1631 0064 4F       		.byte	0x4f
 1632 0065 69000000 		.4byte	0x69
 1633 0069 03       		.uleb128 0x3
 1634 006a 04       		.byte	0x4
 1635 006b 05       		.byte	0x5
 1636 006c AB000000 		.4byte	.LASF7
 1637 0070 04       		.uleb128 0x4
 1638 0071 4B030000 		.4byte	.LASF8
 1639 0075 02       		.byte	0x2
 1640 0076 50       		.byte	0x50
 1641 0077 7B000000 		.4byte	0x7b
 1642 007b 03       		.uleb128 0x3
 1643 007c 04       		.byte	0x4
 1644 007d 07       		.byte	0x7
 1645 007e 40010000 		.4byte	.LASF9
 1646 0082 03       		.uleb128 0x3
 1647 0083 08       		.byte	0x8
 1648 0084 05       		.byte	0x5
 1649 0085 63000000 		.4byte	.LASF10
 1650 0089 03       		.uleb128 0x3
 1651 008a 08       		.byte	0x8
 1652 008b 07       		.byte	0x7
 1653 008c 19000000 		.4byte	.LASF11
 1654 0090 03       		.uleb128 0x3
 1655 0091 01       		.byte	0x1
 1656 0092 02       		.byte	0x2
 1657 0093 77020000 		.4byte	.LASF12
 1658 0097 04       		.uleb128 0x4
 1659 0098 BA010000 		.4byte	.LASF13
 1660 009c 03       		.byte	0x3
 1661 009d 2C       		.byte	0x2c
 1662 009e 3E000000 		.4byte	0x3e
 1663 00a2 04       		.uleb128 0x4
 1664 00a3 B4000000 		.4byte	.LASF14
 1665 00a7 03       		.byte	0x3
 1666 00a8 2D       		.byte	0x2d
 1667 00a9 3E000000 		.4byte	0x3e
 1668 00ad 04       		.uleb128 0x4
 1669 00ae 60020000 		.4byte	.LASF15
 1670 00b2 03       		.byte	0x3
 1671 00b3 2E       		.byte	0x2e
 1672 00b4 3E000000 		.4byte	0x3e
 1673 00b8 04       		.uleb128 0x4
 1674 00b9 A1000000 		.4byte	.LASF16
 1675 00bd 03       		.byte	0x3
 1676 00be 2F       		.byte	0x2f
 1677 00bf 3E000000 		.4byte	0x3e
 1678 00c3 04       		.uleb128 0x4
 1679 00c4 6F020000 		.4byte	.LASF17
 1680 00c8 03       		.byte	0x3
 1681 00c9 30       		.byte	0x30
 1682 00ca 70000000 		.4byte	0x70
 1683 00ce 04       		.uleb128 0x4
 1684 00cf 9C010000 		.4byte	.LASF18
 1685 00d3 03       		.byte	0x3
 1686 00d4 31       		.byte	0x31
 1687 00d5 5E000000 		.4byte	0x5e
ARM GAS  C:\Users\z80\AppData\Local\Temp\cc94IzVL.s 			page 31


 1688 00d9 04       		.uleb128 0x4
 1689 00da 11010000 		.4byte	.LASF19
 1690 00de 03       		.byte	0x3
 1691 00df 32       		.byte	0x32
 1692 00e0 5E000000 		.4byte	0x5e
 1693 00e4 04       		.uleb128 0x4
 1694 00e5 CE010000 		.4byte	.LASF20
 1695 00e9 03       		.byte	0x3
 1696 00ea 33       		.byte	0x33
 1697 00eb 70000000 		.4byte	0x70
 1698 00ef 04       		.uleb128 0x4
 1699 00f0 AA030000 		.4byte	.LASF21
 1700 00f4 03       		.byte	0x3
 1701 00f5 34       		.byte	0x34
 1702 00f6 70000000 		.4byte	0x70
 1703 00fa 04       		.uleb128 0x4
 1704 00fb 68030000 		.4byte	.LASF22
 1705 00ff 03       		.byte	0x3
 1706 0100 35       		.byte	0x35
 1707 0101 70000000 		.4byte	0x70
 1708 0105 04       		.uleb128 0x4
 1709 0106 39030000 		.4byte	.LASF23
 1710 010a 04       		.byte	0x4
 1711 010b 2A       		.byte	0x2a
 1712 010c 10010000 		.4byte	0x110
 1713 0110 05       		.uleb128 0x5
 1714 0111 39030000 		.4byte	.LASF23
 1715 0115 48       		.byte	0x48
 1716 0116 05       		.byte	0x5
 1717 0117 5E       		.byte	0x5e
 1718 0118 35020000 		.4byte	0x235
 1719 011c 06       		.uleb128 0x6
 1720 011d 2A030000 		.4byte	.LASF24
 1721 0121 05       		.byte	0x5
 1722 0122 5F       		.byte	0x5f
 1723 0123 5A020000 		.4byte	0x25a
 1724 0127 02       		.byte	0x2
 1725 0128 23       		.byte	0x23
 1726 0129 00       		.uleb128 0x0
 1727 012a 06       		.uleb128 0x6
 1728 012b 68020000 		.4byte	.LASF25
 1729 012f 05       		.byte	0x5
 1730 0130 61       		.byte	0x61
 1731 0131 5A020000 		.4byte	0x25a
 1732 0135 02       		.byte	0x2
 1733 0136 23       		.byte	0x23
 1734 0137 04       		.uleb128 0x4
 1735 0138 06       		.uleb128 0x6
 1736 0139 5C000000 		.4byte	.LASF26
 1737 013d 05       		.byte	0x5
 1738 013e 63       		.byte	0x63
 1739 013f C3000000 		.4byte	0xc3
 1740 0143 02       		.byte	0x2
 1741 0144 23       		.byte	0x23
 1742 0145 08       		.uleb128 0x8
 1743 0146 06       		.uleb128 0x6
 1744 0147 29040000 		.4byte	.LASF27
ARM GAS  C:\Users\z80\AppData\Local\Temp\cc94IzVL.s 			page 32


 1745 014b 05       		.byte	0x5
 1746 014c 64       		.byte	0x64
 1747 014d 28030000 		.4byte	0x328
 1748 0151 02       		.byte	0x2
 1749 0152 23       		.byte	0x23
 1750 0153 0C       		.uleb128 0xc
 1751 0154 06       		.uleb128 0x6
 1752 0155 DF000000 		.4byte	.LASF28
 1753 0159 05       		.byte	0x5
 1754 015a 66       		.byte	0x66
 1755 015b 5A020000 		.4byte	0x25a
 1756 015f 02       		.byte	0x2
 1757 0160 23       		.byte	0x23
 1758 0161 10       		.uleb128 0x10
 1759 0162 06       		.uleb128 0x6
 1760 0163 10020000 		.4byte	.LASF29
 1761 0167 05       		.byte	0x5
 1762 0168 67       		.byte	0x67
 1763 0169 5A020000 		.4byte	0x25a
 1764 016d 02       		.byte	0x2
 1765 016e 23       		.byte	0x23
 1766 016f 14       		.uleb128 0x14
 1767 0170 06       		.uleb128 0x6
 1768 0171 FC030000 		.4byte	.LASF30
 1769 0175 05       		.byte	0x5
 1770 0176 6E       		.byte	0x6e
 1771 0177 D1040000 		.4byte	0x4d1
 1772 017b 02       		.byte	0x2
 1773 017c 23       		.byte	0x23
 1774 017d 18       		.uleb128 0x18
 1775 017e 06       		.uleb128 0x6
 1776 017f C9020000 		.4byte	.LASF31
 1777 0183 05       		.byte	0x5
 1778 0184 79       		.byte	0x79
 1779 0185 A2000000 		.4byte	0xa2
 1780 0189 02       		.byte	0x2
 1781 018a 23       		.byte	0x23
 1782 018b 1C       		.uleb128 0x1c
 1783 018c 06       		.uleb128 0x6
 1784 018d 31030000 		.4byte	.LASF32
 1785 0191 05       		.byte	0x5
 1786 0192 7D       		.byte	0x7d
 1787 0193 97000000 		.4byte	0x97
 1788 0197 02       		.byte	0x2
 1789 0198 23       		.byte	0x23
 1790 0199 1D       		.uleb128 0x1d
 1791 019a 06       		.uleb128 0x6
 1792 019b B6030000 		.4byte	.LASF33
 1793 019f 05       		.byte	0x5
 1794 01a0 82       		.byte	0x82
 1795 01a1 AD000000 		.4byte	0xad
 1796 01a5 02       		.byte	0x2
 1797 01a6 23       		.byte	0x23
 1798 01a7 1E       		.uleb128 0x1e
 1799 01a8 06       		.uleb128 0x6
 1800 01a9 D1020000 		.4byte	.LASF34
 1801 01ad 05       		.byte	0x5
ARM GAS  C:\Users\z80\AppData\Local\Temp\cc94IzVL.s 			page 33


 1802 01ae 88       		.byte	0x88
 1803 01af B8000000 		.4byte	0xb8
 1804 01b3 02       		.byte	0x2
 1805 01b4 23       		.byte	0x23
 1806 01b5 1F       		.uleb128 0x1f
 1807 01b6 06       		.uleb128 0x6
 1808 01b7 7D030000 		.4byte	.LASF35
 1809 01bb 05       		.byte	0x5
 1810 01bc 8F       		.byte	0x8f
 1811 01bd 4E030000 		.4byte	0x34e
 1812 01c1 02       		.byte	0x2
 1813 01c2 23       		.byte	0x23
 1814 01c3 20       		.uleb128 0x20
 1815 01c4 07       		.uleb128 0x7
 1816 01c5 705F7500 		.ascii	"p_u\000"
 1817 01c9 05       		.byte	0x5
 1818 01ca B4       		.byte	0xb4
 1819 01cb 9C040000 		.4byte	0x49c
 1820 01cf 02       		.byte	0x2
 1821 01d0 23       		.byte	0x23
 1822 01d1 24       		.uleb128 0x24
 1823 01d2 06       		.uleb128 0x6
 1824 01d3 2F040000 		.4byte	.LASF36
 1825 01d7 05       		.byte	0x5
 1826 01d8 B9       		.byte	0xb9
 1827 01d9 82020000 		.4byte	0x282
 1828 01dd 02       		.byte	0x2
 1829 01de 23       		.byte	0x23
 1830 01df 28       		.uleb128 0x28
 1831 01e0 06       		.uleb128 0x6
 1832 01e1 9F030000 		.4byte	.LASF37
 1833 01e5 05       		.byte	0x5
 1834 01e6 BF       		.byte	0xbf
 1835 01e7 60020000 		.4byte	0x260
 1836 01eb 02       		.byte	0x2
 1837 01ec 23       		.byte	0x23
 1838 01ed 2C       		.uleb128 0x2c
 1839 01ee 06       		.uleb128 0x6
 1840 01ef 00000000 		.4byte	.LASF38
 1841 01f3 05       		.byte	0x5
 1842 01f4 C3       		.byte	0xc3
 1843 01f5 CE000000 		.4byte	0xce
 1844 01f9 02       		.byte	0x2
 1845 01fa 23       		.byte	0x23
 1846 01fb 34       		.uleb128 0x34
 1847 01fc 06       		.uleb128 0x6
 1848 01fd 40030000 		.4byte	.LASF39
 1849 0201 05       		.byte	0x5
 1850 0202 C9       		.byte	0xc9
 1851 0203 E4000000 		.4byte	0xe4
 1852 0207 02       		.byte	0x2
 1853 0208 23       		.byte	0x23
 1854 0209 38       		.uleb128 0x38
 1855 020a 06       		.uleb128 0x6
 1856 020b B5020000 		.4byte	.LASF40
 1857 020f 05       		.byte	0x5
 1858 0210 D0       		.byte	0xd0
ARM GAS  C:\Users\z80\AppData\Local\Temp\cc94IzVL.s 			page 34


 1859 0211 E3040000 		.4byte	0x4e3
 1860 0215 02       		.byte	0x2
 1861 0216 23       		.byte	0x23
 1862 0217 3C       		.uleb128 0x3c
 1863 0218 06       		.uleb128 0x6
 1864 0219 72030000 		.4byte	.LASF41
 1865 021d 05       		.byte	0x5
 1866 021e D4       		.byte	0xd4
 1867 021f C3000000 		.4byte	0xc3
 1868 0223 02       		.byte	0x2
 1869 0224 23       		.byte	0x23
 1870 0225 40       		.uleb128 0x40
 1871 0226 06       		.uleb128 0x6
 1872 0227 91000000 		.4byte	.LASF42
 1873 022b 05       		.byte	0x5
 1874 022c DA       		.byte	0xda
 1875 022d 98020000 		.4byte	0x298
 1876 0231 02       		.byte	0x2
 1877 0232 23       		.byte	0x23
 1878 0233 44       		.uleb128 0x44
 1879 0234 00       		.byte	0x0
 1880 0235 08       		.uleb128 0x8
 1881 0236 08       		.byte	0x8
 1882 0237 04       		.byte	0x4
 1883 0238 61       		.byte	0x61
 1884 0239 5A020000 		.4byte	0x25a
 1885 023d 06       		.uleb128 0x6
 1886 023e 2A030000 		.4byte	.LASF24
 1887 0242 04       		.byte	0x4
 1888 0243 62       		.byte	0x62
 1889 0244 5A020000 		.4byte	0x25a
 1890 0248 02       		.byte	0x2
 1891 0249 23       		.byte	0x23
 1892 024a 00       		.uleb128 0x0
 1893 024b 06       		.uleb128 0x6
 1894 024c 68020000 		.4byte	.LASF25
 1895 0250 04       		.byte	0x4
 1896 0251 64       		.byte	0x64
 1897 0252 5A020000 		.4byte	0x25a
 1898 0256 02       		.byte	0x2
 1899 0257 23       		.byte	0x23
 1900 0258 04       		.uleb128 0x4
 1901 0259 00       		.byte	0x0
 1902 025a 09       		.uleb128 0x9
 1903 025b 04       		.byte	0x4
 1904 025c 05010000 		.4byte	0x105
 1905 0260 04       		.uleb128 0x4
 1906 0261 1E020000 		.4byte	.LASF43
 1907 0265 04       		.byte	0x4
 1908 0266 66       		.byte	0x66
 1909 0267 35020000 		.4byte	0x235
 1910 026b 08       		.uleb128 0x8
 1911 026c 04       		.byte	0x4
 1912 026d 04       		.byte	0x4
 1913 026e 6B       		.byte	0x6b
 1914 026f 82020000 		.4byte	0x282
 1915 0273 06       		.uleb128 0x6
ARM GAS  C:\Users\z80\AppData\Local\Temp\cc94IzVL.s 			page 35


 1916 0274 2A030000 		.4byte	.LASF24
 1917 0278 04       		.byte	0x4
 1918 0279 6D       		.byte	0x6d
 1919 027a 5A020000 		.4byte	0x25a
 1920 027e 02       		.byte	0x2
 1921 027f 23       		.byte	0x23
 1922 0280 00       		.uleb128 0x0
 1923 0281 00       		.byte	0x0
 1924 0282 04       		.uleb128 0x4
 1925 0283 C2010000 		.4byte	.LASF44
 1926 0287 04       		.byte	0x4
 1927 0288 70       		.byte	0x70
 1928 0289 6B020000 		.4byte	0x26b
 1929 028d 04       		.uleb128 0x4
 1930 028e F4000000 		.4byte	.LASF45
 1931 0292 06       		.byte	0x6
 1932 0293 E5       		.byte	0xe5
 1933 0294 98020000 		.4byte	0x298
 1934 0298 0A       		.uleb128 0xa
 1935 0299 04       		.byte	0x4
 1936 029a 0B       		.uleb128 0xb
 1937 029b 98030000 		.4byte	.LASF46
 1938 029f 24       		.byte	0x24
 1939 02a0 06       		.byte	0x6
 1940 02a1 0C01     		.2byte	0x10c
 1941 02a3 28030000 		.4byte	0x328
 1942 02a7 0C       		.uleb128 0xc
 1943 02a8 723400   		.ascii	"r4\000"
 1944 02ab 06       		.byte	0x6
 1945 02ac 1F01     		.2byte	0x11f
 1946 02ae 8D020000 		.4byte	0x28d
 1947 02b2 02       		.byte	0x2
 1948 02b3 23       		.byte	0x23
 1949 02b4 00       		.uleb128 0x0
 1950 02b5 0C       		.uleb128 0xc
 1951 02b6 723500   		.ascii	"r5\000"
 1952 02b9 06       		.byte	0x6
 1953 02ba 2001     		.2byte	0x120
 1954 02bc 8D020000 		.4byte	0x28d
 1955 02c0 02       		.byte	0x2
 1956 02c1 23       		.byte	0x23
 1957 02c2 04       		.uleb128 0x4
 1958 02c3 0C       		.uleb128 0xc
 1959 02c4 723600   		.ascii	"r6\000"
 1960 02c7 06       		.byte	0x6
 1961 02c8 2101     		.2byte	0x121
 1962 02ca 8D020000 		.4byte	0x28d
 1963 02ce 02       		.byte	0x2
 1964 02cf 23       		.byte	0x23
 1965 02d0 08       		.uleb128 0x8
 1966 02d1 0C       		.uleb128 0xc
 1967 02d2 723700   		.ascii	"r7\000"
 1968 02d5 06       		.byte	0x6
 1969 02d6 2201     		.2byte	0x122
 1970 02d8 8D020000 		.4byte	0x28d
 1971 02dc 02       		.byte	0x2
 1972 02dd 23       		.byte	0x23
ARM GAS  C:\Users\z80\AppData\Local\Temp\cc94IzVL.s 			page 36


 1973 02de 0C       		.uleb128 0xc
 1974 02df 0C       		.uleb128 0xc
 1975 02e0 723800   		.ascii	"r8\000"
 1976 02e3 06       		.byte	0x6
 1977 02e4 2301     		.2byte	0x123
 1978 02e6 8D020000 		.4byte	0x28d
 1979 02ea 02       		.byte	0x2
 1980 02eb 23       		.byte	0x23
 1981 02ec 10       		.uleb128 0x10
 1982 02ed 0C       		.uleb128 0xc
 1983 02ee 723900   		.ascii	"r9\000"
 1984 02f1 06       		.byte	0x6
 1985 02f2 2401     		.2byte	0x124
 1986 02f4 8D020000 		.4byte	0x28d
 1987 02f8 02       		.byte	0x2
 1988 02f9 23       		.byte	0x23
 1989 02fa 14       		.uleb128 0x14
 1990 02fb 0C       		.uleb128 0xc
 1991 02fc 72313000 		.ascii	"r10\000"
 1992 0300 06       		.byte	0x6
 1993 0301 2501     		.2byte	0x125
 1994 0303 8D020000 		.4byte	0x28d
 1995 0307 02       		.byte	0x2
 1996 0308 23       		.byte	0x23
 1997 0309 18       		.uleb128 0x18
 1998 030a 0C       		.uleb128 0xc
 1999 030b 72313100 		.ascii	"r11\000"
 2000 030f 06       		.byte	0x6
 2001 0310 2601     		.2byte	0x126
 2002 0312 8D020000 		.4byte	0x28d
 2003 0316 02       		.byte	0x2
 2004 0317 23       		.byte	0x23
 2005 0318 1C       		.uleb128 0x1c
 2006 0319 0C       		.uleb128 0xc
 2007 031a 6C7200   		.ascii	"lr\000"
 2008 031d 06       		.byte	0x6
 2009 031e 2701     		.2byte	0x127
 2010 0320 8D020000 		.4byte	0x28d
 2011 0324 02       		.byte	0x2
 2012 0325 23       		.byte	0x23
 2013 0326 20       		.uleb128 0x20
 2014 0327 00       		.byte	0x0
 2015 0328 0B       		.uleb128 0xb
 2016 0329 6F010000 		.4byte	.LASF47
 2017 032d 04       		.byte	0x4
 2018 032e 06       		.byte	0x6
 2019 032f 3101     		.2byte	0x131
 2020 0331 45030000 		.4byte	0x345
 2021 0335 0C       		.uleb128 0xc
 2022 0336 72313300 		.ascii	"r13\000"
 2023 033a 06       		.byte	0x6
 2024 033b 3201     		.2byte	0x132
 2025 033d 45030000 		.4byte	0x345
 2026 0341 02       		.byte	0x2
 2027 0342 23       		.byte	0x23
 2028 0343 00       		.uleb128 0x0
 2029 0344 00       		.byte	0x0
ARM GAS  C:\Users\z80\AppData\Local\Temp\cc94IzVL.s 			page 37


 2030 0345 09       		.uleb128 0x9
 2031 0346 04       		.byte	0x4
 2032 0347 9A020000 		.4byte	0x29a
 2033 034b 0D       		.uleb128 0xd
 2034 034c 04       		.byte	0x4
 2035 034d 07       		.byte	0x7
 2036 034e 0E       		.uleb128 0xe
 2037 034f FA000000 		.4byte	0xfa
 2038 0353 08       		.uleb128 0x8
 2039 0354 1C       		.byte	0x1c
 2040 0355 07       		.byte	0x7
 2041 0356 5E       		.byte	0x5e
 2042 0357 B0030000 		.4byte	0x3b0
 2043 035b 06       		.uleb128 0x6
 2044 035c 54030000 		.4byte	.LASF48
 2045 0360 07       		.byte	0x7
 2046 0361 5F       		.byte	0x5f
 2047 0362 60020000 		.4byte	0x260
 2048 0366 02       		.byte	0x2
 2049 0367 23       		.byte	0x23
 2050 0368 00       		.uleb128 0x0
 2051 0369 06       		.uleb128 0x6
 2052 036a DB020000 		.4byte	.LASF49
 2053 036e 07       		.byte	0x7
 2054 036f 60       		.byte	0x60
 2055 0370 C3000000 		.4byte	0xc3
 2056 0374 02       		.byte	0x2
 2057 0375 23       		.byte	0x23
 2058 0376 08       		.uleb128 0x8
 2059 0377 06       		.uleb128 0x6
 2060 0378 18020000 		.4byte	.LASF50
 2061 037c 07       		.byte	0x7
 2062 037d 62       		.byte	0x62
 2063 037e 28030000 		.4byte	0x328
 2064 0382 02       		.byte	0x2
 2065 0383 23       		.byte	0x23
 2066 0384 0C       		.uleb128 0xc
 2067 0385 06       		.uleb128 0x6
 2068 0386 E7000000 		.4byte	.LASF51
 2069 038a 07       		.byte	0x7
 2070 038b 65       		.byte	0x65
 2071 038c 5A020000 		.4byte	0x25a
 2072 0390 02       		.byte	0x2
 2073 0391 23       		.byte	0x23
 2074 0392 10       		.uleb128 0x10
 2075 0393 06       		.uleb128 0x6
 2076 0394 47020000 		.4byte	.LASF52
 2077 0398 07       		.byte	0x7
 2078 0399 66       		.byte	0x66
 2079 039a 5A020000 		.4byte	0x25a
 2080 039e 02       		.byte	0x2
 2081 039f 23       		.byte	0x23
 2082 03a0 14       		.uleb128 0x14
 2083 03a1 06       		.uleb128 0x6
 2084 03a2 3D020000 		.4byte	.LASF53
 2085 03a6 07       		.byte	0x7
 2086 03a7 69       		.byte	0x69
ARM GAS  C:\Users\z80\AppData\Local\Temp\cc94IzVL.s 			page 38


 2087 03a8 5A020000 		.4byte	0x25a
 2088 03ac 02       		.byte	0x2
 2089 03ad 23       		.byte	0x23
 2090 03ae 18       		.uleb128 0x18
 2091 03af 00       		.byte	0x0
 2092 03b0 04       		.uleb128 0x4
 2093 03b1 BD030000 		.4byte	.LASF54
 2094 03b5 07       		.byte	0x7
 2095 03b6 6B       		.byte	0x6b
 2096 03b7 53030000 		.4byte	0x353
 2097 03bb 05       		.uleb128 0x5
 2098 03bc 69010000 		.4byte	.LASF55
 2099 03c0 10       		.byte	0x10
 2100 03c1 08       		.byte	0x8
 2101 03c2 2C       		.byte	0x2c
 2102 03c3 F2030000 		.4byte	0x3f2
 2103 03c7 06       		.uleb128 0x6
 2104 03c8 99000000 		.4byte	.LASF56
 2105 03cc 08       		.byte	0x8
 2106 03cd 2D       		.byte	0x2d
 2107 03ce 60020000 		.4byte	0x260
 2108 03d2 02       		.byte	0x2
 2109 03d3 23       		.byte	0x23
 2110 03d4 00       		.uleb128 0x0
 2111 03d5 06       		.uleb128 0x6
 2112 03d6 21040000 		.4byte	.LASF57
 2113 03da 08       		.byte	0x8
 2114 03db 2F       		.byte	0x2f
 2115 03dc 5A020000 		.4byte	0x25a
 2116 03e0 02       		.byte	0x2
 2117 03e1 23       		.byte	0x23
 2118 03e2 08       		.uleb128 0x8
 2119 03e3 06       		.uleb128 0x6
 2120 03e4 61030000 		.4byte	.LASF58
 2121 03e8 08       		.byte	0x8
 2122 03e9 31       		.byte	0x31
 2123 03ea F2030000 		.4byte	0x3f2
 2124 03ee 02       		.byte	0x2
 2125 03ef 23       		.byte	0x23
 2126 03f0 0C       		.uleb128 0xc
 2127 03f1 00       		.byte	0x0
 2128 03f2 09       		.uleb128 0x9
 2129 03f3 04       		.byte	0x4
 2130 03f4 BB030000 		.4byte	0x3bb
 2131 03f8 04       		.uleb128 0x4
 2132 03f9 69010000 		.4byte	.LASF55
 2133 03fd 08       		.byte	0x8
 2134 03fe 33       		.byte	0x33
 2135 03ff BB030000 		.4byte	0x3bb
 2136 0403 04       		.uleb128 0x4
 2137 0404 DB030000 		.4byte	.LASF59
 2138 0408 09       		.byte	0x9
 2139 0409 2C       		.byte	0x2c
 2140 040a 0E040000 		.4byte	0x40e
 2141 040e 05       		.uleb128 0x5
 2142 040f DB030000 		.4byte	.LASF59
 2143 0413 10       		.byte	0x10
ARM GAS  C:\Users\z80\AppData\Local\Temp\cc94IzVL.s 			page 39


 2144 0414 09       		.byte	0x9
 2145 0415 31       		.byte	0x31
 2146 0416 53040000 		.4byte	0x453
 2147 041a 06       		.uleb128 0x6
 2148 041b A2010000 		.4byte	.LASF60
 2149 041f 09       		.byte	0x9
 2150 0420 32       		.byte	0x32
 2151 0421 53040000 		.4byte	0x453
 2152 0425 02       		.byte	0x2
 2153 0426 23       		.byte	0x23
 2154 0427 00       		.uleb128 0x0
 2155 0428 06       		.uleb128 0x6
 2156 0429 A0020000 		.4byte	.LASF61
 2157 042d 09       		.byte	0x9
 2158 042e 35       		.byte	0x35
 2159 042f 5A020000 		.4byte	0x25a
 2160 0433 02       		.byte	0x2
 2161 0434 23       		.byte	0x23
 2162 0435 04       		.uleb128 0x4
 2163 0436 06       		.uleb128 0x6
 2164 0437 4F020000 		.4byte	.LASF62
 2165 043b 09       		.byte	0x9
 2166 043c 37       		.byte	0x37
 2167 043d E4000000 		.4byte	0xe4
 2168 0441 02       		.byte	0x2
 2169 0442 23       		.byte	0x23
 2170 0443 08       		.uleb128 0x8
 2171 0444 06       		.uleb128 0x6
 2172 0445 AC020000 		.4byte	.LASF63
 2173 0449 09       		.byte	0x9
 2174 044a 3A       		.byte	0x3a
 2175 044b EF000000 		.4byte	0xef
 2176 044f 02       		.byte	0x2
 2177 0450 23       		.byte	0x23
 2178 0451 0C       		.uleb128 0xc
 2179 0452 00       		.byte	0x0
 2180 0453 09       		.uleb128 0x9
 2181 0454 04       		.byte	0x4
 2182 0455 03040000 		.4byte	0x403
 2183 0459 05       		.uleb128 0x5
 2184 045a 1B010000 		.4byte	.LASF64
 2185 045e 04       		.byte	0x4
 2186 045f 09       		.byte	0x9
 2187 0460 41       		.byte	0x41
 2188 0461 74040000 		.4byte	0x474
 2189 0465 06       		.uleb128 0x6
 2190 0466 03040000 		.4byte	.LASF65
 2191 046a 09       		.byte	0x9
 2192 046b 42       		.byte	0x42
 2193 046c 53040000 		.4byte	0x453
 2194 0470 02       		.byte	0x2
 2195 0471 23       		.byte	0x23
 2196 0472 00       		.uleb128 0x0
 2197 0473 00       		.byte	0x0
 2198 0474 04       		.uleb128 0x4
 2199 0475 1B010000 		.4byte	.LASF64
 2200 0479 09       		.byte	0x9
ARM GAS  C:\Users\z80\AppData\Local\Temp\cc94IzVL.s 			page 40


 2201 047a 45       		.byte	0x45
 2202 047b 59040000 		.4byte	0x459
 2203 047f 04       		.uleb128 0x4
 2204 0480 27010000 		.4byte	.LASF66
 2205 0484 09       		.byte	0x9
 2206 0485 4A       		.byte	0x4a
 2207 0486 8A040000 		.4byte	0x48a
 2208 048a 09       		.uleb128 0x9
 2209 048b 04       		.byte	0x4
 2210 048c 90040000 		.4byte	0x490
 2211 0490 0F       		.uleb128 0xf
 2212 0491 01       		.byte	0x1
 2213 0492 9C040000 		.4byte	0x49c
 2214 0496 10       		.uleb128 0x10
 2215 0497 D9000000 		.4byte	0xd9
 2216 049b 00       		.byte	0x0
 2217 049c 11       		.uleb128 0x11
 2218 049d 04       		.byte	0x4
 2219 049e 05       		.byte	0x5
 2220 049f 96       		.byte	0x96
 2221 04a0 D1040000 		.4byte	0x4d1
 2222 04a4 12       		.uleb128 0x12
 2223 04a5 06000000 		.4byte	.LASF67
 2224 04a9 05       		.byte	0x5
 2225 04aa 9D       		.byte	0x9d
 2226 04ab CE000000 		.4byte	0xce
 2227 04af 12       		.uleb128 0x12
 2228 04b0 3F000000 		.4byte	.LASF68
 2229 04b4 05       		.byte	0x5
 2230 04b5 A4       		.byte	0xa4
 2231 04b6 CE000000 		.4byte	0xce
 2232 04ba 12       		.uleb128 0x12
 2233 04bb F5030000 		.4byte	.LASF69
 2234 04bf 05       		.byte	0x5
 2235 04c0 AB       		.byte	0xab
 2236 04c1 98020000 		.4byte	0x298
 2237 04c5 12       		.uleb128 0x12
 2238 04c6 23030000 		.4byte	.LASF70
 2239 04ca 05       		.byte	0x5
 2240 04cb B2       		.byte	0xb2
 2241 04cc E4000000 		.4byte	0xe4
 2242 04d0 00       		.byte	0x0
 2243 04d1 09       		.uleb128 0x9
 2244 04d2 04       		.byte	0x4
 2245 04d3 D7040000 		.4byte	0x4d7
 2246 04d7 13       		.uleb128 0x13
 2247 04d8 DC040000 		.4byte	0x4dc
 2248 04dc 03       		.uleb128 0x3
 2249 04dd 01       		.byte	0x1
 2250 04de 08       		.byte	0x8
 2251 04df 5C030000 		.4byte	.LASF71
 2252 04e3 09       		.uleb128 0x9
 2253 04e4 04       		.byte	0x4
 2254 04e5 F8030000 		.4byte	0x3f8
 2255 04e9 14       		.uleb128 0x14
 2256 04ea 01       		.byte	0x1
 2257 04eb 8A010000 		.4byte	.LASF73
ARM GAS  C:\Users\z80\AppData\Local\Temp\cc94IzVL.s 			page 41


 2258 04ef 01       		.byte	0x1
 2259 04f0 55       		.byte	0x55
 2260 04f1 01       		.byte	0x1
 2261 04f2 00000000 		.4byte	.LFB7
 2262 04f6 50000000 		.4byte	.LFE7
 2263 04fa 00000000 		.4byte	.LLST0
 2264 04fe 5F050000 		.4byte	0x55f
 2265 0502 15       		.uleb128 0x15
 2266 0503 65737000 		.ascii	"esp\000"
 2267 0507 01       		.byte	0x1
 2268 0508 55       		.byte	0x55
 2269 0509 5F050000 		.4byte	0x55f
 2270 050d 02       		.byte	0x2
 2271 050e 91       		.byte	0x91
 2272 050f 7C       		.sleb128 -4
 2273 0510 15       		.uleb128 0x15
 2274 0511 656C7000 		.ascii	"elp\000"
 2275 0515 01       		.byte	0x1
 2276 0516 55       		.byte	0x55
 2277 0517 53040000 		.4byte	0x453
 2278 051b 02       		.byte	0x2
 2279 051c 91       		.byte	0x91
 2280 051d 78       		.sleb128 -8
 2281 051e 16       		.uleb128 0x16
 2282 051f EF000000 		.4byte	.LASF72
 2283 0523 01       		.byte	0x1
 2284 0524 55       		.byte	0x55
 2285 0525 E4000000 		.4byte	0xe4
 2286 0529 02       		.byte	0x2
 2287 052a 91       		.byte	0x91
 2288 052b 74       		.sleb128 -12
 2289 052c 17       		.uleb128 0x17
 2290 052d 12000000 		.4byte	.LBB2
 2291 0531 1A000000 		.4byte	.LBE2
 2292 0535 47050000 		.4byte	0x547
 2293 0539 18       		.uleb128 0x18
 2294 053a 746D7000 		.ascii	"tmp\000"
 2295 053e 01       		.byte	0x1
 2296 053f 59       		.byte	0x59
 2297 0540 70000000 		.4byte	0x70
 2298 0544 01       		.byte	0x1
 2299 0545 53       		.byte	0x53
 2300 0546 00       		.byte	0x0
 2301 0547 19       		.uleb128 0x19
 2302 0548 44000000 		.4byte	.LBB3
 2303 054c 4C000000 		.4byte	.LBE3
 2304 0550 18       		.uleb128 0x18
 2305 0551 746D7000 		.ascii	"tmp\000"
 2306 0555 01       		.byte	0x1
 2307 0556 5F       		.byte	0x5f
 2308 0557 70000000 		.4byte	0x70
 2309 055b 01       		.byte	0x1
 2310 055c 53       		.byte	0x53
 2311 055d 00       		.byte	0x0
 2312 055e 00       		.byte	0x0
 2313 055f 09       		.uleb128 0x9
 2314 0560 04       		.byte	0x4
ARM GAS  C:\Users\z80\AppData\Local\Temp\cc94IzVL.s 			page 42


 2315 0561 74040000 		.4byte	0x474
 2316 0565 14       		.uleb128 0x14
 2317 0566 01       		.byte	0x1
 2318 0567 AA010000 		.4byte	.LASF74
 2319 056b 01       		.byte	0x1
 2320 056c 6F       		.byte	0x6f
 2321 056d 01       		.byte	0x1
 2322 056e 00000000 		.4byte	.LFB8
 2323 0572 4E000000 		.4byte	.LFE8
 2324 0576 20000000 		.4byte	.LLST1
 2325 057a D9050000 		.4byte	0x5d9
 2326 057e 15       		.uleb128 0x15
 2327 057f 65737000 		.ascii	"esp\000"
 2328 0583 01       		.byte	0x1
 2329 0584 6F       		.byte	0x6f
 2330 0585 5F050000 		.4byte	0x55f
 2331 0589 02       		.byte	0x2
 2332 058a 91       		.byte	0x91
 2333 058b 74       		.sleb128 -12
 2334 058c 15       		.uleb128 0x15
 2335 058d 656C7000 		.ascii	"elp\000"
 2336 0591 01       		.byte	0x1
 2337 0592 6F       		.byte	0x6f
 2338 0593 53040000 		.4byte	0x453
 2339 0597 02       		.byte	0x2
 2340 0598 91       		.byte	0x91
 2341 0599 70       		.sleb128 -16
 2342 059a 18       		.uleb128 0x18
 2343 059b 7000     		.ascii	"p\000"
 2344 059d 01       		.byte	0x1
 2345 059e 70       		.byte	0x70
 2346 059f 53040000 		.4byte	0x453
 2347 05a3 02       		.byte	0x2
 2348 05a4 91       		.byte	0x91
 2349 05a5 7C       		.sleb128 -4
 2350 05a6 17       		.uleb128 0x17
 2351 05a7 14000000 		.4byte	.LBB4
 2352 05ab 1C000000 		.4byte	.LBE4
 2353 05af C1050000 		.4byte	0x5c1
 2354 05b3 18       		.uleb128 0x18
 2355 05b4 746D7000 		.ascii	"tmp\000"
 2356 05b8 01       		.byte	0x1
 2357 05b9 75       		.byte	0x75
 2358 05ba 70000000 		.4byte	0x70
 2359 05be 01       		.byte	0x1
 2360 05bf 53       		.byte	0x53
 2361 05c0 00       		.byte	0x0
 2362 05c1 19       		.uleb128 0x19
 2363 05c2 42000000 		.4byte	.LBB5
 2364 05c6 4A000000 		.4byte	.LBE5
 2365 05ca 18       		.uleb128 0x18
 2366 05cb 746D7000 		.ascii	"tmp\000"
 2367 05cf 01       		.byte	0x1
 2368 05d0 7D       		.byte	0x7d
 2369 05d1 70000000 		.4byte	0x70
 2370 05d5 01       		.byte	0x1
 2371 05d6 53       		.byte	0x53
ARM GAS  C:\Users\z80\AppData\Local\Temp\cc94IzVL.s 			page 43


 2372 05d7 00       		.byte	0x0
 2373 05d8 00       		.byte	0x0
 2374 05d9 1A       		.uleb128 0x1a
 2375 05da 01       		.byte	0x1
 2376 05db 52010000 		.4byte	.LASF75
 2377 05df 01       		.byte	0x1
 2378 05e0 88       		.byte	0x88
 2379 05e1 01       		.byte	0x1
 2380 05e2 E4000000 		.4byte	0xe4
 2381 05e6 00000000 		.4byte	.LFB9
 2382 05ea 52000000 		.4byte	.LFE9
 2383 05ee 40000000 		.4byte	.LLST2
 2384 05f2 43060000 		.4byte	0x643
 2385 05f6 16       		.uleb128 0x16
 2386 05f7 EF000000 		.4byte	.LASF72
 2387 05fb 01       		.byte	0x1
 2388 05fc 88       		.byte	0x88
 2389 05fd E4000000 		.4byte	0xe4
 2390 0601 02       		.byte	0x2
 2391 0602 91       		.byte	0x91
 2392 0603 74       		.sleb128 -12
 2393 0604 18       		.uleb128 0x18
 2394 0605 6D00     		.ascii	"m\000"
 2395 0607 01       		.byte	0x1
 2396 0608 89       		.byte	0x89
 2397 0609 E4000000 		.4byte	0xe4
 2398 060d 02       		.byte	0x2
 2399 060e 91       		.byte	0x91
 2400 060f 7C       		.sleb128 -4
 2401 0610 17       		.uleb128 0x17
 2402 0611 04000000 		.4byte	.LBB6
 2403 0615 0C000000 		.4byte	.LBE6
 2404 0619 2B060000 		.4byte	0x62b
 2405 061d 18       		.uleb128 0x18
 2406 061e 746D7000 		.ascii	"tmp\000"
 2407 0622 01       		.byte	0x1
 2408 0623 8B       		.byte	0x8b
 2409 0624 70000000 		.4byte	0x70
 2410 0628 01       		.byte	0x1
 2411 0629 53       		.byte	0x53
 2412 062a 00       		.byte	0x0
 2413 062b 19       		.uleb128 0x19
 2414 062c 42000000 		.4byte	.LBB7
 2415 0630 4A000000 		.4byte	.LBE7
 2416 0634 18       		.uleb128 0x18
 2417 0635 746D7000 		.ascii	"tmp\000"
 2418 0639 01       		.byte	0x1
 2419 063a 90       		.byte	0x90
 2420 063b 70000000 		.4byte	0x70
 2421 063f 01       		.byte	0x1
 2422 0640 53       		.byte	0x53
 2423 0641 00       		.byte	0x0
 2424 0642 00       		.byte	0x0
 2425 0643 1A       		.uleb128 0x1a
 2426 0644 01       		.byte	0x1
 2427 0645 30000000 		.4byte	.LASF76
 2428 0649 01       		.byte	0x1
ARM GAS  C:\Users\z80\AppData\Local\Temp\cc94IzVL.s 			page 44


 2429 064a 9D       		.byte	0x9d
 2430 064b 01       		.byte	0x1
 2431 064c E4000000 		.4byte	0xe4
 2432 0650 00000000 		.4byte	.LFB10
 2433 0654 3E000000 		.4byte	.LFE10
 2434 0658 60000000 		.4byte	.LLST3
 2435 065c A1060000 		.4byte	0x6a1
 2436 0660 16       		.uleb128 0x16
 2437 0661 EF000000 		.4byte	.LASF72
 2438 0665 01       		.byte	0x1
 2439 0666 9D       		.byte	0x9d
 2440 0667 E4000000 		.4byte	0xe4
 2441 066b 02       		.byte	0x2
 2442 066c 91       		.byte	0x91
 2443 066d 7C       		.sleb128 -4
 2444 066e 17       		.uleb128 0x17
 2445 066f 04000000 		.4byte	.LBB8
 2446 0673 0C000000 		.4byte	.LBE8
 2447 0677 89060000 		.4byte	0x689
 2448 067b 18       		.uleb128 0x18
 2449 067c 746D7000 		.ascii	"tmp\000"
 2450 0680 01       		.byte	0x1
 2451 0681 9F       		.byte	0x9f
 2452 0682 70000000 		.4byte	0x70
 2453 0686 01       		.byte	0x1
 2454 0687 53       		.byte	0x53
 2455 0688 00       		.byte	0x0
 2456 0689 19       		.uleb128 0x19
 2457 068a 2E000000 		.4byte	.LBB9
 2458 068e 36000000 		.4byte	.LBE9
 2459 0692 18       		.uleb128 0x18
 2460 0693 746D7000 		.ascii	"tmp\000"
 2461 0697 01       		.byte	0x1
 2462 0698 A3       		.byte	0xa3
 2463 0699 70000000 		.4byte	0x70
 2464 069d 01       		.byte	0x1
 2465 069e 53       		.byte	0x53
 2466 069f 00       		.byte	0x0
 2467 06a0 00       		.byte	0x0
 2468 06a1 14       		.uleb128 0x14
 2469 06a2 01       		.byte	0x1
 2470 06a3 CA000000 		.4byte	.LASF77
 2471 06a7 01       		.byte	0x1
 2472 06a8 B8       		.byte	0xb8
 2473 06a9 01       		.byte	0x1
 2474 06aa 00000000 		.4byte	.LFB11
 2475 06ae 44000000 		.4byte	.LFE11
 2476 06b2 80000000 		.4byte	.LLST4
 2477 06b6 E5060000 		.4byte	0x6e5
 2478 06ba 15       		.uleb128 0x15
 2479 06bb 65737000 		.ascii	"esp\000"
 2480 06bf 01       		.byte	0x1
 2481 06c0 B8       		.byte	0xb8
 2482 06c1 5F050000 		.4byte	0x55f
 2483 06c5 02       		.byte	0x2
 2484 06c6 91       		.byte	0x91
 2485 06c7 6C       		.sleb128 -20
ARM GAS  C:\Users\z80\AppData\Local\Temp\cc94IzVL.s 			page 45


 2486 06c8 16       		.uleb128 0x16
 2487 06c9 D5030000 		.4byte	.LASF78
 2488 06cd 01       		.byte	0x1
 2489 06ce B8       		.byte	0xb8
 2490 06cf EF000000 		.4byte	0xef
 2491 06d3 02       		.byte	0x2
 2492 06d4 91       		.byte	0x91
 2493 06d5 68       		.sleb128 -24
 2494 06d6 18       		.uleb128 0x18
 2495 06d7 656C7000 		.ascii	"elp\000"
 2496 06db 01       		.byte	0x1
 2497 06dc B9       		.byte	0xb9
 2498 06dd 53040000 		.4byte	0x453
 2499 06e1 02       		.byte	0x2
 2500 06e2 91       		.byte	0x91
 2501 06e3 74       		.sleb128 -12
 2502 06e4 00       		.byte	0x0
 2503 06e5 1A       		.uleb128 0x1a
 2504 06e6 01       		.byte	0x1
 2505 06e7 0B040000 		.4byte	.LASF79
 2506 06eb 01       		.byte	0x1
 2507 06ec D1       		.byte	0xd1
 2508 06ed 01       		.byte	0x1
 2509 06ee EF000000 		.4byte	0xef
 2510 06f2 00000000 		.4byte	.LFB12
 2511 06f6 2A000000 		.4byte	.LFE12
 2512 06fa AC000000 		.4byte	.LLST5
 2513 06fe 51070000 		.4byte	0x751
 2514 0702 15       		.uleb128 0x15
 2515 0703 656C7000 		.ascii	"elp\000"
 2516 0707 01       		.byte	0x1
 2517 0708 D1       		.byte	0xd1
 2518 0709 53040000 		.4byte	0x453
 2519 070d 02       		.byte	0x2
 2520 070e 91       		.byte	0x91
 2521 070f 74       		.sleb128 -12
 2522 0710 1B       		.uleb128 0x1b
 2523 0711 D5030000 		.4byte	.LASF78
 2524 0715 01       		.byte	0x1
 2525 0716 D2       		.byte	0xd2
 2526 0717 EF000000 		.4byte	0xef
 2527 071b 02       		.byte	0x2
 2528 071c 91       		.byte	0x91
 2529 071d 7C       		.sleb128 -4
 2530 071e 17       		.uleb128 0x17
 2531 071f 04000000 		.4byte	.LBB10
 2532 0723 0C000000 		.4byte	.LBE10
 2533 0727 39070000 		.4byte	0x739
 2534 072b 18       		.uleb128 0x18
 2535 072c 746D7000 		.ascii	"tmp\000"
 2536 0730 01       		.byte	0x1
 2537 0731 D4       		.byte	0xd4
 2538 0732 70000000 		.4byte	0x70
 2539 0736 01       		.byte	0x1
 2540 0737 53       		.byte	0x53
 2541 0738 00       		.byte	0x0
 2542 0739 19       		.uleb128 0x19
ARM GAS  C:\Users\z80\AppData\Local\Temp\cc94IzVL.s 			page 46


 2543 073a 1A000000 		.4byte	.LBB11
 2544 073e 22000000 		.4byte	.LBE11
 2545 0742 18       		.uleb128 0x18
 2546 0743 746D7000 		.ascii	"tmp\000"
 2547 0747 01       		.byte	0x1
 2548 0748 D9       		.byte	0xd9
 2549 0749 70000000 		.4byte	0x70
 2550 074d 01       		.byte	0x1
 2551 074e 53       		.byte	0x53
 2552 074f 00       		.byte	0x0
 2553 0750 00       		.byte	0x0
 2554 0751 14       		.uleb128 0x14
 2555 0752 01       		.byte	0x1
 2556 0753 0D000000 		.4byte	.LASF80
 2557 0757 01       		.byte	0x1
 2558 0758 E5       		.byte	0xe5
 2559 0759 01       		.byte	0x1
 2560 075a 00000000 		.4byte	.LFB13
 2561 075e 2C000000 		.4byte	.LFE13
 2562 0762 CC000000 		.4byte	.LLST6
 2563 0766 B8070000 		.4byte	0x7b8
 2564 076a 15       		.uleb128 0x15
 2565 076b 747000   		.ascii	"tp\000"
 2566 076e 01       		.byte	0x1
 2567 076f E5       		.byte	0xe5
 2568 0770 5A020000 		.4byte	0x25a
 2569 0774 02       		.byte	0x2
 2570 0775 91       		.byte	0x91
 2571 0776 74       		.sleb128 -12
 2572 0777 16       		.uleb128 0x16
 2573 0778 EF000000 		.4byte	.LASF72
 2574 077c 01       		.byte	0x1
 2575 077d E5       		.byte	0xe5
 2576 077e E4000000 		.4byte	0xe4
 2577 0782 02       		.byte	0x2
 2578 0783 91       		.byte	0x91
 2579 0784 70       		.sleb128 -16
 2580 0785 17       		.uleb128 0x17
 2581 0786 0C000000 		.4byte	.LBB12
 2582 078a 14000000 		.4byte	.LBE12
 2583 078e A0070000 		.4byte	0x7a0
 2584 0792 18       		.uleb128 0x18
 2585 0793 746D7000 		.ascii	"tmp\000"
 2586 0797 01       		.byte	0x1
 2587 0798 E9       		.byte	0xe9
 2588 0799 70000000 		.4byte	0x70
 2589 079d 01       		.byte	0x1
 2590 079e 53       		.byte	0x53
 2591 079f 00       		.byte	0x0
 2592 07a0 19       		.uleb128 0x19
 2593 07a1 20000000 		.4byte	.LBB13
 2594 07a5 28000000 		.4byte	.LBE13
 2595 07a9 18       		.uleb128 0x18
 2596 07aa 746D7000 		.ascii	"tmp\000"
 2597 07ae 01       		.byte	0x1
 2598 07af EC       		.byte	0xec
 2599 07b0 70000000 		.4byte	0x70
ARM GAS  C:\Users\z80\AppData\Local\Temp\cc94IzVL.s 			page 47


 2600 07b4 01       		.byte	0x1
 2601 07b5 53       		.byte	0x53
 2602 07b6 00       		.byte	0x0
 2603 07b7 00       		.byte	0x0
 2604 07b8 14       		.uleb128 0x14
 2605 07b9 01       		.byte	0x1
 2606 07ba 39040000 		.4byte	.LASF81
 2607 07be 01       		.byte	0x1
 2608 07bf FB       		.byte	0xfb
 2609 07c0 01       		.byte	0x1
 2610 07c1 00000000 		.4byte	.LFB14
 2611 07c5 60000000 		.4byte	.LFE14
 2612 07c9 F8000000 		.4byte	.LLST7
 2613 07cd ED070000 		.4byte	0x7ed
 2614 07d1 15       		.uleb128 0x15
 2615 07d2 747000   		.ascii	"tp\000"
 2616 07d5 01       		.byte	0x1
 2617 07d6 FB       		.byte	0xfb
 2618 07d7 5A020000 		.4byte	0x25a
 2619 07db 02       		.byte	0x2
 2620 07dc 91       		.byte	0x91
 2621 07dd 74       		.sleb128 -12
 2622 07de 16       		.uleb128 0x16
 2623 07df EF000000 		.4byte	.LASF72
 2624 07e3 01       		.byte	0x1
 2625 07e4 FB       		.byte	0xfb
 2626 07e5 E4000000 		.4byte	0xe4
 2627 07e9 02       		.byte	0x2
 2628 07ea 91       		.byte	0x91
 2629 07eb 70       		.sleb128 -16
 2630 07ec 00       		.byte	0x0
 2631 07ed 1C       		.uleb128 0x1c
 2632 07ee 01       		.byte	0x1
 2633 07ef FD000000 		.4byte	.LASF82
 2634 07f3 01       		.byte	0x1
 2635 07f4 1601     		.2byte	0x116
 2636 07f6 01       		.byte	0x1
 2637 07f7 00000000 		.4byte	.LFB15
 2638 07fb 28000000 		.4byte	.LFE15
 2639 07ff 24010000 		.4byte	.LLST8
 2640 0803 5A080000 		.4byte	0x85a
 2641 0807 1D       		.uleb128 0x1d
 2642 0808 65737000 		.ascii	"esp\000"
 2643 080c 01       		.byte	0x1
 2644 080d 1601     		.2byte	0x116
 2645 080f 5F050000 		.4byte	0x55f
 2646 0813 02       		.byte	0x2
 2647 0814 91       		.byte	0x91
 2648 0815 74       		.sleb128 -12
 2649 0816 1E       		.uleb128 0x1e
 2650 0817 D5030000 		.4byte	.LASF78
 2651 081b 01       		.byte	0x1
 2652 081c 1601     		.2byte	0x116
 2653 081e EF000000 		.4byte	0xef
 2654 0822 02       		.byte	0x2
 2655 0823 91       		.byte	0x91
 2656 0824 70       		.sleb128 -16
ARM GAS  C:\Users\z80\AppData\Local\Temp\cc94IzVL.s 			page 48


 2657 0825 17       		.uleb128 0x17
 2658 0826 08000000 		.4byte	.LBB14
 2659 082a 10000000 		.4byte	.LBE14
 2660 082e 41080000 		.4byte	0x841
 2661 0832 1F       		.uleb128 0x1f
 2662 0833 746D7000 		.ascii	"tmp\000"
 2663 0837 01       		.byte	0x1
 2664 0838 1801     		.2byte	0x118
 2665 083a 70000000 		.4byte	0x70
 2666 083e 01       		.byte	0x1
 2667 083f 53       		.byte	0x53
 2668 0840 00       		.byte	0x0
 2669 0841 19       		.uleb128 0x19
 2670 0842 1C000000 		.4byte	.LBB15
 2671 0846 24000000 		.4byte	.LBE15
 2672 084a 1F       		.uleb128 0x1f
 2673 084b 746D7000 		.ascii	"tmp\000"
 2674 084f 01       		.byte	0x1
 2675 0850 1B01     		.2byte	0x11b
 2676 0852 70000000 		.4byte	0x70
 2677 0856 01       		.byte	0x1
 2678 0857 53       		.byte	0x53
 2679 0858 00       		.byte	0x0
 2680 0859 00       		.byte	0x0
 2681 085a 20       		.uleb128 0x20
 2682 085b 01       		.byte	0x1
 2683 085c E2020000 		.4byte	.LASF83
 2684 0860 01       		.byte	0x1
 2685 0861 2901     		.2byte	0x129
 2686 0863 01       		.byte	0x1
 2687 0864 EF000000 		.4byte	0xef
 2688 0868 00000000 		.4byte	.LFB16
 2689 086c 1A000000 		.4byte	.LFE16
 2690 0870 50010000 		.4byte	.LLST9
 2691 0874 97080000 		.4byte	0x897
 2692 0878 1D       		.uleb128 0x1d
 2693 0879 656C7000 		.ascii	"elp\000"
 2694 087d 01       		.byte	0x1
 2695 087e 2901     		.2byte	0x129
 2696 0880 53040000 		.4byte	0x453
 2697 0884 02       		.byte	0x2
 2698 0885 91       		.byte	0x91
 2699 0886 74       		.sleb128 -12
 2700 0887 21       		.uleb128 0x21
 2701 0888 D5030000 		.4byte	.LASF78
 2702 088c 01       		.byte	0x1
 2703 088d 2A01     		.2byte	0x12a
 2704 088f EF000000 		.4byte	0xef
 2705 0893 02       		.byte	0x2
 2706 0894 91       		.byte	0x91
 2707 0895 7C       		.sleb128 -4
 2708 0896 00       		.byte	0x0
 2709 0897 1C       		.uleb128 0x1c
 2710 0898 01       		.byte	0x1
 2711 0899 02020000 		.4byte	.LASF84
 2712 089d 01       		.byte	0x1
 2713 089e 3B01     		.2byte	0x13b
ARM GAS  C:\Users\z80\AppData\Local\Temp\cc94IzVL.s 			page 49


 2714 08a0 01       		.byte	0x1
 2715 08a1 00000000 		.4byte	.LFB17
 2716 08a5 70000000 		.4byte	.LFE17
 2717 08a9 70010000 		.4byte	.LLST10
 2718 08ad DF080000 		.4byte	0x8df
 2719 08b1 1E       		.uleb128 0x1e
 2720 08b2 57020000 		.4byte	.LASF85
 2721 08b6 01       		.byte	0x1
 2722 08b7 3B01     		.2byte	0x13b
 2723 08b9 DF080000 		.4byte	0x8df
 2724 08bd 02       		.byte	0x2
 2725 08be 91       		.byte	0x91
 2726 08bf 6C       		.sleb128 -20
 2727 08c0 1E       		.uleb128 0x1e
 2728 08c1 EF000000 		.4byte	.LASF72
 2729 08c5 01       		.byte	0x1
 2730 08c6 3B01     		.2byte	0x13b
 2731 08c8 E4000000 		.4byte	0xe4
 2732 08cc 02       		.byte	0x2
 2733 08cd 91       		.byte	0x91
 2734 08ce 68       		.sleb128 -24
 2735 08cf 1F       		.uleb128 0x1f
 2736 08d0 65696400 		.ascii	"eid\000"
 2737 08d4 01       		.byte	0x1
 2738 08d5 3C01     		.2byte	0x13c
 2739 08d7 D9000000 		.4byte	0xd9
 2740 08db 02       		.byte	0x2
 2741 08dc 91       		.byte	0x91
 2742 08dd 74       		.sleb128 -12
 2743 08de 00       		.byte	0x0
 2744 08df 09       		.uleb128 0x9
 2745 08e0 04       		.byte	0x4
 2746 08e1 E5080000 		.4byte	0x8e5
 2747 08e5 13       		.uleb128 0x13
 2748 08e6 7F040000 		.4byte	0x47f
 2749 08ea 20       		.uleb128 0x20
 2750 08eb 01       		.byte	0x1
 2751 08ec 93020000 		.4byte	.LASF86
 2752 08f0 01       		.byte	0x1
 2753 08f1 5E01     		.2byte	0x15e
 2754 08f3 01       		.byte	0x1
 2755 08f4 E4000000 		.4byte	0xe4
 2756 08f8 00000000 		.4byte	.LFB18
 2757 08fc 76000000 		.4byte	.LFE18
 2758 0900 9C010000 		.4byte	.LLST11
 2759 0904 68090000 		.4byte	0x968
 2760 0908 1E       		.uleb128 0x1e
 2761 0909 EF000000 		.4byte	.LASF72
 2762 090d 01       		.byte	0x1
 2763 090e 5E01     		.2byte	0x15e
 2764 0910 E4000000 		.4byte	0xe4
 2765 0914 02       		.byte	0x2
 2766 0915 91       		.byte	0x91
 2767 0916 6C       		.sleb128 -20
 2768 0917 1F       		.uleb128 0x1f
 2769 0918 63747000 		.ascii	"ctp\000"
 2770 091c 01       		.byte	0x1
ARM GAS  C:\Users\z80\AppData\Local\Temp\cc94IzVL.s 			page 50


 2771 091d 5F01     		.2byte	0x15f
 2772 091f 5A020000 		.4byte	0x25a
 2773 0923 02       		.byte	0x2
 2774 0924 91       		.byte	0x91
 2775 0925 70       		.sleb128 -16
 2776 0926 1F       		.uleb128 0x1f
 2777 0927 6D00     		.ascii	"m\000"
 2778 0929 01       		.byte	0x1
 2779 092a 6001     		.2byte	0x160
 2780 092c E4000000 		.4byte	0xe4
 2781 0930 02       		.byte	0x2
 2782 0931 91       		.byte	0x91
 2783 0932 74       		.sleb128 -12
 2784 0933 17       		.uleb128 0x17
 2785 0934 12000000 		.4byte	.LBB16
 2786 0938 1A000000 		.4byte	.LBE16
 2787 093c 4F090000 		.4byte	0x94f
 2788 0940 1F       		.uleb128 0x1f
 2789 0941 746D7000 		.ascii	"tmp\000"
 2790 0945 01       		.byte	0x1
 2791 0946 6201     		.2byte	0x162
 2792 0948 70000000 		.4byte	0x70
 2793 094c 01       		.byte	0x1
 2794 094d 53       		.byte	0x53
 2795 094e 00       		.byte	0x0
 2796 094f 19       		.uleb128 0x19
 2797 0950 66000000 		.4byte	.LBB17
 2798 0954 6E000000 		.4byte	.LBE17
 2799 0958 1F       		.uleb128 0x1f
 2800 0959 746D7000 		.ascii	"tmp\000"
 2801 095d 01       		.byte	0x1
 2802 095e 6C01     		.2byte	0x16c
 2803 0960 70000000 		.4byte	0x70
 2804 0964 01       		.byte	0x1
 2805 0965 53       		.byte	0x53
 2806 0966 00       		.byte	0x0
 2807 0967 00       		.byte	0x0
 2808 0968 20       		.uleb128 0x20
 2809 0969 01       		.byte	0x1
 2810 096a BD000000 		.4byte	.LASF87
 2811 096e 01       		.byte	0x1
 2812 096f 7B01     		.2byte	0x17b
 2813 0971 01       		.byte	0x1
 2814 0972 E4000000 		.4byte	0xe4
 2815 0976 00000000 		.4byte	.LFB19
 2816 097a 68000000 		.4byte	.LFE19
 2817 097e C8010000 		.4byte	.LLST12
 2818 0982 E6090000 		.4byte	0x9e6
 2819 0986 1E       		.uleb128 0x1e
 2820 0987 EF000000 		.4byte	.LASF72
 2821 098b 01       		.byte	0x1
 2822 098c 7B01     		.2byte	0x17b
 2823 098e E4000000 		.4byte	0xe4
 2824 0992 02       		.byte	0x2
 2825 0993 91       		.byte	0x91
 2826 0994 6C       		.sleb128 -20
 2827 0995 1F       		.uleb128 0x1f
ARM GAS  C:\Users\z80\AppData\Local\Temp\cc94IzVL.s 			page 51


 2828 0996 63747000 		.ascii	"ctp\000"
 2829 099a 01       		.byte	0x1
 2830 099b 7C01     		.2byte	0x17c
 2831 099d 5A020000 		.4byte	0x25a
 2832 09a1 02       		.byte	0x2
 2833 09a2 91       		.byte	0x91
 2834 09a3 70       		.sleb128 -16
 2835 09a4 1F       		.uleb128 0x1f
 2836 09a5 6D00     		.ascii	"m\000"
 2837 09a7 01       		.byte	0x1
 2838 09a8 7D01     		.2byte	0x17d
 2839 09aa E4000000 		.4byte	0xe4
 2840 09ae 02       		.byte	0x2
 2841 09af 91       		.byte	0x91
 2842 09b0 74       		.sleb128 -12
 2843 09b1 17       		.uleb128 0x17
 2844 09b2 12000000 		.4byte	.LBB18
 2845 09b6 1A000000 		.4byte	.LBE18
 2846 09ba CD090000 		.4byte	0x9cd
 2847 09be 1F       		.uleb128 0x1f
 2848 09bf 746D7000 		.ascii	"tmp\000"
 2849 09c3 01       		.byte	0x1
 2850 09c4 7F01     		.2byte	0x17f
 2851 09c6 70000000 		.4byte	0x70
 2852 09ca 01       		.byte	0x1
 2853 09cb 53       		.byte	0x53
 2854 09cc 00       		.byte	0x0
 2855 09cd 19       		.uleb128 0x19
 2856 09ce 58000000 		.4byte	.LBB19
 2857 09d2 60000000 		.4byte	.LBE19
 2858 09d6 1F       		.uleb128 0x1f
 2859 09d7 746D7000 		.ascii	"tmp\000"
 2860 09db 01       		.byte	0x1
 2861 09dc 8801     		.2byte	0x188
 2862 09de 70000000 		.4byte	0x70
 2863 09e2 01       		.byte	0x1
 2864 09e3 53       		.byte	0x53
 2865 09e4 00       		.byte	0x0
 2866 09e5 00       		.byte	0x0
 2867 09e6 20       		.uleb128 0x20
 2868 09e7 01       		.byte	0x1
 2869 09e8 30020000 		.4byte	.LASF88
 2870 09ec 01       		.byte	0x1
 2871 09ed 9701     		.2byte	0x197
 2872 09ef 01       		.byte	0x1
 2873 09f0 E4000000 		.4byte	0xe4
 2874 09f4 00000000 		.4byte	.LFB20
 2875 09f8 5A000000 		.4byte	.LFE20
 2876 09fc F4010000 		.4byte	.LLST13
 2877 0a00 570A0000 		.4byte	0xa57
 2878 0a04 1E       		.uleb128 0x1e
 2879 0a05 EF000000 		.4byte	.LASF72
 2880 0a09 01       		.byte	0x1
 2881 0a0a 9701     		.2byte	0x197
 2882 0a0c E4000000 		.4byte	0xe4
 2883 0a10 02       		.byte	0x2
 2884 0a11 91       		.byte	0x91
ARM GAS  C:\Users\z80\AppData\Local\Temp\cc94IzVL.s 			page 52


 2885 0a12 6C       		.sleb128 -20
 2886 0a13 1F       		.uleb128 0x1f
 2887 0a14 63747000 		.ascii	"ctp\000"
 2888 0a18 01       		.byte	0x1
 2889 0a19 9801     		.2byte	0x198
 2890 0a1b 5A020000 		.4byte	0x25a
 2891 0a1f 02       		.byte	0x2
 2892 0a20 91       		.byte	0x91
 2893 0a21 74       		.sleb128 -12
 2894 0a22 17       		.uleb128 0x17
 2895 0a23 12000000 		.4byte	.LBB20
 2896 0a27 1A000000 		.4byte	.LBE20
 2897 0a2b 3E0A0000 		.4byte	0xa3e
 2898 0a2f 1F       		.uleb128 0x1f
 2899 0a30 746D7000 		.ascii	"tmp\000"
 2900 0a34 01       		.byte	0x1
 2901 0a35 9A01     		.2byte	0x19a
 2902 0a37 70000000 		.4byte	0x70
 2903 0a3b 01       		.byte	0x1
 2904 0a3c 53       		.byte	0x53
 2905 0a3d 00       		.byte	0x0
 2906 0a3e 19       		.uleb128 0x19
 2907 0a3f 4A000000 		.4byte	.LBB21
 2908 0a43 52000000 		.4byte	.LBE21
 2909 0a47 1F       		.uleb128 0x1f
 2910 0a48 746D7000 		.ascii	"tmp\000"
 2911 0a4c 01       		.byte	0x1
 2912 0a4d A201     		.2byte	0x1a2
 2913 0a4f 70000000 		.4byte	0x70
 2914 0a53 01       		.byte	0x1
 2915 0a54 53       		.byte	0x53
 2916 0a55 00       		.byte	0x0
 2917 0a56 00       		.byte	0x0
 2918 0a57 20       		.uleb128 0x20
 2919 0a58 01       		.byte	0x1
 2920 0a59 84030000 		.4byte	.LASF89
 2921 0a5d 01       		.byte	0x1
 2922 0a5e BE01     		.2byte	0x1be
 2923 0a60 01       		.byte	0x1
 2924 0a61 E4000000 		.4byte	0xe4
 2925 0a65 00000000 		.4byte	.LFB21
 2926 0a69 A2000000 		.4byte	.LFE21
 2927 0a6d 20020000 		.4byte	.LLST14
 2928 0a71 1C0B0000 		.4byte	0xb1c
 2929 0a75 1E       		.uleb128 0x1e
 2930 0a76 EF000000 		.4byte	.LASF72
 2931 0a7a 01       		.byte	0x1
 2932 0a7b BE01     		.2byte	0x1be
 2933 0a7d E4000000 		.4byte	0xe4
 2934 0a81 02       		.byte	0x2
 2935 0a82 91       		.byte	0x91
 2936 0a83 6C       		.sleb128 -20
 2937 0a84 1E       		.uleb128 0x1e
 2938 0a85 2B020000 		.4byte	.LASF90
 2939 0a89 01       		.byte	0x1
 2940 0a8a BE01     		.2byte	0x1be
 2941 0a8c FA000000 		.4byte	0xfa
ARM GAS  C:\Users\z80\AppData\Local\Temp\cc94IzVL.s 			page 53


 2942 0a90 02       		.byte	0x2
 2943 0a91 91       		.byte	0x91
 2944 0a92 68       		.sleb128 -24
 2945 0a93 1F       		.uleb128 0x1f
 2946 0a94 63747000 		.ascii	"ctp\000"
 2947 0a98 01       		.byte	0x1
 2948 0a99 BF01     		.2byte	0x1bf
 2949 0a9b 5A020000 		.4byte	0x25a
 2950 0a9f 02       		.byte	0x2
 2951 0aa0 91       		.byte	0x91
 2952 0aa1 70       		.sleb128 -16
 2953 0aa2 1F       		.uleb128 0x1f
 2954 0aa3 6D00     		.ascii	"m\000"
 2955 0aa5 01       		.byte	0x1
 2956 0aa6 C001     		.2byte	0x1c0
 2957 0aa8 E4000000 		.4byte	0xe4
 2958 0aac 02       		.byte	0x2
 2959 0aad 91       		.byte	0x91
 2960 0aae 74       		.sleb128 -12
 2961 0aaf 17       		.uleb128 0x17
 2962 0ab0 14000000 		.4byte	.LBB22
 2963 0ab4 1C000000 		.4byte	.LBE22
 2964 0ab8 CB0A0000 		.4byte	0xacb
 2965 0abc 1F       		.uleb128 0x1f
 2966 0abd 746D7000 		.ascii	"tmp\000"
 2967 0ac1 01       		.byte	0x1
 2968 0ac2 C201     		.2byte	0x1c2
 2969 0ac4 70000000 		.4byte	0x70
 2970 0ac8 01       		.byte	0x1
 2971 0ac9 53       		.byte	0x53
 2972 0aca 00       		.byte	0x0
 2973 0acb 17       		.uleb128 0x17
 2974 0acc 34000000 		.4byte	.LBB23
 2975 0ad0 3C000000 		.4byte	.LBE23
 2976 0ad4 E70A0000 		.4byte	0xae7
 2977 0ad8 1F       		.uleb128 0x1f
 2978 0ad9 746D7000 		.ascii	"tmp\000"
 2979 0add 01       		.byte	0x1
 2980 0ade C601     		.2byte	0x1c6
 2981 0ae0 70000000 		.4byte	0x70
 2982 0ae4 01       		.byte	0x1
 2983 0ae5 53       		.byte	0x53
 2984 0ae6 00       		.byte	0x0
 2985 0ae7 17       		.uleb128 0x17
 2986 0ae8 58000000 		.4byte	.LBB24
 2987 0aec 60000000 		.4byte	.LBE24
 2988 0af0 030B0000 		.4byte	0xb03
 2989 0af4 1F       		.uleb128 0x1f
 2990 0af5 746D7000 		.ascii	"tmp\000"
 2991 0af9 01       		.byte	0x1
 2992 0afa CB01     		.2byte	0x1cb
 2993 0afc 70000000 		.4byte	0x70
 2994 0b00 01       		.byte	0x1
 2995 0b01 53       		.byte	0x53
 2996 0b02 00       		.byte	0x0
 2997 0b03 19       		.uleb128 0x19
 2998 0b04 92000000 		.4byte	.LBB25
ARM GAS  C:\Users\z80\AppData\Local\Temp\cc94IzVL.s 			page 54


 2999 0b08 9A000000 		.4byte	.LBE25
 3000 0b0c 1F       		.uleb128 0x1f
 3001 0b0d 746D7000 		.ascii	"tmp\000"
 3002 0b11 01       		.byte	0x1
 3003 0b12 D301     		.2byte	0x1d3
 3004 0b14 70000000 		.4byte	0x70
 3005 0b18 01       		.byte	0x1
 3006 0b19 53       		.byte	0x53
 3007 0b1a 00       		.byte	0x0
 3008 0b1b 00       		.byte	0x0
 3009 0b1c 20       		.uleb128 0x20
 3010 0b1d 01       		.byte	0x1
 3011 0b1e 48000000 		.4byte	.LASF91
 3012 0b22 01       		.byte	0x1
 3013 0b23 E901     		.2byte	0x1e9
 3014 0b25 01       		.byte	0x1
 3015 0b26 E4000000 		.4byte	0xe4
 3016 0b2a 00000000 		.4byte	.LFB22
 3017 0b2e 94000000 		.4byte	.LFE22
 3018 0b32 4C020000 		.4byte	.LLST15
 3019 0b36 E10B0000 		.4byte	0xbe1
 3020 0b3a 1E       		.uleb128 0x1e
 3021 0b3b EF000000 		.4byte	.LASF72
 3022 0b3f 01       		.byte	0x1
 3023 0b40 E901     		.2byte	0x1e9
 3024 0b42 E4000000 		.4byte	0xe4
 3025 0b46 02       		.byte	0x2
 3026 0b47 91       		.byte	0x91
 3027 0b48 6C       		.sleb128 -20
 3028 0b49 1E       		.uleb128 0x1e
 3029 0b4a 2B020000 		.4byte	.LASF90
 3030 0b4e 01       		.byte	0x1
 3031 0b4f E901     		.2byte	0x1e9
 3032 0b51 FA000000 		.4byte	0xfa
 3033 0b55 02       		.byte	0x2
 3034 0b56 91       		.byte	0x91
 3035 0b57 68       		.sleb128 -24
 3036 0b58 1F       		.uleb128 0x1f
 3037 0b59 63747000 		.ascii	"ctp\000"
 3038 0b5d 01       		.byte	0x1
 3039 0b5e EA01     		.2byte	0x1ea
 3040 0b60 5A020000 		.4byte	0x25a
 3041 0b64 02       		.byte	0x2
 3042 0b65 91       		.byte	0x91
 3043 0b66 70       		.sleb128 -16
 3044 0b67 1F       		.uleb128 0x1f
 3045 0b68 6D00     		.ascii	"m\000"
 3046 0b6a 01       		.byte	0x1
 3047 0b6b EB01     		.2byte	0x1eb
 3048 0b6d E4000000 		.4byte	0xe4
 3049 0b71 02       		.byte	0x2
 3050 0b72 91       		.byte	0x91
 3051 0b73 74       		.sleb128 -12
 3052 0b74 17       		.uleb128 0x17
 3053 0b75 14000000 		.4byte	.LBB26
 3054 0b79 1C000000 		.4byte	.LBE26
 3055 0b7d 900B0000 		.4byte	0xb90
ARM GAS  C:\Users\z80\AppData\Local\Temp\cc94IzVL.s 			page 55


 3056 0b81 1F       		.uleb128 0x1f
 3057 0b82 746D7000 		.ascii	"tmp\000"
 3058 0b86 01       		.byte	0x1
 3059 0b87 ED01     		.2byte	0x1ed
 3060 0b89 70000000 		.4byte	0x70
 3061 0b8d 01       		.byte	0x1
 3062 0b8e 53       		.byte	0x53
 3063 0b8f 00       		.byte	0x0
 3064 0b90 17       		.uleb128 0x17
 3065 0b91 34000000 		.4byte	.LBB27
 3066 0b95 3C000000 		.4byte	.LBE27
 3067 0b99 AC0B0000 		.4byte	0xbac
 3068 0b9d 1F       		.uleb128 0x1f
 3069 0b9e 746D7000 		.ascii	"tmp\000"
 3070 0ba2 01       		.byte	0x1
 3071 0ba3 F101     		.2byte	0x1f1
 3072 0ba5 70000000 		.4byte	0x70
 3073 0ba9 01       		.byte	0x1
 3074 0baa 53       		.byte	0x53
 3075 0bab 00       		.byte	0x0
 3076 0bac 17       		.uleb128 0x17
 3077 0bad 58000000 		.4byte	.LBB28
 3078 0bb1 60000000 		.4byte	.LBE28
 3079 0bb5 C80B0000 		.4byte	0xbc8
 3080 0bb9 1F       		.uleb128 0x1f
 3081 0bba 746D7000 		.ascii	"tmp\000"
 3082 0bbe 01       		.byte	0x1
 3083 0bbf F601     		.2byte	0x1f6
 3084 0bc1 70000000 		.4byte	0x70
 3085 0bc5 01       		.byte	0x1
 3086 0bc6 53       		.byte	0x53
 3087 0bc7 00       		.byte	0x0
 3088 0bc8 19       		.uleb128 0x19
 3089 0bc9 84000000 		.4byte	.LBB29
 3090 0bcd 8C000000 		.4byte	.LBE29
 3091 0bd1 1F       		.uleb128 0x1f
 3092 0bd2 746D7000 		.ascii	"tmp\000"
 3093 0bd6 01       		.byte	0x1
 3094 0bd7 FD01     		.2byte	0x1fd
 3095 0bd9 70000000 		.4byte	0x70
 3096 0bdd 01       		.byte	0x1
 3097 0bde 53       		.byte	0x53
 3098 0bdf 00       		.byte	0x0
 3099 0be0 00       		.byte	0x0
 3100 0be1 20       		.uleb128 0x20
 3101 0be2 01       		.byte	0x1
 3102 0be3 7D000000 		.4byte	.LASF92
 3103 0be7 01       		.byte	0x1
 3104 0be8 1202     		.2byte	0x212
 3105 0bea 01       		.byte	0x1
 3106 0beb E4000000 		.4byte	0xe4
 3107 0bef 00000000 		.4byte	.LFB23
 3108 0bf3 86000000 		.4byte	.LFE23
 3109 0bf7 78020000 		.4byte	.LLST16
 3110 0bfb 990C0000 		.4byte	0xc99
 3111 0bff 1E       		.uleb128 0x1e
 3112 0c00 EF000000 		.4byte	.LASF72
ARM GAS  C:\Users\z80\AppData\Local\Temp\cc94IzVL.s 			page 56


 3113 0c04 01       		.byte	0x1
 3114 0c05 1202     		.2byte	0x212
 3115 0c07 E4000000 		.4byte	0xe4
 3116 0c0b 02       		.byte	0x2
 3117 0c0c 91       		.byte	0x91
 3118 0c0d 6C       		.sleb128 -20
 3119 0c0e 1E       		.uleb128 0x1e
 3120 0c0f 2B020000 		.4byte	.LASF90
 3121 0c13 01       		.byte	0x1
 3122 0c14 1202     		.2byte	0x212
 3123 0c16 FA000000 		.4byte	0xfa
 3124 0c1a 02       		.byte	0x2
 3125 0c1b 91       		.byte	0x91
 3126 0c1c 68       		.sleb128 -24
 3127 0c1d 1F       		.uleb128 0x1f
 3128 0c1e 63747000 		.ascii	"ctp\000"
 3129 0c22 01       		.byte	0x1
 3130 0c23 1302     		.2byte	0x213
 3131 0c25 5A020000 		.4byte	0x25a
 3132 0c29 02       		.byte	0x2
 3133 0c2a 91       		.byte	0x91
 3134 0c2b 74       		.sleb128 -12
 3135 0c2c 17       		.uleb128 0x17
 3136 0c2d 14000000 		.4byte	.LBB30
 3137 0c31 1C000000 		.4byte	.LBE30
 3138 0c35 480C0000 		.4byte	0xc48
 3139 0c39 1F       		.uleb128 0x1f
 3140 0c3a 746D7000 		.ascii	"tmp\000"
 3141 0c3e 01       		.byte	0x1
 3142 0c3f 1502     		.2byte	0x215
 3143 0c41 70000000 		.4byte	0x70
 3144 0c45 01       		.byte	0x1
 3145 0c46 53       		.byte	0x53
 3146 0c47 00       		.byte	0x0
 3147 0c48 17       		.uleb128 0x17
 3148 0c49 32000000 		.4byte	.LBB31
 3149 0c4d 3A000000 		.4byte	.LBE31
 3150 0c51 640C0000 		.4byte	0xc64
 3151 0c55 1F       		.uleb128 0x1f
 3152 0c56 746D7000 		.ascii	"tmp\000"
 3153 0c5a 01       		.byte	0x1
 3154 0c5b 1902     		.2byte	0x219
 3155 0c5d 70000000 		.4byte	0x70
 3156 0c61 01       		.byte	0x1
 3157 0c62 53       		.byte	0x53
 3158 0c63 00       		.byte	0x0
 3159 0c64 17       		.uleb128 0x17
 3160 0c65 56000000 		.4byte	.LBB32
 3161 0c69 5E000000 		.4byte	.LBE32
 3162 0c6d 800C0000 		.4byte	0xc80
 3163 0c71 1F       		.uleb128 0x1f
 3164 0c72 746D7000 		.ascii	"tmp\000"
 3165 0c76 01       		.byte	0x1
 3166 0c77 1E02     		.2byte	0x21e
 3167 0c79 70000000 		.4byte	0x70
 3168 0c7d 01       		.byte	0x1
 3169 0c7e 53       		.byte	0x53
ARM GAS  C:\Users\z80\AppData\Local\Temp\cc94IzVL.s 			page 57


 3170 0c7f 00       		.byte	0x0
 3171 0c80 19       		.uleb128 0x19
 3172 0c81 76000000 		.4byte	.LBB33
 3173 0c85 7E000000 		.4byte	.LBE33
 3174 0c89 1F       		.uleb128 0x1f
 3175 0c8a 746D7000 		.ascii	"tmp\000"
 3176 0c8e 01       		.byte	0x1
 3177 0c8f 2402     		.2byte	0x224
 3178 0c91 70000000 		.4byte	0x70
 3179 0c95 01       		.byte	0x1
 3180 0c96 53       		.byte	0x53
 3181 0c97 00       		.byte	0x0
 3182 0c98 00       		.byte	0x0
 3183 0c99 22       		.uleb128 0x22
 3184 0c9a C7030000 		.4byte	.LASF93
 3185 0c9e 07       		.byte	0x7
 3186 0c9f 6F       		.byte	0x6f
 3187 0ca0 B0030000 		.4byte	0x3b0
 3188 0ca4 01       		.byte	0x1
 3189 0ca5 01       		.byte	0x1
 3190 0ca6 22       		.uleb128 0x22
 3191 0ca7 C7030000 		.4byte	.LASF93
 3192 0cab 07       		.byte	0x7
 3193 0cac 6F       		.byte	0x6f
 3194 0cad B0030000 		.4byte	0x3b0
 3195 0cb1 01       		.byte	0x1
 3196 0cb2 01       		.byte	0x1
 3197 0cb3 00       		.byte	0x0
 3198              		.section	.debug_abbrev
 3199 0000 01       		.uleb128 0x1
 3200 0001 11       		.uleb128 0x11
 3201 0002 01       		.byte	0x1
 3202 0003 25       		.uleb128 0x25
 3203 0004 0E       		.uleb128 0xe
 3204 0005 13       		.uleb128 0x13
 3205 0006 0B       		.uleb128 0xb
 3206 0007 03       		.uleb128 0x3
 3207 0008 0E       		.uleb128 0xe
 3208 0009 1B       		.uleb128 0x1b
 3209 000a 0E       		.uleb128 0xe
 3210 000b 11       		.uleb128 0x11
 3211 000c 01       		.uleb128 0x1
 3212 000d 52       		.uleb128 0x52
 3213 000e 01       		.uleb128 0x1
 3214 000f 55       		.uleb128 0x55
 3215 0010 06       		.uleb128 0x6
 3216 0011 10       		.uleb128 0x10
 3217 0012 06       		.uleb128 0x6
 3218 0013 00       		.byte	0x0
 3219 0014 00       		.byte	0x0
 3220 0015 02       		.uleb128 0x2
 3221 0016 24       		.uleb128 0x24
 3222 0017 00       		.byte	0x0
 3223 0018 0B       		.uleb128 0xb
 3224 0019 0B       		.uleb128 0xb
 3225 001a 3E       		.uleb128 0x3e
 3226 001b 0B       		.uleb128 0xb
ARM GAS  C:\Users\z80\AppData\Local\Temp\cc94IzVL.s 			page 58


 3227 001c 03       		.uleb128 0x3
 3228 001d 08       		.uleb128 0x8
 3229 001e 00       		.byte	0x0
 3230 001f 00       		.byte	0x0
 3231 0020 03       		.uleb128 0x3
 3232 0021 24       		.uleb128 0x24
 3233 0022 00       		.byte	0x0
 3234 0023 0B       		.uleb128 0xb
 3235 0024 0B       		.uleb128 0xb
 3236 0025 3E       		.uleb128 0x3e
 3237 0026 0B       		.uleb128 0xb
 3238 0027 03       		.uleb128 0x3
 3239 0028 0E       		.uleb128 0xe
 3240 0029 00       		.byte	0x0
 3241 002a 00       		.byte	0x0
 3242 002b 04       		.uleb128 0x4
 3243 002c 16       		.uleb128 0x16
 3244 002d 00       		.byte	0x0
 3245 002e 03       		.uleb128 0x3
 3246 002f 0E       		.uleb128 0xe
 3247 0030 3A       		.uleb128 0x3a
 3248 0031 0B       		.uleb128 0xb
 3249 0032 3B       		.uleb128 0x3b
 3250 0033 0B       		.uleb128 0xb
 3251 0034 49       		.uleb128 0x49
 3252 0035 13       		.uleb128 0x13
 3253 0036 00       		.byte	0x0
 3254 0037 00       		.byte	0x0
 3255 0038 05       		.uleb128 0x5
 3256 0039 13       		.uleb128 0x13
 3257 003a 01       		.byte	0x1
 3258 003b 03       		.uleb128 0x3
 3259 003c 0E       		.uleb128 0xe
 3260 003d 0B       		.uleb128 0xb
 3261 003e 0B       		.uleb128 0xb
 3262 003f 3A       		.uleb128 0x3a
 3263 0040 0B       		.uleb128 0xb
 3264 0041 3B       		.uleb128 0x3b
 3265 0042 0B       		.uleb128 0xb
 3266 0043 01       		.uleb128 0x1
 3267 0044 13       		.uleb128 0x13
 3268 0045 00       		.byte	0x0
 3269 0046 00       		.byte	0x0
 3270 0047 06       		.uleb128 0x6
 3271 0048 0D       		.uleb128 0xd
 3272 0049 00       		.byte	0x0
 3273 004a 03       		.uleb128 0x3
 3274 004b 0E       		.uleb128 0xe
 3275 004c 3A       		.uleb128 0x3a
 3276 004d 0B       		.uleb128 0xb
 3277 004e 3B       		.uleb128 0x3b
 3278 004f 0B       		.uleb128 0xb
 3279 0050 49       		.uleb128 0x49
 3280 0051 13       		.uleb128 0x13
 3281 0052 38       		.uleb128 0x38
 3282 0053 0A       		.uleb128 0xa
 3283 0054 00       		.byte	0x0
ARM GAS  C:\Users\z80\AppData\Local\Temp\cc94IzVL.s 			page 59


 3284 0055 00       		.byte	0x0
 3285 0056 07       		.uleb128 0x7
 3286 0057 0D       		.uleb128 0xd
 3287 0058 00       		.byte	0x0
 3288 0059 03       		.uleb128 0x3
 3289 005a 08       		.uleb128 0x8
 3290 005b 3A       		.uleb128 0x3a
 3291 005c 0B       		.uleb128 0xb
 3292 005d 3B       		.uleb128 0x3b
 3293 005e 0B       		.uleb128 0xb
 3294 005f 49       		.uleb128 0x49
 3295 0060 13       		.uleb128 0x13
 3296 0061 38       		.uleb128 0x38
 3297 0062 0A       		.uleb128 0xa
 3298 0063 00       		.byte	0x0
 3299 0064 00       		.byte	0x0
 3300 0065 08       		.uleb128 0x8
 3301 0066 13       		.uleb128 0x13
 3302 0067 01       		.byte	0x1
 3303 0068 0B       		.uleb128 0xb
 3304 0069 0B       		.uleb128 0xb
 3305 006a 3A       		.uleb128 0x3a
 3306 006b 0B       		.uleb128 0xb
 3307 006c 3B       		.uleb128 0x3b
 3308 006d 0B       		.uleb128 0xb
 3309 006e 01       		.uleb128 0x1
 3310 006f 13       		.uleb128 0x13
 3311 0070 00       		.byte	0x0
 3312 0071 00       		.byte	0x0
 3313 0072 09       		.uleb128 0x9
 3314 0073 0F       		.uleb128 0xf
 3315 0074 00       		.byte	0x0
 3316 0075 0B       		.uleb128 0xb
 3317 0076 0B       		.uleb128 0xb
 3318 0077 49       		.uleb128 0x49
 3319 0078 13       		.uleb128 0x13
 3320 0079 00       		.byte	0x0
 3321 007a 00       		.byte	0x0
 3322 007b 0A       		.uleb128 0xa
 3323 007c 0F       		.uleb128 0xf
 3324 007d 00       		.byte	0x0
 3325 007e 0B       		.uleb128 0xb
 3326 007f 0B       		.uleb128 0xb
 3327 0080 00       		.byte	0x0
 3328 0081 00       		.byte	0x0
 3329 0082 0B       		.uleb128 0xb
 3330 0083 13       		.uleb128 0x13
 3331 0084 01       		.byte	0x1
 3332 0085 03       		.uleb128 0x3
 3333 0086 0E       		.uleb128 0xe
 3334 0087 0B       		.uleb128 0xb
 3335 0088 0B       		.uleb128 0xb
 3336 0089 3A       		.uleb128 0x3a
 3337 008a 0B       		.uleb128 0xb
 3338 008b 3B       		.uleb128 0x3b
 3339 008c 05       		.uleb128 0x5
 3340 008d 01       		.uleb128 0x1
ARM GAS  C:\Users\z80\AppData\Local\Temp\cc94IzVL.s 			page 60


 3341 008e 13       		.uleb128 0x13
 3342 008f 00       		.byte	0x0
 3343 0090 00       		.byte	0x0
 3344 0091 0C       		.uleb128 0xc
 3345 0092 0D       		.uleb128 0xd
 3346 0093 00       		.byte	0x0
 3347 0094 03       		.uleb128 0x3
 3348 0095 08       		.uleb128 0x8
 3349 0096 3A       		.uleb128 0x3a
 3350 0097 0B       		.uleb128 0xb
 3351 0098 3B       		.uleb128 0x3b
 3352 0099 05       		.uleb128 0x5
 3353 009a 49       		.uleb128 0x49
 3354 009b 13       		.uleb128 0x13
 3355 009c 38       		.uleb128 0x38
 3356 009d 0A       		.uleb128 0xa
 3357 009e 00       		.byte	0x0
 3358 009f 00       		.byte	0x0
 3359 00a0 0D       		.uleb128 0xd
 3360 00a1 24       		.uleb128 0x24
 3361 00a2 00       		.byte	0x0
 3362 00a3 0B       		.uleb128 0xb
 3363 00a4 0B       		.uleb128 0xb
 3364 00a5 3E       		.uleb128 0x3e
 3365 00a6 0B       		.uleb128 0xb
 3366 00a7 00       		.byte	0x0
 3367 00a8 00       		.byte	0x0
 3368 00a9 0E       		.uleb128 0xe
 3369 00aa 35       		.uleb128 0x35
 3370 00ab 00       		.byte	0x0
 3371 00ac 49       		.uleb128 0x49
 3372 00ad 13       		.uleb128 0x13
 3373 00ae 00       		.byte	0x0
 3374 00af 00       		.byte	0x0
 3375 00b0 0F       		.uleb128 0xf
 3376 00b1 15       		.uleb128 0x15
 3377 00b2 01       		.byte	0x1
 3378 00b3 27       		.uleb128 0x27
 3379 00b4 0C       		.uleb128 0xc
 3380 00b5 01       		.uleb128 0x1
 3381 00b6 13       		.uleb128 0x13
 3382 00b7 00       		.byte	0x0
 3383 00b8 00       		.byte	0x0
 3384 00b9 10       		.uleb128 0x10
 3385 00ba 05       		.uleb128 0x5
 3386 00bb 00       		.byte	0x0
 3387 00bc 49       		.uleb128 0x49
 3388 00bd 13       		.uleb128 0x13
 3389 00be 00       		.byte	0x0
 3390 00bf 00       		.byte	0x0
 3391 00c0 11       		.uleb128 0x11
 3392 00c1 17       		.uleb128 0x17
 3393 00c2 01       		.byte	0x1
 3394 00c3 0B       		.uleb128 0xb
 3395 00c4 0B       		.uleb128 0xb
 3396 00c5 3A       		.uleb128 0x3a
 3397 00c6 0B       		.uleb128 0xb
ARM GAS  C:\Users\z80\AppData\Local\Temp\cc94IzVL.s 			page 61


 3398 00c7 3B       		.uleb128 0x3b
 3399 00c8 0B       		.uleb128 0xb
 3400 00c9 01       		.uleb128 0x1
 3401 00ca 13       		.uleb128 0x13
 3402 00cb 00       		.byte	0x0
 3403 00cc 00       		.byte	0x0
 3404 00cd 12       		.uleb128 0x12
 3405 00ce 0D       		.uleb128 0xd
 3406 00cf 00       		.byte	0x0
 3407 00d0 03       		.uleb128 0x3
 3408 00d1 0E       		.uleb128 0xe
 3409 00d2 3A       		.uleb128 0x3a
 3410 00d3 0B       		.uleb128 0xb
 3411 00d4 3B       		.uleb128 0x3b
 3412 00d5 0B       		.uleb128 0xb
 3413 00d6 49       		.uleb128 0x49
 3414 00d7 13       		.uleb128 0x13
 3415 00d8 00       		.byte	0x0
 3416 00d9 00       		.byte	0x0
 3417 00da 13       		.uleb128 0x13
 3418 00db 26       		.uleb128 0x26
 3419 00dc 00       		.byte	0x0
 3420 00dd 49       		.uleb128 0x49
 3421 00de 13       		.uleb128 0x13
 3422 00df 00       		.byte	0x0
 3423 00e0 00       		.byte	0x0
 3424 00e1 14       		.uleb128 0x14
 3425 00e2 2E       		.uleb128 0x2e
 3426 00e3 01       		.byte	0x1
 3427 00e4 3F       		.uleb128 0x3f
 3428 00e5 0C       		.uleb128 0xc
 3429 00e6 03       		.uleb128 0x3
 3430 00e7 0E       		.uleb128 0xe
 3431 00e8 3A       		.uleb128 0x3a
 3432 00e9 0B       		.uleb128 0xb
 3433 00ea 3B       		.uleb128 0x3b
 3434 00eb 0B       		.uleb128 0xb
 3435 00ec 27       		.uleb128 0x27
 3436 00ed 0C       		.uleb128 0xc
 3437 00ee 11       		.uleb128 0x11
 3438 00ef 01       		.uleb128 0x1
 3439 00f0 12       		.uleb128 0x12
 3440 00f1 01       		.uleb128 0x1
 3441 00f2 40       		.uleb128 0x40
 3442 00f3 06       		.uleb128 0x6
 3443 00f4 01       		.uleb128 0x1
 3444 00f5 13       		.uleb128 0x13
 3445 00f6 00       		.byte	0x0
 3446 00f7 00       		.byte	0x0
 3447 00f8 15       		.uleb128 0x15
 3448 00f9 05       		.uleb128 0x5
 3449 00fa 00       		.byte	0x0
 3450 00fb 03       		.uleb128 0x3
 3451 00fc 08       		.uleb128 0x8
 3452 00fd 3A       		.uleb128 0x3a
 3453 00fe 0B       		.uleb128 0xb
 3454 00ff 3B       		.uleb128 0x3b
ARM GAS  C:\Users\z80\AppData\Local\Temp\cc94IzVL.s 			page 62


 3455 0100 0B       		.uleb128 0xb
 3456 0101 49       		.uleb128 0x49
 3457 0102 13       		.uleb128 0x13
 3458 0103 02       		.uleb128 0x2
 3459 0104 0A       		.uleb128 0xa
 3460 0105 00       		.byte	0x0
 3461 0106 00       		.byte	0x0
 3462 0107 16       		.uleb128 0x16
 3463 0108 05       		.uleb128 0x5
 3464 0109 00       		.byte	0x0
 3465 010a 03       		.uleb128 0x3
 3466 010b 0E       		.uleb128 0xe
 3467 010c 3A       		.uleb128 0x3a
 3468 010d 0B       		.uleb128 0xb
 3469 010e 3B       		.uleb128 0x3b
 3470 010f 0B       		.uleb128 0xb
 3471 0110 49       		.uleb128 0x49
 3472 0111 13       		.uleb128 0x13
 3473 0112 02       		.uleb128 0x2
 3474 0113 0A       		.uleb128 0xa
 3475 0114 00       		.byte	0x0
 3476 0115 00       		.byte	0x0
 3477 0116 17       		.uleb128 0x17
 3478 0117 0B       		.uleb128 0xb
 3479 0118 01       		.byte	0x1
 3480 0119 11       		.uleb128 0x11
 3481 011a 01       		.uleb128 0x1
 3482 011b 12       		.uleb128 0x12
 3483 011c 01       		.uleb128 0x1
 3484 011d 01       		.uleb128 0x1
 3485 011e 13       		.uleb128 0x13
 3486 011f 00       		.byte	0x0
 3487 0120 00       		.byte	0x0
 3488 0121 18       		.uleb128 0x18
 3489 0122 34       		.uleb128 0x34
 3490 0123 00       		.byte	0x0
 3491 0124 03       		.uleb128 0x3
 3492 0125 08       		.uleb128 0x8
 3493 0126 3A       		.uleb128 0x3a
 3494 0127 0B       		.uleb128 0xb
 3495 0128 3B       		.uleb128 0x3b
 3496 0129 0B       		.uleb128 0xb
 3497 012a 49       		.uleb128 0x49
 3498 012b 13       		.uleb128 0x13
 3499 012c 02       		.uleb128 0x2
 3500 012d 0A       		.uleb128 0xa
 3501 012e 00       		.byte	0x0
 3502 012f 00       		.byte	0x0
 3503 0130 19       		.uleb128 0x19
 3504 0131 0B       		.uleb128 0xb
 3505 0132 01       		.byte	0x1
 3506 0133 11       		.uleb128 0x11
 3507 0134 01       		.uleb128 0x1
 3508 0135 12       		.uleb128 0x12
 3509 0136 01       		.uleb128 0x1
 3510 0137 00       		.byte	0x0
 3511 0138 00       		.byte	0x0
ARM GAS  C:\Users\z80\AppData\Local\Temp\cc94IzVL.s 			page 63


 3512 0139 1A       		.uleb128 0x1a
 3513 013a 2E       		.uleb128 0x2e
 3514 013b 01       		.byte	0x1
 3515 013c 3F       		.uleb128 0x3f
 3516 013d 0C       		.uleb128 0xc
 3517 013e 03       		.uleb128 0x3
 3518 013f 0E       		.uleb128 0xe
 3519 0140 3A       		.uleb128 0x3a
 3520 0141 0B       		.uleb128 0xb
 3521 0142 3B       		.uleb128 0x3b
 3522 0143 0B       		.uleb128 0xb
 3523 0144 27       		.uleb128 0x27
 3524 0145 0C       		.uleb128 0xc
 3525 0146 49       		.uleb128 0x49
 3526 0147 13       		.uleb128 0x13
 3527 0148 11       		.uleb128 0x11
 3528 0149 01       		.uleb128 0x1
 3529 014a 12       		.uleb128 0x12
 3530 014b 01       		.uleb128 0x1
 3531 014c 40       		.uleb128 0x40
 3532 014d 06       		.uleb128 0x6
 3533 014e 01       		.uleb128 0x1
 3534 014f 13       		.uleb128 0x13
 3535 0150 00       		.byte	0x0
 3536 0151 00       		.byte	0x0
 3537 0152 1B       		.uleb128 0x1b
 3538 0153 34       		.uleb128 0x34
 3539 0154 00       		.byte	0x0
 3540 0155 03       		.uleb128 0x3
 3541 0156 0E       		.uleb128 0xe
 3542 0157 3A       		.uleb128 0x3a
 3543 0158 0B       		.uleb128 0xb
 3544 0159 3B       		.uleb128 0x3b
 3545 015a 0B       		.uleb128 0xb
 3546 015b 49       		.uleb128 0x49
 3547 015c 13       		.uleb128 0x13
 3548 015d 02       		.uleb128 0x2
 3549 015e 0A       		.uleb128 0xa
 3550 015f 00       		.byte	0x0
 3551 0160 00       		.byte	0x0
 3552 0161 1C       		.uleb128 0x1c
 3553 0162 2E       		.uleb128 0x2e
 3554 0163 01       		.byte	0x1
 3555 0164 3F       		.uleb128 0x3f
 3556 0165 0C       		.uleb128 0xc
 3557 0166 03       		.uleb128 0x3
 3558 0167 0E       		.uleb128 0xe
 3559 0168 3A       		.uleb128 0x3a
 3560 0169 0B       		.uleb128 0xb
 3561 016a 3B       		.uleb128 0x3b
 3562 016b 05       		.uleb128 0x5
 3563 016c 27       		.uleb128 0x27
 3564 016d 0C       		.uleb128 0xc
 3565 016e 11       		.uleb128 0x11
 3566 016f 01       		.uleb128 0x1
 3567 0170 12       		.uleb128 0x12
 3568 0171 01       		.uleb128 0x1
ARM GAS  C:\Users\z80\AppData\Local\Temp\cc94IzVL.s 			page 64


 3569 0172 40       		.uleb128 0x40
 3570 0173 06       		.uleb128 0x6
 3571 0174 01       		.uleb128 0x1
 3572 0175 13       		.uleb128 0x13
 3573 0176 00       		.byte	0x0
 3574 0177 00       		.byte	0x0
 3575 0178 1D       		.uleb128 0x1d
 3576 0179 05       		.uleb128 0x5
 3577 017a 00       		.byte	0x0
 3578 017b 03       		.uleb128 0x3
 3579 017c 08       		.uleb128 0x8
 3580 017d 3A       		.uleb128 0x3a
 3581 017e 0B       		.uleb128 0xb
 3582 017f 3B       		.uleb128 0x3b
 3583 0180 05       		.uleb128 0x5
 3584 0181 49       		.uleb128 0x49
 3585 0182 13       		.uleb128 0x13
 3586 0183 02       		.uleb128 0x2
 3587 0184 0A       		.uleb128 0xa
 3588 0185 00       		.byte	0x0
 3589 0186 00       		.byte	0x0
 3590 0187 1E       		.uleb128 0x1e
 3591 0188 05       		.uleb128 0x5
 3592 0189 00       		.byte	0x0
 3593 018a 03       		.uleb128 0x3
 3594 018b 0E       		.uleb128 0xe
 3595 018c 3A       		.uleb128 0x3a
 3596 018d 0B       		.uleb128 0xb
 3597 018e 3B       		.uleb128 0x3b
 3598 018f 05       		.uleb128 0x5
 3599 0190 49       		.uleb128 0x49
 3600 0191 13       		.uleb128 0x13
 3601 0192 02       		.uleb128 0x2
 3602 0193 0A       		.uleb128 0xa
 3603 0194 00       		.byte	0x0
 3604 0195 00       		.byte	0x0
 3605 0196 1F       		.uleb128 0x1f
 3606 0197 34       		.uleb128 0x34
 3607 0198 00       		.byte	0x0
 3608 0199 03       		.uleb128 0x3
 3609 019a 08       		.uleb128 0x8
 3610 019b 3A       		.uleb128 0x3a
 3611 019c 0B       		.uleb128 0xb
 3612 019d 3B       		.uleb128 0x3b
 3613 019e 05       		.uleb128 0x5
 3614 019f 49       		.uleb128 0x49
 3615 01a0 13       		.uleb128 0x13
 3616 01a1 02       		.uleb128 0x2
 3617 01a2 0A       		.uleb128 0xa
 3618 01a3 00       		.byte	0x0
 3619 01a4 00       		.byte	0x0
 3620 01a5 20       		.uleb128 0x20
 3621 01a6 2E       		.uleb128 0x2e
 3622 01a7 01       		.byte	0x1
 3623 01a8 3F       		.uleb128 0x3f
 3624 01a9 0C       		.uleb128 0xc
 3625 01aa 03       		.uleb128 0x3
ARM GAS  C:\Users\z80\AppData\Local\Temp\cc94IzVL.s 			page 65


 3626 01ab 0E       		.uleb128 0xe
 3627 01ac 3A       		.uleb128 0x3a
 3628 01ad 0B       		.uleb128 0xb
 3629 01ae 3B       		.uleb128 0x3b
 3630 01af 05       		.uleb128 0x5
 3631 01b0 27       		.uleb128 0x27
 3632 01b1 0C       		.uleb128 0xc
 3633 01b2 49       		.uleb128 0x49
 3634 01b3 13       		.uleb128 0x13
 3635 01b4 11       		.uleb128 0x11
 3636 01b5 01       		.uleb128 0x1
 3637 01b6 12       		.uleb128 0x12
 3638 01b7 01       		.uleb128 0x1
 3639 01b8 40       		.uleb128 0x40
 3640 01b9 06       		.uleb128 0x6
 3641 01ba 01       		.uleb128 0x1
 3642 01bb 13       		.uleb128 0x13
 3643 01bc 00       		.byte	0x0
 3644 01bd 00       		.byte	0x0
 3645 01be 21       		.uleb128 0x21
 3646 01bf 34       		.uleb128 0x34
 3647 01c0 00       		.byte	0x0
 3648 01c1 03       		.uleb128 0x3
 3649 01c2 0E       		.uleb128 0xe
 3650 01c3 3A       		.uleb128 0x3a
 3651 01c4 0B       		.uleb128 0xb
 3652 01c5 3B       		.uleb128 0x3b
 3653 01c6 05       		.uleb128 0x5
 3654 01c7 49       		.uleb128 0x49
 3655 01c8 13       		.uleb128 0x13
 3656 01c9 02       		.uleb128 0x2
 3657 01ca 0A       		.uleb128 0xa
 3658 01cb 00       		.byte	0x0
 3659 01cc 00       		.byte	0x0
 3660 01cd 22       		.uleb128 0x22
 3661 01ce 34       		.uleb128 0x34
 3662 01cf 00       		.byte	0x0
 3663 01d0 03       		.uleb128 0x3
 3664 01d1 0E       		.uleb128 0xe
 3665 01d2 3A       		.uleb128 0x3a
 3666 01d3 0B       		.uleb128 0xb
 3667 01d4 3B       		.uleb128 0x3b
 3668 01d5 0B       		.uleb128 0xb
 3669 01d6 49       		.uleb128 0x49
 3670 01d7 13       		.uleb128 0x13
 3671 01d8 3F       		.uleb128 0x3f
 3672 01d9 0C       		.uleb128 0xc
 3673 01da 3C       		.uleb128 0x3c
 3674 01db 0C       		.uleb128 0xc
 3675 01dc 00       		.byte	0x0
 3676 01dd 00       		.byte	0x0
 3677 01de 00       		.byte	0x0
 3678              		.section	.debug_pubnames,"",%progbits
 3679 0000 7A010000 		.4byte	0x17a
 3680 0004 0200     		.2byte	0x2
 3681 0006 00000000 		.4byte	.Ldebug_info0
 3682 000a B40C0000 		.4byte	0xcb4
ARM GAS  C:\Users\z80\AppData\Local\Temp\cc94IzVL.s 			page 66


 3683 000e E9040000 		.4byte	0x4e9
 3684 0012 63684576 		.ascii	"chEvtRegisterMask\000"
 3684      74526567 
 3684      69737465 
 3684      724D6173 
 3684      6B00
 3685 0024 65050000 		.4byte	0x565
 3686 0028 63684576 		.ascii	"chEvtUnregister\000"
 3686      74556E72 
 3686      65676973 
 3686      74657200 
 3687 0038 D9050000 		.4byte	0x5d9
 3688 003c 63684576 		.ascii	"chEvtGetAndClearEvents\000"
 3688      74476574 
 3688      416E6443 
 3688      6C656172 
 3688      4576656E 
 3689 0053 43060000 		.4byte	0x643
 3690 0057 63684576 		.ascii	"chEvtAddEvents\000"
 3690      74416464 
 3690      4576656E 
 3690      747300
 3691 0066 A1060000 		.4byte	0x6a1
 3692 006a 63684576 		.ascii	"chEvtBroadcastFlagsI\000"
 3692      7442726F 
 3692      61646361 
 3692      7374466C 
 3692      61677349 
 3693 007f E5060000 		.4byte	0x6e5
 3694 0083 63684576 		.ascii	"chEvtGetAndClearFlags\000"
 3694      74476574 
 3694      416E6443 
 3694      6C656172 
 3694      466C6167 
 3695 0099 51070000 		.4byte	0x751
 3696 009d 63684576 		.ascii	"chEvtSignal\000"
 3696      74536967 
 3696      6E616C00 
 3697 00a9 B8070000 		.4byte	0x7b8
 3698 00ad 63684576 		.ascii	"chEvtSignalI\000"
 3698      74536967 
 3698      6E616C49 
 3698      00
 3699 00ba ED070000 		.4byte	0x7ed
 3700 00be 63684576 		.ascii	"chEvtBroadcastFlags\000"
 3700      7442726F 
 3700      61646361 
 3700      7374466C 
 3700      61677300 
 3701 00d2 5A080000 		.4byte	0x85a
 3702 00d6 63684576 		.ascii	"chEvtGetAndClearFlagsI\000"
 3702      74476574 
 3702      416E6443 
 3702      6C656172 
 3702      466C6167 
 3703 00ed 97080000 		.4byte	0x897
 3704 00f1 63684576 		.ascii	"chEvtDispatch\000"
ARM GAS  C:\Users\z80\AppData\Local\Temp\cc94IzVL.s 			page 67


 3704      74446973 
 3704      70617463 
 3704      6800
 3705 00ff EA080000 		.4byte	0x8ea
 3706 0103 63684576 		.ascii	"chEvtWaitOne\000"
 3706      74576169 
 3706      744F6E65 
 3706      00
 3707 0110 68090000 		.4byte	0x968
 3708 0114 63684576 		.ascii	"chEvtWaitAny\000"
 3708      74576169 
 3708      74416E79 
 3708      00
 3709 0121 E6090000 		.4byte	0x9e6
 3710 0125 63684576 		.ascii	"chEvtWaitAll\000"
 3710      74576169 
 3710      74416C6C 
 3710      00
 3711 0132 570A0000 		.4byte	0xa57
 3712 0136 63684576 		.ascii	"chEvtWaitOneTimeout\000"
 3712      74576169 
 3712      744F6E65 
 3712      54696D65 
 3712      6F757400 
 3713 014a 1C0B0000 		.4byte	0xb1c
 3714 014e 63684576 		.ascii	"chEvtWaitAnyTimeout\000"
 3714      74576169 
 3714      74416E79 
 3714      54696D65 
 3714      6F757400 
 3715 0162 E10B0000 		.4byte	0xbe1
 3716 0166 63684576 		.ascii	"chEvtWaitAllTimeout\000"
 3716      74576169 
 3716      74416C6C 
 3716      54696D65 
 3716      6F757400 
 3717 017a 00000000 		.4byte	0x0
 3718              		.section	.debug_pubtypes,"",%progbits
 3719 0000 89010000 		.4byte	0x189
 3720 0004 0200     		.2byte	0x2
 3721 0006 00000000 		.4byte	.Ldebug_info0
 3722 000a B40C0000 		.4byte	0xcb4
 3723 000e 3E000000 		.4byte	0x3e
 3724 0012 75696E74 		.ascii	"uint8_t\000"
 3724      385F7400 
 3725 001a 5E000000 		.4byte	0x5e
 3726 001e 696E7433 		.ascii	"int32_t\000"
 3726      325F7400 
 3727 0026 70000000 		.4byte	0x70
 3728 002a 75696E74 		.ascii	"uint32_t\000"
 3728      33325F74 
 3728      00
 3729 0033 97000000 		.4byte	0x97
 3730 0037 746D6F64 		.ascii	"tmode_t\000"
 3730      655F7400 
 3731 003f A2000000 		.4byte	0xa2
 3732 0043 74737461 		.ascii	"tstate_t\000"
ARM GAS  C:\Users\z80\AppData\Local\Temp\cc94IzVL.s 			page 68


 3732      74655F74 
 3732      00
 3733 004c AD000000 		.4byte	0xad
 3734 0050 74726566 		.ascii	"trefs_t\000"
 3734      735F7400 
 3735 0058 B8000000 		.4byte	0xb8
 3736 005c 74736C69 		.ascii	"tslices_t\000"
 3736      6365735F 
 3736      7400
 3737 0066 C3000000 		.4byte	0xc3
 3738 006a 74707269 		.ascii	"tprio_t\000"
 3738      6F5F7400 
 3739 0072 CE000000 		.4byte	0xce
 3740 0076 6D73675F 		.ascii	"msg_t\000"
 3740      7400
 3741 007c D9000000 		.4byte	0xd9
 3742 0080 6576656E 		.ascii	"eventid_t\000"
 3742      7469645F 
 3742      7400
 3743 008a E4000000 		.4byte	0xe4
 3744 008e 6576656E 		.ascii	"eventmask_t\000"
 3744      746D6173 
 3744      6B5F7400 
 3745 009a EF000000 		.4byte	0xef
 3746 009e 666C6167 		.ascii	"flagsmask_t\000"
 3746      736D6173 
 3746      6B5F7400 
 3747 00aa FA000000 		.4byte	0xfa
 3748 00ae 73797374 		.ascii	"systime_t\000"
 3748      696D655F 
 3748      7400
 3749 00b8 05010000 		.4byte	0x105
 3750 00bc 54687265 		.ascii	"Thread\000"
 3750      616400
 3751 00c3 60020000 		.4byte	0x260
 3752 00c7 54687265 		.ascii	"ThreadsQueue\000"
 3752      61647351 
 3752      75657565 
 3752      00
 3753 00d4 82020000 		.4byte	0x282
 3754 00d8 54687265 		.ascii	"ThreadsList\000"
 3754      6164734C 
 3754      69737400 
 3755 00e4 8D020000 		.4byte	0x28d
 3756 00e8 72656761 		.ascii	"regarm_t\000"
 3756      726D5F74 
 3756      00
 3757 00f1 9A020000 		.4byte	0x29a
 3758 00f5 696E7463 		.ascii	"intctx\000"
 3758      747800
 3759 00fc 28030000 		.4byte	0x328
 3760 0100 636F6E74 		.ascii	"context\000"
 3760      65787400 
 3761 0108 B0030000 		.4byte	0x3b0
 3762 010c 52656164 		.ascii	"ReadyList\000"
 3762      794C6973 
 3762      7400
ARM GAS  C:\Users\z80\AppData\Local\Temp\cc94IzVL.s 			page 69


 3763 0116 BB030000 		.4byte	0x3bb
 3764 011a 4D757465 		.ascii	"Mutex\000"
 3764      7800
 3765 0120 F8030000 		.4byte	0x3f8
 3766 0124 4D757465 		.ascii	"Mutex\000"
 3766      7800
 3767 012a 03040000 		.4byte	0x403
 3768 012e 4576656E 		.ascii	"EventListener\000"
 3768      744C6973 
 3768      74656E65 
 3768      7200
 3769 013c 0E040000 		.4byte	0x40e
 3770 0140 4576656E 		.ascii	"EventListener\000"
 3770      744C6973 
 3770      74656E65 
 3770      7200
 3771 014e 59040000 		.4byte	0x459
 3772 0152 4576656E 		.ascii	"EventSource\000"
 3772      74536F75 
 3772      72636500 
 3773 015e 74040000 		.4byte	0x474
 3774 0162 4576656E 		.ascii	"EventSource\000"
 3774      74536F75 
 3774      72636500 
 3775 016e 7F040000 		.4byte	0x47f
 3776 0172 65766861 		.ascii	"evhandler_t\000"
 3776      6E646C65 
 3776      725F7400 
 3777 017e 10010000 		.4byte	0x110
 3778 0182 54687265 		.ascii	"Thread\000"
 3778      616400
 3779 0189 00000000 		.4byte	0x0
 3780              		.section	.debug_aranges,"",%progbits
 3781 0000 9C000000 		.4byte	0x9c
 3782 0004 0200     		.2byte	0x2
 3783 0006 00000000 		.4byte	.Ldebug_info0
 3784 000a 04       		.byte	0x4
 3785 000b 00       		.byte	0x0
 3786 000c 0000     		.2byte	0x0
 3787 000e 0000     		.2byte	0x0
 3788 0010 00000000 		.4byte	.LFB7
 3789 0014 50000000 		.4byte	.LFE7-.LFB7
 3790 0018 00000000 		.4byte	.LFB8
 3791 001c 4E000000 		.4byte	.LFE8-.LFB8
 3792 0020 00000000 		.4byte	.LFB9
 3793 0024 52000000 		.4byte	.LFE9-.LFB9
 3794 0028 00000000 		.4byte	.LFB10
 3795 002c 3E000000 		.4byte	.LFE10-.LFB10
 3796 0030 00000000 		.4byte	.LFB11
 3797 0034 44000000 		.4byte	.LFE11-.LFB11
 3798 0038 00000000 		.4byte	.LFB12
 3799 003c 2A000000 		.4byte	.LFE12-.LFB12
 3800 0040 00000000 		.4byte	.LFB13
 3801 0044 2C000000 		.4byte	.LFE13-.LFB13
 3802 0048 00000000 		.4byte	.LFB14
 3803 004c 60000000 		.4byte	.LFE14-.LFB14
 3804 0050 00000000 		.4byte	.LFB15
ARM GAS  C:\Users\z80\AppData\Local\Temp\cc94IzVL.s 			page 70


 3805 0054 28000000 		.4byte	.LFE15-.LFB15
 3806 0058 00000000 		.4byte	.LFB16
 3807 005c 1A000000 		.4byte	.LFE16-.LFB16
 3808 0060 00000000 		.4byte	.LFB17
 3809 0064 70000000 		.4byte	.LFE17-.LFB17
 3810 0068 00000000 		.4byte	.LFB18
 3811 006c 76000000 		.4byte	.LFE18-.LFB18
 3812 0070 00000000 		.4byte	.LFB19
 3813 0074 68000000 		.4byte	.LFE19-.LFB19
 3814 0078 00000000 		.4byte	.LFB20
 3815 007c 5A000000 		.4byte	.LFE20-.LFB20
 3816 0080 00000000 		.4byte	.LFB21
 3817 0084 A2000000 		.4byte	.LFE21-.LFB21
 3818 0088 00000000 		.4byte	.LFB22
 3819 008c 94000000 		.4byte	.LFE22-.LFB22
 3820 0090 00000000 		.4byte	.LFB23
 3821 0094 86000000 		.4byte	.LFE23-.LFB23
 3822 0098 00000000 		.4byte	0x0
 3823 009c 00000000 		.4byte	0x0
 3824              		.section	.debug_ranges,"",%progbits
 3825              	.Ldebug_ranges0:
 3826 0000 00000000 		.4byte	.LFB7
 3827 0004 50000000 		.4byte	.LFE7
 3828 0008 00000000 		.4byte	.LFB8
 3829 000c 4E000000 		.4byte	.LFE8
 3830 0010 00000000 		.4byte	.LFB9
 3831 0014 52000000 		.4byte	.LFE9
 3832 0018 00000000 		.4byte	.LFB10
 3833 001c 3E000000 		.4byte	.LFE10
 3834 0020 00000000 		.4byte	.LFB11
 3835 0024 44000000 		.4byte	.LFE11
 3836 0028 00000000 		.4byte	.LFB12
 3837 002c 2A000000 		.4byte	.LFE12
 3838 0030 00000000 		.4byte	.LFB13
 3839 0034 2C000000 		.4byte	.LFE13
 3840 0038 00000000 		.4byte	.LFB14
 3841 003c 60000000 		.4byte	.LFE14
 3842 0040 00000000 		.4byte	.LFB15
 3843 0044 28000000 		.4byte	.LFE15
 3844 0048 00000000 		.4byte	.LFB16
 3845 004c 1A000000 		.4byte	.LFE16
 3846 0050 00000000 		.4byte	.LFB17
 3847 0054 70000000 		.4byte	.LFE17
 3848 0058 00000000 		.4byte	.LFB18
 3849 005c 76000000 		.4byte	.LFE18
 3850 0060 00000000 		.4byte	.LFB19
 3851 0064 68000000 		.4byte	.LFE19
 3852 0068 00000000 		.4byte	.LFB20
 3853 006c 5A000000 		.4byte	.LFE20
 3854 0070 00000000 		.4byte	.LFB21
 3855 0074 A2000000 		.4byte	.LFE21
 3856 0078 00000000 		.4byte	.LFB22
 3857 007c 94000000 		.4byte	.LFE22
 3858 0080 00000000 		.4byte	.LFB23
 3859 0084 86000000 		.4byte	.LFE23
 3860 0088 00000000 		.4byte	0x0
 3861 008c 00000000 		.4byte	0x0
ARM GAS  C:\Users\z80\AppData\Local\Temp\cc94IzVL.s 			page 71


 3862              		.section	.debug_str,"MS",%progbits,1
 3863              	.LASF38:
 3864 0000 705F6D73 		.ascii	"p_msg\000"
 3864      6700
 3865              	.LASF67:
 3866 0006 7264796D 		.ascii	"rdymsg\000"
 3866      736700
 3867              	.LASF80:
 3868 000d 63684576 		.ascii	"chEvtSignal\000"
 3868      74536967 
 3868      6E616C00 
 3869              	.LASF11:
 3870 0019 6C6F6E67 		.ascii	"long long unsigned int\000"
 3870      206C6F6E 
 3870      6720756E 
 3870      7369676E 
 3870      65642069 
 3871              	.LASF76:
 3872 0030 63684576 		.ascii	"chEvtAddEvents\000"
 3872      74416464 
 3872      4576656E 
 3872      747300
 3873              	.LASF68:
 3874 003f 65786974 		.ascii	"exitcode\000"
 3874      636F6465 
 3874      00
 3875              	.LASF91:
 3876 0048 63684576 		.ascii	"chEvtWaitAnyTimeout\000"
 3876      74576169 
 3876      74416E79 
 3876      54696D65 
 3876      6F757400 
 3877              	.LASF26:
 3878 005c 705F7072 		.ascii	"p_prio\000"
 3878      696F00
 3879              	.LASF10:
 3880 0063 6C6F6E67 		.ascii	"long long int\000"
 3880      206C6F6E 
 3880      6720696E 
 3880      7400
 3881              	.LASF1:
 3882 0071 7369676E 		.ascii	"signed char\000"
 3882      65642063 
 3882      68617200 
 3883              	.LASF92:
 3884 007d 63684576 		.ascii	"chEvtWaitAllTimeout\000"
 3884      74576169 
 3884      74416C6C 
 3884      54696D65 
 3884      6F757400 
 3885              	.LASF42:
 3886 0091 705F6D70 		.ascii	"p_mpool\000"
 3886      6F6F6C00 
 3887              	.LASF56:
 3888 0099 6D5F7175 		.ascii	"m_queue\000"
 3888      65756500 
 3889              	.LASF16:
ARM GAS  C:\Users\z80\AppData\Local\Temp\cc94IzVL.s 			page 72


 3890 00a1 74736C69 		.ascii	"tslices_t\000"
 3890      6365735F 
 3890      7400
 3891              	.LASF7:
 3892 00ab 6C6F6E67 		.ascii	"long int\000"
 3892      20696E74 
 3892      00
 3893              	.LASF14:
 3894 00b4 74737461 		.ascii	"tstate_t\000"
 3894      74655F74 
 3894      00
 3895              	.LASF87:
 3896 00bd 63684576 		.ascii	"chEvtWaitAny\000"
 3896      74576169 
 3896      74416E79 
 3896      00
 3897              	.LASF77:
 3898 00ca 63684576 		.ascii	"chEvtBroadcastFlagsI\000"
 3898      7442726F 
 3898      61646361 
 3898      7374466C 
 3898      61677349 
 3899              	.LASF28:
 3900 00df 705F6E65 		.ascii	"p_newer\000"
 3900      77657200 
 3901              	.LASF51:
 3902 00e7 725F6E65 		.ascii	"r_newer\000"
 3902      77657200 
 3903              	.LASF72:
 3904 00ef 6D61736B 		.ascii	"mask\000"
 3904      00
 3905              	.LASF45:
 3906 00f4 72656761 		.ascii	"regarm_t\000"
 3906      726D5F74 
 3906      00
 3907              	.LASF82:
 3908 00fd 63684576 		.ascii	"chEvtBroadcastFlags\000"
 3908      7442726F 
 3908      61646361 
 3908      7374466C 
 3908      61677300 
 3909              	.LASF19:
 3910 0111 6576656E 		.ascii	"eventid_t\000"
 3910      7469645F 
 3910      7400
 3911              	.LASF64:
 3912 011b 4576656E 		.ascii	"EventSource\000"
 3912      74536F75 
 3912      72636500 
 3913              	.LASF66:
 3914 0127 65766861 		.ascii	"evhandler_t\000"
 3914      6E646C65 
 3914      725F7400 
 3915              	.LASF0:
 3916 0133 756E7369 		.ascii	"unsigned int\000"
 3916      676E6564 
 3916      20696E74 
ARM GAS  C:\Users\z80\AppData\Local\Temp\cc94IzVL.s 			page 73


 3916      00
 3917              	.LASF9:
 3918 0140 6C6F6E67 		.ascii	"long unsigned int\000"
 3918      20756E73 
 3918      69676E65 
 3918      6420696E 
 3918      7400
 3919              	.LASF75:
 3920 0152 63684576 		.ascii	"chEvtGetAndClearEvents\000"
 3920      74476574 
 3920      416E6443 
 3920      6C656172 
 3920      4576656E 
 3921              	.LASF55:
 3922 0169 4D757465 		.ascii	"Mutex\000"
 3922      7800
 3923              	.LASF47:
 3924 016f 636F6E74 		.ascii	"context\000"
 3924      65787400 
 3925              	.LASF4:
 3926 0177 73686F72 		.ascii	"short unsigned int\000"
 3926      7420756E 
 3926      7369676E 
 3926      65642069 
 3926      6E7400
 3927              	.LASF73:
 3928 018a 63684576 		.ascii	"chEvtRegisterMask\000"
 3928      74526567 
 3928      69737465 
 3928      724D6173 
 3928      6B00
 3929              	.LASF18:
 3930 019c 6D73675F 		.ascii	"msg_t\000"
 3930      7400
 3931              	.LASF60:
 3932 01a2 656C5F6E 		.ascii	"el_next\000"
 3932      65787400 
 3933              	.LASF74:
 3934 01aa 63684576 		.ascii	"chEvtUnregister\000"
 3934      74556E72 
 3934      65676973 
 3934      74657200 
 3935              	.LASF13:
 3936 01ba 746D6F64 		.ascii	"tmode_t\000"
 3936      655F7400 
 3937              	.LASF44:
 3938 01c2 54687265 		.ascii	"ThreadsList\000"
 3938      6164734C 
 3938      69737400 
 3939              	.LASF20:
 3940 01ce 6576656E 		.ascii	"eventmask_t\000"
 3940      746D6173 
 3940      6B5F7400 
 3941              	.LASF96:
 3942 01da 433A5C70 		.ascii	"C:\\projects\\clock.git\\firmware\\firmware\000"
 3942      726F6A65 
 3942      6374735C 
ARM GAS  C:\Users\z80\AppData\Local\Temp\cc94IzVL.s 			page 74


 3942      636C6F63 
 3942      6B2E6769 
 3943              	.LASF84:
 3944 0202 63684576 		.ascii	"chEvtDispatch\000"
 3944      74446973 
 3944      70617463 
 3944      6800
 3945              	.LASF29:
 3946 0210 705F6F6C 		.ascii	"p_older\000"
 3946      64657200 
 3947              	.LASF50:
 3948 0218 725F6374 		.ascii	"r_ctx\000"
 3948      7800
 3949              	.LASF43:
 3950 021e 54687265 		.ascii	"ThreadsQueue\000"
 3950      61647351 
 3950      75657565 
 3950      00
 3951              	.LASF90:
 3952 022b 74696D65 		.ascii	"time\000"
 3952      00
 3953              	.LASF88:
 3954 0230 63684576 		.ascii	"chEvtWaitAll\000"
 3954      74576169 
 3954      74416C6C 
 3954      00
 3955              	.LASF53:
 3956 023d 725F6375 		.ascii	"r_current\000"
 3956      7272656E 
 3956      7400
 3957              	.LASF52:
 3958 0247 725F6F6C 		.ascii	"r_older\000"
 3958      64657200 
 3959              	.LASF62:
 3960 024f 656C5F6D 		.ascii	"el_mask\000"
 3960      61736B00 
 3961              	.LASF85:
 3962 0257 68616E64 		.ascii	"handlers\000"
 3962      6C657273 
 3962      00
 3963              	.LASF15:
 3964 0260 74726566 		.ascii	"trefs_t\000"
 3964      735F7400 
 3965              	.LASF25:
 3966 0268 705F7072 		.ascii	"p_prev\000"
 3966      657600
 3967              	.LASF17:
 3968 026f 74707269 		.ascii	"tprio_t\000"
 3968      6F5F7400 
 3969              	.LASF12:
 3970 0277 5F426F6F 		.ascii	"_Bool\000"
 3970      6C00
 3971              	.LASF6:
 3972 027d 696E7433 		.ascii	"int32_t\000"
 3972      325F7400 
 3973              	.LASF2:
 3974 0285 756E7369 		.ascii	"unsigned char\000"
ARM GAS  C:\Users\z80\AppData\Local\Temp\cc94IzVL.s 			page 75


 3974      676E6564 
 3974      20636861 
 3974      7200
 3975              	.LASF86:
 3976 0293 63684576 		.ascii	"chEvtWaitOne\000"
 3976      74576169 
 3976      744F6E65 
 3976      00
 3977              	.LASF61:
 3978 02a0 656C5F6C 		.ascii	"el_listener\000"
 3978      69737465 
 3978      6E657200 
 3979              	.LASF63:
 3980 02ac 656C5F66 		.ascii	"el_flags\000"
 3980      6C616773 
 3980      00
 3981              	.LASF40:
 3982 02b5 705F6D74 		.ascii	"p_mtxlist\000"
 3982      786C6973 
 3982      7400
 3983              	.LASF3:
 3984 02bf 73686F72 		.ascii	"short int\000"
 3984      7420696E 
 3984      7400
 3985              	.LASF31:
 3986 02c9 705F7374 		.ascii	"p_state\000"
 3986      61746500 
 3987              	.LASF34:
 3988 02d1 705F7072 		.ascii	"p_preempt\000"
 3988      65656D70 
 3988      7400
 3989              	.LASF49:
 3990 02db 725F7072 		.ascii	"r_prio\000"
 3990      696F00
 3991              	.LASF83:
 3992 02e2 63684576 		.ascii	"chEvtGetAndClearFlagsI\000"
 3992      74476574 
 3992      416E6443 
 3992      6C656172 
 3992      466C6167 
 3993              	.LASF95:
 3994 02f9 2E2E2F63 		.ascii	"../chibios_2.6.3/os/kernel/src/chevents.c\000"
 3994      68696269 
 3994      6F735F32 
 3994      2E362E33 
 3994      2F6F732F 
 3995              	.LASF70:
 3996 0323 65776D61 		.ascii	"ewmask\000"
 3996      736B00
 3997              	.LASF24:
 3998 032a 705F6E65 		.ascii	"p_next\000"
 3998      787400
 3999              	.LASF32:
 4000 0331 705F666C 		.ascii	"p_flags\000"
 4000      61677300 
 4001              	.LASF23:
 4002 0339 54687265 		.ascii	"Thread\000"
ARM GAS  C:\Users\z80\AppData\Local\Temp\cc94IzVL.s 			page 76


 4002      616400
 4003              	.LASF39:
 4004 0340 705F6570 		.ascii	"p_epending\000"
 4004      656E6469 
 4004      6E6700
 4005              	.LASF8:
 4006 034b 75696E74 		.ascii	"uint32_t\000"
 4006      33325F74 
 4006      00
 4007              	.LASF48:
 4008 0354 725F7175 		.ascii	"r_queue\000"
 4008      65756500 
 4009              	.LASF71:
 4010 035c 63686172 		.ascii	"char\000"
 4010      00
 4011              	.LASF58:
 4012 0361 6D5F6E65 		.ascii	"m_next\000"
 4012      787400
 4013              	.LASF22:
 4014 0368 73797374 		.ascii	"systime_t\000"
 4014      696D655F 
 4014      7400
 4015              	.LASF41:
 4016 0372 705F7265 		.ascii	"p_realprio\000"
 4016      616C7072 
 4016      696F00
 4017              	.LASF35:
 4018 037d 705F7469 		.ascii	"p_time\000"
 4018      6D6500
 4019              	.LASF89:
 4020 0384 63684576 		.ascii	"chEvtWaitOneTimeout\000"
 4020      74576169 
 4020      744F6E65 
 4020      54696D65 
 4020      6F757400 
 4021              	.LASF46:
 4022 0398 696E7463 		.ascii	"intctx\000"
 4022      747800
 4023              	.LASF37:
 4024 039f 705F6D73 		.ascii	"p_msgqueue\000"
 4024      67717565 
 4024      756500
 4025              	.LASF21:
 4026 03aa 666C6167 		.ascii	"flagsmask_t\000"
 4026      736D6173 
 4026      6B5F7400 
 4027              	.LASF33:
 4028 03b6 705F7265 		.ascii	"p_refs\000"
 4028      667300
 4029              	.LASF54:
 4030 03bd 52656164 		.ascii	"ReadyList\000"
 4030      794C6973 
 4030      7400
 4031              	.LASF93:
 4032 03c7 726C6973 		.ascii	"rlist\000"
 4032      7400
 4033              	.LASF5:
ARM GAS  C:\Users\z80\AppData\Local\Temp\cc94IzVL.s 			page 77


 4034 03cd 75696E74 		.ascii	"uint8_t\000"
 4034      385F7400 
 4035              	.LASF78:
 4036 03d5 666C6167 		.ascii	"flags\000"
 4036      7300
 4037              	.LASF59:
 4038 03db 4576656E 		.ascii	"EventListener\000"
 4038      744C6973 
 4038      74656E65 
 4038      7200
 4039              	.LASF94:
 4040 03e9 474E5520 		.ascii	"GNU C 4.5.0\000"
 4040      4320342E 
 4040      352E3000 
 4041              	.LASF69:
 4042 03f5 77746F62 		.ascii	"wtobjp\000"
 4042      6A7000
 4043              	.LASF30:
 4044 03fc 705F6E61 		.ascii	"p_name\000"
 4044      6D6500
 4045              	.LASF65:
 4046 0403 65735F6E 		.ascii	"es_next\000"
 4046      65787400 
 4047              	.LASF79:
 4048 040b 63684576 		.ascii	"chEvtGetAndClearFlags\000"
 4048      74476574 
 4048      416E6443 
 4048      6C656172 
 4048      466C6167 
 4049              	.LASF57:
 4050 0421 6D5F6F77 		.ascii	"m_owner\000"
 4050      6E657200 
 4051              	.LASF27:
 4052 0429 705F6374 		.ascii	"p_ctx\000"
 4052      7800
 4053              	.LASF36:
 4054 042f 705F7761 		.ascii	"p_waiting\000"
 4054      6974696E 
 4054      6700
 4055              	.LASF81:
 4056 0439 63684576 		.ascii	"chEvtSignalI\000"
 4056      74536967 
 4056      6E616C49 
 4056      00
 4057              		.ident	"GCC: (GNU) 4.5.0"
ARM GAS  C:\Users\z80\AppData\Local\Temp\cc94IzVL.s 			page 78


DEFINED SYMBOLS
                            *ABS*:00000000 chevents.c
C:\Users\z80\AppData\Local\Temp\cc94IzVL.s:24     .text.chEvtRegisterMask:00000000 $t
C:\Users\z80\AppData\Local\Temp\cc94IzVL.s:30     .text.chEvtRegisterMask:00000000 chEvtRegisterMask
C:\Users\z80\AppData\Local\Temp\cc94IzVL.s:98     .text.chEvtUnregister:00000000 $t
C:\Users\z80\AppData\Local\Temp\cc94IzVL.s:104    .text.chEvtUnregister:00000000 chEvtUnregister
C:\Users\z80\AppData\Local\Temp\cc94IzVL.s:179    .text.chEvtGetAndClearEvents:00000000 $t
C:\Users\z80\AppData\Local\Temp\cc94IzVL.s:185    .text.chEvtGetAndClearEvents:00000000 chEvtGetAndClearEvents
C:\Users\z80\AppData\Local\Temp\cc94IzVL.s:242    .text.chEvtAddEvents:00000000 $t
C:\Users\z80\AppData\Local\Temp\cc94IzVL.s:248    .text.chEvtAddEvents:00000000 chEvtAddEvents
C:\Users\z80\AppData\Local\Temp\cc94IzVL.s:298    .text.chEvtBroadcastFlagsI:00000000 $t
C:\Users\z80\AppData\Local\Temp\cc94IzVL.s:304    .text.chEvtBroadcastFlagsI:00000000 chEvtBroadcastFlagsI
C:\Users\z80\AppData\Local\Temp\cc94IzVL.s:471    .text.chEvtSignalI:00000000 chEvtSignalI
C:\Users\z80\AppData\Local\Temp\cc94IzVL.s:361    .text.chEvtGetAndClearFlags:00000000 $t
C:\Users\z80\AppData\Local\Temp\cc94IzVL.s:367    .text.chEvtGetAndClearFlags:00000000 chEvtGetAndClearFlags
C:\Users\z80\AppData\Local\Temp\cc94IzVL.s:412    .text.chEvtSignal:00000000 $t
C:\Users\z80\AppData\Local\Temp\cc94IzVL.s:418    .text.chEvtSignal:00000000 chEvtSignal
C:\Users\z80\AppData\Local\Temp\cc94IzVL.s:465    .text.chEvtSignalI:00000000 $t
C:\Users\z80\AppData\Local\Temp\cc94IzVL.s:543    .text.chEvtBroadcastFlags:00000000 $t
C:\Users\z80\AppData\Local\Temp\cc94IzVL.s:549    .text.chEvtBroadcastFlags:00000000 chEvtBroadcastFlags
C:\Users\z80\AppData\Local\Temp\cc94IzVL.s:593    .text.chEvtGetAndClearFlagsI:00000000 $t
C:\Users\z80\AppData\Local\Temp\cc94IzVL.s:599    .text.chEvtGetAndClearFlagsI:00000000 chEvtGetAndClearFlagsI
C:\Users\z80\AppData\Local\Temp\cc94IzVL.s:628    .text.chEvtDispatch:00000000 $t
C:\Users\z80\AppData\Local\Temp\cc94IzVL.s:634    .text.chEvtDispatch:00000000 chEvtDispatch
C:\Users\z80\AppData\Local\Temp\cc94IzVL.s:707    .text.chEvtWaitOne:00000000 $t
C:\Users\z80\AppData\Local\Temp\cc94IzVL.s:713    .text.chEvtWaitOne:00000000 chEvtWaitOne
C:\Users\z80\AppData\Local\Temp\cc94IzVL.s:795    .text.chEvtWaitAny:00000000 $t
C:\Users\z80\AppData\Local\Temp\cc94IzVL.s:801    .text.chEvtWaitAny:00000000 chEvtWaitAny
C:\Users\z80\AppData\Local\Temp\cc94IzVL.s:877    .text.chEvtWaitAll:00000000 $t
C:\Users\z80\AppData\Local\Temp\cc94IzVL.s:883    .text.chEvtWaitAll:00000000 chEvtWaitAll
C:\Users\z80\AppData\Local\Temp\cc94IzVL.s:952    .text.chEvtWaitOneTimeout:00000000 $t
C:\Users\z80\AppData\Local\Temp\cc94IzVL.s:958    .text.chEvtWaitOneTimeout:00000000 chEvtWaitOneTimeout
C:\Users\z80\AppData\Local\Temp\cc94IzVL.s:1074   .text.chEvtWaitAnyTimeout:00000000 $t
C:\Users\z80\AppData\Local\Temp\cc94IzVL.s:1080   .text.chEvtWaitAnyTimeout:00000000 chEvtWaitAnyTimeout
C:\Users\z80\AppData\Local\Temp\cc94IzVL.s:1190   .text.chEvtWaitAllTimeout:00000000 $t
C:\Users\z80\AppData\Local\Temp\cc94IzVL.s:1196   .text.chEvtWaitAllTimeout:00000000 chEvtWaitAllTimeout
                     .debug_frame:00000010 $d

UNDEFINED SYMBOLS
rlist
chSchRescheduleS
chSchReadyI
chSchGoSleepS
chSchGoSleepTimeoutS
