ARM GAS  C:\Users\z80\AppData\Local\Temp\ccTwUgTb.s 			page 1


   1              		.syntax unified
   2              		.cpu cortex-m3
   3              		.fpu softvfp
   4              		.eabi_attribute 20, 1
   5              		.eabi_attribute 21, 1
   6              		.eabi_attribute 23, 3
   7              		.eabi_attribute 24, 1
   8              		.eabi_attribute 25, 1
   9              		.eabi_attribute 26, 1
  10              		.eabi_attribute 30, 6
  11              		.eabi_attribute 18, 4
  12              		.thumb
  13              		.file	"chheap.c"
  20 0000 52020000 		.text
  20      02007801 
  20      00000201 
  20      FB0E0D00 
  20      01010101 
  21              	.Ltext0:
  22              		.cfi_sections	.debug_frame
  23              		.section	.bss.default_heap,"aw",%nobits
  24              		.align	3
  25              		.type	default_heap, %object
  26              		.size	default_heap, 32
  27              	default_heap:
  28 0000 00000000 		.space	32
  28      00000000 
  28      00000000 
  28      00000000 
  28      00000000 
  29              		.section	.text._heap_init,"ax",%progbits
  30              		.align	2
  31              		.p2align 4,,15
  32              		.global	_heap_init
  33              		.thumb
  34              		.thumb_func
  35              		.type	_heap_init, %function
  36              	_heap_init:
  37              	.LFB7:
  38              		.file 1 "../chibios_2.6.3/os/kernel/src/chheap.c"
  39              		.loc 1 75 0
  40              		.cfi_startproc
  41              		@ args = 0, pretend = 0, frame = 0
  42              		@ frame_needed = 0, uses_anonymous_args = 0
  43 0000 08B5     		push	{r3, lr}
  44              	.LCFI0:
  45              		.cfi_def_cfa_offset 8
  46              		.loc 1 76 0
  47 0002 40F20003 		movw	r3, #:lower16:default_heap
  48              		.cfi_offset 14, -4
  49              		.cfi_offset 3, -8
ARM GAS  C:\Users\z80\AppData\Local\Temp\ccTwUgTb.s 			page 2


  50 0006 C0F20003 		movt	r3, #:upper16:default_heap
  51 000a 40F20002 		movw	r2, #:lower16:chCoreAlloc
  52 000e C0F20002 		movt	r2, #:upper16:chCoreAlloc
  53 0012 1A60     		str	r2, [r3, #0]
  54              		.loc 1 77 0
  55 0014 40F20003 		movw	r3, #:lower16:default_heap
  56 0018 C0F20003 		movt	r3, #:upper16:default_heap
  57 001c 4FF00002 		mov	r2, #0
  58 0020 9A60     		str	r2, [r3, #8]
  59              		.loc 1 78 0
  60 0022 40F20003 		movw	r3, #:lower16:default_heap
  61 0026 C0F20003 		movt	r3, #:upper16:default_heap
  62 002a 4FF00002 		mov	r2, #0
  63 002e DA60     		str	r2, [r3, #12]
  64              		.loc 1 80 0
  65 0030 0148     		ldr	r0, .L2
  66 0032 FFF7FEFF 		bl	chMtxInit
  67              		.loc 1 84 0
  68 0036 08BD     		pop	{r3, pc}
  69              	.L3:
  70              		.align	2
  71              	.L2:
  72 0038 10000000 		.word	default_heap+16
  73              		.cfi_endproc
  74              	.LFE7:
  75              		.size	_heap_init, .-_heap_init
  76 003c AFF30080 		.section	.text.chHeapInit,"ax",%progbits
  77              		.align	2
  78              		.p2align 4,,15
  79              		.global	chHeapInit
  80              		.thumb
  81              		.thumb_func
  82              		.type	chHeapInit, %function
  83              	chHeapInit:
  84              	.LFB8:
  85              		.loc 1 99 0
  86              		.cfi_startproc
  87              		@ args = 0, pretend = 0, frame = 24
  88              		@ frame_needed = 0, uses_anonymous_args = 0
  89 0000 00B5     		push	{lr}
  90              	.LCFI1:
  91              		.cfi_def_cfa_offset 4
  92 0002 87B0     		sub	sp, sp, #28
  93              	.LCFI2:
  94              		.cfi_def_cfa_offset 32
  95 0004 0390     		str	r0, [sp, #12]
  96 0006 0291     		str	r1, [sp, #8]
  97 0008 0192     		str	r2, [sp, #4]
  98              		.loc 1 102 0
  99 000a 029B     		ldr	r3, [sp, #8]
 100 000c 03F00703 		and	r3, r3, #7
 101 0010 002B     		cmp	r3, #0
 102 0012 03D1     		bne	.L6
 103              		.cfi_offset 14, -4
 104              		.loc 1 102 0 is_stmt 0 discriminator 1
 105 0014 019B     		ldr	r3, [sp, #4]
 106 0016 03F00703 		and	r3, r3, #7
ARM GAS  C:\Users\z80\AppData\Local\Temp\ccTwUgTb.s 			page 3


 107 001a 002B     		cmp	r3, #0
 108              	.L6:
 109              		.loc 1 104 0 is_stmt 1
 110 001c 039B     		ldr	r3, [sp, #12]
 111 001e 4FF00002 		mov	r2, #0
 112 0022 1A60     		str	r2, [r3, #0]
 113              		.loc 1 105 0
 114 0024 029B     		ldr	r3, [sp, #8]
 115 0026 0593     		str	r3, [sp, #20]
 116 0028 039B     		ldr	r3, [sp, #12]
 117 002a 059A     		ldr	r2, [sp, #20]
 118 002c 9A60     		str	r2, [r3, #8]
 119              		.loc 1 106 0
 120 002e 039B     		ldr	r3, [sp, #12]
 121 0030 4FF00002 		mov	r2, #0
 122 0034 DA60     		str	r2, [r3, #12]
 123              		.loc 1 107 0
 124 0036 059B     		ldr	r3, [sp, #20]
 125 0038 4FF00002 		mov	r2, #0
 126 003c 1A60     		str	r2, [r3, #0]
 127              		.loc 1 108 0
 128 003e 019B     		ldr	r3, [sp, #4]
 129 0040 A3F10802 		sub	r2, r3, #8
 130 0044 059B     		ldr	r3, [sp, #20]
 131 0046 5A60     		str	r2, [r3, #4]
 132              		.loc 1 110 0
 133 0048 039B     		ldr	r3, [sp, #12]
 134 004a 03F11003 		add	r3, r3, #16
 135 004e 1846     		mov	r0, r3
 136 0050 FFF7FEFF 		bl	chMtxInit
 137              		.loc 1 114 0
 138 0054 07B0     		add	sp, sp, #28
 139 0056 00BD     		pop	{pc}
 140              		.cfi_endproc
 141              	.LFE8:
 142              		.size	chHeapInit, .-chHeapInit
 143 0058 AFF30080 		.section	.text.chHeapAlloc,"ax",%progbits
 143      AFF30080 
 144              		.align	2
 145              		.p2align 4,,15
 146              		.global	chHeapAlloc
 147              		.thumb
 148              		.thumb_func
 149              		.type	chHeapAlloc, %function
 150              	chHeapAlloc:
 151              	.LFB9:
 152              		.loc 1 132 0
 153              		.cfi_startproc
 154              		@ args = 0, pretend = 0, frame = 24
 155              		@ frame_needed = 0, uses_anonymous_args = 0
 156 0000 00B5     		push	{lr}
 157              	.LCFI3:
 158              		.cfi_def_cfa_offset 4
 159 0002 87B0     		sub	sp, sp, #28
 160              	.LCFI4:
 161              		.cfi_def_cfa_offset 32
 162 0004 0190     		str	r0, [sp, #4]
ARM GAS  C:\Users\z80\AppData\Local\Temp\ccTwUgTb.s 			page 4


 163 0006 0091     		str	r1, [sp, #0]
 164              		.loc 1 135 0
 165 0008 019B     		ldr	r3, [sp, #4]
 166 000a 002B     		cmp	r3, #0
 167 000c 04D1     		bne	.L8
 168              		.cfi_offset 14, -4
 169              		.loc 1 136 0
 170 000e 40F20003 		movw	r3, #:lower16:default_heap
 171 0012 C0F20003 		movt	r3, #:upper16:default_heap
 172 0016 0193     		str	r3, [sp, #4]
 173              	.L8:
 174              		.loc 1 138 0
 175 0018 009B     		ldr	r3, [sp, #0]
 176 001a 03F10703 		add	r3, r3, #7
 177 001e 23F00703 		bic	r3, r3, #7
 178 0022 0093     		str	r3, [sp, #0]
 179              		.loc 1 139 0
 180 0024 019B     		ldr	r3, [sp, #4]
 181 0026 03F10803 		add	r3, r3, #8
 182 002a 0593     		str	r3, [sp, #20]
 183              		.loc 1 140 0
 184 002c 019B     		ldr	r3, [sp, #4]
 185 002e 03F11003 		add	r3, r3, #16
 186 0032 1846     		mov	r0, r3
 187 0034 FFF7FEFF 		bl	chMtxLock
 188              		.loc 1 142 0
 189 0038 37E0     		b	.L9
 190              	.L14:
 191              		.loc 1 143 0
 192 003a 059B     		ldr	r3, [sp, #20]
 193 003c 1B68     		ldr	r3, [r3, #0]
 194 003e 0493     		str	r3, [sp, #16]
 195              		.loc 1 144 0
 196 0040 049B     		ldr	r3, [sp, #16]
 197 0042 5A68     		ldr	r2, [r3, #4]
 198 0044 009B     		ldr	r3, [sp, #0]
 199 0046 9A42     		cmp	r2, r3
 200 0048 2DD3     		bcc	.L10
 201              		.loc 1 145 0
 202 004a 049B     		ldr	r3, [sp, #16]
 203 004c 5A68     		ldr	r2, [r3, #4]
 204 004e 009B     		ldr	r3, [sp, #0]
 205 0050 03F10803 		add	r3, r3, #8
 206 0054 9A42     		cmp	r2, r3
 207 0056 04D2     		bcs	.L11
 208              		.loc 1 149 0
 209 0058 049B     		ldr	r3, [sp, #16]
 210 005a 1A68     		ldr	r2, [r3, #0]
 211 005c 059B     		ldr	r3, [sp, #20]
 212 005e 1A60     		str	r2, [r3, #0]
 213 0060 18E0     		b	.L12
 214              	.L11:
 215              		.loc 1 153 0
 216 0062 009B     		ldr	r3, [sp, #0]
 217 0064 03F10803 		add	r3, r3, #8
 218 0068 049A     		ldr	r2, [sp, #16]
 219 006a 1344     		add	r3, r2, r3
ARM GAS  C:\Users\z80\AppData\Local\Temp\ccTwUgTb.s 			page 5


 220 006c 0393     		str	r3, [sp, #12]
 221              		.loc 1 154 0
 222 006e 049B     		ldr	r3, [sp, #16]
 223 0070 1A68     		ldr	r2, [r3, #0]
 224 0072 039B     		ldr	r3, [sp, #12]
 225 0074 1A60     		str	r2, [r3, #0]
 226              		.loc 1 155 0
 227 0076 049B     		ldr	r3, [sp, #16]
 228 0078 5A68     		ldr	r2, [r3, #4]
 229 007a 009B     		ldr	r3, [sp, #0]
 230 007c C3EB0203 		rsb	r3, r3, r2
 231 0080 A3F10802 		sub	r2, r3, #8
 232 0084 039B     		ldr	r3, [sp, #12]
 233 0086 5A60     		str	r2, [r3, #4]
 234              		.loc 1 156 0
 235 0088 059B     		ldr	r3, [sp, #20]
 236 008a 039A     		ldr	r2, [sp, #12]
 237 008c 1A60     		str	r2, [r3, #0]
 238              		.loc 1 157 0
 239 008e 049B     		ldr	r3, [sp, #16]
 240 0090 009A     		ldr	r2, [sp, #0]
 241 0092 5A60     		str	r2, [r3, #4]
 242              	.L12:
 243              		.loc 1 159 0
 244 0094 049B     		ldr	r3, [sp, #16]
 245 0096 019A     		ldr	r2, [sp, #4]
 246 0098 1A60     		str	r2, [r3, #0]
 247              		.loc 1 161 0
 248 009a FFF7FEFF 		bl	chMtxUnlock
 249              		.loc 1 162 0
 250 009e 049B     		ldr	r3, [sp, #16]
 251 00a0 03F10803 		add	r3, r3, #8
 252 00a4 25E0     		b	.L13
 253              	.L10:
 254              		.loc 1 164 0
 255 00a6 049B     		ldr	r3, [sp, #16]
 256 00a8 0593     		str	r3, [sp, #20]
 257              	.L9:
 258              		.loc 1 142 0 discriminator 1
 259 00aa 059B     		ldr	r3, [sp, #20]
 260 00ac 1B68     		ldr	r3, [r3, #0]
 261 00ae 002B     		cmp	r3, #0
 262 00b0 C3D1     		bne	.L14
 263              		.loc 1 167 0
 264 00b2 FFF7FEFF 		bl	chMtxUnlock
 265              		.loc 1 171 0
 266 00b6 019B     		ldr	r3, [sp, #4]
 267 00b8 1B68     		ldr	r3, [r3, #0]
 268 00ba 002B     		cmp	r3, #0
 269 00bc 17D0     		beq	.L15
 270              		.loc 1 172 0
 271 00be 019B     		ldr	r3, [sp, #4]
 272 00c0 1B68     		ldr	r3, [r3, #0]
 273 00c2 009A     		ldr	r2, [sp, #0]
 274 00c4 02F10802 		add	r2, r2, #8
 275 00c8 1046     		mov	r0, r2
 276 00ca 9847     		blx	r3
ARM GAS  C:\Users\z80\AppData\Local\Temp\ccTwUgTb.s 			page 6


 277 00cc 0346     		mov	r3, r0
 278 00ce 0493     		str	r3, [sp, #16]
 279              		.loc 1 173 0
 280 00d0 049B     		ldr	r3, [sp, #16]
 281 00d2 002B     		cmp	r3, #0
 282 00d4 0BD0     		beq	.L15
 283              		.loc 1 174 0
 284 00d6 049B     		ldr	r3, [sp, #16]
 285 00d8 019A     		ldr	r2, [sp, #4]
 286 00da 1A60     		str	r2, [r3, #0]
 287              		.loc 1 175 0
 288 00dc 049B     		ldr	r3, [sp, #16]
 289 00de 009A     		ldr	r2, [sp, #0]
 290 00e0 5A60     		str	r2, [r3, #4]
 291              		.loc 1 176 0
 292 00e2 049B     		ldr	r3, [sp, #16]
 293 00e4 03F10803 		add	r3, r3, #8
 294 00e8 0493     		str	r3, [sp, #16]
 295              		.loc 1 177 0
 296 00ea 049B     		ldr	r3, [sp, #16]
 297 00ec 01E0     		b	.L13
 298              	.L15:
 299              		.loc 1 180 0
 300 00ee 4FF00003 		mov	r3, #0
 301              	.L13:
 302              		.loc 1 181 0
 303 00f2 1846     		mov	r0, r3
 304 00f4 07B0     		add	sp, sp, #28
 305 00f6 00BD     		pop	{pc}
 306              		.cfi_endproc
 307              	.LFE9:
 308              		.size	chHeapAlloc, .-chHeapAlloc
 309 00f8 AFF30080 		.section	.text.chHeapFree,"ax",%progbits
 309      AFF30080 
 310              		.align	2
 311              		.p2align 4,,15
 312              		.global	chHeapFree
 313              		.thumb
 314              		.thumb_func
 315              		.type	chHeapFree, %function
 316              	chHeapFree:
 317              	.LFB10:
 318              		.loc 1 194 0
 319              		.cfi_startproc
 320              		@ args = 0, pretend = 0, frame = 24
 321              		@ frame_needed = 0, uses_anonymous_args = 0
 322 0000 00B5     		push	{lr}
 323              	.LCFI5:
 324              		.cfi_def_cfa_offset 4
 325 0002 87B0     		sub	sp, sp, #28
 326              	.LCFI6:
 327              		.cfi_def_cfa_offset 32
 328 0004 0190     		str	r0, [sp, #4]
 329              		.loc 1 198 0
 330 0006 019B     		ldr	r3, [sp, #4]
 331 0008 002B     		cmp	r3, #0
 332              		.loc 1 200 0
ARM GAS  C:\Users\z80\AppData\Local\Temp\ccTwUgTb.s 			page 7


 333 000a 019B     		ldr	r3, [sp, #4]
 334 000c A3F10803 		sub	r3, r3, #8
 335 0010 0493     		str	r3, [sp, #16]
 336              		.loc 1 201 0
 337 0012 049B     		ldr	r3, [sp, #16]
 338 0014 1B68     		ldr	r3, [r3, #0]
 339 0016 0393     		str	r3, [sp, #12]
 340              		.loc 1 202 0
 341 0018 039B     		ldr	r3, [sp, #12]
 342 001a 03F10803 		add	r3, r3, #8
 343 001e 0593     		str	r3, [sp, #20]
 344              		.loc 1 203 0
 345 0020 039B     		ldr	r3, [sp, #12]
 346 0022 03F11003 		add	r3, r3, #16
 347 0026 1846     		mov	r0, r3
 348              		.cfi_offset 14, -4
 349 0028 FFF7FEFF 		bl	chMtxLock
 350              	.L26:
 351              		.loc 1 194 0
 352 002c 049A     		ldr	r2, [sp, #16]
 353 002e 059B     		ldr	r3, [sp, #20]
 354 0030 9A42     		cmp	r2, r3
 355 0032 08D3     		bcc	.L20
 356              		.loc 1 206 0
 357 0034 059B     		ldr	r3, [sp, #20]
 358 0036 5B68     		ldr	r3, [r3, #4]
 359 0038 03F10803 		add	r3, r3, #8
 360 003c 059A     		ldr	r2, [sp, #20]
 361 003e 1A44     		add	r2, r2, r3
 362 0040 049B     		ldr	r3, [sp, #16]
 363 0042 9A42     		cmp	r2, r3
 364              		.loc 1 194 0
 365 0044 00BF     		nop
 366              	.L20:
 367              		.loc 1 210 0
 368 0046 039B     		ldr	r3, [sp, #12]
 369 0048 03F10802 		add	r2, r3, #8
 370 004c 059B     		ldr	r3, [sp, #20]
 371 004e 9A42     		cmp	r2, r3
 372 0050 03D0     		beq	.L21
 373              		.loc 1 210 0 is_stmt 0 discriminator 2
 374 0052 049A     		ldr	r2, [sp, #16]
 375 0054 059B     		ldr	r3, [sp, #20]
 376 0056 9A42     		cmp	r2, r3
 377 0058 42D9     		bls	.L22
 378              	.L21:
 379              		.loc 1 211 0 is_stmt 1 discriminator 1
 380 005a 059B     		ldr	r3, [sp, #20]
 381 005c 1B68     		ldr	r3, [r3, #0]
 382              		.loc 1 210 0 discriminator 1
 383 005e 002B     		cmp	r3, #0
 384 0060 04D0     		beq	.L23
 385              		.loc 1 211 0
 386 0062 059B     		ldr	r3, [sp, #20]
 387 0064 1A68     		ldr	r2, [r3, #0]
 388 0066 049B     		ldr	r3, [sp, #16]
 389 0068 9A42     		cmp	r2, r3
ARM GAS  C:\Users\z80\AppData\Local\Temp\ccTwUgTb.s 			page 8


 390 006a 39D9     		bls	.L22
 391              	.L23:
 392              		.loc 1 213 0
 393 006c 059B     		ldr	r3, [sp, #20]
 394 006e 1A68     		ldr	r2, [r3, #0]
 395 0070 049B     		ldr	r3, [sp, #16]
 396 0072 1A60     		str	r2, [r3, #0]
 397              		.loc 1 214 0
 398 0074 059B     		ldr	r3, [sp, #20]
 399 0076 049A     		ldr	r2, [sp, #16]
 400 0078 1A60     		str	r2, [r3, #0]
 401              		.loc 1 216 0
 402 007a 049B     		ldr	r3, [sp, #16]
 403 007c 5B68     		ldr	r3, [r3, #4]
 404 007e 03F10803 		add	r3, r3, #8
 405 0082 049A     		ldr	r2, [sp, #16]
 406 0084 1A44     		add	r2, r2, r3
 407 0086 049B     		ldr	r3, [sp, #16]
 408 0088 1B68     		ldr	r3, [r3, #0]
 409 008a 9A42     		cmp	r2, r3
 410 008c 0ED1     		bne	.L24
 411              		.loc 1 218 0
 412 008e 049B     		ldr	r3, [sp, #16]
 413 0090 5A68     		ldr	r2, [r3, #4]
 414 0092 049B     		ldr	r3, [sp, #16]
 415 0094 1B68     		ldr	r3, [r3, #0]
 416 0096 5B68     		ldr	r3, [r3, #4]
 417 0098 1344     		add	r3, r2, r3
 418 009a 03F10802 		add	r2, r3, #8
 419 009e 049B     		ldr	r3, [sp, #16]
 420 00a0 5A60     		str	r2, [r3, #4]
 421              		.loc 1 219 0
 422 00a2 049B     		ldr	r3, [sp, #16]
 423 00a4 1B68     		ldr	r3, [r3, #0]
 424 00a6 1A68     		ldr	r2, [r3, #0]
 425 00a8 049B     		ldr	r3, [sp, #16]
 426 00aa 1A60     		str	r2, [r3, #0]
 427              	.L24:
 428              		.loc 1 221 0
 429 00ac 059B     		ldr	r3, [sp, #20]
 430 00ae 5B68     		ldr	r3, [r3, #4]
 431 00b0 03F10803 		add	r3, r3, #8
 432 00b4 059A     		ldr	r2, [sp, #20]
 433 00b6 1A44     		add	r2, r2, r3
 434 00b8 049B     		ldr	r3, [sp, #16]
 435 00ba 9A42     		cmp	r2, r3
 436 00bc 0CD1     		bne	.L25
 437              		.loc 1 223 0
 438 00be 059B     		ldr	r3, [sp, #20]
 439 00c0 5A68     		ldr	r2, [r3, #4]
 440 00c2 049B     		ldr	r3, [sp, #16]
 441 00c4 5B68     		ldr	r3, [r3, #4]
 442 00c6 1344     		add	r3, r2, r3
 443 00c8 03F10802 		add	r2, r3, #8
 444 00cc 059B     		ldr	r3, [sp, #20]
 445 00ce 5A60     		str	r2, [r3, #4]
 446              		.loc 1 224 0
ARM GAS  C:\Users\z80\AppData\Local\Temp\ccTwUgTb.s 			page 9


 447 00d0 049B     		ldr	r3, [sp, #16]
 448 00d2 1A68     		ldr	r2, [r3, #0]
 449 00d4 059B     		ldr	r3, [sp, #20]
 450 00d6 1A60     		str	r2, [r3, #0]
 451              	.L25:
 452              		.loc 1 231 0
 453 00d8 FFF7FEFF 		bl	chMtxUnlock
 454              		.loc 1 233 0
 455 00dc 07B0     		add	sp, sp, #28
 456 00de 00BD     		pop	{pc}
 457              	.L22:
 458              		.loc 1 228 0
 459 00e0 059B     		ldr	r3, [sp, #20]
 460 00e2 1B68     		ldr	r3, [r3, #0]
 461 00e4 0593     		str	r3, [sp, #20]
 462              		.loc 1 229 0
 463 00e6 A1E7     		b	.L26
 464              		.cfi_endproc
 465              	.LFE10:
 466              		.size	chHeapFree, .-chHeapFree
 467 00e8 AFF30080 		.section	.text.chHeapStatus,"ax",%progbits
 467      AFF30080 
 468              		.align	2
 469              		.p2align 4,,15
 470              		.global	chHeapStatus
 471              		.thumb
 472              		.thumb_func
 473              		.type	chHeapStatus, %function
 474              	chHeapStatus:
 475              	.LFB11:
 476              		.loc 1 250 0
 477              		.cfi_startproc
 478              		@ args = 0, pretend = 0, frame = 24
 479              		@ frame_needed = 0, uses_anonymous_args = 0
 480 0000 00B5     		push	{lr}
 481              	.LCFI7:
 482              		.cfi_def_cfa_offset 4
 483 0002 87B0     		sub	sp, sp, #28
 484              	.LCFI8:
 485              		.cfi_def_cfa_offset 32
 486 0004 0190     		str	r0, [sp, #4]
 487 0006 0091     		str	r1, [sp, #0]
 488              		.loc 1 254 0
 489 0008 019B     		ldr	r3, [sp, #4]
 490 000a 002B     		cmp	r3, #0
 491 000c 04D1     		bne	.L28
 492              		.cfi_offset 14, -4
 493              		.loc 1 255 0
 494 000e 40F20003 		movw	r3, #:lower16:default_heap
 495 0012 C0F20003 		movt	r3, #:upper16:default_heap
 496 0016 0193     		str	r3, [sp, #4]
 497              	.L28:
 498              		.loc 1 257 0
 499 0018 019B     		ldr	r3, [sp, #4]
 500 001a 03F11003 		add	r3, r3, #16
 501 001e 1846     		mov	r0, r3
 502 0020 FFF7FEFF 		bl	chMtxLock
ARM GAS  C:\Users\z80\AppData\Local\Temp\ccTwUgTb.s 			page 10


 503              		.loc 1 259 0
 504 0024 4FF00003 		mov	r3, #0
 505 0028 0393     		str	r3, [sp, #12]
 506              		.loc 1 260 0
 507 002a 4FF00003 		mov	r3, #0
 508 002e 0493     		str	r3, [sp, #16]
 509 0030 019B     		ldr	r3, [sp, #4]
 510 0032 03F10803 		add	r3, r3, #8
 511 0036 0593     		str	r3, [sp, #20]
 512 0038 0CE0     		b	.L29
 513              	.L30:
 514              		.loc 1 261 0 discriminator 2
 515 003a 059B     		ldr	r3, [sp, #20]
 516 003c 1B68     		ldr	r3, [r3, #0]
 517 003e 5B68     		ldr	r3, [r3, #4]
 518 0040 039A     		ldr	r2, [sp, #12]
 519 0042 1344     		add	r3, r2, r3
 520 0044 0393     		str	r3, [sp, #12]
 521              		.loc 1 260 0 discriminator 2
 522 0046 049B     		ldr	r3, [sp, #16]
 523 0048 03F10103 		add	r3, r3, #1
 524 004c 0493     		str	r3, [sp, #16]
 525 004e 059B     		ldr	r3, [sp, #20]
 526 0050 1B68     		ldr	r3, [r3, #0]
 527 0052 0593     		str	r3, [sp, #20]
 528              	.L29:
 529              		.loc 1 260 0 is_stmt 0 discriminator 1
 530 0054 059B     		ldr	r3, [sp, #20]
 531 0056 1B68     		ldr	r3, [r3, #0]
 532 0058 002B     		cmp	r3, #0
 533 005a EED1     		bne	.L30
 534              		.loc 1 262 0 is_stmt 1
 535 005c 009B     		ldr	r3, [sp, #0]
 536 005e 002B     		cmp	r3, #0
 537 0060 02D0     		beq	.L31
 538              		.loc 1 263 0
 539 0062 009B     		ldr	r3, [sp, #0]
 540 0064 039A     		ldr	r2, [sp, #12]
 541 0066 1A60     		str	r2, [r3, #0]
 542              	.L31:
 543              		.loc 1 265 0
 544 0068 FFF7FEFF 		bl	chMtxUnlock
 545              		.loc 1 266 0
 546 006c 049B     		ldr	r3, [sp, #16]
 547              		.loc 1 267 0
 548 006e 1846     		mov	r0, r3
 549 0070 07B0     		add	sp, sp, #28
 550 0072 00BD     		pop	{pc}
 551              		.cfi_endproc
 552              	.LFE11:
 553              		.size	chHeapStatus, .-chHeapStatus
 554 0074 AFF30080 		.text
 554      AFF30080 
 554      AFF30080 
 555              	.Letext0: