ARM GAS  C:\Users\z80\AppData\Local\Temp\ccDqu57i.s 			page 1


   1              		.syntax unified
   2              		.cpu cortex-m3
   3              		.fpu softvfp
   4              		.eabi_attribute 20, 1
   5              		.eabi_attribute 21, 1
   6              		.eabi_attribute 23, 3
   7              		.eabi_attribute 24, 1
   8              		.eabi_attribute 25, 1
   9              		.eabi_attribute 26, 1
  10              		.eabi_attribute 30, 6
  11              		.eabi_attribute 18, 4
  12              		.thumb
  13              		.file	"chmemcore.c"
  20 0000 2C010000 		.text
  20      0200D400 
  20      00000201 
  20      FB0E0D00 
  20      01010101 
  21              	.Ltext0:
  22              		.cfi_sections	.debug_frame
  23              		.section	.bss.nextmem,"aw",%nobits
  24              		.align	2
  25              		.type	nextmem, %object
  26              		.size	nextmem, 4
  27              	nextmem:
  28 0000 00000000 		.space	4
  29              		.section	.bss.endmem,"aw",%nobits
  30              		.align	2
  31              		.type	endmem, %object
  32              		.size	endmem, 4
  33              	endmem:
  34 0000 00000000 		.space	4
  35              		.section	.text._core_init,"ax",%progbits
  36              		.align	2
  37              		.p2align 4,,15
  38              		.global	_core_init
  39              		.thumb
  40              		.thumb_func
  41              		.type	_core_init, %function
  42              	_core_init:
  43              	.LFB7:
  44              		.file 1 "../chibios_2.6.3/os/kernel/src/chmemcore.c"
  45              		.loc 1 66 0
  46              		.cfi_startproc
  47              		@ args = 0, pretend = 0, frame = 0
  48              		@ frame_needed = 0, uses_anonymous_args = 0
  49              		@ link register save eliminated.
  50              		.loc 1 70 0
  51 0000 40F20003 		movw	r3, #:lower16:__heap_base__
  52 0004 C0F20003 		movt	r3, #:upper16:__heap_base__
  53 0008 03F10703 		add	r3, r3, #7
ARM GAS  C:\Users\z80\AppData\Local\Temp\ccDqu57i.s 			page 2


  54 000c 23F00703 		bic	r3, r3, #7
  55 0010 1A46     		mov	r2, r3
  56 0012 40F20003 		movw	r3, #:lower16:nextmem
  57 0016 C0F20003 		movt	r3, #:upper16:nextmem
  58 001a 1A60     		str	r2, [r3, #0]
  59              		.loc 1 71 0
  60 001c 40F20003 		movw	r3, #:lower16:__heap_end__
  61 0020 C0F20003 		movt	r3, #:upper16:__heap_end__
  62 0024 23F00703 		bic	r3, r3, #7
  63 0028 1A46     		mov	r2, r3
  64 002a 40F20003 		movw	r3, #:lower16:endmem
  65 002e C0F20003 		movt	r3, #:upper16:endmem
  66 0032 1A60     		str	r2, [r3, #0]
  67              		.loc 1 77 0
  68 0034 7047     		bx	lr
  69              		.cfi_endproc
  70              	.LFE7:
  71              		.size	_core_init, .-_core_init
  72 0036 00BFAFF3 		.section	.text.chCoreAlloc,"ax",%progbits
  72      0080AFF3 
  72      0080
  73              		.align	2
  74              		.p2align 4,,15
  75              		.global	chCoreAlloc
  76              		.thumb
  77              		.thumb_func
  78              		.type	chCoreAlloc, %function
  79              	chCoreAlloc:
  80              	.LFB8:
  81              		.loc 1 91 0
  82              		.cfi_startproc
  83              		@ args = 0, pretend = 0, frame = 16
  84              		@ frame_needed = 0, uses_anonymous_args = 0
  85 0000 00B5     		push	{lr}
  86              	.LCFI0:
  87              		.cfi_def_cfa_offset 4
  88 0002 85B0     		sub	sp, sp, #20
  89              	.LCFI1:
  90              		.cfi_def_cfa_offset 24
  91 0004 0190     		str	r0, [sp, #4]
  92              	.LBB2:
  93              		.loc 1 94 0
  94 0006 4FF02003 		mov	r3, #32
  95              	@ 94 "../chibios_2.6.3/os/kernel/src/chmemcore.c" 1
  96 000a 83F31188 		msr     BASEPRI, r3
  97              	@ 0 "" 2
  98              		.thumb
  99              	.LBE2:
 100              		.loc 1 95 0
 101 000e 0198     		ldr	r0, [sp, #4]
 102              		.cfi_offset 14, -4
 103 0010 FFF7FEFF 		bl	chCoreAllocI
 104 0014 0346     		mov	r3, r0
 105 0016 0393     		str	r3, [sp, #12]
 106              	.LBB3:
 107              		.loc 1 96 0
 108 0018 4FF00003 		mov	r3, #0
ARM GAS  C:\Users\z80\AppData\Local\Temp\ccDqu57i.s 			page 3


 109              	@ 96 "../chibios_2.6.3/os/kernel/src/chmemcore.c" 1
 110 001c 83F31188 		msr     BASEPRI, r3
 111              	@ 0 "" 2
 112              		.thumb
 113              	.LBE3:
 114              		.loc 1 97 0
 115 0020 039B     		ldr	r3, [sp, #12]
 116              		.loc 1 98 0
 117 0022 1846     		mov	r0, r3
 118 0024 05B0     		add	sp, sp, #20
 119 0026 00BD     		pop	{pc}
 120              		.cfi_endproc
 121              	.LFE8:
 122              		.size	chCoreAlloc, .-chCoreAlloc
 123 0028 AFF30080 		.section	.text.chCoreAllocI,"ax",%progbits
 123      AFF30080 
 124              		.align	2
 125              		.p2align 4,,15
 126              		.global	chCoreAllocI
 127              		.thumb
 128              		.thumb_func
 129              		.type	chCoreAllocI, %function
 130              	chCoreAllocI:
 131              	.LFB9:
 132              		.loc 1 112 0
 133              		.cfi_startproc
 134              		@ args = 0, pretend = 0, frame = 16
 135              		@ frame_needed = 0, uses_anonymous_args = 0
 136              		@ link register save eliminated.
 137 0000 84B0     		sub	sp, sp, #16
 138              	.LCFI2:
 139              		.cfi_def_cfa_offset 16
 140 0002 0190     		str	r0, [sp, #4]
 141              		.loc 1 117 0
 142 0004 019B     		ldr	r3, [sp, #4]
 143 0006 03F10703 		add	r3, r3, #7
 144 000a 23F00703 		bic	r3, r3, #7
 145 000e 0193     		str	r3, [sp, #4]
 146              		.loc 1 118 0
 147 0010 40F20003 		movw	r3, #:lower16:endmem
 148 0014 C0F20003 		movt	r3, #:upper16:endmem
 149 0018 1B68     		ldr	r3, [r3, #0]
 150 001a 1A46     		mov	r2, r3
 151 001c 40F20003 		movw	r3, #:lower16:nextmem
 152 0020 C0F20003 		movt	r3, #:upper16:nextmem
 153 0024 1B68     		ldr	r3, [r3, #0]
 154 0026 C3EB0203 		rsb	r3, r3, r2
 155 002a 1A46     		mov	r2, r3
 156 002c 019B     		ldr	r3, [sp, #4]
 157 002e 9A42     		cmp	r2, r3
 158 0030 02D2     		bcs	.L4
 159              		.loc 1 119 0
 160 0032 4FF00003 		mov	r3, #0
 161 0036 12E0     		b	.L5
 162              	.L4:
 163              		.loc 1 120 0
 164 0038 40F20003 		movw	r3, #:lower16:nextmem
ARM GAS  C:\Users\z80\AppData\Local\Temp\ccDqu57i.s 			page 4


 165 003c C0F20003 		movt	r3, #:upper16:nextmem
 166 0040 1B68     		ldr	r3, [r3, #0]
 167 0042 0393     		str	r3, [sp, #12]
 168              		.loc 1 121 0
 169 0044 40F20003 		movw	r3, #:lower16:nextmem
 170 0048 C0F20003 		movt	r3, #:upper16:nextmem
 171 004c 1A68     		ldr	r2, [r3, #0]
 172 004e 019B     		ldr	r3, [sp, #4]
 173 0050 1A44     		add	r2, r2, r3
 174 0052 40F20003 		movw	r3, #:lower16:nextmem
 175 0056 C0F20003 		movt	r3, #:upper16:nextmem
 176 005a 1A60     		str	r2, [r3, #0]
 177              		.loc 1 122 0
 178 005c 039B     		ldr	r3, [sp, #12]
 179              	.L5:
 180              		.loc 1 123 0
 181 005e 1846     		mov	r0, r3
 182 0060 04B0     		add	sp, sp, #16
 183 0062 7047     		bx	lr
 184              		.cfi_endproc
 185              	.LFE9:
 186              		.size	chCoreAllocI, .-chCoreAllocI
 187 0064 AFF30080 		.section	.text.chCoreStatus,"ax",%progbits
 187      AFF30080 
 187      AFF30080 
 188              		.align	2
 189              		.p2align 4,,15
 190              		.global	chCoreStatus
 191              		.thumb
 192              		.thumb_func
 193              		.type	chCoreStatus, %function
 194              	chCoreStatus:
 195              	.LFB10:
 196              		.loc 1 132 0
 197              		.cfi_startproc
 198              		@ args = 0, pretend = 0, frame = 0
 199              		@ frame_needed = 0, uses_anonymous_args = 0
 200              		@ link register save eliminated.
 201              		.loc 1 134 0
 202 0000 40F20003 		movw	r3, #:lower16:endmem
 203 0004 C0F20003 		movt	r3, #:upper16:endmem
 204 0008 1B68     		ldr	r3, [r3, #0]
 205 000a 1A46     		mov	r2, r3
 206 000c 40F20003 		movw	r3, #:lower16:nextmem
 207 0010 C0F20003 		movt	r3, #:upper16:nextmem
 208 0014 1B68     		ldr	r3, [r3, #0]
 209 0016 C3EB0203 		rsb	r3, r3, r2
 210              		.loc 1 135 0
 211 001a 1846     		mov	r0, r3
 212 001c 7047     		bx	lr
 213              		.cfi_endproc
 214              	.LFE10:
 215              		.size	chCoreStatus, .-chCoreStatus
 216 001e 00BF     		.text
 217              	.Letext0: