ARM GAS  C:\Users\z80\AppData\Local\Temp\cc4nqUOK.s 			page 1


   1              		.syntax unified
   2              		.cpu cortex-m3
   3              		.fpu softvfp
   4              		.eabi_attribute 20, 1
   5              		.eabi_attribute 21, 1
   6              		.eabi_attribute 23, 3
   7              		.eabi_attribute 24, 1
   8              		.eabi_attribute 25, 1
   9              		.eabi_attribute 26, 1
  10              		.eabi_attribute 30, 6
  11              		.eabi_attribute 18, 4
  12              		.thumb
  13              		.file	"chmsg.c"
  20 0000 A7010000 		.text
  20      02002B01 
  20      00000201 
  20      FB0E0D00 
  20      01010101 
  21              	.Ltext0:
  22              		.cfi_sections	.debug_frame
  23              		.section	.text.queue_insert,"ax",%progbits
  24              		.align	2
  25              		.p2align 4,,15
  26              		.thumb
  27              		.thumb_func
  28              		.type	queue_insert, %function
  29              	queue_insert:
  30              	.LFB1:
  31              		.file 1 "../chibios_2.6.3/os/kernel/include/chinline.h"
  32              		.loc 1 52 0
  33              		.cfi_startproc
  34              		@ args = 0, pretend = 0, frame = 8
  35              		@ frame_needed = 0, uses_anonymous_args = 0
  36              		@ link register save eliminated.
  37 0000 82B0     		sub	sp, sp, #8
  38              	.LCFI0:
  39              		.cfi_def_cfa_offset 8
  40 0002 0190     		str	r0, [sp, #4]
  41 0004 0091     		str	r1, [sp, #0]
  42              		.loc 1 54 0
  43 0006 009A     		ldr	r2, [sp, #0]
  44 0008 019B     		ldr	r3, [sp, #4]
  45 000a 1A60     		str	r2, [r3, #0]
  46              		.loc 1 55 0
  47 000c 009B     		ldr	r3, [sp, #0]
  48 000e 5A68     		ldr	r2, [r3, #4]
  49 0010 019B     		ldr	r3, [sp, #4]
  50 0012 5A60     		str	r2, [r3, #4]
  51              		.loc 1 56 0
  52 0014 019B     		ldr	r3, [sp, #4]
  53 0016 5B68     		ldr	r3, [r3, #4]
ARM GAS  C:\Users\z80\AppData\Local\Temp\cc4nqUOK.s 			page 2


  54 0018 009A     		ldr	r2, [sp, #0]
  55 001a 0199     		ldr	r1, [sp, #4]
  56 001c 5160     		str	r1, [r2, #4]
  57 001e 009A     		ldr	r2, [sp, #0]
  58 0020 5268     		ldr	r2, [r2, #4]
  59 0022 1A60     		str	r2, [r3, #0]
  60              		.loc 1 57 0
  61 0024 02B0     		add	sp, sp, #8
  62 0026 7047     		bx	lr
  63              		.cfi_endproc
  64              	.LFE1:
  65              		.size	queue_insert, .-queue_insert
  66 0028 AFF30080 		.section	.text.fifo_remove,"ax",%progbits
  66      AFF30080 
  67              		.align	2
  68              		.p2align 4,,15
  69              		.thumb
  70              		.thumb_func
  71              		.type	fifo_remove, %function
  72              	fifo_remove:
  73              	.LFB2:
  74              		.loc 1 59 0
  75              		.cfi_startproc
  76              		@ args = 0, pretend = 0, frame = 16
  77              		@ frame_needed = 0, uses_anonymous_args = 0
  78              		@ link register save eliminated.
  79 0000 84B0     		sub	sp, sp, #16
  80              	.LCFI1:
  81              		.cfi_def_cfa_offset 16
  82 0002 0190     		str	r0, [sp, #4]
  83              		.loc 1 60 0
  84 0004 019B     		ldr	r3, [sp, #4]
  85 0006 1B68     		ldr	r3, [r3, #0]
  86 0008 0393     		str	r3, [sp, #12]
  87              		.loc 1 62 0
  88 000a 039B     		ldr	r3, [sp, #12]
  89 000c 1A68     		ldr	r2, [r3, #0]
  90 000e 019B     		ldr	r3, [sp, #4]
  91 0010 1A60     		str	r2, [r3, #0]
  92 0012 019B     		ldr	r3, [sp, #4]
  93 0014 1B68     		ldr	r3, [r3, #0]
  94 0016 019A     		ldr	r2, [sp, #4]
  95 0018 5A60     		str	r2, [r3, #4]
  96              		.loc 1 63 0
  97 001a 039B     		ldr	r3, [sp, #12]
  98              		.loc 1 64 0
  99 001c 1846     		mov	r0, r3
 100 001e 04B0     		add	sp, sp, #16
 101 0020 7047     		bx	lr
 102              		.cfi_endproc
 103              	.LFE2:
 104              		.size	fifo_remove, .-fifo_remove
 105 0022 00BFAFF3 		.section	.text.chMsgSend,"ax",%progbits
 105      0080AFF3 
 105      0080AFF3 
 105      0080
 106              		.align	2
ARM GAS  C:\Users\z80\AppData\Local\Temp\cc4nqUOK.s 			page 3


 107              		.p2align 4,,15
 108              		.global	chMsgSend
 109              		.thumb
 110              		.thumb_func
 111              		.type	chMsgSend, %function
 112              	chMsgSend:
 113              	.LFB7:
 114              		.file 2 "../chibios_2.6.3/os/kernel/src/chmsg.c"
 115              		.loc 2 75 0
 116              		.cfi_startproc
 117              		@ args = 0, pretend = 0, frame = 16
 118              		@ frame_needed = 0, uses_anonymous_args = 0
 119 0000 00B5     		push	{lr}
 120              	.LCFI2:
 121              		.cfi_def_cfa_offset 4
 122 0002 85B0     		sub	sp, sp, #20
 123              	.LCFI3:
 124              		.cfi_def_cfa_offset 24
 125 0004 0190     		str	r0, [sp, #4]
 126 0006 0091     		str	r1, [sp, #0]
 127              		.loc 2 76 0
 128 0008 40F20003 		movw	r3, #:lower16:rlist
 129 000c C0F20003 		movt	r3, #:upper16:rlist
 130 0010 9B69     		ldr	r3, [r3, #24]
 131 0012 0393     		str	r3, [sp, #12]
 132              		.loc 2 78 0
 133 0014 019B     		ldr	r3, [sp, #4]
 134 0016 002B     		cmp	r3, #0
 135              	.LBB2:
 136              		.loc 2 80 0
 137 0018 4FF02003 		mov	r3, #32
 138              	@ 80 "../chibios_2.6.3/os/kernel/src/chmsg.c" 1
 139 001c 83F31188 		msr     BASEPRI, r3
 140              	@ 0 "" 2
 141              		.thumb
 142              	.LBE2:
 143              		.loc 2 81 0
 144 0020 039B     		ldr	r3, [sp, #12]
 145 0022 009A     		ldr	r2, [sp, #0]
 146 0024 5A63     		str	r2, [r3, #52]
 147              		.loc 2 82 0
 148 0026 019B     		ldr	r3, [sp, #4]
 149 0028 03F12C02 		add	r2, r3, #44
 150 002c 039B     		ldr	r3, [sp, #12]
 151 002e 5A62     		str	r2, [r3, #36]
 152              		.loc 2 83 0
 153 0030 019B     		ldr	r3, [sp, #4]
 154 0032 03F12C03 		add	r3, r3, #44
 155 0036 0398     		ldr	r0, [sp, #12]
 156 0038 1946     		mov	r1, r3
 157              		.cfi_offset 14, -4
 158 003a FFF7FEFF 		bl	queue_insert
 159              		.loc 2 84 0
 160 003e 019B     		ldr	r3, [sp, #4]
 161 0040 1B7F     		ldrb	r3, [r3, #28]	@ zero_extendqisi2
 162 0042 0C2B     		cmp	r3, #12
 163 0044 02D1     		bne	.L5
ARM GAS  C:\Users\z80\AppData\Local\Temp\cc4nqUOK.s 			page 4


 164              		.loc 2 85 0
 165 0046 0198     		ldr	r0, [sp, #4]
 166 0048 FFF7FEFF 		bl	chSchReadyI
 167              	.L5:
 168              		.loc 2 86 0
 169 004c 4FF00A00 		mov	r0, #10
 170 0050 FFF7FEFF 		bl	chSchGoSleepS
 171              		.loc 2 87 0
 172 0054 039B     		ldr	r3, [sp, #12]
 173 0056 5B6A     		ldr	r3, [r3, #36]
 174 0058 0093     		str	r3, [sp, #0]
 175              	.LBB3:
 176              		.loc 2 88 0
 177 005a 4FF00003 		mov	r3, #0
 178              	@ 88 "../chibios_2.6.3/os/kernel/src/chmsg.c" 1
 179 005e 83F31188 		msr     BASEPRI, r3
 180              	@ 0 "" 2
 181              		.thumb
 182              	.LBE3:
 183              		.loc 2 89 0
 184 0062 009B     		ldr	r3, [sp, #0]
 185              		.loc 2 90 0
 186 0064 1846     		mov	r0, r3
 187 0066 05B0     		add	sp, sp, #20
 188 0068 00BD     		pop	{pc}
 189              		.cfi_endproc
 190              	.LFE7:
 191              		.size	chMsgSend, .-chMsgSend
 192 006a 00BFAFF3 		.section	.text.chMsgWait,"ax",%progbits
 192      0080
 193              		.align	2
 194              		.p2align 4,,15
 195              		.global	chMsgWait
 196              		.thumb
 197              		.thumb_func
 198              		.type	chMsgWait, %function
 199              	chMsgWait:
 200              	.LFB8:
 201              		.loc 2 106 0
 202              		.cfi_startproc
 203              		@ args = 0, pretend = 0, frame = 8
 204              		@ frame_needed = 0, uses_anonymous_args = 0
 205 0000 00B5     		push	{lr}
 206              	.LCFI4:
 207              		.cfi_def_cfa_offset 4
 208 0002 83B0     		sub	sp, sp, #12
 209              	.LCFI5:
 210              		.cfi_def_cfa_offset 16
 211              	.LBB4:
 212              		.loc 2 109 0
 213 0004 4FF02003 		mov	r3, #32
 214              	@ 109 "../chibios_2.6.3/os/kernel/src/chmsg.c" 1
 215 0008 83F31188 		msr     BASEPRI, r3
 216              	@ 0 "" 2
 217              		.thumb
 218              	.LBE4:
 219              		.loc 2 110 0
ARM GAS  C:\Users\z80\AppData\Local\Temp\cc4nqUOK.s 			page 5


 220 000c 40F20003 		movw	r3, #:lower16:rlist
 221 0010 C0F20003 		movt	r3, #:upper16:rlist
 222 0014 9B69     		ldr	r3, [r3, #24]
 223 0016 DA6A     		ldr	r2, [r3, #44]
 224 0018 40F20003 		movw	r3, #:lower16:rlist
 225 001c C0F20003 		movt	r3, #:upper16:rlist
 226 0020 9B69     		ldr	r3, [r3, #24]
 227 0022 03F12C03 		add	r3, r3, #44
 228 0026 9A42     		cmp	r2, r3
 229 0028 03D1     		bne	.L7
 230              		.cfi_offset 14, -4
 231              		.loc 2 111 0
 232 002a 4FF00C00 		mov	r0, #12
 233 002e FFF7FEFF 		bl	chSchGoSleepS
 234              	.L7:
 235              		.loc 2 112 0
 236 0032 40F20003 		movw	r3, #:lower16:rlist
 237 0036 C0F20003 		movt	r3, #:upper16:rlist
 238 003a 9B69     		ldr	r3, [r3, #24]
 239 003c 03F12C03 		add	r3, r3, #44
 240 0040 1846     		mov	r0, r3
 241 0042 FFF7FEFF 		bl	fifo_remove
 242 0046 0346     		mov	r3, r0
 243 0048 0193     		str	r3, [sp, #4]
 244              		.loc 2 113 0
 245 004a 019B     		ldr	r3, [sp, #4]
 246 004c 4FF00B02 		mov	r2, #11
 247 0050 1A77     		strb	r2, [r3, #28]
 248              	.LBB5:
 249              		.loc 2 114 0
 250 0052 4FF00003 		mov	r3, #0
 251              	@ 114 "../chibios_2.6.3/os/kernel/src/chmsg.c" 1
 252 0056 83F31188 		msr     BASEPRI, r3
 253              	@ 0 "" 2
 254              		.thumb
 255              	.LBE5:
 256              		.loc 2 115 0
 257 005a 019B     		ldr	r3, [sp, #4]
 258              		.loc 2 116 0
 259 005c 1846     		mov	r0, r3
 260 005e 03B0     		add	sp, sp, #12
 261 0060 00BD     		pop	{pc}
 262              		.cfi_endproc
 263              	.LFE8:
 264              		.size	chMsgWait, .-chMsgWait
 265 0062 00BFAFF3 		.section	.text.chMsgRelease,"ax",%progbits
 265      0080AFF3 
 265      0080AFF3 
 265      0080
 266              		.align	2
 267              		.p2align 4,,15
 268              		.global	chMsgRelease
 269              		.thumb
 270              		.thumb_func
 271              		.type	chMsgRelease, %function
 272              	chMsgRelease:
 273              	.LFB9:
ARM GAS  C:\Users\z80\AppData\Local\Temp\cc4nqUOK.s 			page 6


 274              		.loc 2 128 0
 275              		.cfi_startproc
 276              		@ args = 0, pretend = 0, frame = 8
 277              		@ frame_needed = 0, uses_anonymous_args = 0
 278 0000 00B5     		push	{lr}
 279              	.LCFI6:
 280              		.cfi_def_cfa_offset 4
 281 0002 83B0     		sub	sp, sp, #12
 282              	.LCFI7:
 283              		.cfi_def_cfa_offset 16
 284 0004 0190     		str	r0, [sp, #4]
 285 0006 0091     		str	r1, [sp, #0]
 286              	.LBB6:
 287              		.loc 2 130 0
 288 0008 4FF02003 		mov	r3, #32
 289              	@ 130 "../chibios_2.6.3/os/kernel/src/chmsg.c" 1
 290 000c 83F31188 		msr     BASEPRI, r3
 291              	@ 0 "" 2
 292              		.thumb
 293              	.LBE6:
 294              		.loc 2 131 0
 295 0010 019B     		ldr	r3, [sp, #4]
 296 0012 1B7F     		ldrb	r3, [r3, #28]	@ zero_extendqisi2
 297 0014 0B2B     		cmp	r3, #11
 298              		.loc 2 133 0
 299 0016 0198     		ldr	r0, [sp, #4]
 300 0018 0099     		ldr	r1, [sp, #0]
 301              		.cfi_offset 14, -4
 302 001a FFF7FEFF 		bl	chSchWakeupS
 303              	.LBB7:
 304              		.loc 2 134 0
 305 001e 4FF00003 		mov	r3, #0
 306              	@ 134 "../chibios_2.6.3/os/kernel/src/chmsg.c" 1
 307 0022 83F31188 		msr     BASEPRI, r3
 308              	@ 0 "" 2
 309              		.thumb
 310              	.LBE7:
 311              		.loc 2 135 0
 312 0026 03B0     		add	sp, sp, #12
 313 0028 00BD     		pop	{pc}
 314              		.cfi_endproc
 315              	.LFE9:
 316              		.size	chMsgRelease, .-chMsgRelease
 317 002a 00BFAFF3 		.text
 317      0080
 318              	.Letext0: