ARM GAS  C:\Users\z80\AppData\Local\Temp\ccqOfh7r.s 			page 1


   1              		.syntax unified
   2              		.cpu cortex-m3
   3              		.fpu softvfp
   4              		.eabi_attribute 20, 1
   5              		.eabi_attribute 21, 1
   6              		.eabi_attribute 23, 3
   7              		.eabi_attribute 24, 1
   8              		.eabi_attribute 25, 1
   9              		.eabi_attribute 26, 1
  10              		.eabi_attribute 30, 6
  11              		.eabi_attribute 18, 4
  12              		.thumb
  13              		.file	"chqueues.c"
  20 0000 48030000 		.text
  20      02008701 
  20      00000201 
  20      FB0E0D00 
  20      01010101 
  21              	.Ltext0:
  22              		.cfi_sections	.debug_frame
  23              		.section	.text.queue_insert,"ax",%progbits
  24              		.align	2
  25              		.p2align 4,,15
  26              		.thumb
  27              		.thumb_func
  28              		.type	queue_insert, %function
  29              	queue_insert:
  30              	.LFB1:
  31              		.file 1 "../chibios_2.6.3/os/kernel/include/chinline.h"
  32              		.loc 1 52 0
  33              		.cfi_startproc
  34              		@ args = 0, pretend = 0, frame = 8
  35              		@ frame_needed = 0, uses_anonymous_args = 0
  36              		@ link register save eliminated.
  37 0000 82B0     		sub	sp, sp, #8
  38              	.LCFI0:
  39              		.cfi_def_cfa_offset 8
  40 0002 0190     		str	r0, [sp, #4]
  41 0004 0091     		str	r1, [sp, #0]
  42              		.loc 1 54 0
  43 0006 009A     		ldr	r2, [sp, #0]
  44 0008 019B     		ldr	r3, [sp, #4]
  45 000a 1A60     		str	r2, [r3, #0]
  46              		.loc 1 55 0
  47 000c 009B     		ldr	r3, [sp, #0]
  48 000e 5A68     		ldr	r2, [r3, #4]
  49 0010 019B     		ldr	r3, [sp, #4]
  50 0012 5A60     		str	r2, [r3, #4]
  51              		.loc 1 56 0
  52 0014 019B     		ldr	r3, [sp, #4]
  53 0016 5B68     		ldr	r3, [r3, #4]
ARM GAS  C:\Users\z80\AppData\Local\Temp\ccqOfh7r.s 			page 2


  54 0018 009A     		ldr	r2, [sp, #0]
  55 001a 0199     		ldr	r1, [sp, #4]
  56 001c 5160     		str	r1, [r2, #4]
  57 001e 009A     		ldr	r2, [sp, #0]
  58 0020 5268     		ldr	r2, [r2, #4]
  59 0022 1A60     		str	r2, [r3, #0]
  60              		.loc 1 57 0
  61 0024 02B0     		add	sp, sp, #8
  62 0026 7047     		bx	lr
  63              		.cfi_endproc
  64              	.LFE1:
  65              		.size	queue_insert, .-queue_insert
  66 0028 AFF30080 		.section	.text.fifo_remove,"ax",%progbits
  66      AFF30080 
  67              		.align	2
  68              		.p2align 4,,15
  69              		.thumb
  70              		.thumb_func
  71              		.type	fifo_remove, %function
  72              	fifo_remove:
  73              	.LFB2:
  74              		.loc 1 59 0
  75              		.cfi_startproc
  76              		@ args = 0, pretend = 0, frame = 16
  77              		@ frame_needed = 0, uses_anonymous_args = 0
  78              		@ link register save eliminated.
  79 0000 84B0     		sub	sp, sp, #16
  80              	.LCFI1:
  81              		.cfi_def_cfa_offset 16
  82 0002 0190     		str	r0, [sp, #4]
  83              		.loc 1 60 0
  84 0004 019B     		ldr	r3, [sp, #4]
  85 0006 1B68     		ldr	r3, [r3, #0]
  86 0008 0393     		str	r3, [sp, #12]
  87              		.loc 1 62 0
  88 000a 039B     		ldr	r3, [sp, #12]
  89 000c 1A68     		ldr	r2, [r3, #0]
  90 000e 019B     		ldr	r3, [sp, #4]
  91 0010 1A60     		str	r2, [r3, #0]
  92 0012 019B     		ldr	r3, [sp, #4]
  93 0014 1B68     		ldr	r3, [r3, #0]
  94 0016 019A     		ldr	r2, [sp, #4]
  95 0018 5A60     		str	r2, [r3, #4]
  96              		.loc 1 63 0
  97 001a 039B     		ldr	r3, [sp, #12]
  98              		.loc 1 64 0
  99 001c 1846     		mov	r0, r3
 100 001e 04B0     		add	sp, sp, #16
 101 0020 7047     		bx	lr
 102              		.cfi_endproc
 103              	.LFE2:
 104              		.size	fifo_remove, .-fifo_remove
 105 0022 00BFAFF3 		.section	.text.qwait,"ax",%progbits
 105      0080AFF3 
 105      0080AFF3 
 105      0080
 106              		.align	2
ARM GAS  C:\Users\z80\AppData\Local\Temp\ccqOfh7r.s 			page 3


 107              		.p2align 4,,15
 108              		.thumb
 109              		.thumb_func
 110              		.type	qwait, %function
 111              	qwait:
 112              	.LFB7:
 113              		.file 2 "../chibios_2.6.3/os/kernel/src/chqueues.c"
 114              		.loc 2 70 0
 115              		.cfi_startproc
 116              		@ args = 0, pretend = 0, frame = 8
 117              		@ frame_needed = 0, uses_anonymous_args = 0
 118 0000 00B5     		push	{lr}
 119              	.LCFI2:
 120              		.cfi_def_cfa_offset 4
 121 0002 83B0     		sub	sp, sp, #12
 122              	.LCFI3:
 123              		.cfi_def_cfa_offset 16
 124 0004 0190     		str	r0, [sp, #4]
 125 0006 0091     		str	r1, [sp, #0]
 126              		.loc 2 72 0
 127 0008 009B     		ldr	r3, [sp, #0]
 128 000a 002B     		cmp	r3, #0
 129 000c 02D1     		bne	.L4
 130              		.cfi_offset 14, -4
 131              		.loc 2 73 0
 132 000e 4FF0FF33 		mov	r3, #-1
 133 0012 16E0     		b	.L5
 134              	.L4:
 135              		.loc 2 74 0
 136 0014 40F20003 		movw	r3, #:lower16:rlist
 137 0018 C0F20003 		movt	r3, #:upper16:rlist
 138 001c 9B69     		ldr	r3, [r3, #24]
 139 001e 019A     		ldr	r2, [sp, #4]
 140 0020 5A62     		str	r2, [r3, #36]
 141              		.loc 2 75 0
 142 0022 40F20003 		movw	r3, #:lower16:rlist
 143 0026 C0F20003 		movt	r3, #:upper16:rlist
 144 002a 9A69     		ldr	r2, [r3, #24]
 145 002c 019B     		ldr	r3, [sp, #4]
 146 002e 1046     		mov	r0, r2
 147 0030 1946     		mov	r1, r3
 148 0032 FFF7FEFF 		bl	queue_insert
 149              		.loc 2 76 0
 150 0036 4FF00D00 		mov	r0, #13
 151 003a 0099     		ldr	r1, [sp, #0]
 152 003c FFF7FEFF 		bl	chSchGoSleepTimeoutS
 153 0040 0346     		mov	r3, r0
 154              	.L5:
 155              		.loc 2 77 0
 156 0042 1846     		mov	r0, r3
 157 0044 03B0     		add	sp, sp, #12
 158 0046 00BD     		pop	{pc}
 159              		.cfi_endproc
 160              	.LFE7:
 161              		.size	qwait, .-qwait
 162 0048 AFF30080 		.section	.text.chIQInit,"ax",%progbits
 162      AFF30080 
ARM GAS  C:\Users\z80\AppData\Local\Temp\ccqOfh7r.s 			page 4


 163              		.align	2
 164              		.p2align 4,,15
 165              		.global	chIQInit
 166              		.thumb
 167              		.thumb_func
 168              		.type	chIQInit, %function
 169              	chIQInit:
 170              	.LFB8:
 171              		.loc 2 96 0
 172              		.cfi_startproc
 173              		@ args = 4, pretend = 0, frame = 16
 174              		@ frame_needed = 0, uses_anonymous_args = 0
 175              		@ link register save eliminated.
 176 0000 84B0     		sub	sp, sp, #16
 177              	.LCFI4:
 178              		.cfi_def_cfa_offset 16
 179 0002 0390     		str	r0, [sp, #12]
 180 0004 0291     		str	r1, [sp, #8]
 181 0006 0192     		str	r2, [sp, #4]
 182 0008 0093     		str	r3, [sp, #0]
 183              		.loc 2 98 0
 184 000a 039B     		ldr	r3, [sp, #12]
 185 000c 1A46     		mov	r2, r3
 186 000e 039B     		ldr	r3, [sp, #12]
 187 0010 5A60     		str	r2, [r3, #4]
 188 0012 039B     		ldr	r3, [sp, #12]
 189 0014 5A68     		ldr	r2, [r3, #4]
 190 0016 039B     		ldr	r3, [sp, #12]
 191 0018 1A60     		str	r2, [r3, #0]
 192              		.loc 2 99 0
 193 001a 039B     		ldr	r3, [sp, #12]
 194 001c 4FF00002 		mov	r2, #0
 195 0020 9A60     		str	r2, [r3, #8]
 196              		.loc 2 100 0
 197 0022 039B     		ldr	r3, [sp, #12]
 198 0024 029A     		ldr	r2, [sp, #8]
 199 0026 5A61     		str	r2, [r3, #20]
 200 0028 039B     		ldr	r3, [sp, #12]
 201 002a 5A69     		ldr	r2, [r3, #20]
 202 002c 039B     		ldr	r3, [sp, #12]
 203 002e 9A61     		str	r2, [r3, #24]
 204 0030 039B     		ldr	r3, [sp, #12]
 205 0032 9A69     		ldr	r2, [r3, #24]
 206 0034 039B     		ldr	r3, [sp, #12]
 207 0036 DA60     		str	r2, [r3, #12]
 208              		.loc 2 101 0
 209 0038 029A     		ldr	r2, [sp, #8]
 210 003a 019B     		ldr	r3, [sp, #4]
 211 003c 1A44     		add	r2, r2, r3
 212 003e 039B     		ldr	r3, [sp, #12]
 213 0040 1A61     		str	r2, [r3, #16]
 214              		.loc 2 102 0
 215 0042 039B     		ldr	r3, [sp, #12]
 216 0044 009A     		ldr	r2, [sp, #0]
 217 0046 DA61     		str	r2, [r3, #28]
 218              		.loc 2 103 0
 219 0048 039B     		ldr	r3, [sp, #12]
ARM GAS  C:\Users\z80\AppData\Local\Temp\ccqOfh7r.s 			page 5


 220 004a 049A     		ldr	r2, [sp, #16]
 221 004c 1A62     		str	r2, [r3, #32]
 222              		.loc 2 104 0
 223 004e 04B0     		add	sp, sp, #16
 224 0050 7047     		bx	lr
 225              		.cfi_endproc
 226              	.LFE8:
 227              		.size	chIQInit, .-chIQInit
 228 0052 00BFAFF3 		.section	.text.chIQResetI,"ax",%progbits
 228      0080AFF3 
 228      0080AFF3 
 228      0080
 229              		.align	2
 230              		.p2align 4,,15
 231              		.global	chIQResetI
 232              		.thumb
 233              		.thumb_func
 234              		.type	chIQResetI, %function
 235              	chIQResetI:
 236              	.LFB9:
 237              		.loc 2 117 0
 238              		.cfi_startproc
 239              		@ args = 0, pretend = 0, frame = 8
 240              		@ frame_needed = 0, uses_anonymous_args = 0
 241 0000 00B5     		push	{lr}
 242              	.LCFI5:
 243              		.cfi_def_cfa_offset 4
 244 0002 83B0     		sub	sp, sp, #12
 245              	.LCFI6:
 246              		.cfi_def_cfa_offset 16
 247 0004 0190     		str	r0, [sp, #4]
 248              		.loc 2 121 0
 249 0006 019B     		ldr	r3, [sp, #4]
 250 0008 DA68     		ldr	r2, [r3, #12]
 251 000a 019B     		ldr	r3, [sp, #4]
 252 000c 5A61     		str	r2, [r3, #20]
 253 000e 019B     		ldr	r3, [sp, #4]
 254 0010 5A69     		ldr	r2, [r3, #20]
 255 0012 019B     		ldr	r3, [sp, #4]
 256 0014 9A61     		str	r2, [r3, #24]
 257              		.loc 2 122 0
 258 0016 019B     		ldr	r3, [sp, #4]
 259 0018 4FF00002 		mov	r2, #0
 260 001c 9A60     		str	r2, [r3, #8]
 261              		.loc 2 123 0
 262 001e 0BE0     		b	.L8
 263              		.cfi_offset 14, -4
 264              	.L9:
 265              		.loc 2 124 0
 266 0020 019B     		ldr	r3, [sp, #4]
 267 0022 1846     		mov	r0, r3
 268 0024 FFF7FEFF 		bl	fifo_remove
 269 0028 0346     		mov	r3, r0
 270 002a 1846     		mov	r0, r3
 271 002c FFF7FEFF 		bl	chSchReadyI
 272 0030 0346     		mov	r3, r0
 273 0032 6FF00102 		mvn	r2, #1
ARM GAS  C:\Users\z80\AppData\Local\Temp\ccqOfh7r.s 			page 6


 274 0036 5A62     		str	r2, [r3, #36]
 275              	.L8:
 276              		.loc 2 123 0 discriminator 1
 277 0038 019B     		ldr	r3, [sp, #4]
 278 003a 1A68     		ldr	r2, [r3, #0]
 279 003c 019B     		ldr	r3, [sp, #4]
 280 003e 9A42     		cmp	r2, r3
 281 0040 EED1     		bne	.L9
 282              		.loc 2 125 0
 283 0042 03B0     		add	sp, sp, #12
 284 0044 00BD     		pop	{pc}
 285              		.cfi_endproc
 286              	.LFE9:
 287              		.size	chIQResetI, .-chIQResetI
 288 0046 00BFAFF3 		.section	.text.chIQPutI,"ax",%progbits
 288      0080AFF3 
 288      0080
 289              		.align	2
 290              		.p2align 4,,15
 291              		.global	chIQPutI
 292              		.thumb
 293              		.thumb_func
 294              		.type	chIQPutI, %function
 295              	chIQPutI:
 296              	.LFB10:
 297              		.loc 2 140 0
 298              		.cfi_startproc
 299              		@ args = 0, pretend = 0, frame = 8
 300              		@ frame_needed = 0, uses_anonymous_args = 0
 301 0000 00B5     		push	{lr}
 302              	.LCFI7:
 303              		.cfi_def_cfa_offset 4
 304 0002 83B0     		sub	sp, sp, #12
 305              	.LCFI8:
 306              		.cfi_def_cfa_offset 16
 307 0004 0190     		str	r0, [sp, #4]
 308 0006 0B46     		mov	r3, r1
 309 0008 8DF80330 		strb	r3, [sp, #3]
 310              		.loc 2 144 0
 311 000c 019B     		ldr	r3, [sp, #4]
 312 000e 5A69     		ldr	r2, [r3, #20]
 313 0010 019B     		ldr	r3, [sp, #4]
 314 0012 9B69     		ldr	r3, [r3, #24]
 315 0014 9A42     		cmp	r2, r3
 316 0016 06D1     		bne	.L11
 317              		.cfi_offset 14, -4
 318              		.loc 2 144 0 is_stmt 0 discriminator 1
 319 0018 019B     		ldr	r3, [sp, #4]
 320 001a 9B68     		ldr	r3, [r3, #8]
 321 001c 002B     		cmp	r3, #0
 322 001e 02D0     		beq	.L11
 323              		.loc 2 144 0 discriminator 3
 324 0020 4FF00103 		mov	r3, #1
 325 0024 01E0     		b	.L12
 326              	.L11:
 327              		.loc 2 144 0 discriminator 2
 328 0026 4FF00003 		mov	r3, #0
ARM GAS  C:\Users\z80\AppData\Local\Temp\ccqOfh7r.s 			page 7


 329              	.L12:
 330              		.loc 2 144 0 discriminator 4
 331 002a DBB2     		uxtb	r3, r3
 332 002c 002B     		cmp	r3, #0
 333 002e 02D0     		beq	.L13
 334              		.loc 2 145 0 is_stmt 1
 335 0030 6FF00303 		mvn	r3, #3
 336 0034 2BE0     		b	.L14
 337              	.L13:
 338              		.loc 2 147 0
 339 0036 019B     		ldr	r3, [sp, #4]
 340 0038 9B68     		ldr	r3, [r3, #8]
 341 003a 03F10102 		add	r2, r3, #1
 342 003e 019B     		ldr	r3, [sp, #4]
 343 0040 9A60     		str	r2, [r3, #8]
 344              		.loc 2 148 0
 345 0042 019B     		ldr	r3, [sp, #4]
 346 0044 5B69     		ldr	r3, [r3, #20]
 347 0046 9DF80320 		ldrb	r2, [sp, #3]
 348 004a 1A70     		strb	r2, [r3, #0]
 349 004c 03F10102 		add	r2, r3, #1
 350 0050 019B     		ldr	r3, [sp, #4]
 351 0052 5A61     		str	r2, [r3, #20]
 352              		.loc 2 149 0
 353 0054 019B     		ldr	r3, [sp, #4]
 354 0056 5A69     		ldr	r2, [r3, #20]
 355 0058 019B     		ldr	r3, [sp, #4]
 356 005a 1B69     		ldr	r3, [r3, #16]
 357 005c 9A42     		cmp	r2, r3
 358 005e 03D3     		bcc	.L15
 359              		.loc 2 150 0
 360 0060 019B     		ldr	r3, [sp, #4]
 361 0062 DA68     		ldr	r2, [r3, #12]
 362 0064 019B     		ldr	r3, [sp, #4]
 363 0066 5A61     		str	r2, [r3, #20]
 364              	.L15:
 365              		.loc 2 152 0
 366 0068 019B     		ldr	r3, [sp, #4]
 367 006a 1A68     		ldr	r2, [r3, #0]
 368 006c 019B     		ldr	r3, [sp, #4]
 369 006e 9A42     		cmp	r2, r3
 370 0070 0BD0     		beq	.L16
 371              		.loc 2 153 0
 372 0072 019B     		ldr	r3, [sp, #4]
 373 0074 1846     		mov	r0, r3
 374 0076 FFF7FEFF 		bl	fifo_remove
 375 007a 0346     		mov	r3, r0
 376 007c 1846     		mov	r0, r3
 377 007e FFF7FEFF 		bl	chSchReadyI
 378 0082 0346     		mov	r3, r0
 379 0084 4FF00002 		mov	r2, #0
 380 0088 5A62     		str	r2, [r3, #36]
 381              	.L16:
 382              		.loc 2 155 0
 383 008a 4FF00003 		mov	r3, #0
 384              	.L14:
 385              		.loc 2 156 0
ARM GAS  C:\Users\z80\AppData\Local\Temp\ccqOfh7r.s 			page 8


 386 008e 1846     		mov	r0, r3
 387 0090 03B0     		add	sp, sp, #12
 388 0092 00BD     		pop	{pc}
 389              		.cfi_endproc
 390              	.LFE10:
 391              		.size	chIQPutI, .-chIQPutI
 392 0094 AFF30080 		.section	.text.chIQGetTimeout,"ax",%progbits
 392      AFF30080 
 392      AFF30080 
 393              		.align	2
 394              		.p2align 4,,15
 395              		.global	chIQGetTimeout
 396              		.thumb
 397              		.thumb_func
 398              		.type	chIQGetTimeout, %function
 399              	chIQGetTimeout:
 400              	.LFB11:
 401              		.loc 2 178 0
 402              		.cfi_startproc
 403              		@ args = 0, pretend = 0, frame = 16
 404              		@ frame_needed = 0, uses_anonymous_args = 0
 405 0000 00B5     		push	{lr}
 406              	.LCFI9:
 407              		.cfi_def_cfa_offset 4
 408 0002 85B0     		sub	sp, sp, #20
 409              	.LCFI10:
 410              		.cfi_def_cfa_offset 24
 411 0004 0190     		str	r0, [sp, #4]
 412 0006 0091     		str	r1, [sp, #0]
 413              	.LBB2:
 414              		.loc 2 181 0
 415 0008 4FF02003 		mov	r3, #32
 416              	@ 181 "../chibios_2.6.3/os/kernel/src/chqueues.c" 1
 417 000c 83F31188 		msr     BASEPRI, r3
 418              	@ 0 "" 2
 419              		.thumb
 420              	.LBE2:
 421              		.loc 2 182 0
 422 0010 019B     		ldr	r3, [sp, #4]
 423 0012 DB69     		ldr	r3, [r3, #28]
 424 0014 002B     		cmp	r3, #0
 425 0016 13D0     		beq	.L23
 426              		.cfi_offset 14, -4
 427              		.loc 2 183 0
 428 0018 019B     		ldr	r3, [sp, #4]
 429 001a DB69     		ldr	r3, [r3, #28]
 430 001c 0198     		ldr	r0, [sp, #4]
 431 001e 9847     		blx	r3
 432              		.loc 2 185 0
 433 0020 0FE0     		b	.L19
 434              	.L21:
 435              	.LBB3:
 436              		.loc 2 187 0
 437 0022 0198     		ldr	r0, [sp, #4]
 438 0024 0099     		ldr	r1, [sp, #0]
 439 0026 FFF7FEFF 		bl	qwait
 440 002a 0346     		mov	r3, r0
ARM GAS  C:\Users\z80\AppData\Local\Temp\ccqOfh7r.s 			page 9


 441 002c 0393     		str	r3, [sp, #12]
 442 002e 039B     		ldr	r3, [sp, #12]
 443 0030 002B     		cmp	r3, #0
 444 0032 06DA     		bge	.L19
 445              	.LBB4:
 446              		.loc 2 188 0
 447 0034 4FF00003 		mov	r3, #0
 448              	@ 188 "../chibios_2.6.3/os/kernel/src/chqueues.c" 1
 449 0038 83F31188 		msr     BASEPRI, r3
 450              	@ 0 "" 2
 451              		.thumb
 452              	.LBE4:
 453              		.loc 2 189 0
 454 003c 039B     		ldr	r3, [sp, #12]
 455 003e 23E0     		b	.L20
 456              	.L23:
 457              	.LBE3:
 458              		.loc 2 185 0
 459 0040 00BF     		nop
 460              	.L19:
 461              		.loc 2 185 0 is_stmt 0 discriminator 1
 462 0042 019B     		ldr	r3, [sp, #4]
 463 0044 9B68     		ldr	r3, [r3, #8]
 464 0046 002B     		cmp	r3, #0
 465 0048 EBD0     		beq	.L21
 466              		.loc 2 193 0 is_stmt 1
 467 004a 019B     		ldr	r3, [sp, #4]
 468 004c 9B68     		ldr	r3, [r3, #8]
 469 004e 03F1FF32 		add	r2, r3, #-1
 470 0052 019B     		ldr	r3, [sp, #4]
 471 0054 9A60     		str	r2, [r3, #8]
 472              		.loc 2 194 0
 473 0056 019B     		ldr	r3, [sp, #4]
 474 0058 9B69     		ldr	r3, [r3, #24]
 475 005a 1A78     		ldrb	r2, [r3, #0]
 476 005c 8DF80B20 		strb	r2, [sp, #11]
 477 0060 03F10102 		add	r2, r3, #1
 478 0064 019B     		ldr	r3, [sp, #4]
 479 0066 9A61     		str	r2, [r3, #24]
 480              		.loc 2 195 0
 481 0068 019B     		ldr	r3, [sp, #4]
 482 006a 9A69     		ldr	r2, [r3, #24]
 483 006c 019B     		ldr	r3, [sp, #4]
 484 006e 1B69     		ldr	r3, [r3, #16]
 485 0070 9A42     		cmp	r2, r3
 486 0072 03D3     		bcc	.L22
 487              		.loc 2 196 0
 488 0074 019B     		ldr	r3, [sp, #4]
 489 0076 DA68     		ldr	r2, [r3, #12]
 490 0078 019B     		ldr	r3, [sp, #4]
 491 007a 9A61     		str	r2, [r3, #24]
 492              	.L22:
 493              	.LBB5:
 494              		.loc 2 198 0
 495 007c 4FF00003 		mov	r3, #0
 496              	@ 198 "../chibios_2.6.3/os/kernel/src/chqueues.c" 1
 497 0080 83F31188 		msr     BASEPRI, r3
ARM GAS  C:\Users\z80\AppData\Local\Temp\ccqOfh7r.s 			page 10


 498              	@ 0 "" 2
 499              		.thumb
 500              	.LBE5:
 501              		.loc 2 199 0
 502 0084 9DF80B30 		ldrb	r3, [sp, #11]	@ zero_extendqisi2
 503              	.L20:
 504              		.loc 2 200 0
 505 0088 1846     		mov	r0, r3
 506 008a 05B0     		add	sp, sp, #20
 507 008c 00BD     		pop	{pc}
 508              		.cfi_endproc
 509              	.LFE11:
 510              		.size	chIQGetTimeout, .-chIQGetTimeout
 511 008e 00BF     		.section	.text.chIQReadTimeout,"ax",%progbits
 512              		.align	2
 513              		.p2align 4,,15
 514              		.global	chIQReadTimeout
 515              		.thumb
 516              		.thumb_func
 517              		.type	chIQReadTimeout, %function
 518              	chIQReadTimeout:
 519              	.LFB12:
 520              		.loc 2 227 0
 521              		.cfi_startproc
 522              		@ args = 0, pretend = 0, frame = 24
 523              		@ frame_needed = 0, uses_anonymous_args = 0
 524 0000 00B5     		push	{lr}
 525              	.LCFI11:
 526              		.cfi_def_cfa_offset 4
 527 0002 87B0     		sub	sp, sp, #28
 528              	.LCFI12:
 529              		.cfi_def_cfa_offset 32
 530 0004 0390     		str	r0, [sp, #12]
 531 0006 0291     		str	r1, [sp, #8]
 532 0008 0192     		str	r2, [sp, #4]
 533 000a 0093     		str	r3, [sp, #0]
 534              		.loc 2 228 0
 535 000c 039B     		ldr	r3, [sp, #12]
 536 000e DB69     		ldr	r3, [r3, #28]
 537 0010 0493     		str	r3, [sp, #16]
 538              		.loc 2 229 0
 539 0012 4FF00003 		mov	r3, #0
 540 0016 0593     		str	r3, [sp, #20]
 541              		.loc 2 231 0
 542 0018 019B     		ldr	r3, [sp, #4]
 543 001a 002B     		cmp	r3, #0
 544              	.LBB6:
 545              		.loc 2 233 0
 546 001c 4FF02003 		mov	r3, #32
 547              	@ 233 "../chibios_2.6.3/os/kernel/src/chqueues.c" 1
 548 0020 83F31188 		msr     BASEPRI, r3
 549              	@ 0 "" 2
 550              		.thumb
 551              	.L32:
 552              	.LBE6:
 553              		.loc 2 235 0
 554 0024 049B     		ldr	r3, [sp, #16]
ARM GAS  C:\Users\z80\AppData\Local\Temp\ccqOfh7r.s 			page 11


 555 0026 002B     		cmp	r3, #0
 556 0028 10D0     		beq	.L33
 557              		.cfi_offset 14, -4
 558              		.loc 2 236 0
 559 002a 049B     		ldr	r3, [sp, #16]
 560 002c 0398     		ldr	r0, [sp, #12]
 561 002e 9847     		blx	r3
 562              		.loc 2 238 0
 563 0030 0DE0     		b	.L27
 564              	.L29:
 565              		.loc 2 239 0
 566 0032 0398     		ldr	r0, [sp, #12]
 567 0034 0099     		ldr	r1, [sp, #0]
 568 0036 FFF7FEFF 		bl	qwait
 569 003a 0346     		mov	r3, r0
 570 003c 002B     		cmp	r3, #0
 571 003e 06D0     		beq	.L27
 572              	.LBB7:
 573              		.loc 2 240 0
 574 0040 4FF00003 		mov	r3, #0
 575              	@ 240 "../chibios_2.6.3/os/kernel/src/chqueues.c" 1
 576 0044 83F31188 		msr     BASEPRI, r3
 577              	@ 0 "" 2
 578              		.thumb
 579              	.LBE7:
 580              		.loc 2 241 0
 581 0048 059B     		ldr	r3, [sp, #20]
 582 004a 37E0     		b	.L28
 583              	.L33:
 584              		.loc 2 238 0
 585 004c 00BF     		nop
 586              	.L27:
 587              		.loc 2 238 0 is_stmt 0 discriminator 1
 588 004e 039B     		ldr	r3, [sp, #12]
 589 0050 9B68     		ldr	r3, [r3, #8]
 590 0052 002B     		cmp	r3, #0
 591 0054 EDD0     		beq	.L29
 592              		.loc 2 245 0 is_stmt 1
 593 0056 039B     		ldr	r3, [sp, #12]
 594 0058 9B68     		ldr	r3, [r3, #8]
 595 005a 03F1FF32 		add	r2, r3, #-1
 596 005e 039B     		ldr	r3, [sp, #12]
 597 0060 9A60     		str	r2, [r3, #8]
 598              		.loc 2 246 0
 599 0062 039B     		ldr	r3, [sp, #12]
 600 0064 9B69     		ldr	r3, [r3, #24]
 601 0066 1978     		ldrb	r1, [r3, #0]	@ zero_extendqisi2
 602 0068 029A     		ldr	r2, [sp, #8]
 603 006a 1170     		strb	r1, [r2, #0]
 604 006c 029A     		ldr	r2, [sp, #8]
 605 006e 02F10102 		add	r2, r2, #1
 606 0072 0292     		str	r2, [sp, #8]
 607 0074 03F10102 		add	r2, r3, #1
 608 0078 039B     		ldr	r3, [sp, #12]
 609 007a 9A61     		str	r2, [r3, #24]
 610              		.loc 2 247 0
 611 007c 039B     		ldr	r3, [sp, #12]
ARM GAS  C:\Users\z80\AppData\Local\Temp\ccqOfh7r.s 			page 12


 612 007e 9A69     		ldr	r2, [r3, #24]
 613 0080 039B     		ldr	r3, [sp, #12]
 614 0082 1B69     		ldr	r3, [r3, #16]
 615 0084 9A42     		cmp	r2, r3
 616 0086 03D3     		bcc	.L30
 617              		.loc 2 248 0
 618 0088 039B     		ldr	r3, [sp, #12]
 619 008a DA68     		ldr	r2, [r3, #12]
 620 008c 039B     		ldr	r3, [sp, #12]
 621 008e 9A61     		str	r2, [r3, #24]
 622              	.L30:
 623              	.LBB8:
 624              		.loc 2 250 0
 625 0090 4FF00003 		mov	r3, #0
 626              	@ 250 "../chibios_2.6.3/os/kernel/src/chqueues.c" 1
 627 0094 83F31188 		msr     BASEPRI, r3
 628              	@ 0 "" 2
 629              		.thumb
 630              	.LBE8:
 631              		.loc 2 251 0
 632 0098 059B     		ldr	r3, [sp, #20]
 633 009a 03F10103 		add	r3, r3, #1
 634 009e 0593     		str	r3, [sp, #20]
 635              		.loc 2 252 0
 636 00a0 019B     		ldr	r3, [sp, #4]
 637 00a2 03F1FF33 		add	r3, r3, #-1
 638 00a6 0193     		str	r3, [sp, #4]
 639 00a8 019B     		ldr	r3, [sp, #4]
 640 00aa 002B     		cmp	r3, #0
 641 00ac 01D1     		bne	.L31
 642              		.loc 2 253 0
 643 00ae 059B     		ldr	r3, [sp, #20]
 644 00b0 04E0     		b	.L28
 645              	.L31:
 646              	.LBB9:
 647              		.loc 2 255 0
 648 00b2 4FF02003 		mov	r3, #32
 649              	@ 255 "../chibios_2.6.3/os/kernel/src/chqueues.c" 1
 650 00b6 83F31188 		msr     BASEPRI, r3
 651              	@ 0 "" 2
 652              		.thumb
 653              	.LBE9:
 654              		.loc 2 256 0
 655 00ba B3E7     		b	.L32
 656              	.L28:
 657              		.loc 2 257 0
 658 00bc 1846     		mov	r0, r3
 659 00be 07B0     		add	sp, sp, #28
 660 00c0 00BD     		pop	{pc}
 661              		.cfi_endproc
 662              	.LFE12:
 663              		.size	chIQReadTimeout, .-chIQReadTimeout
 664 00c2 00BFAFF3 		.section	.text.chOQInit,"ax",%progbits
 664      0080AFF3 
 664      0080AFF3 
 664      0080
 665              		.align	2
ARM GAS  C:\Users\z80\AppData\Local\Temp\ccqOfh7r.s 			page 13


 666              		.p2align 4,,15
 667              		.global	chOQInit
 668              		.thumb
 669              		.thumb_func
 670              		.type	chOQInit, %function
 671              	chOQInit:
 672              	.LFB13:
 673              		.loc 2 276 0
 674              		.cfi_startproc
 675              		@ args = 4, pretend = 0, frame = 16
 676              		@ frame_needed = 0, uses_anonymous_args = 0
 677              		@ link register save eliminated.
 678 0000 84B0     		sub	sp, sp, #16
 679              	.LCFI13:
 680              		.cfi_def_cfa_offset 16
 681 0002 0390     		str	r0, [sp, #12]
 682 0004 0291     		str	r1, [sp, #8]
 683 0006 0192     		str	r2, [sp, #4]
 684 0008 0093     		str	r3, [sp, #0]
 685              		.loc 2 278 0
 686 000a 039B     		ldr	r3, [sp, #12]
 687 000c 1A46     		mov	r2, r3
 688 000e 039B     		ldr	r3, [sp, #12]
 689 0010 5A60     		str	r2, [r3, #4]
 690 0012 039B     		ldr	r3, [sp, #12]
 691 0014 5A68     		ldr	r2, [r3, #4]
 692 0016 039B     		ldr	r3, [sp, #12]
 693 0018 1A60     		str	r2, [r3, #0]
 694              		.loc 2 279 0
 695 001a 039B     		ldr	r3, [sp, #12]
 696 001c 019A     		ldr	r2, [sp, #4]
 697 001e 9A60     		str	r2, [r3, #8]
 698              		.loc 2 280 0
 699 0020 039B     		ldr	r3, [sp, #12]
 700 0022 029A     		ldr	r2, [sp, #8]
 701 0024 5A61     		str	r2, [r3, #20]
 702 0026 039B     		ldr	r3, [sp, #12]
 703 0028 5A69     		ldr	r2, [r3, #20]
 704 002a 039B     		ldr	r3, [sp, #12]
 705 002c 9A61     		str	r2, [r3, #24]
 706 002e 039B     		ldr	r3, [sp, #12]
 707 0030 9A69     		ldr	r2, [r3, #24]
 708 0032 039B     		ldr	r3, [sp, #12]
 709 0034 DA60     		str	r2, [r3, #12]
 710              		.loc 2 281 0
 711 0036 029A     		ldr	r2, [sp, #8]
 712 0038 019B     		ldr	r3, [sp, #4]
 713 003a 1A44     		add	r2, r2, r3
 714 003c 039B     		ldr	r3, [sp, #12]
 715 003e 1A61     		str	r2, [r3, #16]
 716              		.loc 2 282 0
 717 0040 039B     		ldr	r3, [sp, #12]
 718 0042 009A     		ldr	r2, [sp, #0]
 719 0044 DA61     		str	r2, [r3, #28]
 720              		.loc 2 283 0
 721 0046 039B     		ldr	r3, [sp, #12]
 722 0048 049A     		ldr	r2, [sp, #16]
ARM GAS  C:\Users\z80\AppData\Local\Temp\ccqOfh7r.s 			page 14


 723 004a 1A62     		str	r2, [r3, #32]
 724              		.loc 2 284 0
 725 004c 04B0     		add	sp, sp, #16
 726 004e 7047     		bx	lr
 727              		.cfi_endproc
 728              	.LFE13:
 729              		.size	chOQInit, .-chOQInit
 730              		.section	.text.chOQResetI,"ax",%progbits
 731              		.align	2
 732              		.p2align 4,,15
 733              		.global	chOQResetI
 734              		.thumb
 735              		.thumb_func
 736              		.type	chOQResetI, %function
 737              	chOQResetI:
 738              	.LFB14:
 739              		.loc 2 297 0
 740              		.cfi_startproc
 741              		@ args = 0, pretend = 0, frame = 8
 742              		@ frame_needed = 0, uses_anonymous_args = 0
 743 0000 00B5     		push	{lr}
 744              	.LCFI14:
 745              		.cfi_def_cfa_offset 4
 746 0002 83B0     		sub	sp, sp, #12
 747              	.LCFI15:
 748              		.cfi_def_cfa_offset 16
 749 0004 0190     		str	r0, [sp, #4]
 750              		.loc 2 301 0
 751 0006 019B     		ldr	r3, [sp, #4]
 752 0008 DA68     		ldr	r2, [r3, #12]
 753 000a 019B     		ldr	r3, [sp, #4]
 754 000c 5A61     		str	r2, [r3, #20]
 755 000e 019B     		ldr	r3, [sp, #4]
 756 0010 5A69     		ldr	r2, [r3, #20]
 757 0012 019B     		ldr	r3, [sp, #4]
 758 0014 9A61     		str	r2, [r3, #24]
 759              		.loc 2 302 0
 760 0016 019B     		ldr	r3, [sp, #4]
 761 0018 1B69     		ldr	r3, [r3, #16]
 762 001a 1A46     		mov	r2, r3
 763 001c 019B     		ldr	r3, [sp, #4]
 764 001e DB68     		ldr	r3, [r3, #12]
 765 0020 C3EB0203 		rsb	r3, r3, r2
 766 0024 1A46     		mov	r2, r3
 767 0026 019B     		ldr	r3, [sp, #4]
 768 0028 9A60     		str	r2, [r3, #8]
 769              		.loc 2 303 0
 770 002a 0BE0     		b	.L36
 771              		.cfi_offset 14, -4
 772              	.L37:
 773              		.loc 2 304 0
 774 002c 019B     		ldr	r3, [sp, #4]
 775 002e 1846     		mov	r0, r3
 776 0030 FFF7FEFF 		bl	fifo_remove
 777 0034 0346     		mov	r3, r0
 778 0036 1846     		mov	r0, r3
 779 0038 FFF7FEFF 		bl	chSchReadyI
ARM GAS  C:\Users\z80\AppData\Local\Temp\ccqOfh7r.s 			page 15


 780 003c 0346     		mov	r3, r0
 781 003e 6FF00102 		mvn	r2, #1
 782 0042 5A62     		str	r2, [r3, #36]
 783              	.L36:
 784              		.loc 2 303 0 discriminator 1
 785 0044 019B     		ldr	r3, [sp, #4]
 786 0046 1A68     		ldr	r2, [r3, #0]
 787 0048 019B     		ldr	r3, [sp, #4]
 788 004a 9A42     		cmp	r2, r3
 789 004c EED1     		bne	.L37
 790              		.loc 2 305 0
 791 004e 03B0     		add	sp, sp, #12
 792 0050 00BD     		pop	{pc}
 793              		.cfi_endproc
 794              	.LFE14:
 795              		.size	chOQResetI, .-chOQResetI
 796              		.section	.text.chOQPutTimeout,"ax",%progbits
 797              		.align	2
 798              		.p2align 4,,15
 799              		.global	chOQPutTimeout
 800              		.thumb
 801              		.thumb_func
 802              		.type	chOQPutTimeout, %function
 803              	chOQPutTimeout:
 804              	.LFB15:
 805              		.loc 2 329 0
 806              		.cfi_startproc
 807              		@ args = 0, pretend = 0, frame = 24
 808              		@ frame_needed = 0, uses_anonymous_args = 0
 809 0000 00B5     		push	{lr}
 810              	.LCFI16:
 811              		.cfi_def_cfa_offset 4
 812 0002 87B0     		sub	sp, sp, #28
 813              	.LCFI17:
 814              		.cfi_def_cfa_offset 32
 815 0004 0390     		str	r0, [sp, #12]
 816 0006 0B46     		mov	r3, r1
 817 0008 0192     		str	r2, [sp, #4]
 818 000a 8DF80B30 		strb	r3, [sp, #11]
 819              	.LBB10:
 820              		.loc 2 331 0
 821 000e 4FF02003 		mov	r3, #32
 822              	@ 331 "../chibios_2.6.3/os/kernel/src/chqueues.c" 1
 823 0012 83F31188 		msr     BASEPRI, r3
 824              	@ 0 "" 2
 825              		.thumb
 826              	.LBE10:
 827              		.loc 2 332 0
 828 0016 0EE0     		b	.L39
 829              		.cfi_offset 14, -4
 830              	.L41:
 831              	.LBB11:
 832              		.loc 2 335 0
 833 0018 0398     		ldr	r0, [sp, #12]
 834 001a 0199     		ldr	r1, [sp, #4]
 835 001c FFF7FEFF 		bl	qwait
 836 0020 0346     		mov	r3, r0
ARM GAS  C:\Users\z80\AppData\Local\Temp\ccqOfh7r.s 			page 16


 837 0022 0593     		str	r3, [sp, #20]
 838 0024 059B     		ldr	r3, [sp, #20]
 839 0026 002B     		cmp	r3, #0
 840 0028 05DA     		bge	.L39
 841              	.LBB12:
 842              		.loc 2 336 0
 843 002a 4FF00003 		mov	r3, #0
 844              	@ 336 "../chibios_2.6.3/os/kernel/src/chqueues.c" 1
 845 002e 83F31188 		msr     BASEPRI, r3
 846              	@ 0 "" 2
 847              		.thumb
 848              	.LBE12:
 849              		.loc 2 337 0
 850 0032 059B     		ldr	r3, [sp, #20]
 851 0034 2AE0     		b	.L40
 852              	.L39:
 853              	.LBE11:
 854              		.loc 2 332 0 discriminator 1
 855 0036 039B     		ldr	r3, [sp, #12]
 856 0038 9B68     		ldr	r3, [r3, #8]
 857 003a 002B     		cmp	r3, #0
 858 003c ECD0     		beq	.L41
 859              		.loc 2 341 0
 860 003e 039B     		ldr	r3, [sp, #12]
 861 0040 9B68     		ldr	r3, [r3, #8]
 862 0042 03F1FF32 		add	r2, r3, #-1
 863 0046 039B     		ldr	r3, [sp, #12]
 864 0048 9A60     		str	r2, [r3, #8]
 865              		.loc 2 342 0
 866 004a 039B     		ldr	r3, [sp, #12]
 867 004c 5B69     		ldr	r3, [r3, #20]
 868 004e 9DF80B20 		ldrb	r2, [sp, #11]
 869 0052 1A70     		strb	r2, [r3, #0]
 870 0054 03F10102 		add	r2, r3, #1
 871 0058 039B     		ldr	r3, [sp, #12]
 872 005a 5A61     		str	r2, [r3, #20]
 873              		.loc 2 343 0
 874 005c 039B     		ldr	r3, [sp, #12]
 875 005e 5A69     		ldr	r2, [r3, #20]
 876 0060 039B     		ldr	r3, [sp, #12]
 877 0062 1B69     		ldr	r3, [r3, #16]
 878 0064 9A42     		cmp	r2, r3
 879 0066 03D3     		bcc	.L42
 880              		.loc 2 344 0
 881 0068 039B     		ldr	r3, [sp, #12]
 882 006a DA68     		ldr	r2, [r3, #12]
 883 006c 039B     		ldr	r3, [sp, #12]
 884 006e 5A61     		str	r2, [r3, #20]
 885              	.L42:
 886              		.loc 2 346 0
 887 0070 039B     		ldr	r3, [sp, #12]
 888 0072 DB69     		ldr	r3, [r3, #28]
 889 0074 002B     		cmp	r3, #0
 890 0076 03D0     		beq	.L43
 891              		.loc 2 347 0
 892 0078 039B     		ldr	r3, [sp, #12]
 893 007a DB69     		ldr	r3, [r3, #28]
ARM GAS  C:\Users\z80\AppData\Local\Temp\ccqOfh7r.s 			page 17


 894 007c 0398     		ldr	r0, [sp, #12]
 895 007e 9847     		blx	r3
 896              	.L43:
 897              	.LBB13:
 898              		.loc 2 349 0
 899 0080 4FF00003 		mov	r3, #0
 900              	@ 349 "../chibios_2.6.3/os/kernel/src/chqueues.c" 1
 901 0084 83F31188 		msr     BASEPRI, r3
 902              	@ 0 "" 2
 903              		.thumb
 904              	.LBE13:
 905              		.loc 2 350 0
 906 0088 4FF00003 		mov	r3, #0
 907              	.L40:
 908              		.loc 2 351 0
 909 008c 1846     		mov	r0, r3
 910 008e 07B0     		add	sp, sp, #28
 911 0090 00BD     		pop	{pc}
 912              		.cfi_endproc
 913              	.LFE15:
 914              		.size	chOQPutTimeout, .-chOQPutTimeout
 915 0092 00BFAFF3 		.section	.text.chOQGetI,"ax",%progbits
 915      0080AFF3 
 915      0080AFF3 
 915      0080
 916              		.align	2
 917              		.p2align 4,,15
 918              		.global	chOQGetI
 919              		.thumb
 920              		.thumb_func
 921              		.type	chOQGetI, %function
 922              	chOQGetI:
 923              	.LFB16:
 924              		.loc 2 363 0
 925              		.cfi_startproc
 926              		@ args = 0, pretend = 0, frame = 16
 927              		@ frame_needed = 0, uses_anonymous_args = 0
 928 0000 00B5     		push	{lr}
 929              	.LCFI18:
 930              		.cfi_def_cfa_offset 4
 931 0002 85B0     		sub	sp, sp, #20
 932              	.LCFI19:
 933              		.cfi_def_cfa_offset 24
 934 0004 0190     		str	r0, [sp, #4]
 935              		.loc 2 368 0
 936 0006 019B     		ldr	r3, [sp, #4]
 937 0008 5A69     		ldr	r2, [r3, #20]
 938 000a 019B     		ldr	r3, [sp, #4]
 939 000c 9B69     		ldr	r3, [r3, #24]
 940 000e 9A42     		cmp	r2, r3
 941 0010 06D1     		bne	.L45
 942              		.cfi_offset 14, -4
 943              		.loc 2 368 0 is_stmt 0 discriminator 1
 944 0012 019B     		ldr	r3, [sp, #4]
 945 0014 9B68     		ldr	r3, [r3, #8]
 946 0016 002B     		cmp	r3, #0
 947 0018 02D0     		beq	.L45
ARM GAS  C:\Users\z80\AppData\Local\Temp\ccqOfh7r.s 			page 18


 948              		.loc 2 368 0 discriminator 3
 949 001a 4FF00103 		mov	r3, #1
 950 001e 01E0     		b	.L46
 951              	.L45:
 952              		.loc 2 368 0 discriminator 2
 953 0020 4FF00003 		mov	r3, #0
 954              	.L46:
 955              		.loc 2 368 0 discriminator 4
 956 0024 DBB2     		uxtb	r3, r3
 957 0026 002B     		cmp	r3, #0
 958 0028 02D0     		beq	.L47
 959              		.loc 2 369 0 is_stmt 1
 960 002a 6FF00203 		mvn	r3, #2
 961 002e 2BE0     		b	.L48
 962              	.L47:
 963              		.loc 2 371 0
 964 0030 019B     		ldr	r3, [sp, #4]
 965 0032 9B68     		ldr	r3, [r3, #8]
 966 0034 03F10102 		add	r2, r3, #1
 967 0038 019B     		ldr	r3, [sp, #4]
 968 003a 9A60     		str	r2, [r3, #8]
 969              		.loc 2 372 0
 970 003c 019B     		ldr	r3, [sp, #4]
 971 003e 9B69     		ldr	r3, [r3, #24]
 972 0040 1A78     		ldrb	r2, [r3, #0]
 973 0042 8DF80F20 		strb	r2, [sp, #15]
 974 0046 03F10102 		add	r2, r3, #1
 975 004a 019B     		ldr	r3, [sp, #4]
 976 004c 9A61     		str	r2, [r3, #24]
 977              		.loc 2 373 0
 978 004e 019B     		ldr	r3, [sp, #4]
 979 0050 9A69     		ldr	r2, [r3, #24]
 980 0052 019B     		ldr	r3, [sp, #4]
 981 0054 1B69     		ldr	r3, [r3, #16]
 982 0056 9A42     		cmp	r2, r3
 983 0058 03D3     		bcc	.L49
 984              		.loc 2 374 0
 985 005a 019B     		ldr	r3, [sp, #4]
 986 005c DA68     		ldr	r2, [r3, #12]
 987 005e 019B     		ldr	r3, [sp, #4]
 988 0060 9A61     		str	r2, [r3, #24]
 989              	.L49:
 990              		.loc 2 376 0
 991 0062 019B     		ldr	r3, [sp, #4]
 992 0064 1A68     		ldr	r2, [r3, #0]
 993 0066 019B     		ldr	r3, [sp, #4]
 994 0068 9A42     		cmp	r2, r3
 995 006a 0BD0     		beq	.L50
 996              		.loc 2 377 0
 997 006c 019B     		ldr	r3, [sp, #4]
 998 006e 1846     		mov	r0, r3
 999 0070 FFF7FEFF 		bl	fifo_remove
 1000 0074 0346     		mov	r3, r0
 1001 0076 1846     		mov	r0, r3
 1002 0078 FFF7FEFF 		bl	chSchReadyI
 1003 007c 0346     		mov	r3, r0
 1004 007e 4FF00002 		mov	r2, #0
ARM GAS  C:\Users\z80\AppData\Local\Temp\ccqOfh7r.s 			page 19


 1005 0082 5A62     		str	r2, [r3, #36]
 1006              	.L50:
 1007              		.loc 2 379 0
 1008 0084 9DF80F30 		ldrb	r3, [sp, #15]	@ zero_extendqisi2
 1009              	.L48:
 1010              		.loc 2 380 0
 1011 0088 1846     		mov	r0, r3
 1012 008a 05B0     		add	sp, sp, #20
 1013 008c 00BD     		pop	{pc}
 1014              		.cfi_endproc
 1015              	.LFE16:
 1016              		.size	chOQGetI, .-chOQGetI
 1017 008e 00BF     		.section	.text.chOQWriteTimeout,"ax",%progbits
 1018              		.align	2
 1019              		.p2align 4,,15
 1020              		.global	chOQWriteTimeout
 1021              		.thumb
 1022              		.thumb_func
 1023              		.type	chOQWriteTimeout, %function
 1024              	chOQWriteTimeout:
 1025              	.LFB17:
 1026              		.loc 2 407 0
 1027              		.cfi_startproc
 1028              		@ args = 0, pretend = 0, frame = 24
 1029              		@ frame_needed = 0, uses_anonymous_args = 0
 1030 0000 00B5     		push	{lr}
 1031              	.LCFI20:
 1032              		.cfi_def_cfa_offset 4
 1033 0002 87B0     		sub	sp, sp, #28
 1034              	.LCFI21:
 1035              		.cfi_def_cfa_offset 32
 1036 0004 0390     		str	r0, [sp, #12]
 1037 0006 0291     		str	r1, [sp, #8]
 1038 0008 0192     		str	r2, [sp, #4]
 1039 000a 0093     		str	r3, [sp, #0]
 1040              		.loc 2 408 0
 1041 000c 039B     		ldr	r3, [sp, #12]
 1042 000e DB69     		ldr	r3, [r3, #28]
 1043 0010 0493     		str	r3, [sp, #16]
 1044              		.loc 2 409 0
 1045 0012 4FF00003 		mov	r3, #0
 1046 0016 0593     		str	r3, [sp, #20]
 1047              		.loc 2 411 0
 1048 0018 019B     		ldr	r3, [sp, #4]
 1049 001a 002B     		cmp	r3, #0
 1050              	.LBB14:
 1051              		.loc 2 413 0
 1052 001c 4FF02003 		mov	r3, #32
 1053              	@ 413 "../chibios_2.6.3/os/kernel/src/chqueues.c" 1
 1054 0020 83F31188 		msr     BASEPRI, r3
 1055              	@ 0 "" 2
 1056              		.thumb
 1057              	.LBE14:
 1058              		.loc 2 415 0
 1059 0024 0CE0     		b	.L53
 1060              		.cfi_offset 14, -4
 1061              	.L55:
ARM GAS  C:\Users\z80\AppData\Local\Temp\ccqOfh7r.s 			page 20


 1062              		.loc 2 416 0
 1063 0026 0398     		ldr	r0, [sp, #12]
 1064 0028 0099     		ldr	r1, [sp, #0]
 1065 002a FFF7FEFF 		bl	qwait
 1066 002e 0346     		mov	r3, r0
 1067 0030 002B     		cmp	r3, #0
 1068 0032 05D0     		beq	.L53
 1069              	.LBB15:
 1070              		.loc 2 417 0
 1071 0034 4FF00003 		mov	r3, #0
 1072              	@ 417 "../chibios_2.6.3/os/kernel/src/chqueues.c" 1
 1073 0038 83F31188 		msr     BASEPRI, r3
 1074              	@ 0 "" 2
 1075              		.thumb
 1076              	.LBE15:
 1077              		.loc 2 418 0
 1078 003c 059B     		ldr	r3, [sp, #20]
 1079 003e 3DE0     		b	.L54
 1080              	.L53:
 1081              		.loc 2 415 0 discriminator 1
 1082 0040 039B     		ldr	r3, [sp, #12]
 1083 0042 9B68     		ldr	r3, [r3, #8]
 1084 0044 002B     		cmp	r3, #0
 1085 0046 EED0     		beq	.L55
 1086              		.loc 2 421 0
 1087 0048 039B     		ldr	r3, [sp, #12]
 1088 004a 9B68     		ldr	r3, [r3, #8]
 1089 004c 03F1FF32 		add	r2, r3, #-1
 1090 0050 039B     		ldr	r3, [sp, #12]
 1091 0052 9A60     		str	r2, [r3, #8]
 1092              		.loc 2 422 0
 1093 0054 039B     		ldr	r3, [sp, #12]
 1094 0056 5B69     		ldr	r3, [r3, #20]
 1095 0058 029A     		ldr	r2, [sp, #8]
 1096 005a 1278     		ldrb	r2, [r2, #0]	@ zero_extendqisi2
 1097 005c 1A70     		strb	r2, [r3, #0]
 1098 005e 03F10102 		add	r2, r3, #1
 1099 0062 039B     		ldr	r3, [sp, #12]
 1100 0064 5A61     		str	r2, [r3, #20]
 1101 0066 029B     		ldr	r3, [sp, #8]
 1102 0068 03F10103 		add	r3, r3, #1
 1103 006c 0293     		str	r3, [sp, #8]
 1104              		.loc 2 423 0
 1105 006e 039B     		ldr	r3, [sp, #12]
 1106 0070 5A69     		ldr	r2, [r3, #20]
 1107 0072 039B     		ldr	r3, [sp, #12]
 1108 0074 1B69     		ldr	r3, [r3, #16]
 1109 0076 9A42     		cmp	r2, r3
 1110 0078 03D3     		bcc	.L56
 1111              		.loc 2 424 0
 1112 007a 039B     		ldr	r3, [sp, #12]
 1113 007c DA68     		ldr	r2, [r3, #12]
 1114 007e 039B     		ldr	r3, [sp, #12]
 1115 0080 5A61     		str	r2, [r3, #20]
 1116              	.L56:
 1117              		.loc 2 426 0
 1118 0082 049B     		ldr	r3, [sp, #16]
ARM GAS  C:\Users\z80\AppData\Local\Temp\ccqOfh7r.s 			page 21


 1119 0084 002B     		cmp	r3, #0
 1120 0086 02D0     		beq	.L57
 1121              		.loc 2 427 0
 1122 0088 049B     		ldr	r3, [sp, #16]
 1123 008a 0398     		ldr	r0, [sp, #12]
 1124 008c 9847     		blx	r3
 1125              	.L57:
 1126              	.LBB16:
 1127              		.loc 2 429 0
 1128 008e 4FF00003 		mov	r3, #0
 1129              	@ 429 "../chibios_2.6.3/os/kernel/src/chqueues.c" 1
 1130 0092 83F31188 		msr     BASEPRI, r3
 1131              	@ 0 "" 2
 1132              		.thumb
 1133              	.LBE16:
 1134              		.loc 2 430 0
 1135 0096 059B     		ldr	r3, [sp, #20]
 1136 0098 03F10103 		add	r3, r3, #1
 1137 009c 0593     		str	r3, [sp, #20]
 1138              		.loc 2 431 0
 1139 009e 019B     		ldr	r3, [sp, #4]
 1140 00a0 03F1FF33 		add	r3, r3, #-1
 1141 00a4 0193     		str	r3, [sp, #4]
 1142 00a6 019B     		ldr	r3, [sp, #4]
 1143 00a8 002B     		cmp	r3, #0
 1144 00aa 01D1     		bne	.L58
 1145              		.loc 2 432 0
 1146 00ac 059B     		ldr	r3, [sp, #20]
 1147 00ae 05E0     		b	.L54
 1148              	.L58:
 1149              	.LBB17:
 1150              		.loc 2 433 0
 1151 00b0 4FF02003 		mov	r3, #32
 1152              	@ 433 "../chibios_2.6.3/os/kernel/src/chqueues.c" 1
 1153 00b4 83F31188 		msr     BASEPRI, r3
 1154              	@ 0 "" 2
 1155              		.thumb
 1156              	.LBE17:
 1157              		.loc 2 434 0
 1158 00b8 00BF     		nop
 1159              		.loc 2 415 0
 1160 00ba C1E7     		b	.L53
 1161              	.L54:
 1162              		.loc 2 435 0
 1163 00bc 1846     		mov	r0, r3
 1164 00be 07B0     		add	sp, sp, #28
 1165 00c0 00BD     		pop	{pc}
 1166              		.cfi_endproc
 1167              	.LFE17:
 1168              		.size	chOQWriteTimeout, .-chOQWriteTimeout
 1169 00c2 00BFAFF3 		.text
 1169      0080AFF3 
 1169      0080AFF3 
 1169      0080
 1170              	.Letext0: