ARM GAS  C:\Users\z80\AppData\Local\Temp\ccCrqbVE.s 			page 1


   1              		.syntax unified
   2              		.cpu cortex-m3
   3              		.fpu softvfp
   4              		.eabi_attribute 20, 1
   5              		.eabi_attribute 21, 1
   6              		.eabi_attribute 23, 3
   7              		.eabi_attribute 24, 1
   8              		.eabi_attribute 25, 1
   9              		.eabi_attribute 26, 1
  10              		.eabi_attribute 30, 6
  11              		.eabi_attribute 18, 4
  12              		.thumb
  13              		.file	"chvt.c"
  20 0000 43010000 		.text
  20      0200E300 
  20      00000201 
  20      FB0E0D00 
  20      01010101 
  21              	.Ltext0:
  22              		.cfi_sections	.debug_frame
  23              		.global	vtlist
  24              		.section	.bss.vtlist,"aw",%nobits
  25              		.align	2
  26              		.type	vtlist, %object
  27              		.size	vtlist, 16
  28              	vtlist:
  29 0000 00000000 		.space	16
  29      00000000 
  29      00000000 
  29      00000000 
  30              		.section	.text._vt_init,"ax",%progbits
  31              		.align	2
  32              		.p2align 4,,15
  33              		.global	_vt_init
  34              		.thumb
  35              		.thumb_func
  36              		.type	_vt_init, %function
  37              	_vt_init:
  38              	.LFB7:
  39              		.file 1 "../chibios_2.6.3/os/kernel/src/chvt.c"
  40              		.loc 1 50 0
  41              		.cfi_startproc
  42              		@ args = 0, pretend = 0, frame = 0
  43              		@ frame_needed = 0, uses_anonymous_args = 0
  44              		@ link register save eliminated.
  45              		.loc 1 52 0
  46 0000 40F20002 		movw	r2, #:lower16:vtlist
  47 0004 C0F20002 		movt	r2, #:upper16:vtlist
  48 0008 40F20003 		movw	r3, #:lower16:vtlist
  49 000c C0F20003 		movt	r3, #:upper16:vtlist
  50 0010 5A60     		str	r2, [r3, #4]
ARM GAS  C:\Users\z80\AppData\Local\Temp\ccCrqbVE.s 			page 2


  51 0012 40F20003 		movw	r3, #:lower16:vtlist
  52 0016 C0F20003 		movt	r3, #:upper16:vtlist
  53 001a 5A68     		ldr	r2, [r3, #4]
  54 001c 40F20003 		movw	r3, #:lower16:vtlist
  55 0020 C0F20003 		movt	r3, #:upper16:vtlist
  56 0024 1A60     		str	r2, [r3, #0]
  57              		.loc 1 53 0
  58 0026 40F20003 		movw	r3, #:lower16:vtlist
  59 002a C0F20003 		movt	r3, #:upper16:vtlist
  60 002e 4FF0FF32 		mov	r2, #-1
  61 0032 9A60     		str	r2, [r3, #8]
  62              		.loc 1 54 0
  63 0034 40F20003 		movw	r3, #:lower16:vtlist
  64 0038 C0F20003 		movt	r3, #:upper16:vtlist
  65 003c 4FF00002 		mov	r2, #0
  66 0040 DA60     		str	r2, [r3, #12]
  67              		.loc 1 55 0
  68 0042 7047     		bx	lr
  69              		.cfi_endproc
  70              	.LFE7:
  71              		.size	_vt_init, .-_vt_init
  72 0044 AFF30080 		.section	.text.chVTSetI,"ax",%progbits
  72      AFF30080 
  72      AFF30080 
  73              		.align	2
  74              		.p2align 4,,15
  75              		.global	chVTSetI
  76              		.thumb
  77              		.thumb_func
  78              		.type	chVTSetI, %function
  79              	chVTSetI:
  80              	.LFB8:
  81              		.loc 1 76 0
  82              		.cfi_startproc
  83              		@ args = 0, pretend = 0, frame = 24
  84              		@ frame_needed = 0, uses_anonymous_args = 0
  85              		@ link register save eliminated.
  86 0000 86B0     		sub	sp, sp, #24
  87              	.LCFI0:
  88              		.cfi_def_cfa_offset 24
  89 0002 0390     		str	r0, [sp, #12]
  90 0004 0291     		str	r1, [sp, #8]
  91 0006 0192     		str	r2, [sp, #4]
  92 0008 0093     		str	r3, [sp, #0]
  93              		.loc 1 80 0
  94 000a 039B     		ldr	r3, [sp, #12]
  95 000c 002B     		cmp	r3, #0
  96 000e 04D0     		beq	.L4
  97              		.loc 1 80 0 is_stmt 0 discriminator 1
  98 0010 019B     		ldr	r3, [sp, #4]
  99 0012 002B     		cmp	r3, #0
 100 0014 01D0     		beq	.L4
 101              		.loc 1 80 0 discriminator 3
 102 0016 029B     		ldr	r3, [sp, #8]
 103 0018 002B     		cmp	r3, #0
 104              	.L4:
 105              		.loc 1 83 0 is_stmt 1
ARM GAS  C:\Users\z80\AppData\Local\Temp\ccCrqbVE.s 			page 3


 106 001a 039B     		ldr	r3, [sp, #12]
 107 001c 009A     		ldr	r2, [sp, #0]
 108 001e 1A61     		str	r2, [r3, #16]
 109              		.loc 1 84 0
 110 0020 039B     		ldr	r3, [sp, #12]
 111 0022 019A     		ldr	r2, [sp, #4]
 112 0024 DA60     		str	r2, [r3, #12]
 113              		.loc 1 85 0
 114 0026 40F20003 		movw	r3, #:lower16:vtlist
 115 002a C0F20003 		movt	r3, #:upper16:vtlist
 116 002e 1B68     		ldr	r3, [r3, #0]
 117 0030 0593     		str	r3, [sp, #20]
 118              		.loc 1 86 0
 119 0032 08E0     		b	.L5
 120              	.L6:
 121              		.loc 1 87 0
 122 0034 059B     		ldr	r3, [sp, #20]
 123 0036 9B68     		ldr	r3, [r3, #8]
 124 0038 029A     		ldr	r2, [sp, #8]
 125 003a C3EB0203 		rsb	r3, r3, r2
 126 003e 0293     		str	r3, [sp, #8]
 127              		.loc 1 88 0
 128 0040 059B     		ldr	r3, [sp, #20]
 129 0042 1B68     		ldr	r3, [r3, #0]
 130 0044 0593     		str	r3, [sp, #20]
 131              	.L5:
 132              		.loc 1 86 0 discriminator 1
 133 0046 059B     		ldr	r3, [sp, #20]
 134 0048 9A68     		ldr	r2, [r3, #8]
 135 004a 029B     		ldr	r3, [sp, #8]
 136 004c 9A42     		cmp	r2, r3
 137 004e F1D3     		bcc	.L6
 138              		.loc 1 91 0
 139 0050 039B     		ldr	r3, [sp, #12]
 140 0052 059A     		ldr	r2, [sp, #20]
 141 0054 1A60     		str	r2, [r3, #0]
 142 0056 039B     		ldr	r3, [sp, #12]
 143 0058 1B68     		ldr	r3, [r3, #0]
 144 005a 5A68     		ldr	r2, [r3, #4]
 145 005c 039B     		ldr	r3, [sp, #12]
 146 005e 5A60     		str	r2, [r3, #4]
 147              		.loc 1 92 0
 148 0060 039B     		ldr	r3, [sp, #12]
 149 0062 5B68     		ldr	r3, [r3, #4]
 150 0064 059A     		ldr	r2, [sp, #20]
 151 0066 0399     		ldr	r1, [sp, #12]
 152 0068 5160     		str	r1, [r2, #4]
 153 006a 059A     		ldr	r2, [sp, #20]
 154 006c 5268     		ldr	r2, [r2, #4]
 155 006e 1A60     		str	r2, [r3, #0]
 156              		.loc 1 93 0
 157 0070 039B     		ldr	r3, [sp, #12]
 158 0072 029A     		ldr	r2, [sp, #8]
 159 0074 9A60     		str	r2, [r3, #8]
 160              		.loc 1 94 0
 161 0076 059A     		ldr	r2, [sp, #20]
 162 0078 40F20003 		movw	r3, #:lower16:vtlist
ARM GAS  C:\Users\z80\AppData\Local\Temp\ccCrqbVE.s 			page 4


 163 007c C0F20003 		movt	r3, #:upper16:vtlist
 164 0080 9A42     		cmp	r2, r3
 165 0082 06D0     		beq	.L2
 166              		.loc 1 95 0
 167 0084 059B     		ldr	r3, [sp, #20]
 168 0086 9A68     		ldr	r2, [r3, #8]
 169 0088 029B     		ldr	r3, [sp, #8]
 170 008a C3EB0202 		rsb	r2, r3, r2
 171 008e 059B     		ldr	r3, [sp, #20]
 172 0090 9A60     		str	r2, [r3, #8]
 173              	.L2:
 174              		.loc 1 96 0
 175 0092 06B0     		add	sp, sp, #24
 176 0094 7047     		bx	lr
 177              		.cfi_endproc
 178              	.LFE8:
 179              		.size	chVTSetI, .-chVTSetI
 180 0096 00BFAFF3 		.section	.text.chVTResetI,"ax",%progbits
 180      0080AFF3 
 180      0080
 181              		.align	2
 182              		.p2align 4,,15
 183              		.global	chVTResetI
 184              		.thumb
 185              		.thumb_func
 186              		.type	chVTResetI, %function
 187              	chVTResetI:
 188              	.LFB9:
 189              		.loc 1 106 0
 190              		.cfi_startproc
 191              		@ args = 0, pretend = 0, frame = 8
 192              		@ frame_needed = 0, uses_anonymous_args = 0
 193              		@ link register save eliminated.
 194 0000 82B0     		sub	sp, sp, #8
 195              	.LCFI1:
 196              		.cfi_def_cfa_offset 8
 197 0002 0190     		str	r0, [sp, #4]
 198              		.loc 1 109 0
 199 0004 019B     		ldr	r3, [sp, #4]
 200 0006 002B     		cmp	r3, #0
 201              		.loc 1 110 0
 202 0008 019B     		ldr	r3, [sp, #4]
 203 000a DB68     		ldr	r3, [r3, #12]
 204 000c 002B     		cmp	r3, #0
 205              		.loc 1 114 0
 206 000e 019B     		ldr	r3, [sp, #4]
 207 0010 1A68     		ldr	r2, [r3, #0]
 208 0012 40F20003 		movw	r3, #:lower16:vtlist
 209 0016 C0F20003 		movt	r3, #:upper16:vtlist
 210 001a 9A42     		cmp	r2, r3
 211 001c 08D0     		beq	.L11
 212              		.loc 1 115 0
 213 001e 019B     		ldr	r3, [sp, #4]
 214 0020 1B68     		ldr	r3, [r3, #0]
 215 0022 019A     		ldr	r2, [sp, #4]
 216 0024 1268     		ldr	r2, [r2, #0]
 217 0026 9168     		ldr	r1, [r2, #8]
ARM GAS  C:\Users\z80\AppData\Local\Temp\ccCrqbVE.s 			page 5


 218 0028 019A     		ldr	r2, [sp, #4]
 219 002a 9268     		ldr	r2, [r2, #8]
 220 002c 0A44     		add	r2, r1, r2
 221 002e 9A60     		str	r2, [r3, #8]
 222              	.L11:
 223              		.loc 1 116 0
 224 0030 019B     		ldr	r3, [sp, #4]
 225 0032 5B68     		ldr	r3, [r3, #4]
 226 0034 019A     		ldr	r2, [sp, #4]
 227 0036 1268     		ldr	r2, [r2, #0]
 228 0038 1A60     		str	r2, [r3, #0]
 229              		.loc 1 117 0
 230 003a 019B     		ldr	r3, [sp, #4]
 231 003c 1B68     		ldr	r3, [r3, #0]
 232 003e 019A     		ldr	r2, [sp, #4]
 233 0040 5268     		ldr	r2, [r2, #4]
 234 0042 5A60     		str	r2, [r3, #4]
 235              		.loc 1 118 0
 236 0044 019B     		ldr	r3, [sp, #4]
 237 0046 4FF00002 		mov	r2, #0
 238 004a DA60     		str	r2, [r3, #12]
 239              		.loc 1 119 0
 240 004c 02B0     		add	sp, sp, #8
 241 004e 7047     		bx	lr
 242              		.cfi_endproc
 243              	.LFE9:
 244              		.size	chVTResetI, .-chVTResetI
 245              		.text
 246              	.Letext0: