ARM GAS  C:\Users\z80\AppData\Local\Temp\ccs2orld.s 			page 1


   1              		.syntax unified
   2              		.cpu cortex-m3
   3              		.fpu softvfp
   4              		.eabi_attribute 20, 1
   5              		.eabi_attribute 21, 1
   6              		.eabi_attribute 23, 3
   7              		.eabi_attribute 24, 1
   8              		.eabi_attribute 25, 1
   9              		.eabi_attribute 26, 1
  10              		.eabi_attribute 30, 6
  11              		.eabi_attribute 18, 4
  12              		.thumb
  13              		.file	"core_cm3.c"
  20 0000 29020000 		.text
  20      02007300 
  20      00000201 
  20      FB0E0D00 
  20      01010101 
  21              	.Ltext0:
  22              		.cfi_sections	.debug_frame
  23              		.section	.text.__get_PSP,"ax",%progbits
  24              		.align	2
  25              		.p2align 4,,15
  26              		.global	__get_PSP
  27              		.thumb
  28              		.thumb_func
  29              		.type	__get_PSP, %function
  30              	__get_PSP:
  31              	.LFB0:
  32              		.file 1 "stdperiph/core_cm3.c"
  33              		.loc 1 444 0
  34              		.cfi_startproc
  35              		@ Naked Function: prologue and epilogue provided by programmer.
  36              		@ args = 0, pretend = 0, frame = 0
  37              		@ frame_needed = 0, uses_anonymous_args = 0
  38              		.loc 1 445 0
  39 0000 4FF00004 		mov	r4, #0
  40              		.loc 1 447 0
  41              	@ 447 "stdperiph/core_cm3.c" 1
  42 0004 EFF30984 		MRS r4, psp
  43 0008 2046     		MOV r0, r4 
  44 000a 7047     		BX  lr     
  45              		
  46              	@ 0 "" 2
  47              		.loc 1 450 0
  48              		.thumb
  49 000c 2346     		mov	r3, r4
  50              		.loc 1 451 0
  51 000e 1846     		mov	r0, r3
  52              		.cfi_endproc
  53              	.LFE0:
ARM GAS  C:\Users\z80\AppData\Local\Temp\ccs2orld.s 			page 2


  54              		.size	__get_PSP, .-__get_PSP
  55              		.section	.text.__set_PSP,"ax",%progbits
  56              		.align	2
  57              		.p2align 4,,15
  58              		.global	__set_PSP
  59              		.thumb
  60              		.thumb_func
  61              		.type	__set_PSP, %function
  62              	__set_PSP:
  63              	.LFB1:
  64              		.loc 1 463 0
  65              		.cfi_startproc
  66              		@ Naked Function: prologue and epilogue provided by programmer.
  67              		@ args = 0, pretend = 0, frame = 0
  68              		@ frame_needed = 0, uses_anonymous_args = 0
  69 0000 0346     		mov	r3, r0
  70              		.loc 1 464 0
  71              	@ 464 "stdperiph/core_cm3.c" 1
  72 0002 83F30988 		MSR psp, r3
  73 0006 7047     		BX  lr     
  74              		
  75              	@ 0 "" 2
  76              		.loc 1 466 0
  77              		.thumb
  78              		.cfi_endproc
  79              	.LFE1:
  80              		.size	__set_PSP, .-__set_PSP
  81 0008 AFF30080 		.section	.text.__get_MSP,"ax",%progbits
  81      AFF30080 
  82              		.align	2
  83              		.p2align 4,,15
  84              		.global	__get_MSP
  85              		.thumb
  86              		.thumb_func
  87              		.type	__get_MSP, %function
  88              	__get_MSP:
  89              	.LFB2:
  90              		.loc 1 478 0
  91              		.cfi_startproc
  92              		@ Naked Function: prologue and epilogue provided by programmer.
  93              		@ args = 0, pretend = 0, frame = 0
  94              		@ frame_needed = 0, uses_anonymous_args = 0
  95              		.loc 1 479 0
  96 0000 4FF00004 		mov	r4, #0
  97              		.loc 1 481 0
  98              	@ 481 "stdperiph/core_cm3.c" 1
  99 0004 EFF30884 		MRS r4, msp
 100 0008 2046     		MOV r0, r4 
 101 000a 7047     		BX  lr     
 102              		
 103              	@ 0 "" 2
 104              		.loc 1 484 0
 105              		.thumb
 106 000c 2346     		mov	r3, r4
 107              		.loc 1 485 0
 108 000e 1846     		mov	r0, r3
 109              		.cfi_endproc
ARM GAS  C:\Users\z80\AppData\Local\Temp\ccs2orld.s 			page 3


 110              	.LFE2:
 111              		.size	__get_MSP, .-__get_MSP
 112              		.section	.text.__set_MSP,"ax",%progbits
 113              		.align	2
 114              		.p2align 4,,15
 115              		.global	__set_MSP
 116              		.thumb
 117              		.thumb_func
 118              		.type	__set_MSP, %function
 119              	__set_MSP:
 120              	.LFB3:
 121              		.loc 1 497 0
 122              		.cfi_startproc
 123              		@ Naked Function: prologue and epilogue provided by programmer.
 124              		@ args = 0, pretend = 0, frame = 0
 125              		@ frame_needed = 0, uses_anonymous_args = 0
 126 0000 0346     		mov	r3, r0
 127              		.loc 1 498 0
 128              	@ 498 "stdperiph/core_cm3.c" 1
 129 0002 83F30888 		MSR msp, r3
 130 0006 7047     		BX  lr     
 131              		
 132              	@ 0 "" 2
 133              		.loc 1 500 0
 134              		.thumb
 135              		.cfi_endproc
 136              	.LFE3:
 137              		.size	__set_MSP, .-__set_MSP
 138 0008 AFF30080 		.section	.text.__get_BASEPRI,"ax",%progbits
 138      AFF30080 
 139              		.align	2
 140              		.p2align 4,,15
 141              		.global	__get_BASEPRI
 142              		.thumb
 143              		.thumb_func
 144              		.type	__get_BASEPRI, %function
 145              	__get_BASEPRI:
 146              	.LFB4:
 147              		.loc 1 510 0
 148              		.cfi_startproc
 149              		@ args = 0, pretend = 0, frame = 8
 150              		@ frame_needed = 0, uses_anonymous_args = 0
 151              		@ link register save eliminated.
 152 0000 10B4     		push	{r4}
 153              	.LCFI0:
 154              		.cfi_def_cfa_offset 4
 155 0002 83B0     		sub	sp, sp, #12
 156              	.LCFI1:
 157              		.cfi_def_cfa_offset 16
 158              		.loc 1 511 0
 159 0004 4FF00003 		mov	r3, #0
 160 0008 0193     		str	r3, [sp, #4]
 161              		.loc 1 513 0
 162              	@ 513 "stdperiph/core_cm3.c" 1
 163 000a EFF31284 		MRS r4, basepri_max
 164              	@ 0 "" 2
 165              		.thumb
ARM GAS  C:\Users\z80\AppData\Local\Temp\ccs2orld.s 			page 4


 166 000e 0194     		str	r4, [sp, #4]
 167              		.loc 1 514 0
 168 0010 019B     		ldr	r3, [sp, #4]
 169              		.loc 1 515 0
 170 0012 1846     		mov	r0, r3
 171 0014 03B0     		add	sp, sp, #12
 172 0016 10BC     		pop	{r4}
 173 0018 7047     		bx	lr
 174              		.cfi_offset 4, -4
 175              		.cfi_endproc
 176              	.LFE4:
 177              		.size	__get_BASEPRI, .-__get_BASEPRI
 178 001a 00BFAFF3 		.section	.text.__set_BASEPRI,"ax",%progbits
 178      0080
 179              		.align	2
 180              		.p2align 4,,15
 181              		.global	__set_BASEPRI
 182              		.thumb
 183              		.thumb_func
 184              		.type	__set_BASEPRI, %function
 185              	__set_BASEPRI:
 186              	.LFB5:
 187              		.loc 1 525 0
 188              		.cfi_startproc
 189              		@ args = 0, pretend = 0, frame = 8
 190              		@ frame_needed = 0, uses_anonymous_args = 0
 191              		@ link register save eliminated.
 192 0000 82B0     		sub	sp, sp, #8
 193              	.LCFI2:
 194              		.cfi_def_cfa_offset 8
 195 0002 0190     		str	r0, [sp, #4]
 196              		.loc 1 526 0
 197 0004 019B     		ldr	r3, [sp, #4]
 198              	@ 526 "stdperiph/core_cm3.c" 1
 199 0006 83F31188 		MSR basepri, r3
 200              	@ 0 "" 2
 201              		.loc 1 527 0
 202              		.thumb
 203 000a 02B0     		add	sp, sp, #8
 204 000c 7047     		bx	lr
 205              		.cfi_endproc
 206              	.LFE5:
 207              		.size	__set_BASEPRI, .-__set_BASEPRI
 208 000e 00BF     		.section	.text.__get_PRIMASK,"ax",%progbits
 209              		.align	2
 210              		.p2align 4,,15
 211              		.global	__get_PRIMASK
 212              		.thumb
 213              		.thumb_func
 214              		.type	__get_PRIMASK, %function
 215              	__get_PRIMASK:
 216              	.LFB6:
 217              		.loc 1 537 0
 218              		.cfi_startproc
 219              		@ args = 0, pretend = 0, frame = 8
 220              		@ frame_needed = 0, uses_anonymous_args = 0
 221              		@ link register save eliminated.
ARM GAS  C:\Users\z80\AppData\Local\Temp\ccs2orld.s 			page 5


 222 0000 10B4     		push	{r4}
 223              	.LCFI3:
 224              		.cfi_def_cfa_offset 4
 225 0002 83B0     		sub	sp, sp, #12
 226              	.LCFI4:
 227              		.cfi_def_cfa_offset 16
 228              		.loc 1 538 0
 229 0004 4FF00003 		mov	r3, #0
 230 0008 0193     		str	r3, [sp, #4]
 231              		.loc 1 540 0
 232              	@ 540 "stdperiph/core_cm3.c" 1
 233 000a EFF31084 		MRS r4, primask
 234              	@ 0 "" 2
 235              		.thumb
 236 000e 0194     		str	r4, [sp, #4]
 237              		.loc 1 541 0
 238 0010 019B     		ldr	r3, [sp, #4]
 239              		.loc 1 542 0
 240 0012 1846     		mov	r0, r3
 241 0014 03B0     		add	sp, sp, #12
 242 0016 10BC     		pop	{r4}
 243 0018 7047     		bx	lr
 244              		.cfi_offset 4, -4
 245              		.cfi_endproc
 246              	.LFE6:
 247              		.size	__get_PRIMASK, .-__get_PRIMASK
 248 001a 00BFAFF3 		.section	.text.__set_PRIMASK,"ax",%progbits
 248      0080
 249              		.align	2
 250              		.p2align 4,,15
 251              		.global	__set_PRIMASK
 252              		.thumb
 253              		.thumb_func
 254              		.type	__set_PRIMASK, %function
 255              	__set_PRIMASK:
 256              	.LFB7:
 257              		.loc 1 552 0
 258              		.cfi_startproc
 259              		@ args = 0, pretend = 0, frame = 8
 260              		@ frame_needed = 0, uses_anonymous_args = 0
 261              		@ link register save eliminated.
 262 0000 82B0     		sub	sp, sp, #8
 263              	.LCFI5:
 264              		.cfi_def_cfa_offset 8
 265 0002 0190     		str	r0, [sp, #4]
 266              		.loc 1 553 0
 267 0004 019B     		ldr	r3, [sp, #4]
 268              	@ 553 "stdperiph/core_cm3.c" 1
 269 0006 83F31088 		MSR primask, r3
 270              	@ 0 "" 2
 271              		.loc 1 554 0
 272              		.thumb
 273 000a 02B0     		add	sp, sp, #8
 274 000c 7047     		bx	lr
 275              		.cfi_endproc
 276              	.LFE7:
 277              		.size	__set_PRIMASK, .-__set_PRIMASK
ARM GAS  C:\Users\z80\AppData\Local\Temp\ccs2orld.s 			page 6


 278 000e 00BF     		.section	.text.__get_FAULTMASK,"ax",%progbits
 279              		.align	2
 280              		.p2align 4,,15
 281              		.global	__get_FAULTMASK
 282              		.thumb
 283              		.thumb_func
 284              		.type	__get_FAULTMASK, %function
 285              	__get_FAULTMASK:
 286              	.LFB8:
 287              		.loc 1 564 0
 288              		.cfi_startproc
 289              		@ args = 0, pretend = 0, frame = 8
 290              		@ frame_needed = 0, uses_anonymous_args = 0
 291              		@ link register save eliminated.
 292 0000 10B4     		push	{r4}
 293              	.LCFI6:
 294              		.cfi_def_cfa_offset 4
 295 0002 83B0     		sub	sp, sp, #12
 296              	.LCFI7:
 297              		.cfi_def_cfa_offset 16
 298              		.loc 1 565 0
 299 0004 4FF00003 		mov	r3, #0
 300 0008 0193     		str	r3, [sp, #4]
 301              		.loc 1 567 0
 302              	@ 567 "stdperiph/core_cm3.c" 1
 303 000a EFF31384 		MRS r4, faultmask
 304              	@ 0 "" 2
 305              		.thumb
 306 000e 0194     		str	r4, [sp, #4]
 307              		.loc 1 568 0
 308 0010 019B     		ldr	r3, [sp, #4]
 309              		.loc 1 569 0
 310 0012 1846     		mov	r0, r3
 311 0014 03B0     		add	sp, sp, #12
 312 0016 10BC     		pop	{r4}
 313 0018 7047     		bx	lr
 314              		.cfi_offset 4, -4
 315              		.cfi_endproc
 316              	.LFE8:
 317              		.size	__get_FAULTMASK, .-__get_FAULTMASK
 318 001a 00BFAFF3 		.section	.text.__set_FAULTMASK,"ax",%progbits
 318      0080
 319              		.align	2
 320              		.p2align 4,,15
 321              		.global	__set_FAULTMASK
 322              		.thumb
 323              		.thumb_func
 324              		.type	__set_FAULTMASK, %function
 325              	__set_FAULTMASK:
 326              	.LFB9:
 327              		.loc 1 579 0
 328              		.cfi_startproc
 329              		@ args = 0, pretend = 0, frame = 8
 330              		@ frame_needed = 0, uses_anonymous_args = 0
 331              		@ link register save eliminated.
 332 0000 82B0     		sub	sp, sp, #8
 333              	.LCFI8:
ARM GAS  C:\Users\z80\AppData\Local\Temp\ccs2orld.s 			page 7


 334              		.cfi_def_cfa_offset 8
 335 0002 0190     		str	r0, [sp, #4]
 336              		.loc 1 580 0
 337 0004 019B     		ldr	r3, [sp, #4]
 338              	@ 580 "stdperiph/core_cm3.c" 1
 339 0006 83F31388 		MSR faultmask, r3
 340              	@ 0 "" 2
 341              		.loc 1 581 0
 342              		.thumb
 343 000a 02B0     		add	sp, sp, #8
 344 000c 7047     		bx	lr
 345              		.cfi_endproc
 346              	.LFE9:
 347              		.size	__set_FAULTMASK, .-__set_FAULTMASK
 348 000e 00BF     		.section	.text.__get_CONTROL,"ax",%progbits
 349              		.align	2
 350              		.p2align 4,,15
 351              		.global	__get_CONTROL
 352              		.thumb
 353              		.thumb_func
 354              		.type	__get_CONTROL, %function
 355              	__get_CONTROL:
 356              	.LFB10:
 357              		.loc 1 591 0
 358              		.cfi_startproc
 359              		@ args = 0, pretend = 0, frame = 8
 360              		@ frame_needed = 0, uses_anonymous_args = 0
 361              		@ link register save eliminated.
 362 0000 10B4     		push	{r4}
 363              	.LCFI9:
 364              		.cfi_def_cfa_offset 4
 365 0002 83B0     		sub	sp, sp, #12
 366              	.LCFI10:
 367              		.cfi_def_cfa_offset 16
 368              		.loc 1 592 0
 369 0004 4FF00003 		mov	r3, #0
 370 0008 0193     		str	r3, [sp, #4]
 371              		.loc 1 594 0
 372              	@ 594 "stdperiph/core_cm3.c" 1
 373 000a EFF31484 		MRS r4, control
 374              	@ 0 "" 2
 375              		.thumb
 376 000e 0194     		str	r4, [sp, #4]
 377              		.loc 1 595 0
 378 0010 019B     		ldr	r3, [sp, #4]
 379              		.loc 1 596 0
 380 0012 1846     		mov	r0, r3
 381 0014 03B0     		add	sp, sp, #12
 382 0016 10BC     		pop	{r4}
 383 0018 7047     		bx	lr
 384              		.cfi_offset 4, -4
 385              		.cfi_endproc
 386              	.LFE10:
 387              		.size	__get_CONTROL, .-__get_CONTROL
 388 001a 00BFAFF3 		.section	.text.__set_CONTROL,"ax",%progbits
 388      0080
 389              		.align	2
ARM GAS  C:\Users\z80\AppData\Local\Temp\ccs2orld.s 			page 8


 390              		.p2align 4,,15
 391              		.global	__set_CONTROL
 392              		.thumb
 393              		.thumb_func
 394              		.type	__set_CONTROL, %function
 395              	__set_CONTROL:
 396              	.LFB11:
 397              		.loc 1 606 0
 398              		.cfi_startproc
 399              		@ args = 0, pretend = 0, frame = 8
 400              		@ frame_needed = 0, uses_anonymous_args = 0
 401              		@ link register save eliminated.
 402 0000 82B0     		sub	sp, sp, #8
 403              	.LCFI11:
 404              		.cfi_def_cfa_offset 8
 405 0002 0190     		str	r0, [sp, #4]
 406              		.loc 1 607 0
 407 0004 019B     		ldr	r3, [sp, #4]
 408              	@ 607 "stdperiph/core_cm3.c" 1
 409 0006 83F31488 		MSR control, r3
 410              	@ 0 "" 2
 411              		.loc 1 608 0
 412              		.thumb
 413 000a 02B0     		add	sp, sp, #8
 414 000c 7047     		bx	lr
 415              		.cfi_endproc
 416              	.LFE11:
 417              		.size	__set_CONTROL, .-__set_CONTROL
 418 000e 00BF     		.section	.text.__REV,"ax",%progbits
 419              		.align	2
 420              		.p2align 4,,15
 421              		.global	__REV
 422              		.thumb
 423              		.thumb_func
 424              		.type	__REV, %function
 425              	__REV:
 426              	.LFB12:
 427              		.loc 1 620 0
 428              		.cfi_startproc
 429              		@ args = 0, pretend = 0, frame = 16
 430              		@ frame_needed = 0, uses_anonymous_args = 0
 431              		@ link register save eliminated.
 432 0000 10B4     		push	{r4}
 433              	.LCFI12:
 434              		.cfi_def_cfa_offset 4
 435 0002 85B0     		sub	sp, sp, #20
 436              	.LCFI13:
 437              		.cfi_def_cfa_offset 24
 438 0004 0190     		str	r0, [sp, #4]
 439              		.loc 1 621 0
 440 0006 4FF00003 		mov	r3, #0
 441 000a 0393     		str	r3, [sp, #12]
 442              		.loc 1 623 0
 443 000c 019B     		ldr	r3, [sp, #4]
 444              	@ 623 "stdperiph/core_cm3.c" 1
 445 000e 1CBA     		rev r4, r3
 446              	@ 0 "" 2
ARM GAS  C:\Users\z80\AppData\Local\Temp\ccs2orld.s 			page 9


 447              		.thumb
 448 0010 0394     		str	r4, [sp, #12]
 449              		.loc 1 624 0
 450 0012 039B     		ldr	r3, [sp, #12]
 451              		.loc 1 625 0
 452 0014 1846     		mov	r0, r3
 453 0016 05B0     		add	sp, sp, #20
 454 0018 10BC     		pop	{r4}
 455 001a 7047     		bx	lr
 456              		.cfi_offset 4, -4
 457              		.cfi_endproc
 458              	.LFE12:
 459              		.size	__REV, .-__REV
 460 001c AFF30080 		.section	.text.__REV16,"ax",%progbits
 461              		.align	2
 462              		.p2align 4,,15
 463              		.global	__REV16
 464              		.thumb
 465              		.thumb_func
 466              		.type	__REV16, %function
 467              	__REV16:
 468              	.LFB13:
 469              		.loc 1 636 0
 470              		.cfi_startproc
 471              		@ args = 0, pretend = 0, frame = 16
 472              		@ frame_needed = 0, uses_anonymous_args = 0
 473              		@ link register save eliminated.
 474 0000 10B4     		push	{r4}
 475              	.LCFI14:
 476              		.cfi_def_cfa_offset 4
 477 0002 85B0     		sub	sp, sp, #20
 478              	.LCFI15:
 479              		.cfi_def_cfa_offset 24
 480 0004 0346     		mov	r3, r0
 481 0006 ADF80630 		strh	r3, [sp, #6]	@ movhi
 482              		.loc 1 637 0
 483 000a 4FF00003 		mov	r3, #0
 484 000e 0393     		str	r3, [sp, #12]
 485              		.loc 1 639 0
 486 0010 BDF80630 		ldrh	r3, [sp, #6]	@ movhi
 487              	@ 639 "stdperiph/core_cm3.c" 1
 488 0014 5CBA     		rev16 r4, r3
 489              	@ 0 "" 2
 490              		.thumb
 491 0016 0394     		str	r4, [sp, #12]
 492              		.loc 1 640 0
 493 0018 039B     		ldr	r3, [sp, #12]
 494              		.loc 1 641 0
 495 001a 1846     		mov	r0, r3
 496 001c 05B0     		add	sp, sp, #20
 497 001e 10BC     		pop	{r4}
 498 0020 7047     		bx	lr
 499              		.cfi_offset 4, -4
 500              		.cfi_endproc
 501              	.LFE13:
 502              		.size	__REV16, .-__REV16
 503 0022 00BFAFF3 		.section	.text.__REVSH,"ax",%progbits
ARM GAS  C:\Users\z80\AppData\Local\Temp\ccs2orld.s 			page 10


 503      0080AFF3 
 503      0080AFF3 
 503      0080
 504              		.align	2
 505              		.p2align 4,,15
 506              		.global	__REVSH
 507              		.thumb
 508              		.thumb_func
 509              		.type	__REVSH, %function
 510              	__REVSH:
 511              	.LFB14:
 512              		.loc 1 652 0
 513              		.cfi_startproc
 514              		@ args = 0, pretend = 0, frame = 16
 515              		@ frame_needed = 0, uses_anonymous_args = 0
 516              		@ link register save eliminated.
 517 0000 10B4     		push	{r4}
 518              	.LCFI16:
 519              		.cfi_def_cfa_offset 4
 520 0002 85B0     		sub	sp, sp, #20
 521              	.LCFI17:
 522              		.cfi_def_cfa_offset 24
 523 0004 0346     		mov	r3, r0
 524 0006 ADF80630 		strh	r3, [sp, #6]	@ movhi
 525              		.loc 1 653 0
 526 000a 4FF00003 		mov	r3, #0
 527 000e 0393     		str	r3, [sp, #12]
 528              		.loc 1 655 0
 529 0010 BDF80630 		ldrh	r3, [sp, #6]	@ movhi
 530              	@ 655 "stdperiph/core_cm3.c" 1
 531 0014 DCBA     		revsh r4, r3
 532              	@ 0 "" 2
 533              		.thumb
 534 0016 0394     		str	r4, [sp, #12]
 535              		.loc 1 656 0
 536 0018 039B     		ldr	r3, [sp, #12]
 537              		.loc 1 657 0
 538 001a 1846     		mov	r0, r3
 539 001c 05B0     		add	sp, sp, #20
 540 001e 10BC     		pop	{r4}
 541 0020 7047     		bx	lr
 542              		.cfi_offset 4, -4
 543              		.cfi_endproc
 544              	.LFE14:
 545              		.size	__REVSH, .-__REVSH
 546 0022 00BFAFF3 		.section	.text.__RBIT,"ax",%progbits
 546      0080AFF3 
 546      0080AFF3 
 546      0080
 547              		.align	2
 548              		.p2align 4,,15
 549              		.global	__RBIT
 550              		.thumb
 551              		.thumb_func
 552              		.type	__RBIT, %function
 553              	__RBIT:
 554              	.LFB15:
ARM GAS  C:\Users\z80\AppData\Local\Temp\ccs2orld.s 			page 11


 555              		.loc 1 668 0
 556              		.cfi_startproc
 557              		@ args = 0, pretend = 0, frame = 16
 558              		@ frame_needed = 0, uses_anonymous_args = 0
 559              		@ link register save eliminated.
 560 0000 10B4     		push	{r4}
 561              	.LCFI18:
 562              		.cfi_def_cfa_offset 4
 563 0002 85B0     		sub	sp, sp, #20
 564              	.LCFI19:
 565              		.cfi_def_cfa_offset 24
 566 0004 0190     		str	r0, [sp, #4]
 567              		.loc 1 669 0
 568 0006 4FF00003 		mov	r3, #0
 569 000a 0393     		str	r3, [sp, #12]
 570              		.loc 1 671 0
 571 000c 019B     		ldr	r3, [sp, #4]
 572              	@ 671 "stdperiph/core_cm3.c" 1
 573 000e 93FAA3F4 		rbit r4, r3
 574              	@ 0 "" 2
 575              		.thumb
 576 0012 0394     		str	r4, [sp, #12]
 577              		.loc 1 672 0
 578 0014 039B     		ldr	r3, [sp, #12]
 579              		.loc 1 673 0
 580 0016 1846     		mov	r0, r3
 581 0018 05B0     		add	sp, sp, #20
 582 001a 10BC     		pop	{r4}
 583 001c 7047     		bx	lr
 584              		.cfi_offset 4, -4
 585              		.cfi_endproc
 586              	.LFE15:
 587              		.size	__RBIT, .-__RBIT
 588 001e 00BF     		.section	.text.__LDREXB,"ax",%progbits
 589              		.align	2
 590              		.p2align 4,,15
 591              		.global	__LDREXB
 592              		.thumb
 593              		.thumb_func
 594              		.type	__LDREXB, %function
 595              	__LDREXB:
 596              	.LFB16:
 597              		.loc 1 684 0
 598              		.cfi_startproc
 599              		@ args = 0, pretend = 0, frame = 16
 600              		@ frame_needed = 0, uses_anonymous_args = 0
 601              		@ link register save eliminated.
 602 0000 10B4     		push	{r4}
 603              	.LCFI20:
 604              		.cfi_def_cfa_offset 4
 605 0002 85B0     		sub	sp, sp, #20
 606              	.LCFI21:
 607              		.cfi_def_cfa_offset 24
 608 0004 0190     		str	r0, [sp, #4]
 609              		.loc 1 685 0
 610 0006 4FF00003 		mov	r3, #0
 611 000a 8DF80F30 		strb	r3, [sp, #15]
ARM GAS  C:\Users\z80\AppData\Local\Temp\ccs2orld.s 			page 12


 612              		.loc 1 687 0
 613 000e 019B     		ldr	r3, [sp, #4]
 614              	@ 687 "stdperiph/core_cm3.c" 1
 615 0010 D3E84F4F 		ldrexb r4, [r3]
 616              	@ 0 "" 2
 617              		.thumb
 618 0014 8DF80F40 		strb	r4, [sp, #15]
 619              		.loc 1 688 0
 620 0018 9DF80F30 		ldrb	r3, [sp, #15]	@ zero_extendqisi2
 621              		.loc 1 689 0
 622 001c 1846     		mov	r0, r3
 623 001e 05B0     		add	sp, sp, #20
 624 0020 10BC     		pop	{r4}
 625 0022 7047     		bx	lr
 626              		.cfi_offset 4, -4
 627              		.cfi_endproc
 628              	.LFE16:
 629              		.size	__LDREXB, .-__LDREXB
 630 0024 AFF30080 		.section	.text.__LDREXH,"ax",%progbits
 630      AFF30080 
 630      AFF30080 
 631              		.align	2
 632              		.p2align 4,,15
 633              		.global	__LDREXH
 634              		.thumb
 635              		.thumb_func
 636              		.type	__LDREXH, %function
 637              	__LDREXH:
 638              	.LFB17:
 639              		.loc 1 700 0
 640              		.cfi_startproc
 641              		@ args = 0, pretend = 0, frame = 16
 642              		@ frame_needed = 0, uses_anonymous_args = 0
 643              		@ link register save eliminated.
 644 0000 10B4     		push	{r4}
 645              	.LCFI22:
 646              		.cfi_def_cfa_offset 4
 647 0002 85B0     		sub	sp, sp, #20
 648              	.LCFI23:
 649              		.cfi_def_cfa_offset 24
 650 0004 0190     		str	r0, [sp, #4]
 651              		.loc 1 701 0
 652 0006 4FF00003 		mov	r3, #0
 653 000a ADF80E30 		strh	r3, [sp, #14]	@ movhi
 654              		.loc 1 703 0
 655 000e 019B     		ldr	r3, [sp, #4]
 656              	@ 703 "stdperiph/core_cm3.c" 1
 657 0010 D3E85F4F 		ldrexh r4, [r3]
 658              	@ 0 "" 2
 659              		.thumb
 660 0014 ADF80E40 		strh	r4, [sp, #14]	@ movhi
 661              		.loc 1 704 0
 662 0018 BDF80E30 		ldrh	r3, [sp, #14]
 663              		.loc 1 705 0
 664 001c 1846     		mov	r0, r3
 665 001e 05B0     		add	sp, sp, #20
 666 0020 10BC     		pop	{r4}
ARM GAS  C:\Users\z80\AppData\Local\Temp\ccs2orld.s 			page 13


 667 0022 7047     		bx	lr
 668              		.cfi_offset 4, -4
 669              		.cfi_endproc
 670              	.LFE17:
 671              		.size	__LDREXH, .-__LDREXH
 672 0024 AFF30080 		.section	.text.__LDREXW,"ax",%progbits
 672      AFF30080 
 672      AFF30080 
 673              		.align	2
 674              		.p2align 4,,15
 675              		.global	__LDREXW
 676              		.thumb
 677              		.thumb_func
 678              		.type	__LDREXW, %function
 679              	__LDREXW:
 680              	.LFB18:
 681              		.loc 1 716 0
 682              		.cfi_startproc
 683              		@ args = 0, pretend = 0, frame = 16
 684              		@ frame_needed = 0, uses_anonymous_args = 0
 685              		@ link register save eliminated.
 686 0000 10B4     		push	{r4}
 687              	.LCFI24:
 688              		.cfi_def_cfa_offset 4
 689 0002 85B0     		sub	sp, sp, #20
 690              	.LCFI25:
 691              		.cfi_def_cfa_offset 24
 692 0004 0190     		str	r0, [sp, #4]
 693              		.loc 1 717 0
 694 0006 4FF00003 		mov	r3, #0
 695 000a 0393     		str	r3, [sp, #12]
 696              		.loc 1 719 0
 697 000c 019B     		ldr	r3, [sp, #4]
 698              	@ 719 "stdperiph/core_cm3.c" 1
 699 000e 53E8004F 		ldrex r4, [r3]
 700              	@ 0 "" 2
 701              		.thumb
 702 0012 0394     		str	r4, [sp, #12]
 703              		.loc 1 720 0
 704 0014 039B     		ldr	r3, [sp, #12]
 705              		.loc 1 721 0
 706 0016 1846     		mov	r0, r3
 707 0018 05B0     		add	sp, sp, #20
 708 001a 10BC     		pop	{r4}
 709 001c 7047     		bx	lr
 710              		.cfi_offset 4, -4
 711              		.cfi_endproc
 712              	.LFE18:
 713              		.size	__LDREXW, .-__LDREXW
 714 001e 00BF     		.section	.text.__STREXB,"ax",%progbits
 715              		.align	2
 716              		.p2align 4,,15
 717              		.global	__STREXB
 718              		.thumb
 719              		.thumb_func
 720              		.type	__STREXB, %function
 721              	__STREXB:
ARM GAS  C:\Users\z80\AppData\Local\Temp\ccs2orld.s 			page 14


 722              	.LFB19:
 723              		.loc 1 733 0
 724              		.cfi_startproc
 725              		@ args = 0, pretend = 0, frame = 16
 726              		@ frame_needed = 0, uses_anonymous_args = 0
 727              		@ link register save eliminated.
 728 0000 10B4     		push	{r4}
 729              	.LCFI26:
 730              		.cfi_def_cfa_offset 4
 731 0002 85B0     		sub	sp, sp, #20
 732              	.LCFI27:
 733              		.cfi_def_cfa_offset 24
 734 0004 0346     		mov	r3, r0
 735 0006 0091     		str	r1, [sp, #0]
 736 0008 8DF80730 		strb	r3, [sp, #7]
 737              		.loc 1 734 0
 738 000c 4FF00003 		mov	r3, #0
 739 0010 0393     		str	r3, [sp, #12]
 740              		.loc 1 736 0
 741 0012 009B     		ldr	r3, [sp, #0]
 742 0014 9DF80720 		ldrb	r2, [sp, #7]
 743              	@ 736 "stdperiph/core_cm3.c" 1
 744 0018 C3E8442F 		strexb r4, r2, [r3]
 745              	@ 0 "" 2
 746              		.thumb
 747 001c 0394     		str	r4, [sp, #12]
 748              		.loc 1 737 0
 749 001e 039B     		ldr	r3, [sp, #12]
 750              		.loc 1 738 0
 751 0020 1846     		mov	r0, r3
 752 0022 05B0     		add	sp, sp, #20
 753 0024 10BC     		pop	{r4}
 754 0026 7047     		bx	lr
 755              		.cfi_offset 4, -4
 756              		.cfi_endproc
 757              	.LFE19:
 758              		.size	__STREXB, .-__STREXB
 759 0028 AFF30080 		.section	.text.__STREXH,"ax",%progbits
 759      AFF30080 
 760              		.align	2
 761              		.p2align 4,,15
 762              		.global	__STREXH
 763              		.thumb
 764              		.thumb_func
 765              		.type	__STREXH, %function
 766              	__STREXH:
 767              	.LFB20:
 768              		.loc 1 750 0
 769              		.cfi_startproc
 770              		@ args = 0, pretend = 0, frame = 16
 771              		@ frame_needed = 0, uses_anonymous_args = 0
 772              		@ link register save eliminated.
 773 0000 10B4     		push	{r4}
 774              	.LCFI28:
 775              		.cfi_def_cfa_offset 4
 776 0002 85B0     		sub	sp, sp, #20
 777              	.LCFI29:
ARM GAS  C:\Users\z80\AppData\Local\Temp\ccs2orld.s 			page 15


 778              		.cfi_def_cfa_offset 24
 779 0004 0346     		mov	r3, r0
 780 0006 0091     		str	r1, [sp, #0]
 781 0008 ADF80630 		strh	r3, [sp, #6]	@ movhi
 782              		.loc 1 751 0
 783 000c 4FF00003 		mov	r3, #0
 784 0010 0393     		str	r3, [sp, #12]
 785              		.loc 1 753 0
 786 0012 009B     		ldr	r3, [sp, #0]
 787 0014 BDF80620 		ldrh	r2, [sp, #6]	@ movhi
 788              	@ 753 "stdperiph/core_cm3.c" 1
 789 0018 C3E8542F 		strexh r4, r2, [r3]
 790              	@ 0 "" 2
 791              		.thumb
 792 001c 0394     		str	r4, [sp, #12]
 793              		.loc 1 754 0
 794 001e 039B     		ldr	r3, [sp, #12]
 795              		.loc 1 755 0
 796 0020 1846     		mov	r0, r3
 797 0022 05B0     		add	sp, sp, #20
 798 0024 10BC     		pop	{r4}
 799 0026 7047     		bx	lr
 800              		.cfi_offset 4, -4
 801              		.cfi_endproc
 802              	.LFE20:
 803              		.size	__STREXH, .-__STREXH
 804 0028 AFF30080 		.section	.text.__STREXW,"ax",%progbits
 804      AFF30080 
 805              		.align	2
 806              		.p2align 4,,15
 807              		.global	__STREXW
 808              		.thumb
 809              		.thumb_func
 810              		.type	__STREXW, %function
 811              	__STREXW:
 812              	.LFB21:
 813              		.loc 1 767 0
 814              		.cfi_startproc
 815              		@ args = 0, pretend = 0, frame = 16
 816              		@ frame_needed = 0, uses_anonymous_args = 0
 817              		@ link register save eliminated.
 818 0000 10B4     		push	{r4}
 819              	.LCFI30:
 820              		.cfi_def_cfa_offset 4
 821 0002 85B0     		sub	sp, sp, #20
 822              	.LCFI31:
 823              		.cfi_def_cfa_offset 24
 824 0004 0190     		str	r0, [sp, #4]
 825 0006 0091     		str	r1, [sp, #0]
 826              		.loc 1 768 0
 827 0008 4FF00003 		mov	r3, #0
 828 000c 0393     		str	r3, [sp, #12]
 829              		.loc 1 770 0
 830 000e 009B     		ldr	r3, [sp, #0]
 831 0010 019A     		ldr	r2, [sp, #4]
 832              	@ 770 "stdperiph/core_cm3.c" 1
 833 0012 43E80024 		strex r4, r2, [r3]
ARM GAS  C:\Users\z80\AppData\Local\Temp\ccs2orld.s 			page 16


 834              	@ 0 "" 2
 835              		.thumb
 836 0016 0394     		str	r4, [sp, #12]
 837              		.loc 1 771 0
 838 0018 039B     		ldr	r3, [sp, #12]
 839              		.loc 1 772 0
 840 001a 1846     		mov	r0, r3
 841 001c 05B0     		add	sp, sp, #20
 842 001e 10BC     		pop	{r4}
 843 0020 7047     		bx	lr
 844              		.cfi_offset 4, -4
 845              		.cfi_endproc
 846              	.LFE21:
 847              		.size	__STREXW, .-__STREXW
 848 0022 00BFAFF3 		.text
 848      0080AFF3 
 848      0080AFF3 
 848      0080
 849              	.Letext0: