ARM GAS  C:\Users\z80\AppData\Local\Temp\cctySiFJ.s 			page 1


   1              		.syntax unified
   2              		.cpu cortex-m3
   3              		.fpu softvfp
   4              		.eabi_attribute 20, 1
   5              		.eabi_attribute 21, 1
   6              		.eabi_attribute 23, 3
   7              		.eabi_attribute 24, 1
   8              		.eabi_attribute 25, 1
   9              		.eabi_attribute 26, 1
  10              		.eabi_attribute 30, 6
  11              		.eabi_attribute 18, 4
  12              		.thumb
  13              		.file	"crt0.c"
  20 0000 25010000 		.text
  20      02008A00 
  20      00000201 
  20      FB0E0D00 
  20      01010101 
  21              	.Ltext0:
  22              		.cfi_sections	.debug_frame
  23              		.section	.text.__early_init,"ax",%progbits
  24              		.align	2
  25              		.p2align 4,,15
  26              		.weak	__early_init
  27              		.thumb
  28              		.thumb_func
  29              		.type	__early_init, %function
  30              	__early_init:
  31              	.LFB0:
  32              		.file 1 "../chibios_2.6.3/os/ports/GCC/ARMCMx/crt0.c"
  33              		.loc 1 234 0
  34              		.cfi_startproc
  35              		@ args = 0, pretend = 0, frame = 0
  36              		@ frame_needed = 0, uses_anonymous_args = 0
  37              		@ link register save eliminated.
  38              		.loc 1 234 0
  39 0000 7047     		bx	lr
  40              		.cfi_endproc
  41              	.LFE0:
  42              		.size	__early_init, .-__early_init
  43 0002 00BFAFF3 		.section	.text.__late_init,"ax",%progbits
  43      0080AFF3 
  43      0080AFF3 
  43      0080
  44              		.align	2
  45              		.p2align 4,,15
  46              		.weak	__late_init
  47              		.thumb
  48              		.thumb_func
  49              		.type	__late_init, %function
  50              	__late_init:
ARM GAS  C:\Users\z80\AppData\Local\Temp\cctySiFJ.s 			page 2


  51              	.LFB1:
  52              		.loc 1 246 0
  53              		.cfi_startproc
  54              		@ args = 0, pretend = 0, frame = 0
  55              		@ frame_needed = 0, uses_anonymous_args = 0
  56              		@ link register save eliminated.
  57              		.loc 1 246 0
  58 0000 7047     		bx	lr
  59              		.cfi_endproc
  60              	.LFE1:
  61              		.size	__late_init, .-__late_init
  62 0002 00BFAFF3 		.section	.text._default_exit,"ax",%progbits
  62      0080AFF3 
  62      0080AFF3 
  62      0080
  63              		.align	2
  64              		.p2align 4,,15
  65              		.weak	_default_exit
  66              		.thumb
  67              		.thumb_func
  68              		.type	_default_exit, %function
  69              	_default_exit:
  70              	.LFB2:
  71              		.loc 1 257 0
  72              		.cfi_startproc
  73              		@ Naked Function: prologue and epilogue provided by programmer.
  74              		@ args = 0, pretend = 0, frame = 0
  75              		@ frame_needed = 0, uses_anonymous_args = 0
  76              	.L4:
  77              		.loc 1 259 0 discriminator 1
  78 0000 FEE7     		b	.L4
  79              		.cfi_endproc
  80              	.LFE2:
  81              		.size	_default_exit, .-_default_exit
  82 0002 00BFAFF3 		.section	.text.ResetHandler,"ax",%progbits
  82      0080AFF3 
  82      0080AFF3 
  82      0080
  83              		.align	2
  84              		.p2align 4,,15
  85              		.global	ResetHandler
  86              		.thumb
  87              		.thumb_func
  88              		.type	ResetHandler, %function
  89              	ResetHandler:
  90              	.LFB3:
  91              		.loc 1 268 0
  92              		.cfi_startproc
  93              		@ Naked Function: prologue and epilogue provided by programmer.
  94              		@ args = 0, pretend = 0, frame = 0
  95              		@ frame_needed = 0, uses_anonymous_args = 0
  96              		.loc 1 274 0
  97              	@ 274 "../chibios_2.6.3/os/ports/GCC/ARMCMx/crt0.c" 1
  98 0000 72B6     		cpsid   i
  99              	@ 0 "" 2
 100              		.loc 1 275 0
 101              		.thumb
ARM GAS  C:\Users\z80\AppData\Local\Temp\cctySiFJ.s 			page 3


 102 0002 40F20004 		movw	r4, #:lower16:__process_stack_end__
 103 0006 C0F20004 		movt	r4, #:upper16:__process_stack_end__
 104              		.loc 1 276 0
 105              	@ 276 "../chibios_2.6.3/os/ports/GCC/ARMCMx/crt0.c" 1
 106 000a 84F30988 		msr     PSP, r4
 107              	@ 0 "" 2
 108              		.loc 1 294 0
 109              		.thumb
 110 000e 4FF00204 		mov	r4, #2
 111              		.loc 1 296 0
 112              	@ 296 "../chibios_2.6.3/os/ports/GCC/ARMCMx/crt0.c" 1
 113 0012 84F31488 		msr     CONTROL, r4
 114              	@ 0 "" 2
 115              		.loc 1 297 0
 116              	@ 297 "../chibios_2.6.3/os/ports/GCC/ARMCMx/crt0.c" 1
 117 0016 BFF36F8F 		isb
 118              	@ 0 "" 2
 119              		.thumb
 120              	.LBB2:
 121              		.loc 1 301 0
 122 001a 40F20004 		movw	r4, #:lower16:__main_stack_base__
 123 001e C0F20004 		movt	r4, #:upper16:__main_stack_base__
 124 0022 40F20005 		movw	r5, #:lower16:__main_stack_end__
 125 0026 C0F20005 		movt	r5, #:upper16:__main_stack_end__
 126 002a 04E0     		b	.L6
 127              	.L7:
 128              		.loc 1 301 0 is_stmt 0 discriminator 2
 129 002c 4FF05533 		mov	r3, #1431655765
 130 0030 2360     		str	r3, [r4, #0]
 131 0032 04F10404 		add	r4, r4, #4
 132              	.L6:
 133              		.loc 1 301 0 discriminator 1
 134 0036 AC42     		cmp	r4, r5
 135 0038 F8D3     		bcc	.L7
 136              	.LBE2:
 137              	.LBB3:
 138              		.loc 1 304 0 is_stmt 1
 139 003a 40F20004 		movw	r4, #:lower16:__process_stack_base__
 140 003e C0F20004 		movt	r4, #:upper16:__process_stack_base__
 141 0042 40F20005 		movw	r5, #:lower16:__process_stack_end__
 142 0046 C0F20005 		movt	r5, #:upper16:__process_stack_end__
 143 004a 04E0     		b	.L8
 144              	.L9:
 145              		.loc 1 304 0 is_stmt 0 discriminator 2
 146 004c 4FF05533 		mov	r3, #1431655765
 147 0050 2360     		str	r3, [r4, #0]
 148 0052 04F10404 		add	r4, r4, #4
 149              	.L8:
 150              		.loc 1 304 0 discriminator 1
 151 0056 AC42     		cmp	r4, r5
 152 0058 F8D3     		bcc	.L9
 153              	.LBE3:
 154              		.loc 1 310 0 is_stmt 1
 155 005a FFF7FEFF 		bl	__early_init
 156              	.LBB4:
 157              		.loc 1 317 0
 158 005e 40F20005 		movw	r5, #:lower16:_textdata
ARM GAS  C:\Users\z80\AppData\Local\Temp\cctySiFJ.s 			page 4


 159 0062 C0F20005 		movt	r5, #:upper16:_textdata
 160              		.loc 1 318 0
 161 0066 40F20004 		movw	r4, #:lower16:_data
 162 006a C0F20004 		movt	r4, #:upper16:_data
 163              		.loc 1 319 0
 164 006e 05E0     		b	.L10
 165              	.L11:
 166              		.loc 1 320 0
 167 0070 2B68     		ldr	r3, [r5, #0]
 168 0072 2360     		str	r3, [r4, #0]
 169 0074 04F10404 		add	r4, r4, #4
 170 0078 05F10405 		add	r5, r5, #4
 171              	.L10:
 172              		.loc 1 319 0 discriminator 1
 173 007c 40F20003 		movw	r3, #:lower16:_edata
 174 0080 C0F20003 		movt	r3, #:upper16:_edata
 175 0084 9C42     		cmp	r4, r3
 176 0086 F3D3     		bcc	.L11
 177              	.LBE4:
 178              	.LBB5:
 179              		.loc 1 326 0
 180 0088 40F20004 		movw	r4, #:lower16:_bss_start
 181 008c C0F20004 		movt	r4, #:upper16:_bss_start
 182 0090 40F20005 		movw	r5, #:lower16:_bss_end
 183 0094 C0F20005 		movt	r5, #:upper16:_bss_end
 184 0098 04E0     		b	.L12
 185              	.L13:
 186              		.loc 1 326 0 is_stmt 0 discriminator 2
 187 009a 4FF00003 		mov	r3, #0
 188 009e 2360     		str	r3, [r4, #0]
 189 00a0 04F10404 		add	r4, r4, #4
 190              	.L12:
 191              		.loc 1 326 0 discriminator 1
 192 00a4 AC42     		cmp	r4, r5
 193 00a6 F8D3     		bcc	.L13
 194              	.LBE5:
 195              		.loc 1 330 0 is_stmt 1
 196 00a8 FFF7FEFF 		bl	__late_init
 197              	.LBB6:
 198              		.loc 1 335 0
 199 00ac 40F20004 		movw	r4, #:lower16:__init_array_start
 200 00b0 C0F20004 		movt	r4, #:upper16:__init_array_start
 201              		.loc 1 336 0
 202 00b4 03E0     		b	.L14
 203              	.L15:
 204              		.loc 1 337 0
 205 00b6 2368     		ldr	r3, [r4, #0]
 206 00b8 9847     		blx	r3
 207              		.loc 1 338 0
 208 00ba 04F10404 		add	r4, r4, #4
 209              	.L14:
 210              		.loc 1 336 0 discriminator 1
 211 00be 40F20003 		movw	r3, #:lower16:__init_array_end
 212 00c2 C0F20003 		movt	r3, #:upper16:__init_array_end
 213 00c6 9C42     		cmp	r4, r3
 214 00c8 F5D3     		bcc	.L15
 215              	.LBE6:
ARM GAS  C:\Users\z80\AppData\Local\Temp\cctySiFJ.s 			page 5


 216              		.loc 1 344 0
 217 00ca FFF7FEFF 		bl	main
 218              	.LBB7:
 219              		.loc 1 349 0
 220 00ce 40F20004 		movw	r4, #:lower16:__fini_array_start
 221 00d2 C0F20004 		movt	r4, #:upper16:__fini_array_start
 222              		.loc 1 350 0
 223 00d6 03E0     		b	.L16
 224              	.L17:
 225              		.loc 1 351 0
 226 00d8 2368     		ldr	r3, [r4, #0]
 227 00da 9847     		blx	r3
 228              		.loc 1 352 0
 229 00dc 04F10404 		add	r4, r4, #4
 230              	.L16:
 231              		.loc 1 350 0 discriminator 1
 232 00e0 40F20003 		movw	r3, #:lower16:__fini_array_end
 233 00e4 C0F20003 		movt	r3, #:upper16:__fini_array_end
 234 00e8 9C42     		cmp	r4, r3
 235 00ea F5D3     		bcc	.L17
 236              	.LBE7:
 237              		.loc 1 358 0
 238 00ec FFF7FEFF 		bl	_default_exit
 239              		.loc 1 359 0
 240              		.cfi_endproc
 241              	.LFE3:
 242              		.size	ResetHandler, .-ResetHandler
 243              		.text
 244              	.Letext0:
 245              		.file 2 "c:/programs/yagarto/lib/gcc/../../arm-none-eabi/sys-include/stdint.h"