ARM GAS  C:\Users\z80\AppData\Local\Temp\ccvRfUvE.s 			page 1


   1              		.syntax unified
   2              		.cpu cortex-m3
   3              		.fpu softvfp
   4              		.eabi_attribute 20, 1
   5              		.eabi_attribute 21, 1
   6              		.eabi_attribute 23, 3
   7              		.eabi_attribute 24, 1
   8              		.eabi_attribute 25, 1
   9              		.eabi_attribute 26, 1
  10              		.eabi_attribute 30, 6
  11              		.eabi_attribute 18, 4
  12              		.thumb
  13              		.file	"display.c"
  20 0000 94030000 		.text
  20      02009002 
  20      00000201 
  20      FB0E0D00 
  20      01010101 
  21              	.Ltext0:
  22              		.cfi_sections	.debug_frame
  23              		.section	.data.displayState,"aw",%progbits
  24              		.type	displayState, %object
  25              		.size	displayState, 1
  26              	displayState:
  27 0000 0A       		.byte	10
  28              		.section	.bss.displayMode,"aw",%nobits
  29              		.type	displayMode, %object
  30              		.size	displayMode, 1
  31              	displayMode:
  32 0000 00       		.space	1
  33              		.section	.bss.displayMenuItem,"aw",%nobits
  34              		.align	2
  35              		.type	displayMenuItem, %object
  36              		.size	displayMenuItem, 4
  37              	displayMenuItem:
  38 0000 00000000 		.space	4
  39              		.section	.bss.mailbox,"aw",%nobits
  40              		.align	2
  41              		.type	mailbox, %object
  42              		.size	mailbox, 40
  43              	mailbox:
  44 0000 00000000 		.space	40
  44      00000000 
  44      00000000 
  44      00000000 
  44      00000000 
  45              		.section	.bss.message,"aw",%nobits
  46              		.align	2
  47              		.type	message, %object
  48              		.size	message, 4
  49              	message:
ARM GAS  C:\Users\z80\AppData\Local\Temp\ccvRfUvE.s 			page 2


  50 0000 00000000 		.space	4
  51              		.section	.bss.timespec,"aw",%nobits
  52              		.align	2
  53              		.type	timespec, %object
  54              		.size	timespec, 8
  55              	timespec:
  56 0000 00000000 		.space	8
  56      00000000 
  57              		.section	.bss.alarmspec,"aw",%nobits
  58              		.align	2
  59              		.type	alarmspec, %object
  60              		.size	alarmspec, 4
  61              	alarmspec:
  62 0000 00000000 		.space	4
  63              		.section	.rodata.spicfg,"a",%progbits
  64              		.align	2
  65              		.type	spicfg, %object
  66              		.size	spicfg, 12
  67              	spicfg:
  68 0000 00000000 		.word	0
  69 0004 00100140 		.word	1073811456
  70 0008 0400     		.short	4
  71 000a 3000     		.short	48
  72              		.section	.bss.displayWA,"aw",%nobits
  73              		.align	3
  74              		.type	displayWA, %object
  75              		.size	displayWA, 304
  76              	displayWA:
  77 0000 00000000 		.space	304
  77      00000000 
  77      00000000 
  77      00000000 
  77      00000000 
  78              		.section	.text.initDisplay,"ax",%progbits
  79              		.align	2
  80              		.p2align 4,,15
  81              		.global	initDisplay
  82              		.thumb
  83              		.thumb_func
  84              		.type	initDisplay, %function
  85              	initDisplay:
  86              	.LFB63:
  87              		.file 1 "src/display.c"
  88              		.loc 1 47 0
  89              		.cfi_startproc
  90              		@ args = 0, pretend = 0, frame = 0
  91              		@ frame_needed = 0, uses_anonymous_args = 0
  92 0000 00B5     		push	{lr}
  93              	.LCFI0:
  94              		.cfi_def_cfa_offset 4
  95 0002 83B0     		sub	sp, sp, #12
  96              	.LCFI1:
  97              		.cfi_def_cfa_offset 16
  98              		.loc 1 48 0
  99 0004 4FF40060 		mov	r0, #2048
 100 0008 C4F20100 		movt	r0, 16385
 101 000c 4FF02001 		mov	r1, #32
ARM GAS  C:\Users\z80\AppData\Local\Temp\ccvRfUvE.s 			page 3


 102 0010 4FF01002 		mov	r2, #16
 103              		.cfi_offset 14, -4
 104 0014 FFF7FEFF 		bl	_pal_lld_setgroupmode
 105              		.loc 1 49 0
 106 0018 4FF40060 		mov	r0, #2048
 107 001c C4F20100 		movt	r0, 16385
 108 0020 4FF08001 		mov	r1, #128
 109 0024 4FF01002 		mov	r2, #16
 110 0028 FFF7FEFF 		bl	_pal_lld_setgroupmode
 111              		.loc 1 50 0
 112 002c 4FF48050 		mov	r0, #4096
 113 0030 C4F20100 		movt	r0, 16385
 114 0034 4FF01001 		mov	r1, #16
 115 0038 4FF00602 		mov	r2, #6
 116 003c FFF7FEFF 		bl	_pal_lld_setgroupmode
 117              		.loc 1 51 0
 118 0040 4FF48050 		mov	r0, #4096
 119 0044 C4F20100 		movt	r0, 16385
 120 0048 4FF02001 		mov	r1, #32
 121 004c 4FF00602 		mov	r2, #6
 122 0050 FFF7FEFF 		bl	_pal_lld_setgroupmode
 123              		.loc 1 52 0
 124 0054 4FF44060 		mov	r0, #3072
 125 0058 C4F20100 		movt	r0, 16385
 126 005c 4FF00101 		mov	r1, #1
 127 0060 4FF00602 		mov	r2, #6
 128 0064 FFF7FEFF 		bl	_pal_lld_setgroupmode
 129              		.loc 1 53 0
 130 0068 4FF48053 		mov	r3, #4096
 131 006c C4F20103 		movt	r3, 16385
 132 0070 4FF01002 		mov	r2, #16
 133 0074 1A61     		str	r2, [r3, #16]
 134              		.loc 1 54 0
 135 0076 4FF48053 		mov	r3, #4096
 136 007a C4F20103 		movt	r3, 16385
 137 007e 4FF02002 		mov	r2, #32
 138 0082 1A61     		str	r2, [r3, #16]
 139              		.loc 1 56 0
 140 0084 40F20000 		movw	r0, #:lower16:mailbox
 141 0088 C0F20000 		movt	r0, #:upper16:mailbox
 142 008c 40F20001 		movw	r1, #:lower16:message
 143 0090 C0F20001 		movt	r1, #:upper16:message
 144 0094 4FF00102 		mov	r2, #1
 145 0098 FFF7FEFF 		bl	chMBInit
 146              		.loc 1 58 0
 147 009c 40F20000 		movw	r0, #:lower16:SPID1
 148 00a0 C0F20000 		movt	r0, #:upper16:SPID1
 149 00a4 40F20001 		movw	r1, #:lower16:spicfg
 150 00a8 C0F20001 		movt	r1, #:upper16:spicfg
 151 00ac FFF7FEFF 		bl	spiStart
 152              		.loc 1 59 0
 153 00b0 40F20000 		movw	r0, #:lower16:SPID1
 154 00b4 C0F20000 		movt	r0, #:upper16:SPID1
 155 00b8 FFF7FEFF 		bl	lcd3310Init
 156              		.loc 1 61 0
 157 00bc 4FF00003 		mov	r3, #0
 158 00c0 0093     		str	r3, [sp, #0]
ARM GAS  C:\Users\z80\AppData\Local\Temp\ccvRfUvE.s 			page 4


 159 00c2 40F20000 		movw	r0, #:lower16:displayWA
 160 00c6 C0F20000 		movt	r0, #:upper16:displayWA
 161 00ca 4FF49871 		mov	r1, #304
 162 00ce 4FF04002 		mov	r2, #64
 163 00d2 40F20003 		movw	r3, #:lower16:display_thd
 164 00d6 C0F20003 		movt	r3, #:upper16:display_thd
 165 00da FFF7FEFF 		bl	chThdCreateStatic
 166              		.loc 1 63 0
 167 00de 40F20000 		movw	r0, #:lower16:RTCD1
 168 00e2 C0F20000 		movt	r0, #:upper16:RTCD1
 169 00e6 40F20001 		movw	r1, #:lower16:rtcCallback
 170 00ea C0F20001 		movt	r1, #:upper16:rtcCallback
 171 00ee FFF7FEFF 		bl	rtcSetCallback
 172              		.loc 1 64 0
 173 00f2 03B0     		add	sp, sp, #12
 174 00f4 00BD     		pop	{pc}
 175              		.cfi_endproc
 176              	.LFE63:
 177              		.size	initDisplay, .-initDisplay
 178 00f6 00BFAFF3 		.section	.text.setDisplayMode,"ax",%progbits
 178      0080AFF3 
 178      0080
 179              		.align	2
 180              		.p2align 4,,15
 181              		.global	setDisplayMode
 182              		.thumb
 183              		.thumb_func
 184              		.type	setDisplayMode, %function
 185              	setDisplayMode:
 186              	.LFB64:
 187              		.loc 1 67 0
 188              		.cfi_startproc
 189              		@ args = 0, pretend = 0, frame = 8
 190              		@ frame_needed = 0, uses_anonymous_args = 0
 191              		@ link register save eliminated.
 192 0000 82B0     		sub	sp, sp, #8
 193              	.LCFI2:
 194              		.cfi_def_cfa_offset 8
 195 0002 0346     		mov	r3, r0
 196 0004 8DF80730 		strb	r3, [sp, #7]
 197              		.loc 1 68 0
 198 0008 40F20003 		movw	r3, #:lower16:displayMode
 199 000c C0F20003 		movt	r3, #:upper16:displayMode
 200 0010 9DF80720 		ldrb	r2, [sp, #7]
 201 0014 1A70     		strb	r2, [r3, #0]
 202              		.loc 1 69 0
 203 0016 02B0     		add	sp, sp, #8
 204 0018 7047     		bx	lr
 205              		.cfi_endproc
 206              	.LFE64:
 207              		.size	setDisplayMode, .-setDisplayMode
 208 001a 00BFAFF3 		.section	.text.refresh,"ax",%progbits
 208      0080
 209              		.align	2
 210              		.p2align 4,,15
 211              		.thumb
 212              		.thumb_func
ARM GAS  C:\Users\z80\AppData\Local\Temp\ccvRfUvE.s 			page 5


 213              		.type	refresh, %function
 214              	refresh:
 215              	.LFB65:
 216              		.loc 1 72 0
 217              		.cfi_startproc
 218              		@ args = 0, pretend = 0, frame = 8
 219              		@ frame_needed = 0, uses_anonymous_args = 0
 220 0000 00B5     		push	{lr}
 221              	.LCFI3:
 222              		.cfi_def_cfa_offset 4
 223 0002 83B0     		sub	sp, sp, #12
 224              	.LCFI4:
 225              		.cfi_def_cfa_offset 16
 226 0004 0346     		mov	r3, r0
 227 0006 8DF80730 		strb	r3, [sp, #7]
 228              		.loc 1 73 0
 229 000a 9DF80730 		ldrb	r3, [sp, #7]	@ zero_extendqisi2
 230 000e 40F20000 		movw	r0, #:lower16:mailbox
 231 0012 C0F20000 		movt	r0, #:upper16:mailbox
 232 0016 1946     		mov	r1, r3
 233 0018 4FF0FF32 		mov	r2, #-1
 234              		.cfi_offset 14, -4
 235 001c FFF7FEFF 		bl	chMBPost
 236              		.loc 1 74 0
 237 0020 03B0     		add	sp, sp, #12
 238 0022 00BD     		pop	{pc}
 239              		.cfi_endproc
 240              	.LFE65:
 241              		.size	refresh, .-refresh
 242 0024 AFF30080 		.section	.text.refreshI,"ax",%progbits
 242      AFF30080 
 242      AFF30080 
 243              		.align	2
 244              		.p2align 4,,15
 245              		.thumb
 246              		.thumb_func
 247              		.type	refreshI, %function
 248              	refreshI:
 249              	.LFB66:
 250              		.loc 1 77 0
 251              		.cfi_startproc
 252              		@ args = 0, pretend = 0, frame = 8
 253              		@ frame_needed = 0, uses_anonymous_args = 0
 254 0000 00B5     		push	{lr}
 255              	.LCFI5:
 256              		.cfi_def_cfa_offset 4
 257 0002 83B0     		sub	sp, sp, #12
 258              	.LCFI6:
 259              		.cfi_def_cfa_offset 16
 260 0004 0346     		mov	r3, r0
 261 0006 8DF80730 		strb	r3, [sp, #7]
 262              		.loc 1 78 0
 263 000a 9DF80730 		ldrb	r3, [sp, #7]	@ zero_extendqisi2
 264 000e 40F20000 		movw	r0, #:lower16:mailbox
 265 0012 C0F20000 		movt	r0, #:upper16:mailbox
 266 0016 1946     		mov	r1, r3
 267              		.cfi_offset 14, -4
ARM GAS  C:\Users\z80\AppData\Local\Temp\ccvRfUvE.s 			page 6


 268 0018 FFF7FEFF 		bl	chMBPostI
 269              		.loc 1 79 0
 270 001c 03B0     		add	sp, sp, #12
 271 001e 00BD     		pop	{pc}
 272              		.cfi_endproc
 273              	.LFE66:
 274              		.size	refreshI, .-refreshI
 275              		.section	.text.display_thd,"ax",%progbits
 276              		.align	2
 277              		.p2align 4,,15
 278              		.thumb
 279              		.thumb_func
 280              		.type	display_thd, %function
 281              	display_thd:
 282              	.LFB67:
 283              		.loc 1 82 0
 284              		.cfi_startproc
 285              		@ args = 0, pretend = 0, frame = 8
 286              		@ frame_needed = 0, uses_anonymous_args = 0
 287 0000 00B5     		push	{lr}
 288              	.LCFI7:
 289              		.cfi_def_cfa_offset 4
 290 0002 83B0     		sub	sp, sp, #12
 291              	.LCFI8:
 292              		.cfi_def_cfa_offset 16
 293 0004 0190     		str	r0, [sp, #4]
 294 0006 00E0     		b	.L10
 295              		.cfi_offset 14, -4
 296              	.L11:
 297              		.loc 1 100 0
 298 0008 00BF     		nop
 299              	.L10:
 300              	.LBB2:
 301              		.loc 1 87 0
 302 000a 40F20000 		movw	r0, #:lower16:mailbox
 303 000e C0F20000 		movt	r0, #:upper16:mailbox
 304 0012 40F20001 		movw	r1, #:lower16:msg.3793
 305 0016 C0F20001 		movt	r1, #:upper16:msg.3793
 306 001a 4FF0FF32 		mov	r2, #-1
 307 001e FFF7FEFF 		bl	chMBFetch
 308 0022 0346     		mov	r3, r0
 309 0024 002B     		cmp	r3, #0
 310 0026 EFD1     		bne	.L11
 311              		.loc 1 89 0
 312 0028 40F20003 		movw	r3, #:lower16:msg.3793
 313 002c C0F20003 		movt	r3, #:upper16:msg.3793
 314 0030 1B68     		ldr	r3, [r3, #0]
 315 0032 002B     		cmp	r3, #0
 316 0034 02D0     		beq	.L7
 317 0036 012B     		cmp	r3, #1
 318 0038 0AD0     		beq	.L8
 319              	.LBE2:
 320              		.loc 1 100 0
 321 003a E6E7     		b	.L10
 322              	.L7:
 323              	.LBB3:
 324              		.loc 1 92 0
ARM GAS  C:\Users\z80\AppData\Local\Temp\ccvRfUvE.s 			page 7


 325 003c 40F20003 		movw	r3, #:lower16:displayMode
 326 0040 C0F20003 		movt	r3, #:upper16:displayMode
 327 0044 1B78     		ldrb	r3, [r3, #0]	@ zero_extendqisi2
 328 0046 002B     		cmp	r3, #0
 329 0048 01D1     		bne	.L9
 330              		.loc 1 93 0
 331 004a FFF7FEFF 		bl	displayTime
 332              	.L9:
 333              		.loc 1 94 0
 334 004e 02E0     		b	.L6
 335              	.L8:
 336              		.loc 1 96 0
 337 0050 FFF7FEFF 		bl	displayRootMenu
 338              		.loc 1 97 0
 339 0054 00BF     		nop
 340              	.L6:
 341              	.LBE3:
 342              		.loc 1 100 0
 343 0056 D8E7     		b	.L10
 344              		.cfi_endproc
 345              	.LFE67:
 346              		.size	display_thd, .-display_thd
 347 0058 AFF30080 		.section	.text.rtcCallback,"ax",%progbits
 347      AFF30080 
 348              		.align	2
 349              		.p2align 4,,15
 350              		.thumb
 351              		.thumb_func
 352              		.type	rtcCallback, %function
 353              	rtcCallback:
 354              	.LFB68:
 355              		.loc 1 105 0
 356              		.cfi_startproc
 357              		@ args = 0, pretend = 0, frame = 8
 358              		@ frame_needed = 0, uses_anonymous_args = 0
 359 0000 00B5     		push	{lr}
 360              	.LCFI9:
 361              		.cfi_def_cfa_offset 4
 362 0002 83B0     		sub	sp, sp, #12
 363              	.LCFI10:
 364              		.cfi_def_cfa_offset 16
 365 0004 0190     		str	r0, [sp, #4]
 366 0006 0B46     		mov	r3, r1
 367 0008 8DF80330 		strb	r3, [sp, #3]
 368              		.loc 1 108 0
 369 000c 9DF80330 		ldrb	r3, [sp, #3]	@ zero_extendqisi2
 370 0010 012B     		cmp	r3, #1
 371 0012 0CD0     		beq	.L17
 372              		.cfi_offset 14, -4
 373 0014 022B     		cmp	r3, #2
 374 0016 0CD0     		beq	.L18
 375 0018 002B     		cmp	r3, #0
 376 001a 0BD1     		bne	.L12
 377              	.L14:
 378              		.loc 1 113 0
 379 001c 40F20000 		movw	r0, #:lower16:mailbox
 380 0020 C0F20000 		movt	r0, #:upper16:mailbox
ARM GAS  C:\Users\z80\AppData\Local\Temp\ccvRfUvE.s 			page 8


 381 0024 4FF00001 		mov	r1, #0
 382 0028 FFF7FEFF 		bl	chMBPostI
 383              		.loc 1 114 0
 384 002c 02E0     		b	.L12
 385              	.L17:
 386              		.loc 1 120 0
 387 002e 00BF     		nop
 388 0030 00E0     		b	.L12
 389              	.L18:
 390              		.loc 1 111 0
 391 0032 00BF     		nop
 392              	.L12:
 393              		.loc 1 122 0
 394 0034 03B0     		add	sp, sp, #12
 395 0036 00BD     		pop	{pc}
 396              		.cfi_endproc
 397              	.LFE68:
 398              		.size	rtcCallback, .-rtcCallback
 399 0038 AFF30080 		.section	.text.time,"ax",%progbits
 399      AFF30080 
 400              		.align	2
 401              		.p2align 4,,15
 402              		.thumb
 403              		.thumb_func
 404              		.type	time, %function
 405              	time:
 406              	.LFB69:
 407              		.loc 1 125 0
 408              		.cfi_startproc
 409              		@ args = 0, pretend = 0, frame = 16
 410              		@ frame_needed = 0, uses_anonymous_args = 0
 411 0000 00B5     		push	{lr}
 412              	.LCFI11:
 413              		.cfi_def_cfa_offset 4
 414 0002 85B0     		sub	sp, sp, #20
 415              	.LCFI12:
 416              		.cfi_def_cfa_offset 24
 417 0004 0390     		str	r0, [sp, #12]
 418 0006 0291     		str	r1, [sp, #8]
 419 0008 0192     		str	r2, [sp, #4]
 420              		.loc 1 127 0
 421 000a 40F20000 		movw	r0, #:lower16:RTCD1
 422 000e C0F20000 		movt	r0, #:upper16:RTCD1
 423 0012 40F20001 		movw	r1, #:lower16:rtct.3811
 424 0016 C0F20001 		movt	r1, #:upper16:rtct.3811
 425              		.cfi_offset 14, -4
 426 001a FFF7FEFF 		bl	rtcGetTime
 427              		.loc 1 129 0
 428 001e 40F20003 		movw	r3, #:lower16:rtct.3811
 429 0022 C0F20003 		movt	r3, #:upper16:rtct.3811
 430 0026 1B68     		ldr	r3, [r3, #0]
 431 0028 1A46     		mov	r2, r3
 432 002a 40F20003 		movw	r3, #:lower16:t.3812
 433 002e C0F20003 		movt	r3, #:upper16:t.3812
 434 0032 1A60     		str	r2, [r3, #0]
 435              		.loc 1 130 0
 436 0034 40F20003 		movw	r3, #:lower16:t.3812
ARM GAS  C:\Users\z80\AppData\Local\Temp\ccvRfUvE.s 			page 9


 437 0038 C0F20003 		movt	r3, #:upper16:t.3812
 438 003c 1B68     		ldr	r3, [r3, #0]
 439 003e 4BF2C532 		movw	r2, #46021
 440 0042 C9F2A212 		movt	r2, 37282
 441 0046 82FB0312 		smull	r1, r2, r2, r3
 442 004a 1A44     		add	r2, r2, r3
 443 004c 4FEAE222 		asr	r2, r2, #11
 444 0050 4FEAE373 		asr	r3, r3, #31
 445 0054 C3EB0202 		rsb	r2, r3, r2
 446 0058 039B     		ldr	r3, [sp, #12]
 447 005a 1A60     		str	r2, [r3, #0]
 448              		.loc 1 131 0
 449 005c 039B     		ldr	r3, [sp, #12]
 450 005e 1A68     		ldr	r2, [r3, #0]
 451 0060 4FF2F013 		movw	r3, #61936
 452 0064 CFF6FF73 		movt	r3, 65535
 453 0068 03FB02F2 		mul	r2, r3, r2
 454 006c 40F20003 		movw	r3, #:lower16:t.3812
 455 0070 C0F20003 		movt	r3, #:upper16:t.3812
 456 0074 1B68     		ldr	r3, [r3, #0]
 457 0076 1344     		add	r3, r2, r3
 458 0078 48F68902 		movw	r2, #34953
 459 007c C8F68802 		movt	r2, 34952
 460 0080 82FB0312 		smull	r1, r2, r2, r3
 461 0084 1A44     		add	r2, r2, r3
 462 0086 4FEA6212 		asr	r2, r2, #5
 463 008a 4FEAE373 		asr	r3, r3, #31
 464 008e C3EB0202 		rsb	r2, r3, r2
 465 0092 029B     		ldr	r3, [sp, #8]
 466 0094 1A60     		str	r2, [r3, #0]
 467              		.loc 1 132 0
 468 0096 039B     		ldr	r3, [sp, #12]
 469 0098 1A68     		ldr	r2, [r3, #0]
 470 009a 4FF2F013 		movw	r3, #61936
 471 009e CFF6FF73 		movt	r3, 65535
 472 00a2 03FB02F2 		mul	r2, r3, r2
 473 00a6 029B     		ldr	r3, [sp, #8]
 474 00a8 1B68     		ldr	r3, [r3, #0]
 475 00aa 6FF03B01 		mvn	r1, #59
 476 00ae 01FB03F3 		mul	r3, r1, r3
 477 00b2 1A44     		add	r2, r2, r3
 478 00b4 40F20003 		movw	r3, #:lower16:t.3812
 479 00b8 C0F20003 		movt	r3, #:upper16:t.3812
 480 00bc 1B68     		ldr	r3, [r3, #0]
 481 00be 1A44     		add	r2, r2, r3
 482 00c0 019B     		ldr	r3, [sp, #4]
 483 00c2 1A60     		str	r2, [r3, #0]
 484              		.loc 1 133 0
 485 00c4 05B0     		add	sp, sp, #20
 486 00c6 00BD     		pop	{pc}
 487              		.cfi_endproc
 488              	.LFE69:
 489              		.size	time, .-time
 490 00c8 AFF30080 		.section	.text.numToStr,"ax",%progbits
 490      AFF30080 
 491              		.align	2
 492              		.p2align 4,,15
ARM GAS  C:\Users\z80\AppData\Local\Temp\ccvRfUvE.s 			page 10


 493              		.thumb
 494              		.thumb_func
 495              		.type	numToStr, %function
 496              	numToStr:
 497              	.LFB70:
 498              		.loc 1 136 0
 499              		.cfi_startproc
 500              		@ args = 0, pretend = 0, frame = 8
 501              		@ frame_needed = 0, uses_anonymous_args = 0
 502              		@ link register save eliminated.
 503 0000 82B0     		sub	sp, sp, #8
 504              	.LCFI13:
 505              		.cfi_def_cfa_offset 8
 506 0002 0190     		str	r0, [sp, #4]
 507 0004 0091     		str	r1, [sp, #0]
 508              		.loc 1 138 0
 509 0006 019A     		ldr	r2, [sp, #4]
 510 0008 46F26763 		movw	r3, #26215
 511 000c C6F26663 		movt	r3, 26214
 512 0010 83FB0213 		smull	r1, r3, r3, r2
 513 0014 4FEAA301 		asr	r1, r3, #2
 514 0018 4FEAE273 		asr	r3, r2, #31
 515 001c C3EB0102 		rsb	r2, r3, r1
 516 0020 40F20003 		movw	r3, #:lower16:s.3817
 517 0024 C0F20003 		movt	r3, #:upper16:s.3817
 518 0028 1A60     		str	r2, [r3, #0]
 519              		.loc 1 139 0
 520 002a 40F20003 		movw	r3, #:lower16:s.3817
 521 002e C0F20003 		movt	r3, #:upper16:s.3817
 522 0032 1B68     		ldr	r3, [r3, #0]
 523 0034 DBB2     		uxtb	r3, r3
 524 0036 03F13003 		add	r3, r3, #48
 525 003a DAB2     		uxtb	r2, r3
 526 003c 009B     		ldr	r3, [sp, #0]
 527 003e 1A70     		strb	r2, [r3, #0]
 528              		.loc 1 140 0
 529 0040 40F20003 		movw	r3, #:lower16:s.3817
 530 0044 C0F20003 		movt	r3, #:upper16:s.3817
 531 0048 1B68     		ldr	r3, [r3, #0]
 532 004a 6FF00902 		mvn	r2, #9
 533 004e 02FB03F2 		mul	r2, r2, r3
 534 0052 019B     		ldr	r3, [sp, #4]
 535 0054 1A44     		add	r2, r2, r3
 536 0056 40F20003 		movw	r3, #:lower16:s.3817
 537 005a C0F20003 		movt	r3, #:upper16:s.3817
 538 005e 1A60     		str	r2, [r3, #0]
 539              		.loc 1 141 0
 540 0060 009B     		ldr	r3, [sp, #0]
 541 0062 03F10102 		add	r2, r3, #1
 542 0066 40F20003 		movw	r3, #:lower16:s.3817
 543 006a C0F20003 		movt	r3, #:upper16:s.3817
 544 006e 1B68     		ldr	r3, [r3, #0]
 545 0070 DBB2     		uxtb	r3, r3
 546 0072 03F13003 		add	r3, r3, #48
 547 0076 DBB2     		uxtb	r3, r3
 548 0078 1370     		strb	r3, [r2, #0]
 549              		.loc 1 142 0
ARM GAS  C:\Users\z80\AppData\Local\Temp\ccvRfUvE.s 			page 11


 550 007a 009B     		ldr	r3, [sp, #0]
 551 007c 03F10203 		add	r3, r3, #2
 552 0080 4FF00002 		mov	r2, #0
 553 0084 1A70     		strb	r2, [r3, #0]
 554              		.loc 1 143 0
 555 0086 02B0     		add	sp, sp, #8
 556 0088 7047     		bx	lr
 557              		.cfi_endproc
 558              	.LFE70:
 559              		.size	numToStr, .-numToStr
 560 008a 00BFAFF3 		.section	.text.timeStr,"ax",%progbits
 560      0080
 561              		.align	2
 562              		.p2align 4,,15
 563              		.thumb
 564              		.thumb_func
 565              		.type	timeStr, %function
 566              	timeStr:
 567              	.LFB71:
 568              		.loc 1 146 0
 569              		.cfi_startproc
 570              		@ args = 0, pretend = 0, frame = 8
 571              		@ frame_needed = 0, uses_anonymous_args = 0
 572 0000 00B5     		push	{lr}
 573              	.LCFI14:
 574              		.cfi_def_cfa_offset 4
 575 0002 83B0     		sub	sp, sp, #12
 576              	.LCFI15:
 577              		.cfi_def_cfa_offset 16
 578 0004 0190     		str	r0, [sp, #4]
 579              		.loc 1 148 0
 580 0006 40F20000 		movw	r0, #:lower16:h.3821
 581 000a C0F20000 		movt	r0, #:upper16:h.3821
 582 000e 40F20001 		movw	r1, #:lower16:m.3822
 583 0012 C0F20001 		movt	r1, #:upper16:m.3822
 584 0016 40F20002 		movw	r2, #:lower16:s.3823
 585 001a C0F20002 		movt	r2, #:upper16:s.3823
 586              		.cfi_offset 14, -4
 587 001e FFF7FEFF 		bl	time
 588              		.loc 1 149 0
 589 0022 40F20003 		movw	r3, #:lower16:h.3821
 590 0026 C0F20003 		movt	r3, #:upper16:h.3821
 591 002a 1B68     		ldr	r3, [r3, #0]
 592 002c 1846     		mov	r0, r3
 593 002e 0199     		ldr	r1, [sp, #4]
 594 0030 FFF7FEFF 		bl	numToStr
 595              		.loc 1 150 0
 596 0034 019B     		ldr	r3, [sp, #4]
 597 0036 03F10203 		add	r3, r3, #2
 598 003a 4FF03A02 		mov	r2, #58
 599 003e 1A70     		strb	r2, [r3, #0]
 600              		.loc 1 151 0
 601 0040 40F20003 		movw	r3, #:lower16:m.3822
 602 0044 C0F20003 		movt	r3, #:upper16:m.3822
 603 0048 1A68     		ldr	r2, [r3, #0]
 604 004a 019B     		ldr	r3, [sp, #4]
 605 004c 03F10303 		add	r3, r3, #3
ARM GAS  C:\Users\z80\AppData\Local\Temp\ccvRfUvE.s 			page 12


 606 0050 1046     		mov	r0, r2
 607 0052 1946     		mov	r1, r3
 608 0054 FFF7FEFF 		bl	numToStr
 609              		.loc 1 152 0
 610 0058 019B     		ldr	r3, [sp, #4]
 611 005a 03F10503 		add	r3, r3, #5
 612 005e 4FF03A02 		mov	r2, #58
 613 0062 1A70     		strb	r2, [r3, #0]
 614              		.loc 1 153 0
 615 0064 40F20003 		movw	r3, #:lower16:s.3823
 616 0068 C0F20003 		movt	r3, #:upper16:s.3823
 617 006c 1A68     		ldr	r2, [r3, #0]
 618 006e 019B     		ldr	r3, [sp, #4]
 619 0070 03F10603 		add	r3, r3, #6
 620 0074 1046     		mov	r0, r2
 621 0076 1946     		mov	r1, r3
 622 0078 FFF7FEFF 		bl	numToStr
 623              		.loc 1 154 0
 624 007c 019B     		ldr	r3, [sp, #4]
 625 007e 03F10803 		add	r3, r3, #8
 626 0082 4FF00002 		mov	r2, #0
 627 0086 1A70     		strb	r2, [r3, #0]
 628              		.loc 1 155 0
 629 0088 03B0     		add	sp, sp, #12
 630 008a 00BD     		pop	{pc}
 631              		.cfi_endproc
 632              	.LFE71:
 633              		.size	timeStr, .-timeStr
 634 008c AFF30080 		.section	.bss.lines,"aw",%nobits
 635              		.align	2
 636              		.type	lines, %object
 637              		.size	lines, 48
 638              	lines:
 639 0000 00000000 		.space	48
 639      00000000 
 639      00000000 
 639      00000000 
 639      00000000 
 640              		.section	.text.displayTime,"ax",%progbits
 641              		.align	2
 642              		.p2align 4,,15
 643              		.thumb
 644              		.thumb_func
 645              		.type	displayTime, %function
 646              	displayTime:
 647              	.LFB72:
 648              		.loc 1 161 0
 649              		.cfi_startproc
 650              		@ args = 0, pretend = 0, frame = 8
 651              		@ frame_needed = 0, uses_anonymous_args = 0
 652 0000 00B5     		push	{lr}
 653              	.LCFI16:
 654              		.cfi_def_cfa_offset 4
 655 0002 83B0     		sub	sp, sp, #12
 656              	.LCFI17:
 657              		.cfi_def_cfa_offset 16
 658              		.loc 1 162 0
ARM GAS  C:\Users\z80\AppData\Local\Temp\ccvRfUvE.s 			page 13


 659 0004 40F20003 		movw	r3, #:lower16:lines
 660 0008 C0F20003 		movt	r3, #:upper16:lines
 661 000c 03F10C03 		add	r3, r3, #12
 662 0010 0193     		str	r3, [sp, #4]
 663              		.loc 1 163 0
 664 0012 0198     		ldr	r0, [sp, #4]
 665              		.cfi_offset 14, -4
 666 0014 FFF7FEFF 		bl	timeStr
 667              		.loc 1 165 0
 668 0018 40F20000 		movw	r0, #:lower16:SPID1
 669 001c C0F20000 		movt	r0, #:upper16:SPID1
 670 0020 FFF7FEFF 		bl	lcd3310Clear
 671              		.loc 1 166 0
 672 0024 40F20000 		movw	r0, #:lower16:SPID1
 673 0028 C0F20000 		movt	r0, #:upper16:SPID1
 674 002c 4FF01401 		mov	r1, #20
 675 0030 4FF00302 		mov	r2, #3
 676 0034 FFF7FEFF 		bl	lcd3310SetPosXY
 677              		.loc 1 167 0
 678 0038 40F20003 		movw	r3, #:lower16:lines
 679 003c C0F20003 		movt	r3, #:upper16:lines
 680 0040 03F10C03 		add	r3, r3, #12
 681 0044 40F20000 		movw	r0, #:lower16:SPID1
 682 0048 C0F20000 		movt	r0, #:upper16:SPID1
 683 004c 1946     		mov	r1, r3
 684 004e FFF7FEFF 		bl	lcd3310WriteText
 685              		.loc 1 168 0
 686 0052 03B0     		add	sp, sp, #12
 687 0054 00BD     		pop	{pc}
 688              		.cfi_endproc
 689              	.LFE72:
 690              		.size	displayTime, .-displayTime
 691 0056 00BFAFF3 		.section	.text.displayRootMenu,"ax",%progbits
 691      0080AFF3 
 691      0080
 692              		.align	2
 693              		.p2align 4,,15
 694              		.thumb
 695              		.thumb_func
 696              		.type	displayRootMenu, %function
 697              	displayRootMenu:
 698              	.LFB73:
 699              		.loc 1 171 0
 700              		.cfi_startproc
 701              		@ args = 0, pretend = 0, frame = 0
 702              		@ frame_needed = 0, uses_anonymous_args = 0
 703              		@ link register save eliminated.
 704              		.loc 1 172 0
 705 0000 7047     		bx	lr
 706              		.cfi_endproc
 707              	.LFE73:
 708              		.size	displayRootMenu, .-displayRootMenu
 709 0002 00BFAFF3 		.section	.bss.h.3821,"aw",%nobits
 709      0080AFF3 
 709      0080AFF3 
 709      0080
 710              		.align	2
ARM GAS  C:\Users\z80\AppData\Local\Temp\ccvRfUvE.s 			page 14


 711              		.type	h.3821, %object
 712              		.size	h.3821, 4
 713              	h.3821:
 714 0000 00000000 		.space	4
 715              		.section	.bss.m.3822,"aw",%nobits
 716              		.align	2
 717              		.type	m.3822, %object
 718              		.size	m.3822, 4
 719              	m.3822:
 720 0000 00000000 		.space	4
 721              		.section	.bss.s.3823,"aw",%nobits
 722              		.align	2
 723              		.type	s.3823, %object
 724              		.size	s.3823, 4
 725              	s.3823:
 726 0000 00000000 		.space	4
 727              		.section	.bss.s.3817,"aw",%nobits
 728              		.align	2
 729              		.type	s.3817, %object
 730              		.size	s.3817, 4
 731              	s.3817:
 732 0000 00000000 		.space	4
 733              		.section	.bss.rtct.3811,"aw",%nobits
 734              		.align	2
 735              		.type	rtct.3811, %object
 736              		.size	rtct.3811, 8
 737              	rtct.3811:
 738 0000 00000000 		.space	8
 738      00000000 
 739              		.section	.bss.t.3812,"aw",%nobits
 740              		.align	2
 741              		.type	t.3812, %object
 742              		.size	t.3812, 4
 743              	t.3812:
 744 0000 00000000 		.space	4
 745              		.section	.bss.msg.3793,"aw",%nobits
 746              		.align	2
 747              		.type	msg.3793, %object
 748              		.size	msg.3793, 4
 749              	msg.3793:
 750 0000 00000000 		.space	4
 751              		.text
 752              	.Letext0: