ARM GAS  C:\Users\z80\AppData\Local\Temp\ccWqrhGE.s 			page 1


   1              		.syntax unified
   2              		.cpu cortex-m3
   3              		.fpu softvfp
   4              		.eabi_attribute 20, 1
   5              		.eabi_attribute 21, 1
   6              		.eabi_attribute 23, 3
   7              		.eabi_attribute 24, 1
   8              		.eabi_attribute 25, 1
   9              		.eabi_attribute 26, 1
  10              		.eabi_attribute 30, 6
  11              		.eabi_attribute 18, 4
  12              		.thumb
  13              		.file	"ff.c"
  14              		.section	.debug_abbrev,"",%progbits
  15              	.Ldebug_abbrev0:
  16              		.section	.debug_info,"",%progbits
  17              	.Ldebug_info0:
  18              		.section	.debug_line,"",%progbits
  19              	.Ldebug_line0:
  20 0000 1A050000 		.text
  20      02004200 
  20      00000201 
  20      FB0E0D00 
  20      01010101 
  21              	.Ltext0:
  22              		.cfi_sections	.debug_frame
  23              		.section	.bss.FatFs,"aw",%nobits
  24              		.align	2
  25              		.type	FatFs, %object
  26              		.size	FatFs, 4
  27              	FatFs:
  28 0000 00000000 		.space	4
  29              		.section	.bss.Fsid,"aw",%nobits
  30              		.align	1
  31              		.type	Fsid, %object
  32              		.size	Fsid, 2
  33              	Fsid:
  34 0000 0000     		.space	2
  35              		.section	.text.mem_cpy,"ax",%progbits
  36              		.align	2
  37              		.p2align 4,,15
  38              		.thumb
  39              		.thumb_func
  40              		.type	mem_cpy, %function
  41              	mem_cpy:
  42              	.LFB0:
  43              		.file 1 "fatfs/ff.c"
  44              		.loc 1 529 0
  45              		.cfi_startproc
  46              		@ args = 0, pretend = 0, frame = 24
  47              		@ frame_needed = 0, uses_anonymous_args = 0
  48              		@ link register save eliminated.
  49 0000 86B0     		sub	sp, sp, #24
  50              	.LCFI0:
  51              		.cfi_def_cfa_offset 24
  52 0002 0390     		str	r0, [sp, #12]
  53 0004 0291     		str	r1, [sp, #8]
ARM GAS  C:\Users\z80\AppData\Local\Temp\ccWqrhGE.s 			page 2


  54 0006 0192     		str	r2, [sp, #4]
  55              		.loc 1 530 0
  56 0008 039B     		ldr	r3, [sp, #12]
  57 000a 0593     		str	r3, [sp, #20]
  58              		.loc 1 531 0
  59 000c 029B     		ldr	r3, [sp, #8]
  60 000e 0493     		str	r3, [sp, #16]
  61              		.loc 1 540 0
  62 0010 0BE0     		b	.L2
  63              	.L3:
  64              		.loc 1 541 0
  65 0012 049B     		ldr	r3, [sp, #16]
  66 0014 1A78     		ldrb	r2, [r3, #0]	@ zero_extendqisi2
  67 0016 059B     		ldr	r3, [sp, #20]
  68 0018 1A70     		strb	r2, [r3, #0]
  69 001a 059B     		ldr	r3, [sp, #20]
  70 001c 03F10103 		add	r3, r3, #1
  71 0020 0593     		str	r3, [sp, #20]
  72 0022 049B     		ldr	r3, [sp, #16]
  73 0024 03F10103 		add	r3, r3, #1
  74 0028 0493     		str	r3, [sp, #16]
  75              	.L2:
  76              		.loc 1 540 0 discriminator 1
  77 002a 019B     		ldr	r3, [sp, #4]
  78 002c 002B     		cmp	r3, #0
  79 002e 0CBF     		ite	eq
  80 0030 0023     		moveq	r3, #0
  81 0032 0123     		movne	r3, #1
  82 0034 DBB2     		uxtb	r3, r3
  83 0036 019A     		ldr	r2, [sp, #4]
  84 0038 02F1FF32 		add	r2, r2, #-1
  85 003c 0192     		str	r2, [sp, #4]
  86 003e 002B     		cmp	r3, #0
  87 0040 E7D1     		bne	.L3
  88              		.loc 1 542 0
  89 0042 06B0     		add	sp, sp, #24
  90 0044 7047     		bx	lr
  91              		.cfi_endproc
  92              	.LFE0:
  93              		.size	mem_cpy, .-mem_cpy
  94 0046 00BFAFF3 		.section	.text.mem_set,"ax",%progbits
  94      0080AFF3 
  94      0080
  95              		.align	2
  96              		.p2align 4,,15
  97              		.thumb
  98              		.thumb_func
  99              		.type	mem_set, %function
 100              	mem_set:
 101              	.LFB1:
 102              		.loc 1 546 0
 103              		.cfi_startproc
 104              		@ args = 0, pretend = 0, frame = 24
 105              		@ frame_needed = 0, uses_anonymous_args = 0
 106              		@ link register save eliminated.
 107 0000 86B0     		sub	sp, sp, #24
 108              	.LCFI1:
ARM GAS  C:\Users\z80\AppData\Local\Temp\ccWqrhGE.s 			page 3


 109              		.cfi_def_cfa_offset 24
 110 0002 0390     		str	r0, [sp, #12]
 111 0004 0291     		str	r1, [sp, #8]
 112 0006 0192     		str	r2, [sp, #4]
 113              		.loc 1 547 0
 114 0008 039B     		ldr	r3, [sp, #12]
 115 000a 0593     		str	r3, [sp, #20]
 116              		.loc 1 549 0
 117 000c 07E0     		b	.L5
 118              	.L6:
 119              		.loc 1 550 0
 120 000e 029B     		ldr	r3, [sp, #8]
 121 0010 DAB2     		uxtb	r2, r3
 122 0012 059B     		ldr	r3, [sp, #20]
 123 0014 1A70     		strb	r2, [r3, #0]
 124 0016 059B     		ldr	r3, [sp, #20]
 125 0018 03F10103 		add	r3, r3, #1
 126 001c 0593     		str	r3, [sp, #20]
 127              	.L5:
 128              		.loc 1 549 0 discriminator 1
 129 001e 019B     		ldr	r3, [sp, #4]
 130 0020 002B     		cmp	r3, #0
 131 0022 0CBF     		ite	eq
 132 0024 0023     		moveq	r3, #0
 133 0026 0123     		movne	r3, #1
 134 0028 DBB2     		uxtb	r3, r3
 135 002a 019A     		ldr	r2, [sp, #4]
 136 002c 02F1FF32 		add	r2, r2, #-1
 137 0030 0192     		str	r2, [sp, #4]
 138 0032 002B     		cmp	r3, #0
 139 0034 EBD1     		bne	.L6
 140              		.loc 1 551 0
 141 0036 06B0     		add	sp, sp, #24
 142 0038 7047     		bx	lr
 143              		.cfi_endproc
 144              	.LFE1:
 145              		.size	mem_set, .-mem_set
 146 003a 00BFAFF3 		.section	.text.mem_cmp,"ax",%progbits
 146      0080
 147              		.align	2
 148              		.p2align 4,,15
 149              		.thumb
 150              		.thumb_func
 151              		.type	mem_cmp, %function
 152              	mem_cmp:
 153              	.LFB2:
 154              		.loc 1 555 0
 155              		.cfi_startproc
 156              		@ args = 0, pretend = 0, frame = 32
 157              		@ frame_needed = 0, uses_anonymous_args = 0
 158              		@ link register save eliminated.
 159 0000 88B0     		sub	sp, sp, #32
 160              	.LCFI2:
 161              		.cfi_def_cfa_offset 32
 162 0002 0390     		str	r0, [sp, #12]
 163 0004 0291     		str	r1, [sp, #8]
 164 0006 0192     		str	r2, [sp, #4]
ARM GAS  C:\Users\z80\AppData\Local\Temp\ccWqrhGE.s 			page 4


 165              		.loc 1 556 0
 166 0008 039B     		ldr	r3, [sp, #12]
 167 000a 0793     		str	r3, [sp, #28]
 168 000c 029B     		ldr	r3, [sp, #8]
 169 000e 0693     		str	r3, [sp, #24]
 170              		.loc 1 557 0
 171 0010 4FF00003 		mov	r3, #0
 172 0014 0593     		str	r3, [sp, #20]
 173              		.loc 1 559 0
 174 0016 00BF     		nop
 175              	.L9:
 176              		.loc 1 559 0 is_stmt 0 discriminator 1
 177 0018 019B     		ldr	r3, [sp, #4]
 178 001a 002B     		cmp	r3, #0
 179 001c 0CBF     		ite	eq
 180 001e 0023     		moveq	r3, #0
 181 0020 0123     		movne	r3, #1
 182 0022 DBB2     		uxtb	r3, r3
 183 0024 019A     		ldr	r2, [sp, #4]
 184 0026 02F1FF32 		add	r2, r2, #-1
 185 002a 0192     		str	r2, [sp, #4]
 186 002c 002B     		cmp	r3, #0
 187 002e 17D0     		beq	.L8
 188              		.loc 1 559 0 discriminator 2
 189 0030 079B     		ldr	r3, [sp, #28]
 190 0032 1B78     		ldrb	r3, [r3, #0]	@ zero_extendqisi2
 191 0034 1A46     		mov	r2, r3
 192 0036 069B     		ldr	r3, [sp, #24]
 193 0038 1B78     		ldrb	r3, [r3, #0]	@ zero_extendqisi2
 194 003a C3EB0203 		rsb	r3, r3, r2
 195 003e 0593     		str	r3, [sp, #20]
 196 0040 059B     		ldr	r3, [sp, #20]
 197 0042 002B     		cmp	r3, #0
 198 0044 14BF     		ite	ne
 199 0046 0023     		movne	r3, #0
 200 0048 0123     		moveq	r3, #1
 201 004a DBB2     		uxtb	r3, r3
 202 004c 079A     		ldr	r2, [sp, #28]
 203 004e 02F10102 		add	r2, r2, #1
 204 0052 0792     		str	r2, [sp, #28]
 205 0054 069A     		ldr	r2, [sp, #24]
 206 0056 02F10102 		add	r2, r2, #1
 207 005a 0692     		str	r2, [sp, #24]
 208 005c 002B     		cmp	r3, #0
 209 005e DBD1     		bne	.L9
 210              	.L8:
 211              		.loc 1 560 0 is_stmt 1
 212 0060 059B     		ldr	r3, [sp, #20]
 213              		.loc 1 561 0
 214 0062 1846     		mov	r0, r3
 215 0064 08B0     		add	sp, sp, #32
 216 0066 7047     		bx	lr
 217              		.cfi_endproc
 218              	.LFE2:
 219              		.size	mem_cmp, .-mem_cmp
 220 0068 AFF30080 		.section	.text.chk_chr,"ax",%progbits
 220      AFF30080 
ARM GAS  C:\Users\z80\AppData\Local\Temp\ccWqrhGE.s 			page 5


 221              		.align	2
 222              		.p2align 4,,15
 223              		.thumb
 224              		.thumb_func
 225              		.type	chk_chr, %function
 226              	chk_chr:
 227              	.LFB3:
 228              		.loc 1 565 0
 229              		.cfi_startproc
 230              		@ args = 0, pretend = 0, frame = 8
 231              		@ frame_needed = 0, uses_anonymous_args = 0
 232              		@ link register save eliminated.
 233 0000 82B0     		sub	sp, sp, #8
 234              	.LCFI3:
 235              		.cfi_def_cfa_offset 8
 236 0002 0190     		str	r0, [sp, #4]
 237 0004 0091     		str	r1, [sp, #0]
 238              		.loc 1 566 0
 239 0006 03E0     		b	.L11
 240              	.L13:
 241              		.loc 1 566 0 is_stmt 0 discriminator 1
 242 0008 019B     		ldr	r3, [sp, #4]
 243 000a 03F10103 		add	r3, r3, #1
 244 000e 0193     		str	r3, [sp, #4]
 245              	.L11:
 246 0010 019B     		ldr	r3, [sp, #4]
 247 0012 1B78     		ldrb	r3, [r3, #0]	@ zero_extendqisi2
 248 0014 002B     		cmp	r3, #0
 249 0016 05D0     		beq	.L12
 250              		.loc 1 566 0 discriminator 2
 251 0018 019B     		ldr	r3, [sp, #4]
 252 001a 1B78     		ldrb	r3, [r3, #0]	@ zero_extendqisi2
 253 001c 1A46     		mov	r2, r3
 254 001e 009B     		ldr	r3, [sp, #0]
 255 0020 9A42     		cmp	r2, r3
 256 0022 F1D1     		bne	.L13
 257              	.L12:
 258              		.loc 1 567 0 is_stmt 1
 259 0024 019B     		ldr	r3, [sp, #4]
 260 0026 1B78     		ldrb	r3, [r3, #0]	@ zero_extendqisi2
 261              		.loc 1 568 0
 262 0028 1846     		mov	r0, r3
 263 002a 02B0     		add	sp, sp, #8
 264 002c 7047     		bx	lr
 265              		.cfi_endproc
 266              	.LFE3:
 267              		.size	chk_chr, .-chk_chr
 268 002e 00BF     		.section	.text.move_window,"ax",%progbits
 269              		.align	2
 270              		.p2align 4,,15
 271              		.thumb
 272              		.thumb_func
 273              		.type	move_window, %function
 274              	move_window:
 275              	.LFB4:
 276              		.loc 1 723 0
 277              		.cfi_startproc
ARM GAS  C:\Users\z80\AppData\Local\Temp\ccWqrhGE.s 			page 6


 278              		@ args = 0, pretend = 0, frame = 16
 279              		@ frame_needed = 0, uses_anonymous_args = 0
 280 0000 00B5     		push	{lr}
 281              	.LCFI4:
 282              		.cfi_def_cfa_offset 4
 283 0002 85B0     		sub	sp, sp, #20
 284              	.LCFI5:
 285              		.cfi_def_cfa_offset 24
 286 0004 0190     		str	r0, [sp, #4]
 287 0006 0091     		str	r1, [sp, #0]
 288              		.loc 1 727 0
 289 0008 019B     		ldr	r3, [sp, #4]
 290 000a 1B6A     		ldr	r3, [r3, #32]
 291 000c 0393     		str	r3, [sp, #12]
 292              		.loc 1 728 0
 293 000e 039A     		ldr	r2, [sp, #12]
 294 0010 009B     		ldr	r3, [sp, #0]
 295 0012 9A42     		cmp	r2, r3
 296 0014 17D0     		beq	.L15
 297              		.cfi_offset 14, -4
 298              		.loc 1 743 0
 299 0016 009B     		ldr	r3, [sp, #0]
 300 0018 002B     		cmp	r3, #0
 301 001a 14D0     		beq	.L15
 302              		.loc 1 744 0
 303 001c 019B     		ldr	r3, [sp, #4]
 304 001e 5A78     		ldrb	r2, [r3, #1]	@ zero_extendqisi2
 305 0020 019B     		ldr	r3, [sp, #4]
 306 0022 03F12403 		add	r3, r3, #36
 307 0026 1046     		mov	r0, r2
 308 0028 1946     		mov	r1, r3
 309 002a 009A     		ldr	r2, [sp, #0]
 310 002c 4FF00103 		mov	r3, #1
 311 0030 FFF7FEFF 		bl	disk_read
 312 0034 0346     		mov	r3, r0
 313 0036 002B     		cmp	r3, #0
 314 0038 02D0     		beq	.L16
 315              		.loc 1 745 0
 316 003a 4FF00103 		mov	r3, #1
 317 003e 04E0     		b	.L17
 318              	.L16:
 319              		.loc 1 746 0
 320 0040 019B     		ldr	r3, [sp, #4]
 321 0042 009A     		ldr	r2, [sp, #0]
 322 0044 1A62     		str	r2, [r3, #32]
 323              	.L15:
 324              		.loc 1 750 0
 325 0046 4FF00003 		mov	r3, #0
 326              	.L17:
 327              		.loc 1 751 0
 328 004a 1846     		mov	r0, r3
 329 004c 05B0     		add	sp, sp, #20
 330 004e 00BD     		pop	{pc}
 331              		.cfi_endproc
 332              	.LFE4:
 333              		.size	move_window, .-move_window
 334              		.section	.text.clust2sect,"ax",%progbits
ARM GAS  C:\Users\z80\AppData\Local\Temp\ccWqrhGE.s 			page 7


 335              		.align	2
 336              		.p2align 4,,15
 337              		.global	clust2sect
 338              		.thumb
 339              		.thumb_func
 340              		.type	clust2sect, %function
 341              	clust2sect:
 342              	.LFB5:
 343              		.loc 1 805 0
 344              		.cfi_startproc
 345              		@ args = 0, pretend = 0, frame = 8
 346              		@ frame_needed = 0, uses_anonymous_args = 0
 347              		@ link register save eliminated.
 348 0000 82B0     		sub	sp, sp, #8
 349              	.LCFI6:
 350              		.cfi_def_cfa_offset 8
 351 0002 0190     		str	r0, [sp, #4]
 352 0004 0091     		str	r1, [sp, #0]
 353              		.loc 1 806 0
 354 0006 009B     		ldr	r3, [sp, #0]
 355 0008 A3F10203 		sub	r3, r3, #2
 356 000c 0093     		str	r3, [sp, #0]
 357              		.loc 1 807 0
 358 000e 019B     		ldr	r3, [sp, #4]
 359 0010 DB68     		ldr	r3, [r3, #12]
 360 0012 A3F10202 		sub	r2, r3, #2
 361 0016 009B     		ldr	r3, [sp, #0]
 362 0018 9A42     		cmp	r2, r3
 363 001a 02D8     		bhi	.L19
 364              		.loc 1 807 0 is_stmt 0 discriminator 1
 365 001c 4FF00003 		mov	r3, #0
 366 0020 07E0     		b	.L20
 367              	.L19:
 368              		.loc 1 808 0 is_stmt 1
 369 0022 019B     		ldr	r3, [sp, #4]
 370 0024 9B78     		ldrb	r3, [r3, #2]	@ zero_extendqisi2
 371 0026 009A     		ldr	r2, [sp, #0]
 372 0028 02FB03F2 		mul	r2, r2, r3
 373 002c 019B     		ldr	r3, [sp, #4]
 374 002e DB69     		ldr	r3, [r3, #28]
 375 0030 1344     		add	r3, r2, r3
 376              	.L20:
 377              		.loc 1 809 0
 378 0032 1846     		mov	r0, r3
 379 0034 02B0     		add	sp, sp, #8
 380 0036 7047     		bx	lr
 381              		.cfi_endproc
 382              	.LFE5:
 383              		.size	clust2sect, .-clust2sect
 384 0038 AFF30080 		.section	.text.get_fat,"ax",%progbits
 384      AFF30080 
 385              		.align	2
 386              		.p2align 4,,15
 387              		.global	get_fat
 388              		.thumb
 389              		.thumb_func
 390              		.type	get_fat, %function
ARM GAS  C:\Users\z80\AppData\Local\Temp\ccWqrhGE.s 			page 8


 391              	get_fat:
 392              	.LFB6:
 393              		.loc 1 823 0
 394              		.cfi_startproc
 395              		@ args = 0, pretend = 0, frame = 24
 396              		@ frame_needed = 0, uses_anonymous_args = 0
 397 0000 00B5     		push	{lr}
 398              	.LCFI7:
 399              		.cfi_def_cfa_offset 4
 400 0002 87B0     		sub	sp, sp, #28
 401              	.LCFI8:
 402              		.cfi_def_cfa_offset 32
 403 0004 0190     		str	r0, [sp, #4]
 404 0006 0091     		str	r1, [sp, #0]
 405              		.loc 1 828 0
 406 0008 009B     		ldr	r3, [sp, #0]
 407 000a 012B     		cmp	r3, #1
 408 000c 04D9     		bls	.L22
 409              		.cfi_offset 14, -4
 410              		.loc 1 828 0 is_stmt 0 discriminator 1
 411 000e 019B     		ldr	r3, [sp, #4]
 412 0010 DA68     		ldr	r2, [r3, #12]
 413 0012 009B     		ldr	r3, [sp, #0]
 414 0014 9A42     		cmp	r2, r3
 415 0016 02D8     		bhi	.L23
 416              	.L22:
 417              		.loc 1 829 0 is_stmt 1
 418 0018 4FF00103 		mov	r3, #1
 419 001c BEE0     		b	.L24
 420              	.L23:
 421              		.loc 1 831 0
 422 001e 019B     		ldr	r3, [sp, #4]
 423 0020 1B78     		ldrb	r3, [r3, #0]	@ zero_extendqisi2
 424 0022 022B     		cmp	r3, #2
 425 0024 54D0     		beq	.L27
 426 0026 032B     		cmp	r3, #3
 427 0028 79D0     		beq	.L28
 428 002a 012B     		cmp	r3, #1
 429 002c 40F0B480 		bne	.L25
 430              	.L26:
 431              		.loc 1 833 0
 432 0030 009B     		ldr	r3, [sp, #0]
 433 0032 0593     		str	r3, [sp, #20]
 434 0034 059B     		ldr	r3, [sp, #20]
 435 0036 4FEA5303 		lsr	r3, r3, #1
 436 003a 059A     		ldr	r2, [sp, #20]
 437 003c 1344     		add	r3, r2, r3
 438 003e 0593     		str	r3, [sp, #20]
 439              		.loc 1 834 0
 440 0040 019B     		ldr	r3, [sp, #4]
 441 0042 5A69     		ldr	r2, [r3, #20]
 442 0044 059B     		ldr	r3, [sp, #20]
 443 0046 4FEA5323 		lsr	r3, r3, #9
 444 004a 1344     		add	r3, r2, r3
 445 004c 0198     		ldr	r0, [sp, #4]
 446 004e 1946     		mov	r1, r3
 447 0050 FFF7FEFF 		bl	move_window
ARM GAS  C:\Users\z80\AppData\Local\Temp\ccWqrhGE.s 			page 9


 448 0054 0346     		mov	r3, r0
 449 0056 002B     		cmp	r3, #0
 450 0058 40F09780 		bne	.L35
 451              	.L29:
 452              		.loc 1 835 0
 453 005c 059B     		ldr	r3, [sp, #20]
 454 005e 4FEAC353 		lsl	r3, r3, #23
 455 0062 4FEAD353 		lsr	r3, r3, #23
 456 0066 019A     		ldr	r2, [sp, #4]
 457 0068 1344     		add	r3, r2, r3
 458 006a 93F82430 		ldrb	r3, [r3, #36]	@ zero_extendqisi2
 459 006e 0493     		str	r3, [sp, #16]
 460 0070 059B     		ldr	r3, [sp, #20]
 461 0072 03F10103 		add	r3, r3, #1
 462 0076 0593     		str	r3, [sp, #20]
 463              		.loc 1 836 0
 464 0078 019B     		ldr	r3, [sp, #4]
 465 007a 5A69     		ldr	r2, [r3, #20]
 466 007c 059B     		ldr	r3, [sp, #20]
 467 007e 4FEA5323 		lsr	r3, r3, #9
 468 0082 1344     		add	r3, r2, r3
 469 0084 0198     		ldr	r0, [sp, #4]
 470 0086 1946     		mov	r1, r3
 471 0088 FFF7FEFF 		bl	move_window
 472 008c 0346     		mov	r3, r0
 473 008e 002B     		cmp	r3, #0
 474 0090 7DD1     		bne	.L36
 475              	.L30:
 476              		.loc 1 837 0
 477 0092 059B     		ldr	r3, [sp, #20]
 478 0094 4FEAC353 		lsl	r3, r3, #23
 479 0098 4FEAD353 		lsr	r3, r3, #23
 480 009c 019A     		ldr	r2, [sp, #4]
 481 009e 1344     		add	r3, r2, r3
 482 00a0 93F82430 		ldrb	r3, [r3, #36]	@ zero_extendqisi2
 483 00a4 4FEA0323 		lsl	r3, r3, #8
 484 00a8 049A     		ldr	r2, [sp, #16]
 485 00aa 42EA0303 		orr	r3, r2, r3
 486 00ae 0493     		str	r3, [sp, #16]
 487              		.loc 1 838 0
 488 00b0 009B     		ldr	r3, [sp, #0]
 489 00b2 03F00103 		and	r3, r3, #1
 490 00b6 DBB2     		uxtb	r3, r3
 491 00b8 002B     		cmp	r3, #0
 492 00ba 03D0     		beq	.L31
 493              		.loc 1 838 0 is_stmt 0 discriminator 1
 494 00bc 049B     		ldr	r3, [sp, #16]
 495 00be 4FEA1313 		lsr	r3, r3, #4
 496 00c2 04E0     		b	.L32
 497              	.L31:
 498              		.loc 1 838 0 discriminator 2
 499 00c4 049B     		ldr	r3, [sp, #16]
 500 00c6 4FEA0353 		lsl	r3, r3, #20
 501 00ca 4FEA1353 		lsr	r3, r3, #20
 502              	.L32:
 503              		.loc 1 838 0 discriminator 3
 504 00ce 65E0     		b	.L24
ARM GAS  C:\Users\z80\AppData\Local\Temp\ccWqrhGE.s 			page 10


 505              	.L27:
 506              		.loc 1 841 0 is_stmt 1
 507 00d0 019B     		ldr	r3, [sp, #4]
 508 00d2 5A69     		ldr	r2, [r3, #20]
 509 00d4 009B     		ldr	r3, [sp, #0]
 510 00d6 4FEA1323 		lsr	r3, r3, #8
 511 00da 1344     		add	r3, r2, r3
 512 00dc 0198     		ldr	r0, [sp, #4]
 513 00de 1946     		mov	r1, r3
 514 00e0 FFF7FEFF 		bl	move_window
 515 00e4 0346     		mov	r3, r0
 516 00e6 002B     		cmp	r3, #0
 517 00e8 53D1     		bne	.L37
 518              	.L33:
 519              		.loc 1 842 0
 520 00ea 019B     		ldr	r3, [sp, #4]
 521 00ec 03F12402 		add	r2, r3, #36
 522 00f0 009B     		ldr	r3, [sp, #0]
 523 00f2 4FEA4303 		lsl	r3, r3, #1
 524 00f6 4FEAC353 		lsl	r3, r3, #23
 525 00fa 4FEAD353 		lsr	r3, r3, #23
 526 00fe 1344     		add	r3, r2, r3
 527 0100 0393     		str	r3, [sp, #12]
 528              		.loc 1 843 0
 529 0102 039B     		ldr	r3, [sp, #12]
 530 0104 03F10103 		add	r3, r3, #1
 531 0108 1B78     		ldrb	r3, [r3, #0]	@ zero_extendqisi2
 532 010a 4FEA0323 		lsl	r3, r3, #8
 533 010e 9AB2     		uxth	r2, r3
 534 0110 039B     		ldr	r3, [sp, #12]
 535 0112 1B78     		ldrb	r3, [r3, #0]	@ zero_extendqisi2
 536 0114 42EA0303 		orr	r3, r2, r3
 537 0118 9BB2     		uxth	r3, r3
 538 011a 9BB2     		uxth	r3, r3
 539 011c 3EE0     		b	.L24
 540              	.L28:
 541              		.loc 1 846 0
 542 011e 019B     		ldr	r3, [sp, #4]
 543 0120 5A69     		ldr	r2, [r3, #20]
 544 0122 009B     		ldr	r3, [sp, #0]
 545 0124 4FEAD313 		lsr	r3, r3, #7
 546 0128 1344     		add	r3, r2, r3
 547 012a 0198     		ldr	r0, [sp, #4]
 548 012c 1946     		mov	r1, r3
 549 012e FFF7FEFF 		bl	move_window
 550 0132 0346     		mov	r3, r0
 551 0134 002B     		cmp	r3, #0
 552 0136 2ED1     		bne	.L38
 553              	.L34:
 554              		.loc 1 847 0
 555 0138 019B     		ldr	r3, [sp, #4]
 556 013a 03F12402 		add	r2, r3, #36
 557 013e 009B     		ldr	r3, [sp, #0]
 558 0140 4FEA8303 		lsl	r3, r3, #2
 559 0144 4FEAC353 		lsl	r3, r3, #23
 560 0148 4FEAD353 		lsr	r3, r3, #23
 561 014c 1344     		add	r3, r2, r3
ARM GAS  C:\Users\z80\AppData\Local\Temp\ccWqrhGE.s 			page 11


 562 014e 0393     		str	r3, [sp, #12]
 563              		.loc 1 848 0
 564 0150 039B     		ldr	r3, [sp, #12]
 565 0152 03F10303 		add	r3, r3, #3
 566 0156 1B78     		ldrb	r3, [r3, #0]	@ zero_extendqisi2
 567 0158 4FEA0362 		lsl	r2, r3, #24
 568 015c 039B     		ldr	r3, [sp, #12]
 569 015e 03F10203 		add	r3, r3, #2
 570 0162 1B78     		ldrb	r3, [r3, #0]	@ zero_extendqisi2
 571 0164 4FEA0343 		lsl	r3, r3, #16
 572 0168 42EA0302 		orr	r2, r2, r3
 573 016c 039B     		ldr	r3, [sp, #12]
 574 016e 03F10103 		add	r3, r3, #1
 575 0172 1B78     		ldrb	r3, [r3, #0]	@ zero_extendqisi2
 576 0174 4FEA0323 		lsl	r3, r3, #8
 577 0178 42EA0302 		orr	r2, r2, r3
 578 017c 039B     		ldr	r3, [sp, #12]
 579 017e 1B78     		ldrb	r3, [r3, #0]	@ zero_extendqisi2
 580 0180 42EA0303 		orr	r3, r2, r3
 581 0184 23F07043 		bic	r3, r3, #-268435456
 582 0188 08E0     		b	.L24
 583              	.L35:
 584              		.loc 1 834 0
 585 018a 00BF     		nop
 586 018c 04E0     		b	.L25
 587              	.L36:
 588              		.loc 1 836 0
 589 018e 00BF     		nop
 590 0190 02E0     		b	.L25
 591              	.L37:
 592              		.loc 1 841 0
 593 0192 00BF     		nop
 594 0194 00E0     		b	.L25
 595              	.L38:
 596              		.loc 1 846 0
 597 0196 00BF     		nop
 598              	.L25:
 599              		.loc 1 851 0
 600 0198 4FF0FF33 		mov	r3, #-1
 601              	.L24:
 602              		.loc 1 852 0
 603 019c 1846     		mov	r0, r3
 604 019e 07B0     		add	sp, sp, #28
 605 01a0 00BD     		pop	{pc}
 606              		.cfi_endproc
 607              	.LFE6:
 608              		.size	get_fat, .-get_fat
 609 01a2 00BFAFF3 		.section	.text.dir_sdi,"ax",%progbits
 609      0080AFF3 
 609      0080AFF3 
 609      0080
 610              		.align	2
 611              		.p2align 4,,15
 612              		.thumb
 613              		.thumb_func
 614              		.type	dir_sdi, %function
 615              	dir_sdi:
ARM GAS  C:\Users\z80\AppData\Local\Temp\ccWqrhGE.s 			page 12


 616              	.LFB7:
 617              		.loc 1 1069 0
 618              		.cfi_startproc
 619              		@ args = 0, pretend = 0, frame = 16
 620              		@ frame_needed = 0, uses_anonymous_args = 0
 621 0000 00B5     		push	{lr}
 622              	.LCFI9:
 623              		.cfi_def_cfa_offset 4
 624 0002 85B0     		sub	sp, sp, #20
 625              	.LCFI10:
 626              		.cfi_def_cfa_offset 24
 627 0004 0190     		str	r0, [sp, #4]
 628 0006 0B46     		mov	r3, r1
 629 0008 ADF80230 		strh	r3, [sp, #2]	@ movhi
 630              		.loc 1 1074 0
 631 000c 019B     		ldr	r3, [sp, #4]
 632 000e BDF80220 		ldrh	r2, [sp, #2]	@ movhi
 633 0012 DA80     		strh	r2, [r3, #6]	@ movhi
 634              		.loc 1 1075 0
 635 0014 019B     		ldr	r3, [sp, #4]
 636 0016 9B68     		ldr	r3, [r3, #8]
 637 0018 0393     		str	r3, [sp, #12]
 638              		.loc 1 1076 0
 639 001a 039B     		ldr	r3, [sp, #12]
 640 001c 012B     		cmp	r3, #1
 641 001e 05D0     		beq	.L40
 642              		.cfi_offset 14, -4
 643              		.loc 1 1076 0 is_stmt 0 discriminator 1
 644 0020 019B     		ldr	r3, [sp, #4]
 645 0022 1B68     		ldr	r3, [r3, #0]
 646 0024 DA68     		ldr	r2, [r3, #12]
 647 0026 039B     		ldr	r3, [sp, #12]
 648 0028 9A42     		cmp	r2, r3
 649 002a 02D8     		bhi	.L41
 650              	.L40:
 651              		.loc 1 1077 0 is_stmt 1
 652 002c 4FF00203 		mov	r3, #2
 653 0030 79E0     		b	.L42
 654              	.L41:
 655              		.loc 1 1078 0
 656 0032 039B     		ldr	r3, [sp, #12]
 657 0034 002B     		cmp	r3, #0
 658 0036 08D1     		bne	.L43
 659              		.loc 1 1078 0 is_stmt 0 discriminator 1
 660 0038 019B     		ldr	r3, [sp, #4]
 661 003a 1B68     		ldr	r3, [r3, #0]
 662 003c 1B78     		ldrb	r3, [r3, #0]	@ zero_extendqisi2
 663 003e 032B     		cmp	r3, #3
 664 0040 03D1     		bne	.L43
 665              		.loc 1 1079 0 is_stmt 1
 666 0042 019B     		ldr	r3, [sp, #4]
 667 0044 1B68     		ldr	r3, [r3, #0]
 668 0046 9B69     		ldr	r3, [r3, #24]
 669 0048 0393     		str	r3, [sp, #12]
 670              	.L43:
 671              		.loc 1 1081 0
 672 004a 039B     		ldr	r3, [sp, #12]
ARM GAS  C:\Users\z80\AppData\Local\Temp\ccWqrhGE.s 			page 13


 673 004c 002B     		cmp	r3, #0
 674 004e 18D1     		bne	.L44
 675              		.loc 1 1082 0
 676 0050 019B     		ldr	r3, [sp, #4]
 677 0052 039A     		ldr	r2, [sp, #12]
 678 0054 DA60     		str	r2, [r3, #12]
 679              		.loc 1 1083 0
 680 0056 019B     		ldr	r3, [sp, #4]
 681 0058 1B68     		ldr	r3, [r3, #0]
 682 005a 1B89     		ldrh	r3, [r3, #8]
 683 005c BDF80220 		ldrh	r2, [sp, #2]
 684 0060 9A42     		cmp	r2, r3
 685 0062 02D3     		bcc	.L45
 686              		.loc 1 1084 0
 687 0064 4FF00203 		mov	r3, #2
 688 0068 5DE0     		b	.L42
 689              	.L45:
 690              		.loc 1 1085 0
 691 006a 019B     		ldr	r3, [sp, #4]
 692 006c 1B68     		ldr	r3, [r3, #0]
 693 006e 9A69     		ldr	r2, [r3, #24]
 694 0070 BDF80230 		ldrh	r3, [sp, #2]
 695 0074 4FEA1313 		lsr	r3, r3, #4
 696 0078 9BB2     		uxth	r3, r3
 697 007a 1A44     		add	r2, r2, r3
 698 007c 019B     		ldr	r3, [sp, #4]
 699 007e 1A61     		str	r2, [r3, #16]
 700 0080 42E0     		b	.L46
 701              	.L44:
 702              		.loc 1 1088 0
 703 0082 019B     		ldr	r3, [sp, #4]
 704 0084 1B68     		ldr	r3, [r3, #0]
 705 0086 9B78     		ldrb	r3, [r3, #2]	@ zero_extendqisi2
 706 0088 4FEA0313 		lsl	r3, r3, #4
 707 008c ADF80A30 		strh	r3, [sp, #10]	@ movhi
 708              		.loc 1 1089 0
 709 0090 22E0     		b	.L47
 710              	.L51:
 711              		.loc 1 1090 0
 712 0092 019B     		ldr	r3, [sp, #4]
 713 0094 1B68     		ldr	r3, [r3, #0]
 714 0096 1846     		mov	r0, r3
 715 0098 0399     		ldr	r1, [sp, #12]
 716 009a FFF7FEFF 		bl	get_fat
 717 009e 0346     		mov	r3, r0
 718 00a0 0393     		str	r3, [sp, #12]
 719              		.loc 1 1091 0
 720 00a2 039B     		ldr	r3, [sp, #12]
 721 00a4 B3F1FF3F 		cmp	r3, #-1
 722 00a8 02D1     		bne	.L48
 723              		.loc 1 1091 0 is_stmt 0 discriminator 1
 724 00aa 4FF00103 		mov	r3, #1
 725 00ae 3AE0     		b	.L42
 726              	.L48:
 727              		.loc 1 1092 0 is_stmt 1
 728 00b0 039B     		ldr	r3, [sp, #12]
 729 00b2 012B     		cmp	r3, #1
ARM GAS  C:\Users\z80\AppData\Local\Temp\ccWqrhGE.s 			page 14


 730 00b4 05D9     		bls	.L49
 731              		.loc 1 1092 0 is_stmt 0 discriminator 1
 732 00b6 019B     		ldr	r3, [sp, #4]
 733 00b8 1B68     		ldr	r3, [r3, #0]
 734 00ba DA68     		ldr	r2, [r3, #12]
 735 00bc 039B     		ldr	r3, [sp, #12]
 736 00be 9A42     		cmp	r2, r3
 737 00c0 02D8     		bhi	.L50
 738              	.L49:
 739              		.loc 1 1093 0 is_stmt 1
 740 00c2 4FF00203 		mov	r3, #2
 741 00c6 2EE0     		b	.L42
 742              	.L50:
 743              		.loc 1 1094 0
 744 00c8 BDF80220 		ldrh	r2, [sp, #2]	@ movhi
 745 00cc BDF80A30 		ldrh	r3, [sp, #10]	@ movhi
 746 00d0 C3EB0203 		rsb	r3, r3, r2
 747 00d4 ADF80230 		strh	r3, [sp, #2]	@ movhi
 748              	.L47:
 749              		.loc 1 1089 0 discriminator 1
 750 00d8 BDF80220 		ldrh	r2, [sp, #2]
 751 00dc BDF80A30 		ldrh	r3, [sp, #10]
 752 00e0 9A42     		cmp	r2, r3
 753 00e2 D6D2     		bcs	.L51
 754              		.loc 1 1096 0
 755 00e4 019B     		ldr	r3, [sp, #4]
 756 00e6 039A     		ldr	r2, [sp, #12]
 757 00e8 DA60     		str	r2, [r3, #12]
 758              		.loc 1 1097 0
 759 00ea 019B     		ldr	r3, [sp, #4]
 760 00ec 1B68     		ldr	r3, [r3, #0]
 761 00ee 1846     		mov	r0, r3
 762 00f0 0399     		ldr	r1, [sp, #12]
 763 00f2 FFF7FEFF 		bl	clust2sect
 764 00f6 0246     		mov	r2, r0
 765 00f8 BDF80230 		ldrh	r3, [sp, #2]
 766 00fc 4FEA1313 		lsr	r3, r3, #4
 767 0100 9BB2     		uxth	r3, r3
 768 0102 1A44     		add	r2, r2, r3
 769 0104 019B     		ldr	r3, [sp, #4]
 770 0106 1A61     		str	r2, [r3, #16]
 771              	.L46:
 772              		.loc 1 1100 0
 773 0108 019B     		ldr	r3, [sp, #4]
 774 010a 1B68     		ldr	r3, [r3, #0]
 775 010c 03F12402 		add	r2, r3, #36
 776 0110 BDF80230 		ldrh	r3, [sp, #2]
 777 0114 03F00F03 		and	r3, r3, #15
 778 0118 4FEA4313 		lsl	r3, r3, #5
 779 011c 1A44     		add	r2, r2, r3
 780 011e 019B     		ldr	r3, [sp, #4]
 781 0120 5A61     		str	r2, [r3, #20]
 782              		.loc 1 1102 0
 783 0122 4FF00003 		mov	r3, #0
 784              	.L42:
 785              		.loc 1 1103 0
 786 0126 1846     		mov	r0, r3
ARM GAS  C:\Users\z80\AppData\Local\Temp\ccWqrhGE.s 			page 15


 787 0128 05B0     		add	sp, sp, #20
 788 012a 00BD     		pop	{pc}
 789              		.cfi_endproc
 790              	.LFE7:
 791              		.size	dir_sdi, .-dir_sdi
 792 012c AFF30080 		.section	.text.dir_next,"ax",%progbits
 793              		.align	2
 794              		.p2align 4,,15
 795              		.thumb
 796              		.thumb_func
 797              		.type	dir_next, %function
 798              	dir_next:
 799              	.LFB8:
 800              		.loc 1 1117 0
 801              		.cfi_startproc
 802              		@ args = 0, pretend = 0, frame = 16
 803              		@ frame_needed = 0, uses_anonymous_args = 0
 804 0000 00B5     		push	{lr}
 805              	.LCFI11:
 806              		.cfi_def_cfa_offset 4
 807 0002 85B0     		sub	sp, sp, #20
 808              	.LCFI12:
 809              		.cfi_def_cfa_offset 24
 810 0004 0190     		str	r0, [sp, #4]
 811 0006 0091     		str	r1, [sp, #0]
 812              		.loc 1 1123 0
 813 0008 019B     		ldr	r3, [sp, #4]
 814 000a DB88     		ldrh	r3, [r3, #6]
 815 000c 03F10103 		add	r3, r3, #1
 816 0010 ADF80E30 		strh	r3, [sp, #14]	@ movhi
 817              		.loc 1 1124 0
 818 0014 BDF80E30 		ldrh	r3, [sp, #14]
 819 0018 002B     		cmp	r3, #0
 820 001a 03D0     		beq	.L53
 821              		.cfi_offset 14, -4
 822              		.loc 1 1124 0 is_stmt 0 discriminator 1
 823 001c 019B     		ldr	r3, [sp, #4]
 824 001e 1B69     		ldr	r3, [r3, #16]
 825 0020 002B     		cmp	r3, #0
 826 0022 02D1     		bne	.L54
 827              	.L53:
 828              		.loc 1 1125 0 is_stmt 1
 829 0024 4FF00403 		mov	r3, #4
 830 0028 6AE0     		b	.L55
 831              	.L54:
 832              		.loc 1 1127 0
 833 002a BDF80E30 		ldrh	r3, [sp, #14]	@ movhi
 834 002e 03F00F03 		and	r3, r3, #15
 835 0032 9BB2     		uxth	r3, r3
 836 0034 002B     		cmp	r3, #0
 837 0036 50D1     		bne	.L56
 838              		.loc 1 1128 0
 839 0038 019B     		ldr	r3, [sp, #4]
 840 003a 1B69     		ldr	r3, [r3, #16]
 841 003c 03F10102 		add	r2, r3, #1
 842 0040 019B     		ldr	r3, [sp, #4]
 843 0042 1A61     		str	r2, [r3, #16]
ARM GAS  C:\Users\z80\AppData\Local\Temp\ccWqrhGE.s 			page 16


 844              		.loc 1 1130 0
 845 0044 019B     		ldr	r3, [sp, #4]
 846 0046 DB68     		ldr	r3, [r3, #12]
 847 0048 002B     		cmp	r3, #0
 848 004a 09D1     		bne	.L57
 849              		.loc 1 1131 0
 850 004c 019B     		ldr	r3, [sp, #4]
 851 004e 1B68     		ldr	r3, [r3, #0]
 852 0050 1B89     		ldrh	r3, [r3, #8]
 853 0052 BDF80E20 		ldrh	r2, [sp, #14]
 854 0056 9A42     		cmp	r2, r3
 855 0058 3ED3     		bcc	.L62
 856              		.loc 1 1132 0
 857 005a 4FF00403 		mov	r3, #4
 858 005e 4FE0     		b	.L55
 859              	.L57:
 860              		.loc 1 1135 0
 861 0060 BDF80E30 		ldrh	r3, [sp, #14]
 862 0064 4FEA1313 		lsr	r3, r3, #4
 863 0068 9BB2     		uxth	r3, r3
 864 006a 1A46     		mov	r2, r3
 865 006c 019B     		ldr	r3, [sp, #4]
 866 006e 1B68     		ldr	r3, [r3, #0]
 867 0070 9B78     		ldrb	r3, [r3, #2]	@ zero_extendqisi2
 868 0072 03F1FF33 		add	r3, r3, #-1
 869 0076 02EA0303 		and	r3, r2, r3
 870 007a 002B     		cmp	r3, #0
 871 007c 2DD1     		bne	.L56
 872              		.loc 1 1136 0
 873 007e 019B     		ldr	r3, [sp, #4]
 874 0080 1A68     		ldr	r2, [r3, #0]
 875 0082 019B     		ldr	r3, [sp, #4]
 876 0084 DB68     		ldr	r3, [r3, #12]
 877 0086 1046     		mov	r0, r2
 878 0088 1946     		mov	r1, r3
 879 008a FFF7FEFF 		bl	get_fat
 880 008e 0346     		mov	r3, r0
 881 0090 0293     		str	r3, [sp, #8]
 882              		.loc 1 1137 0
 883 0092 029B     		ldr	r3, [sp, #8]
 884 0094 012B     		cmp	r3, #1
 885 0096 02D8     		bhi	.L59
 886              		.loc 1 1137 0 is_stmt 0 discriminator 1
 887 0098 4FF00203 		mov	r3, #2
 888 009c 30E0     		b	.L55
 889              	.L59:
 890              		.loc 1 1138 0 is_stmt 1
 891 009e 029B     		ldr	r3, [sp, #8]
 892 00a0 B3F1FF3F 		cmp	r3, #-1
 893 00a4 02D1     		bne	.L60
 894              		.loc 1 1138 0 is_stmt 0 discriminator 1
 895 00a6 4FF00103 		mov	r3, #1
 896 00aa 29E0     		b	.L55
 897              	.L60:
 898              		.loc 1 1139 0 is_stmt 1
 899 00ac 019B     		ldr	r3, [sp, #4]
 900 00ae 1B68     		ldr	r3, [r3, #0]
ARM GAS  C:\Users\z80\AppData\Local\Temp\ccWqrhGE.s 			page 17


 901 00b0 DA68     		ldr	r2, [r3, #12]
 902 00b2 029B     		ldr	r3, [sp, #8]
 903 00b4 9A42     		cmp	r2, r3
 904 00b6 02D8     		bhi	.L61
 905              		.loc 1 1158 0
 906 00b8 4FF00403 		mov	r3, #4
 907 00bc 20E0     		b	.L55
 908              	.L61:
 909              		.loc 1 1161 0
 910 00be 019B     		ldr	r3, [sp, #4]
 911 00c0 029A     		ldr	r2, [sp, #8]
 912 00c2 DA60     		str	r2, [r3, #12]
 913              		.loc 1 1162 0
 914 00c4 019B     		ldr	r3, [sp, #4]
 915 00c6 1B68     		ldr	r3, [r3, #0]
 916 00c8 1846     		mov	r0, r3
 917 00ca 0299     		ldr	r1, [sp, #8]
 918 00cc FFF7FEFF 		bl	clust2sect
 919 00d0 0246     		mov	r2, r0
 920 00d2 019B     		ldr	r3, [sp, #4]
 921 00d4 1A61     		str	r2, [r3, #16]
 922 00d6 00E0     		b	.L56
 923              	.L62:
 924              		.loc 1 1132 0
 925 00d8 00BF     		nop
 926              	.L56:
 927              		.loc 1 1167 0
 928 00da 019B     		ldr	r3, [sp, #4]
 929 00dc BDF80E20 		ldrh	r2, [sp, #14]	@ movhi
 930 00e0 DA80     		strh	r2, [r3, #6]	@ movhi
 931              		.loc 1 1168 0
 932 00e2 019B     		ldr	r3, [sp, #4]
 933 00e4 1B68     		ldr	r3, [r3, #0]
 934 00e6 03F12402 		add	r2, r3, #36
 935 00ea BDF80E30 		ldrh	r3, [sp, #14]
 936 00ee 03F00F03 		and	r3, r3, #15
 937 00f2 4FEA4313 		lsl	r3, r3, #5
 938 00f6 1A44     		add	r2, r2, r3
 939 00f8 019B     		ldr	r3, [sp, #4]
 940 00fa 5A61     		str	r2, [r3, #20]
 941              		.loc 1 1170 0
 942 00fc 4FF00003 		mov	r3, #0
 943              	.L55:
 944              		.loc 1 1171 0
 945 0100 1846     		mov	r0, r3
 946 0102 05B0     		add	sp, sp, #20
 947 0104 00BD     		pop	{pc}
 948              		.cfi_endproc
 949              	.LFE8:
 950              		.size	dir_next, .-dir_next
 951 0106 00BFAFF3 		.section	.text.dir_find,"ax",%progbits
 951      0080AFF3 
 951      0080
 952              		.align	2
 953              		.p2align 4,,15
 954              		.thumb
 955              		.thumb_func
ARM GAS  C:\Users\z80\AppData\Local\Temp\ccWqrhGE.s 			page 18


 956              		.type	dir_find, %function
 957              	dir_find:
 958              	.LFB9:
 959              		.loc 1 1356 0
 960              		.cfi_startproc
 961              		@ args = 0, pretend = 0, frame = 24
 962              		@ frame_needed = 0, uses_anonymous_args = 0
 963 0000 00B5     		push	{lr}
 964              	.LCFI13:
 965              		.cfi_def_cfa_offset 4
 966 0002 87B0     		sub	sp, sp, #28
 967              	.LCFI14:
 968              		.cfi_def_cfa_offset 32
 969 0004 0190     		str	r0, [sp, #4]
 970              		.loc 1 1363 0
 971 0006 0198     		ldr	r0, [sp, #4]
 972 0008 4FF00001 		mov	r1, #0
 973              		.cfi_offset 14, -4
 974 000c FFF7FEFF 		bl	dir_sdi
 975 0010 0346     		mov	r3, r0
 976 0012 8DF81730 		strb	r3, [sp, #23]
 977              		.loc 1 1364 0
 978 0016 9DF81730 		ldrb	r3, [sp, #23]	@ zero_extendqisi2
 979 001a 002B     		cmp	r3, #0
 980 001c 02D0     		beq	.L64
 981              		.loc 1 1364 0 is_stmt 0 discriminator 1
 982 001e 9DF81730 		ldrb	r3, [sp, #23]	@ zero_extendqisi2
 983 0022 43E0     		b	.L65
 984              	.L64:
 985              		.loc 1 1370 0 is_stmt 1
 986 0024 019B     		ldr	r3, [sp, #4]
 987 0026 1A68     		ldr	r2, [r3, #0]
 988 0028 019B     		ldr	r3, [sp, #4]
 989 002a 1B69     		ldr	r3, [r3, #16]
 990 002c 1046     		mov	r0, r2
 991 002e 1946     		mov	r1, r3
 992 0030 FFF7FEFF 		bl	move_window
 993 0034 0346     		mov	r3, r0
 994 0036 8DF81730 		strb	r3, [sp, #23]
 995              		.loc 1 1371 0
 996 003a 9DF81730 		ldrb	r3, [sp, #23]	@ zero_extendqisi2
 997 003e 002B     		cmp	r3, #0
 998 0040 2FD1     		bne	.L70
 999              	.L66:
 1000              		.loc 1 1372 0
 1001 0042 019B     		ldr	r3, [sp, #4]
 1002 0044 5B69     		ldr	r3, [r3, #20]
 1003 0046 0493     		str	r3, [sp, #16]
 1004              		.loc 1 1373 0
 1005 0048 049B     		ldr	r3, [sp, #16]
 1006 004a 1B78     		ldrb	r3, [r3, #0]
 1007 004c 8DF80F30 		strb	r3, [sp, #15]
 1008              		.loc 1 1374 0
 1009 0050 9DF80F30 		ldrb	r3, [sp, #15]	@ zero_extendqisi2
 1010 0054 002B     		cmp	r3, #0
 1011 0056 04D1     		bne	.L68
 1012              		.loc 1 1374 0 is_stmt 0 discriminator 1
ARM GAS  C:\Users\z80\AppData\Local\Temp\ccWqrhGE.s 			page 19


 1013 0058 4FF00403 		mov	r3, #4
 1014 005c 8DF81730 		strb	r3, [sp, #23]
 1015 0060 22E0     		b	.L67
 1016              	.L68:
 1017              		.loc 1 1397 0 is_stmt 1
 1018 0062 049B     		ldr	r3, [sp, #16]
 1019 0064 03F10B03 		add	r3, r3, #11
 1020 0068 1B78     		ldrb	r3, [r3, #0]	@ zero_extendqisi2
 1021 006a 03F00803 		and	r3, r3, #8
 1022 006e 002B     		cmp	r3, #0
 1023 0070 0AD1     		bne	.L69
 1024              		.loc 1 1397 0 is_stmt 0 discriminator 1
 1025 0072 019B     		ldr	r3, [sp, #4]
 1026 0074 9B69     		ldr	r3, [r3, #24]
 1027 0076 0498     		ldr	r0, [sp, #16]
 1028 0078 1946     		mov	r1, r3
 1029 007a 4FF00B02 		mov	r2, #11
 1030 007e FFF7FEFF 		bl	mem_cmp
 1031 0082 0346     		mov	r3, r0
 1032 0084 002B     		cmp	r3, #0
 1033 0086 0ED0     		beq	.L71
 1034              	.L69:
 1035              		.loc 1 1400 0 is_stmt 1
 1036 0088 0198     		ldr	r0, [sp, #4]
 1037 008a 4FF00001 		mov	r1, #0
 1038 008e FFF7FEFF 		bl	dir_next
 1039 0092 0346     		mov	r3, r0
 1040 0094 8DF81730 		strb	r3, [sp, #23]
 1041              		.loc 1 1401 0
 1042 0098 9DF81730 		ldrb	r3, [sp, #23]	@ zero_extendqisi2
 1043 009c 002B     		cmp	r3, #0
 1044 009e C1D0     		beq	.L64
 1045 00a0 02E0     		b	.L67
 1046              	.L70:
 1047              		.loc 1 1371 0
 1048 00a2 00BF     		nop
 1049 00a4 00E0     		b	.L67
 1050              	.L71:
 1051              		.loc 1 1398 0
 1052 00a6 00BF     		nop
 1053              	.L67:
 1054              		.loc 1 1403 0
 1055 00a8 9DF81730 		ldrb	r3, [sp, #23]	@ zero_extendqisi2
 1056              	.L65:
 1057              		.loc 1 1404 0
 1058 00ac 1846     		mov	r0, r3
 1059 00ae 07B0     		add	sp, sp, #28
 1060 00b0 00BD     		pop	{pc}
 1061              		.cfi_endproc
 1062              	.LFE9:
 1063              		.size	dir_find, .-dir_find
 1064 00b2 00BFAFF3 		.section	.rodata
 1064      0080AFF3 
 1064      0080AFF3 
 1064      0080
 1065              		.align	2
 1066              	.LC0:
ARM GAS  C:\Users\z80\AppData\Local\Temp\ccWqrhGE.s 			page 20


 1067 0000 222A2B2C 		.ascii	"\"*+,:;<=>?[]|\177\000"
 1067      3A3B3C3D 
 1067      3E3F5B5D 
 1067      7C7F00
 1068 000f 00       		.section	.text.create_name,"ax",%progbits
 1069              		.align	2
 1070              		.p2align 4,,15
 1071              		.thumb
 1072              		.thumb_func
 1073              		.type	create_name, %function
 1074              	create_name:
 1075              	.LFB10:
 1076              		.loc 1 1627 0
 1077              		.cfi_startproc
 1078              		@ args = 0, pretend = 0, frame = 32
 1079              		@ frame_needed = 0, uses_anonymous_args = 0
 1080 0000 00B5     		push	{lr}
 1081              	.LCFI15:
 1082              		.cfi_def_cfa_offset 4
 1083 0002 89B0     		sub	sp, sp, #36
 1084              	.LCFI16:
 1085              		.cfi_def_cfa_offset 40
 1086 0004 0190     		str	r0, [sp, #4]
 1087 0006 0091     		str	r1, [sp, #0]
 1088              		.loc 1 1759 0
 1089 0008 009B     		ldr	r3, [sp, #0]
 1090 000a 1B68     		ldr	r3, [r3, #0]
 1091 000c 0393     		str	r3, [sp, #12]
 1092 000e 03E0     		b	.L73
 1093              		.cfi_offset 14, -4
 1094              	.L74:
 1095              		.loc 1 1759 0 is_stmt 0 discriminator 2
 1096 0010 039B     		ldr	r3, [sp, #12]
 1097 0012 03F10103 		add	r3, r3, #1
 1098 0016 0393     		str	r3, [sp, #12]
 1099              	.L73:
 1100              		.loc 1 1759 0 discriminator 1
 1101 0018 039B     		ldr	r3, [sp, #12]
 1102 001a 1B78     		ldrb	r3, [r3, #0]	@ zero_extendqisi2
 1103 001c 2F2B     		cmp	r3, #47
 1104 001e F7D0     		beq	.L74
 1105              		.loc 1 1759 0 discriminator 3
 1106 0020 039B     		ldr	r3, [sp, #12]
 1107 0022 1B78     		ldrb	r3, [r3, #0]	@ zero_extendqisi2
 1108 0024 5C2B     		cmp	r3, #92
 1109 0026 F3D0     		beq	.L74
 1110              		.loc 1 1760 0 is_stmt 1
 1111 0028 019B     		ldr	r3, [sp, #4]
 1112 002a 9B69     		ldr	r3, [r3, #24]
 1113 002c 0293     		str	r3, [sp, #8]
 1114              		.loc 1 1761 0
 1115 002e 0298     		ldr	r0, [sp, #8]
 1116 0030 4FF02001 		mov	r1, #32
 1117 0034 4FF00B02 		mov	r2, #11
 1118 0038 FFF7FEFF 		bl	mem_set
 1119              		.loc 1 1762 0
 1120 003c 4FF00003 		mov	r3, #0
ARM GAS  C:\Users\z80\AppData\Local\Temp\ccWqrhGE.s 			page 21


 1121 0040 8DF81F30 		strb	r3, [sp, #31]
 1122 0044 4FF00003 		mov	r3, #0
 1123 0048 0493     		str	r3, [sp, #16]
 1124 004a 049B     		ldr	r3, [sp, #16]
 1125 004c 0593     		str	r3, [sp, #20]
 1126 004e 4FF00803 		mov	r3, #8
 1127 0052 0693     		str	r3, [sp, #24]
 1128              	.L86:
 1129              		.loc 1 1777 0
 1130 0054 039A     		ldr	r2, [sp, #12]
 1131 0056 059B     		ldr	r3, [sp, #20]
 1132 0058 1344     		add	r3, r2, r3
 1133 005a 1B78     		ldrb	r3, [r3, #0]
 1134 005c 8DF81E30 		strb	r3, [sp, #30]
 1135 0060 059B     		ldr	r3, [sp, #20]
 1136 0062 03F10103 		add	r3, r3, #1
 1137 0066 0593     		str	r3, [sp, #20]
 1138              		.loc 1 1778 0
 1139 0068 9DF81E30 		ldrb	r3, [sp, #30]	@ zero_extendqisi2
 1140 006c 202B     		cmp	r3, #32
 1141 006e 7AD9     		bls	.L75
 1142              		.loc 1 1778 0 is_stmt 0 discriminator 1
 1143 0070 9DF81E30 		ldrb	r3, [sp, #30]	@ zero_extendqisi2
 1144 0074 2F2B     		cmp	r3, #47
 1145 0076 76D0     		beq	.L75
 1146 0078 9DF81E30 		ldrb	r3, [sp, #30]	@ zero_extendqisi2
 1147 007c 5C2B     		cmp	r3, #92
 1148 007e 72D0     		beq	.L75
 1149              		.loc 1 1779 0 is_stmt 1
 1150 0080 9DF81E30 		ldrb	r3, [sp, #30]	@ zero_extendqisi2
 1151 0084 2E2B     		cmp	r3, #46
 1152 0086 03D0     		beq	.L76
 1153              		.loc 1 1779 0 is_stmt 0 discriminator 1
 1154 0088 049A     		ldr	r2, [sp, #16]
 1155 008a 069B     		ldr	r3, [sp, #24]
 1156 008c 9A42     		cmp	r2, r3
 1157 008e 17D3     		bcc	.L77
 1158              	.L76:
 1159              		.loc 1 1780 0 is_stmt 1
 1160 0090 069B     		ldr	r3, [sp, #24]
 1161 0092 082B     		cmp	r3, #8
 1162 0094 03D1     		bne	.L78
 1163              		.loc 1 1780 0 is_stmt 0 discriminator 2
 1164 0096 9DF81E30 		ldrb	r3, [sp, #30]	@ zero_extendqisi2
 1165 009a 2E2B     		cmp	r3, #46
 1166 009c 02D0     		beq	.L79
 1167              	.L78:
 1168              		.loc 1 1780 0 discriminator 1
 1169 009e 4FF00603 		mov	r3, #6
 1170 00a2 A7E0     		b	.L80
 1171              	.L79:
 1172              		.loc 1 1781 0 is_stmt 1
 1173 00a4 4FF00803 		mov	r3, #8
 1174 00a8 0493     		str	r3, [sp, #16]
 1175 00aa 4FF00B03 		mov	r3, #11
 1176 00ae 0693     		str	r3, [sp, #24]
 1177              		.loc 1 1782 0
ARM GAS  C:\Users\z80\AppData\Local\Temp\ccWqrhGE.s 			page 22


 1178 00b0 9DF81F30 		ldrb	r3, [sp, #31]
 1179 00b4 4FEA8303 		lsl	r3, r3, #2
 1180 00b8 8DF81F30 		strb	r3, [sp, #31]
 1181 00bc 00BF     		nop
 1182              		.loc 1 1812 0
 1183 00be C9E7     		b	.L86
 1184              	.L77:
 1185              		.loc 1 1784 0
 1186 00c0 9DF81E30 		ldrb	r3, [sp, #30]	@ zero_extendqisi2
 1187 00c4 5BB2     		sxtb	r3, r3
 1188 00c6 002B     		cmp	r3, #0
 1189 00c8 10DA     		bge	.L82
 1190              		.loc 1 1785 0
 1191 00ca 9DF81F30 		ldrb	r3, [sp, #31]
 1192 00ce 43F00303 		orr	r3, r3, #3
 1193 00d2 8DF81F30 		strb	r3, [sp, #31]
 1194              		.loc 1 1787 0
 1195 00d6 9DF81E30 		ldrb	r3, [sp, #30]	@ zero_extendqisi2
 1196 00da A3F18002 		sub	r2, r3, #128
 1197 00de 40F20003 		movw	r3, #:lower16:excvt.1549
 1198 00e2 C0F20003 		movt	r3, #:upper16:excvt.1549
 1199 00e6 9B5C     		ldrb	r3, [r3, r2]
 1200 00e8 8DF81E30 		strb	r3, [sp, #30]
 1201              	.L82:
 1202              		.loc 1 1801 0
 1203 00ec 9DF81E30 		ldrb	r3, [sp, #30]	@ zero_extendqisi2
 1204 00f0 40F20000 		movw	r0, #:lower16:.LC0
 1205 00f4 C0F20000 		movt	r0, #:upper16:.LC0
 1206 00f8 1946     		mov	r1, r3
 1207 00fa FFF7FEFF 		bl	chk_chr
 1208 00fe 0346     		mov	r3, r0
 1209 0100 002B     		cmp	r3, #0
 1210 0102 02D0     		beq	.L83
 1211              		.loc 1 1802 0
 1212 0104 4FF00603 		mov	r3, #6
 1213 0108 74E0     		b	.L80
 1214              	.L83:
 1215              		.loc 1 1803 0
 1216 010a 9DF81E30 		ldrb	r3, [sp, #30]	@ zero_extendqisi2
 1217 010e 402B     		cmp	r3, #64
 1218 0110 0AD9     		bls	.L84
 1219              		.loc 1 1803 0 is_stmt 0 discriminator 1
 1220 0112 9DF81E30 		ldrb	r3, [sp, #30]	@ zero_extendqisi2
 1221 0116 5A2B     		cmp	r3, #90
 1222 0118 06D8     		bhi	.L84
 1223              		.loc 1 1804 0 is_stmt 1
 1224 011a 9DF81F30 		ldrb	r3, [sp, #31]
 1225 011e 43F00203 		orr	r3, r3, #2
 1226 0122 8DF81F30 		strb	r3, [sp, #31]
 1227 0126 13E0     		b	.L85
 1228              	.L84:
 1229              		.loc 1 1806 0
 1230 0128 9DF81E30 		ldrb	r3, [sp, #30]	@ zero_extendqisi2
 1231 012c 602B     		cmp	r3, #96
 1232 012e 0FD9     		bls	.L85
 1233              		.loc 1 1806 0 is_stmt 0 discriminator 1
 1234 0130 9DF81E30 		ldrb	r3, [sp, #30]	@ zero_extendqisi2
ARM GAS  C:\Users\z80\AppData\Local\Temp\ccWqrhGE.s 			page 23


 1235 0134 7A2B     		cmp	r3, #122
 1236 0136 0BD8     		bhi	.L85
 1237              		.loc 1 1807 0 is_stmt 1
 1238 0138 9DF81F30 		ldrb	r3, [sp, #31]
 1239 013c 43F00103 		orr	r3, r3, #1
 1240 0140 8DF81F30 		strb	r3, [sp, #31]
 1241 0144 9DF81E30 		ldrb	r3, [sp, #30]
 1242 0148 A3F12003 		sub	r3, r3, #32
 1243 014c 8DF81E30 		strb	r3, [sp, #30]
 1244              	.L85:
 1245              		.loc 1 1810 0
 1246 0150 029A     		ldr	r2, [sp, #8]
 1247 0152 049B     		ldr	r3, [sp, #16]
 1248 0154 1344     		add	r3, r2, r3
 1249 0156 9DF81E20 		ldrb	r2, [sp, #30]
 1250 015a 1A70     		strb	r2, [r3, #0]
 1251 015c 049B     		ldr	r3, [sp, #16]
 1252 015e 03F10103 		add	r3, r3, #1
 1253 0162 0493     		str	r3, [sp, #16]
 1254              		.loc 1 1812 0
 1255 0164 76E7     		b	.L86
 1256              	.L75:
 1257              		.loc 1 1813 0
 1258 0166 039A     		ldr	r2, [sp, #12]
 1259 0168 059B     		ldr	r3, [sp, #20]
 1260 016a 1A44     		add	r2, r2, r3
 1261 016c 009B     		ldr	r3, [sp, #0]
 1262 016e 1A60     		str	r2, [r3, #0]
 1263              		.loc 1 1814 0
 1264 0170 9DF81E30 		ldrb	r3, [sp, #30]	@ zero_extendqisi2
 1265 0174 202B     		cmp	r3, #32
 1266 0176 02D8     		bhi	.L87
 1267              		.loc 1 1814 0 is_stmt 0 discriminator 1
 1268 0178 4FF00403 		mov	r3, #4
 1269 017c 01E0     		b	.L88
 1270              	.L87:
 1271              		.loc 1 1814 0 discriminator 2
 1272 017e 4FF00003 		mov	r3, #0
 1273              	.L88:
 1274              		.loc 1 1814 0 discriminator 3
 1275 0182 8DF81E30 		strb	r3, [sp, #30]
 1276              		.loc 1 1816 0 is_stmt 1 discriminator 3
 1277 0186 049B     		ldr	r3, [sp, #16]
 1278 0188 002B     		cmp	r3, #0
 1279 018a 02D1     		bne	.L89
 1280              		.loc 1 1816 0 is_stmt 0 discriminator 1
 1281 018c 4FF00603 		mov	r3, #6
 1282 0190 30E0     		b	.L80
 1283              	.L89:
 1284              		.loc 1 1817 0 is_stmt 1
 1285 0192 029B     		ldr	r3, [sp, #8]
 1286 0194 1B78     		ldrb	r3, [r3, #0]	@ zero_extendqisi2
 1287 0196 E52B     		cmp	r3, #229
 1288 0198 03D1     		bne	.L90
 1289              		.loc 1 1817 0 is_stmt 0 discriminator 1
 1290 019a 029B     		ldr	r3, [sp, #8]
 1291 019c 4FF00502 		mov	r2, #5
ARM GAS  C:\Users\z80\AppData\Local\Temp\ccWqrhGE.s 			page 24


 1292 01a0 1A70     		strb	r2, [r3, #0]
 1293              	.L90:
 1294              		.loc 1 1819 0 is_stmt 1
 1295 01a2 069B     		ldr	r3, [sp, #24]
 1296 01a4 082B     		cmp	r3, #8
 1297 01a6 05D1     		bne	.L91
 1298              		.loc 1 1819 0 is_stmt 0 discriminator 1
 1299 01a8 9DF81F30 		ldrb	r3, [sp, #31]
 1300 01ac 4FEA8303 		lsl	r3, r3, #2
 1301 01b0 8DF81F30 		strb	r3, [sp, #31]
 1302              	.L91:
 1303              		.loc 1 1820 0 is_stmt 1
 1304 01b4 9DF81F30 		ldrb	r3, [sp, #31]	@ zero_extendqisi2
 1305 01b8 03F00303 		and	r3, r3, #3
 1306 01bc 012B     		cmp	r3, #1
 1307 01be 05D1     		bne	.L92
 1308              		.loc 1 1820 0 is_stmt 0 discriminator 1
 1309 01c0 9DF81E30 		ldrb	r3, [sp, #30]
 1310 01c4 43F01003 		orr	r3, r3, #16
 1311 01c8 8DF81E30 		strb	r3, [sp, #30]
 1312              	.L92:
 1313              		.loc 1 1821 0 is_stmt 1
 1314 01cc 9DF81F30 		ldrb	r3, [sp, #31]	@ zero_extendqisi2
 1315 01d0 03F00C03 		and	r3, r3, #12
 1316 01d4 042B     		cmp	r3, #4
 1317 01d6 05D1     		bne	.L93
 1318              		.loc 1 1821 0 is_stmt 0 discriminator 1
 1319 01d8 9DF81E30 		ldrb	r3, [sp, #30]
 1320 01dc 43F00803 		orr	r3, r3, #8
 1321 01e0 8DF81E30 		strb	r3, [sp, #30]
 1322              	.L93:
 1323              		.loc 1 1823 0 is_stmt 1
 1324 01e4 029B     		ldr	r3, [sp, #8]
 1325 01e6 03F10B03 		add	r3, r3, #11
 1326 01ea 9DF81E20 		ldrb	r2, [sp, #30]
 1327 01ee 1A70     		strb	r2, [r3, #0]
 1328              		.loc 1 1825 0
 1329 01f0 4FF00003 		mov	r3, #0
 1330              	.L80:
 1331              		.loc 1 1827 0
 1332 01f4 1846     		mov	r0, r3
 1333 01f6 09B0     		add	sp, sp, #36
 1334 01f8 00BD     		pop	{pc}
 1335              		.cfi_endproc
 1336              	.LFE10:
 1337              		.size	create_name, .-create_name
 1338 01fa 00BFAFF3 		.section	.text.follow_path,"ax",%progbits
 1338      0080
 1339              		.align	2
 1340              		.p2align 4,,15
 1341              		.thumb
 1342              		.thumb_func
 1343              		.type	follow_path, %function
 1344              	follow_path:
 1345              	.LFB11:
 1346              		.loc 1 1923 0
 1347              		.cfi_startproc
ARM GAS  C:\Users\z80\AppData\Local\Temp\ccWqrhGE.s 			page 25


 1348              		@ args = 0, pretend = 0, frame = 16
 1349              		@ frame_needed = 0, uses_anonymous_args = 0
 1350 0000 00B5     		push	{lr}
 1351              	.LCFI17:
 1352              		.cfi_def_cfa_offset 4
 1353 0002 85B0     		sub	sp, sp, #20
 1354              	.LCFI18:
 1355              		.cfi_def_cfa_offset 24
 1356 0004 0190     		str	r0, [sp, #4]
 1357 0006 0091     		str	r1, [sp, #0]
 1358              		.loc 1 1935 0
 1359 0008 009B     		ldr	r3, [sp, #0]
 1360 000a 1B78     		ldrb	r3, [r3, #0]	@ zero_extendqisi2
 1361 000c 2F2B     		cmp	r3, #47
 1362 000e 03D0     		beq	.L95
 1363              		.cfi_offset 14, -4
 1364              		.loc 1 1935 0 is_stmt 0 discriminator 1
 1365 0010 009B     		ldr	r3, [sp, #0]
 1366 0012 1B78     		ldrb	r3, [r3, #0]	@ zero_extendqisi2
 1367 0014 5C2B     		cmp	r3, #92
 1368 0016 03D1     		bne	.L96
 1369              	.L95:
 1370              		.loc 1 1936 0 is_stmt 1
 1371 0018 009B     		ldr	r3, [sp, #0]
 1372 001a 03F10103 		add	r3, r3, #1
 1373 001e 0093     		str	r3, [sp, #0]
 1374              	.L96:
 1375              		.loc 1 1937 0
 1376 0020 019B     		ldr	r3, [sp, #4]
 1377 0022 4FF00002 		mov	r2, #0
 1378 0026 9A60     		str	r2, [r3, #8]
 1379              		.loc 1 1940 0
 1380 0028 009B     		ldr	r3, [sp, #0]
 1381 002a 1B78     		ldrb	r3, [r3, #0]	@ zero_extendqisi2
 1382 002c 1F2B     		cmp	r3, #31
 1383 002e 0CD8     		bhi	.L97
 1384              		.loc 1 1941 0
 1385 0030 0198     		ldr	r0, [sp, #4]
 1386 0032 4FF00001 		mov	r1, #0
 1387 0036 FFF7FEFF 		bl	dir_sdi
 1388 003a 0346     		mov	r3, r0
 1389 003c 8DF80F30 		strb	r3, [sp, #15]
 1390              		.loc 1 1942 0
 1391 0040 019B     		ldr	r3, [sp, #4]
 1392 0042 4FF00002 		mov	r2, #0
 1393 0046 5A61     		str	r2, [r3, #20]
 1394 0048 6DE0     		b	.L98
 1395              	.L97:
 1396              		.loc 1 1946 0
 1397 004a 6B46     		mov	r3, sp
 1398 004c 0198     		ldr	r0, [sp, #4]
 1399 004e 1946     		mov	r1, r3
 1400 0050 FFF7FEFF 		bl	create_name
 1401 0054 0346     		mov	r3, r0
 1402 0056 8DF80F30 		strb	r3, [sp, #15]
 1403              		.loc 1 1947 0
 1404 005a 9DF80F30 		ldrb	r3, [sp, #15]	@ zero_extendqisi2
ARM GAS  C:\Users\z80\AppData\Local\Temp\ccWqrhGE.s 			page 26


 1405 005e 002B     		cmp	r3, #0
 1406 0060 5AD1     		bne	.L105
 1407              	.L99:
 1408              		.loc 1 1948 0
 1409 0062 0198     		ldr	r0, [sp, #4]
 1410 0064 FFF7FEFF 		bl	dir_find
 1411 0068 0346     		mov	r3, r0
 1412 006a 8DF80F30 		strb	r3, [sp, #15]
 1413              		.loc 1 1949 0
 1414 006e 019B     		ldr	r3, [sp, #4]
 1415 0070 9B69     		ldr	r3, [r3, #24]
 1416 0072 03F10B03 		add	r3, r3, #11
 1417 0076 1B78     		ldrb	r3, [r3, #0]
 1418 0078 8DF80E30 		strb	r3, [sp, #14]
 1419              		.loc 1 1950 0
 1420 007c 9DF80F30 		ldrb	r3, [sp, #15]	@ zero_extendqisi2
 1421 0080 002B     		cmp	r3, #0
 1422 0082 0ED0     		beq	.L100
 1423              		.loc 1 1951 0
 1424 0084 9DF80F30 		ldrb	r3, [sp, #15]	@ zero_extendqisi2
 1425 0088 042B     		cmp	r3, #4
 1426 008a 47D1     		bne	.L106
 1427              	.L101:
 1428              		.loc 1 1958 0
 1429 008c 9DF80E30 		ldrb	r3, [sp, #14]	@ zero_extendqisi2
 1430 0090 03F00403 		and	r3, r3, #4
 1431 0094 002B     		cmp	r3, #0
 1432 0096 43D1     		bne	.L107
 1433              		.loc 1 1958 0 is_stmt 0 discriminator 1
 1434 0098 4FF00503 		mov	r3, #5
 1435 009c 8DF80F30 		strb	r3, [sp, #15]
 1436              		.loc 1 1960 0 is_stmt 1 discriminator 1
 1437 00a0 41E0     		b	.L98
 1438              	.L100:
 1439              		.loc 1 1962 0
 1440 00a2 9DF80E30 		ldrb	r3, [sp, #14]	@ zero_extendqisi2
 1441 00a6 03F00403 		and	r3, r3, #4
 1442 00aa 002B     		cmp	r3, #0
 1443 00ac 3AD1     		bne	.L108
 1444              	.L103:
 1445              		.loc 1 1963 0
 1446 00ae 019B     		ldr	r3, [sp, #4]
 1447 00b0 5B69     		ldr	r3, [r3, #20]
 1448 00b2 0293     		str	r3, [sp, #8]
 1449              		.loc 1 1964 0
 1450 00b4 029B     		ldr	r3, [sp, #8]
 1451 00b6 03F10B03 		add	r3, r3, #11
 1452 00ba 1B78     		ldrb	r3, [r3, #0]	@ zero_extendqisi2
 1453 00bc 03F01003 		and	r3, r3, #16
 1454 00c0 002B     		cmp	r3, #0
 1455 00c2 04D1     		bne	.L104
 1456              		.loc 1 1965 0
 1457 00c4 4FF00503 		mov	r3, #5
 1458 00c8 8DF80F30 		strb	r3, [sp, #15]
 1459 00cc 2BE0     		b	.L98
 1460              	.L104:
 1461              		.loc 1 1967 0
ARM GAS  C:\Users\z80\AppData\Local\Temp\ccWqrhGE.s 			page 27


 1462 00ce 029B     		ldr	r3, [sp, #8]
 1463 00d0 03F11503 		add	r3, r3, #21
 1464 00d4 1B78     		ldrb	r3, [r3, #0]	@ zero_extendqisi2
 1465 00d6 4FEA0323 		lsl	r3, r3, #8
 1466 00da 9AB2     		uxth	r2, r3
 1467 00dc 029B     		ldr	r3, [sp, #8]
 1468 00de 03F11403 		add	r3, r3, #20
 1469 00e2 1B78     		ldrb	r3, [r3, #0]	@ zero_extendqisi2
 1470 00e4 42EA0303 		orr	r3, r2, r3
 1471 00e8 9BB2     		uxth	r3, r3
 1472 00ea 9BB2     		uxth	r3, r3
 1473 00ec 4FEA0342 		lsl	r2, r3, #16
 1474 00f0 029B     		ldr	r3, [sp, #8]
 1475 00f2 03F11B03 		add	r3, r3, #27
 1476 00f6 1B78     		ldrb	r3, [r3, #0]	@ zero_extendqisi2
 1477 00f8 4FEA0323 		lsl	r3, r3, #8
 1478 00fc 99B2     		uxth	r1, r3
 1479 00fe 029B     		ldr	r3, [sp, #8]
 1480 0100 03F11A03 		add	r3, r3, #26
 1481 0104 1B78     		ldrb	r3, [r3, #0]	@ zero_extendqisi2
 1482 0106 41EA0303 		orr	r3, r1, r3
 1483 010a 9BB2     		uxth	r3, r3
 1484 010c 9BB2     		uxth	r3, r3
 1485 010e 42EA0302 		orr	r2, r2, r3
 1486 0112 019B     		ldr	r3, [sp, #4]
 1487 0114 9A60     		str	r2, [r3, #8]
 1488              		.loc 1 1968 0
 1489 0116 98E7     		b	.L97
 1490              	.L105:
 1491              		.loc 1 1947 0
 1492 0118 00BF     		nop
 1493 011a 04E0     		b	.L98
 1494              	.L106:
 1495              		.loc 1 1951 0
 1496 011c 00BF     		nop
 1497 011e 02E0     		b	.L98
 1498              	.L107:
 1499              		.loc 1 1960 0
 1500 0120 00BF     		nop
 1501 0122 00E0     		b	.L98
 1502              	.L108:
 1503              		.loc 1 1962 0
 1504 0124 00BF     		nop
 1505              	.L98:
 1506              		.loc 1 1971 0
 1507 0126 9DF80F30 		ldrb	r3, [sp, #15]	@ zero_extendqisi2
 1508              		.loc 1 1972 0
 1509 012a 1846     		mov	r0, r3
 1510 012c 05B0     		add	sp, sp, #20
 1511 012e 00BD     		pop	{pc}
 1512              		.cfi_endproc
 1513              	.LFE11:
 1514              		.size	follow_path, .-follow_path
 1515              		.section	.text.check_fs,"ax",%progbits
 1516              		.align	2
 1517              		.p2align 4,,15
 1518              		.thumb
ARM GAS  C:\Users\z80\AppData\Local\Temp\ccWqrhGE.s 			page 28


 1519              		.thumb_func
 1520              		.type	check_fs, %function
 1521              	check_fs:
 1522              	.LFB12:
 1523              		.loc 1 1986 0
 1524              		.cfi_startproc
 1525              		@ args = 0, pretend = 0, frame = 8
 1526              		@ frame_needed = 0, uses_anonymous_args = 0
 1527 0000 00B5     		push	{lr}
 1528              	.LCFI19:
 1529              		.cfi_def_cfa_offset 4
 1530 0002 83B0     		sub	sp, sp, #12
 1531              	.LCFI20:
 1532              		.cfi_def_cfa_offset 16
 1533 0004 0190     		str	r0, [sp, #4]
 1534 0006 0091     		str	r1, [sp, #0]
 1535              		.loc 1 1987 0
 1536 0008 019B     		ldr	r3, [sp, #4]
 1537 000a 5A78     		ldrb	r2, [r3, #1]	@ zero_extendqisi2
 1538 000c 019B     		ldr	r3, [sp, #4]
 1539 000e 03F12403 		add	r3, r3, #36
 1540 0012 1046     		mov	r0, r2
 1541 0014 1946     		mov	r1, r3
 1542 0016 009A     		ldr	r2, [sp, #0]
 1543 0018 4FF00103 		mov	r3, #1
 1544              		.cfi_offset 14, -4
 1545 001c FFF7FEFF 		bl	disk_read
 1546 0020 0346     		mov	r3, r0
 1547 0022 002B     		cmp	r3, #0
 1548 0024 02D0     		beq	.L110
 1549              		.loc 1 1988 0
 1550 0026 4FF00303 		mov	r3, #3
 1551 002a 6BE0     		b	.L111
 1552              	.L110:
 1553              		.loc 1 1989 0
 1554 002c 019B     		ldr	r3, [sp, #4]
 1555 002e 03F50873 		add	r3, r3, #544
 1556 0032 03F10303 		add	r3, r3, #3
 1557 0036 1B78     		ldrb	r3, [r3, #0]	@ zero_extendqisi2
 1558 0038 4FEA0323 		lsl	r3, r3, #8
 1559 003c 9AB2     		uxth	r2, r3
 1560 003e 019B     		ldr	r3, [sp, #4]
 1561 0040 03F50873 		add	r3, r3, #544
 1562 0044 03F10203 		add	r3, r3, #2
 1563 0048 1B78     		ldrb	r3, [r3, #0]	@ zero_extendqisi2
 1564 004a 42EA0303 		orr	r3, r2, r3
 1565 004e 9BB2     		uxth	r3, r3
 1566 0050 1AB2     		sxth	r2, r3
 1567 0052 4AF65523 		movw	r3, #43605
 1568 0056 CFF6FF73 		movt	r3, 65535
 1569 005a 9A42     		cmp	r2, r3
 1570 005c 02D0     		beq	.L112
 1571              		.loc 1 1990 0
 1572 005e 4FF00203 		mov	r3, #2
 1573 0062 4FE0     		b	.L111
 1574              	.L112:
 1575              		.loc 1 1992 0
ARM GAS  C:\Users\z80\AppData\Local\Temp\ccWqrhGE.s 			page 29


 1576 0064 019B     		ldr	r3, [sp, #4]
 1577 0066 03F15D03 		add	r3, r3, #93
 1578 006a 1B78     		ldrb	r3, [r3, #0]	@ zero_extendqisi2
 1579 006c 4FEA0362 		lsl	r2, r3, #24
 1580 0070 019B     		ldr	r3, [sp, #4]
 1581 0072 03F15C03 		add	r3, r3, #92
 1582 0076 1B78     		ldrb	r3, [r3, #0]	@ zero_extendqisi2
 1583 0078 4FEA0343 		lsl	r3, r3, #16
 1584 007c 42EA0302 		orr	r2, r2, r3
 1585 0080 019B     		ldr	r3, [sp, #4]
 1586 0082 03F15B03 		add	r3, r3, #91
 1587 0086 1B78     		ldrb	r3, [r3, #0]	@ zero_extendqisi2
 1588 0088 4FEA0323 		lsl	r3, r3, #8
 1589 008c 42EA0302 		orr	r2, r2, r3
 1590 0090 019B     		ldr	r3, [sp, #4]
 1591 0092 03F15A03 		add	r3, r3, #90
 1592 0096 1B78     		ldrb	r3, [r3, #0]	@ zero_extendqisi2
 1593 0098 42EA0303 		orr	r3, r2, r3
 1594 009c 23F07F42 		bic	r2, r3, #-16777216
 1595 00a0 44F24613 		movw	r3, #16710
 1596 00a4 C0F25403 		movt	r3, 84
 1597 00a8 9A42     		cmp	r2, r3
 1598 00aa 02D1     		bne	.L113
 1599              		.loc 1 1993 0
 1600 00ac 4FF00003 		mov	r3, #0
 1601 00b0 28E0     		b	.L111
 1602              	.L113:
 1603              		.loc 1 1994 0
 1604 00b2 019B     		ldr	r3, [sp, #4]
 1605 00b4 03F17903 		add	r3, r3, #121
 1606 00b8 1B78     		ldrb	r3, [r3, #0]	@ zero_extendqisi2
 1607 00ba 4FEA0362 		lsl	r2, r3, #24
 1608 00be 019B     		ldr	r3, [sp, #4]
 1609 00c0 03F17803 		add	r3, r3, #120
 1610 00c4 1B78     		ldrb	r3, [r3, #0]	@ zero_extendqisi2
 1611 00c6 4FEA0343 		lsl	r3, r3, #16
 1612 00ca 42EA0302 		orr	r2, r2, r3
 1613 00ce 019B     		ldr	r3, [sp, #4]
 1614 00d0 03F17703 		add	r3, r3, #119
 1615 00d4 1B78     		ldrb	r3, [r3, #0]	@ zero_extendqisi2
 1616 00d6 4FEA0323 		lsl	r3, r3, #8
 1617 00da 42EA0302 		orr	r2, r2, r3
 1618 00de 019B     		ldr	r3, [sp, #4]
 1619 00e0 03F17603 		add	r3, r3, #118
 1620 00e4 1B78     		ldrb	r3, [r3, #0]	@ zero_extendqisi2
 1621 00e6 42EA0303 		orr	r3, r2, r3
 1622 00ea 23F07F42 		bic	r2, r3, #-16777216
 1623 00ee 44F24613 		movw	r3, #16710
 1624 00f2 C0F25403 		movt	r3, 84
 1625 00f6 9A42     		cmp	r2, r3
 1626 00f8 02D1     		bne	.L114
 1627              		.loc 1 1995 0
 1628 00fa 4FF00003 		mov	r3, #0
 1629 00fe 01E0     		b	.L111
 1630              	.L114:
 1631              		.loc 1 1997 0
 1632 0100 4FF00103 		mov	r3, #1
ARM GAS  C:\Users\z80\AppData\Local\Temp\ccWqrhGE.s 			page 30


 1633              	.L111:
 1634              		.loc 1 1998 0
 1635 0104 1846     		mov	r0, r3
 1636 0106 03B0     		add	sp, sp, #12
 1637 0108 00BD     		pop	{pc}
 1638              		.cfi_endproc
 1639              	.LFE12:
 1640              		.size	check_fs, .-check_fs
 1641 010a 00BFAFF3 		.section	.text.chk_mounted,"ax",%progbits
 1641      0080
 1642              		.align	2
 1643              		.p2align 4,,15
 1644              		.thumb
 1645              		.thumb_func
 1646              		.type	chk_mounted, %function
 1647              	chk_mounted:
 1648              	.LFB13:
 1649              		.loc 1 2013 0
 1650              		.cfi_startproc
 1651              		@ args = 0, pretend = 0, frame = 72
 1652              		@ frame_needed = 0, uses_anonymous_args = 0
 1653 0000 00B5     		push	{lr}
 1654              	.LCFI21:
 1655              		.cfi_def_cfa_offset 4
 1656 0002 93B0     		sub	sp, sp, #76
 1657              	.LCFI22:
 1658              		.cfi_def_cfa_offset 80
 1659 0004 0390     		str	r0, [sp, #12]
 1660 0006 0291     		str	r1, [sp, #8]
 1661 0008 1346     		mov	r3, r2
 1662 000a 8DF80730 		strb	r3, [sp, #7]
 1663              		.loc 1 2019 0
 1664 000e 039B     		ldr	r3, [sp, #12]
 1665 0010 1B68     		ldr	r3, [r3, #0]
 1666 0012 0B93     		str	r3, [sp, #44]
 1667              		.loc 1 2023 0
 1668 0014 0B9B     		ldr	r3, [sp, #44]
 1669 0016 1B78     		ldrb	r3, [r3, #0]	@ zero_extendqisi2
 1670 0018 A3F13003 		sub	r3, r3, #48
 1671 001c 1093     		str	r3, [sp, #64]
 1672              		.loc 1 2024 0
 1673 001e 109B     		ldr	r3, [sp, #64]
 1674 0020 092B     		cmp	r3, #9
 1675 0022 0DD8     		bhi	.L116
 1676              		.cfi_offset 14, -4
 1677              		.loc 1 2024 0 is_stmt 0 discriminator 1
 1678 0024 0B9B     		ldr	r3, [sp, #44]
 1679 0026 03F10103 		add	r3, r3, #1
 1680 002a 1B78     		ldrb	r3, [r3, #0]	@ zero_extendqisi2
 1681 002c 3A2B     		cmp	r3, #58
 1682 002e 07D1     		bne	.L116
 1683              		.loc 1 2025 0 is_stmt 1
 1684 0030 0B9B     		ldr	r3, [sp, #44]
 1685 0032 03F10203 		add	r3, r3, #2
 1686 0036 0B93     		str	r3, [sp, #44]
 1687 0038 039B     		ldr	r3, [sp, #12]
 1688 003a 0B9A     		ldr	r2, [sp, #44]
ARM GAS  C:\Users\z80\AppData\Local\Temp\ccWqrhGE.s 			page 31


 1689 003c 1A60     		str	r2, [r3, #0]
 1690 003e 02E0     		b	.L117
 1691              	.L116:
 1692              		.loc 1 2030 0
 1693 0040 4FF00003 		mov	r3, #0
 1694 0044 1093     		str	r3, [sp, #64]
 1695              	.L117:
 1696              		.loc 1 2035 0
 1697 0046 109B     		ldr	r3, [sp, #64]
 1698 0048 002B     		cmp	r3, #0
 1699 004a 02D0     		beq	.L118
 1700              		.loc 1 2036 0
 1701 004c 4FF00B03 		mov	r3, #11
 1702 0050 46E2     		b	.L119
 1703              	.L118:
 1704              		.loc 1 2037 0
 1705 0052 40F20003 		movw	r3, #:lower16:FatFs
 1706 0056 C0F20003 		movt	r3, #:upper16:FatFs
 1707 005a 109A     		ldr	r2, [sp, #64]
 1708 005c 53F82230 		ldr	r3, [r3, r2, lsl #2]
 1709 0060 0A93     		str	r3, [sp, #40]
 1710 0062 029B     		ldr	r3, [sp, #8]
 1711 0064 0A9A     		ldr	r2, [sp, #40]
 1712 0066 1A60     		str	r2, [r3, #0]
 1713              		.loc 1 2038 0
 1714 0068 0A9B     		ldr	r3, [sp, #40]
 1715 006a 002B     		cmp	r3, #0
 1716 006c 02D1     		bne	.L120
 1717              		.loc 1 2038 0 is_stmt 0 discriminator 1
 1718 006e 4FF00C03 		mov	r3, #12
 1719 0072 35E2     		b	.L119
 1720              	.L120:
 1721              		.loc 1 2042 0 is_stmt 1
 1722 0074 0A9B     		ldr	r3, [sp, #40]
 1723 0076 1B78     		ldrb	r3, [r3, #0]	@ zero_extendqisi2
 1724 0078 002B     		cmp	r3, #0
 1725 007a 10D0     		beq	.L121
 1726              		.loc 1 2043 0
 1727 007c 0A9B     		ldr	r3, [sp, #40]
 1728 007e 5B78     		ldrb	r3, [r3, #1]	@ zero_extendqisi2
 1729 0080 1846     		mov	r0, r3
 1730 0082 FFF7FEFF 		bl	disk_status
 1731 0086 0346     		mov	r3, r0
 1732 0088 8DF82730 		strb	r3, [sp, #39]
 1733              		.loc 1 2044 0
 1734 008c 9DF82730 		ldrb	r3, [sp, #39]	@ zero_extendqisi2
 1735 0090 03F00103 		and	r3, r3, #1
 1736 0094 002B     		cmp	r3, #0
 1737 0096 02D1     		bne	.L121
 1738              		.loc 1 2047 0
 1739 0098 4FF00003 		mov	r3, #0
 1740 009c 20E2     		b	.L119
 1741              	.L121:
 1742              		.loc 1 2054 0
 1743 009e 0A9B     		ldr	r3, [sp, #40]
 1744 00a0 4FF00002 		mov	r2, #0
 1745 00a4 1A70     		strb	r2, [r3, #0]
ARM GAS  C:\Users\z80\AppData\Local\Temp\ccWqrhGE.s 			page 32


 1746              		.loc 1 2055 0
 1747 00a6 109B     		ldr	r3, [sp, #64]
 1748 00a8 DAB2     		uxtb	r2, r3
 1749 00aa 0A9B     		ldr	r3, [sp, #40]
 1750 00ac 5A70     		strb	r2, [r3, #1]
 1751              		.loc 1 2056 0
 1752 00ae 0A9B     		ldr	r3, [sp, #40]
 1753 00b0 5B78     		ldrb	r3, [r3, #1]	@ zero_extendqisi2
 1754 00b2 1846     		mov	r0, r3
 1755 00b4 FFF7FEFF 		bl	disk_initialize
 1756 00b8 0346     		mov	r3, r0
 1757 00ba 8DF82730 		strb	r3, [sp, #39]
 1758              		.loc 1 2057 0
 1759 00be 9DF82730 		ldrb	r3, [sp, #39]	@ zero_extendqisi2
 1760 00c2 03F00103 		and	r3, r3, #1
 1761 00c6 DBB2     		uxtb	r3, r3
 1762 00c8 002B     		cmp	r3, #0
 1763 00ca 02D0     		beq	.L122
 1764              		.loc 1 2058 0
 1765 00cc 4FF00303 		mov	r3, #3
 1766 00d0 06E2     		b	.L119
 1767              	.L122:
 1768              		.loc 1 2066 0
 1769 00d2 4FF00003 		mov	r3, #0
 1770 00d6 0F93     		str	r3, [sp, #60]
 1771 00d8 0A98     		ldr	r0, [sp, #40]
 1772 00da 0F99     		ldr	r1, [sp, #60]
 1773 00dc FFF7FEFF 		bl	check_fs
 1774 00e0 0346     		mov	r3, r0
 1775 00e2 8DF84730 		strb	r3, [sp, #71]
 1776              		.loc 1 2068 0
 1777 00e6 9DF84730 		ldrb	r3, [sp, #71]	@ zero_extendqisi2
 1778 00ea 012B     		cmp	r3, #1
 1779 00ec 42D1     		bne	.L123
 1780              		.loc 1 2070 0
 1781 00ee 4FF00003 		mov	r3, #0
 1782 00f2 8DF84630 		strb	r3, [sp, #70]
 1783              		.loc 1 2071 0
 1784 00f6 9DF84630 		ldrb	r3, [sp, #70]	@ zero_extendqisi2
 1785 00fa 002B     		cmp	r3, #0
 1786 00fc 05D0     		beq	.L124
 1787              		.loc 1 2071 0 is_stmt 0 discriminator 1
 1788 00fe 9DF84630 		ldrb	r3, [sp, #70]
 1789 0102 03F1FF33 		add	r3, r3, #-1
 1790 0106 8DF84630 		strb	r3, [sp, #70]
 1791              	.L124:
 1792              		.loc 1 2072 0 is_stmt 1
 1793 010a 0A9B     		ldr	r3, [sp, #40]
 1794 010c 03F12402 		add	r2, r3, #36
 1795 0110 9DF84630 		ldrb	r3, [sp, #70]	@ zero_extendqisi2
 1796 0114 4FEA0313 		lsl	r3, r3, #4
 1797 0118 03F5DF73 		add	r3, r3, #446
 1798 011c 1344     		add	r3, r2, r3
 1799 011e 0893     		str	r3, [sp, #32]
 1800              		.loc 1 2073 0
 1801 0120 089B     		ldr	r3, [sp, #32]
 1802 0122 03F10403 		add	r3, r3, #4
ARM GAS  C:\Users\z80\AppData\Local\Temp\ccWqrhGE.s 			page 33


 1803 0126 1B78     		ldrb	r3, [r3, #0]	@ zero_extendqisi2
 1804 0128 002B     		cmp	r3, #0
 1805 012a 23D0     		beq	.L123
 1806              		.loc 1 2074 0
 1807 012c 089B     		ldr	r3, [sp, #32]
 1808 012e 03F10B03 		add	r3, r3, #11
 1809 0132 1B78     		ldrb	r3, [r3, #0]	@ zero_extendqisi2
 1810 0134 4FEA0362 		lsl	r2, r3, #24
 1811 0138 089B     		ldr	r3, [sp, #32]
 1812 013a 03F10A03 		add	r3, r3, #10
 1813 013e 1B78     		ldrb	r3, [r3, #0]	@ zero_extendqisi2
 1814 0140 4FEA0343 		lsl	r3, r3, #16
 1815 0144 42EA0302 		orr	r2, r2, r3
 1816 0148 089B     		ldr	r3, [sp, #32]
 1817 014a 03F10903 		add	r3, r3, #9
 1818 014e 1B78     		ldrb	r3, [r3, #0]	@ zero_extendqisi2
 1819 0150 4FEA0323 		lsl	r3, r3, #8
 1820 0154 42EA0302 		orr	r2, r2, r3
 1821 0158 089B     		ldr	r3, [sp, #32]
 1822 015a 03F10803 		add	r3, r3, #8
 1823 015e 1B78     		ldrb	r3, [r3, #0]	@ zero_extendqisi2
 1824 0160 42EA0303 		orr	r3, r2, r3
 1825 0164 0F93     		str	r3, [sp, #60]
 1826              		.loc 1 2075 0
 1827 0166 0A98     		ldr	r0, [sp, #40]
 1828 0168 0F99     		ldr	r1, [sp, #60]
 1829 016a FFF7FEFF 		bl	check_fs
 1830 016e 0346     		mov	r3, r0
 1831 0170 8DF84730 		strb	r3, [sp, #71]
 1832              	.L123:
 1833              		.loc 1 2078 0
 1834 0174 9DF84730 		ldrb	r3, [sp, #71]	@ zero_extendqisi2
 1835 0178 032B     		cmp	r3, #3
 1836 017a 02D1     		bne	.L125
 1837              		.loc 1 2078 0 is_stmt 0 discriminator 1
 1838 017c 4FF00103 		mov	r3, #1
 1839 0180 AEE1     		b	.L119
 1840              	.L125:
 1841              		.loc 1 2079 0 is_stmt 1
 1842 0182 9DF84730 		ldrb	r3, [sp, #71]	@ zero_extendqisi2
 1843 0186 002B     		cmp	r3, #0
 1844 0188 02D0     		beq	.L126
 1845              		.loc 1 2079 0 is_stmt 0 discriminator 1
 1846 018a 4FF00D03 		mov	r3, #13
 1847 018e A7E1     		b	.L119
 1848              	.L126:
 1849              		.loc 1 2083 0 is_stmt 1
 1850 0190 0A9B     		ldr	r3, [sp, #40]
 1851 0192 03F13003 		add	r3, r3, #48
 1852 0196 1B78     		ldrb	r3, [r3, #0]	@ zero_extendqisi2
 1853 0198 4FEA0323 		lsl	r3, r3, #8
 1854 019c 9AB2     		uxth	r2, r3
 1855 019e 0A9B     		ldr	r3, [sp, #40]
 1856 01a0 03F12F03 		add	r3, r3, #47
 1857 01a4 1B78     		ldrb	r3, [r3, #0]	@ zero_extendqisi2
 1858 01a6 42EA0303 		orr	r3, r2, r3
 1859 01aa 9BB2     		uxth	r3, r3
ARM GAS  C:\Users\z80\AppData\Local\Temp\ccWqrhGE.s 			page 34


 1860 01ac 1BB2     		sxth	r3, r3
 1861 01ae B3F5007F 		cmp	r3, #512
 1862 01b2 02D0     		beq	.L127
 1863              		.loc 1 2084 0
 1864 01b4 4FF00D03 		mov	r3, #13
 1865 01b8 92E1     		b	.L119
 1866              	.L127:
 1867              		.loc 1 2086 0
 1868 01ba 0A9B     		ldr	r3, [sp, #40]
 1869 01bc 03F13B03 		add	r3, r3, #59
 1870 01c0 1B78     		ldrb	r3, [r3, #0]	@ zero_extendqisi2
 1871 01c2 4FEA0323 		lsl	r3, r3, #8
 1872 01c6 9AB2     		uxth	r2, r3
 1873 01c8 0A9B     		ldr	r3, [sp, #40]
 1874 01ca 03F13A03 		add	r3, r3, #58
 1875 01ce 1B78     		ldrb	r3, [r3, #0]	@ zero_extendqisi2
 1876 01d0 42EA0303 		orr	r3, r2, r3
 1877 01d4 9BB2     		uxth	r3, r3
 1878 01d6 9BB2     		uxth	r3, r3
 1879 01d8 0E93     		str	r3, [sp, #56]
 1880              		.loc 1 2087 0
 1881 01da 0E9B     		ldr	r3, [sp, #56]
 1882 01dc 002B     		cmp	r3, #0
 1883 01de 1CD1     		bne	.L128
 1884              		.loc 1 2087 0 is_stmt 0 discriminator 1
 1885 01e0 0A9B     		ldr	r3, [sp, #40]
 1886 01e2 03F14B03 		add	r3, r3, #75
 1887 01e6 1B78     		ldrb	r3, [r3, #0]	@ zero_extendqisi2
 1888 01e8 4FEA0362 		lsl	r2, r3, #24
 1889 01ec 0A9B     		ldr	r3, [sp, #40]
 1890 01ee 03F14A03 		add	r3, r3, #74
 1891 01f2 1B78     		ldrb	r3, [r3, #0]	@ zero_extendqisi2
 1892 01f4 4FEA0343 		lsl	r3, r3, #16
 1893 01f8 42EA0302 		orr	r2, r2, r3
 1894 01fc 0A9B     		ldr	r3, [sp, #40]
 1895 01fe 03F14903 		add	r3, r3, #73
 1896 0202 1B78     		ldrb	r3, [r3, #0]	@ zero_extendqisi2
 1897 0204 4FEA0323 		lsl	r3, r3, #8
 1898 0208 42EA0302 		orr	r2, r2, r3
 1899 020c 0A9B     		ldr	r3, [sp, #40]
 1900 020e 03F14803 		add	r3, r3, #72
 1901 0212 1B78     		ldrb	r3, [r3, #0]	@ zero_extendqisi2
 1902 0214 42EA0303 		orr	r3, r2, r3
 1903 0218 0E93     		str	r3, [sp, #56]
 1904              	.L128:
 1905              		.loc 1 2088 0 is_stmt 1
 1906 021a 0A9B     		ldr	r3, [sp, #40]
 1907 021c 0E9A     		ldr	r2, [sp, #56]
 1908 021e 1A61     		str	r2, [r3, #16]
 1909              		.loc 1 2090 0
 1910 0220 0A9B     		ldr	r3, [sp, #40]
 1911 0222 93F83430 		ldrb	r3, [r3, #52]
 1912 0226 8DF81F30 		strb	r3, [sp, #31]
 1913 022a 0A9B     		ldr	r3, [sp, #40]
 1914 022c 9DF81F20 		ldrb	r2, [sp, #31]
 1915 0230 DA70     		strb	r2, [r3, #3]
 1916              		.loc 1 2091 0
ARM GAS  C:\Users\z80\AppData\Local\Temp\ccWqrhGE.s 			page 35


 1917 0232 9DF81F30 		ldrb	r3, [sp, #31]	@ zero_extendqisi2
 1918 0236 012B     		cmp	r3, #1
 1919 0238 06D0     		beq	.L129
 1920              		.loc 1 2091 0 is_stmt 0 discriminator 1
 1921 023a 9DF81F30 		ldrb	r3, [sp, #31]	@ zero_extendqisi2
 1922 023e 022B     		cmp	r3, #2
 1923 0240 02D0     		beq	.L129
 1924 0242 4FF00D03 		mov	r3, #13
 1925 0246 4BE1     		b	.L119
 1926              	.L129:
 1927              		.loc 1 2092 0 is_stmt 1
 1928 0248 9DF81F20 		ldrb	r2, [sp, #31]	@ zero_extendqisi2
 1929 024c 0E9B     		ldr	r3, [sp, #56]
 1930 024e 02FB03F3 		mul	r3, r2, r3
 1931 0252 0E93     		str	r3, [sp, #56]
 1932              		.loc 1 2094 0
 1933 0254 0A9B     		ldr	r3, [sp, #40]
 1934 0256 93F83130 		ldrb	r3, [r3, #49]
 1935 025a 8DF81F30 		strb	r3, [sp, #31]
 1936 025e 0A9B     		ldr	r3, [sp, #40]
 1937 0260 9DF81F20 		ldrb	r2, [sp, #31]
 1938 0264 9A70     		strb	r2, [r3, #2]
 1939              		.loc 1 2095 0
 1940 0266 9DF81F30 		ldrb	r3, [sp, #31]	@ zero_extendqisi2
 1941 026a 002B     		cmp	r3, #0
 1942 026c 09D0     		beq	.L130
 1943              		.loc 1 2095 0 is_stmt 0 discriminator 2
 1944 026e 9DF81F20 		ldrb	r2, [sp, #31]	@ zero_extendqisi2
 1945 0272 9DF81F30 		ldrb	r3, [sp, #31]	@ zero_extendqisi2
 1946 0276 03F1FF33 		add	r3, r3, #-1
 1947 027a 02EA0303 		and	r3, r2, r3
 1948 027e 002B     		cmp	r3, #0
 1949 0280 02D0     		beq	.L131
 1950              	.L130:
 1951              		.loc 1 2095 0 discriminator 1
 1952 0282 4FF00D03 		mov	r3, #13
 1953 0286 2BE1     		b	.L119
 1954              	.L131:
 1955              		.loc 1 2097 0 is_stmt 1
 1956 0288 0A9B     		ldr	r3, [sp, #40]
 1957 028a 03F13603 		add	r3, r3, #54
 1958 028e 1B78     		ldrb	r3, [r3, #0]	@ zero_extendqisi2
 1959 0290 4FEA0323 		lsl	r3, r3, #8
 1960 0294 9AB2     		uxth	r2, r3
 1961 0296 0A9B     		ldr	r3, [sp, #40]
 1962 0298 03F13503 		add	r3, r3, #53
 1963 029c 1B78     		ldrb	r3, [r3, #0]	@ zero_extendqisi2
 1964 029e 42EA0303 		orr	r3, r2, r3
 1965 02a2 9BB2     		uxth	r3, r3
 1966 02a4 9AB2     		uxth	r2, r3
 1967 02a6 0A9B     		ldr	r3, [sp, #40]
 1968 02a8 1A81     		strh	r2, [r3, #8]	@ movhi
 1969              		.loc 1 2098 0
 1970 02aa 0A9B     		ldr	r3, [sp, #40]
 1971 02ac 1B89     		ldrh	r3, [r3, #8]
 1972 02ae 03F00F03 		and	r3, r3, #15
 1973 02b2 9BB2     		uxth	r3, r3
ARM GAS  C:\Users\z80\AppData\Local\Temp\ccWqrhGE.s 			page 36


 1974 02b4 002B     		cmp	r3, #0
 1975 02b6 02D0     		beq	.L132
 1976              		.loc 1 2098 0 is_stmt 0 discriminator 1
 1977 02b8 4FF00D03 		mov	r3, #13
 1978 02bc 10E1     		b	.L119
 1979              	.L132:
 1980              		.loc 1 2100 0 is_stmt 1
 1981 02be 0A9B     		ldr	r3, [sp, #40]
 1982 02c0 03F13803 		add	r3, r3, #56
 1983 02c4 1B78     		ldrb	r3, [r3, #0]	@ zero_extendqisi2
 1984 02c6 4FEA0323 		lsl	r3, r3, #8
 1985 02ca 9AB2     		uxth	r2, r3
 1986 02cc 0A9B     		ldr	r3, [sp, #40]
 1987 02ce 03F13703 		add	r3, r3, #55
 1988 02d2 1B78     		ldrb	r3, [r3, #0]	@ zero_extendqisi2
 1989 02d4 42EA0303 		orr	r3, r2, r3
 1990 02d8 9BB2     		uxth	r3, r3
 1991 02da 9BB2     		uxth	r3, r3
 1992 02dc 0D93     		str	r3, [sp, #52]
 1993              		.loc 1 2101 0
 1994 02de 0D9B     		ldr	r3, [sp, #52]
 1995 02e0 002B     		cmp	r3, #0
 1996 02e2 1CD1     		bne	.L133
 1997              		.loc 1 2101 0 is_stmt 0 discriminator 1
 1998 02e4 0A9B     		ldr	r3, [sp, #40]
 1999 02e6 03F14703 		add	r3, r3, #71
 2000 02ea 1B78     		ldrb	r3, [r3, #0]	@ zero_extendqisi2
 2001 02ec 4FEA0362 		lsl	r2, r3, #24
 2002 02f0 0A9B     		ldr	r3, [sp, #40]
 2003 02f2 03F14603 		add	r3, r3, #70
 2004 02f6 1B78     		ldrb	r3, [r3, #0]	@ zero_extendqisi2
 2005 02f8 4FEA0343 		lsl	r3, r3, #16
 2006 02fc 42EA0302 		orr	r2, r2, r3
 2007 0300 0A9B     		ldr	r3, [sp, #40]
 2008 0302 03F14503 		add	r3, r3, #69
 2009 0306 1B78     		ldrb	r3, [r3, #0]	@ zero_extendqisi2
 2010 0308 4FEA0323 		lsl	r3, r3, #8
 2011 030c 42EA0302 		orr	r2, r2, r3
 2012 0310 0A9B     		ldr	r3, [sp, #40]
 2013 0312 03F14403 		add	r3, r3, #68
 2014 0316 1B78     		ldrb	r3, [r3, #0]	@ zero_extendqisi2
 2015 0318 42EA0303 		orr	r3, r2, r3
 2016 031c 0D93     		str	r3, [sp, #52]
 2017              	.L133:
 2018              		.loc 1 2103 0 is_stmt 1
 2019 031e 0A9B     		ldr	r3, [sp, #40]
 2020 0320 03F13303 		add	r3, r3, #51
 2021 0324 1B78     		ldrb	r3, [r3, #0]	@ zero_extendqisi2
 2022 0326 4FEA0323 		lsl	r3, r3, #8
 2023 032a 9AB2     		uxth	r2, r3
 2024 032c 0A9B     		ldr	r3, [sp, #40]
 2025 032e 03F13203 		add	r3, r3, #50
 2026 0332 1B78     		ldrb	r3, [r3, #0]	@ zero_extendqisi2
 2027 0334 42EA0303 		orr	r3, r2, r3
 2028 0338 9BB2     		uxth	r3, r3
 2029 033a ADF81C30 		strh	r3, [sp, #28]	@ movhi
 2030              		.loc 1 2104 0
ARM GAS  C:\Users\z80\AppData\Local\Temp\ccWqrhGE.s 			page 37


 2031 033e BDF81C30 		ldrh	r3, [sp, #28]
 2032 0342 002B     		cmp	r3, #0
 2033 0344 02D1     		bne	.L134
 2034              		.loc 1 2104 0 is_stmt 0 discriminator 1
 2035 0346 4FF00D03 		mov	r3, #13
 2036 034a C9E0     		b	.L119
 2037              	.L134:
 2038              		.loc 1 2107 0 is_stmt 1
 2039 034c BDF81C20 		ldrh	r2, [sp, #28]
 2040 0350 0E9B     		ldr	r3, [sp, #56]
 2041 0352 1A44     		add	r2, r2, r3
 2042 0354 0A9B     		ldr	r3, [sp, #40]
 2043 0356 1B89     		ldrh	r3, [r3, #8]
 2044 0358 4FEA1313 		lsr	r3, r3, #4
 2045 035c 9BB2     		uxth	r3, r3
 2046 035e 1344     		add	r3, r2, r3
 2047 0360 0693     		str	r3, [sp, #24]
 2048              		.loc 1 2108 0
 2049 0362 0D9A     		ldr	r2, [sp, #52]
 2050 0364 069B     		ldr	r3, [sp, #24]
 2051 0366 9A42     		cmp	r2, r3
 2052 0368 02D2     		bcs	.L135
 2053              		.loc 1 2108 0 is_stmt 0 discriminator 1
 2054 036a 4FF00D03 		mov	r3, #13
 2055 036e B7E0     		b	.L119
 2056              	.L135:
 2057              		.loc 1 2109 0 is_stmt 1
 2058 0370 0D9A     		ldr	r2, [sp, #52]
 2059 0372 069B     		ldr	r3, [sp, #24]
 2060 0374 C3EB0202 		rsb	r2, r3, r2
 2061 0378 0A9B     		ldr	r3, [sp, #40]
 2062 037a 9B78     		ldrb	r3, [r3, #2]	@ zero_extendqisi2
 2063 037c B2FBF3F3 		udiv	r3, r2, r3
 2064 0380 0593     		str	r3, [sp, #20]
 2065              		.loc 1 2110 0
 2066 0382 059B     		ldr	r3, [sp, #20]
 2067 0384 002B     		cmp	r3, #0
 2068 0386 02D1     		bne	.L136
 2069              		.loc 1 2110 0 is_stmt 0 discriminator 1
 2070 0388 4FF00D03 		mov	r3, #13
 2071 038c A8E0     		b	.L119
 2072              	.L136:
 2073              		.loc 1 2111 0 is_stmt 1
 2074 038e 4FF00103 		mov	r3, #1
 2075 0392 8DF84730 		strb	r3, [sp, #71]
 2076              		.loc 1 2112 0
 2077 0396 059A     		ldr	r2, [sp, #20]
 2078 0398 40F6F573 		movw	r3, #4085
 2079 039c 9A42     		cmp	r2, r3
 2080 039e 03D9     		bls	.L137
 2081              		.loc 1 2112 0 is_stmt 0 discriminator 1
 2082 03a0 4FF00203 		mov	r3, #2
 2083 03a4 8DF84730 		strb	r3, [sp, #71]
 2084              	.L137:
 2085              		.loc 1 2113 0 is_stmt 1
 2086 03a8 059A     		ldr	r2, [sp, #20]
 2087 03aa 4FF6F573 		movw	r3, #65525
ARM GAS  C:\Users\z80\AppData\Local\Temp\ccWqrhGE.s 			page 38


 2088 03ae 9A42     		cmp	r2, r3
 2089 03b0 03D9     		bls	.L138
 2090              		.loc 1 2113 0 is_stmt 0 discriminator 1
 2091 03b2 4FF00303 		mov	r3, #3
 2092 03b6 8DF84730 		strb	r3, [sp, #71]
 2093              	.L138:
 2094              		.loc 1 2116 0 is_stmt 1
 2095 03ba 059B     		ldr	r3, [sp, #20]
 2096 03bc 03F10202 		add	r2, r3, #2
 2097 03c0 0A9B     		ldr	r3, [sp, #40]
 2098 03c2 DA60     		str	r2, [r3, #12]
 2099              		.loc 1 2117 0
 2100 03c4 0F9A     		ldr	r2, [sp, #60]
 2101 03c6 069B     		ldr	r3, [sp, #24]
 2102 03c8 1A44     		add	r2, r2, r3
 2103 03ca 0A9B     		ldr	r3, [sp, #40]
 2104 03cc DA61     		str	r2, [r3, #28]
 2105              		.loc 1 2118 0
 2106 03ce BDF81C20 		ldrh	r2, [sp, #28]
 2107 03d2 0F9B     		ldr	r3, [sp, #60]
 2108 03d4 1A44     		add	r2, r2, r3
 2109 03d6 0A9B     		ldr	r3, [sp, #40]
 2110 03d8 5A61     		str	r2, [r3, #20]
 2111              		.loc 1 2119 0
 2112 03da 9DF84730 		ldrb	r3, [sp, #71]	@ zero_extendqisi2
 2113 03de 032B     		cmp	r3, #3
 2114 03e0 2AD1     		bne	.L139
 2115              		.loc 1 2120 0
 2116 03e2 0A9B     		ldr	r3, [sp, #40]
 2117 03e4 1B89     		ldrh	r3, [r3, #8]
 2118 03e6 002B     		cmp	r3, #0
 2119 03e8 02D0     		beq	.L140
 2120              		.loc 1 2120 0 is_stmt 0 discriminator 1
 2121 03ea 4FF00D03 		mov	r3, #13
 2122 03ee 77E0     		b	.L119
 2123              	.L140:
 2124              		.loc 1 2121 0 is_stmt 1
 2125 03f0 0A9B     		ldr	r3, [sp, #40]
 2126 03f2 03F15303 		add	r3, r3, #83
 2127 03f6 1B78     		ldrb	r3, [r3, #0]	@ zero_extendqisi2
 2128 03f8 4FEA0362 		lsl	r2, r3, #24
 2129 03fc 0A9B     		ldr	r3, [sp, #40]
 2130 03fe 03F15203 		add	r3, r3, #82
 2131 0402 1B78     		ldrb	r3, [r3, #0]	@ zero_extendqisi2
 2132 0404 4FEA0343 		lsl	r3, r3, #16
 2133 0408 42EA0302 		orr	r2, r2, r3
 2134 040c 0A9B     		ldr	r3, [sp, #40]
 2135 040e 03F15103 		add	r3, r3, #81
 2136 0412 1B78     		ldrb	r3, [r3, #0]	@ zero_extendqisi2
 2137 0414 4FEA0323 		lsl	r3, r3, #8
 2138 0418 42EA0302 		orr	r2, r2, r3
 2139 041c 0A9B     		ldr	r3, [sp, #40]
 2140 041e 03F15003 		add	r3, r3, #80
 2141 0422 1B78     		ldrb	r3, [r3, #0]	@ zero_extendqisi2
 2142 0424 42EA0302 		orr	r2, r2, r3
 2143 0428 0A9B     		ldr	r3, [sp, #40]
 2144 042a 9A61     		str	r2, [r3, #24]
ARM GAS  C:\Users\z80\AppData\Local\Temp\ccWqrhGE.s 			page 39


 2145              		.loc 1 2122 0
 2146 042c 0A9B     		ldr	r3, [sp, #40]
 2147 042e DB68     		ldr	r3, [r3, #12]
 2148 0430 4FEA8303 		lsl	r3, r3, #2
 2149 0434 0C93     		str	r3, [sp, #48]
 2150 0436 23E0     		b	.L141
 2151              	.L139:
 2152              		.loc 1 2124 0
 2153 0438 0A9B     		ldr	r3, [sp, #40]
 2154 043a 1B89     		ldrh	r3, [r3, #8]
 2155 043c 002B     		cmp	r3, #0
 2156 043e 02D1     		bne	.L142
 2157              		.loc 1 2124 0 is_stmt 0 discriminator 1
 2158 0440 4FF00D03 		mov	r3, #13
 2159 0444 4CE0     		b	.L119
 2160              	.L142:
 2161              		.loc 1 2125 0 is_stmt 1
 2162 0446 0A9B     		ldr	r3, [sp, #40]
 2163 0448 5A69     		ldr	r2, [r3, #20]
 2164 044a 0E9B     		ldr	r3, [sp, #56]
 2165 044c 1A44     		add	r2, r2, r3
 2166 044e 0A9B     		ldr	r3, [sp, #40]
 2167 0450 9A61     		str	r2, [r3, #24]
 2168              		.loc 1 2127 0
 2169 0452 9DF84730 		ldrb	r3, [sp, #71]	@ zero_extendqisi2
 2170 0456 022B     		cmp	r3, #2
 2171 0458 04D1     		bne	.L143
 2172              		.loc 1 2127 0 is_stmt 0 discriminator 1
 2173 045a 0A9B     		ldr	r3, [sp, #40]
 2174 045c DB68     		ldr	r3, [r3, #12]
 2175 045e 4FEA4303 		lsl	r3, r3, #1
 2176 0462 0CE0     		b	.L144
 2177              	.L143:
 2178              		.loc 1 2127 0 discriminator 2
 2179 0464 0A9B     		ldr	r3, [sp, #40]
 2180 0466 DA68     		ldr	r2, [r3, #12]
 2181 0468 1346     		mov	r3, r2
 2182 046a 4FEA4303 		lsl	r3, r3, #1
 2183 046e 1344     		add	r3, r3, r2
 2184 0470 4FEA5302 		lsr	r2, r3, #1
 2185 0474 0A9B     		ldr	r3, [sp, #40]
 2186 0476 DB68     		ldr	r3, [r3, #12]
 2187 0478 03F00103 		and	r3, r3, #1
 2188 047c 1344     		add	r3, r2, r3
 2189              	.L144:
 2190              		.loc 1 2126 0 is_stmt 1
 2191 047e 0C93     		str	r3, [sp, #48]
 2192              	.L141:
 2193              		.loc 1 2129 0
 2194 0480 0A9B     		ldr	r3, [sp, #40]
 2195 0482 1A69     		ldr	r2, [r3, #16]
 2196 0484 0C9B     		ldr	r3, [sp, #48]
 2197 0486 03F5FE73 		add	r3, r3, #508
 2198 048a 03F10303 		add	r3, r3, #3
 2199 048e 4FEA5323 		lsr	r3, r3, #9
 2200 0492 9A42     		cmp	r2, r3
 2201 0494 02D2     		bcs	.L145
ARM GAS  C:\Users\z80\AppData\Local\Temp\ccWqrhGE.s 			page 40


 2202              		.loc 1 2130 0
 2203 0496 4FF00D03 		mov	r3, #13
 2204 049a 21E0     		b	.L119
 2205              	.L145:
 2206              		.loc 1 2150 0
 2207 049c 0A9B     		ldr	r3, [sp, #40]
 2208 049e 9DF84720 		ldrb	r2, [sp, #71]
 2209 04a2 1A70     		strb	r2, [r3, #0]
 2210              		.loc 1 2151 0
 2211 04a4 40F20003 		movw	r3, #:lower16:Fsid
 2212 04a8 C0F20003 		movt	r3, #:upper16:Fsid
 2213 04ac 1B88     		ldrh	r3, [r3, #0]
 2214 04ae 03F10103 		add	r3, r3, #1
 2215 04b2 9AB2     		uxth	r2, r3
 2216 04b4 40F20003 		movw	r3, #:lower16:Fsid
 2217 04b8 C0F20003 		movt	r3, #:upper16:Fsid
 2218 04bc 1A80     		strh	r2, [r3, #0]	@ movhi
 2219 04be 40F20003 		movw	r3, #:lower16:Fsid
 2220 04c2 C0F20003 		movt	r3, #:upper16:Fsid
 2221 04c6 1A88     		ldrh	r2, [r3, #0]
 2222 04c8 0A9B     		ldr	r3, [sp, #40]
 2223 04ca DA80     		strh	r2, [r3, #6]	@ movhi
 2224              		.loc 1 2152 0
 2225 04cc 0A9B     		ldr	r3, [sp, #40]
 2226 04ce 4FF00002 		mov	r2, #0
 2227 04d2 1A62     		str	r2, [r3, #32]
 2228              		.loc 1 2153 0
 2229 04d4 0A9B     		ldr	r3, [sp, #40]
 2230 04d6 4FF00002 		mov	r2, #0
 2231 04da 1A71     		strb	r2, [r3, #4]
 2232              		.loc 1 2161 0
 2233 04dc 4FF00003 		mov	r3, #0
 2234              	.L119:
 2235              		.loc 1 2162 0
 2236 04e0 1846     		mov	r0, r3
 2237 04e2 13B0     		add	sp, sp, #76
 2238 04e4 00BD     		pop	{pc}
 2239              		.cfi_endproc
 2240              	.LFE13:
 2241              		.size	chk_mounted, .-chk_mounted
 2242 04e6 00BFAFF3 		.section	.text.validate,"ax",%progbits
 2242      0080AFF3 
 2242      0080
 2243              		.align	2
 2244              		.p2align 4,,15
 2245              		.thumb
 2246              		.thumb_func
 2247              		.type	validate, %function
 2248              	validate:
 2249              	.LFB14:
 2250              		.loc 1 2176 0
 2251              		.cfi_startproc
 2252              		@ args = 0, pretend = 0, frame = 8
 2253              		@ frame_needed = 0, uses_anonymous_args = 0
 2254 0000 00B5     		push	{lr}
 2255              	.LCFI23:
 2256              		.cfi_def_cfa_offset 4
ARM GAS  C:\Users\z80\AppData\Local\Temp\ccWqrhGE.s 			page 41


 2257 0002 83B0     		sub	sp, sp, #12
 2258              	.LCFI24:
 2259              		.cfi_def_cfa_offset 16
 2260 0004 0190     		str	r0, [sp, #4]
 2261 0006 0B46     		mov	r3, r1
 2262 0008 ADF80230 		strh	r3, [sp, #2]	@ movhi
 2263              		.loc 1 2177 0
 2264 000c 019B     		ldr	r3, [sp, #4]
 2265 000e 002B     		cmp	r3, #0
 2266 0010 09D0     		beq	.L147
 2267              		.cfi_offset 14, -4
 2268              		.loc 1 2177 0 is_stmt 0 discriminator 1
 2269 0012 019B     		ldr	r3, [sp, #4]
 2270 0014 1B78     		ldrb	r3, [r3, #0]	@ zero_extendqisi2
 2271 0016 002B     		cmp	r3, #0
 2272 0018 05D0     		beq	.L147
 2273 001a 019B     		ldr	r3, [sp, #4]
 2274 001c DB88     		ldrh	r3, [r3, #6]
 2275 001e BDF80220 		ldrh	r2, [sp, #2]
 2276 0022 9A42     		cmp	r2, r3
 2277 0024 02D0     		beq	.L148
 2278              	.L147:
 2279              		.loc 1 2178 0 is_stmt 1
 2280 0026 4FF00903 		mov	r3, #9
 2281 002a 0FE0     		b	.L149
 2282              	.L148:
 2283              		.loc 1 2182 0
 2284 002c 019B     		ldr	r3, [sp, #4]
 2285 002e 5B78     		ldrb	r3, [r3, #1]	@ zero_extendqisi2
 2286 0030 1846     		mov	r0, r3
 2287 0032 FFF7FEFF 		bl	disk_status
 2288 0036 0346     		mov	r3, r0
 2289 0038 03F00103 		and	r3, r3, #1
 2290 003c DBB2     		uxtb	r3, r3
 2291 003e 002B     		cmp	r3, #0
 2292 0040 02D0     		beq	.L150
 2293              		.loc 1 2183 0
 2294 0042 4FF00303 		mov	r3, #3
 2295 0046 01E0     		b	.L149
 2296              	.L150:
 2297              		.loc 1 2185 0
 2298 0048 4FF00003 		mov	r3, #0
 2299              	.L149:
 2300              		.loc 1 2186 0
 2301 004c 1846     		mov	r0, r3
 2302 004e 03B0     		add	sp, sp, #12
 2303 0050 00BD     		pop	{pc}
 2304              		.cfi_endproc
 2305              	.LFE14:
 2306              		.size	validate, .-validate
 2307 0052 00BFAFF3 		.section	.text.f_mount,"ax",%progbits
 2307      0080AFF3 
 2307      0080AFF3 
 2307      0080
 2308              		.align	2
 2309              		.p2align 4,,15
 2310              		.global	f_mount
ARM GAS  C:\Users\z80\AppData\Local\Temp\ccWqrhGE.s 			page 42


 2311              		.thumb
 2312              		.thumb_func
 2313              		.type	f_mount, %function
 2314              	f_mount:
 2315              	.LFB15:
 2316              		.loc 1 2207 0
 2317              		.cfi_startproc
 2318              		@ args = 0, pretend = 0, frame = 16
 2319              		@ frame_needed = 0, uses_anonymous_args = 0
 2320              		@ link register save eliminated.
 2321 0000 84B0     		sub	sp, sp, #16
 2322              	.LCFI25:
 2323              		.cfi_def_cfa_offset 16
 2324 0002 0346     		mov	r3, r0
 2325 0004 0091     		str	r1, [sp, #0]
 2326 0006 8DF80730 		strb	r3, [sp, #7]
 2327              		.loc 1 2211 0
 2328 000a 9DF80730 		ldrb	r3, [sp, #7]	@ zero_extendqisi2
 2329 000e 002B     		cmp	r3, #0
 2330 0010 02D0     		beq	.L152
 2331              		.loc 1 2212 0
 2332 0012 4FF00B03 		mov	r3, #11
 2333 0016 21E0     		b	.L153
 2334              	.L152:
 2335              		.loc 1 2213 0
 2336 0018 9DF80720 		ldrb	r2, [sp, #7]	@ zero_extendqisi2
 2337 001c 40F20003 		movw	r3, #:lower16:FatFs
 2338 0020 C0F20003 		movt	r3, #:upper16:FatFs
 2339 0024 53F82230 		ldr	r3, [r3, r2, lsl #2]
 2340 0028 0393     		str	r3, [sp, #12]
 2341              		.loc 1 2215 0
 2342 002a 039B     		ldr	r3, [sp, #12]
 2343 002c 002B     		cmp	r3, #0
 2344 002e 03D0     		beq	.L154
 2345              		.loc 1 2222 0
 2346 0030 039B     		ldr	r3, [sp, #12]
 2347 0032 4FF00002 		mov	r2, #0
 2348 0036 1A70     		strb	r2, [r3, #0]
 2349              	.L154:
 2350              		.loc 1 2225 0
 2351 0038 009B     		ldr	r3, [sp, #0]
 2352 003a 002B     		cmp	r3, #0
 2353 003c 03D0     		beq	.L155
 2354              		.loc 1 2226 0
 2355 003e 009B     		ldr	r3, [sp, #0]
 2356 0040 4FF00002 		mov	r2, #0
 2357 0044 1A70     		strb	r2, [r3, #0]
 2358              	.L155:
 2359              		.loc 1 2231 0
 2360 0046 9DF80720 		ldrb	r2, [sp, #7]	@ zero_extendqisi2
 2361 004a 40F20003 		movw	r3, #:lower16:FatFs
 2362 004e C0F20003 		movt	r3, #:upper16:FatFs
 2363 0052 0099     		ldr	r1, [sp, #0]
 2364 0054 43F82210 		str	r1, [r3, r2, lsl #2]
 2365              		.loc 1 2233 0
 2366 0058 4FF00003 		mov	r3, #0
 2367              	.L153:
ARM GAS  C:\Users\z80\AppData\Local\Temp\ccWqrhGE.s 			page 43


 2368              		.loc 1 2234 0
 2369 005c 1846     		mov	r0, r3
 2370 005e 04B0     		add	sp, sp, #16
 2371 0060 7047     		bx	lr
 2372              		.cfi_endproc
 2373              	.LFE15:
 2374              		.size	f_mount, .-f_mount
 2375 0062 00BFAFF3 		.section	.text.f_open,"ax",%progbits
 2375      0080AFF3 
 2375      0080AFF3 
 2375      0080
 2376              		.align	2
 2377              		.p2align 4,,15
 2378              		.global	f_open
 2379              		.thumb
 2380              		.thumb_func
 2381              		.type	f_open, %function
 2382              	f_open:
 2383              	.LFB16:
 2384              		.loc 1 2248 0
 2385              		.cfi_startproc
 2386              		@ args = 0, pretend = 0, frame = 64
 2387              		@ frame_needed = 0, uses_anonymous_args = 0
 2388 0000 00B5     		push	{lr}
 2389              	.LCFI26:
 2390              		.cfi_def_cfa_offset 4
 2391 0002 91B0     		sub	sp, sp, #68
 2392              	.LCFI27:
 2393              		.cfi_def_cfa_offset 72
 2394 0004 0390     		str	r0, [sp, #12]
 2395 0006 0291     		str	r1, [sp, #8]
 2396 0008 1346     		mov	r3, r2
 2397 000a 8DF80730 		strb	r3, [sp, #7]
 2398              		.loc 1 2255 0
 2399 000e 039B     		ldr	r3, [sp, #12]
 2400 0010 4FF00002 		mov	r2, #0
 2401 0014 1A60     		str	r2, [r3, #0]
 2402              		.loc 1 2261 0
 2403 0016 9DF80730 		ldrb	r3, [sp, #7]
 2404 001a 03F00103 		and	r3, r3, #1
 2405 001e 8DF80730 		strb	r3, [sp, #7]
 2406              		.loc 1 2262 0
 2407 0022 02AA     		add	r2, sp, #8
 2408 0024 07AB     		add	r3, sp, #28
 2409 0026 1046     		mov	r0, r2
 2410 0028 1946     		mov	r1, r3
 2411 002a 4FF00002 		mov	r2, #0
 2412              		.cfi_offset 14, -4
 2413 002e FFF7FEFF 		bl	chk_mounted
 2414 0032 0346     		mov	r3, r0
 2415 0034 8DF83F30 		strb	r3, [sp, #63]
 2416              		.loc 1 2264 0
 2417 0038 04AB     		add	r3, sp, #16
 2418 003a 0D93     		str	r3, [sp, #52]
 2419              		.loc 1 2265 0
 2420 003c 9DF83F30 		ldrb	r3, [sp, #63]	@ zero_extendqisi2
 2421 0040 002B     		cmp	r3, #0
ARM GAS  C:\Users\z80\AppData\Local\Temp\ccWqrhGE.s 			page 44


 2422 0042 08D1     		bne	.L157
 2423              		.loc 1 2266 0
 2424 0044 029B     		ldr	r3, [sp, #8]
 2425 0046 07AA     		add	r2, sp, #28
 2426 0048 1046     		mov	r0, r2
 2427 004a 1946     		mov	r1, r3
 2428 004c FFF7FEFF 		bl	follow_path
 2429 0050 0346     		mov	r3, r0
 2430 0052 8DF83F30 		strb	r3, [sp, #63]
 2431              	.L157:
 2432              		.loc 1 2267 0
 2433 0056 0C9B     		ldr	r3, [sp, #48]
 2434 0058 0E93     		str	r3, [sp, #56]
 2435              		.loc 1 2340 0
 2436 005a 9DF83F30 		ldrb	r3, [sp, #63]	@ zero_extendqisi2
 2437 005e 002B     		cmp	r3, #0
 2438 0060 13D1     		bne	.L158
 2439              		.loc 1 2341 0
 2440 0062 0E9B     		ldr	r3, [sp, #56]
 2441 0064 002B     		cmp	r3, #0
 2442 0066 04D1     		bne	.L159
 2443              		.loc 1 2342 0
 2444 0068 4FF00603 		mov	r3, #6
 2445 006c 8DF83F30 		strb	r3, [sp, #63]
 2446 0070 0BE0     		b	.L158
 2447              	.L159:
 2448              		.loc 1 2344 0
 2449 0072 0E9B     		ldr	r3, [sp, #56]
 2450 0074 03F10B03 		add	r3, r3, #11
 2451 0078 1B78     		ldrb	r3, [r3, #0]	@ zero_extendqisi2
 2452 007a 03F01003 		and	r3, r3, #16
 2453 007e 002B     		cmp	r3, #0
 2454 0080 03D0     		beq	.L158
 2455              		.loc 1 2345 0
 2456 0082 4FF00403 		mov	r3, #4
 2457 0086 8DF83F30 		strb	r3, [sp, #63]
 2458              	.L158:
 2459              		.loc 1 2351 0
 2460 008a 9DF83F30 		ldrb	r3, [sp, #63]	@ zero_extendqisi2
 2461 008e 002B     		cmp	r3, #0
 2462 0090 54D1     		bne	.L160
 2463              		.loc 1 2352 0
 2464 0092 039B     		ldr	r3, [sp, #12]
 2465 0094 9DF80720 		ldrb	r2, [sp, #7]
 2466 0098 9A71     		strb	r2, [r3, #6]
 2467              		.loc 1 2353 0
 2468 009a 0E9B     		ldr	r3, [sp, #56]
 2469 009c 03F11503 		add	r3, r3, #21
 2470 00a0 1B78     		ldrb	r3, [r3, #0]	@ zero_extendqisi2
 2471 00a2 4FEA0323 		lsl	r3, r3, #8
 2472 00a6 9AB2     		uxth	r2, r3
 2473 00a8 0E9B     		ldr	r3, [sp, #56]
 2474 00aa 03F11403 		add	r3, r3, #20
 2475 00ae 1B78     		ldrb	r3, [r3, #0]	@ zero_extendqisi2
 2476 00b0 42EA0303 		orr	r3, r2, r3
 2477 00b4 9BB2     		uxth	r3, r3
 2478 00b6 9BB2     		uxth	r3, r3
ARM GAS  C:\Users\z80\AppData\Local\Temp\ccWqrhGE.s 			page 45


 2479 00b8 4FEA0342 		lsl	r2, r3, #16
 2480 00bc 0E9B     		ldr	r3, [sp, #56]
 2481 00be 03F11B03 		add	r3, r3, #27
 2482 00c2 1B78     		ldrb	r3, [r3, #0]	@ zero_extendqisi2
 2483 00c4 4FEA0323 		lsl	r3, r3, #8
 2484 00c8 99B2     		uxth	r1, r3
 2485 00ca 0E9B     		ldr	r3, [sp, #56]
 2486 00cc 03F11A03 		add	r3, r3, #26
 2487 00d0 1B78     		ldrb	r3, [r3, #0]	@ zero_extendqisi2
 2488 00d2 41EA0303 		orr	r3, r1, r3
 2489 00d6 9BB2     		uxth	r3, r3
 2490 00d8 9BB2     		uxth	r3, r3
 2491 00da 42EA0302 		orr	r2, r2, r3
 2492 00de 039B     		ldr	r3, [sp, #12]
 2493 00e0 1A61     		str	r2, [r3, #16]
 2494              		.loc 1 2354 0
 2495 00e2 0E9B     		ldr	r3, [sp, #56]
 2496 00e4 03F11F03 		add	r3, r3, #31
 2497 00e8 1B78     		ldrb	r3, [r3, #0]	@ zero_extendqisi2
 2498 00ea 4FEA0362 		lsl	r2, r3, #24
 2499 00ee 0E9B     		ldr	r3, [sp, #56]
 2500 00f0 03F11E03 		add	r3, r3, #30
 2501 00f4 1B78     		ldrb	r3, [r3, #0]	@ zero_extendqisi2
 2502 00f6 4FEA0343 		lsl	r3, r3, #16
 2503 00fa 42EA0302 		orr	r2, r2, r3
 2504 00fe 0E9B     		ldr	r3, [sp, #56]
 2505 0100 03F11D03 		add	r3, r3, #29
 2506 0104 1B78     		ldrb	r3, [r3, #0]	@ zero_extendqisi2
 2507 0106 4FEA0323 		lsl	r3, r3, #8
 2508 010a 42EA0302 		orr	r2, r2, r3
 2509 010e 0E9B     		ldr	r3, [sp, #56]
 2510 0110 03F11C03 		add	r3, r3, #28
 2511 0114 1B78     		ldrb	r3, [r3, #0]	@ zero_extendqisi2
 2512 0116 42EA0302 		orr	r2, r2, r3
 2513 011a 039B     		ldr	r3, [sp, #12]
 2514 011c DA60     		str	r2, [r3, #12]
 2515              		.loc 1 2355 0
 2516 011e 039B     		ldr	r3, [sp, #12]
 2517 0120 4FF00002 		mov	r2, #0
 2518 0124 9A60     		str	r2, [r3, #8]
 2519              		.loc 1 2356 0
 2520 0126 039B     		ldr	r3, [sp, #12]
 2521 0128 4FF00002 		mov	r2, #0
 2522 012c 9A61     		str	r2, [r3, #24]
 2523              		.loc 1 2360 0
 2524 012e 079A     		ldr	r2, [sp, #28]
 2525 0130 039B     		ldr	r3, [sp, #12]
 2526 0132 1A60     		str	r2, [r3, #0]
 2527 0134 079B     		ldr	r3, [sp, #28]
 2528 0136 DA88     		ldrh	r2, [r3, #6]
 2529 0138 039B     		ldr	r3, [sp, #12]
 2530 013a 9A80     		strh	r2, [r3, #4]	@ movhi
 2531              	.L160:
 2532              		.loc 1 2363 0
 2533 013c 9DF83F30 		ldrb	r3, [sp, #63]	@ zero_extendqisi2
 2534              		.loc 1 2364 0
 2535 0140 1846     		mov	r0, r3
ARM GAS  C:\Users\z80\AppData\Local\Temp\ccWqrhGE.s 			page 46


 2536 0142 11B0     		add	sp, sp, #68
 2537 0144 00BD     		pop	{pc}
 2538              		.cfi_endproc
 2539              	.LFE16:
 2540              		.size	f_open, .-f_open
 2541 0146 00BFAFF3 		.section	.text.f_read,"ax",%progbits
 2541      0080AFF3 
 2541      0080
 2542              		.align	2
 2543              		.p2align 4,,15
 2544              		.global	f_read
 2545              		.thumb
 2546              		.thumb_func
 2547              		.type	f_read, %function
 2548              	f_read:
 2549              	.LFB17:
 2550              		.loc 1 2379 0
 2551              		.cfi_startproc
 2552              		@ args = 0, pretend = 0, frame = 48
 2553              		@ frame_needed = 0, uses_anonymous_args = 0
 2554 0000 00B5     		push	{lr}
 2555              	.LCFI28:
 2556              		.cfi_def_cfa_offset 4
 2557 0002 8DB0     		sub	sp, sp, #52
 2558              	.LCFI29:
 2559              		.cfi_def_cfa_offset 56
 2560 0004 0390     		str	r0, [sp, #12]
 2561 0006 0291     		str	r1, [sp, #8]
 2562 0008 0192     		str	r2, [sp, #4]
 2563 000a 0093     		str	r3, [sp, #0]
 2564              		.loc 1 2383 0
 2565 000c 029B     		ldr	r3, [sp, #8]
 2566 000e 0893     		str	r3, [sp, #32]
 2567              		.loc 1 2386 0
 2568 0010 009B     		ldr	r3, [sp, #0]
 2569 0012 4FF00002 		mov	r2, #0
 2570 0016 1A60     		str	r2, [r3, #0]
 2571              		.loc 1 2388 0
 2572 0018 039B     		ldr	r3, [sp, #12]
 2573 001a 1A68     		ldr	r2, [r3, #0]
 2574 001c 039B     		ldr	r3, [sp, #12]
 2575 001e 9B88     		ldrh	r3, [r3, #4]
 2576 0020 1046     		mov	r0, r2
 2577 0022 1946     		mov	r1, r3
 2578              		.cfi_offset 14, -4
 2579 0024 FFF7FEFF 		bl	validate
 2580 0028 0346     		mov	r3, r0
 2581 002a 8DF81F30 		strb	r3, [sp, #31]
 2582              		.loc 1 2389 0
 2583 002e 9DF81F30 		ldrb	r3, [sp, #31]	@ zero_extendqisi2
 2584 0032 002B     		cmp	r3, #0
 2585 0034 02D0     		beq	.L162
 2586              		.loc 1 2389 0 is_stmt 0 discriminator 1
 2587 0036 9DF81F30 		ldrb	r3, [sp, #31]	@ zero_extendqisi2
 2588 003a 0FE1     		b	.L163
 2589              	.L162:
 2590              		.loc 1 2390 0 is_stmt 1
ARM GAS  C:\Users\z80\AppData\Local\Temp\ccWqrhGE.s 			page 47


 2591 003c 039B     		ldr	r3, [sp, #12]
 2592 003e 9B79     		ldrb	r3, [r3, #6]	@ zero_extendqisi2
 2593 0040 DBB2     		uxtb	r3, r3
 2594 0042 5BB2     		sxtb	r3, r3
 2595 0044 002B     		cmp	r3, #0
 2596 0046 02DA     		bge	.L164
 2597              		.loc 1 2391 0
 2598 0048 4FF00203 		mov	r3, #2
 2599 004c 06E1     		b	.L163
 2600              	.L164:
 2601              		.loc 1 2392 0
 2602 004e 039B     		ldr	r3, [sp, #12]
 2603 0050 9B79     		ldrb	r3, [r3, #6]	@ zero_extendqisi2
 2604 0052 03F00103 		and	r3, r3, #1
 2605 0056 002B     		cmp	r3, #0
 2606 0058 02D1     		bne	.L165
 2607              		.loc 1 2393 0
 2608 005a 4FF00703 		mov	r3, #7
 2609 005e FDE0     		b	.L163
 2610              	.L165:
 2611              		.loc 1 2394 0
 2612 0060 039B     		ldr	r3, [sp, #12]
 2613 0062 DA68     		ldr	r2, [r3, #12]
 2614 0064 039B     		ldr	r3, [sp, #12]
 2615 0066 9B68     		ldr	r3, [r3, #8]
 2616 0068 C3EB0203 		rsb	r3, r3, r2
 2617 006c 0693     		str	r3, [sp, #24]
 2618              		.loc 1 2395 0
 2619 006e 019A     		ldr	r2, [sp, #4]
 2620 0070 069B     		ldr	r3, [sp, #24]
 2621 0072 9A42     		cmp	r2, r3
 2622 0074 40F2EC80 		bls	.L167
 2623              		.loc 1 2395 0 is_stmt 0 discriminator 1
 2624 0078 069B     		ldr	r3, [sp, #24]
 2625 007a 0193     		str	r3, [sp, #4]
 2626              		.loc 1 2397 0 is_stmt 1 discriminator 1
 2627 007c E8E0     		b	.L167
 2628              	.L181:
 2629              		.loc 1 2399 0
 2630 007e 039B     		ldr	r3, [sp, #12]
 2631 0080 9B68     		ldr	r3, [r3, #8]
 2632 0082 4FEAC353 		lsl	r3, r3, #23
 2633 0086 4FEAD353 		lsr	r3, r3, #23
 2634 008a 002B     		cmp	r3, #0
 2635 008c 40F09780 		bne	.L168
 2636              		.loc 1 2400 0
 2637 0090 039B     		ldr	r3, [sp, #12]
 2638 0092 9B68     		ldr	r3, [r3, #8]
 2639 0094 4FEA5323 		lsr	r3, r3, #9
 2640 0098 DAB2     		uxtb	r2, r3
 2641 009a 039B     		ldr	r3, [sp, #12]
 2642 009c 1B68     		ldr	r3, [r3, #0]
 2643 009e 9B78     		ldrb	r3, [r3, #2]	@ zero_extendqisi2
 2644 00a0 03F1FF33 		add	r3, r3, #-1
 2645 00a4 DBB2     		uxtb	r3, r3
 2646 00a6 02EA0303 		and	r3, r2, r3
 2647 00aa 8DF81730 		strb	r3, [sp, #23]
ARM GAS  C:\Users\z80\AppData\Local\Temp\ccWqrhGE.s 			page 48


 2648              		.loc 1 2401 0
 2649 00ae 9DF81730 		ldrb	r3, [sp, #23]	@ zero_extendqisi2
 2650 00b2 002B     		cmp	r3, #0
 2651 00b4 2FD1     		bne	.L169
 2652              		.loc 1 2402 0
 2653 00b6 039B     		ldr	r3, [sp, #12]
 2654 00b8 9B68     		ldr	r3, [r3, #8]
 2655 00ba 002B     		cmp	r3, #0
 2656 00bc 03D1     		bne	.L170
 2657              		.loc 1 2403 0
 2658 00be 039B     		ldr	r3, [sp, #12]
 2659 00c0 1B69     		ldr	r3, [r3, #16]
 2660 00c2 0B93     		str	r3, [sp, #44]
 2661 00c4 09E0     		b	.L171
 2662              	.L170:
 2663              		.loc 1 2410 0
 2664 00c6 039B     		ldr	r3, [sp, #12]
 2665 00c8 1A68     		ldr	r2, [r3, #0]
 2666 00ca 039B     		ldr	r3, [sp, #12]
 2667 00cc 5B69     		ldr	r3, [r3, #20]
 2668 00ce 1046     		mov	r0, r2
 2669 00d0 1946     		mov	r1, r3
 2670 00d2 FFF7FEFF 		bl	get_fat
 2671 00d6 0346     		mov	r3, r0
 2672 00d8 0B93     		str	r3, [sp, #44]
 2673              	.L171:
 2674              		.loc 1 2412 0
 2675 00da 0B9B     		ldr	r3, [sp, #44]
 2676 00dc 012B     		cmp	r3, #1
 2677 00de 09D8     		bhi	.L172
 2678              		.loc 1 2412 0 is_stmt 0 discriminator 1
 2679 00e0 039B     		ldr	r3, [sp, #12]
 2680 00e2 9B79     		ldrb	r3, [r3, #6]	@ zero_extendqisi2
 2681 00e4 63F07F03 		orn	r3, r3, #127
 2682 00e8 DAB2     		uxtb	r2, r3
 2683 00ea 039B     		ldr	r3, [sp, #12]
 2684 00ec 9A71     		strb	r2, [r3, #6]
 2685 00ee 4FF00203 		mov	r3, #2
 2686 00f2 B3E0     		b	.L163
 2687              	.L172:
 2688              		.loc 1 2413 0 is_stmt 1
 2689 00f4 0B9B     		ldr	r3, [sp, #44]
 2690 00f6 B3F1FF3F 		cmp	r3, #-1
 2691 00fa 09D1     		bne	.L173
 2692              		.loc 1 2413 0 is_stmt 0 discriminator 1
 2693 00fc 039B     		ldr	r3, [sp, #12]
 2694 00fe 9B79     		ldrb	r3, [r3, #6]	@ zero_extendqisi2
 2695 0100 63F07F03 		orn	r3, r3, #127
 2696 0104 DAB2     		uxtb	r2, r3
 2697 0106 039B     		ldr	r3, [sp, #12]
 2698 0108 9A71     		strb	r2, [r3, #6]
 2699 010a 4FF00103 		mov	r3, #1
 2700 010e A5E0     		b	.L163
 2701              	.L173:
 2702              		.loc 1 2414 0 is_stmt 1
 2703 0110 039B     		ldr	r3, [sp, #12]
 2704 0112 0B9A     		ldr	r2, [sp, #44]
ARM GAS  C:\Users\z80\AppData\Local\Temp\ccWqrhGE.s 			page 49


 2705 0114 5A61     		str	r2, [r3, #20]
 2706              	.L169:
 2707              		.loc 1 2416 0
 2708 0116 039B     		ldr	r3, [sp, #12]
 2709 0118 1A68     		ldr	r2, [r3, #0]
 2710 011a 039B     		ldr	r3, [sp, #12]
 2711 011c 5B69     		ldr	r3, [r3, #20]
 2712 011e 1046     		mov	r0, r2
 2713 0120 1946     		mov	r1, r3
 2714 0122 FFF7FEFF 		bl	clust2sect
 2715 0126 0346     		mov	r3, r0
 2716 0128 0493     		str	r3, [sp, #16]
 2717              		.loc 1 2417 0
 2718 012a 049B     		ldr	r3, [sp, #16]
 2719 012c 002B     		cmp	r3, #0
 2720 012e 09D1     		bne	.L174
 2721              		.loc 1 2417 0 is_stmt 0 discriminator 1
 2722 0130 039B     		ldr	r3, [sp, #12]
 2723 0132 9B79     		ldrb	r3, [r3, #6]	@ zero_extendqisi2
 2724 0134 63F07F03 		orn	r3, r3, #127
 2725 0138 DAB2     		uxtb	r2, r3
 2726 013a 039B     		ldr	r3, [sp, #12]
 2727 013c 9A71     		strb	r2, [r3, #6]
 2728 013e 4FF00203 		mov	r3, #2
 2729 0142 8BE0     		b	.L163
 2730              	.L174:
 2731              		.loc 1 2418 0 is_stmt 1
 2732 0144 9DF81730 		ldrb	r3, [sp, #23]	@ zero_extendqisi2
 2733 0148 049A     		ldr	r2, [sp, #16]
 2734 014a 1344     		add	r3, r2, r3
 2735 014c 0493     		str	r3, [sp, #16]
 2736              		.loc 1 2419 0
 2737 014e 019B     		ldr	r3, [sp, #4]
 2738 0150 4FEA5323 		lsr	r3, r3, #9
 2739 0154 0993     		str	r3, [sp, #36]
 2740              		.loc 1 2420 0
 2741 0156 099B     		ldr	r3, [sp, #36]
 2742 0158 002B     		cmp	r3, #0
 2743 015a 2DD0     		beq	.L175
 2744              		.loc 1 2421 0
 2745 015c 9DF81720 		ldrb	r2, [sp, #23]	@ zero_extendqisi2
 2746 0160 099B     		ldr	r3, [sp, #36]
 2747 0162 1A44     		add	r2, r2, r3
 2748 0164 039B     		ldr	r3, [sp, #12]
 2749 0166 1B68     		ldr	r3, [r3, #0]
 2750 0168 9B78     		ldrb	r3, [r3, #2]	@ zero_extendqisi2
 2751 016a 9A42     		cmp	r2, r3
 2752 016c 08D9     		bls	.L176
 2753              		.loc 1 2422 0
 2754 016e 039B     		ldr	r3, [sp, #12]
 2755 0170 1B68     		ldr	r3, [r3, #0]
 2756 0172 9B78     		ldrb	r3, [r3, #2]	@ zero_extendqisi2
 2757 0174 1A46     		mov	r2, r3
 2758 0176 9DF81730 		ldrb	r3, [sp, #23]	@ zero_extendqisi2
 2759 017a C3EB0203 		rsb	r3, r3, r2
 2760 017e 0993     		str	r3, [sp, #36]
 2761              	.L176:
ARM GAS  C:\Users\z80\AppData\Local\Temp\ccWqrhGE.s 			page 50


 2762              		.loc 1 2423 0
 2763 0180 039B     		ldr	r3, [sp, #12]
 2764 0182 1B68     		ldr	r3, [r3, #0]
 2765 0184 5A78     		ldrb	r2, [r3, #1]	@ zero_extendqisi2
 2766 0186 099B     		ldr	r3, [sp, #36]
 2767 0188 DBB2     		uxtb	r3, r3
 2768 018a 1046     		mov	r0, r2
 2769 018c 0899     		ldr	r1, [sp, #32]
 2770 018e 049A     		ldr	r2, [sp, #16]
 2771 0190 FFF7FEFF 		bl	disk_read
 2772 0194 0346     		mov	r3, r0
 2773 0196 002B     		cmp	r3, #0
 2774 0198 09D0     		beq	.L177
 2775              		.loc 1 2424 0
 2776 019a 039B     		ldr	r3, [sp, #12]
 2777 019c 9B79     		ldrb	r3, [r3, #6]	@ zero_extendqisi2
 2778 019e 63F07F03 		orn	r3, r3, #127
 2779 01a2 DAB2     		uxtb	r2, r3
 2780 01a4 039B     		ldr	r3, [sp, #12]
 2781 01a6 9A71     		strb	r2, [r3, #6]
 2782 01a8 4FF00103 		mov	r3, #1
 2783 01ac 56E0     		b	.L163
 2784              	.L177:
 2785              		.loc 1 2434 0
 2786 01ae 099B     		ldr	r3, [sp, #36]
 2787 01b0 4FEA4323 		lsl	r3, r3, #9
 2788 01b4 0A93     		str	r3, [sp, #40]
 2789              		.loc 1 2435 0
 2790 01b6 36E0     		b	.L178
 2791              	.L175:
 2792              		.loc 1 2450 0
 2793 01b8 039B     		ldr	r3, [sp, #12]
 2794 01ba 049A     		ldr	r2, [sp, #16]
 2795 01bc 9A61     		str	r2, [r3, #24]
 2796              	.L168:
 2797              		.loc 1 2452 0
 2798 01be 039B     		ldr	r3, [sp, #12]
 2799 01c0 9B68     		ldr	r3, [r3, #8]
 2800 01c2 4FEAC353 		lsl	r3, r3, #23
 2801 01c6 4FEAD353 		lsr	r3, r3, #23
 2802 01ca C3F50073 		rsb	r3, r3, #512
 2803 01ce 0A93     		str	r3, [sp, #40]
 2804              		.loc 1 2453 0
 2805 01d0 0A9A     		ldr	r2, [sp, #40]
 2806 01d2 019B     		ldr	r3, [sp, #4]
 2807 01d4 9A42     		cmp	r2, r3
 2808 01d6 01D9     		bls	.L179
 2809              		.loc 1 2453 0 is_stmt 0 discriminator 1
 2810 01d8 019B     		ldr	r3, [sp, #4]
 2811 01da 0A93     		str	r3, [sp, #40]
 2812              	.L179:
 2813              		.loc 1 2455 0 is_stmt 1
 2814 01dc 039B     		ldr	r3, [sp, #12]
 2815 01de 1A68     		ldr	r2, [r3, #0]
 2816 01e0 039B     		ldr	r3, [sp, #12]
 2817 01e2 9B69     		ldr	r3, [r3, #24]
 2818 01e4 1046     		mov	r0, r2
ARM GAS  C:\Users\z80\AppData\Local\Temp\ccWqrhGE.s 			page 51


 2819 01e6 1946     		mov	r1, r3
 2820 01e8 FFF7FEFF 		bl	move_window
 2821 01ec 0346     		mov	r3, r0
 2822 01ee 002B     		cmp	r3, #0
 2823 01f0 09D0     		beq	.L180
 2824              		.loc 1 2456 0
 2825 01f2 039B     		ldr	r3, [sp, #12]
 2826 01f4 9B79     		ldrb	r3, [r3, #6]	@ zero_extendqisi2
 2827 01f6 63F07F03 		orn	r3, r3, #127
 2828 01fa DAB2     		uxtb	r2, r3
 2829 01fc 039B     		ldr	r3, [sp, #12]
 2830 01fe 9A71     		strb	r2, [r3, #6]
 2831 0200 4FF00103 		mov	r3, #1
 2832 0204 2AE0     		b	.L163
 2833              	.L180:
 2834              		.loc 1 2457 0
 2835 0206 039B     		ldr	r3, [sp, #12]
 2836 0208 1B68     		ldr	r3, [r3, #0]
 2837 020a 03F12402 		add	r2, r3, #36
 2838 020e 039B     		ldr	r3, [sp, #12]
 2839 0210 9B68     		ldr	r3, [r3, #8]
 2840 0212 4FEAC353 		lsl	r3, r3, #23
 2841 0216 4FEAD353 		lsr	r3, r3, #23
 2842 021a 1344     		add	r3, r2, r3
 2843 021c 0898     		ldr	r0, [sp, #32]
 2844 021e 1946     		mov	r1, r3
 2845 0220 0A9A     		ldr	r2, [sp, #40]
 2846 0222 FFF7FEFF 		bl	mem_cpy
 2847              	.L178:
 2848              		.loc 1 2398 0
 2849 0226 089A     		ldr	r2, [sp, #32]
 2850 0228 0A9B     		ldr	r3, [sp, #40]
 2851 022a 1344     		add	r3, r2, r3
 2852 022c 0893     		str	r3, [sp, #32]
 2853 022e 039B     		ldr	r3, [sp, #12]
 2854 0230 9A68     		ldr	r2, [r3, #8]
 2855 0232 0A9B     		ldr	r3, [sp, #40]
 2856 0234 1A44     		add	r2, r2, r3
 2857 0236 039B     		ldr	r3, [sp, #12]
 2858 0238 9A60     		str	r2, [r3, #8]
 2859 023a 009B     		ldr	r3, [sp, #0]
 2860 023c 1A68     		ldr	r2, [r3, #0]
 2861 023e 0A9B     		ldr	r3, [sp, #40]
 2862 0240 1A44     		add	r2, r2, r3
 2863 0242 009B     		ldr	r3, [sp, #0]
 2864 0244 1A60     		str	r2, [r3, #0]
 2865 0246 019A     		ldr	r2, [sp, #4]
 2866 0248 0A9B     		ldr	r3, [sp, #40]
 2867 024a C3EB0203 		rsb	r3, r3, r2
 2868 024e 0193     		str	r3, [sp, #4]
 2869              	.L167:
 2870              		.loc 1 2397 0 discriminator 1
 2871 0250 019B     		ldr	r3, [sp, #4]
 2872 0252 002B     		cmp	r3, #0
 2873 0254 7FF413AF 		bne	.L181
 2874              		.loc 1 2463 0
 2875 0258 4FF00003 		mov	r3, #0
ARM GAS  C:\Users\z80\AppData\Local\Temp\ccWqrhGE.s 			page 52


 2876              	.L163:
 2877              		.loc 1 2464 0
 2878 025c 1846     		mov	r0, r3
 2879 025e 0DB0     		add	sp, sp, #52
 2880 0260 00BD     		pop	{pc}
 2881              		.cfi_endproc
 2882              	.LFE17:
 2883              		.size	f_read, .-f_read
 2884 0262 00BFAFF3 		.section	.text.f_close,"ax",%progbits
 2884      0080AFF3 
 2884      0080AFF3 
 2884      0080
 2885              		.align	2
 2886              		.p2align 4,,15
 2887              		.global	f_close
 2888              		.thumb
 2889              		.thumb_func
 2890              		.type	f_close, %function
 2891              	f_close:
 2892              	.LFB18:
 2893              		.loc 1 2643 0
 2894              		.cfi_startproc
 2895              		@ args = 0, pretend = 0, frame = 16
 2896              		@ frame_needed = 0, uses_anonymous_args = 0
 2897 0000 00B5     		push	{lr}
 2898              	.LCFI30:
 2899              		.cfi_def_cfa_offset 4
 2900 0002 85B0     		sub	sp, sp, #20
 2901              	.LCFI31:
 2902              		.cfi_def_cfa_offset 24
 2903 0004 0190     		str	r0, [sp, #4]
 2904              		.loc 1 2647 0
 2905 0006 019B     		ldr	r3, [sp, #4]
 2906 0008 1B68     		ldr	r3, [r3, #0]
 2907 000a 0393     		str	r3, [sp, #12]
 2908              		.loc 1 2648 0
 2909 000c 019B     		ldr	r3, [sp, #4]
 2910 000e 9B88     		ldrh	r3, [r3, #4]
 2911 0010 0398     		ldr	r0, [sp, #12]
 2912 0012 1946     		mov	r1, r3
 2913              		.cfi_offset 14, -4
 2914 0014 FFF7FEFF 		bl	validate
 2915 0018 0346     		mov	r3, r0
 2916 001a 8DF80B30 		strb	r3, [sp, #11]
 2917              		.loc 1 2649 0
 2918 001e 9DF80B30 		ldrb	r3, [sp, #11]	@ zero_extendqisi2
 2919 0022 002B     		cmp	r3, #0
 2920 0024 03D1     		bne	.L183
 2921              		.loc 1 2649 0 is_stmt 0 discriminator 1
 2922 0026 019B     		ldr	r3, [sp, #4]
 2923 0028 4FF00002 		mov	r2, #0
 2924 002c 1A60     		str	r2, [r3, #0]
 2925              	.L183:
 2926              		.loc 1 2650 0 is_stmt 1
 2927 002e 9DF80B30 		ldrb	r3, [sp, #11]	@ zero_extendqisi2
 2928              		.loc 1 2670 0
 2929 0032 1846     		mov	r0, r3
ARM GAS  C:\Users\z80\AppData\Local\Temp\ccWqrhGE.s 			page 53


 2930 0034 05B0     		add	sp, sp, #20
 2931 0036 00BD     		pop	{pc}
 2932              		.cfi_endproc
 2933              	.LFE18:
 2934              		.size	f_close, .-f_close
 2935 0038 AFF30080 		.section	.text.f_gets,"ax",%progbits
 2935      AFF30080 
 2936              		.align	2
 2937              		.p2align 4,,15
 2938              		.global	f_gets
 2939              		.thumb
 2940              		.thumb_func
 2941              		.type	f_gets, %function
 2942              	f_gets:
 2943              	.LFB19:
 2944              		.loc 1 3869 0
 2945              		.cfi_startproc
 2946              		@ args = 0, pretend = 0, frame = 32
 2947              		@ frame_needed = 0, uses_anonymous_args = 0
 2948 0000 00B5     		push	{lr}
 2949              	.LCFI32:
 2950              		.cfi_def_cfa_offset 4
 2951 0002 89B0     		sub	sp, sp, #36
 2952              	.LCFI33:
 2953              		.cfi_def_cfa_offset 40
 2954 0004 0390     		str	r0, [sp, #12]
 2955 0006 0291     		str	r1, [sp, #8]
 2956 0008 0192     		str	r2, [sp, #4]
 2957              		.loc 1 3870 0
 2958 000a 4FF00003 		mov	r3, #0
 2959 000e 0793     		str	r3, [sp, #28]
 2960              		.loc 1 3871 0
 2961 0010 039B     		ldr	r3, [sp, #12]
 2962 0012 0693     		str	r3, [sp, #24]
 2963              		.loc 1 3876 0
 2964 0014 1EE0     		b	.L185
 2965              		.cfi_offset 14, -4
 2966              	.L188:
 2967              		.loc 1 3877 0
 2968 0016 05AA     		add	r2, sp, #20
 2969 0018 04AB     		add	r3, sp, #16
 2970 001a 0198     		ldr	r0, [sp, #4]
 2971 001c 1146     		mov	r1, r2
 2972 001e 4FF00102 		mov	r2, #1
 2973 0022 FFF7FEFF 		bl	f_read
 2974              		.loc 1 3878 0
 2975 0026 049B     		ldr	r3, [sp, #16]
 2976 0028 012B     		cmp	r3, #1
 2977 002a 1AD1     		bne	.L191
 2978              	.L186:
 2979              		.loc 1 3879 0
 2980 002c 9DF81430 		ldrb	r3, [sp, #20]
 2981 0030 8DF81730 		strb	r3, [sp, #23]
 2982              		.loc 1 3903 0
 2983 0034 069B     		ldr	r3, [sp, #24]
 2984 0036 9DF81720 		ldrb	r2, [sp, #23]
 2985 003a 1A70     		strb	r2, [r3, #0]
ARM GAS  C:\Users\z80\AppData\Local\Temp\ccWqrhGE.s 			page 54


 2986 003c 069B     		ldr	r3, [sp, #24]
 2987 003e 03F10103 		add	r3, r3, #1
 2988 0042 0693     		str	r3, [sp, #24]
 2989              		.loc 1 3904 0
 2990 0044 079B     		ldr	r3, [sp, #28]
 2991 0046 03F10103 		add	r3, r3, #1
 2992 004a 0793     		str	r3, [sp, #28]
 2993              		.loc 1 3905 0
 2994 004c 9DF81730 		ldrb	r3, [sp, #23]	@ zero_extendqisi2
 2995 0050 0A2B     		cmp	r3, #10
 2996 0052 08D0     		beq	.L192
 2997              	.L185:
 2998              		.loc 1 3876 0 discriminator 1
 2999 0054 029B     		ldr	r3, [sp, #8]
 3000 0056 03F1FF32 		add	r2, r3, #-1
 3001 005a 079B     		ldr	r3, [sp, #28]
 3002 005c 9A42     		cmp	r2, r3
 3003 005e DADC     		bgt	.L188
 3004 0060 02E0     		b	.L187
 3005              	.L191:
 3006              		.loc 1 3878 0
 3007 0062 00BF     		nop
 3008 0064 00E0     		b	.L187
 3009              	.L192:
 3010              		.loc 1 3905 0
 3011 0066 00BF     		nop
 3012              	.L187:
 3013              		.loc 1 3907 0
 3014 0068 069B     		ldr	r3, [sp, #24]
 3015 006a 4FF00002 		mov	r2, #0
 3016 006e 1A70     		strb	r2, [r3, #0]
 3017              		.loc 1 3908 0
 3018 0070 079B     		ldr	r3, [sp, #28]
 3019 0072 002B     		cmp	r3, #0
 3020 0074 01D0     		beq	.L189
 3021              		.loc 1 3908 0 is_stmt 0 discriminator 1
 3022 0076 039B     		ldr	r3, [sp, #12]
 3023 0078 01E0     		b	.L190
 3024              	.L189:
 3025              		.loc 1 3908 0 discriminator 2
 3026 007a 4FF00003 		mov	r3, #0
 3027              	.L190:
 3028              		.loc 1 3909 0 is_stmt 1 discriminator 3
 3029 007e 1846     		mov	r0, r3
 3030 0080 09B0     		add	sp, sp, #36
 3031 0082 00BD     		pop	{pc}
 3032              		.cfi_endproc
 3033              	.LFE19:
 3034              		.size	f_gets, .-f_gets
 3035 0084 AFF30080 		.section	.rodata.excvt.1549,"a",%progbits
 3035      AFF30080 
 3035      AFF30080 
 3036              		.align	2
 3037              		.type	excvt.1549, %object
 3038              		.size	excvt.1549, 128
 3039              	excvt.1549:
 3040 0000 80       		.byte	-128
ARM GAS  C:\Users\z80\AppData\Local\Temp\ccWqrhGE.s 			page 55


 3041 0001 81       		.byte	-127
 3042 0002 82       		.byte	-126
 3043 0003 82       		.byte	-126
 3044 0004 84       		.byte	-124
 3045 0005 85       		.byte	-123
 3046 0006 86       		.byte	-122
 3047 0007 87       		.byte	-121
 3048 0008 88       		.byte	-120
 3049 0009 89       		.byte	-119
 3050 000a 8A       		.byte	-118
 3051 000b 8B       		.byte	-117
 3052 000c 8C       		.byte	-116
 3053 000d 8D       		.byte	-115
 3054 000e 8E       		.byte	-114
 3055 000f 8F       		.byte	-113
 3056 0010 80       		.byte	-128
 3057 0011 91       		.byte	-111
 3058 0012 92       		.byte	-110
 3059 0013 93       		.byte	-109
 3060 0014 94       		.byte	-108
 3061 0015 95       		.byte	-107
 3062 0016 96       		.byte	-106
 3063 0017 97       		.byte	-105
 3064 0018 98       		.byte	-104
 3065 0019 99       		.byte	-103
 3066 001a 8A       		.byte	-118
 3067 001b 9B       		.byte	-101
 3068 001c 8C       		.byte	-116
 3069 001d 8D       		.byte	-115
 3070 001e 8E       		.byte	-114
 3071 001f 8F       		.byte	-113
 3072 0020 A0       		.byte	-96
 3073 0021 A2       		.byte	-94
 3074 0022 A2       		.byte	-94
 3075 0023 A3       		.byte	-93
 3076 0024 A4       		.byte	-92
 3077 0025 A5       		.byte	-91
 3078 0026 A6       		.byte	-90
 3079 0027 A7       		.byte	-89
 3080 0028 A8       		.byte	-88
 3081 0029 A9       		.byte	-87
 3082 002a AA       		.byte	-86
 3083 002b AB       		.byte	-85
 3084 002c AC       		.byte	-84
 3085 002d AD       		.byte	-83
 3086 002e AE       		.byte	-82
 3087 002f AF       		.byte	-81
 3088 0030 B0       		.byte	-80
 3089 0031 B1       		.byte	-79
 3090 0032 B2       		.byte	-78
 3091 0033 B2       		.byte	-78
 3092 0034 A5       		.byte	-91
 3093 0035 B5       		.byte	-75
 3094 0036 B6       		.byte	-74
 3095 0037 B7       		.byte	-73
 3096 0038 A8       		.byte	-88
 3097 0039 B9       		.byte	-71
ARM GAS  C:\Users\z80\AppData\Local\Temp\ccWqrhGE.s 			page 56


 3098 003a AA       		.byte	-86
 3099 003b BB       		.byte	-69
 3100 003c A3       		.byte	-93
 3101 003d BD       		.byte	-67
 3102 003e BD       		.byte	-67
 3103 003f AF       		.byte	-81
 3104 0040 C0       		.byte	-64
 3105 0041 C1       		.byte	-63
 3106 0042 C2       		.byte	-62
 3107 0043 C3       		.byte	-61
 3108 0044 C4       		.byte	-60
 3109 0045 C5       		.byte	-59
 3110 0046 C6       		.byte	-58
 3111 0047 C7       		.byte	-57
 3112 0048 C8       		.byte	-56
 3113 0049 C9       		.byte	-55
 3114 004a CA       		.byte	-54
 3115 004b CB       		.byte	-53
 3116 004c CC       		.byte	-52
 3117 004d CD       		.byte	-51
 3118 004e CE       		.byte	-50
 3119 004f CF       		.byte	-49
 3120 0050 D0       		.byte	-48
 3121 0051 D1       		.byte	-47
 3122 0052 D2       		.byte	-46
 3123 0053 D3       		.byte	-45
 3124 0054 D4       		.byte	-44
 3125 0055 D5       		.byte	-43
 3126 0056 D6       		.byte	-42
 3127 0057 D7       		.byte	-41
 3128 0058 D8       		.byte	-40
 3129 0059 D9       		.byte	-39
 3130 005a DA       		.byte	-38
 3131 005b DB       		.byte	-37
 3132 005c DC       		.byte	-36
 3133 005d DD       		.byte	-35
 3134 005e DE       		.byte	-34
 3135 005f DF       		.byte	-33
 3136 0060 C0       		.byte	-64
 3137 0061 C1       		.byte	-63
 3138 0062 C2       		.byte	-62
 3139 0063 C3       		.byte	-61
 3140 0064 C4       		.byte	-60
 3141 0065 C5       		.byte	-59
 3142 0066 C6       		.byte	-58
 3143 0067 C7       		.byte	-57
 3144 0068 C8       		.byte	-56
 3145 0069 C9       		.byte	-55
 3146 006a CA       		.byte	-54
 3147 006b CB       		.byte	-53
 3148 006c CC       		.byte	-52
 3149 006d CD       		.byte	-51
 3150 006e CE       		.byte	-50
 3151 006f CF       		.byte	-49
 3152 0070 D0       		.byte	-48
 3153 0071 D1       		.byte	-47
 3154 0072 D2       		.byte	-46
ARM GAS  C:\Users\z80\AppData\Local\Temp\ccWqrhGE.s 			page 57


 3155 0073 D3       		.byte	-45
 3156 0074 D4       		.byte	-44
 3157 0075 D5       		.byte	-43
 3158 0076 D6       		.byte	-42
 3159 0077 D7       		.byte	-41
 3160 0078 D8       		.byte	-40
 3161 0079 D9       		.byte	-39
 3162 007a DA       		.byte	-38
 3163 007b DB       		.byte	-37
 3164 007c DC       		.byte	-36
 3165 007d DD       		.byte	-35
 3166 007e DE       		.byte	-34
 3167 007f DF       		.byte	-33
 3168              		.text
 3169              	.Letext0:
 3170              		.section	.debug_loc,"",%progbits
 3171              	.Ldebug_loc0:
 3172              	.LLST0:
 3173 0000 00000000 		.4byte	.LFB0
 3174 0004 02000000 		.4byte	.LCFI0
 3175 0008 0200     		.2byte	0x2
 3176 000a 7D       		.byte	0x7d
 3177 000b 00       		.sleb128 0
 3178 000c 02000000 		.4byte	.LCFI0
 3179 0010 46000000 		.4byte	.LFE0
 3180 0014 0200     		.2byte	0x2
 3181 0016 7D       		.byte	0x7d
 3182 0017 18       		.sleb128 24
 3183 0018 00000000 		.4byte	0x0
 3184 001c 00000000 		.4byte	0x0
 3185              	.LLST1:
 3186 0020 00000000 		.4byte	.LFB1
 3187 0024 02000000 		.4byte	.LCFI1
 3188 0028 0200     		.2byte	0x2
 3189 002a 7D       		.byte	0x7d
 3190 002b 00       		.sleb128 0
 3191 002c 02000000 		.4byte	.LCFI1
 3192 0030 3A000000 		.4byte	.LFE1
 3193 0034 0200     		.2byte	0x2
 3194 0036 7D       		.byte	0x7d
 3195 0037 18       		.sleb128 24
 3196 0038 00000000 		.4byte	0x0
 3197 003c 00000000 		.4byte	0x0
 3198              	.LLST2:
 3199 0040 00000000 		.4byte	.LFB2
 3200 0044 02000000 		.4byte	.LCFI2
 3201 0048 0200     		.2byte	0x2
 3202 004a 7D       		.byte	0x7d
 3203 004b 00       		.sleb128 0
 3204 004c 02000000 		.4byte	.LCFI2
 3205 0050 68000000 		.4byte	.LFE2
 3206 0054 0200     		.2byte	0x2
 3207 0056 7D       		.byte	0x7d
 3208 0057 20       		.sleb128 32
 3209 0058 00000000 		.4byte	0x0
 3210 005c 00000000 		.4byte	0x0
 3211              	.LLST3:
ARM GAS  C:\Users\z80\AppData\Local\Temp\ccWqrhGE.s 			page 58


 3212 0060 00000000 		.4byte	.LFB3
 3213 0064 02000000 		.4byte	.LCFI3
 3214 0068 0200     		.2byte	0x2
 3215 006a 7D       		.byte	0x7d
 3216 006b 00       		.sleb128 0
 3217 006c 02000000 		.4byte	.LCFI3
 3218 0070 2E000000 		.4byte	.LFE3
 3219 0074 0200     		.2byte	0x2
 3220 0076 7D       		.byte	0x7d
 3221 0077 08       		.sleb128 8
 3222 0078 00000000 		.4byte	0x0
 3223 007c 00000000 		.4byte	0x0
 3224              	.LLST4:
 3225 0080 00000000 		.4byte	.LFB4
 3226 0084 02000000 		.4byte	.LCFI4
 3227 0088 0200     		.2byte	0x2
 3228 008a 7D       		.byte	0x7d
 3229 008b 00       		.sleb128 0
 3230 008c 02000000 		.4byte	.LCFI4
 3231 0090 04000000 		.4byte	.LCFI5
 3232 0094 0200     		.2byte	0x2
 3233 0096 7D       		.byte	0x7d
 3234 0097 04       		.sleb128 4
 3235 0098 04000000 		.4byte	.LCFI5
 3236 009c 50000000 		.4byte	.LFE4
 3237 00a0 0200     		.2byte	0x2
 3238 00a2 7D       		.byte	0x7d
 3239 00a3 18       		.sleb128 24
 3240 00a4 00000000 		.4byte	0x0
 3241 00a8 00000000 		.4byte	0x0
 3242              	.LLST5:
 3243 00ac 00000000 		.4byte	.LFB5
 3244 00b0 02000000 		.4byte	.LCFI6
 3245 00b4 0200     		.2byte	0x2
 3246 00b6 7D       		.byte	0x7d
 3247 00b7 00       		.sleb128 0
 3248 00b8 02000000 		.4byte	.LCFI6
 3249 00bc 38000000 		.4byte	.LFE5
 3250 00c0 0200     		.2byte	0x2
 3251 00c2 7D       		.byte	0x7d
 3252 00c3 08       		.sleb128 8
 3253 00c4 00000000 		.4byte	0x0
 3254 00c8 00000000 		.4byte	0x0
 3255              	.LLST6:
 3256 00cc 00000000 		.4byte	.LFB6
 3257 00d0 02000000 		.4byte	.LCFI7
 3258 00d4 0200     		.2byte	0x2
 3259 00d6 7D       		.byte	0x7d
 3260 00d7 00       		.sleb128 0
 3261 00d8 02000000 		.4byte	.LCFI7
 3262 00dc 04000000 		.4byte	.LCFI8
 3263 00e0 0200     		.2byte	0x2
 3264 00e2 7D       		.byte	0x7d
 3265 00e3 04       		.sleb128 4
 3266 00e4 04000000 		.4byte	.LCFI8
 3267 00e8 A2010000 		.4byte	.LFE6
 3268 00ec 0200     		.2byte	0x2
ARM GAS  C:\Users\z80\AppData\Local\Temp\ccWqrhGE.s 			page 59


 3269 00ee 7D       		.byte	0x7d
 3270 00ef 20       		.sleb128 32
 3271 00f0 00000000 		.4byte	0x0
 3272 00f4 00000000 		.4byte	0x0
 3273              	.LLST7:
 3274 00f8 00000000 		.4byte	.LFB7
 3275 00fc 02000000 		.4byte	.LCFI9
 3276 0100 0200     		.2byte	0x2
 3277 0102 7D       		.byte	0x7d
 3278 0103 00       		.sleb128 0
 3279 0104 02000000 		.4byte	.LCFI9
 3280 0108 04000000 		.4byte	.LCFI10
 3281 010c 0200     		.2byte	0x2
 3282 010e 7D       		.byte	0x7d
 3283 010f 04       		.sleb128 4
 3284 0110 04000000 		.4byte	.LCFI10
 3285 0114 2C010000 		.4byte	.LFE7
 3286 0118 0200     		.2byte	0x2
 3287 011a 7D       		.byte	0x7d
 3288 011b 18       		.sleb128 24
 3289 011c 00000000 		.4byte	0x0
 3290 0120 00000000 		.4byte	0x0
 3291              	.LLST8:
 3292 0124 00000000 		.4byte	.LFB8
 3293 0128 02000000 		.4byte	.LCFI11
 3294 012c 0200     		.2byte	0x2
 3295 012e 7D       		.byte	0x7d
 3296 012f 00       		.sleb128 0
 3297 0130 02000000 		.4byte	.LCFI11
 3298 0134 04000000 		.4byte	.LCFI12
 3299 0138 0200     		.2byte	0x2
 3300 013a 7D       		.byte	0x7d
 3301 013b 04       		.sleb128 4
 3302 013c 04000000 		.4byte	.LCFI12
 3303 0140 06010000 		.4byte	.LFE8
 3304 0144 0200     		.2byte	0x2
 3305 0146 7D       		.byte	0x7d
 3306 0147 18       		.sleb128 24
 3307 0148 00000000 		.4byte	0x0
 3308 014c 00000000 		.4byte	0x0
 3309              	.LLST9:
 3310 0150 00000000 		.4byte	.LFB9
 3311 0154 02000000 		.4byte	.LCFI13
 3312 0158 0200     		.2byte	0x2
 3313 015a 7D       		.byte	0x7d
 3314 015b 00       		.sleb128 0
 3315 015c 02000000 		.4byte	.LCFI13
 3316 0160 04000000 		.4byte	.LCFI14
 3317 0164 0200     		.2byte	0x2
 3318 0166 7D       		.byte	0x7d
 3319 0167 04       		.sleb128 4
 3320 0168 04000000 		.4byte	.LCFI14
 3321 016c B2000000 		.4byte	.LFE9
 3322 0170 0200     		.2byte	0x2
 3323 0172 7D       		.byte	0x7d
 3324 0173 20       		.sleb128 32
 3325 0174 00000000 		.4byte	0x0
ARM GAS  C:\Users\z80\AppData\Local\Temp\ccWqrhGE.s 			page 60


 3326 0178 00000000 		.4byte	0x0
 3327              	.LLST10:
 3328 017c 00000000 		.4byte	.LFB10
 3329 0180 02000000 		.4byte	.LCFI15
 3330 0184 0200     		.2byte	0x2
 3331 0186 7D       		.byte	0x7d
 3332 0187 00       		.sleb128 0
 3333 0188 02000000 		.4byte	.LCFI15
 3334 018c 04000000 		.4byte	.LCFI16
 3335 0190 0200     		.2byte	0x2
 3336 0192 7D       		.byte	0x7d
 3337 0193 04       		.sleb128 4
 3338 0194 04000000 		.4byte	.LCFI16
 3339 0198 FA010000 		.4byte	.LFE10
 3340 019c 0200     		.2byte	0x2
 3341 019e 7D       		.byte	0x7d
 3342 019f 28       		.sleb128 40
 3343 01a0 00000000 		.4byte	0x0
 3344 01a4 00000000 		.4byte	0x0
 3345              	.LLST11:
 3346 01a8 00000000 		.4byte	.LFB11
 3347 01ac 02000000 		.4byte	.LCFI17
 3348 01b0 0200     		.2byte	0x2
 3349 01b2 7D       		.byte	0x7d
 3350 01b3 00       		.sleb128 0
 3351 01b4 02000000 		.4byte	.LCFI17
 3352 01b8 04000000 		.4byte	.LCFI18
 3353 01bc 0200     		.2byte	0x2
 3354 01be 7D       		.byte	0x7d
 3355 01bf 04       		.sleb128 4
 3356 01c0 04000000 		.4byte	.LCFI18
 3357 01c4 30010000 		.4byte	.LFE11
 3358 01c8 0200     		.2byte	0x2
 3359 01ca 7D       		.byte	0x7d
 3360 01cb 18       		.sleb128 24
 3361 01cc 00000000 		.4byte	0x0
 3362 01d0 00000000 		.4byte	0x0
 3363              	.LLST12:
 3364 01d4 00000000 		.4byte	.LFB12
 3365 01d8 02000000 		.4byte	.LCFI19
 3366 01dc 0200     		.2byte	0x2
 3367 01de 7D       		.byte	0x7d
 3368 01df 00       		.sleb128 0
 3369 01e0 02000000 		.4byte	.LCFI19
 3370 01e4 04000000 		.4byte	.LCFI20
 3371 01e8 0200     		.2byte	0x2
 3372 01ea 7D       		.byte	0x7d
 3373 01eb 04       		.sleb128 4
 3374 01ec 04000000 		.4byte	.LCFI20
 3375 01f0 0A010000 		.4byte	.LFE12
 3376 01f4 0200     		.2byte	0x2
 3377 01f6 7D       		.byte	0x7d
 3378 01f7 10       		.sleb128 16
 3379 01f8 00000000 		.4byte	0x0
 3380 01fc 00000000 		.4byte	0x0
 3381              	.LLST13:
 3382 0200 00000000 		.4byte	.LFB13
ARM GAS  C:\Users\z80\AppData\Local\Temp\ccWqrhGE.s 			page 61


 3383 0204 02000000 		.4byte	.LCFI21
 3384 0208 0200     		.2byte	0x2
 3385 020a 7D       		.byte	0x7d
 3386 020b 00       		.sleb128 0
 3387 020c 02000000 		.4byte	.LCFI21
 3388 0210 04000000 		.4byte	.LCFI22
 3389 0214 0200     		.2byte	0x2
 3390 0216 7D       		.byte	0x7d
 3391 0217 04       		.sleb128 4
 3392 0218 04000000 		.4byte	.LCFI22
 3393 021c E6040000 		.4byte	.LFE13
 3394 0220 0300     		.2byte	0x3
 3395 0222 7D       		.byte	0x7d
 3396 0223 D000     		.sleb128 80
 3397 0225 00000000 		.4byte	0x0
 3398 0229 00000000 		.4byte	0x0
 3399              	.LLST14:
 3400 022d 00000000 		.4byte	.LFB14
 3401 0231 02000000 		.4byte	.LCFI23
 3402 0235 0200     		.2byte	0x2
 3403 0237 7D       		.byte	0x7d
 3404 0238 00       		.sleb128 0
 3405 0239 02000000 		.4byte	.LCFI23
 3406 023d 04000000 		.4byte	.LCFI24
 3407 0241 0200     		.2byte	0x2
 3408 0243 7D       		.byte	0x7d
 3409 0244 04       		.sleb128 4
 3410 0245 04000000 		.4byte	.LCFI24
 3411 0249 52000000 		.4byte	.LFE14
 3412 024d 0200     		.2byte	0x2
 3413 024f 7D       		.byte	0x7d
 3414 0250 10       		.sleb128 16
 3415 0251 00000000 		.4byte	0x0
 3416 0255 00000000 		.4byte	0x0
 3417              	.LLST15:
 3418 0259 00000000 		.4byte	.LFB15
 3419 025d 02000000 		.4byte	.LCFI25
 3420 0261 0200     		.2byte	0x2
 3421 0263 7D       		.byte	0x7d
 3422 0264 00       		.sleb128 0
 3423 0265 02000000 		.4byte	.LCFI25
 3424 0269 62000000 		.4byte	.LFE15
 3425 026d 0200     		.2byte	0x2
 3426 026f 7D       		.byte	0x7d
 3427 0270 10       		.sleb128 16
 3428 0271 00000000 		.4byte	0x0
 3429 0275 00000000 		.4byte	0x0
 3430              	.LLST16:
 3431 0279 00000000 		.4byte	.LFB16
 3432 027d 02000000 		.4byte	.LCFI26
 3433 0281 0200     		.2byte	0x2
 3434 0283 7D       		.byte	0x7d
 3435 0284 00       		.sleb128 0
 3436 0285 02000000 		.4byte	.LCFI26
 3437 0289 04000000 		.4byte	.LCFI27
 3438 028d 0200     		.2byte	0x2
 3439 028f 7D       		.byte	0x7d
ARM GAS  C:\Users\z80\AppData\Local\Temp\ccWqrhGE.s 			page 62


 3440 0290 04       		.sleb128 4
 3441 0291 04000000 		.4byte	.LCFI27
 3442 0295 46010000 		.4byte	.LFE16
 3443 0299 0300     		.2byte	0x3
 3444 029b 7D       		.byte	0x7d
 3445 029c C800     		.sleb128 72
 3446 029e 00000000 		.4byte	0x0
 3447 02a2 00000000 		.4byte	0x0
 3448              	.LLST17:
 3449 02a6 00000000 		.4byte	.LFB17
 3450 02aa 02000000 		.4byte	.LCFI28
 3451 02ae 0200     		.2byte	0x2
 3452 02b0 7D       		.byte	0x7d
 3453 02b1 00       		.sleb128 0
 3454 02b2 02000000 		.4byte	.LCFI28
 3455 02b6 04000000 		.4byte	.LCFI29
 3456 02ba 0200     		.2byte	0x2
 3457 02bc 7D       		.byte	0x7d
 3458 02bd 04       		.sleb128 4
 3459 02be 04000000 		.4byte	.LCFI29
 3460 02c2 62020000 		.4byte	.LFE17
 3461 02c6 0200     		.2byte	0x2
 3462 02c8 7D       		.byte	0x7d
 3463 02c9 38       		.sleb128 56
 3464 02ca 00000000 		.4byte	0x0
 3465 02ce 00000000 		.4byte	0x0
 3466              	.LLST18:
 3467 02d2 00000000 		.4byte	.LFB18
 3468 02d6 02000000 		.4byte	.LCFI30
 3469 02da 0200     		.2byte	0x2
 3470 02dc 7D       		.byte	0x7d
 3471 02dd 00       		.sleb128 0
 3472 02de 02000000 		.4byte	.LCFI30
 3473 02e2 04000000 		.4byte	.LCFI31
 3474 02e6 0200     		.2byte	0x2
 3475 02e8 7D       		.byte	0x7d
 3476 02e9 04       		.sleb128 4
 3477 02ea 04000000 		.4byte	.LCFI31
 3478 02ee 38000000 		.4byte	.LFE18
 3479 02f2 0200     		.2byte	0x2
 3480 02f4 7D       		.byte	0x7d
 3481 02f5 18       		.sleb128 24
 3482 02f6 00000000 		.4byte	0x0
 3483 02fa 00000000 		.4byte	0x0
 3484              	.LLST19:
 3485 02fe 00000000 		.4byte	.LFB19
 3486 0302 02000000 		.4byte	.LCFI32
 3487 0306 0200     		.2byte	0x2
 3488 0308 7D       		.byte	0x7d
 3489 0309 00       		.sleb128 0
 3490 030a 02000000 		.4byte	.LCFI32
 3491 030e 04000000 		.4byte	.LCFI33
 3492 0312 0200     		.2byte	0x2
 3493 0314 7D       		.byte	0x7d
 3494 0315 04       		.sleb128 4
 3495 0316 04000000 		.4byte	.LCFI33
 3496 031a 84000000 		.4byte	.LFE19
ARM GAS  C:\Users\z80\AppData\Local\Temp\ccWqrhGE.s 			page 63


 3497 031e 0200     		.2byte	0x2
 3498 0320 7D       		.byte	0x7d
 3499 0321 28       		.sleb128 40
 3500 0322 00000000 		.4byte	0x0
 3501 0326 00000000 		.4byte	0x0
 3502              		.file 2 "fatfs/integer.h"
 3503              		.file 3 "fatfs/ff.h"
 3504              		.file 4 "fatfs/diskio.h"
 3505              		.section	.debug_info
 3506 0000 AA0C0000 		.4byte	0xcaa
 3507 0004 0200     		.2byte	0x2
 3508 0006 00000000 		.4byte	.Ldebug_abbrev0
 3509 000a 04       		.byte	0x4
 3510 000b 01       		.uleb128 0x1
 3511 000c E1020000 		.4byte	.LASF103
 3512 0010 01       		.byte	0x1
 3513 0011 29010000 		.4byte	.LASF104
 3514 0015 B2030000 		.4byte	.LASF105
 3515 0019 00000000 		.4byte	0x0
 3516 001d 00000000 		.4byte	0x0
 3517 0021 00000000 		.4byte	.Ldebug_ranges0+0x0
 3518 0025 00000000 		.4byte	.Ldebug_line0
 3519 0029 02       		.uleb128 0x2
 3520 002a 04       		.byte	0x4
 3521 002b 05       		.byte	0x5
 3522 002c 696E7400 		.ascii	"int\000"
 3523 0030 03       		.uleb128 0x3
 3524 0031 34010000 		.4byte	.LASF3
 3525 0035 02       		.byte	0x2
 3526 0036 11       		.byte	0x11
 3527 0037 3B000000 		.4byte	0x3b
 3528 003b 04       		.uleb128 0x4
 3529 003c 04       		.byte	0x4
 3530 003d 07       		.byte	0x7
 3531 003e DB010000 		.4byte	.LASF0
 3532 0042 04       		.uleb128 0x4
 3533 0043 01       		.byte	0x1
 3534 0044 08       		.byte	0x8
 3535 0045 5A020000 		.4byte	.LASF1
 3536 0049 04       		.uleb128 0x4
 3537 004a 01       		.byte	0x1
 3538 004b 08       		.byte	0x8
 3539 004c A4010000 		.4byte	.LASF2
 3540 0050 03       		.uleb128 0x3
 3541 0051 A1000000 		.4byte	.LASF4
 3542 0055 02       		.byte	0x2
 3543 0056 16       		.byte	0x16
 3544 0057 49000000 		.4byte	0x49
 3545 005b 04       		.uleb128 0x4
 3546 005c 02       		.byte	0x2
 3547 005d 05       		.byte	0x5
 3548 005e 78000000 		.4byte	.LASF5
 3549 0062 04       		.uleb128 0x4
 3550 0063 02       		.byte	0x2
 3551 0064 07       		.byte	0x7
 3552 0065 3E020000 		.4byte	.LASF6
 3553 0069 03       		.uleb128 0x3
ARM GAS  C:\Users\z80\AppData\Local\Temp\ccWqrhGE.s 			page 64


 3554 006a D5000000 		.4byte	.LASF7
 3555 006e 02       		.byte	0x2
 3556 006f 20       		.byte	0x20
 3557 0070 62000000 		.4byte	0x62
 3558 0074 04       		.uleb128 0x4
 3559 0075 04       		.byte	0x4
 3560 0076 05       		.byte	0x5
 3561 0077 0A010000 		.4byte	.LASF8
 3562 007b 04       		.uleb128 0x4
 3563 007c 04       		.byte	0x4
 3564 007d 07       		.byte	0x7
 3565 007e B2020000 		.4byte	.LASF9
 3566 0082 03       		.uleb128 0x3
 3567 0083 79010000 		.4byte	.LASF10
 3568 0087 02       		.byte	0x2
 3569 0088 26       		.byte	0x26
 3570 0089 7B000000 		.4byte	0x7b
 3571 008d 03       		.uleb128 0x3
 3572 008e BD000000 		.4byte	.LASF11
 3573 0092 03       		.byte	0x3
 3574 0093 42       		.byte	0x42
 3575 0094 42000000 		.4byte	0x42
 3576 0098 05       		.uleb128 0x5
 3577 0099 2402     		.2byte	0x224
 3578 009b 03       		.byte	0x3
 3579 009c 4D       		.byte	0x4d
 3580 009d 73010000 		.4byte	0x173
 3581 00a1 06       		.uleb128 0x6
 3582 00a2 AA020000 		.4byte	.LASF12
 3583 00a6 03       		.byte	0x3
 3584 00a7 4E       		.byte	0x4e
 3585 00a8 50000000 		.4byte	0x50
 3586 00ac 02       		.byte	0x2
 3587 00ad 23       		.byte	0x23
 3588 00ae 00       		.uleb128 0x0
 3589 00af 07       		.uleb128 0x7
 3590 00b0 64727600 		.ascii	"drv\000"
 3591 00b4 03       		.byte	0x3
 3592 00b5 4F       		.byte	0x4f
 3593 00b6 50000000 		.4byte	0x50
 3594 00ba 02       		.byte	0x2
 3595 00bb 23       		.byte	0x23
 3596 00bc 01       		.uleb128 0x1
 3597 00bd 06       		.uleb128 0x6
 3598 00be 19010000 		.4byte	.LASF13
 3599 00c2 03       		.byte	0x3
 3600 00c3 50       		.byte	0x50
 3601 00c4 50000000 		.4byte	0x50
 3602 00c8 02       		.byte	0x2
 3603 00c9 23       		.byte	0x23
 3604 00ca 02       		.uleb128 0x2
 3605 00cb 06       		.uleb128 0x6
 3606 00cc 06000000 		.4byte	.LASF14
 3607 00d0 03       		.byte	0x3
 3608 00d1 51       		.byte	0x51
 3609 00d2 50000000 		.4byte	0x50
 3610 00d6 02       		.byte	0x2
ARM GAS  C:\Users\z80\AppData\Local\Temp\ccWqrhGE.s 			page 65


 3611 00d7 23       		.byte	0x23
 3612 00d8 03       		.uleb128 0x3
 3613 00d9 06       		.uleb128 0x6
 3614 00da C5010000 		.4byte	.LASF15
 3615 00de 03       		.byte	0x3
 3616 00df 52       		.byte	0x52
 3617 00e0 50000000 		.4byte	0x50
 3618 00e4 02       		.byte	0x2
 3619 00e5 23       		.byte	0x23
 3620 00e6 04       		.uleb128 0x4
 3621 00e7 06       		.uleb128 0x6
 3622 00e8 8A010000 		.4byte	.LASF16
 3623 00ec 03       		.byte	0x3
 3624 00ed 53       		.byte	0x53
 3625 00ee 50000000 		.4byte	0x50
 3626 00f2 02       		.byte	0x2
 3627 00f3 23       		.byte	0x23
 3628 00f4 05       		.uleb128 0x5
 3629 00f5 07       		.uleb128 0x7
 3630 00f6 696400   		.ascii	"id\000"
 3631 00f9 03       		.byte	0x3
 3632 00fa 54       		.byte	0x54
 3633 00fb 69000000 		.4byte	0x69
 3634 00ff 02       		.byte	0x2
 3635 0100 23       		.byte	0x23
 3636 0101 06       		.uleb128 0x6
 3637 0102 06       		.uleb128 0x6
 3638 0103 B3000000 		.4byte	.LASF17
 3639 0107 03       		.byte	0x3
 3640 0108 55       		.byte	0x55
 3641 0109 69000000 		.4byte	0x69
 3642 010d 02       		.byte	0x2
 3643 010e 23       		.byte	0x23
 3644 010f 08       		.uleb128 0x8
 3645 0110 06       		.uleb128 0x6
 3646 0111 38000000 		.4byte	.LASF18
 3647 0115 03       		.byte	0x3
 3648 0116 64       		.byte	0x64
 3649 0117 82000000 		.4byte	0x82
 3650 011b 02       		.byte	0x2
 3651 011c 23       		.byte	0x23
 3652 011d 0C       		.uleb128 0xc
 3653 011e 06       		.uleb128 0x6
 3654 011f 58010000 		.4byte	.LASF19
 3655 0123 03       		.byte	0x3
 3656 0124 65       		.byte	0x65
 3657 0125 82000000 		.4byte	0x82
 3658 0129 02       		.byte	0x2
 3659 012a 23       		.byte	0x23
 3660 012b 10       		.uleb128 0x10
 3661 012c 06       		.uleb128 0x6
 3662 012d 5F020000 		.4byte	.LASF20
 3663 0131 03       		.byte	0x3
 3664 0132 66       		.byte	0x66
 3665 0133 82000000 		.4byte	0x82
 3666 0137 02       		.byte	0x2
 3667 0138 23       		.byte	0x23
ARM GAS  C:\Users\z80\AppData\Local\Temp\ccWqrhGE.s 			page 66


 3668 0139 14       		.uleb128 0x14
 3669 013a 06       		.uleb128 0x6
 3670 013b ED020000 		.4byte	.LASF21
 3671 013f 03       		.byte	0x3
 3672 0140 67       		.byte	0x67
 3673 0141 82000000 		.4byte	0x82
 3674 0145 02       		.byte	0x2
 3675 0146 23       		.byte	0x23
 3676 0147 18       		.uleb128 0x18
 3677 0148 06       		.uleb128 0x6
 3678 0149 98000000 		.4byte	.LASF22
 3679 014d 03       		.byte	0x3
 3680 014e 68       		.byte	0x68
 3681 014f 82000000 		.4byte	0x82
 3682 0153 02       		.byte	0x2
 3683 0154 23       		.byte	0x23
 3684 0155 1C       		.uleb128 0x1c
 3685 0156 06       		.uleb128 0x6
 3686 0157 5B030000 		.4byte	.LASF23
 3687 015b 03       		.byte	0x3
 3688 015c 69       		.byte	0x69
 3689 015d 82000000 		.4byte	0x82
 3690 0161 02       		.byte	0x2
 3691 0162 23       		.byte	0x23
 3692 0163 20       		.uleb128 0x20
 3693 0164 07       		.uleb128 0x7
 3694 0165 77696E00 		.ascii	"win\000"
 3695 0169 03       		.byte	0x3
 3696 016a 6A       		.byte	0x6a
 3697 016b 73010000 		.4byte	0x173
 3698 016f 02       		.byte	0x2
 3699 0170 23       		.byte	0x23
 3700 0171 24       		.uleb128 0x24
 3701 0172 00       		.byte	0x0
 3702 0173 08       		.uleb128 0x8
 3703 0174 50000000 		.4byte	0x50
 3704 0178 84010000 		.4byte	0x184
 3705 017c 09       		.uleb128 0x9
 3706 017d 84010000 		.4byte	0x184
 3707 0181 FF01     		.2byte	0x1ff
 3708 0183 00       		.byte	0x0
 3709 0184 0A       		.uleb128 0xa
 3710 0185 04       		.byte	0x4
 3711 0186 07       		.byte	0x7
 3712 0187 03       		.uleb128 0x3
 3713 0188 00000000 		.4byte	.LASF24
 3714 018c 03       		.byte	0x3
 3715 018d 6B       		.byte	0x6b
 3716 018e 98000000 		.4byte	0x98
 3717 0192 0B       		.uleb128 0xb
 3718 0193 1C       		.byte	0x1c
 3719 0194 03       		.byte	0x3
 3720 0195 71       		.byte	0x71
 3721 0196 17020000 		.4byte	0x217
 3722 019a 07       		.uleb128 0x7
 3723 019b 667300   		.ascii	"fs\000"
 3724 019e 03       		.byte	0x3
ARM GAS  C:\Users\z80\AppData\Local\Temp\ccWqrhGE.s 			page 67


 3725 019f 72       		.byte	0x72
 3726 01a0 17020000 		.4byte	0x217
 3727 01a4 02       		.byte	0x2
 3728 01a5 23       		.byte	0x23
 3729 01a6 00       		.uleb128 0x0
 3730 01a7 07       		.uleb128 0x7
 3731 01a8 696400   		.ascii	"id\000"
 3732 01ab 03       		.byte	0x3
 3733 01ac 73       		.byte	0x73
 3734 01ad 69000000 		.4byte	0x69
 3735 01b1 02       		.byte	0x2
 3736 01b2 23       		.byte	0x23
 3737 01b3 04       		.uleb128 0x4
 3738 01b4 06       		.uleb128 0x6
 3739 01b5 47030000 		.4byte	.LASF25
 3740 01b9 03       		.byte	0x3
 3741 01ba 74       		.byte	0x74
 3742 01bb 50000000 		.4byte	0x50
 3743 01bf 02       		.byte	0x2
 3744 01c0 23       		.byte	0x23
 3745 01c1 06       		.uleb128 0x6
 3746 01c2 06       		.uleb128 0x6
 3747 01c3 05010000 		.4byte	.LASF26
 3748 01c7 03       		.byte	0x3
 3749 01c8 75       		.byte	0x75
 3750 01c9 50000000 		.4byte	0x50
 3751 01cd 02       		.byte	0x2
 3752 01ce 23       		.byte	0x23
 3753 01cf 07       		.uleb128 0x7
 3754 01d0 06       		.uleb128 0x6
 3755 01d1 ED000000 		.4byte	.LASF27
 3756 01d5 03       		.byte	0x3
 3757 01d6 76       		.byte	0x76
 3758 01d7 82000000 		.4byte	0x82
 3759 01db 02       		.byte	0x2
 3760 01dc 23       		.byte	0x23
 3761 01dd 08       		.uleb128 0x8
 3762 01de 06       		.uleb128 0x6
 3763 01df 58010000 		.4byte	.LASF19
 3764 01e3 03       		.byte	0x3
 3765 01e4 77       		.byte	0x77
 3766 01e5 82000000 		.4byte	0x82
 3767 01e9 02       		.byte	0x2
 3768 01ea 23       		.byte	0x23
 3769 01eb 0C       		.uleb128 0xc
 3770 01ec 06       		.uleb128 0x6
 3771 01ed 18030000 		.4byte	.LASF28
 3772 01f1 03       		.byte	0x3
 3773 01f2 78       		.byte	0x78
 3774 01f3 82000000 		.4byte	0x82
 3775 01f7 02       		.byte	0x2
 3776 01f8 23       		.byte	0x23
 3777 01f9 10       		.uleb128 0x10
 3778 01fa 06       		.uleb128 0x6
 3779 01fb 13010000 		.4byte	.LASF29
 3780 01ff 03       		.byte	0x3
 3781 0200 79       		.byte	0x79
ARM GAS  C:\Users\z80\AppData\Local\Temp\ccWqrhGE.s 			page 68


 3782 0201 82000000 		.4byte	0x82
 3783 0205 02       		.byte	0x2
 3784 0206 23       		.byte	0x23
 3785 0207 14       		.uleb128 0x14
 3786 0208 06       		.uleb128 0x6
 3787 0209 82000000 		.4byte	.LASF30
 3788 020d 03       		.byte	0x3
 3789 020e 7A       		.byte	0x7a
 3790 020f 82000000 		.4byte	0x82
 3791 0213 02       		.byte	0x2
 3792 0214 23       		.byte	0x23
 3793 0215 18       		.uleb128 0x18
 3794 0216 00       		.byte	0x0
 3795 0217 0C       		.uleb128 0xc
 3796 0218 04       		.byte	0x4
 3797 0219 87010000 		.4byte	0x187
 3798 021d 0D       		.uleb128 0xd
 3799 021e 46494C00 		.ascii	"FIL\000"
 3800 0222 03       		.byte	0x3
 3801 0223 88       		.byte	0x88
 3802 0224 92010000 		.4byte	0x192
 3803 0228 0B       		.uleb128 0xb
 3804 0229 1C       		.byte	0x1c
 3805 022a 03       		.byte	0x3
 3806 022b 8E       		.byte	0x8e
 3807 022c 9E020000 		.4byte	0x29e
 3808 0230 07       		.uleb128 0x7
 3809 0231 667300   		.ascii	"fs\000"
 3810 0234 03       		.byte	0x3
 3811 0235 8F       		.byte	0x8f
 3812 0236 17020000 		.4byte	0x217
 3813 023a 02       		.byte	0x2
 3814 023b 23       		.byte	0x23
 3815 023c 00       		.uleb128 0x0
 3816 023d 07       		.uleb128 0x7
 3817 023e 696400   		.ascii	"id\000"
 3818 0241 03       		.byte	0x3
 3819 0242 90       		.byte	0x90
 3820 0243 69000000 		.4byte	0x69
 3821 0247 02       		.byte	0x2
 3822 0248 23       		.byte	0x23
 3823 0249 04       		.uleb128 0x4
 3824 024a 06       		.uleb128 0x6
 3825 024b DA000000 		.4byte	.LASF31
 3826 024f 03       		.byte	0x3
 3827 0250 91       		.byte	0x91
 3828 0251 69000000 		.4byte	0x69
 3829 0255 02       		.byte	0x2
 3830 0256 23       		.byte	0x23
 3831 0257 06       		.uleb128 0x6
 3832 0258 06       		.uleb128 0x6
 3833 0259 18030000 		.4byte	.LASF28
 3834 025d 03       		.byte	0x3
 3835 025e 92       		.byte	0x92
 3836 025f 82000000 		.4byte	0x82
 3837 0263 02       		.byte	0x2
 3838 0264 23       		.byte	0x23
ARM GAS  C:\Users\z80\AppData\Local\Temp\ccWqrhGE.s 			page 69


 3839 0265 08       		.uleb128 0x8
 3840 0266 06       		.uleb128 0x6
 3841 0267 13010000 		.4byte	.LASF29
 3842 026b 03       		.byte	0x3
 3843 026c 93       		.byte	0x93
 3844 026d 82000000 		.4byte	0x82
 3845 0271 02       		.byte	0x2
 3846 0272 23       		.byte	0x23
 3847 0273 0C       		.uleb128 0xc
 3848 0274 06       		.uleb128 0x6
 3849 0275 A6000000 		.4byte	.LASF32
 3850 0279 03       		.byte	0x3
 3851 027a 94       		.byte	0x94
 3852 027b 82000000 		.4byte	0x82
 3853 027f 02       		.byte	0x2
 3854 0280 23       		.byte	0x23
 3855 0281 10       		.uleb128 0x10
 3856 0282 07       		.uleb128 0x7
 3857 0283 64697200 		.ascii	"dir\000"
 3858 0287 03       		.byte	0x3
 3859 0288 95       		.byte	0x95
 3860 0289 9E020000 		.4byte	0x29e
 3861 028d 02       		.byte	0x2
 3862 028e 23       		.byte	0x23
 3863 028f 14       		.uleb128 0x14
 3864 0290 07       		.uleb128 0x7
 3865 0291 666E00   		.ascii	"fn\000"
 3866 0294 03       		.byte	0x3
 3867 0295 96       		.byte	0x96
 3868 0296 9E020000 		.4byte	0x29e
 3869 029a 02       		.byte	0x2
 3870 029b 23       		.byte	0x23
 3871 029c 18       		.uleb128 0x18
 3872 029d 00       		.byte	0x0
 3873 029e 0C       		.uleb128 0xc
 3874 029f 04       		.byte	0x4
 3875 02a0 50000000 		.4byte	0x50
 3876 02a4 0D       		.uleb128 0xd
 3877 02a5 44495200 		.ascii	"DIR\000"
 3878 02a9 03       		.byte	0x3
 3879 02aa 9B       		.byte	0x9b
 3880 02ab 28020000 		.4byte	0x228
 3881 02af 0E       		.uleb128 0xe
 3882 02b0 01       		.byte	0x1
 3883 02b1 03       		.byte	0x3
 3884 02b2 B1       		.byte	0xb1
 3885 02b3 30030000 		.4byte	0x330
 3886 02b7 0F       		.uleb128 0xf
 3887 02b8 E0000000 		.4byte	.LASF33
 3888 02bc 00       		.sleb128 0
 3889 02bd 0F       		.uleb128 0xf
 3890 02be F9000000 		.4byte	.LASF34
 3891 02c2 01       		.sleb128 1
 3892 02c3 0F       		.uleb128 0xf
 3893 02c4 FC020000 		.4byte	.LASF35
 3894 02c8 02       		.sleb128 2
 3895 02c9 0F       		.uleb128 0xf
ARM GAS  C:\Users\z80\AppData\Local\Temp\ccWqrhGE.s 			page 70


 3896 02ca 95020000 		.4byte	.LASF36
 3897 02ce 03       		.sleb128 3
 3898 02cf 0F       		.uleb128 0xf
 3899 02d0 F0010000 		.4byte	.LASF37
 3900 02d4 04       		.sleb128 4
 3901 02d5 0F       		.uleb128 0xf
 3902 02d6 7F010000 		.4byte	.LASF38
 3903 02da 05       		.sleb128 5
 3904 02db 0F       		.uleb128 0xf
 3905 02dc A2030000 		.4byte	.LASF39
 3906 02e0 06       		.sleb128 6
 3907 02e1 0F       		.uleb128 0xf
 3908 02e2 2E000000 		.4byte	.LASF40
 3909 02e6 07       		.sleb128 7
 3910 02e7 0F       		.uleb128 0xf
 3911 02e8 51020000 		.4byte	.LASF41
 3912 02ec 08       		.sleb128 8
 3913 02ed 0F       		.uleb128 0xf
 3914 02ee 83020000 		.4byte	.LASF42
 3915 02f2 09       		.sleb128 9
 3916 02f3 0F       		.uleb128 0xf
 3917 02f4 5E010000 		.4byte	.LASF43
 3918 02f8 0A       		.sleb128 10
 3919 02f9 0F       		.uleb128 0xf
 3920 02fa 2E030000 		.4byte	.LASF44
 3921 02fe 0B       		.sleb128 11
 3922 02ff 0F       		.uleb128 0xf
 3923 0300 2F020000 		.4byte	.LASF45
 3924 0304 0C       		.sleb128 12
 3925 0305 0F       		.uleb128 0xf
 3926 0306 13000000 		.4byte	.LASF46
 3927 030a 0D       		.sleb128 13
 3928 030b 0F       		.uleb128 0xf
 3929 030c 3F010000 		.4byte	.LASF47
 3930 0310 0E       		.sleb128 14
 3931 0311 0F       		.uleb128 0xf
 3932 0312 D6020000 		.4byte	.LASF48
 3933 0316 0F       		.sleb128 15
 3934 0317 0F       		.uleb128 0xf
 3935 0318 51030000 		.4byte	.LASF49
 3936 031c 10       		.sleb128 16
 3937 031d 0F       		.uleb128 0xf
 3938 031e 88030000 		.4byte	.LASF50
 3939 0322 11       		.sleb128 17
 3940 0323 0F       		.uleb128 0xf
 3941 0324 61000000 		.4byte	.LASF51
 3942 0328 12       		.sleb128 18
 3943 0329 0F       		.uleb128 0xf
 3944 032a 04020000 		.4byte	.LASF52
 3945 032e 13       		.sleb128 19
 3946 032f 00       		.byte	0x0
 3947 0330 03       		.uleb128 0x3
 3948 0331 D3010000 		.4byte	.LASF53
 3949 0335 03       		.byte	0x3
 3950 0336 C6       		.byte	0xc6
 3951 0337 AF020000 		.4byte	0x2af
 3952 033b 03       		.uleb128 0x3
ARM GAS  C:\Users\z80\AppData\Local\Temp\ccWqrhGE.s 			page 71


 3953 033c 71010000 		.4byte	.LASF54
 3954 0340 04       		.byte	0x4
 3955 0341 0A       		.byte	0xa
 3956 0342 50000000 		.4byte	0x50
 3957 0346 0E       		.uleb128 0xe
 3958 0347 01       		.byte	0x1
 3959 0348 04       		.byte	0x4
 3960 0349 0D       		.byte	0xd
 3961 034a 6D030000 		.4byte	0x36d
 3962 034e 0F       		.uleb128 0xf
 3963 034f F5020000 		.4byte	.LASF55
 3964 0353 00       		.sleb128 0
 3965 0354 0F       		.uleb128 0xf
 3966 0355 24000000 		.4byte	.LASF56
 3967 0359 01       		.sleb128 1
 3968 035a 0F       		.uleb128 0xf
 3969 035b 1F010000 		.4byte	.LASF57
 3970 035f 02       		.sleb128 2
 3971 0360 0F       		.uleb128 0xf
 3972 0361 67020000 		.4byte	.LASF58
 3973 0365 03       		.sleb128 3
 3974 0366 0F       		.uleb128 0xf
 3975 0367 6E030000 		.4byte	.LASF59
 3976 036b 04       		.sleb128 4
 3977 036c 00       		.byte	0x0
 3978 036d 10       		.uleb128 0x10
 3979 036e A2020000 		.4byte	.LASF60
 3980 0372 01       		.byte	0x1
 3981 0373 1102     		.2byte	0x211
 3982 0375 01       		.byte	0x1
 3983 0376 00000000 		.4byte	.LFB0
 3984 037a 46000000 		.4byte	.LFE0
 3985 037e 00000000 		.4byte	.LLST0
 3986 0382 CE030000 		.4byte	0x3ce
 3987 0386 11       		.uleb128 0x11
 3988 0387 64737400 		.ascii	"dst\000"
 3989 038b 01       		.byte	0x1
 3990 038c 1102     		.2byte	0x211
 3991 038e CE030000 		.4byte	0x3ce
 3992 0392 02       		.byte	0x2
 3993 0393 91       		.byte	0x91
 3994 0394 74       		.sleb128 -12
 3995 0395 11       		.uleb128 0x11
 3996 0396 73726300 		.ascii	"src\000"
 3997 039a 01       		.byte	0x1
 3998 039b 1102     		.2byte	0x211
 3999 039d D0030000 		.4byte	0x3d0
 4000 03a1 02       		.byte	0x2
 4001 03a2 91       		.byte	0x91
 4002 03a3 70       		.sleb128 -16
 4003 03a4 11       		.uleb128 0x11
 4004 03a5 636E7400 		.ascii	"cnt\000"
 4005 03a9 01       		.byte	0x1
 4006 03aa 1102     		.2byte	0x211
 4007 03ac 30000000 		.4byte	0x30
 4008 03b0 02       		.byte	0x2
 4009 03b1 91       		.byte	0x91
ARM GAS  C:\Users\z80\AppData\Local\Temp\ccWqrhGE.s 			page 72


 4010 03b2 6C       		.sleb128 -20
 4011 03b3 12       		.uleb128 0x12
 4012 03b4 6400     		.ascii	"d\000"
 4013 03b6 01       		.byte	0x1
 4014 03b7 1202     		.2byte	0x212
 4015 03b9 9E020000 		.4byte	0x29e
 4016 03bd 02       		.byte	0x2
 4017 03be 91       		.byte	0x91
 4018 03bf 7C       		.sleb128 -4
 4019 03c0 12       		.uleb128 0x12
 4020 03c1 7300     		.ascii	"s\000"
 4021 03c3 01       		.byte	0x1
 4022 03c4 1302     		.2byte	0x213
 4023 03c6 D7030000 		.4byte	0x3d7
 4024 03ca 02       		.byte	0x2
 4025 03cb 91       		.byte	0x91
 4026 03cc 78       		.sleb128 -8
 4027 03cd 00       		.byte	0x0
 4028 03ce 13       		.uleb128 0x13
 4029 03cf 04       		.byte	0x4
 4030 03d0 0C       		.uleb128 0xc
 4031 03d1 04       		.byte	0x4
 4032 03d2 D6030000 		.4byte	0x3d6
 4033 03d6 14       		.uleb128 0x14
 4034 03d7 0C       		.uleb128 0xc
 4035 03d8 04       		.byte	0x4
 4036 03d9 DD030000 		.4byte	0x3dd
 4037 03dd 15       		.uleb128 0x15
 4038 03de 50000000 		.4byte	0x50
 4039 03e2 10       		.uleb128 0x10
 4040 03e3 CB010000 		.4byte	.LASF61
 4041 03e7 01       		.byte	0x1
 4042 03e8 2202     		.2byte	0x222
 4043 03ea 01       		.byte	0x1
 4044 03eb 00000000 		.4byte	.LFB1
 4045 03ef 3A000000 		.4byte	.LFE1
 4046 03f3 20000000 		.4byte	.LLST1
 4047 03f7 36040000 		.4byte	0x436
 4048 03fb 11       		.uleb128 0x11
 4049 03fc 64737400 		.ascii	"dst\000"
 4050 0400 01       		.byte	0x1
 4051 0401 2202     		.2byte	0x222
 4052 0403 CE030000 		.4byte	0x3ce
 4053 0407 02       		.byte	0x2
 4054 0408 91       		.byte	0x91
 4055 0409 74       		.sleb128 -12
 4056 040a 11       		.uleb128 0x11
 4057 040b 76616C00 		.ascii	"val\000"
 4058 040f 01       		.byte	0x1
 4059 0410 2202     		.2byte	0x222
 4060 0412 29000000 		.4byte	0x29
 4061 0416 02       		.byte	0x2
 4062 0417 91       		.byte	0x91
 4063 0418 70       		.sleb128 -16
 4064 0419 11       		.uleb128 0x11
 4065 041a 636E7400 		.ascii	"cnt\000"
 4066 041e 01       		.byte	0x1
ARM GAS  C:\Users\z80\AppData\Local\Temp\ccWqrhGE.s 			page 73


 4067 041f 2202     		.2byte	0x222
 4068 0421 30000000 		.4byte	0x30
 4069 0425 02       		.byte	0x2
 4070 0426 91       		.byte	0x91
 4071 0427 6C       		.sleb128 -20
 4072 0428 12       		.uleb128 0x12
 4073 0429 6400     		.ascii	"d\000"
 4074 042b 01       		.byte	0x1
 4075 042c 2302     		.2byte	0x223
 4076 042e 9E020000 		.4byte	0x29e
 4077 0432 02       		.byte	0x2
 4078 0433 91       		.byte	0x91
 4079 0434 7C       		.sleb128 -4
 4080 0435 00       		.byte	0x0
 4081 0436 16       		.uleb128 0x16
 4082 0437 3F030000 		.4byte	.LASF62
 4083 043b 01       		.byte	0x1
 4084 043c 2B02     		.2byte	0x22b
 4085 043e 01       		.byte	0x1
 4086 043f 29000000 		.4byte	0x29
 4087 0443 00000000 		.4byte	.LFB2
 4088 0447 68000000 		.4byte	.LFE2
 4089 044b 40000000 		.4byte	.LLST2
 4090 044f A8040000 		.4byte	0x4a8
 4091 0453 11       		.uleb128 0x11
 4092 0454 64737400 		.ascii	"dst\000"
 4093 0458 01       		.byte	0x1
 4094 0459 2B02     		.2byte	0x22b
 4095 045b D0030000 		.4byte	0x3d0
 4096 045f 02       		.byte	0x2
 4097 0460 91       		.byte	0x91
 4098 0461 6C       		.sleb128 -20
 4099 0462 11       		.uleb128 0x11
 4100 0463 73726300 		.ascii	"src\000"
 4101 0467 01       		.byte	0x1
 4102 0468 2B02     		.2byte	0x22b
 4103 046a D0030000 		.4byte	0x3d0
 4104 046e 02       		.byte	0x2
 4105 046f 91       		.byte	0x91
 4106 0470 68       		.sleb128 -24
 4107 0471 11       		.uleb128 0x11
 4108 0472 636E7400 		.ascii	"cnt\000"
 4109 0476 01       		.byte	0x1
 4110 0477 2B02     		.2byte	0x22b
 4111 0479 30000000 		.4byte	0x30
 4112 047d 02       		.byte	0x2
 4113 047e 91       		.byte	0x91
 4114 047f 64       		.sleb128 -28
 4115 0480 12       		.uleb128 0x12
 4116 0481 6400     		.ascii	"d\000"
 4117 0483 01       		.byte	0x1
 4118 0484 2C02     		.2byte	0x22c
 4119 0486 D7030000 		.4byte	0x3d7
 4120 048a 02       		.byte	0x2
 4121 048b 91       		.byte	0x91
 4122 048c 7C       		.sleb128 -4
 4123 048d 12       		.uleb128 0x12
ARM GAS  C:\Users\z80\AppData\Local\Temp\ccWqrhGE.s 			page 74


 4124 048e 7300     		.ascii	"s\000"
 4125 0490 01       		.byte	0x1
 4126 0491 2C02     		.2byte	0x22c
 4127 0493 D7030000 		.4byte	0x3d7
 4128 0497 02       		.byte	0x2
 4129 0498 91       		.byte	0x91
 4130 0499 78       		.sleb128 -8
 4131 049a 12       		.uleb128 0x12
 4132 049b 7200     		.ascii	"r\000"
 4133 049d 01       		.byte	0x1
 4134 049e 2D02     		.2byte	0x22d
 4135 04a0 29000000 		.4byte	0x29
 4136 04a4 02       		.byte	0x2
 4137 04a5 91       		.byte	0x91
 4138 04a6 74       		.sleb128 -12
 4139 04a7 00       		.byte	0x0
 4140 04a8 16       		.uleb128 0x16
 4141 04a9 41000000 		.4byte	.LASF63
 4142 04ad 01       		.byte	0x1
 4143 04ae 3502     		.2byte	0x235
 4144 04b0 01       		.byte	0x1
 4145 04b1 29000000 		.4byte	0x29
 4146 04b5 00000000 		.4byte	.LFB3
 4147 04b9 2E000000 		.4byte	.LFE3
 4148 04bd 60000000 		.4byte	.LLST3
 4149 04c1 E4040000 		.4byte	0x4e4
 4150 04c5 11       		.uleb128 0x11
 4151 04c6 73747200 		.ascii	"str\000"
 4152 04ca 01       		.byte	0x1
 4153 04cb 3502     		.2byte	0x235
 4154 04cd E4040000 		.4byte	0x4e4
 4155 04d1 02       		.byte	0x2
 4156 04d2 91       		.byte	0x91
 4157 04d3 7C       		.sleb128 -4
 4158 04d4 11       		.uleb128 0x11
 4159 04d5 63687200 		.ascii	"chr\000"
 4160 04d9 01       		.byte	0x1
 4161 04da 3502     		.2byte	0x235
 4162 04dc 29000000 		.4byte	0x29
 4163 04e0 02       		.byte	0x2
 4164 04e1 91       		.byte	0x91
 4165 04e2 78       		.sleb128 -8
 4166 04e3 00       		.byte	0x0
 4167 04e4 0C       		.uleb128 0xc
 4168 04e5 04       		.byte	0x4
 4169 04e6 EA040000 		.4byte	0x4ea
 4170 04ea 15       		.uleb128 0x15
 4171 04eb 42000000 		.4byte	0x42
 4172 04ef 16       		.uleb128 0x16
 4173 04f0 07030000 		.4byte	.LASF64
 4174 04f4 01       		.byte	0x1
 4175 04f5 CF02     		.2byte	0x2cf
 4176 04f7 01       		.byte	0x1
 4177 04f8 30030000 		.4byte	0x330
 4178 04fc 00000000 		.4byte	.LFB4
 4179 0500 50000000 		.4byte	.LFE4
 4180 0504 80000000 		.4byte	.LLST4
ARM GAS  C:\Users\z80\AppData\Local\Temp\ccWqrhGE.s 			page 75


 4181 0508 39050000 		.4byte	0x539
 4182 050c 11       		.uleb128 0x11
 4183 050d 667300   		.ascii	"fs\000"
 4184 0510 01       		.byte	0x1
 4185 0511 D002     		.2byte	0x2d0
 4186 0513 17020000 		.4byte	0x217
 4187 0517 02       		.byte	0x2
 4188 0518 91       		.byte	0x91
 4189 0519 6C       		.sleb128 -20
 4190 051a 17       		.uleb128 0x17
 4191 051b F2000000 		.4byte	.LASF65
 4192 051f 01       		.byte	0x1
 4193 0520 D102     		.2byte	0x2d1
 4194 0522 82000000 		.4byte	0x82
 4195 0526 02       		.byte	0x2
 4196 0527 91       		.byte	0x91
 4197 0528 68       		.sleb128 -24
 4198 0529 18       		.uleb128 0x18
 4199 052a 88000000 		.4byte	.LASF66
 4200 052e 01       		.byte	0x1
 4201 052f D402     		.2byte	0x2d4
 4202 0531 82000000 		.4byte	0x82
 4203 0535 02       		.byte	0x2
 4204 0536 91       		.byte	0x91
 4205 0537 74       		.sleb128 -12
 4206 0538 00       		.byte	0x0
 4207 0539 19       		.uleb128 0x19
 4208 053a 01       		.byte	0x1
 4209 053b CA000000 		.4byte	.LASF68
 4210 053f 01       		.byte	0x1
 4211 0540 2103     		.2byte	0x321
 4212 0542 01       		.byte	0x1
 4213 0543 82000000 		.4byte	0x82
 4214 0547 00000000 		.4byte	.LFB5
 4215 054b 38000000 		.4byte	.LFE5
 4216 054f AC000000 		.4byte	.LLST5
 4217 0553 75050000 		.4byte	0x575
 4218 0557 11       		.uleb128 0x11
 4219 0558 667300   		.ascii	"fs\000"
 4220 055b 01       		.byte	0x1
 4221 055c 2203     		.2byte	0x322
 4222 055e 17020000 		.4byte	0x217
 4223 0562 02       		.byte	0x2
 4224 0563 91       		.byte	0x91
 4225 0564 7C       		.sleb128 -4
 4226 0565 17       		.uleb128 0x17
 4227 0566 DA030000 		.4byte	.LASF67
 4228 056a 01       		.byte	0x1
 4229 056b 2303     		.2byte	0x323
 4230 056d 82000000 		.4byte	0x82
 4231 0571 02       		.byte	0x2
 4232 0572 91       		.byte	0x91
 4233 0573 78       		.sleb128 -8
 4234 0574 00       		.byte	0x0
 4235 0575 19       		.uleb128 0x19
 4236 0576 01       		.byte	0x1
 4237 0577 E8010000 		.4byte	.LASF69
ARM GAS  C:\Users\z80\AppData\Local\Temp\ccWqrhGE.s 			page 76


 4238 057b 01       		.byte	0x1
 4239 057c 3303     		.2byte	0x333
 4240 057e 01       		.byte	0x1
 4241 057f 82000000 		.4byte	0x82
 4242 0583 00000000 		.4byte	.LFB6
 4243 0587 A2010000 		.4byte	.LFE6
 4244 058b CC000000 		.4byte	.LLST6
 4245 058f DA050000 		.4byte	0x5da
 4246 0593 11       		.uleb128 0x11
 4247 0594 667300   		.ascii	"fs\000"
 4248 0597 01       		.byte	0x1
 4249 0598 3403     		.2byte	0x334
 4250 059a 17020000 		.4byte	0x217
 4251 059e 02       		.byte	0x2
 4252 059f 91       		.byte	0x91
 4253 05a0 64       		.sleb128 -28
 4254 05a1 17       		.uleb128 0x17
 4255 05a2 DA030000 		.4byte	.LASF67
 4256 05a6 01       		.byte	0x1
 4257 05a7 3503     		.2byte	0x335
 4258 05a9 82000000 		.4byte	0x82
 4259 05ad 02       		.byte	0x2
 4260 05ae 91       		.byte	0x91
 4261 05af 60       		.sleb128 -32
 4262 05b0 12       		.uleb128 0x12
 4263 05b1 776300   		.ascii	"wc\000"
 4264 05b4 01       		.byte	0x1
 4265 05b5 3803     		.2byte	0x338
 4266 05b7 30000000 		.4byte	0x30
 4267 05bb 02       		.byte	0x2
 4268 05bc 91       		.byte	0x91
 4269 05bd 70       		.sleb128 -16
 4270 05be 12       		.uleb128 0x12
 4271 05bf 626300   		.ascii	"bc\000"
 4272 05c2 01       		.byte	0x1
 4273 05c3 3803     		.2byte	0x338
 4274 05c5 30000000 		.4byte	0x30
 4275 05c9 02       		.byte	0x2
 4276 05ca 91       		.byte	0x91
 4277 05cb 74       		.sleb128 -12
 4278 05cc 12       		.uleb128 0x12
 4279 05cd 7000     		.ascii	"p\000"
 4280 05cf 01       		.byte	0x1
 4281 05d0 3903     		.2byte	0x339
 4282 05d2 9E020000 		.4byte	0x29e
 4283 05d6 02       		.byte	0x2
 4284 05d7 91       		.byte	0x91
 4285 05d8 6C       		.sleb128 -20
 4286 05d9 00       		.byte	0x0
 4287 05da 16       		.uleb128 0x16
 4288 05db 80030000 		.4byte	.LASF70
 4289 05df 01       		.byte	0x1
 4290 05e0 2904     		.2byte	0x429
 4291 05e2 01       		.byte	0x1
 4292 05e3 30030000 		.4byte	0x330
 4293 05e7 00000000 		.4byte	.LFB7
 4294 05eb 2C010000 		.4byte	.LFE7
ARM GAS  C:\Users\z80\AppData\Local\Temp\ccWqrhGE.s 			page 77


 4295 05ef F8000000 		.4byte	.LLST7
 4296 05f3 32060000 		.4byte	0x632
 4297 05f7 11       		.uleb128 0x11
 4298 05f8 646A00   		.ascii	"dj\000"
 4299 05fb 01       		.byte	0x1
 4300 05fc 2A04     		.2byte	0x42a
 4301 05fe 32060000 		.4byte	0x632
 4302 0602 02       		.byte	0x2
 4303 0603 91       		.byte	0x91
 4304 0604 6C       		.sleb128 -20
 4305 0605 11       		.uleb128 0x11
 4306 0606 69647800 		.ascii	"idx\000"
 4307 060a 01       		.byte	0x1
 4308 060b 2B04     		.2byte	0x42b
 4309 060d 69000000 		.4byte	0x69
 4310 0611 02       		.byte	0x2
 4311 0612 91       		.byte	0x91
 4312 0613 6A       		.sleb128 -22
 4313 0614 18       		.uleb128 0x18
 4314 0615 DA030000 		.4byte	.LASF67
 4315 0619 01       		.byte	0x1
 4316 061a 2E04     		.2byte	0x42e
 4317 061c 82000000 		.4byte	0x82
 4318 0620 02       		.byte	0x2
 4319 0621 91       		.byte	0x91
 4320 0622 74       		.sleb128 -12
 4321 0623 12       		.uleb128 0x12
 4322 0624 696300   		.ascii	"ic\000"
 4323 0627 01       		.byte	0x1
 4324 0628 2F04     		.2byte	0x42f
 4325 062a 69000000 		.4byte	0x69
 4326 062e 02       		.byte	0x2
 4327 062f 91       		.byte	0x91
 4328 0630 72       		.sleb128 -14
 4329 0631 00       		.byte	0x0
 4330 0632 0C       		.uleb128 0xc
 4331 0633 04       		.byte	0x4
 4332 0634 A4020000 		.4byte	0x2a4
 4333 0638 16       		.uleb128 0x16
 4334 0639 9B010000 		.4byte	.LASF71
 4335 063d 01       		.byte	0x1
 4336 063e 5904     		.2byte	0x459
 4337 0640 01       		.byte	0x1
 4338 0641 30030000 		.4byte	0x330
 4339 0645 00000000 		.4byte	.LFB8
 4340 0649 06010000 		.4byte	.LFE8
 4341 064d 24010000 		.4byte	.LLST8
 4342 0651 8F060000 		.4byte	0x68f
 4343 0655 11       		.uleb128 0x11
 4344 0656 646A00   		.ascii	"dj\000"
 4345 0659 01       		.byte	0x1
 4346 065a 5A04     		.2byte	0x45a
 4347 065c 32060000 		.4byte	0x632
 4348 0660 02       		.byte	0x2
 4349 0661 91       		.byte	0x91
 4350 0662 6C       		.sleb128 -20
 4351 0663 17       		.uleb128 0x17
ARM GAS  C:\Users\z80\AppData\Local\Temp\ccWqrhGE.s 			page 78


 4352 0664 AB000000 		.4byte	.LASF72
 4353 0668 01       		.byte	0x1
 4354 0669 5B04     		.2byte	0x45b
 4355 066b 29000000 		.4byte	0x29
 4356 066f 02       		.byte	0x2
 4357 0670 91       		.byte	0x91
 4358 0671 68       		.sleb128 -24
 4359 0672 18       		.uleb128 0x18
 4360 0673 DA030000 		.4byte	.LASF67
 4361 0677 01       		.byte	0x1
 4362 0678 5E04     		.2byte	0x45e
 4363 067a 82000000 		.4byte	0x82
 4364 067e 02       		.byte	0x2
 4365 067f 91       		.byte	0x91
 4366 0680 70       		.sleb128 -16
 4367 0681 12       		.uleb128 0x12
 4368 0682 6900     		.ascii	"i\000"
 4369 0684 01       		.byte	0x1
 4370 0685 5F04     		.2byte	0x45f
 4371 0687 69000000 		.4byte	0x69
 4372 068b 02       		.byte	0x2
 4373 068c 91       		.byte	0x91
 4374 068d 76       		.sleb128 -10
 4375 068e 00       		.byte	0x0
 4376 068f 16       		.uleb128 0x16
 4377 0690 26020000 		.4byte	.LASF73
 4378 0694 01       		.byte	0x1
 4379 0695 4905     		.2byte	0x549
 4380 0697 01       		.byte	0x1
 4381 0698 30030000 		.4byte	0x330
 4382 069c 00000000 		.4byte	.LFB9
 4383 06a0 B2000000 		.4byte	.LFE9
 4384 06a4 50010000 		.4byte	.LLST9
 4385 06a8 E6060000 		.4byte	0x6e6
 4386 06ac 11       		.uleb128 0x11
 4387 06ad 646A00   		.ascii	"dj\000"
 4388 06b0 01       		.byte	0x1
 4389 06b1 4A05     		.2byte	0x54a
 4390 06b3 32060000 		.4byte	0x632
 4391 06b7 02       		.byte	0x2
 4392 06b8 91       		.byte	0x91
 4393 06b9 64       		.sleb128 -28
 4394 06ba 12       		.uleb128 0x12
 4395 06bb 72657300 		.ascii	"res\000"
 4396 06bf 01       		.byte	0x1
 4397 06c0 4D05     		.2byte	0x54d
 4398 06c2 30030000 		.4byte	0x330
 4399 06c6 02       		.byte	0x2
 4400 06c7 91       		.byte	0x91
 4401 06c8 77       		.sleb128 -9
 4402 06c9 12       		.uleb128 0x12
 4403 06ca 6300     		.ascii	"c\000"
 4404 06cc 01       		.byte	0x1
 4405 06cd 4E05     		.2byte	0x54e
 4406 06cf 50000000 		.4byte	0x50
 4407 06d3 02       		.byte	0x2
 4408 06d4 91       		.byte	0x91
ARM GAS  C:\Users\z80\AppData\Local\Temp\ccWqrhGE.s 			page 79


 4409 06d5 6F       		.sleb128 -17
 4410 06d6 12       		.uleb128 0x12
 4411 06d7 64697200 		.ascii	"dir\000"
 4412 06db 01       		.byte	0x1
 4413 06dc 4E05     		.2byte	0x54e
 4414 06de 9E020000 		.4byte	0x29e
 4415 06e2 02       		.byte	0x2
 4416 06e3 91       		.byte	0x91
 4417 06e4 70       		.sleb128 -16
 4418 06e5 00       		.byte	0x0
 4419 06e6 16       		.uleb128 0x16
 4420 06e7 77020000 		.4byte	.LASF74
 4421 06eb 01       		.byte	0x1
 4422 06ec 5706     		.2byte	0x657
 4423 06ee 01       		.byte	0x1
 4424 06ef 30030000 		.4byte	0x330
 4425 06f3 00000000 		.4byte	.LFB10
 4426 06f7 FA010000 		.4byte	.LFE10
 4427 06fb 7C010000 		.4byte	.LLST10
 4428 06ff 9C070000 		.4byte	0x79c
 4429 0703 11       		.uleb128 0x11
 4430 0704 646A00   		.ascii	"dj\000"
 4431 0707 01       		.byte	0x1
 4432 0708 5806     		.2byte	0x658
 4433 070a 32060000 		.4byte	0x632
 4434 070e 02       		.byte	0x2
 4435 070f 91       		.byte	0x91
 4436 0710 5C       		.sleb128 -36
 4437 0711 17       		.uleb128 0x17
 4438 0712 13030000 		.4byte	.LASF75
 4439 0716 01       		.byte	0x1
 4440 0717 5906     		.2byte	0x659
 4441 0719 9C070000 		.4byte	0x79c
 4442 071d 02       		.byte	0x2
 4443 071e 91       		.byte	0x91
 4444 071f 58       		.sleb128 -40
 4445 0720 18       		.uleb128 0x18
 4446 0721 B2010000 		.4byte	.LASF76
 4447 0725 01       		.byte	0x1
 4448 0726 5D06     		.2byte	0x65d
 4449 0728 BD070000 		.4byte	0x7bd
 4450 072c 05       		.byte	0x5
 4451 072d 03       		.byte	0x3
 4452 072e 00000000 		.4byte	excvt.1549
 4453 0732 12       		.uleb128 0x12
 4454 0733 6200     		.ascii	"b\000"
 4455 0735 01       		.byte	0x1
 4456 0736 DA06     		.2byte	0x6da
 4457 0738 50000000 		.4byte	0x50
 4458 073c 02       		.byte	0x2
 4459 073d 91       		.byte	0x91
 4460 073e 77       		.sleb128 -9
 4461 073f 12       		.uleb128 0x12
 4462 0740 6300     		.ascii	"c\000"
 4463 0742 01       		.byte	0x1
 4464 0743 DA06     		.2byte	0x6da
 4465 0745 50000000 		.4byte	0x50
ARM GAS  C:\Users\z80\AppData\Local\Temp\ccWqrhGE.s 			page 80


 4466 0749 02       		.byte	0x2
 4467 074a 91       		.byte	0x91
 4468 074b 76       		.sleb128 -10
 4469 074c 1A       		.uleb128 0x1a
 4470 074d 6400     		.ascii	"d\000"
 4471 074f 01       		.byte	0x1
 4472 0750 DA06     		.2byte	0x6da
 4473 0752 50000000 		.4byte	0x50
 4474 0756 12       		.uleb128 0x12
 4475 0757 73666E00 		.ascii	"sfn\000"
 4476 075b 01       		.byte	0x1
 4477 075c DA06     		.2byte	0x6da
 4478 075e 9E020000 		.4byte	0x29e
 4479 0762 02       		.byte	0x2
 4480 0763 91       		.byte	0x91
 4481 0764 60       		.sleb128 -32
 4482 0765 12       		.uleb128 0x12
 4483 0766 6E6900   		.ascii	"ni\000"
 4484 0769 01       		.byte	0x1
 4485 076a DB06     		.2byte	0x6db
 4486 076c 30000000 		.4byte	0x30
 4487 0770 02       		.byte	0x2
 4488 0771 91       		.byte	0x91
 4489 0772 70       		.sleb128 -16
 4490 0773 12       		.uleb128 0x12
 4491 0774 736900   		.ascii	"si\000"
 4492 0777 01       		.byte	0x1
 4493 0778 DB06     		.2byte	0x6db
 4494 077a 30000000 		.4byte	0x30
 4495 077e 02       		.byte	0x2
 4496 077f 91       		.byte	0x91
 4497 0780 6C       		.sleb128 -20
 4498 0781 12       		.uleb128 0x12
 4499 0782 6900     		.ascii	"i\000"
 4500 0784 01       		.byte	0x1
 4501 0785 DB06     		.2byte	0x6db
 4502 0787 30000000 		.4byte	0x30
 4503 078b 02       		.byte	0x2
 4504 078c 91       		.byte	0x91
 4505 078d 68       		.sleb128 -24
 4506 078e 12       		.uleb128 0x12
 4507 078f 7000     		.ascii	"p\000"
 4508 0791 01       		.byte	0x1
 4509 0792 DC06     		.2byte	0x6dc
 4510 0794 E4040000 		.4byte	0x4e4
 4511 0798 02       		.byte	0x2
 4512 0799 91       		.byte	0x91
 4513 079a 64       		.sleb128 -28
 4514 079b 00       		.byte	0x0
 4515 079c 0C       		.uleb128 0xc
 4516 079d 04       		.byte	0x4
 4517 079e A2070000 		.4byte	0x7a2
 4518 07a2 0C       		.uleb128 0xc
 4519 07a3 04       		.byte	0x4
 4520 07a4 A8070000 		.4byte	0x7a8
 4521 07a8 15       		.uleb128 0x15
 4522 07a9 8D000000 		.4byte	0x8d
ARM GAS  C:\Users\z80\AppData\Local\Temp\ccWqrhGE.s 			page 81


 4523 07ad 08       		.uleb128 0x8
 4524 07ae 50000000 		.4byte	0x50
 4525 07b2 BD070000 		.4byte	0x7bd
 4526 07b6 1B       		.uleb128 0x1b
 4527 07b7 84010000 		.4byte	0x184
 4528 07bb 7F       		.byte	0x7f
 4529 07bc 00       		.byte	0x0
 4530 07bd 15       		.uleb128 0x15
 4531 07be AD070000 		.4byte	0x7ad
 4532 07c2 16       		.uleb128 0x16
 4533 07c3 CA020000 		.4byte	.LASF77
 4534 07c7 01       		.byte	0x1
 4535 07c8 7F07     		.2byte	0x77f
 4536 07ca 01       		.byte	0x1
 4537 07cb 30030000 		.4byte	0x330
 4538 07cf 00000000 		.4byte	.LFB11
 4539 07d3 30010000 		.4byte	.LFE11
 4540 07d7 A8010000 		.4byte	.LLST11
 4541 07db 29080000 		.4byte	0x829
 4542 07df 11       		.uleb128 0x11
 4543 07e0 646A00   		.ascii	"dj\000"
 4544 07e3 01       		.byte	0x1
 4545 07e4 8007     		.2byte	0x780
 4546 07e6 32060000 		.4byte	0x632
 4547 07ea 02       		.byte	0x2
 4548 07eb 91       		.byte	0x91
 4549 07ec 6C       		.sleb128 -20
 4550 07ed 17       		.uleb128 0x17
 4551 07ee 13030000 		.4byte	.LASF75
 4552 07f2 01       		.byte	0x1
 4553 07f3 8107     		.2byte	0x781
 4554 07f5 A2070000 		.4byte	0x7a2
 4555 07f9 02       		.byte	0x2
 4556 07fa 91       		.byte	0x91
 4557 07fb 68       		.sleb128 -24
 4558 07fc 12       		.uleb128 0x12
 4559 07fd 72657300 		.ascii	"res\000"
 4560 0801 01       		.byte	0x1
 4561 0802 8407     		.2byte	0x784
 4562 0804 30030000 		.4byte	0x330
 4563 0808 02       		.byte	0x2
 4564 0809 91       		.byte	0x91
 4565 080a 77       		.sleb128 -9
 4566 080b 12       		.uleb128 0x12
 4567 080c 64697200 		.ascii	"dir\000"
 4568 0810 01       		.byte	0x1
 4569 0811 8507     		.2byte	0x785
 4570 0813 9E020000 		.4byte	0x29e
 4571 0817 02       		.byte	0x2
 4572 0818 91       		.byte	0x91
 4573 0819 70       		.sleb128 -16
 4574 081a 12       		.uleb128 0x12
 4575 081b 6E7300   		.ascii	"ns\000"
 4576 081e 01       		.byte	0x1
 4577 081f 8507     		.2byte	0x785
 4578 0821 50000000 		.4byte	0x50
 4579 0825 02       		.byte	0x2
ARM GAS  C:\Users\z80\AppData\Local\Temp\ccWqrhGE.s 			page 82


 4580 0826 91       		.byte	0x91
 4581 0827 76       		.sleb128 -10
 4582 0828 00       		.byte	0x0
 4583 0829 16       		.uleb128 0x16
 4584 082a FB010000 		.4byte	.LASF78
 4585 082e 01       		.byte	0x1
 4586 082f BE07     		.2byte	0x7be
 4587 0831 01       		.byte	0x1
 4588 0832 50000000 		.4byte	0x50
 4589 0836 00000000 		.4byte	.LFB12
 4590 083a 0A010000 		.4byte	.LFE12
 4591 083e D4010000 		.4byte	.LLST12
 4592 0842 64080000 		.4byte	0x864
 4593 0846 11       		.uleb128 0x11
 4594 0847 667300   		.ascii	"fs\000"
 4595 084a 01       		.byte	0x1
 4596 084b BF07     		.2byte	0x7bf
 4597 084d 17020000 		.4byte	0x217
 4598 0851 02       		.byte	0x2
 4599 0852 91       		.byte	0x91
 4600 0853 74       		.sleb128 -12
 4601 0854 17       		.uleb128 0x17
 4602 0855 A6000000 		.4byte	.LASF32
 4603 0859 01       		.byte	0x1
 4604 085a C007     		.2byte	0x7c0
 4605 085c 82000000 		.4byte	0x82
 4606 0860 02       		.byte	0x2
 4607 0861 91       		.byte	0x91
 4608 0862 70       		.sleb128 -16
 4609 0863 00       		.byte	0x0
 4610 0864 16       		.uleb128 0x16
 4611 0865 50000000 		.4byte	.LASF79
 4612 0869 01       		.byte	0x1
 4613 086a D807     		.2byte	0x7d8
 4614 086c 01       		.byte	0x1
 4615 086d 30030000 		.4byte	0x330
 4616 0871 00000000 		.4byte	.LFB13
 4617 0875 E6040000 		.4byte	.LFE13
 4618 0879 00020000 		.4byte	.LLST13
 4619 087d 8D090000 		.4byte	0x98d
 4620 0881 17       		.uleb128 0x17
 4621 0882 13030000 		.4byte	.LASF75
 4622 0886 01       		.byte	0x1
 4623 0887 D907     		.2byte	0x7d9
 4624 0889 9C070000 		.4byte	0x79c
 4625 088d 03       		.byte	0x3
 4626 088e 91       		.byte	0x91
 4627 088f BC7F     		.sleb128 -68
 4628 0891 11       		.uleb128 0x11
 4629 0892 72667300 		.ascii	"rfs\000"
 4630 0896 01       		.byte	0x1
 4631 0897 DA07     		.2byte	0x7da
 4632 0899 8D090000 		.4byte	0x98d
 4633 089d 03       		.byte	0x3
 4634 089e 91       		.byte	0x91
 4635 089f B87F     		.sleb128 -72
 4636 08a1 17       		.uleb128 0x17
ARM GAS  C:\Users\z80\AppData\Local\Temp\ccWqrhGE.s 			page 83


 4637 08a2 C3000000 		.4byte	.LASF80
 4638 08a6 01       		.byte	0x1
 4639 08a7 DB07     		.2byte	0x7db
 4640 08a9 50000000 		.4byte	0x50
 4641 08ad 03       		.byte	0x3
 4642 08ae 91       		.byte	0x91
 4643 08af B77F     		.sleb128 -73
 4644 08b1 12       		.uleb128 0x12
 4645 08b2 666D7400 		.ascii	"fmt\000"
 4646 08b6 01       		.byte	0x1
 4647 08b7 DE07     		.2byte	0x7de
 4648 08b9 50000000 		.4byte	0x50
 4649 08bd 02       		.byte	0x2
 4650 08be 91       		.byte	0x91
 4651 08bf 77       		.sleb128 -9
 4652 08c0 12       		.uleb128 0x12
 4653 08c1 6200     		.ascii	"b\000"
 4654 08c3 01       		.byte	0x1
 4655 08c4 DE07     		.2byte	0x7de
 4656 08c6 50000000 		.4byte	0x50
 4657 08ca 02       		.byte	0x2
 4658 08cb 91       		.byte	0x91
 4659 08cc 4F       		.sleb128 -49
 4660 08cd 12       		.uleb128 0x12
 4661 08ce 706900   		.ascii	"pi\000"
 4662 08d1 01       		.byte	0x1
 4663 08d2 DE07     		.2byte	0x7de
 4664 08d4 50000000 		.4byte	0x50
 4665 08d8 02       		.byte	0x2
 4666 08d9 91       		.byte	0x91
 4667 08da 76       		.sleb128 -10
 4668 08db 12       		.uleb128 0x12
 4669 08dc 74626C00 		.ascii	"tbl\000"
 4670 08e0 01       		.byte	0x1
 4671 08e1 DE07     		.2byte	0x7de
 4672 08e3 9E020000 		.4byte	0x29e
 4673 08e7 02       		.byte	0x2
 4674 08e8 91       		.byte	0x91
 4675 08e9 50       		.sleb128 -48
 4676 08ea 12       		.uleb128 0x12
 4677 08eb 766F6C00 		.ascii	"vol\000"
 4678 08ef 01       		.byte	0x1
 4679 08f0 DF07     		.2byte	0x7df
 4680 08f2 30000000 		.4byte	0x30
 4681 08f6 02       		.byte	0x2
 4682 08f7 91       		.byte	0x91
 4683 08f8 70       		.sleb128 -16
 4684 08f9 18       		.uleb128 0x18
 4685 08fa 4C030000 		.4byte	.LASF81
 4686 08fe 01       		.byte	0x1
 4687 08ff E007     		.2byte	0x7e0
 4688 0901 3B030000 		.4byte	0x33b
 4689 0905 02       		.byte	0x2
 4690 0906 91       		.byte	0x91
 4691 0907 57       		.sleb128 -41
 4692 0908 18       		.uleb128 0x18
 4693 0909 39010000 		.4byte	.LASF82
ARM GAS  C:\Users\z80\AppData\Local\Temp\ccWqrhGE.s 			page 84


 4694 090d 01       		.byte	0x1
 4695 090e E107     		.2byte	0x7e1
 4696 0910 82000000 		.4byte	0x82
 4697 0914 02       		.byte	0x2
 4698 0915 91       		.byte	0x91
 4699 0916 6C       		.sleb128 -20
 4700 0917 18       		.uleb128 0x18
 4701 0918 49000000 		.4byte	.LASF83
 4702 091c 01       		.byte	0x1
 4703 091d E107     		.2byte	0x7e1
 4704 091f 82000000 		.4byte	0x82
 4705 0923 02       		.byte	0x2
 4706 0924 91       		.byte	0x91
 4707 0925 68       		.sleb128 -24
 4708 0926 18       		.uleb128 0x18
 4709 0927 B8010000 		.4byte	.LASF84
 4710 092b 01       		.byte	0x1
 4711 092c E107     		.2byte	0x7e1
 4712 092e 82000000 		.4byte	0x82
 4713 0932 02       		.byte	0x2
 4714 0933 91       		.byte	0x91
 4715 0934 64       		.sleb128 -28
 4716 0935 18       		.uleb128 0x18
 4717 0936 9B030000 		.4byte	.LASF85
 4718 093a 01       		.byte	0x1
 4719 093b E107     		.2byte	0x7e1
 4720 093d 82000000 		.4byte	0x82
 4721 0941 02       		.byte	0x2
 4722 0942 91       		.byte	0x91
 4723 0943 48       		.sleb128 -56
 4724 0944 18       		.uleb128 0x18
 4725 0945 63030000 		.4byte	.LASF86
 4726 0949 01       		.byte	0x1
 4727 094a E107     		.2byte	0x7e1
 4728 094c 82000000 		.4byte	0x82
 4729 0950 02       		.byte	0x2
 4730 0951 91       		.byte	0x91
 4731 0952 44       		.sleb128 -60
 4732 0953 18       		.uleb128 0x18
 4733 0954 E6000000 		.4byte	.LASF87
 4734 0958 01       		.byte	0x1
 4735 0959 E107     		.2byte	0x7e1
 4736 095b 82000000 		.4byte	0x82
 4737 095f 02       		.byte	0x2
 4738 0960 91       		.byte	0x91
 4739 0961 60       		.sleb128 -32
 4740 0962 18       		.uleb128 0x18
 4741 0963 8E000000 		.4byte	.LASF88
 4742 0967 01       		.byte	0x1
 4743 0968 E207     		.2byte	0x7e2
 4744 096a 69000000 		.4byte	0x69
 4745 096e 02       		.byte	0x2
 4746 096f 91       		.byte	0x91
 4747 0970 4C       		.sleb128 -52
 4748 0971 12       		.uleb128 0x12
 4749 0972 7000     		.ascii	"p\000"
 4750 0974 01       		.byte	0x1
ARM GAS  C:\Users\z80\AppData\Local\Temp\ccWqrhGE.s 			page 85


 4751 0975 E307     		.2byte	0x7e3
 4752 0977 A2070000 		.4byte	0x7a2
 4753 097b 02       		.byte	0x2
 4754 097c 91       		.byte	0x91
 4755 097d 5C       		.sleb128 -36
 4756 097e 12       		.uleb128 0x12
 4757 097f 667300   		.ascii	"fs\000"
 4758 0982 01       		.byte	0x1
 4759 0983 E407     		.2byte	0x7e4
 4760 0985 17020000 		.4byte	0x217
 4761 0989 02       		.byte	0x2
 4762 098a 91       		.byte	0x91
 4763 098b 58       		.sleb128 -40
 4764 098c 00       		.byte	0x0
 4765 098d 0C       		.uleb128 0xc
 4766 098e 04       		.byte	0x4
 4767 098f 17020000 		.4byte	0x217
 4768 0993 16       		.uleb128 0x16
 4769 0994 4F010000 		.4byte	.LASF89
 4770 0998 01       		.byte	0x1
 4771 0999 7C08     		.2byte	0x87c
 4772 099b 01       		.byte	0x1
 4773 099c 30030000 		.4byte	0x330
 4774 09a0 00000000 		.4byte	.LFB14
 4775 09a4 52000000 		.4byte	.LFE14
 4776 09a8 2D020000 		.4byte	.LLST14
 4777 09ac CD090000 		.4byte	0x9cd
 4778 09b0 11       		.uleb128 0x11
 4779 09b1 667300   		.ascii	"fs\000"
 4780 09b4 01       		.byte	0x1
 4781 09b5 7D08     		.2byte	0x87d
 4782 09b7 17020000 		.4byte	0x217
 4783 09bb 02       		.byte	0x2
 4784 09bc 91       		.byte	0x91
 4785 09bd 74       		.sleb128 -12
 4786 09be 11       		.uleb128 0x11
 4787 09bf 696400   		.ascii	"id\000"
 4788 09c2 01       		.byte	0x1
 4789 09c3 7E08     		.2byte	0x87e
 4790 09c5 69000000 		.4byte	0x69
 4791 09c9 02       		.byte	0x2
 4792 09ca 91       		.byte	0x91
 4793 09cb 72       		.sleb128 -14
 4794 09cc 00       		.byte	0x0
 4795 09cd 19       		.uleb128 0x19
 4796 09ce 01       		.byte	0x1
 4797 09cf 93010000 		.4byte	.LASF90
 4798 09d3 01       		.byte	0x1
 4799 09d4 9B08     		.2byte	0x89b
 4800 09d6 01       		.byte	0x1
 4801 09d7 30030000 		.4byte	0x330
 4802 09db 00000000 		.4byte	.LFB15
 4803 09df 62000000 		.4byte	.LFE15
 4804 09e3 59020000 		.4byte	.LLST15
 4805 09e7 180A0000 		.4byte	0xa18
 4806 09eb 11       		.uleb128 0x11
 4807 09ec 766F6C00 		.ascii	"vol\000"
ARM GAS  C:\Users\z80\AppData\Local\Temp\ccWqrhGE.s 			page 86


 4808 09f0 01       		.byte	0x1
 4809 09f1 9C08     		.2byte	0x89c
 4810 09f3 50000000 		.4byte	0x50
 4811 09f7 02       		.byte	0x2
 4812 09f8 91       		.byte	0x91
 4813 09f9 77       		.sleb128 -9
 4814 09fa 11       		.uleb128 0x11
 4815 09fb 667300   		.ascii	"fs\000"
 4816 09fe 01       		.byte	0x1
 4817 09ff 9D08     		.2byte	0x89d
 4818 0a01 17020000 		.4byte	0x217
 4819 0a05 02       		.byte	0x2
 4820 0a06 91       		.byte	0x91
 4821 0a07 70       		.sleb128 -16
 4822 0a08 12       		.uleb128 0x12
 4823 0a09 72667300 		.ascii	"rfs\000"
 4824 0a0d 01       		.byte	0x1
 4825 0a0e A008     		.2byte	0x8a0
 4826 0a10 17020000 		.4byte	0x217
 4827 0a14 02       		.byte	0x2
 4828 0a15 91       		.byte	0x91
 4829 0a16 7C       		.sleb128 -4
 4830 0a17 00       		.byte	0x0
 4831 0a18 19       		.uleb128 0x19
 4832 0a19 01       		.byte	0x1
 4833 0a1a BE010000 		.4byte	.LASF91
 4834 0a1e 01       		.byte	0x1
 4835 0a1f C308     		.2byte	0x8c3
 4836 0a21 01       		.byte	0x1
 4837 0a22 30030000 		.4byte	0x330
 4838 0a26 00000000 		.4byte	.LFB16
 4839 0a2a 46010000 		.4byte	.LFE16
 4840 0a2e 79020000 		.4byte	.LLST16
 4841 0a32 9F0A0000 		.4byte	0xa9f
 4842 0a36 11       		.uleb128 0x11
 4843 0a37 667000   		.ascii	"fp\000"
 4844 0a3a 01       		.byte	0x1
 4845 0a3b C408     		.2byte	0x8c4
 4846 0a3d 9F0A0000 		.4byte	0xa9f
 4847 0a41 02       		.byte	0x2
 4848 0a42 91       		.byte	0x91
 4849 0a43 44       		.sleb128 -60
 4850 0a44 17       		.uleb128 0x17
 4851 0a45 13030000 		.4byte	.LASF75
 4852 0a49 01       		.byte	0x1
 4853 0a4a C508     		.2byte	0x8c5
 4854 0a4c A2070000 		.4byte	0x7a2
 4855 0a50 02       		.byte	0x2
 4856 0a51 91       		.byte	0x91
 4857 0a52 40       		.sleb128 -64
 4858 0a53 17       		.uleb128 0x17
 4859 0a54 72020000 		.4byte	.LASF92
 4860 0a58 01       		.byte	0x1
 4861 0a59 C608     		.2byte	0x8c6
 4862 0a5b 50000000 		.4byte	0x50
 4863 0a5f 03       		.byte	0x3
 4864 0a60 91       		.byte	0x91
ARM GAS  C:\Users\z80\AppData\Local\Temp\ccWqrhGE.s 			page 87


 4865 0a61 BF7F     		.sleb128 -65
 4866 0a63 12       		.uleb128 0x12
 4867 0a64 72657300 		.ascii	"res\000"
 4868 0a68 01       		.byte	0x1
 4869 0a69 C908     		.2byte	0x8c9
 4870 0a6b 30030000 		.4byte	0x330
 4871 0a6f 02       		.byte	0x2
 4872 0a70 91       		.byte	0x91
 4873 0a71 77       		.sleb128 -9
 4874 0a72 12       		.uleb128 0x12
 4875 0a73 646A00   		.ascii	"dj\000"
 4876 0a76 01       		.byte	0x1
 4877 0a77 CA08     		.2byte	0x8ca
 4878 0a79 A4020000 		.4byte	0x2a4
 4879 0a7d 02       		.byte	0x2
 4880 0a7e 91       		.byte	0x91
 4881 0a7f 54       		.sleb128 -44
 4882 0a80 12       		.uleb128 0x12
 4883 0a81 64697200 		.ascii	"dir\000"
 4884 0a85 01       		.byte	0x1
 4885 0a86 CB08     		.2byte	0x8cb
 4886 0a88 9E020000 		.4byte	0x29e
 4887 0a8c 02       		.byte	0x2
 4888 0a8d 91       		.byte	0x91
 4889 0a8e 70       		.sleb128 -16
 4890 0a8f 12       		.uleb128 0x12
 4891 0a90 73666E00 		.ascii	"sfn\000"
 4892 0a94 01       		.byte	0x1
 4893 0a95 CC08     		.2byte	0x8cc
 4894 0a97 A50A0000 		.4byte	0xaa5
 4895 0a9b 02       		.byte	0x2
 4896 0a9c 91       		.byte	0x91
 4897 0a9d 48       		.sleb128 -56
 4898 0a9e 00       		.byte	0x0
 4899 0a9f 0C       		.uleb128 0xc
 4900 0aa0 04       		.byte	0x4
 4901 0aa1 1D020000 		.4byte	0x21d
 4902 0aa5 08       		.uleb128 0x8
 4903 0aa6 50000000 		.4byte	0x50
 4904 0aaa B50A0000 		.4byte	0xab5
 4905 0aae 1B       		.uleb128 0x1b
 4906 0aaf 84010000 		.4byte	0x184
 4907 0ab3 0B       		.byte	0xb
 4908 0ab4 00       		.byte	0x0
 4909 0ab5 19       		.uleb128 0x19
 4910 0ab6 01       		.byte	0x1
 4911 0ab7 19020000 		.4byte	.LASF93
 4912 0abb 01       		.byte	0x1
 4913 0abc 4509     		.2byte	0x945
 4914 0abe 01       		.byte	0x1
 4915 0abf 30030000 		.4byte	0x330
 4916 0ac3 00000000 		.4byte	.LFB17
 4917 0ac7 62020000 		.4byte	.LFE17
 4918 0acb A6020000 		.4byte	.LLST17
 4919 0acf 850B0000 		.4byte	0xb85
 4920 0ad3 11       		.uleb128 0x11
 4921 0ad4 667000   		.ascii	"fp\000"
ARM GAS  C:\Users\z80\AppData\Local\Temp\ccWqrhGE.s 			page 88


 4922 0ad7 01       		.byte	0x1
 4923 0ad8 4609     		.2byte	0x946
 4924 0ada 9F0A0000 		.4byte	0xa9f
 4925 0ade 02       		.byte	0x2
 4926 0adf 91       		.byte	0x91
 4927 0ae0 54       		.sleb128 -44
 4928 0ae1 17       		.uleb128 0x17
 4929 0ae2 93000000 		.4byte	.LASF94
 4930 0ae6 01       		.byte	0x1
 4931 0ae7 4709     		.2byte	0x947
 4932 0ae9 CE030000 		.4byte	0x3ce
 4933 0aed 02       		.byte	0x2
 4934 0aee 91       		.byte	0x91
 4935 0aef 50       		.sleb128 -48
 4936 0af0 11       		.uleb128 0x11
 4937 0af1 62747200 		.ascii	"btr\000"
 4938 0af5 01       		.byte	0x1
 4939 0af6 4809     		.2byte	0x948
 4940 0af8 30000000 		.4byte	0x30
 4941 0afc 02       		.byte	0x2
 4942 0afd 91       		.byte	0x91
 4943 0afe 4C       		.sleb128 -52
 4944 0aff 11       		.uleb128 0x11
 4945 0b00 627200   		.ascii	"br\000"
 4946 0b03 01       		.byte	0x1
 4947 0b04 4909     		.2byte	0x949
 4948 0b06 850B0000 		.4byte	0xb85
 4949 0b0a 02       		.byte	0x2
 4950 0b0b 91       		.byte	0x91
 4951 0b0c 48       		.sleb128 -56
 4952 0b0d 12       		.uleb128 0x12
 4953 0b0e 72657300 		.ascii	"res\000"
 4954 0b12 01       		.byte	0x1
 4955 0b13 4C09     		.2byte	0x94c
 4956 0b15 30030000 		.4byte	0x330
 4957 0b19 02       		.byte	0x2
 4958 0b1a 91       		.byte	0x91
 4959 0b1b 67       		.sleb128 -25
 4960 0b1c 18       		.uleb128 0x18
 4961 0b1d DA030000 		.4byte	.LASF67
 4962 0b21 01       		.byte	0x1
 4963 0b22 4D09     		.2byte	0x94d
 4964 0b24 82000000 		.4byte	0x82
 4965 0b28 02       		.byte	0x2
 4966 0b29 91       		.byte	0x91
 4967 0b2a 74       		.sleb128 -12
 4968 0b2b 18       		.uleb128 0x18
 4969 0b2c A6000000 		.4byte	.LASF32
 4970 0b30 01       		.byte	0x1
 4971 0b31 4D09     		.2byte	0x94d
 4972 0b33 82000000 		.4byte	0x82
 4973 0b37 02       		.byte	0x2
 4974 0b38 91       		.byte	0x91
 4975 0b39 58       		.sleb128 -40
 4976 0b3a 18       		.uleb128 0x18
 4977 0b3b 79030000 		.4byte	.LASF95
 4978 0b3f 01       		.byte	0x1
ARM GAS  C:\Users\z80\AppData\Local\Temp\ccWqrhGE.s 			page 89


 4979 0b40 4D09     		.2byte	0x94d
 4980 0b42 82000000 		.4byte	0x82
 4981 0b46 02       		.byte	0x2
 4982 0b47 91       		.byte	0x91
 4983 0b48 60       		.sleb128 -32
 4984 0b49 18       		.uleb128 0x18
 4985 0b4a 5C000000 		.4byte	.LASF96
 4986 0b4e 01       		.byte	0x1
 4987 0b4f 4E09     		.2byte	0x94e
 4988 0b51 30000000 		.4byte	0x30
 4989 0b55 02       		.byte	0x2
 4990 0b56 91       		.byte	0x91
 4991 0b57 70       		.sleb128 -16
 4992 0b58 12       		.uleb128 0x12
 4993 0b59 636300   		.ascii	"cc\000"
 4994 0b5c 01       		.byte	0x1
 4995 0b5d 4E09     		.2byte	0x94e
 4996 0b5f 30000000 		.4byte	0x30
 4997 0b63 02       		.byte	0x2
 4998 0b64 91       		.byte	0x91
 4999 0b65 6C       		.sleb128 -20
 5000 0b66 18       		.uleb128 0x18
 5001 0b67 C4020000 		.4byte	.LASF97
 5002 0b6b 01       		.byte	0x1
 5003 0b6c 4F09     		.2byte	0x94f
 5004 0b6e 50000000 		.4byte	0x50
 5005 0b72 02       		.byte	0x2
 5006 0b73 91       		.byte	0x91
 5007 0b74 5F       		.sleb128 -33
 5008 0b75 18       		.uleb128 0x18
 5009 0b76 0D000000 		.4byte	.LASF98
 5010 0b7a 01       		.byte	0x1
 5011 0b7b 4F09     		.2byte	0x94f
 5012 0b7d 9E020000 		.4byte	0x29e
 5013 0b81 02       		.byte	0x2
 5014 0b82 91       		.byte	0x91
 5015 0b83 68       		.sleb128 -24
 5016 0b84 00       		.byte	0x0
 5017 0b85 0C       		.uleb128 0xc
 5018 0b86 04       		.byte	0x4
 5019 0b87 30000000 		.4byte	0x30
 5020 0b8b 19       		.uleb128 0x19
 5021 0b8c 01       		.byte	0x1
 5022 0b8d 26030000 		.4byte	.LASF99
 5023 0b91 01       		.byte	0x1
 5024 0b92 500A     		.2byte	0xa50
 5025 0b94 01       		.byte	0x1
 5026 0b95 30030000 		.4byte	0x330
 5027 0b99 00000000 		.4byte	.LFB18
 5028 0b9d 38000000 		.4byte	.LFE18
 5029 0ba1 D2020000 		.4byte	.LLST18
 5030 0ba5 D50B0000 		.4byte	0xbd5
 5031 0ba9 11       		.uleb128 0x11
 5032 0baa 667000   		.ascii	"fp\000"
 5033 0bad 01       		.byte	0x1
 5034 0bae 510A     		.2byte	0xa51
 5035 0bb0 9F0A0000 		.4byte	0xa9f
ARM GAS  C:\Users\z80\AppData\Local\Temp\ccWqrhGE.s 			page 90


 5036 0bb4 02       		.byte	0x2
 5037 0bb5 91       		.byte	0x91
 5038 0bb6 6C       		.sleb128 -20
 5039 0bb7 12       		.uleb128 0x12
 5040 0bb8 72657300 		.ascii	"res\000"
 5041 0bbc 01       		.byte	0x1
 5042 0bbd 540A     		.2byte	0xa54
 5043 0bbf 30030000 		.4byte	0x330
 5044 0bc3 02       		.byte	0x2
 5045 0bc4 91       		.byte	0x91
 5046 0bc5 73       		.sleb128 -13
 5047 0bc6 12       		.uleb128 0x12
 5048 0bc7 667300   		.ascii	"fs\000"
 5049 0bca 01       		.byte	0x1
 5050 0bcb 570A     		.2byte	0xa57
 5051 0bcd 17020000 		.4byte	0x217
 5052 0bd1 02       		.byte	0x2
 5053 0bd2 91       		.byte	0x91
 5054 0bd3 74       		.sleb128 -12
 5055 0bd4 00       		.byte	0x0
 5056 0bd5 19       		.uleb128 0x19
 5057 0bd6 01       		.byte	0x1
 5058 0bd7 1F030000 		.4byte	.LASF100
 5059 0bdb 01       		.byte	0x1
 5060 0bdc 180F     		.2byte	0xf18
 5061 0bde 01       		.byte	0x1
 5062 0bdf 630C0000 		.4byte	0xc63
 5063 0be3 00000000 		.4byte	.LFB19
 5064 0be7 84000000 		.4byte	.LFE19
 5065 0beb FE020000 		.4byte	.LLST19
 5066 0bef 630C0000 		.4byte	0xc63
 5067 0bf3 17       		.uleb128 0x17
 5068 0bf4 93000000 		.4byte	.LASF94
 5069 0bf8 01       		.byte	0x1
 5070 0bf9 190F     		.2byte	0xf19
 5071 0bfb 630C0000 		.4byte	0xc63
 5072 0bff 02       		.byte	0x2
 5073 0c00 91       		.byte	0x91
 5074 0c01 64       		.sleb128 -28
 5075 0c02 11       		.uleb128 0x11
 5076 0c03 6C656E00 		.ascii	"len\000"
 5077 0c07 01       		.byte	0x1
 5078 0c08 1A0F     		.2byte	0xf1a
 5079 0c0a 29000000 		.4byte	0x29
 5080 0c0e 02       		.byte	0x2
 5081 0c0f 91       		.byte	0x91
 5082 0c10 60       		.sleb128 -32
 5083 0c11 11       		.uleb128 0x11
 5084 0c12 66696C00 		.ascii	"fil\000"
 5085 0c16 01       		.byte	0x1
 5086 0c17 1B0F     		.2byte	0xf1b
 5087 0c19 9F0A0000 		.4byte	0xa9f
 5088 0c1d 02       		.byte	0x2
 5089 0c1e 91       		.byte	0x91
 5090 0c1f 5C       		.sleb128 -36
 5091 0c20 12       		.uleb128 0x12
 5092 0c21 6E00     		.ascii	"n\000"
ARM GAS  C:\Users\z80\AppData\Local\Temp\ccWqrhGE.s 			page 91


 5093 0c23 01       		.byte	0x1
 5094 0c24 1E0F     		.2byte	0xf1e
 5095 0c26 29000000 		.4byte	0x29
 5096 0c2a 02       		.byte	0x2
 5097 0c2b 91       		.byte	0x91
 5098 0c2c 74       		.sleb128 -12
 5099 0c2d 12       		.uleb128 0x12
 5100 0c2e 6300     		.ascii	"c\000"
 5101 0c30 01       		.byte	0x1
 5102 0c31 1F0F     		.2byte	0xf1f
 5103 0c33 8D000000 		.4byte	0x8d
 5104 0c37 02       		.byte	0x2
 5105 0c38 91       		.byte	0x91
 5106 0c39 6F       		.sleb128 -17
 5107 0c3a 12       		.uleb128 0x12
 5108 0c3b 7000     		.ascii	"p\000"
 5109 0c3d 01       		.byte	0x1
 5110 0c3e 1F0F     		.2byte	0xf1f
 5111 0c40 630C0000 		.4byte	0xc63
 5112 0c44 02       		.byte	0x2
 5113 0c45 91       		.byte	0x91
 5114 0c46 70       		.sleb128 -16
 5115 0c47 12       		.uleb128 0x12
 5116 0c48 7300     		.ascii	"s\000"
 5117 0c4a 01       		.byte	0x1
 5118 0c4b 200F     		.2byte	0xf20
 5119 0c4d 690C0000 		.4byte	0xc69
 5120 0c51 02       		.byte	0x2
 5121 0c52 91       		.byte	0x91
 5122 0c53 6C       		.sleb128 -20
 5123 0c54 12       		.uleb128 0x12
 5124 0c55 726300   		.ascii	"rc\000"
 5125 0c58 01       		.byte	0x1
 5126 0c59 210F     		.2byte	0xf21
 5127 0c5b 30000000 		.4byte	0x30
 5128 0c5f 02       		.byte	0x2
 5129 0c60 91       		.byte	0x91
 5130 0c61 68       		.sleb128 -24
 5131 0c62 00       		.byte	0x0
 5132 0c63 0C       		.uleb128 0xc
 5133 0c64 04       		.byte	0x4
 5134 0c65 8D000000 		.4byte	0x8d
 5135 0c69 08       		.uleb128 0x8
 5136 0c6a 50000000 		.4byte	0x50
 5137 0c6e 790C0000 		.4byte	0xc79
 5138 0c72 1B       		.uleb128 0x1b
 5139 0c73 84010000 		.4byte	0x184
 5140 0c77 01       		.byte	0x1
 5141 0c78 00       		.byte	0x0
 5142 0c79 08       		.uleb128 0x8
 5143 0c7a 17020000 		.4byte	0x217
 5144 0c7e 890C0000 		.4byte	0xc89
 5145 0c82 1B       		.uleb128 0x1b
 5146 0c83 84010000 		.4byte	0x184
 5147 0c87 00       		.byte	0x0
 5148 0c88 00       		.byte	0x0
 5149 0c89 18       		.uleb128 0x18
ARM GAS  C:\Users\z80\AppData\Local\Temp\ccWqrhGE.s 			page 92


 5150 0c8a 20020000 		.4byte	.LASF101
 5151 0c8e 01       		.byte	0x1
 5152 0c8f D401     		.2byte	0x1d4
 5153 0c91 790C0000 		.4byte	0xc79
 5154 0c95 05       		.byte	0x5
 5155 0c96 03       		.byte	0x3
 5156 0c97 00000000 		.4byte	FatFs
 5157 0c9b 18       		.uleb128 0x18
 5158 0c9c 69030000 		.4byte	.LASF102
 5159 0ca0 01       		.byte	0x1
 5160 0ca1 DA01     		.2byte	0x1da
 5161 0ca3 69000000 		.4byte	0x69
 5162 0ca7 05       		.byte	0x5
 5163 0ca8 03       		.byte	0x3
 5164 0ca9 00000000 		.4byte	Fsid
 5165 0cad 00       		.byte	0x0
 5166              		.section	.debug_abbrev
 5167 0000 01       		.uleb128 0x1
 5168 0001 11       		.uleb128 0x11
 5169 0002 01       		.byte	0x1
 5170 0003 25       		.uleb128 0x25
 5171 0004 0E       		.uleb128 0xe
 5172 0005 13       		.uleb128 0x13
 5173 0006 0B       		.uleb128 0xb
 5174 0007 03       		.uleb128 0x3
 5175 0008 0E       		.uleb128 0xe
 5176 0009 1B       		.uleb128 0x1b
 5177 000a 0E       		.uleb128 0xe
 5178 000b 11       		.uleb128 0x11
 5179 000c 01       		.uleb128 0x1
 5180 000d 52       		.uleb128 0x52
 5181 000e 01       		.uleb128 0x1
 5182 000f 55       		.uleb128 0x55
 5183 0010 06       		.uleb128 0x6
 5184 0011 10       		.uleb128 0x10
 5185 0012 06       		.uleb128 0x6
 5186 0013 00       		.byte	0x0
 5187 0014 00       		.byte	0x0
 5188 0015 02       		.uleb128 0x2
 5189 0016 24       		.uleb128 0x24
 5190 0017 00       		.byte	0x0
 5191 0018 0B       		.uleb128 0xb
 5192 0019 0B       		.uleb128 0xb
 5193 001a 3E       		.uleb128 0x3e
 5194 001b 0B       		.uleb128 0xb
 5195 001c 03       		.uleb128 0x3
 5196 001d 08       		.uleb128 0x8
 5197 001e 00       		.byte	0x0
 5198 001f 00       		.byte	0x0
 5199 0020 03       		.uleb128 0x3
 5200 0021 16       		.uleb128 0x16
 5201 0022 00       		.byte	0x0
 5202 0023 03       		.uleb128 0x3
 5203 0024 0E       		.uleb128 0xe
 5204 0025 3A       		.uleb128 0x3a
 5205 0026 0B       		.uleb128 0xb
 5206 0027 3B       		.uleb128 0x3b
ARM GAS  C:\Users\z80\AppData\Local\Temp\ccWqrhGE.s 			page 93


 5207 0028 0B       		.uleb128 0xb
 5208 0029 49       		.uleb128 0x49
 5209 002a 13       		.uleb128 0x13
 5210 002b 00       		.byte	0x0
 5211 002c 00       		.byte	0x0
 5212 002d 04       		.uleb128 0x4
 5213 002e 24       		.uleb128 0x24
 5214 002f 00       		.byte	0x0
 5215 0030 0B       		.uleb128 0xb
 5216 0031 0B       		.uleb128 0xb
 5217 0032 3E       		.uleb128 0x3e
 5218 0033 0B       		.uleb128 0xb
 5219 0034 03       		.uleb128 0x3
 5220 0035 0E       		.uleb128 0xe
 5221 0036 00       		.byte	0x0
 5222 0037 00       		.byte	0x0
 5223 0038 05       		.uleb128 0x5
 5224 0039 13       		.uleb128 0x13
 5225 003a 01       		.byte	0x1
 5226 003b 0B       		.uleb128 0xb
 5227 003c 05       		.uleb128 0x5
 5228 003d 3A       		.uleb128 0x3a
 5229 003e 0B       		.uleb128 0xb
 5230 003f 3B       		.uleb128 0x3b
 5231 0040 0B       		.uleb128 0xb
 5232 0041 01       		.uleb128 0x1
 5233 0042 13       		.uleb128 0x13
 5234 0043 00       		.byte	0x0
 5235 0044 00       		.byte	0x0
 5236 0045 06       		.uleb128 0x6
 5237 0046 0D       		.uleb128 0xd
 5238 0047 00       		.byte	0x0
 5239 0048 03       		.uleb128 0x3
 5240 0049 0E       		.uleb128 0xe
 5241 004a 3A       		.uleb128 0x3a
 5242 004b 0B       		.uleb128 0xb
 5243 004c 3B       		.uleb128 0x3b
 5244 004d 0B       		.uleb128 0xb
 5245 004e 49       		.uleb128 0x49
 5246 004f 13       		.uleb128 0x13
 5247 0050 38       		.uleb128 0x38
 5248 0051 0A       		.uleb128 0xa
 5249 0052 00       		.byte	0x0
 5250 0053 00       		.byte	0x0
 5251 0054 07       		.uleb128 0x7
 5252 0055 0D       		.uleb128 0xd
 5253 0056 00       		.byte	0x0
 5254 0057 03       		.uleb128 0x3
 5255 0058 08       		.uleb128 0x8
 5256 0059 3A       		.uleb128 0x3a
 5257 005a 0B       		.uleb128 0xb
 5258 005b 3B       		.uleb128 0x3b
 5259 005c 0B       		.uleb128 0xb
 5260 005d 49       		.uleb128 0x49
 5261 005e 13       		.uleb128 0x13
 5262 005f 38       		.uleb128 0x38
 5263 0060 0A       		.uleb128 0xa
ARM GAS  C:\Users\z80\AppData\Local\Temp\ccWqrhGE.s 			page 94


 5264 0061 00       		.byte	0x0
 5265 0062 00       		.byte	0x0
 5266 0063 08       		.uleb128 0x8
 5267 0064 01       		.uleb128 0x1
 5268 0065 01       		.byte	0x1
 5269 0066 49       		.uleb128 0x49
 5270 0067 13       		.uleb128 0x13
 5271 0068 01       		.uleb128 0x1
 5272 0069 13       		.uleb128 0x13
 5273 006a 00       		.byte	0x0
 5274 006b 00       		.byte	0x0
 5275 006c 09       		.uleb128 0x9
 5276 006d 21       		.uleb128 0x21
 5277 006e 00       		.byte	0x0
 5278 006f 49       		.uleb128 0x49
 5279 0070 13       		.uleb128 0x13
 5280 0071 2F       		.uleb128 0x2f
 5281 0072 05       		.uleb128 0x5
 5282 0073 00       		.byte	0x0
 5283 0074 00       		.byte	0x0
 5284 0075 0A       		.uleb128 0xa
 5285 0076 24       		.uleb128 0x24
 5286 0077 00       		.byte	0x0
 5287 0078 0B       		.uleb128 0xb
 5288 0079 0B       		.uleb128 0xb
 5289 007a 3E       		.uleb128 0x3e
 5290 007b 0B       		.uleb128 0xb
 5291 007c 00       		.byte	0x0
 5292 007d 00       		.byte	0x0
 5293 007e 0B       		.uleb128 0xb
 5294 007f 13       		.uleb128 0x13
 5295 0080 01       		.byte	0x1
 5296 0081 0B       		.uleb128 0xb
 5297 0082 0B       		.uleb128 0xb
 5298 0083 3A       		.uleb128 0x3a
 5299 0084 0B       		.uleb128 0xb
 5300 0085 3B       		.uleb128 0x3b
 5301 0086 0B       		.uleb128 0xb
 5302 0087 01       		.uleb128 0x1
 5303 0088 13       		.uleb128 0x13
 5304 0089 00       		.byte	0x0
 5305 008a 00       		.byte	0x0
 5306 008b 0C       		.uleb128 0xc
 5307 008c 0F       		.uleb128 0xf
 5308 008d 00       		.byte	0x0
 5309 008e 0B       		.uleb128 0xb
 5310 008f 0B       		.uleb128 0xb
 5311 0090 49       		.uleb128 0x49
 5312 0091 13       		.uleb128 0x13
 5313 0092 00       		.byte	0x0
 5314 0093 00       		.byte	0x0
 5315 0094 0D       		.uleb128 0xd
 5316 0095 16       		.uleb128 0x16
 5317 0096 00       		.byte	0x0
 5318 0097 03       		.uleb128 0x3
 5319 0098 08       		.uleb128 0x8
 5320 0099 3A       		.uleb128 0x3a
ARM GAS  C:\Users\z80\AppData\Local\Temp\ccWqrhGE.s 			page 95


 5321 009a 0B       		.uleb128 0xb
 5322 009b 3B       		.uleb128 0x3b
 5323 009c 0B       		.uleb128 0xb
 5324 009d 49       		.uleb128 0x49
 5325 009e 13       		.uleb128 0x13
 5326 009f 00       		.byte	0x0
 5327 00a0 00       		.byte	0x0
 5328 00a1 0E       		.uleb128 0xe
 5329 00a2 04       		.uleb128 0x4
 5330 00a3 01       		.byte	0x1
 5331 00a4 0B       		.uleb128 0xb
 5332 00a5 0B       		.uleb128 0xb
 5333 00a6 3A       		.uleb128 0x3a
 5334 00a7 0B       		.uleb128 0xb
 5335 00a8 3B       		.uleb128 0x3b
 5336 00a9 0B       		.uleb128 0xb
 5337 00aa 01       		.uleb128 0x1
 5338 00ab 13       		.uleb128 0x13
 5339 00ac 00       		.byte	0x0
 5340 00ad 00       		.byte	0x0
 5341 00ae 0F       		.uleb128 0xf
 5342 00af 28       		.uleb128 0x28
 5343 00b0 00       		.byte	0x0
 5344 00b1 03       		.uleb128 0x3
 5345 00b2 0E       		.uleb128 0xe
 5346 00b3 1C       		.uleb128 0x1c
 5347 00b4 0D       		.uleb128 0xd
 5348 00b5 00       		.byte	0x0
 5349 00b6 00       		.byte	0x0
 5350 00b7 10       		.uleb128 0x10
 5351 00b8 2E       		.uleb128 0x2e
 5352 00b9 01       		.byte	0x1
 5353 00ba 03       		.uleb128 0x3
 5354 00bb 0E       		.uleb128 0xe
 5355 00bc 3A       		.uleb128 0x3a
 5356 00bd 0B       		.uleb128 0xb
 5357 00be 3B       		.uleb128 0x3b
 5358 00bf 05       		.uleb128 0x5
 5359 00c0 27       		.uleb128 0x27
 5360 00c1 0C       		.uleb128 0xc
 5361 00c2 11       		.uleb128 0x11
 5362 00c3 01       		.uleb128 0x1
 5363 00c4 12       		.uleb128 0x12
 5364 00c5 01       		.uleb128 0x1
 5365 00c6 40       		.uleb128 0x40
 5366 00c7 06       		.uleb128 0x6
 5367 00c8 01       		.uleb128 0x1
 5368 00c9 13       		.uleb128 0x13
 5369 00ca 00       		.byte	0x0
 5370 00cb 00       		.byte	0x0
 5371 00cc 11       		.uleb128 0x11
 5372 00cd 05       		.uleb128 0x5
 5373 00ce 00       		.byte	0x0
 5374 00cf 03       		.uleb128 0x3
 5375 00d0 08       		.uleb128 0x8
 5376 00d1 3A       		.uleb128 0x3a
 5377 00d2 0B       		.uleb128 0xb
ARM GAS  C:\Users\z80\AppData\Local\Temp\ccWqrhGE.s 			page 96


 5378 00d3 3B       		.uleb128 0x3b
 5379 00d4 05       		.uleb128 0x5
 5380 00d5 49       		.uleb128 0x49
 5381 00d6 13       		.uleb128 0x13
 5382 00d7 02       		.uleb128 0x2
 5383 00d8 0A       		.uleb128 0xa
 5384 00d9 00       		.byte	0x0
 5385 00da 00       		.byte	0x0
 5386 00db 12       		.uleb128 0x12
 5387 00dc 34       		.uleb128 0x34
 5388 00dd 00       		.byte	0x0
 5389 00de 03       		.uleb128 0x3
 5390 00df 08       		.uleb128 0x8
 5391 00e0 3A       		.uleb128 0x3a
 5392 00e1 0B       		.uleb128 0xb
 5393 00e2 3B       		.uleb128 0x3b
 5394 00e3 05       		.uleb128 0x5
 5395 00e4 49       		.uleb128 0x49
 5396 00e5 13       		.uleb128 0x13
 5397 00e6 02       		.uleb128 0x2
 5398 00e7 0A       		.uleb128 0xa
 5399 00e8 00       		.byte	0x0
 5400 00e9 00       		.byte	0x0
 5401 00ea 13       		.uleb128 0x13
 5402 00eb 0F       		.uleb128 0xf
 5403 00ec 00       		.byte	0x0
 5404 00ed 0B       		.uleb128 0xb
 5405 00ee 0B       		.uleb128 0xb
 5406 00ef 00       		.byte	0x0
 5407 00f0 00       		.byte	0x0
 5408 00f1 14       		.uleb128 0x14
 5409 00f2 26       		.uleb128 0x26
 5410 00f3 00       		.byte	0x0
 5411 00f4 00       		.byte	0x0
 5412 00f5 00       		.byte	0x0
 5413 00f6 15       		.uleb128 0x15
 5414 00f7 26       		.uleb128 0x26
 5415 00f8 00       		.byte	0x0
 5416 00f9 49       		.uleb128 0x49
 5417 00fa 13       		.uleb128 0x13
 5418 00fb 00       		.byte	0x0
 5419 00fc 00       		.byte	0x0
 5420 00fd 16       		.uleb128 0x16
 5421 00fe 2E       		.uleb128 0x2e
 5422 00ff 01       		.byte	0x1
 5423 0100 03       		.uleb128 0x3
 5424 0101 0E       		.uleb128 0xe
 5425 0102 3A       		.uleb128 0x3a
 5426 0103 0B       		.uleb128 0xb
 5427 0104 3B       		.uleb128 0x3b
 5428 0105 05       		.uleb128 0x5
 5429 0106 27       		.uleb128 0x27
 5430 0107 0C       		.uleb128 0xc
 5431 0108 49       		.uleb128 0x49
 5432 0109 13       		.uleb128 0x13
 5433 010a 11       		.uleb128 0x11
 5434 010b 01       		.uleb128 0x1
ARM GAS  C:\Users\z80\AppData\Local\Temp\ccWqrhGE.s 			page 97


 5435 010c 12       		.uleb128 0x12
 5436 010d 01       		.uleb128 0x1
 5437 010e 40       		.uleb128 0x40
 5438 010f 06       		.uleb128 0x6
 5439 0110 01       		.uleb128 0x1
 5440 0111 13       		.uleb128 0x13
 5441 0112 00       		.byte	0x0
 5442 0113 00       		.byte	0x0
 5443 0114 17       		.uleb128 0x17
 5444 0115 05       		.uleb128 0x5
 5445 0116 00       		.byte	0x0
 5446 0117 03       		.uleb128 0x3
 5447 0118 0E       		.uleb128 0xe
 5448 0119 3A       		.uleb128 0x3a
 5449 011a 0B       		.uleb128 0xb
 5450 011b 3B       		.uleb128 0x3b
 5451 011c 05       		.uleb128 0x5
 5452 011d 49       		.uleb128 0x49
 5453 011e 13       		.uleb128 0x13
 5454 011f 02       		.uleb128 0x2
 5455 0120 0A       		.uleb128 0xa
 5456 0121 00       		.byte	0x0
 5457 0122 00       		.byte	0x0
 5458 0123 18       		.uleb128 0x18
 5459 0124 34       		.uleb128 0x34
 5460 0125 00       		.byte	0x0
 5461 0126 03       		.uleb128 0x3
 5462 0127 0E       		.uleb128 0xe
 5463 0128 3A       		.uleb128 0x3a
 5464 0129 0B       		.uleb128 0xb
 5465 012a 3B       		.uleb128 0x3b
 5466 012b 05       		.uleb128 0x5
 5467 012c 49       		.uleb128 0x49
 5468 012d 13       		.uleb128 0x13
 5469 012e 02       		.uleb128 0x2
 5470 012f 0A       		.uleb128 0xa
 5471 0130 00       		.byte	0x0
 5472 0131 00       		.byte	0x0
 5473 0132 19       		.uleb128 0x19
 5474 0133 2E       		.uleb128 0x2e
 5475 0134 01       		.byte	0x1
 5476 0135 3F       		.uleb128 0x3f
 5477 0136 0C       		.uleb128 0xc
 5478 0137 03       		.uleb128 0x3
 5479 0138 0E       		.uleb128 0xe
 5480 0139 3A       		.uleb128 0x3a
 5481 013a 0B       		.uleb128 0xb
 5482 013b 3B       		.uleb128 0x3b
 5483 013c 05       		.uleb128 0x5
 5484 013d 27       		.uleb128 0x27
 5485 013e 0C       		.uleb128 0xc
 5486 013f 49       		.uleb128 0x49
 5487 0140 13       		.uleb128 0x13
 5488 0141 11       		.uleb128 0x11
 5489 0142 01       		.uleb128 0x1
 5490 0143 12       		.uleb128 0x12
 5491 0144 01       		.uleb128 0x1
ARM GAS  C:\Users\z80\AppData\Local\Temp\ccWqrhGE.s 			page 98


 5492 0145 40       		.uleb128 0x40
 5493 0146 06       		.uleb128 0x6
 5494 0147 01       		.uleb128 0x1
 5495 0148 13       		.uleb128 0x13
 5496 0149 00       		.byte	0x0
 5497 014a 00       		.byte	0x0
 5498 014b 1A       		.uleb128 0x1a
 5499 014c 34       		.uleb128 0x34
 5500 014d 00       		.byte	0x0
 5501 014e 03       		.uleb128 0x3
 5502 014f 08       		.uleb128 0x8
 5503 0150 3A       		.uleb128 0x3a
 5504 0151 0B       		.uleb128 0xb
 5505 0152 3B       		.uleb128 0x3b
 5506 0153 05       		.uleb128 0x5
 5507 0154 49       		.uleb128 0x49
 5508 0155 13       		.uleb128 0x13
 5509 0156 00       		.byte	0x0
 5510 0157 00       		.byte	0x0
 5511 0158 1B       		.uleb128 0x1b
 5512 0159 21       		.uleb128 0x21
 5513 015a 00       		.byte	0x0
 5514 015b 49       		.uleb128 0x49
 5515 015c 13       		.uleb128 0x13
 5516 015d 2F       		.uleb128 0x2f
 5517 015e 0B       		.uleb128 0xb
 5518 015f 00       		.byte	0x0
 5519 0160 00       		.byte	0x0
 5520 0161 00       		.byte	0x0
 5521              		.section	.debug_pubnames,"",%progbits
 5522 0000 62000000 		.4byte	0x62
 5523 0004 0200     		.2byte	0x2
 5524 0006 00000000 		.4byte	.Ldebug_info0
 5525 000a AE0C0000 		.4byte	0xcae
 5526 000e 39050000 		.4byte	0x539
 5527 0012 636C7573 		.ascii	"clust2sect\000"
 5527      74327365 
 5527      637400
 5528 001d 75050000 		.4byte	0x575
 5529 0021 6765745F 		.ascii	"get_fat\000"
 5529      66617400 
 5530 0029 CD090000 		.4byte	0x9cd
 5531 002d 665F6D6F 		.ascii	"f_mount\000"
 5531      756E7400 
 5532 0035 180A0000 		.4byte	0xa18
 5533 0039 665F6F70 		.ascii	"f_open\000"
 5533      656E00
 5534 0040 B50A0000 		.4byte	0xab5
 5535 0044 665F7265 		.ascii	"f_read\000"
 5535      616400
 5536 004b 8B0B0000 		.4byte	0xb8b
 5537 004f 665F636C 		.ascii	"f_close\000"
 5537      6F736500 
 5538 0057 D50B0000 		.4byte	0xbd5
 5539 005b 665F6765 		.ascii	"f_gets\000"
 5539      747300
 5540 0062 00000000 		.4byte	0x0
ARM GAS  C:\Users\z80\AppData\Local\Temp\ccWqrhGE.s 			page 99


 5541              		.section	.debug_pubtypes,"",%progbits
 5542 0000 6F000000 		.4byte	0x6f
 5543 0004 0200     		.2byte	0x2
 5544 0006 00000000 		.4byte	.Ldebug_info0
 5545 000a AE0C0000 		.4byte	0xcae
 5546 000e 30000000 		.4byte	0x30
 5547 0012 55494E54 		.ascii	"UINT\000"
 5547      00
 5548 0017 50000000 		.4byte	0x50
 5549 001b 42595445 		.ascii	"BYTE\000"
 5549      00
 5550 0020 69000000 		.4byte	0x69
 5551 0024 574F5244 		.ascii	"WORD\000"
 5551      00
 5552 0029 82000000 		.4byte	0x82
 5553 002d 44574F52 		.ascii	"DWORD\000"
 5553      4400
 5554 0033 8D000000 		.4byte	0x8d
 5555 0037 54434841 		.ascii	"TCHAR\000"
 5555      5200
 5556 003d 87010000 		.4byte	0x187
 5557 0041 46415446 		.ascii	"FATFS\000"
 5557      5300
 5558 0047 1D020000 		.4byte	0x21d
 5559 004b 46494C00 		.ascii	"FIL\000"
 5560 004f A4020000 		.4byte	0x2a4
 5561 0053 44495200 		.ascii	"DIR\000"
 5562 0057 30030000 		.4byte	0x330
 5563 005b 46524553 		.ascii	"FRESULT\000"
 5563      554C5400 
 5564 0063 3B030000 		.4byte	0x33b
 5565 0067 44535441 		.ascii	"DSTATUS\000"
 5565      54555300 
 5566 006f 00000000 		.4byte	0x0
 5567              		.section	.debug_aranges,"",%progbits
 5568 0000 B4000000 		.4byte	0xb4
 5569 0004 0200     		.2byte	0x2
 5570 0006 00000000 		.4byte	.Ldebug_info0
 5571 000a 04       		.byte	0x4
 5572 000b 00       		.byte	0x0
 5573 000c 0000     		.2byte	0x0
 5574 000e 0000     		.2byte	0x0
 5575 0010 00000000 		.4byte	.LFB0
 5576 0014 46000000 		.4byte	.LFE0-.LFB0
 5577 0018 00000000 		.4byte	.LFB1
 5578 001c 3A000000 		.4byte	.LFE1-.LFB1
 5579 0020 00000000 		.4byte	.LFB2
 5580 0024 68000000 		.4byte	.LFE2-.LFB2
 5581 0028 00000000 		.4byte	.LFB3
 5582 002c 2E000000 		.4byte	.LFE3-.LFB3
 5583 0030 00000000 		.4byte	.LFB4
 5584 0034 50000000 		.4byte	.LFE4-.LFB4
 5585 0038 00000000 		.4byte	.LFB5
 5586 003c 38000000 		.4byte	.LFE5-.LFB5
 5587 0040 00000000 		.4byte	.LFB6
 5588 0044 A2010000 		.4byte	.LFE6-.LFB6
 5589 0048 00000000 		.4byte	.LFB7
ARM GAS  C:\Users\z80\AppData\Local\Temp\ccWqrhGE.s 			page 100


 5590 004c 2C010000 		.4byte	.LFE7-.LFB7
 5591 0050 00000000 		.4byte	.LFB8
 5592 0054 06010000 		.4byte	.LFE8-.LFB8
 5593 0058 00000000 		.4byte	.LFB9
 5594 005c B2000000 		.4byte	.LFE9-.LFB9
 5595 0060 00000000 		.4byte	.LFB10
 5596 0064 FA010000 		.4byte	.LFE10-.LFB10
 5597 0068 00000000 		.4byte	.LFB11
 5598 006c 30010000 		.4byte	.LFE11-.LFB11
 5599 0070 00000000 		.4byte	.LFB12
 5600 0074 0A010000 		.4byte	.LFE12-.LFB12
 5601 0078 00000000 		.4byte	.LFB13
 5602 007c E6040000 		.4byte	.LFE13-.LFB13
 5603 0080 00000000 		.4byte	.LFB14
 5604 0084 52000000 		.4byte	.LFE14-.LFB14
 5605 0088 00000000 		.4byte	.LFB15
 5606 008c 62000000 		.4byte	.LFE15-.LFB15
 5607 0090 00000000 		.4byte	.LFB16
 5608 0094 46010000 		.4byte	.LFE16-.LFB16
 5609 0098 00000000 		.4byte	.LFB17
 5610 009c 62020000 		.4byte	.LFE17-.LFB17
 5611 00a0 00000000 		.4byte	.LFB18
 5612 00a4 38000000 		.4byte	.LFE18-.LFB18
 5613 00a8 00000000 		.4byte	.LFB19
 5614 00ac 84000000 		.4byte	.LFE19-.LFB19
 5615 00b0 00000000 		.4byte	0x0
 5616 00b4 00000000 		.4byte	0x0
 5617              		.section	.debug_ranges,"",%progbits
 5618              	.Ldebug_ranges0:
 5619 0000 00000000 		.4byte	.LFB0
 5620 0004 46000000 		.4byte	.LFE0
 5621 0008 00000000 		.4byte	.LFB1
 5622 000c 3A000000 		.4byte	.LFE1
 5623 0010 00000000 		.4byte	.LFB2
 5624 0014 68000000 		.4byte	.LFE2
 5625 0018 00000000 		.4byte	.LFB3
 5626 001c 2E000000 		.4byte	.LFE3
 5627 0020 00000000 		.4byte	.LFB4
 5628 0024 50000000 		.4byte	.LFE4
 5629 0028 00000000 		.4byte	.LFB5
 5630 002c 38000000 		.4byte	.LFE5
 5631 0030 00000000 		.4byte	.LFB6
 5632 0034 A2010000 		.4byte	.LFE6
 5633 0038 00000000 		.4byte	.LFB7
 5634 003c 2C010000 		.4byte	.LFE7
 5635 0040 00000000 		.4byte	.LFB8
 5636 0044 06010000 		.4byte	.LFE8
 5637 0048 00000000 		.4byte	.LFB9
 5638 004c B2000000 		.4byte	.LFE9
 5639 0050 00000000 		.4byte	.LFB10
 5640 0054 FA010000 		.4byte	.LFE10
 5641 0058 00000000 		.4byte	.LFB11
 5642 005c 30010000 		.4byte	.LFE11
 5643 0060 00000000 		.4byte	.LFB12
 5644 0064 0A010000 		.4byte	.LFE12
 5645 0068 00000000 		.4byte	.LFB13
 5646 006c E6040000 		.4byte	.LFE13
ARM GAS  C:\Users\z80\AppData\Local\Temp\ccWqrhGE.s 			page 101


 5647 0070 00000000 		.4byte	.LFB14
 5648 0074 52000000 		.4byte	.LFE14
 5649 0078 00000000 		.4byte	.LFB15
 5650 007c 62000000 		.4byte	.LFE15
 5651 0080 00000000 		.4byte	.LFB16
 5652 0084 46010000 		.4byte	.LFE16
 5653 0088 00000000 		.4byte	.LFB17
 5654 008c 62020000 		.4byte	.LFE17
 5655 0090 00000000 		.4byte	.LFB18
 5656 0094 38000000 		.4byte	.LFE18
 5657 0098 00000000 		.4byte	.LFB19
 5658 009c 84000000 		.4byte	.LFE19
 5659 00a0 00000000 		.4byte	0x0
 5660 00a4 00000000 		.4byte	0x0
 5661              		.section	.debug_str,"MS",%progbits,1
 5662              	.LASF24:
 5663 0000 46415446 		.ascii	"FATFS\000"
 5663      5300
 5664              	.LASF14:
 5665 0006 6E5F6661 		.ascii	"n_fats\000"
 5665      747300
 5666              	.LASF98:
 5667 000d 72627566 		.ascii	"rbuff\000"
 5667      6600
 5668              	.LASF46:
 5669 0013 46525F4E 		.ascii	"FR_NO_FILESYSTEM\000"
 5669      4F5F4649 
 5669      4C455359 
 5669      5354454D 
 5669      00
 5670              	.LASF56:
 5671 0024 5245535F 		.ascii	"RES_ERROR\000"
 5671      4552524F 
 5671      5200
 5672              	.LASF40:
 5673 002e 46525F44 		.ascii	"FR_DENIED\000"
 5673      454E4945 
 5673      4400
 5674              	.LASF18:
 5675 0038 6E5F6661 		.ascii	"n_fatent\000"
 5675      74656E74 
 5675      00
 5676              	.LASF63:
 5677 0041 63686B5F 		.ascii	"chk_chr\000"
 5677      63687200 
 5678              	.LASF83:
 5679 0049 66617369 		.ascii	"fasize\000"
 5679      7A6500
 5680              	.LASF79:
 5681 0050 63686B5F 		.ascii	"chk_mounted\000"
 5681      6D6F756E 
 5681      74656400 
 5682              	.LASF96:
 5683 005c 72636E74 		.ascii	"rcnt\000"
 5683      00
 5684              	.LASF51:
 5685 0061 46525F54 		.ascii	"FR_TOO_MANY_OPEN_FILES\000"
ARM GAS  C:\Users\z80\AppData\Local\Temp\ccWqrhGE.s 			page 102


 5685      4F4F5F4D 
 5685      414E595F 
 5685      4F50454E 
 5685      5F46494C 
 5686              	.LASF5:
 5687 0078 73686F72 		.ascii	"short int\000"
 5687      7420696E 
 5687      7400
 5688              	.LASF30:
 5689 0082 64736563 		.ascii	"dsect\000"
 5689      7400
 5690              	.LASF66:
 5691 0088 77736563 		.ascii	"wsect\000"
 5691      7400
 5692              	.LASF88:
 5693 008e 6E727376 		.ascii	"nrsv\000"
 5693      00
 5694              	.LASF94:
 5695 0093 62756666 		.ascii	"buff\000"
 5695      00
 5696              	.LASF22:
 5697 0098 64617461 		.ascii	"database\000"
 5697      62617365 
 5697      00
 5698              	.LASF4:
 5699 00a1 42595445 		.ascii	"BYTE\000"
 5699      00
 5700              	.LASF32:
 5701 00a6 73656374 		.ascii	"sect\000"
 5701      00
 5702              	.LASF72:
 5703 00ab 73747265 		.ascii	"stretch\000"
 5703      74636800 
 5704              	.LASF17:
 5705 00b3 6E5F726F 		.ascii	"n_rootdir\000"
 5705      6F746469 
 5705      7200
 5706              	.LASF11:
 5707 00bd 54434841 		.ascii	"TCHAR\000"
 5707      5200
 5708              	.LASF80:
 5709 00c3 63686B5F 		.ascii	"chk_wp\000"
 5709      777000
 5710              	.LASF68:
 5711 00ca 636C7573 		.ascii	"clust2sect\000"
 5711      74327365 
 5711      637400
 5712              	.LASF7:
 5713 00d5 574F5244 		.ascii	"WORD\000"
 5713      00
 5714              	.LASF31:
 5715 00da 696E6465 		.ascii	"index\000"
 5715      7800
 5716              	.LASF33:
 5717 00e0 46525F4F 		.ascii	"FR_OK\000"
 5717      4B00
 5718              	.LASF87:
ARM GAS  C:\Users\z80\AppData\Local\Temp\ccWqrhGE.s 			page 103


 5719 00e6 737A6266 		.ascii	"szbfat\000"
 5719      617400
 5720              	.LASF27:
 5721 00ed 66707472 		.ascii	"fptr\000"
 5721      00
 5722              	.LASF65:
 5723 00f2 73656374 		.ascii	"sector\000"
 5723      6F7200
 5724              	.LASF34:
 5725 00f9 46525F44 		.ascii	"FR_DISK_ERR\000"
 5725      49534B5F 
 5725      45525200 
 5726              	.LASF26:
 5727 0105 70616431 		.ascii	"pad1\000"
 5727      00
 5728              	.LASF8:
 5729 010a 6C6F6E67 		.ascii	"long int\000"
 5729      20696E74 
 5729      00
 5730              	.LASF29:
 5731 0113 636C7573 		.ascii	"clust\000"
 5731      7400
 5732              	.LASF13:
 5733 0119 6373697A 		.ascii	"csize\000"
 5733      6500
 5734              	.LASF57:
 5735 011f 5245535F 		.ascii	"RES_WRPRT\000"
 5735      57525052 
 5735      5400
 5736              	.LASF104:
 5737 0129 66617466 		.ascii	"fatfs/ff.c\000"
 5737      732F6666 
 5737      2E6300
 5738              	.LASF3:
 5739 0134 55494E54 		.ascii	"UINT\000"
 5739      00
 5740              	.LASF82:
 5741 0139 62736563 		.ascii	"bsect\000"
 5741      7400
 5742              	.LASF47:
 5743 013f 46525F4D 		.ascii	"FR_MKFS_ABORTED\000"
 5743      4B46535F 
 5743      41424F52 
 5743      54454400 
 5744              	.LASF89:
 5745 014f 76616C69 		.ascii	"validate\000"
 5745      64617465 
 5745      00
 5746              	.LASF19:
 5747 0158 6673697A 		.ascii	"fsize\000"
 5747      6500
 5748              	.LASF43:
 5749 015e 46525F57 		.ascii	"FR_WRITE_PROTECTED\000"
 5749      52495445 
 5749      5F50524F 
 5749      54454354 
 5749      454400
ARM GAS  C:\Users\z80\AppData\Local\Temp\ccWqrhGE.s 			page 104


 5750              	.LASF54:
 5751 0171 44535441 		.ascii	"DSTATUS\000"
 5751      54555300 
 5752              	.LASF10:
 5753 0179 44574F52 		.ascii	"DWORD\000"
 5753      4400
 5754              	.LASF38:
 5755 017f 46525F4E 		.ascii	"FR_NO_PATH\000"
 5755      4F5F5041 
 5755      544800
 5756              	.LASF16:
 5757 018a 6673695F 		.ascii	"fsi_flag\000"
 5757      666C6167 
 5757      00
 5758              	.LASF90:
 5759 0193 665F6D6F 		.ascii	"f_mount\000"
 5759      756E7400 
 5760              	.LASF71:
 5761 019b 6469725F 		.ascii	"dir_next\000"
 5761      6E657874 
 5761      00
 5762              	.LASF2:
 5763 01a4 756E7369 		.ascii	"unsigned char\000"
 5763      676E6564 
 5763      20636861 
 5763      7200
 5764              	.LASF76:
 5765 01b2 65786376 		.ascii	"excvt\000"
 5765      7400
 5766              	.LASF84:
 5767 01b8 74736563 		.ascii	"tsect\000"
 5767      7400
 5768              	.LASF91:
 5769 01be 665F6F70 		.ascii	"f_open\000"
 5769      656E00
 5770              	.LASF15:
 5771 01c5 77666C61 		.ascii	"wflag\000"
 5771      6700
 5772              	.LASF61:
 5773 01cb 6D656D5F 		.ascii	"mem_set\000"
 5773      73657400 
 5774              	.LASF53:
 5775 01d3 46524553 		.ascii	"FRESULT\000"
 5775      554C5400 
 5776              	.LASF0:
 5777 01db 756E7369 		.ascii	"unsigned int\000"
 5777      676E6564 
 5777      20696E74 
 5777      00
 5778              	.LASF69:
 5779 01e8 6765745F 		.ascii	"get_fat\000"
 5779      66617400 
 5780              	.LASF37:
 5781 01f0 46525F4E 		.ascii	"FR_NO_FILE\000"
 5781      4F5F4649 
 5781      4C4500
 5782              	.LASF78:
ARM GAS  C:\Users\z80\AppData\Local\Temp\ccWqrhGE.s 			page 105


 5783 01fb 63686563 		.ascii	"check_fs\000"
 5783      6B5F6673 
 5783      00
 5784              	.LASF52:
 5785 0204 46525F49 		.ascii	"FR_INVALID_PARAMETER\000"
 5785      4E56414C 
 5785      49445F50 
 5785      4152414D 
 5785      45544552 
 5786              	.LASF93:
 5787 0219 665F7265 		.ascii	"f_read\000"
 5787      616400
 5788              	.LASF101:
 5789 0220 46617446 		.ascii	"FatFs\000"
 5789      7300
 5790              	.LASF73:
 5791 0226 6469725F 		.ascii	"dir_find\000"
 5791      66696E64 
 5791      00
 5792              	.LASF45:
 5793 022f 46525F4E 		.ascii	"FR_NOT_ENABLED\000"
 5793      4F545F45 
 5793      4E41424C 
 5793      454400
 5794              	.LASF6:
 5795 023e 73686F72 		.ascii	"short unsigned int\000"
 5795      7420756E 
 5795      7369676E 
 5795      65642069 
 5795      6E7400
 5796              	.LASF41:
 5797 0251 46525F45 		.ascii	"FR_EXIST\000"
 5797      58495354 
 5797      00
 5798              	.LASF1:
 5799 025a 63686172 		.ascii	"char\000"
 5799      00
 5800              	.LASF20:
 5801 025f 66617462 		.ascii	"fatbase\000"
 5801      61736500 
 5802              	.LASF58:
 5803 0267 5245535F 		.ascii	"RES_NOTRDY\000"
 5803      4E4F5452 
 5803      445900
 5804              	.LASF92:
 5805 0272 6D6F6465 		.ascii	"mode\000"
 5805      00
 5806              	.LASF74:
 5807 0277 63726561 		.ascii	"create_name\000"
 5807      74655F6E 
 5807      616D6500 
 5808              	.LASF42:
 5809 0283 46525F49 		.ascii	"FR_INVALID_OBJECT\000"
 5809      4E56414C 
 5809      49445F4F 
 5809      424A4543 
 5809      5400
ARM GAS  C:\Users\z80\AppData\Local\Temp\ccWqrhGE.s 			page 106


 5810              	.LASF36:
 5811 0295 46525F4E 		.ascii	"FR_NOT_READY\000"
 5811      4F545F52 
 5811      45414459 
 5811      00
 5812              	.LASF60:
 5813 02a2 6D656D5F 		.ascii	"mem_cpy\000"
 5813      63707900 
 5814              	.LASF12:
 5815 02aa 66735F74 		.ascii	"fs_type\000"
 5815      79706500 
 5816              	.LASF9:
 5817 02b2 6C6F6E67 		.ascii	"long unsigned int\000"
 5817      20756E73 
 5817      69676E65 
 5817      6420696E 
 5817      7400
 5818              	.LASF97:
 5819 02c4 63736563 		.ascii	"csect\000"
 5819      7400
 5820              	.LASF77:
 5821 02ca 666F6C6C 		.ascii	"follow_path\000"
 5821      6F775F70 
 5821      61746800 
 5822              	.LASF48:
 5823 02d6 46525F54 		.ascii	"FR_TIMEOUT\000"
 5823      494D454F 
 5823      555400
 5824              	.LASF103:
 5825 02e1 474E5520 		.ascii	"GNU C 4.5.0\000"
 5825      4320342E 
 5825      352E3000 
 5826              	.LASF21:
 5827 02ed 64697262 		.ascii	"dirbase\000"
 5827      61736500 
 5828              	.LASF55:
 5829 02f5 5245535F 		.ascii	"RES_OK\000"
 5829      4F4B00
 5830              	.LASF35:
 5831 02fc 46525F49 		.ascii	"FR_INT_ERR\000"
 5831      4E545F45 
 5831      525200
 5832              	.LASF64:
 5833 0307 6D6F7665 		.ascii	"move_window\000"
 5833      5F77696E 
 5833      646F7700 
 5834              	.LASF75:
 5835 0313 70617468 		.ascii	"path\000"
 5835      00
 5836              	.LASF28:
 5837 0318 73636C75 		.ascii	"sclust\000"
 5837      737400
 5838              	.LASF100:
 5839 031f 665F6765 		.ascii	"f_gets\000"
 5839      747300
 5840              	.LASF99:
 5841 0326 665F636C 		.ascii	"f_close\000"
ARM GAS  C:\Users\z80\AppData\Local\Temp\ccWqrhGE.s 			page 107


 5841      6F736500 
 5842              	.LASF44:
 5843 032e 46525F49 		.ascii	"FR_INVALID_DRIVE\000"
 5843      4E56414C 
 5843      49445F44 
 5843      52495645 
 5843      00
 5844              	.LASF62:
 5845 033f 6D656D5F 		.ascii	"mem_cmp\000"
 5845      636D7000 
 5846              	.LASF25:
 5847 0347 666C6167 		.ascii	"flag\000"
 5847      00
 5848              	.LASF81:
 5849 034c 73746174 		.ascii	"stat\000"
 5849      00
 5850              	.LASF49:
 5851 0351 46525F4C 		.ascii	"FR_LOCKED\000"
 5851      4F434B45 
 5851      4400
 5852              	.LASF23:
 5853 035b 77696E73 		.ascii	"winsect\000"
 5853      65637400 
 5854              	.LASF86:
 5855 0363 6E636C73 		.ascii	"nclst\000"
 5855      7400
 5856              	.LASF102:
 5857 0369 46736964 		.ascii	"Fsid\000"
 5857      00
 5858              	.LASF59:
 5859 036e 5245535F 		.ascii	"RES_PARERR\000"
 5859      50415245 
 5859      525200
 5860              	.LASF95:
 5861 0379 72656D61 		.ascii	"remain\000"
 5861      696E00
 5862              	.LASF70:
 5863 0380 6469725F 		.ascii	"dir_sdi\000"
 5863      73646900 
 5864              	.LASF50:
 5865 0388 46525F4E 		.ascii	"FR_NOT_ENOUGH_CORE\000"
 5865      4F545F45 
 5865      4E4F5547 
 5865      485F434F 
 5865      524500
 5866              	.LASF85:
 5867 039b 73797365 		.ascii	"sysect\000"
 5867      637400
 5868              	.LASF39:
 5869 03a2 46525F49 		.ascii	"FR_INVALID_NAME\000"
 5869      4E56414C 
 5869      49445F4E 
 5869      414D4500 
 5870              	.LASF105:
 5871 03b2 433A5C70 		.ascii	"C:\\projects\\clock.git\\firmware\\firmware\000"
 5871      726F6A65 
 5871      6374735C 
ARM GAS  C:\Users\z80\AppData\Local\Temp\ccWqrhGE.s 			page 108


 5871      636C6F63 
 5871      6B2E6769 
 5872              	.LASF67:
 5873 03da 636C7374 		.ascii	"clst\000"
 5873      00
 5874              		.ident	"GCC: (GNU) 4.5.0"
ARM GAS  C:\Users\z80\AppData\Local\Temp\ccWqrhGE.s 			page 109


DEFINED SYMBOLS
                            *ABS*:00000000 ff.c
C:\Users\z80\AppData\Local\Temp\ccWqrhGE.s:24     .bss.FatFs:00000000 $d
C:\Users\z80\AppData\Local\Temp\ccWqrhGE.s:27     .bss.FatFs:00000000 FatFs
C:\Users\z80\AppData\Local\Temp\ccWqrhGE.s:30     .bss.Fsid:00000000 $d
C:\Users\z80\AppData\Local\Temp\ccWqrhGE.s:33     .bss.Fsid:00000000 Fsid
C:\Users\z80\AppData\Local\Temp\ccWqrhGE.s:36     .text.mem_cpy:00000000 $t
C:\Users\z80\AppData\Local\Temp\ccWqrhGE.s:41     .text.mem_cpy:00000000 mem_cpy
C:\Users\z80\AppData\Local\Temp\ccWqrhGE.s:95     .text.mem_set:00000000 $t
C:\Users\z80\AppData\Local\Temp\ccWqrhGE.s:100    .text.mem_set:00000000 mem_set
C:\Users\z80\AppData\Local\Temp\ccWqrhGE.s:147    .text.mem_cmp:00000000 $t
C:\Users\z80\AppData\Local\Temp\ccWqrhGE.s:152    .text.mem_cmp:00000000 mem_cmp
C:\Users\z80\AppData\Local\Temp\ccWqrhGE.s:221    .text.chk_chr:00000000 $t
C:\Users\z80\AppData\Local\Temp\ccWqrhGE.s:226    .text.chk_chr:00000000 chk_chr
C:\Users\z80\AppData\Local\Temp\ccWqrhGE.s:269    .text.move_window:00000000 $t
C:\Users\z80\AppData\Local\Temp\ccWqrhGE.s:274    .text.move_window:00000000 move_window
C:\Users\z80\AppData\Local\Temp\ccWqrhGE.s:335    .text.clust2sect:00000000 $t
C:\Users\z80\AppData\Local\Temp\ccWqrhGE.s:341    .text.clust2sect:00000000 clust2sect
C:\Users\z80\AppData\Local\Temp\ccWqrhGE.s:385    .text.get_fat:00000000 $t
C:\Users\z80\AppData\Local\Temp\ccWqrhGE.s:391    .text.get_fat:00000000 get_fat
C:\Users\z80\AppData\Local\Temp\ccWqrhGE.s:610    .text.dir_sdi:00000000 $t
C:\Users\z80\AppData\Local\Temp\ccWqrhGE.s:615    .text.dir_sdi:00000000 dir_sdi
C:\Users\z80\AppData\Local\Temp\ccWqrhGE.s:793    .text.dir_next:00000000 $t
C:\Users\z80\AppData\Local\Temp\ccWqrhGE.s:798    .text.dir_next:00000000 dir_next
C:\Users\z80\AppData\Local\Temp\ccWqrhGE.s:952    .text.dir_find:00000000 $t
C:\Users\z80\AppData\Local\Temp\ccWqrhGE.s:957    .text.dir_find:00000000 dir_find
C:\Users\z80\AppData\Local\Temp\ccWqrhGE.s:1065   .rodata:00000000 $d
C:\Users\z80\AppData\Local\Temp\ccWqrhGE.s:1066   .rodata:00000000 .LC0
C:\Users\z80\AppData\Local\Temp\ccWqrhGE.s:1069   .text.create_name:00000000 $t
C:\Users\z80\AppData\Local\Temp\ccWqrhGE.s:1074   .text.create_name:00000000 create_name
C:\Users\z80\AppData\Local\Temp\ccWqrhGE.s:3039   .rodata.excvt.1549:00000000 excvt.1549
C:\Users\z80\AppData\Local\Temp\ccWqrhGE.s:1339   .text.follow_path:00000000 $t
C:\Users\z80\AppData\Local\Temp\ccWqrhGE.s:1344   .text.follow_path:00000000 follow_path
C:\Users\z80\AppData\Local\Temp\ccWqrhGE.s:1516   .text.check_fs:00000000 $t
C:\Users\z80\AppData\Local\Temp\ccWqrhGE.s:1521   .text.check_fs:00000000 check_fs
C:\Users\z80\AppData\Local\Temp\ccWqrhGE.s:1642   .text.chk_mounted:00000000 $t
C:\Users\z80\AppData\Local\Temp\ccWqrhGE.s:1647   .text.chk_mounted:00000000 chk_mounted
C:\Users\z80\AppData\Local\Temp\ccWqrhGE.s:2243   .text.validate:00000000 $t
C:\Users\z80\AppData\Local\Temp\ccWqrhGE.s:2248   .text.validate:00000000 validate
C:\Users\z80\AppData\Local\Temp\ccWqrhGE.s:2308   .text.f_mount:00000000 $t
C:\Users\z80\AppData\Local\Temp\ccWqrhGE.s:2314   .text.f_mount:00000000 f_mount
C:\Users\z80\AppData\Local\Temp\ccWqrhGE.s:2376   .text.f_open:00000000 $t
C:\Users\z80\AppData\Local\Temp\ccWqrhGE.s:2382   .text.f_open:00000000 f_open
C:\Users\z80\AppData\Local\Temp\ccWqrhGE.s:2542   .text.f_read:00000000 $t
C:\Users\z80\AppData\Local\Temp\ccWqrhGE.s:2548   .text.f_read:00000000 f_read
C:\Users\z80\AppData\Local\Temp\ccWqrhGE.s:2885   .text.f_close:00000000 $t
C:\Users\z80\AppData\Local\Temp\ccWqrhGE.s:2891   .text.f_close:00000000 f_close
C:\Users\z80\AppData\Local\Temp\ccWqrhGE.s:2936   .text.f_gets:00000000 $t
C:\Users\z80\AppData\Local\Temp\ccWqrhGE.s:2942   .text.f_gets:00000000 f_gets
C:\Users\z80\AppData\Local\Temp\ccWqrhGE.s:3036   .rodata.excvt.1549:00000000 $d
                     .debug_frame:00000010 $d

UNDEFINED SYMBOLS
disk_read
disk_status
disk_initialize
