ARM GAS  C:\Users\z80\AppData\Local\Temp\ccWqrhGE.s 			page 1


   1              		.syntax unified
   2              		.cpu cortex-m3
   3              		.fpu softvfp
   4              		.eabi_attribute 20, 1
   5              		.eabi_attribute 21, 1
   6              		.eabi_attribute 23, 3
   7              		.eabi_attribute 24, 1
   8              		.eabi_attribute 25, 1
   9              		.eabi_attribute 26, 1
  10              		.eabi_attribute 30, 6
  11              		.eabi_attribute 18, 4
  12              		.thumb
  13              		.file	"ff.c"
  20 0000 1A050000 		.text
  20      02004200 
  20      00000201 
  20      FB0E0D00 
  20      01010101 
  21              	.Ltext0:
  22              		.cfi_sections	.debug_frame
  23              		.section	.bss.FatFs,"aw",%nobits
  24              		.align	2
  25              		.type	FatFs, %object
  26              		.size	FatFs, 4
  27              	FatFs:
  28 0000 00000000 		.space	4
  29              		.section	.bss.Fsid,"aw",%nobits
  30              		.align	1
  31              		.type	Fsid, %object
  32              		.size	Fsid, 2
  33              	Fsid:
  34 0000 0000     		.space	2
  35              		.section	.text.mem_cpy,"ax",%progbits
  36              		.align	2
  37              		.p2align 4,,15
  38              		.thumb
  39              		.thumb_func
  40              		.type	mem_cpy, %function
  41              	mem_cpy:
  42              	.LFB0:
  43              		.file 1 "fatfs/ff.c"
  44              		.loc 1 529 0
  45              		.cfi_startproc
  46              		@ args = 0, pretend = 0, frame = 24
  47              		@ frame_needed = 0, uses_anonymous_args = 0
  48              		@ link register save eliminated.
  49 0000 86B0     		sub	sp, sp, #24
  50              	.LCFI0:
  51              		.cfi_def_cfa_offset 24
  52 0002 0390     		str	r0, [sp, #12]
  53 0004 0291     		str	r1, [sp, #8]
ARM GAS  C:\Users\z80\AppData\Local\Temp\ccWqrhGE.s 			page 2


  54 0006 0192     		str	r2, [sp, #4]
  55              		.loc 1 530 0
  56 0008 039B     		ldr	r3, [sp, #12]
  57 000a 0593     		str	r3, [sp, #20]
  58              		.loc 1 531 0
  59 000c 029B     		ldr	r3, [sp, #8]
  60 000e 0493     		str	r3, [sp, #16]
  61              		.loc 1 540 0
  62 0010 0BE0     		b	.L2
  63              	.L3:
  64              		.loc 1 541 0
  65 0012 049B     		ldr	r3, [sp, #16]
  66 0014 1A78     		ldrb	r2, [r3, #0]	@ zero_extendqisi2
  67 0016 059B     		ldr	r3, [sp, #20]
  68 0018 1A70     		strb	r2, [r3, #0]
  69 001a 059B     		ldr	r3, [sp, #20]
  70 001c 03F10103 		add	r3, r3, #1
  71 0020 0593     		str	r3, [sp, #20]
  72 0022 049B     		ldr	r3, [sp, #16]
  73 0024 03F10103 		add	r3, r3, #1
  74 0028 0493     		str	r3, [sp, #16]
  75              	.L2:
  76              		.loc 1 540 0 discriminator 1
  77 002a 019B     		ldr	r3, [sp, #4]
  78 002c 002B     		cmp	r3, #0
  79 002e 0CBF     		ite	eq
  80 0030 0023     		moveq	r3, #0
  81 0032 0123     		movne	r3, #1
  82 0034 DBB2     		uxtb	r3, r3
  83 0036 019A     		ldr	r2, [sp, #4]
  84 0038 02F1FF32 		add	r2, r2, #-1
  85 003c 0192     		str	r2, [sp, #4]
  86 003e 002B     		cmp	r3, #0
  87 0040 E7D1     		bne	.L3
  88              		.loc 1 542 0
  89 0042 06B0     		add	sp, sp, #24
  90 0044 7047     		bx	lr
  91              		.cfi_endproc
  92              	.LFE0:
  93              		.size	mem_cpy, .-mem_cpy
  94 0046 00BFAFF3 		.section	.text.mem_set,"ax",%progbits
  94      0080AFF3 
  94      0080
  95              		.align	2
  96              		.p2align 4,,15
  97              		.thumb
  98              		.thumb_func
  99              		.type	mem_set, %function
 100              	mem_set:
 101              	.LFB1:
 102              		.loc 1 546 0
 103              		.cfi_startproc
 104              		@ args = 0, pretend = 0, frame = 24
 105              		@ frame_needed = 0, uses_anonymous_args = 0
 106              		@ link register save eliminated.
 107 0000 86B0     		sub	sp, sp, #24
 108              	.LCFI1:
ARM GAS  C:\Users\z80\AppData\Local\Temp\ccWqrhGE.s 			page 3


 109              		.cfi_def_cfa_offset 24
 110 0002 0390     		str	r0, [sp, #12]
 111 0004 0291     		str	r1, [sp, #8]
 112 0006 0192     		str	r2, [sp, #4]
 113              		.loc 1 547 0
 114 0008 039B     		ldr	r3, [sp, #12]
 115 000a 0593     		str	r3, [sp, #20]
 116              		.loc 1 549 0
 117 000c 07E0     		b	.L5
 118              	.L6:
 119              		.loc 1 550 0
 120 000e 029B     		ldr	r3, [sp, #8]
 121 0010 DAB2     		uxtb	r2, r3
 122 0012 059B     		ldr	r3, [sp, #20]
 123 0014 1A70     		strb	r2, [r3, #0]
 124 0016 059B     		ldr	r3, [sp, #20]
 125 0018 03F10103 		add	r3, r3, #1
 126 001c 0593     		str	r3, [sp, #20]
 127              	.L5:
 128              		.loc 1 549 0 discriminator 1
 129 001e 019B     		ldr	r3, [sp, #4]
 130 0020 002B     		cmp	r3, #0
 131 0022 0CBF     		ite	eq
 132 0024 0023     		moveq	r3, #0
 133 0026 0123     		movne	r3, #1
 134 0028 DBB2     		uxtb	r3, r3
 135 002a 019A     		ldr	r2, [sp, #4]
 136 002c 02F1FF32 		add	r2, r2, #-1
 137 0030 0192     		str	r2, [sp, #4]
 138 0032 002B     		cmp	r3, #0
 139 0034 EBD1     		bne	.L6
 140              		.loc 1 551 0
 141 0036 06B0     		add	sp, sp, #24
 142 0038 7047     		bx	lr
 143              		.cfi_endproc
 144              	.LFE1:
 145              		.size	mem_set, .-mem_set
 146 003a 00BFAFF3 		.section	.text.mem_cmp,"ax",%progbits
 146      0080
 147              		.align	2
 148              		.p2align 4,,15
 149              		.thumb
 150              		.thumb_func
 151              		.type	mem_cmp, %function
 152              	mem_cmp:
 153              	.LFB2:
 154              		.loc 1 555 0
 155              		.cfi_startproc
 156              		@ args = 0, pretend = 0, frame = 32
 157              		@ frame_needed = 0, uses_anonymous_args = 0
 158              		@ link register save eliminated.
 159 0000 88B0     		sub	sp, sp, #32
 160              	.LCFI2:
 161              		.cfi_def_cfa_offset 32
 162 0002 0390     		str	r0, [sp, #12]
 163 0004 0291     		str	r1, [sp, #8]
 164 0006 0192     		str	r2, [sp, #4]
ARM GAS  C:\Users\z80\AppData\Local\Temp\ccWqrhGE.s 			page 4


 165              		.loc 1 556 0
 166 0008 039B     		ldr	r3, [sp, #12]
 167 000a 0793     		str	r3, [sp, #28]
 168 000c 029B     		ldr	r3, [sp, #8]
 169 000e 0693     		str	r3, [sp, #24]
 170              		.loc 1 557 0
 171 0010 4FF00003 		mov	r3, #0
 172 0014 0593     		str	r3, [sp, #20]
 173              		.loc 1 559 0
 174 0016 00BF     		nop
 175              	.L9:
 176              		.loc 1 559 0 is_stmt 0 discriminator 1
 177 0018 019B     		ldr	r3, [sp, #4]
 178 001a 002B     		cmp	r3, #0
 179 001c 0CBF     		ite	eq
 180 001e 0023     		moveq	r3, #0
 181 0020 0123     		movne	r3, #1
 182 0022 DBB2     		uxtb	r3, r3
 183 0024 019A     		ldr	r2, [sp, #4]
 184 0026 02F1FF32 		add	r2, r2, #-1
 185 002a 0192     		str	r2, [sp, #4]
 186 002c 002B     		cmp	r3, #0
 187 002e 17D0     		beq	.L8
 188              		.loc 1 559 0 discriminator 2
 189 0030 079B     		ldr	r3, [sp, #28]
 190 0032 1B78     		ldrb	r3, [r3, #0]	@ zero_extendqisi2
 191 0034 1A46     		mov	r2, r3
 192 0036 069B     		ldr	r3, [sp, #24]
 193 0038 1B78     		ldrb	r3, [r3, #0]	@ zero_extendqisi2
 194 003a C3EB0203 		rsb	r3, r3, r2
 195 003e 0593     		str	r3, [sp, #20]
 196 0040 059B     		ldr	r3, [sp, #20]
 197 0042 002B     		cmp	r3, #0
 198 0044 14BF     		ite	ne
 199 0046 0023     		movne	r3, #0
 200 0048 0123     		moveq	r3, #1
 201 004a DBB2     		uxtb	r3, r3
 202 004c 079A     		ldr	r2, [sp, #28]
 203 004e 02F10102 		add	r2, r2, #1
 204 0052 0792     		str	r2, [sp, #28]
 205 0054 069A     		ldr	r2, [sp, #24]
 206 0056 02F10102 		add	r2, r2, #1
 207 005a 0692     		str	r2, [sp, #24]
 208 005c 002B     		cmp	r3, #0
 209 005e DBD1     		bne	.L9
 210              	.L8:
 211              		.loc 1 560 0 is_stmt 1
 212 0060 059B     		ldr	r3, [sp, #20]
 213              		.loc 1 561 0
 214 0062 1846     		mov	r0, r3
 215 0064 08B0     		add	sp, sp, #32
 216 0066 7047     		bx	lr
 217              		.cfi_endproc
 218              	.LFE2:
 219              		.size	mem_cmp, .-mem_cmp
 220 0068 AFF30080 		.section	.text.chk_chr,"ax",%progbits
 220      AFF30080 
ARM GAS  C:\Users\z80\AppData\Local\Temp\ccWqrhGE.s 			page 5


 221              		.align	2
 222              		.p2align 4,,15
 223              		.thumb
 224              		.thumb_func
 225              		.type	chk_chr, %function
 226              	chk_chr:
 227              	.LFB3:
 228              		.loc 1 565 0
 229              		.cfi_startproc
 230              		@ args = 0, pretend = 0, frame = 8
 231              		@ frame_needed = 0, uses_anonymous_args = 0
 232              		@ link register save eliminated.
 233 0000 82B0     		sub	sp, sp, #8
 234              	.LCFI3:
 235              		.cfi_def_cfa_offset 8
 236 0002 0190     		str	r0, [sp, #4]
 237 0004 0091     		str	r1, [sp, #0]
 238              		.loc 1 566 0
 239 0006 03E0     		b	.L11
 240              	.L13:
 241              		.loc 1 566 0 is_stmt 0 discriminator 1
 242 0008 019B     		ldr	r3, [sp, #4]
 243 000a 03F10103 		add	r3, r3, #1
 244 000e 0193     		str	r3, [sp, #4]
 245              	.L11:
 246 0010 019B     		ldr	r3, [sp, #4]
 247 0012 1B78     		ldrb	r3, [r3, #0]	@ zero_extendqisi2
 248 0014 002B     		cmp	r3, #0
 249 0016 05D0     		beq	.L12
 250              		.loc 1 566 0 discriminator 2
 251 0018 019B     		ldr	r3, [sp, #4]
 252 001a 1B78     		ldrb	r3, [r3, #0]	@ zero_extendqisi2
 253 001c 1A46     		mov	r2, r3
 254 001e 009B     		ldr	r3, [sp, #0]
 255 0020 9A42     		cmp	r2, r3
 256 0022 F1D1     		bne	.L13
 257              	.L12:
 258              		.loc 1 567 0 is_stmt 1
 259 0024 019B     		ldr	r3, [sp, #4]
 260 0026 1B78     		ldrb	r3, [r3, #0]	@ zero_extendqisi2
 261              		.loc 1 568 0
 262 0028 1846     		mov	r0, r3
 263 002a 02B0     		add	sp, sp, #8
 264 002c 7047     		bx	lr
 265              		.cfi_endproc
 266              	.LFE3:
 267              		.size	chk_chr, .-chk_chr
 268 002e 00BF     		.section	.text.move_window,"ax",%progbits
 269              		.align	2
 270              		.p2align 4,,15
 271              		.thumb
 272              		.thumb_func
 273              		.type	move_window, %function
 274              	move_window:
 275              	.LFB4:
 276              		.loc 1 723 0
 277              		.cfi_startproc
ARM GAS  C:\Users\z80\AppData\Local\Temp\ccWqrhGE.s 			page 6


 278              		@ args = 0, pretend = 0, frame = 16
 279              		@ frame_needed = 0, uses_anonymous_args = 0
 280 0000 00B5     		push	{lr}
 281              	.LCFI4:
 282              		.cfi_def_cfa_offset 4
 283 0002 85B0     		sub	sp, sp, #20
 284              	.LCFI5:
 285              		.cfi_def_cfa_offset 24
 286 0004 0190     		str	r0, [sp, #4]
 287 0006 0091     		str	r1, [sp, #0]
 288              		.loc 1 727 0
 289 0008 019B     		ldr	r3, [sp, #4]
 290 000a 1B6A     		ldr	r3, [r3, #32]
 291 000c 0393     		str	r3, [sp, #12]
 292              		.loc 1 728 0
 293 000e 039A     		ldr	r2, [sp, #12]
 294 0010 009B     		ldr	r3, [sp, #0]
 295 0012 9A42     		cmp	r2, r3
 296 0014 17D0     		beq	.L15
 297              		.cfi_offset 14, -4
 298              		.loc 1 743 0
 299 0016 009B     		ldr	r3, [sp, #0]
 300 0018 002B     		cmp	r3, #0
 301 001a 14D0     		beq	.L15
 302              		.loc 1 744 0
 303 001c 019B     		ldr	r3, [sp, #4]
 304 001e 5A78     		ldrb	r2, [r3, #1]	@ zero_extendqisi2
 305 0020 019B     		ldr	r3, [sp, #4]
 306 0022 03F12403 		add	r3, r3, #36
 307 0026 1046     		mov	r0, r2
 308 0028 1946     		mov	r1, r3
 309 002a 009A     		ldr	r2, [sp, #0]
 310 002c 4FF00103 		mov	r3, #1
 311 0030 FFF7FEFF 		bl	disk_read
 312 0034 0346     		mov	r3, r0
 313 0036 002B     		cmp	r3, #0
 314 0038 02D0     		beq	.L16
 315              		.loc 1 745 0
 316 003a 4FF00103 		mov	r3, #1
 317 003e 04E0     		b	.L17
 318              	.L16:
 319              		.loc 1 746 0
 320 0040 019B     		ldr	r3, [sp, #4]
 321 0042 009A     		ldr	r2, [sp, #0]
 322 0044 1A62     		str	r2, [r3, #32]
 323              	.L15:
 324              		.loc 1 750 0
 325 0046 4FF00003 		mov	r3, #0
 326              	.L17:
 327              		.loc 1 751 0
 328 004a 1846     		mov	r0, r3
 329 004c 05B0     		add	sp, sp, #20
 330 004e 00BD     		pop	{pc}
 331              		.cfi_endproc
 332              	.LFE4:
 333              		.size	move_window, .-move_window
 334              		.section	.text.clust2sect,"ax",%progbits
ARM GAS  C:\Users\z80\AppData\Local\Temp\ccWqrhGE.s 			page 7


 335              		.align	2
 336              		.p2align 4,,15
 337              		.global	clust2sect
 338              		.thumb
 339              		.thumb_func
 340              		.type	clust2sect, %function
 341              	clust2sect:
 342              	.LFB5:
 343              		.loc 1 805 0
 344              		.cfi_startproc
 345              		@ args = 0, pretend = 0, frame = 8
 346              		@ frame_needed = 0, uses_anonymous_args = 0
 347              		@ link register save eliminated.
 348 0000 82B0     		sub	sp, sp, #8
 349              	.LCFI6:
 350              		.cfi_def_cfa_offset 8
 351 0002 0190     		str	r0, [sp, #4]
 352 0004 0091     		str	r1, [sp, #0]
 353              		.loc 1 806 0
 354 0006 009B     		ldr	r3, [sp, #0]
 355 0008 A3F10203 		sub	r3, r3, #2
 356 000c 0093     		str	r3, [sp, #0]
 357              		.loc 1 807 0
 358 000e 019B     		ldr	r3, [sp, #4]
 359 0010 DB68     		ldr	r3, [r3, #12]
 360 0012 A3F10202 		sub	r2, r3, #2
 361 0016 009B     		ldr	r3, [sp, #0]
 362 0018 9A42     		cmp	r2, r3
 363 001a 02D8     		bhi	.L19
 364              		.loc 1 807 0 is_stmt 0 discriminator 1
 365 001c 4FF00003 		mov	r3, #0
 366 0020 07E0     		b	.L20
 367              	.L19:
 368              		.loc 1 808 0 is_stmt 1
 369 0022 019B     		ldr	r3, [sp, #4]
 370 0024 9B78     		ldrb	r3, [r3, #2]	@ zero_extendqisi2
 371 0026 009A     		ldr	r2, [sp, #0]
 372 0028 02FB03F2 		mul	r2, r2, r3
 373 002c 019B     		ldr	r3, [sp, #4]
 374 002e DB69     		ldr	r3, [r3, #28]
 375 0030 1344     		add	r3, r2, r3
 376              	.L20:
 377              		.loc 1 809 0
 378 0032 1846     		mov	r0, r3
 379 0034 02B0     		add	sp, sp, #8
 380 0036 7047     		bx	lr
 381              		.cfi_endproc
 382              	.LFE5:
 383              		.size	clust2sect, .-clust2sect
 384 0038 AFF30080 		.section	.text.get_fat,"ax",%progbits
 384      AFF30080 
 385              		.align	2
 386              		.p2align 4,,15
 387              		.global	get_fat
 388              		.thumb
 389              		.thumb_func
 390              		.type	get_fat, %function
ARM GAS  C:\Users\z80\AppData\Local\Temp\ccWqrhGE.s 			page 8


 391              	get_fat:
 392              	.LFB6:
 393              		.loc 1 823 0
 394              		.cfi_startproc
 395              		@ args = 0, pretend = 0, frame = 24
 396              		@ frame_needed = 0, uses_anonymous_args = 0
 397 0000 00B5     		push	{lr}
 398              	.LCFI7:
 399              		.cfi_def_cfa_offset 4
 400 0002 87B0     		sub	sp, sp, #28
 401              	.LCFI8:
 402              		.cfi_def_cfa_offset 32
 403 0004 0190     		str	r0, [sp, #4]
 404 0006 0091     		str	r1, [sp, #0]
 405              		.loc 1 828 0
 406 0008 009B     		ldr	r3, [sp, #0]
 407 000a 012B     		cmp	r3, #1
 408 000c 04D9     		bls	.L22
 409              		.cfi_offset 14, -4
 410              		.loc 1 828 0 is_stmt 0 discriminator 1
 411 000e 019B     		ldr	r3, [sp, #4]
 412 0010 DA68     		ldr	r2, [r3, #12]
 413 0012 009B     		ldr	r3, [sp, #0]
 414 0014 9A42     		cmp	r2, r3
 415 0016 02D8     		bhi	.L23
 416              	.L22:
 417              		.loc 1 829 0 is_stmt 1
 418 0018 4FF00103 		mov	r3, #1
 419 001c BEE0     		b	.L24
 420              	.L23:
 421              		.loc 1 831 0
 422 001e 019B     		ldr	r3, [sp, #4]
 423 0020 1B78     		ldrb	r3, [r3, #0]	@ zero_extendqisi2
 424 0022 022B     		cmp	r3, #2
 425 0024 54D0     		beq	.L27
 426 0026 032B     		cmp	r3, #3
 427 0028 79D0     		beq	.L28
 428 002a 012B     		cmp	r3, #1
 429 002c 40F0B480 		bne	.L25
 430              	.L26:
 431              		.loc 1 833 0
 432 0030 009B     		ldr	r3, [sp, #0]
 433 0032 0593     		str	r3, [sp, #20]
 434 0034 059B     		ldr	r3, [sp, #20]
 435 0036 4FEA5303 		lsr	r3, r3, #1
 436 003a 059A     		ldr	r2, [sp, #20]
 437 003c 1344     		add	r3, r2, r3
 438 003e 0593     		str	r3, [sp, #20]
 439              		.loc 1 834 0
 440 0040 019B     		ldr	r3, [sp, #4]
 441 0042 5A69     		ldr	r2, [r3, #20]
 442 0044 059B     		ldr	r3, [sp, #20]
 443 0046 4FEA5323 		lsr	r3, r3, #9
 444 004a 1344     		add	r3, r2, r3
 445 004c 0198     		ldr	r0, [sp, #4]
 446 004e 1946     		mov	r1, r3
 447 0050 FFF7FEFF 		bl	move_window
ARM GAS  C:\Users\z80\AppData\Local\Temp\ccWqrhGE.s 			page 9


 448 0054 0346     		mov	r3, r0
 449 0056 002B     		cmp	r3, #0
 450 0058 40F09780 		bne	.L35
 451              	.L29:
 452              		.loc 1 835 0
 453 005c 059B     		ldr	r3, [sp, #20]
 454 005e 4FEAC353 		lsl	r3, r3, #23
 455 0062 4FEAD353 		lsr	r3, r3, #23
 456 0066 019A     		ldr	r2, [sp, #4]
 457 0068 1344     		add	r3, r2, r3
 458 006a 93F82430 		ldrb	r3, [r3, #36]	@ zero_extendqisi2
 459 006e 0493     		str	r3, [sp, #16]
 460 0070 059B     		ldr	r3, [sp, #20]
 461 0072 03F10103 		add	r3, r3, #1
 462 0076 0593     		str	r3, [sp, #20]
 463              		.loc 1 836 0
 464 0078 019B     		ldr	r3, [sp, #4]
 465 007a 5A69     		ldr	r2, [r3, #20]
 466 007c 059B     		ldr	r3, [sp, #20]
 467 007e 4FEA5323 		lsr	r3, r3, #9
 468 0082 1344     		add	r3, r2, r3
 469 0084 0198     		ldr	r0, [sp, #4]
 470 0086 1946     		mov	r1, r3
 471 0088 FFF7FEFF 		bl	move_window
 472 008c 0346     		mov	r3, r0
 473 008e 002B     		cmp	r3, #0
 474 0090 7DD1     		bne	.L36
 475              	.L30:
 476              		.loc 1 837 0
 477 0092 059B     		ldr	r3, [sp, #20]
 478 0094 4FEAC353 		lsl	r3, r3, #23
 479 0098 4FEAD353 		lsr	r3, r3, #23
 480 009c 019A     		ldr	r2, [sp, #4]
 481 009e 1344     		add	r3, r2, r3
 482 00a0 93F82430 		ldrb	r3, [r3, #36]	@ zero_extendqisi2
 483 00a4 4FEA0323 		lsl	r3, r3, #8
 484 00a8 049A     		ldr	r2, [sp, #16]
 485 00aa 42EA0303 		orr	r3, r2, r3
 486 00ae 0493     		str	r3, [sp, #16]
 487              		.loc 1 838 0
 488 00b0 009B     		ldr	r3, [sp, #0]
 489 00b2 03F00103 		and	r3, r3, #1
 490 00b6 DBB2     		uxtb	r3, r3
 491 00b8 002B     		cmp	r3, #0
 492 00ba 03D0     		beq	.L31
 493              		.loc 1 838 0 is_stmt 0 discriminator 1
 494 00bc 049B     		ldr	r3, [sp, #16]
 495 00be 4FEA1313 		lsr	r3, r3, #4
 496 00c2 04E0     		b	.L32
 497              	.L31:
 498              		.loc 1 838 0 discriminator 2
 499 00c4 049B     		ldr	r3, [sp, #16]
 500 00c6 4FEA0353 		lsl	r3, r3, #20
 501 00ca 4FEA1353 		lsr	r3, r3, #20
 502              	.L32:
 503              		.loc 1 838 0 discriminator 3
 504 00ce 65E0     		b	.L24
ARM GAS  C:\Users\z80\AppData\Local\Temp\ccWqrhGE.s 			page 10


 505              	.L27:
 506              		.loc 1 841 0 is_stmt 1
 507 00d0 019B     		ldr	r3, [sp, #4]
 508 00d2 5A69     		ldr	r2, [r3, #20]
 509 00d4 009B     		ldr	r3, [sp, #0]
 510 00d6 4FEA1323 		lsr	r3, r3, #8
 511 00da 1344     		add	r3, r2, r3
 512 00dc 0198     		ldr	r0, [sp, #4]
 513 00de 1946     		mov	r1, r3
 514 00e0 FFF7FEFF 		bl	move_window
 515 00e4 0346     		mov	r3, r0
 516 00e6 002B     		cmp	r3, #0
 517 00e8 53D1     		bne	.L37
 518              	.L33:
 519              		.loc 1 842 0
 520 00ea 019B     		ldr	r3, [sp, #4]
 521 00ec 03F12402 		add	r2, r3, #36
 522 00f0 009B     		ldr	r3, [sp, #0]
 523 00f2 4FEA4303 		lsl	r3, r3, #1
 524 00f6 4FEAC353 		lsl	r3, r3, #23
 525 00fa 4FEAD353 		lsr	r3, r3, #23
 526 00fe 1344     		add	r3, r2, r3
 527 0100 0393     		str	r3, [sp, #12]
 528              		.loc 1 843 0
 529 0102 039B     		ldr	r3, [sp, #12]
 530 0104 03F10103 		add	r3, r3, #1
 531 0108 1B78     		ldrb	r3, [r3, #0]	@ zero_extendqisi2
 532 010a 4FEA0323 		lsl	r3, r3, #8
 533 010e 9AB2     		uxth	r2, r3
 534 0110 039B     		ldr	r3, [sp, #12]
 535 0112 1B78     		ldrb	r3, [r3, #0]	@ zero_extendqisi2
 536 0114 42EA0303 		orr	r3, r2, r3
 537 0118 9BB2     		uxth	r3, r3
 538 011a 9BB2     		uxth	r3, r3
 539 011c 3EE0     		b	.L24
 540              	.L28:
 541              		.loc 1 846 0
 542 011e 019B     		ldr	r3, [sp, #4]
 543 0120 5A69     		ldr	r2, [r3, #20]
 544 0122 009B     		ldr	r3, [sp, #0]
 545 0124 4FEAD313 		lsr	r3, r3, #7
 546 0128 1344     		add	r3, r2, r3
 547 012a 0198     		ldr	r0, [sp, #4]
 548 012c 1946     		mov	r1, r3
 549 012e FFF7FEFF 		bl	move_window
 550 0132 0346     		mov	r3, r0
 551 0134 002B     		cmp	r3, #0
 552 0136 2ED1     		bne	.L38
 553              	.L34:
 554              		.loc 1 847 0
 555 0138 019B     		ldr	r3, [sp, #4]
 556 013a 03F12402 		add	r2, r3, #36
 557 013e 009B     		ldr	r3, [sp, #0]
 558 0140 4FEA8303 		lsl	r3, r3, #2
 559 0144 4FEAC353 		lsl	r3, r3, #23
 560 0148 4FEAD353 		lsr	r3, r3, #23
 561 014c 1344     		add	r3, r2, r3
ARM GAS  C:\Users\z80\AppData\Local\Temp\ccWqrhGE.s 			page 11


 562 014e 0393     		str	r3, [sp, #12]
 563              		.loc 1 848 0
 564 0150 039B     		ldr	r3, [sp, #12]
 565 0152 03F10303 		add	r3, r3, #3
 566 0156 1B78     		ldrb	r3, [r3, #0]	@ zero_extendqisi2
 567 0158 4FEA0362 		lsl	r2, r3, #24
 568 015c 039B     		ldr	r3, [sp, #12]
 569 015e 03F10203 		add	r3, r3, #2
 570 0162 1B78     		ldrb	r3, [r3, #0]	@ zero_extendqisi2
 571 0164 4FEA0343 		lsl	r3, r3, #16
 572 0168 42EA0302 		orr	r2, r2, r3
 573 016c 039B     		ldr	r3, [sp, #12]
 574 016e 03F10103 		add	r3, r3, #1
 575 0172 1B78     		ldrb	r3, [r3, #0]	@ zero_extendqisi2
 576 0174 4FEA0323 		lsl	r3, r3, #8
 577 0178 42EA0302 		orr	r2, r2, r3
 578 017c 039B     		ldr	r3, [sp, #12]
 579 017e 1B78     		ldrb	r3, [r3, #0]	@ zero_extendqisi2
 580 0180 42EA0303 		orr	r3, r2, r3
 581 0184 23F07043 		bic	r3, r3, #-268435456
 582 0188 08E0     		b	.L24
 583              	.L35:
 584              		.loc 1 834 0
 585 018a 00BF     		nop
 586 018c 04E0     		b	.L25
 587              	.L36:
 588              		.loc 1 836 0
 589 018e 00BF     		nop
 590 0190 02E0     		b	.L25
 591              	.L37:
 592              		.loc 1 841 0
 593 0192 00BF     		nop
 594 0194 00E0     		b	.L25
 595              	.L38:
 596              		.loc 1 846 0
 597 0196 00BF     		nop
 598              	.L25:
 599              		.loc 1 851 0
 600 0198 4FF0FF33 		mov	r3, #-1
 601              	.L24:
 602              		.loc 1 852 0
 603 019c 1846     		mov	r0, r3
 604 019e 07B0     		add	sp, sp, #28
 605 01a0 00BD     		pop	{pc}
 606              		.cfi_endproc
 607              	.LFE6:
 608              		.size	get_fat, .-get_fat
 609 01a2 00BFAFF3 		.section	.text.dir_sdi,"ax",%progbits
 609      0080AFF3 
 609      0080AFF3 
 609      0080
 610              		.align	2
 611              		.p2align 4,,15
 612              		.thumb
 613              		.thumb_func
 614              		.type	dir_sdi, %function
 615              	dir_sdi:
ARM GAS  C:\Users\z80\AppData\Local\Temp\ccWqrhGE.s 			page 12


 616              	.LFB7:
 617              		.loc 1 1069 0
 618              		.cfi_startproc
 619              		@ args = 0, pretend = 0, frame = 16
 620              		@ frame_needed = 0, uses_anonymous_args = 0
 621 0000 00B5     		push	{lr}
 622              	.LCFI9:
 623              		.cfi_def_cfa_offset 4
 624 0002 85B0     		sub	sp, sp, #20
 625              	.LCFI10:
 626              		.cfi_def_cfa_offset 24
 627 0004 0190     		str	r0, [sp, #4]
 628 0006 0B46     		mov	r3, r1
 629 0008 ADF80230 		strh	r3, [sp, #2]	@ movhi
 630              		.loc 1 1074 0
 631 000c 019B     		ldr	r3, [sp, #4]
 632 000e BDF80220 		ldrh	r2, [sp, #2]	@ movhi
 633 0012 DA80     		strh	r2, [r3, #6]	@ movhi
 634              		.loc 1 1075 0
 635 0014 019B     		ldr	r3, [sp, #4]
 636 0016 9B68     		ldr	r3, [r3, #8]
 637 0018 0393     		str	r3, [sp, #12]
 638              		.loc 1 1076 0
 639 001a 039B     		ldr	r3, [sp, #12]
 640 001c 012B     		cmp	r3, #1
 641 001e 05D0     		beq	.L40
 642              		.cfi_offset 14, -4
 643              		.loc 1 1076 0 is_stmt 0 discriminator 1
 644 0020 019B     		ldr	r3, [sp, #4]
 645 0022 1B68     		ldr	r3, [r3, #0]
 646 0024 DA68     		ldr	r2, [r3, #12]
 647 0026 039B     		ldr	r3, [sp, #12]
 648 0028 9A42     		cmp	r2, r3
 649 002a 02D8     		bhi	.L41
 650              	.L40:
 651              		.loc 1 1077 0 is_stmt 1
 652 002c 4FF00203 		mov	r3, #2
 653 0030 79E0     		b	.L42
 654              	.L41:
 655              		.loc 1 1078 0
 656 0032 039B     		ldr	r3, [sp, #12]
 657 0034 002B     		cmp	r3, #0
 658 0036 08D1     		bne	.L43
 659              		.loc 1 1078 0 is_stmt 0 discriminator 1
 660 0038 019B     		ldr	r3, [sp, #4]
 661 003a 1B68     		ldr	r3, [r3, #0]
 662 003c 1B78     		ldrb	r3, [r3, #0]	@ zero_extendqisi2
 663 003e 032B     		cmp	r3, #3
 664 0040 03D1     		bne	.L43
 665              		.loc 1 1079 0 is_stmt 1
 666 0042 019B     		ldr	r3, [sp, #4]
 667 0044 1B68     		ldr	r3, [r3, #0]
 668 0046 9B69     		ldr	r3, [r3, #24]
 669 0048 0393     		str	r3, [sp, #12]
 670              	.L43:
 671              		.loc 1 1081 0
 672 004a 039B     		ldr	r3, [sp, #12]
ARM GAS  C:\Users\z80\AppData\Local\Temp\ccWqrhGE.s 			page 13


 673 004c 002B     		cmp	r3, #0
 674 004e 18D1     		bne	.L44
 675              		.loc 1 1082 0
 676 0050 019B     		ldr	r3, [sp, #4]
 677 0052 039A     		ldr	r2, [sp, #12]
 678 0054 DA60     		str	r2, [r3, #12]
 679              		.loc 1 1083 0
 680 0056 019B     		ldr	r3, [sp, #4]
 681 0058 1B68     		ldr	r3, [r3, #0]
 682 005a 1B89     		ldrh	r3, [r3, #8]
 683 005c BDF80220 		ldrh	r2, [sp, #2]
 684 0060 9A42     		cmp	r2, r3
 685 0062 02D3     		bcc	.L45
 686              		.loc 1 1084 0
 687 0064 4FF00203 		mov	r3, #2
 688 0068 5DE0     		b	.L42
 689              	.L45:
 690              		.loc 1 1085 0
 691 006a 019B     		ldr	r3, [sp, #4]
 692 006c 1B68     		ldr	r3, [r3, #0]
 693 006e 9A69     		ldr	r2, [r3, #24]
 694 0070 BDF80230 		ldrh	r3, [sp, #2]
 695 0074 4FEA1313 		lsr	r3, r3, #4
 696 0078 9BB2     		uxth	r3, r3
 697 007a 1A44     		add	r2, r2, r3
 698 007c 019B     		ldr	r3, [sp, #4]
 699 007e 1A61     		str	r2, [r3, #16]
 700 0080 42E0     		b	.L46
 701              	.L44:
 702              		.loc 1 1088 0
 703 0082 019B     		ldr	r3, [sp, #4]
 704 0084 1B68     		ldr	r3, [r3, #0]
 705 0086 9B78     		ldrb	r3, [r3, #2]	@ zero_extendqisi2
 706 0088 4FEA0313 		lsl	r3, r3, #4
 707 008c ADF80A30 		strh	r3, [sp, #10]	@ movhi
 708              		.loc 1 1089 0
 709 0090 22E0     		b	.L47
 710              	.L51:
 711              		.loc 1 1090 0
 712 0092 019B     		ldr	r3, [sp, #4]
 713 0094 1B68     		ldr	r3, [r3, #0]
 714 0096 1846     		mov	r0, r3
 715 0098 0399     		ldr	r1, [sp, #12]
 716 009a FFF7FEFF 		bl	get_fat
 717 009e 0346     		mov	r3, r0
 718 00a0 0393     		str	r3, [sp, #12]
 719              		.loc 1 1091 0
 720 00a2 039B     		ldr	r3, [sp, #12]
 721 00a4 B3F1FF3F 		cmp	r3, #-1
 722 00a8 02D1     		bne	.L48
 723              		.loc 1 1091 0 is_stmt 0 discriminator 1
 724 00aa 4FF00103 		mov	r3, #1
 725 00ae 3AE0     		b	.L42
 726              	.L48:
 727              		.loc 1 1092 0 is_stmt 1
 728 00b0 039B     		ldr	r3, [sp, #12]
 729 00b2 012B     		cmp	r3, #1
ARM GAS  C:\Users\z80\AppData\Local\Temp\ccWqrhGE.s 			page 14


 730 00b4 05D9     		bls	.L49
 731              		.loc 1 1092 0 is_stmt 0 discriminator 1
 732 00b6 019B     		ldr	r3, [sp, #4]
 733 00b8 1B68     		ldr	r3, [r3, #0]
 734 00ba DA68     		ldr	r2, [r3, #12]
 735 00bc 039B     		ldr	r3, [sp, #12]
 736 00be 9A42     		cmp	r2, r3
 737 00c0 02D8     		bhi	.L50
 738              	.L49:
 739              		.loc 1 1093 0 is_stmt 1
 740 00c2 4FF00203 		mov	r3, #2
 741 00c6 2EE0     		b	.L42
 742              	.L50:
 743              		.loc 1 1094 0
 744 00c8 BDF80220 		ldrh	r2, [sp, #2]	@ movhi
 745 00cc BDF80A30 		ldrh	r3, [sp, #10]	@ movhi
 746 00d0 C3EB0203 		rsb	r3, r3, r2
 747 00d4 ADF80230 		strh	r3, [sp, #2]	@ movhi
 748              	.L47:
 749              		.loc 1 1089 0 discriminator 1
 750 00d8 BDF80220 		ldrh	r2, [sp, #2]
 751 00dc BDF80A30 		ldrh	r3, [sp, #10]
 752 00e0 9A42     		cmp	r2, r3
 753 00e2 D6D2     		bcs	.L51
 754              		.loc 1 1096 0
 755 00e4 019B     		ldr	r3, [sp, #4]
 756 00e6 039A     		ldr	r2, [sp, #12]
 757 00e8 DA60     		str	r2, [r3, #12]
 758              		.loc 1 1097 0
 759 00ea 019B     		ldr	r3, [sp, #4]
 760 00ec 1B68     		ldr	r3, [r3, #0]
 761 00ee 1846     		mov	r0, r3
 762 00f0 0399     		ldr	r1, [sp, #12]
 763 00f2 FFF7FEFF 		bl	clust2sect
 764 00f6 0246     		mov	r2, r0
 765 00f8 BDF80230 		ldrh	r3, [sp, #2]
 766 00fc 4FEA1313 		lsr	r3, r3, #4
 767 0100 9BB2     		uxth	r3, r3
 768 0102 1A44     		add	r2, r2, r3
 769 0104 019B     		ldr	r3, [sp, #4]
 770 0106 1A61     		str	r2, [r3, #16]
 771              	.L46:
 772              		.loc 1 1100 0
 773 0108 019B     		ldr	r3, [sp, #4]
 774 010a 1B68     		ldr	r3, [r3, #0]
 775 010c 03F12402 		add	r2, r3, #36
 776 0110 BDF80230 		ldrh	r3, [sp, #2]
 777 0114 03F00F03 		and	r3, r3, #15
 778 0118 4FEA4313 		lsl	r3, r3, #5
 779 011c 1A44     		add	r2, r2, r3
 780 011e 019B     		ldr	r3, [sp, #4]
 781 0120 5A61     		str	r2, [r3, #20]
 782              		.loc 1 1102 0
 783 0122 4FF00003 		mov	r3, #0
 784              	.L42:
 785              		.loc 1 1103 0
 786 0126 1846     		mov	r0, r3
ARM GAS  C:\Users\z80\AppData\Local\Temp\ccWqrhGE.s 			page 15


 787 0128 05B0     		add	sp, sp, #20
 788 012a 00BD     		pop	{pc}
 789              		.cfi_endproc
 790              	.LFE7:
 791              		.size	dir_sdi, .-dir_sdi
 792 012c AFF30080 		.section	.text.dir_next,"ax",%progbits
 793              		.align	2
 794              		.p2align 4,,15
 795              		.thumb
 796              		.thumb_func
 797              		.type	dir_next, %function
 798              	dir_next:
 799              	.LFB8:
 800              		.loc 1 1117 0
 801              		.cfi_startproc
 802              		@ args = 0, pretend = 0, frame = 16
 803              		@ frame_needed = 0, uses_anonymous_args = 0
 804 0000 00B5     		push	{lr}
 805              	.LCFI11:
 806              		.cfi_def_cfa_offset 4
 807 0002 85B0     		sub	sp, sp, #20
 808              	.LCFI12:
 809              		.cfi_def_cfa_offset 24
 810 0004 0190     		str	r0, [sp, #4]
 811 0006 0091     		str	r1, [sp, #0]
 812              		.loc 1 1123 0
 813 0008 019B     		ldr	r3, [sp, #4]
 814 000a DB88     		ldrh	r3, [r3, #6]
 815 000c 03F10103 		add	r3, r3, #1
 816 0010 ADF80E30 		strh	r3, [sp, #14]	@ movhi
 817              		.loc 1 1124 0
 818 0014 BDF80E30 		ldrh	r3, [sp, #14]
 819 0018 002B     		cmp	r3, #0
 820 001a 03D0     		beq	.L53
 821              		.cfi_offset 14, -4
 822              		.loc 1 1124 0 is_stmt 0 discriminator 1
 823 001c 019B     		ldr	r3, [sp, #4]
 824 001e 1B69     		ldr	r3, [r3, #16]
 825 0020 002B     		cmp	r3, #0
 826 0022 02D1     		bne	.L54
 827              	.L53:
 828              		.loc 1 1125 0 is_stmt 1
 829 0024 4FF00403 		mov	r3, #4
 830 0028 6AE0     		b	.L55
 831              	.L54:
 832              		.loc 1 1127 0
 833 002a BDF80E30 		ldrh	r3, [sp, #14]	@ movhi
 834 002e 03F00F03 		and	r3, r3, #15
 835 0032 9BB2     		uxth	r3, r3
 836 0034 002B     		cmp	r3, #0
 837 0036 50D1     		bne	.L56
 838              		.loc 1 1128 0
 839 0038 019B     		ldr	r3, [sp, #4]
 840 003a 1B69     		ldr	r3, [r3, #16]
 841 003c 03F10102 		add	r2, r3, #1
 842 0040 019B     		ldr	r3, [sp, #4]
 843 0042 1A61     		str	r2, [r3, #16]
ARM GAS  C:\Users\z80\AppData\Local\Temp\ccWqrhGE.s 			page 16


 844              		.loc 1 1130 0
 845 0044 019B     		ldr	r3, [sp, #4]
 846 0046 DB68     		ldr	r3, [r3, #12]
 847 0048 002B     		cmp	r3, #0
 848 004a 09D1     		bne	.L57
 849              		.loc 1 1131 0
 850 004c 019B     		ldr	r3, [sp, #4]
 851 004e 1B68     		ldr	r3, [r3, #0]
 852 0050 1B89     		ldrh	r3, [r3, #8]
 853 0052 BDF80E20 		ldrh	r2, [sp, #14]
 854 0056 9A42     		cmp	r2, r3
 855 0058 3ED3     		bcc	.L62
 856              		.loc 1 1132 0
 857 005a 4FF00403 		mov	r3, #4
 858 005e 4FE0     		b	.L55
 859              	.L57:
 860              		.loc 1 1135 0
 861 0060 BDF80E30 		ldrh	r3, [sp, #14]
 862 0064 4FEA1313 		lsr	r3, r3, #4
 863 0068 9BB2     		uxth	r3, r3
 864 006a 1A46     		mov	r2, r3
 865 006c 019B     		ldr	r3, [sp, #4]
 866 006e 1B68     		ldr	r3, [r3, #0]
 867 0070 9B78     		ldrb	r3, [r3, #2]	@ zero_extendqisi2
 868 0072 03F1FF33 		add	r3, r3, #-1
 869 0076 02EA0303 		and	r3, r2, r3
 870 007a 002B     		cmp	r3, #0
 871 007c 2DD1     		bne	.L56
 872              		.loc 1 1136 0
 873 007e 019B     		ldr	r3, [sp, #4]
 874 0080 1A68     		ldr	r2, [r3, #0]
 875 0082 019B     		ldr	r3, [sp, #4]
 876 0084 DB68     		ldr	r3, [r3, #12]
 877 0086 1046     		mov	r0, r2
 878 0088 1946     		mov	r1, r3
 879 008a FFF7FEFF 		bl	get_fat
 880 008e 0346     		mov	r3, r0
 881 0090 0293     		str	r3, [sp, #8]
 882              		.loc 1 1137 0
 883 0092 029B     		ldr	r3, [sp, #8]
 884 0094 012B     		cmp	r3, #1
 885 0096 02D8     		bhi	.L59
 886              		.loc 1 1137 0 is_stmt 0 discriminator 1
 887 0098 4FF00203 		mov	r3, #2
 888 009c 30E0     		b	.L55
 889              	.L59:
 890              		.loc 1 1138 0 is_stmt 1
 891 009e 029B     		ldr	r3, [sp, #8]
 892 00a0 B3F1FF3F 		cmp	r3, #-1
 893 00a4 02D1     		bne	.L60
 894              		.loc 1 1138 0 is_stmt 0 discriminator 1
 895 00a6 4FF00103 		mov	r3, #1
 896 00aa 29E0     		b	.L55
 897              	.L60:
 898              		.loc 1 1139 0 is_stmt 1
 899 00ac 019B     		ldr	r3, [sp, #4]
 900 00ae 1B68     		ldr	r3, [r3, #0]
ARM GAS  C:\Users\z80\AppData\Local\Temp\ccWqrhGE.s 			page 17


 901 00b0 DA68     		ldr	r2, [r3, #12]
 902 00b2 029B     		ldr	r3, [sp, #8]
 903 00b4 9A42     		cmp	r2, r3
 904 00b6 02D8     		bhi	.L61
 905              		.loc 1 1158 0
 906 00b8 4FF00403 		mov	r3, #4
 907 00bc 20E0     		b	.L55
 908              	.L61:
 909              		.loc 1 1161 0
 910 00be 019B     		ldr	r3, [sp, #4]
 911 00c0 029A     		ldr	r2, [sp, #8]
 912 00c2 DA60     		str	r2, [r3, #12]
 913              		.loc 1 1162 0
 914 00c4 019B     		ldr	r3, [sp, #4]
 915 00c6 1B68     		ldr	r3, [r3, #0]
 916 00c8 1846     		mov	r0, r3
 917 00ca 0299     		ldr	r1, [sp, #8]
 918 00cc FFF7FEFF 		bl	clust2sect
 919 00d0 0246     		mov	r2, r0
 920 00d2 019B     		ldr	r3, [sp, #4]
 921 00d4 1A61     		str	r2, [r3, #16]
 922 00d6 00E0     		b	.L56
 923              	.L62:
 924              		.loc 1 1132 0
 925 00d8 00BF     		nop
 926              	.L56:
 927              		.loc 1 1167 0
 928 00da 019B     		ldr	r3, [sp, #4]
 929 00dc BDF80E20 		ldrh	r2, [sp, #14]	@ movhi
 930 00e0 DA80     		strh	r2, [r3, #6]	@ movhi
 931              		.loc 1 1168 0
 932 00e2 019B     		ldr	r3, [sp, #4]
 933 00e4 1B68     		ldr	r3, [r3, #0]
 934 00e6 03F12402 		add	r2, r3, #36
 935 00ea BDF80E30 		ldrh	r3, [sp, #14]
 936 00ee 03F00F03 		and	r3, r3, #15
 937 00f2 4FEA4313 		lsl	r3, r3, #5
 938 00f6 1A44     		add	r2, r2, r3
 939 00f8 019B     		ldr	r3, [sp, #4]
 940 00fa 5A61     		str	r2, [r3, #20]
 941              		.loc 1 1170 0
 942 00fc 4FF00003 		mov	r3, #0
 943              	.L55:
 944              		.loc 1 1171 0
 945 0100 1846     		mov	r0, r3
 946 0102 05B0     		add	sp, sp, #20
 947 0104 00BD     		pop	{pc}
 948              		.cfi_endproc
 949              	.LFE8:
 950              		.size	dir_next, .-dir_next
 951 0106 00BFAFF3 		.section	.text.dir_find,"ax",%progbits
 951      0080AFF3 
 951      0080
 952              		.align	2
 953              		.p2align 4,,15
 954              		.thumb
 955              		.thumb_func
ARM GAS  C:\Users\z80\AppData\Local\Temp\ccWqrhGE.s 			page 18


 956              		.type	dir_find, %function
 957              	dir_find:
 958              	.LFB9:
 959              		.loc 1 1356 0
 960              		.cfi_startproc
 961              		@ args = 0, pretend = 0, frame = 24
 962              		@ frame_needed = 0, uses_anonymous_args = 0
 963 0000 00B5     		push	{lr}
 964              	.LCFI13:
 965              		.cfi_def_cfa_offset 4
 966 0002 87B0     		sub	sp, sp, #28
 967              	.LCFI14:
 968              		.cfi_def_cfa_offset 32
 969 0004 0190     		str	r0, [sp, #4]
 970              		.loc 1 1363 0
 971 0006 0198     		ldr	r0, [sp, #4]
 972 0008 4FF00001 		mov	r1, #0
 973              		.cfi_offset 14, -4
 974 000c FFF7FEFF 		bl	dir_sdi
 975 0010 0346     		mov	r3, r0
 976 0012 8DF81730 		strb	r3, [sp, #23]
 977              		.loc 1 1364 0
 978 0016 9DF81730 		ldrb	r3, [sp, #23]	@ zero_extendqisi2
 979 001a 002B     		cmp	r3, #0
 980 001c 02D0     		beq	.L64
 981              		.loc 1 1364 0 is_stmt 0 discriminator 1
 982 001e 9DF81730 		ldrb	r3, [sp, #23]	@ zero_extendqisi2
 983 0022 43E0     		b	.L65
 984              	.L64:
 985              		.loc 1 1370 0 is_stmt 1
 986 0024 019B     		ldr	r3, [sp, #4]
 987 0026 1A68     		ldr	r2, [r3, #0]
 988 0028 019B     		ldr	r3, [sp, #4]
 989 002a 1B69     		ldr	r3, [r3, #16]
 990 002c 1046     		mov	r0, r2
 991 002e 1946     		mov	r1, r3
 992 0030 FFF7FEFF 		bl	move_window
 993 0034 0346     		mov	r3, r0
 994 0036 8DF81730 		strb	r3, [sp, #23]
 995              		.loc 1 1371 0
 996 003a 9DF81730 		ldrb	r3, [sp, #23]	@ zero_extendqisi2
 997 003e 002B     		cmp	r3, #0
 998 0040 2FD1     		bne	.L70
 999              	.L66:
 1000              		.loc 1 1372 0
 1001 0042 019B     		ldr	r3, [sp, #4]
 1002 0044 5B69     		ldr	r3, [r3, #20]
 1003 0046 0493     		str	r3, [sp, #16]
 1004              		.loc 1 1373 0
 1005 0048 049B     		ldr	r3, [sp, #16]
 1006 004a 1B78     		ldrb	r3, [r3, #0]
 1007 004c 8DF80F30 		strb	r3, [sp, #15]
 1008              		.loc 1 1374 0
 1009 0050 9DF80F30 		ldrb	r3, [sp, #15]	@ zero_extendqisi2
 1010 0054 002B     		cmp	r3, #0
 1011 0056 04D1     		bne	.L68
 1012              		.loc 1 1374 0 is_stmt 0 discriminator 1
ARM GAS  C:\Users\z80\AppData\Local\Temp\ccWqrhGE.s 			page 19


 1013 0058 4FF00403 		mov	r3, #4
 1014 005c 8DF81730 		strb	r3, [sp, #23]
 1015 0060 22E0     		b	.L67
 1016              	.L68:
 1017              		.loc 1 1397 0 is_stmt 1
 1018 0062 049B     		ldr	r3, [sp, #16]
 1019 0064 03F10B03 		add	r3, r3, #11
 1020 0068 1B78     		ldrb	r3, [r3, #0]	@ zero_extendqisi2
 1021 006a 03F00803 		and	r3, r3, #8
 1022 006e 002B     		cmp	r3, #0
 1023 0070 0AD1     		bne	.L69
 1024              		.loc 1 1397 0 is_stmt 0 discriminator 1
 1025 0072 019B     		ldr	r3, [sp, #4]
 1026 0074 9B69     		ldr	r3, [r3, #24]
 1027 0076 0498     		ldr	r0, [sp, #16]
 1028 0078 1946     		mov	r1, r3
 1029 007a 4FF00B02 		mov	r2, #11
 1030 007e FFF7FEFF 		bl	mem_cmp
 1031 0082 0346     		mov	r3, r0
 1032 0084 002B     		cmp	r3, #0
 1033 0086 0ED0     		beq	.L71
 1034              	.L69:
 1035              		.loc 1 1400 0 is_stmt 1
 1036 0088 0198     		ldr	r0, [sp, #4]
 1037 008a 4FF00001 		mov	r1, #0
 1038 008e FFF7FEFF 		bl	dir_next
 1039 0092 0346     		mov	r3, r0
 1040 0094 8DF81730 		strb	r3, [sp, #23]
 1041              		.loc 1 1401 0
 1042 0098 9DF81730 		ldrb	r3, [sp, #23]	@ zero_extendqisi2
 1043 009c 002B     		cmp	r3, #0
 1044 009e C1D0     		beq	.L64
 1045 00a0 02E0     		b	.L67
 1046              	.L70:
 1047              		.loc 1 1371 0
 1048 00a2 00BF     		nop
 1049 00a4 00E0     		b	.L67
 1050              	.L71:
 1051              		.loc 1 1398 0
 1052 00a6 00BF     		nop
 1053              	.L67:
 1054              		.loc 1 1403 0
 1055 00a8 9DF81730 		ldrb	r3, [sp, #23]	@ zero_extendqisi2
 1056              	.L65:
 1057              		.loc 1 1404 0
 1058 00ac 1846     		mov	r0, r3
 1059 00ae 07B0     		add	sp, sp, #28
 1060 00b0 00BD     		pop	{pc}
 1061              		.cfi_endproc
 1062              	.LFE9:
 1063              		.size	dir_find, .-dir_find
 1064 00b2 00BFAFF3 		.section	.rodata
 1064      0080AFF3 
 1064      0080AFF3 
 1064      0080
 1065              		.align	2
 1066              	.LC0:
ARM GAS  C:\Users\z80\AppData\Local\Temp\ccWqrhGE.s 			page 20


 1067 0000 222A2B2C 		.ascii	"\"*+,:;<=>?[]|\177\000"
 1067      3A3B3C3D 
 1067      3E3F5B5D 
 1067      7C7F00
 1068 000f 00       		.section	.text.create_name,"ax",%progbits
 1069              		.align	2
 1070              		.p2align 4,,15
 1071              		.thumb
 1072              		.thumb_func
 1073              		.type	create_name, %function
 1074              	create_name:
 1075              	.LFB10:
 1076              		.loc 1 1627 0
 1077              		.cfi_startproc
 1078              		@ args = 0, pretend = 0, frame = 32
 1079              		@ frame_needed = 0, uses_anonymous_args = 0
 1080 0000 00B5     		push	{lr}
 1081              	.LCFI15:
 1082              		.cfi_def_cfa_offset 4
 1083 0002 89B0     		sub	sp, sp, #36
 1084              	.LCFI16:
 1085              		.cfi_def_cfa_offset 40
 1086 0004 0190     		str	r0, [sp, #4]
 1087 0006 0091     		str	r1, [sp, #0]
 1088              		.loc 1 1759 0
 1089 0008 009B     		ldr	r3, [sp, #0]
 1090 000a 1B68     		ldr	r3, [r3, #0]
 1091 000c 0393     		str	r3, [sp, #12]
 1092 000e 03E0     		b	.L73
 1093              		.cfi_offset 14, -4
 1094              	.L74:
 1095              		.loc 1 1759 0 is_stmt 0 discriminator 2
 1096 0010 039B     		ldr	r3, [sp, #12]
 1097 0012 03F10103 		add	r3, r3, #1
 1098 0016 0393     		str	r3, [sp, #12]
 1099              	.L73:
 1100              		.loc 1 1759 0 discriminator 1
 1101 0018 039B     		ldr	r3, [sp, #12]
 1102 001a 1B78     		ldrb	r3, [r3, #0]	@ zero_extendqisi2
 1103 001c 2F2B     		cmp	r3, #47
 1104 001e F7D0     		beq	.L74
 1105              		.loc 1 1759 0 discriminator 3
 1106 0020 039B     		ldr	r3, [sp, #12]
 1107 0022 1B78     		ldrb	r3, [r3, #0]	@ zero_extendqisi2
 1108 0024 5C2B     		cmp	r3, #92
 1109 0026 F3D0     		beq	.L74
 1110              		.loc 1 1760 0 is_stmt 1
 1111 0028 019B     		ldr	r3, [sp, #4]
 1112 002a 9B69     		ldr	r3, [r3, #24]
 1113 002c 0293     		str	r3, [sp, #8]
 1114              		.loc 1 1761 0
 1115 002e 0298     		ldr	r0, [sp, #8]
 1116 0030 4FF02001 		mov	r1, #32
 1117 0034 4FF00B02 		mov	r2, #11
 1118 0038 FFF7FEFF 		bl	mem_set
 1119              		.loc 1 1762 0
 1120 003c 4FF00003 		mov	r3, #0
ARM GAS  C:\Users\z80\AppData\Local\Temp\ccWqrhGE.s 			page 21


 1121 0040 8DF81F30 		strb	r3, [sp, #31]
 1122 0044 4FF00003 		mov	r3, #0
 1123 0048 0493     		str	r3, [sp, #16]
 1124 004a 049B     		ldr	r3, [sp, #16]
 1125 004c 0593     		str	r3, [sp, #20]
 1126 004e 4FF00803 		mov	r3, #8
 1127 0052 0693     		str	r3, [sp, #24]
 1128              	.L86:
 1129              		.loc 1 1777 0
 1130 0054 039A     		ldr	r2, [sp, #12]
 1131 0056 059B     		ldr	r3, [sp, #20]
 1132 0058 1344     		add	r3, r2, r3
 1133 005a 1B78     		ldrb	r3, [r3, #0]
 1134 005c 8DF81E30 		strb	r3, [sp, #30]
 1135 0060 059B     		ldr	r3, [sp, #20]
 1136 0062 03F10103 		add	r3, r3, #1
 1137 0066 0593     		str	r3, [sp, #20]
 1138              		.loc 1 1778 0
 1139 0068 9DF81E30 		ldrb	r3, [sp, #30]	@ zero_extendqisi2
 1140 006c 202B     		cmp	r3, #32
 1141 006e 7AD9     		bls	.L75
 1142              		.loc 1 1778 0 is_stmt 0 discriminator 1
 1143 0070 9DF81E30 		ldrb	r3, [sp, #30]	@ zero_extendqisi2
 1144 0074 2F2B     		cmp	r3, #47
 1145 0076 76D0     		beq	.L75
 1146 0078 9DF81E30 		ldrb	r3, [sp, #30]	@ zero_extendqisi2
 1147 007c 5C2B     		cmp	r3, #92
 1148 007e 72D0     		beq	.L75
 1149              		.loc 1 1779 0 is_stmt 1
 1150 0080 9DF81E30 		ldrb	r3, [sp, #30]	@ zero_extendqisi2
 1151 0084 2E2B     		cmp	r3, #46
 1152 0086 03D0     		beq	.L76
 1153              		.loc 1 1779 0 is_stmt 0 discriminator 1
 1154 0088 049A     		ldr	r2, [sp, #16]
 1155 008a 069B     		ldr	r3, [sp, #24]
 1156 008c 9A42     		cmp	r2, r3
 1157 008e 17D3     		bcc	.L77
 1158              	.L76:
 1159              		.loc 1 1780 0 is_stmt 1
 1160 0090 069B     		ldr	r3, [sp, #24]
 1161 0092 082B     		cmp	r3, #8
 1162 0094 03D1     		bne	.L78
 1163              		.loc 1 1780 0 is_stmt 0 discriminator 2
 1164 0096 9DF81E30 		ldrb	r3, [sp, #30]	@ zero_extendqisi2
 1165 009a 2E2B     		cmp	r3, #46
 1166 009c 02D0     		beq	.L79
 1167              	.L78:
 1168              		.loc 1 1780 0 discriminator 1
 1169 009e 4FF00603 		mov	r3, #6
 1170 00a2 A7E0     		b	.L80
 1171              	.L79:
 1172              		.loc 1 1781 0 is_stmt 1
 1173 00a4 4FF00803 		mov	r3, #8
 1174 00a8 0493     		str	r3, [sp, #16]
 1175 00aa 4FF00B03 		mov	r3, #11
 1176 00ae 0693     		str	r3, [sp, #24]
 1177              		.loc 1 1782 0
ARM GAS  C:\Users\z80\AppData\Local\Temp\ccWqrhGE.s 			page 22


 1178 00b0 9DF81F30 		ldrb	r3, [sp, #31]
 1179 00b4 4FEA8303 		lsl	r3, r3, #2
 1180 00b8 8DF81F30 		strb	r3, [sp, #31]
 1181 00bc 00BF     		nop
 1182              		.loc 1 1812 0
 1183 00be C9E7     		b	.L86
 1184              	.L77:
 1185              		.loc 1 1784 0
 1186 00c0 9DF81E30 		ldrb	r3, [sp, #30]	@ zero_extendqisi2
 1187 00c4 5BB2     		sxtb	r3, r3
 1188 00c6 002B     		cmp	r3, #0
 1189 00c8 10DA     		bge	.L82
 1190              		.loc 1 1785 0
 1191 00ca 9DF81F30 		ldrb	r3, [sp, #31]
 1192 00ce 43F00303 		orr	r3, r3, #3
 1193 00d2 8DF81F30 		strb	r3, [sp, #31]
 1194              		.loc 1 1787 0
 1195 00d6 9DF81E30 		ldrb	r3, [sp, #30]	@ zero_extendqisi2
 1196 00da A3F18002 		sub	r2, r3, #128
 1197 00de 40F20003 		movw	r3, #:lower16:excvt.1549
 1198 00e2 C0F20003 		movt	r3, #:upper16:excvt.1549
 1199 00e6 9B5C     		ldrb	r3, [r3, r2]
 1200 00e8 8DF81E30 		strb	r3, [sp, #30]
 1201              	.L82:
 1202              		.loc 1 1801 0
 1203 00ec 9DF81E30 		ldrb	r3, [sp, #30]	@ zero_extendqisi2
 1204 00f0 40F20000 		movw	r0, #:lower16:.LC0
 1205 00f4 C0F20000 		movt	r0, #:upper16:.LC0
 1206 00f8 1946     		mov	r1, r3
 1207 00fa FFF7FEFF 		bl	chk_chr
 1208 00fe 0346     		mov	r3, r0
 1209 0100 002B     		cmp	r3, #0
 1210 0102 02D0     		beq	.L83
 1211              		.loc 1 1802 0
 1212 0104 4FF00603 		mov	r3, #6
 1213 0108 74E0     		b	.L80
 1214              	.L83:
 1215              		.loc 1 1803 0
 1216 010a 9DF81E30 		ldrb	r3, [sp, #30]	@ zero_extendqisi2
 1217 010e 402B     		cmp	r3, #64
 1218 0110 0AD9     		bls	.L84
 1219              		.loc 1 1803 0 is_stmt 0 discriminator 1
 1220 0112 9DF81E30 		ldrb	r3, [sp, #30]	@ zero_extendqisi2
 1221 0116 5A2B     		cmp	r3, #90
 1222 0118 06D8     		bhi	.L84
 1223              		.loc 1 1804 0 is_stmt 1
 1224 011a 9DF81F30 		ldrb	r3, [sp, #31]
 1225 011e 43F00203 		orr	r3, r3, #2
 1226 0122 8DF81F30 		strb	r3, [sp, #31]
 1227 0126 13E0     		b	.L85
 1228              	.L84:
 1229              		.loc 1 1806 0
 1230 0128 9DF81E30 		ldrb	r3, [sp, #30]	@ zero_extendqisi2
 1231 012c 602B     		cmp	r3, #96
 1232 012e 0FD9     		bls	.L85
 1233              		.loc 1 1806 0 is_stmt 0 discriminator 1
 1234 0130 9DF81E30 		ldrb	r3, [sp, #30]	@ zero_extendqisi2
ARM GAS  C:\Users\z80\AppData\Local\Temp\ccWqrhGE.s 			page 23


 1235 0134 7A2B     		cmp	r3, #122
 1236 0136 0BD8     		bhi	.L85
 1237              		.loc 1 1807 0 is_stmt 1
 1238 0138 9DF81F30 		ldrb	r3, [sp, #31]
 1239 013c 43F00103 		orr	r3, r3, #1
 1240 0140 8DF81F30 		strb	r3, [sp, #31]
 1241 0144 9DF81E30 		ldrb	r3, [sp, #30]
 1242 0148 A3F12003 		sub	r3, r3, #32
 1243 014c 8DF81E30 		strb	r3, [sp, #30]
 1244              	.L85:
 1245              		.loc 1 1810 0
 1246 0150 029A     		ldr	r2, [sp, #8]
 1247 0152 049B     		ldr	r3, [sp, #16]
 1248 0154 1344     		add	r3, r2, r3
 1249 0156 9DF81E20 		ldrb	r2, [sp, #30]
 1250 015a 1A70     		strb	r2, [r3, #0]
 1251 015c 049B     		ldr	r3, [sp, #16]
 1252 015e 03F10103 		add	r3, r3, #1
 1253 0162 0493     		str	r3, [sp, #16]
 1254              		.loc 1 1812 0
 1255 0164 76E7     		b	.L86
 1256              	.L75:
 1257              		.loc 1 1813 0
 1258 0166 039A     		ldr	r2, [sp, #12]
 1259 0168 059B     		ldr	r3, [sp, #20]
 1260 016a 1A44     		add	r2, r2, r3
 1261 016c 009B     		ldr	r3, [sp, #0]
 1262 016e 1A60     		str	r2, [r3, #0]
 1263              		.loc 1 1814 0
 1264 0170 9DF81E30 		ldrb	r3, [sp, #30]	@ zero_extendqisi2
 1265 0174 202B     		cmp	r3, #32
 1266 0176 02D8     		bhi	.L87
 1267              		.loc 1 1814 0 is_stmt 0 discriminator 1
 1268 0178 4FF00403 		mov	r3, #4
 1269 017c 01E0     		b	.L88
 1270              	.L87:
 1271              		.loc 1 1814 0 discriminator 2
 1272 017e 4FF00003 		mov	r3, #0
 1273              	.L88:
 1274              		.loc 1 1814 0 discriminator 3
 1275 0182 8DF81E30 		strb	r3, [sp, #30]
 1276              		.loc 1 1816 0 is_stmt 1 discriminator 3
 1277 0186 049B     		ldr	r3, [sp, #16]
 1278 0188 002B     		cmp	r3, #0
 1279 018a 02D1     		bne	.L89
 1280              		.loc 1 1816 0 is_stmt 0 discriminator 1
 1281 018c 4FF00603 		mov	r3, #6
 1282 0190 30E0     		b	.L80
 1283              	.L89:
 1284              		.loc 1 1817 0 is_stmt 1
 1285 0192 029B     		ldr	r3, [sp, #8]
 1286 0194 1B78     		ldrb	r3, [r3, #0]	@ zero_extendqisi2
 1287 0196 E52B     		cmp	r3, #229
 1288 0198 03D1     		bne	.L90
 1289              		.loc 1 1817 0 is_stmt 0 discriminator 1
 1290 019a 029B     		ldr	r3, [sp, #8]
 1291 019c 4FF00502 		mov	r2, #5
ARM GAS  C:\Users\z80\AppData\Local\Temp\ccWqrhGE.s 			page 24


 1292 01a0 1A70     		strb	r2, [r3, #0]
 1293              	.L90:
 1294              		.loc 1 1819 0 is_stmt 1
 1295 01a2 069B     		ldr	r3, [sp, #24]
 1296 01a4 082B     		cmp	r3, #8
 1297 01a6 05D1     		bne	.L91
 1298              		.loc 1 1819 0 is_stmt 0 discriminator 1
 1299 01a8 9DF81F30 		ldrb	r3, [sp, #31]
 1300 01ac 4FEA8303 		lsl	r3, r3, #2
 1301 01b0 8DF81F30 		strb	r3, [sp, #31]
 1302              	.L91:
 1303              		.loc 1 1820 0 is_stmt 1
 1304 01b4 9DF81F30 		ldrb	r3, [sp, #31]	@ zero_extendqisi2
 1305 01b8 03F00303 		and	r3, r3, #3
 1306 01bc 012B     		cmp	r3, #1
 1307 01be 05D1     		bne	.L92
 1308              		.loc 1 1820 0 is_stmt 0 discriminator 1
 1309 01c0 9DF81E30 		ldrb	r3, [sp, #30]
 1310 01c4 43F01003 		orr	r3, r3, #16
 1311 01c8 8DF81E30 		strb	r3, [sp, #30]
 1312              	.L92:
 1313              		.loc 1 1821 0 is_stmt 1
 1314 01cc 9DF81F30 		ldrb	r3, [sp, #31]	@ zero_extendqisi2
 1315 01d0 03F00C03 		and	r3, r3, #12
 1316 01d4 042B     		cmp	r3, #4
 1317 01d6 05D1     		bne	.L93
 1318              		.loc 1 1821 0 is_stmt 0 discriminator 1
 1319 01d8 9DF81E30 		ldrb	r3, [sp, #30]
 1320 01dc 43F00803 		orr	r3, r3, #8
 1321 01e0 8DF81E30 		strb	r3, [sp, #30]
 1322              	.L93:
 1323              		.loc 1 1823 0 is_stmt 1
 1324 01e4 029B     		ldr	r3, [sp, #8]
 1325 01e6 03F10B03 		add	r3, r3, #11
 1326 01ea 9DF81E20 		ldrb	r2, [sp, #30]
 1327 01ee 1A70     		strb	r2, [r3, #0]
 1328              		.loc 1 1825 0
 1329 01f0 4FF00003 		mov	r3, #0
 1330              	.L80:
 1331              		.loc 1 1827 0
 1332 01f4 1846     		mov	r0, r3
 1333 01f6 09B0     		add	sp, sp, #36
 1334 01f8 00BD     		pop	{pc}
 1335              		.cfi_endproc
 1336              	.LFE10:
 1337              		.size	create_name, .-create_name
 1338 01fa 00BFAFF3 		.section	.text.follow_path,"ax",%progbits
 1338      0080
 1339              		.align	2
 1340              		.p2align 4,,15
 1341              		.thumb
 1342              		.thumb_func
 1343              		.type	follow_path, %function
 1344              	follow_path:
 1345              	.LFB11:
 1346              		.loc 1 1923 0
 1347              		.cfi_startproc
ARM GAS  C:\Users\z80\AppData\Local\Temp\ccWqrhGE.s 			page 25


 1348              		@ args = 0, pretend = 0, frame = 16
 1349              		@ frame_needed = 0, uses_anonymous_args = 0
 1350 0000 00B5     		push	{lr}
 1351              	.LCFI17:
 1352              		.cfi_def_cfa_offset 4
 1353 0002 85B0     		sub	sp, sp, #20
 1354              	.LCFI18:
 1355              		.cfi_def_cfa_offset 24
 1356 0004 0190     		str	r0, [sp, #4]
 1357 0006 0091     		str	r1, [sp, #0]
 1358              		.loc 1 1935 0
 1359 0008 009B     		ldr	r3, [sp, #0]
 1360 000a 1B78     		ldrb	r3, [r3, #0]	@ zero_extendqisi2
 1361 000c 2F2B     		cmp	r3, #47
 1362 000e 03D0     		beq	.L95
 1363              		.cfi_offset 14, -4
 1364              		.loc 1 1935 0 is_stmt 0 discriminator 1
 1365 0010 009B     		ldr	r3, [sp, #0]
 1366 0012 1B78     		ldrb	r3, [r3, #0]	@ zero_extendqisi2
 1367 0014 5C2B     		cmp	r3, #92
 1368 0016 03D1     		bne	.L96
 1369              	.L95:
 1370              		.loc 1 1936 0 is_stmt 1
 1371 0018 009B     		ldr	r3, [sp, #0]
 1372 001a 03F10103 		add	r3, r3, #1
 1373 001e 0093     		str	r3, [sp, #0]
 1374              	.L96:
 1375              		.loc 1 1937 0
 1376 0020 019B     		ldr	r3, [sp, #4]
 1377 0022 4FF00002 		mov	r2, #0
 1378 0026 9A60     		str	r2, [r3, #8]
 1379              		.loc 1 1940 0
 1380 0028 009B     		ldr	r3, [sp, #0]
 1381 002a 1B78     		ldrb	r3, [r3, #0]	@ zero_extendqisi2
 1382 002c 1F2B     		cmp	r3, #31
 1383 002e 0CD8     		bhi	.L97
 1384              		.loc 1 1941 0
 1385 0030 0198     		ldr	r0, [sp, #4]
 1386 0032 4FF00001 		mov	r1, #0
 1387 0036 FFF7FEFF 		bl	dir_sdi
 1388 003a 0346     		mov	r3, r0
 1389 003c 8DF80F30 		strb	r3, [sp, #15]
 1390              		.loc 1 1942 0
 1391 0040 019B     		ldr	r3, [sp, #4]
 1392 0042 4FF00002 		mov	r2, #0
 1393 0046 5A61     		str	r2, [r3, #20]
 1394 0048 6DE0     		b	.L98
 1395              	.L97:
 1396              		.loc 1 1946 0
 1397 004a 6B46     		mov	r3, sp
 1398 004c 0198     		ldr	r0, [sp, #4]
 1399 004e 1946     		mov	r1, r3
 1400 0050 FFF7FEFF 		bl	create_name
 1401 0054 0346     		mov	r3, r0
 1402 0056 8DF80F30 		strb	r3, [sp, #15]
 1403              		.loc 1 1947 0
 1404 005a 9DF80F30 		ldrb	r3, [sp, #15]	@ zero_extendqisi2
ARM GAS  C:\Users\z80\AppData\Local\Temp\ccWqrhGE.s 			page 26


 1405 005e 002B     		cmp	r3, #0
 1406 0060 5AD1     		bne	.L105
 1407              	.L99:
 1408              		.loc 1 1948 0
 1409 0062 0198     		ldr	r0, [sp, #4]
 1410 0064 FFF7FEFF 		bl	dir_find
 1411 0068 0346     		mov	r3, r0
 1412 006a 8DF80F30 		strb	r3, [sp, #15]
 1413              		.loc 1 1949 0
 1414 006e 019B     		ldr	r3, [sp, #4]
 1415 0070 9B69     		ldr	r3, [r3, #24]
 1416 0072 03F10B03 		add	r3, r3, #11
 1417 0076 1B78     		ldrb	r3, [r3, #0]
 1418 0078 8DF80E30 		strb	r3, [sp, #14]
 1419              		.loc 1 1950 0
 1420 007c 9DF80F30 		ldrb	r3, [sp, #15]	@ zero_extendqisi2
 1421 0080 002B     		cmp	r3, #0
 1422 0082 0ED0     		beq	.L100
 1423              		.loc 1 1951 0
 1424 0084 9DF80F30 		ldrb	r3, [sp, #15]	@ zero_extendqisi2
 1425 0088 042B     		cmp	r3, #4
 1426 008a 47D1     		bne	.L106
 1427              	.L101:
 1428              		.loc 1 1958 0
 1429 008c 9DF80E30 		ldrb	r3, [sp, #14]	@ zero_extendqisi2
 1430 0090 03F00403 		and	r3, r3, #4
 1431 0094 002B     		cmp	r3, #0
 1432 0096 43D1     		bne	.L107
 1433              		.loc 1 1958 0 is_stmt 0 discriminator 1
 1434 0098 4FF00503 		mov	r3, #5
 1435 009c 8DF80F30 		strb	r3, [sp, #15]
 1436              		.loc 1 1960 0 is_stmt 1 discriminator 1
 1437 00a0 41E0     		b	.L98
 1438              	.L100:
 1439              		.loc 1 1962 0
 1440 00a2 9DF80E30 		ldrb	r3, [sp, #14]	@ zero_extendqisi2
 1441 00a6 03F00403 		and	r3, r3, #4
 1442 00aa 002B     		cmp	r3, #0
 1443 00ac 3AD1     		bne	.L108
 1444              	.L103:
 1445              		.loc 1 1963 0
 1446 00ae 019B     		ldr	r3, [sp, #4]
 1447 00b0 5B69     		ldr	r3, [r3, #20]
 1448 00b2 0293     		str	r3, [sp, #8]
 1449              		.loc 1 1964 0
 1450 00b4 029B     		ldr	r3, [sp, #8]
 1451 00b6 03F10B03 		add	r3, r3, #11
 1452 00ba 1B78     		ldrb	r3, [r3, #0]	@ zero_extendqisi2
 1453 00bc 03F01003 		and	r3, r3, #16
 1454 00c0 002B     		cmp	r3, #0
 1455 00c2 04D1     		bne	.L104
 1456              		.loc 1 1965 0
 1457 00c4 4FF00503 		mov	r3, #5
 1458 00c8 8DF80F30 		strb	r3, [sp, #15]
 1459 00cc 2BE0     		b	.L98
 1460              	.L104:
 1461              		.loc 1 1967 0
ARM GAS  C:\Users\z80\AppData\Local\Temp\ccWqrhGE.s 			page 27


 1462 00ce 029B     		ldr	r3, [sp, #8]
 1463 00d0 03F11503 		add	r3, r3, #21
 1464 00d4 1B78     		ldrb	r3, [r3, #0]	@ zero_extendqisi2
 1465 00d6 4FEA0323 		lsl	r3, r3, #8
 1466 00da 9AB2     		uxth	r2, r3
 1467 00dc 029B     		ldr	r3, [sp, #8]
 1468 00de 03F11403 		add	r3, r3, #20
 1469 00e2 1B78     		ldrb	r3, [r3, #0]	@ zero_extendqisi2
 1470 00e4 42EA0303 		orr	r3, r2, r3
 1471 00e8 9BB2     		uxth	r3, r3
 1472 00ea 9BB2     		uxth	r3, r3
 1473 00ec 4FEA0342 		lsl	r2, r3, #16
 1474 00f0 029B     		ldr	r3, [sp, #8]
 1475 00f2 03F11B03 		add	r3, r3, #27
 1476 00f6 1B78     		ldrb	r3, [r3, #0]	@ zero_extendqisi2
 1477 00f8 4FEA0323 		lsl	r3, r3, #8
 1478 00fc 99B2     		uxth	r1, r3
 1479 00fe 029B     		ldr	r3, [sp, #8]
 1480 0100 03F11A03 		add	r3, r3, #26
 1481 0104 1B78     		ldrb	r3, [r3, #0]	@ zero_extendqisi2
 1482 0106 41EA0303 		orr	r3, r1, r3
 1483 010a 9BB2     		uxth	r3, r3
 1484 010c 9BB2     		uxth	r3, r3
 1485 010e 42EA0302 		orr	r2, r2, r3
 1486 0112 019B     		ldr	r3, [sp, #4]
 1487 0114 9A60     		str	r2, [r3, #8]
 1488              		.loc 1 1968 0
 1489 0116 98E7     		b	.L97
 1490              	.L105:
 1491              		.loc 1 1947 0
 1492 0118 00BF     		nop
 1493 011a 04E0     		b	.L98
 1494              	.L106:
 1495              		.loc 1 1951 0
 1496 011c 00BF     		nop
 1497 011e 02E0     		b	.L98
 1498              	.L107:
 1499              		.loc 1 1960 0
 1500 0120 00BF     		nop
 1501 0122 00E0     		b	.L98
 1502              	.L108:
 1503              		.loc 1 1962 0
 1504 0124 00BF     		nop
 1505              	.L98:
 1506              		.loc 1 1971 0
 1507 0126 9DF80F30 		ldrb	r3, [sp, #15]	@ zero_extendqisi2
 1508              		.loc 1 1972 0
 1509 012a 1846     		mov	r0, r3
 1510 012c 05B0     		add	sp, sp, #20
 1511 012e 00BD     		pop	{pc}
 1512              		.cfi_endproc
 1513              	.LFE11:
 1514              		.size	follow_path, .-follow_path
 1515              		.section	.text.check_fs,"ax",%progbits
 1516              		.align	2
 1517              		.p2align 4,,15
 1518              		.thumb
ARM GAS  C:\Users\z80\AppData\Local\Temp\ccWqrhGE.s 			page 28


 1519              		.thumb_func
 1520              		.type	check_fs, %function
 1521              	check_fs:
 1522              	.LFB12:
 1523              		.loc 1 1986 0
 1524              		.cfi_startproc
 1525              		@ args = 0, pretend = 0, frame = 8
 1526              		@ frame_needed = 0, uses_anonymous_args = 0
 1527 0000 00B5     		push	{lr}
 1528              	.LCFI19:
 1529              		.cfi_def_cfa_offset 4
 1530 0002 83B0     		sub	sp, sp, #12
 1531              	.LCFI20:
 1532              		.cfi_def_cfa_offset 16
 1533 0004 0190     		str	r0, [sp, #4]
 1534 0006 0091     		str	r1, [sp, #0]
 1535              		.loc 1 1987 0
 1536 0008 019B     		ldr	r3, [sp, #4]
 1537 000a 5A78     		ldrb	r2, [r3, #1]	@ zero_extendqisi2
 1538 000c 019B     		ldr	r3, [sp, #4]
 1539 000e 03F12403 		add	r3, r3, #36
 1540 0012 1046     		mov	r0, r2
 1541 0014 1946     		mov	r1, r3
 1542 0016 009A     		ldr	r2, [sp, #0]
 1543 0018 4FF00103 		mov	r3, #1
 1544              		.cfi_offset 14, -4
 1545 001c FFF7FEFF 		bl	disk_read
 1546 0020 0346     		mov	r3, r0
 1547 0022 002B     		cmp	r3, #0
 1548 0024 02D0     		beq	.L110
 1549              		.loc 1 1988 0
 1550 0026 4FF00303 		mov	r3, #3
 1551 002a 6BE0     		b	.L111
 1552              	.L110:
 1553              		.loc 1 1989 0
 1554 002c 019B     		ldr	r3, [sp, #4]
 1555 002e 03F50873 		add	r3, r3, #544
 1556 0032 03F10303 		add	r3, r3, #3
 1557 0036 1B78     		ldrb	r3, [r3, #0]	@ zero_extendqisi2
 1558 0038 4FEA0323 		lsl	r3, r3, #8
 1559 003c 9AB2     		uxth	r2, r3
 1560 003e 019B     		ldr	r3, [sp, #4]
 1561 0040 03F50873 		add	r3, r3, #544
 1562 0044 03F10203 		add	r3, r3, #2
 1563 0048 1B78     		ldrb	r3, [r3, #0]	@ zero_extendqisi2
 1564 004a 42EA0303 		orr	r3, r2, r3
 1565 004e 9BB2     		uxth	r3, r3
 1566 0050 1AB2     		sxth	r2, r3
 1567 0052 4AF65523 		movw	r3, #43605
 1568 0056 CFF6FF73 		movt	r3, 65535
 1569 005a 9A42     		cmp	r2, r3
 1570 005c 02D0     		beq	.L112
 1571              		.loc 1 1990 0
 1572 005e 4FF00203 		mov	r3, #2
 1573 0062 4FE0     		b	.L111
 1574              	.L112:
 1575              		.loc 1 1992 0
ARM GAS  C:\Users\z80\AppData\Local\Temp\ccWqrhGE.s 			page 29


 1576 0064 019B     		ldr	r3, [sp, #4]
 1577 0066 03F15D03 		add	r3, r3, #93
 1578 006a 1B78     		ldrb	r3, [r3, #0]	@ zero_extendqisi2
 1579 006c 4FEA0362 		lsl	r2, r3, #24
 1580 0070 019B     		ldr	r3, [sp, #4]
 1581 0072 03F15C03 		add	r3, r3, #92
 1582 0076 1B78     		ldrb	r3, [r3, #0]	@ zero_extendqisi2
 1583 0078 4FEA0343 		lsl	r3, r3, #16
 1584 007c 42EA0302 		orr	r2, r2, r3
 1585 0080 019B     		ldr	r3, [sp, #4]
 1586 0082 03F15B03 		add	r3, r3, #91
 1587 0086 1B78     		ldrb	r3, [r3, #0]	@ zero_extendqisi2
 1588 0088 4FEA0323 		lsl	r3, r3, #8
 1589 008c 42EA0302 		orr	r2, r2, r3
 1590 0090 019B     		ldr	r3, [sp, #4]
 1591 0092 03F15A03 		add	r3, r3, #90
 1592 0096 1B78     		ldrb	r3, [r3, #0]	@ zero_extendqisi2
 1593 0098 42EA0303 		orr	r3, r2, r3
 1594 009c 23F07F42 		bic	r2, r3, #-16777216
 1595 00a0 44F24613 		movw	r3, #16710
 1596 00a4 C0F25403 		movt	r3, 84
 1597 00a8 9A42     		cmp	r2, r3
 1598 00aa 02D1     		bne	.L113
 1599              		.loc 1 1993 0
 1600 00ac 4FF00003 		mov	r3, #0
 1601 00b0 28E0     		b	.L111
 1602              	.L113:
 1603              		.loc 1 1994 0
 1604 00b2 019B     		ldr	r3, [sp, #4]
 1605 00b4 03F17903 		add	r3, r3, #121
 1606 00b8 1B78     		ldrb	r3, [r3, #0]	@ zero_extendqisi2
 1607 00ba 4FEA0362 		lsl	r2, r3, #24
 1608 00be 019B     		ldr	r3, [sp, #4]
 1609 00c0 03F17803 		add	r3, r3, #120
 1610 00c4 1B78     		ldrb	r3, [r3, #0]	@ zero_extendqisi2
 1611 00c6 4FEA0343 		lsl	r3, r3, #16
 1612 00ca 42EA0302 		orr	r2, r2, r3
 1613 00ce 019B     		ldr	r3, [sp, #4]
 1614 00d0 03F17703 		add	r3, r3, #119
 1615 00d4 1B78     		ldrb	r3, [r3, #0]	@ zero_extendqisi2
 1616 00d6 4FEA0323 		lsl	r3, r3, #8
 1617 00da 42EA0302 		orr	r2, r2, r3
 1618 00de 019B     		ldr	r3, [sp, #4]
 1619 00e0 03F17603 		add	r3, r3, #118
 1620 00e4 1B78     		ldrb	r3, [r3, #0]	@ zero_extendqisi2
 1621 00e6 42EA0303 		orr	r3, r2, r3
 1622 00ea 23F07F42 		bic	r2, r3, #-16777216
 1623 00ee 44F24613 		movw	r3, #16710
 1624 00f2 C0F25403 		movt	r3, 84
 1625 00f6 9A42     		cmp	r2, r3
 1626 00f8 02D1     		bne	.L114
 1627              		.loc 1 1995 0
 1628 00fa 4FF00003 		mov	r3, #0
 1629 00fe 01E0     		b	.L111
 1630              	.L114:
 1631              		.loc 1 1997 0
 1632 0100 4FF00103 		mov	r3, #1
ARM GAS  C:\Users\z80\AppData\Local\Temp\ccWqrhGE.s 			page 30


 1633              	.L111:
 1634              		.loc 1 1998 0
 1635 0104 1846     		mov	r0, r3
 1636 0106 03B0     		add	sp, sp, #12
 1637 0108 00BD     		pop	{pc}
 1638              		.cfi_endproc
 1639              	.LFE12:
 1640              		.size	check_fs, .-check_fs
 1641 010a 00BFAFF3 		.section	.text.chk_mounted,"ax",%progbits
 1641      0080
 1642              		.align	2
 1643              		.p2align 4,,15
 1644              		.thumb
 1645              		.thumb_func
 1646              		.type	chk_mounted, %function
 1647              	chk_mounted:
 1648              	.LFB13:
 1649              		.loc 1 2013 0
 1650              		.cfi_startproc
 1651              		@ args = 0, pretend = 0, frame = 72
 1652              		@ frame_needed = 0, uses_anonymous_args = 0
 1653 0000 00B5     		push	{lr}
 1654              	.LCFI21:
 1655              		.cfi_def_cfa_offset 4
 1656 0002 93B0     		sub	sp, sp, #76
 1657              	.LCFI22:
 1658              		.cfi_def_cfa_offset 80
 1659 0004 0390     		str	r0, [sp, #12]
 1660 0006 0291     		str	r1, [sp, #8]
 1661 0008 1346     		mov	r3, r2
 1662 000a 8DF80730 		strb	r3, [sp, #7]
 1663              		.loc 1 2019 0
 1664 000e 039B     		ldr	r3, [sp, #12]
 1665 0010 1B68     		ldr	r3, [r3, #0]
 1666 0012 0B93     		str	r3, [sp, #44]
 1667              		.loc 1 2023 0
 1668 0014 0B9B     		ldr	r3, [sp, #44]
 1669 0016 1B78     		ldrb	r3, [r3, #0]	@ zero_extendqisi2
 1670 0018 A3F13003 		sub	r3, r3, #48
 1671 001c 1093     		str	r3, [sp, #64]
 1672              		.loc 1 2024 0
 1673 001e 109B     		ldr	r3, [sp, #64]
 1674 0020 092B     		cmp	r3, #9
 1675 0022 0DD8     		bhi	.L116
 1676              		.cfi_offset 14, -4
 1677              		.loc 1 2024 0 is_stmt 0 discriminator 1
 1678 0024 0B9B     		ldr	r3, [sp, #44]
 1679 0026 03F10103 		add	r3, r3, #1
 1680 002a 1B78     		ldrb	r3, [r3, #0]	@ zero_extendqisi2
 1681 002c 3A2B     		cmp	r3, #58
 1682 002e 07D1     		bne	.L116
 1683              		.loc 1 2025 0 is_stmt 1
 1684 0030 0B9B     		ldr	r3, [sp, #44]
 1685 0032 03F10203 		add	r3, r3, #2
 1686 0036 0B93     		str	r3, [sp, #44]
 1687 0038 039B     		ldr	r3, [sp, #12]
 1688 003a 0B9A     		ldr	r2, [sp, #44]
ARM GAS  C:\Users\z80\AppData\Local\Temp\ccWqrhGE.s 			page 31


 1689 003c 1A60     		str	r2, [r3, #0]
 1690 003e 02E0     		b	.L117
 1691              	.L116:
 1692              		.loc 1 2030 0
 1693 0040 4FF00003 		mov	r3, #0
 1694 0044 1093     		str	r3, [sp, #64]
 1695              	.L117:
 1696              		.loc 1 2035 0
 1697 0046 109B     		ldr	r3, [sp, #64]
 1698 0048 002B     		cmp	r3, #0
 1699 004a 02D0     		beq	.L118
 1700              		.loc 1 2036 0
 1701 004c 4FF00B03 		mov	r3, #11
 1702 0050 46E2     		b	.L119
 1703              	.L118:
 1704              		.loc 1 2037 0
 1705 0052 40F20003 		movw	r3, #:lower16:FatFs
 1706 0056 C0F20003 		movt	r3, #:upper16:FatFs
 1707 005a 109A     		ldr	r2, [sp, #64]
 1708 005c 53F82230 		ldr	r3, [r3, r2, lsl #2]
 1709 0060 0A93     		str	r3, [sp, #40]
 1710 0062 029B     		ldr	r3, [sp, #8]
 1711 0064 0A9A     		ldr	r2, [sp, #40]
 1712 0066 1A60     		str	r2, [r3, #0]
 1713              		.loc 1 2038 0
 1714 0068 0A9B     		ldr	r3, [sp, #40]
 1715 006a 002B     		cmp	r3, #0
 1716 006c 02D1     		bne	.L120
 1717              		.loc 1 2038 0 is_stmt 0 discriminator 1
 1718 006e 4FF00C03 		mov	r3, #12
 1719 0072 35E2     		b	.L119
 1720              	.L120:
 1721              		.loc 1 2042 0 is_stmt 1
 1722 0074 0A9B     		ldr	r3, [sp, #40]
 1723 0076 1B78     		ldrb	r3, [r3, #0]	@ zero_extendqisi2
 1724 0078 002B     		cmp	r3, #0
 1725 007a 10D0     		beq	.L121
 1726              		.loc 1 2043 0
 1727 007c 0A9B     		ldr	r3, [sp, #40]
 1728 007e 5B78     		ldrb	r3, [r3, #1]	@ zero_extendqisi2
 1729 0080 1846     		mov	r0, r3
 1730 0082 FFF7FEFF 		bl	disk_status
 1731 0086 0346     		mov	r3, r0
 1732 0088 8DF82730 		strb	r3, [sp, #39]
 1733              		.loc 1 2044 0
 1734 008c 9DF82730 		ldrb	r3, [sp, #39]	@ zero_extendqisi2
 1735 0090 03F00103 		and	r3, r3, #1
 1736 0094 002B     		cmp	r3, #0
 1737 0096 02D1     		bne	.L121
 1738              		.loc 1 2047 0
 1739 0098 4FF00003 		mov	r3, #0
 1740 009c 20E2     		b	.L119
 1741              	.L121:
 1742              		.loc 1 2054 0
 1743 009e 0A9B     		ldr	r3, [sp, #40]
 1744 00a0 4FF00002 		mov	r2, #0
 1745 00a4 1A70     		strb	r2, [r3, #0]
ARM GAS  C:\Users\z80\AppData\Local\Temp\ccWqrhGE.s 			page 32


 1746              		.loc 1 2055 0
 1747 00a6 109B     		ldr	r3, [sp, #64]
 1748 00a8 DAB2     		uxtb	r2, r3
 1749 00aa 0A9B     		ldr	r3, [sp, #40]
 1750 00ac 5A70     		strb	r2, [r3, #1]
 1751              		.loc 1 2056 0
 1752 00ae 0A9B     		ldr	r3, [sp, #40]
 1753 00b0 5B78     		ldrb	r3, [r3, #1]	@ zero_extendqisi2
 1754 00b2 1846     		mov	r0, r3
 1755 00b4 FFF7FEFF 		bl	disk_initialize
 1756 00b8 0346     		mov	r3, r0
 1757 00ba 8DF82730 		strb	r3, [sp, #39]
 1758              		.loc 1 2057 0
 1759 00be 9DF82730 		ldrb	r3, [sp, #39]	@ zero_extendqisi2
 1760 00c2 03F00103 		and	r3, r3, #1
 1761 00c6 DBB2     		uxtb	r3, r3
 1762 00c8 002B     		cmp	r3, #0
 1763 00ca 02D0     		beq	.L122
 1764              		.loc 1 2058 0
 1765 00cc 4FF00303 		mov	r3, #3
 1766 00d0 06E2     		b	.L119
 1767              	.L122:
 1768              		.loc 1 2066 0
 1769 00d2 4FF00003 		mov	r3, #0
 1770 00d6 0F93     		str	r3, [sp, #60]
 1771 00d8 0A98     		ldr	r0, [sp, #40]
 1772 00da 0F99     		ldr	r1, [sp, #60]
 1773 00dc FFF7FEFF 		bl	check_fs
 1774 00e0 0346     		mov	r3, r0
 1775 00e2 8DF84730 		strb	r3, [sp, #71]
 1776              		.loc 1 2068 0
 1777 00e6 9DF84730 		ldrb	r3, [sp, #71]	@ zero_extendqisi2
 1778 00ea 012B     		cmp	r3, #1
 1779 00ec 42D1     		bne	.L123
 1780              		.loc 1 2070 0
 1781 00ee 4FF00003 		mov	r3, #0
 1782 00f2 8DF84630 		strb	r3, [sp, #70]
 1783              		.loc 1 2071 0
 1784 00f6 9DF84630 		ldrb	r3, [sp, #70]	@ zero_extendqisi2
 1785 00fa 002B     		cmp	r3, #0
 1786 00fc 05D0     		beq	.L124
 1787              		.loc 1 2071 0 is_stmt 0 discriminator 1
 1788 00fe 9DF84630 		ldrb	r3, [sp, #70]
 1789 0102 03F1FF33 		add	r3, r3, #-1
 1790 0106 8DF84630 		strb	r3, [sp, #70]
 1791              	.L124:
 1792              		.loc 1 2072 0 is_stmt 1
 1793 010a 0A9B     		ldr	r3, [sp, #40]
 1794 010c 03F12402 		add	r2, r3, #36
 1795 0110 9DF84630 		ldrb	r3, [sp, #70]	@ zero_extendqisi2
 1796 0114 4FEA0313 		lsl	r3, r3, #4
 1797 0118 03F5DF73 		add	r3, r3, #446
 1798 011c 1344     		add	r3, r2, r3
 1799 011e 0893     		str	r3, [sp, #32]
 1800              		.loc 1 2073 0
 1801 0120 089B     		ldr	r3, [sp, #32]
 1802 0122 03F10403 		add	r3, r3, #4
ARM GAS  C:\Users\z80\AppData\Local\Temp\ccWqrhGE.s 			page 33


 1803 0126 1B78     		ldrb	r3, [r3, #0]	@ zero_extendqisi2
 1804 0128 002B     		cmp	r3, #0
 1805 012a 23D0     		beq	.L123
 1806              		.loc 1 2074 0
 1807 012c 089B     		ldr	r3, [sp, #32]
 1808 012e 03F10B03 		add	r3, r3, #11
 1809 0132 1B78     		ldrb	r3, [r3, #0]	@ zero_extendqisi2
 1810 0134 4FEA0362 		lsl	r2, r3, #24
 1811 0138 089B     		ldr	r3, [sp, #32]
 1812 013a 03F10A03 		add	r3, r3, #10
 1813 013e 1B78     		ldrb	r3, [r3, #0]	@ zero_extendqisi2
 1814 0140 4FEA0343 		lsl	r3, r3, #16
 1815 0144 42EA0302 		orr	r2, r2, r3
 1816 0148 089B     		ldr	r3, [sp, #32]
 1817 014a 03F10903 		add	r3, r3, #9
 1818 014e 1B78     		ldrb	r3, [r3, #0]	@ zero_extendqisi2
 1819 0150 4FEA0323 		lsl	r3, r3, #8
 1820 0154 42EA0302 		orr	r2, r2, r3
 1821 0158 089B     		ldr	r3, [sp, #32]
 1822 015a 03F10803 		add	r3, r3, #8
 1823 015e 1B78     		ldrb	r3, [r3, #0]	@ zero_extendqisi2
 1824 0160 42EA0303 		orr	r3, r2, r3
 1825 0164 0F93     		str	r3, [sp, #60]
 1826              		.loc 1 2075 0
 1827 0166 0A98     		ldr	r0, [sp, #40]
 1828 0168 0F99     		ldr	r1, [sp, #60]
 1829 016a FFF7FEFF 		bl	check_fs
 1830 016e 0346     		mov	r3, r0
 1831 0170 8DF84730 		strb	r3, [sp, #71]
 1832              	.L123:
 1833              		.loc 1 2078 0
 1834 0174 9DF84730 		ldrb	r3, [sp, #71]	@ zero_extendqisi2
 1835 0178 032B     		cmp	r3, #3
 1836 017a 02D1     		bne	.L125
 1837              		.loc 1 2078 0 is_stmt 0 discriminator 1
 1838 017c 4FF00103 		mov	r3, #1
 1839 0180 AEE1     		b	.L119
 1840              	.L125:
 1841              		.loc 1 2079 0 is_stmt 1
 1842 0182 9DF84730 		ldrb	r3, [sp, #71]	@ zero_extendqisi2
 1843 0186 002B     		cmp	r3, #0
 1844 0188 02D0     		beq	.L126
 1845              		.loc 1 2079 0 is_stmt 0 discriminator 1
 1846 018a 4FF00D03 		mov	r3, #13
 1847 018e A7E1     		b	.L119
 1848              	.L126:
 1849              		.loc 1 2083 0 is_stmt 1
 1850 0190 0A9B     		ldr	r3, [sp, #40]
 1851 0192 03F13003 		add	r3, r3, #48
 1852 0196 1B78     		ldrb	r3, [r3, #0]	@ zero_extendqisi2
 1853 0198 4FEA0323 		lsl	r3, r3, #8
 1854 019c 9AB2     		uxth	r2, r3
 1855 019e 0A9B     		ldr	r3, [sp, #40]
 1856 01a0 03F12F03 		add	r3, r3, #47
 1857 01a4 1B78     		ldrb	r3, [r3, #0]	@ zero_extendqisi2
 1858 01a6 42EA0303 		orr	r3, r2, r3
 1859 01aa 9BB2     		uxth	r3, r3
ARM GAS  C:\Users\z80\AppData\Local\Temp\ccWqrhGE.s 			page 34


 1860 01ac 1BB2     		sxth	r3, r3
 1861 01ae B3F5007F 		cmp	r3, #512
 1862 01b2 02D0     		beq	.L127
 1863              		.loc 1 2084 0
 1864 01b4 4FF00D03 		mov	r3, #13
 1865 01b8 92E1     		b	.L119
 1866              	.L127:
 1867              		.loc 1 2086 0
 1868 01ba 0A9B     		ldr	r3, [sp, #40]
 1869 01bc 03F13B03 		add	r3, r3, #59
 1870 01c0 1B78     		ldrb	r3, [r3, #0]	@ zero_extendqisi2
 1871 01c2 4FEA0323 		lsl	r3, r3, #8
 1872 01c6 9AB2     		uxth	r2, r3
 1873 01c8 0A9B     		ldr	r3, [sp, #40]
 1874 01ca 03F13A03 		add	r3, r3, #58
 1875 01ce 1B78     		ldrb	r3, [r3, #0]	@ zero_extendqisi2
 1876 01d0 42EA0303 		orr	r3, r2, r3
 1877 01d4 9BB2     		uxth	r3, r3
 1878 01d6 9BB2     		uxth	r3, r3
 1879 01d8 0E93     		str	r3, [sp, #56]
 1880              		.loc 1 2087 0
 1881 01da 0E9B     		ldr	r3, [sp, #56]
 1882 01dc 002B     		cmp	r3, #0
 1883 01de 1CD1     		bne	.L128
 1884              		.loc 1 2087 0 is_stmt 0 discriminator 1
 1885 01e0 0A9B     		ldr	r3, [sp, #40]
 1886 01e2 03F14B03 		add	r3, r3, #75
 1887 01e6 1B78     		ldrb	r3, [r3, #0]	@ zero_extendqisi2
 1888 01e8 4FEA0362 		lsl	r2, r3, #24
 1889 01ec 0A9B     		ldr	r3, [sp, #40]
 1890 01ee 03F14A03 		add	r3, r3, #74
 1891 01f2 1B78     		ldrb	r3, [r3, #0]	@ zero_extendqisi2
 1892 01f4 4FEA0343 		lsl	r3, r3, #16
 1893 01f8 42EA0302 		orr	r2, r2, r3
 1894 01fc 0A9B     		ldr	r3, [sp, #40]
 1895 01fe 03F14903 		add	r3, r3, #73
 1896 0202 1B78     		ldrb	r3, [r3, #0]	@ zero_extendqisi2
 1897 0204 4FEA0323 		lsl	r3, r3, #8
 1898 0208 42EA0302 		orr	r2, r2, r3
 1899 020c 0A9B     		ldr	r3, [sp, #40]
 1900 020e 03F14803 		add	r3, r3, #72
 1901 0212 1B78     		ldrb	r3, [r3, #0]	@ zero_extendqisi2
 1902 0214 42EA0303 		orr	r3, r2, r3
 1903 0218 0E93     		str	r3, [sp, #56]
 1904              	.L128:
 1905              		.loc 1 2088 0 is_stmt 1
 1906 021a 0A9B     		ldr	r3, [sp, #40]
 1907 021c 0E9A     		ldr	r2, [sp, #56]
 1908 021e 1A61     		str	r2, [r3, #16]
 1909              		.loc 1 2090 0
 1910 0220 0A9B     		ldr	r3, [sp, #40]
 1911 0222 93F83430 		ldrb	r3, [r3, #52]
 1912 0226 8DF81F30 		strb	r3, [sp, #31]
 1913 022a 0A9B     		ldr	r3, [sp, #40]
 1914 022c 9DF81F20 		ldrb	r2, [sp, #31]
 1915 0230 DA70     		strb	r2, [r3, #3]
 1916              		.loc 1 2091 0
ARM GAS  C:\Users\z80\AppData\Local\Temp\ccWqrhGE.s 			page 35


 1917 0232 9DF81F30 		ldrb	r3, [sp, #31]	@ zero_extendqisi2
 1918 0236 012B     		cmp	r3, #1
 1919 0238 06D0     		beq	.L129
 1920              		.loc 1 2091 0 is_stmt 0 discriminator 1
 1921 023a 9DF81F30 		ldrb	r3, [sp, #31]	@ zero_extendqisi2
 1922 023e 022B     		cmp	r3, #2
 1923 0240 02D0     		beq	.L129
 1924 0242 4FF00D03 		mov	r3, #13
 1925 0246 4BE1     		b	.L119
 1926              	.L129:
 1927              		.loc 1 2092 0 is_stmt 1
 1928 0248 9DF81F20 		ldrb	r2, [sp, #31]	@ zero_extendqisi2
 1929 024c 0E9B     		ldr	r3, [sp, #56]
 1930 024e 02FB03F3 		mul	r3, r2, r3
 1931 0252 0E93     		str	r3, [sp, #56]
 1932              		.loc 1 2094 0
 1933 0254 0A9B     		ldr	r3, [sp, #40]
 1934 0256 93F83130 		ldrb	r3, [r3, #49]
 1935 025a 8DF81F30 		strb	r3, [sp, #31]
 1936 025e 0A9B     		ldr	r3, [sp, #40]
 1937 0260 9DF81F20 		ldrb	r2, [sp, #31]
 1938 0264 9A70     		strb	r2, [r3, #2]
 1939              		.loc 1 2095 0
 1940 0266 9DF81F30 		ldrb	r3, [sp, #31]	@ zero_extendqisi2
 1941 026a 002B     		cmp	r3, #0
 1942 026c 09D0     		beq	.L130
 1943              		.loc 1 2095 0 is_stmt 0 discriminator 2
 1944 026e 9DF81F20 		ldrb	r2, [sp, #31]	@ zero_extendqisi2
 1945 0272 9DF81F30 		ldrb	r3, [sp, #31]	@ zero_extendqisi2
 1946 0276 03F1FF33 		add	r3, r3, #-1
 1947 027a 02EA0303 		and	r3, r2, r3
 1948 027e 002B     		cmp	r3, #0
 1949 0280 02D0     		beq	.L131
 1950              	.L130:
 1951              		.loc 1 2095 0 discriminator 1
 1952 0282 4FF00D03 		mov	r3, #13
 1953 0286 2BE1     		b	.L119
 1954              	.L131:
 1955              		.loc 1 2097 0 is_stmt 1
 1956 0288 0A9B     		ldr	r3, [sp, #40]
 1957 028a 03F13603 		add	r3, r3, #54
 1958 028e 1B78     		ldrb	r3, [r3, #0]	@ zero_extendqisi2
 1959 0290 4FEA0323 		lsl	r3, r3, #8
 1960 0294 9AB2     		uxth	r2, r3
 1961 0296 0A9B     		ldr	r3, [sp, #40]
 1962 0298 03F13503 		add	r3, r3, #53
 1963 029c 1B78     		ldrb	r3, [r3, #0]	@ zero_extendqisi2
 1964 029e 42EA0303 		orr	r3, r2, r3
 1965 02a2 9BB2     		uxth	r3, r3
 1966 02a4 9AB2     		uxth	r2, r3
 1967 02a6 0A9B     		ldr	r3, [sp, #40]
 1968 02a8 1A81     		strh	r2, [r3, #8]	@ movhi
 1969              		.loc 1 2098 0
 1970 02aa 0A9B     		ldr	r3, [sp, #40]
 1971 02ac 1B89     		ldrh	r3, [r3, #8]
 1972 02ae 03F00F03 		and	r3, r3, #15
 1973 02b2 9BB2     		uxth	r3, r3
ARM GAS  C:\Users\z80\AppData\Local\Temp\ccWqrhGE.s 			page 36


 1974 02b4 002B     		cmp	r3, #0
 1975 02b6 02D0     		beq	.L132
 1976              		.loc 1 2098 0 is_stmt 0 discriminator 1
 1977 02b8 4FF00D03 		mov	r3, #13
 1978 02bc 10E1     		b	.L119
 1979              	.L132:
 1980              		.loc 1 2100 0 is_stmt 1
 1981 02be 0A9B     		ldr	r3, [sp, #40]
 1982 02c0 03F13803 		add	r3, r3, #56
 1983 02c4 1B78     		ldrb	r3, [r3, #0]	@ zero_extendqisi2
 1984 02c6 4FEA0323 		lsl	r3, r3, #8
 1985 02ca 9AB2     		uxth	r2, r3
 1986 02cc 0A9B     		ldr	r3, [sp, #40]
 1987 02ce 03F13703 		add	r3, r3, #55
 1988 02d2 1B78     		ldrb	r3, [r3, #0]	@ zero_extendqisi2
 1989 02d4 42EA0303 		orr	r3, r2, r3
 1990 02d8 9BB2     		uxth	r3, r3
 1991 02da 9BB2     		uxth	r3, r3
 1992 02dc 0D93     		str	r3, [sp, #52]
 1993              		.loc 1 2101 0
 1994 02de 0D9B     		ldr	r3, [sp, #52]
 1995 02e0 002B     		cmp	r3, #0
 1996 02e2 1CD1     		bne	.L133
 1997              		.loc 1 2101 0 is_stmt 0 discriminator 1
 1998 02e4 0A9B     		ldr	r3, [sp, #40]
 1999 02e6 03F14703 		add	r3, r3, #71
 2000 02ea 1B78     		ldrb	r3, [r3, #0]	@ zero_extendqisi2
 2001 02ec 4FEA0362 		lsl	r2, r3, #24
 2002 02f0 0A9B     		ldr	r3, [sp, #40]
 2003 02f2 03F14603 		add	r3, r3, #70
 2004 02f6 1B78     		ldrb	r3, [r3, #0]	@ zero_extendqisi2
 2005 02f8 4FEA0343 		lsl	r3, r3, #16
 2006 02fc 42EA0302 		orr	r2, r2, r3
 2007 0300 0A9B     		ldr	r3, [sp, #40]
 2008 0302 03F14503 		add	r3, r3, #69
 2009 0306 1B78     		ldrb	r3, [r3, #0]	@ zero_extendqisi2
 2010 0308 4FEA0323 		lsl	r3, r3, #8
 2011 030c 42EA0302 		orr	r2, r2, r3
 2012 0310 0A9B     		ldr	r3, [sp, #40]
 2013 0312 03F14403 		add	r3, r3, #68
 2014 0316 1B78     		ldrb	r3, [r3, #0]	@ zero_extendqisi2
 2015 0318 42EA0303 		orr	r3, r2, r3
 2016 031c 0D93     		str	r3, [sp, #52]
 2017              	.L133:
 2018              		.loc 1 2103 0 is_stmt 1
 2019 031e 0A9B     		ldr	r3, [sp, #40]
 2020 0320 03F13303 		add	r3, r3, #51
 2021 0324 1B78     		ldrb	r3, [r3, #0]	@ zero_extendqisi2
 2022 0326 4FEA0323 		lsl	r3, r3, #8
 2023 032a 9AB2     		uxth	r2, r3
 2024 032c 0A9B     		ldr	r3, [sp, #40]
 2025 032e 03F13203 		add	r3, r3, #50
 2026 0332 1B78     		ldrb	r3, [r3, #0]	@ zero_extendqisi2
 2027 0334 42EA0303 		orr	r3, r2, r3
 2028 0338 9BB2     		uxth	r3, r3
 2029 033a ADF81C30 		strh	r3, [sp, #28]	@ movhi
 2030              		.loc 1 2104 0
ARM GAS  C:\Users\z80\AppData\Local\Temp\ccWqrhGE.s 			page 37


 2031 033e BDF81C30 		ldrh	r3, [sp, #28]
 2032 0342 002B     		cmp	r3, #0
 2033 0344 02D1     		bne	.L134
 2034              		.loc 1 2104 0 is_stmt 0 discriminator 1
 2035 0346 4FF00D03 		mov	r3, #13
 2036 034a C9E0     		b	.L119
 2037              	.L134:
 2038              		.loc 1 2107 0 is_stmt 1
 2039 034c BDF81C20 		ldrh	r2, [sp, #28]
 2040 0350 0E9B     		ldr	r3, [sp, #56]
 2041 0352 1A44     		add	r2, r2, r3
 2042 0354 0A9B     		ldr	r3, [sp, #40]
 2043 0356 1B89     		ldrh	r3, [r3, #8]
 2044 0358 4FEA1313 		lsr	r3, r3, #4
 2045 035c 9BB2     		uxth	r3, r3
 2046 035e 1344     		add	r3, r2, r3
 2047 0360 0693     		str	r3, [sp, #24]
 2048              		.loc 1 2108 0
 2049 0362 0D9A     		ldr	r2, [sp, #52]
 2050 0364 069B     		ldr	r3, [sp, #24]
 2051 0366 9A42     		cmp	r2, r3
 2052 0368 02D2     		bcs	.L135
 2053              		.loc 1 2108 0 is_stmt 0 discriminator 1
 2054 036a 4FF00D03 		mov	r3, #13
 2055 036e B7E0     		b	.L119
 2056              	.L135:
 2057              		.loc 1 2109 0 is_stmt 1
 2058 0370 0D9A     		ldr	r2, [sp, #52]
 2059 0372 069B     		ldr	r3, [sp, #24]
 2060 0374 C3EB0202 		rsb	r2, r3, r2
 2061 0378 0A9B     		ldr	r3, [sp, #40]
 2062 037a 9B78     		ldrb	r3, [r3, #2]	@ zero_extendqisi2
 2063 037c B2FBF3F3 		udiv	r3, r2, r3
 2064 0380 0593     		str	r3, [sp, #20]
 2065              		.loc 1 2110 0
 2066 0382 059B     		ldr	r3, [sp, #20]
 2067 0384 002B     		cmp	r3, #0
 2068 0386 02D1     		bne	.L136
 2069              		.loc 1 2110 0 is_stmt 0 discriminator 1
 2070 0388 4FF00D03 		mov	r3, #13
 2071 038c A8E0     		b	.L119
 2072              	.L136:
 2073              		.loc 1 2111 0 is_stmt 1
 2074 038e 4FF00103 		mov	r3, #1
 2075 0392 8DF84730 		strb	r3, [sp, #71]
 2076              		.loc 1 2112 0
 2077 0396 059A     		ldr	r2, [sp, #20]
 2078 0398 40F6F573 		movw	r3, #4085
 2079 039c 9A42     		cmp	r2, r3
 2080 039e 03D9     		bls	.L137
 2081              		.loc 1 2112 0 is_stmt 0 discriminator 1
 2082 03a0 4FF00203 		mov	r3, #2
 2083 03a4 8DF84730 		strb	r3, [sp, #71]
 2084              	.L137:
 2085              		.loc 1 2113 0 is_stmt 1
 2086 03a8 059A     		ldr	r2, [sp, #20]
 2087 03aa 4FF6F573 		movw	r3, #65525
ARM GAS  C:\Users\z80\AppData\Local\Temp\ccWqrhGE.s 			page 38


 2088 03ae 9A42     		cmp	r2, r3
 2089 03b0 03D9     		bls	.L138
 2090              		.loc 1 2113 0 is_stmt 0 discriminator 1
 2091 03b2 4FF00303 		mov	r3, #3
 2092 03b6 8DF84730 		strb	r3, [sp, #71]
 2093              	.L138:
 2094              		.loc 1 2116 0 is_stmt 1
 2095 03ba 059B     		ldr	r3, [sp, #20]
 2096 03bc 03F10202 		add	r2, r3, #2
 2097 03c0 0A9B     		ldr	r3, [sp, #40]
 2098 03c2 DA60     		str	r2, [r3, #12]
 2099              		.loc 1 2117 0
 2100 03c4 0F9A     		ldr	r2, [sp, #60]
 2101 03c6 069B     		ldr	r3, [sp, #24]
 2102 03c8 1A44     		add	r2, r2, r3
 2103 03ca 0A9B     		ldr	r3, [sp, #40]
 2104 03cc DA61     		str	r2, [r3, #28]
 2105              		.loc 1 2118 0
 2106 03ce BDF81C20 		ldrh	r2, [sp, #28]
 2107 03d2 0F9B     		ldr	r3, [sp, #60]
 2108 03d4 1A44     		add	r2, r2, r3
 2109 03d6 0A9B     		ldr	r3, [sp, #40]
 2110 03d8 5A61     		str	r2, [r3, #20]
 2111              		.loc 1 2119 0
 2112 03da 9DF84730 		ldrb	r3, [sp, #71]	@ zero_extendqisi2
 2113 03de 032B     		cmp	r3, #3
 2114 03e0 2AD1     		bne	.L139
 2115              		.loc 1 2120 0
 2116 03e2 0A9B     		ldr	r3, [sp, #40]
 2117 03e4 1B89     		ldrh	r3, [r3, #8]
 2118 03e6 002B     		cmp	r3, #0
 2119 03e8 02D0     		beq	.L140
 2120              		.loc 1 2120 0 is_stmt 0 discriminator 1
 2121 03ea 4FF00D03 		mov	r3, #13
 2122 03ee 77E0     		b	.L119
 2123              	.L140:
 2124              		.loc 1 2121 0 is_stmt 1
 2125 03f0 0A9B     		ldr	r3, [sp, #40]
 2126 03f2 03F15303 		add	r3, r3, #83
 2127 03f6 1B78     		ldrb	r3, [r3, #0]	@ zero_extendqisi2
 2128 03f8 4FEA0362 		lsl	r2, r3, #24
 2129 03fc 0A9B     		ldr	r3, [sp, #40]
 2130 03fe 03F15203 		add	r3, r3, #82
 2131 0402 1B78     		ldrb	r3, [r3, #0]	@ zero_extendqisi2
 2132 0404 4FEA0343 		lsl	r3, r3, #16
 2133 0408 42EA0302 		orr	r2, r2, r3
 2134 040c 0A9B     		ldr	r3, [sp, #40]
 2135 040e 03F15103 		add	r3, r3, #81
 2136 0412 1B78     		ldrb	r3, [r3, #0]	@ zero_extendqisi2
 2137 0414 4FEA0323 		lsl	r3, r3, #8
 2138 0418 42EA0302 		orr	r2, r2, r3
 2139 041c 0A9B     		ldr	r3, [sp, #40]
 2140 041e 03F15003 		add	r3, r3, #80
 2141 0422 1B78     		ldrb	r3, [r3, #0]	@ zero_extendqisi2
 2142 0424 42EA0302 		orr	r2, r2, r3
 2143 0428 0A9B     		ldr	r3, [sp, #40]
 2144 042a 9A61     		str	r2, [r3, #24]
ARM GAS  C:\Users\z80\AppData\Local\Temp\ccWqrhGE.s 			page 39


 2145              		.loc 1 2122 0
 2146 042c 0A9B     		ldr	r3, [sp, #40]
 2147 042e DB68     		ldr	r3, [r3, #12]
 2148 0430 4FEA8303 		lsl	r3, r3, #2
 2149 0434 0C93     		str	r3, [sp, #48]
 2150 0436 23E0     		b	.L141
 2151              	.L139:
 2152              		.loc 1 2124 0
 2153 0438 0A9B     		ldr	r3, [sp, #40]
 2154 043a 1B89     		ldrh	r3, [r3, #8]
 2155 043c 002B     		cmp	r3, #0
 2156 043e 02D1     		bne	.L142
 2157              		.loc 1 2124 0 is_stmt 0 discriminator 1
 2158 0440 4FF00D03 		mov	r3, #13
 2159 0444 4CE0     		b	.L119
 2160              	.L142:
 2161              		.loc 1 2125 0 is_stmt 1
 2162 0446 0A9B     		ldr	r3, [sp, #40]
 2163 0448 5A69     		ldr	r2, [r3, #20]
 2164 044a 0E9B     		ldr	r3, [sp, #56]
 2165 044c 1A44     		add	r2, r2, r3
 2166 044e 0A9B     		ldr	r3, [sp, #40]
 2167 0450 9A61     		str	r2, [r3, #24]
 2168              		.loc 1 2127 0
 2169 0452 9DF84730 		ldrb	r3, [sp, #71]	@ zero_extendqisi2
 2170 0456 022B     		cmp	r3, #2
 2171 0458 04D1     		bne	.L143
 2172              		.loc 1 2127 0 is_stmt 0 discriminator 1
 2173 045a 0A9B     		ldr	r3, [sp, #40]
 2174 045c DB68     		ldr	r3, [r3, #12]
 2175 045e 4FEA4303 		lsl	r3, r3, #1
 2176 0462 0CE0     		b	.L144
 2177              	.L143:
 2178              		.loc 1 2127 0 discriminator 2
 2179 0464 0A9B     		ldr	r3, [sp, #40]
 2180 0466 DA68     		ldr	r2, [r3, #12]
 2181 0468 1346     		mov	r3, r2
 2182 046a 4FEA4303 		lsl	r3, r3, #1
 2183 046e 1344     		add	r3, r3, r2
 2184 0470 4FEA5302 		lsr	r2, r3, #1
 2185 0474 0A9B     		ldr	r3, [sp, #40]
 2186 0476 DB68     		ldr	r3, [r3, #12]
 2187 0478 03F00103 		and	r3, r3, #1
 2188 047c 1344     		add	r3, r2, r3
 2189              	.L144:
 2190              		.loc 1 2126 0 is_stmt 1
 2191 047e 0C93     		str	r3, [sp, #48]
 2192              	.L141:
 2193              		.loc 1 2129 0
 2194 0480 0A9B     		ldr	r3, [sp, #40]
 2195 0482 1A69     		ldr	r2, [r3, #16]
 2196 0484 0C9B     		ldr	r3, [sp, #48]
 2197 0486 03F5FE73 		add	r3, r3, #508
 2198 048a 03F10303 		add	r3, r3, #3
 2199 048e 4FEA5323 		lsr	r3, r3, #9
 2200 0492 9A42     		cmp	r2, r3
 2201 0494 02D2     		bcs	.L145
ARM GAS  C:\Users\z80\AppData\Local\Temp\ccWqrhGE.s 			page 40


 2202              		.loc 1 2130 0
 2203 0496 4FF00D03 		mov	r3, #13
 2204 049a 21E0     		b	.L119
 2205              	.L145:
 2206              		.loc 1 2150 0
 2207 049c 0A9B     		ldr	r3, [sp, #40]
 2208 049e 9DF84720 		ldrb	r2, [sp, #71]
 2209 04a2 1A70     		strb	r2, [r3, #0]
 2210              		.loc 1 2151 0
 2211 04a4 40F20003 		movw	r3, #:lower16:Fsid
 2212 04a8 C0F20003 		movt	r3, #:upper16:Fsid
 2213 04ac 1B88     		ldrh	r3, [r3, #0]
 2214 04ae 03F10103 		add	r3, r3, #1
 2215 04b2 9AB2     		uxth	r2, r3
 2216 04b4 40F20003 		movw	r3, #:lower16:Fsid
 2217 04b8 C0F20003 		movt	r3, #:upper16:Fsid
 2218 04bc 1A80     		strh	r2, [r3, #0]	@ movhi
 2219 04be 40F20003 		movw	r3, #:lower16:Fsid
 2220 04c2 C0F20003 		movt	r3, #:upper16:Fsid
 2221 04c6 1A88     		ldrh	r2, [r3, #0]
 2222 04c8 0A9B     		ldr	r3, [sp, #40]
 2223 04ca DA80     		strh	r2, [r3, #6]	@ movhi
 2224              		.loc 1 2152 0
 2225 04cc 0A9B     		ldr	r3, [sp, #40]
 2226 04ce 4FF00002 		mov	r2, #0
 2227 04d2 1A62     		str	r2, [r3, #32]
 2228              		.loc 1 2153 0
 2229 04d4 0A9B     		ldr	r3, [sp, #40]
 2230 04d6 4FF00002 		mov	r2, #0
 2231 04da 1A71     		strb	r2, [r3, #4]
 2232              		.loc 1 2161 0
 2233 04dc 4FF00003 		mov	r3, #0
 2234              	.L119:
 2235              		.loc 1 2162 0
 2236 04e0 1846     		mov	r0, r3
 2237 04e2 13B0     		add	sp, sp, #76
 2238 04e4 00BD     		pop	{pc}
 2239              		.cfi_endproc
 2240              	.LFE13:
 2241              		.size	chk_mounted, .-chk_mounted
 2242 04e6 00BFAFF3 		.section	.text.validate,"ax",%progbits
 2242      0080AFF3 
 2242      0080
 2243              		.align	2
 2244              		.p2align 4,,15
 2245              		.thumb
 2246              		.thumb_func
 2247              		.type	validate, %function
 2248              	validate:
 2249              	.LFB14:
 2250              		.loc 1 2176 0
 2251              		.cfi_startproc
 2252              		@ args = 0, pretend = 0, frame = 8
 2253              		@ frame_needed = 0, uses_anonymous_args = 0
 2254 0000 00B5     		push	{lr}
 2255              	.LCFI23:
 2256              		.cfi_def_cfa_offset 4
ARM GAS  C:\Users\z80\AppData\Local\Temp\ccWqrhGE.s 			page 41


 2257 0002 83B0     		sub	sp, sp, #12
 2258              	.LCFI24:
 2259              		.cfi_def_cfa_offset 16
 2260 0004 0190     		str	r0, [sp, #4]
 2261 0006 0B46     		mov	r3, r1
 2262 0008 ADF80230 		strh	r3, [sp, #2]	@ movhi
 2263              		.loc 1 2177 0
 2264 000c 019B     		ldr	r3, [sp, #4]
 2265 000e 002B     		cmp	r3, #0
 2266 0010 09D0     		beq	.L147
 2267              		.cfi_offset 14, -4
 2268              		.loc 1 2177 0 is_stmt 0 discriminator 1
 2269 0012 019B     		ldr	r3, [sp, #4]
 2270 0014 1B78     		ldrb	r3, [r3, #0]	@ zero_extendqisi2
 2271 0016 002B     		cmp	r3, #0
 2272 0018 05D0     		beq	.L147
 2273 001a 019B     		ldr	r3, [sp, #4]
 2274 001c DB88     		ldrh	r3, [r3, #6]
 2275 001e BDF80220 		ldrh	r2, [sp, #2]
 2276 0022 9A42     		cmp	r2, r3
 2277 0024 02D0     		beq	.L148
 2278              	.L147:
 2279              		.loc 1 2178 0 is_stmt 1
 2280 0026 4FF00903 		mov	r3, #9
 2281 002a 0FE0     		b	.L149
 2282              	.L148:
 2283              		.loc 1 2182 0
 2284 002c 019B     		ldr	r3, [sp, #4]
 2285 002e 5B78     		ldrb	r3, [r3, #1]	@ zero_extendqisi2
 2286 0030 1846     		mov	r0, r3
 2287 0032 FFF7FEFF 		bl	disk_status
 2288 0036 0346     		mov	r3, r0
 2289 0038 03F00103 		and	r3, r3, #1
 2290 003c DBB2     		uxtb	r3, r3
 2291 003e 002B     		cmp	r3, #0
 2292 0040 02D0     		beq	.L150
 2293              		.loc 1 2183 0
 2294 0042 4FF00303 		mov	r3, #3
 2295 0046 01E0     		b	.L149
 2296              	.L150:
 2297              		.loc 1 2185 0
 2298 0048 4FF00003 		mov	r3, #0
 2299              	.L149:
 2300              		.loc 1 2186 0
 2301 004c 1846     		mov	r0, r3
 2302 004e 03B0     		add	sp, sp, #12
 2303 0050 00BD     		pop	{pc}
 2304              		.cfi_endproc
 2305              	.LFE14:
 2306              		.size	validate, .-validate
 2307 0052 00BFAFF3 		.section	.text.f_mount,"ax",%progbits
 2307      0080AFF3 
 2307      0080AFF3 
 2307      0080
 2308              		.align	2
 2309              		.p2align 4,,15
 2310              		.global	f_mount
ARM GAS  C:\Users\z80\AppData\Local\Temp\ccWqrhGE.s 			page 42


 2311              		.thumb
 2312              		.thumb_func
 2313              		.type	f_mount, %function
 2314              	f_mount:
 2315              	.LFB15:
 2316              		.loc 1 2207 0
 2317              		.cfi_startproc
 2318              		@ args = 0, pretend = 0, frame = 16
 2319              		@ frame_needed = 0, uses_anonymous_args = 0
 2320              		@ link register save eliminated.
 2321 0000 84B0     		sub	sp, sp, #16
 2322              	.LCFI25:
 2323              		.cfi_def_cfa_offset 16
 2324 0002 0346     		mov	r3, r0
 2325 0004 0091     		str	r1, [sp, #0]
 2326 0006 8DF80730 		strb	r3, [sp, #7]
 2327              		.loc 1 2211 0
 2328 000a 9DF80730 		ldrb	r3, [sp, #7]	@ zero_extendqisi2
 2329 000e 002B     		cmp	r3, #0
 2330 0010 02D0     		beq	.L152
 2331              		.loc 1 2212 0
 2332 0012 4FF00B03 		mov	r3, #11
 2333 0016 21E0     		b	.L153
 2334              	.L152:
 2335              		.loc 1 2213 0
 2336 0018 9DF80720 		ldrb	r2, [sp, #7]	@ zero_extendqisi2
 2337 001c 40F20003 		movw	r3, #:lower16:FatFs
 2338 0020 C0F20003 		movt	r3, #:upper16:FatFs
 2339 0024 53F82230 		ldr	r3, [r3, r2, lsl #2]
 2340 0028 0393     		str	r3, [sp, #12]
 2341              		.loc 1 2215 0
 2342 002a 039B     		ldr	r3, [sp, #12]
 2343 002c 002B     		cmp	r3, #0
 2344 002e 03D0     		beq	.L154
 2345              		.loc 1 2222 0
 2346 0030 039B     		ldr	r3, [sp, #12]
 2347 0032 4FF00002 		mov	r2, #0
 2348 0036 1A70     		strb	r2, [r3, #0]
 2349              	.L154:
 2350              		.loc 1 2225 0
 2351 0038 009B     		ldr	r3, [sp, #0]
 2352 003a 002B     		cmp	r3, #0
 2353 003c 03D0     		beq	.L155
 2354              		.loc 1 2226 0
 2355 003e 009B     		ldr	r3, [sp, #0]
 2356 0040 4FF00002 		mov	r2, #0
 2357 0044 1A70     		strb	r2, [r3, #0]
 2358              	.L155:
 2359              		.loc 1 2231 0
 2360 0046 9DF80720 		ldrb	r2, [sp, #7]	@ zero_extendqisi2
 2361 004a 40F20003 		movw	r3, #:lower16:FatFs
 2362 004e C0F20003 		movt	r3, #:upper16:FatFs
 2363 0052 0099     		ldr	r1, [sp, #0]
 2364 0054 43F82210 		str	r1, [r3, r2, lsl #2]
 2365              		.loc 1 2233 0
 2366 0058 4FF00003 		mov	r3, #0
 2367              	.L153:
ARM GAS  C:\Users\z80\AppData\Local\Temp\ccWqrhGE.s 			page 43


 2368              		.loc 1 2234 0
 2369 005c 1846     		mov	r0, r3
 2370 005e 04B0     		add	sp, sp, #16
 2371 0060 7047     		bx	lr
 2372              		.cfi_endproc
 2373              	.LFE15:
 2374              		.size	f_mount, .-f_mount
 2375 0062 00BFAFF3 		.section	.text.f_open,"ax",%progbits
 2375      0080AFF3 
 2375      0080AFF3 
 2375      0080
 2376              		.align	2
 2377              		.p2align 4,,15
 2378              		.global	f_open
 2379              		.thumb
 2380              		.thumb_func
 2381              		.type	f_open, %function
 2382              	f_open:
 2383              	.LFB16:
 2384              		.loc 1 2248 0
 2385              		.cfi_startproc
 2386              		@ args = 0, pretend = 0, frame = 64
 2387              		@ frame_needed = 0, uses_anonymous_args = 0
 2388 0000 00B5     		push	{lr}
 2389              	.LCFI26:
 2390              		.cfi_def_cfa_offset 4
 2391 0002 91B0     		sub	sp, sp, #68
 2392              	.LCFI27:
 2393              		.cfi_def_cfa_offset 72
 2394 0004 0390     		str	r0, [sp, #12]
 2395 0006 0291     		str	r1, [sp, #8]
 2396 0008 1346     		mov	r3, r2
 2397 000a 8DF80730 		strb	r3, [sp, #7]
 2398              		.loc 1 2255 0
 2399 000e 039B     		ldr	r3, [sp, #12]
 2400 0010 4FF00002 		mov	r2, #0
 2401 0014 1A60     		str	r2, [r3, #0]
 2402              		.loc 1 2261 0
 2403 0016 9DF80730 		ldrb	r3, [sp, #7]
 2404 001a 03F00103 		and	r3, r3, #1
 2405 001e 8DF80730 		strb	r3, [sp, #7]
 2406              		.loc 1 2262 0
 2407 0022 02AA     		add	r2, sp, #8
 2408 0024 07AB     		add	r3, sp, #28
 2409 0026 1046     		mov	r0, r2
 2410 0028 1946     		mov	r1, r3
 2411 002a 4FF00002 		mov	r2, #0
 2412              		.cfi_offset 14, -4
 2413 002e FFF7FEFF 		bl	chk_mounted
 2414 0032 0346     		mov	r3, r0
 2415 0034 8DF83F30 		strb	r3, [sp, #63]
 2416              		.loc 1 2264 0
 2417 0038 04AB     		add	r3, sp, #16
 2418 003a 0D93     		str	r3, [sp, #52]
 2419              		.loc 1 2265 0
 2420 003c 9DF83F30 		ldrb	r3, [sp, #63]	@ zero_extendqisi2
 2421 0040 002B     		cmp	r3, #0
ARM GAS  C:\Users\z80\AppData\Local\Temp\ccWqrhGE.s 			page 44


 2422 0042 08D1     		bne	.L157
 2423              		.loc 1 2266 0
 2424 0044 029B     		ldr	r3, [sp, #8]
 2425 0046 07AA     		add	r2, sp, #28
 2426 0048 1046     		mov	r0, r2
 2427 004a 1946     		mov	r1, r3
 2428 004c FFF7FEFF 		bl	follow_path
 2429 0050 0346     		mov	r3, r0
 2430 0052 8DF83F30 		strb	r3, [sp, #63]
 2431              	.L157:
 2432              		.loc 1 2267 0
 2433 0056 0C9B     		ldr	r3, [sp, #48]
 2434 0058 0E93     		str	r3, [sp, #56]
 2435              		.loc 1 2340 0
 2436 005a 9DF83F30 		ldrb	r3, [sp, #63]	@ zero_extendqisi2
 2437 005e 002B     		cmp	r3, #0
 2438 0060 13D1     		bne	.L158
 2439              		.loc 1 2341 0
 2440 0062 0E9B     		ldr	r3, [sp, #56]
 2441 0064 002B     		cmp	r3, #0
 2442 0066 04D1     		bne	.L159
 2443              		.loc 1 2342 0
 2444 0068 4FF00603 		mov	r3, #6
 2445 006c 8DF83F30 		strb	r3, [sp, #63]
 2446 0070 0BE0     		b	.L158
 2447              	.L159:
 2448              		.loc 1 2344 0
 2449 0072 0E9B     		ldr	r3, [sp, #56]
 2450 0074 03F10B03 		add	r3, r3, #11
 2451 0078 1B78     		ldrb	r3, [r3, #0]	@ zero_extendqisi2
 2452 007a 03F01003 		and	r3, r3, #16
 2453 007e 002B     		cmp	r3, #0
 2454 0080 03D0     		beq	.L158
 2455              		.loc 1 2345 0
 2456 0082 4FF00403 		mov	r3, #4
 2457 0086 8DF83F30 		strb	r3, [sp, #63]
 2458              	.L158:
 2459              		.loc 1 2351 0
 2460 008a 9DF83F30 		ldrb	r3, [sp, #63]	@ zero_extendqisi2
 2461 008e 002B     		cmp	r3, #0
 2462 0090 54D1     		bne	.L160
 2463              		.loc 1 2352 0
 2464 0092 039B     		ldr	r3, [sp, #12]
 2465 0094 9DF80720 		ldrb	r2, [sp, #7]
 2466 0098 9A71     		strb	r2, [r3, #6]
 2467              		.loc 1 2353 0
 2468 009a 0E9B     		ldr	r3, [sp, #56]
 2469 009c 03F11503 		add	r3, r3, #21
 2470 00a0 1B78     		ldrb	r3, [r3, #0]	@ zero_extendqisi2
 2471 00a2 4FEA0323 		lsl	r3, r3, #8
 2472 00a6 9AB2     		uxth	r2, r3
 2473 00a8 0E9B     		ldr	r3, [sp, #56]
 2474 00aa 03F11403 		add	r3, r3, #20
 2475 00ae 1B78     		ldrb	r3, [r3, #0]	@ zero_extendqisi2
 2476 00b0 42EA0303 		orr	r3, r2, r3
 2477 00b4 9BB2     		uxth	r3, r3
 2478 00b6 9BB2     		uxth	r3, r3
ARM GAS  C:\Users\z80\AppData\Local\Temp\ccWqrhGE.s 			page 45


 2479 00b8 4FEA0342 		lsl	r2, r3, #16
 2480 00bc 0E9B     		ldr	r3, [sp, #56]
 2481 00be 03F11B03 		add	r3, r3, #27
 2482 00c2 1B78     		ldrb	r3, [r3, #0]	@ zero_extendqisi2
 2483 00c4 4FEA0323 		lsl	r3, r3, #8
 2484 00c8 99B2     		uxth	r1, r3
 2485 00ca 0E9B     		ldr	r3, [sp, #56]
 2486 00cc 03F11A03 		add	r3, r3, #26
 2487 00d0 1B78     		ldrb	r3, [r3, #0]	@ zero_extendqisi2
 2488 00d2 41EA0303 		orr	r3, r1, r3
 2489 00d6 9BB2     		uxth	r3, r3
 2490 00d8 9BB2     		uxth	r3, r3
 2491 00da 42EA0302 		orr	r2, r2, r3
 2492 00de 039B     		ldr	r3, [sp, #12]
 2493 00e0 1A61     		str	r2, [r3, #16]
 2494              		.loc 1 2354 0
 2495 00e2 0E9B     		ldr	r3, [sp, #56]
 2496 00e4 03F11F03 		add	r3, r3, #31
 2497 00e8 1B78     		ldrb	r3, [r3, #0]	@ zero_extendqisi2
 2498 00ea 4FEA0362 		lsl	r2, r3, #24
 2499 00ee 0E9B     		ldr	r3, [sp, #56]
 2500 00f0 03F11E03 		add	r3, r3, #30
 2501 00f4 1B78     		ldrb	r3, [r3, #0]	@ zero_extendqisi2
 2502 00f6 4FEA0343 		lsl	r3, r3, #16
 2503 00fa 42EA0302 		orr	r2, r2, r3
 2504 00fe 0E9B     		ldr	r3, [sp, #56]
 2505 0100 03F11D03 		add	r3, r3, #29
 2506 0104 1B78     		ldrb	r3, [r3, #0]	@ zero_extendqisi2
 2507 0106 4FEA0323 		lsl	r3, r3, #8
 2508 010a 42EA0302 		orr	r2, r2, r3
 2509 010e 0E9B     		ldr	r3, [sp, #56]
 2510 0110 03F11C03 		add	r3, r3, #28
 2511 0114 1B78     		ldrb	r3, [r3, #0]	@ zero_extendqisi2
 2512 0116 42EA0302 		orr	r2, r2, r3
 2513 011a 039B     		ldr	r3, [sp, #12]
 2514 011c DA60     		str	r2, [r3, #12]
 2515              		.loc 1 2355 0
 2516 011e 039B     		ldr	r3, [sp, #12]
 2517 0120 4FF00002 		mov	r2, #0
 2518 0124 9A60     		str	r2, [r3, #8]
 2519              		.loc 1 2356 0
 2520 0126 039B     		ldr	r3, [sp, #12]
 2521 0128 4FF00002 		mov	r2, #0
 2522 012c 9A61     		str	r2, [r3, #24]
 2523              		.loc 1 2360 0
 2524 012e 079A     		ldr	r2, [sp, #28]
 2525 0130 039B     		ldr	r3, [sp, #12]
 2526 0132 1A60     		str	r2, [r3, #0]
 2527 0134 079B     		ldr	r3, [sp, #28]
 2528 0136 DA88     		ldrh	r2, [r3, #6]
 2529 0138 039B     		ldr	r3, [sp, #12]
 2530 013a 9A80     		strh	r2, [r3, #4]	@ movhi
 2531              	.L160:
 2532              		.loc 1 2363 0
 2533 013c 9DF83F30 		ldrb	r3, [sp, #63]	@ zero_extendqisi2
 2534              		.loc 1 2364 0
 2535 0140 1846     		mov	r0, r3
ARM GAS  C:\Users\z80\AppData\Local\Temp\ccWqrhGE.s 			page 46


 2536 0142 11B0     		add	sp, sp, #68
 2537 0144 00BD     		pop	{pc}
 2538              		.cfi_endproc
 2539              	.LFE16:
 2540              		.size	f_open, .-f_open
 2541 0146 00BFAFF3 		.section	.text.f_read,"ax",%progbits
 2541      0080AFF3 
 2541      0080
 2542              		.align	2
 2543              		.p2align 4,,15
 2544              		.global	f_read
 2545              		.thumb
 2546              		.thumb_func
 2547              		.type	f_read, %function
 2548              	f_read:
 2549              	.LFB17:
 2550              		.loc 1 2379 0
 2551              		.cfi_startproc
 2552              		@ args = 0, pretend = 0, frame = 48
 2553              		@ frame_needed = 0, uses_anonymous_args = 0
 2554 0000 00B5     		push	{lr}
 2555              	.LCFI28:
 2556              		.cfi_def_cfa_offset 4
 2557 0002 8DB0     		sub	sp, sp, #52
 2558              	.LCFI29:
 2559              		.cfi_def_cfa_offset 56
 2560 0004 0390     		str	r0, [sp, #12]
 2561 0006 0291     		str	r1, [sp, #8]
 2562 0008 0192     		str	r2, [sp, #4]
 2563 000a 0093     		str	r3, [sp, #0]
 2564              		.loc 1 2383 0
 2565 000c 029B     		ldr	r3, [sp, #8]
 2566 000e 0893     		str	r3, [sp, #32]
 2567              		.loc 1 2386 0
 2568 0010 009B     		ldr	r3, [sp, #0]
 2569 0012 4FF00002 		mov	r2, #0
 2570 0016 1A60     		str	r2, [r3, #0]
 2571              		.loc 1 2388 0
 2572 0018 039B     		ldr	r3, [sp, #12]
 2573 001a 1A68     		ldr	r2, [r3, #0]
 2574 001c 039B     		ldr	r3, [sp, #12]
 2575 001e 9B88     		ldrh	r3, [r3, #4]
 2576 0020 1046     		mov	r0, r2
 2577 0022 1946     		mov	r1, r3
 2578              		.cfi_offset 14, -4
 2579 0024 FFF7FEFF 		bl	validate
 2580 0028 0346     		mov	r3, r0
 2581 002a 8DF81F30 		strb	r3, [sp, #31]
 2582              		.loc 1 2389 0
 2583 002e 9DF81F30 		ldrb	r3, [sp, #31]	@ zero_extendqisi2
 2584 0032 002B     		cmp	r3, #0
 2585 0034 02D0     		beq	.L162
 2586              		.loc 1 2389 0 is_stmt 0 discriminator 1
 2587 0036 9DF81F30 		ldrb	r3, [sp, #31]	@ zero_extendqisi2
 2588 003a 0FE1     		b	.L163
 2589              	.L162:
 2590              		.loc 1 2390 0 is_stmt 1
ARM GAS  C:\Users\z80\AppData\Local\Temp\ccWqrhGE.s 			page 47


 2591 003c 039B     		ldr	r3, [sp, #12]
 2592 003e 9B79     		ldrb	r3, [r3, #6]	@ zero_extendqisi2
 2593 0040 DBB2     		uxtb	r3, r3
 2594 0042 5BB2     		sxtb	r3, r3
 2595 0044 002B     		cmp	r3, #0
 2596 0046 02DA     		bge	.L164
 2597              		.loc 1 2391 0
 2598 0048 4FF00203 		mov	r3, #2
 2599 004c 06E1     		b	.L163
 2600              	.L164:
 2601              		.loc 1 2392 0
 2602 004e 039B     		ldr	r3, [sp, #12]
 2603 0050 9B79     		ldrb	r3, [r3, #6]	@ zero_extendqisi2
 2604 0052 03F00103 		and	r3, r3, #1
 2605 0056 002B     		cmp	r3, #0
 2606 0058 02D1     		bne	.L165
 2607              		.loc 1 2393 0
 2608 005a 4FF00703 		mov	r3, #7
 2609 005e FDE0     		b	.L163
 2610              	.L165:
 2611              		.loc 1 2394 0
 2612 0060 039B     		ldr	r3, [sp, #12]
 2613 0062 DA68     		ldr	r2, [r3, #12]
 2614 0064 039B     		ldr	r3, [sp, #12]
 2615 0066 9B68     		ldr	r3, [r3, #8]
 2616 0068 C3EB0203 		rsb	r3, r3, r2
 2617 006c 0693     		str	r3, [sp, #24]
 2618              		.loc 1 2395 0
 2619 006e 019A     		ldr	r2, [sp, #4]
 2620 0070 069B     		ldr	r3, [sp, #24]
 2621 0072 9A42     		cmp	r2, r3
 2622 0074 40F2EC80 		bls	.L167
 2623              		.loc 1 2395 0 is_stmt 0 discriminator 1
 2624 0078 069B     		ldr	r3, [sp, #24]
 2625 007a 0193     		str	r3, [sp, #4]
 2626              		.loc 1 2397 0 is_stmt 1 discriminator 1
 2627 007c E8E0     		b	.L167
 2628              	.L181:
 2629              		.loc 1 2399 0
 2630 007e 039B     		ldr	r3, [sp, #12]
 2631 0080 9B68     		ldr	r3, [r3, #8]
 2632 0082 4FEAC353 		lsl	r3, r3, #23
 2633 0086 4FEAD353 		lsr	r3, r3, #23
 2634 008a 002B     		cmp	r3, #0
 2635 008c 40F09780 		bne	.L168
 2636              		.loc 1 2400 0
 2637 0090 039B     		ldr	r3, [sp, #12]
 2638 0092 9B68     		ldr	r3, [r3, #8]
 2639 0094 4FEA5323 		lsr	r3, r3, #9
 2640 0098 DAB2     		uxtb	r2, r3
 2641 009a 039B     		ldr	r3, [sp, #12]
 2642 009c 1B68     		ldr	r3, [r3, #0]
 2643 009e 9B78     		ldrb	r3, [r3, #2]	@ zero_extendqisi2
 2644 00a0 03F1FF33 		add	r3, r3, #-1
 2645 00a4 DBB2     		uxtb	r3, r3
 2646 00a6 02EA0303 		and	r3, r2, r3
 2647 00aa 8DF81730 		strb	r3, [sp, #23]
ARM GAS  C:\Users\z80\AppData\Local\Temp\ccWqrhGE.s 			page 48


 2648              		.loc 1 2401 0
 2649 00ae 9DF81730 		ldrb	r3, [sp, #23]	@ zero_extendqisi2
 2650 00b2 002B     		cmp	r3, #0
 2651 00b4 2FD1     		bne	.L169
 2652              		.loc 1 2402 0
 2653 00b6 039B     		ldr	r3, [sp, #12]
 2654 00b8 9B68     		ldr	r3, [r3, #8]
 2655 00ba 002B     		cmp	r3, #0
 2656 00bc 03D1     		bne	.L170
 2657              		.loc 1 2403 0
 2658 00be 039B     		ldr	r3, [sp, #12]
 2659 00c0 1B69     		ldr	r3, [r3, #16]
 2660 00c2 0B93     		str	r3, [sp, #44]
 2661 00c4 09E0     		b	.L171
 2662              	.L170:
 2663              		.loc 1 2410 0
 2664 00c6 039B     		ldr	r3, [sp, #12]
 2665 00c8 1A68     		ldr	r2, [r3, #0]
 2666 00ca 039B     		ldr	r3, [sp, #12]
 2667 00cc 5B69     		ldr	r3, [r3, #20]
 2668 00ce 1046     		mov	r0, r2
 2669 00d0 1946     		mov	r1, r3
 2670 00d2 FFF7FEFF 		bl	get_fat
 2671 00d6 0346     		mov	r3, r0
 2672 00d8 0B93     		str	r3, [sp, #44]
 2673              	.L171:
 2674              		.loc 1 2412 0
 2675 00da 0B9B     		ldr	r3, [sp, #44]
 2676 00dc 012B     		cmp	r3, #1
 2677 00de 09D8     		bhi	.L172
 2678              		.loc 1 2412 0 is_stmt 0 discriminator 1
 2679 00e0 039B     		ldr	r3, [sp, #12]
 2680 00e2 9B79     		ldrb	r3, [r3, #6]	@ zero_extendqisi2
 2681 00e4 63F07F03 		orn	r3, r3, #127
 2682 00e8 DAB2     		uxtb	r2, r3
 2683 00ea 039B     		ldr	r3, [sp, #12]
 2684 00ec 9A71     		strb	r2, [r3, #6]
 2685 00ee 4FF00203 		mov	r3, #2
 2686 00f2 B3E0     		b	.L163
 2687              	.L172:
 2688              		.loc 1 2413 0 is_stmt 1
 2689 00f4 0B9B     		ldr	r3, [sp, #44]
 2690 00f6 B3F1FF3F 		cmp	r3, #-1
 2691 00fa 09D1     		bne	.L173
 2692              		.loc 1 2413 0 is_stmt 0 discriminator 1
 2693 00fc 039B     		ldr	r3, [sp, #12]
 2694 00fe 9B79     		ldrb	r3, [r3, #6]	@ zero_extendqisi2
 2695 0100 63F07F03 		orn	r3, r3, #127
 2696 0104 DAB2     		uxtb	r2, r3
 2697 0106 039B     		ldr	r3, [sp, #12]
 2698 0108 9A71     		strb	r2, [r3, #6]
 2699 010a 4FF00103 		mov	r3, #1
 2700 010e A5E0     		b	.L163
 2701              	.L173:
 2702              		.loc 1 2414 0 is_stmt 1
 2703 0110 039B     		ldr	r3, [sp, #12]
 2704 0112 0B9A     		ldr	r2, [sp, #44]
ARM GAS  C:\Users\z80\AppData\Local\Temp\ccWqrhGE.s 			page 49


 2705 0114 5A61     		str	r2, [r3, #20]
 2706              	.L169:
 2707              		.loc 1 2416 0
 2708 0116 039B     		ldr	r3, [sp, #12]
 2709 0118 1A68     		ldr	r2, [r3, #0]
 2710 011a 039B     		ldr	r3, [sp, #12]
 2711 011c 5B69     		ldr	r3, [r3, #20]
 2712 011e 1046     		mov	r0, r2
 2713 0120 1946     		mov	r1, r3
 2714 0122 FFF7FEFF 		bl	clust2sect
 2715 0126 0346     		mov	r3, r0
 2716 0128 0493     		str	r3, [sp, #16]
 2717              		.loc 1 2417 0
 2718 012a 049B     		ldr	r3, [sp, #16]
 2719 012c 002B     		cmp	r3, #0
 2720 012e 09D1     		bne	.L174
 2721              		.loc 1 2417 0 is_stmt 0 discriminator 1
 2722 0130 039B     		ldr	r3, [sp, #12]
 2723 0132 9B79     		ldrb	r3, [r3, #6]	@ zero_extendqisi2
 2724 0134 63F07F03 		orn	r3, r3, #127
 2725 0138 DAB2     		uxtb	r2, r3
 2726 013a 039B     		ldr	r3, [sp, #12]
 2727 013c 9A71     		strb	r2, [r3, #6]
 2728 013e 4FF00203 		mov	r3, #2
 2729 0142 8BE0     		b	.L163
 2730              	.L174:
 2731              		.loc 1 2418 0 is_stmt 1
 2732 0144 9DF81730 		ldrb	r3, [sp, #23]	@ zero_extendqisi2
 2733 0148 049A     		ldr	r2, [sp, #16]
 2734 014a 1344     		add	r3, r2, r3
 2735 014c 0493     		str	r3, [sp, #16]
 2736              		.loc 1 2419 0
 2737 014e 019B     		ldr	r3, [sp, #4]
 2738 0150 4FEA5323 		lsr	r3, r3, #9
 2739 0154 0993     		str	r3, [sp, #36]
 2740              		.loc 1 2420 0
 2741 0156 099B     		ldr	r3, [sp, #36]
 2742 0158 002B     		cmp	r3, #0
 2743 015a 2DD0     		beq	.L175
 2744              		.loc 1 2421 0
 2745 015c 9DF81720 		ldrb	r2, [sp, #23]	@ zero_extendqisi2
 2746 0160 099B     		ldr	r3, [sp, #36]
 2747 0162 1A44     		add	r2, r2, r3
 2748 0164 039B     		ldr	r3, [sp, #12]
 2749 0166 1B68     		ldr	r3, [r3, #0]
 2750 0168 9B78     		ldrb	r3, [r3, #2]	@ zero_extendqisi2
 2751 016a 9A42     		cmp	r2, r3
 2752 016c 08D9     		bls	.L176
 2753              		.loc 1 2422 0
 2754 016e 039B     		ldr	r3, [sp, #12]
 2755 0170 1B68     		ldr	r3, [r3, #0]
 2756 0172 9B78     		ldrb	r3, [r3, #2]	@ zero_extendqisi2
 2757 0174 1A46     		mov	r2, r3
 2758 0176 9DF81730 		ldrb	r3, [sp, #23]	@ zero_extendqisi2
 2759 017a C3EB0203 		rsb	r3, r3, r2
 2760 017e 0993     		str	r3, [sp, #36]
 2761              	.L176:
ARM GAS  C:\Users\z80\AppData\Local\Temp\ccWqrhGE.s 			page 50


 2762              		.loc 1 2423 0
 2763 0180 039B     		ldr	r3, [sp, #12]
 2764 0182 1B68     		ldr	r3, [r3, #0]
 2765 0184 5A78     		ldrb	r2, [r3, #1]	@ zero_extendqisi2
 2766 0186 099B     		ldr	r3, [sp, #36]
 2767 0188 DBB2     		uxtb	r3, r3
 2768 018a 1046     		mov	r0, r2
 2769 018c 0899     		ldr	r1, [sp, #32]
 2770 018e 049A     		ldr	r2, [sp, #16]
 2771 0190 FFF7FEFF 		bl	disk_read
 2772 0194 0346     		mov	r3, r0
 2773 0196 002B     		cmp	r3, #0
 2774 0198 09D0     		beq	.L177
 2775              		.loc 1 2424 0
 2776 019a 039B     		ldr	r3, [sp, #12]
 2777 019c 9B79     		ldrb	r3, [r3, #6]	@ zero_extendqisi2
 2778 019e 63F07F03 		orn	r3, r3, #127
 2779 01a2 DAB2     		uxtb	r2, r3
 2780 01a4 039B     		ldr	r3, [sp, #12]
 2781 01a6 9A71     		strb	r2, [r3, #6]
 2782 01a8 4FF00103 		mov	r3, #1
 2783 01ac 56E0     		b	.L163
 2784              	.L177:
 2785              		.loc 1 2434 0
 2786 01ae 099B     		ldr	r3, [sp, #36]
 2787 01b0 4FEA4323 		lsl	r3, r3, #9
 2788 01b4 0A93     		str	r3, [sp, #40]
 2789              		.loc 1 2435 0
 2790 01b6 36E0     		b	.L178
 2791              	.L175:
 2792              		.loc 1 2450 0
 2793 01b8 039B     		ldr	r3, [sp, #12]
 2794 01ba 049A     		ldr	r2, [sp, #16]
 2795 01bc 9A61     		str	r2, [r3, #24]
 2796              	.L168:
 2797              		.loc 1 2452 0
 2798 01be 039B     		ldr	r3, [sp, #12]
 2799 01c0 9B68     		ldr	r3, [r3, #8]
 2800 01c2 4FEAC353 		lsl	r3, r3, #23
 2801 01c6 4FEAD353 		lsr	r3, r3, #23
 2802 01ca C3F50073 		rsb	r3, r3, #512
 2803 01ce 0A93     		str	r3, [sp, #40]
 2804              		.loc 1 2453 0
 2805 01d0 0A9A     		ldr	r2, [sp, #40]
 2806 01d2 019B     		ldr	r3, [sp, #4]
 2807 01d4 9A42     		cmp	r2, r3
 2808 01d6 01D9     		bls	.L179
 2809              		.loc 1 2453 0 is_stmt 0 discriminator 1
 2810 01d8 019B     		ldr	r3, [sp, #4]
 2811 01da 0A93     		str	r3, [sp, #40]
 2812              	.L179:
 2813              		.loc 1 2455 0 is_stmt 1
 2814 01dc 039B     		ldr	r3, [sp, #12]
 2815 01de 1A68     		ldr	r2, [r3, #0]
 2816 01e0 039B     		ldr	r3, [sp, #12]
 2817 01e2 9B69     		ldr	r3, [r3, #24]
 2818 01e4 1046     		mov	r0, r2
ARM GAS  C:\Users\z80\AppData\Local\Temp\ccWqrhGE.s 			page 51


 2819 01e6 1946     		mov	r1, r3
 2820 01e8 FFF7FEFF 		bl	move_window
 2821 01ec 0346     		mov	r3, r0
 2822 01ee 002B     		cmp	r3, #0
 2823 01f0 09D0     		beq	.L180
 2824              		.loc 1 2456 0
 2825 01f2 039B     		ldr	r3, [sp, #12]
 2826 01f4 9B79     		ldrb	r3, [r3, #6]	@ zero_extendqisi2
 2827 01f6 63F07F03 		orn	r3, r3, #127
 2828 01fa DAB2     		uxtb	r2, r3
 2829 01fc 039B     		ldr	r3, [sp, #12]
 2830 01fe 9A71     		strb	r2, [r3, #6]
 2831 0200 4FF00103 		mov	r3, #1
 2832 0204 2AE0     		b	.L163
 2833              	.L180:
 2834              		.loc 1 2457 0
 2835 0206 039B     		ldr	r3, [sp, #12]
 2836 0208 1B68     		ldr	r3, [r3, #0]
 2837 020a 03F12402 		add	r2, r3, #36
 2838 020e 039B     		ldr	r3, [sp, #12]
 2839 0210 9B68     		ldr	r3, [r3, #8]
 2840 0212 4FEAC353 		lsl	r3, r3, #23
 2841 0216 4FEAD353 		lsr	r3, r3, #23
 2842 021a 1344     		add	r3, r2, r3
 2843 021c 0898     		ldr	r0, [sp, #32]
 2844 021e 1946     		mov	r1, r3
 2845 0220 0A9A     		ldr	r2, [sp, #40]
 2846 0222 FFF7FEFF 		bl	mem_cpy
 2847              	.L178:
 2848              		.loc 1 2398 0
 2849 0226 089A     		ldr	r2, [sp, #32]
 2850 0228 0A9B     		ldr	r3, [sp, #40]
 2851 022a 1344     		add	r3, r2, r3
 2852 022c 0893     		str	r3, [sp, #32]
 2853 022e 039B     		ldr	r3, [sp, #12]
 2854 0230 9A68     		ldr	r2, [r3, #8]
 2855 0232 0A9B     		ldr	r3, [sp, #40]
 2856 0234 1A44     		add	r2, r2, r3
 2857 0236 039B     		ldr	r3, [sp, #12]
 2858 0238 9A60     		str	r2, [r3, #8]
 2859 023a 009B     		ldr	r3, [sp, #0]
 2860 023c 1A68     		ldr	r2, [r3, #0]
 2861 023e 0A9B     		ldr	r3, [sp, #40]
 2862 0240 1A44     		add	r2, r2, r3
 2863 0242 009B     		ldr	r3, [sp, #0]
 2864 0244 1A60     		str	r2, [r3, #0]
 2865 0246 019A     		ldr	r2, [sp, #4]
 2866 0248 0A9B     		ldr	r3, [sp, #40]
 2867 024a C3EB0203 		rsb	r3, r3, r2
 2868 024e 0193     		str	r3, [sp, #4]
 2869              	.L167:
 2870              		.loc 1 2397 0 discriminator 1
 2871 0250 019B     		ldr	r3, [sp, #4]
 2872 0252 002B     		cmp	r3, #0
 2873 0254 7FF413AF 		bne	.L181
 2874              		.loc 1 2463 0
 2875 0258 4FF00003 		mov	r3, #0
ARM GAS  C:\Users\z80\AppData\Local\Temp\ccWqrhGE.s 			page 52


 2876              	.L163:
 2877              		.loc 1 2464 0
 2878 025c 1846     		mov	r0, r3
 2879 025e 0DB0     		add	sp, sp, #52
 2880 0260 00BD     		pop	{pc}
 2881              		.cfi_endproc
 2882              	.LFE17:
 2883              		.size	f_read, .-f_read
 2884 0262 00BFAFF3 		.section	.text.f_close,"ax",%progbits
 2884      0080AFF3 
 2884      0080AFF3 
 2884      0080
 2885              		.align	2
 2886              		.p2align 4,,15
 2887              		.global	f_close
 2888              		.thumb
 2889              		.thumb_func
 2890              		.type	f_close, %function
 2891              	f_close:
 2892              	.LFB18:
 2893              		.loc 1 2643 0
 2894              		.cfi_startproc
 2895              		@ args = 0, pretend = 0, frame = 16
 2896              		@ frame_needed = 0, uses_anonymous_args = 0
 2897 0000 00B5     		push	{lr}
 2898              	.LCFI30:
 2899              		.cfi_def_cfa_offset 4
 2900 0002 85B0     		sub	sp, sp, #20
 2901              	.LCFI31:
 2902              		.cfi_def_cfa_offset 24
 2903 0004 0190     		str	r0, [sp, #4]
 2904              		.loc 1 2647 0
 2905 0006 019B     		ldr	r3, [sp, #4]
 2906 0008 1B68     		ldr	r3, [r3, #0]
 2907 000a 0393     		str	r3, [sp, #12]
 2908              		.loc 1 2648 0
 2909 000c 019B     		ldr	r3, [sp, #4]
 2910 000e 9B88     		ldrh	r3, [r3, #4]
 2911 0010 0398     		ldr	r0, [sp, #12]
 2912 0012 1946     		mov	r1, r3
 2913              		.cfi_offset 14, -4
 2914 0014 FFF7FEFF 		bl	validate
 2915 0018 0346     		mov	r3, r0
 2916 001a 8DF80B30 		strb	r3, [sp, #11]
 2917              		.loc 1 2649 0
 2918 001e 9DF80B30 		ldrb	r3, [sp, #11]	@ zero_extendqisi2
 2919 0022 002B     		cmp	r3, #0
 2920 0024 03D1     		bne	.L183
 2921              		.loc 1 2649 0 is_stmt 0 discriminator 1
 2922 0026 019B     		ldr	r3, [sp, #4]
 2923 0028 4FF00002 		mov	r2, #0
 2924 002c 1A60     		str	r2, [r3, #0]
 2925              	.L183:
 2926              		.loc 1 2650 0 is_stmt 1
 2927 002e 9DF80B30 		ldrb	r3, [sp, #11]	@ zero_extendqisi2
 2928              		.loc 1 2670 0
 2929 0032 1846     		mov	r0, r3
ARM GAS  C:\Users\z80\AppData\Local\Temp\ccWqrhGE.s 			page 53


 2930 0034 05B0     		add	sp, sp, #20
 2931 0036 00BD     		pop	{pc}
 2932              		.cfi_endproc
 2933              	.LFE18:
 2934              		.size	f_close, .-f_close
 2935 0038 AFF30080 		.section	.text.f_gets,"ax",%progbits
 2935      AFF30080 
 2936              		.align	2
 2937              		.p2align 4,,15
 2938              		.global	f_gets
 2939              		.thumb
 2940              		.thumb_func
 2941              		.type	f_gets, %function
 2942              	f_gets:
 2943              	.LFB19:
 2944              		.loc 1 3869 0
 2945              		.cfi_startproc
 2946              		@ args = 0, pretend = 0, frame = 32
 2947              		@ frame_needed = 0, uses_anonymous_args = 0
 2948 0000 00B5     		push	{lr}
 2949              	.LCFI32:
 2950              		.cfi_def_cfa_offset 4
 2951 0002 89B0     		sub	sp, sp, #36
 2952              	.LCFI33:
 2953              		.cfi_def_cfa_offset 40
 2954 0004 0390     		str	r0, [sp, #12]
 2955 0006 0291     		str	r1, [sp, #8]
 2956 0008 0192     		str	r2, [sp, #4]
 2957              		.loc 1 3870 0
 2958 000a 4FF00003 		mov	r3, #0
 2959 000e 0793     		str	r3, [sp, #28]
 2960              		.loc 1 3871 0
 2961 0010 039B     		ldr	r3, [sp, #12]
 2962 0012 0693     		str	r3, [sp, #24]
 2963              		.loc 1 3876 0
 2964 0014 1EE0     		b	.L185
 2965              		.cfi_offset 14, -4
 2966              	.L188:
 2967              		.loc 1 3877 0
 2968 0016 05AA     		add	r2, sp, #20
 2969 0018 04AB     		add	r3, sp, #16
 2970 001a 0198     		ldr	r0, [sp, #4]
 2971 001c 1146     		mov	r1, r2
 2972 001e 4FF00102 		mov	r2, #1
 2973 0022 FFF7FEFF 		bl	f_read
 2974              		.loc 1 3878 0
 2975 0026 049B     		ldr	r3, [sp, #16]
 2976 0028 012B     		cmp	r3, #1
 2977 002a 1AD1     		bne	.L191
 2978              	.L186:
 2979              		.loc 1 3879 0
 2980 002c 9DF81430 		ldrb	r3, [sp, #20]
 2981 0030 8DF81730 		strb	r3, [sp, #23]
 2982              		.loc 1 3903 0
 2983 0034 069B     		ldr	r3, [sp, #24]
 2984 0036 9DF81720 		ldrb	r2, [sp, #23]
 2985 003a 1A70     		strb	r2, [r3, #0]
ARM GAS  C:\Users\z80\AppData\Local\Temp\ccWqrhGE.s 			page 54


 2986 003c 069B     		ldr	r3, [sp, #24]
 2987 003e 03F10103 		add	r3, r3, #1
 2988 0042 0693     		str	r3, [sp, #24]
 2989              		.loc 1 3904 0
 2990 0044 079B     		ldr	r3, [sp, #28]
 2991 0046 03F10103 		add	r3, r3, #1
 2992 004a 0793     		str	r3, [sp, #28]
 2993              		.loc 1 3905 0
 2994 004c 9DF81730 		ldrb	r3, [sp, #23]	@ zero_extendqisi2
 2995 0050 0A2B     		cmp	r3, #10
 2996 0052 08D0     		beq	.L192
 2997              	.L185:
 2998              		.loc 1 3876 0 discriminator 1
 2999 0054 029B     		ldr	r3, [sp, #8]
 3000 0056 03F1FF32 		add	r2, r3, #-1
 3001 005a 079B     		ldr	r3, [sp, #28]
 3002 005c 9A42     		cmp	r2, r3
 3003 005e DADC     		bgt	.L188
 3004 0060 02E0     		b	.L187
 3005              	.L191:
 3006              		.loc 1 3878 0
 3007 0062 00BF     		nop
 3008 0064 00E0     		b	.L187
 3009              	.L192:
 3010              		.loc 1 3905 0
 3011 0066 00BF     		nop
 3012              	.L187:
 3013              		.loc 1 3907 0
 3014 0068 069B     		ldr	r3, [sp, #24]
 3015 006a 4FF00002 		mov	r2, #0
 3016 006e 1A70     		strb	r2, [r3, #0]
 3017              		.loc 1 3908 0
 3018 0070 079B     		ldr	r3, [sp, #28]
 3019 0072 002B     		cmp	r3, #0
 3020 0074 01D0     		beq	.L189
 3021              		.loc 1 3908 0 is_stmt 0 discriminator 1
 3022 0076 039B     		ldr	r3, [sp, #12]
 3023 0078 01E0     		b	.L190
 3024              	.L189:
 3025              		.loc 1 3908 0 discriminator 2
 3026 007a 4FF00003 		mov	r3, #0
 3027              	.L190:
 3028              		.loc 1 3909 0 is_stmt 1 discriminator 3
 3029 007e 1846     		mov	r0, r3
 3030 0080 09B0     		add	sp, sp, #36
 3031 0082 00BD     		pop	{pc}
 3032              		.cfi_endproc
 3033              	.LFE19:
 3034              		.size	f_gets, .-f_gets
 3035 0084 AFF30080 		.section	.rodata.excvt.1549,"a",%progbits
 3035      AFF30080 
 3035      AFF30080 
 3036              		.align	2
 3037              		.type	excvt.1549, %object
 3038              		.size	excvt.1549, 128
 3039              	excvt.1549:
 3040 0000 80       		.byte	-128
ARM GAS  C:\Users\z80\AppData\Local\Temp\ccWqrhGE.s 			page 55


 3041 0001 81       		.byte	-127
 3042 0002 82       		.byte	-126
 3043 0003 82       		.byte	-126
 3044 0004 84       		.byte	-124
 3045 0005 85       		.byte	-123
 3046 0006 86       		.byte	-122
 3047 0007 87       		.byte	-121
 3048 0008 88       		.byte	-120
 3049 0009 89       		.byte	-119
 3050 000a 8A       		.byte	-118
 3051 000b 8B       		.byte	-117
 3052 000c 8C       		.byte	-116
 3053 000d 8D       		.byte	-115
 3054 000e 8E       		.byte	-114
 3055 000f 8F       		.byte	-113
 3056 0010 80       		.byte	-128
 3057 0011 91       		.byte	-111
 3058 0012 92       		.byte	-110
 3059 0013 93       		.byte	-109
 3060 0014 94       		.byte	-108
 3061 0015 95       		.byte	-107
 3062 0016 96       		.byte	-106
 3063 0017 97       		.byte	-105
 3064 0018 98       		.byte	-104
 3065 0019 99       		.byte	-103
 3066 001a 8A       		.byte	-118
 3067 001b 9B       		.byte	-101
 3068 001c 8C       		.byte	-116
 3069 001d 8D       		.byte	-115
 3070 001e 8E       		.byte	-114
 3071 001f 8F       		.byte	-113
 3072 0020 A0       		.byte	-96
 3073 0021 A2       		.byte	-94
 3074 0022 A2       		.byte	-94
 3075 0023 A3       		.byte	-93
 3076 0024 A4       		.byte	-92
 3077 0025 A5       		.byte	-91
 3078 0026 A6       		.byte	-90
 3079 0027 A7       		.byte	-89
 3080 0028 A8       		.byte	-88
 3081 0029 A9       		.byte	-87
 3082 002a AA       		.byte	-86
 3083 002b AB       		.byte	-85
 3084 002c AC       		.byte	-84
 3085 002d AD       		.byte	-83
 3086 002e AE       		.byte	-82
 3087 002f AF       		.byte	-81
 3088 0030 B0       		.byte	-80
 3089 0031 B1       		.byte	-79
 3090 0032 B2       		.byte	-78
 3091 0033 B2       		.byte	-78
 3092 0034 A5       		.byte	-91
 3093 0035 B5       		.byte	-75
 3094 0036 B6       		.byte	-74
 3095 0037 B7       		.byte	-73
 3096 0038 A8       		.byte	-88
 3097 0039 B9       		.byte	-71
ARM GAS  C:\Users\z80\AppData\Local\Temp\ccWqrhGE.s 			page 56


 3098 003a AA       		.byte	-86
 3099 003b BB       		.byte	-69
 3100 003c A3       		.byte	-93
 3101 003d BD       		.byte	-67
 3102 003e BD       		.byte	-67
 3103 003f AF       		.byte	-81
 3104 0040 C0       		.byte	-64
 3105 0041 C1       		.byte	-63
 3106 0042 C2       		.byte	-62
 3107 0043 C3       		.byte	-61
 3108 0044 C4       		.byte	-60
 3109 0045 C5       		.byte	-59
 3110 0046 C6       		.byte	-58
 3111 0047 C7       		.byte	-57
 3112 0048 C8       		.byte	-56
 3113 0049 C9       		.byte	-55
 3114 004a CA       		.byte	-54
 3115 004b CB       		.byte	-53
 3116 004c CC       		.byte	-52
 3117 004d CD       		.byte	-51
 3118 004e CE       		.byte	-50
 3119 004f CF       		.byte	-49
 3120 0050 D0       		.byte	-48
 3121 0051 D1       		.byte	-47
 3122 0052 D2       		.byte	-46
 3123 0053 D3       		.byte	-45
 3124 0054 D4       		.byte	-44
 3125 0055 D5       		.byte	-43
 3126 0056 D6       		.byte	-42
 3127 0057 D7       		.byte	-41
 3128 0058 D8       		.byte	-40
 3129 0059 D9       		.byte	-39
 3130 005a DA       		.byte	-38
 3131 005b DB       		.byte	-37
 3132 005c DC       		.byte	-36
 3133 005d DD       		.byte	-35
 3134 005e DE       		.byte	-34
 3135 005f DF       		.byte	-33
 3136 0060 C0       		.byte	-64
 3137 0061 C1       		.byte	-63
 3138 0062 C2       		.byte	-62
 3139 0063 C3       		.byte	-61
 3140 0064 C4       		.byte	-60
 3141 0065 C5       		.byte	-59
 3142 0066 C6       		.byte	-58
 3143 0067 C7       		.byte	-57
 3144 0068 C8       		.byte	-56
 3145 0069 C9       		.byte	-55
 3146 006a CA       		.byte	-54
 3147 006b CB       		.byte	-53
 3148 006c CC       		.byte	-52
 3149 006d CD       		.byte	-51
 3150 006e CE       		.byte	-50
 3151 006f CF       		.byte	-49
 3152 0070 D0       		.byte	-48
 3153 0071 D1       		.byte	-47
 3154 0072 D2       		.byte	-46
ARM GAS  C:\Users\z80\AppData\Local\Temp\ccWqrhGE.s 			page 57


 3155 0073 D3       		.byte	-45
 3156 0074 D4       		.byte	-44
 3157 0075 D5       		.byte	-43
 3158 0076 D6       		.byte	-42
 3159 0077 D7       		.byte	-41
 3160 0078 D8       		.byte	-40
 3161 0079 D9       		.byte	-39
 3162 007a DA       		.byte	-38
 3163 007b DB       		.byte	-37
 3164 007c DC       		.byte	-36
 3165 007d DD       		.byte	-35
 3166 007e DE       		.byte	-34
 3167 007f DF       		.byte	-33
 3168              		.text
 3169              	.Letext0: