ARM GAS  C:\Users\z80\AppData\Local\Temp\ccPNYmwM.s 			page 1


   1              		.syntax unified
   2              		.cpu cortex-m3
   3              		.fpu softvfp
   4              		.eabi_attribute 20, 1
   5              		.eabi_attribute 21, 1
   6              		.eabi_attribute 23, 3
   7              		.eabi_attribute 24, 1
   8              		.eabi_attribute 25, 1
   9              		.eabi_attribute 26, 1
  10              		.eabi_attribute 30, 6
  11              		.eabi_attribute 18, 4
  12              		.thumb
  13              		.file	"hal.c"
  20 0000 22020000 		.text
  20      02009D01 
  20      00000201 
  20      FB0E0D00 
  20      01010101 
  21              	.Ltext0:
  22              		.cfi_sections	.debug_frame
  23              		.section	.text.halInit,"ax",%progbits
  24              		.align	2
  25              		.p2align 4,,15
  26              		.global	halInit
  27              		.thumb
  28              		.thumb_func
  29              		.type	halInit, %function
  30              	halInit:
  31              	.LFB63:
  32              		.file 1 "../chibios_2.6.3/os/hal/src/hal.c"
  33              		.loc 1 68 0
  34              		.cfi_startproc
  35              		@ args = 0, pretend = 0, frame = 0
  36              		@ frame_needed = 0, uses_anonymous_args = 0
  37 0000 08B5     		push	{r3, lr}
  38              	.LCFI0:
  39              		.cfi_def_cfa_offset 8
  40              		.loc 1 70 0
  41              		.cfi_offset 14, -4
  42              		.cfi_offset 3, -8
  43 0002 FFF7FEFF 		bl	hal_lld_init
  44              		.loc 1 73 0
  45 0006 FFF7FEFF 		bl	tmInit
  46              		.loc 1 76 0
  47 000a 40F20000 		movw	r0, #:lower16:pal_default_config
  48 000e C0F20000 		movt	r0, #:upper16:pal_default_config
  49 0012 FFF7FEFF 		bl	_pal_lld_init
  50              		.loc 1 79 0
  51 0016 FFF7FEFF 		bl	adcInit
  52              		.loc 1 100 0
  53 001a FFF7FEFF 		bl	pwmInit
ARM GAS  C:\Users\z80\AppData\Local\Temp\ccPNYmwM.s 			page 2


  54              		.loc 1 103 0
  55 001e FFF7FEFF 		bl	sdInit
  56              		.loc 1 109 0
  57 0022 FFF7FEFF 		bl	spiInit
  58              		.loc 1 118 0
  59 0026 FFF7FEFF 		bl	mmcInit
  60              		.loc 1 124 0
  61 002a FFF7FEFF 		bl	rtcInit
  62              		.loc 1 127 0
  63 002e FFF7FEFF 		bl	boardInit
  64              		.loc 1 128 0
  65 0032 08BD     		pop	{r3, pc}
  66              		.cfi_endproc
  67              	.LFE63:
  68              		.size	halInit, .-halInit
  69 0034 AFF30080 		.section	.text.halIsCounterWithin,"ax",%progbits
  69      AFF30080 
  69      AFF30080 
  70              		.align	2
  71              		.p2align 4,,15
  72              		.global	halIsCounterWithin
  73              		.thumb
  74              		.thumb_func
  75              		.type	halIsCounterWithin, %function
  76              	halIsCounterWithin:
  77              	.LFB64:
  78              		.loc 1 174 0
  79              		.cfi_startproc
  80              		@ args = 0, pretend = 0, frame = 16
  81              		@ frame_needed = 0, uses_anonymous_args = 0
  82              		@ link register save eliminated.
  83 0000 84B0     		sub	sp, sp, #16
  84              	.LCFI1:
  85              		.cfi_def_cfa_offset 16
  86 0002 0190     		str	r0, [sp, #4]
  87 0004 0091     		str	r1, [sp, #0]
  88              		.loc 1 175 0
  89 0006 4FF48053 		mov	r3, #4096
  90 000a CEF20003 		movt	r3, 57344
  91 000e 5B68     		ldr	r3, [r3, #4]
  92 0010 0393     		str	r3, [sp, #12]
  93              		.loc 1 177 0
  94 0012 009A     		ldr	r2, [sp, #0]
  95 0014 019B     		ldr	r3, [sp, #4]
  96 0016 9A42     		cmp	r2, r3
  97 0018 0ED9     		bls	.L3
  98              		.loc 1 177 0 is_stmt 0 discriminator 1
  99 001a 039A     		ldr	r2, [sp, #12]
 100 001c 019B     		ldr	r3, [sp, #4]
 101 001e 9A42     		cmp	r2, r3
 102 0020 06D3     		bcc	.L4
 103              		.loc 1 177 0 discriminator 3
 104 0022 039A     		ldr	r2, [sp, #12]
 105 0024 009B     		ldr	r3, [sp, #0]
 106 0026 9A42     		cmp	r2, r3
 107 0028 02D2     		bcs	.L4
 108              		.loc 1 177 0 discriminator 1
ARM GAS  C:\Users\z80\AppData\Local\Temp\ccPNYmwM.s 			page 3


 109 002a 4FF00103 		mov	r3, #1
 110 002e 01E0     		b	.L5
 111              	.L4:
 112              		.loc 1 177 0 discriminator 4
 113 0030 4FF00003 		mov	r3, #0
 114              	.L5:
 115              		.loc 1 177 0 discriminator 5
 116 0034 DBB2     		uxtb	r3, r3
 117 0036 0DE0     		b	.L6
 118              	.L3:
 119              		.loc 1 177 0 discriminator 2
 120 0038 039A     		ldr	r2, [sp, #12]
 121 003a 019B     		ldr	r3, [sp, #4]
 122 003c 9A42     		cmp	r2, r3
 123 003e 03D2     		bcs	.L7
 124              		.loc 1 178 0 is_stmt 1
 125 0040 039A     		ldr	r2, [sp, #12]
 126 0042 009B     		ldr	r3, [sp, #0]
 127 0044 9A42     		cmp	r2, r3
 128 0046 02D2     		bcs	.L8
 129              	.L7:
 130              		.loc 1 177 0 discriminator 6
 131 0048 4FF00103 		mov	r3, #1
 132 004c 01E0     		b	.L9
 133              	.L8:
 134              		.loc 1 177 0 is_stmt 0
 135 004e 4FF00003 		mov	r3, #0
 136              	.L9:
 137              		.loc 1 177 0 discriminator 7
 138 0052 DBB2     		uxtb	r3, r3
 139              	.L6:
 140              		.loc 1 179 0 is_stmt 1 discriminator 8
 141 0054 1846     		mov	r0, r3
 142 0056 04B0     		add	sp, sp, #16
 143 0058 7047     		bx	lr
 144              		.cfi_endproc
 145              	.LFE64:
 146              		.size	halIsCounterWithin, .-halIsCounterWithin
 147 005a 00BFAFF3 		.section	.text.halPolledDelay,"ax",%progbits
 147      0080
 148              		.align	2
 149              		.p2align 4,,15
 150              		.global	halPolledDelay
 151              		.thumb
 152              		.thumb_func
 153              		.type	halPolledDelay, %function
 154              	halPolledDelay:
 155              	.LFB65:
 156              		.loc 1 193 0
 157              		.cfi_startproc
 158              		@ args = 0, pretend = 0, frame = 16
 159              		@ frame_needed = 0, uses_anonymous_args = 0
 160 0000 00B5     		push	{lr}
 161              	.LCFI2:
 162              		.cfi_def_cfa_offset 4
 163 0002 85B0     		sub	sp, sp, #20
 164              	.LCFI3:
ARM GAS  C:\Users\z80\AppData\Local\Temp\ccPNYmwM.s 			page 4


 165              		.cfi_def_cfa_offset 24
 166 0004 0190     		str	r0, [sp, #4]
 167              		.loc 1 194 0
 168 0006 4FF48053 		mov	r3, #4096
 169 000a CEF20003 		movt	r3, 57344
 170 000e 5B68     		ldr	r3, [r3, #4]
 171 0010 0393     		str	r3, [sp, #12]
 172              		.loc 1 195 0
 173 0012 039A     		ldr	r2, [sp, #12]
 174 0014 019B     		ldr	r3, [sp, #4]
 175 0016 1344     		add	r3, r2, r3
 176 0018 0293     		str	r3, [sp, #8]
 177              		.loc 1 196 0
 178 001a 00BF     		nop
 179              	.L11:
 180              		.loc 1 196 0 is_stmt 0 discriminator 1
 181 001c 0398     		ldr	r0, [sp, #12]
 182 001e 0299     		ldr	r1, [sp, #8]
 183              		.cfi_offset 14, -4
 184 0020 FFF7FEFF 		bl	halIsCounterWithin
 185 0024 0346     		mov	r3, r0
 186 0026 002B     		cmp	r3, #0
 187 0028 F8D1     		bne	.L11
 188              		.loc 1 198 0 is_stmt 1
 189 002a 05B0     		add	sp, sp, #20
 190 002c 00BD     		pop	{pc}
 191              		.cfi_endproc
 192              	.LFE65:
 193              		.size	halPolledDelay, .-halPolledDelay
 194 002e 00BF     		.text
 195              	.Letext0: