ARM GAS  C:\Users\z80\AppData\Local\Temp\ccxHmona.s 			page 1


   1              		.syntax unified
   2              		.cpu cortex-m3
   3              		.fpu softvfp
   4              		.eabi_attribute 20, 1
   5              		.eabi_attribute 21, 1
   6              		.eabi_attribute 23, 3
   7              		.eabi_attribute 24, 1
   8              		.eabi_attribute 25, 1
   9              		.eabi_attribute 26, 1
  10              		.eabi_attribute 30, 6
  11              		.eabi_attribute 18, 4
  12              		.thumb
  13              		.file	"hal_lld.c"
  20 0000 9F010000 		.text
  20      02001901 
  20      00000201 
  20      FB0E0D00 
  20      01010101 
  21              	.Ltext0:
  22              		.cfi_sections	.debug_frame
  23              		.section	.text.hal_lld_backup_domain_init,"ax",%progbits
  24              		.align	2
  25              		.p2align 4,,15
  26              		.thumb
  27              		.thumb_func
  28              		.type	hal_lld_backup_domain_init, %function
  29              	hal_lld_backup_domain_init:
  30              	.LFB63:
  31              		.file 1 "../chibios_2.6.3/os/hal/platforms/STM32F1xx/hal_lld.c"
  32              		.loc 1 49 0
  33              		.cfi_startproc
  34              		@ args = 0, pretend = 0, frame = 0
  35              		@ frame_needed = 0, uses_anonymous_args = 0
  36 0000 08B5     		push	{r3, lr}
  37              	.LCFI0:
  38              		.cfi_def_cfa_offset 8
  39              		.loc 1 52 0
  40 0002 4FF4E043 		mov	r3, #28672
  41              		.cfi_offset 14, -4
  42              		.cfi_offset 3, -8
  43 0006 C4F20003 		movt	r3, 16384
  44 000a 4FF4E042 		mov	r2, #28672
  45 000e C4F20002 		movt	r2, 16384
  46 0012 1268     		ldr	r2, [r2, #0]
  47 0014 42F48072 		orr	r2, r2, #256
  48 0018 1A60     		str	r2, [r3, #0]
  49              		.loc 1 56 0
  50 001a 4FF48053 		mov	r3, #4096
  51 001e C4F20203 		movt	r3, 16386
  52 0022 1B6A     		ldr	r3, [r3, #32]
  53 0024 03F44073 		and	r3, r3, #768
ARM GAS  C:\Users\z80\AppData\Local\Temp\ccxHmona.s 			page 2


  54 0028 B3F5407F 		cmp	r3, #768
  55 002c 0DD0     		beq	.L2
  56              		.loc 1 58 0
  57 002e 4FF48053 		mov	r3, #4096
  58 0032 C4F20203 		movt	r3, 16386
  59 0036 4FF48032 		mov	r2, #65536
  60 003a 1A62     		str	r2, [r3, #32]
  61              		.loc 1 59 0
  62 003c 4FF48053 		mov	r3, #4096
  63 0040 C4F20203 		movt	r3, 16386
  64 0044 4FF00002 		mov	r2, #0
  65 0048 1A62     		str	r2, [r3, #32]
  66              	.L2:
  67              		.loc 1 72 0
  68 004a 4FF48053 		mov	r3, #4096
  69 004e C4F20203 		movt	r3, 16386
  70 0052 1B6A     		ldr	r3, [r3, #32]
  71 0054 03F40043 		and	r3, r3, #32768
  72 0058 002B     		cmp	r3, #0
  73 005a 19D1     		bne	.L1
  74              		.loc 1 74 0
  75 005c 4FF48053 		mov	r3, #4096
  76 0060 C4F20203 		movt	r3, 16386
  77 0064 4FF48052 		mov	r2, #4096
  78 0068 C4F20202 		movt	r2, 16386
  79 006c 126A     		ldr	r2, [r2, #32]
  80 006e 42F44072 		orr	r2, r2, #768
  81 0072 1A62     		str	r2, [r3, #32]
  82              		.loc 1 77 0
  83 0074 FFF7FEFF 		bl	rtc_lld_set_prescaler
  84              		.loc 1 80 0
  85 0078 4FF48053 		mov	r3, #4096
  86 007c C4F20203 		movt	r3, 16386
  87 0080 4FF48052 		mov	r2, #4096
  88 0084 C4F20202 		movt	r2, 16386
  89 0088 126A     		ldr	r2, [r2, #32]
  90 008a 42F40042 		orr	r2, r2, #32768
  91 008e 1A62     		str	r2, [r3, #32]
  92              	.L1:
  93              		.loc 1 84 0
  94 0090 08BD     		pop	{r3, pc}
  95              		.cfi_endproc
  96              	.LFE63:
  97              		.size	hal_lld_backup_domain_init, .-hal_lld_backup_domain_init
  98 0092 00BFAFF3 		.section	.text.hal_lld_init,"ax",%progbits
  98      0080AFF3 
  98      0080AFF3 
  98      0080
  99              		.align	2
 100              		.p2align 4,,15
 101              		.global	hal_lld_init
 102              		.thumb
 103              		.thumb_func
 104              		.type	hal_lld_init, %function
 105              	hal_lld_init:
 106              	.LFB64:
 107              		.loc 1 99 0
ARM GAS  C:\Users\z80\AppData\Local\Temp\ccxHmona.s 			page 3


 108              		.cfi_startproc
 109              		@ args = 0, pretend = 0, frame = 0
 110              		@ frame_needed = 0, uses_anonymous_args = 0
 111 0000 08B5     		push	{r3, lr}
 112              	.LCFI1:
 113              		.cfi_def_cfa_offset 8
 114              		.loc 1 102 0
 115 0002 4FF48053 		mov	r3, #4096
 116              		.cfi_offset 14, -4
 117              		.cfi_offset 3, -8
 118 0006 C4F20203 		movt	r3, 16386
 119 000a 1B69     		ldr	r3, [r3, #16]
 120 000c 4FF48053 		mov	r3, #4096
 121 0010 C4F20203 		movt	r3, 16386
 122 0014 4FF0FF32 		mov	r2, #-1
 123 0018 1A61     		str	r2, [r3, #16]
 124 001a 4FF48053 		mov	r3, #4096
 125 001e C4F20203 		movt	r3, 16386
 126 0022 4FF00002 		mov	r2, #0
 127 0026 1A61     		str	r2, [r3, #16]
 128              		.loc 1 103 0
 129 0028 4FF48053 		mov	r3, #4096
 130 002c C4F20203 		movt	r3, 16386
 131 0030 DB68     		ldr	r3, [r3, #12]
 132 0032 4FF48053 		mov	r3, #4096
 133 0036 C4F20203 		movt	r3, 16386
 134 003a 4FF0FF32 		mov	r2, #-1
 135 003e DA60     		str	r2, [r3, #12]
 136 0040 4FF48053 		mov	r3, #4096
 137 0044 C4F20203 		movt	r3, 16386
 138 0048 4FF00002 		mov	r2, #0
 139 004c DA60     		str	r2, [r3, #12]
 140              		.loc 1 106 0
 141 004e 4EF21003 		movw	r3, #57360
 142 0052 CEF20003 		movt	r3, 57344
 143 0056 45F6BF52 		movw	r2, #23999
 144 005a 5A60     		str	r2, [r3, #4]
 145              		.loc 1 107 0
 146 005c 4EF21003 		movw	r3, #57360
 147 0060 CEF20003 		movt	r3, 57344
 148 0064 4FF00002 		mov	r2, #0
 149 0068 9A60     		str	r2, [r3, #8]
 150              		.loc 1 108 0
 151 006a 4EF21003 		movw	r3, #57360
 152 006e CEF20003 		movt	r3, 57344
 153 0072 4FF00702 		mov	r2, #7
 154 0076 1A60     		str	r2, [r3, #0]
 155              		.loc 1 113 0
 156 0078 4EF6F053 		movw	r3, #60912
 157 007c CEF20003 		movt	r3, 57344
 158 0080 4EF6F052 		movw	r2, #60912
 159 0084 CEF20002 		movt	r2, 57344
 160 0088 D268     		ldr	r2, [r2, #12]
 161 008a 42F08072 		orr	r2, r2, #16777216
 162 008e DA60     		str	r2, [r3, #12]
 163              		.loc 1 114 0
 164 0090 4FF48053 		mov	r3, #4096
ARM GAS  C:\Users\z80\AppData\Local\Temp\ccxHmona.s 			page 4


 165 0094 CEF20003 		movt	r3, 57344
 166 0098 4FF48052 		mov	r2, #4096
 167 009c CEF20002 		movt	r2, 57344
 168 00a0 1268     		ldr	r2, [r2, #0]
 169 00a2 42F00102 		orr	r2, r2, #1
 170 00a6 1A60     		str	r2, [r3, #0]
 171              		.loc 1 117 0
 172 00a8 4FF48053 		mov	r3, #4096
 173 00ac C4F20203 		movt	r3, 16386
 174 00b0 4FF48052 		mov	r2, #4096
 175 00b4 C4F20202 		movt	r2, 16386
 176 00b8 D269     		ldr	r2, [r2, #28]
 177 00ba 42F08052 		orr	r2, r2, #268435456
 178 00be DA61     		str	r2, [r3, #28]
 179              		.loc 1 118 0
 180 00c0 4FF48053 		mov	r3, #4096
 181 00c4 C4F20203 		movt	r3, 16386
 182 00c8 4FF48052 		mov	r2, #4096
 183 00cc C4F20202 		movt	r2, 16386
 184 00d0 D269     		ldr	r2, [r2, #28]
 185 00d2 42F00062 		orr	r2, r2, #134217728
 186 00d6 DA61     		str	r2, [r3, #28]
 187              		.loc 1 121 0
 188 00d8 FFF7FEFF 		bl	hal_lld_backup_domain_init
 189              		.loc 1 124 0
 190 00dc FFF7FEFF 		bl	dmaInit
 191              		.loc 1 131 0
 192 00e0 08BD     		pop	{r3, pc}
 193              		.cfi_endproc
 194              	.LFE64:
 195              		.size	hal_lld_init, .-hal_lld_init
 196 00e2 00BFAFF3 		.section	.text.stm32_clock_init,"ax",%progbits
 196      0080AFF3 
 196      0080AFF3 
 196      0080
 197              		.align	2
 198              		.p2align 4,,15
 199              		.global	stm32_clock_init
 200              		.thumb
 201              		.thumb_func
 202              		.type	stm32_clock_init, %function
 203              	stm32_clock_init:
 204              	.LFB65:
 205              		.loc 1 147 0
 206              		.cfi_startproc
 207              		@ args = 0, pretend = 0, frame = 0
 208              		@ frame_needed = 0, uses_anonymous_args = 0
 209              		@ link register save eliminated.
 210              		.loc 1 152 0
 211 0000 4FF48053 		mov	r3, #4096
 212 0004 C4F20203 		movt	r3, 16386
 213 0008 4FF48052 		mov	r2, #4096
 214 000c C4F20202 		movt	r2, 16386
 215 0010 1268     		ldr	r2, [r2, #0]
 216 0012 42F00102 		orr	r2, r2, #1
 217 0016 1A60     		str	r2, [r3, #0]
 218              		.loc 1 153 0
ARM GAS  C:\Users\z80\AppData\Local\Temp\ccxHmona.s 			page 5


 219 0018 00BF     		nop
 220              	.L6:
 221              		.loc 1 153 0 is_stmt 0 discriminator 1
 222 001a 4FF48053 		mov	r3, #4096
 223 001e C4F20203 		movt	r3, 16386
 224 0022 1B68     		ldr	r3, [r3, #0]
 225 0024 03F00203 		and	r3, r3, #2
 226 0028 002B     		cmp	r3, #0
 227 002a F6D0     		beq	.L6
 228              		.loc 1 155 0 is_stmt 1
 229 002c 4FF48053 		mov	r3, #4096
 230 0030 C4F20203 		movt	r3, 16386
 231 0034 4FF48052 		mov	r2, #4096
 232 0038 C4F20202 		movt	r2, 16386
 233 003c 1268     		ldr	r2, [r2, #0]
 234 003e 02F0F902 		and	r2, r2, #249
 235 0042 1A60     		str	r2, [r3, #0]
 236              		.loc 1 156 0
 237 0044 4FF48053 		mov	r3, #4096
 238 0048 C4F20203 		movt	r3, 16386
 239 004c 4FF00002 		mov	r2, #0
 240 0050 5A60     		str	r2, [r3, #4]
 241              		.loc 1 157 0
 242 0052 00BF     		nop
 243              	.L7:
 244              		.loc 1 157 0 is_stmt 0 discriminator 1
 245 0054 4FF48053 		mov	r3, #4096
 246 0058 C4F20203 		movt	r3, 16386
 247 005c 5B68     		ldr	r3, [r3, #4]
 248 005e 03F00C03 		and	r3, r3, #12
 249 0062 002B     		cmp	r3, #0
 250 0064 F6D1     		bne	.L7
 251              		.loc 1 166 0 is_stmt 1
 252 0066 4FF48053 		mov	r3, #4096
 253 006a C4F20203 		movt	r3, 16386
 254 006e 4FF48052 		mov	r2, #4096
 255 0072 C4F20202 		movt	r2, 16386
 256 0076 1268     		ldr	r2, [r2, #0]
 257 0078 42F48032 		orr	r2, r2, #65536
 258 007c 1A60     		str	r2, [r3, #0]
 259              		.loc 1 167 0
 260 007e 00BF     		nop
 261              	.L8:
 262              		.loc 1 167 0 is_stmt 0 discriminator 1
 263 0080 4FF48053 		mov	r3, #4096
 264 0084 C4F20203 		movt	r3, 16386
 265 0088 1B68     		ldr	r3, [r3, #0]
 266 008a 03F40033 		and	r3, r3, #131072
 267 008e 002B     		cmp	r3, #0
 268 0090 F6D0     		beq	.L8
 269              		.loc 1 180 0 is_stmt 1
 270 0092 4FF48053 		mov	r3, #4096
 271 0096 C4F20203 		movt	r3, 16386
 272 009a 4FF48052 		mov	r2, #4096
 273 009e C4F20202 		movt	r2, 16386
 274 00a2 5268     		ldr	r2, [r2, #4]
 275 00a4 42F4A022 		orr	r2, r2, #327680
ARM GAS  C:\Users\z80\AppData\Local\Temp\ccxHmona.s 			page 6


 276 00a8 5A60     		str	r2, [r3, #4]
 277              		.loc 1 181 0
 278 00aa 4FF48053 		mov	r3, #4096
 279 00ae C4F20203 		movt	r3, 16386
 280 00b2 4FF48052 		mov	r2, #4096
 281 00b6 C4F20202 		movt	r2, 16386
 282 00ba 1268     		ldr	r2, [r2, #0]
 283 00bc 42F08072 		orr	r2, r2, #16777216
 284 00c0 1A60     		str	r2, [r3, #0]
 285              		.loc 1 182 0
 286 00c2 00BF     		nop
 287              	.L9:
 288              		.loc 1 182 0 is_stmt 0 discriminator 1
 289 00c4 4FF48053 		mov	r3, #4096
 290 00c8 C4F20203 		movt	r3, 16386
 291 00cc 1B68     		ldr	r3, [r3, #0]
 292 00ce 03F00073 		and	r3, r3, #33554432
 293 00d2 002B     		cmp	r3, #0
 294 00d4 F6D0     		beq	.L9
 295              		.loc 1 188 0 is_stmt 1
 296 00d6 4FF48053 		mov	r3, #4096
 297 00da C4F20203 		movt	r3, 16386
 298 00de 4FF4C842 		mov	r2, #25600
 299 00e2 C0F24502 		movt	r2, 69
 300 00e6 5A60     		str	r2, [r3, #4]
 301              		.loc 1 198 0
 302 00e8 4FF40053 		mov	r3, #8192
 303 00ec C4F20203 		movt	r3, 16386
 304 00f0 4FF01002 		mov	r2, #16
 305 00f4 1A60     		str	r2, [r3, #0]
 306              		.loc 1 203 0
 307 00f6 4FF48053 		mov	r3, #4096
 308 00fa C4F20203 		movt	r3, 16386
 309 00fe 4FF48052 		mov	r2, #4096
 310 0102 C4F20202 		movt	r2, 16386
 311 0106 5268     		ldr	r2, [r2, #4]
 312 0108 42F00202 		orr	r2, r2, #2
 313 010c 5A60     		str	r2, [r3, #4]
 314              		.loc 1 204 0
 315 010e 00BF     		nop
 316              	.L10:
 317              		.loc 1 204 0 is_stmt 0 discriminator 1
 318 0110 4FF48053 		mov	r3, #4096
 319 0114 C4F20203 		movt	r3, 16386
 320 0118 5B68     		ldr	r3, [r3, #4]
 321 011a 03F00C03 		and	r3, r3, #12
 322 011e 082B     		cmp	r3, #8
 323 0120 F6D1     		bne	.L10
 324              		.loc 1 212 0 is_stmt 1
 325 0122 7047     		bx	lr
 326              		.cfi_endproc
 327              	.LFE65:
 328              		.size	stm32_clock_init, .-stm32_clock_init
 329 0124 AFF30080 		.text
 329      AFF30080 
 329      AFF30080 
 330              	.Letext0:
ARM GAS  C:\Users\z80\AppData\Local\Temp\ccxHmona.s 			page 7

