ARM GAS  C:\Users\z80\AppData\Local\Temp\cc9PmWEj.s 			page 1


   1              		.syntax unified
   2              		.cpu cortex-m3
   3              		.fpu softvfp
   4              		.eabi_attribute 20, 1
   5              		.eabi_attribute 21, 1
   6              		.eabi_attribute 23, 3
   7              		.eabi_attribute 24, 1
   8              		.eabi_attribute 25, 1
   9              		.eabi_attribute 26, 1
  10              		.eabi_attribute 30, 6
  11              		.eabi_attribute 18, 4
  12              		.thumb
  13              		.file	"mmc_spi.c"
  20 0000 12060000 		.text
  20      0200A402 
  20      00000201 
  20      FB0E0D00 
  20      01010101 
  21              	.Ltext0:
  22              		.cfi_sections	.debug_frame
  23              		.section	.rodata.mmc_vmt,"a",%progbits
  24              		.align	2
  25              		.type	mmc_vmt, %object
  26              		.size	mmc_vmt, 32
  27              	mmc_vmt:
  28 0000 00000000 		.word	mmc_lld_is_card_inserted
  29 0004 00000000 		.word	mmc_lld_is_write_protected
  30 0008 00000000 		.word	mmcConnect
  31 000c 00000000 		.word	mmcDisconnect
  32 0010 00000000 		.word	mmc_read
  33 0014 00000000 		.word	mmc_write
  34 0018 00000000 		.word	mmcSync
  35 001c 00000000 		.word	mmcGetInfo
  36              		.section	.rodata.crc7_lookup_table,"a",%progbits
  37              		.align	2
  38              		.type	crc7_lookup_table, %object
  39              		.size	crc7_lookup_table, 256
  40              	crc7_lookup_table:
  41 0000 00       		.byte	0
  42 0001 09       		.byte	9
  43 0002 12       		.byte	18
  44 0003 1B       		.byte	27
  45 0004 24       		.byte	36
  46 0005 2D       		.byte	45
  47 0006 36       		.byte	54
  48 0007 3F       		.byte	63
  49 0008 48       		.byte	72
  50 0009 41       		.byte	65
  51 000a 5A       		.byte	90
  52 000b 53       		.byte	83
  53 000c 6C       		.byte	108
ARM GAS  C:\Users\z80\AppData\Local\Temp\cc9PmWEj.s 			page 2


  54 000d 65       		.byte	101
  55 000e 7E       		.byte	126
  56 000f 77       		.byte	119
  57 0010 19       		.byte	25
  58 0011 10       		.byte	16
  59 0012 0B       		.byte	11
  60 0013 02       		.byte	2
  61 0014 3D       		.byte	61
  62 0015 34       		.byte	52
  63 0016 2F       		.byte	47
  64 0017 26       		.byte	38
  65 0018 51       		.byte	81
  66 0019 58       		.byte	88
  67 001a 43       		.byte	67
  68 001b 4A       		.byte	74
  69 001c 75       		.byte	117
  70 001d 7C       		.byte	124
  71 001e 67       		.byte	103
  72 001f 6E       		.byte	110
  73 0020 32       		.byte	50
  74 0021 3B       		.byte	59
  75 0022 20       		.byte	32
  76 0023 29       		.byte	41
  77 0024 16       		.byte	22
  78 0025 1F       		.byte	31
  79 0026 04       		.byte	4
  80 0027 0D       		.byte	13
  81 0028 7A       		.byte	122
  82 0029 73       		.byte	115
  83 002a 68       		.byte	104
  84 002b 61       		.byte	97
  85 002c 5E       		.byte	94
  86 002d 57       		.byte	87
  87 002e 4C       		.byte	76
  88 002f 45       		.byte	69
  89 0030 2B       		.byte	43
  90 0031 22       		.byte	34
  91 0032 39       		.byte	57
  92 0033 30       		.byte	48
  93 0034 0F       		.byte	15
  94 0035 06       		.byte	6
  95 0036 1D       		.byte	29
  96 0037 14       		.byte	20
  97 0038 63       		.byte	99
  98 0039 6A       		.byte	106
  99 003a 71       		.byte	113
 100 003b 78       		.byte	120
 101 003c 47       		.byte	71
 102 003d 4E       		.byte	78
 103 003e 55       		.byte	85
 104 003f 5C       		.byte	92
 105 0040 64       		.byte	100
 106 0041 6D       		.byte	109
 107 0042 76       		.byte	118
 108 0043 7F       		.byte	127
 109 0044 40       		.byte	64
 110 0045 49       		.byte	73
ARM GAS  C:\Users\z80\AppData\Local\Temp\cc9PmWEj.s 			page 3


 111 0046 52       		.byte	82
 112 0047 5B       		.byte	91
 113 0048 2C       		.byte	44
 114 0049 25       		.byte	37
 115 004a 3E       		.byte	62
 116 004b 37       		.byte	55
 117 004c 08       		.byte	8
 118 004d 01       		.byte	1
 119 004e 1A       		.byte	26
 120 004f 13       		.byte	19
 121 0050 7D       		.byte	125
 122 0051 74       		.byte	116
 123 0052 6F       		.byte	111
 124 0053 66       		.byte	102
 125 0054 59       		.byte	89
 126 0055 50       		.byte	80
 127 0056 4B       		.byte	75
 128 0057 42       		.byte	66
 129 0058 35       		.byte	53
 130 0059 3C       		.byte	60
 131 005a 27       		.byte	39
 132 005b 2E       		.byte	46
 133 005c 11       		.byte	17
 134 005d 18       		.byte	24
 135 005e 03       		.byte	3
 136 005f 0A       		.byte	10
 137 0060 56       		.byte	86
 138 0061 5F       		.byte	95
 139 0062 44       		.byte	68
 140 0063 4D       		.byte	77
 141 0064 72       		.byte	114
 142 0065 7B       		.byte	123
 143 0066 60       		.byte	96
 144 0067 69       		.byte	105
 145 0068 1E       		.byte	30
 146 0069 17       		.byte	23
 147 006a 0C       		.byte	12
 148 006b 05       		.byte	5
 149 006c 3A       		.byte	58
 150 006d 33       		.byte	51
 151 006e 28       		.byte	40
 152 006f 21       		.byte	33
 153 0070 4F       		.byte	79
 154 0071 46       		.byte	70
 155 0072 5D       		.byte	93
 156 0073 54       		.byte	84
 157 0074 6B       		.byte	107
 158 0075 62       		.byte	98
 159 0076 79       		.byte	121
 160 0077 70       		.byte	112
 161 0078 07       		.byte	7
 162 0079 0E       		.byte	14
 163 007a 15       		.byte	21
 164 007b 1C       		.byte	28
 165 007c 23       		.byte	35
 166 007d 2A       		.byte	42
 167 007e 31       		.byte	49
ARM GAS  C:\Users\z80\AppData\Local\Temp\cc9PmWEj.s 			page 4


 168 007f 38       		.byte	56
 169 0080 41       		.byte	65
 170 0081 48       		.byte	72
 171 0082 53       		.byte	83
 172 0083 5A       		.byte	90
 173 0084 65       		.byte	101
 174 0085 6C       		.byte	108
 175 0086 77       		.byte	119
 176 0087 7E       		.byte	126
 177 0088 09       		.byte	9
 178 0089 00       		.byte	0
 179 008a 1B       		.byte	27
 180 008b 12       		.byte	18
 181 008c 2D       		.byte	45
 182 008d 24       		.byte	36
 183 008e 3F       		.byte	63
 184 008f 36       		.byte	54
 185 0090 58       		.byte	88
 186 0091 51       		.byte	81
 187 0092 4A       		.byte	74
 188 0093 43       		.byte	67
 189 0094 7C       		.byte	124
 190 0095 75       		.byte	117
 191 0096 6E       		.byte	110
 192 0097 67       		.byte	103
 193 0098 10       		.byte	16
 194 0099 19       		.byte	25
 195 009a 02       		.byte	2
 196 009b 0B       		.byte	11
 197 009c 34       		.byte	52
 198 009d 3D       		.byte	61
 199 009e 26       		.byte	38
 200 009f 2F       		.byte	47
 201 00a0 73       		.byte	115
 202 00a1 7A       		.byte	122
 203 00a2 61       		.byte	97
 204 00a3 68       		.byte	104
 205 00a4 57       		.byte	87
 206 00a5 5E       		.byte	94
 207 00a6 45       		.byte	69
 208 00a7 4C       		.byte	76
 209 00a8 3B       		.byte	59
 210 00a9 32       		.byte	50
 211 00aa 29       		.byte	41
 212 00ab 20       		.byte	32
 213 00ac 1F       		.byte	31
 214 00ad 16       		.byte	22
 215 00ae 0D       		.byte	13
 216 00af 04       		.byte	4
 217 00b0 6A       		.byte	106
 218 00b1 63       		.byte	99
 219 00b2 78       		.byte	120
 220 00b3 71       		.byte	113
 221 00b4 4E       		.byte	78
 222 00b5 47       		.byte	71
 223 00b6 5C       		.byte	92
 224 00b7 55       		.byte	85
ARM GAS  C:\Users\z80\AppData\Local\Temp\cc9PmWEj.s 			page 5


 225 00b8 22       		.byte	34
 226 00b9 2B       		.byte	43
 227 00ba 30       		.byte	48
 228 00bb 39       		.byte	57
 229 00bc 06       		.byte	6
 230 00bd 0F       		.byte	15
 231 00be 14       		.byte	20
 232 00bf 1D       		.byte	29
 233 00c0 25       		.byte	37
 234 00c1 2C       		.byte	44
 235 00c2 37       		.byte	55
 236 00c3 3E       		.byte	62
 237 00c4 01       		.byte	1
 238 00c5 08       		.byte	8
 239 00c6 13       		.byte	19
 240 00c7 1A       		.byte	26
 241 00c8 6D       		.byte	109
 242 00c9 64       		.byte	100
 243 00ca 7F       		.byte	127
 244 00cb 76       		.byte	118
 245 00cc 49       		.byte	73
 246 00cd 40       		.byte	64
 247 00ce 5B       		.byte	91
 248 00cf 52       		.byte	82
 249 00d0 3C       		.byte	60
 250 00d1 35       		.byte	53
 251 00d2 2E       		.byte	46
 252 00d3 27       		.byte	39
 253 00d4 18       		.byte	24
 254 00d5 11       		.byte	17
 255 00d6 0A       		.byte	10
 256 00d7 03       		.byte	3
 257 00d8 74       		.byte	116
 258 00d9 7D       		.byte	125
 259 00da 66       		.byte	102
 260 00db 6F       		.byte	111
 261 00dc 50       		.byte	80
 262 00dd 59       		.byte	89
 263 00de 42       		.byte	66
 264 00df 4B       		.byte	75
 265 00e0 17       		.byte	23
 266 00e1 1E       		.byte	30
 267 00e2 05       		.byte	5
 268 00e3 0C       		.byte	12
 269 00e4 33       		.byte	51
 270 00e5 3A       		.byte	58
 271 00e6 21       		.byte	33
 272 00e7 28       		.byte	40
 273 00e8 5F       		.byte	95
 274 00e9 56       		.byte	86
 275 00ea 4D       		.byte	77
 276 00eb 44       		.byte	68
 277 00ec 7B       		.byte	123
 278 00ed 72       		.byte	114
 279 00ee 69       		.byte	105
 280 00ef 60       		.byte	96
 281 00f0 0E       		.byte	14
ARM GAS  C:\Users\z80\AppData\Local\Temp\cc9PmWEj.s 			page 6


 282 00f1 07       		.byte	7
 283 00f2 1C       		.byte	28
 284 00f3 15       		.byte	21
 285 00f4 2A       		.byte	42
 286 00f5 23       		.byte	35
 287 00f6 38       		.byte	56
 288 00f7 31       		.byte	49
 289 00f8 46       		.byte	70
 290 00f9 4F       		.byte	79
 291 00fa 54       		.byte	84
 292 00fb 5D       		.byte	93
 293 00fc 62       		.byte	98
 294 00fd 6B       		.byte	107
 295 00fe 70       		.byte	112
 296 00ff 79       		.byte	121
 297              		.section	.text.mmc_read,"ax",%progbits
 298              		.align	2
 299              		.p2align 4,,15
 300              		.thumb
 301              		.thumb_func
 302              		.type	mmc_read, %function
 303              	mmc_read:
 304              	.LFB63:
 305              		.file 1 "../chibios_2.6.3/os/hal/src/mmc_spi.c"
 306              		.loc 1 111 0
 307              		.cfi_startproc
 308              		@ args = 0, pretend = 0, frame = 16
 309              		@ frame_needed = 0, uses_anonymous_args = 0
 310 0000 00B5     		push	{lr}
 311              	.LCFI0:
 312              		.cfi_def_cfa_offset 4
 313 0002 85B0     		sub	sp, sp, #20
 314              	.LCFI1:
 315              		.cfi_def_cfa_offset 24
 316 0004 0390     		str	r0, [sp, #12]
 317 0006 0291     		str	r1, [sp, #8]
 318 0008 0192     		str	r2, [sp, #4]
 319 000a 0093     		str	r3, [sp, #0]
 320              		.loc 1 113 0
 321 000c 039B     		ldr	r3, [sp, #12]
 322 000e 1846     		mov	r0, r3
 323 0010 0299     		ldr	r1, [sp, #8]
 324              		.cfi_offset 14, -4
 325 0012 FFF7FEFF 		bl	mmcStartSequentialRead
 326 0016 0346     		mov	r3, r0
 327 0018 002B     		cmp	r3, #0
 328 001a 15D0     		beq	.L4
 329              		.loc 1 114 0
 330 001c 4FF00103 		mov	r3, #1
 331 0020 21E0     		b	.L3
 332              	.L6:
 333              		.loc 1 116 0
 334 0022 039B     		ldr	r3, [sp, #12]
 335 0024 1846     		mov	r0, r3
 336 0026 0199     		ldr	r1, [sp, #4]
 337 0028 FFF7FEFF 		bl	mmcSequentialRead
 338 002c 0346     		mov	r3, r0
ARM GAS  C:\Users\z80\AppData\Local\Temp\cc9PmWEj.s 			page 7


 339 002e 002B     		cmp	r3, #0
 340 0030 02D0     		beq	.L5
 341              		.loc 1 117 0
 342 0032 4FF00103 		mov	r3, #1
 343 0036 16E0     		b	.L3
 344              	.L5:
 345              		.loc 1 118 0
 346 0038 019B     		ldr	r3, [sp, #4]
 347 003a 03F50073 		add	r3, r3, #512
 348 003e 0193     		str	r3, [sp, #4]
 349              		.loc 1 119 0
 350 0040 009B     		ldr	r3, [sp, #0]
 351 0042 03F1FF33 		add	r3, r3, #-1
 352 0046 0093     		str	r3, [sp, #0]
 353              	.L4:
 354              		.loc 1 115 0 discriminator 1
 355 0048 009B     		ldr	r3, [sp, #0]
 356 004a 002B     		cmp	r3, #0
 357 004c E9D1     		bne	.L6
 358              		.loc 1 121 0
 359 004e 039B     		ldr	r3, [sp, #12]
 360 0050 1846     		mov	r0, r3
 361 0052 FFF7FEFF 		bl	mmcStopSequentialRead
 362 0056 0346     		mov	r3, r0
 363 0058 002B     		cmp	r3, #0
 364 005a 02D0     		beq	.L7
 365              		.loc 1 122 0
 366 005c 4FF00103 		mov	r3, #1
 367 0060 01E0     		b	.L3
 368              	.L7:
 369              		.loc 1 123 0
 370 0062 4FF00003 		mov	r3, #0
 371              	.L3:
 372              		.loc 1 124 0
 373 0066 1846     		mov	r0, r3
 374 0068 05B0     		add	sp, sp, #20
 375 006a 00BD     		pop	{pc}
 376              		.cfi_endproc
 377              	.LFE63:
 378              		.size	mmc_read, .-mmc_read
 379 006c AFF30080 		.section	.text.mmc_write,"ax",%progbits
 380              		.align	2
 381              		.p2align 4,,15
 382              		.thumb
 383              		.thumb_func
 384              		.type	mmc_write, %function
 385              	mmc_write:
 386              	.LFB64:
 387              		.loc 1 127 0
 388              		.cfi_startproc
 389              		@ args = 0, pretend = 0, frame = 16
 390              		@ frame_needed = 0, uses_anonymous_args = 0
 391 0000 00B5     		push	{lr}
 392              	.LCFI2:
 393              		.cfi_def_cfa_offset 4
 394 0002 85B0     		sub	sp, sp, #20
 395              	.LCFI3:
ARM GAS  C:\Users\z80\AppData\Local\Temp\cc9PmWEj.s 			page 8


 396              		.cfi_def_cfa_offset 24
 397 0004 0390     		str	r0, [sp, #12]
 398 0006 0291     		str	r1, [sp, #8]
 399 0008 0192     		str	r2, [sp, #4]
 400 000a 0093     		str	r3, [sp, #0]
 401              		.loc 1 129 0
 402 000c 039B     		ldr	r3, [sp, #12]
 403 000e 1846     		mov	r0, r3
 404 0010 0299     		ldr	r1, [sp, #8]
 405              		.cfi_offset 14, -4
 406 0012 FFF7FEFF 		bl	mmcStartSequentialWrite
 407 0016 0346     		mov	r3, r0
 408 0018 002B     		cmp	r3, #0
 409 001a 15D0     		beq	.L11
 410              		.loc 1 130 0
 411 001c 4FF00103 		mov	r3, #1
 412 0020 21E0     		b	.L10
 413              	.L13:
 414              		.loc 1 132 0
 415 0022 039B     		ldr	r3, [sp, #12]
 416 0024 1846     		mov	r0, r3
 417 0026 0199     		ldr	r1, [sp, #4]
 418 0028 FFF7FEFF 		bl	mmcSequentialWrite
 419 002c 0346     		mov	r3, r0
 420 002e 002B     		cmp	r3, #0
 421 0030 02D0     		beq	.L12
 422              		.loc 1 133 0
 423 0032 4FF00103 		mov	r3, #1
 424 0036 16E0     		b	.L10
 425              	.L12:
 426              		.loc 1 134 0
 427 0038 019B     		ldr	r3, [sp, #4]
 428 003a 03F50073 		add	r3, r3, #512
 429 003e 0193     		str	r3, [sp, #4]
 430              		.loc 1 135 0
 431 0040 009B     		ldr	r3, [sp, #0]
 432 0042 03F1FF33 		add	r3, r3, #-1
 433 0046 0093     		str	r3, [sp, #0]
 434              	.L11:
 435              		.loc 1 131 0 discriminator 1
 436 0048 009B     		ldr	r3, [sp, #0]
 437 004a 002B     		cmp	r3, #0
 438 004c E9D1     		bne	.L13
 439              		.loc 1 137 0
 440 004e 039B     		ldr	r3, [sp, #12]
 441 0050 1846     		mov	r0, r3
 442 0052 FFF7FEFF 		bl	mmcStopSequentialWrite
 443 0056 0346     		mov	r3, r0
 444 0058 002B     		cmp	r3, #0
 445 005a 02D0     		beq	.L14
 446              		.loc 1 138 0
 447 005c 4FF00103 		mov	r3, #1
 448 0060 01E0     		b	.L10
 449              	.L14:
 450              		.loc 1 139 0
 451 0062 4FF00003 		mov	r3, #0
 452              	.L10:
ARM GAS  C:\Users\z80\AppData\Local\Temp\cc9PmWEj.s 			page 9


 453              		.loc 1 140 0
 454 0066 1846     		mov	r0, r3
 455 0068 05B0     		add	sp, sp, #20
 456 006a 00BD     		pop	{pc}
 457              		.cfi_endproc
 458              	.LFE64:
 459              		.size	mmc_write, .-mmc_write
 460 006c AFF30080 		.section	.text.crc7,"ax",%progbits
 461              		.align	2
 462              		.p2align 4,,15
 463              		.thumb
 464              		.thumb_func
 465              		.type	crc7, %function
 466              	crc7:
 467              	.LFB65:
 468              		.loc 1 150 0
 469              		.cfi_startproc
 470              		@ args = 0, pretend = 0, frame = 16
 471              		@ frame_needed = 0, uses_anonymous_args = 0
 472              		@ link register save eliminated.
 473 0000 84B0     		sub	sp, sp, #16
 474              	.LCFI4:
 475              		.cfi_def_cfa_offset 16
 476 0002 0346     		mov	r3, r0
 477 0004 0291     		str	r1, [sp, #8]
 478 0006 0192     		str	r2, [sp, #4]
 479 0008 8DF80F30 		strb	r3, [sp, #15]
 480              		.loc 1 152 0
 481 000c 12E0     		b	.L16
 482              	.L17:
 483              		.loc 1 153 0
 484 000e 9DF80F30 		ldrb	r3, [sp, #15]	@ zero_extendqisi2
 485 0012 4FEA4302 		lsl	r2, r3, #1
 486 0016 029B     		ldr	r3, [sp, #8]
 487 0018 1B78     		ldrb	r3, [r3, #0]	@ zero_extendqisi2
 488 001a 82EA0302 		eor	r2, r2, r3
 489 001e 40F20003 		movw	r3, #:lower16:crc7_lookup_table
 490 0022 C0F20003 		movt	r3, #:upper16:crc7_lookup_table
 491 0026 9B5C     		ldrb	r3, [r3, r2]
 492 0028 8DF80F30 		strb	r3, [sp, #15]
 493 002c 029B     		ldr	r3, [sp, #8]
 494 002e 03F10103 		add	r3, r3, #1
 495 0032 0293     		str	r3, [sp, #8]
 496              	.L16:
 497              		.loc 1 152 0 discriminator 1
 498 0034 019B     		ldr	r3, [sp, #4]
 499 0036 002B     		cmp	r3, #0
 500 0038 0CBF     		ite	eq
 501 003a 0023     		moveq	r3, #0
 502 003c 0123     		movne	r3, #1
 503 003e DBB2     		uxtb	r3, r3
 504 0040 019A     		ldr	r2, [sp, #4]
 505 0042 02F1FF32 		add	r2, r2, #-1
 506 0046 0192     		str	r2, [sp, #4]
 507 0048 002B     		cmp	r3, #0
 508 004a E0D1     		bne	.L17
 509              		.loc 1 154 0
ARM GAS  C:\Users\z80\AppData\Local\Temp\cc9PmWEj.s 			page 10


 510 004c 9DF80F30 		ldrb	r3, [sp, #15]	@ zero_extendqisi2
 511              		.loc 1 155 0
 512 0050 1846     		mov	r0, r3
 513 0052 04B0     		add	sp, sp, #16
 514 0054 7047     		bx	lr
 515              		.cfi_endproc
 516              	.LFE65:
 517              		.size	crc7, .-crc7
 518 0056 00BFAFF3 		.section	.text.wait,"ax",%progbits
 518      0080AFF3 
 518      0080
 519              		.align	2
 520              		.p2align 4,,15
 521              		.thumb
 522              		.thumb_func
 523              		.type	wait, %function
 524              	wait:
 525              	.LFB66:
 526              		.loc 1 164 0
 527              		.cfi_startproc
 528              		@ args = 0, pretend = 0, frame = 16
 529              		@ frame_needed = 0, uses_anonymous_args = 0
 530 0000 00B5     		push	{lr}
 531              	.LCFI5:
 532              		.cfi_def_cfa_offset 4
 533 0002 85B0     		sub	sp, sp, #20
 534              	.LCFI6:
 535              		.cfi_def_cfa_offset 24
 536 0004 0190     		str	r0, [sp, #4]
 537              		.loc 1 168 0
 538 0006 4FF00003 		mov	r3, #0
 539 000a 0393     		str	r3, [sp, #12]
 540 000c 11E0     		b	.L19
 541              		.cfi_offset 14, -4
 542              	.L22:
 543              		.loc 1 169 0
 544 000e 019B     		ldr	r3, [sp, #4]
 545 0010 DB6A     		ldr	r3, [r3, #44]
 546 0012 1A68     		ldr	r2, [r3, #0]
 547 0014 02AB     		add	r3, sp, #8
 548 0016 1046     		mov	r0, r2
 549 0018 4FF00101 		mov	r1, #1
 550 001c 1A46     		mov	r2, r3
 551 001e FFF7FEFF 		bl	spiReceive
 552              		.loc 1 170 0
 553 0022 9DF80830 		ldrb	r3, [sp, #8]	@ zero_extendqisi2
 554 0026 FF2B     		cmp	r3, #255
 555 0028 19D0     		beq	.L25
 556              	.L20:
 557              		.loc 1 168 0
 558 002a 039B     		ldr	r3, [sp, #12]
 559 002c 03F10103 		add	r3, r3, #1
 560 0030 0393     		str	r3, [sp, #12]
 561              	.L19:
 562              		.loc 1 168 0 is_stmt 0 discriminator 1
 563 0032 039B     		ldr	r3, [sp, #12]
 564 0034 0F2B     		cmp	r3, #15
ARM GAS  C:\Users\z80\AppData\Local\Temp\cc9PmWEj.s 			page 11


 565 0036 EADD     		ble	.L22
 566              	.L24:
 567              		.loc 1 175 0 is_stmt 1
 568 0038 019B     		ldr	r3, [sp, #4]
 569 003a DB6A     		ldr	r3, [r3, #44]
 570 003c 1A68     		ldr	r2, [r3, #0]
 571 003e 02AB     		add	r3, sp, #8
 572 0040 1046     		mov	r0, r2
 573 0042 4FF00101 		mov	r1, #1
 574 0046 1A46     		mov	r2, r3
 575 0048 FFF7FEFF 		bl	spiReceive
 576              		.loc 1 176 0
 577 004c 9DF80830 		ldrb	r3, [sp, #8]	@ zero_extendqisi2
 578 0050 FF2B     		cmp	r3, #255
 579 0052 06D0     		beq	.L26
 580              	.L23:
 581              		.loc 1 180 0
 582 0054 4FF00100 		mov	r0, #1
 583 0058 FFF7FEFF 		bl	chThdSleep
 584              		.loc 1 182 0
 585 005c ECE7     		b	.L24
 586              	.L25:
 587              		.loc 1 171 0
 588 005e 00BF     		nop
 589 0060 00E0     		b	.L18
 590              	.L26:
 591              		.loc 1 177 0
 592 0062 00BF     		nop
 593              	.L18:
 594              		.loc 1 183 0
 595 0064 05B0     		add	sp, sp, #20
 596 0066 00BD     		pop	{pc}
 597              		.cfi_endproc
 598              	.LFE66:
 599              		.size	wait, .-wait
 600 0068 AFF30080 		.section	.text.send_hdr,"ax",%progbits
 600      AFF30080 
 601              		.align	2
 602              		.p2align 4,,15
 603              		.thumb
 604              		.thumb_func
 605              		.type	send_hdr, %function
 606              	send_hdr:
 607              	.LFB67:
 608              		.loc 1 194 0
 609              		.cfi_startproc
 610              		@ args = 0, pretend = 0, frame = 24
 611              		@ frame_needed = 0, uses_anonymous_args = 0
 612 0000 00B5     		push	{lr}
 613              	.LCFI7:
 614              		.cfi_def_cfa_offset 4
 615 0002 87B0     		sub	sp, sp, #28
 616              	.LCFI8:
 617              		.cfi_def_cfa_offset 32
 618 0004 0390     		str	r0, [sp, #12]
 619 0006 0B46     		mov	r3, r1
 620 0008 0192     		str	r2, [sp, #4]
ARM GAS  C:\Users\z80\AppData\Local\Temp\cc9PmWEj.s 			page 12


 621 000a 8DF80B30 		strb	r3, [sp, #11]
 622              		.loc 1 198 0
 623 000e 0398     		ldr	r0, [sp, #12]
 624              		.cfi_offset 14, -4
 625 0010 FFF7FEFF 		bl	wait
 626              		.loc 1 200 0
 627 0014 9DF80B30 		ldrb	r3, [sp, #11]
 628 0018 43F04003 		orr	r3, r3, #64
 629 001c DBB2     		uxtb	r3, r3
 630 001e 8DF81030 		strb	r3, [sp, #16]
 631              		.loc 1 201 0
 632 0022 019B     		ldr	r3, [sp, #4]
 633 0024 4FEA1363 		lsr	r3, r3, #24
 634 0028 DBB2     		uxtb	r3, r3
 635 002a 8DF81130 		strb	r3, [sp, #17]
 636              		.loc 1 202 0
 637 002e 019B     		ldr	r3, [sp, #4]
 638 0030 4FEA1343 		lsr	r3, r3, #16
 639 0034 DBB2     		uxtb	r3, r3
 640 0036 8DF81230 		strb	r3, [sp, #18]
 641              		.loc 1 203 0
 642 003a 019B     		ldr	r3, [sp, #4]
 643 003c 4FEA1323 		lsr	r3, r3, #8
 644 0040 DBB2     		uxtb	r3, r3
 645 0042 8DF81330 		strb	r3, [sp, #19]
 646              		.loc 1 204 0
 647 0046 019B     		ldr	r3, [sp, #4]
 648 0048 DBB2     		uxtb	r3, r3
 649 004a 8DF81430 		strb	r3, [sp, #20]
 650              		.loc 1 206 0
 651 004e 04AB     		add	r3, sp, #16
 652 0050 4FF00000 		mov	r0, #0
 653 0054 1946     		mov	r1, r3
 654 0056 4FF00502 		mov	r2, #5
 655 005a FFF7FEFF 		bl	crc7
 656 005e 0346     		mov	r3, r0
 657 0060 4FEA4303 		lsl	r3, r3, #1
 658 0064 DBB2     		uxtb	r3, r3
 659 0066 43F00103 		orr	r3, r3, #1
 660 006a DBB2     		uxtb	r3, r3
 661 006c DBB2     		uxtb	r3, r3
 662 006e 8DF81530 		strb	r3, [sp, #21]
 663              		.loc 1 208 0
 664 0072 039B     		ldr	r3, [sp, #12]
 665 0074 DB6A     		ldr	r3, [r3, #44]
 666 0076 1A68     		ldr	r2, [r3, #0]
 667 0078 04AB     		add	r3, sp, #16
 668 007a 1046     		mov	r0, r2
 669 007c 4FF00601 		mov	r1, #6
 670 0080 1A46     		mov	r2, r3
 671 0082 FFF7FEFF 		bl	spiSend
 672              		.loc 1 209 0
 673 0086 07B0     		add	sp, sp, #28
 674 0088 00BD     		pop	{pc}
 675              		.cfi_endproc
 676              	.LFE67:
 677              		.size	send_hdr, .-send_hdr
ARM GAS  C:\Users\z80\AppData\Local\Temp\cc9PmWEj.s 			page 13


 678 008a 00BFAFF3 		.section	.text.recvr1,"ax",%progbits
 678      0080
 679              		.align	2
 680              		.p2align 4,,15
 681              		.thumb
 682              		.thumb_func
 683              		.type	recvr1, %function
 684              	recvr1:
 685              	.LFB68:
 686              		.loc 1 220 0
 687              		.cfi_startproc
 688              		@ args = 0, pretend = 0, frame = 16
 689              		@ frame_needed = 0, uses_anonymous_args = 0
 690 0000 00B5     		push	{lr}
 691              	.LCFI9:
 692              		.cfi_def_cfa_offset 4
 693 0002 85B0     		sub	sp, sp, #20
 694              	.LCFI10:
 695              		.cfi_def_cfa_offset 24
 696 0004 0190     		str	r0, [sp, #4]
 697              		.loc 1 224 0
 698 0006 4FF00003 		mov	r3, #0
 699 000a 0393     		str	r3, [sp, #12]
 700 000c 14E0     		b	.L29
 701              		.cfi_offset 14, -4
 702              	.L32:
 703              		.loc 1 225 0
 704 000e 019B     		ldr	r3, [sp, #4]
 705 0010 DB6A     		ldr	r3, [r3, #44]
 706 0012 1A68     		ldr	r2, [r3, #0]
 707 0014 02AB     		add	r3, sp, #8
 708 0016 1046     		mov	r0, r2
 709 0018 4FF00101 		mov	r1, #1
 710 001c 1A46     		mov	r2, r3
 711 001e FFF7FEFF 		bl	spiReceive
 712              		.loc 1 226 0
 713 0022 9DF80830 		ldrb	r3, [sp, #8]	@ zero_extendqisi2
 714 0026 FF2B     		cmp	r3, #255
 715 0028 02D0     		beq	.L30
 716              		.loc 1 227 0
 717 002a 9DF80830 		ldrb	r3, [sp, #8]	@ zero_extendqisi2
 718 002e 08E0     		b	.L31
 719              	.L30:
 720              		.loc 1 224 0
 721 0030 039B     		ldr	r3, [sp, #12]
 722 0032 03F10103 		add	r3, r3, #1
 723 0036 0393     		str	r3, [sp, #12]
 724              	.L29:
 725              		.loc 1 224 0 is_stmt 0 discriminator 1
 726 0038 039B     		ldr	r3, [sp, #12]
 727 003a 082B     		cmp	r3, #8
 728 003c E7DD     		ble	.L32
 729              		.loc 1 229 0 is_stmt 1
 730 003e 4FF0FF03 		mov	r3, #255
 731              	.L31:
 732              		.loc 1 230 0
 733 0042 1846     		mov	r0, r3
ARM GAS  C:\Users\z80\AppData\Local\Temp\cc9PmWEj.s 			page 14


 734 0044 05B0     		add	sp, sp, #20
 735 0046 00BD     		pop	{pc}
 736              		.cfi_endproc
 737              	.LFE68:
 738              		.size	recvr1, .-recvr1
 739 0048 AFF30080 		.section	.text.recvr3,"ax",%progbits
 739      AFF30080 
 740              		.align	2
 741              		.p2align 4,,15
 742              		.thumb
 743              		.thumb_func
 744              		.type	recvr3, %function
 745              	recvr3:
 746              	.LFB69:
 747              		.loc 1 242 0
 748              		.cfi_startproc
 749              		@ args = 0, pretend = 0, frame = 16
 750              		@ frame_needed = 0, uses_anonymous_args = 0
 751 0000 00B5     		push	{lr}
 752              	.LCFI11:
 753              		.cfi_def_cfa_offset 4
 754 0002 85B0     		sub	sp, sp, #20
 755              	.LCFI12:
 756              		.cfi_def_cfa_offset 24
 757 0004 0190     		str	r0, [sp, #4]
 758 0006 0091     		str	r1, [sp, #0]
 759              		.loc 1 245 0
 760 0008 0198     		ldr	r0, [sp, #4]
 761              		.cfi_offset 14, -4
 762 000a FFF7FEFF 		bl	recvr1
 763 000e 0346     		mov	r3, r0
 764 0010 8DF80F30 		strb	r3, [sp, #15]
 765              		.loc 1 246 0
 766 0014 019B     		ldr	r3, [sp, #4]
 767 0016 DB6A     		ldr	r3, [r3, #44]
 768 0018 1B68     		ldr	r3, [r3, #0]
 769 001a 1846     		mov	r0, r3
 770 001c 4FF00401 		mov	r1, #4
 771 0020 009A     		ldr	r2, [sp, #0]
 772 0022 FFF7FEFF 		bl	spiReceive
 773              		.loc 1 248 0
 774 0026 9DF80F30 		ldrb	r3, [sp, #15]	@ zero_extendqisi2
 775              		.loc 1 249 0
 776 002a 1846     		mov	r0, r3
 777 002c 05B0     		add	sp, sp, #20
 778 002e 00BD     		pop	{pc}
 779              		.cfi_endproc
 780              	.LFE69:
 781              		.size	recvr3, .-recvr3
 782              		.section	.text.send_command_R1,"ax",%progbits
 783              		.align	2
 784              		.p2align 4,,15
 785              		.thumb
 786              		.thumb_func
 787              		.type	send_command_R1, %function
 788              	send_command_R1:
 789              	.LFB70:
ARM GAS  C:\Users\z80\AppData\Local\Temp\cc9PmWEj.s 			page 15


 790              		.loc 1 262 0
 791              		.cfi_startproc
 792              		@ args = 0, pretend = 0, frame = 24
 793              		@ frame_needed = 0, uses_anonymous_args = 0
 794 0000 00B5     		push	{lr}
 795              	.LCFI13:
 796              		.cfi_def_cfa_offset 4
 797 0002 87B0     		sub	sp, sp, #28
 798              	.LCFI14:
 799              		.cfi_def_cfa_offset 32
 800 0004 0390     		str	r0, [sp, #12]
 801 0006 0B46     		mov	r3, r1
 802 0008 0192     		str	r2, [sp, #4]
 803 000a 8DF80B30 		strb	r3, [sp, #11]
 804              		.loc 1 265 0
 805 000e 039B     		ldr	r3, [sp, #12]
 806 0010 DB6A     		ldr	r3, [r3, #44]
 807 0012 1B68     		ldr	r3, [r3, #0]
 808 0014 1846     		mov	r0, r3
 809              		.cfi_offset 14, -4
 810 0016 FFF7FEFF 		bl	spiSelect
 811              		.loc 1 266 0
 812 001a 9DF80B30 		ldrb	r3, [sp, #11]	@ zero_extendqisi2
 813 001e 0398     		ldr	r0, [sp, #12]
 814 0020 1946     		mov	r1, r3
 815 0022 019A     		ldr	r2, [sp, #4]
 816 0024 FFF7FEFF 		bl	send_hdr
 817              		.loc 1 267 0
 818 0028 0398     		ldr	r0, [sp, #12]
 819 002a FFF7FEFF 		bl	recvr1
 820 002e 0346     		mov	r3, r0
 821 0030 8DF81730 		strb	r3, [sp, #23]
 822              		.loc 1 268 0
 823 0034 039B     		ldr	r3, [sp, #12]
 824 0036 DB6A     		ldr	r3, [r3, #44]
 825 0038 1B68     		ldr	r3, [r3, #0]
 826 003a 1846     		mov	r0, r3
 827 003c FFF7FEFF 		bl	spiUnselect
 828              		.loc 1 269 0
 829 0040 9DF81730 		ldrb	r3, [sp, #23]	@ zero_extendqisi2
 830              		.loc 1 270 0
 831 0044 1846     		mov	r0, r3
 832 0046 07B0     		add	sp, sp, #28
 833 0048 00BD     		pop	{pc}
 834              		.cfi_endproc
 835              	.LFE70:
 836              		.size	send_command_R1, .-send_command_R1
 837 004a 00BFAFF3 		.section	.text.send_command_R3,"ax",%progbits
 837      0080
 838              		.align	2
 839              		.p2align 4,,15
 840              		.thumb
 841              		.thumb_func
 842              		.type	send_command_R3, %function
 843              	send_command_R3:
 844              	.LFB71:
 845              		.loc 1 286 0
ARM GAS  C:\Users\z80\AppData\Local\Temp\cc9PmWEj.s 			page 16


 846              		.cfi_startproc
 847              		@ args = 0, pretend = 0, frame = 24
 848              		@ frame_needed = 0, uses_anonymous_args = 0
 849 0000 00B5     		push	{lr}
 850              	.LCFI15:
 851              		.cfi_def_cfa_offset 4
 852 0002 87B0     		sub	sp, sp, #28
 853              	.LCFI16:
 854              		.cfi_def_cfa_offset 32
 855 0004 0390     		str	r0, [sp, #12]
 856 0006 0192     		str	r2, [sp, #4]
 857 0008 0093     		str	r3, [sp, #0]
 858 000a 0B46     		mov	r3, r1
 859 000c 8DF80B30 		strb	r3, [sp, #11]
 860              		.loc 1 289 0
 861 0010 039B     		ldr	r3, [sp, #12]
 862 0012 DB6A     		ldr	r3, [r3, #44]
 863 0014 1B68     		ldr	r3, [r3, #0]
 864 0016 1846     		mov	r0, r3
 865              		.cfi_offset 14, -4
 866 0018 FFF7FEFF 		bl	spiSelect
 867              		.loc 1 290 0
 868 001c 9DF80B30 		ldrb	r3, [sp, #11]	@ zero_extendqisi2
 869 0020 0398     		ldr	r0, [sp, #12]
 870 0022 1946     		mov	r1, r3
 871 0024 019A     		ldr	r2, [sp, #4]
 872 0026 FFF7FEFF 		bl	send_hdr
 873              		.loc 1 291 0
 874 002a 0398     		ldr	r0, [sp, #12]
 875 002c 0099     		ldr	r1, [sp, #0]
 876 002e FFF7FEFF 		bl	recvr3
 877 0032 0346     		mov	r3, r0
 878 0034 8DF81730 		strb	r3, [sp, #23]
 879              		.loc 1 292 0
 880 0038 039B     		ldr	r3, [sp, #12]
 881 003a DB6A     		ldr	r3, [r3, #44]
 882 003c 1B68     		ldr	r3, [r3, #0]
 883 003e 1846     		mov	r0, r3
 884 0040 FFF7FEFF 		bl	spiUnselect
 885              		.loc 1 293 0
 886 0044 9DF81730 		ldrb	r3, [sp, #23]	@ zero_extendqisi2
 887              		.loc 1 294 0
 888 0048 1846     		mov	r0, r3
 889 004a 07B0     		add	sp, sp, #28
 890 004c 00BD     		pop	{pc}
 891              		.cfi_endproc
 892              	.LFE71:
 893              		.size	send_command_R3, .-send_command_R3
 894 004e 00BF     		.section	.text.read_CxD,"ax",%progbits
 895              		.align	2
 896              		.p2align 4,,15
 897              		.thumb
 898              		.thumb_func
 899              		.type	read_CxD, %function
 900              	read_CxD:
 901              	.LFB72:
 902              		.loc 1 308 0
ARM GAS  C:\Users\z80\AppData\Local\Temp\cc9PmWEj.s 			page 17


 903              		.cfi_startproc
 904              		@ args = 0, pretend = 0, frame = 48
 905              		@ frame_needed = 0, uses_anonymous_args = 0
 906 0000 00B5     		push	{lr}
 907              	.LCFI17:
 908              		.cfi_def_cfa_offset 4
 909 0002 8DB0     		sub	sp, sp, #52
 910              	.LCFI18:
 911              		.cfi_def_cfa_offset 56
 912 0004 0390     		str	r0, [sp, #12]
 913 0006 0B46     		mov	r3, r1
 914 0008 0192     		str	r2, [sp, #4]
 915 000a 8DF80B30 		strb	r3, [sp, #11]
 916              		.loc 1 312 0
 917 000e 039B     		ldr	r3, [sp, #12]
 918 0010 DB6A     		ldr	r3, [r3, #44]
 919 0012 1B68     		ldr	r3, [r3, #0]
 920 0014 1846     		mov	r0, r3
 921              		.cfi_offset 14, -4
 922 0016 FFF7FEFF 		bl	spiSelect
 923              		.loc 1 313 0
 924 001a 9DF80B30 		ldrb	r3, [sp, #11]	@ zero_extendqisi2
 925 001e 0398     		ldr	r0, [sp, #12]
 926 0020 1946     		mov	r1, r3
 927 0022 4FF00002 		mov	r2, #0
 928 0026 FFF7FEFF 		bl	send_hdr
 929              		.loc 1 314 0
 930 002a 0398     		ldr	r0, [sp, #12]
 931 002c FFF7FEFF 		bl	recvr1
 932 0030 0346     		mov	r3, r0
 933 0032 002B     		cmp	r3, #0
 934 0034 08D0     		beq	.L37
 935              		.loc 1 315 0
 936 0036 039B     		ldr	r3, [sp, #12]
 937 0038 DB6A     		ldr	r3, [r3, #44]
 938 003a 1B68     		ldr	r3, [r3, #0]
 939 003c 1846     		mov	r0, r3
 940 003e FFF7FEFF 		bl	spiUnselect
 941              		.loc 1 316 0
 942 0042 4FF00103 		mov	r3, #1
 943 0046 66E0     		b	.L38
 944              	.L37:
 945              		.loc 1 320 0
 946 0048 4FF00003 		mov	r3, #0
 947 004c 0B93     		str	r3, [sp, #44]
 948 004e 5BE0     		b	.L39
 949              	.L43:
 950              		.loc 1 321 0
 951 0050 039B     		ldr	r3, [sp, #12]
 952 0052 DB6A     		ldr	r3, [r3, #44]
 953 0054 1A68     		ldr	r2, [r3, #0]
 954 0056 05AB     		add	r3, sp, #20
 955 0058 1046     		mov	r0, r2
 956 005a 4FF00101 		mov	r1, #1
 957 005e 1A46     		mov	r2, r3
 958 0060 FFF7FEFF 		bl	spiReceive
 959              		.loc 1 322 0
ARM GAS  C:\Users\z80\AppData\Local\Temp\cc9PmWEj.s 			page 18


 960 0064 9DF81430 		ldrb	r3, [sp, #20]	@ zero_extendqisi2
 961 0068 FE2B     		cmp	r3, #254
 962 006a 49D1     		bne	.L40
 963              	.LBB2:
 964              		.loc 1 325 0
 965 006c 039B     		ldr	r3, [sp, #12]
 966 006e DB6A     		ldr	r3, [r3, #44]
 967 0070 1A68     		ldr	r2, [r3, #0]
 968 0072 05AB     		add	r3, sp, #20
 969 0074 1046     		mov	r0, r2
 970 0076 4FF01001 		mov	r1, #16
 971 007a 1A46     		mov	r2, r3
 972 007c FFF7FEFF 		bl	spiReceive
 973              		.loc 1 326 0
 974 0080 05AB     		add	r3, sp, #20
 975 0082 0A93     		str	r3, [sp, #40]
 976              		.loc 1 327 0
 977 0084 019B     		ldr	r3, [sp, #4]
 978 0086 03F10C03 		add	r3, r3, #12
 979 008a 0993     		str	r3, [sp, #36]
 980 008c 23E0     		b	.L41
 981              	.L42:
 982              		.loc 1 328 0 discriminator 2
 983 008e 0A9B     		ldr	r3, [sp, #40]
 984 0090 1B78     		ldrb	r3, [r3, #0]	@ zero_extendqisi2
 985 0092 4FEA0362 		lsl	r2, r3, #24
 986 0096 0A9B     		ldr	r3, [sp, #40]
 987 0098 03F10103 		add	r3, r3, #1
 988 009c 1B78     		ldrb	r3, [r3, #0]	@ zero_extendqisi2
 989 009e 4FEA0343 		lsl	r3, r3, #16
 990 00a2 42EA0302 		orr	r2, r2, r3
 991              		.loc 1 329 0 discriminator 2
 992 00a6 0A9B     		ldr	r3, [sp, #40]
 993 00a8 03F10203 		add	r3, r3, #2
 994 00ac 1B78     		ldrb	r3, [r3, #0]	@ zero_extendqisi2
 995 00ae 4FEA0323 		lsl	r3, r3, #8
 996              		.loc 1 328 0 discriminator 2
 997 00b2 42EA0302 		orr	r2, r2, r3
 998              		.loc 1 329 0 discriminator 2
 999 00b6 0A9B     		ldr	r3, [sp, #40]
 1000 00b8 03F10303 		add	r3, r3, #3
 1001 00bc 1B78     		ldrb	r3, [r3, #0]	@ zero_extendqisi2
 1002 00be 42EA0302 		orr	r2, r2, r3
 1003              		.loc 1 328 0 discriminator 2
 1004 00c2 099B     		ldr	r3, [sp, #36]
 1005 00c4 1A60     		str	r2, [r3, #0]
 1006              		.loc 1 330 0 discriminator 2
 1007 00c6 0A9B     		ldr	r3, [sp, #40]
 1008 00c8 03F10403 		add	r3, r3, #4
 1009 00cc 0A93     		str	r3, [sp, #40]
 1010              		.loc 1 327 0 discriminator 2
 1011 00ce 099B     		ldr	r3, [sp, #36]
 1012 00d0 A3F10403 		sub	r3, r3, #4
 1013 00d4 0993     		str	r3, [sp, #36]
 1014              	.L41:
 1015              		.loc 1 327 0 is_stmt 0 discriminator 1
 1016 00d6 099A     		ldr	r2, [sp, #36]
ARM GAS  C:\Users\z80\AppData\Local\Temp\cc9PmWEj.s 			page 19


 1017 00d8 019B     		ldr	r3, [sp, #4]
 1018 00da 9A42     		cmp	r2, r3
 1019 00dc D7D2     		bcs	.L42
 1020              		.loc 1 334 0 is_stmt 1
 1021 00de 039B     		ldr	r3, [sp, #12]
 1022 00e0 DB6A     		ldr	r3, [r3, #44]
 1023 00e2 1B68     		ldr	r3, [r3, #0]
 1024 00e4 1846     		mov	r0, r3
 1025 00e6 4FF00201 		mov	r1, #2
 1026 00ea FFF7FEFF 		bl	spiIgnore
 1027              		.loc 1 335 0
 1028 00ee 039B     		ldr	r3, [sp, #12]
 1029 00f0 DB6A     		ldr	r3, [r3, #44]
 1030 00f2 1B68     		ldr	r3, [r3, #0]
 1031 00f4 1846     		mov	r0, r3
 1032 00f6 FFF7FEFF 		bl	spiUnselect
 1033              		.loc 1 337 0
 1034 00fa 4FF00003 		mov	r3, #0
 1035 00fe 0AE0     		b	.L38
 1036              	.L40:
 1037              	.LBE2:
 1038              		.loc 1 320 0
 1039 0100 0B9B     		ldr	r3, [sp, #44]
 1040 0102 03F10103 		add	r3, r3, #1
 1041 0106 0B93     		str	r3, [sp, #44]
 1042              	.L39:
 1043              		.loc 1 320 0 is_stmt 0 discriminator 1
 1044 0108 0B9A     		ldr	r2, [sp, #44]
 1045 010a 42F20F73 		movw	r3, #9999
 1046 010e 9A42     		cmp	r2, r3
 1047 0110 9ED9     		bls	.L43
 1048              		.loc 1 340 0 is_stmt 1
 1049 0112 4FF00103 		mov	r3, #1
 1050              	.L38:
 1051              		.loc 1 341 0
 1052 0116 1846     		mov	r0, r3
 1053 0118 0DB0     		add	sp, sp, #52
 1054 011a 00BD     		pop	{pc}
 1055              		.cfi_endproc
 1056              	.LFE72:
 1057              		.size	read_CxD, .-read_CxD
 1058 011c AFF30080 		.section	.text.sync,"ax",%progbits
 1059              		.align	2
 1060              		.p2align 4,,15
 1061              		.thumb
 1062              		.thumb_func
 1063              		.type	sync, %function
 1064              	sync:
 1065              	.LFB73:
 1066              		.loc 1 350 0
 1067              		.cfi_startproc
 1068              		@ args = 0, pretend = 0, frame = 16
 1069              		@ frame_needed = 0, uses_anonymous_args = 0
 1070 0000 00B5     		push	{lr}
 1071              	.LCFI19:
 1072              		.cfi_def_cfa_offset 4
 1073 0002 85B0     		sub	sp, sp, #20
ARM GAS  C:\Users\z80\AppData\Local\Temp\cc9PmWEj.s 			page 20


 1074              	.LCFI20:
 1075              		.cfi_def_cfa_offset 24
 1076 0004 0190     		str	r0, [sp, #4]
 1077              		.loc 1 353 0
 1078 0006 019B     		ldr	r3, [sp, #4]
 1079 0008 DB6A     		ldr	r3, [r3, #44]
 1080 000a 1B68     		ldr	r3, [r3, #0]
 1081 000c 1846     		mov	r0, r3
 1082              		.cfi_offset 14, -4
 1083 000e FFF7FEFF 		bl	spiSelect
 1084              	.L46:
 1085              		.loc 1 355 0
 1086 0012 019B     		ldr	r3, [sp, #4]
 1087 0014 DB6A     		ldr	r3, [r3, #44]
 1088 0016 1A68     		ldr	r2, [r3, #0]
 1089 0018 03AB     		add	r3, sp, #12
 1090 001a 1046     		mov	r0, r2
 1091 001c 4FF00101 		mov	r1, #1
 1092 0020 1A46     		mov	r2, r3
 1093 0022 FFF7FEFF 		bl	spiReceive
 1094              		.loc 1 356 0
 1095 0026 9DF80C30 		ldrb	r3, [sp, #12]	@ zero_extendqisi2
 1096 002a FF2B     		cmp	r3, #255
 1097 002c 07D1     		bne	.L45
 1098              		.loc 1 362 0
 1099 002e 019B     		ldr	r3, [sp, #4]
 1100 0030 DB6A     		ldr	r3, [r3, #44]
 1101 0032 1B68     		ldr	r3, [r3, #0]
 1102 0034 1846     		mov	r0, r3
 1103 0036 FFF7FEFF 		bl	spiUnselect
 1104              		.loc 1 363 0
 1105 003a 05B0     		add	sp, sp, #20
 1106 003c 00BD     		pop	{pc}
 1107              	.L45:
 1108              		.loc 1 359 0
 1109 003e 4FF00100 		mov	r0, #1
 1110 0042 FFF7FEFF 		bl	chThdSleep
 1111              		.loc 1 361 0
 1112 0046 E4E7     		b	.L46
 1113              		.cfi_endproc
 1114              	.LFE73:
 1115              		.size	sync, .-sync
 1116 0048 AFF30080 		.section	.text.mmcInit,"ax",%progbits
 1116      AFF30080 
 1117              		.align	2
 1118              		.p2align 4,,15
 1119              		.global	mmcInit
 1120              		.thumb
 1121              		.thumb_func
 1122              		.type	mmcInit, %function
 1123              	mmcInit:
 1124              	.LFB74:
 1125              		.loc 1 376 0
 1126              		.cfi_startproc
 1127              		@ args = 0, pretend = 0, frame = 0
 1128              		@ frame_needed = 0, uses_anonymous_args = 0
 1129              		@ link register save eliminated.
ARM GAS  C:\Users\z80\AppData\Local\Temp\cc9PmWEj.s 			page 21


 1130              		.loc 1 378 0
 1131 0000 7047     		bx	lr
 1132              		.cfi_endproc
 1133              	.LFE74:
 1134              		.size	mmcInit, .-mmcInit
 1135 0002 00BFAFF3 		.section	.text.mmcObjectInit,"ax",%progbits
 1135      0080AFF3 
 1135      0080AFF3 
 1135      0080
 1136              		.align	2
 1137              		.p2align 4,,15
 1138              		.global	mmcObjectInit
 1139              		.thumb
 1140              		.thumb_func
 1141              		.type	mmcObjectInit, %function
 1142              	mmcObjectInit:
 1143              	.LFB75:
 1144              		.loc 1 387 0
 1145              		.cfi_startproc
 1146              		@ args = 0, pretend = 0, frame = 8
 1147              		@ frame_needed = 0, uses_anonymous_args = 0
 1148              		@ link register save eliminated.
 1149 0000 82B0     		sub	sp, sp, #8
 1150              	.LCFI21:
 1151              		.cfi_def_cfa_offset 8
 1152 0002 0190     		str	r0, [sp, #4]
 1153              		.loc 1 389 0
 1154 0004 019A     		ldr	r2, [sp, #4]
 1155 0006 40F20003 		movw	r3, #:lower16:mmc_vmt
 1156 000a C0F20003 		movt	r3, #:upper16:mmc_vmt
 1157 000e 1360     		str	r3, [r2, #0]
 1158              		.loc 1 390 0
 1159 0010 019B     		ldr	r3, [sp, #4]
 1160 0012 4FF00102 		mov	r2, #1
 1161 0016 1A71     		strb	r2, [r3, #4]
 1162              		.loc 1 391 0
 1163 0018 019B     		ldr	r3, [sp, #4]
 1164 001a 4FF00002 		mov	r2, #0
 1165 001e DA62     		str	r2, [r3, #44]
 1166              		.loc 1 392 0
 1167 0020 019B     		ldr	r3, [sp, #4]
 1168 0022 4FF00002 		mov	r2, #0
 1169 0026 83F83020 		strb	r2, [r3, #48]
 1170              		.loc 1 393 0
 1171 002a 02B0     		add	sp, sp, #8
 1172 002c 7047     		bx	lr
 1173              		.cfi_endproc
 1174              	.LFE75:
 1175              		.size	mmcObjectInit, .-mmcObjectInit
 1176 002e 00BF     		.section	.text.mmcStart,"ax",%progbits
 1177              		.align	2
 1178              		.p2align 4,,15
 1179              		.global	mmcStart
 1180              		.thumb
 1181              		.thumb_func
 1182              		.type	mmcStart, %function
 1183              	mmcStart:
ARM GAS  C:\Users\z80\AppData\Local\Temp\cc9PmWEj.s 			page 22


 1184              	.LFB76:
 1185              		.loc 1 403 0
 1186              		.cfi_startproc
 1187              		@ args = 0, pretend = 0, frame = 8
 1188              		@ frame_needed = 0, uses_anonymous_args = 0
 1189              		@ link register save eliminated.
 1190 0000 82B0     		sub	sp, sp, #8
 1191              	.LCFI22:
 1192              		.cfi_def_cfa_offset 8
 1193 0002 0190     		str	r0, [sp, #4]
 1194 0004 0091     		str	r1, [sp, #0]
 1195              		.loc 1 405 0
 1196 0006 019B     		ldr	r3, [sp, #4]
 1197 0008 002B     		cmp	r3, #0
 1198 000a 01D0     		beq	.L51
 1199              		.loc 1 405 0 is_stmt 0 discriminator 1
 1200 000c 009B     		ldr	r3, [sp, #0]
 1201 000e 002B     		cmp	r3, #0
 1202              	.L51:
 1203              		.loc 1 406 0 is_stmt 1
 1204 0010 019B     		ldr	r3, [sp, #4]
 1205 0012 1B79     		ldrb	r3, [r3, #4]	@ zero_extendqisi2
 1206              		.loc 1 403 0
 1207 0014 012B     		cmp	r3, #1
 1208 0016 03D0     		beq	.L54
 1209              		.loc 1 406 0
 1210 0018 019B     		ldr	r3, [sp, #4]
 1211 001a 1B79     		ldrb	r3, [r3, #4]	@ zero_extendqisi2
 1212 001c 022B     		cmp	r3, #2
 1213              		.loc 1 403 0
 1214 001e 00BF     		nop
 1215              	.L54:
 1216              		.loc 1 409 0
 1217 0020 019B     		ldr	r3, [sp, #4]
 1218 0022 009A     		ldr	r2, [sp, #0]
 1219 0024 DA62     		str	r2, [r3, #44]
 1220              		.loc 1 410 0
 1221 0026 019B     		ldr	r3, [sp, #4]
 1222 0028 4FF00202 		mov	r2, #2
 1223 002c 1A71     		strb	r2, [r3, #4]
 1224              		.loc 1 411 0
 1225 002e 02B0     		add	sp, sp, #8
 1226 0030 7047     		bx	lr
 1227              		.cfi_endproc
 1228              	.LFE76:
 1229              		.size	mmcStart, .-mmcStart
 1230 0032 00BFAFF3 		.section	.text.mmcStop,"ax",%progbits
 1230      0080AFF3 
 1230      0080AFF3 
 1230      0080
 1231              		.align	2
 1232              		.p2align 4,,15
 1233              		.global	mmcStop
 1234              		.thumb
 1235              		.thumb_func
 1236              		.type	mmcStop, %function
 1237              	mmcStop:
ARM GAS  C:\Users\z80\AppData\Local\Temp\cc9PmWEj.s 			page 23


 1238              	.LFB77:
 1239              		.loc 1 420 0
 1240              		.cfi_startproc
 1241              		@ args = 0, pretend = 0, frame = 8
 1242              		@ frame_needed = 0, uses_anonymous_args = 0
 1243 0000 00B5     		push	{lr}
 1244              	.LCFI23:
 1245              		.cfi_def_cfa_offset 4
 1246 0002 83B0     		sub	sp, sp, #12
 1247              	.LCFI24:
 1248              		.cfi_def_cfa_offset 16
 1249 0004 0190     		str	r0, [sp, #4]
 1250              		.loc 1 422 0
 1251 0006 019B     		ldr	r3, [sp, #4]
 1252 0008 002B     		cmp	r3, #0
 1253              		.loc 1 423 0
 1254 000a 019B     		ldr	r3, [sp, #4]
 1255 000c 1B79     		ldrb	r3, [r3, #4]	@ zero_extendqisi2
 1256              		.loc 1 420 0
 1257 000e 012B     		cmp	r3, #1
 1258 0010 03D0     		beq	.L59
 1259              		.cfi_offset 14, -4
 1260              		.loc 1 423 0
 1261 0012 019B     		ldr	r3, [sp, #4]
 1262 0014 1B79     		ldrb	r3, [r3, #4]	@ zero_extendqisi2
 1263 0016 022B     		cmp	r3, #2
 1264              		.loc 1 420 0
 1265 0018 00BF     		nop
 1266              	.L59:
 1267              		.loc 1 426 0
 1268 001a 019B     		ldr	r3, [sp, #4]
 1269 001c DB6A     		ldr	r3, [r3, #44]
 1270 001e 1B68     		ldr	r3, [r3, #0]
 1271 0020 1846     		mov	r0, r3
 1272 0022 FFF7FEFF 		bl	spiStop
 1273              		.loc 1 427 0
 1274 0026 019B     		ldr	r3, [sp, #4]
 1275 0028 4FF00102 		mov	r2, #1
 1276 002c 1A71     		strb	r2, [r3, #4]
 1277              		.loc 1 428 0
 1278 002e 03B0     		add	sp, sp, #12
 1279 0030 00BD     		pop	{pc}
 1280              		.cfi_endproc
 1281              	.LFE77:
 1282              		.size	mmcStop, .-mmcStop
 1283 0032 00BFAFF3 		.section	.text.mmcConnect,"ax",%progbits
 1283      0080AFF3 
 1283      0080AFF3 
 1283      0080
 1284              		.align	2
 1285              		.p2align 4,,15
 1286              		.global	mmcConnect
 1287              		.thumb
 1288              		.thumb_func
 1289              		.type	mmcConnect, %function
 1290              	mmcConnect:
 1291              	.LFB78:
ARM GAS  C:\Users\z80\AppData\Local\Temp\cc9PmWEj.s 			page 24


 1292              		.loc 1 447 0
 1293              		.cfi_startproc
 1294              		@ args = 0, pretend = 0, frame = 24
 1295              		@ frame_needed = 0, uses_anonymous_args = 0
 1296 0000 00B5     		push	{lr}
 1297              	.LCFI25:
 1298              		.cfi_def_cfa_offset 4
 1299 0002 87B0     		sub	sp, sp, #28
 1300              	.LCFI26:
 1301              		.cfi_def_cfa_offset 32
 1302 0004 0190     		str	r0, [sp, #4]
 1303              		.loc 1 451 0
 1304 0006 019B     		ldr	r3, [sp, #4]
 1305 0008 002B     		cmp	r3, #0
 1306              		.loc 1 453 0
 1307 000a 019B     		ldr	r3, [sp, #4]
 1308 000c 1B79     		ldrb	r3, [r3, #4]	@ zero_extendqisi2
 1309              		.loc 1 447 0
 1310 000e 022B     		cmp	r3, #2
 1311 0010 03D0     		beq	.L64
 1312              		.cfi_offset 14, -4
 1313              		.loc 1 453 0
 1314 0012 019B     		ldr	r3, [sp, #4]
 1315 0014 1B79     		ldrb	r3, [r3, #4]	@ zero_extendqisi2
 1316 0016 052B     		cmp	r3, #5
 1317              		.loc 1 447 0
 1318 0018 00BF     		nop
 1319              	.L64:
 1320              		.loc 1 457 0
 1321 001a 019B     		ldr	r3, [sp, #4]
 1322 001c 4FF00302 		mov	r2, #3
 1323 0020 1A71     		strb	r2, [r3, #4]
 1324              		.loc 1 460 0
 1325 0022 019B     		ldr	r3, [sp, #4]
 1326 0024 DB6A     		ldr	r3, [r3, #44]
 1327 0026 1A68     		ldr	r2, [r3, #0]
 1328 0028 019B     		ldr	r3, [sp, #4]
 1329 002a DB6A     		ldr	r3, [r3, #44]
 1330 002c 5B68     		ldr	r3, [r3, #4]
 1331 002e 1046     		mov	r0, r2
 1332 0030 1946     		mov	r1, r3
 1333 0032 FFF7FEFF 		bl	spiStart
 1334              		.loc 1 461 0
 1335 0036 019B     		ldr	r3, [sp, #4]
 1336 0038 DB6A     		ldr	r3, [r3, #44]
 1337 003a 1B68     		ldr	r3, [r3, #0]
 1338 003c 1846     		mov	r0, r3
 1339 003e 4FF01001 		mov	r1, #16
 1340 0042 FFF7FEFF 		bl	spiIgnore
 1341              		.loc 1 464 0
 1342 0046 4FF00003 		mov	r3, #0
 1343 004a 0593     		str	r3, [sp, #20]
 1344              	.L70:
 1345              		.loc 1 466 0
 1346 004c 0198     		ldr	r0, [sp, #4]
 1347 004e 4FF00001 		mov	r1, #0
 1348 0052 4FF00002 		mov	r2, #0
ARM GAS  C:\Users\z80\AppData\Local\Temp\cc9PmWEj.s 			page 25


 1349 0056 FFF7FEFF 		bl	send_command_R1
 1350 005a 0346     		mov	r3, r0
 1351 005c 012B     		cmp	r3, #1
 1352 005e 0BD1     		bne	.L65
 1353              		.loc 1 477 0
 1354 0060 03AB     		add	r3, sp, #12
 1355 0062 0198     		ldr	r0, [sp, #4]
 1356 0064 4FF00801 		mov	r1, #8
 1357 0068 4FF4D572 		mov	r2, #426
 1358 006c FFF7FEFF 		bl	send_command_R3
 1359 0070 0346     		mov	r3, r0
 1360 0072 052B     		cmp	r3, #5
 1361 0074 0DD1     		bne	.L66
 1362 0076 46E0     		b	.L67
 1363              	.L65:
 1364              		.loc 1 468 0
 1365 0078 059B     		ldr	r3, [sp, #20]
 1366 007a 03F10103 		add	r3, r3, #1
 1367 007e 0593     		str	r3, [sp, #20]
 1368 0080 059B     		ldr	r3, [sp, #20]
 1369 0082 092B     		cmp	r3, #9
 1370 0084 00F2A180 		bhi	.L86
 1371              	.L68:
 1372              		.loc 1 470 0
 1373 0088 4FF00A00 		mov	r0, #10
 1374 008c FFF7FEFF 		bl	chThdSleep
 1375              		.loc 1 471 0
 1376 0090 DCE7     		b	.L70
 1377              	.L66:
 1378              		.loc 1 481 0
 1379 0092 4FF00003 		mov	r3, #0
 1380 0096 0593     		str	r3, [sp, #20]
 1381              	.L74:
 1382              		.loc 1 483 0
 1383 0098 0198     		ldr	r0, [sp, #4]
 1384 009a 4FF03701 		mov	r1, #55
 1385 009e 4FF00002 		mov	r2, #0
 1386 00a2 FFF7FEFF 		bl	send_command_R1
 1387 00a6 0346     		mov	r3, r0
 1388 00a8 012B     		cmp	r3, #1
 1389 00aa 1BD1     		bne	.L71
 1390              		.loc 1 484 0 discriminator 1
 1391 00ac 03AB     		add	r3, sp, #12
 1392 00ae 0198     		ldr	r0, [sp, #4]
 1393 00b0 4FF02901 		mov	r1, #41
 1394 00b4 4FF4D572 		mov	r2, #426
 1395 00b8 C4F20002 		movt	r2, 16384
 1396 00bc FFF7FEFF 		bl	send_command_R3
 1397 00c0 0346     		mov	r3, r0
 1398              		.loc 1 483 0 discriminator 1
 1399 00c2 002B     		cmp	r3, #0
 1400 00c4 0ED1     		bne	.L71
 1401              		.loc 1 494 0
 1402 00c6 03AB     		add	r3, sp, #12
 1403 00c8 0198     		ldr	r0, [sp, #4]
 1404 00ca 4FF03A01 		mov	r1, #58
 1405 00ce 4FF00002 		mov	r2, #0
ARM GAS  C:\Users\z80\AppData\Local\Temp\cc9PmWEj.s 			page 26


 1406 00d2 FFF7FEFF 		bl	send_command_R3
 1407              		.loc 1 497 0
 1408 00d6 9DF80C30 		ldrb	r3, [sp, #12]	@ zero_extendqisi2
 1409 00da 03F04003 		and	r3, r3, #64
 1410 00de 002B     		cmp	r3, #0
 1411 00e0 0CD1     		bne	.L72
 1412 00e2 10E0     		b	.L67
 1413              	.L71:
 1414              		.loc 1 488 0
 1415 00e4 059B     		ldr	r3, [sp, #20]
 1416 00e6 03F10103 		add	r3, r3, #1
 1417 00ea 0593     		str	r3, [sp, #20]
 1418 00ec 059B     		ldr	r3, [sp, #20]
 1419 00ee 632B     		cmp	r3, #99
 1420 00f0 6DD8     		bhi	.L87
 1421              	.L73:
 1422              		.loc 1 490 0
 1423 00f2 4FF00A00 		mov	r0, #10
 1424 00f6 FFF7FEFF 		bl	chThdSleep
 1425              		.loc 1 491 0
 1426 00fa CDE7     		b	.L74
 1427              	.L72:
 1428              		.loc 1 498 0
 1429 00fc 019B     		ldr	r3, [sp, #4]
 1430 00fe 4FF00102 		mov	r2, #1
 1431 0102 83F83020 		strb	r2, [r3, #48]
 1432              	.L67:
 1433              		.loc 1 502 0
 1434 0106 4FF00003 		mov	r3, #0
 1435 010a 0593     		str	r3, [sp, #20]
 1436              	.L80:
 1437              	.LBB3:
 1438              		.loc 1 504 0
 1439 010c 0198     		ldr	r0, [sp, #4]
 1440 010e 4FF00101 		mov	r1, #1
 1441 0112 4FF00002 		mov	r2, #0
 1442 0116 FFF7FEFF 		bl	send_command_R1
 1443 011a 0346     		mov	r3, r0
 1444 011c 8DF81330 		strb	r3, [sp, #19]
 1445              		.loc 1 505 0
 1446 0120 9DF81330 		ldrb	r3, [sp, #19]	@ zero_extendqisi2
 1447 0124 002B     		cmp	r3, #0
 1448 0126 14D1     		bne	.L75
 1449              	.LBE3:
 1450              		.loc 1 515 0
 1451 0128 019B     		ldr	r3, [sp, #4]
 1452 012a DB6A     		ldr	r3, [r3, #44]
 1453 012c 1A68     		ldr	r2, [r3, #0]
 1454 012e 019B     		ldr	r3, [sp, #4]
 1455 0130 DB6A     		ldr	r3, [r3, #44]
 1456 0132 9B68     		ldr	r3, [r3, #8]
 1457 0134 1046     		mov	r0, r2
 1458 0136 1946     		mov	r1, r3
 1459 0138 FFF7FEFF 		bl	spiStart
 1460              		.loc 1 518 0
 1461 013c 0198     		ldr	r0, [sp, #4]
 1462 013e 4FF01001 		mov	r1, #16
ARM GAS  C:\Users\z80\AppData\Local\Temp\cc9PmWEj.s 			page 27


 1463 0142 4FF40072 		mov	r2, #512
 1464 0146 FFF7FEFF 		bl	send_command_R1
 1465 014a 0346     		mov	r3, r0
 1466 014c 002B     		cmp	r3, #0
 1467 014e 40D1     		bne	.L88
 1468 0150 0FE0     		b	.L85
 1469              	.L75:
 1470              	.LBB4:
 1471              		.loc 1 507 0
 1472 0152 9DF81330 		ldrb	r3, [sp, #19]	@ zero_extendqisi2
 1473 0156 012B     		cmp	r3, #1
 1474 0158 3DD1     		bne	.L89
 1475              	.L78:
 1476              		.loc 1 509 0
 1477 015a 059B     		ldr	r3, [sp, #20]
 1478 015c 03F10103 		add	r3, r3, #1
 1479 0160 0593     		str	r3, [sp, #20]
 1480 0162 059B     		ldr	r3, [sp, #20]
 1481 0164 632B     		cmp	r3, #99
 1482 0166 38D8     		bhi	.L90
 1483              	.L79:
 1484              		.loc 1 511 0
 1485 0168 4FF00A00 		mov	r0, #10
 1486 016c FFF7FEFF 		bl	chThdSleep
 1487              	.LBE4:
 1488              		.loc 1 512 0
 1489 0170 CCE7     		b	.L80
 1490              	.L85:
 1491              		.loc 1 523 0
 1492 0172 019B     		ldr	r3, [sp, #4]
 1493 0174 03F11803 		add	r3, r3, #24
 1494 0178 0198     		ldr	r0, [sp, #4]
 1495 017a 4FF00901 		mov	r1, #9
 1496 017e 1A46     		mov	r2, r3
 1497 0180 FFF7FEFF 		bl	read_CxD
 1498 0184 0346     		mov	r3, r0
 1499 0186 002B     		cmp	r3, #0
 1500 0188 29D1     		bne	.L91
 1501              	.L81:
 1502              		.loc 1 525 0
 1503 018a 019B     		ldr	r3, [sp, #4]
 1504 018c 03F11803 		add	r3, r3, #24
 1505 0190 1846     		mov	r0, r3
 1506 0192 FFF7FEFF 		bl	mmcsdGetCapacity
 1507 0196 0246     		mov	r2, r0
 1508 0198 019B     		ldr	r3, [sp, #4]
 1509 019a 9A62     		str	r2, [r3, #40]
 1510              		.loc 1 526 0
 1511 019c 019B     		ldr	r3, [sp, #4]
 1512 019e 9B6A     		ldr	r3, [r3, #40]
 1513 01a0 002B     		cmp	r3, #0
 1514 01a2 1ED0     		beq	.L92
 1515              	.L82:
 1516              		.loc 1 529 0
 1517 01a4 019B     		ldr	r3, [sp, #4]
 1518 01a6 03F10803 		add	r3, r3, #8
 1519 01aa 0198     		ldr	r0, [sp, #4]
ARM GAS  C:\Users\z80\AppData\Local\Temp\cc9PmWEj.s 			page 28


 1520 01ac 4FF00A01 		mov	r1, #10
 1521 01b0 1A46     		mov	r2, r3
 1522 01b2 FFF7FEFF 		bl	read_CxD
 1523 01b6 0346     		mov	r3, r0
 1524 01b8 002B     		cmp	r3, #0
 1525 01ba 14D1     		bne	.L93
 1526              	.L83:
 1527              		.loc 1 532 0
 1528 01bc 019B     		ldr	r3, [sp, #4]
 1529 01be 4FF00502 		mov	r2, #5
 1530 01c2 1A71     		strb	r2, [r3, #4]
 1531              		.loc 1 533 0
 1532 01c4 4FF00003 		mov	r3, #0
 1533 01c8 1AE0     		b	.L84
 1534              	.L86:
 1535              		.loc 1 469 0
 1536 01ca 00BF     		nop
 1537 01cc 0CE0     		b	.L69
 1538              	.L87:
 1539              		.loc 1 489 0
 1540 01ce 00BF     		nop
 1541 01d0 0AE0     		b	.L69
 1542              	.L88:
 1543              		.loc 1 520 0
 1544 01d2 00BF     		nop
 1545 01d4 08E0     		b	.L69
 1546              	.L89:
 1547              	.LBB5:
 1548              		.loc 1 508 0
 1549 01d6 00BF     		nop
 1550 01d8 06E0     		b	.L69
 1551              	.L90:
 1552              		.loc 1 510 0
 1553 01da 00BF     		nop
 1554 01dc 04E0     		b	.L69
 1555              	.L91:
 1556              	.LBE5:
 1557              		.loc 1 524 0
 1558 01de 00BF     		nop
 1559 01e0 02E0     		b	.L69
 1560              	.L92:
 1561              		.loc 1 527 0
 1562 01e2 00BF     		nop
 1563 01e4 00E0     		b	.L69
 1564              	.L93:
 1565              		.loc 1 530 0
 1566 01e6 00BF     		nop
 1567              	.L69:
 1568              		.loc 1 537 0
 1569 01e8 019B     		ldr	r3, [sp, #4]
 1570 01ea DB6A     		ldr	r3, [r3, #44]
 1571 01ec 1B68     		ldr	r3, [r3, #0]
 1572 01ee 1846     		mov	r0, r3
 1573 01f0 FFF7FEFF 		bl	spiStop
 1574              		.loc 1 538 0
 1575 01f4 019B     		ldr	r3, [sp, #4]
 1576 01f6 4FF00202 		mov	r2, #2
ARM GAS  C:\Users\z80\AppData\Local\Temp\cc9PmWEj.s 			page 29


 1577 01fa 1A71     		strb	r2, [r3, #4]
 1578              		.loc 1 539 0
 1579 01fc 4FF00103 		mov	r3, #1
 1580              	.L84:
 1581              		.loc 1 540 0
 1582 0200 1846     		mov	r0, r3
 1583 0202 07B0     		add	sp, sp, #28
 1584 0204 00BD     		pop	{pc}
 1585              		.cfi_endproc
 1586              	.LFE78:
 1587              		.size	mmcConnect, .-mmcConnect
 1588 0206 00BFAFF3 		.section	.text.mmcDisconnect,"ax",%progbits
 1588      0080AFF3 
 1588      0080
 1589              		.align	2
 1590              		.p2align 4,,15
 1591              		.global	mmcDisconnect
 1592              		.thumb
 1593              		.thumb_func
 1594              		.type	mmcDisconnect, %function
 1595              	mmcDisconnect:
 1596              	.LFB79:
 1597              		.loc 1 554 0
 1598              		.cfi_startproc
 1599              		@ args = 0, pretend = 0, frame = 8
 1600              		@ frame_needed = 0, uses_anonymous_args = 0
 1601 0000 00B5     		push	{lr}
 1602              	.LCFI27:
 1603              		.cfi_def_cfa_offset 4
 1604 0002 83B0     		sub	sp, sp, #12
 1605              	.LCFI28:
 1606              		.cfi_def_cfa_offset 16
 1607 0004 0190     		str	r0, [sp, #4]
 1608              		.loc 1 556 0
 1609 0006 019B     		ldr	r3, [sp, #4]
 1610 0008 002B     		cmp	r3, #0
 1611              	.LBB6:
 1612              		.loc 1 558 0
 1613 000a 4FF02003 		mov	r3, #32
 1614              	@ 558 "../chibios_2.6.3/os/hal/src/mmc_spi.c" 1
 1615 000e 83F31188 		msr     BASEPRI, r3
 1616              	@ 0 "" 2
 1617              		.thumb
 1618              	.LBE6:
 1619              		.loc 1 559 0
 1620 0012 019B     		ldr	r3, [sp, #4]
 1621 0014 1B79     		ldrb	r3, [r3, #4]	@ zero_extendqisi2
 1622              		.loc 1 554 0
 1623 0016 022B     		cmp	r3, #2
 1624 0018 03D0     		beq	.L98
 1625              		.cfi_offset 14, -4
 1626              		.loc 1 559 0
 1627 001a 019B     		ldr	r3, [sp, #4]
 1628 001c 1B79     		ldrb	r3, [r3, #4]	@ zero_extendqisi2
 1629 001e 052B     		cmp	r3, #5
 1630              		.loc 1 554 0
 1631 0020 00BF     		nop
ARM GAS  C:\Users\z80\AppData\Local\Temp\cc9PmWEj.s 			page 30


 1632              	.L98:
 1633              		.loc 1 561 0
 1634 0022 019B     		ldr	r3, [sp, #4]
 1635 0024 1B79     		ldrb	r3, [r3, #4]	@ zero_extendqisi2
 1636 0026 022B     		cmp	r3, #2
 1637 0028 06D1     		bne	.L99
 1638              	.LBB7:
 1639              		.loc 1 562 0
 1640 002a 4FF00003 		mov	r3, #0
 1641              	@ 562 "../chibios_2.6.3/os/hal/src/mmc_spi.c" 1
 1642 002e 83F31188 		msr     BASEPRI, r3
 1643              	@ 0 "" 2
 1644              		.thumb
 1645              	.LBE7:
 1646              		.loc 1 563 0
 1647 0032 4FF00003 		mov	r3, #0
 1648 0036 20E0     		b	.L100
 1649              	.L99:
 1650              		.loc 1 565 0
 1651 0038 019B     		ldr	r3, [sp, #4]
 1652 003a 4FF00402 		mov	r2, #4
 1653 003e 1A71     		strb	r2, [r3, #4]
 1654              	.LBB8:
 1655              		.loc 1 566 0
 1656 0040 4FF00003 		mov	r3, #0
 1657              	@ 566 "../chibios_2.6.3/os/hal/src/mmc_spi.c" 1
 1658 0044 83F31188 		msr     BASEPRI, r3
 1659              	@ 0 "" 2
 1660              		.thumb
 1661              	.LBE8:
 1662              		.loc 1 569 0
 1663 0048 019B     		ldr	r3, [sp, #4]
 1664 004a DB6A     		ldr	r3, [r3, #44]
 1665 004c 1A68     		ldr	r2, [r3, #0]
 1666 004e 019B     		ldr	r3, [sp, #4]
 1667 0050 DB6A     		ldr	r3, [r3, #44]
 1668 0052 9B68     		ldr	r3, [r3, #8]
 1669 0054 1046     		mov	r0, r2
 1670 0056 1946     		mov	r1, r3
 1671 0058 FFF7FEFF 		bl	spiStart
 1672              		.loc 1 570 0
 1673 005c 0198     		ldr	r0, [sp, #4]
 1674 005e FFF7FEFF 		bl	sync
 1675              		.loc 1 572 0
 1676 0062 019B     		ldr	r3, [sp, #4]
 1677 0064 DB6A     		ldr	r3, [r3, #44]
 1678 0066 1B68     		ldr	r3, [r3, #0]
 1679 0068 1846     		mov	r0, r3
 1680 006a FFF7FEFF 		bl	spiStop
 1681              		.loc 1 573 0
 1682 006e 019B     		ldr	r3, [sp, #4]
 1683 0070 4FF00202 		mov	r2, #2
 1684 0074 1A71     		strb	r2, [r3, #4]
 1685              		.loc 1 574 0
 1686 0076 4FF00003 		mov	r3, #0
 1687              	.L100:
 1688              		.loc 1 575 0
ARM GAS  C:\Users\z80\AppData\Local\Temp\cc9PmWEj.s 			page 31


 1689 007a 1846     		mov	r0, r3
 1690 007c 03B0     		add	sp, sp, #12
 1691 007e 00BD     		pop	{pc}
 1692              		.cfi_endproc
 1693              	.LFE79:
 1694              		.size	mmcDisconnect, .-mmcDisconnect
 1695              		.section	.text.mmcStartSequentialRead,"ax",%progbits
 1696              		.align	2
 1697              		.p2align 4,,15
 1698              		.global	mmcStartSequentialRead
 1699              		.thumb
 1700              		.thumb_func
 1701              		.type	mmcStartSequentialRead, %function
 1702              	mmcStartSequentialRead:
 1703              	.LFB80:
 1704              		.loc 1 589 0
 1705              		.cfi_startproc
 1706              		@ args = 0, pretend = 0, frame = 8
 1707              		@ frame_needed = 0, uses_anonymous_args = 0
 1708 0000 00B5     		push	{lr}
 1709              	.LCFI29:
 1710              		.cfi_def_cfa_offset 4
 1711 0002 83B0     		sub	sp, sp, #12
 1712              	.LCFI30:
 1713              		.cfi_def_cfa_offset 16
 1714 0004 0190     		str	r0, [sp, #4]
 1715 0006 0091     		str	r1, [sp, #0]
 1716              		.loc 1 591 0
 1717 0008 019B     		ldr	r3, [sp, #4]
 1718 000a 002B     		cmp	r3, #0
 1719              		.loc 1 592 0
 1720 000c 019B     		ldr	r3, [sp, #4]
 1721 000e 1B79     		ldrb	r3, [r3, #4]	@ zero_extendqisi2
 1722 0010 052B     		cmp	r3, #5
 1723              		.loc 1 596 0
 1724 0012 019B     		ldr	r3, [sp, #4]
 1725 0014 4FF00602 		mov	r2, #6
 1726 0018 1A71     		strb	r2, [r3, #4]
 1727              		.loc 1 600 0
 1728 001a 019B     		ldr	r3, [sp, #4]
 1729 001c DB6A     		ldr	r3, [r3, #44]
 1730 001e 1A68     		ldr	r2, [r3, #0]
 1731 0020 019B     		ldr	r3, [sp, #4]
 1732 0022 DB6A     		ldr	r3, [r3, #44]
 1733 0024 9B68     		ldr	r3, [r3, #8]
 1734 0026 1046     		mov	r0, r2
 1735 0028 1946     		mov	r1, r3
 1736              		.cfi_offset 14, -4
 1737 002a FFF7FEFF 		bl	spiStart
 1738              		.loc 1 601 0
 1739 002e 019B     		ldr	r3, [sp, #4]
 1740 0030 DB6A     		ldr	r3, [r3, #44]
 1741 0032 1B68     		ldr	r3, [r3, #0]
 1742 0034 1846     		mov	r0, r3
 1743 0036 FFF7FEFF 		bl	spiSelect
 1744              		.loc 1 603 0
 1745 003a 019B     		ldr	r3, [sp, #4]
ARM GAS  C:\Users\z80\AppData\Local\Temp\cc9PmWEj.s 			page 32


 1746 003c 93F83030 		ldrb	r3, [r3, #48]	@ zero_extendqisi2
 1747 0040 002B     		cmp	r3, #0
 1748 0042 06D0     		beq	.L104
 1749              		.loc 1 604 0
 1750 0044 0198     		ldr	r0, [sp, #4]
 1751 0046 4FF01201 		mov	r1, #18
 1752 004a 009A     		ldr	r2, [sp, #0]
 1753 004c FFF7FEFF 		bl	send_hdr
 1754 0050 08E0     		b	.L105
 1755              	.L104:
 1756              		.loc 1 606 0
 1757 0052 009B     		ldr	r3, [sp, #0]
 1758 0054 4FEA4323 		lsl	r3, r3, #9
 1759 0058 0198     		ldr	r0, [sp, #4]
 1760 005a 4FF01201 		mov	r1, #18
 1761 005e 1A46     		mov	r2, r3
 1762 0060 FFF7FEFF 		bl	send_hdr
 1763              	.L105:
 1764              		.loc 1 608 0
 1765 0064 0198     		ldr	r0, [sp, #4]
 1766 0066 FFF7FEFF 		bl	recvr1
 1767 006a 0346     		mov	r3, r0
 1768 006c 002B     		cmp	r3, #0
 1769 006e 0CD0     		beq	.L106
 1770              		.loc 1 609 0
 1771 0070 019B     		ldr	r3, [sp, #4]
 1772 0072 DB6A     		ldr	r3, [r3, #44]
 1773 0074 1B68     		ldr	r3, [r3, #0]
 1774 0076 1846     		mov	r0, r3
 1775 0078 FFF7FEFF 		bl	spiStop
 1776              		.loc 1 610 0
 1777 007c 019B     		ldr	r3, [sp, #4]
 1778 007e 4FF00502 		mov	r2, #5
 1779 0082 1A71     		strb	r2, [r3, #4]
 1780              		.loc 1 611 0
 1781 0084 4FF00103 		mov	r3, #1
 1782 0088 01E0     		b	.L107
 1783              	.L106:
 1784              		.loc 1 613 0
 1785 008a 4FF00003 		mov	r3, #0
 1786              	.L107:
 1787              		.loc 1 614 0
 1788 008e 1846     		mov	r0, r3
 1789 0090 03B0     		add	sp, sp, #12
 1790 0092 00BD     		pop	{pc}
 1791              		.cfi_endproc
 1792              	.LFE80:
 1793              		.size	mmcStartSequentialRead, .-mmcStartSequentialRead
 1794 0094 AFF30080 		.section	.text.mmcSequentialRead,"ax",%progbits
 1794      AFF30080 
 1794      AFF30080 
 1795              		.align	2
 1796              		.p2align 4,,15
 1797              		.global	mmcSequentialRead
 1798              		.thumb
 1799              		.thumb_func
 1800              		.type	mmcSequentialRead, %function
ARM GAS  C:\Users\z80\AppData\Local\Temp\cc9PmWEj.s 			page 33


 1801              	mmcSequentialRead:
 1802              	.LFB81:
 1803              		.loc 1 628 0
 1804              		.cfi_startproc
 1805              		@ args = 0, pretend = 0, frame = 16
 1806              		@ frame_needed = 0, uses_anonymous_args = 0
 1807 0000 00B5     		push	{lr}
 1808              	.LCFI31:
 1809              		.cfi_def_cfa_offset 4
 1810 0002 85B0     		sub	sp, sp, #20
 1811              	.LCFI32:
 1812              		.cfi_def_cfa_offset 24
 1813 0004 0190     		str	r0, [sp, #4]
 1814 0006 0091     		str	r1, [sp, #0]
 1815              		.loc 1 631 0
 1816 0008 019B     		ldr	r3, [sp, #4]
 1817 000a 002B     		cmp	r3, #0
 1818 000c 01D0     		beq	.L110
 1819              		.cfi_offset 14, -4
 1820              		.loc 1 631 0 is_stmt 0 discriminator 1
 1821 000e 009B     		ldr	r3, [sp, #0]
 1822 0010 002B     		cmp	r3, #0
 1823              	.L110:
 1824              		.loc 1 633 0 is_stmt 1
 1825 0012 019B     		ldr	r3, [sp, #4]
 1826 0014 1B79     		ldrb	r3, [r3, #4]	@ zero_extendqisi2
 1827 0016 062B     		cmp	r3, #6
 1828 0018 02D0     		beq	.L111
 1829              		.loc 1 634 0
 1830 001a 4FF00103 		mov	r3, #1
 1831 001e 3FE0     		b	.L112
 1832              	.L111:
 1833              		.loc 1 636 0
 1834 0020 4FF00003 		mov	r3, #0
 1835 0024 0393     		str	r3, [sp, #12]
 1836 0026 24E0     		b	.L113
 1837              	.L115:
 1838              		.loc 1 637 0
 1839 0028 019B     		ldr	r3, [sp, #4]
 1840 002a DB6A     		ldr	r3, [r3, #44]
 1841 002c 1B68     		ldr	r3, [r3, #0]
 1842 002e 1846     		mov	r0, r3
 1843 0030 4FF00101 		mov	r1, #1
 1844 0034 009A     		ldr	r2, [sp, #0]
 1845 0036 FFF7FEFF 		bl	spiReceive
 1846              		.loc 1 638 0
 1847 003a 009B     		ldr	r3, [sp, #0]
 1848 003c 1B78     		ldrb	r3, [r3, #0]	@ zero_extendqisi2
 1849 003e FE2B     		cmp	r3, #254
 1850 0040 13D1     		bne	.L114
 1851              		.loc 1 639 0
 1852 0042 019B     		ldr	r3, [sp, #4]
 1853 0044 DB6A     		ldr	r3, [r3, #44]
 1854 0046 1B68     		ldr	r3, [r3, #0]
 1855 0048 1846     		mov	r0, r3
 1856 004a 4FF40071 		mov	r1, #512
 1857 004e 009A     		ldr	r2, [sp, #0]
ARM GAS  C:\Users\z80\AppData\Local\Temp\cc9PmWEj.s 			page 34


 1858 0050 FFF7FEFF 		bl	spiReceive
 1859              		.loc 1 641 0
 1860 0054 019B     		ldr	r3, [sp, #4]
 1861 0056 DB6A     		ldr	r3, [r3, #44]
 1862 0058 1B68     		ldr	r3, [r3, #0]
 1863 005a 1846     		mov	r0, r3
 1864 005c 4FF00201 		mov	r1, #2
 1865 0060 FFF7FEFF 		bl	spiIgnore
 1866              		.loc 1 642 0
 1867 0064 4FF00003 		mov	r3, #0
 1868 0068 1AE0     		b	.L112
 1869              	.L114:
 1870              		.loc 1 636 0
 1871 006a 039B     		ldr	r3, [sp, #12]
 1872 006c 03F10103 		add	r3, r3, #1
 1873 0070 0393     		str	r3, [sp, #12]
 1874              	.L113:
 1875              		.loc 1 636 0 is_stmt 0 discriminator 1
 1876 0072 039A     		ldr	r2, [sp, #12]
 1877 0074 42F20F73 		movw	r3, #9999
 1878 0078 9A42     		cmp	r2, r3
 1879 007a D5DD     		ble	.L115
 1880              		.loc 1 646 0 is_stmt 1
 1881 007c 019B     		ldr	r3, [sp, #4]
 1882 007e DB6A     		ldr	r3, [r3, #44]
 1883 0080 1B68     		ldr	r3, [r3, #0]
 1884 0082 1846     		mov	r0, r3
 1885 0084 FFF7FEFF 		bl	spiUnselect
 1886              		.loc 1 647 0
 1887 0088 019B     		ldr	r3, [sp, #4]
 1888 008a DB6A     		ldr	r3, [r3, #44]
 1889 008c 1B68     		ldr	r3, [r3, #0]
 1890 008e 1846     		mov	r0, r3
 1891 0090 FFF7FEFF 		bl	spiStop
 1892              		.loc 1 648 0
 1893 0094 019B     		ldr	r3, [sp, #4]
 1894 0096 4FF00502 		mov	r2, #5
 1895 009a 1A71     		strb	r2, [r3, #4]
 1896              		.loc 1 649 0
 1897 009c 4FF00103 		mov	r3, #1
 1898              	.L112:
 1899              		.loc 1 650 0
 1900 00a0 1846     		mov	r0, r3
 1901 00a2 05B0     		add	sp, sp, #20
 1902 00a4 00BD     		pop	{pc}
 1903              		.cfi_endproc
 1904              	.LFE81:
 1905              		.size	mmcSequentialRead, .-mmcSequentialRead
 1906 00a6 00BFAFF3 		.section	.text.mmcStopSequentialRead,"ax",%progbits
 1906      0080AFF3 
 1906      0080
 1907              		.align	2
 1908              		.p2align 4,,15
 1909              		.global	mmcStopSequentialRead
 1910              		.thumb
 1911              		.thumb_func
 1912              		.type	mmcStopSequentialRead, %function
ARM GAS  C:\Users\z80\AppData\Local\Temp\cc9PmWEj.s 			page 35


 1913              	mmcStopSequentialRead:
 1914              	.LFB82:
 1915              		.loc 1 663 0
 1916              		.cfi_startproc
 1917              		@ args = 0, pretend = 0, frame = 8
 1918              		@ frame_needed = 0, uses_anonymous_args = 0
 1919 0000 00B5     		push	{lr}
 1920              	.LCFI33:
 1921              		.cfi_def_cfa_offset 4
 1922 0002 83B0     		sub	sp, sp, #12
 1923              	.LCFI34:
 1924              		.cfi_def_cfa_offset 16
 1925 0004 0190     		str	r0, [sp, #4]
 1926              		.loc 1 667 0
 1927 0006 019B     		ldr	r3, [sp, #4]
 1928 0008 002B     		cmp	r3, #0
 1929              		.loc 1 669 0
 1930 000a 019B     		ldr	r3, [sp, #4]
 1931 000c 1B79     		ldrb	r3, [r3, #4]	@ zero_extendqisi2
 1932 000e 062B     		cmp	r3, #6
 1933 0010 02D0     		beq	.L118
 1934              		.cfi_offset 14, -4
 1935              		.loc 1 670 0
 1936 0012 4FF00103 		mov	r3, #1
 1937 0016 1AE0     		b	.L119
 1938              	.L118:
 1939              		.loc 1 672 0
 1940 0018 019B     		ldr	r3, [sp, #4]
 1941 001a DB6A     		ldr	r3, [r3, #44]
 1942 001c 1B68     		ldr	r3, [r3, #0]
 1943 001e 1846     		mov	r0, r3
 1944 0020 4FF00701 		mov	r1, #7
 1945 0024 40F20002 		movw	r2, #:lower16:stopcmd.4180
 1946 0028 C0F20002 		movt	r2, #:upper16:stopcmd.4180
 1947 002c FFF7FEFF 		bl	spiSend
 1948              		.loc 1 675 0
 1949 0030 0198     		ldr	r0, [sp, #4]
 1950 0032 FFF7FEFF 		bl	recvr1
 1951              		.loc 1 678 0
 1952 0036 019B     		ldr	r3, [sp, #4]
 1953 0038 DB6A     		ldr	r3, [r3, #44]
 1954 003a 1B68     		ldr	r3, [r3, #0]
 1955 003c 1846     		mov	r0, r3
 1956 003e FFF7FEFF 		bl	spiUnselect
 1957              		.loc 1 679 0
 1958 0042 019B     		ldr	r3, [sp, #4]
 1959 0044 4FF00502 		mov	r2, #5
 1960 0048 1A71     		strb	r2, [r3, #4]
 1961              		.loc 1 680 0
 1962 004a 4FF00003 		mov	r3, #0
 1963              	.L119:
 1964              		.loc 1 681 0
 1965 004e 1846     		mov	r0, r3
 1966 0050 03B0     		add	sp, sp, #12
 1967 0052 00BD     		pop	{pc}
 1968              		.cfi_endproc
 1969              	.LFE82:
ARM GAS  C:\Users\z80\AppData\Local\Temp\cc9PmWEj.s 			page 36


 1970              		.size	mmcStopSequentialRead, .-mmcStopSequentialRead
 1971 0054 AFF30080 		.section	.text.mmcStartSequentialWrite,"ax",%progbits
 1971      AFF30080 
 1971      AFF30080 
 1972              		.align	2
 1973              		.p2align 4,,15
 1974              		.global	mmcStartSequentialWrite
 1975              		.thumb
 1976              		.thumb_func
 1977              		.type	mmcStartSequentialWrite, %function
 1978              	mmcStartSequentialWrite:
 1979              	.LFB83:
 1980              		.loc 1 695 0
 1981              		.cfi_startproc
 1982              		@ args = 0, pretend = 0, frame = 8
 1983              		@ frame_needed = 0, uses_anonymous_args = 0
 1984 0000 00B5     		push	{lr}
 1985              	.LCFI35:
 1986              		.cfi_def_cfa_offset 4
 1987 0002 83B0     		sub	sp, sp, #12
 1988              	.LCFI36:
 1989              		.cfi_def_cfa_offset 16
 1990 0004 0190     		str	r0, [sp, #4]
 1991 0006 0091     		str	r1, [sp, #0]
 1992              		.loc 1 697 0
 1993 0008 019B     		ldr	r3, [sp, #4]
 1994 000a 002B     		cmp	r3, #0
 1995              		.loc 1 698 0
 1996 000c 019B     		ldr	r3, [sp, #4]
 1997 000e 1B79     		ldrb	r3, [r3, #4]	@ zero_extendqisi2
 1998 0010 052B     		cmp	r3, #5
 1999              		.loc 1 702 0
 2000 0012 019B     		ldr	r3, [sp, #4]
 2001 0014 4FF00702 		mov	r2, #7
 2002 0018 1A71     		strb	r2, [r3, #4]
 2003              		.loc 1 704 0
 2004 001a 019B     		ldr	r3, [sp, #4]
 2005 001c DB6A     		ldr	r3, [r3, #44]
 2006 001e 1A68     		ldr	r2, [r3, #0]
 2007 0020 019B     		ldr	r3, [sp, #4]
 2008 0022 DB6A     		ldr	r3, [r3, #44]
 2009 0024 9B68     		ldr	r3, [r3, #8]
 2010 0026 1046     		mov	r0, r2
 2011 0028 1946     		mov	r1, r3
 2012              		.cfi_offset 14, -4
 2013 002a FFF7FEFF 		bl	spiStart
 2014              		.loc 1 705 0
 2015 002e 019B     		ldr	r3, [sp, #4]
 2016 0030 DB6A     		ldr	r3, [r3, #44]
 2017 0032 1B68     		ldr	r3, [r3, #0]
 2018 0034 1846     		mov	r0, r3
 2019 0036 FFF7FEFF 		bl	spiSelect
 2020              		.loc 1 706 0
 2021 003a 019B     		ldr	r3, [sp, #4]
 2022 003c 93F83030 		ldrb	r3, [r3, #48]	@ zero_extendqisi2
 2023 0040 002B     		cmp	r3, #0
 2024 0042 06D0     		beq	.L123
ARM GAS  C:\Users\z80\AppData\Local\Temp\cc9PmWEj.s 			page 37


 2025              		.loc 1 707 0
 2026 0044 0198     		ldr	r0, [sp, #4]
 2027 0046 4FF01901 		mov	r1, #25
 2028 004a 009A     		ldr	r2, [sp, #0]
 2029 004c FFF7FEFF 		bl	send_hdr
 2030 0050 08E0     		b	.L124
 2031              	.L123:
 2032              		.loc 1 709 0
 2033 0052 009B     		ldr	r3, [sp, #0]
 2034 0054 4FEA4323 		lsl	r3, r3, #9
 2035 0058 0198     		ldr	r0, [sp, #4]
 2036 005a 4FF01901 		mov	r1, #25
 2037 005e 1A46     		mov	r2, r3
 2038 0060 FFF7FEFF 		bl	send_hdr
 2039              	.L124:
 2040              		.loc 1 712 0
 2041 0064 0198     		ldr	r0, [sp, #4]
 2042 0066 FFF7FEFF 		bl	recvr1
 2043 006a 0346     		mov	r3, r0
 2044 006c 002B     		cmp	r3, #0
 2045 006e 0CD0     		beq	.L125
 2046              		.loc 1 713 0
 2047 0070 019B     		ldr	r3, [sp, #4]
 2048 0072 DB6A     		ldr	r3, [r3, #44]
 2049 0074 1B68     		ldr	r3, [r3, #0]
 2050 0076 1846     		mov	r0, r3
 2051 0078 FFF7FEFF 		bl	spiStop
 2052              		.loc 1 714 0
 2053 007c 019B     		ldr	r3, [sp, #4]
 2054 007e 4FF00502 		mov	r2, #5
 2055 0082 1A71     		strb	r2, [r3, #4]
 2056              		.loc 1 715 0
 2057 0084 4FF00103 		mov	r3, #1
 2058 0088 01E0     		b	.L126
 2059              	.L125:
 2060              		.loc 1 717 0
 2061 008a 4FF00003 		mov	r3, #0
 2062              	.L126:
 2063              		.loc 1 718 0
 2064 008e 1846     		mov	r0, r3
 2065 0090 03B0     		add	sp, sp, #12
 2066 0092 00BD     		pop	{pc}
 2067              		.cfi_endproc
 2068              	.LFE83:
 2069              		.size	mmcStartSequentialWrite, .-mmcStartSequentialWrite
 2070 0094 AFF30080 		.section	.text.mmcSequentialWrite,"ax",%progbits
 2070      AFF30080 
 2070      AFF30080 
 2071              		.align	2
 2072              		.p2align 4,,15
 2073              		.global	mmcSequentialWrite
 2074              		.thumb
 2075              		.thumb_func
 2076              		.type	mmcSequentialWrite, %function
 2077              	mmcSequentialWrite:
 2078              	.LFB84:
 2079              		.loc 1 732 0
ARM GAS  C:\Users\z80\AppData\Local\Temp\cc9PmWEj.s 			page 38


 2080              		.cfi_startproc
 2081              		@ args = 0, pretend = 0, frame = 16
 2082              		@ frame_needed = 0, uses_anonymous_args = 0
 2083 0000 00B5     		push	{lr}
 2084              	.LCFI37:
 2085              		.cfi_def_cfa_offset 4
 2086 0002 85B0     		sub	sp, sp, #20
 2087              	.LCFI38:
 2088              		.cfi_def_cfa_offset 24
 2089 0004 0190     		str	r0, [sp, #4]
 2090 0006 0091     		str	r1, [sp, #0]
 2091              		.loc 1 736 0
 2092 0008 019B     		ldr	r3, [sp, #4]
 2093 000a 002B     		cmp	r3, #0
 2094 000c 01D0     		beq	.L129
 2095              		.cfi_offset 14, -4
 2096              		.loc 1 736 0 is_stmt 0 discriminator 1
 2097 000e 009B     		ldr	r3, [sp, #0]
 2098 0010 002B     		cmp	r3, #0
 2099              	.L129:
 2100              		.loc 1 738 0 is_stmt 1
 2101 0012 019B     		ldr	r3, [sp, #4]
 2102 0014 1B79     		ldrb	r3, [r3, #4]	@ zero_extendqisi2
 2103 0016 072B     		cmp	r3, #7
 2104 0018 02D0     		beq	.L130
 2105              		.loc 1 739 0
 2106 001a 4FF00103 		mov	r3, #1
 2107 001e 44E0     		b	.L131
 2108              	.L130:
 2109              		.loc 1 741 0
 2110 0020 019B     		ldr	r3, [sp, #4]
 2111 0022 DB6A     		ldr	r3, [r3, #44]
 2112 0024 1B68     		ldr	r3, [r3, #0]
 2113 0026 1846     		mov	r0, r3
 2114 0028 4FF00201 		mov	r1, #2
 2115 002c 40F20002 		movw	r2, #:lower16:start.4189
 2116 0030 C0F20002 		movt	r2, #:upper16:start.4189
 2117 0034 FFF7FEFF 		bl	spiSend
 2118              		.loc 1 742 0
 2119 0038 019B     		ldr	r3, [sp, #4]
 2120 003a DB6A     		ldr	r3, [r3, #44]
 2121 003c 1B68     		ldr	r3, [r3, #0]
 2122 003e 1846     		mov	r0, r3
 2123 0040 4FF40071 		mov	r1, #512
 2124 0044 009A     		ldr	r2, [sp, #0]
 2125 0046 FFF7FEFF 		bl	spiSend
 2126              		.loc 1 743 0
 2127 004a 019B     		ldr	r3, [sp, #4]
 2128 004c DB6A     		ldr	r3, [r3, #44]
 2129 004e 1B68     		ldr	r3, [r3, #0]
 2130 0050 1846     		mov	r0, r3
 2131 0052 4FF00201 		mov	r1, #2
 2132 0056 FFF7FEFF 		bl	spiIgnore
 2133              		.loc 1 744 0
 2134 005a 019B     		ldr	r3, [sp, #4]
 2135 005c DB6A     		ldr	r3, [r3, #44]
 2136 005e 1A68     		ldr	r2, [r3, #0]
ARM GAS  C:\Users\z80\AppData\Local\Temp\cc9PmWEj.s 			page 39


 2137 0060 03AB     		add	r3, sp, #12
 2138 0062 1046     		mov	r0, r2
 2139 0064 4FF00101 		mov	r1, #1
 2140 0068 1A46     		mov	r2, r3
 2141 006a FFF7FEFF 		bl	spiReceive
 2142              		.loc 1 745 0
 2143 006e 9DF80C30 		ldrb	r3, [sp, #12]	@ zero_extendqisi2
 2144 0072 03F01F03 		and	r3, r3, #31
 2145 0076 052B     		cmp	r3, #5
 2146 0078 05D1     		bne	.L132
 2147              		.loc 1 746 0
 2148 007a 0198     		ldr	r0, [sp, #4]
 2149 007c FFF7FEFF 		bl	wait
 2150              		.loc 1 747 0
 2151 0080 4FF00003 		mov	r3, #0
 2152 0084 11E0     		b	.L131
 2153              	.L132:
 2154              		.loc 1 751 0
 2155 0086 019B     		ldr	r3, [sp, #4]
 2156 0088 DB6A     		ldr	r3, [r3, #44]
 2157 008a 1B68     		ldr	r3, [r3, #0]
 2158 008c 1846     		mov	r0, r3
 2159 008e FFF7FEFF 		bl	spiUnselect
 2160              		.loc 1 752 0
 2161 0092 019B     		ldr	r3, [sp, #4]
 2162 0094 DB6A     		ldr	r3, [r3, #44]
 2163 0096 1B68     		ldr	r3, [r3, #0]
 2164 0098 1846     		mov	r0, r3
 2165 009a FFF7FEFF 		bl	spiStop
 2166              		.loc 1 753 0
 2167 009e 019B     		ldr	r3, [sp, #4]
 2168 00a0 4FF00502 		mov	r2, #5
 2169 00a4 1A71     		strb	r2, [r3, #4]
 2170              		.loc 1 754 0
 2171 00a6 4FF00103 		mov	r3, #1
 2172              	.L131:
 2173              		.loc 1 755 0
 2174 00aa 1846     		mov	r0, r3
 2175 00ac 05B0     		add	sp, sp, #20
 2176 00ae 00BD     		pop	{pc}
 2177              		.cfi_endproc
 2178              	.LFE84:
 2179              		.size	mmcSequentialWrite, .-mmcSequentialWrite
 2180              		.section	.text.mmcStopSequentialWrite,"ax",%progbits
 2181              		.align	2
 2182              		.p2align 4,,15
 2183              		.global	mmcStopSequentialWrite
 2184              		.thumb
 2185              		.thumb_func
 2186              		.type	mmcStopSequentialWrite, %function
 2187              	mmcStopSequentialWrite:
 2188              	.LFB85:
 2189              		.loc 1 768 0
 2190              		.cfi_startproc
 2191              		@ args = 0, pretend = 0, frame = 8
 2192              		@ frame_needed = 0, uses_anonymous_args = 0
 2193 0000 00B5     		push	{lr}
ARM GAS  C:\Users\z80\AppData\Local\Temp\cc9PmWEj.s 			page 40


 2194              	.LCFI39:
 2195              		.cfi_def_cfa_offset 4
 2196 0002 83B0     		sub	sp, sp, #12
 2197              	.LCFI40:
 2198              		.cfi_def_cfa_offset 16
 2199 0004 0190     		str	r0, [sp, #4]
 2200              		.loc 1 771 0
 2201 0006 019B     		ldr	r3, [sp, #4]
 2202 0008 002B     		cmp	r3, #0
 2203              		.loc 1 773 0
 2204 000a 019B     		ldr	r3, [sp, #4]
 2205 000c 1B79     		ldrb	r3, [r3, #4]	@ zero_extendqisi2
 2206 000e 072B     		cmp	r3, #7
 2207 0010 02D0     		beq	.L135
 2208              		.cfi_offset 14, -4
 2209              		.loc 1 774 0
 2210 0012 4FF00103 		mov	r3, #1
 2211 0016 17E0     		b	.L136
 2212              	.L135:
 2213              		.loc 1 776 0
 2214 0018 019B     		ldr	r3, [sp, #4]
 2215 001a DB6A     		ldr	r3, [r3, #44]
 2216 001c 1B68     		ldr	r3, [r3, #0]
 2217 001e 1846     		mov	r0, r3
 2218 0020 4FF00201 		mov	r1, #2
 2219 0024 40F20002 		movw	r2, #:lower16:stop.4194
 2220 0028 C0F20002 		movt	r2, #:upper16:stop.4194
 2221 002c FFF7FEFF 		bl	spiSend
 2222              		.loc 1 777 0
 2223 0030 019B     		ldr	r3, [sp, #4]
 2224 0032 DB6A     		ldr	r3, [r3, #44]
 2225 0034 1B68     		ldr	r3, [r3, #0]
 2226 0036 1846     		mov	r0, r3
 2227 0038 FFF7FEFF 		bl	spiUnselect
 2228              		.loc 1 780 0
 2229 003c 019B     		ldr	r3, [sp, #4]
 2230 003e 4FF00502 		mov	r2, #5
 2231 0042 1A71     		strb	r2, [r3, #4]
 2232              		.loc 1 781 0
 2233 0044 4FF00003 		mov	r3, #0
 2234              	.L136:
 2235              		.loc 1 782 0
 2236 0048 1846     		mov	r0, r3
 2237 004a 03B0     		add	sp, sp, #12
 2238 004c 00BD     		pop	{pc}
 2239              		.cfi_endproc
 2240              	.LFE85:
 2241              		.size	mmcStopSequentialWrite, .-mmcStopSequentialWrite
 2242 004e 00BF     		.section	.text.mmcSync,"ax",%progbits
 2243              		.align	2
 2244              		.p2align 4,,15
 2245              		.global	mmcSync
 2246              		.thumb
 2247              		.thumb_func
 2248              		.type	mmcSync, %function
 2249              	mmcSync:
 2250              	.LFB86:
ARM GAS  C:\Users\z80\AppData\Local\Temp\cc9PmWEj.s 			page 41


 2251              		.loc 1 795 0
 2252              		.cfi_startproc
 2253              		@ args = 0, pretend = 0, frame = 8
 2254              		@ frame_needed = 0, uses_anonymous_args = 0
 2255 0000 00B5     		push	{lr}
 2256              	.LCFI41:
 2257              		.cfi_def_cfa_offset 4
 2258 0002 83B0     		sub	sp, sp, #12
 2259              	.LCFI42:
 2260              		.cfi_def_cfa_offset 16
 2261 0004 0190     		str	r0, [sp, #4]
 2262              		.loc 1 797 0
 2263 0006 019B     		ldr	r3, [sp, #4]
 2264 0008 002B     		cmp	r3, #0
 2265              		.loc 1 799 0
 2266 000a 019B     		ldr	r3, [sp, #4]
 2267 000c 1B79     		ldrb	r3, [r3, #4]	@ zero_extendqisi2
 2268 000e 052B     		cmp	r3, #5
 2269 0010 02D0     		beq	.L139
 2270              		.cfi_offset 14, -4
 2271              		.loc 1 800 0
 2272 0012 4FF00103 		mov	r3, #1
 2273 0016 16E0     		b	.L140
 2274              	.L139:
 2275              		.loc 1 803 0
 2276 0018 019B     		ldr	r3, [sp, #4]
 2277 001a 4FF00802 		mov	r2, #8
 2278 001e 1A71     		strb	r2, [r3, #4]
 2279              		.loc 1 805 0
 2280 0020 019B     		ldr	r3, [sp, #4]
 2281 0022 DB6A     		ldr	r3, [r3, #44]
 2282 0024 1A68     		ldr	r2, [r3, #0]
 2283 0026 019B     		ldr	r3, [sp, #4]
 2284 0028 DB6A     		ldr	r3, [r3, #44]
 2285 002a 9B68     		ldr	r3, [r3, #8]
 2286 002c 1046     		mov	r0, r2
 2287 002e 1946     		mov	r1, r3
 2288 0030 FFF7FEFF 		bl	spiStart
 2289              		.loc 1 806 0
 2290 0034 0198     		ldr	r0, [sp, #4]
 2291 0036 FFF7FEFF 		bl	sync
 2292              		.loc 1 809 0
 2293 003a 019B     		ldr	r3, [sp, #4]
 2294 003c 4FF00502 		mov	r2, #5
 2295 0040 1A71     		strb	r2, [r3, #4]
 2296              		.loc 1 810 0
 2297 0042 4FF00003 		mov	r3, #0
 2298              	.L140:
 2299              		.loc 1 811 0
 2300 0046 1846     		mov	r0, r3
 2301 0048 03B0     		add	sp, sp, #12
 2302 004a 00BD     		pop	{pc}
 2303              		.cfi_endproc
 2304              	.LFE86:
 2305              		.size	mmcSync, .-mmcSync
 2306 004c AFF30080 		.section	.text.mmcGetInfo,"ax",%progbits
 2307              		.align	2
ARM GAS  C:\Users\z80\AppData\Local\Temp\cc9PmWEj.s 			page 42


 2308              		.p2align 4,,15
 2309              		.global	mmcGetInfo
 2310              		.thumb
 2311              		.thumb_func
 2312              		.type	mmcGetInfo, %function
 2313              	mmcGetInfo:
 2314              	.LFB87:
 2315              		.loc 1 825 0
 2316              		.cfi_startproc
 2317              		@ args = 0, pretend = 0, frame = 8
 2318              		@ frame_needed = 0, uses_anonymous_args = 0
 2319              		@ link register save eliminated.
 2320 0000 82B0     		sub	sp, sp, #8
 2321              	.LCFI43:
 2322              		.cfi_def_cfa_offset 8
 2323 0002 0190     		str	r0, [sp, #4]
 2324 0004 0091     		str	r1, [sp, #0]
 2325              		.loc 1 827 0
 2326 0006 019B     		ldr	r3, [sp, #4]
 2327 0008 002B     		cmp	r3, #0
 2328 000a 01D0     		beq	.L143
 2329              		.loc 1 827 0 is_stmt 0 discriminator 1
 2330 000c 009B     		ldr	r3, [sp, #0]
 2331 000e 002B     		cmp	r3, #0
 2332              	.L143:
 2333              		.loc 1 829 0 is_stmt 1
 2334 0010 019B     		ldr	r3, [sp, #4]
 2335 0012 1B79     		ldrb	r3, [r3, #4]	@ zero_extendqisi2
 2336 0014 052B     		cmp	r3, #5
 2337 0016 02D0     		beq	.L144
 2338              		.loc 1 830 0
 2339 0018 4FF00103 		mov	r3, #1
 2340 001c 09E0     		b	.L145
 2341              	.L144:
 2342              		.loc 1 832 0
 2343 001e 019B     		ldr	r3, [sp, #4]
 2344 0020 9A6A     		ldr	r2, [r3, #40]
 2345 0022 009B     		ldr	r3, [sp, #0]
 2346 0024 5A60     		str	r2, [r3, #4]
 2347              		.loc 1 833 0
 2348 0026 009B     		ldr	r3, [sp, #0]
 2349 0028 4FF40072 		mov	r2, #512
 2350 002c 1A60     		str	r2, [r3, #0]
 2351              		.loc 1 835 0
 2352 002e 4FF00003 		mov	r3, #0
 2353              	.L145:
 2354              		.loc 1 836 0
 2355 0032 1846     		mov	r0, r3
 2356 0034 02B0     		add	sp, sp, #8
 2357 0036 7047     		bx	lr
 2358              		.cfi_endproc
 2359              	.LFE87:
 2360              		.size	mmcGetInfo, .-mmcGetInfo
 2361 0038 AFF30080 		.section	.text.mmcErase,"ax",%progbits
 2361      AFF30080 
 2362              		.align	2
 2363              		.p2align 4,,15
ARM GAS  C:\Users\z80\AppData\Local\Temp\cc9PmWEj.s 			page 43


 2364              		.global	mmcErase
 2365              		.thumb
 2366              		.thumb_func
 2367              		.type	mmcErase, %function
 2368              	mmcErase:
 2369              	.LFB88:
 2370              		.loc 1 851 0
 2371              		.cfi_startproc
 2372              		@ args = 0, pretend = 0, frame = 16
 2373              		@ frame_needed = 0, uses_anonymous_args = 0
 2374 0000 00B5     		push	{lr}
 2375              	.LCFI44:
 2376              		.cfi_def_cfa_offset 4
 2377 0002 85B0     		sub	sp, sp, #20
 2378              	.LCFI45:
 2379              		.cfi_def_cfa_offset 24
 2380 0004 0390     		str	r0, [sp, #12]
 2381 0006 0291     		str	r1, [sp, #8]
 2382 0008 0192     		str	r2, [sp, #4]
 2383              		.loc 1 853 0
 2384 000a 039B     		ldr	r3, [sp, #12]
 2385 000c 002B     		cmp	r3, #0
 2386              		.loc 1 856 0
 2387 000e 039B     		ldr	r3, [sp, #12]
 2388 0010 4FF00702 		mov	r2, #7
 2389 0014 1A71     		strb	r2, [r3, #4]
 2390              		.loc 1 859 0
 2391 0016 039B     		ldr	r3, [sp, #12]
 2392 0018 93F83030 		ldrb	r3, [r3, #48]	@ zero_extendqisi2
 2393 001c 83F00103 		eor	r3, r3, #1
 2394 0020 DBB2     		uxtb	r3, r3
 2395 0022 002B     		cmp	r3, #0
 2396 0024 07D0     		beq	.L148
 2397              		.cfi_offset 14, -4
 2398              		.loc 1 860 0
 2399 0026 029B     		ldr	r3, [sp, #8]
 2400 0028 4FEA4323 		lsl	r3, r3, #9
 2401 002c 0293     		str	r3, [sp, #8]
 2402              		.loc 1 861 0
 2403 002e 019B     		ldr	r3, [sp, #4]
 2404 0030 4FEA4323 		lsl	r3, r3, #9
 2405 0034 0193     		str	r3, [sp, #4]
 2406              	.L148:
 2407              		.loc 1 864 0
 2408 0036 0398     		ldr	r0, [sp, #12]
 2409 0038 4FF02001 		mov	r1, #32
 2410 003c 029A     		ldr	r2, [sp, #8]
 2411 003e FFF7FEFF 		bl	send_command_R1
 2412 0042 0346     		mov	r3, r0
 2413 0044 002B     		cmp	r3, #0
 2414 0046 19D1     		bne	.L154
 2415              	.L149:
 2416              		.loc 1 867 0
 2417 0048 0398     		ldr	r0, [sp, #12]
 2418 004a 4FF02101 		mov	r1, #33
 2419 004e 019A     		ldr	r2, [sp, #4]
 2420 0050 FFF7FEFF 		bl	send_command_R1
ARM GAS  C:\Users\z80\AppData\Local\Temp\cc9PmWEj.s 			page 44


 2421 0054 0346     		mov	r3, r0
 2422 0056 002B     		cmp	r3, #0
 2423 0058 12D1     		bne	.L155
 2424              	.L151:
 2425              		.loc 1 870 0
 2426 005a 0398     		ldr	r0, [sp, #12]
 2427 005c 4FF02601 		mov	r1, #38
 2428 0060 4FF00002 		mov	r2, #0
 2429 0064 FFF7FEFF 		bl	send_command_R1
 2430 0068 0346     		mov	r3, r0
 2431 006a 002B     		cmp	r3, #0
 2432 006c 0AD1     		bne	.L156
 2433              	.L152:
 2434              		.loc 1 873 0
 2435 006e 039B     		ldr	r3, [sp, #12]
 2436 0070 4FF00502 		mov	r2, #5
 2437 0074 1A71     		strb	r2, [r3, #4]
 2438              		.loc 1 874 0
 2439 0076 4FF00003 		mov	r3, #0
 2440 007a 10E0     		b	.L153
 2441              	.L154:
 2442              		.loc 1 865 0
 2443 007c 00BF     		nop
 2444 007e 02E0     		b	.L150
 2445              	.L155:
 2446              		.loc 1 868 0
 2447 0080 00BF     		nop
 2448 0082 00E0     		b	.L150
 2449              	.L156:
 2450              		.loc 1 871 0
 2451 0084 00BF     		nop
 2452              	.L150:
 2453              		.loc 1 878 0
 2454 0086 039B     		ldr	r3, [sp, #12]
 2455 0088 DB6A     		ldr	r3, [r3, #44]
 2456 008a 1B68     		ldr	r3, [r3, #0]
 2457 008c 1846     		mov	r0, r3
 2458 008e FFF7FEFF 		bl	spiStop
 2459              		.loc 1 879 0
 2460 0092 039B     		ldr	r3, [sp, #12]
 2461 0094 4FF00502 		mov	r2, #5
 2462 0098 1A71     		strb	r2, [r3, #4]
 2463              		.loc 1 880 0
 2464 009a 4FF00103 		mov	r3, #1
 2465              	.L153:
 2466              		.loc 1 881 0
 2467 009e 1846     		mov	r0, r3
 2468 00a0 05B0     		add	sp, sp, #20
 2469 00a2 00BD     		pop	{pc}
 2470              		.cfi_endproc
 2471              	.LFE88:
 2472              		.size	mmcErase, .-mmcErase
 2473 00a4 AFF30080 		.section	.rodata.stop.4194,"a",%progbits
 2473      AFF30080 
 2473      AFF30080 
 2474              		.align	2
 2475              		.type	stop.4194, %object
ARM GAS  C:\Users\z80\AppData\Local\Temp\cc9PmWEj.s 			page 45


 2476              		.size	stop.4194, 2
 2477              	stop.4194:
 2478 0000 FD       		.byte	-3
 2479 0001 FF       		.byte	-1
 2480 0002 0000     		.section	.rodata.start.4189,"a",%progbits
 2481              		.align	2
 2482              		.type	start.4189, %object
 2483              		.size	start.4189, 2
 2484              	start.4189:
 2485 0000 FF       		.byte	-1
 2486 0001 FC       		.byte	-4
 2487 0002 0000     		.section	.rodata.stopcmd.4180,"a",%progbits
 2488              		.align	2
 2489              		.type	stopcmd.4180, %object
 2490              		.size	stopcmd.4180, 7
 2491              	stopcmd.4180:
 2492 0000 4C       		.byte	76
 2493 0001 00       		.byte	0
 2494 0002 00       		.byte	0
 2495 0003 00       		.byte	0
 2496 0004 00       		.byte	0
 2497 0005 01       		.byte	1
 2498 0006 FF       		.byte	-1
 2499 0007 00       		.text
 2500              	.Letext0: