ARM GAS  C:\Users\z80\AppData\Local\Temp\cc9PmWEj.s 			page 1


   1              		.syntax unified
   2              		.cpu cortex-m3
   3              		.fpu softvfp
   4              		.eabi_attribute 20, 1
   5              		.eabi_attribute 21, 1
   6              		.eabi_attribute 23, 3
   7              		.eabi_attribute 24, 1
   8              		.eabi_attribute 25, 1
   9              		.eabi_attribute 26, 1
  10              		.eabi_attribute 30, 6
  11              		.eabi_attribute 18, 4
  12              		.thumb
  13              		.file	"mmc_spi.c"
  14              		.section	.debug_abbrev,"",%progbits
  15              	.Ldebug_abbrev0:
  16              		.section	.debug_info,"",%progbits
  17              	.Ldebug_info0:
  18              		.section	.debug_line,"",%progbits
  19              	.Ldebug_line0:
  20 0000 12060000 		.text
  20      0200A402 
  20      00000201 
  20      FB0E0D00 
  20      01010101 
  21              	.Ltext0:
  22              		.cfi_sections	.debug_frame
  23              		.section	.rodata.mmc_vmt,"a",%progbits
  24              		.align	2
  25              		.type	mmc_vmt, %object
  26              		.size	mmc_vmt, 32
  27              	mmc_vmt:
  28 0000 00000000 		.word	mmc_lld_is_card_inserted
  29 0004 00000000 		.word	mmc_lld_is_write_protected
  30 0008 00000000 		.word	mmcConnect
  31 000c 00000000 		.word	mmcDisconnect
  32 0010 00000000 		.word	mmc_read
  33 0014 00000000 		.word	mmc_write
  34 0018 00000000 		.word	mmcSync
  35 001c 00000000 		.word	mmcGetInfo
  36              		.section	.rodata.crc7_lookup_table,"a",%progbits
  37              		.align	2
  38              		.type	crc7_lookup_table, %object
  39              		.size	crc7_lookup_table, 256
  40              	crc7_lookup_table:
  41 0000 00       		.byte	0
  42 0001 09       		.byte	9
  43 0002 12       		.byte	18
  44 0003 1B       		.byte	27
  45 0004 24       		.byte	36
  46 0005 2D       		.byte	45
  47 0006 36       		.byte	54
  48 0007 3F       		.byte	63
  49 0008 48       		.byte	72
  50 0009 41       		.byte	65
  51 000a 5A       		.byte	90
  52 000b 53       		.byte	83
  53 000c 6C       		.byte	108
ARM GAS  C:\Users\z80\AppData\Local\Temp\cc9PmWEj.s 			page 2


  54 000d 65       		.byte	101
  55 000e 7E       		.byte	126
  56 000f 77       		.byte	119
  57 0010 19       		.byte	25
  58 0011 10       		.byte	16
  59 0012 0B       		.byte	11
  60 0013 02       		.byte	2
  61 0014 3D       		.byte	61
  62 0015 34       		.byte	52
  63 0016 2F       		.byte	47
  64 0017 26       		.byte	38
  65 0018 51       		.byte	81
  66 0019 58       		.byte	88
  67 001a 43       		.byte	67
  68 001b 4A       		.byte	74
  69 001c 75       		.byte	117
  70 001d 7C       		.byte	124
  71 001e 67       		.byte	103
  72 001f 6E       		.byte	110
  73 0020 32       		.byte	50
  74 0021 3B       		.byte	59
  75 0022 20       		.byte	32
  76 0023 29       		.byte	41
  77 0024 16       		.byte	22
  78 0025 1F       		.byte	31
  79 0026 04       		.byte	4
  80 0027 0D       		.byte	13
  81 0028 7A       		.byte	122
  82 0029 73       		.byte	115
  83 002a 68       		.byte	104
  84 002b 61       		.byte	97
  85 002c 5E       		.byte	94
  86 002d 57       		.byte	87
  87 002e 4C       		.byte	76
  88 002f 45       		.byte	69
  89 0030 2B       		.byte	43
  90 0031 22       		.byte	34
  91 0032 39       		.byte	57
  92 0033 30       		.byte	48
  93 0034 0F       		.byte	15
  94 0035 06       		.byte	6
  95 0036 1D       		.byte	29
  96 0037 14       		.byte	20
  97 0038 63       		.byte	99
  98 0039 6A       		.byte	106
  99 003a 71       		.byte	113
 100 003b 78       		.byte	120
 101 003c 47       		.byte	71
 102 003d 4E       		.byte	78
 103 003e 55       		.byte	85
 104 003f 5C       		.byte	92
 105 0040 64       		.byte	100
 106 0041 6D       		.byte	109
 107 0042 76       		.byte	118
 108 0043 7F       		.byte	127
 109 0044 40       		.byte	64
 110 0045 49       		.byte	73
ARM GAS  C:\Users\z80\AppData\Local\Temp\cc9PmWEj.s 			page 3


 111 0046 52       		.byte	82
 112 0047 5B       		.byte	91
 113 0048 2C       		.byte	44
 114 0049 25       		.byte	37
 115 004a 3E       		.byte	62
 116 004b 37       		.byte	55
 117 004c 08       		.byte	8
 118 004d 01       		.byte	1
 119 004e 1A       		.byte	26
 120 004f 13       		.byte	19
 121 0050 7D       		.byte	125
 122 0051 74       		.byte	116
 123 0052 6F       		.byte	111
 124 0053 66       		.byte	102
 125 0054 59       		.byte	89
 126 0055 50       		.byte	80
 127 0056 4B       		.byte	75
 128 0057 42       		.byte	66
 129 0058 35       		.byte	53
 130 0059 3C       		.byte	60
 131 005a 27       		.byte	39
 132 005b 2E       		.byte	46
 133 005c 11       		.byte	17
 134 005d 18       		.byte	24
 135 005e 03       		.byte	3
 136 005f 0A       		.byte	10
 137 0060 56       		.byte	86
 138 0061 5F       		.byte	95
 139 0062 44       		.byte	68
 140 0063 4D       		.byte	77
 141 0064 72       		.byte	114
 142 0065 7B       		.byte	123
 143 0066 60       		.byte	96
 144 0067 69       		.byte	105
 145 0068 1E       		.byte	30
 146 0069 17       		.byte	23
 147 006a 0C       		.byte	12
 148 006b 05       		.byte	5
 149 006c 3A       		.byte	58
 150 006d 33       		.byte	51
 151 006e 28       		.byte	40
 152 006f 21       		.byte	33
 153 0070 4F       		.byte	79
 154 0071 46       		.byte	70
 155 0072 5D       		.byte	93
 156 0073 54       		.byte	84
 157 0074 6B       		.byte	107
 158 0075 62       		.byte	98
 159 0076 79       		.byte	121
 160 0077 70       		.byte	112
 161 0078 07       		.byte	7
 162 0079 0E       		.byte	14
 163 007a 15       		.byte	21
 164 007b 1C       		.byte	28
 165 007c 23       		.byte	35
 166 007d 2A       		.byte	42
 167 007e 31       		.byte	49
ARM GAS  C:\Users\z80\AppData\Local\Temp\cc9PmWEj.s 			page 4


 168 007f 38       		.byte	56
 169 0080 41       		.byte	65
 170 0081 48       		.byte	72
 171 0082 53       		.byte	83
 172 0083 5A       		.byte	90
 173 0084 65       		.byte	101
 174 0085 6C       		.byte	108
 175 0086 77       		.byte	119
 176 0087 7E       		.byte	126
 177 0088 09       		.byte	9
 178 0089 00       		.byte	0
 179 008a 1B       		.byte	27
 180 008b 12       		.byte	18
 181 008c 2D       		.byte	45
 182 008d 24       		.byte	36
 183 008e 3F       		.byte	63
 184 008f 36       		.byte	54
 185 0090 58       		.byte	88
 186 0091 51       		.byte	81
 187 0092 4A       		.byte	74
 188 0093 43       		.byte	67
 189 0094 7C       		.byte	124
 190 0095 75       		.byte	117
 191 0096 6E       		.byte	110
 192 0097 67       		.byte	103
 193 0098 10       		.byte	16
 194 0099 19       		.byte	25
 195 009a 02       		.byte	2
 196 009b 0B       		.byte	11
 197 009c 34       		.byte	52
 198 009d 3D       		.byte	61
 199 009e 26       		.byte	38
 200 009f 2F       		.byte	47
 201 00a0 73       		.byte	115
 202 00a1 7A       		.byte	122
 203 00a2 61       		.byte	97
 204 00a3 68       		.byte	104
 205 00a4 57       		.byte	87
 206 00a5 5E       		.byte	94
 207 00a6 45       		.byte	69
 208 00a7 4C       		.byte	76
 209 00a8 3B       		.byte	59
 210 00a9 32       		.byte	50
 211 00aa 29       		.byte	41
 212 00ab 20       		.byte	32
 213 00ac 1F       		.byte	31
 214 00ad 16       		.byte	22
 215 00ae 0D       		.byte	13
 216 00af 04       		.byte	4
 217 00b0 6A       		.byte	106
 218 00b1 63       		.byte	99
 219 00b2 78       		.byte	120
 220 00b3 71       		.byte	113
 221 00b4 4E       		.byte	78
 222 00b5 47       		.byte	71
 223 00b6 5C       		.byte	92
 224 00b7 55       		.byte	85
ARM GAS  C:\Users\z80\AppData\Local\Temp\cc9PmWEj.s 			page 5


 225 00b8 22       		.byte	34
 226 00b9 2B       		.byte	43
 227 00ba 30       		.byte	48
 228 00bb 39       		.byte	57
 229 00bc 06       		.byte	6
 230 00bd 0F       		.byte	15
 231 00be 14       		.byte	20
 232 00bf 1D       		.byte	29
 233 00c0 25       		.byte	37
 234 00c1 2C       		.byte	44
 235 00c2 37       		.byte	55
 236 00c3 3E       		.byte	62
 237 00c4 01       		.byte	1
 238 00c5 08       		.byte	8
 239 00c6 13       		.byte	19
 240 00c7 1A       		.byte	26
 241 00c8 6D       		.byte	109
 242 00c9 64       		.byte	100
 243 00ca 7F       		.byte	127
 244 00cb 76       		.byte	118
 245 00cc 49       		.byte	73
 246 00cd 40       		.byte	64
 247 00ce 5B       		.byte	91
 248 00cf 52       		.byte	82
 249 00d0 3C       		.byte	60
 250 00d1 35       		.byte	53
 251 00d2 2E       		.byte	46
 252 00d3 27       		.byte	39
 253 00d4 18       		.byte	24
 254 00d5 11       		.byte	17
 255 00d6 0A       		.byte	10
 256 00d7 03       		.byte	3
 257 00d8 74       		.byte	116
 258 00d9 7D       		.byte	125
 259 00da 66       		.byte	102
 260 00db 6F       		.byte	111
 261 00dc 50       		.byte	80
 262 00dd 59       		.byte	89
 263 00de 42       		.byte	66
 264 00df 4B       		.byte	75
 265 00e0 17       		.byte	23
 266 00e1 1E       		.byte	30
 267 00e2 05       		.byte	5
 268 00e3 0C       		.byte	12
 269 00e4 33       		.byte	51
 270 00e5 3A       		.byte	58
 271 00e6 21       		.byte	33
 272 00e7 28       		.byte	40
 273 00e8 5F       		.byte	95
 274 00e9 56       		.byte	86
 275 00ea 4D       		.byte	77
 276 00eb 44       		.byte	68
 277 00ec 7B       		.byte	123
 278 00ed 72       		.byte	114
 279 00ee 69       		.byte	105
 280 00ef 60       		.byte	96
 281 00f0 0E       		.byte	14
ARM GAS  C:\Users\z80\AppData\Local\Temp\cc9PmWEj.s 			page 6


 282 00f1 07       		.byte	7
 283 00f2 1C       		.byte	28
 284 00f3 15       		.byte	21
 285 00f4 2A       		.byte	42
 286 00f5 23       		.byte	35
 287 00f6 38       		.byte	56
 288 00f7 31       		.byte	49
 289 00f8 46       		.byte	70
 290 00f9 4F       		.byte	79
 291 00fa 54       		.byte	84
 292 00fb 5D       		.byte	93
 293 00fc 62       		.byte	98
 294 00fd 6B       		.byte	107
 295 00fe 70       		.byte	112
 296 00ff 79       		.byte	121
 297              		.section	.text.mmc_read,"ax",%progbits
 298              		.align	2
 299              		.p2align 4,,15
 300              		.thumb
 301              		.thumb_func
 302              		.type	mmc_read, %function
 303              	mmc_read:
 304              	.LFB63:
 305              		.file 1 "../chibios_2.6.3/os/hal/src/mmc_spi.c"
 306              		.loc 1 111 0
 307              		.cfi_startproc
 308              		@ args = 0, pretend = 0, frame = 16
 309              		@ frame_needed = 0, uses_anonymous_args = 0
 310 0000 00B5     		push	{lr}
 311              	.LCFI0:
 312              		.cfi_def_cfa_offset 4
 313 0002 85B0     		sub	sp, sp, #20
 314              	.LCFI1:
 315              		.cfi_def_cfa_offset 24
 316 0004 0390     		str	r0, [sp, #12]
 317 0006 0291     		str	r1, [sp, #8]
 318 0008 0192     		str	r2, [sp, #4]
 319 000a 0093     		str	r3, [sp, #0]
 320              		.loc 1 113 0
 321 000c 039B     		ldr	r3, [sp, #12]
 322 000e 1846     		mov	r0, r3
 323 0010 0299     		ldr	r1, [sp, #8]
 324              		.cfi_offset 14, -4
 325 0012 FFF7FEFF 		bl	mmcStartSequentialRead
 326 0016 0346     		mov	r3, r0
 327 0018 002B     		cmp	r3, #0
 328 001a 15D0     		beq	.L4
 329              		.loc 1 114 0
 330 001c 4FF00103 		mov	r3, #1
 331 0020 21E0     		b	.L3
 332              	.L6:
 333              		.loc 1 116 0
 334 0022 039B     		ldr	r3, [sp, #12]
 335 0024 1846     		mov	r0, r3
 336 0026 0199     		ldr	r1, [sp, #4]
 337 0028 FFF7FEFF 		bl	mmcSequentialRead
 338 002c 0346     		mov	r3, r0
ARM GAS  C:\Users\z80\AppData\Local\Temp\cc9PmWEj.s 			page 7


 339 002e 002B     		cmp	r3, #0
 340 0030 02D0     		beq	.L5
 341              		.loc 1 117 0
 342 0032 4FF00103 		mov	r3, #1
 343 0036 16E0     		b	.L3
 344              	.L5:
 345              		.loc 1 118 0
 346 0038 019B     		ldr	r3, [sp, #4]
 347 003a 03F50073 		add	r3, r3, #512
 348 003e 0193     		str	r3, [sp, #4]
 349              		.loc 1 119 0
 350 0040 009B     		ldr	r3, [sp, #0]
 351 0042 03F1FF33 		add	r3, r3, #-1
 352 0046 0093     		str	r3, [sp, #0]
 353              	.L4:
 354              		.loc 1 115 0 discriminator 1
 355 0048 009B     		ldr	r3, [sp, #0]
 356 004a 002B     		cmp	r3, #0
 357 004c E9D1     		bne	.L6
 358              		.loc 1 121 0
 359 004e 039B     		ldr	r3, [sp, #12]
 360 0050 1846     		mov	r0, r3
 361 0052 FFF7FEFF 		bl	mmcStopSequentialRead
 362 0056 0346     		mov	r3, r0
 363 0058 002B     		cmp	r3, #0
 364 005a 02D0     		beq	.L7
 365              		.loc 1 122 0
 366 005c 4FF00103 		mov	r3, #1
 367 0060 01E0     		b	.L3
 368              	.L7:
 369              		.loc 1 123 0
 370 0062 4FF00003 		mov	r3, #0
 371              	.L3:
 372              		.loc 1 124 0
 373 0066 1846     		mov	r0, r3
 374 0068 05B0     		add	sp, sp, #20
 375 006a 00BD     		pop	{pc}
 376              		.cfi_endproc
 377              	.LFE63:
 378              		.size	mmc_read, .-mmc_read
 379 006c AFF30080 		.section	.text.mmc_write,"ax",%progbits
 380              		.align	2
 381              		.p2align 4,,15
 382              		.thumb
 383              		.thumb_func
 384              		.type	mmc_write, %function
 385              	mmc_write:
 386              	.LFB64:
 387              		.loc 1 127 0
 388              		.cfi_startproc
 389              		@ args = 0, pretend = 0, frame = 16
 390              		@ frame_needed = 0, uses_anonymous_args = 0
 391 0000 00B5     		push	{lr}
 392              	.LCFI2:
 393              		.cfi_def_cfa_offset 4
 394 0002 85B0     		sub	sp, sp, #20
 395              	.LCFI3:
ARM GAS  C:\Users\z80\AppData\Local\Temp\cc9PmWEj.s 			page 8


 396              		.cfi_def_cfa_offset 24
 397 0004 0390     		str	r0, [sp, #12]
 398 0006 0291     		str	r1, [sp, #8]
 399 0008 0192     		str	r2, [sp, #4]
 400 000a 0093     		str	r3, [sp, #0]
 401              		.loc 1 129 0
 402 000c 039B     		ldr	r3, [sp, #12]
 403 000e 1846     		mov	r0, r3
 404 0010 0299     		ldr	r1, [sp, #8]
 405              		.cfi_offset 14, -4
 406 0012 FFF7FEFF 		bl	mmcStartSequentialWrite
 407 0016 0346     		mov	r3, r0
 408 0018 002B     		cmp	r3, #0
 409 001a 15D0     		beq	.L11
 410              		.loc 1 130 0
 411 001c 4FF00103 		mov	r3, #1
 412 0020 21E0     		b	.L10
 413              	.L13:
 414              		.loc 1 132 0
 415 0022 039B     		ldr	r3, [sp, #12]
 416 0024 1846     		mov	r0, r3
 417 0026 0199     		ldr	r1, [sp, #4]
 418 0028 FFF7FEFF 		bl	mmcSequentialWrite
 419 002c 0346     		mov	r3, r0
 420 002e 002B     		cmp	r3, #0
 421 0030 02D0     		beq	.L12
 422              		.loc 1 133 0
 423 0032 4FF00103 		mov	r3, #1
 424 0036 16E0     		b	.L10
 425              	.L12:
 426              		.loc 1 134 0
 427 0038 019B     		ldr	r3, [sp, #4]
 428 003a 03F50073 		add	r3, r3, #512
 429 003e 0193     		str	r3, [sp, #4]
 430              		.loc 1 135 0
 431 0040 009B     		ldr	r3, [sp, #0]
 432 0042 03F1FF33 		add	r3, r3, #-1
 433 0046 0093     		str	r3, [sp, #0]
 434              	.L11:
 435              		.loc 1 131 0 discriminator 1
 436 0048 009B     		ldr	r3, [sp, #0]
 437 004a 002B     		cmp	r3, #0
 438 004c E9D1     		bne	.L13
 439              		.loc 1 137 0
 440 004e 039B     		ldr	r3, [sp, #12]
 441 0050 1846     		mov	r0, r3
 442 0052 FFF7FEFF 		bl	mmcStopSequentialWrite
 443 0056 0346     		mov	r3, r0
 444 0058 002B     		cmp	r3, #0
 445 005a 02D0     		beq	.L14
 446              		.loc 1 138 0
 447 005c 4FF00103 		mov	r3, #1
 448 0060 01E0     		b	.L10
 449              	.L14:
 450              		.loc 1 139 0
 451 0062 4FF00003 		mov	r3, #0
 452              	.L10:
ARM GAS  C:\Users\z80\AppData\Local\Temp\cc9PmWEj.s 			page 9


 453              		.loc 1 140 0
 454 0066 1846     		mov	r0, r3
 455 0068 05B0     		add	sp, sp, #20
 456 006a 00BD     		pop	{pc}
 457              		.cfi_endproc
 458              	.LFE64:
 459              		.size	mmc_write, .-mmc_write
 460 006c AFF30080 		.section	.text.crc7,"ax",%progbits
 461              		.align	2
 462              		.p2align 4,,15
 463              		.thumb
 464              		.thumb_func
 465              		.type	crc7, %function
 466              	crc7:
 467              	.LFB65:
 468              		.loc 1 150 0
 469              		.cfi_startproc
 470              		@ args = 0, pretend = 0, frame = 16
 471              		@ frame_needed = 0, uses_anonymous_args = 0
 472              		@ link register save eliminated.
 473 0000 84B0     		sub	sp, sp, #16
 474              	.LCFI4:
 475              		.cfi_def_cfa_offset 16
 476 0002 0346     		mov	r3, r0
 477 0004 0291     		str	r1, [sp, #8]
 478 0006 0192     		str	r2, [sp, #4]
 479 0008 8DF80F30 		strb	r3, [sp, #15]
 480              		.loc 1 152 0
 481 000c 12E0     		b	.L16
 482              	.L17:
 483              		.loc 1 153 0
 484 000e 9DF80F30 		ldrb	r3, [sp, #15]	@ zero_extendqisi2
 485 0012 4FEA4302 		lsl	r2, r3, #1
 486 0016 029B     		ldr	r3, [sp, #8]
 487 0018 1B78     		ldrb	r3, [r3, #0]	@ zero_extendqisi2
 488 001a 82EA0302 		eor	r2, r2, r3
 489 001e 40F20003 		movw	r3, #:lower16:crc7_lookup_table
 490 0022 C0F20003 		movt	r3, #:upper16:crc7_lookup_table
 491 0026 9B5C     		ldrb	r3, [r3, r2]
 492 0028 8DF80F30 		strb	r3, [sp, #15]
 493 002c 029B     		ldr	r3, [sp, #8]
 494 002e 03F10103 		add	r3, r3, #1
 495 0032 0293     		str	r3, [sp, #8]
 496              	.L16:
 497              		.loc 1 152 0 discriminator 1
 498 0034 019B     		ldr	r3, [sp, #4]
 499 0036 002B     		cmp	r3, #0
 500 0038 0CBF     		ite	eq
 501 003a 0023     		moveq	r3, #0
 502 003c 0123     		movne	r3, #1
 503 003e DBB2     		uxtb	r3, r3
 504 0040 019A     		ldr	r2, [sp, #4]
 505 0042 02F1FF32 		add	r2, r2, #-1
 506 0046 0192     		str	r2, [sp, #4]
 507 0048 002B     		cmp	r3, #0
 508 004a E0D1     		bne	.L17
 509              		.loc 1 154 0
ARM GAS  C:\Users\z80\AppData\Local\Temp\cc9PmWEj.s 			page 10


 510 004c 9DF80F30 		ldrb	r3, [sp, #15]	@ zero_extendqisi2
 511              		.loc 1 155 0
 512 0050 1846     		mov	r0, r3
 513 0052 04B0     		add	sp, sp, #16
 514 0054 7047     		bx	lr
 515              		.cfi_endproc
 516              	.LFE65:
 517              		.size	crc7, .-crc7
 518 0056 00BFAFF3 		.section	.text.wait,"ax",%progbits
 518      0080AFF3 
 518      0080
 519              		.align	2
 520              		.p2align 4,,15
 521              		.thumb
 522              		.thumb_func
 523              		.type	wait, %function
 524              	wait:
 525              	.LFB66:
 526              		.loc 1 164 0
 527              		.cfi_startproc
 528              		@ args = 0, pretend = 0, frame = 16
 529              		@ frame_needed = 0, uses_anonymous_args = 0
 530 0000 00B5     		push	{lr}
 531              	.LCFI5:
 532              		.cfi_def_cfa_offset 4
 533 0002 85B0     		sub	sp, sp, #20
 534              	.LCFI6:
 535              		.cfi_def_cfa_offset 24
 536 0004 0190     		str	r0, [sp, #4]
 537              		.loc 1 168 0
 538 0006 4FF00003 		mov	r3, #0
 539 000a 0393     		str	r3, [sp, #12]
 540 000c 11E0     		b	.L19
 541              		.cfi_offset 14, -4
 542              	.L22:
 543              		.loc 1 169 0
 544 000e 019B     		ldr	r3, [sp, #4]
 545 0010 DB6A     		ldr	r3, [r3, #44]
 546 0012 1A68     		ldr	r2, [r3, #0]
 547 0014 02AB     		add	r3, sp, #8
 548 0016 1046     		mov	r0, r2
 549 0018 4FF00101 		mov	r1, #1
 550 001c 1A46     		mov	r2, r3
 551 001e FFF7FEFF 		bl	spiReceive
 552              		.loc 1 170 0
 553 0022 9DF80830 		ldrb	r3, [sp, #8]	@ zero_extendqisi2
 554 0026 FF2B     		cmp	r3, #255
 555 0028 19D0     		beq	.L25
 556              	.L20:
 557              		.loc 1 168 0
 558 002a 039B     		ldr	r3, [sp, #12]
 559 002c 03F10103 		add	r3, r3, #1
 560 0030 0393     		str	r3, [sp, #12]
 561              	.L19:
 562              		.loc 1 168 0 is_stmt 0 discriminator 1
 563 0032 039B     		ldr	r3, [sp, #12]
 564 0034 0F2B     		cmp	r3, #15
ARM GAS  C:\Users\z80\AppData\Local\Temp\cc9PmWEj.s 			page 11


 565 0036 EADD     		ble	.L22
 566              	.L24:
 567              		.loc 1 175 0 is_stmt 1
 568 0038 019B     		ldr	r3, [sp, #4]
 569 003a DB6A     		ldr	r3, [r3, #44]
 570 003c 1A68     		ldr	r2, [r3, #0]
 571 003e 02AB     		add	r3, sp, #8
 572 0040 1046     		mov	r0, r2
 573 0042 4FF00101 		mov	r1, #1
 574 0046 1A46     		mov	r2, r3
 575 0048 FFF7FEFF 		bl	spiReceive
 576              		.loc 1 176 0
 577 004c 9DF80830 		ldrb	r3, [sp, #8]	@ zero_extendqisi2
 578 0050 FF2B     		cmp	r3, #255
 579 0052 06D0     		beq	.L26
 580              	.L23:
 581              		.loc 1 180 0
 582 0054 4FF00100 		mov	r0, #1
 583 0058 FFF7FEFF 		bl	chThdSleep
 584              		.loc 1 182 0
 585 005c ECE7     		b	.L24
 586              	.L25:
 587              		.loc 1 171 0
 588 005e 00BF     		nop
 589 0060 00E0     		b	.L18
 590              	.L26:
 591              		.loc 1 177 0
 592 0062 00BF     		nop
 593              	.L18:
 594              		.loc 1 183 0
 595 0064 05B0     		add	sp, sp, #20
 596 0066 00BD     		pop	{pc}
 597              		.cfi_endproc
 598              	.LFE66:
 599              		.size	wait, .-wait
 600 0068 AFF30080 		.section	.text.send_hdr,"ax",%progbits
 600      AFF30080 
 601              		.align	2
 602              		.p2align 4,,15
 603              		.thumb
 604              		.thumb_func
 605              		.type	send_hdr, %function
 606              	send_hdr:
 607              	.LFB67:
 608              		.loc 1 194 0
 609              		.cfi_startproc
 610              		@ args = 0, pretend = 0, frame = 24
 611              		@ frame_needed = 0, uses_anonymous_args = 0
 612 0000 00B5     		push	{lr}
 613              	.LCFI7:
 614              		.cfi_def_cfa_offset 4
 615 0002 87B0     		sub	sp, sp, #28
 616              	.LCFI8:
 617              		.cfi_def_cfa_offset 32
 618 0004 0390     		str	r0, [sp, #12]
 619 0006 0B46     		mov	r3, r1
 620 0008 0192     		str	r2, [sp, #4]
ARM GAS  C:\Users\z80\AppData\Local\Temp\cc9PmWEj.s 			page 12


 621 000a 8DF80B30 		strb	r3, [sp, #11]
 622              		.loc 1 198 0
 623 000e 0398     		ldr	r0, [sp, #12]
 624              		.cfi_offset 14, -4
 625 0010 FFF7FEFF 		bl	wait
 626              		.loc 1 200 0
 627 0014 9DF80B30 		ldrb	r3, [sp, #11]
 628 0018 43F04003 		orr	r3, r3, #64
 629 001c DBB2     		uxtb	r3, r3
 630 001e 8DF81030 		strb	r3, [sp, #16]
 631              		.loc 1 201 0
 632 0022 019B     		ldr	r3, [sp, #4]
 633 0024 4FEA1363 		lsr	r3, r3, #24
 634 0028 DBB2     		uxtb	r3, r3
 635 002a 8DF81130 		strb	r3, [sp, #17]
 636              		.loc 1 202 0
 637 002e 019B     		ldr	r3, [sp, #4]
 638 0030 4FEA1343 		lsr	r3, r3, #16
 639 0034 DBB2     		uxtb	r3, r3
 640 0036 8DF81230 		strb	r3, [sp, #18]
 641              		.loc 1 203 0
 642 003a 019B     		ldr	r3, [sp, #4]
 643 003c 4FEA1323 		lsr	r3, r3, #8
 644 0040 DBB2     		uxtb	r3, r3
 645 0042 8DF81330 		strb	r3, [sp, #19]
 646              		.loc 1 204 0
 647 0046 019B     		ldr	r3, [sp, #4]
 648 0048 DBB2     		uxtb	r3, r3
 649 004a 8DF81430 		strb	r3, [sp, #20]
 650              		.loc 1 206 0
 651 004e 04AB     		add	r3, sp, #16
 652 0050 4FF00000 		mov	r0, #0
 653 0054 1946     		mov	r1, r3
 654 0056 4FF00502 		mov	r2, #5
 655 005a FFF7FEFF 		bl	crc7
 656 005e 0346     		mov	r3, r0
 657 0060 4FEA4303 		lsl	r3, r3, #1
 658 0064 DBB2     		uxtb	r3, r3
 659 0066 43F00103 		orr	r3, r3, #1
 660 006a DBB2     		uxtb	r3, r3
 661 006c DBB2     		uxtb	r3, r3
 662 006e 8DF81530 		strb	r3, [sp, #21]
 663              		.loc 1 208 0
 664 0072 039B     		ldr	r3, [sp, #12]
 665 0074 DB6A     		ldr	r3, [r3, #44]
 666 0076 1A68     		ldr	r2, [r3, #0]
 667 0078 04AB     		add	r3, sp, #16
 668 007a 1046     		mov	r0, r2
 669 007c 4FF00601 		mov	r1, #6
 670 0080 1A46     		mov	r2, r3
 671 0082 FFF7FEFF 		bl	spiSend
 672              		.loc 1 209 0
 673 0086 07B0     		add	sp, sp, #28
 674 0088 00BD     		pop	{pc}
 675              		.cfi_endproc
 676              	.LFE67:
 677              		.size	send_hdr, .-send_hdr
ARM GAS  C:\Users\z80\AppData\Local\Temp\cc9PmWEj.s 			page 13


 678 008a 00BFAFF3 		.section	.text.recvr1,"ax",%progbits
 678      0080
 679              		.align	2
 680              		.p2align 4,,15
 681              		.thumb
 682              		.thumb_func
 683              		.type	recvr1, %function
 684              	recvr1:
 685              	.LFB68:
 686              		.loc 1 220 0
 687              		.cfi_startproc
 688              		@ args = 0, pretend = 0, frame = 16
 689              		@ frame_needed = 0, uses_anonymous_args = 0
 690 0000 00B5     		push	{lr}
 691              	.LCFI9:
 692              		.cfi_def_cfa_offset 4
 693 0002 85B0     		sub	sp, sp, #20
 694              	.LCFI10:
 695              		.cfi_def_cfa_offset 24
 696 0004 0190     		str	r0, [sp, #4]
 697              		.loc 1 224 0
 698 0006 4FF00003 		mov	r3, #0
 699 000a 0393     		str	r3, [sp, #12]
 700 000c 14E0     		b	.L29
 701              		.cfi_offset 14, -4
 702              	.L32:
 703              		.loc 1 225 0
 704 000e 019B     		ldr	r3, [sp, #4]
 705 0010 DB6A     		ldr	r3, [r3, #44]
 706 0012 1A68     		ldr	r2, [r3, #0]
 707 0014 02AB     		add	r3, sp, #8
 708 0016 1046     		mov	r0, r2
 709 0018 4FF00101 		mov	r1, #1
 710 001c 1A46     		mov	r2, r3
 711 001e FFF7FEFF 		bl	spiReceive
 712              		.loc 1 226 0
 713 0022 9DF80830 		ldrb	r3, [sp, #8]	@ zero_extendqisi2
 714 0026 FF2B     		cmp	r3, #255
 715 0028 02D0     		beq	.L30
 716              		.loc 1 227 0
 717 002a 9DF80830 		ldrb	r3, [sp, #8]	@ zero_extendqisi2
 718 002e 08E0     		b	.L31
 719              	.L30:
 720              		.loc 1 224 0
 721 0030 039B     		ldr	r3, [sp, #12]
 722 0032 03F10103 		add	r3, r3, #1
 723 0036 0393     		str	r3, [sp, #12]
 724              	.L29:
 725              		.loc 1 224 0 is_stmt 0 discriminator 1
 726 0038 039B     		ldr	r3, [sp, #12]
 727 003a 082B     		cmp	r3, #8
 728 003c E7DD     		ble	.L32
 729              		.loc 1 229 0 is_stmt 1
 730 003e 4FF0FF03 		mov	r3, #255
 731              	.L31:
 732              		.loc 1 230 0
 733 0042 1846     		mov	r0, r3
ARM GAS  C:\Users\z80\AppData\Local\Temp\cc9PmWEj.s 			page 14


 734 0044 05B0     		add	sp, sp, #20
 735 0046 00BD     		pop	{pc}
 736              		.cfi_endproc
 737              	.LFE68:
 738              		.size	recvr1, .-recvr1
 739 0048 AFF30080 		.section	.text.recvr3,"ax",%progbits
 739      AFF30080 
 740              		.align	2
 741              		.p2align 4,,15
 742              		.thumb
 743              		.thumb_func
 744              		.type	recvr3, %function
 745              	recvr3:
 746              	.LFB69:
 747              		.loc 1 242 0
 748              		.cfi_startproc
 749              		@ args = 0, pretend = 0, frame = 16
 750              		@ frame_needed = 0, uses_anonymous_args = 0
 751 0000 00B5     		push	{lr}
 752              	.LCFI11:
 753              		.cfi_def_cfa_offset 4
 754 0002 85B0     		sub	sp, sp, #20
 755              	.LCFI12:
 756              		.cfi_def_cfa_offset 24
 757 0004 0190     		str	r0, [sp, #4]
 758 0006 0091     		str	r1, [sp, #0]
 759              		.loc 1 245 0
 760 0008 0198     		ldr	r0, [sp, #4]
 761              		.cfi_offset 14, -4
 762 000a FFF7FEFF 		bl	recvr1
 763 000e 0346     		mov	r3, r0
 764 0010 8DF80F30 		strb	r3, [sp, #15]
 765              		.loc 1 246 0
 766 0014 019B     		ldr	r3, [sp, #4]
 767 0016 DB6A     		ldr	r3, [r3, #44]
 768 0018 1B68     		ldr	r3, [r3, #0]
 769 001a 1846     		mov	r0, r3
 770 001c 4FF00401 		mov	r1, #4
 771 0020 009A     		ldr	r2, [sp, #0]
 772 0022 FFF7FEFF 		bl	spiReceive
 773              		.loc 1 248 0
 774 0026 9DF80F30 		ldrb	r3, [sp, #15]	@ zero_extendqisi2
 775              		.loc 1 249 0
 776 002a 1846     		mov	r0, r3
 777 002c 05B0     		add	sp, sp, #20
 778 002e 00BD     		pop	{pc}
 779              		.cfi_endproc
 780              	.LFE69:
 781              		.size	recvr3, .-recvr3
 782              		.section	.text.send_command_R1,"ax",%progbits
 783              		.align	2
 784              		.p2align 4,,15
 785              		.thumb
 786              		.thumb_func
 787              		.type	send_command_R1, %function
 788              	send_command_R1:
 789              	.LFB70:
ARM GAS  C:\Users\z80\AppData\Local\Temp\cc9PmWEj.s 			page 15


 790              		.loc 1 262 0
 791              		.cfi_startproc
 792              		@ args = 0, pretend = 0, frame = 24
 793              		@ frame_needed = 0, uses_anonymous_args = 0
 794 0000 00B5     		push	{lr}
 795              	.LCFI13:
 796              		.cfi_def_cfa_offset 4
 797 0002 87B0     		sub	sp, sp, #28
 798              	.LCFI14:
 799              		.cfi_def_cfa_offset 32
 800 0004 0390     		str	r0, [sp, #12]
 801 0006 0B46     		mov	r3, r1
 802 0008 0192     		str	r2, [sp, #4]
 803 000a 8DF80B30 		strb	r3, [sp, #11]
 804              		.loc 1 265 0
 805 000e 039B     		ldr	r3, [sp, #12]
 806 0010 DB6A     		ldr	r3, [r3, #44]
 807 0012 1B68     		ldr	r3, [r3, #0]
 808 0014 1846     		mov	r0, r3
 809              		.cfi_offset 14, -4
 810 0016 FFF7FEFF 		bl	spiSelect
 811              		.loc 1 266 0
 812 001a 9DF80B30 		ldrb	r3, [sp, #11]	@ zero_extendqisi2
 813 001e 0398     		ldr	r0, [sp, #12]
 814 0020 1946     		mov	r1, r3
 815 0022 019A     		ldr	r2, [sp, #4]
 816 0024 FFF7FEFF 		bl	send_hdr
 817              		.loc 1 267 0
 818 0028 0398     		ldr	r0, [sp, #12]
 819 002a FFF7FEFF 		bl	recvr1
 820 002e 0346     		mov	r3, r0
 821 0030 8DF81730 		strb	r3, [sp, #23]
 822              		.loc 1 268 0
 823 0034 039B     		ldr	r3, [sp, #12]
 824 0036 DB6A     		ldr	r3, [r3, #44]
 825 0038 1B68     		ldr	r3, [r3, #0]
 826 003a 1846     		mov	r0, r3
 827 003c FFF7FEFF 		bl	spiUnselect
 828              		.loc 1 269 0
 829 0040 9DF81730 		ldrb	r3, [sp, #23]	@ zero_extendqisi2
 830              		.loc 1 270 0
 831 0044 1846     		mov	r0, r3
 832 0046 07B0     		add	sp, sp, #28
 833 0048 00BD     		pop	{pc}
 834              		.cfi_endproc
 835              	.LFE70:
 836              		.size	send_command_R1, .-send_command_R1
 837 004a 00BFAFF3 		.section	.text.send_command_R3,"ax",%progbits
 837      0080
 838              		.align	2
 839              		.p2align 4,,15
 840              		.thumb
 841              		.thumb_func
 842              		.type	send_command_R3, %function
 843              	send_command_R3:
 844              	.LFB71:
 845              		.loc 1 286 0
ARM GAS  C:\Users\z80\AppData\Local\Temp\cc9PmWEj.s 			page 16


 846              		.cfi_startproc
 847              		@ args = 0, pretend = 0, frame = 24
 848              		@ frame_needed = 0, uses_anonymous_args = 0
 849 0000 00B5     		push	{lr}
 850              	.LCFI15:
 851              		.cfi_def_cfa_offset 4
 852 0002 87B0     		sub	sp, sp, #28
 853              	.LCFI16:
 854              		.cfi_def_cfa_offset 32
 855 0004 0390     		str	r0, [sp, #12]
 856 0006 0192     		str	r2, [sp, #4]
 857 0008 0093     		str	r3, [sp, #0]
 858 000a 0B46     		mov	r3, r1
 859 000c 8DF80B30 		strb	r3, [sp, #11]
 860              		.loc 1 289 0
 861 0010 039B     		ldr	r3, [sp, #12]
 862 0012 DB6A     		ldr	r3, [r3, #44]
 863 0014 1B68     		ldr	r3, [r3, #0]
 864 0016 1846     		mov	r0, r3
 865              		.cfi_offset 14, -4
 866 0018 FFF7FEFF 		bl	spiSelect
 867              		.loc 1 290 0
 868 001c 9DF80B30 		ldrb	r3, [sp, #11]	@ zero_extendqisi2
 869 0020 0398     		ldr	r0, [sp, #12]
 870 0022 1946     		mov	r1, r3
 871 0024 019A     		ldr	r2, [sp, #4]
 872 0026 FFF7FEFF 		bl	send_hdr
 873              		.loc 1 291 0
 874 002a 0398     		ldr	r0, [sp, #12]
 875 002c 0099     		ldr	r1, [sp, #0]
 876 002e FFF7FEFF 		bl	recvr3
 877 0032 0346     		mov	r3, r0
 878 0034 8DF81730 		strb	r3, [sp, #23]
 879              		.loc 1 292 0
 880 0038 039B     		ldr	r3, [sp, #12]
 881 003a DB6A     		ldr	r3, [r3, #44]
 882 003c 1B68     		ldr	r3, [r3, #0]
 883 003e 1846     		mov	r0, r3
 884 0040 FFF7FEFF 		bl	spiUnselect
 885              		.loc 1 293 0
 886 0044 9DF81730 		ldrb	r3, [sp, #23]	@ zero_extendqisi2
 887              		.loc 1 294 0
 888 0048 1846     		mov	r0, r3
 889 004a 07B0     		add	sp, sp, #28
 890 004c 00BD     		pop	{pc}
 891              		.cfi_endproc
 892              	.LFE71:
 893              		.size	send_command_R3, .-send_command_R3
 894 004e 00BF     		.section	.text.read_CxD,"ax",%progbits
 895              		.align	2
 896              		.p2align 4,,15
 897              		.thumb
 898              		.thumb_func
 899              		.type	read_CxD, %function
 900              	read_CxD:
 901              	.LFB72:
 902              		.loc 1 308 0
ARM GAS  C:\Users\z80\AppData\Local\Temp\cc9PmWEj.s 			page 17


 903              		.cfi_startproc
 904              		@ args = 0, pretend = 0, frame = 48
 905              		@ frame_needed = 0, uses_anonymous_args = 0
 906 0000 00B5     		push	{lr}
 907              	.LCFI17:
 908              		.cfi_def_cfa_offset 4
 909 0002 8DB0     		sub	sp, sp, #52
 910              	.LCFI18:
 911              		.cfi_def_cfa_offset 56
 912 0004 0390     		str	r0, [sp, #12]
 913 0006 0B46     		mov	r3, r1
 914 0008 0192     		str	r2, [sp, #4]
 915 000a 8DF80B30 		strb	r3, [sp, #11]
 916              		.loc 1 312 0
 917 000e 039B     		ldr	r3, [sp, #12]
 918 0010 DB6A     		ldr	r3, [r3, #44]
 919 0012 1B68     		ldr	r3, [r3, #0]
 920 0014 1846     		mov	r0, r3
 921              		.cfi_offset 14, -4
 922 0016 FFF7FEFF 		bl	spiSelect
 923              		.loc 1 313 0
 924 001a 9DF80B30 		ldrb	r3, [sp, #11]	@ zero_extendqisi2
 925 001e 0398     		ldr	r0, [sp, #12]
 926 0020 1946     		mov	r1, r3
 927 0022 4FF00002 		mov	r2, #0
 928 0026 FFF7FEFF 		bl	send_hdr
 929              		.loc 1 314 0
 930 002a 0398     		ldr	r0, [sp, #12]
 931 002c FFF7FEFF 		bl	recvr1
 932 0030 0346     		mov	r3, r0
 933 0032 002B     		cmp	r3, #0
 934 0034 08D0     		beq	.L37
 935              		.loc 1 315 0
 936 0036 039B     		ldr	r3, [sp, #12]
 937 0038 DB6A     		ldr	r3, [r3, #44]
 938 003a 1B68     		ldr	r3, [r3, #0]
 939 003c 1846     		mov	r0, r3
 940 003e FFF7FEFF 		bl	spiUnselect
 941              		.loc 1 316 0
 942 0042 4FF00103 		mov	r3, #1
 943 0046 66E0     		b	.L38
 944              	.L37:
 945              		.loc 1 320 0
 946 0048 4FF00003 		mov	r3, #0
 947 004c 0B93     		str	r3, [sp, #44]
 948 004e 5BE0     		b	.L39
 949              	.L43:
 950              		.loc 1 321 0
 951 0050 039B     		ldr	r3, [sp, #12]
 952 0052 DB6A     		ldr	r3, [r3, #44]
 953 0054 1A68     		ldr	r2, [r3, #0]
 954 0056 05AB     		add	r3, sp, #20
 955 0058 1046     		mov	r0, r2
 956 005a 4FF00101 		mov	r1, #1
 957 005e 1A46     		mov	r2, r3
 958 0060 FFF7FEFF 		bl	spiReceive
 959              		.loc 1 322 0
ARM GAS  C:\Users\z80\AppData\Local\Temp\cc9PmWEj.s 			page 18


 960 0064 9DF81430 		ldrb	r3, [sp, #20]	@ zero_extendqisi2
 961 0068 FE2B     		cmp	r3, #254
 962 006a 49D1     		bne	.L40
 963              	.LBB2:
 964              		.loc 1 325 0
 965 006c 039B     		ldr	r3, [sp, #12]
 966 006e DB6A     		ldr	r3, [r3, #44]
 967 0070 1A68     		ldr	r2, [r3, #0]
 968 0072 05AB     		add	r3, sp, #20
 969 0074 1046     		mov	r0, r2
 970 0076 4FF01001 		mov	r1, #16
 971 007a 1A46     		mov	r2, r3
 972 007c FFF7FEFF 		bl	spiReceive
 973              		.loc 1 326 0
 974 0080 05AB     		add	r3, sp, #20
 975 0082 0A93     		str	r3, [sp, #40]
 976              		.loc 1 327 0
 977 0084 019B     		ldr	r3, [sp, #4]
 978 0086 03F10C03 		add	r3, r3, #12
 979 008a 0993     		str	r3, [sp, #36]
 980 008c 23E0     		b	.L41
 981              	.L42:
 982              		.loc 1 328 0 discriminator 2
 983 008e 0A9B     		ldr	r3, [sp, #40]
 984 0090 1B78     		ldrb	r3, [r3, #0]	@ zero_extendqisi2
 985 0092 4FEA0362 		lsl	r2, r3, #24
 986 0096 0A9B     		ldr	r3, [sp, #40]
 987 0098 03F10103 		add	r3, r3, #1
 988 009c 1B78     		ldrb	r3, [r3, #0]	@ zero_extendqisi2
 989 009e 4FEA0343 		lsl	r3, r3, #16
 990 00a2 42EA0302 		orr	r2, r2, r3
 991              		.loc 1 329 0 discriminator 2
 992 00a6 0A9B     		ldr	r3, [sp, #40]
 993 00a8 03F10203 		add	r3, r3, #2
 994 00ac 1B78     		ldrb	r3, [r3, #0]	@ zero_extendqisi2
 995 00ae 4FEA0323 		lsl	r3, r3, #8
 996              		.loc 1 328 0 discriminator 2
 997 00b2 42EA0302 		orr	r2, r2, r3
 998              		.loc 1 329 0 discriminator 2
 999 00b6 0A9B     		ldr	r3, [sp, #40]
 1000 00b8 03F10303 		add	r3, r3, #3
 1001 00bc 1B78     		ldrb	r3, [r3, #0]	@ zero_extendqisi2
 1002 00be 42EA0302 		orr	r2, r2, r3
 1003              		.loc 1 328 0 discriminator 2
 1004 00c2 099B     		ldr	r3, [sp, #36]
 1005 00c4 1A60     		str	r2, [r3, #0]
 1006              		.loc 1 330 0 discriminator 2
 1007 00c6 0A9B     		ldr	r3, [sp, #40]
 1008 00c8 03F10403 		add	r3, r3, #4
 1009 00cc 0A93     		str	r3, [sp, #40]
 1010              		.loc 1 327 0 discriminator 2
 1011 00ce 099B     		ldr	r3, [sp, #36]
 1012 00d0 A3F10403 		sub	r3, r3, #4
 1013 00d4 0993     		str	r3, [sp, #36]
 1014              	.L41:
 1015              		.loc 1 327 0 is_stmt 0 discriminator 1
 1016 00d6 099A     		ldr	r2, [sp, #36]
ARM GAS  C:\Users\z80\AppData\Local\Temp\cc9PmWEj.s 			page 19


 1017 00d8 019B     		ldr	r3, [sp, #4]
 1018 00da 9A42     		cmp	r2, r3
 1019 00dc D7D2     		bcs	.L42
 1020              		.loc 1 334 0 is_stmt 1
 1021 00de 039B     		ldr	r3, [sp, #12]
 1022 00e0 DB6A     		ldr	r3, [r3, #44]
 1023 00e2 1B68     		ldr	r3, [r3, #0]
 1024 00e4 1846     		mov	r0, r3
 1025 00e6 4FF00201 		mov	r1, #2
 1026 00ea FFF7FEFF 		bl	spiIgnore
 1027              		.loc 1 335 0
 1028 00ee 039B     		ldr	r3, [sp, #12]
 1029 00f0 DB6A     		ldr	r3, [r3, #44]
 1030 00f2 1B68     		ldr	r3, [r3, #0]
 1031 00f4 1846     		mov	r0, r3
 1032 00f6 FFF7FEFF 		bl	spiUnselect
 1033              		.loc 1 337 0
 1034 00fa 4FF00003 		mov	r3, #0
 1035 00fe 0AE0     		b	.L38
 1036              	.L40:
 1037              	.LBE2:
 1038              		.loc 1 320 0
 1039 0100 0B9B     		ldr	r3, [sp, #44]
 1040 0102 03F10103 		add	r3, r3, #1
 1041 0106 0B93     		str	r3, [sp, #44]
 1042              	.L39:
 1043              		.loc 1 320 0 is_stmt 0 discriminator 1
 1044 0108 0B9A     		ldr	r2, [sp, #44]
 1045 010a 42F20F73 		movw	r3, #9999
 1046 010e 9A42     		cmp	r2, r3
 1047 0110 9ED9     		bls	.L43
 1048              		.loc 1 340 0 is_stmt 1
 1049 0112 4FF00103 		mov	r3, #1
 1050              	.L38:
 1051              		.loc 1 341 0
 1052 0116 1846     		mov	r0, r3
 1053 0118 0DB0     		add	sp, sp, #52
 1054 011a 00BD     		pop	{pc}
 1055              		.cfi_endproc
 1056              	.LFE72:
 1057              		.size	read_CxD, .-read_CxD
 1058 011c AFF30080 		.section	.text.sync,"ax",%progbits
 1059              		.align	2
 1060              		.p2align 4,,15
 1061              		.thumb
 1062              		.thumb_func
 1063              		.type	sync, %function
 1064              	sync:
 1065              	.LFB73:
 1066              		.loc 1 350 0
 1067              		.cfi_startproc
 1068              		@ args = 0, pretend = 0, frame = 16
 1069              		@ frame_needed = 0, uses_anonymous_args = 0
 1070 0000 00B5     		push	{lr}
 1071              	.LCFI19:
 1072              		.cfi_def_cfa_offset 4
 1073 0002 85B0     		sub	sp, sp, #20
ARM GAS  C:\Users\z80\AppData\Local\Temp\cc9PmWEj.s 			page 20


 1074              	.LCFI20:
 1075              		.cfi_def_cfa_offset 24
 1076 0004 0190     		str	r0, [sp, #4]
 1077              		.loc 1 353 0
 1078 0006 019B     		ldr	r3, [sp, #4]
 1079 0008 DB6A     		ldr	r3, [r3, #44]
 1080 000a 1B68     		ldr	r3, [r3, #0]
 1081 000c 1846     		mov	r0, r3
 1082              		.cfi_offset 14, -4
 1083 000e FFF7FEFF 		bl	spiSelect
 1084              	.L46:
 1085              		.loc 1 355 0
 1086 0012 019B     		ldr	r3, [sp, #4]
 1087 0014 DB6A     		ldr	r3, [r3, #44]
 1088 0016 1A68     		ldr	r2, [r3, #0]
 1089 0018 03AB     		add	r3, sp, #12
 1090 001a 1046     		mov	r0, r2
 1091 001c 4FF00101 		mov	r1, #1
 1092 0020 1A46     		mov	r2, r3
 1093 0022 FFF7FEFF 		bl	spiReceive
 1094              		.loc 1 356 0
 1095 0026 9DF80C30 		ldrb	r3, [sp, #12]	@ zero_extendqisi2
 1096 002a FF2B     		cmp	r3, #255
 1097 002c 07D1     		bne	.L45
 1098              		.loc 1 362 0
 1099 002e 019B     		ldr	r3, [sp, #4]
 1100 0030 DB6A     		ldr	r3, [r3, #44]
 1101 0032 1B68     		ldr	r3, [r3, #0]
 1102 0034 1846     		mov	r0, r3
 1103 0036 FFF7FEFF 		bl	spiUnselect
 1104              		.loc 1 363 0
 1105 003a 05B0     		add	sp, sp, #20
 1106 003c 00BD     		pop	{pc}
 1107              	.L45:
 1108              		.loc 1 359 0
 1109 003e 4FF00100 		mov	r0, #1
 1110 0042 FFF7FEFF 		bl	chThdSleep
 1111              		.loc 1 361 0
 1112 0046 E4E7     		b	.L46
 1113              		.cfi_endproc
 1114              	.LFE73:
 1115              		.size	sync, .-sync
 1116 0048 AFF30080 		.section	.text.mmcInit,"ax",%progbits
 1116      AFF30080 
 1117              		.align	2
 1118              		.p2align 4,,15
 1119              		.global	mmcInit
 1120              		.thumb
 1121              		.thumb_func
 1122              		.type	mmcInit, %function
 1123              	mmcInit:
 1124              	.LFB74:
 1125              		.loc 1 376 0
 1126              		.cfi_startproc
 1127              		@ args = 0, pretend = 0, frame = 0
 1128              		@ frame_needed = 0, uses_anonymous_args = 0
 1129              		@ link register save eliminated.
ARM GAS  C:\Users\z80\AppData\Local\Temp\cc9PmWEj.s 			page 21


 1130              		.loc 1 378 0
 1131 0000 7047     		bx	lr
 1132              		.cfi_endproc
 1133              	.LFE74:
 1134              		.size	mmcInit, .-mmcInit
 1135 0002 00BFAFF3 		.section	.text.mmcObjectInit,"ax",%progbits
 1135      0080AFF3 
 1135      0080AFF3 
 1135      0080
 1136              		.align	2
 1137              		.p2align 4,,15
 1138              		.global	mmcObjectInit
 1139              		.thumb
 1140              		.thumb_func
 1141              		.type	mmcObjectInit, %function
 1142              	mmcObjectInit:
 1143              	.LFB75:
 1144              		.loc 1 387 0
 1145              		.cfi_startproc
 1146              		@ args = 0, pretend = 0, frame = 8
 1147              		@ frame_needed = 0, uses_anonymous_args = 0
 1148              		@ link register save eliminated.
 1149 0000 82B0     		sub	sp, sp, #8
 1150              	.LCFI21:
 1151              		.cfi_def_cfa_offset 8
 1152 0002 0190     		str	r0, [sp, #4]
 1153              		.loc 1 389 0
 1154 0004 019A     		ldr	r2, [sp, #4]
 1155 0006 40F20003 		movw	r3, #:lower16:mmc_vmt
 1156 000a C0F20003 		movt	r3, #:upper16:mmc_vmt
 1157 000e 1360     		str	r3, [r2, #0]
 1158              		.loc 1 390 0
 1159 0010 019B     		ldr	r3, [sp, #4]
 1160 0012 4FF00102 		mov	r2, #1
 1161 0016 1A71     		strb	r2, [r3, #4]
 1162              		.loc 1 391 0
 1163 0018 019B     		ldr	r3, [sp, #4]
 1164 001a 4FF00002 		mov	r2, #0
 1165 001e DA62     		str	r2, [r3, #44]
 1166              		.loc 1 392 0
 1167 0020 019B     		ldr	r3, [sp, #4]
 1168 0022 4FF00002 		mov	r2, #0
 1169 0026 83F83020 		strb	r2, [r3, #48]
 1170              		.loc 1 393 0
 1171 002a 02B0     		add	sp, sp, #8
 1172 002c 7047     		bx	lr
 1173              		.cfi_endproc
 1174              	.LFE75:
 1175              		.size	mmcObjectInit, .-mmcObjectInit
 1176 002e 00BF     		.section	.text.mmcStart,"ax",%progbits
 1177              		.align	2
 1178              		.p2align 4,,15
 1179              		.global	mmcStart
 1180              		.thumb
 1181              		.thumb_func
 1182              		.type	mmcStart, %function
 1183              	mmcStart:
ARM GAS  C:\Users\z80\AppData\Local\Temp\cc9PmWEj.s 			page 22


 1184              	.LFB76:
 1185              		.loc 1 403 0
 1186              		.cfi_startproc
 1187              		@ args = 0, pretend = 0, frame = 8
 1188              		@ frame_needed = 0, uses_anonymous_args = 0
 1189              		@ link register save eliminated.
 1190 0000 82B0     		sub	sp, sp, #8
 1191              	.LCFI22:
 1192              		.cfi_def_cfa_offset 8
 1193 0002 0190     		str	r0, [sp, #4]
 1194 0004 0091     		str	r1, [sp, #0]
 1195              		.loc 1 405 0
 1196 0006 019B     		ldr	r3, [sp, #4]
 1197 0008 002B     		cmp	r3, #0
 1198 000a 01D0     		beq	.L51
 1199              		.loc 1 405 0 is_stmt 0 discriminator 1
 1200 000c 009B     		ldr	r3, [sp, #0]
 1201 000e 002B     		cmp	r3, #0
 1202              	.L51:
 1203              		.loc 1 406 0 is_stmt 1
 1204 0010 019B     		ldr	r3, [sp, #4]
 1205 0012 1B79     		ldrb	r3, [r3, #4]	@ zero_extendqisi2
 1206              		.loc 1 403 0
 1207 0014 012B     		cmp	r3, #1
 1208 0016 03D0     		beq	.L54
 1209              		.loc 1 406 0
 1210 0018 019B     		ldr	r3, [sp, #4]
 1211 001a 1B79     		ldrb	r3, [r3, #4]	@ zero_extendqisi2
 1212 001c 022B     		cmp	r3, #2
 1213              		.loc 1 403 0
 1214 001e 00BF     		nop
 1215              	.L54:
 1216              		.loc 1 409 0
 1217 0020 019B     		ldr	r3, [sp, #4]
 1218 0022 009A     		ldr	r2, [sp, #0]
 1219 0024 DA62     		str	r2, [r3, #44]
 1220              		.loc 1 410 0
 1221 0026 019B     		ldr	r3, [sp, #4]
 1222 0028 4FF00202 		mov	r2, #2
 1223 002c 1A71     		strb	r2, [r3, #4]
 1224              		.loc 1 411 0
 1225 002e 02B0     		add	sp, sp, #8
 1226 0030 7047     		bx	lr
 1227              		.cfi_endproc
 1228              	.LFE76:
 1229              		.size	mmcStart, .-mmcStart
 1230 0032 00BFAFF3 		.section	.text.mmcStop,"ax",%progbits
 1230      0080AFF3 
 1230      0080AFF3 
 1230      0080
 1231              		.align	2
 1232              		.p2align 4,,15
 1233              		.global	mmcStop
 1234              		.thumb
 1235              		.thumb_func
 1236              		.type	mmcStop, %function
 1237              	mmcStop:
ARM GAS  C:\Users\z80\AppData\Local\Temp\cc9PmWEj.s 			page 23


 1238              	.LFB77:
 1239              		.loc 1 420 0
 1240              		.cfi_startproc
 1241              		@ args = 0, pretend = 0, frame = 8
 1242              		@ frame_needed = 0, uses_anonymous_args = 0
 1243 0000 00B5     		push	{lr}
 1244              	.LCFI23:
 1245              		.cfi_def_cfa_offset 4
 1246 0002 83B0     		sub	sp, sp, #12
 1247              	.LCFI24:
 1248              		.cfi_def_cfa_offset 16
 1249 0004 0190     		str	r0, [sp, #4]
 1250              		.loc 1 422 0
 1251 0006 019B     		ldr	r3, [sp, #4]
 1252 0008 002B     		cmp	r3, #0
 1253              		.loc 1 423 0
 1254 000a 019B     		ldr	r3, [sp, #4]
 1255 000c 1B79     		ldrb	r3, [r3, #4]	@ zero_extendqisi2
 1256              		.loc 1 420 0
 1257 000e 012B     		cmp	r3, #1
 1258 0010 03D0     		beq	.L59
 1259              		.cfi_offset 14, -4
 1260              		.loc 1 423 0
 1261 0012 019B     		ldr	r3, [sp, #4]
 1262 0014 1B79     		ldrb	r3, [r3, #4]	@ zero_extendqisi2
 1263 0016 022B     		cmp	r3, #2
 1264              		.loc 1 420 0
 1265 0018 00BF     		nop
 1266              	.L59:
 1267              		.loc 1 426 0
 1268 001a 019B     		ldr	r3, [sp, #4]
 1269 001c DB6A     		ldr	r3, [r3, #44]
 1270 001e 1B68     		ldr	r3, [r3, #0]
 1271 0020 1846     		mov	r0, r3
 1272 0022 FFF7FEFF 		bl	spiStop
 1273              		.loc 1 427 0
 1274 0026 019B     		ldr	r3, [sp, #4]
 1275 0028 4FF00102 		mov	r2, #1
 1276 002c 1A71     		strb	r2, [r3, #4]
 1277              		.loc 1 428 0
 1278 002e 03B0     		add	sp, sp, #12
 1279 0030 00BD     		pop	{pc}
 1280              		.cfi_endproc
 1281              	.LFE77:
 1282              		.size	mmcStop, .-mmcStop
 1283 0032 00BFAFF3 		.section	.text.mmcConnect,"ax",%progbits
 1283      0080AFF3 
 1283      0080AFF3 
 1283      0080
 1284              		.align	2
 1285              		.p2align 4,,15
 1286              		.global	mmcConnect
 1287              		.thumb
 1288              		.thumb_func
 1289              		.type	mmcConnect, %function
 1290              	mmcConnect:
 1291              	.LFB78:
ARM GAS  C:\Users\z80\AppData\Local\Temp\cc9PmWEj.s 			page 24


 1292              		.loc 1 447 0
 1293              		.cfi_startproc
 1294              		@ args = 0, pretend = 0, frame = 24
 1295              		@ frame_needed = 0, uses_anonymous_args = 0
 1296 0000 00B5     		push	{lr}
 1297              	.LCFI25:
 1298              		.cfi_def_cfa_offset 4
 1299 0002 87B0     		sub	sp, sp, #28
 1300              	.LCFI26:
 1301              		.cfi_def_cfa_offset 32
 1302 0004 0190     		str	r0, [sp, #4]
 1303              		.loc 1 451 0
 1304 0006 019B     		ldr	r3, [sp, #4]
 1305 0008 002B     		cmp	r3, #0
 1306              		.loc 1 453 0
 1307 000a 019B     		ldr	r3, [sp, #4]
 1308 000c 1B79     		ldrb	r3, [r3, #4]	@ zero_extendqisi2
 1309              		.loc 1 447 0
 1310 000e 022B     		cmp	r3, #2
 1311 0010 03D0     		beq	.L64
 1312              		.cfi_offset 14, -4
 1313              		.loc 1 453 0
 1314 0012 019B     		ldr	r3, [sp, #4]
 1315 0014 1B79     		ldrb	r3, [r3, #4]	@ zero_extendqisi2
 1316 0016 052B     		cmp	r3, #5
 1317              		.loc 1 447 0
 1318 0018 00BF     		nop
 1319              	.L64:
 1320              		.loc 1 457 0
 1321 001a 019B     		ldr	r3, [sp, #4]
 1322 001c 4FF00302 		mov	r2, #3
 1323 0020 1A71     		strb	r2, [r3, #4]
 1324              		.loc 1 460 0
 1325 0022 019B     		ldr	r3, [sp, #4]
 1326 0024 DB6A     		ldr	r3, [r3, #44]
 1327 0026 1A68     		ldr	r2, [r3, #0]
 1328 0028 019B     		ldr	r3, [sp, #4]
 1329 002a DB6A     		ldr	r3, [r3, #44]
 1330 002c 5B68     		ldr	r3, [r3, #4]
 1331 002e 1046     		mov	r0, r2
 1332 0030 1946     		mov	r1, r3
 1333 0032 FFF7FEFF 		bl	spiStart
 1334              		.loc 1 461 0
 1335 0036 019B     		ldr	r3, [sp, #4]
 1336 0038 DB6A     		ldr	r3, [r3, #44]
 1337 003a 1B68     		ldr	r3, [r3, #0]
 1338 003c 1846     		mov	r0, r3
 1339 003e 4FF01001 		mov	r1, #16
 1340 0042 FFF7FEFF 		bl	spiIgnore
 1341              		.loc 1 464 0
 1342 0046 4FF00003 		mov	r3, #0
 1343 004a 0593     		str	r3, [sp, #20]
 1344              	.L70:
 1345              		.loc 1 466 0
 1346 004c 0198     		ldr	r0, [sp, #4]
 1347 004e 4FF00001 		mov	r1, #0
 1348 0052 4FF00002 		mov	r2, #0
ARM GAS  C:\Users\z80\AppData\Local\Temp\cc9PmWEj.s 			page 25


 1349 0056 FFF7FEFF 		bl	send_command_R1
 1350 005a 0346     		mov	r3, r0
 1351 005c 012B     		cmp	r3, #1
 1352 005e 0BD1     		bne	.L65
 1353              		.loc 1 477 0
 1354 0060 03AB     		add	r3, sp, #12
 1355 0062 0198     		ldr	r0, [sp, #4]
 1356 0064 4FF00801 		mov	r1, #8
 1357 0068 4FF4D572 		mov	r2, #426
 1358 006c FFF7FEFF 		bl	send_command_R3
 1359 0070 0346     		mov	r3, r0
 1360 0072 052B     		cmp	r3, #5
 1361 0074 0DD1     		bne	.L66
 1362 0076 46E0     		b	.L67
 1363              	.L65:
 1364              		.loc 1 468 0
 1365 0078 059B     		ldr	r3, [sp, #20]
 1366 007a 03F10103 		add	r3, r3, #1
 1367 007e 0593     		str	r3, [sp, #20]
 1368 0080 059B     		ldr	r3, [sp, #20]
 1369 0082 092B     		cmp	r3, #9
 1370 0084 00F2A180 		bhi	.L86
 1371              	.L68:
 1372              		.loc 1 470 0
 1373 0088 4FF00A00 		mov	r0, #10
 1374 008c FFF7FEFF 		bl	chThdSleep
 1375              		.loc 1 471 0
 1376 0090 DCE7     		b	.L70
 1377              	.L66:
 1378              		.loc 1 481 0
 1379 0092 4FF00003 		mov	r3, #0
 1380 0096 0593     		str	r3, [sp, #20]
 1381              	.L74:
 1382              		.loc 1 483 0
 1383 0098 0198     		ldr	r0, [sp, #4]
 1384 009a 4FF03701 		mov	r1, #55
 1385 009e 4FF00002 		mov	r2, #0
 1386 00a2 FFF7FEFF 		bl	send_command_R1
 1387 00a6 0346     		mov	r3, r0
 1388 00a8 012B     		cmp	r3, #1
 1389 00aa 1BD1     		bne	.L71
 1390              		.loc 1 484 0 discriminator 1
 1391 00ac 03AB     		add	r3, sp, #12
 1392 00ae 0198     		ldr	r0, [sp, #4]
 1393 00b0 4FF02901 		mov	r1, #41
 1394 00b4 4FF4D572 		mov	r2, #426
 1395 00b8 C4F20002 		movt	r2, 16384
 1396 00bc FFF7FEFF 		bl	send_command_R3
 1397 00c0 0346     		mov	r3, r0
 1398              		.loc 1 483 0 discriminator 1
 1399 00c2 002B     		cmp	r3, #0
 1400 00c4 0ED1     		bne	.L71
 1401              		.loc 1 494 0
 1402 00c6 03AB     		add	r3, sp, #12
 1403 00c8 0198     		ldr	r0, [sp, #4]
 1404 00ca 4FF03A01 		mov	r1, #58
 1405 00ce 4FF00002 		mov	r2, #0
ARM GAS  C:\Users\z80\AppData\Local\Temp\cc9PmWEj.s 			page 26


 1406 00d2 FFF7FEFF 		bl	send_command_R3
 1407              		.loc 1 497 0
 1408 00d6 9DF80C30 		ldrb	r3, [sp, #12]	@ zero_extendqisi2
 1409 00da 03F04003 		and	r3, r3, #64
 1410 00de 002B     		cmp	r3, #0
 1411 00e0 0CD1     		bne	.L72
 1412 00e2 10E0     		b	.L67
 1413              	.L71:
 1414              		.loc 1 488 0
 1415 00e4 059B     		ldr	r3, [sp, #20]
 1416 00e6 03F10103 		add	r3, r3, #1
 1417 00ea 0593     		str	r3, [sp, #20]
 1418 00ec 059B     		ldr	r3, [sp, #20]
 1419 00ee 632B     		cmp	r3, #99
 1420 00f0 6DD8     		bhi	.L87
 1421              	.L73:
 1422              		.loc 1 490 0
 1423 00f2 4FF00A00 		mov	r0, #10
 1424 00f6 FFF7FEFF 		bl	chThdSleep
 1425              		.loc 1 491 0
 1426 00fa CDE7     		b	.L74
 1427              	.L72:
 1428              		.loc 1 498 0
 1429 00fc 019B     		ldr	r3, [sp, #4]
 1430 00fe 4FF00102 		mov	r2, #1
 1431 0102 83F83020 		strb	r2, [r3, #48]
 1432              	.L67:
 1433              		.loc 1 502 0
 1434 0106 4FF00003 		mov	r3, #0
 1435 010a 0593     		str	r3, [sp, #20]
 1436              	.L80:
 1437              	.LBB3:
 1438              		.loc 1 504 0
 1439 010c 0198     		ldr	r0, [sp, #4]
 1440 010e 4FF00101 		mov	r1, #1
 1441 0112 4FF00002 		mov	r2, #0
 1442 0116 FFF7FEFF 		bl	send_command_R1
 1443 011a 0346     		mov	r3, r0
 1444 011c 8DF81330 		strb	r3, [sp, #19]
 1445              		.loc 1 505 0
 1446 0120 9DF81330 		ldrb	r3, [sp, #19]	@ zero_extendqisi2
 1447 0124 002B     		cmp	r3, #0
 1448 0126 14D1     		bne	.L75
 1449              	.LBE3:
 1450              		.loc 1 515 0
 1451 0128 019B     		ldr	r3, [sp, #4]
 1452 012a DB6A     		ldr	r3, [r3, #44]
 1453 012c 1A68     		ldr	r2, [r3, #0]
 1454 012e 019B     		ldr	r3, [sp, #4]
 1455 0130 DB6A     		ldr	r3, [r3, #44]
 1456 0132 9B68     		ldr	r3, [r3, #8]
 1457 0134 1046     		mov	r0, r2
 1458 0136 1946     		mov	r1, r3
 1459 0138 FFF7FEFF 		bl	spiStart
 1460              		.loc 1 518 0
 1461 013c 0198     		ldr	r0, [sp, #4]
 1462 013e 4FF01001 		mov	r1, #16
ARM GAS  C:\Users\z80\AppData\Local\Temp\cc9PmWEj.s 			page 27


 1463 0142 4FF40072 		mov	r2, #512
 1464 0146 FFF7FEFF 		bl	send_command_R1
 1465 014a 0346     		mov	r3, r0
 1466 014c 002B     		cmp	r3, #0
 1467 014e 40D1     		bne	.L88
 1468 0150 0FE0     		b	.L85
 1469              	.L75:
 1470              	.LBB4:
 1471              		.loc 1 507 0
 1472 0152 9DF81330 		ldrb	r3, [sp, #19]	@ zero_extendqisi2
 1473 0156 012B     		cmp	r3, #1
 1474 0158 3DD1     		bne	.L89
 1475              	.L78:
 1476              		.loc 1 509 0
 1477 015a 059B     		ldr	r3, [sp, #20]
 1478 015c 03F10103 		add	r3, r3, #1
 1479 0160 0593     		str	r3, [sp, #20]
 1480 0162 059B     		ldr	r3, [sp, #20]
 1481 0164 632B     		cmp	r3, #99
 1482 0166 38D8     		bhi	.L90
 1483              	.L79:
 1484              		.loc 1 511 0
 1485 0168 4FF00A00 		mov	r0, #10
 1486 016c FFF7FEFF 		bl	chThdSleep
 1487              	.LBE4:
 1488              		.loc 1 512 0
 1489 0170 CCE7     		b	.L80
 1490              	.L85:
 1491              		.loc 1 523 0
 1492 0172 019B     		ldr	r3, [sp, #4]
 1493 0174 03F11803 		add	r3, r3, #24
 1494 0178 0198     		ldr	r0, [sp, #4]
 1495 017a 4FF00901 		mov	r1, #9
 1496 017e 1A46     		mov	r2, r3
 1497 0180 FFF7FEFF 		bl	read_CxD
 1498 0184 0346     		mov	r3, r0
 1499 0186 002B     		cmp	r3, #0
 1500 0188 29D1     		bne	.L91
 1501              	.L81:
 1502              		.loc 1 525 0
 1503 018a 019B     		ldr	r3, [sp, #4]
 1504 018c 03F11803 		add	r3, r3, #24
 1505 0190 1846     		mov	r0, r3
 1506 0192 FFF7FEFF 		bl	mmcsdGetCapacity
 1507 0196 0246     		mov	r2, r0
 1508 0198 019B     		ldr	r3, [sp, #4]
 1509 019a 9A62     		str	r2, [r3, #40]
 1510              		.loc 1 526 0
 1511 019c 019B     		ldr	r3, [sp, #4]
 1512 019e 9B6A     		ldr	r3, [r3, #40]
 1513 01a0 002B     		cmp	r3, #0
 1514 01a2 1ED0     		beq	.L92
 1515              	.L82:
 1516              		.loc 1 529 0
 1517 01a4 019B     		ldr	r3, [sp, #4]
 1518 01a6 03F10803 		add	r3, r3, #8
 1519 01aa 0198     		ldr	r0, [sp, #4]
ARM GAS  C:\Users\z80\AppData\Local\Temp\cc9PmWEj.s 			page 28


 1520 01ac 4FF00A01 		mov	r1, #10
 1521 01b0 1A46     		mov	r2, r3
 1522 01b2 FFF7FEFF 		bl	read_CxD
 1523 01b6 0346     		mov	r3, r0
 1524 01b8 002B     		cmp	r3, #0
 1525 01ba 14D1     		bne	.L93
 1526              	.L83:
 1527              		.loc 1 532 0
 1528 01bc 019B     		ldr	r3, [sp, #4]
 1529 01be 4FF00502 		mov	r2, #5
 1530 01c2 1A71     		strb	r2, [r3, #4]
 1531              		.loc 1 533 0
 1532 01c4 4FF00003 		mov	r3, #0
 1533 01c8 1AE0     		b	.L84
 1534              	.L86:
 1535              		.loc 1 469 0
 1536 01ca 00BF     		nop
 1537 01cc 0CE0     		b	.L69
 1538              	.L87:
 1539              		.loc 1 489 0
 1540 01ce 00BF     		nop
 1541 01d0 0AE0     		b	.L69
 1542              	.L88:
 1543              		.loc 1 520 0
 1544 01d2 00BF     		nop
 1545 01d4 08E0     		b	.L69
 1546              	.L89:
 1547              	.LBB5:
 1548              		.loc 1 508 0
 1549 01d6 00BF     		nop
 1550 01d8 06E0     		b	.L69
 1551              	.L90:
 1552              		.loc 1 510 0
 1553 01da 00BF     		nop
 1554 01dc 04E0     		b	.L69
 1555              	.L91:
 1556              	.LBE5:
 1557              		.loc 1 524 0
 1558 01de 00BF     		nop
 1559 01e0 02E0     		b	.L69
 1560              	.L92:
 1561              		.loc 1 527 0
 1562 01e2 00BF     		nop
 1563 01e4 00E0     		b	.L69
 1564              	.L93:
 1565              		.loc 1 530 0
 1566 01e6 00BF     		nop
 1567              	.L69:
 1568              		.loc 1 537 0
 1569 01e8 019B     		ldr	r3, [sp, #4]
 1570 01ea DB6A     		ldr	r3, [r3, #44]
 1571 01ec 1B68     		ldr	r3, [r3, #0]
 1572 01ee 1846     		mov	r0, r3
 1573 01f0 FFF7FEFF 		bl	spiStop
 1574              		.loc 1 538 0
 1575 01f4 019B     		ldr	r3, [sp, #4]
 1576 01f6 4FF00202 		mov	r2, #2
ARM GAS  C:\Users\z80\AppData\Local\Temp\cc9PmWEj.s 			page 29


 1577 01fa 1A71     		strb	r2, [r3, #4]
 1578              		.loc 1 539 0
 1579 01fc 4FF00103 		mov	r3, #1
 1580              	.L84:
 1581              		.loc 1 540 0
 1582 0200 1846     		mov	r0, r3
 1583 0202 07B0     		add	sp, sp, #28
 1584 0204 00BD     		pop	{pc}
 1585              		.cfi_endproc
 1586              	.LFE78:
 1587              		.size	mmcConnect, .-mmcConnect
 1588 0206 00BFAFF3 		.section	.text.mmcDisconnect,"ax",%progbits
 1588      0080AFF3 
 1588      0080
 1589              		.align	2
 1590              		.p2align 4,,15
 1591              		.global	mmcDisconnect
 1592              		.thumb
 1593              		.thumb_func
 1594              		.type	mmcDisconnect, %function
 1595              	mmcDisconnect:
 1596              	.LFB79:
 1597              		.loc 1 554 0
 1598              		.cfi_startproc
 1599              		@ args = 0, pretend = 0, frame = 8
 1600              		@ frame_needed = 0, uses_anonymous_args = 0
 1601 0000 00B5     		push	{lr}
 1602              	.LCFI27:
 1603              		.cfi_def_cfa_offset 4
 1604 0002 83B0     		sub	sp, sp, #12
 1605              	.LCFI28:
 1606              		.cfi_def_cfa_offset 16
 1607 0004 0190     		str	r0, [sp, #4]
 1608              		.loc 1 556 0
 1609 0006 019B     		ldr	r3, [sp, #4]
 1610 0008 002B     		cmp	r3, #0
 1611              	.LBB6:
 1612              		.loc 1 558 0
 1613 000a 4FF02003 		mov	r3, #32
 1614              	@ 558 "../chibios_2.6.3/os/hal/src/mmc_spi.c" 1
 1615 000e 83F31188 		msr     BASEPRI, r3
 1616              	@ 0 "" 2
 1617              		.thumb
 1618              	.LBE6:
 1619              		.loc 1 559 0
 1620 0012 019B     		ldr	r3, [sp, #4]
 1621 0014 1B79     		ldrb	r3, [r3, #4]	@ zero_extendqisi2
 1622              		.loc 1 554 0
 1623 0016 022B     		cmp	r3, #2
 1624 0018 03D0     		beq	.L98
 1625              		.cfi_offset 14, -4
 1626              		.loc 1 559 0
 1627 001a 019B     		ldr	r3, [sp, #4]
 1628 001c 1B79     		ldrb	r3, [r3, #4]	@ zero_extendqisi2
 1629 001e 052B     		cmp	r3, #5
 1630              		.loc 1 554 0
 1631 0020 00BF     		nop
ARM GAS  C:\Users\z80\AppData\Local\Temp\cc9PmWEj.s 			page 30


 1632              	.L98:
 1633              		.loc 1 561 0
 1634 0022 019B     		ldr	r3, [sp, #4]
 1635 0024 1B79     		ldrb	r3, [r3, #4]	@ zero_extendqisi2
 1636 0026 022B     		cmp	r3, #2
 1637 0028 06D1     		bne	.L99
 1638              	.LBB7:
 1639              		.loc 1 562 0
 1640 002a 4FF00003 		mov	r3, #0
 1641              	@ 562 "../chibios_2.6.3/os/hal/src/mmc_spi.c" 1
 1642 002e 83F31188 		msr     BASEPRI, r3
 1643              	@ 0 "" 2
 1644              		.thumb
 1645              	.LBE7:
 1646              		.loc 1 563 0
 1647 0032 4FF00003 		mov	r3, #0
 1648 0036 20E0     		b	.L100
 1649              	.L99:
 1650              		.loc 1 565 0
 1651 0038 019B     		ldr	r3, [sp, #4]
 1652 003a 4FF00402 		mov	r2, #4
 1653 003e 1A71     		strb	r2, [r3, #4]
 1654              	.LBB8:
 1655              		.loc 1 566 0
 1656 0040 4FF00003 		mov	r3, #0
 1657              	@ 566 "../chibios_2.6.3/os/hal/src/mmc_spi.c" 1
 1658 0044 83F31188 		msr     BASEPRI, r3
 1659              	@ 0 "" 2
 1660              		.thumb
 1661              	.LBE8:
 1662              		.loc 1 569 0
 1663 0048 019B     		ldr	r3, [sp, #4]
 1664 004a DB6A     		ldr	r3, [r3, #44]
 1665 004c 1A68     		ldr	r2, [r3, #0]
 1666 004e 019B     		ldr	r3, [sp, #4]
 1667 0050 DB6A     		ldr	r3, [r3, #44]
 1668 0052 9B68     		ldr	r3, [r3, #8]
 1669 0054 1046     		mov	r0, r2
 1670 0056 1946     		mov	r1, r3
 1671 0058 FFF7FEFF 		bl	spiStart
 1672              		.loc 1 570 0
 1673 005c 0198     		ldr	r0, [sp, #4]
 1674 005e FFF7FEFF 		bl	sync
 1675              		.loc 1 572 0
 1676 0062 019B     		ldr	r3, [sp, #4]
 1677 0064 DB6A     		ldr	r3, [r3, #44]
 1678 0066 1B68     		ldr	r3, [r3, #0]
 1679 0068 1846     		mov	r0, r3
 1680 006a FFF7FEFF 		bl	spiStop
 1681              		.loc 1 573 0
 1682 006e 019B     		ldr	r3, [sp, #4]
 1683 0070 4FF00202 		mov	r2, #2
 1684 0074 1A71     		strb	r2, [r3, #4]
 1685              		.loc 1 574 0
 1686 0076 4FF00003 		mov	r3, #0
 1687              	.L100:
 1688              		.loc 1 575 0
ARM GAS  C:\Users\z80\AppData\Local\Temp\cc9PmWEj.s 			page 31


 1689 007a 1846     		mov	r0, r3
 1690 007c 03B0     		add	sp, sp, #12
 1691 007e 00BD     		pop	{pc}
 1692              		.cfi_endproc
 1693              	.LFE79:
 1694              		.size	mmcDisconnect, .-mmcDisconnect
 1695              		.section	.text.mmcStartSequentialRead,"ax",%progbits
 1696              		.align	2
 1697              		.p2align 4,,15
 1698              		.global	mmcStartSequentialRead
 1699              		.thumb
 1700              		.thumb_func
 1701              		.type	mmcStartSequentialRead, %function
 1702              	mmcStartSequentialRead:
 1703              	.LFB80:
 1704              		.loc 1 589 0
 1705              		.cfi_startproc
 1706              		@ args = 0, pretend = 0, frame = 8
 1707              		@ frame_needed = 0, uses_anonymous_args = 0
 1708 0000 00B5     		push	{lr}
 1709              	.LCFI29:
 1710              		.cfi_def_cfa_offset 4
 1711 0002 83B0     		sub	sp, sp, #12
 1712              	.LCFI30:
 1713              		.cfi_def_cfa_offset 16
 1714 0004 0190     		str	r0, [sp, #4]
 1715 0006 0091     		str	r1, [sp, #0]
 1716              		.loc 1 591 0
 1717 0008 019B     		ldr	r3, [sp, #4]
 1718 000a 002B     		cmp	r3, #0
 1719              		.loc 1 592 0
 1720 000c 019B     		ldr	r3, [sp, #4]
 1721 000e 1B79     		ldrb	r3, [r3, #4]	@ zero_extendqisi2
 1722 0010 052B     		cmp	r3, #5
 1723              		.loc 1 596 0
 1724 0012 019B     		ldr	r3, [sp, #4]
 1725 0014 4FF00602 		mov	r2, #6
 1726 0018 1A71     		strb	r2, [r3, #4]
 1727              		.loc 1 600 0
 1728 001a 019B     		ldr	r3, [sp, #4]
 1729 001c DB6A     		ldr	r3, [r3, #44]
 1730 001e 1A68     		ldr	r2, [r3, #0]
 1731 0020 019B     		ldr	r3, [sp, #4]
 1732 0022 DB6A     		ldr	r3, [r3, #44]
 1733 0024 9B68     		ldr	r3, [r3, #8]
 1734 0026 1046     		mov	r0, r2
 1735 0028 1946     		mov	r1, r3
 1736              		.cfi_offset 14, -4
 1737 002a FFF7FEFF 		bl	spiStart
 1738              		.loc 1 601 0
 1739 002e 019B     		ldr	r3, [sp, #4]
 1740 0030 DB6A     		ldr	r3, [r3, #44]
 1741 0032 1B68     		ldr	r3, [r3, #0]
 1742 0034 1846     		mov	r0, r3
 1743 0036 FFF7FEFF 		bl	spiSelect
 1744              		.loc 1 603 0
 1745 003a 019B     		ldr	r3, [sp, #4]
ARM GAS  C:\Users\z80\AppData\Local\Temp\cc9PmWEj.s 			page 32


 1746 003c 93F83030 		ldrb	r3, [r3, #48]	@ zero_extendqisi2
 1747 0040 002B     		cmp	r3, #0
 1748 0042 06D0     		beq	.L104
 1749              		.loc 1 604 0
 1750 0044 0198     		ldr	r0, [sp, #4]
 1751 0046 4FF01201 		mov	r1, #18
 1752 004a 009A     		ldr	r2, [sp, #0]
 1753 004c FFF7FEFF 		bl	send_hdr
 1754 0050 08E0     		b	.L105
 1755              	.L104:
 1756              		.loc 1 606 0
 1757 0052 009B     		ldr	r3, [sp, #0]
 1758 0054 4FEA4323 		lsl	r3, r3, #9
 1759 0058 0198     		ldr	r0, [sp, #4]
 1760 005a 4FF01201 		mov	r1, #18
 1761 005e 1A46     		mov	r2, r3
 1762 0060 FFF7FEFF 		bl	send_hdr
 1763              	.L105:
 1764              		.loc 1 608 0
 1765 0064 0198     		ldr	r0, [sp, #4]
 1766 0066 FFF7FEFF 		bl	recvr1
 1767 006a 0346     		mov	r3, r0
 1768 006c 002B     		cmp	r3, #0
 1769 006e 0CD0     		beq	.L106
 1770              		.loc 1 609 0
 1771 0070 019B     		ldr	r3, [sp, #4]
 1772 0072 DB6A     		ldr	r3, [r3, #44]
 1773 0074 1B68     		ldr	r3, [r3, #0]
 1774 0076 1846     		mov	r0, r3
 1775 0078 FFF7FEFF 		bl	spiStop
 1776              		.loc 1 610 0
 1777 007c 019B     		ldr	r3, [sp, #4]
 1778 007e 4FF00502 		mov	r2, #5
 1779 0082 1A71     		strb	r2, [r3, #4]
 1780              		.loc 1 611 0
 1781 0084 4FF00103 		mov	r3, #1
 1782 0088 01E0     		b	.L107
 1783              	.L106:
 1784              		.loc 1 613 0
 1785 008a 4FF00003 		mov	r3, #0
 1786              	.L107:
 1787              		.loc 1 614 0
 1788 008e 1846     		mov	r0, r3
 1789 0090 03B0     		add	sp, sp, #12
 1790 0092 00BD     		pop	{pc}
 1791              		.cfi_endproc
 1792              	.LFE80:
 1793              		.size	mmcStartSequentialRead, .-mmcStartSequentialRead
 1794 0094 AFF30080 		.section	.text.mmcSequentialRead,"ax",%progbits
 1794      AFF30080 
 1794      AFF30080 
 1795              		.align	2
 1796              		.p2align 4,,15
 1797              		.global	mmcSequentialRead
 1798              		.thumb
 1799              		.thumb_func
 1800              		.type	mmcSequentialRead, %function
ARM GAS  C:\Users\z80\AppData\Local\Temp\cc9PmWEj.s 			page 33


 1801              	mmcSequentialRead:
 1802              	.LFB81:
 1803              		.loc 1 628 0
 1804              		.cfi_startproc
 1805              		@ args = 0, pretend = 0, frame = 16
 1806              		@ frame_needed = 0, uses_anonymous_args = 0
 1807 0000 00B5     		push	{lr}
 1808              	.LCFI31:
 1809              		.cfi_def_cfa_offset 4
 1810 0002 85B0     		sub	sp, sp, #20
 1811              	.LCFI32:
 1812              		.cfi_def_cfa_offset 24
 1813 0004 0190     		str	r0, [sp, #4]
 1814 0006 0091     		str	r1, [sp, #0]
 1815              		.loc 1 631 0
 1816 0008 019B     		ldr	r3, [sp, #4]
 1817 000a 002B     		cmp	r3, #0
 1818 000c 01D0     		beq	.L110
 1819              		.cfi_offset 14, -4
 1820              		.loc 1 631 0 is_stmt 0 discriminator 1
 1821 000e 009B     		ldr	r3, [sp, #0]
 1822 0010 002B     		cmp	r3, #0
 1823              	.L110:
 1824              		.loc 1 633 0 is_stmt 1
 1825 0012 019B     		ldr	r3, [sp, #4]
 1826 0014 1B79     		ldrb	r3, [r3, #4]	@ zero_extendqisi2
 1827 0016 062B     		cmp	r3, #6
 1828 0018 02D0     		beq	.L111
 1829              		.loc 1 634 0
 1830 001a 4FF00103 		mov	r3, #1
 1831 001e 3FE0     		b	.L112
 1832              	.L111:
 1833              		.loc 1 636 0
 1834 0020 4FF00003 		mov	r3, #0
 1835 0024 0393     		str	r3, [sp, #12]
 1836 0026 24E0     		b	.L113
 1837              	.L115:
 1838              		.loc 1 637 0
 1839 0028 019B     		ldr	r3, [sp, #4]
 1840 002a DB6A     		ldr	r3, [r3, #44]
 1841 002c 1B68     		ldr	r3, [r3, #0]
 1842 002e 1846     		mov	r0, r3
 1843 0030 4FF00101 		mov	r1, #1
 1844 0034 009A     		ldr	r2, [sp, #0]
 1845 0036 FFF7FEFF 		bl	spiReceive
 1846              		.loc 1 638 0
 1847 003a 009B     		ldr	r3, [sp, #0]
 1848 003c 1B78     		ldrb	r3, [r3, #0]	@ zero_extendqisi2
 1849 003e FE2B     		cmp	r3, #254
 1850 0040 13D1     		bne	.L114
 1851              		.loc 1 639 0
 1852 0042 019B     		ldr	r3, [sp, #4]
 1853 0044 DB6A     		ldr	r3, [r3, #44]
 1854 0046 1B68     		ldr	r3, [r3, #0]
 1855 0048 1846     		mov	r0, r3
 1856 004a 4FF40071 		mov	r1, #512
 1857 004e 009A     		ldr	r2, [sp, #0]
ARM GAS  C:\Users\z80\AppData\Local\Temp\cc9PmWEj.s 			page 34


 1858 0050 FFF7FEFF 		bl	spiReceive
 1859              		.loc 1 641 0
 1860 0054 019B     		ldr	r3, [sp, #4]
 1861 0056 DB6A     		ldr	r3, [r3, #44]
 1862 0058 1B68     		ldr	r3, [r3, #0]
 1863 005a 1846     		mov	r0, r3
 1864 005c 4FF00201 		mov	r1, #2
 1865 0060 FFF7FEFF 		bl	spiIgnore
 1866              		.loc 1 642 0
 1867 0064 4FF00003 		mov	r3, #0
 1868 0068 1AE0     		b	.L112
 1869              	.L114:
 1870              		.loc 1 636 0
 1871 006a 039B     		ldr	r3, [sp, #12]
 1872 006c 03F10103 		add	r3, r3, #1
 1873 0070 0393     		str	r3, [sp, #12]
 1874              	.L113:
 1875              		.loc 1 636 0 is_stmt 0 discriminator 1
 1876 0072 039A     		ldr	r2, [sp, #12]
 1877 0074 42F20F73 		movw	r3, #9999
 1878 0078 9A42     		cmp	r2, r3
 1879 007a D5DD     		ble	.L115
 1880              		.loc 1 646 0 is_stmt 1
 1881 007c 019B     		ldr	r3, [sp, #4]
 1882 007e DB6A     		ldr	r3, [r3, #44]
 1883 0080 1B68     		ldr	r3, [r3, #0]
 1884 0082 1846     		mov	r0, r3
 1885 0084 FFF7FEFF 		bl	spiUnselect
 1886              		.loc 1 647 0
 1887 0088 019B     		ldr	r3, [sp, #4]
 1888 008a DB6A     		ldr	r3, [r3, #44]
 1889 008c 1B68     		ldr	r3, [r3, #0]
 1890 008e 1846     		mov	r0, r3
 1891 0090 FFF7FEFF 		bl	spiStop
 1892              		.loc 1 648 0
 1893 0094 019B     		ldr	r3, [sp, #4]
 1894 0096 4FF00502 		mov	r2, #5
 1895 009a 1A71     		strb	r2, [r3, #4]
 1896              		.loc 1 649 0
 1897 009c 4FF00103 		mov	r3, #1
 1898              	.L112:
 1899              		.loc 1 650 0
 1900 00a0 1846     		mov	r0, r3
 1901 00a2 05B0     		add	sp, sp, #20
 1902 00a4 00BD     		pop	{pc}
 1903              		.cfi_endproc
 1904              	.LFE81:
 1905              		.size	mmcSequentialRead, .-mmcSequentialRead
 1906 00a6 00BFAFF3 		.section	.text.mmcStopSequentialRead,"ax",%progbits
 1906      0080AFF3 
 1906      0080
 1907              		.align	2
 1908              		.p2align 4,,15
 1909              		.global	mmcStopSequentialRead
 1910              		.thumb
 1911              		.thumb_func
 1912              		.type	mmcStopSequentialRead, %function
ARM GAS  C:\Users\z80\AppData\Local\Temp\cc9PmWEj.s 			page 35


 1913              	mmcStopSequentialRead:
 1914              	.LFB82:
 1915              		.loc 1 663 0
 1916              		.cfi_startproc
 1917              		@ args = 0, pretend = 0, frame = 8
 1918              		@ frame_needed = 0, uses_anonymous_args = 0
 1919 0000 00B5     		push	{lr}
 1920              	.LCFI33:
 1921              		.cfi_def_cfa_offset 4
 1922 0002 83B0     		sub	sp, sp, #12
 1923              	.LCFI34:
 1924              		.cfi_def_cfa_offset 16
 1925 0004 0190     		str	r0, [sp, #4]
 1926              		.loc 1 667 0
 1927 0006 019B     		ldr	r3, [sp, #4]
 1928 0008 002B     		cmp	r3, #0
 1929              		.loc 1 669 0
 1930 000a 019B     		ldr	r3, [sp, #4]
 1931 000c 1B79     		ldrb	r3, [r3, #4]	@ zero_extendqisi2
 1932 000e 062B     		cmp	r3, #6
 1933 0010 02D0     		beq	.L118
 1934              		.cfi_offset 14, -4
 1935              		.loc 1 670 0
 1936 0012 4FF00103 		mov	r3, #1
 1937 0016 1AE0     		b	.L119
 1938              	.L118:
 1939              		.loc 1 672 0
 1940 0018 019B     		ldr	r3, [sp, #4]
 1941 001a DB6A     		ldr	r3, [r3, #44]
 1942 001c 1B68     		ldr	r3, [r3, #0]
 1943 001e 1846     		mov	r0, r3
 1944 0020 4FF00701 		mov	r1, #7
 1945 0024 40F20002 		movw	r2, #:lower16:stopcmd.4180
 1946 0028 C0F20002 		movt	r2, #:upper16:stopcmd.4180
 1947 002c FFF7FEFF 		bl	spiSend
 1948              		.loc 1 675 0
 1949 0030 0198     		ldr	r0, [sp, #4]
 1950 0032 FFF7FEFF 		bl	recvr1
 1951              		.loc 1 678 0
 1952 0036 019B     		ldr	r3, [sp, #4]
 1953 0038 DB6A     		ldr	r3, [r3, #44]
 1954 003a 1B68     		ldr	r3, [r3, #0]
 1955 003c 1846     		mov	r0, r3
 1956 003e FFF7FEFF 		bl	spiUnselect
 1957              		.loc 1 679 0
 1958 0042 019B     		ldr	r3, [sp, #4]
 1959 0044 4FF00502 		mov	r2, #5
 1960 0048 1A71     		strb	r2, [r3, #4]
 1961              		.loc 1 680 0
 1962 004a 4FF00003 		mov	r3, #0
 1963              	.L119:
 1964              		.loc 1 681 0
 1965 004e 1846     		mov	r0, r3
 1966 0050 03B0     		add	sp, sp, #12
 1967 0052 00BD     		pop	{pc}
 1968              		.cfi_endproc
 1969              	.LFE82:
ARM GAS  C:\Users\z80\AppData\Local\Temp\cc9PmWEj.s 			page 36


 1970              		.size	mmcStopSequentialRead, .-mmcStopSequentialRead
 1971 0054 AFF30080 		.section	.text.mmcStartSequentialWrite,"ax",%progbits
 1971      AFF30080 
 1971      AFF30080 
 1972              		.align	2
 1973              		.p2align 4,,15
 1974              		.global	mmcStartSequentialWrite
 1975              		.thumb
 1976              		.thumb_func
 1977              		.type	mmcStartSequentialWrite, %function
 1978              	mmcStartSequentialWrite:
 1979              	.LFB83:
 1980              		.loc 1 695 0
 1981              		.cfi_startproc
 1982              		@ args = 0, pretend = 0, frame = 8
 1983              		@ frame_needed = 0, uses_anonymous_args = 0
 1984 0000 00B5     		push	{lr}
 1985              	.LCFI35:
 1986              		.cfi_def_cfa_offset 4
 1987 0002 83B0     		sub	sp, sp, #12
 1988              	.LCFI36:
 1989              		.cfi_def_cfa_offset 16
 1990 0004 0190     		str	r0, [sp, #4]
 1991 0006 0091     		str	r1, [sp, #0]
 1992              		.loc 1 697 0
 1993 0008 019B     		ldr	r3, [sp, #4]
 1994 000a 002B     		cmp	r3, #0
 1995              		.loc 1 698 0
 1996 000c 019B     		ldr	r3, [sp, #4]
 1997 000e 1B79     		ldrb	r3, [r3, #4]	@ zero_extendqisi2
 1998 0010 052B     		cmp	r3, #5
 1999              		.loc 1 702 0
 2000 0012 019B     		ldr	r3, [sp, #4]
 2001 0014 4FF00702 		mov	r2, #7
 2002 0018 1A71     		strb	r2, [r3, #4]
 2003              		.loc 1 704 0
 2004 001a 019B     		ldr	r3, [sp, #4]
 2005 001c DB6A     		ldr	r3, [r3, #44]
 2006 001e 1A68     		ldr	r2, [r3, #0]
 2007 0020 019B     		ldr	r3, [sp, #4]
 2008 0022 DB6A     		ldr	r3, [r3, #44]
 2009 0024 9B68     		ldr	r3, [r3, #8]
 2010 0026 1046     		mov	r0, r2
 2011 0028 1946     		mov	r1, r3
 2012              		.cfi_offset 14, -4
 2013 002a FFF7FEFF 		bl	spiStart
 2014              		.loc 1 705 0
 2015 002e 019B     		ldr	r3, [sp, #4]
 2016 0030 DB6A     		ldr	r3, [r3, #44]
 2017 0032 1B68     		ldr	r3, [r3, #0]
 2018 0034 1846     		mov	r0, r3
 2019 0036 FFF7FEFF 		bl	spiSelect
 2020              		.loc 1 706 0
 2021 003a 019B     		ldr	r3, [sp, #4]
 2022 003c 93F83030 		ldrb	r3, [r3, #48]	@ zero_extendqisi2
 2023 0040 002B     		cmp	r3, #0
 2024 0042 06D0     		beq	.L123
ARM GAS  C:\Users\z80\AppData\Local\Temp\cc9PmWEj.s 			page 37


 2025              		.loc 1 707 0
 2026 0044 0198     		ldr	r0, [sp, #4]
 2027 0046 4FF01901 		mov	r1, #25
 2028 004a 009A     		ldr	r2, [sp, #0]
 2029 004c FFF7FEFF 		bl	send_hdr
 2030 0050 08E0     		b	.L124
 2031              	.L123:
 2032              		.loc 1 709 0
 2033 0052 009B     		ldr	r3, [sp, #0]
 2034 0054 4FEA4323 		lsl	r3, r3, #9
 2035 0058 0198     		ldr	r0, [sp, #4]
 2036 005a 4FF01901 		mov	r1, #25
 2037 005e 1A46     		mov	r2, r3
 2038 0060 FFF7FEFF 		bl	send_hdr
 2039              	.L124:
 2040              		.loc 1 712 0
 2041 0064 0198     		ldr	r0, [sp, #4]
 2042 0066 FFF7FEFF 		bl	recvr1
 2043 006a 0346     		mov	r3, r0
 2044 006c 002B     		cmp	r3, #0
 2045 006e 0CD0     		beq	.L125
 2046              		.loc 1 713 0
 2047 0070 019B     		ldr	r3, [sp, #4]
 2048 0072 DB6A     		ldr	r3, [r3, #44]
 2049 0074 1B68     		ldr	r3, [r3, #0]
 2050 0076 1846     		mov	r0, r3
 2051 0078 FFF7FEFF 		bl	spiStop
 2052              		.loc 1 714 0
 2053 007c 019B     		ldr	r3, [sp, #4]
 2054 007e 4FF00502 		mov	r2, #5
 2055 0082 1A71     		strb	r2, [r3, #4]
 2056              		.loc 1 715 0
 2057 0084 4FF00103 		mov	r3, #1
 2058 0088 01E0     		b	.L126
 2059              	.L125:
 2060              		.loc 1 717 0
 2061 008a 4FF00003 		mov	r3, #0
 2062              	.L126:
 2063              		.loc 1 718 0
 2064 008e 1846     		mov	r0, r3
 2065 0090 03B0     		add	sp, sp, #12
 2066 0092 00BD     		pop	{pc}
 2067              		.cfi_endproc
 2068              	.LFE83:
 2069              		.size	mmcStartSequentialWrite, .-mmcStartSequentialWrite
 2070 0094 AFF30080 		.section	.text.mmcSequentialWrite,"ax",%progbits
 2070      AFF30080 
 2070      AFF30080 
 2071              		.align	2
 2072              		.p2align 4,,15
 2073              		.global	mmcSequentialWrite
 2074              		.thumb
 2075              		.thumb_func
 2076              		.type	mmcSequentialWrite, %function
 2077              	mmcSequentialWrite:
 2078              	.LFB84:
 2079              		.loc 1 732 0
ARM GAS  C:\Users\z80\AppData\Local\Temp\cc9PmWEj.s 			page 38


 2080              		.cfi_startproc
 2081              		@ args = 0, pretend = 0, frame = 16
 2082              		@ frame_needed = 0, uses_anonymous_args = 0
 2083 0000 00B5     		push	{lr}
 2084              	.LCFI37:
 2085              		.cfi_def_cfa_offset 4
 2086 0002 85B0     		sub	sp, sp, #20
 2087              	.LCFI38:
 2088              		.cfi_def_cfa_offset 24
 2089 0004 0190     		str	r0, [sp, #4]
 2090 0006 0091     		str	r1, [sp, #0]
 2091              		.loc 1 736 0
 2092 0008 019B     		ldr	r3, [sp, #4]
 2093 000a 002B     		cmp	r3, #0
 2094 000c 01D0     		beq	.L129
 2095              		.cfi_offset 14, -4
 2096              		.loc 1 736 0 is_stmt 0 discriminator 1
 2097 000e 009B     		ldr	r3, [sp, #0]
 2098 0010 002B     		cmp	r3, #0
 2099              	.L129:
 2100              		.loc 1 738 0 is_stmt 1
 2101 0012 019B     		ldr	r3, [sp, #4]
 2102 0014 1B79     		ldrb	r3, [r3, #4]	@ zero_extendqisi2
 2103 0016 072B     		cmp	r3, #7
 2104 0018 02D0     		beq	.L130
 2105              		.loc 1 739 0
 2106 001a 4FF00103 		mov	r3, #1
 2107 001e 44E0     		b	.L131
 2108              	.L130:
 2109              		.loc 1 741 0
 2110 0020 019B     		ldr	r3, [sp, #4]
 2111 0022 DB6A     		ldr	r3, [r3, #44]
 2112 0024 1B68     		ldr	r3, [r3, #0]
 2113 0026 1846     		mov	r0, r3
 2114 0028 4FF00201 		mov	r1, #2
 2115 002c 40F20002 		movw	r2, #:lower16:start.4189
 2116 0030 C0F20002 		movt	r2, #:upper16:start.4189
 2117 0034 FFF7FEFF 		bl	spiSend
 2118              		.loc 1 742 0
 2119 0038 019B     		ldr	r3, [sp, #4]
 2120 003a DB6A     		ldr	r3, [r3, #44]
 2121 003c 1B68     		ldr	r3, [r3, #0]
 2122 003e 1846     		mov	r0, r3
 2123 0040 4FF40071 		mov	r1, #512
 2124 0044 009A     		ldr	r2, [sp, #0]
 2125 0046 FFF7FEFF 		bl	spiSend
 2126              		.loc 1 743 0
 2127 004a 019B     		ldr	r3, [sp, #4]
 2128 004c DB6A     		ldr	r3, [r3, #44]
 2129 004e 1B68     		ldr	r3, [r3, #0]
 2130 0050 1846     		mov	r0, r3
 2131 0052 4FF00201 		mov	r1, #2
 2132 0056 FFF7FEFF 		bl	spiIgnore
 2133              		.loc 1 744 0
 2134 005a 019B     		ldr	r3, [sp, #4]
 2135 005c DB6A     		ldr	r3, [r3, #44]
 2136 005e 1A68     		ldr	r2, [r3, #0]
ARM GAS  C:\Users\z80\AppData\Local\Temp\cc9PmWEj.s 			page 39


 2137 0060 03AB     		add	r3, sp, #12
 2138 0062 1046     		mov	r0, r2
 2139 0064 4FF00101 		mov	r1, #1
 2140 0068 1A46     		mov	r2, r3
 2141 006a FFF7FEFF 		bl	spiReceive
 2142              		.loc 1 745 0
 2143 006e 9DF80C30 		ldrb	r3, [sp, #12]	@ zero_extendqisi2
 2144 0072 03F01F03 		and	r3, r3, #31
 2145 0076 052B     		cmp	r3, #5
 2146 0078 05D1     		bne	.L132
 2147              		.loc 1 746 0
 2148 007a 0198     		ldr	r0, [sp, #4]
 2149 007c FFF7FEFF 		bl	wait
 2150              		.loc 1 747 0
 2151 0080 4FF00003 		mov	r3, #0
 2152 0084 11E0     		b	.L131
 2153              	.L132:
 2154              		.loc 1 751 0
 2155 0086 019B     		ldr	r3, [sp, #4]
 2156 0088 DB6A     		ldr	r3, [r3, #44]
 2157 008a 1B68     		ldr	r3, [r3, #0]
 2158 008c 1846     		mov	r0, r3
 2159 008e FFF7FEFF 		bl	spiUnselect
 2160              		.loc 1 752 0
 2161 0092 019B     		ldr	r3, [sp, #4]
 2162 0094 DB6A     		ldr	r3, [r3, #44]
 2163 0096 1B68     		ldr	r3, [r3, #0]
 2164 0098 1846     		mov	r0, r3
 2165 009a FFF7FEFF 		bl	spiStop
 2166              		.loc 1 753 0
 2167 009e 019B     		ldr	r3, [sp, #4]
 2168 00a0 4FF00502 		mov	r2, #5
 2169 00a4 1A71     		strb	r2, [r3, #4]
 2170              		.loc 1 754 0
 2171 00a6 4FF00103 		mov	r3, #1
 2172              	.L131:
 2173              		.loc 1 755 0
 2174 00aa 1846     		mov	r0, r3
 2175 00ac 05B0     		add	sp, sp, #20
 2176 00ae 00BD     		pop	{pc}
 2177              		.cfi_endproc
 2178              	.LFE84:
 2179              		.size	mmcSequentialWrite, .-mmcSequentialWrite
 2180              		.section	.text.mmcStopSequentialWrite,"ax",%progbits
 2181              		.align	2
 2182              		.p2align 4,,15
 2183              		.global	mmcStopSequentialWrite
 2184              		.thumb
 2185              		.thumb_func
 2186              		.type	mmcStopSequentialWrite, %function
 2187              	mmcStopSequentialWrite:
 2188              	.LFB85:
 2189              		.loc 1 768 0
 2190              		.cfi_startproc
 2191              		@ args = 0, pretend = 0, frame = 8
 2192              		@ frame_needed = 0, uses_anonymous_args = 0
 2193 0000 00B5     		push	{lr}
ARM GAS  C:\Users\z80\AppData\Local\Temp\cc9PmWEj.s 			page 40


 2194              	.LCFI39:
 2195              		.cfi_def_cfa_offset 4
 2196 0002 83B0     		sub	sp, sp, #12
 2197              	.LCFI40:
 2198              		.cfi_def_cfa_offset 16
 2199 0004 0190     		str	r0, [sp, #4]
 2200              		.loc 1 771 0
 2201 0006 019B     		ldr	r3, [sp, #4]
 2202 0008 002B     		cmp	r3, #0
 2203              		.loc 1 773 0
 2204 000a 019B     		ldr	r3, [sp, #4]
 2205 000c 1B79     		ldrb	r3, [r3, #4]	@ zero_extendqisi2
 2206 000e 072B     		cmp	r3, #7
 2207 0010 02D0     		beq	.L135
 2208              		.cfi_offset 14, -4
 2209              		.loc 1 774 0
 2210 0012 4FF00103 		mov	r3, #1
 2211 0016 17E0     		b	.L136
 2212              	.L135:
 2213              		.loc 1 776 0
 2214 0018 019B     		ldr	r3, [sp, #4]
 2215 001a DB6A     		ldr	r3, [r3, #44]
 2216 001c 1B68     		ldr	r3, [r3, #0]
 2217 001e 1846     		mov	r0, r3
 2218 0020 4FF00201 		mov	r1, #2
 2219 0024 40F20002 		movw	r2, #:lower16:stop.4194
 2220 0028 C0F20002 		movt	r2, #:upper16:stop.4194
 2221 002c FFF7FEFF 		bl	spiSend
 2222              		.loc 1 777 0
 2223 0030 019B     		ldr	r3, [sp, #4]
 2224 0032 DB6A     		ldr	r3, [r3, #44]
 2225 0034 1B68     		ldr	r3, [r3, #0]
 2226 0036 1846     		mov	r0, r3
 2227 0038 FFF7FEFF 		bl	spiUnselect
 2228              		.loc 1 780 0
 2229 003c 019B     		ldr	r3, [sp, #4]
 2230 003e 4FF00502 		mov	r2, #5
 2231 0042 1A71     		strb	r2, [r3, #4]
 2232              		.loc 1 781 0
 2233 0044 4FF00003 		mov	r3, #0
 2234              	.L136:
 2235              		.loc 1 782 0
 2236 0048 1846     		mov	r0, r3
 2237 004a 03B0     		add	sp, sp, #12
 2238 004c 00BD     		pop	{pc}
 2239              		.cfi_endproc
 2240              	.LFE85:
 2241              		.size	mmcStopSequentialWrite, .-mmcStopSequentialWrite
 2242 004e 00BF     		.section	.text.mmcSync,"ax",%progbits
 2243              		.align	2
 2244              		.p2align 4,,15
 2245              		.global	mmcSync
 2246              		.thumb
 2247              		.thumb_func
 2248              		.type	mmcSync, %function
 2249              	mmcSync:
 2250              	.LFB86:
ARM GAS  C:\Users\z80\AppData\Local\Temp\cc9PmWEj.s 			page 41


 2251              		.loc 1 795 0
 2252              		.cfi_startproc
 2253              		@ args = 0, pretend = 0, frame = 8
 2254              		@ frame_needed = 0, uses_anonymous_args = 0
 2255 0000 00B5     		push	{lr}
 2256              	.LCFI41:
 2257              		.cfi_def_cfa_offset 4
 2258 0002 83B0     		sub	sp, sp, #12
 2259              	.LCFI42:
 2260              		.cfi_def_cfa_offset 16
 2261 0004 0190     		str	r0, [sp, #4]
 2262              		.loc 1 797 0
 2263 0006 019B     		ldr	r3, [sp, #4]
 2264 0008 002B     		cmp	r3, #0
 2265              		.loc 1 799 0
 2266 000a 019B     		ldr	r3, [sp, #4]
 2267 000c 1B79     		ldrb	r3, [r3, #4]	@ zero_extendqisi2
 2268 000e 052B     		cmp	r3, #5
 2269 0010 02D0     		beq	.L139
 2270              		.cfi_offset 14, -4
 2271              		.loc 1 800 0
 2272 0012 4FF00103 		mov	r3, #1
 2273 0016 16E0     		b	.L140
 2274              	.L139:
 2275              		.loc 1 803 0
 2276 0018 019B     		ldr	r3, [sp, #4]
 2277 001a 4FF00802 		mov	r2, #8
 2278 001e 1A71     		strb	r2, [r3, #4]
 2279              		.loc 1 805 0
 2280 0020 019B     		ldr	r3, [sp, #4]
 2281 0022 DB6A     		ldr	r3, [r3, #44]
 2282 0024 1A68     		ldr	r2, [r3, #0]
 2283 0026 019B     		ldr	r3, [sp, #4]
 2284 0028 DB6A     		ldr	r3, [r3, #44]
 2285 002a 9B68     		ldr	r3, [r3, #8]
 2286 002c 1046     		mov	r0, r2
 2287 002e 1946     		mov	r1, r3
 2288 0030 FFF7FEFF 		bl	spiStart
 2289              		.loc 1 806 0
 2290 0034 0198     		ldr	r0, [sp, #4]
 2291 0036 FFF7FEFF 		bl	sync
 2292              		.loc 1 809 0
 2293 003a 019B     		ldr	r3, [sp, #4]
 2294 003c 4FF00502 		mov	r2, #5
 2295 0040 1A71     		strb	r2, [r3, #4]
 2296              		.loc 1 810 0
 2297 0042 4FF00003 		mov	r3, #0
 2298              	.L140:
 2299              		.loc 1 811 0
 2300 0046 1846     		mov	r0, r3
 2301 0048 03B0     		add	sp, sp, #12
 2302 004a 00BD     		pop	{pc}
 2303              		.cfi_endproc
 2304              	.LFE86:
 2305              		.size	mmcSync, .-mmcSync
 2306 004c AFF30080 		.section	.text.mmcGetInfo,"ax",%progbits
 2307              		.align	2
ARM GAS  C:\Users\z80\AppData\Local\Temp\cc9PmWEj.s 			page 42


 2308              		.p2align 4,,15
 2309              		.global	mmcGetInfo
 2310              		.thumb
 2311              		.thumb_func
 2312              		.type	mmcGetInfo, %function
 2313              	mmcGetInfo:
 2314              	.LFB87:
 2315              		.loc 1 825 0
 2316              		.cfi_startproc
 2317              		@ args = 0, pretend = 0, frame = 8
 2318              		@ frame_needed = 0, uses_anonymous_args = 0
 2319              		@ link register save eliminated.
 2320 0000 82B0     		sub	sp, sp, #8
 2321              	.LCFI43:
 2322              		.cfi_def_cfa_offset 8
 2323 0002 0190     		str	r0, [sp, #4]
 2324 0004 0091     		str	r1, [sp, #0]
 2325              		.loc 1 827 0
 2326 0006 019B     		ldr	r3, [sp, #4]
 2327 0008 002B     		cmp	r3, #0
 2328 000a 01D0     		beq	.L143
 2329              		.loc 1 827 0 is_stmt 0 discriminator 1
 2330 000c 009B     		ldr	r3, [sp, #0]
 2331 000e 002B     		cmp	r3, #0
 2332              	.L143:
 2333              		.loc 1 829 0 is_stmt 1
 2334 0010 019B     		ldr	r3, [sp, #4]
 2335 0012 1B79     		ldrb	r3, [r3, #4]	@ zero_extendqisi2
 2336 0014 052B     		cmp	r3, #5
 2337 0016 02D0     		beq	.L144
 2338              		.loc 1 830 0
 2339 0018 4FF00103 		mov	r3, #1
 2340 001c 09E0     		b	.L145
 2341              	.L144:
 2342              		.loc 1 832 0
 2343 001e 019B     		ldr	r3, [sp, #4]
 2344 0020 9A6A     		ldr	r2, [r3, #40]
 2345 0022 009B     		ldr	r3, [sp, #0]
 2346 0024 5A60     		str	r2, [r3, #4]
 2347              		.loc 1 833 0
 2348 0026 009B     		ldr	r3, [sp, #0]
 2349 0028 4FF40072 		mov	r2, #512
 2350 002c 1A60     		str	r2, [r3, #0]
 2351              		.loc 1 835 0
 2352 002e 4FF00003 		mov	r3, #0
 2353              	.L145:
 2354              		.loc 1 836 0
 2355 0032 1846     		mov	r0, r3
 2356 0034 02B0     		add	sp, sp, #8
 2357 0036 7047     		bx	lr
 2358              		.cfi_endproc
 2359              	.LFE87:
 2360              		.size	mmcGetInfo, .-mmcGetInfo
 2361 0038 AFF30080 		.section	.text.mmcErase,"ax",%progbits
 2361      AFF30080 
 2362              		.align	2
 2363              		.p2align 4,,15
ARM GAS  C:\Users\z80\AppData\Local\Temp\cc9PmWEj.s 			page 43


 2364              		.global	mmcErase
 2365              		.thumb
 2366              		.thumb_func
 2367              		.type	mmcErase, %function
 2368              	mmcErase:
 2369              	.LFB88:
 2370              		.loc 1 851 0
 2371              		.cfi_startproc
 2372              		@ args = 0, pretend = 0, frame = 16
 2373              		@ frame_needed = 0, uses_anonymous_args = 0
 2374 0000 00B5     		push	{lr}
 2375              	.LCFI44:
 2376              		.cfi_def_cfa_offset 4
 2377 0002 85B0     		sub	sp, sp, #20
 2378              	.LCFI45:
 2379              		.cfi_def_cfa_offset 24
 2380 0004 0390     		str	r0, [sp, #12]
 2381 0006 0291     		str	r1, [sp, #8]
 2382 0008 0192     		str	r2, [sp, #4]
 2383              		.loc 1 853 0
 2384 000a 039B     		ldr	r3, [sp, #12]
 2385 000c 002B     		cmp	r3, #0
 2386              		.loc 1 856 0
 2387 000e 039B     		ldr	r3, [sp, #12]
 2388 0010 4FF00702 		mov	r2, #7
 2389 0014 1A71     		strb	r2, [r3, #4]
 2390              		.loc 1 859 0
 2391 0016 039B     		ldr	r3, [sp, #12]
 2392 0018 93F83030 		ldrb	r3, [r3, #48]	@ zero_extendqisi2
 2393 001c 83F00103 		eor	r3, r3, #1
 2394 0020 DBB2     		uxtb	r3, r3
 2395 0022 002B     		cmp	r3, #0
 2396 0024 07D0     		beq	.L148
 2397              		.cfi_offset 14, -4
 2398              		.loc 1 860 0
 2399 0026 029B     		ldr	r3, [sp, #8]
 2400 0028 4FEA4323 		lsl	r3, r3, #9
 2401 002c 0293     		str	r3, [sp, #8]
 2402              		.loc 1 861 0
 2403 002e 019B     		ldr	r3, [sp, #4]
 2404 0030 4FEA4323 		lsl	r3, r3, #9
 2405 0034 0193     		str	r3, [sp, #4]
 2406              	.L148:
 2407              		.loc 1 864 0
 2408 0036 0398     		ldr	r0, [sp, #12]
 2409 0038 4FF02001 		mov	r1, #32
 2410 003c 029A     		ldr	r2, [sp, #8]
 2411 003e FFF7FEFF 		bl	send_command_R1
 2412 0042 0346     		mov	r3, r0
 2413 0044 002B     		cmp	r3, #0
 2414 0046 19D1     		bne	.L154
 2415              	.L149:
 2416              		.loc 1 867 0
 2417 0048 0398     		ldr	r0, [sp, #12]
 2418 004a 4FF02101 		mov	r1, #33
 2419 004e 019A     		ldr	r2, [sp, #4]
 2420 0050 FFF7FEFF 		bl	send_command_R1
ARM GAS  C:\Users\z80\AppData\Local\Temp\cc9PmWEj.s 			page 44


 2421 0054 0346     		mov	r3, r0
 2422 0056 002B     		cmp	r3, #0
 2423 0058 12D1     		bne	.L155
 2424              	.L151:
 2425              		.loc 1 870 0
 2426 005a 0398     		ldr	r0, [sp, #12]
 2427 005c 4FF02601 		mov	r1, #38
 2428 0060 4FF00002 		mov	r2, #0
 2429 0064 FFF7FEFF 		bl	send_command_R1
 2430 0068 0346     		mov	r3, r0
 2431 006a 002B     		cmp	r3, #0
 2432 006c 0AD1     		bne	.L156
 2433              	.L152:
 2434              		.loc 1 873 0
 2435 006e 039B     		ldr	r3, [sp, #12]
 2436 0070 4FF00502 		mov	r2, #5
 2437 0074 1A71     		strb	r2, [r3, #4]
 2438              		.loc 1 874 0
 2439 0076 4FF00003 		mov	r3, #0
 2440 007a 10E0     		b	.L153
 2441              	.L154:
 2442              		.loc 1 865 0
 2443 007c 00BF     		nop
 2444 007e 02E0     		b	.L150
 2445              	.L155:
 2446              		.loc 1 868 0
 2447 0080 00BF     		nop
 2448 0082 00E0     		b	.L150
 2449              	.L156:
 2450              		.loc 1 871 0
 2451 0084 00BF     		nop
 2452              	.L150:
 2453              		.loc 1 878 0
 2454 0086 039B     		ldr	r3, [sp, #12]
 2455 0088 DB6A     		ldr	r3, [r3, #44]
 2456 008a 1B68     		ldr	r3, [r3, #0]
 2457 008c 1846     		mov	r0, r3
 2458 008e FFF7FEFF 		bl	spiStop
 2459              		.loc 1 879 0
 2460 0092 039B     		ldr	r3, [sp, #12]
 2461 0094 4FF00502 		mov	r2, #5
 2462 0098 1A71     		strb	r2, [r3, #4]
 2463              		.loc 1 880 0
 2464 009a 4FF00103 		mov	r3, #1
 2465              	.L153:
 2466              		.loc 1 881 0
 2467 009e 1846     		mov	r0, r3
 2468 00a0 05B0     		add	sp, sp, #20
 2469 00a2 00BD     		pop	{pc}
 2470              		.cfi_endproc
 2471              	.LFE88:
 2472              		.size	mmcErase, .-mmcErase
 2473 00a4 AFF30080 		.section	.rodata.stop.4194,"a",%progbits
 2473      AFF30080 
 2473      AFF30080 
 2474              		.align	2
 2475              		.type	stop.4194, %object
ARM GAS  C:\Users\z80\AppData\Local\Temp\cc9PmWEj.s 			page 45


 2476              		.size	stop.4194, 2
 2477              	stop.4194:
 2478 0000 FD       		.byte	-3
 2479 0001 FF       		.byte	-1
 2480 0002 0000     		.section	.rodata.start.4189,"a",%progbits
 2481              		.align	2
 2482              		.type	start.4189, %object
 2483              		.size	start.4189, 2
 2484              	start.4189:
 2485 0000 FF       		.byte	-1
 2486 0001 FC       		.byte	-4
 2487 0002 0000     		.section	.rodata.stopcmd.4180,"a",%progbits
 2488              		.align	2
 2489              		.type	stopcmd.4180, %object
 2490              		.size	stopcmd.4180, 7
 2491              	stopcmd.4180:
 2492 0000 4C       		.byte	76
 2493 0001 00       		.byte	0
 2494 0002 00       		.byte	0
 2495 0003 00       		.byte	0
 2496 0004 00       		.byte	0
 2497 0005 01       		.byte	1
 2498 0006 FF       		.byte	-1
 2499 0007 00       		.text
 2500              	.Letext0:
 2501              		.section	.debug_loc,"",%progbits
 2502              	.Ldebug_loc0:
 2503              	.LLST0:
 2504 0000 00000000 		.4byte	.LFB63
 2505 0004 02000000 		.4byte	.LCFI0
 2506 0008 0200     		.2byte	0x2
 2507 000a 7D       		.byte	0x7d
 2508 000b 00       		.sleb128 0
 2509 000c 02000000 		.4byte	.LCFI0
 2510 0010 04000000 		.4byte	.LCFI1
 2511 0014 0200     		.2byte	0x2
 2512 0016 7D       		.byte	0x7d
 2513 0017 04       		.sleb128 4
 2514 0018 04000000 		.4byte	.LCFI1
 2515 001c 6C000000 		.4byte	.LFE63
 2516 0020 0200     		.2byte	0x2
 2517 0022 7D       		.byte	0x7d
 2518 0023 18       		.sleb128 24
 2519 0024 00000000 		.4byte	0x0
 2520 0028 00000000 		.4byte	0x0
 2521              	.LLST1:
 2522 002c 00000000 		.4byte	.LFB64
 2523 0030 02000000 		.4byte	.LCFI2
 2524 0034 0200     		.2byte	0x2
 2525 0036 7D       		.byte	0x7d
 2526 0037 00       		.sleb128 0
 2527 0038 02000000 		.4byte	.LCFI2
 2528 003c 04000000 		.4byte	.LCFI3
 2529 0040 0200     		.2byte	0x2
 2530 0042 7D       		.byte	0x7d
 2531 0043 04       		.sleb128 4
 2532 0044 04000000 		.4byte	.LCFI3
ARM GAS  C:\Users\z80\AppData\Local\Temp\cc9PmWEj.s 			page 46


 2533 0048 6C000000 		.4byte	.LFE64
 2534 004c 0200     		.2byte	0x2
 2535 004e 7D       		.byte	0x7d
 2536 004f 18       		.sleb128 24
 2537 0050 00000000 		.4byte	0x0
 2538 0054 00000000 		.4byte	0x0
 2539              	.LLST2:
 2540 0058 00000000 		.4byte	.LFB65
 2541 005c 02000000 		.4byte	.LCFI4
 2542 0060 0200     		.2byte	0x2
 2543 0062 7D       		.byte	0x7d
 2544 0063 00       		.sleb128 0
 2545 0064 02000000 		.4byte	.LCFI4
 2546 0068 56000000 		.4byte	.LFE65
 2547 006c 0200     		.2byte	0x2
 2548 006e 7D       		.byte	0x7d
 2549 006f 10       		.sleb128 16
 2550 0070 00000000 		.4byte	0x0
 2551 0074 00000000 		.4byte	0x0
 2552              	.LLST3:
 2553 0078 00000000 		.4byte	.LFB66
 2554 007c 02000000 		.4byte	.LCFI5
 2555 0080 0200     		.2byte	0x2
 2556 0082 7D       		.byte	0x7d
 2557 0083 00       		.sleb128 0
 2558 0084 02000000 		.4byte	.LCFI5
 2559 0088 04000000 		.4byte	.LCFI6
 2560 008c 0200     		.2byte	0x2
 2561 008e 7D       		.byte	0x7d
 2562 008f 04       		.sleb128 4
 2563 0090 04000000 		.4byte	.LCFI6
 2564 0094 68000000 		.4byte	.LFE66
 2565 0098 0200     		.2byte	0x2
 2566 009a 7D       		.byte	0x7d
 2567 009b 18       		.sleb128 24
 2568 009c 00000000 		.4byte	0x0
 2569 00a0 00000000 		.4byte	0x0
 2570              	.LLST4:
 2571 00a4 00000000 		.4byte	.LFB67
 2572 00a8 02000000 		.4byte	.LCFI7
 2573 00ac 0200     		.2byte	0x2
 2574 00ae 7D       		.byte	0x7d
 2575 00af 00       		.sleb128 0
 2576 00b0 02000000 		.4byte	.LCFI7
 2577 00b4 04000000 		.4byte	.LCFI8
 2578 00b8 0200     		.2byte	0x2
 2579 00ba 7D       		.byte	0x7d
 2580 00bb 04       		.sleb128 4
 2581 00bc 04000000 		.4byte	.LCFI8
 2582 00c0 8A000000 		.4byte	.LFE67
 2583 00c4 0200     		.2byte	0x2
 2584 00c6 7D       		.byte	0x7d
 2585 00c7 20       		.sleb128 32
 2586 00c8 00000000 		.4byte	0x0
 2587 00cc 00000000 		.4byte	0x0
 2588              	.LLST5:
 2589 00d0 00000000 		.4byte	.LFB68
ARM GAS  C:\Users\z80\AppData\Local\Temp\cc9PmWEj.s 			page 47


 2590 00d4 02000000 		.4byte	.LCFI9
 2591 00d8 0200     		.2byte	0x2
 2592 00da 7D       		.byte	0x7d
 2593 00db 00       		.sleb128 0
 2594 00dc 02000000 		.4byte	.LCFI9
 2595 00e0 04000000 		.4byte	.LCFI10
 2596 00e4 0200     		.2byte	0x2
 2597 00e6 7D       		.byte	0x7d
 2598 00e7 04       		.sleb128 4
 2599 00e8 04000000 		.4byte	.LCFI10
 2600 00ec 48000000 		.4byte	.LFE68
 2601 00f0 0200     		.2byte	0x2
 2602 00f2 7D       		.byte	0x7d
 2603 00f3 18       		.sleb128 24
 2604 00f4 00000000 		.4byte	0x0
 2605 00f8 00000000 		.4byte	0x0
 2606              	.LLST6:
 2607 00fc 00000000 		.4byte	.LFB69
 2608 0100 02000000 		.4byte	.LCFI11
 2609 0104 0200     		.2byte	0x2
 2610 0106 7D       		.byte	0x7d
 2611 0107 00       		.sleb128 0
 2612 0108 02000000 		.4byte	.LCFI11
 2613 010c 04000000 		.4byte	.LCFI12
 2614 0110 0200     		.2byte	0x2
 2615 0112 7D       		.byte	0x7d
 2616 0113 04       		.sleb128 4
 2617 0114 04000000 		.4byte	.LCFI12
 2618 0118 30000000 		.4byte	.LFE69
 2619 011c 0200     		.2byte	0x2
 2620 011e 7D       		.byte	0x7d
 2621 011f 18       		.sleb128 24
 2622 0120 00000000 		.4byte	0x0
 2623 0124 00000000 		.4byte	0x0
 2624              	.LLST7:
 2625 0128 00000000 		.4byte	.LFB70
 2626 012c 02000000 		.4byte	.LCFI13
 2627 0130 0200     		.2byte	0x2
 2628 0132 7D       		.byte	0x7d
 2629 0133 00       		.sleb128 0
 2630 0134 02000000 		.4byte	.LCFI13
 2631 0138 04000000 		.4byte	.LCFI14
 2632 013c 0200     		.2byte	0x2
 2633 013e 7D       		.byte	0x7d
 2634 013f 04       		.sleb128 4
 2635 0140 04000000 		.4byte	.LCFI14
 2636 0144 4A000000 		.4byte	.LFE70
 2637 0148 0200     		.2byte	0x2
 2638 014a 7D       		.byte	0x7d
 2639 014b 20       		.sleb128 32
 2640 014c 00000000 		.4byte	0x0
 2641 0150 00000000 		.4byte	0x0
 2642              	.LLST8:
 2643 0154 00000000 		.4byte	.LFB71
 2644 0158 02000000 		.4byte	.LCFI15
 2645 015c 0200     		.2byte	0x2
 2646 015e 7D       		.byte	0x7d
ARM GAS  C:\Users\z80\AppData\Local\Temp\cc9PmWEj.s 			page 48


 2647 015f 00       		.sleb128 0
 2648 0160 02000000 		.4byte	.LCFI15
 2649 0164 04000000 		.4byte	.LCFI16
 2650 0168 0200     		.2byte	0x2
 2651 016a 7D       		.byte	0x7d
 2652 016b 04       		.sleb128 4
 2653 016c 04000000 		.4byte	.LCFI16
 2654 0170 4E000000 		.4byte	.LFE71
 2655 0174 0200     		.2byte	0x2
 2656 0176 7D       		.byte	0x7d
 2657 0177 20       		.sleb128 32
 2658 0178 00000000 		.4byte	0x0
 2659 017c 00000000 		.4byte	0x0
 2660              	.LLST9:
 2661 0180 00000000 		.4byte	.LFB72
 2662 0184 02000000 		.4byte	.LCFI17
 2663 0188 0200     		.2byte	0x2
 2664 018a 7D       		.byte	0x7d
 2665 018b 00       		.sleb128 0
 2666 018c 02000000 		.4byte	.LCFI17
 2667 0190 04000000 		.4byte	.LCFI18
 2668 0194 0200     		.2byte	0x2
 2669 0196 7D       		.byte	0x7d
 2670 0197 04       		.sleb128 4
 2671 0198 04000000 		.4byte	.LCFI18
 2672 019c 1C010000 		.4byte	.LFE72
 2673 01a0 0200     		.2byte	0x2
 2674 01a2 7D       		.byte	0x7d
 2675 01a3 38       		.sleb128 56
 2676 01a4 00000000 		.4byte	0x0
 2677 01a8 00000000 		.4byte	0x0
 2678              	.LLST10:
 2679 01ac 00000000 		.4byte	.LFB73
 2680 01b0 02000000 		.4byte	.LCFI19
 2681 01b4 0200     		.2byte	0x2
 2682 01b6 7D       		.byte	0x7d
 2683 01b7 00       		.sleb128 0
 2684 01b8 02000000 		.4byte	.LCFI19
 2685 01bc 04000000 		.4byte	.LCFI20
 2686 01c0 0200     		.2byte	0x2
 2687 01c2 7D       		.byte	0x7d
 2688 01c3 04       		.sleb128 4
 2689 01c4 04000000 		.4byte	.LCFI20
 2690 01c8 48000000 		.4byte	.LFE73
 2691 01cc 0200     		.2byte	0x2
 2692 01ce 7D       		.byte	0x7d
 2693 01cf 18       		.sleb128 24
 2694 01d0 00000000 		.4byte	0x0
 2695 01d4 00000000 		.4byte	0x0
 2696              	.LLST11:
 2697 01d8 00000000 		.4byte	.LFB75
 2698 01dc 02000000 		.4byte	.LCFI21
 2699 01e0 0200     		.2byte	0x2
 2700 01e2 7D       		.byte	0x7d
 2701 01e3 00       		.sleb128 0
 2702 01e4 02000000 		.4byte	.LCFI21
 2703 01e8 2E000000 		.4byte	.LFE75
ARM GAS  C:\Users\z80\AppData\Local\Temp\cc9PmWEj.s 			page 49


 2704 01ec 0200     		.2byte	0x2
 2705 01ee 7D       		.byte	0x7d
 2706 01ef 08       		.sleb128 8
 2707 01f0 00000000 		.4byte	0x0
 2708 01f4 00000000 		.4byte	0x0
 2709              	.LLST12:
 2710 01f8 00000000 		.4byte	.LFB76
 2711 01fc 02000000 		.4byte	.LCFI22
 2712 0200 0200     		.2byte	0x2
 2713 0202 7D       		.byte	0x7d
 2714 0203 00       		.sleb128 0
 2715 0204 02000000 		.4byte	.LCFI22
 2716 0208 32000000 		.4byte	.LFE76
 2717 020c 0200     		.2byte	0x2
 2718 020e 7D       		.byte	0x7d
 2719 020f 08       		.sleb128 8
 2720 0210 00000000 		.4byte	0x0
 2721 0214 00000000 		.4byte	0x0
 2722              	.LLST13:
 2723 0218 00000000 		.4byte	.LFB77
 2724 021c 02000000 		.4byte	.LCFI23
 2725 0220 0200     		.2byte	0x2
 2726 0222 7D       		.byte	0x7d
 2727 0223 00       		.sleb128 0
 2728 0224 02000000 		.4byte	.LCFI23
 2729 0228 04000000 		.4byte	.LCFI24
 2730 022c 0200     		.2byte	0x2
 2731 022e 7D       		.byte	0x7d
 2732 022f 04       		.sleb128 4
 2733 0230 04000000 		.4byte	.LCFI24
 2734 0234 32000000 		.4byte	.LFE77
 2735 0238 0200     		.2byte	0x2
 2736 023a 7D       		.byte	0x7d
 2737 023b 10       		.sleb128 16
 2738 023c 00000000 		.4byte	0x0
 2739 0240 00000000 		.4byte	0x0
 2740              	.LLST14:
 2741 0244 00000000 		.4byte	.LFB78
 2742 0248 02000000 		.4byte	.LCFI25
 2743 024c 0200     		.2byte	0x2
 2744 024e 7D       		.byte	0x7d
 2745 024f 00       		.sleb128 0
 2746 0250 02000000 		.4byte	.LCFI25
 2747 0254 04000000 		.4byte	.LCFI26
 2748 0258 0200     		.2byte	0x2
 2749 025a 7D       		.byte	0x7d
 2750 025b 04       		.sleb128 4
 2751 025c 04000000 		.4byte	.LCFI26
 2752 0260 06020000 		.4byte	.LFE78
 2753 0264 0200     		.2byte	0x2
 2754 0266 7D       		.byte	0x7d
 2755 0267 20       		.sleb128 32
 2756 0268 00000000 		.4byte	0x0
 2757 026c 00000000 		.4byte	0x0
 2758              	.LLST15:
 2759 0270 00000000 		.4byte	.LFB79
 2760 0274 02000000 		.4byte	.LCFI27
ARM GAS  C:\Users\z80\AppData\Local\Temp\cc9PmWEj.s 			page 50


 2761 0278 0200     		.2byte	0x2
 2762 027a 7D       		.byte	0x7d
 2763 027b 00       		.sleb128 0
 2764 027c 02000000 		.4byte	.LCFI27
 2765 0280 04000000 		.4byte	.LCFI28
 2766 0284 0200     		.2byte	0x2
 2767 0286 7D       		.byte	0x7d
 2768 0287 04       		.sleb128 4
 2769 0288 04000000 		.4byte	.LCFI28
 2770 028c 80000000 		.4byte	.LFE79
 2771 0290 0200     		.2byte	0x2
 2772 0292 7D       		.byte	0x7d
 2773 0293 10       		.sleb128 16
 2774 0294 00000000 		.4byte	0x0
 2775 0298 00000000 		.4byte	0x0
 2776              	.LLST16:
 2777 029c 00000000 		.4byte	.LFB80
 2778 02a0 02000000 		.4byte	.LCFI29
 2779 02a4 0200     		.2byte	0x2
 2780 02a6 7D       		.byte	0x7d
 2781 02a7 00       		.sleb128 0
 2782 02a8 02000000 		.4byte	.LCFI29
 2783 02ac 04000000 		.4byte	.LCFI30
 2784 02b0 0200     		.2byte	0x2
 2785 02b2 7D       		.byte	0x7d
 2786 02b3 04       		.sleb128 4
 2787 02b4 04000000 		.4byte	.LCFI30
 2788 02b8 94000000 		.4byte	.LFE80
 2789 02bc 0200     		.2byte	0x2
 2790 02be 7D       		.byte	0x7d
 2791 02bf 10       		.sleb128 16
 2792 02c0 00000000 		.4byte	0x0
 2793 02c4 00000000 		.4byte	0x0
 2794              	.LLST17:
 2795 02c8 00000000 		.4byte	.LFB81
 2796 02cc 02000000 		.4byte	.LCFI31
 2797 02d0 0200     		.2byte	0x2
 2798 02d2 7D       		.byte	0x7d
 2799 02d3 00       		.sleb128 0
 2800 02d4 02000000 		.4byte	.LCFI31
 2801 02d8 04000000 		.4byte	.LCFI32
 2802 02dc 0200     		.2byte	0x2
 2803 02de 7D       		.byte	0x7d
 2804 02df 04       		.sleb128 4
 2805 02e0 04000000 		.4byte	.LCFI32
 2806 02e4 A6000000 		.4byte	.LFE81
 2807 02e8 0200     		.2byte	0x2
 2808 02ea 7D       		.byte	0x7d
 2809 02eb 18       		.sleb128 24
 2810 02ec 00000000 		.4byte	0x0
 2811 02f0 00000000 		.4byte	0x0
 2812              	.LLST18:
 2813 02f4 00000000 		.4byte	.LFB82
 2814 02f8 02000000 		.4byte	.LCFI33
 2815 02fc 0200     		.2byte	0x2
 2816 02fe 7D       		.byte	0x7d
 2817 02ff 00       		.sleb128 0
ARM GAS  C:\Users\z80\AppData\Local\Temp\cc9PmWEj.s 			page 51


 2818 0300 02000000 		.4byte	.LCFI33
 2819 0304 04000000 		.4byte	.LCFI34
 2820 0308 0200     		.2byte	0x2
 2821 030a 7D       		.byte	0x7d
 2822 030b 04       		.sleb128 4
 2823 030c 04000000 		.4byte	.LCFI34
 2824 0310 54000000 		.4byte	.LFE82
 2825 0314 0200     		.2byte	0x2
 2826 0316 7D       		.byte	0x7d
 2827 0317 10       		.sleb128 16
 2828 0318 00000000 		.4byte	0x0
 2829 031c 00000000 		.4byte	0x0
 2830              	.LLST19:
 2831 0320 00000000 		.4byte	.LFB83
 2832 0324 02000000 		.4byte	.LCFI35
 2833 0328 0200     		.2byte	0x2
 2834 032a 7D       		.byte	0x7d
 2835 032b 00       		.sleb128 0
 2836 032c 02000000 		.4byte	.LCFI35
 2837 0330 04000000 		.4byte	.LCFI36
 2838 0334 0200     		.2byte	0x2
 2839 0336 7D       		.byte	0x7d
 2840 0337 04       		.sleb128 4
 2841 0338 04000000 		.4byte	.LCFI36
 2842 033c 94000000 		.4byte	.LFE83
 2843 0340 0200     		.2byte	0x2
 2844 0342 7D       		.byte	0x7d
 2845 0343 10       		.sleb128 16
 2846 0344 00000000 		.4byte	0x0
 2847 0348 00000000 		.4byte	0x0
 2848              	.LLST20:
 2849 034c 00000000 		.4byte	.LFB84
 2850 0350 02000000 		.4byte	.LCFI37
 2851 0354 0200     		.2byte	0x2
 2852 0356 7D       		.byte	0x7d
 2853 0357 00       		.sleb128 0
 2854 0358 02000000 		.4byte	.LCFI37
 2855 035c 04000000 		.4byte	.LCFI38
 2856 0360 0200     		.2byte	0x2
 2857 0362 7D       		.byte	0x7d
 2858 0363 04       		.sleb128 4
 2859 0364 04000000 		.4byte	.LCFI38
 2860 0368 B0000000 		.4byte	.LFE84
 2861 036c 0200     		.2byte	0x2
 2862 036e 7D       		.byte	0x7d
 2863 036f 18       		.sleb128 24
 2864 0370 00000000 		.4byte	0x0
 2865 0374 00000000 		.4byte	0x0
 2866              	.LLST21:
 2867 0378 00000000 		.4byte	.LFB85
 2868 037c 02000000 		.4byte	.LCFI39
 2869 0380 0200     		.2byte	0x2
 2870 0382 7D       		.byte	0x7d
 2871 0383 00       		.sleb128 0
 2872 0384 02000000 		.4byte	.LCFI39
 2873 0388 04000000 		.4byte	.LCFI40
 2874 038c 0200     		.2byte	0x2
ARM GAS  C:\Users\z80\AppData\Local\Temp\cc9PmWEj.s 			page 52


 2875 038e 7D       		.byte	0x7d
 2876 038f 04       		.sleb128 4
 2877 0390 04000000 		.4byte	.LCFI40
 2878 0394 4E000000 		.4byte	.LFE85
 2879 0398 0200     		.2byte	0x2
 2880 039a 7D       		.byte	0x7d
 2881 039b 10       		.sleb128 16
 2882 039c 00000000 		.4byte	0x0
 2883 03a0 00000000 		.4byte	0x0
 2884              	.LLST22:
 2885 03a4 00000000 		.4byte	.LFB86
 2886 03a8 02000000 		.4byte	.LCFI41
 2887 03ac 0200     		.2byte	0x2
 2888 03ae 7D       		.byte	0x7d
 2889 03af 00       		.sleb128 0
 2890 03b0 02000000 		.4byte	.LCFI41
 2891 03b4 04000000 		.4byte	.LCFI42
 2892 03b8 0200     		.2byte	0x2
 2893 03ba 7D       		.byte	0x7d
 2894 03bb 04       		.sleb128 4
 2895 03bc 04000000 		.4byte	.LCFI42
 2896 03c0 4C000000 		.4byte	.LFE86
 2897 03c4 0200     		.2byte	0x2
 2898 03c6 7D       		.byte	0x7d
 2899 03c7 10       		.sleb128 16
 2900 03c8 00000000 		.4byte	0x0
 2901 03cc 00000000 		.4byte	0x0
 2902              	.LLST23:
 2903 03d0 00000000 		.4byte	.LFB87
 2904 03d4 02000000 		.4byte	.LCFI43
 2905 03d8 0200     		.2byte	0x2
 2906 03da 7D       		.byte	0x7d
 2907 03db 00       		.sleb128 0
 2908 03dc 02000000 		.4byte	.LCFI43
 2909 03e0 38000000 		.4byte	.LFE87
 2910 03e4 0200     		.2byte	0x2
 2911 03e6 7D       		.byte	0x7d
 2912 03e7 08       		.sleb128 8
 2913 03e8 00000000 		.4byte	0x0
 2914 03ec 00000000 		.4byte	0x0
 2915              	.LLST24:
 2916 03f0 00000000 		.4byte	.LFB88
 2917 03f4 02000000 		.4byte	.LCFI44
 2918 03f8 0200     		.2byte	0x2
 2919 03fa 7D       		.byte	0x7d
 2920 03fb 00       		.sleb128 0
 2921 03fc 02000000 		.4byte	.LCFI44
 2922 0400 04000000 		.4byte	.LCFI45
 2923 0404 0200     		.2byte	0x2
 2924 0406 7D       		.byte	0x7d
 2925 0407 04       		.sleb128 4
 2926 0408 04000000 		.4byte	.LCFI45
 2927 040c A4000000 		.4byte	.LFE88
 2928 0410 0200     		.2byte	0x2
 2929 0412 7D       		.byte	0x7d
 2930 0413 18       		.sleb128 24
 2931 0414 00000000 		.4byte	0x0
ARM GAS  C:\Users\z80\AppData\Local\Temp\cc9PmWEj.s 			page 53


 2932 0418 00000000 		.4byte	0x0
 2933              		.file 2 "c:\\programs\\yagarto\\bin\\../lib/gcc/arm-none-eabi/4.5.0/include/stddef.h"
 2934              		.file 3 "c:/programs/yagarto/lib/gcc/../../arm-none-eabi/sys-include/stdint.h"
 2935              		.file 4 "../chibios_2.6.3/os/ports/GCC/ARMCMx/chtypes.h"
 2936              		.file 5 "../chibios_2.6.3/os/kernel/include/chlists.h"
 2937              		.file 6 "../chibios_2.6.3/os/kernel/include/chthreads.h"
 2938              		.file 7 "../chibios_2.6.3/os/ports/GCC/ARMCMx/chcore_v7m.h"
 2939              		.file 8 "../chibios_2.6.3/os/kernel/include/chmtx.h"
 2940              		.file 9 "../chibios_2.6.3/os/hal/platforms/STM32F1xx/stm32f10x.h"
 2941              		.file 10 "../chibios_2.6.3/os/hal/platforms/STM32F1xx/stm32_dma.h"
 2942              		.file 11 "../chibios_2.6.3/os/hal/include/io_block.h"
 2943              		.file 12 "../chibios_2.6.3/os/hal/platforms/STM32/GPIOv1/pal_lld.h"
 2944              		.file 13 "../chibios_2.6.3/os/hal/include/spi.h"
 2945              		.file 14 "../chibios_2.6.3/os/hal/platforms/STM32/SPIv1/spi_lld.h"
 2946              		.file 15 "../chibios_2.6.3/os/hal/include/mmc_spi.h"
 2947              		.file 16 "../chibios_2.6.3/os/ports/common/ARMCMx/CMSIS/include/core_cm3.h"
 2948              		.section	.debug_info
 2949 0000 79120000 		.4byte	0x1279
 2950 0004 0200     		.2byte	0x2
 2951 0006 00000000 		.4byte	.Ldebug_abbrev0
 2952 000a 04       		.byte	0x4
 2953 000b 01       		.uleb128 0x1
 2954 000c 94060000 		.4byte	.LASF174
 2955 0010 01       		.byte	0x1
 2956 0011 2C000000 		.4byte	.LASF175
 2957 0015 13030000 		.4byte	.LASF176
 2958 0019 00000000 		.4byte	0x0
 2959 001d 00000000 		.4byte	0x0
 2960 0021 20000000 		.4byte	.Ldebug_ranges0+0x20
 2961 0025 00000000 		.4byte	.Ldebug_line0
 2962 0029 02       		.uleb128 0x2
 2963 002a 01       		.byte	0x1
 2964 002b 06       		.byte	0x6
 2965 002c 10010000 		.4byte	.LASF0
 2966 0030 02       		.uleb128 0x2
 2967 0031 01       		.byte	0x1
 2968 0032 08       		.byte	0x8
 2969 0033 B7040000 		.4byte	.LASF1
 2970 0037 02       		.uleb128 0x2
 2971 0038 02       		.byte	0x2
 2972 0039 05       		.byte	0x5
 2973 003a EA040000 		.4byte	.LASF2
 2974 003e 02       		.uleb128 0x2
 2975 003f 02       		.byte	0x2
 2976 0040 07       		.byte	0x7
 2977 0041 89020000 		.4byte	.LASF3
 2978 0045 03       		.uleb128 0x3
 2979 0046 04       		.byte	0x4
 2980 0047 05       		.byte	0x5
 2981 0048 696E7400 		.ascii	"int\000"
 2982 004c 02       		.uleb128 0x2
 2983 004d 04       		.byte	0x4
 2984 004e 07       		.byte	0x7
 2985 004f 32020000 		.4byte	.LASF4
 2986 0053 02       		.uleb128 0x2
 2987 0054 08       		.byte	0x8
 2988 0055 05       		.byte	0x5
ARM GAS  C:\Users\z80\AppData\Local\Temp\cc9PmWEj.s 			page 54


 2989 0056 02010000 		.4byte	.LASF5
 2990 005a 02       		.uleb128 0x2
 2991 005b 08       		.byte	0x8
 2992 005c 07       		.byte	0x7
 2993 005d 7C000000 		.4byte	.LASF6
 2994 0061 02       		.uleb128 0x2
 2995 0062 04       		.byte	0x4
 2996 0063 05       		.byte	0x5
 2997 0064 77010000 		.4byte	.LASF7
 2998 0068 04       		.uleb128 0x4
 2999 0069 04       		.byte	0x4
 3000 006a 07       		.byte	0x7
 3001 006b 05       		.uleb128 0x5
 3002 006c 04       		.byte	0x4
 3003 006d 02       		.uleb128 0x2
 3004 006e 04       		.byte	0x4
 3005 006f 07       		.byte	0x7
 3006 0070 87050000 		.4byte	.LASF8
 3007 0074 02       		.uleb128 0x2
 3008 0075 01       		.byte	0x1
 3009 0076 08       		.byte	0x8
 3010 0077 AA050000 		.4byte	.LASF9
 3011 007b 06       		.uleb128 0x6
 3012 007c 04       		.byte	0x4
 3013 007d 81000000 		.4byte	0x81
 3014 0081 07       		.uleb128 0x7
 3015 0082 74000000 		.4byte	0x74
 3016 0086 08       		.uleb128 0x8
 3017 0087 16000000 		.4byte	.LASF10
 3018 008b 02       		.byte	0x2
 3019 008c D3       		.byte	0xd3
 3020 008d 4C000000 		.4byte	0x4c
 3021 0091 08       		.uleb128 0x8
 3022 0092 60060000 		.4byte	.LASF11
 3023 0096 03       		.byte	0x3
 3024 0097 2A       		.byte	0x2a
 3025 0098 30000000 		.4byte	0x30
 3026 009c 08       		.uleb128 0x8
 3027 009d B5010000 		.4byte	.LASF12
 3028 00a1 03       		.byte	0x3
 3029 00a2 36       		.byte	0x36
 3030 00a3 3E000000 		.4byte	0x3e
 3031 00a7 08       		.uleb128 0x8
 3032 00a8 AF040000 		.4byte	.LASF13
 3033 00ac 03       		.byte	0x3
 3034 00ad 4F       		.byte	0x4f
 3035 00ae 61000000 		.4byte	0x61
 3036 00b2 08       		.uleb128 0x8
 3037 00b3 71050000 		.4byte	.LASF14
 3038 00b7 03       		.byte	0x3
 3039 00b8 50       		.byte	0x50
 3040 00b9 6D000000 		.4byte	0x6d
 3041 00bd 08       		.uleb128 0x8
 3042 00be 39010000 		.4byte	.LASF15
 3043 00c2 04       		.byte	0x4
 3044 00c3 2B       		.byte	0x2b
 3045 00c4 C8000000 		.4byte	0xc8
ARM GAS  C:\Users\z80\AppData\Local\Temp\cc9PmWEj.s 			page 55


 3046 00c8 02       		.uleb128 0x2
 3047 00c9 01       		.byte	0x1
 3048 00ca 02       		.byte	0x2
 3049 00cb A9040000 		.4byte	.LASF16
 3050 00cf 08       		.uleb128 0x8
 3051 00d0 E3020000 		.4byte	.LASF17
 3052 00d4 04       		.byte	0x4
 3053 00d5 2C       		.byte	0x2c
 3054 00d6 91000000 		.4byte	0x91
 3055 00da 08       		.uleb128 0x8
 3056 00db 8E010000 		.4byte	.LASF18
 3057 00df 04       		.byte	0x4
 3058 00e0 2D       		.byte	0x2d
 3059 00e1 91000000 		.4byte	0x91
 3060 00e5 08       		.uleb128 0x8
 3061 00e6 7A050000 		.4byte	.LASF19
 3062 00ea 04       		.byte	0x4
 3063 00eb 2E       		.byte	0x2e
 3064 00ec 91000000 		.4byte	0x91
 3065 00f0 08       		.uleb128 0x8
 3066 00f1 28020000 		.4byte	.LASF20
 3067 00f5 04       		.byte	0x4
 3068 00f6 2F       		.byte	0x2f
 3069 00f7 91000000 		.4byte	0x91
 3070 00fb 08       		.uleb128 0x8
 3071 00fc 9B040000 		.4byte	.LASF21
 3072 0100 04       		.byte	0x4
 3073 0101 30       		.byte	0x30
 3074 0102 B2000000 		.4byte	0xb2
 3075 0106 08       		.uleb128 0x8
 3076 0107 C3020000 		.4byte	.LASF22
 3077 010b 04       		.byte	0x4
 3078 010c 31       		.byte	0x31
 3079 010d A7000000 		.4byte	0xa7
 3080 0111 08       		.uleb128 0x8
 3081 0112 07030000 		.4byte	.LASF23
 3082 0116 04       		.byte	0x4
 3083 0117 33       		.byte	0x33
 3084 0118 B2000000 		.4byte	0xb2
 3085 011c 08       		.uleb128 0x8
 3086 011d DC050000 		.4byte	.LASF24
 3087 0121 04       		.byte	0x4
 3088 0122 35       		.byte	0x35
 3089 0123 B2000000 		.4byte	0xb2
 3090 0127 08       		.uleb128 0x8
 3091 0128 44030000 		.4byte	.LASF25
 3092 012c 05       		.byte	0x5
 3093 012d 2A       		.byte	0x2a
 3094 012e 32010000 		.4byte	0x132
 3095 0132 09       		.uleb128 0x9
 3096 0133 44030000 		.4byte	.LASF25
 3097 0137 48       		.byte	0x48
 3098 0138 06       		.byte	0x6
 3099 0139 5E       		.byte	0x5e
 3100 013a 57020000 		.4byte	0x257
 3101 013e 0A       		.uleb128 0xa
 3102 013f 11050000 		.4byte	.LASF26
ARM GAS  C:\Users\z80\AppData\Local\Temp\cc9PmWEj.s 			page 56


 3103 0143 06       		.byte	0x6
 3104 0144 5F       		.byte	0x5f
 3105 0145 7C020000 		.4byte	0x27c
 3106 0149 02       		.byte	0x2
 3107 014a 23       		.byte	0x23
 3108 014b 00       		.uleb128 0x0
 3109 014c 0A       		.uleb128 0xa
 3110 014d 76040000 		.4byte	.LASF27
 3111 0151 06       		.byte	0x6
 3112 0152 61       		.byte	0x61
 3113 0153 7C020000 		.4byte	0x27c
 3114 0157 02       		.byte	0x2
 3115 0158 23       		.byte	0x23
 3116 0159 04       		.uleb128 0x4
 3117 015a 0A       		.uleb128 0xa
 3118 015b E9000000 		.4byte	.LASF28
 3119 015f 06       		.byte	0x6
 3120 0160 63       		.byte	0x63
 3121 0161 FB000000 		.4byte	0xfb
 3122 0165 02       		.byte	0x2
 3123 0166 23       		.byte	0x23
 3124 0167 08       		.uleb128 0x8
 3125 0168 0A       		.uleb128 0xa
 3126 0169 EF060000 		.4byte	.LASF29
 3127 016d 06       		.byte	0x6
 3128 016e 64       		.byte	0x64
 3129 016f 48030000 		.4byte	0x348
 3130 0173 02       		.byte	0x2
 3131 0174 23       		.byte	0x23
 3132 0175 0C       		.uleb128 0xc
 3133 0176 0A       		.uleb128 0xa
 3134 0177 CE010000 		.4byte	.LASF30
 3135 017b 06       		.byte	0x6
 3136 017c 66       		.byte	0x66
 3137 017d 7C020000 		.4byte	0x27c
 3138 0181 02       		.byte	0x2
 3139 0182 23       		.byte	0x23
 3140 0183 10       		.uleb128 0x10
 3141 0184 0A       		.uleb128 0xa
 3142 0185 A3030000 		.4byte	.LASF31
 3143 0189 06       		.byte	0x6
 3144 018a 67       		.byte	0x67
 3145 018b 7C020000 		.4byte	0x27c
 3146 018f 02       		.byte	0x2
 3147 0190 23       		.byte	0x23
 3148 0191 14       		.uleb128 0x14
 3149 0192 0A       		.uleb128 0xa
 3150 0193 A7060000 		.4byte	.LASF32
 3151 0197 06       		.byte	0x6
 3152 0198 6E       		.byte	0x6e
 3153 0199 7B000000 		.4byte	0x7b
 3154 019d 02       		.byte	0x2
 3155 019e 23       		.byte	0x23
 3156 019f 18       		.uleb128 0x18
 3157 01a0 0A       		.uleb128 0xa
 3158 01a1 D8040000 		.4byte	.LASF33
 3159 01a5 06       		.byte	0x6
ARM GAS  C:\Users\z80\AppData\Local\Temp\cc9PmWEj.s 			page 57


 3160 01a6 79       		.byte	0x79
 3161 01a7 DA000000 		.4byte	0xda
 3162 01ab 02       		.byte	0x2
 3163 01ac 23       		.byte	0x23
 3164 01ad 1C       		.uleb128 0x1c
 3165 01ae 0A       		.uleb128 0xa
 3166 01af 18050000 		.4byte	.LASF34
 3167 01b3 06       		.byte	0x6
 3168 01b4 7D       		.byte	0x7d
 3169 01b5 CF000000 		.4byte	0xcf
 3170 01b9 02       		.byte	0x2
 3171 01ba 23       		.byte	0x23
 3172 01bb 1D       		.uleb128 0x1d
 3173 01bc 0A       		.uleb128 0xa
 3174 01bd 36060000 		.4byte	.LASF35
 3175 01c1 06       		.byte	0x6
 3176 01c2 82       		.byte	0x82
 3177 01c3 E5000000 		.4byte	0xe5
 3178 01c7 02       		.byte	0x2
 3179 01c8 23       		.byte	0x23
 3180 01c9 1E       		.uleb128 0x1e
 3181 01ca 0A       		.uleb128 0xa
 3182 01cb 00050000 		.4byte	.LASF36
 3183 01cf 06       		.byte	0x6
 3184 01d0 88       		.byte	0x88
 3185 01d1 F0000000 		.4byte	0xf0
 3186 01d5 02       		.byte	0x2
 3187 01d6 23       		.byte	0x23
 3188 01d7 1F       		.uleb128 0x1f
 3189 01d8 0A       		.uleb128 0xa
 3190 01d9 BE010000 		.4byte	.LASF37
 3191 01dd 06       		.byte	0x6
 3192 01de 8F       		.byte	0x8f
 3193 01df 70030000 		.4byte	0x370
 3194 01e3 02       		.byte	0x2
 3195 01e4 23       		.byte	0x23
 3196 01e5 20       		.uleb128 0x20
 3197 01e6 0B       		.uleb128 0xb
 3198 01e7 705F7500 		.ascii	"p_u\000"
 3199 01eb 06       		.byte	0x6
 3200 01ec B4       		.byte	0xb4
 3201 01ed BD030000 		.4byte	0x3bd
 3202 01f1 02       		.byte	0x2
 3203 01f2 23       		.byte	0x23
 3204 01f3 24       		.uleb128 0x24
 3205 01f4 0A       		.uleb128 0xa
 3206 01f5 F5060000 		.4byte	.LASF38
 3207 01f9 06       		.byte	0x6
 3208 01fa B9       		.byte	0xb9
 3209 01fb A4020000 		.4byte	0x2a4
 3210 01ff 02       		.byte	0x2
 3211 0200 23       		.byte	0x23
 3212 0201 28       		.uleb128 0x28
 3213 0202 0A       		.uleb128 0xa
 3214 0203 65020000 		.4byte	.LASF39
 3215 0207 06       		.byte	0x6
 3216 0208 BF       		.byte	0xbf
ARM GAS  C:\Users\z80\AppData\Local\Temp\cc9PmWEj.s 			page 58


 3217 0209 82020000 		.4byte	0x282
 3218 020d 02       		.byte	0x2
 3219 020e 23       		.byte	0x23
 3220 020f 2C       		.uleb128 0x2c
 3221 0210 0A       		.uleb128 0xa
 3222 0211 5A060000 		.4byte	.LASF40
 3223 0215 06       		.byte	0x6
 3224 0216 C3       		.byte	0xc3
 3225 0217 06010000 		.4byte	0x106
 3226 021b 02       		.byte	0x2
 3227 021c 23       		.byte	0x23
 3228 021d 34       		.uleb128 0x34
 3229 021e 0A       		.uleb128 0xa
 3230 021f 4F050000 		.4byte	.LASF41
 3231 0223 06       		.byte	0x6
 3232 0224 C9       		.byte	0xc9
 3233 0225 11010000 		.4byte	0x111
 3234 0229 02       		.byte	0x2
 3235 022a 23       		.byte	0x23
 3236 022b 38       		.uleb128 0x38
 3237 022c 0A       		.uleb128 0xa
 3238 022d E0040000 		.4byte	.LASF42
 3239 0231 06       		.byte	0x6
 3240 0232 D0       		.byte	0xd0
 3241 0233 F2030000 		.4byte	0x3f2
 3242 0237 02       		.byte	0x2
 3243 0238 23       		.byte	0x23
 3244 0239 3C       		.uleb128 0x3c
 3245 023a 0A       		.uleb128 0xa
 3246 023b C9020000 		.4byte	.LASF43
 3247 023f 06       		.byte	0x6
 3248 0240 D4       		.byte	0xd4
 3249 0241 FB000000 		.4byte	0xfb
 3250 0245 02       		.byte	0x2
 3251 0246 23       		.byte	0x23
 3252 0247 40       		.uleb128 0x40
 3253 0248 0A       		.uleb128 0xa
 3254 0249 31010000 		.4byte	.LASF44
 3255 024d 06       		.byte	0x6
 3256 024e DA       		.byte	0xda
 3257 024f 6B000000 		.4byte	0x6b
 3258 0253 02       		.byte	0x2
 3259 0254 23       		.byte	0x23
 3260 0255 44       		.uleb128 0x44
 3261 0256 00       		.byte	0x0
 3262 0257 0C       		.uleb128 0xc
 3263 0258 08       		.byte	0x8
 3264 0259 05       		.byte	0x5
 3265 025a 61       		.byte	0x61
 3266 025b 7C020000 		.4byte	0x27c
 3267 025f 0A       		.uleb128 0xa
 3268 0260 11050000 		.4byte	.LASF26
 3269 0264 05       		.byte	0x5
 3270 0265 62       		.byte	0x62
 3271 0266 7C020000 		.4byte	0x27c
 3272 026a 02       		.byte	0x2
 3273 026b 23       		.byte	0x23
ARM GAS  C:\Users\z80\AppData\Local\Temp\cc9PmWEj.s 			page 59


 3274 026c 00       		.uleb128 0x0
 3275 026d 0A       		.uleb128 0xa
 3276 026e 76040000 		.4byte	.LASF27
 3277 0272 05       		.byte	0x5
 3278 0273 64       		.byte	0x64
 3279 0274 7C020000 		.4byte	0x27c
 3280 0278 02       		.byte	0x2
 3281 0279 23       		.byte	0x23
 3282 027a 04       		.uleb128 0x4
 3283 027b 00       		.byte	0x0
 3284 027c 06       		.uleb128 0x6
 3285 027d 04       		.byte	0x4
 3286 027e 27010000 		.4byte	0x127
 3287 0282 08       		.uleb128 0x8
 3288 0283 D8030000 		.4byte	.LASF45
 3289 0287 05       		.byte	0x5
 3290 0288 66       		.byte	0x66
 3291 0289 57020000 		.4byte	0x257
 3292 028d 0C       		.uleb128 0xc
 3293 028e 04       		.byte	0x4
 3294 028f 05       		.byte	0x5
 3295 0290 6B       		.byte	0x6b
 3296 0291 A4020000 		.4byte	0x2a4
 3297 0295 0A       		.uleb128 0xa
 3298 0296 11050000 		.4byte	.LASF26
 3299 029a 05       		.byte	0x5
 3300 029b 6D       		.byte	0x6d
 3301 029c 7C020000 		.4byte	0x27c
 3302 02a0 02       		.byte	0x2
 3303 02a1 23       		.byte	0x23
 3304 02a2 00       		.uleb128 0x0
 3305 02a3 00       		.byte	0x0
 3306 02a4 08       		.uleb128 0x8
 3307 02a5 FB020000 		.4byte	.LASF46
 3308 02a9 05       		.byte	0x5
 3309 02aa 70       		.byte	0x70
 3310 02ab 8D020000 		.4byte	0x28d
 3311 02af 08       		.uleb128 0x8
 3312 02b0 F6010000 		.4byte	.LASF47
 3313 02b4 07       		.byte	0x7
 3314 02b5 E5       		.byte	0xe5
 3315 02b6 6B000000 		.4byte	0x6b
 3316 02ba 0D       		.uleb128 0xd
 3317 02bb 03060000 		.4byte	.LASF48
 3318 02bf 24       		.byte	0x24
 3319 02c0 07       		.byte	0x7
 3320 02c1 0C01     		.2byte	0x10c
 3321 02c3 48030000 		.4byte	0x348
 3322 02c7 0E       		.uleb128 0xe
 3323 02c8 723400   		.ascii	"r4\000"
 3324 02cb 07       		.byte	0x7
 3325 02cc 1F01     		.2byte	0x11f
 3326 02ce AF020000 		.4byte	0x2af
 3327 02d2 02       		.byte	0x2
 3328 02d3 23       		.byte	0x23
 3329 02d4 00       		.uleb128 0x0
 3330 02d5 0E       		.uleb128 0xe
ARM GAS  C:\Users\z80\AppData\Local\Temp\cc9PmWEj.s 			page 60


 3331 02d6 723500   		.ascii	"r5\000"
 3332 02d9 07       		.byte	0x7
 3333 02da 2001     		.2byte	0x120
 3334 02dc AF020000 		.4byte	0x2af
 3335 02e0 02       		.byte	0x2
 3336 02e1 23       		.byte	0x23
 3337 02e2 04       		.uleb128 0x4
 3338 02e3 0E       		.uleb128 0xe
 3339 02e4 723600   		.ascii	"r6\000"
 3340 02e7 07       		.byte	0x7
 3341 02e8 2101     		.2byte	0x121
 3342 02ea AF020000 		.4byte	0x2af
 3343 02ee 02       		.byte	0x2
 3344 02ef 23       		.byte	0x23
 3345 02f0 08       		.uleb128 0x8
 3346 02f1 0E       		.uleb128 0xe
 3347 02f2 723700   		.ascii	"r7\000"
 3348 02f5 07       		.byte	0x7
 3349 02f6 2201     		.2byte	0x122
 3350 02f8 AF020000 		.4byte	0x2af
 3351 02fc 02       		.byte	0x2
 3352 02fd 23       		.byte	0x23
 3353 02fe 0C       		.uleb128 0xc
 3354 02ff 0E       		.uleb128 0xe
 3355 0300 723800   		.ascii	"r8\000"
 3356 0303 07       		.byte	0x7
 3357 0304 2301     		.2byte	0x123
 3358 0306 AF020000 		.4byte	0x2af
 3359 030a 02       		.byte	0x2
 3360 030b 23       		.byte	0x23
 3361 030c 10       		.uleb128 0x10
 3362 030d 0E       		.uleb128 0xe
 3363 030e 723900   		.ascii	"r9\000"
 3364 0311 07       		.byte	0x7
 3365 0312 2401     		.2byte	0x124
 3366 0314 AF020000 		.4byte	0x2af
 3367 0318 02       		.byte	0x2
 3368 0319 23       		.byte	0x23
 3369 031a 14       		.uleb128 0x14
 3370 031b 0E       		.uleb128 0xe
 3371 031c 72313000 		.ascii	"r10\000"
 3372 0320 07       		.byte	0x7
 3373 0321 2501     		.2byte	0x125
 3374 0323 AF020000 		.4byte	0x2af
 3375 0327 02       		.byte	0x2
 3376 0328 23       		.byte	0x23
 3377 0329 18       		.uleb128 0x18
 3378 032a 0E       		.uleb128 0xe
 3379 032b 72313100 		.ascii	"r11\000"
 3380 032f 07       		.byte	0x7
 3381 0330 2601     		.2byte	0x126
 3382 0332 AF020000 		.4byte	0x2af
 3383 0336 02       		.byte	0x2
 3384 0337 23       		.byte	0x23
 3385 0338 1C       		.uleb128 0x1c
 3386 0339 0E       		.uleb128 0xe
 3387 033a 6C7200   		.ascii	"lr\000"
ARM GAS  C:\Users\z80\AppData\Local\Temp\cc9PmWEj.s 			page 61


 3388 033d 07       		.byte	0x7
 3389 033e 2701     		.2byte	0x127
 3390 0340 AF020000 		.4byte	0x2af
 3391 0344 02       		.byte	0x2
 3392 0345 23       		.byte	0x23
 3393 0346 20       		.uleb128 0x20
 3394 0347 00       		.byte	0x0
 3395 0348 0D       		.uleb128 0xd
 3396 0349 FB050000 		.4byte	.LASF49
 3397 034d 04       		.byte	0x4
 3398 034e 07       		.byte	0x7
 3399 034f 3101     		.2byte	0x131
 3400 0351 65030000 		.4byte	0x365
 3401 0355 0E       		.uleb128 0xe
 3402 0356 72313300 		.ascii	"r13\000"
 3403 035a 07       		.byte	0x7
 3404 035b 3201     		.2byte	0x132
 3405 035d 65030000 		.4byte	0x365
 3406 0361 02       		.byte	0x2
 3407 0362 23       		.byte	0x23
 3408 0363 00       		.uleb128 0x0
 3409 0364 00       		.byte	0x0
 3410 0365 06       		.uleb128 0x6
 3411 0366 04       		.byte	0x4
 3412 0367 BA020000 		.4byte	0x2ba
 3413 036b 0F       		.uleb128 0xf
 3414 036c B2000000 		.4byte	0xb2
 3415 0370 0F       		.uleb128 0xf
 3416 0371 1C010000 		.4byte	0x11c
 3417 0375 09       		.uleb128 0x9
 3418 0376 85030000 		.4byte	.LASF50
 3419 037a 10       		.byte	0x10
 3420 037b 08       		.byte	0x8
 3421 037c 2C       		.byte	0x2c
 3422 037d AC030000 		.4byte	0x3ac
 3423 0381 0A       		.uleb128 0xa
 3424 0382 40010000 		.4byte	.LASF51
 3425 0386 08       		.byte	0x8
 3426 0387 2D       		.byte	0x2d
 3427 0388 82020000 		.4byte	0x282
 3428 038c 02       		.byte	0x2
 3429 038d 23       		.byte	0x23
 3430 038e 00       		.uleb128 0x0
 3431 038f 0A       		.uleb128 0xa
 3432 0390 E7060000 		.4byte	.LASF52
 3433 0394 08       		.byte	0x8
 3434 0395 2F       		.byte	0x2f
 3435 0396 7C020000 		.4byte	0x27c
 3436 039a 02       		.byte	0x2
 3437 039b 23       		.byte	0x23
 3438 039c 08       		.uleb128 0x8
 3439 039d 0A       		.uleb128 0xa
 3440 039e D5050000 		.4byte	.LASF53
 3441 03a2 08       		.byte	0x8
 3442 03a3 31       		.byte	0x31
 3443 03a4 AC030000 		.4byte	0x3ac
 3444 03a8 02       		.byte	0x2
ARM GAS  C:\Users\z80\AppData\Local\Temp\cc9PmWEj.s 			page 62


 3445 03a9 23       		.byte	0x23
 3446 03aa 0C       		.uleb128 0xc
 3447 03ab 00       		.byte	0x0
 3448 03ac 06       		.uleb128 0x6
 3449 03ad 04       		.byte	0x4
 3450 03ae 75030000 		.4byte	0x375
 3451 03b2 08       		.uleb128 0x8
 3452 03b3 85030000 		.4byte	.LASF50
 3453 03b7 08       		.byte	0x8
 3454 03b8 33       		.byte	0x33
 3455 03b9 75030000 		.4byte	0x375
 3456 03bd 10       		.uleb128 0x10
 3457 03be 04       		.byte	0x4
 3458 03bf 06       		.byte	0x6
 3459 03c0 96       		.byte	0x96
 3460 03c1 F2030000 		.4byte	0x3f2
 3461 03c5 11       		.uleb128 0x11
 3462 03c6 25000000 		.4byte	.LASF54
 3463 03ca 06       		.byte	0x6
 3464 03cb 9D       		.byte	0x9d
 3465 03cc 06010000 		.4byte	0x106
 3466 03d0 11       		.uleb128 0x11
 3467 03d1 9E000000 		.4byte	.LASF55
 3468 03d5 06       		.byte	0x6
 3469 03d6 A4       		.byte	0xa4
 3470 03d7 06010000 		.4byte	0x106
 3471 03db 11       		.uleb128 0x11
 3472 03dc A0060000 		.4byte	.LASF56
 3473 03e0 06       		.byte	0x6
 3474 03e1 AB       		.byte	0xab
 3475 03e2 6B000000 		.4byte	0x6b
 3476 03e6 11       		.uleb128 0x11
 3477 03e7 0A050000 		.4byte	.LASF57
 3478 03eb 06       		.byte	0x6
 3479 03ec B2       		.byte	0xb2
 3480 03ed 11010000 		.4byte	0x111
 3481 03f1 00       		.byte	0x0
 3482 03f2 06       		.uleb128 0x6
 3483 03f3 04       		.byte	0x4
 3484 03f4 B2030000 		.4byte	0x3b2
 3485 03f8 06       		.uleb128 0x6
 3486 03f9 04       		.byte	0x4
 3487 03fa 91000000 		.4byte	0x91
 3488 03fe 06       		.uleb128 0x6
 3489 03ff 04       		.byte	0x4
 3490 0400 04040000 		.4byte	0x404
 3491 0404 07       		.uleb128 0x7
 3492 0405 91000000 		.4byte	0x91
 3493 0409 12       		.uleb128 0x12
 3494 040a B2000000 		.4byte	0xb2
 3495 040e 19040000 		.4byte	0x419
 3496 0412 13       		.uleb128 0x13
 3497 0413 68000000 		.4byte	0x68
 3498 0417 03       		.byte	0x3
 3499 0418 00       		.byte	0x0
 3500 0419 0F       		.uleb128 0xf
 3501 041a 9C000000 		.4byte	0x9c
ARM GAS  C:\Users\z80\AppData\Local\Temp\cc9PmWEj.s 			page 63


 3502 041e 0F       		.uleb128 0xf
 3503 041f A7000000 		.4byte	0xa7
 3504 0423 14       		.uleb128 0x14
 3505 0424 10       		.byte	0x10
 3506 0425 09       		.byte	0x9
 3507 0426 2D03     		.2byte	0x32d
 3508 0428 69040000 		.4byte	0x469
 3509 042c 0E       		.uleb128 0xe
 3510 042d 43435200 		.ascii	"CCR\000"
 3511 0431 09       		.byte	0x9
 3512 0432 2F03     		.2byte	0x32f
 3513 0434 6B030000 		.4byte	0x36b
 3514 0438 02       		.byte	0x2
 3515 0439 23       		.byte	0x23
 3516 043a 00       		.uleb128 0x0
 3517 043b 15       		.uleb128 0x15
 3518 043c 48060000 		.4byte	.LASF58
 3519 0440 09       		.byte	0x9
 3520 0441 3003     		.2byte	0x330
 3521 0443 6B030000 		.4byte	0x36b
 3522 0447 02       		.byte	0x2
 3523 0448 23       		.byte	0x23
 3524 0449 04       		.uleb128 0x4
 3525 044a 15       		.uleb128 0x15
 3526 044b 57020000 		.4byte	.LASF59
 3527 044f 09       		.byte	0x9
 3528 0450 3103     		.2byte	0x331
 3529 0452 6B030000 		.4byte	0x36b
 3530 0456 02       		.byte	0x2
 3531 0457 23       		.byte	0x23
 3532 0458 08       		.uleb128 0x8
 3533 0459 15       		.uleb128 0x15
 3534 045a 4E060000 		.4byte	.LASF60
 3535 045e 09       		.byte	0x9
 3536 045f 3203     		.2byte	0x332
 3537 0461 6B030000 		.4byte	0x36b
 3538 0465 02       		.byte	0x2
 3539 0466 23       		.byte	0x23
 3540 0467 0C       		.uleb128 0xc
 3541 0468 00       		.byte	0x0
 3542 0469 16       		.uleb128 0x16
 3543 046a 21040000 		.4byte	.LASF61
 3544 046e 09       		.byte	0x9
 3545 046f 3303     		.2byte	0x333
 3546 0471 23040000 		.4byte	0x423
 3547 0475 14       		.uleb128 0x14
 3548 0476 1C       		.byte	0x1c
 3549 0477 09       		.byte	0x9
 3550 0478 F803     		.2byte	0x3f8
 3551 047a E8040000 		.4byte	0x4e8
 3552 047e 0E       		.uleb128 0xe
 3553 047f 43524C00 		.ascii	"CRL\000"
 3554 0483 09       		.byte	0x9
 3555 0484 FA03     		.2byte	0x3fa
 3556 0486 6B030000 		.4byte	0x36b
 3557 048a 02       		.byte	0x2
 3558 048b 23       		.byte	0x23
ARM GAS  C:\Users\z80\AppData\Local\Temp\cc9PmWEj.s 			page 64


 3559 048c 00       		.uleb128 0x0
 3560 048d 0E       		.uleb128 0xe
 3561 048e 43524800 		.ascii	"CRH\000"
 3562 0492 09       		.byte	0x9
 3563 0493 FB03     		.2byte	0x3fb
 3564 0495 6B030000 		.4byte	0x36b
 3565 0499 02       		.byte	0x2
 3566 049a 23       		.byte	0x23
 3567 049b 04       		.uleb128 0x4
 3568 049c 0E       		.uleb128 0xe
 3569 049d 49445200 		.ascii	"IDR\000"
 3570 04a1 09       		.byte	0x9
 3571 04a2 FC03     		.2byte	0x3fc
 3572 04a4 6B030000 		.4byte	0x36b
 3573 04a8 02       		.byte	0x2
 3574 04a9 23       		.byte	0x23
 3575 04aa 08       		.uleb128 0x8
 3576 04ab 0E       		.uleb128 0xe
 3577 04ac 4F445200 		.ascii	"ODR\000"
 3578 04b0 09       		.byte	0x9
 3579 04b1 FD03     		.2byte	0x3fd
 3580 04b3 6B030000 		.4byte	0x36b
 3581 04b7 02       		.byte	0x2
 3582 04b8 23       		.byte	0x23
 3583 04b9 0C       		.uleb128 0xc
 3584 04ba 15       		.uleb128 0x15
 3585 04bb 3D060000 		.4byte	.LASF62
 3586 04bf 09       		.byte	0x9
 3587 04c0 FE03     		.2byte	0x3fe
 3588 04c2 6B030000 		.4byte	0x36b
 3589 04c6 02       		.byte	0x2
 3590 04c7 23       		.byte	0x23
 3591 04c8 10       		.uleb128 0x10
 3592 04c9 0E       		.uleb128 0xe
 3593 04ca 42525200 		.ascii	"BRR\000"
 3594 04ce 09       		.byte	0x9
 3595 04cf FF03     		.2byte	0x3ff
 3596 04d1 6B030000 		.4byte	0x36b
 3597 04d5 02       		.byte	0x2
 3598 04d6 23       		.byte	0x23
 3599 04d7 14       		.uleb128 0x14
 3600 04d8 15       		.uleb128 0x15
 3601 04d9 7D020000 		.4byte	.LASF63
 3602 04dd 09       		.byte	0x9
 3603 04de 0004     		.2byte	0x400
 3604 04e0 6B030000 		.4byte	0x36b
 3605 04e4 02       		.byte	0x2
 3606 04e5 23       		.byte	0x23
 3607 04e6 18       		.uleb128 0x18
 3608 04e7 00       		.byte	0x0
 3609 04e8 16       		.uleb128 0x16
 3610 04e9 70020000 		.4byte	.LASF64
 3611 04ed 09       		.byte	0x9
 3612 04ee 0104     		.2byte	0x401
 3613 04f0 75040000 		.4byte	0x475
 3614 04f4 14       		.uleb128 0x14
 3615 04f5 24       		.byte	0x24
ARM GAS  C:\Users\z80\AppData\Local\Temp\cc9PmWEj.s 			page 65


 3616 04f6 09       		.byte	0x9
 3617 04f7 9704     		.2byte	0x497
 3618 04f9 0A060000 		.4byte	0x60a
 3619 04fd 0E       		.uleb128 0xe
 3620 04fe 43523100 		.ascii	"CR1\000"
 3621 0502 09       		.byte	0x9
 3622 0503 9904     		.2byte	0x499
 3623 0505 19040000 		.4byte	0x419
 3624 0509 02       		.byte	0x2
 3625 050a 23       		.byte	0x23
 3626 050b 00       		.uleb128 0x0
 3627 050c 15       		.uleb128 0x15
 3628 050d 44040000 		.4byte	.LASF65
 3629 0511 09       		.byte	0x9
 3630 0512 9A04     		.2byte	0x49a
 3631 0514 9C000000 		.4byte	0x9c
 3632 0518 02       		.byte	0x2
 3633 0519 23       		.byte	0x23
 3634 051a 02       		.uleb128 0x2
 3635 051b 0E       		.uleb128 0xe
 3636 051c 43523200 		.ascii	"CR2\000"
 3637 0520 09       		.byte	0x9
 3638 0521 9B04     		.2byte	0x49b
 3639 0523 19040000 		.4byte	0x419
 3640 0527 02       		.byte	0x2
 3641 0528 23       		.byte	0x23
 3642 0529 04       		.uleb128 0x4
 3643 052a 15       		.uleb128 0x15
 3644 052b 4E040000 		.4byte	.LASF66
 3645 052f 09       		.byte	0x9
 3646 0530 9C04     		.2byte	0x49c
 3647 0532 9C000000 		.4byte	0x9c
 3648 0536 02       		.byte	0x2
 3649 0537 23       		.byte	0x23
 3650 0538 06       		.uleb128 0x6
 3651 0539 0E       		.uleb128 0xe
 3652 053a 535200   		.ascii	"SR\000"
 3653 053d 09       		.byte	0x9
 3654 053e 9D04     		.2byte	0x49d
 3655 0540 19040000 		.4byte	0x419
 3656 0544 02       		.byte	0x2
 3657 0545 23       		.byte	0x23
 3658 0546 08       		.uleb128 0x8
 3659 0547 15       		.uleb128 0x15
 3660 0548 58040000 		.4byte	.LASF67
 3661 054c 09       		.byte	0x9
 3662 054d 9E04     		.2byte	0x49e
 3663 054f 9C000000 		.4byte	0x9c
 3664 0553 02       		.byte	0x2
 3665 0554 23       		.byte	0x23
 3666 0555 0A       		.uleb128 0xa
 3667 0556 0E       		.uleb128 0xe
 3668 0557 445200   		.ascii	"DR\000"
 3669 055a 09       		.byte	0x9
 3670 055b 9F04     		.2byte	0x49f
 3671 055d 19040000 		.4byte	0x419
 3672 0561 02       		.byte	0x2
ARM GAS  C:\Users\z80\AppData\Local\Temp\cc9PmWEj.s 			page 66


 3673 0562 23       		.byte	0x23
 3674 0563 0C       		.uleb128 0xc
 3675 0564 15       		.uleb128 0x15
 3676 0565 62040000 		.4byte	.LASF68
 3677 0569 09       		.byte	0x9
 3678 056a A004     		.2byte	0x4a0
 3679 056c 9C000000 		.4byte	0x9c
 3680 0570 02       		.byte	0x2
 3681 0571 23       		.byte	0x23
 3682 0572 0E       		.uleb128 0xe
 3683 0573 15       		.uleb128 0x15
 3684 0574 93000000 		.4byte	.LASF69
 3685 0578 09       		.byte	0x9
 3686 0579 A104     		.2byte	0x4a1
 3687 057b 19040000 		.4byte	0x419
 3688 057f 02       		.byte	0x2
 3689 0580 23       		.byte	0x23
 3690 0581 10       		.uleb128 0x10
 3691 0582 15       		.uleb128 0x15
 3692 0583 6C040000 		.4byte	.LASF70
 3693 0587 09       		.byte	0x9
 3694 0588 A204     		.2byte	0x4a2
 3695 058a 9C000000 		.4byte	0x9c
 3696 058e 02       		.byte	0x2
 3697 058f 23       		.byte	0x23
 3698 0590 12       		.uleb128 0x12
 3699 0591 15       		.uleb128 0x15
 3700 0592 53060000 		.4byte	.LASF71
 3701 0596 09       		.byte	0x9
 3702 0597 A304     		.2byte	0x4a3
 3703 0599 19040000 		.4byte	0x419
 3704 059d 02       		.byte	0x2
 3705 059e 23       		.byte	0x23
 3706 059f 14       		.uleb128 0x14
 3707 05a0 15       		.uleb128 0x15
 3708 05a1 5F050000 		.4byte	.LASF72
 3709 05a5 09       		.byte	0x9
 3710 05a6 A404     		.2byte	0x4a4
 3711 05a8 9C000000 		.4byte	0x9c
 3712 05ac 02       		.byte	0x2
 3713 05ad 23       		.byte	0x23
 3714 05ae 16       		.uleb128 0x16
 3715 05af 15       		.uleb128 0x15
 3716 05b0 3D040000 		.4byte	.LASF73
 3717 05b4 09       		.byte	0x9
 3718 05b5 A504     		.2byte	0x4a5
 3719 05b7 19040000 		.4byte	0x419
 3720 05bb 02       		.byte	0x2
 3721 05bc 23       		.byte	0x23
 3722 05bd 18       		.uleb128 0x18
 3723 05be 15       		.uleb128 0x15
 3724 05bf 7D040000 		.4byte	.LASF74
 3725 05c3 09       		.byte	0x9
 3726 05c4 A604     		.2byte	0x4a6
 3727 05c6 9C000000 		.4byte	0x9c
 3728 05ca 02       		.byte	0x2
 3729 05cb 23       		.byte	0x23
ARM GAS  C:\Users\z80\AppData\Local\Temp\cc9PmWEj.s 			page 67


 3730 05cc 1A       		.uleb128 0x1a
 3731 05cd 15       		.uleb128 0x15
 3732 05ce 8B030000 		.4byte	.LASF75
 3733 05d2 09       		.byte	0x9
 3734 05d3 A704     		.2byte	0x4a7
 3735 05d5 19040000 		.4byte	0x419
 3736 05d9 02       		.byte	0x2
 3737 05da 23       		.byte	0x23
 3738 05db 1C       		.uleb128 0x1c
 3739 05dc 15       		.uleb128 0x15
 3740 05dd 87040000 		.4byte	.LASF76
 3741 05e1 09       		.byte	0x9
 3742 05e2 A804     		.2byte	0x4a8
 3743 05e4 9C000000 		.4byte	0x9c
 3744 05e8 02       		.byte	0x2
 3745 05e9 23       		.byte	0x23
 3746 05ea 1E       		.uleb128 0x1e
 3747 05eb 15       		.uleb128 0x15
 3748 05ec A7020000 		.4byte	.LASF77
 3749 05f0 09       		.byte	0x9
 3750 05f1 A904     		.2byte	0x4a9
 3751 05f3 19040000 		.4byte	0x419
 3752 05f7 02       		.byte	0x2
 3753 05f8 23       		.byte	0x23
 3754 05f9 20       		.uleb128 0x20
 3755 05fa 15       		.uleb128 0x15
 3756 05fb 91040000 		.4byte	.LASF78
 3757 05ff 09       		.byte	0x9
 3758 0600 AA04     		.2byte	0x4aa
 3759 0602 9C000000 		.4byte	0x9c
 3760 0606 02       		.byte	0x2
 3761 0607 23       		.byte	0x23
 3762 0608 22       		.uleb128 0x22
 3763 0609 00       		.byte	0x0
 3764 060a 16       		.uleb128 0x16
 3765 060b 99050000 		.4byte	.LASF79
 3766 060f 09       		.byte	0x9
 3767 0610 AB04     		.2byte	0x4ab
 3768 0612 F4040000 		.4byte	0x4f4
 3769 0616 0C       		.uleb128 0xc
 3770 0617 0C       		.byte	0xc
 3771 0618 0A       		.byte	0xa
 3772 0619 C1       		.byte	0xc1
 3773 061a 65060000 		.4byte	0x665
 3774 061e 0A       		.uleb128 0xa
 3775 061f 09020000 		.4byte	.LASF80
 3776 0623 0A       		.byte	0xa
 3777 0624 C2       		.byte	0xc2
 3778 0625 65060000 		.4byte	0x665
 3779 0629 02       		.byte	0x2
 3780 062a 23       		.byte	0x23
 3781 062b 00       		.uleb128 0x0
 3782 062c 0A       		.uleb128 0xa
 3783 062d 5A050000 		.4byte	.LASF81
 3784 0631 0A       		.byte	0xa
 3785 0632 C3       		.byte	0xc3
 3786 0633 6B060000 		.4byte	0x66b
ARM GAS  C:\Users\z80\AppData\Local\Temp\cc9PmWEj.s 			page 68


 3787 0637 02       		.byte	0x2
 3788 0638 23       		.byte	0x23
 3789 0639 04       		.uleb128 0x4
 3790 063a 0A       		.uleb128 0xa
 3791 063b 82020000 		.4byte	.LASF82
 3792 063f 0A       		.byte	0xa
 3793 0640 C4       		.byte	0xc4
 3794 0641 91000000 		.4byte	0x91
 3795 0645 02       		.byte	0x2
 3796 0646 23       		.byte	0x23
 3797 0647 08       		.uleb128 0x8
 3798 0648 0A       		.uleb128 0xa
 3799 0649 FF010000 		.4byte	.LASF83
 3800 064d 0A       		.byte	0xa
 3801 064e C6       		.byte	0xc6
 3802 064f 91000000 		.4byte	0x91
 3803 0653 02       		.byte	0x2
 3804 0654 23       		.byte	0x23
 3805 0655 09       		.uleb128 0x9
 3806 0656 0A       		.uleb128 0xa
 3807 0657 A7000000 		.4byte	.LASF84
 3808 065b 0A       		.byte	0xa
 3809 065c C7       		.byte	0xc7
 3810 065d 91000000 		.4byte	0x91
 3811 0661 02       		.byte	0x2
 3812 0662 23       		.byte	0x23
 3813 0663 0A       		.uleb128 0xa
 3814 0664 00       		.byte	0x0
 3815 0665 06       		.uleb128 0x6
 3816 0666 04       		.byte	0x4
 3817 0667 69040000 		.4byte	0x469
 3818 066b 06       		.uleb128 0x6
 3819 066c 04       		.byte	0x4
 3820 066d 6B030000 		.4byte	0x36b
 3821 0671 08       		.uleb128 0x8
 3822 0672 C5040000 		.4byte	.LASF85
 3823 0676 0A       		.byte	0xa
 3824 0677 C8       		.byte	0xc8
 3825 0678 16060000 		.4byte	0x616
 3826 067c 17       		.uleb128 0x17
 3827 067d 01       		.byte	0x1
 3828 067e 0B       		.byte	0xb
 3829 067f 33       		.byte	0x33
 3830 0680 BB060000 		.4byte	0x6bb
 3831 0684 18       		.uleb128 0x18
 3832 0685 5B010000 		.4byte	.LASF86
 3833 0689 00       		.sleb128 0
 3834 068a 18       		.uleb128 0x18
 3835 068b AC010000 		.4byte	.LASF87
 3836 068f 01       		.sleb128 1
 3837 0690 18       		.uleb128 0x18
 3838 0691 9C020000 		.4byte	.LASF88
 3839 0695 02       		.sleb128 2
 3840 0696 18       		.uleb128 0x18
 3841 0697 D4020000 		.4byte	.LASF89
 3842 069b 03       		.sleb128 3
 3843 069c 18       		.uleb128 0x18
ARM GAS  C:\Users\z80\AppData\Local\Temp\cc9PmWEj.s 			page 69


 3844 069d BC050000 		.4byte	.LASF90
 3845 06a1 04       		.sleb128 4
 3846 06a2 18       		.uleb128 0x18
 3847 06a3 CE030000 		.4byte	.LASF91
 3848 06a7 05       		.sleb128 5
 3849 06a8 18       		.uleb128 0x18
 3850 06a9 63030000 		.4byte	.LASF92
 3851 06ad 06       		.sleb128 6
 3852 06ae 18       		.uleb128 0x18
 3853 06af F4040000 		.4byte	.LASF93
 3854 06b3 07       		.sleb128 7
 3855 06b4 18       		.uleb128 0x18
 3856 06b5 AB030000 		.4byte	.LASF94
 3857 06b9 08       		.sleb128 8
 3858 06ba 00       		.byte	0x0
 3859 06bb 08       		.uleb128 0x8
 3860 06bc DE000000 		.4byte	.LASF95
 3861 06c0 0B       		.byte	0xb
 3862 06c1 3D       		.byte	0x3d
 3863 06c2 7C060000 		.4byte	0x67c
 3864 06c6 0C       		.uleb128 0xc
 3865 06c7 08       		.byte	0x8
 3866 06c8 0B       		.byte	0xb
 3867 06c9 42       		.byte	0x42
 3868 06ca EB060000 		.4byte	0x6eb
 3869 06ce 0A       		.uleb128 0xa
 3870 06cf 1F020000 		.4byte	.LASF96
 3871 06d3 0B       		.byte	0xb
 3872 06d4 43       		.byte	0x43
 3873 06d5 B2000000 		.4byte	0xb2
 3874 06d9 02       		.byte	0x2
 3875 06da 23       		.byte	0x23
 3876 06db 00       		.uleb128 0x0
 3877 06dc 0A       		.uleb128 0xa
 3878 06dd 1D000000 		.4byte	.LASF97
 3879 06e1 0B       		.byte	0xb
 3880 06e2 44       		.byte	0x44
 3881 06e3 B2000000 		.4byte	0xb2
 3882 06e7 02       		.byte	0x2
 3883 06e8 23       		.byte	0x23
 3884 06e9 04       		.uleb128 0x4
 3885 06ea 00       		.byte	0x0
 3886 06eb 08       		.uleb128 0x8
 3887 06ec 00000000 		.4byte	.LASF98
 3888 06f0 0B       		.byte	0xb
 3889 06f1 45       		.byte	0x45
 3890 06f2 C6060000 		.4byte	0x6c6
 3891 06f6 19       		.uleb128 0x19
 3892 06f7 01       		.byte	0x1
 3893 06f8 BD000000 		.4byte	0xbd
 3894 06fc 06070000 		.4byte	0x706
 3895 0700 1A       		.uleb128 0x1a
 3896 0701 6B000000 		.4byte	0x6b
 3897 0705 00       		.byte	0x0
 3898 0706 06       		.uleb128 0x6
 3899 0707 04       		.byte	0x4
 3900 0708 F6060000 		.4byte	0x6f6
ARM GAS  C:\Users\z80\AppData\Local\Temp\cc9PmWEj.s 			page 70


 3901 070c 19       		.uleb128 0x19
 3902 070d 01       		.byte	0x1
 3903 070e BD000000 		.4byte	0xbd
 3904 0712 2B070000 		.4byte	0x72b
 3905 0716 1A       		.uleb128 0x1a
 3906 0717 6B000000 		.4byte	0x6b
 3907 071b 1A       		.uleb128 0x1a
 3908 071c B2000000 		.4byte	0xb2
 3909 0720 1A       		.uleb128 0x1a
 3910 0721 F8030000 		.4byte	0x3f8
 3911 0725 1A       		.uleb128 0x1a
 3912 0726 B2000000 		.4byte	0xb2
 3913 072a 00       		.byte	0x0
 3914 072b 06       		.uleb128 0x6
 3915 072c 04       		.byte	0x4
 3916 072d 0C070000 		.4byte	0x70c
 3917 0731 19       		.uleb128 0x19
 3918 0732 01       		.byte	0x1
 3919 0733 BD000000 		.4byte	0xbd
 3920 0737 50070000 		.4byte	0x750
 3921 073b 1A       		.uleb128 0x1a
 3922 073c 6B000000 		.4byte	0x6b
 3923 0740 1A       		.uleb128 0x1a
 3924 0741 B2000000 		.4byte	0xb2
 3925 0745 1A       		.uleb128 0x1a
 3926 0746 FE030000 		.4byte	0x3fe
 3927 074a 1A       		.uleb128 0x1a
 3928 074b B2000000 		.4byte	0xb2
 3929 074f 00       		.byte	0x0
 3930 0750 06       		.uleb128 0x6
 3931 0751 04       		.byte	0x4
 3932 0752 31070000 		.4byte	0x731
 3933 0756 19       		.uleb128 0x19
 3934 0757 01       		.byte	0x1
 3935 0758 BD000000 		.4byte	0xbd
 3936 075c 6B070000 		.4byte	0x76b
 3937 0760 1A       		.uleb128 0x1a
 3938 0761 6B000000 		.4byte	0x6b
 3939 0765 1A       		.uleb128 0x1a
 3940 0766 6B070000 		.4byte	0x76b
 3941 076a 00       		.byte	0x0
 3942 076b 06       		.uleb128 0x6
 3943 076c 04       		.byte	0x4
 3944 076d EB060000 		.4byte	0x6eb
 3945 0771 06       		.uleb128 0x6
 3946 0772 04       		.byte	0x4
 3947 0773 56070000 		.4byte	0x756
 3948 0777 08       		.uleb128 0x8
 3949 0778 6C010000 		.4byte	.LASF99
 3950 077c 0C       		.byte	0xc
 3951 077d 7A       		.byte	0x7a
 3952 077e 82070000 		.4byte	0x782
 3953 0782 06       		.uleb128 0x6
 3954 0783 04       		.byte	0x4
 3955 0784 E8040000 		.4byte	0x4e8
 3956 0788 06       		.uleb128 0x6
 3957 0789 04       		.byte	0x4
ARM GAS  C:\Users\z80\AppData\Local\Temp\cc9PmWEj.s 			page 71


 3958 078a 8E070000 		.4byte	0x78e
 3959 078e 07       		.uleb128 0x7
 3960 078f 71060000 		.4byte	0x671
 3961 0793 12       		.uleb128 0x12
 3962 0794 91000000 		.4byte	0x91
 3963 0798 A3070000 		.4byte	0x7a3
 3964 079c 13       		.uleb128 0x13
 3965 079d 68000000 		.4byte	0x68
 3966 07a1 0F       		.byte	0xf
 3967 07a2 00       		.byte	0x0
 3968 07a3 17       		.uleb128 0x17
 3969 07a4 01       		.byte	0x1
 3970 07a5 0D       		.byte	0xd
 3971 07a6 55       		.byte	0x55
 3972 07a7 CA070000 		.4byte	0x7ca
 3973 07ab 18       		.uleb128 0x18
 3974 07ac 21060000 		.4byte	.LASF100
 3975 07b0 00       		.sleb128 0
 3976 07b1 18       		.uleb128 0x18
 3977 07b2 28010000 		.4byte	.LASF101
 3978 07b6 01       		.sleb128 1
 3979 07b7 18       		.uleb128 0x18
 3980 07b8 17060000 		.4byte	.LASF102
 3981 07bc 02       		.sleb128 2
 3982 07bd 18       		.uleb128 0x18
 3983 07be 7A030000 		.4byte	.LASF103
 3984 07c2 03       		.sleb128 3
 3985 07c3 18       		.uleb128 0x18
 3986 07c4 AF050000 		.4byte	.LASF104
 3987 07c8 04       		.sleb128 4
 3988 07c9 00       		.byte	0x0
 3989 07ca 08       		.uleb128 0x8
 3990 07cb EB020000 		.4byte	.LASF105
 3991 07cf 0D       		.byte	0xd
 3992 07d0 5B       		.byte	0x5b
 3993 07d1 A3070000 		.4byte	0x7a3
 3994 07d5 16       		.uleb128 0x16
 3995 07d6 C0000000 		.4byte	.LASF106
 3996 07da 0E       		.byte	0xe
 3997 07db E701     		.2byte	0x1e7
 3998 07dd E1070000 		.4byte	0x7e1
 3999 07e1 0D       		.uleb128 0xd
 4000 07e2 C0000000 		.4byte	.LASF106
 4001 07e6 30       		.byte	0x30
 4002 07e7 0E       		.byte	0xe
 4003 07e8 0B02     		.2byte	0x20b
 4004 07ea 76080000 		.4byte	0x876
 4005 07ee 15       		.uleb128 0x15
 4006 07ef 66010000 		.4byte	.LASF107
 4007 07f3 0E       		.byte	0xe
 4008 07f4 0F02     		.2byte	0x20f
 4009 07f6 CA070000 		.4byte	0x7ca
 4010 07fa 02       		.byte	0x2
 4011 07fb 23       		.byte	0x23
 4012 07fc 00       		.uleb128 0x0
 4013 07fd 15       		.uleb128 0x15
 4014 07fe CE050000 		.4byte	.LASF108
ARM GAS  C:\Users\z80\AppData\Local\Temp\cc9PmWEj.s 			page 72


 4015 0802 0E       		.byte	0xe
 4016 0803 1302     		.2byte	0x213
 4017 0805 EC080000 		.4byte	0x8ec
 4018 0809 02       		.byte	0x2
 4019 080a 23       		.byte	0x23
 4020 080b 04       		.uleb128 0x4
 4021 080c 15       		.uleb128 0x15
 4022 080d 97010000 		.4byte	.LASF109
 4023 0811 0E       		.byte	0xe
 4024 0812 1802     		.2byte	0x218
 4025 0814 7C020000 		.4byte	0x27c
 4026 0818 02       		.byte	0x2
 4027 0819 23       		.byte	0x23
 4028 081a 08       		.uleb128 0x8
 4029 081b 15       		.uleb128 0x15
 4030 081c A3040000 		.4byte	.LASF110
 4031 0820 0E       		.byte	0xe
 4032 0821 1F02     		.2byte	0x21f
 4033 0823 B2030000 		.4byte	0x3b2
 4034 0827 02       		.byte	0x2
 4035 0828 23       		.byte	0x23
 4036 0829 0C       		.uleb128 0xc
 4037 082a 0E       		.uleb128 0xe
 4038 082b 73706900 		.ascii	"spi\000"
 4039 082f 0E       		.byte	0xe
 4040 0830 2B02     		.2byte	0x22b
 4041 0832 F7080000 		.4byte	0x8f7
 4042 0836 02       		.byte	0x2
 4043 0837 23       		.byte	0x23
 4044 0838 1C       		.uleb128 0x1c
 4045 0839 15       		.uleb128 0x15
 4046 083a 10000000 		.4byte	.LASF111
 4047 083e 0E       		.byte	0xe
 4048 083f 2F02     		.2byte	0x22f
 4049 0841 88070000 		.4byte	0x788
 4050 0845 02       		.byte	0x2
 4051 0846 23       		.byte	0x23
 4052 0847 20       		.uleb128 0x20
 4053 0848 15       		.uleb128 0x15
 4054 0849 F0010000 		.4byte	.LASF112
 4055 084d 0E       		.byte	0xe
 4056 084e 3302     		.2byte	0x233
 4057 0850 88070000 		.4byte	0x788
 4058 0854 02       		.byte	0x2
 4059 0855 23       		.byte	0x23
 4060 0856 24       		.uleb128 0x24
 4061 0857 15       		.uleb128 0x15
 4062 0858 DD010000 		.4byte	.LASF113
 4063 085c 0E       		.byte	0xe
 4064 085d 3702     		.2byte	0x237
 4065 085f B2000000 		.4byte	0xb2
 4066 0863 02       		.byte	0x2
 4067 0864 23       		.byte	0x23
 4068 0865 28       		.uleb128 0x28
 4069 0866 15       		.uleb128 0x15
 4070 0867 E5030000 		.4byte	.LASF114
 4071 086b 0E       		.byte	0xe
ARM GAS  C:\Users\z80\AppData\Local\Temp\cc9PmWEj.s 			page 73


 4072 086c 3B02     		.2byte	0x23b
 4073 086e B2000000 		.4byte	0xb2
 4074 0872 02       		.byte	0x2
 4075 0873 23       		.byte	0x23
 4076 0874 2C       		.uleb128 0x2c
 4077 0875 00       		.byte	0x0
 4078 0876 16       		.uleb128 0x16
 4079 0877 11020000 		.4byte	.LASF115
 4080 087b 0E       		.byte	0xe
 4081 087c EF01     		.2byte	0x1ef
 4082 087e 82080000 		.4byte	0x882
 4083 0882 06       		.uleb128 0x6
 4084 0883 04       		.byte	0x4
 4085 0884 88080000 		.4byte	0x888
 4086 0888 1B       		.uleb128 0x1b
 4087 0889 01       		.byte	0x1
 4088 088a 94080000 		.4byte	0x894
 4089 088e 1A       		.uleb128 0x1a
 4090 088f 94080000 		.4byte	0x894
 4091 0893 00       		.byte	0x0
 4092 0894 06       		.uleb128 0x6
 4093 0895 04       		.byte	0x4
 4094 0896 D5070000 		.4byte	0x7d5
 4095 089a 14       		.uleb128 0x14
 4096 089b 0C       		.byte	0xc
 4097 089c 0E       		.byte	0xe
 4098 089d F401     		.2byte	0x1f4
 4099 089f E0080000 		.4byte	0x8e0
 4100 08a3 15       		.uleb128 0x15
 4101 08a4 D6010000 		.4byte	.LASF116
 4102 08a8 0E       		.byte	0xe
 4103 08a9 F801     		.2byte	0x1f8
 4104 08ab 76080000 		.4byte	0x876
 4105 08af 02       		.byte	0x2
 4106 08b0 23       		.byte	0x23
 4107 08b1 00       		.uleb128 0x0
 4108 08b2 15       		.uleb128 0x15
 4109 08b3 CA000000 		.4byte	.LASF117
 4110 08b7 0E       		.byte	0xe
 4111 08b8 FD01     		.2byte	0x1fd
 4112 08ba 77070000 		.4byte	0x777
 4113 08be 02       		.byte	0x2
 4114 08bf 23       		.byte	0x23
 4115 08c0 04       		.uleb128 0x4
 4116 08c1 15       		.uleb128 0x15
 4117 08c2 76000000 		.4byte	.LASF118
 4118 08c6 0E       		.byte	0xe
 4119 08c7 0102     		.2byte	0x201
 4120 08c9 9C000000 		.4byte	0x9c
 4121 08cd 02       		.byte	0x2
 4122 08ce 23       		.byte	0x23
 4123 08cf 08       		.uleb128 0x8
 4124 08d0 0E       		.uleb128 0xe
 4125 08d1 63723100 		.ascii	"cr1\000"
 4126 08d5 0E       		.byte	0xe
 4127 08d6 0502     		.2byte	0x205
 4128 08d8 9C000000 		.4byte	0x9c
ARM GAS  C:\Users\z80\AppData\Local\Temp\cc9PmWEj.s 			page 74


 4129 08dc 02       		.byte	0x2
 4130 08dd 23       		.byte	0x23
 4131 08de 0A       		.uleb128 0xa
 4132 08df 00       		.byte	0x0
 4133 08e0 16       		.uleb128 0x16
 4134 08e1 AE060000 		.4byte	.LASF119
 4135 08e5 0E       		.byte	0xe
 4136 08e6 0602     		.2byte	0x206
 4137 08e8 9A080000 		.4byte	0x89a
 4138 08ec 06       		.uleb128 0x6
 4139 08ed 04       		.byte	0x4
 4140 08ee F2080000 		.4byte	0x8f2
 4141 08f2 07       		.uleb128 0x7
 4142 08f3 E0080000 		.4byte	0x8e0
 4143 08f7 06       		.uleb128 0x6
 4144 08f8 04       		.byte	0x4
 4145 08f9 0A060000 		.4byte	0x60a
 4146 08fd 0C       		.uleb128 0xc
 4147 08fe 0C       		.byte	0xc
 4148 08ff 0F       		.byte	0xf
 4149 0900 56       		.byte	0x56
 4150 0901 30090000 		.4byte	0x930
 4151 0905 0A       		.uleb128 0xa
 4152 0906 F6020000 		.4byte	.LASF120
 4153 090a 0F       		.byte	0xf
 4154 090b 5A       		.byte	0x5a
 4155 090c 94080000 		.4byte	0x894
 4156 0910 02       		.byte	0x2
 4157 0911 23       		.byte	0x23
 4158 0912 00       		.uleb128 0x0
 4159 0913 0A       		.uleb128 0xa
 4160 0914 AD020000 		.4byte	.LASF121
 4161 0918 0F       		.byte	0xf
 4162 0919 5E       		.byte	0x5e
 4163 091a EC080000 		.4byte	0x8ec
 4164 091e 02       		.byte	0x2
 4165 091f 23       		.byte	0x23
 4166 0920 04       		.uleb128 0x4
 4167 0921 0A       		.uleb128 0xa
 4168 0922 42060000 		.4byte	.LASF122
 4169 0926 0F       		.byte	0xf
 4170 0927 62       		.byte	0x62
 4171 0928 EC080000 		.4byte	0x8ec
 4172 092c 02       		.byte	0x2
 4173 092d 23       		.byte	0x23
 4174 092e 08       		.uleb128 0x8
 4175 092f 00       		.byte	0x0
 4176 0930 08       		.uleb128 0x8
 4177 0931 EF030000 		.4byte	.LASF123
 4178 0935 0F       		.byte	0xf
 4179 0936 63       		.byte	0x63
 4180 0937 FD080000 		.4byte	0x8fd
 4181 093b 09       		.uleb128 0x9
 4182 093c 57000000 		.4byte	.LASF124
 4183 0940 20       		.byte	0x20
 4184 0941 0F       		.byte	0xf
 4185 0942 70       		.byte	0x70
ARM GAS  C:\Users\z80\AppData\Local\Temp\cc9PmWEj.s 			page 75


 4186 0943 B8090000 		.4byte	0x9b8
 4187 0947 0A       		.uleb128 0xa
 4188 0948 1C010000 		.4byte	.LASF125
 4189 094c 0F       		.byte	0xf
 4190 094d 71       		.byte	0x71
 4191 094e 06070000 		.4byte	0x706
 4192 0952 02       		.byte	0x2
 4193 0953 23       		.byte	0x23
 4194 0954 00       		.uleb128 0x0
 4195 0955 0A       		.uleb128 0xa
 4196 0956 0A060000 		.4byte	.LASF126
 4197 095a 0F       		.byte	0xf
 4198 095b 71       		.byte	0x71
 4199 095c 06070000 		.4byte	0x706
 4200 0960 02       		.byte	0x2
 4201 0961 23       		.byte	0x23
 4202 0962 04       		.uleb128 0x4
 4203 0963 0A       		.uleb128 0xa
 4204 0964 53010000 		.4byte	.LASF127
 4205 0968 0F       		.byte	0xf
 4206 0969 71       		.byte	0x71
 4207 096a 06070000 		.4byte	0x706
 4208 096e 02       		.byte	0x2
 4209 096f 23       		.byte	0x23
 4210 0970 08       		.uleb128 0x8
 4211 0971 0A       		.uleb128 0xa
 4212 0972 48010000 		.4byte	.LASF128
 4213 0976 0F       		.byte	0xf
 4214 0977 71       		.byte	0x71
 4215 0978 06070000 		.4byte	0x706
 4216 097c 02       		.byte	0x2
 4217 097d 23       		.byte	0x23
 4218 097e 0C       		.uleb128 0xc
 4219 097f 0A       		.uleb128 0xa
 4220 0980 A5050000 		.4byte	.LASF129
 4221 0984 0F       		.byte	0xf
 4222 0985 71       		.byte	0x71
 4223 0986 2B070000 		.4byte	0x72b
 4224 098a 02       		.byte	0x2
 4225 098b 23       		.byte	0x23
 4226 098c 10       		.uleb128 0x10
 4227 098d 0A       		.uleb128 0xa
 4228 098e 4B030000 		.4byte	.LASF130
 4229 0992 0F       		.byte	0xf
 4230 0993 71       		.byte	0x71
 4231 0994 50070000 		.4byte	0x750
 4232 0998 02       		.byte	0x2
 4233 0999 23       		.byte	0x23
 4234 099a 14       		.uleb128 0x14
 4235 099b 0A       		.uleb128 0xa
 4236 099c 88060000 		.4byte	.LASF131
 4237 09a0 0F       		.byte	0xf
 4238 09a1 71       		.byte	0x71
 4239 09a2 06070000 		.4byte	0x706
 4240 09a6 02       		.byte	0x2
 4241 09a7 23       		.byte	0x23
 4242 09a8 18       		.uleb128 0x18
ARM GAS  C:\Users\z80\AppData\Local\Temp\cc9PmWEj.s 			page 76


 4243 09a9 0A       		.uleb128 0xa
 4244 09aa E7010000 		.4byte	.LASF132
 4245 09ae 0F       		.byte	0xf
 4246 09af 71       		.byte	0x71
 4247 09b0 71070000 		.4byte	0x771
 4248 09b4 02       		.byte	0x2
 4249 09b5 23       		.byte	0x23
 4250 09b6 1C       		.uleb128 0x1c
 4251 09b7 00       		.byte	0x0
 4252 09b8 0C       		.uleb128 0xc
 4253 09b9 34       		.byte	0x34
 4254 09ba 0F       		.byte	0xf
 4255 09bb 79       		.byte	0x79
 4256 09bc 230A0000 		.4byte	0xa23
 4257 09c0 0B       		.uleb128 0xb
 4258 09c1 766D7400 		.ascii	"vmt\000"
 4259 09c5 0F       		.byte	0xf
 4260 09c6 7D       		.byte	0x7d
 4261 09c7 230A0000 		.4byte	0xa23
 4262 09cb 02       		.byte	0x2
 4263 09cc 23       		.byte	0x23
 4264 09cd 00       		.uleb128 0x0
 4265 09ce 0A       		.uleb128 0xa
 4266 09cf 66010000 		.4byte	.LASF107
 4267 09d3 0F       		.byte	0xf
 4268 09d4 7E       		.byte	0x7e
 4269 09d5 BB060000 		.4byte	0x6bb
 4270 09d9 02       		.byte	0x2
 4271 09da 23       		.byte	0x23
 4272 09db 04       		.uleb128 0x4
 4273 09dc 0B       		.uleb128 0xb
 4274 09dd 63696400 		.ascii	"cid\000"
 4275 09e1 0F       		.byte	0xf
 4276 09e2 7E       		.byte	0x7e
 4277 09e3 09040000 		.4byte	0x409
 4278 09e7 02       		.byte	0x2
 4279 09e8 23       		.byte	0x23
 4280 09e9 08       		.uleb128 0x8
 4281 09ea 0B       		.uleb128 0xb
 4282 09eb 63736400 		.ascii	"csd\000"
 4283 09ef 0F       		.byte	0xf
 4284 09f0 7E       		.byte	0x7e
 4285 09f1 09040000 		.4byte	0x409
 4286 09f5 02       		.byte	0x2
 4287 09f6 23       		.byte	0x23
 4288 09f7 18       		.uleb128 0x18
 4289 09f8 0A       		.uleb128 0xa
 4290 09f9 64000000 		.4byte	.LASF133
 4291 09fd 0F       		.byte	0xf
 4292 09fe 7E       		.byte	0x7e
 4293 09ff B2000000 		.4byte	0xb2
 4294 0a03 02       		.byte	0x2
 4295 0a04 23       		.byte	0x23
 4296 0a05 28       		.uleb128 0x28
 4297 0a06 0A       		.uleb128 0xa
 4298 0a07 CE050000 		.4byte	.LASF108
 4299 0a0b 0F       		.byte	0xf
ARM GAS  C:\Users\z80\AppData\Local\Temp\cc9PmWEj.s 			page 77


 4300 0a0c 82       		.byte	0x82
 4301 0a0d 2E0A0000 		.4byte	0xa2e
 4302 0a11 02       		.byte	0x2
 4303 0a12 23       		.byte	0x23
 4304 0a13 2C       		.uleb128 0x2c
 4305 0a14 0A       		.uleb128 0xa
 4306 0a15 B3020000 		.4byte	.LASF134
 4307 0a19 0F       		.byte	0xf
 4308 0a1a 86       		.byte	0x86
 4309 0a1b BD000000 		.4byte	0xbd
 4310 0a1f 02       		.byte	0x2
 4311 0a20 23       		.byte	0x23
 4312 0a21 30       		.uleb128 0x30
 4313 0a22 00       		.byte	0x0
 4314 0a23 06       		.uleb128 0x6
 4315 0a24 04       		.byte	0x4
 4316 0a25 290A0000 		.4byte	0xa29
 4317 0a29 07       		.uleb128 0x7
 4318 0a2a 3B090000 		.4byte	0x93b
 4319 0a2e 06       		.uleb128 0x6
 4320 0a2f 04       		.byte	0x4
 4321 0a30 340A0000 		.4byte	0xa34
 4322 0a34 07       		.uleb128 0x7
 4323 0a35 30090000 		.4byte	0x930
 4324 0a39 08       		.uleb128 0x8
 4325 0a3a 2C060000 		.4byte	.LASF135
 4326 0a3e 0F       		.byte	0xf
 4327 0a3f 87       		.byte	0x87
 4328 0a40 B8090000 		.4byte	0x9b8
 4329 0a44 1C       		.uleb128 0x1c
 4330 0a45 C5010000 		.4byte	.LASF139
 4331 0a49 01       		.byte	0x1
 4332 0a4a 6E       		.byte	0x6e
 4333 0a4b 01       		.byte	0x1
 4334 0a4c BD000000 		.4byte	0xbd
 4335 0a50 00000000 		.4byte	.LFB63
 4336 0a54 6C000000 		.4byte	.LFE63
 4337 0a58 00000000 		.4byte	.LLST0
 4338 0a5c 970A0000 		.4byte	0xa97
 4339 0a60 1D       		.uleb128 0x1d
 4340 0a61 F9000000 		.4byte	.LASF136
 4341 0a65 01       		.byte	0x1
 4342 0a66 6E       		.byte	0x6e
 4343 0a67 6B000000 		.4byte	0x6b
 4344 0a6b 02       		.byte	0x2
 4345 0a6c 91       		.byte	0x91
 4346 0a6d 74       		.sleb128 -12
 4347 0a6e 1D       		.uleb128 0x1d
 4348 0a6f F2050000 		.4byte	.LASF137
 4349 0a73 01       		.byte	0x1
 4350 0a74 6E       		.byte	0x6e
 4351 0a75 B2000000 		.4byte	0xb2
 4352 0a79 02       		.byte	0x2
 4353 0a7a 91       		.byte	0x91
 4354 0a7b 70       		.sleb128 -16
 4355 0a7c 1D       		.uleb128 0x1d
 4356 0a7d EB050000 		.4byte	.LASF138
ARM GAS  C:\Users\z80\AppData\Local\Temp\cc9PmWEj.s 			page 78


 4357 0a81 01       		.byte	0x1
 4358 0a82 6F       		.byte	0x6f
 4359 0a83 F8030000 		.4byte	0x3f8
 4360 0a87 02       		.byte	0x2
 4361 0a88 91       		.byte	0x91
 4362 0a89 6C       		.sleb128 -20
 4363 0a8a 1E       		.uleb128 0x1e
 4364 0a8b 6E00     		.ascii	"n\000"
 4365 0a8d 01       		.byte	0x1
 4366 0a8e 6F       		.byte	0x6f
 4367 0a8f B2000000 		.4byte	0xb2
 4368 0a93 02       		.byte	0x2
 4369 0a94 91       		.byte	0x91
 4370 0a95 68       		.sleb128 -24
 4371 0a96 00       		.byte	0x0
 4372 0a97 1C       		.uleb128 0x1c
 4373 0a98 17040000 		.4byte	.LASF140
 4374 0a9c 01       		.byte	0x1
 4375 0a9d 7E       		.byte	0x7e
 4376 0a9e 01       		.byte	0x1
 4377 0a9f BD000000 		.4byte	0xbd
 4378 0aa3 00000000 		.4byte	.LFB64
 4379 0aa7 6C000000 		.4byte	.LFE64
 4380 0aab 2C000000 		.4byte	.LLST1
 4381 0aaf EA0A0000 		.4byte	0xaea
 4382 0ab3 1D       		.uleb128 0x1d
 4383 0ab4 F9000000 		.4byte	.LASF136
 4384 0ab8 01       		.byte	0x1
 4385 0ab9 7E       		.byte	0x7e
 4386 0aba 6B000000 		.4byte	0x6b
 4387 0abe 02       		.byte	0x2
 4388 0abf 91       		.byte	0x91
 4389 0ac0 74       		.sleb128 -12
 4390 0ac1 1D       		.uleb128 0x1d
 4391 0ac2 F2050000 		.4byte	.LASF137
 4392 0ac6 01       		.byte	0x1
 4393 0ac7 7E       		.byte	0x7e
 4394 0ac8 B2000000 		.4byte	0xb2
 4395 0acc 02       		.byte	0x2
 4396 0acd 91       		.byte	0x91
 4397 0ace 70       		.sleb128 -16
 4398 0acf 1D       		.uleb128 0x1d
 4399 0ad0 EB050000 		.4byte	.LASF138
 4400 0ad4 01       		.byte	0x1
 4401 0ad5 7F       		.byte	0x7f
 4402 0ad6 FE030000 		.4byte	0x3fe
 4403 0ada 02       		.byte	0x2
 4404 0adb 91       		.byte	0x91
 4405 0adc 6C       		.sleb128 -20
 4406 0add 1E       		.uleb128 0x1e
 4407 0ade 6E00     		.ascii	"n\000"
 4408 0ae0 01       		.byte	0x1
 4409 0ae1 7F       		.byte	0x7f
 4410 0ae2 B2000000 		.4byte	0xb2
 4411 0ae6 02       		.byte	0x2
 4412 0ae7 91       		.byte	0x91
 4413 0ae8 68       		.sleb128 -24
ARM GAS  C:\Users\z80\AppData\Local\Temp\cc9PmWEj.s 			page 79


 4414 0ae9 00       		.byte	0x0
 4415 0aea 1C       		.uleb128 0x1c
 4416 0aeb 99000000 		.4byte	.LASF141
 4417 0aef 01       		.byte	0x1
 4418 0af0 96       		.byte	0x96
 4419 0af1 01       		.byte	0x1
 4420 0af2 91000000 		.4byte	0x91
 4421 0af6 00000000 		.4byte	.LFB65
 4422 0afa 56000000 		.4byte	.LFE65
 4423 0afe 58000000 		.4byte	.LLST2
 4424 0b02 310B0000 		.4byte	0xb31
 4425 0b06 1E       		.uleb128 0x1e
 4426 0b07 63726300 		.ascii	"crc\000"
 4427 0b0b 01       		.byte	0x1
 4428 0b0c 96       		.byte	0x96
 4429 0b0d 91000000 		.4byte	0x91
 4430 0b11 02       		.byte	0x2
 4431 0b12 91       		.byte	0x91
 4432 0b13 7F       		.sleb128 -1
 4433 0b14 1D       		.uleb128 0x1d
 4434 0b15 EB050000 		.4byte	.LASF138
 4435 0b19 01       		.byte	0x1
 4436 0b1a 96       		.byte	0x96
 4437 0b1b FE030000 		.4byte	0x3fe
 4438 0b1f 02       		.byte	0x2
 4439 0b20 91       		.byte	0x91
 4440 0b21 78       		.sleb128 -8
 4441 0b22 1E       		.uleb128 0x1e
 4442 0b23 6C656E00 		.ascii	"len\000"
 4443 0b27 01       		.byte	0x1
 4444 0b28 96       		.byte	0x96
 4445 0b29 86000000 		.4byte	0x86
 4446 0b2d 02       		.byte	0x2
 4447 0b2e 91       		.byte	0x91
 4448 0b2f 74       		.sleb128 -12
 4449 0b30 00       		.byte	0x0
 4450 0b31 1F       		.uleb128 0x1f
 4451 0b32 E6050000 		.4byte	.LASF143
 4452 0b36 01       		.byte	0x1
 4453 0b37 A4       		.byte	0xa4
 4454 0b38 01       		.byte	0x1
 4455 0b39 00000000 		.4byte	.LFB66
 4456 0b3d 68000000 		.4byte	.LFE66
 4457 0b41 78000000 		.4byte	.LLST3
 4458 0b45 720B0000 		.4byte	0xb72
 4459 0b49 1D       		.uleb128 0x1d
 4460 0b4a 82050000 		.4byte	.LASF142
 4461 0b4e 01       		.byte	0x1
 4462 0b4f A4       		.byte	0xa4
 4463 0b50 720B0000 		.4byte	0xb72
 4464 0b54 02       		.byte	0x2
 4465 0b55 91       		.byte	0x91
 4466 0b56 6C       		.sleb128 -20
 4467 0b57 20       		.uleb128 0x20
 4468 0b58 6900     		.ascii	"i\000"
 4469 0b5a 01       		.byte	0x1
 4470 0b5b A5       		.byte	0xa5
ARM GAS  C:\Users\z80\AppData\Local\Temp\cc9PmWEj.s 			page 80


 4471 0b5c 45000000 		.4byte	0x45
 4472 0b60 02       		.byte	0x2
 4473 0b61 91       		.byte	0x91
 4474 0b62 74       		.sleb128 -12
 4475 0b63 20       		.uleb128 0x20
 4476 0b64 62756600 		.ascii	"buf\000"
 4477 0b68 01       		.byte	0x1
 4478 0b69 A6       		.byte	0xa6
 4479 0b6a 780B0000 		.4byte	0xb78
 4480 0b6e 02       		.byte	0x2
 4481 0b6f 91       		.byte	0x91
 4482 0b70 70       		.sleb128 -16
 4483 0b71 00       		.byte	0x0
 4484 0b72 06       		.uleb128 0x6
 4485 0b73 04       		.byte	0x4
 4486 0b74 390A0000 		.4byte	0xa39
 4487 0b78 12       		.uleb128 0x12
 4488 0b79 91000000 		.4byte	0x91
 4489 0b7d 880B0000 		.4byte	0xb88
 4490 0b81 13       		.uleb128 0x13
 4491 0b82 68000000 		.4byte	0x68
 4492 0b86 03       		.byte	0x3
 4493 0b87 00       		.byte	0x0
 4494 0b88 1F       		.uleb128 0x1f
 4495 0b89 5C020000 		.4byte	.LASF144
 4496 0b8d 01       		.byte	0x1
 4497 0b8e C2       		.byte	0xc2
 4498 0b8f 01       		.byte	0x1
 4499 0b90 00000000 		.4byte	.LFB67
 4500 0b94 8A000000 		.4byte	.LFE67
 4501 0b98 A4000000 		.4byte	.LLST4
 4502 0b9c D90B0000 		.4byte	0xbd9
 4503 0ba0 1D       		.uleb128 0x1d
 4504 0ba1 82050000 		.4byte	.LASF142
 4505 0ba5 01       		.byte	0x1
 4506 0ba6 C2       		.byte	0xc2
 4507 0ba7 720B0000 		.4byte	0xb72
 4508 0bab 02       		.byte	0x2
 4509 0bac 91       		.byte	0x91
 4510 0bad 6C       		.sleb128 -20
 4511 0bae 1E       		.uleb128 0x1e
 4512 0baf 636D6400 		.ascii	"cmd\000"
 4513 0bb3 01       		.byte	0x1
 4514 0bb4 C2       		.byte	0xc2
 4515 0bb5 91000000 		.4byte	0x91
 4516 0bb9 02       		.byte	0x2
 4517 0bba 91       		.byte	0x91
 4518 0bbb 6B       		.sleb128 -21
 4519 0bbc 1E       		.uleb128 0x1e
 4520 0bbd 61726700 		.ascii	"arg\000"
 4521 0bc1 01       		.byte	0x1
 4522 0bc2 C2       		.byte	0xc2
 4523 0bc3 B2000000 		.4byte	0xb2
 4524 0bc7 02       		.byte	0x2
 4525 0bc8 91       		.byte	0x91
 4526 0bc9 64       		.sleb128 -28
 4527 0bca 20       		.uleb128 0x20
ARM GAS  C:\Users\z80\AppData\Local\Temp\cc9PmWEj.s 			page 81


 4528 0bcb 62756600 		.ascii	"buf\000"
 4529 0bcf 01       		.byte	0x1
 4530 0bd0 C3       		.byte	0xc3
 4531 0bd1 D90B0000 		.4byte	0xbd9
 4532 0bd5 02       		.byte	0x2
 4533 0bd6 91       		.byte	0x91
 4534 0bd7 70       		.sleb128 -16
 4535 0bd8 00       		.byte	0x0
 4536 0bd9 12       		.uleb128 0x12
 4537 0bda 91000000 		.4byte	0x91
 4538 0bde E90B0000 		.4byte	0xbe9
 4539 0be2 13       		.uleb128 0x13
 4540 0be3 68000000 		.4byte	0x68
 4541 0be7 05       		.byte	0x5
 4542 0be8 00       		.byte	0x0
 4543 0be9 1C       		.uleb128 0x1c
 4544 0bea 9E010000 		.4byte	.LASF145
 4545 0bee 01       		.byte	0x1
 4546 0bef DC       		.byte	0xdc
 4547 0bf0 01       		.byte	0x1
 4548 0bf1 91000000 		.4byte	0x91
 4549 0bf5 00000000 		.4byte	.LFB68
 4550 0bf9 48000000 		.4byte	.LFE68
 4551 0bfd D0000000 		.4byte	.LLST5
 4552 0c01 2D0C0000 		.4byte	0xc2d
 4553 0c05 1D       		.uleb128 0x1d
 4554 0c06 82050000 		.4byte	.LASF142
 4555 0c0a 01       		.byte	0x1
 4556 0c0b DC       		.byte	0xdc
 4557 0c0c 720B0000 		.4byte	0xb72
 4558 0c10 02       		.byte	0x2
 4559 0c11 91       		.byte	0x91
 4560 0c12 6C       		.sleb128 -20
 4561 0c13 20       		.uleb128 0x20
 4562 0c14 6900     		.ascii	"i\000"
 4563 0c16 01       		.byte	0x1
 4564 0c17 DD       		.byte	0xdd
 4565 0c18 45000000 		.4byte	0x45
 4566 0c1c 02       		.byte	0x2
 4567 0c1d 91       		.byte	0x91
 4568 0c1e 74       		.sleb128 -12
 4569 0c1f 20       		.uleb128 0x20
 4570 0c20 723100   		.ascii	"r1\000"
 4571 0c23 01       		.byte	0x1
 4572 0c24 DE       		.byte	0xde
 4573 0c25 2D0C0000 		.4byte	0xc2d
 4574 0c29 02       		.byte	0x2
 4575 0c2a 91       		.byte	0x91
 4576 0c2b 70       		.sleb128 -16
 4577 0c2c 00       		.byte	0x0
 4578 0c2d 12       		.uleb128 0x12
 4579 0c2e 91000000 		.4byte	0x91
 4580 0c32 3D0C0000 		.4byte	0xc3d
 4581 0c36 13       		.uleb128 0x13
 4582 0c37 68000000 		.4byte	0x68
 4583 0c3b 00       		.byte	0x0
 4584 0c3c 00       		.byte	0x0
ARM GAS  C:\Users\z80\AppData\Local\Temp\cc9PmWEj.s 			page 82


 4585 0c3d 1C       		.uleb128 0x1c
 4586 0c3e A5010000 		.4byte	.LASF146
 4587 0c42 01       		.byte	0x1
 4588 0c43 F2       		.byte	0xf2
 4589 0c44 01       		.byte	0x1
 4590 0c45 91000000 		.4byte	0x91
 4591 0c49 00000000 		.4byte	.LFB69
 4592 0c4d 30000000 		.4byte	.LFE69
 4593 0c51 FC000000 		.4byte	.LLST6
 4594 0c55 830C0000 		.4byte	0xc83
 4595 0c59 1D       		.uleb128 0x1d
 4596 0c5a 82050000 		.4byte	.LASF142
 4597 0c5e 01       		.byte	0x1
 4598 0c5f F2       		.byte	0xf2
 4599 0c60 720B0000 		.4byte	0xb72
 4600 0c64 02       		.byte	0x2
 4601 0c65 91       		.byte	0x91
 4602 0c66 6C       		.sleb128 -20
 4603 0c67 1D       		.uleb128 0x1d
 4604 0c68 EB050000 		.4byte	.LASF138
 4605 0c6c 01       		.byte	0x1
 4606 0c6d F2       		.byte	0xf2
 4607 0c6e F8030000 		.4byte	0x3f8
 4608 0c72 02       		.byte	0x2
 4609 0c73 91       		.byte	0x91
 4610 0c74 68       		.sleb128 -24
 4611 0c75 20       		.uleb128 0x20
 4612 0c76 723100   		.ascii	"r1\000"
 4613 0c79 01       		.byte	0x1
 4614 0c7a F3       		.byte	0xf3
 4615 0c7b 91000000 		.4byte	0x91
 4616 0c7f 02       		.byte	0x2
 4617 0c80 91       		.byte	0x91
 4618 0c81 77       		.sleb128 -9
 4619 0c82 00       		.byte	0x0
 4620 0c83 21       		.uleb128 0x21
 4621 0c84 68060000 		.4byte	.LASF147
 4622 0c88 01       		.byte	0x1
 4623 0c89 0601     		.2byte	0x106
 4624 0c8b 01       		.byte	0x1
 4625 0c8c 91000000 		.4byte	0x91
 4626 0c90 00000000 		.4byte	.LFB70
 4627 0c94 4A000000 		.4byte	.LFE70
 4628 0c98 28010000 		.4byte	.LLST7
 4629 0c9c DC0C0000 		.4byte	0xcdc
 4630 0ca0 22       		.uleb128 0x22
 4631 0ca1 82050000 		.4byte	.LASF142
 4632 0ca5 01       		.byte	0x1
 4633 0ca6 0601     		.2byte	0x106
 4634 0ca8 720B0000 		.4byte	0xb72
 4635 0cac 02       		.byte	0x2
 4636 0cad 91       		.byte	0x91
 4637 0cae 6C       		.sleb128 -20
 4638 0caf 23       		.uleb128 0x23
 4639 0cb0 636D6400 		.ascii	"cmd\000"
 4640 0cb4 01       		.byte	0x1
 4641 0cb5 0601     		.2byte	0x106
ARM GAS  C:\Users\z80\AppData\Local\Temp\cc9PmWEj.s 			page 83


 4642 0cb7 91000000 		.4byte	0x91
 4643 0cbb 02       		.byte	0x2
 4644 0cbc 91       		.byte	0x91
 4645 0cbd 6B       		.sleb128 -21
 4646 0cbe 23       		.uleb128 0x23
 4647 0cbf 61726700 		.ascii	"arg\000"
 4648 0cc3 01       		.byte	0x1
 4649 0cc4 0601     		.2byte	0x106
 4650 0cc6 B2000000 		.4byte	0xb2
 4651 0cca 02       		.byte	0x2
 4652 0ccb 91       		.byte	0x91
 4653 0ccc 64       		.sleb128 -28
 4654 0ccd 24       		.uleb128 0x24
 4655 0cce 723100   		.ascii	"r1\000"
 4656 0cd1 01       		.byte	0x1
 4657 0cd2 0701     		.2byte	0x107
 4658 0cd4 91000000 		.4byte	0x91
 4659 0cd8 02       		.byte	0x2
 4660 0cd9 91       		.byte	0x91
 4661 0cda 77       		.sleb128 -9
 4662 0cdb 00       		.byte	0x0
 4663 0cdc 21       		.uleb128 0x21
 4664 0cdd 78060000 		.4byte	.LASF148
 4665 0ce1 01       		.byte	0x1
 4666 0ce2 1D01     		.2byte	0x11d
 4667 0ce4 01       		.byte	0x1
 4668 0ce5 91000000 		.4byte	0x91
 4669 0ce9 00000000 		.4byte	.LFB71
 4670 0ced 4E000000 		.4byte	.LFE71
 4671 0cf1 54010000 		.4byte	.LLST8
 4672 0cf5 440D0000 		.4byte	0xd44
 4673 0cf9 22       		.uleb128 0x22
 4674 0cfa 82050000 		.4byte	.LASF142
 4675 0cfe 01       		.byte	0x1
 4676 0cff 1D01     		.2byte	0x11d
 4677 0d01 720B0000 		.4byte	0xb72
 4678 0d05 02       		.byte	0x2
 4679 0d06 91       		.byte	0x91
 4680 0d07 6C       		.sleb128 -20
 4681 0d08 23       		.uleb128 0x23
 4682 0d09 636D6400 		.ascii	"cmd\000"
 4683 0d0d 01       		.byte	0x1
 4684 0d0e 1D01     		.2byte	0x11d
 4685 0d10 91000000 		.4byte	0x91
 4686 0d14 02       		.byte	0x2
 4687 0d15 91       		.byte	0x91
 4688 0d16 6B       		.sleb128 -21
 4689 0d17 23       		.uleb128 0x23
 4690 0d18 61726700 		.ascii	"arg\000"
 4691 0d1c 01       		.byte	0x1
 4692 0d1d 1D01     		.2byte	0x11d
 4693 0d1f B2000000 		.4byte	0xb2
 4694 0d23 02       		.byte	0x2
 4695 0d24 91       		.byte	0x91
 4696 0d25 64       		.sleb128 -28
 4697 0d26 22       		.uleb128 0x22
 4698 0d27 F0000000 		.4byte	.LASF149
ARM GAS  C:\Users\z80\AppData\Local\Temp\cc9PmWEj.s 			page 84


 4699 0d2b 01       		.byte	0x1
 4700 0d2c 1E01     		.2byte	0x11e
 4701 0d2e F8030000 		.4byte	0x3f8
 4702 0d32 02       		.byte	0x2
 4703 0d33 91       		.byte	0x91
 4704 0d34 60       		.sleb128 -32
 4705 0d35 24       		.uleb128 0x24
 4706 0d36 723100   		.ascii	"r1\000"
 4707 0d39 01       		.byte	0x1
 4708 0d3a 1F01     		.2byte	0x11f
 4709 0d3c 91000000 		.4byte	0x91
 4710 0d40 02       		.byte	0x2
 4711 0d41 91       		.byte	0x91
 4712 0d42 77       		.sleb128 -9
 4713 0d43 00       		.byte	0x0
 4714 0d44 21       		.uleb128 0x21
 4715 0d45 38050000 		.4byte	.LASF150
 4716 0d49 01       		.byte	0x1
 4717 0d4a 3401     		.2byte	0x134
 4718 0d4c 01       		.byte	0x1
 4719 0d4d BD000000 		.4byte	0xbd
 4720 0d51 00000000 		.4byte	.LFB72
 4721 0d55 1C010000 		.4byte	.LFE72
 4722 0d59 80010000 		.4byte	.LLST9
 4723 0d5d D10D0000 		.4byte	0xdd1
 4724 0d61 22       		.uleb128 0x22
 4725 0d62 82050000 		.4byte	.LASF142
 4726 0d66 01       		.byte	0x1
 4727 0d67 3401     		.2byte	0x134
 4728 0d69 720B0000 		.4byte	0xb72
 4729 0d6d 02       		.byte	0x2
 4730 0d6e 91       		.byte	0x91
 4731 0d6f 54       		.sleb128 -44
 4732 0d70 23       		.uleb128 0x23
 4733 0d71 636D6400 		.ascii	"cmd\000"
 4734 0d75 01       		.byte	0x1
 4735 0d76 3401     		.2byte	0x134
 4736 0d78 91000000 		.4byte	0x91
 4737 0d7c 02       		.byte	0x2
 4738 0d7d 91       		.byte	0x91
 4739 0d7e 53       		.sleb128 -45
 4740 0d7f 23       		.uleb128 0x23
 4741 0d80 63786400 		.ascii	"cxd\000"
 4742 0d84 01       		.byte	0x1
 4743 0d85 3401     		.2byte	0x134
 4744 0d87 D10D0000 		.4byte	0xdd1
 4745 0d8b 02       		.byte	0x2
 4746 0d8c 91       		.byte	0x91
 4747 0d8d 4C       		.sleb128 -52
 4748 0d8e 24       		.uleb128 0x24
 4749 0d8f 6900     		.ascii	"i\000"
 4750 0d91 01       		.byte	0x1
 4751 0d92 3501     		.2byte	0x135
 4752 0d94 4C000000 		.4byte	0x4c
 4753 0d98 02       		.byte	0x2
 4754 0d99 91       		.byte	0x91
 4755 0d9a 74       		.sleb128 -12
ARM GAS  C:\Users\z80\AppData\Local\Temp\cc9PmWEj.s 			page 85


 4756 0d9b 24       		.uleb128 0x24
 4757 0d9c 627000   		.ascii	"bp\000"
 4758 0d9f 01       		.byte	0x1
 4759 0da0 3601     		.2byte	0x136
 4760 0da2 F8030000 		.4byte	0x3f8
 4761 0da6 02       		.byte	0x2
 4762 0da7 91       		.byte	0x91
 4763 0da8 70       		.sleb128 -16
 4764 0da9 24       		.uleb128 0x24
 4765 0daa 62756600 		.ascii	"buf\000"
 4766 0dae 01       		.byte	0x1
 4767 0daf 3601     		.2byte	0x136
 4768 0db1 93070000 		.4byte	0x793
 4769 0db5 02       		.byte	0x2
 4770 0db6 91       		.byte	0x91
 4771 0db7 5C       		.sleb128 -36
 4772 0db8 25       		.uleb128 0x25
 4773 0db9 6C000000 		.4byte	.LBB2
 4774 0dbd 00010000 		.4byte	.LBE2
 4775 0dc1 24       		.uleb128 0x24
 4776 0dc2 777000   		.ascii	"wp\000"
 4777 0dc5 01       		.byte	0x1
 4778 0dc6 4301     		.2byte	0x143
 4779 0dc8 D10D0000 		.4byte	0xdd1
 4780 0dcc 02       		.byte	0x2
 4781 0dcd 91       		.byte	0x91
 4782 0dce 6C       		.sleb128 -20
 4783 0dcf 00       		.byte	0x0
 4784 0dd0 00       		.byte	0x0
 4785 0dd1 06       		.uleb128 0x6
 4786 0dd2 04       		.byte	0x4
 4787 0dd3 B2000000 		.4byte	0xb2
 4788 0dd7 26       		.uleb128 0x26
 4789 0dd8 88060000 		.4byte	.LASF131
 4790 0ddc 01       		.byte	0x1
 4791 0ddd 5E01     		.2byte	0x15e
 4792 0ddf 01       		.byte	0x1
 4793 0de0 00000000 		.4byte	.LFB73
 4794 0de4 48000000 		.4byte	.LFE73
 4795 0de8 AC010000 		.4byte	.LLST10
 4796 0dec 0F0E0000 		.4byte	0xe0f
 4797 0df0 22       		.uleb128 0x22
 4798 0df1 82050000 		.4byte	.LASF142
 4799 0df5 01       		.byte	0x1
 4800 0df6 5E01     		.2byte	0x15e
 4801 0df8 720B0000 		.4byte	0xb72
 4802 0dfc 02       		.byte	0x2
 4803 0dfd 91       		.byte	0x91
 4804 0dfe 6C       		.sleb128 -20
 4805 0dff 24       		.uleb128 0x24
 4806 0e00 62756600 		.ascii	"buf\000"
 4807 0e04 01       		.byte	0x1
 4808 0e05 5F01     		.2byte	0x15f
 4809 0e07 2D0C0000 		.4byte	0xc2d
 4810 0e0b 02       		.byte	0x2
 4811 0e0c 91       		.byte	0x91
 4812 0e0d 74       		.sleb128 -12
ARM GAS  C:\Users\z80\AppData\Local\Temp\cc9PmWEj.s 			page 86


 4813 0e0e 00       		.byte	0x0
 4814 0e0f 27       		.uleb128 0x27
 4815 0e10 01       		.byte	0x1
 4816 0e11 69050000 		.4byte	.LASF177
 4817 0e15 01       		.byte	0x1
 4818 0e16 7801     		.2byte	0x178
 4819 0e18 01       		.byte	0x1
 4820 0e19 00000000 		.4byte	.LFB74
 4821 0e1d 02000000 		.4byte	.LFE74
 4822 0e21 02       		.byte	0x2
 4823 0e22 7D       		.byte	0x7d
 4824 0e23 00       		.sleb128 0
 4825 0e24 28       		.uleb128 0x28
 4826 0e25 01       		.byte	0x1
 4827 0e26 80010000 		.4byte	.LASF151
 4828 0e2a 01       		.byte	0x1
 4829 0e2b 8301     		.2byte	0x183
 4830 0e2d 01       		.byte	0x1
 4831 0e2e 00000000 		.4byte	.LFB75
 4832 0e32 2E000000 		.4byte	.LFE75
 4833 0e36 D8010000 		.4byte	.LLST11
 4834 0e3a 4E0E0000 		.4byte	0xe4e
 4835 0e3e 22       		.uleb128 0x22
 4836 0e3f 82050000 		.4byte	.LASF142
 4837 0e43 01       		.byte	0x1
 4838 0e44 8301     		.2byte	0x183
 4839 0e46 720B0000 		.4byte	0xb72
 4840 0e4a 02       		.byte	0x2
 4841 0e4b 91       		.byte	0x91
 4842 0e4c 7C       		.sleb128 -4
 4843 0e4d 00       		.byte	0x0
 4844 0e4e 28       		.uleb128 0x28
 4845 0e4f 01       		.byte	0x1
 4846 0e50 3B030000 		.4byte	.LASF152
 4847 0e54 01       		.byte	0x1
 4848 0e55 9301     		.2byte	0x193
 4849 0e57 01       		.byte	0x1
 4850 0e58 00000000 		.4byte	.LFB76
 4851 0e5c 32000000 		.4byte	.LFE76
 4852 0e60 F8010000 		.4byte	.LLST12
 4853 0e64 870E0000 		.4byte	0xe87
 4854 0e68 22       		.uleb128 0x22
 4855 0e69 82050000 		.4byte	.LASF142
 4856 0e6d 01       		.byte	0x1
 4857 0e6e 9301     		.2byte	0x193
 4858 0e70 720B0000 		.4byte	0xb72
 4859 0e74 02       		.byte	0x2
 4860 0e75 91       		.byte	0x91
 4861 0e76 7C       		.sleb128 -4
 4862 0e77 22       		.uleb128 0x22
 4863 0e78 CE050000 		.4byte	.LASF108
 4864 0e7c 01       		.byte	0x1
 4865 0e7d 9301     		.2byte	0x193
 4866 0e7f 2E0A0000 		.4byte	0xa2e
 4867 0e83 02       		.byte	0x2
 4868 0e84 91       		.byte	0x91
 4869 0e85 78       		.sleb128 -8
ARM GAS  C:\Users\z80\AppData\Local\Temp\cc9PmWEj.s 			page 87


 4870 0e86 00       		.byte	0x0
 4871 0e87 28       		.uleb128 0x28
 4872 0e88 01       		.byte	0x1
 4873 0e89 9B030000 		.4byte	.LASF153
 4874 0e8d 01       		.byte	0x1
 4875 0e8e A401     		.2byte	0x1a4
 4876 0e90 01       		.byte	0x1
 4877 0e91 00000000 		.4byte	.LFB77
 4878 0e95 32000000 		.4byte	.LFE77
 4879 0e99 18020000 		.4byte	.LLST13
 4880 0e9d B10E0000 		.4byte	0xeb1
 4881 0ea1 22       		.uleb128 0x22
 4882 0ea2 82050000 		.4byte	.LASF142
 4883 0ea6 01       		.byte	0x1
 4884 0ea7 A401     		.2byte	0x1a4
 4885 0ea9 720B0000 		.4byte	0xb72
 4886 0ead 02       		.byte	0x2
 4887 0eae 91       		.byte	0x91
 4888 0eaf 74       		.sleb128 -12
 4889 0eb0 00       		.byte	0x0
 4890 0eb1 29       		.uleb128 0x29
 4891 0eb2 01       		.byte	0x1
 4892 0eb3 BE060000 		.4byte	.LASF154
 4893 0eb7 01       		.byte	0x1
 4894 0eb8 BF01     		.2byte	0x1bf
 4895 0eba 01       		.byte	0x1
 4896 0ebb BD000000 		.4byte	0xbd
 4897 0ebf 00000000 		.4byte	.LFB78
 4898 0ec3 06020000 		.4byte	.LFE78
 4899 0ec7 44020000 		.4byte	.LLST14
 4900 0ecb 190F0000 		.4byte	0xf19
 4901 0ecf 22       		.uleb128 0x22
 4902 0ed0 82050000 		.4byte	.LASF142
 4903 0ed4 01       		.byte	0x1
 4904 0ed5 BF01     		.2byte	0x1bf
 4905 0ed7 720B0000 		.4byte	0xb72
 4906 0edb 02       		.byte	0x2
 4907 0edc 91       		.byte	0x91
 4908 0edd 64       		.sleb128 -28
 4909 0ede 24       		.uleb128 0x24
 4910 0edf 6900     		.ascii	"i\000"
 4911 0ee1 01       		.byte	0x1
 4912 0ee2 C001     		.2byte	0x1c0
 4913 0ee4 4C000000 		.4byte	0x4c
 4914 0ee8 02       		.byte	0x2
 4915 0ee9 91       		.byte	0x91
 4916 0eea 74       		.sleb128 -12
 4917 0eeb 24       		.uleb128 0x24
 4918 0eec 723300   		.ascii	"r3\000"
 4919 0eef 01       		.byte	0x1
 4920 0ef0 C101     		.2byte	0x1c1
 4921 0ef2 780B0000 		.4byte	0xb78
 4922 0ef6 02       		.byte	0x2
 4923 0ef7 91       		.byte	0x91
 4924 0ef8 6C       		.sleb128 -20
 4925 0ef9 2A       		.uleb128 0x2a
 4926 0efa F9030000 		.4byte	.LASF170
ARM GAS  C:\Users\z80\AppData\Local\Temp\cc9PmWEj.s 			page 88


 4927 0efe 01       		.byte	0x1
 4928 0eff 1802     		.2byte	0x218
 4929 0f01 E8010000 		.4byte	.L69
 4930 0f05 2B       		.uleb128 0x2b
 4931 0f06 00000000 		.4byte	.Ldebug_ranges0+0x0
 4932 0f0a 24       		.uleb128 0x24
 4933 0f0b 6200     		.ascii	"b\000"
 4934 0f0d 01       		.byte	0x1
 4935 0f0e F801     		.2byte	0x1f8
 4936 0f10 91000000 		.4byte	0x91
 4937 0f14 02       		.byte	0x2
 4938 0f15 91       		.byte	0x91
 4939 0f16 73       		.sleb128 -13
 4940 0f17 00       		.byte	0x0
 4941 0f18 00       		.byte	0x0
 4942 0f19 29       		.uleb128 0x29
 4943 0f1a 01       		.byte	0x1
 4944 0f1b 41050000 		.4byte	.LASF155
 4945 0f1f 01       		.byte	0x1
 4946 0f20 2A02     		.2byte	0x22a
 4947 0f22 01       		.byte	0x1
 4948 0f23 BD000000 		.4byte	0xbd
 4949 0f27 00000000 		.4byte	.LFB79
 4950 0f2b 80000000 		.4byte	.LFE79
 4951 0f2f 70020000 		.4byte	.LLST15
 4952 0f33 970F0000 		.4byte	0xf97
 4953 0f37 22       		.uleb128 0x22
 4954 0f38 82050000 		.4byte	.LASF142
 4955 0f3c 01       		.byte	0x1
 4956 0f3d 2A02     		.2byte	0x22a
 4957 0f3f 720B0000 		.4byte	0xb72
 4958 0f43 02       		.byte	0x2
 4959 0f44 91       		.byte	0x91
 4960 0f45 74       		.sleb128 -12
 4961 0f46 2C       		.uleb128 0x2c
 4962 0f47 0A000000 		.4byte	.LBB6
 4963 0f4b 12000000 		.4byte	.LBE6
 4964 0f4f 620F0000 		.4byte	0xf62
 4965 0f53 24       		.uleb128 0x24
 4966 0f54 746D7000 		.ascii	"tmp\000"
 4967 0f58 01       		.byte	0x1
 4968 0f59 2E02     		.2byte	0x22e
 4969 0f5b B2000000 		.4byte	0xb2
 4970 0f5f 01       		.byte	0x1
 4971 0f60 53       		.byte	0x53
 4972 0f61 00       		.byte	0x0
 4973 0f62 2C       		.uleb128 0x2c
 4974 0f63 2A000000 		.4byte	.LBB7
 4975 0f67 32000000 		.4byte	.LBE7
 4976 0f6b 7E0F0000 		.4byte	0xf7e
 4977 0f6f 24       		.uleb128 0x24
 4978 0f70 746D7000 		.ascii	"tmp\000"
 4979 0f74 01       		.byte	0x1
 4980 0f75 3202     		.2byte	0x232
 4981 0f77 B2000000 		.4byte	0xb2
 4982 0f7b 01       		.byte	0x1
 4983 0f7c 53       		.byte	0x53
ARM GAS  C:\Users\z80\AppData\Local\Temp\cc9PmWEj.s 			page 89


 4984 0f7d 00       		.byte	0x0
 4985 0f7e 25       		.uleb128 0x25
 4986 0f7f 40000000 		.4byte	.LBB8
 4987 0f83 48000000 		.4byte	.LBE8
 4988 0f87 24       		.uleb128 0x24
 4989 0f88 746D7000 		.ascii	"tmp\000"
 4990 0f8c 01       		.byte	0x1
 4991 0f8d 3602     		.2byte	0x236
 4992 0f8f B2000000 		.4byte	0xb2
 4993 0f93 01       		.byte	0x1
 4994 0f94 53       		.byte	0x53
 4995 0f95 00       		.byte	0x0
 4996 0f96 00       		.byte	0x0
 4997 0f97 29       		.uleb128 0x29
 4998 0f98 01       		.byte	0x1
 4999 0f99 B7030000 		.4byte	.LASF156
 5000 0f9d 01       		.byte	0x1
 5001 0f9e 4D02     		.2byte	0x24d
 5002 0fa0 01       		.byte	0x1
 5003 0fa1 BD000000 		.4byte	0xbd
 5004 0fa5 00000000 		.4byte	.LFB80
 5005 0fa9 94000000 		.4byte	.LFE80
 5006 0fad 9C020000 		.4byte	.LLST16
 5007 0fb1 D40F0000 		.4byte	0xfd4
 5008 0fb5 22       		.uleb128 0x22
 5009 0fb6 82050000 		.4byte	.LASF142
 5010 0fba 01       		.byte	0x1
 5011 0fbb 4D02     		.2byte	0x24d
 5012 0fbd 720B0000 		.4byte	0xb72
 5013 0fc1 02       		.byte	0x2
 5014 0fc2 91       		.byte	0x91
 5015 0fc3 74       		.sleb128 -12
 5016 0fc4 22       		.uleb128 0x22
 5017 0fc5 F2050000 		.4byte	.LASF137
 5018 0fc9 01       		.byte	0x1
 5019 0fca 4D02     		.2byte	0x24d
 5020 0fcc B2000000 		.4byte	0xb2
 5021 0fd0 02       		.byte	0x2
 5022 0fd1 91       		.byte	0x91
 5023 0fd2 70       		.sleb128 -16
 5024 0fd3 00       		.byte	0x0
 5025 0fd4 29       		.uleb128 0x29
 5026 0fd5 01       		.byte	0x1
 5027 0fd6 AE000000 		.4byte	.LASF157
 5028 0fda 01       		.byte	0x1
 5029 0fdb 7402     		.2byte	0x274
 5030 0fdd 01       		.byte	0x1
 5031 0fde BD000000 		.4byte	0xbd
 5032 0fe2 00000000 		.4byte	.LFB81
 5033 0fe6 A6000000 		.4byte	.LFE81
 5034 0fea C8020000 		.4byte	.LLST17
 5035 0fee 1E100000 		.4byte	0x101e
 5036 0ff2 22       		.uleb128 0x22
 5037 0ff3 82050000 		.4byte	.LASF142
 5038 0ff7 01       		.byte	0x1
 5039 0ff8 7402     		.2byte	0x274
 5040 0ffa 720B0000 		.4byte	0xb72
ARM GAS  C:\Users\z80\AppData\Local\Temp\cc9PmWEj.s 			page 90


 5041 0ffe 02       		.byte	0x2
 5042 0fff 91       		.byte	0x91
 5043 1000 6C       		.sleb128 -20
 5044 1001 22       		.uleb128 0x22
 5045 1002 EB050000 		.4byte	.LASF138
 5046 1006 01       		.byte	0x1
 5047 1007 7402     		.2byte	0x274
 5048 1009 F8030000 		.4byte	0x3f8
 5049 100d 02       		.byte	0x2
 5050 100e 91       		.byte	0x91
 5051 100f 68       		.sleb128 -24
 5052 1010 24       		.uleb128 0x24
 5053 1011 6900     		.ascii	"i\000"
 5054 1013 01       		.byte	0x1
 5055 1014 7502     		.2byte	0x275
 5056 1016 45000000 		.4byte	0x45
 5057 101a 02       		.byte	0x2
 5058 101b 91       		.byte	0x91
 5059 101c 74       		.sleb128 -12
 5060 101d 00       		.byte	0x0
 5061 101e 29       		.uleb128 0x29
 5062 101f 01       		.byte	0x1
 5063 1020 D1060000 		.4byte	.LASF158
 5064 1024 01       		.byte	0x1
 5065 1025 9702     		.2byte	0x297
 5066 1027 01       		.byte	0x1
 5067 1028 BD000000 		.4byte	0xbd
 5068 102c 00000000 		.4byte	.LFB82
 5069 1030 54000000 		.4byte	.LFE82
 5070 1034 F4020000 		.4byte	.LLST18
 5071 1038 5E100000 		.4byte	0x105e
 5072 103c 22       		.uleb128 0x22
 5073 103d 82050000 		.4byte	.LASF142
 5074 1041 01       		.byte	0x1
 5075 1042 9702     		.2byte	0x297
 5076 1044 720B0000 		.4byte	0xb72
 5077 1048 02       		.byte	0x2
 5078 1049 91       		.byte	0x91
 5079 104a 74       		.sleb128 -12
 5080 104b 2D       		.uleb128 0x2d
 5081 104c 93030000 		.4byte	.LASF159
 5082 1050 01       		.byte	0x1
 5083 1051 9802     		.2byte	0x298
 5084 1053 6E100000 		.4byte	0x106e
 5085 1057 05       		.byte	0x5
 5086 1058 03       		.byte	0x3
 5087 1059 00000000 		.4byte	stopcmd.4180
 5088 105d 00       		.byte	0x0
 5089 105e 12       		.uleb128 0x12
 5090 105f 91000000 		.4byte	0x91
 5091 1063 6E100000 		.4byte	0x106e
 5092 1067 13       		.uleb128 0x13
 5093 1068 68000000 		.4byte	0x68
 5094 106c 06       		.byte	0x6
 5095 106d 00       		.byte	0x0
 5096 106e 07       		.uleb128 0x7
 5097 106f 5E100000 		.4byte	0x105e
ARM GAS  C:\Users\z80\AppData\Local\Temp\cc9PmWEj.s 			page 91


 5098 1073 29       		.uleb128 0x29
 5099 1074 01       		.byte	0x1
 5100 1075 3F020000 		.4byte	.LASF160
 5101 1079 01       		.byte	0x1
 5102 107a B702     		.2byte	0x2b7
 5103 107c 01       		.byte	0x1
 5104 107d BD000000 		.4byte	0xbd
 5105 1081 00000000 		.4byte	.LFB83
 5106 1085 94000000 		.4byte	.LFE83
 5107 1089 20030000 		.4byte	.LLST19
 5108 108d B0100000 		.4byte	0x10b0
 5109 1091 22       		.uleb128 0x22
 5110 1092 82050000 		.4byte	.LASF142
 5111 1096 01       		.byte	0x1
 5112 1097 B702     		.2byte	0x2b7
 5113 1099 720B0000 		.4byte	0xb72
 5114 109d 02       		.byte	0x2
 5115 109e 91       		.byte	0x91
 5116 109f 74       		.sleb128 -12
 5117 10a0 22       		.uleb128 0x22
 5118 10a1 F2050000 		.4byte	.LASF137
 5119 10a5 01       		.byte	0x1
 5120 10a6 B702     		.2byte	0x2b7
 5121 10a8 B2000000 		.4byte	0xb2
 5122 10ac 02       		.byte	0x2
 5123 10ad 91       		.byte	0x91
 5124 10ae 70       		.sleb128 -16
 5125 10af 00       		.byte	0x0
 5126 10b0 29       		.uleb128 0x29
 5127 10b1 01       		.byte	0x1
 5128 10b2 20050000 		.4byte	.LASF161
 5129 10b6 01       		.byte	0x1
 5130 10b7 DC02     		.2byte	0x2dc
 5131 10b9 01       		.byte	0x1
 5132 10ba BD000000 		.4byte	0xbd
 5133 10be 00000000 		.4byte	.LFB84
 5134 10c2 B0000000 		.4byte	.LFE84
 5135 10c6 4C030000 		.4byte	.LLST20
 5136 10ca 0C110000 		.4byte	0x110c
 5137 10ce 22       		.uleb128 0x22
 5138 10cf 82050000 		.4byte	.LASF142
 5139 10d3 01       		.byte	0x1
 5140 10d4 DC02     		.2byte	0x2dc
 5141 10d6 720B0000 		.4byte	0xb72
 5142 10da 02       		.byte	0x2
 5143 10db 91       		.byte	0x91
 5144 10dc 6C       		.sleb128 -20
 5145 10dd 22       		.uleb128 0x22
 5146 10de EB050000 		.4byte	.LASF138
 5147 10e2 01       		.byte	0x1
 5148 10e3 DC02     		.2byte	0x2dc
 5149 10e5 FE030000 		.4byte	0x3fe
 5150 10e9 02       		.byte	0x2
 5151 10ea 91       		.byte	0x91
 5152 10eb 68       		.sleb128 -24
 5153 10ec 2D       		.uleb128 0x2d
 5154 10ed B8060000 		.4byte	.LASF162
ARM GAS  C:\Users\z80\AppData\Local\Temp\cc9PmWEj.s 			page 92


 5155 10f1 01       		.byte	0x1
 5156 10f2 DD02     		.2byte	0x2dd
 5157 10f4 1C110000 		.4byte	0x111c
 5158 10f8 05       		.byte	0x5
 5159 10f9 03       		.byte	0x3
 5160 10fa 00000000 		.4byte	start.4189
 5161 10fe 24       		.uleb128 0x24
 5162 10ff 6200     		.ascii	"b\000"
 5163 1101 01       		.byte	0x1
 5164 1102 DE02     		.2byte	0x2de
 5165 1104 2D0C0000 		.4byte	0xc2d
 5166 1108 02       		.byte	0x2
 5167 1109 91       		.byte	0x91
 5168 110a 74       		.sleb128 -12
 5169 110b 00       		.byte	0x0
 5170 110c 12       		.uleb128 0x12
 5171 110d 91000000 		.4byte	0x91
 5172 1111 1C110000 		.4byte	0x111c
 5173 1115 13       		.uleb128 0x13
 5174 1116 68000000 		.4byte	0x68
 5175 111a 01       		.byte	0x1
 5176 111b 00       		.byte	0x0
 5177 111c 07       		.uleb128 0x7
 5178 111d 0C110000 		.4byte	0x110c
 5179 1121 29       		.uleb128 0x29
 5180 1122 01       		.byte	0x1
 5181 1123 00040000 		.4byte	.LASF163
 5182 1127 01       		.byte	0x1
 5183 1128 0003     		.2byte	0x300
 5184 112a 01       		.byte	0x1
 5185 112b BD000000 		.4byte	0xbd
 5186 112f 00000000 		.4byte	.LFB85
 5187 1133 4E000000 		.4byte	.LFE85
 5188 1137 78030000 		.4byte	.LLST21
 5189 113b 61110000 		.4byte	0x1161
 5190 113f 22       		.uleb128 0x22
 5191 1140 82050000 		.4byte	.LASF142
 5192 1144 01       		.byte	0x1
 5193 1145 0003     		.2byte	0x300
 5194 1147 720B0000 		.4byte	0xb72
 5195 114b 02       		.byte	0x2
 5196 114c 91       		.byte	0x91
 5197 114d 74       		.sleb128 -12
 5198 114e 2D       		.uleb128 0x2d
 5199 114f 33050000 		.4byte	.LASF164
 5200 1153 01       		.byte	0x1
 5201 1154 0103     		.2byte	0x301
 5202 1156 61110000 		.4byte	0x1161
 5203 115a 05       		.byte	0x5
 5204 115b 03       		.byte	0x3
 5205 115c 00000000 		.4byte	stop.4194
 5206 1160 00       		.byte	0x0
 5207 1161 07       		.uleb128 0x7
 5208 1162 0C110000 		.4byte	0x110c
 5209 1166 29       		.uleb128 0x29
 5210 1167 01       		.byte	0x1
 5211 1168 C9060000 		.4byte	.LASF165
ARM GAS  C:\Users\z80\AppData\Local\Temp\cc9PmWEj.s 			page 93


 5212 116c 01       		.byte	0x1
 5213 116d 1B03     		.2byte	0x31b
 5214 116f 01       		.byte	0x1
 5215 1170 BD000000 		.4byte	0xbd
 5216 1174 00000000 		.4byte	.LFB86
 5217 1178 4C000000 		.4byte	.LFE86
 5218 117c A4030000 		.4byte	.LLST22
 5219 1180 94110000 		.4byte	0x1194
 5220 1184 22       		.uleb128 0x22
 5221 1185 82050000 		.4byte	.LASF142
 5222 1189 01       		.byte	0x1
 5223 118a 1B03     		.2byte	0x31b
 5224 118c 720B0000 		.4byte	0xb72
 5225 1190 02       		.byte	0x2
 5226 1191 91       		.byte	0x91
 5227 1192 74       		.sleb128 -12
 5228 1193 00       		.byte	0x0
 5229 1194 29       		.uleb128 0x29
 5230 1195 01       		.byte	0x1
 5231 1196 6F030000 		.4byte	.LASF166
 5232 119a 01       		.byte	0x1
 5233 119b 3903     		.2byte	0x339
 5234 119d 01       		.byte	0x1
 5235 119e BD000000 		.4byte	0xbd
 5236 11a2 00000000 		.4byte	.LFB87
 5237 11a6 38000000 		.4byte	.LFE87
 5238 11aa D0030000 		.4byte	.LLST23
 5239 11ae D1110000 		.4byte	0x11d1
 5240 11b2 22       		.uleb128 0x22
 5241 11b3 82050000 		.4byte	.LASF142
 5242 11b7 01       		.byte	0x1
 5243 11b8 3903     		.2byte	0x339
 5244 11ba 720B0000 		.4byte	0xb72
 5245 11be 02       		.byte	0x2
 5246 11bf 91       		.byte	0x91
 5247 11c0 7C       		.sleb128 -4
 5248 11c1 22       		.uleb128 0x22
 5249 11c2 52000000 		.4byte	.LASF167
 5250 11c6 01       		.byte	0x1
 5251 11c7 3903     		.2byte	0x339
 5252 11c9 6B070000 		.4byte	0x76b
 5253 11cd 02       		.byte	0x2
 5254 11ce 91       		.byte	0x91
 5255 11cf 78       		.sleb128 -8
 5256 11d0 00       		.byte	0x0
 5257 11d1 29       		.uleb128 0x29
 5258 11d2 01       		.byte	0x1
 5259 11d3 6D000000 		.4byte	.LASF168
 5260 11d7 01       		.byte	0x1
 5261 11d8 5303     		.2byte	0x353
 5262 11da 01       		.byte	0x1
 5263 11db BD000000 		.4byte	0xbd
 5264 11df 00000000 		.4byte	.LFB88
 5265 11e3 A4000000 		.4byte	.LFE88
 5266 11e7 F0030000 		.4byte	.LLST24
 5267 11eb 29120000 		.4byte	0x1229
 5268 11ef 22       		.uleb128 0x22
ARM GAS  C:\Users\z80\AppData\Local\Temp\cc9PmWEj.s 			page 94


 5269 11f0 82050000 		.4byte	.LASF142
 5270 11f4 01       		.byte	0x1
 5271 11f5 5303     		.2byte	0x353
 5272 11f7 720B0000 		.4byte	0xb72
 5273 11fb 02       		.byte	0x2
 5274 11fc 91       		.byte	0x91
 5275 11fd 74       		.sleb128 -12
 5276 11fe 22       		.uleb128 0x22
 5277 11ff F2050000 		.4byte	.LASF137
 5278 1203 01       		.byte	0x1
 5279 1204 5303     		.2byte	0x353
 5280 1206 B2000000 		.4byte	0xb2
 5281 120a 02       		.byte	0x2
 5282 120b 91       		.byte	0x91
 5283 120c 70       		.sleb128 -16
 5284 120d 22       		.uleb128 0x22
 5285 120e 8D060000 		.4byte	.LASF169
 5286 1212 01       		.byte	0x1
 5287 1213 5303     		.2byte	0x353
 5288 1215 B2000000 		.4byte	0xb2
 5289 1219 02       		.byte	0x2
 5290 121a 91       		.byte	0x91
 5291 121b 6C       		.sleb128 -20
 5292 121c 2A       		.uleb128 0x2a
 5293 121d F9030000 		.4byte	.LASF170
 5294 1221 01       		.byte	0x1
 5295 1222 6D03     		.2byte	0x36d
 5296 1224 86000000 		.4byte	.L150
 5297 1228 00       		.byte	0x0
 5298 1229 2E       		.uleb128 0x2e
 5299 122a D1000000 		.4byte	.LASF173
 5300 122e 10       		.byte	0x10
 5301 122f 0706     		.2byte	0x607
 5302 1231 1E040000 		.4byte	0x41e
 5303 1235 01       		.byte	0x1
 5304 1236 01       		.byte	0x1
 5305 1237 2F       		.uleb128 0x2f
 5306 1238 35040000 		.4byte	.LASF171
 5307 123c 01       		.byte	0x1
 5308 123d 43       		.byte	0x43
 5309 123e 290A0000 		.4byte	0xa29
 5310 1242 05       		.byte	0x5
 5311 1243 03       		.byte	0x3
 5312 1244 00000000 		.4byte	mmc_vmt
 5313 1248 12       		.uleb128 0x12
 5314 1249 91000000 		.4byte	0x91
 5315 124d 58120000 		.4byte	0x1258
 5316 1251 13       		.uleb128 0x13
 5317 1252 68000000 		.4byte	0x68
 5318 1256 FF       		.byte	0xff
 5319 1257 00       		.byte	0x0
 5320 1258 2F       		.uleb128 0x2f
 5321 1259 51030000 		.4byte	.LASF172
 5322 125d 01       		.byte	0x1
 5323 125e 51       		.byte	0x51
 5324 125f 69120000 		.4byte	0x1269
 5325 1263 05       		.byte	0x5
ARM GAS  C:\Users\z80\AppData\Local\Temp\cc9PmWEj.s 			page 95


 5326 1264 03       		.byte	0x3
 5327 1265 00000000 		.4byte	crc7_lookup_table
 5328 1269 07       		.uleb128 0x7
 5329 126a 48120000 		.4byte	0x1248
 5330 126e 2E       		.uleb128 0x2e
 5331 126f D1000000 		.4byte	.LASF173
 5332 1273 10       		.byte	0x10
 5333 1274 0706     		.2byte	0x607
 5334 1276 1E040000 		.4byte	0x41e
 5335 127a 01       		.byte	0x1
 5336 127b 01       		.byte	0x1
 5337 127c 00       		.byte	0x0
 5338              		.section	.debug_abbrev
 5339 0000 01       		.uleb128 0x1
 5340 0001 11       		.uleb128 0x11
 5341 0002 01       		.byte	0x1
 5342 0003 25       		.uleb128 0x25
 5343 0004 0E       		.uleb128 0xe
 5344 0005 13       		.uleb128 0x13
 5345 0006 0B       		.uleb128 0xb
 5346 0007 03       		.uleb128 0x3
 5347 0008 0E       		.uleb128 0xe
 5348 0009 1B       		.uleb128 0x1b
 5349 000a 0E       		.uleb128 0xe
 5350 000b 11       		.uleb128 0x11
 5351 000c 01       		.uleb128 0x1
 5352 000d 52       		.uleb128 0x52
 5353 000e 01       		.uleb128 0x1
 5354 000f 55       		.uleb128 0x55
 5355 0010 06       		.uleb128 0x6
 5356 0011 10       		.uleb128 0x10
 5357 0012 06       		.uleb128 0x6
 5358 0013 00       		.byte	0x0
 5359 0014 00       		.byte	0x0
 5360 0015 02       		.uleb128 0x2
 5361 0016 24       		.uleb128 0x24
 5362 0017 00       		.byte	0x0
 5363 0018 0B       		.uleb128 0xb
 5364 0019 0B       		.uleb128 0xb
 5365 001a 3E       		.uleb128 0x3e
 5366 001b 0B       		.uleb128 0xb
 5367 001c 03       		.uleb128 0x3
 5368 001d 0E       		.uleb128 0xe
 5369 001e 00       		.byte	0x0
 5370 001f 00       		.byte	0x0
 5371 0020 03       		.uleb128 0x3
 5372 0021 24       		.uleb128 0x24
 5373 0022 00       		.byte	0x0
 5374 0023 0B       		.uleb128 0xb
 5375 0024 0B       		.uleb128 0xb
 5376 0025 3E       		.uleb128 0x3e
 5377 0026 0B       		.uleb128 0xb
 5378 0027 03       		.uleb128 0x3
 5379 0028 08       		.uleb128 0x8
 5380 0029 00       		.byte	0x0
 5381 002a 00       		.byte	0x0
 5382 002b 04       		.uleb128 0x4
ARM GAS  C:\Users\z80\AppData\Local\Temp\cc9PmWEj.s 			page 96


 5383 002c 24       		.uleb128 0x24
 5384 002d 00       		.byte	0x0
 5385 002e 0B       		.uleb128 0xb
 5386 002f 0B       		.uleb128 0xb
 5387 0030 3E       		.uleb128 0x3e
 5388 0031 0B       		.uleb128 0xb
 5389 0032 00       		.byte	0x0
 5390 0033 00       		.byte	0x0
 5391 0034 05       		.uleb128 0x5
 5392 0035 0F       		.uleb128 0xf
 5393 0036 00       		.byte	0x0
 5394 0037 0B       		.uleb128 0xb
 5395 0038 0B       		.uleb128 0xb
 5396 0039 00       		.byte	0x0
 5397 003a 00       		.byte	0x0
 5398 003b 06       		.uleb128 0x6
 5399 003c 0F       		.uleb128 0xf
 5400 003d 00       		.byte	0x0
 5401 003e 0B       		.uleb128 0xb
 5402 003f 0B       		.uleb128 0xb
 5403 0040 49       		.uleb128 0x49
 5404 0041 13       		.uleb128 0x13
 5405 0042 00       		.byte	0x0
 5406 0043 00       		.byte	0x0
 5407 0044 07       		.uleb128 0x7
 5408 0045 26       		.uleb128 0x26
 5409 0046 00       		.byte	0x0
 5410 0047 49       		.uleb128 0x49
 5411 0048 13       		.uleb128 0x13
 5412 0049 00       		.byte	0x0
 5413 004a 00       		.byte	0x0
 5414 004b 08       		.uleb128 0x8
 5415 004c 16       		.uleb128 0x16
 5416 004d 00       		.byte	0x0
 5417 004e 03       		.uleb128 0x3
 5418 004f 0E       		.uleb128 0xe
 5419 0050 3A       		.uleb128 0x3a
 5420 0051 0B       		.uleb128 0xb
 5421 0052 3B       		.uleb128 0x3b
 5422 0053 0B       		.uleb128 0xb
 5423 0054 49       		.uleb128 0x49
 5424 0055 13       		.uleb128 0x13
 5425 0056 00       		.byte	0x0
 5426 0057 00       		.byte	0x0
 5427 0058 09       		.uleb128 0x9
 5428 0059 13       		.uleb128 0x13
 5429 005a 01       		.byte	0x1
 5430 005b 03       		.uleb128 0x3
 5431 005c 0E       		.uleb128 0xe
 5432 005d 0B       		.uleb128 0xb
 5433 005e 0B       		.uleb128 0xb
 5434 005f 3A       		.uleb128 0x3a
 5435 0060 0B       		.uleb128 0xb
 5436 0061 3B       		.uleb128 0x3b
 5437 0062 0B       		.uleb128 0xb
 5438 0063 01       		.uleb128 0x1
 5439 0064 13       		.uleb128 0x13
ARM GAS  C:\Users\z80\AppData\Local\Temp\cc9PmWEj.s 			page 97


 5440 0065 00       		.byte	0x0
 5441 0066 00       		.byte	0x0
 5442 0067 0A       		.uleb128 0xa
 5443 0068 0D       		.uleb128 0xd
 5444 0069 00       		.byte	0x0
 5445 006a 03       		.uleb128 0x3
 5446 006b 0E       		.uleb128 0xe
 5447 006c 3A       		.uleb128 0x3a
 5448 006d 0B       		.uleb128 0xb
 5449 006e 3B       		.uleb128 0x3b
 5450 006f 0B       		.uleb128 0xb
 5451 0070 49       		.uleb128 0x49
 5452 0071 13       		.uleb128 0x13
 5453 0072 38       		.uleb128 0x38
 5454 0073 0A       		.uleb128 0xa
 5455 0074 00       		.byte	0x0
 5456 0075 00       		.byte	0x0
 5457 0076 0B       		.uleb128 0xb
 5458 0077 0D       		.uleb128 0xd
 5459 0078 00       		.byte	0x0
 5460 0079 03       		.uleb128 0x3
 5461 007a 08       		.uleb128 0x8
 5462 007b 3A       		.uleb128 0x3a
 5463 007c 0B       		.uleb128 0xb
 5464 007d 3B       		.uleb128 0x3b
 5465 007e 0B       		.uleb128 0xb
 5466 007f 49       		.uleb128 0x49
 5467 0080 13       		.uleb128 0x13
 5468 0081 38       		.uleb128 0x38
 5469 0082 0A       		.uleb128 0xa
 5470 0083 00       		.byte	0x0
 5471 0084 00       		.byte	0x0
 5472 0085 0C       		.uleb128 0xc
 5473 0086 13       		.uleb128 0x13
 5474 0087 01       		.byte	0x1
 5475 0088 0B       		.uleb128 0xb
 5476 0089 0B       		.uleb128 0xb
 5477 008a 3A       		.uleb128 0x3a
 5478 008b 0B       		.uleb128 0xb
 5479 008c 3B       		.uleb128 0x3b
 5480 008d 0B       		.uleb128 0xb
 5481 008e 01       		.uleb128 0x1
 5482 008f 13       		.uleb128 0x13
 5483 0090 00       		.byte	0x0
 5484 0091 00       		.byte	0x0
 5485 0092 0D       		.uleb128 0xd
 5486 0093 13       		.uleb128 0x13
 5487 0094 01       		.byte	0x1
 5488 0095 03       		.uleb128 0x3
 5489 0096 0E       		.uleb128 0xe
 5490 0097 0B       		.uleb128 0xb
 5491 0098 0B       		.uleb128 0xb
 5492 0099 3A       		.uleb128 0x3a
 5493 009a 0B       		.uleb128 0xb
 5494 009b 3B       		.uleb128 0x3b
 5495 009c 05       		.uleb128 0x5
 5496 009d 01       		.uleb128 0x1
ARM GAS  C:\Users\z80\AppData\Local\Temp\cc9PmWEj.s 			page 98


 5497 009e 13       		.uleb128 0x13
 5498 009f 00       		.byte	0x0
 5499 00a0 00       		.byte	0x0
 5500 00a1 0E       		.uleb128 0xe
 5501 00a2 0D       		.uleb128 0xd
 5502 00a3 00       		.byte	0x0
 5503 00a4 03       		.uleb128 0x3
 5504 00a5 08       		.uleb128 0x8
 5505 00a6 3A       		.uleb128 0x3a
 5506 00a7 0B       		.uleb128 0xb
 5507 00a8 3B       		.uleb128 0x3b
 5508 00a9 05       		.uleb128 0x5
 5509 00aa 49       		.uleb128 0x49
 5510 00ab 13       		.uleb128 0x13
 5511 00ac 38       		.uleb128 0x38
 5512 00ad 0A       		.uleb128 0xa
 5513 00ae 00       		.byte	0x0
 5514 00af 00       		.byte	0x0
 5515 00b0 0F       		.uleb128 0xf
 5516 00b1 35       		.uleb128 0x35
 5517 00b2 00       		.byte	0x0
 5518 00b3 49       		.uleb128 0x49
 5519 00b4 13       		.uleb128 0x13
 5520 00b5 00       		.byte	0x0
 5521 00b6 00       		.byte	0x0
 5522 00b7 10       		.uleb128 0x10
 5523 00b8 17       		.uleb128 0x17
 5524 00b9 01       		.byte	0x1
 5525 00ba 0B       		.uleb128 0xb
 5526 00bb 0B       		.uleb128 0xb
 5527 00bc 3A       		.uleb128 0x3a
 5528 00bd 0B       		.uleb128 0xb
 5529 00be 3B       		.uleb128 0x3b
 5530 00bf 0B       		.uleb128 0xb
 5531 00c0 01       		.uleb128 0x1
 5532 00c1 13       		.uleb128 0x13
 5533 00c2 00       		.byte	0x0
 5534 00c3 00       		.byte	0x0
 5535 00c4 11       		.uleb128 0x11
 5536 00c5 0D       		.uleb128 0xd
 5537 00c6 00       		.byte	0x0
 5538 00c7 03       		.uleb128 0x3
 5539 00c8 0E       		.uleb128 0xe
 5540 00c9 3A       		.uleb128 0x3a
 5541 00ca 0B       		.uleb128 0xb
 5542 00cb 3B       		.uleb128 0x3b
 5543 00cc 0B       		.uleb128 0xb
 5544 00cd 49       		.uleb128 0x49
 5545 00ce 13       		.uleb128 0x13
 5546 00cf 00       		.byte	0x0
 5547 00d0 00       		.byte	0x0
 5548 00d1 12       		.uleb128 0x12
 5549 00d2 01       		.uleb128 0x1
 5550 00d3 01       		.byte	0x1
 5551 00d4 49       		.uleb128 0x49
 5552 00d5 13       		.uleb128 0x13
 5553 00d6 01       		.uleb128 0x1
ARM GAS  C:\Users\z80\AppData\Local\Temp\cc9PmWEj.s 			page 99


 5554 00d7 13       		.uleb128 0x13
 5555 00d8 00       		.byte	0x0
 5556 00d9 00       		.byte	0x0
 5557 00da 13       		.uleb128 0x13
 5558 00db 21       		.uleb128 0x21
 5559 00dc 00       		.byte	0x0
 5560 00dd 49       		.uleb128 0x49
 5561 00de 13       		.uleb128 0x13
 5562 00df 2F       		.uleb128 0x2f
 5563 00e0 0B       		.uleb128 0xb
 5564 00e1 00       		.byte	0x0
 5565 00e2 00       		.byte	0x0
 5566 00e3 14       		.uleb128 0x14
 5567 00e4 13       		.uleb128 0x13
 5568 00e5 01       		.byte	0x1
 5569 00e6 0B       		.uleb128 0xb
 5570 00e7 0B       		.uleb128 0xb
 5571 00e8 3A       		.uleb128 0x3a
 5572 00e9 0B       		.uleb128 0xb
 5573 00ea 3B       		.uleb128 0x3b
 5574 00eb 05       		.uleb128 0x5
 5575 00ec 01       		.uleb128 0x1
 5576 00ed 13       		.uleb128 0x13
 5577 00ee 00       		.byte	0x0
 5578 00ef 00       		.byte	0x0
 5579 00f0 15       		.uleb128 0x15
 5580 00f1 0D       		.uleb128 0xd
 5581 00f2 00       		.byte	0x0
 5582 00f3 03       		.uleb128 0x3
 5583 00f4 0E       		.uleb128 0xe
 5584 00f5 3A       		.uleb128 0x3a
 5585 00f6 0B       		.uleb128 0xb
 5586 00f7 3B       		.uleb128 0x3b
 5587 00f8 05       		.uleb128 0x5
 5588 00f9 49       		.uleb128 0x49
 5589 00fa 13       		.uleb128 0x13
 5590 00fb 38       		.uleb128 0x38
 5591 00fc 0A       		.uleb128 0xa
 5592 00fd 00       		.byte	0x0
 5593 00fe 00       		.byte	0x0
 5594 00ff 16       		.uleb128 0x16
 5595 0100 16       		.uleb128 0x16
 5596 0101 00       		.byte	0x0
 5597 0102 03       		.uleb128 0x3
 5598 0103 0E       		.uleb128 0xe
 5599 0104 3A       		.uleb128 0x3a
 5600 0105 0B       		.uleb128 0xb
 5601 0106 3B       		.uleb128 0x3b
 5602 0107 05       		.uleb128 0x5
 5603 0108 49       		.uleb128 0x49
 5604 0109 13       		.uleb128 0x13
 5605 010a 00       		.byte	0x0
 5606 010b 00       		.byte	0x0
 5607 010c 17       		.uleb128 0x17
 5608 010d 04       		.uleb128 0x4
 5609 010e 01       		.byte	0x1
 5610 010f 0B       		.uleb128 0xb
ARM GAS  C:\Users\z80\AppData\Local\Temp\cc9PmWEj.s 			page 100


 5611 0110 0B       		.uleb128 0xb
 5612 0111 3A       		.uleb128 0x3a
 5613 0112 0B       		.uleb128 0xb
 5614 0113 3B       		.uleb128 0x3b
 5615 0114 0B       		.uleb128 0xb
 5616 0115 01       		.uleb128 0x1
 5617 0116 13       		.uleb128 0x13
 5618 0117 00       		.byte	0x0
 5619 0118 00       		.byte	0x0
 5620 0119 18       		.uleb128 0x18
 5621 011a 28       		.uleb128 0x28
 5622 011b 00       		.byte	0x0
 5623 011c 03       		.uleb128 0x3
 5624 011d 0E       		.uleb128 0xe
 5625 011e 1C       		.uleb128 0x1c
 5626 011f 0D       		.uleb128 0xd
 5627 0120 00       		.byte	0x0
 5628 0121 00       		.byte	0x0
 5629 0122 19       		.uleb128 0x19
 5630 0123 15       		.uleb128 0x15
 5631 0124 01       		.byte	0x1
 5632 0125 27       		.uleb128 0x27
 5633 0126 0C       		.uleb128 0xc
 5634 0127 49       		.uleb128 0x49
 5635 0128 13       		.uleb128 0x13
 5636 0129 01       		.uleb128 0x1
 5637 012a 13       		.uleb128 0x13
 5638 012b 00       		.byte	0x0
 5639 012c 00       		.byte	0x0
 5640 012d 1A       		.uleb128 0x1a
 5641 012e 05       		.uleb128 0x5
 5642 012f 00       		.byte	0x0
 5643 0130 49       		.uleb128 0x49
 5644 0131 13       		.uleb128 0x13
 5645 0132 00       		.byte	0x0
 5646 0133 00       		.byte	0x0
 5647 0134 1B       		.uleb128 0x1b
 5648 0135 15       		.uleb128 0x15
 5649 0136 01       		.byte	0x1
 5650 0137 27       		.uleb128 0x27
 5651 0138 0C       		.uleb128 0xc
 5652 0139 01       		.uleb128 0x1
 5653 013a 13       		.uleb128 0x13
 5654 013b 00       		.byte	0x0
 5655 013c 00       		.byte	0x0
 5656 013d 1C       		.uleb128 0x1c
 5657 013e 2E       		.uleb128 0x2e
 5658 013f 01       		.byte	0x1
 5659 0140 03       		.uleb128 0x3
 5660 0141 0E       		.uleb128 0xe
 5661 0142 3A       		.uleb128 0x3a
 5662 0143 0B       		.uleb128 0xb
 5663 0144 3B       		.uleb128 0x3b
 5664 0145 0B       		.uleb128 0xb
 5665 0146 27       		.uleb128 0x27
 5666 0147 0C       		.uleb128 0xc
 5667 0148 49       		.uleb128 0x49
ARM GAS  C:\Users\z80\AppData\Local\Temp\cc9PmWEj.s 			page 101


 5668 0149 13       		.uleb128 0x13
 5669 014a 11       		.uleb128 0x11
 5670 014b 01       		.uleb128 0x1
 5671 014c 12       		.uleb128 0x12
 5672 014d 01       		.uleb128 0x1
 5673 014e 40       		.uleb128 0x40
 5674 014f 06       		.uleb128 0x6
 5675 0150 01       		.uleb128 0x1
 5676 0151 13       		.uleb128 0x13
 5677 0152 00       		.byte	0x0
 5678 0153 00       		.byte	0x0
 5679 0154 1D       		.uleb128 0x1d
 5680 0155 05       		.uleb128 0x5
 5681 0156 00       		.byte	0x0
 5682 0157 03       		.uleb128 0x3
 5683 0158 0E       		.uleb128 0xe
 5684 0159 3A       		.uleb128 0x3a
 5685 015a 0B       		.uleb128 0xb
 5686 015b 3B       		.uleb128 0x3b
 5687 015c 0B       		.uleb128 0xb
 5688 015d 49       		.uleb128 0x49
 5689 015e 13       		.uleb128 0x13
 5690 015f 02       		.uleb128 0x2
 5691 0160 0A       		.uleb128 0xa
 5692 0161 00       		.byte	0x0
 5693 0162 00       		.byte	0x0
 5694 0163 1E       		.uleb128 0x1e
 5695 0164 05       		.uleb128 0x5
 5696 0165 00       		.byte	0x0
 5697 0166 03       		.uleb128 0x3
 5698 0167 08       		.uleb128 0x8
 5699 0168 3A       		.uleb128 0x3a
 5700 0169 0B       		.uleb128 0xb
 5701 016a 3B       		.uleb128 0x3b
 5702 016b 0B       		.uleb128 0xb
 5703 016c 49       		.uleb128 0x49
 5704 016d 13       		.uleb128 0x13
 5705 016e 02       		.uleb128 0x2
 5706 016f 0A       		.uleb128 0xa
 5707 0170 00       		.byte	0x0
 5708 0171 00       		.byte	0x0
 5709 0172 1F       		.uleb128 0x1f
 5710 0173 2E       		.uleb128 0x2e
 5711 0174 01       		.byte	0x1
 5712 0175 03       		.uleb128 0x3
 5713 0176 0E       		.uleb128 0xe
 5714 0177 3A       		.uleb128 0x3a
 5715 0178 0B       		.uleb128 0xb
 5716 0179 3B       		.uleb128 0x3b
 5717 017a 0B       		.uleb128 0xb
 5718 017b 27       		.uleb128 0x27
 5719 017c 0C       		.uleb128 0xc
 5720 017d 11       		.uleb128 0x11
 5721 017e 01       		.uleb128 0x1
 5722 017f 12       		.uleb128 0x12
 5723 0180 01       		.uleb128 0x1
 5724 0181 40       		.uleb128 0x40
ARM GAS  C:\Users\z80\AppData\Local\Temp\cc9PmWEj.s 			page 102


 5725 0182 06       		.uleb128 0x6
 5726 0183 01       		.uleb128 0x1
 5727 0184 13       		.uleb128 0x13
 5728 0185 00       		.byte	0x0
 5729 0186 00       		.byte	0x0
 5730 0187 20       		.uleb128 0x20
 5731 0188 34       		.uleb128 0x34
 5732 0189 00       		.byte	0x0
 5733 018a 03       		.uleb128 0x3
 5734 018b 08       		.uleb128 0x8
 5735 018c 3A       		.uleb128 0x3a
 5736 018d 0B       		.uleb128 0xb
 5737 018e 3B       		.uleb128 0x3b
 5738 018f 0B       		.uleb128 0xb
 5739 0190 49       		.uleb128 0x49
 5740 0191 13       		.uleb128 0x13
 5741 0192 02       		.uleb128 0x2
 5742 0193 0A       		.uleb128 0xa
 5743 0194 00       		.byte	0x0
 5744 0195 00       		.byte	0x0
 5745 0196 21       		.uleb128 0x21
 5746 0197 2E       		.uleb128 0x2e
 5747 0198 01       		.byte	0x1
 5748 0199 03       		.uleb128 0x3
 5749 019a 0E       		.uleb128 0xe
 5750 019b 3A       		.uleb128 0x3a
 5751 019c 0B       		.uleb128 0xb
 5752 019d 3B       		.uleb128 0x3b
 5753 019e 05       		.uleb128 0x5
 5754 019f 27       		.uleb128 0x27
 5755 01a0 0C       		.uleb128 0xc
 5756 01a1 49       		.uleb128 0x49
 5757 01a2 13       		.uleb128 0x13
 5758 01a3 11       		.uleb128 0x11
 5759 01a4 01       		.uleb128 0x1
 5760 01a5 12       		.uleb128 0x12
 5761 01a6 01       		.uleb128 0x1
 5762 01a7 40       		.uleb128 0x40
 5763 01a8 06       		.uleb128 0x6
 5764 01a9 01       		.uleb128 0x1
 5765 01aa 13       		.uleb128 0x13
 5766 01ab 00       		.byte	0x0
 5767 01ac 00       		.byte	0x0
 5768 01ad 22       		.uleb128 0x22
 5769 01ae 05       		.uleb128 0x5
 5770 01af 00       		.byte	0x0
 5771 01b0 03       		.uleb128 0x3
 5772 01b1 0E       		.uleb128 0xe
 5773 01b2 3A       		.uleb128 0x3a
 5774 01b3 0B       		.uleb128 0xb
 5775 01b4 3B       		.uleb128 0x3b
 5776 01b5 05       		.uleb128 0x5
 5777 01b6 49       		.uleb128 0x49
 5778 01b7 13       		.uleb128 0x13
 5779 01b8 02       		.uleb128 0x2
 5780 01b9 0A       		.uleb128 0xa
 5781 01ba 00       		.byte	0x0
ARM GAS  C:\Users\z80\AppData\Local\Temp\cc9PmWEj.s 			page 103


 5782 01bb 00       		.byte	0x0
 5783 01bc 23       		.uleb128 0x23
 5784 01bd 05       		.uleb128 0x5
 5785 01be 00       		.byte	0x0
 5786 01bf 03       		.uleb128 0x3
 5787 01c0 08       		.uleb128 0x8
 5788 01c1 3A       		.uleb128 0x3a
 5789 01c2 0B       		.uleb128 0xb
 5790 01c3 3B       		.uleb128 0x3b
 5791 01c4 05       		.uleb128 0x5
 5792 01c5 49       		.uleb128 0x49
 5793 01c6 13       		.uleb128 0x13
 5794 01c7 02       		.uleb128 0x2
 5795 01c8 0A       		.uleb128 0xa
 5796 01c9 00       		.byte	0x0
 5797 01ca 00       		.byte	0x0
 5798 01cb 24       		.uleb128 0x24
 5799 01cc 34       		.uleb128 0x34
 5800 01cd 00       		.byte	0x0
 5801 01ce 03       		.uleb128 0x3
 5802 01cf 08       		.uleb128 0x8
 5803 01d0 3A       		.uleb128 0x3a
 5804 01d1 0B       		.uleb128 0xb
 5805 01d2 3B       		.uleb128 0x3b
 5806 01d3 05       		.uleb128 0x5
 5807 01d4 49       		.uleb128 0x49
 5808 01d5 13       		.uleb128 0x13
 5809 01d6 02       		.uleb128 0x2
 5810 01d7 0A       		.uleb128 0xa
 5811 01d8 00       		.byte	0x0
 5812 01d9 00       		.byte	0x0
 5813 01da 25       		.uleb128 0x25
 5814 01db 0B       		.uleb128 0xb
 5815 01dc 01       		.byte	0x1
 5816 01dd 11       		.uleb128 0x11
 5817 01de 01       		.uleb128 0x1
 5818 01df 12       		.uleb128 0x12
 5819 01e0 01       		.uleb128 0x1
 5820 01e1 00       		.byte	0x0
 5821 01e2 00       		.byte	0x0
 5822 01e3 26       		.uleb128 0x26
 5823 01e4 2E       		.uleb128 0x2e
 5824 01e5 01       		.byte	0x1
 5825 01e6 03       		.uleb128 0x3
 5826 01e7 0E       		.uleb128 0xe
 5827 01e8 3A       		.uleb128 0x3a
 5828 01e9 0B       		.uleb128 0xb
 5829 01ea 3B       		.uleb128 0x3b
 5830 01eb 05       		.uleb128 0x5
 5831 01ec 27       		.uleb128 0x27
 5832 01ed 0C       		.uleb128 0xc
 5833 01ee 11       		.uleb128 0x11
 5834 01ef 01       		.uleb128 0x1
 5835 01f0 12       		.uleb128 0x12
 5836 01f1 01       		.uleb128 0x1
 5837 01f2 40       		.uleb128 0x40
 5838 01f3 06       		.uleb128 0x6
ARM GAS  C:\Users\z80\AppData\Local\Temp\cc9PmWEj.s 			page 104


 5839 01f4 01       		.uleb128 0x1
 5840 01f5 13       		.uleb128 0x13
 5841 01f6 00       		.byte	0x0
 5842 01f7 00       		.byte	0x0
 5843 01f8 27       		.uleb128 0x27
 5844 01f9 2E       		.uleb128 0x2e
 5845 01fa 00       		.byte	0x0
 5846 01fb 3F       		.uleb128 0x3f
 5847 01fc 0C       		.uleb128 0xc
 5848 01fd 03       		.uleb128 0x3
 5849 01fe 0E       		.uleb128 0xe
 5850 01ff 3A       		.uleb128 0x3a
 5851 0200 0B       		.uleb128 0xb
 5852 0201 3B       		.uleb128 0x3b
 5853 0202 05       		.uleb128 0x5
 5854 0203 27       		.uleb128 0x27
 5855 0204 0C       		.uleb128 0xc
 5856 0205 11       		.uleb128 0x11
 5857 0206 01       		.uleb128 0x1
 5858 0207 12       		.uleb128 0x12
 5859 0208 01       		.uleb128 0x1
 5860 0209 40       		.uleb128 0x40
 5861 020a 0A       		.uleb128 0xa
 5862 020b 00       		.byte	0x0
 5863 020c 00       		.byte	0x0
 5864 020d 28       		.uleb128 0x28
 5865 020e 2E       		.uleb128 0x2e
 5866 020f 01       		.byte	0x1
 5867 0210 3F       		.uleb128 0x3f
 5868 0211 0C       		.uleb128 0xc
 5869 0212 03       		.uleb128 0x3
 5870 0213 0E       		.uleb128 0xe
 5871 0214 3A       		.uleb128 0x3a
 5872 0215 0B       		.uleb128 0xb
 5873 0216 3B       		.uleb128 0x3b
 5874 0217 05       		.uleb128 0x5
 5875 0218 27       		.uleb128 0x27
 5876 0219 0C       		.uleb128 0xc
 5877 021a 11       		.uleb128 0x11
 5878 021b 01       		.uleb128 0x1
 5879 021c 12       		.uleb128 0x12
 5880 021d 01       		.uleb128 0x1
 5881 021e 40       		.uleb128 0x40
 5882 021f 06       		.uleb128 0x6
 5883 0220 01       		.uleb128 0x1
 5884 0221 13       		.uleb128 0x13
 5885 0222 00       		.byte	0x0
 5886 0223 00       		.byte	0x0
 5887 0224 29       		.uleb128 0x29
 5888 0225 2E       		.uleb128 0x2e
 5889 0226 01       		.byte	0x1
 5890 0227 3F       		.uleb128 0x3f
 5891 0228 0C       		.uleb128 0xc
 5892 0229 03       		.uleb128 0x3
 5893 022a 0E       		.uleb128 0xe
 5894 022b 3A       		.uleb128 0x3a
 5895 022c 0B       		.uleb128 0xb
ARM GAS  C:\Users\z80\AppData\Local\Temp\cc9PmWEj.s 			page 105


 5896 022d 3B       		.uleb128 0x3b
 5897 022e 05       		.uleb128 0x5
 5898 022f 27       		.uleb128 0x27
 5899 0230 0C       		.uleb128 0xc
 5900 0231 49       		.uleb128 0x49
 5901 0232 13       		.uleb128 0x13
 5902 0233 11       		.uleb128 0x11
 5903 0234 01       		.uleb128 0x1
 5904 0235 12       		.uleb128 0x12
 5905 0236 01       		.uleb128 0x1
 5906 0237 40       		.uleb128 0x40
 5907 0238 06       		.uleb128 0x6
 5908 0239 01       		.uleb128 0x1
 5909 023a 13       		.uleb128 0x13
 5910 023b 00       		.byte	0x0
 5911 023c 00       		.byte	0x0
 5912 023d 2A       		.uleb128 0x2a
 5913 023e 0A       		.uleb128 0xa
 5914 023f 00       		.byte	0x0
 5915 0240 03       		.uleb128 0x3
 5916 0241 0E       		.uleb128 0xe
 5917 0242 3A       		.uleb128 0x3a
 5918 0243 0B       		.uleb128 0xb
 5919 0244 3B       		.uleb128 0x3b
 5920 0245 05       		.uleb128 0x5
 5921 0246 11       		.uleb128 0x11
 5922 0247 01       		.uleb128 0x1
 5923 0248 00       		.byte	0x0
 5924 0249 00       		.byte	0x0
 5925 024a 2B       		.uleb128 0x2b
 5926 024b 0B       		.uleb128 0xb
 5927 024c 01       		.byte	0x1
 5928 024d 55       		.uleb128 0x55
 5929 024e 06       		.uleb128 0x6
 5930 024f 00       		.byte	0x0
 5931 0250 00       		.byte	0x0
 5932 0251 2C       		.uleb128 0x2c
 5933 0252 0B       		.uleb128 0xb
 5934 0253 01       		.byte	0x1
 5935 0254 11       		.uleb128 0x11
 5936 0255 01       		.uleb128 0x1
 5937 0256 12       		.uleb128 0x12
 5938 0257 01       		.uleb128 0x1
 5939 0258 01       		.uleb128 0x1
 5940 0259 13       		.uleb128 0x13
 5941 025a 00       		.byte	0x0
 5942 025b 00       		.byte	0x0
 5943 025c 2D       		.uleb128 0x2d
 5944 025d 34       		.uleb128 0x34
 5945 025e 00       		.byte	0x0
 5946 025f 03       		.uleb128 0x3
 5947 0260 0E       		.uleb128 0xe
 5948 0261 3A       		.uleb128 0x3a
 5949 0262 0B       		.uleb128 0xb
 5950 0263 3B       		.uleb128 0x3b
 5951 0264 05       		.uleb128 0x5
 5952 0265 49       		.uleb128 0x49
ARM GAS  C:\Users\z80\AppData\Local\Temp\cc9PmWEj.s 			page 106


 5953 0266 13       		.uleb128 0x13
 5954 0267 02       		.uleb128 0x2
 5955 0268 0A       		.uleb128 0xa
 5956 0269 00       		.byte	0x0
 5957 026a 00       		.byte	0x0
 5958 026b 2E       		.uleb128 0x2e
 5959 026c 34       		.uleb128 0x34
 5960 026d 00       		.byte	0x0
 5961 026e 03       		.uleb128 0x3
 5962 026f 0E       		.uleb128 0xe
 5963 0270 3A       		.uleb128 0x3a
 5964 0271 0B       		.uleb128 0xb
 5965 0272 3B       		.uleb128 0x3b
 5966 0273 05       		.uleb128 0x5
 5967 0274 49       		.uleb128 0x49
 5968 0275 13       		.uleb128 0x13
 5969 0276 3F       		.uleb128 0x3f
 5970 0277 0C       		.uleb128 0xc
 5971 0278 3C       		.uleb128 0x3c
 5972 0279 0C       		.uleb128 0xc
 5973 027a 00       		.byte	0x0
 5974 027b 00       		.byte	0x0
 5975 027c 2F       		.uleb128 0x2f
 5976 027d 34       		.uleb128 0x34
 5977 027e 00       		.byte	0x0
 5978 027f 03       		.uleb128 0x3
 5979 0280 0E       		.uleb128 0xe
 5980 0281 3A       		.uleb128 0x3a
 5981 0282 0B       		.uleb128 0xb
 5982 0283 3B       		.uleb128 0x3b
 5983 0284 0B       		.uleb128 0xb
 5984 0285 49       		.uleb128 0x49
 5985 0286 13       		.uleb128 0x13
 5986 0287 02       		.uleb128 0x2
 5987 0288 0A       		.uleb128 0xa
 5988 0289 00       		.byte	0x0
 5989 028a 00       		.byte	0x0
 5990 028b 00       		.byte	0x0
 5991              		.section	.debug_pubnames,"",%progbits
 5992 0000 27010000 		.4byte	0x127
 5993 0004 0200     		.2byte	0x2
 5994 0006 00000000 		.4byte	.Ldebug_info0
 5995 000a 7D120000 		.4byte	0x127d
 5996 000e 0F0E0000 		.4byte	0xe0f
 5997 0012 6D6D6349 		.ascii	"mmcInit\000"
 5997      6E697400 
 5998 001a 240E0000 		.4byte	0xe24
 5999 001e 6D6D634F 		.ascii	"mmcObjectInit\000"
 5999      626A6563 
 5999      74496E69 
 5999      7400
 6000 002c 4E0E0000 		.4byte	0xe4e
 6001 0030 6D6D6353 		.ascii	"mmcStart\000"
 6001      74617274 
 6001      00
 6002 0039 870E0000 		.4byte	0xe87
 6003 003d 6D6D6353 		.ascii	"mmcStop\000"
ARM GAS  C:\Users\z80\AppData\Local\Temp\cc9PmWEj.s 			page 107


 6003      746F7000 
 6004 0045 B10E0000 		.4byte	0xeb1
 6005 0049 6D6D6343 		.ascii	"mmcConnect\000"
 6005      6F6E6E65 
 6005      637400
 6006 0054 190F0000 		.4byte	0xf19
 6007 0058 6D6D6344 		.ascii	"mmcDisconnect\000"
 6007      6973636F 
 6007      6E6E6563 
 6007      7400
 6008 0066 970F0000 		.4byte	0xf97
 6009 006a 6D6D6353 		.ascii	"mmcStartSequentialRead\000"
 6009      74617274 
 6009      53657175 
 6009      656E7469 
 6009      616C5265 
 6010 0081 D40F0000 		.4byte	0xfd4
 6011 0085 6D6D6353 		.ascii	"mmcSequentialRead\000"
 6011      65717565 
 6011      6E746961 
 6011      6C526561 
 6011      6400
 6012 0097 1E100000 		.4byte	0x101e
 6013 009b 6D6D6353 		.ascii	"mmcStopSequentialRead\000"
 6013      746F7053 
 6013      65717565 
 6013      6E746961 
 6013      6C526561 
 6014 00b1 73100000 		.4byte	0x1073
 6015 00b5 6D6D6353 		.ascii	"mmcStartSequentialWrite\000"
 6015      74617274 
 6015      53657175 
 6015      656E7469 
 6015      616C5772 
 6016 00cd B0100000 		.4byte	0x10b0
 6017 00d1 6D6D6353 		.ascii	"mmcSequentialWrite\000"
 6017      65717565 
 6017      6E746961 
 6017      6C577269 
 6017      746500
 6018 00e4 21110000 		.4byte	0x1121
 6019 00e8 6D6D6353 		.ascii	"mmcStopSequentialWrite\000"
 6019      746F7053 
 6019      65717565 
 6019      6E746961 
 6019      6C577269 
 6020 00ff 66110000 		.4byte	0x1166
 6021 0103 6D6D6353 		.ascii	"mmcSync\000"
 6021      796E6300 
 6022 010b 94110000 		.4byte	0x1194
 6023 010f 6D6D6347 		.ascii	"mmcGetInfo\000"
 6023      6574496E 
 6023      666F00
 6024 011a D1110000 		.4byte	0x11d1
 6025 011e 6D6D6345 		.ascii	"mmcErase\000"
 6025      72617365 
 6025      00
ARM GAS  C:\Users\z80\AppData\Local\Temp\cc9PmWEj.s 			page 108


 6026 0127 00000000 		.4byte	0x0
 6027              		.section	.debug_pubtypes,"",%progbits
 6028 0000 26020000 		.4byte	0x226
 6029 0004 0200     		.2byte	0x2
 6030 0006 00000000 		.4byte	.Ldebug_info0
 6031 000a 7D120000 		.4byte	0x127d
 6032 000e 86000000 		.4byte	0x86
 6033 0012 73697A65 		.ascii	"size_t\000"
 6033      5F7400
 6034 0019 91000000 		.4byte	0x91
 6035 001d 75696E74 		.ascii	"uint8_t\000"
 6035      385F7400 
 6036 0025 9C000000 		.4byte	0x9c
 6037 0029 75696E74 		.ascii	"uint16_t\000"
 6037      31365F74 
 6037      00
 6038 0032 A7000000 		.4byte	0xa7
 6039 0036 696E7433 		.ascii	"int32_t\000"
 6039      325F7400 
 6040 003e B2000000 		.4byte	0xb2
 6041 0042 75696E74 		.ascii	"uint32_t\000"
 6041      33325F74 
 6041      00
 6042 004b BD000000 		.4byte	0xbd
 6043 004f 626F6F6C 		.ascii	"bool_t\000"
 6043      5F7400
 6044 0056 CF000000 		.4byte	0xcf
 6045 005a 746D6F64 		.ascii	"tmode_t\000"
 6045      655F7400 
 6046 0062 DA000000 		.4byte	0xda
 6047 0066 74737461 		.ascii	"tstate_t\000"
 6047      74655F74 
 6047      00
 6048 006f E5000000 		.4byte	0xe5
 6049 0073 74726566 		.ascii	"trefs_t\000"
 6049      735F7400 
 6050 007b F0000000 		.4byte	0xf0
 6051 007f 74736C69 		.ascii	"tslices_t\000"
 6051      6365735F 
 6051      7400
 6052 0089 FB000000 		.4byte	0xfb
 6053 008d 74707269 		.ascii	"tprio_t\000"
 6053      6F5F7400 
 6054 0095 06010000 		.4byte	0x106
 6055 0099 6D73675F 		.ascii	"msg_t\000"
 6055      7400
 6056 009f 11010000 		.4byte	0x111
 6057 00a3 6576656E 		.ascii	"eventmask_t\000"
 6057      746D6173 
 6057      6B5F7400 
 6058 00af 1C010000 		.4byte	0x11c
 6059 00b3 73797374 		.ascii	"systime_t\000"
 6059      696D655F 
 6059      7400
 6060 00bd 27010000 		.4byte	0x127
 6061 00c1 54687265 		.ascii	"Thread\000"
 6061      616400
ARM GAS  C:\Users\z80\AppData\Local\Temp\cc9PmWEj.s 			page 109


 6062 00c8 82020000 		.4byte	0x282
 6063 00cc 54687265 		.ascii	"ThreadsQueue\000"
 6063      61647351 
 6063      75657565 
 6063      00
 6064 00d9 A4020000 		.4byte	0x2a4
 6065 00dd 54687265 		.ascii	"ThreadsList\000"
 6065      6164734C 
 6065      69737400 
 6066 00e9 AF020000 		.4byte	0x2af
 6067 00ed 72656761 		.ascii	"regarm_t\000"
 6067      726D5F74 
 6067      00
 6068 00f6 BA020000 		.4byte	0x2ba
 6069 00fa 696E7463 		.ascii	"intctx\000"
 6069      747800
 6070 0101 48030000 		.4byte	0x348
 6071 0105 636F6E74 		.ascii	"context\000"
 6071      65787400 
 6072 010d 75030000 		.4byte	0x375
 6073 0111 4D757465 		.ascii	"Mutex\000"
 6073      7800
 6074 0117 B2030000 		.4byte	0x3b2
 6075 011b 4D757465 		.ascii	"Mutex\000"
 6075      7800
 6076 0121 32010000 		.4byte	0x132
 6077 0125 54687265 		.ascii	"Thread\000"
 6077      616400
 6078 012c 69040000 		.4byte	0x469
 6079 0130 444D415F 		.ascii	"DMA_Channel_TypeDef\000"
 6079      4368616E 
 6079      6E656C5F 
 6079      54797065 
 6079      44656600 
 6080 0144 E8040000 		.4byte	0x4e8
 6081 0148 4750494F 		.ascii	"GPIO_TypeDef\000"
 6081      5F547970 
 6081      65446566 
 6081      00
 6082 0155 0A060000 		.4byte	0x60a
 6083 0159 5350495F 		.ascii	"SPI_TypeDef\000"
 6083      54797065 
 6083      44656600 
 6084 0165 71060000 		.4byte	0x671
 6085 0169 73746D33 		.ascii	"stm32_dma_stream_t\000"
 6085      325F646D 
 6085      615F7374 
 6085      7265616D 
 6085      5F7400
 6086 017c BB060000 		.4byte	0x6bb
 6087 0180 626C6B73 		.ascii	"blkstate_t\000"
 6087      74617465 
 6087      5F7400
 6088 018b EB060000 		.4byte	0x6eb
 6089 018f 426C6F63 		.ascii	"BlockDeviceInfo\000"
 6089      6B446576 
 6089      69636549 
ARM GAS  C:\Users\z80\AppData\Local\Temp\cc9PmWEj.s 			page 110


 6089      6E666F00 
 6090 019f 77070000 		.4byte	0x777
 6091 01a3 696F706F 		.ascii	"ioportid_t\000"
 6091      72746964 
 6091      5F7400
 6092 01ae CA070000 		.4byte	0x7ca
 6093 01b2 73706973 		.ascii	"spistate_t\000"
 6093      74617465 
 6093      5F7400
 6094 01bd D5070000 		.4byte	0x7d5
 6095 01c1 53504944 		.ascii	"SPIDriver\000"
 6095      72697665 
 6095      7200
 6096 01cb 76080000 		.4byte	0x876
 6097 01cf 73706963 		.ascii	"spicallback_t\000"
 6097      616C6C62 
 6097      61636B5F 
 6097      7400
 6098 01dd E0080000 		.4byte	0x8e0
 6099 01e1 53504943 		.ascii	"SPIConfig\000"
 6099      6F6E6669 
 6099      6700
 6100 01eb E1070000 		.4byte	0x7e1
 6101 01ef 53504944 		.ascii	"SPIDriver\000"
 6101      72697665 
 6101      7200
 6102 01f9 30090000 		.4byte	0x930
 6103 01fd 4D4D4343 		.ascii	"MMCConfig\000"
 6103      6F6E6669 
 6103      6700
 6104 0207 3B090000 		.4byte	0x93b
 6105 020b 4D4D4344 		.ascii	"MMCDriverVMT\000"
 6105      72697665 
 6105      72564D54 
 6105      00
 6106 0218 390A0000 		.4byte	0xa39
 6107 021c 4D4D4344 		.ascii	"MMCDriver\000"
 6107      72697665 
 6107      7200
 6108 0226 00000000 		.4byte	0x0
 6109              		.section	.debug_aranges,"",%progbits
 6110 0000 E4000000 		.4byte	0xe4
 6111 0004 0200     		.2byte	0x2
 6112 0006 00000000 		.4byte	.Ldebug_info0
 6113 000a 04       		.byte	0x4
 6114 000b 00       		.byte	0x0
 6115 000c 0000     		.2byte	0x0
 6116 000e 0000     		.2byte	0x0
 6117 0010 00000000 		.4byte	.LFB63
 6118 0014 6C000000 		.4byte	.LFE63-.LFB63
 6119 0018 00000000 		.4byte	.LFB64
 6120 001c 6C000000 		.4byte	.LFE64-.LFB64
 6121 0020 00000000 		.4byte	.LFB65
 6122 0024 56000000 		.4byte	.LFE65-.LFB65
 6123 0028 00000000 		.4byte	.LFB66
 6124 002c 68000000 		.4byte	.LFE66-.LFB66
 6125 0030 00000000 		.4byte	.LFB67
ARM GAS  C:\Users\z80\AppData\Local\Temp\cc9PmWEj.s 			page 111


 6126 0034 8A000000 		.4byte	.LFE67-.LFB67
 6127 0038 00000000 		.4byte	.LFB68
 6128 003c 48000000 		.4byte	.LFE68-.LFB68
 6129 0040 00000000 		.4byte	.LFB69
 6130 0044 30000000 		.4byte	.LFE69-.LFB69
 6131 0048 00000000 		.4byte	.LFB70
 6132 004c 4A000000 		.4byte	.LFE70-.LFB70
 6133 0050 00000000 		.4byte	.LFB71
 6134 0054 4E000000 		.4byte	.LFE71-.LFB71
 6135 0058 00000000 		.4byte	.LFB72
 6136 005c 1C010000 		.4byte	.LFE72-.LFB72
 6137 0060 00000000 		.4byte	.LFB73
 6138 0064 48000000 		.4byte	.LFE73-.LFB73
 6139 0068 00000000 		.4byte	.LFB74
 6140 006c 02000000 		.4byte	.LFE74-.LFB74
 6141 0070 00000000 		.4byte	.LFB75
 6142 0074 2E000000 		.4byte	.LFE75-.LFB75
 6143 0078 00000000 		.4byte	.LFB76
 6144 007c 32000000 		.4byte	.LFE76-.LFB76
 6145 0080 00000000 		.4byte	.LFB77
 6146 0084 32000000 		.4byte	.LFE77-.LFB77
 6147 0088 00000000 		.4byte	.LFB78
 6148 008c 06020000 		.4byte	.LFE78-.LFB78
 6149 0090 00000000 		.4byte	.LFB79
 6150 0094 80000000 		.4byte	.LFE79-.LFB79
 6151 0098 00000000 		.4byte	.LFB80
 6152 009c 94000000 		.4byte	.LFE80-.LFB80
 6153 00a0 00000000 		.4byte	.LFB81
 6154 00a4 A6000000 		.4byte	.LFE81-.LFB81
 6155 00a8 00000000 		.4byte	.LFB82
 6156 00ac 54000000 		.4byte	.LFE82-.LFB82
 6157 00b0 00000000 		.4byte	.LFB83
 6158 00b4 94000000 		.4byte	.LFE83-.LFB83
 6159 00b8 00000000 		.4byte	.LFB84
 6160 00bc B0000000 		.4byte	.LFE84-.LFB84
 6161 00c0 00000000 		.4byte	.LFB85
 6162 00c4 4E000000 		.4byte	.LFE85-.LFB85
 6163 00c8 00000000 		.4byte	.LFB86
 6164 00cc 4C000000 		.4byte	.LFE86-.LFB86
 6165 00d0 00000000 		.4byte	.LFB87
 6166 00d4 38000000 		.4byte	.LFE87-.LFB87
 6167 00d8 00000000 		.4byte	.LFB88
 6168 00dc A4000000 		.4byte	.LFE88-.LFB88
 6169 00e0 00000000 		.4byte	0x0
 6170 00e4 00000000 		.4byte	0x0
 6171              		.section	.debug_ranges,"",%progbits
 6172              	.Ldebug_ranges0:
 6173 0000 0C010000 		.4byte	.LBB3
 6174 0004 28010000 		.4byte	.LBE3
 6175 0008 D6010000 		.4byte	.LBB5
 6176 000c DE010000 		.4byte	.LBE5
 6177 0010 52010000 		.4byte	.LBB4
 6178 0014 70010000 		.4byte	.LBE4
 6179 0018 00000000 		.4byte	0x0
 6180 001c 00000000 		.4byte	0x0
 6181 0020 00000000 		.4byte	.LFB63
 6182 0024 6C000000 		.4byte	.LFE63
ARM GAS  C:\Users\z80\AppData\Local\Temp\cc9PmWEj.s 			page 112


 6183 0028 00000000 		.4byte	.LFB64
 6184 002c 6C000000 		.4byte	.LFE64
 6185 0030 00000000 		.4byte	.LFB65
 6186 0034 56000000 		.4byte	.LFE65
 6187 0038 00000000 		.4byte	.LFB66
 6188 003c 68000000 		.4byte	.LFE66
 6189 0040 00000000 		.4byte	.LFB67
 6190 0044 8A000000 		.4byte	.LFE67
 6191 0048 00000000 		.4byte	.LFB68
 6192 004c 48000000 		.4byte	.LFE68
 6193 0050 00000000 		.4byte	.LFB69
 6194 0054 30000000 		.4byte	.LFE69
 6195 0058 00000000 		.4byte	.LFB70
 6196 005c 4A000000 		.4byte	.LFE70
 6197 0060 00000000 		.4byte	.LFB71
 6198 0064 4E000000 		.4byte	.LFE71
 6199 0068 00000000 		.4byte	.LFB72
 6200 006c 1C010000 		.4byte	.LFE72
 6201 0070 00000000 		.4byte	.LFB73
 6202 0074 48000000 		.4byte	.LFE73
 6203 0078 00000000 		.4byte	.LFB74
 6204 007c 02000000 		.4byte	.LFE74
 6205 0080 00000000 		.4byte	.LFB75
 6206 0084 2E000000 		.4byte	.LFE75
 6207 0088 00000000 		.4byte	.LFB76
 6208 008c 32000000 		.4byte	.LFE76
 6209 0090 00000000 		.4byte	.LFB77
 6210 0094 32000000 		.4byte	.LFE77
 6211 0098 00000000 		.4byte	.LFB78
 6212 009c 06020000 		.4byte	.LFE78
 6213 00a0 00000000 		.4byte	.LFB79
 6214 00a4 80000000 		.4byte	.LFE79
 6215 00a8 00000000 		.4byte	.LFB80
 6216 00ac 94000000 		.4byte	.LFE80
 6217 00b0 00000000 		.4byte	.LFB81
 6218 00b4 A6000000 		.4byte	.LFE81
 6219 00b8 00000000 		.4byte	.LFB82
 6220 00bc 54000000 		.4byte	.LFE82
 6221 00c0 00000000 		.4byte	.LFB83
 6222 00c4 94000000 		.4byte	.LFE83
 6223 00c8 00000000 		.4byte	.LFB84
 6224 00cc B0000000 		.4byte	.LFE84
 6225 00d0 00000000 		.4byte	.LFB85
 6226 00d4 4E000000 		.4byte	.LFE85
 6227 00d8 00000000 		.4byte	.LFB86
 6228 00dc 4C000000 		.4byte	.LFE86
 6229 00e0 00000000 		.4byte	.LFB87
 6230 00e4 38000000 		.4byte	.LFE87
 6231 00e8 00000000 		.4byte	.LFB88
 6232 00ec A4000000 		.4byte	.LFE88
 6233 00f0 00000000 		.4byte	0x0
 6234 00f4 00000000 		.4byte	0x0
 6235              		.section	.debug_str,"MS",%progbits,1
 6236              	.LASF98:
 6237 0000 426C6F63 		.ascii	"BlockDeviceInfo\000"
 6237      6B446576 
 6237      69636549 
ARM GAS  C:\Users\z80\AppData\Local\Temp\cc9PmWEj.s 			page 113


 6237      6E666F00 
 6238              	.LASF111:
 6239 0010 646D6172 		.ascii	"dmarx\000"
 6239      7800
 6240              	.LASF10:
 6241 0016 73697A65 		.ascii	"size_t\000"
 6241      5F7400
 6242              	.LASF97:
 6243 001d 626C6B5F 		.ascii	"blk_num\000"
 6243      6E756D00 
 6244              	.LASF54:
 6245 0025 7264796D 		.ascii	"rdymsg\000"
 6245      736700
 6246              	.LASF175:
 6247 002c 2E2E2F63 		.ascii	"../chibios_2.6.3/os/hal/src/mmc_spi.c\000"
 6247      68696269 
 6247      6F735F32 
 6247      2E362E33 
 6247      2F6F732F 
 6248              	.LASF167:
 6249 0052 62646970 		.ascii	"bdip\000"
 6249      00
 6250              	.LASF124:
 6251 0057 4D4D4344 		.ascii	"MMCDriverVMT\000"
 6251      72697665 
 6251      72564D54 
 6251      00
 6252              	.LASF133:
 6253 0064 63617061 		.ascii	"capacity\000"
 6253      63697479 
 6253      00
 6254              	.LASF168:
 6255 006d 6D6D6345 		.ascii	"mmcErase\000"
 6255      72617365 
 6255      00
 6256              	.LASF118:
 6257 0076 73737061 		.ascii	"sspad\000"
 6257      6400
 6258              	.LASF6:
 6259 007c 6C6F6E67 		.ascii	"long long unsigned int\000"
 6259      206C6F6E 
 6259      6720756E 
 6259      7369676E 
 6259      65642069 
 6260              	.LASF69:
 6261 0093 43524350 		.ascii	"CRCPR\000"
 6261      5200
 6262              	.LASF141:
 6263 0099 63726337 		.ascii	"crc7\000"
 6263      00
 6264              	.LASF55:
 6265 009e 65786974 		.ascii	"exitcode\000"
 6265      636F6465 
 6265      00
 6266              	.LASF84:
 6267 00a7 76656374 		.ascii	"vector\000"
 6267      6F7200
ARM GAS  C:\Users\z80\AppData\Local\Temp\cc9PmWEj.s 			page 114


 6268              	.LASF157:
 6269 00ae 6D6D6353 		.ascii	"mmcSequentialRead\000"
 6269      65717565 
 6269      6E746961 
 6269      6C526561 
 6269      6400
 6270              	.LASF106:
 6271 00c0 53504944 		.ascii	"SPIDriver\000"
 6271      72697665 
 6271      7200
 6272              	.LASF117:
 6273 00ca 7373706F 		.ascii	"ssport\000"
 6273      727400
 6274              	.LASF173:
 6275 00d1 49544D5F 		.ascii	"ITM_RxBuffer\000"
 6275      52784275 
 6275      66666572 
 6275      00
 6276              	.LASF95:
 6277 00de 626C6B73 		.ascii	"blkstate_t\000"
 6277      74617465 
 6277      5F7400
 6278              	.LASF28:
 6279 00e9 705F7072 		.ascii	"p_prio\000"
 6279      696F00
 6280              	.LASF149:
 6281 00f0 72657370 		.ascii	"response\000"
 6281      6F6E7365 
 6281      00
 6282              	.LASF136:
 6283 00f9 696E7374 		.ascii	"instance\000"
 6283      616E6365 
 6283      00
 6284              	.LASF5:
 6285 0102 6C6F6E67 		.ascii	"long long int\000"
 6285      206C6F6E 
 6285      6720696E 
 6285      7400
 6286              	.LASF0:
 6287 0110 7369676E 		.ascii	"signed char\000"
 6287      65642063 
 6287      68617200 
 6288              	.LASF125:
 6289 011c 69735F69 		.ascii	"is_inserted\000"
 6289      6E736572 
 6289      74656400 
 6290              	.LASF101:
 6291 0128 5350495F 		.ascii	"SPI_STOP\000"
 6291      53544F50 
 6291      00
 6292              	.LASF44:
 6293 0131 705F6D70 		.ascii	"p_mpool\000"
 6293      6F6F6C00 
 6294              	.LASF15:
 6295 0139 626F6F6C 		.ascii	"bool_t\000"
 6295      5F7400
 6296              	.LASF51:
ARM GAS  C:\Users\z80\AppData\Local\Temp\cc9PmWEj.s 			page 115


 6297 0140 6D5F7175 		.ascii	"m_queue\000"
 6297      65756500 
 6298              	.LASF128:
 6299 0148 64697363 		.ascii	"disconnect\000"
 6299      6F6E6E65 
 6299      637400
 6300              	.LASF127:
 6301 0153 636F6E6E 		.ascii	"connect\000"
 6301      65637400 
 6302              	.LASF86:
 6303 015b 424C4B5F 		.ascii	"BLK_UNINIT\000"
 6303      554E494E 
 6303      495400
 6304              	.LASF107:
 6305 0166 73746174 		.ascii	"state\000"
 6305      6500
 6306              	.LASF99:
 6307 016c 696F706F 		.ascii	"ioportid_t\000"
 6307      72746964 
 6307      5F7400
 6308              	.LASF7:
 6309 0177 6C6F6E67 		.ascii	"long int\000"
 6309      20696E74 
 6309      00
 6310              	.LASF151:
 6311 0180 6D6D634F 		.ascii	"mmcObjectInit\000"
 6311      626A6563 
 6311      74496E69 
 6311      7400
 6312              	.LASF18:
 6313 018e 74737461 		.ascii	"tstate_t\000"
 6313      74655F74 
 6313      00
 6314              	.LASF109:
 6315 0197 74687265 		.ascii	"thread\000"
 6315      616400
 6316              	.LASF145:
 6317 019e 72656376 		.ascii	"recvr1\000"
 6317      723100
 6318              	.LASF146:
 6319 01a5 72656376 		.ascii	"recvr3\000"
 6319      723300
 6320              	.LASF87:
 6321 01ac 424C4B5F 		.ascii	"BLK_STOP\000"
 6321      53544F50 
 6321      00
 6322              	.LASF12:
 6323 01b5 75696E74 		.ascii	"uint16_t\000"
 6323      31365F74 
 6323      00
 6324              	.LASF37:
 6325 01be 705F7469 		.ascii	"p_time\000"
 6325      6D6500
 6326              	.LASF139:
 6327 01c5 6D6D635F 		.ascii	"mmc_read\000"
 6327      72656164 
 6327      00
ARM GAS  C:\Users\z80\AppData\Local\Temp\cc9PmWEj.s 			page 116


 6328              	.LASF30:
 6329 01ce 705F6E65 		.ascii	"p_newer\000"
 6329      77657200 
 6330              	.LASF116:
 6331 01d6 656E645F 		.ascii	"end_cb\000"
 6331      636200
 6332              	.LASF113:
 6333 01dd 7278646D 		.ascii	"rxdmamode\000"
 6333      616D6F64 
 6333      6500
 6334              	.LASF132:
 6335 01e7 6765745F 		.ascii	"get_info\000"
 6335      696E666F 
 6335      00
 6336              	.LASF112:
 6337 01f0 646D6174 		.ascii	"dmatx\000"
 6337      7800
 6338              	.LASF47:
 6339 01f6 72656761 		.ascii	"regarm_t\000"
 6339      726D5F74 
 6339      00
 6340              	.LASF83:
 6341 01ff 73656C66 		.ascii	"selfindex\000"
 6341      696E6465 
 6341      7800
 6342              	.LASF80:
 6343 0209 6368616E 		.ascii	"channel\000"
 6343      6E656C00 
 6344              	.LASF115:
 6345 0211 73706963 		.ascii	"spicallback_t\000"
 6345      616C6C62 
 6345      61636B5F 
 6345      7400
 6346              	.LASF96:
 6347 021f 626C6B5F 		.ascii	"blk_size\000"
 6347      73697A65 
 6347      00
 6348              	.LASF20:
 6349 0228 74736C69 		.ascii	"tslices_t\000"
 6349      6365735F 
 6349      7400
 6350              	.LASF4:
 6351 0232 756E7369 		.ascii	"unsigned int\000"
 6351      676E6564 
 6351      20696E74 
 6351      00
 6352              	.LASF160:
 6353 023f 6D6D6353 		.ascii	"mmcStartSequentialWrite\000"
 6353      74617274 
 6353      53657175 
 6353      656E7469 
 6353      616C5772 
 6354              	.LASF59:
 6355 0257 43504152 		.ascii	"CPAR\000"
 6355      00
 6356              	.LASF144:
 6357 025c 73656E64 		.ascii	"send_hdr\000"
ARM GAS  C:\Users\z80\AppData\Local\Temp\cc9PmWEj.s 			page 117


 6357      5F686472 
 6357      00
 6358              	.LASF39:
 6359 0265 705F6D73 		.ascii	"p_msgqueue\000"
 6359      67717565 
 6359      756500
 6360              	.LASF64:
 6361 0270 4750494F 		.ascii	"GPIO_TypeDef\000"
 6361      5F547970 
 6361      65446566 
 6361      00
 6362              	.LASF63:
 6363 027d 4C434B52 		.ascii	"LCKR\000"
 6363      00
 6364              	.LASF82:
 6365 0282 69736869 		.ascii	"ishift\000"
 6365      667400
 6366              	.LASF3:
 6367 0289 73686F72 		.ascii	"short unsigned int\000"
 6367      7420756E 
 6367      7369676E 
 6367      65642069 
 6367      6E7400
 6368              	.LASF88:
 6369 029c 424C4B5F 		.ascii	"BLK_ACTIVE\000"
 6369      41435449 
 6369      564500
 6370              	.LASF77:
 6371 02a7 49325350 		.ascii	"I2SPR\000"
 6371      5200
 6372              	.LASF121:
 6373 02ad 6C736366 		.ascii	"lscfg\000"
 6373      6700
 6374              	.LASF134:
 6375 02b3 626C6F63 		.ascii	"block_addresses\000"
 6375      6B5F6164 
 6375      64726573 
 6375      73657300 
 6376              	.LASF22:
 6377 02c3 6D73675F 		.ascii	"msg_t\000"
 6377      7400
 6378              	.LASF43:
 6379 02c9 705F7265 		.ascii	"p_realprio\000"
 6379      616C7072 
 6379      696F00
 6380              	.LASF89:
 6381 02d4 424C4B5F 		.ascii	"BLK_CONNECTING\000"
 6381      434F4E4E 
 6381      45435449 
 6381      4E4700
 6382              	.LASF17:
 6383 02e3 746D6F64 		.ascii	"tmode_t\000"
 6383      655F7400 
 6384              	.LASF105:
 6385 02eb 73706973 		.ascii	"spistate_t\000"
 6385      74617465 
 6385      5F7400
ARM GAS  C:\Users\z80\AppData\Local\Temp\cc9PmWEj.s 			page 118


 6386              	.LASF120:
 6387 02f6 73706970 		.ascii	"spip\000"
 6387      00
 6388              	.LASF46:
 6389 02fb 54687265 		.ascii	"ThreadsList\000"
 6389      6164734C 
 6389      69737400 
 6390              	.LASF23:
 6391 0307 6576656E 		.ascii	"eventmask_t\000"
 6391      746D6173 
 6391      6B5F7400 
 6392              	.LASF176:
 6393 0313 433A5C70 		.ascii	"C:\\projects\\clock.git\\firmware\\firmware\000"
 6393      726F6A65 
 6393      6374735C 
 6393      636C6F63 
 6393      6B2E6769 
 6394              	.LASF152:
 6395 033b 6D6D6353 		.ascii	"mmcStart\000"
 6395      74617274 
 6395      00
 6396              	.LASF25:
 6397 0344 54687265 		.ascii	"Thread\000"
 6397      616400
 6398              	.LASF130:
 6399 034b 77726974 		.ascii	"write\000"
 6399      6500
 6400              	.LASF172:
 6401 0351 63726337 		.ascii	"crc7_lookup_table\000"
 6401      5F6C6F6F 
 6401      6B75705F 
 6401      7461626C 
 6401      6500
 6402              	.LASF92:
 6403 0363 424C4B5F 		.ascii	"BLK_READING\000"
 6403      52454144 
 6403      494E4700 
 6404              	.LASF166:
 6405 036f 6D6D6347 		.ascii	"mmcGetInfo\000"
 6405      6574496E 
 6405      666F00
 6406              	.LASF103:
 6407 037a 5350495F 		.ascii	"SPI_ACTIVE\000"
 6407      41435449 
 6407      564500
 6408              	.LASF50:
 6409 0385 4D757465 		.ascii	"Mutex\000"
 6409      7800
 6410              	.LASF75:
 6411 038b 49325343 		.ascii	"I2SCFGR\000"
 6411      46475200 
 6412              	.LASF159:
 6413 0393 73746F70 		.ascii	"stopcmd\000"
 6413      636D6400 
 6414              	.LASF153:
 6415 039b 6D6D6353 		.ascii	"mmcStop\000"
 6415      746F7000 
ARM GAS  C:\Users\z80\AppData\Local\Temp\cc9PmWEj.s 			page 119


 6416              	.LASF31:
 6417 03a3 705F6F6C 		.ascii	"p_older\000"
 6417      64657200 
 6418              	.LASF94:
 6419 03ab 424C4B5F 		.ascii	"BLK_SYNCING\000"
 6419      53594E43 
 6419      494E4700 
 6420              	.LASF156:
 6421 03b7 6D6D6353 		.ascii	"mmcStartSequentialRead\000"
 6421      74617274 
 6421      53657175 
 6421      656E7469 
 6421      616C5265 
 6422              	.LASF91:
 6423 03ce 424C4B5F 		.ascii	"BLK_READY\000"
 6423      52454144 
 6423      5900
 6424              	.LASF45:
 6425 03d8 54687265 		.ascii	"ThreadsQueue\000"
 6425      61647351 
 6425      75657565 
 6425      00
 6426              	.LASF114:
 6427 03e5 7478646D 		.ascii	"txdmamode\000"
 6427      616D6F64 
 6427      6500
 6428              	.LASF123:
 6429 03ef 4D4D4343 		.ascii	"MMCConfig\000"
 6429      6F6E6669 
 6429      6700
 6430              	.LASF170:
 6431 03f9 6661696C 		.ascii	"failed\000"
 6431      656400
 6432              	.LASF163:
 6433 0400 6D6D6353 		.ascii	"mmcStopSequentialWrite\000"
 6433      746F7053 
 6433      65717565 
 6433      6E746961 
 6433      6C577269 
 6434              	.LASF140:
 6435 0417 6D6D635F 		.ascii	"mmc_write\000"
 6435      77726974 
 6435      6500
 6436              	.LASF61:
 6437 0421 444D415F 		.ascii	"DMA_Channel_TypeDef\000"
 6437      4368616E 
 6437      6E656C5F 
 6437      54797065 
 6437      44656600 
 6438              	.LASF171:
 6439 0435 6D6D635F 		.ascii	"mmc_vmt\000"
 6439      766D7400 
 6440              	.LASF73:
 6441 043d 54584352 		.ascii	"TXCRCR\000"
 6441      435200
 6442              	.LASF65:
 6443 0444 52455345 		.ascii	"RESERVED0\000"
ARM GAS  C:\Users\z80\AppData\Local\Temp\cc9PmWEj.s 			page 120


 6443      52564544 
 6443      3000
 6444              	.LASF66:
 6445 044e 52455345 		.ascii	"RESERVED1\000"
 6445      52564544 
 6445      3100
 6446              	.LASF67:
 6447 0458 52455345 		.ascii	"RESERVED2\000"
 6447      52564544 
 6447      3200
 6448              	.LASF68:
 6449 0462 52455345 		.ascii	"RESERVED3\000"
 6449      52564544 
 6449      3300
 6450              	.LASF70:
 6451 046c 52455345 		.ascii	"RESERVED4\000"
 6451      52564544 
 6451      3400
 6452              	.LASF27:
 6453 0476 705F7072 		.ascii	"p_prev\000"
 6453      657600
 6454              	.LASF74:
 6455 047d 52455345 		.ascii	"RESERVED6\000"
 6455      52564544 
 6455      3600
 6456              	.LASF76:
 6457 0487 52455345 		.ascii	"RESERVED7\000"
 6457      52564544 
 6457      3700
 6458              	.LASF78:
 6459 0491 52455345 		.ascii	"RESERVED8\000"
 6459      52564544 
 6459      3800
 6460              	.LASF21:
 6461 049b 74707269 		.ascii	"tprio_t\000"
 6461      6F5F7400 
 6462              	.LASF110:
 6463 04a3 6D757465 		.ascii	"mutex\000"
 6463      7800
 6464              	.LASF16:
 6465 04a9 5F426F6F 		.ascii	"_Bool\000"
 6465      6C00
 6466              	.LASF13:
 6467 04af 696E7433 		.ascii	"int32_t\000"
 6467      325F7400 
 6468              	.LASF1:
 6469 04b7 756E7369 		.ascii	"unsigned char\000"
 6469      676E6564 
 6469      20636861 
 6469      7200
 6470              	.LASF85:
 6471 04c5 73746D33 		.ascii	"stm32_dma_stream_t\000"
 6471      325F646D 
 6471      615F7374 
 6471      7265616D 
 6471      5F7400
 6472              	.LASF33:
ARM GAS  C:\Users\z80\AppData\Local\Temp\cc9PmWEj.s 			page 121


 6473 04d8 705F7374 		.ascii	"p_state\000"
 6473      61746500 
 6474              	.LASF42:
 6475 04e0 705F6D74 		.ascii	"p_mtxlist\000"
 6475      786C6973 
 6475      7400
 6476              	.LASF2:
 6477 04ea 73686F72 		.ascii	"short int\000"
 6477      7420696E 
 6477      7400
 6478              	.LASF93:
 6479 04f4 424C4B5F 		.ascii	"BLK_WRITING\000"
 6479      57524954 
 6479      494E4700 
 6480              	.LASF36:
 6481 0500 705F7072 		.ascii	"p_preempt\000"
 6481      65656D70 
 6481      7400
 6482              	.LASF57:
 6483 050a 65776D61 		.ascii	"ewmask\000"
 6483      736B00
 6484              	.LASF26:
 6485 0511 705F6E65 		.ascii	"p_next\000"
 6485      787400
 6486              	.LASF34:
 6487 0518 705F666C 		.ascii	"p_flags\000"
 6487      61677300 
 6488              	.LASF161:
 6489 0520 6D6D6353 		.ascii	"mmcSequentialWrite\000"
 6489      65717565 
 6489      6E746961 
 6489      6C577269 
 6489      746500
 6490              	.LASF164:
 6491 0533 73746F70 		.ascii	"stop\000"
 6491      00
 6492              	.LASF150:
 6493 0538 72656164 		.ascii	"read_CxD\000"
 6493      5F437844 
 6493      00
 6494              	.LASF155:
 6495 0541 6D6D6344 		.ascii	"mmcDisconnect\000"
 6495      6973636F 
 6495      6E6E6563 
 6495      7400
 6496              	.LASF41:
 6497 054f 705F6570 		.ascii	"p_epending\000"
 6497      656E6469 
 6497      6E6700
 6498              	.LASF81:
 6499 055a 69666372 		.ascii	"ifcr\000"
 6499      00
 6500              	.LASF72:
 6501 055f 52455345 		.ascii	"RESERVED5\000"
 6501      52564544 
 6501      3500
 6502              	.LASF177:
ARM GAS  C:\Users\z80\AppData\Local\Temp\cc9PmWEj.s 			page 122


 6503 0569 6D6D6349 		.ascii	"mmcInit\000"
 6503      6E697400 
 6504              	.LASF14:
 6505 0571 75696E74 		.ascii	"uint32_t\000"
 6505      33325F74 
 6505      00
 6506              	.LASF19:
 6507 057a 74726566 		.ascii	"trefs_t\000"
 6507      735F7400 
 6508              	.LASF142:
 6509 0582 6D6D6370 		.ascii	"mmcp\000"
 6509      00
 6510              	.LASF8:
 6511 0587 6C6F6E67 		.ascii	"long unsigned int\000"
 6511      20756E73 
 6511      69676E65 
 6511      6420696E 
 6511      7400
 6512              	.LASF79:
 6513 0599 5350495F 		.ascii	"SPI_TypeDef\000"
 6513      54797065 
 6513      44656600 
 6514              	.LASF129:
 6515 05a5 72656164 		.ascii	"read\000"
 6515      00
 6516              	.LASF9:
 6517 05aa 63686172 		.ascii	"char\000"
 6517      00
 6518              	.LASF104:
 6519 05af 5350495F 		.ascii	"SPI_COMPLETE\000"
 6519      434F4D50 
 6519      4C455445 
 6519      00
 6520              	.LASF90:
 6521 05bc 424C4B5F 		.ascii	"BLK_DISCONNECTING\000"
 6521      44495343 
 6521      4F4E4E45 
 6521      4354494E 
 6521      4700
 6522              	.LASF108:
 6523 05ce 636F6E66 		.ascii	"config\000"
 6523      696700
 6524              	.LASF53:
 6525 05d5 6D5F6E65 		.ascii	"m_next\000"
 6525      787400
 6526              	.LASF24:
 6527 05dc 73797374 		.ascii	"systime_t\000"
 6527      696D655F 
 6527      7400
 6528              	.LASF143:
 6529 05e6 77616974 		.ascii	"wait\000"
 6529      00
 6530              	.LASF138:
 6531 05eb 62756666 		.ascii	"buffer\000"
 6531      657200
 6532              	.LASF137:
 6533 05f2 73746172 		.ascii	"startblk\000"
ARM GAS  C:\Users\z80\AppData\Local\Temp\cc9PmWEj.s 			page 123


 6533      74626C6B 
 6533      00
 6534              	.LASF49:
 6535 05fb 636F6E74 		.ascii	"context\000"
 6535      65787400 
 6536              	.LASF48:
 6537 0603 696E7463 		.ascii	"intctx\000"
 6537      747800
 6538              	.LASF126:
 6539 060a 69735F70 		.ascii	"is_protected\000"
 6539      726F7465 
 6539      63746564 
 6539      00
 6540              	.LASF102:
 6541 0617 5350495F 		.ascii	"SPI_READY\000"
 6541      52454144 
 6541      5900
 6542              	.LASF100:
 6543 0621 5350495F 		.ascii	"SPI_UNINIT\000"
 6543      554E494E 
 6543      495400
 6544              	.LASF135:
 6545 062c 4D4D4344 		.ascii	"MMCDriver\000"
 6545      72697665 
 6545      7200
 6546              	.LASF35:
 6547 0636 705F7265 		.ascii	"p_refs\000"
 6547      667300
 6548              	.LASF62:
 6549 063d 42535252 		.ascii	"BSRR\000"
 6549      00
 6550              	.LASF122:
 6551 0642 68736366 		.ascii	"hscfg\000"
 6551      6700
 6552              	.LASF58:
 6553 0648 434E4454 		.ascii	"CNDTR\000"
 6553      5200
 6554              	.LASF60:
 6555 064e 434D4152 		.ascii	"CMAR\000"
 6555      00
 6556              	.LASF71:
 6557 0653 52584352 		.ascii	"RXCRCR\000"
 6557      435200
 6558              	.LASF40:
 6559 065a 705F6D73 		.ascii	"p_msg\000"
 6559      6700
 6560              	.LASF11:
 6561 0660 75696E74 		.ascii	"uint8_t\000"
 6561      385F7400 
 6562              	.LASF147:
 6563 0668 73656E64 		.ascii	"send_command_R1\000"
 6563      5F636F6D 
 6563      6D616E64 
 6563      5F523100 
 6564              	.LASF148:
 6565 0678 73656E64 		.ascii	"send_command_R3\000"
 6565      5F636F6D 
ARM GAS  C:\Users\z80\AppData\Local\Temp\cc9PmWEj.s 			page 124


 6565      6D616E64 
 6565      5F523300 
 6566              	.LASF131:
 6567 0688 73796E63 		.ascii	"sync\000"
 6567      00
 6568              	.LASF169:
 6569 068d 656E6462 		.ascii	"endblk\000"
 6569      6C6B00
 6570              	.LASF174:
 6571 0694 474E5520 		.ascii	"GNU C 4.5.0\000"
 6571      4320342E 
 6571      352E3000 
 6572              	.LASF56:
 6573 06a0 77746F62 		.ascii	"wtobjp\000"
 6573      6A7000
 6574              	.LASF32:
 6575 06a7 705F6E61 		.ascii	"p_name\000"
 6575      6D6500
 6576              	.LASF119:
 6577 06ae 53504943 		.ascii	"SPIConfig\000"
 6577      6F6E6669 
 6577      6700
 6578              	.LASF162:
 6579 06b8 73746172 		.ascii	"start\000"
 6579      7400
 6580              	.LASF154:
 6581 06be 6D6D6343 		.ascii	"mmcConnect\000"
 6581      6F6E6E65 
 6581      637400
 6582              	.LASF165:
 6583 06c9 6D6D6353 		.ascii	"mmcSync\000"
 6583      796E6300 
 6584              	.LASF158:
 6585 06d1 6D6D6353 		.ascii	"mmcStopSequentialRead\000"
 6585      746F7053 
 6585      65717565 
 6585      6E746961 
 6585      6C526561 
 6586              	.LASF52:
 6587 06e7 6D5F6F77 		.ascii	"m_owner\000"
 6587      6E657200 
 6588              	.LASF29:
 6589 06ef 705F6374 		.ascii	"p_ctx\000"
 6589      7800
 6590              	.LASF38:
 6591 06f5 705F7761 		.ascii	"p_waiting\000"
 6591      6974696E 
 6591      6700
 6592              		.ident	"GCC: (GNU) 4.5.0"
ARM GAS  C:\Users\z80\AppData\Local\Temp\cc9PmWEj.s 			page 125


DEFINED SYMBOLS
                            *ABS*:00000000 mmc_spi.c
C:\Users\z80\AppData\Local\Temp\cc9PmWEj.s:24     .rodata.mmc_vmt:00000000 $d
C:\Users\z80\AppData\Local\Temp\cc9PmWEj.s:27     .rodata.mmc_vmt:00000000 mmc_vmt
C:\Users\z80\AppData\Local\Temp\cc9PmWEj.s:1290   .text.mmcConnect:00000000 mmcConnect
C:\Users\z80\AppData\Local\Temp\cc9PmWEj.s:1595   .text.mmcDisconnect:00000000 mmcDisconnect
C:\Users\z80\AppData\Local\Temp\cc9PmWEj.s:303    .text.mmc_read:00000000 mmc_read
C:\Users\z80\AppData\Local\Temp\cc9PmWEj.s:385    .text.mmc_write:00000000 mmc_write
C:\Users\z80\AppData\Local\Temp\cc9PmWEj.s:2249   .text.mmcSync:00000000 mmcSync
C:\Users\z80\AppData\Local\Temp\cc9PmWEj.s:2313   .text.mmcGetInfo:00000000 mmcGetInfo
C:\Users\z80\AppData\Local\Temp\cc9PmWEj.s:37     .rodata.crc7_lookup_table:00000000 $d
C:\Users\z80\AppData\Local\Temp\cc9PmWEj.s:40     .rodata.crc7_lookup_table:00000000 crc7_lookup_table
C:\Users\z80\AppData\Local\Temp\cc9PmWEj.s:298    .text.mmc_read:00000000 $t
C:\Users\z80\AppData\Local\Temp\cc9PmWEj.s:1702   .text.mmcStartSequentialRead:00000000 mmcStartSequentialRead
C:\Users\z80\AppData\Local\Temp\cc9PmWEj.s:1801   .text.mmcSequentialRead:00000000 mmcSequentialRead
C:\Users\z80\AppData\Local\Temp\cc9PmWEj.s:1913   .text.mmcStopSequentialRead:00000000 mmcStopSequentialRead
C:\Users\z80\AppData\Local\Temp\cc9PmWEj.s:380    .text.mmc_write:00000000 $t
C:\Users\z80\AppData\Local\Temp\cc9PmWEj.s:1978   .text.mmcStartSequentialWrite:00000000 mmcStartSequentialWrite
C:\Users\z80\AppData\Local\Temp\cc9PmWEj.s:2077   .text.mmcSequentialWrite:00000000 mmcSequentialWrite
C:\Users\z80\AppData\Local\Temp\cc9PmWEj.s:2187   .text.mmcStopSequentialWrite:00000000 mmcStopSequentialWrite
C:\Users\z80\AppData\Local\Temp\cc9PmWEj.s:461    .text.crc7:00000000 $t
C:\Users\z80\AppData\Local\Temp\cc9PmWEj.s:466    .text.crc7:00000000 crc7
C:\Users\z80\AppData\Local\Temp\cc9PmWEj.s:519    .text.wait:00000000 $t
C:\Users\z80\AppData\Local\Temp\cc9PmWEj.s:524    .text.wait:00000000 wait
C:\Users\z80\AppData\Local\Temp\cc9PmWEj.s:601    .text.send_hdr:00000000 $t
C:\Users\z80\AppData\Local\Temp\cc9PmWEj.s:606    .text.send_hdr:00000000 send_hdr
C:\Users\z80\AppData\Local\Temp\cc9PmWEj.s:679    .text.recvr1:00000000 $t
C:\Users\z80\AppData\Local\Temp\cc9PmWEj.s:684    .text.recvr1:00000000 recvr1
C:\Users\z80\AppData\Local\Temp\cc9PmWEj.s:740    .text.recvr3:00000000 $t
C:\Users\z80\AppData\Local\Temp\cc9PmWEj.s:745    .text.recvr3:00000000 recvr3
C:\Users\z80\AppData\Local\Temp\cc9PmWEj.s:783    .text.send_command_R1:00000000 $t
C:\Users\z80\AppData\Local\Temp\cc9PmWEj.s:788    .text.send_command_R1:00000000 send_command_R1
C:\Users\z80\AppData\Local\Temp\cc9PmWEj.s:838    .text.send_command_R3:00000000 $t
C:\Users\z80\AppData\Local\Temp\cc9PmWEj.s:843    .text.send_command_R3:00000000 send_command_R3
C:\Users\z80\AppData\Local\Temp\cc9PmWEj.s:895    .text.read_CxD:00000000 $t
C:\Users\z80\AppData\Local\Temp\cc9PmWEj.s:900    .text.read_CxD:00000000 read_CxD
C:\Users\z80\AppData\Local\Temp\cc9PmWEj.s:1059   .text.sync:00000000 $t
C:\Users\z80\AppData\Local\Temp\cc9PmWEj.s:1064   .text.sync:00000000 sync
C:\Users\z80\AppData\Local\Temp\cc9PmWEj.s:1117   .text.mmcInit:00000000 $t
C:\Users\z80\AppData\Local\Temp\cc9PmWEj.s:1123   .text.mmcInit:00000000 mmcInit
C:\Users\z80\AppData\Local\Temp\cc9PmWEj.s:1136   .text.mmcObjectInit:00000000 $t
C:\Users\z80\AppData\Local\Temp\cc9PmWEj.s:1142   .text.mmcObjectInit:00000000 mmcObjectInit
C:\Users\z80\AppData\Local\Temp\cc9PmWEj.s:1177   .text.mmcStart:00000000 $t
C:\Users\z80\AppData\Local\Temp\cc9PmWEj.s:1183   .text.mmcStart:00000000 mmcStart
C:\Users\z80\AppData\Local\Temp\cc9PmWEj.s:1231   .text.mmcStop:00000000 $t
C:\Users\z80\AppData\Local\Temp\cc9PmWEj.s:1237   .text.mmcStop:00000000 mmcStop
C:\Users\z80\AppData\Local\Temp\cc9PmWEj.s:1284   .text.mmcConnect:00000000 $t
C:\Users\z80\AppData\Local\Temp\cc9PmWEj.s:1589   .text.mmcDisconnect:00000000 $t
C:\Users\z80\AppData\Local\Temp\cc9PmWEj.s:1696   .text.mmcStartSequentialRead:00000000 $t
C:\Users\z80\AppData\Local\Temp\cc9PmWEj.s:1795   .text.mmcSequentialRead:00000000 $t
C:\Users\z80\AppData\Local\Temp\cc9PmWEj.s:1907   .text.mmcStopSequentialRead:00000000 $t
C:\Users\z80\AppData\Local\Temp\cc9PmWEj.s:2491   .rodata.stopcmd.4180:00000000 stopcmd.4180
C:\Users\z80\AppData\Local\Temp\cc9PmWEj.s:1972   .text.mmcStartSequentialWrite:00000000 $t
C:\Users\z80\AppData\Local\Temp\cc9PmWEj.s:2071   .text.mmcSequentialWrite:00000000 $t
C:\Users\z80\AppData\Local\Temp\cc9PmWEj.s:2484   .rodata.start.4189:00000000 start.4189
C:\Users\z80\AppData\Local\Temp\cc9PmWEj.s:2181   .text.mmcStopSequentialWrite:00000000 $t
C:\Users\z80\AppData\Local\Temp\cc9PmWEj.s:2477   .rodata.stop.4194:00000000 stop.4194
ARM GAS  C:\Users\z80\AppData\Local\Temp\cc9PmWEj.s 			page 126


C:\Users\z80\AppData\Local\Temp\cc9PmWEj.s:2243   .text.mmcSync:00000000 $t
C:\Users\z80\AppData\Local\Temp\cc9PmWEj.s:2307   .text.mmcGetInfo:00000000 $t
C:\Users\z80\AppData\Local\Temp\cc9PmWEj.s:2362   .text.mmcErase:00000000 $t
C:\Users\z80\AppData\Local\Temp\cc9PmWEj.s:2368   .text.mmcErase:00000000 mmcErase
C:\Users\z80\AppData\Local\Temp\cc9PmWEj.s:2474   .rodata.stop.4194:00000000 $d
C:\Users\z80\AppData\Local\Temp\cc9PmWEj.s:2481   .rodata.start.4189:00000000 $d
C:\Users\z80\AppData\Local\Temp\cc9PmWEj.s:2488   .rodata.stopcmd.4180:00000000 $d
                     .debug_frame:00000010 $d

UNDEFINED SYMBOLS
mmc_lld_is_card_inserted
mmc_lld_is_write_protected
spiReceive
chThdSleep
spiSend
spiSelect
spiUnselect
spiIgnore
spiStop
spiStart
mmcsdGetCapacity
