ARM GAS  C:\Users\z80\AppData\Local\Temp\cc1T9gbj.s 			page 1


   1              		.syntax unified
   2              		.cpu cortex-m3
   3              		.fpu softvfp
   4              		.eabi_attribute 20, 1
   5              		.eabi_attribute 21, 1
   6              		.eabi_attribute 23, 3
   7              		.eabi_attribute 24, 1
   8              		.eabi_attribute 25, 1
   9              		.eabi_attribute 26, 1
  10              		.eabi_attribute 30, 6
  11              		.eabi_attribute 18, 4
  12              		.thumb
  13              		.file	"nvic.c"
  20 0000 E1000000 		.text
  20      02009700 
  20      00000201 
  20      FB0E0D00 
  20      01010101 
  21              	.Ltext0:
  22              		.cfi_sections	.debug_frame
  23              		.section	.text.nvicEnableVector,"ax",%progbits
  24              		.align	2
  25              		.p2align 4,,15
  26              		.global	nvicEnableVector
  27              		.thumb
  28              		.thumb_func
  29              		.type	nvicEnableVector, %function
  30              	nvicEnableVector:
  31              	.LFB7:
  32              		.file 1 "../chibios_2.6.3/os/ports/common/ARMCMx/nvic.c"
  33              		.loc 1 46 0
  34              		.cfi_startproc
  35              		@ args = 0, pretend = 0, frame = 16
  36              		@ frame_needed = 0, uses_anonymous_args = 0
  37              		@ link register save eliminated.
  38 0000 84B0     		sub	sp, sp, #16
  39              	.LCFI0:
  40              		.cfi_def_cfa_offset 16
  41 0002 0190     		str	r0, [sp, #4]
  42 0004 0091     		str	r1, [sp, #0]
  43              		.loc 1 47 0
  44 0006 019B     		ldr	r3, [sp, #4]
  45 0008 03F00303 		and	r3, r3, #3
  46 000c 4FEAC303 		lsl	r3, r3, #3
  47 0010 0393     		str	r3, [sp, #12]
  48              		.loc 1 49 0
  49 0012 4FF46143 		mov	r3, #57600
  50 0016 CEF20003 		movt	r3, 57344
  51 001a 019A     		ldr	r2, [sp, #4]
  52 001c 4FEA9200 		lsr	r0, r2, #2
  53 0020 4FF46142 		mov	r2, #57600
ARM GAS  C:\Users\z80\AppData\Local\Temp\cc1T9gbj.s 			page 2


  54 0024 CEF20002 		movt	r2, 57344
  55 0028 0199     		ldr	r1, [sp, #4]
  56 002a 4FEA9101 		lsr	r1, r1, #2
  57 002e 01F1C001 		add	r1, r1, #192
  58 0032 52F82110 		ldr	r1, [r2, r1, lsl #2]
  59 0036 039A     		ldr	r2, [sp, #12]
  60 0038 4FF0FF0C 		mov	ip, #255
  61 003c 0CFA02F2 		lsl	r2, ip, r2
  62 0040 6FEA0202 		mvn	r2, r2
  63 0044 01EA0201 		and	r1, r1, r2
  64 0048 039A     		ldr	r2, [sp, #12]
  65 004a DDF800C0 		ldr	ip, [sp, #0]
  66 004e 0CFA02F2 		lsl	r2, ip, r2
  67 0052 41EA0201 		orr	r1, r1, r2
  68 0056 00F1C002 		add	r2, r0, #192
  69 005a 43F82210 		str	r1, [r3, r2, lsl #2]
  70              		.loc 1 50 0
  71 005e 4FF46143 		mov	r3, #57600
  72 0062 CEF20003 		movt	r3, 57344
  73 0066 019A     		ldr	r2, [sp, #4]
  74 0068 4FEA5212 		lsr	r2, r2, #5
  75 006c 0199     		ldr	r1, [sp, #4]
  76 006e 01F01F01 		and	r1, r1, #31
  77 0072 4FF00100 		mov	r0, #1
  78 0076 00FA01F1 		lsl	r1, r0, r1
  79 007a 02F16002 		add	r2, r2, #96
  80 007e 43F82210 		str	r1, [r3, r2, lsl #2]
  81              		.loc 1 51 0
  82 0082 4FF46143 		mov	r3, #57600
  83 0086 CEF20003 		movt	r3, 57344
  84 008a 019A     		ldr	r2, [sp, #4]
  85 008c 4FEA5212 		lsr	r2, r2, #5
  86 0090 0199     		ldr	r1, [sp, #4]
  87 0092 01F01F01 		and	r1, r1, #31
  88 0096 4FF00100 		mov	r0, #1
  89 009a 00FA01F1 		lsl	r1, r0, r1
  90 009e 43F82210 		str	r1, [r3, r2, lsl #2]
  91              		.loc 1 52 0
  92 00a2 04B0     		add	sp, sp, #16
  93 00a4 7047     		bx	lr
  94              		.cfi_endproc
  95              	.LFE7:
  96              		.size	nvicEnableVector, .-nvicEnableVector
  97 00a6 00BFAFF3 		.section	.text.nvicDisableVector,"ax",%progbits
  97      0080AFF3 
  97      0080
  98              		.align	2
  99              		.p2align 4,,15
 100              		.global	nvicDisableVector
 101              		.thumb
 102              		.thumb_func
 103              		.type	nvicDisableVector, %function
 104              	nvicDisableVector:
 105              	.LFB8:
 106              		.loc 1 60 0
 107              		.cfi_startproc
 108              		@ args = 0, pretend = 0, frame = 16
ARM GAS  C:\Users\z80\AppData\Local\Temp\cc1T9gbj.s 			page 3


 109              		@ frame_needed = 0, uses_anonymous_args = 0
 110              		@ link register save eliminated.
 111 0000 84B0     		sub	sp, sp, #16
 112              	.LCFI1:
 113              		.cfi_def_cfa_offset 16
 114 0002 0190     		str	r0, [sp, #4]
 115              		.loc 1 61 0
 116 0004 019B     		ldr	r3, [sp, #4]
 117 0006 03F00303 		and	r3, r3, #3
 118 000a 4FEAC303 		lsl	r3, r3, #3
 119 000e 0393     		str	r3, [sp, #12]
 120              		.loc 1 63 0
 121 0010 4FF46143 		mov	r3, #57600
 122 0014 CEF20003 		movt	r3, 57344
 123 0018 019A     		ldr	r2, [sp, #4]
 124 001a 4FEA5212 		lsr	r2, r2, #5
 125 001e 0199     		ldr	r1, [sp, #4]
 126 0020 01F01F01 		and	r1, r1, #31
 127 0024 4FF00100 		mov	r0, #1
 128 0028 00FA01F1 		lsl	r1, r0, r1
 129 002c 02F12002 		add	r2, r2, #32
 130 0030 43F82210 		str	r1, [r3, r2, lsl #2]
 131              		.loc 1 64 0
 132 0034 4FF46143 		mov	r3, #57600
 133 0038 CEF20003 		movt	r3, 57344
 134 003c 019A     		ldr	r2, [sp, #4]
 135 003e 4FEA9200 		lsr	r0, r2, #2
 136 0042 4FF46142 		mov	r2, #57600
 137 0046 CEF20002 		movt	r2, 57344
 138 004a 0199     		ldr	r1, [sp, #4]
 139 004c 4FEA9101 		lsr	r1, r1, #2
 140 0050 01F1C001 		add	r1, r1, #192
 141 0054 52F82110 		ldr	r1, [r2, r1, lsl #2]
 142 0058 039A     		ldr	r2, [sp, #12]
 143 005a 4FF0FF0C 		mov	ip, #255
 144 005e 0CFA02F2 		lsl	r2, ip, r2
 145 0062 6FEA0202 		mvn	r2, r2
 146 0066 01EA0201 		and	r1, r1, r2
 147 006a 00F1C002 		add	r2, r0, #192
 148 006e 43F82210 		str	r1, [r3, r2, lsl #2]
 149              		.loc 1 65 0
 150 0072 04B0     		add	sp, sp, #16
 151 0074 7047     		bx	lr
 152              		.cfi_endproc
 153              	.LFE8:
 154              		.size	nvicDisableVector, .-nvicDisableVector
 155 0076 00BFAFF3 		.section	.text.nvicSetSystemHandlerPriority,"ax",%progbits
 155      0080AFF3 
 155      0080
 156              		.align	2
 157              		.p2align 4,,15
 158              		.global	nvicSetSystemHandlerPriority
 159              		.thumb
 160              		.thumb_func
 161              		.type	nvicSetSystemHandlerPriority, %function
 162              	nvicSetSystemHandlerPriority:
 163              	.LFB9:
ARM GAS  C:\Users\z80\AppData\Local\Temp\cc1T9gbj.s 			page 4


 164              		.loc 1 74 0
 165              		.cfi_startproc
 166              		@ args = 0, pretend = 0, frame = 16
 167              		@ frame_needed = 0, uses_anonymous_args = 0
 168              		@ link register save eliminated.
 169 0000 84B0     		sub	sp, sp, #16
 170              	.LCFI2:
 171              		.cfi_def_cfa_offset 16
 172 0002 0190     		str	r0, [sp, #4]
 173 0004 0091     		str	r1, [sp, #0]
 174              		.loc 1 75 0
 175 0006 019B     		ldr	r3, [sp, #4]
 176 0008 03F00303 		and	r3, r3, #3
 177 000c 4FEAC303 		lsl	r3, r3, #3
 178 0010 0393     		str	r3, [sp, #12]
 179              		.loc 1 77 0
 180 0012 4FF46D43 		mov	r3, #60672
 181 0016 CEF20003 		movt	r3, 57344
 182 001a 019A     		ldr	r2, [sp, #4]
 183 001c 4FEA9200 		lsr	r0, r2, #2
 184 0020 4FF46D42 		mov	r2, #60672
 185 0024 CEF20002 		movt	r2, 57344
 186 0028 0199     		ldr	r1, [sp, #4]
 187 002a 4FEA9101 		lsr	r1, r1, #2
 188 002e 01F10601 		add	r1, r1, #6
 189 0032 52F82110 		ldr	r1, [r2, r1, lsl #2]
 190              		.loc 1 78 0
 191 0036 039A     		ldr	r2, [sp, #12]
 192 0038 4FF0FF0C 		mov	ip, #255
 193 003c 0CFA02F2 		lsl	r2, ip, r2
 194 0040 6FEA0202 		mvn	r2, r2
 195              		.loc 1 77 0
 196 0044 01EA0201 		and	r1, r1, r2
 197              		.loc 1 78 0
 198 0048 039A     		ldr	r2, [sp, #12]
 199 004a DDF800C0 		ldr	ip, [sp, #0]
 200 004e 0CFA02F2 		lsl	r2, ip, r2
 201 0052 41EA0201 		orr	r1, r1, r2
 202              		.loc 1 77 0
 203 0056 00F10602 		add	r2, r0, #6
 204 005a 43F82210 		str	r1, [r3, r2, lsl #2]
 205              		.loc 1 79 0
 206 005e 04B0     		add	sp, sp, #16
 207 0060 7047     		bx	lr
 208              		.cfi_endproc
 209              	.LFE9:
 210              		.size	nvicSetSystemHandlerPriority, .-nvicSetSystemHandlerPriority
 211 0062 00BFAFF3 		.text
 211      0080AFF3 
 211      0080AFF3 
 211      0080
 212              	.Letext0: