ARM GAS  C:\Users\z80\AppData\Local\Temp\ccPxM74j.s 			page 1


   1              		.syntax unified
   2              		.cpu cortex-m3
   3              		.fpu softvfp
   4              		.eabi_attribute 20, 1
   5              		.eabi_attribute 21, 1
   6              		.eabi_attribute 23, 3
   7              		.eabi_attribute 24, 1
   8              		.eabi_attribute 25, 1
   9              		.eabi_attribute 26, 1
  10              		.eabi_attribute 30, 6
  11              		.eabi_attribute 18, 4
  12              		.thumb
  13              		.file	"pal_lld.c"
  14              		.section	.debug_abbrev,"",%progbits
  15              	.Ldebug_abbrev0:
  16              		.section	.debug_info,"",%progbits
  17              	.Ldebug_info0:
  18              		.section	.debug_line,"",%progbits
  19              	.Ldebug_line0:
  20 0000 7F010000 		.text
  20      02002301 
  20      00000201 
  20      FB0E0D00 
  20      01010101 
  21              	.Ltext0:
  22              		.cfi_sections	.debug_frame
  23              		.section	.text._pal_lld_init,"ax",%progbits
  24              		.align	2
  25              		.p2align 4,,15
  26              		.global	_pal_lld_init
  27              		.thumb
  28              		.thumb_func
  29              		.type	_pal_lld_init, %function
  30              	_pal_lld_init:
  31              	.LFB63:
  32              		.file 1 "../chibios_2.6.3/os/hal/platforms/STM32/GPIOv1/pal_lld.c"
  33              		.loc 1 77 0
  34              		.cfi_startproc
  35              		@ args = 0, pretend = 0, frame = 8
  36              		@ frame_needed = 0, uses_anonymous_args = 0
  37              		@ link register save eliminated.
  38 0000 82B0     		sub	sp, sp, #8
  39              	.LCFI0:
  40              		.cfi_def_cfa_offset 8
  41 0002 0190     		str	r0, [sp, #4]
  42              		.loc 1 82 0
  43 0004 4FF48053 		mov	r3, #4096
  44 0008 C4F20203 		movt	r3, 16386
  45 000c 4FF48052 		mov	r2, #4096
  46 0010 C4F20202 		movt	r2, 16386
  47 0014 9269     		ldr	r2, [r2, #24]
  48 0016 42F07D02 		orr	r2, r2, #125
  49 001a 9A61     		str	r2, [r3, #24]
  50              		.loc 1 87 0
  51 001c 4FF40063 		mov	r3, #2048
  52 0020 C4F20103 		movt	r3, 16385
  53 0024 019A     		ldr	r2, [sp, #4]
ARM GAS  C:\Users\z80\AppData\Local\Temp\ccPxM74j.s 			page 2


  54 0026 1268     		ldr	r2, [r2, #0]
  55 0028 DA60     		str	r2, [r3, #12]
  56              		.loc 1 88 0
  57 002a 4FF40063 		mov	r3, #2048
  58 002e C4F20103 		movt	r3, 16385
  59 0032 019A     		ldr	r2, [sp, #4]
  60 0034 9268     		ldr	r2, [r2, #8]
  61 0036 5A60     		str	r2, [r3, #4]
  62              		.loc 1 89 0
  63 0038 4FF40063 		mov	r3, #2048
  64 003c C4F20103 		movt	r3, 16385
  65 0040 019A     		ldr	r2, [sp, #4]
  66 0042 5268     		ldr	r2, [r2, #4]
  67 0044 1A60     		str	r2, [r3, #0]
  68              		.loc 1 90 0
  69 0046 4FF44063 		mov	r3, #3072
  70 004a C4F20103 		movt	r3, 16385
  71 004e 019A     		ldr	r2, [sp, #4]
  72 0050 D268     		ldr	r2, [r2, #12]
  73 0052 DA60     		str	r2, [r3, #12]
  74              		.loc 1 91 0
  75 0054 4FF44063 		mov	r3, #3072
  76 0058 C4F20103 		movt	r3, 16385
  77 005c 019A     		ldr	r2, [sp, #4]
  78 005e 5269     		ldr	r2, [r2, #20]
  79 0060 5A60     		str	r2, [r3, #4]
  80              		.loc 1 92 0
  81 0062 4FF44063 		mov	r3, #3072
  82 0066 C4F20103 		movt	r3, 16385
  83 006a 019A     		ldr	r2, [sp, #4]
  84 006c 1269     		ldr	r2, [r2, #16]
  85 006e 1A60     		str	r2, [r3, #0]
  86              		.loc 1 93 0
  87 0070 4FF48053 		mov	r3, #4096
  88 0074 C4F20103 		movt	r3, 16385
  89 0078 019A     		ldr	r2, [sp, #4]
  90 007a 9269     		ldr	r2, [r2, #24]
  91 007c DA60     		str	r2, [r3, #12]
  92              		.loc 1 94 0
  93 007e 4FF48053 		mov	r3, #4096
  94 0082 C4F20103 		movt	r3, 16385
  95 0086 019A     		ldr	r2, [sp, #4]
  96 0088 126A     		ldr	r2, [r2, #32]
  97 008a 5A60     		str	r2, [r3, #4]
  98              		.loc 1 95 0
  99 008c 4FF48053 		mov	r3, #4096
 100 0090 C4F20103 		movt	r3, 16385
 101 0094 019A     		ldr	r2, [sp, #4]
 102 0096 D269     		ldr	r2, [r2, #28]
 103 0098 1A60     		str	r2, [r3, #0]
 104              		.loc 1 96 0
 105 009a 4FF4A053 		mov	r3, #5120
 106 009e C4F20103 		movt	r3, 16385
 107 00a2 019A     		ldr	r2, [sp, #4]
 108 00a4 526A     		ldr	r2, [r2, #36]
 109 00a6 DA60     		str	r2, [r3, #12]
 110              		.loc 1 97 0
ARM GAS  C:\Users\z80\AppData\Local\Temp\ccPxM74j.s 			page 3


 111 00a8 4FF4A053 		mov	r3, #5120
 112 00ac C4F20103 		movt	r3, 16385
 113 00b0 019A     		ldr	r2, [sp, #4]
 114 00b2 D26A     		ldr	r2, [r2, #44]
 115 00b4 5A60     		str	r2, [r3, #4]
 116              		.loc 1 98 0
 117 00b6 4FF4A053 		mov	r3, #5120
 118 00ba C4F20103 		movt	r3, 16385
 119 00be 019A     		ldr	r2, [sp, #4]
 120 00c0 926A     		ldr	r2, [r2, #40]
 121 00c2 1A60     		str	r2, [r3, #0]
 122              		.loc 1 100 0
 123 00c4 4FF4C053 		mov	r3, #6144
 124 00c8 C4F20103 		movt	r3, 16385
 125 00cc 019A     		ldr	r2, [sp, #4]
 126 00ce 126B     		ldr	r2, [r2, #48]
 127 00d0 DA60     		str	r2, [r3, #12]
 128              		.loc 1 101 0
 129 00d2 4FF4C053 		mov	r3, #6144
 130 00d6 C4F20103 		movt	r3, 16385
 131 00da 019A     		ldr	r2, [sp, #4]
 132 00dc 926B     		ldr	r2, [r2, #56]
 133 00de 5A60     		str	r2, [r3, #4]
 134              		.loc 1 102 0
 135 00e0 4FF4C053 		mov	r3, #6144
 136 00e4 C4F20103 		movt	r3, 16385
 137 00e8 019A     		ldr	r2, [sp, #4]
 138 00ea 526B     		ldr	r2, [r2, #52]
 139 00ec 1A60     		str	r2, [r3, #0]
 140              		.loc 1 114 0
 141 00ee 02B0     		add	sp, sp, #8
 142 00f0 7047     		bx	lr
 143              		.cfi_endproc
 144              	.LFE63:
 145              		.size	_pal_lld_init, .-_pal_lld_init
 146 00f2 00BFAFF3 		.section	.text._pal_lld_setgroupmode,"ax",%progbits
 146      0080AFF3 
 146      0080AFF3 
 146      0080
 147              		.align	2
 148              		.p2align 4,,15
 149              		.global	_pal_lld_setgroupmode
 150              		.thumb
 151              		.thumb_func
 152              		.type	_pal_lld_setgroupmode, %function
 153              	_pal_lld_setgroupmode:
 154              	.LFB64:
 155              		.loc 1 133 0
 156              		.cfi_startproc
 157              		@ args = 0, pretend = 0, frame = 40
 158              		@ frame_needed = 0, uses_anonymous_args = 0
 159              		@ link register save eliminated.
 160 0000 8AB0     		sub	sp, sp, #40
 161              	.LCFI1:
 162              		.cfi_def_cfa_offset 40
 163 0002 0390     		str	r0, [sp, #12]
 164 0004 0291     		str	r1, [sp, #8]
ARM GAS  C:\Users\z80\AppData\Local\Temp\ccPxM74j.s 			page 4


 165 0006 0192     		str	r2, [sp, #4]
 166              		.loc 1 157 0
 167 0008 019B     		ldr	r3, [sp, #4]
 168 000a 032B     		cmp	r3, #3
 169 000c 03D1     		bne	.L3
 170              		.loc 1 158 0
 171 000e 039B     		ldr	r3, [sp, #12]
 172 0010 029A     		ldr	r2, [sp, #8]
 173 0012 1A61     		str	r2, [r3, #16]
 174 0014 05E0     		b	.L4
 175              	.L3:
 176              		.loc 1 159 0
 177 0016 019B     		ldr	r3, [sp, #4]
 178 0018 042B     		cmp	r3, #4
 179 001a 02D1     		bne	.L4
 180              		.loc 1 160 0
 181 001c 039B     		ldr	r3, [sp, #12]
 182 001e 029A     		ldr	r2, [sp, #8]
 183 0020 5A61     		str	r2, [r3, #20]
 184              	.L4:
 185              		.loc 1 161 0
 186 0022 40F20003 		movw	r3, #:lower16:cfgtab.3706
 187 0026 C0F20003 		movt	r3, #:upper16:cfgtab.3706
 188 002a 019A     		ldr	r2, [sp, #4]
 189 002c 1344     		add	r3, r3, r2
 190 002e 1B78     		ldrb	r3, [r3, #0]	@ zero_extendqisi2
 191 0030 0493     		str	r3, [sp, #16]
 192              		.loc 1 162 0
 193 0032 4FF00003 		mov	r3, #0
 194 0036 0693     		str	r3, [sp, #24]
 195 0038 069B     		ldr	r3, [sp, #24]
 196 003a 0793     		str	r3, [sp, #28]
 197 003c 079B     		ldr	r3, [sp, #28]
 198 003e 0893     		str	r3, [sp, #32]
 199 0040 089B     		ldr	r3, [sp, #32]
 200 0042 0993     		str	r3, [sp, #36]
 201              		.loc 1 163 0
 202 0044 4FF00003 		mov	r3, #0
 203 0048 0593     		str	r3, [sp, #20]
 204 004a 35E0     		b	.L5
 205              	.L10:
 206              		.loc 1 164 0
 207 004c 089B     		ldr	r3, [sp, #32]
 208 004e 4FEA0313 		lsl	r3, r3, #4
 209 0052 0893     		str	r3, [sp, #32]
 210              		.loc 1 165 0
 211 0054 099B     		ldr	r3, [sp, #36]
 212 0056 4FEA0313 		lsl	r3, r3, #4
 213 005a 0993     		str	r3, [sp, #36]
 214              		.loc 1 166 0
 215 005c 069B     		ldr	r3, [sp, #24]
 216 005e 4FEA0313 		lsl	r3, r3, #4
 217 0062 0693     		str	r3, [sp, #24]
 218              		.loc 1 167 0
 219 0064 079B     		ldr	r3, [sp, #28]
 220 0066 4FEA0313 		lsl	r3, r3, #4
 221 006a 0793     		str	r3, [sp, #28]
ARM GAS  C:\Users\z80\AppData\Local\Temp\ccPxM74j.s 			page 5


 222              		.loc 1 168 0
 223 006c 029B     		ldr	r3, [sp, #8]
 224 006e 03F08003 		and	r3, r3, #128
 225 0072 002B     		cmp	r3, #0
 226 0074 04D1     		bne	.L6
 227              		.loc 1 169 0
 228 0076 089B     		ldr	r3, [sp, #32]
 229 0078 43F00F03 		orr	r3, r3, #15
 230 007c 0893     		str	r3, [sp, #32]
 231 007e 04E0     		b	.L7
 232              	.L6:
 233              		.loc 1 171 0
 234 0080 069A     		ldr	r2, [sp, #24]
 235 0082 049B     		ldr	r3, [sp, #16]
 236 0084 42EA0303 		orr	r3, r2, r3
 237 0088 0693     		str	r3, [sp, #24]
 238              	.L7:
 239              		.loc 1 172 0
 240 008a 029B     		ldr	r3, [sp, #8]
 241 008c 03F40043 		and	r3, r3, #32768
 242 0090 002B     		cmp	r3, #0
 243 0092 04D1     		bne	.L8
 244              		.loc 1 173 0
 245 0094 099B     		ldr	r3, [sp, #36]
 246 0096 43F00F03 		orr	r3, r3, #15
 247 009a 0993     		str	r3, [sp, #36]
 248 009c 04E0     		b	.L9
 249              	.L8:
 250              		.loc 1 175 0
 251 009e 079A     		ldr	r2, [sp, #28]
 252 00a0 049B     		ldr	r3, [sp, #16]
 253 00a2 42EA0303 		orr	r3, r2, r3
 254 00a6 0793     		str	r3, [sp, #28]
 255              	.L9:
 256              		.loc 1 176 0
 257 00a8 029B     		ldr	r3, [sp, #8]
 258 00aa 4FEA4303 		lsl	r3, r3, #1
 259 00ae 0293     		str	r3, [sp, #8]
 260              		.loc 1 163 0
 261 00b0 059B     		ldr	r3, [sp, #20]
 262 00b2 03F10103 		add	r3, r3, #1
 263 00b6 0593     		str	r3, [sp, #20]
 264              	.L5:
 265              		.loc 1 163 0 is_stmt 0 discriminator 1
 266 00b8 059B     		ldr	r3, [sp, #20]
 267 00ba 072B     		cmp	r3, #7
 268 00bc C6D9     		bls	.L10
 269              		.loc 1 178 0 is_stmt 1
 270 00be 039B     		ldr	r3, [sp, #12]
 271 00c0 5A68     		ldr	r2, [r3, #4]
 272 00c2 099B     		ldr	r3, [sp, #36]
 273 00c4 02EA0302 		and	r2, r2, r3
 274 00c8 079B     		ldr	r3, [sp, #28]
 275 00ca 42EA0302 		orr	r2, r2, r3
 276 00ce 039B     		ldr	r3, [sp, #12]
 277 00d0 5A60     		str	r2, [r3, #4]
 278              		.loc 1 179 0
ARM GAS  C:\Users\z80\AppData\Local\Temp\ccPxM74j.s 			page 6


 279 00d2 039B     		ldr	r3, [sp, #12]
 280 00d4 1A68     		ldr	r2, [r3, #0]
 281 00d6 089B     		ldr	r3, [sp, #32]
 282 00d8 02EA0302 		and	r2, r2, r3
 283 00dc 069B     		ldr	r3, [sp, #24]
 284 00de 42EA0302 		orr	r2, r2, r3
 285 00e2 039B     		ldr	r3, [sp, #12]
 286 00e4 1A60     		str	r2, [r3, #0]
 287              		.loc 1 180 0
 288 00e6 0AB0     		add	sp, sp, #40
 289 00e8 7047     		bx	lr
 290              		.cfi_endproc
 291              	.LFE64:
 292              		.size	_pal_lld_setgroupmode, .-_pal_lld_setgroupmode
 293 00ea 00BFAFF3 		.section	.rodata.cfgtab.3706,"a",%progbits
 293      0080
 294              		.align	2
 295              		.type	cfgtab.3706, %object
 296              		.size	cfgtab.3706, 18
 297              	cfgtab.3706:
 298 0000 04       		.byte	4
 299 0001 02       		.byte	2
 300 0002 04       		.byte	4
 301 0003 08       		.byte	8
 302 0004 08       		.byte	8
 303 0005 00       		.byte	0
 304 0006 03       		.byte	3
 305 0007 07       		.byte	7
 306 0008 08       		.byte	8
 307 0009 08       		.byte	8
 308 000a 08       		.byte	8
 309 000b 08       		.byte	8
 310 000c 08       		.byte	8
 311 000d 08       		.byte	8
 312 000e 08       		.byte	8
 313 000f 08       		.byte	8
 314 0010 0B       		.byte	11
 315 0011 0F       		.byte	15
 316 0012 0000     		.text
 317              	.Letext0:
 318              		.section	.debug_loc,"",%progbits
 319              	.Ldebug_loc0:
 320              	.LLST0:
 321 0000 00000000 		.4byte	.LFB63
 322 0004 02000000 		.4byte	.LCFI0
 323 0008 0200     		.2byte	0x2
 324 000a 7D       		.byte	0x7d
 325 000b 00       		.sleb128 0
 326 000c 02000000 		.4byte	.LCFI0
 327 0010 F2000000 		.4byte	.LFE63
 328 0014 0200     		.2byte	0x2
 329 0016 7D       		.byte	0x7d
 330 0017 08       		.sleb128 8
 331 0018 00000000 		.4byte	0x0
 332 001c 00000000 		.4byte	0x0
 333              	.LLST1:
 334 0020 00000000 		.4byte	.LFB64
ARM GAS  C:\Users\z80\AppData\Local\Temp\ccPxM74j.s 			page 7


 335 0024 02000000 		.4byte	.LCFI1
 336 0028 0200     		.2byte	0x2
 337 002a 7D       		.byte	0x7d
 338 002b 00       		.sleb128 0
 339 002c 02000000 		.4byte	.LCFI1
 340 0030 EA000000 		.4byte	.LFE64
 341 0034 0200     		.2byte	0x2
 342 0036 7D       		.byte	0x7d
 343 0037 28       		.sleb128 40
 344 0038 00000000 		.4byte	0x0
 345 003c 00000000 		.4byte	0x0
 346              		.file 2 "c:/programs/yagarto/lib/gcc/../../arm-none-eabi/sys-include/stdint.h"
 347              		.file 3 "../chibios_2.6.3/os/hal/platforms/STM32F1xx/stm32f10x.h"
 348              		.file 4 "../chibios_2.6.3/os/hal/platforms/STM32/GPIOv1/pal_lld.h"
 349              		.file 5 "../chibios_2.6.3/os/ports/common/ARMCMx/CMSIS/include/core_cm3.h"
 350              		.section	.debug_info
 351 0000 9A030000 		.4byte	0x39a
 352 0004 0200     		.2byte	0x2
 353 0006 00000000 		.4byte	.Ldebug_abbrev0
 354 000a 04       		.byte	0x4
 355 000b 01       		.uleb128 0x1
 356 000c 0B010000 		.4byte	.LASF43
 357 0010 01       		.byte	0x1
 358 0011 8F000000 		.4byte	.LASF44
 359 0015 D0010000 		.4byte	.LASF45
 360 0019 00000000 		.4byte	0x0
 361 001d 00000000 		.4byte	0x0
 362 0021 00000000 		.4byte	.Ldebug_ranges0+0x0
 363 0025 00000000 		.4byte	.Ldebug_line0
 364 0029 02       		.uleb128 0x2
 365 002a 04       		.byte	0x4
 366 002b 05       		.byte	0x5
 367 002c 696E7400 		.ascii	"int\000"
 368 0030 03       		.uleb128 0x3
 369 0031 04       		.byte	0x4
 370 0032 07       		.byte	0x7
 371 0033 34000000 		.4byte	.LASF0
 372 0037 03       		.uleb128 0x3
 373 0038 01       		.byte	0x1
 374 0039 06       		.byte	0x6
 375 003a C4010000 		.4byte	.LASF1
 376 003e 04       		.uleb128 0x4
 377 003f 51010000 		.4byte	.LASF5
 378 0043 02       		.byte	0x2
 379 0044 2A       		.byte	0x2a
 380 0045 49000000 		.4byte	0x49
 381 0049 03       		.uleb128 0x3
 382 004a 01       		.byte	0x1
 383 004b 08       		.byte	0x8
 384 004c 67000000 		.4byte	.LASF2
 385 0050 03       		.uleb128 0x3
 386 0051 02       		.byte	0x2
 387 0052 05       		.byte	0x5
 388 0053 7D010000 		.4byte	.LASF3
 389 0057 03       		.uleb128 0x3
 390 0058 02       		.byte	0x2
 391 0059 07       		.byte	0x7
ARM GAS  C:\Users\z80\AppData\Local\Temp\ccPxM74j.s 			page 8


 392 005a DA000000 		.4byte	.LASF4
 393 005e 04       		.uleb128 0x4
 394 005f 63010000 		.4byte	.LASF6
 395 0063 02       		.byte	0x2
 396 0064 4F       		.byte	0x4f
 397 0065 69000000 		.4byte	0x69
 398 0069 03       		.uleb128 0x3
 399 006a 04       		.byte	0x4
 400 006b 05       		.byte	0x5
 401 006c AE010000 		.4byte	.LASF7
 402 0070 04       		.uleb128 0x4
 403 0071 A5010000 		.4byte	.LASF8
 404 0075 02       		.byte	0x2
 405 0076 50       		.byte	0x50
 406 0077 7B000000 		.4byte	0x7b
 407 007b 03       		.uleb128 0x3
 408 007c 04       		.byte	0x4
 409 007d 07       		.byte	0x7
 410 007e C8000000 		.4byte	.LASF9
 411 0082 03       		.uleb128 0x3
 412 0083 08       		.byte	0x8
 413 0084 05       		.byte	0x5
 414 0085 00000000 		.4byte	.LASF10
 415 0089 03       		.uleb128 0x3
 416 008a 08       		.byte	0x8
 417 008b 07       		.byte	0x7
 418 008c FE010000 		.4byte	.LASF11
 419 0090 03       		.uleb128 0x3
 420 0091 01       		.byte	0x1
 421 0092 02       		.byte	0x2
 422 0093 F8010000 		.4byte	.LASF12
 423 0097 05       		.uleb128 0x5
 424 0098 70000000 		.4byte	0x70
 425 009c 06       		.uleb128 0x6
 426 009d 04       		.byte	0x4
 427 009e 07       		.byte	0x7
 428 009f 03       		.uleb128 0x3
 429 00a0 01       		.byte	0x1
 430 00a1 08       		.byte	0x8
 431 00a2 4C010000 		.4byte	.LASF13
 432 00a6 05       		.uleb128 0x5
 433 00a7 5E000000 		.4byte	0x5e
 434 00ab 07       		.uleb128 0x7
 435 00ac 1C       		.byte	0x1c
 436 00ad 03       		.byte	0x3
 437 00ae F803     		.2byte	0x3f8
 438 00b0 1E010000 		.4byte	0x11e
 439 00b4 08       		.uleb128 0x8
 440 00b5 43524C00 		.ascii	"CRL\000"
 441 00b9 03       		.byte	0x3
 442 00ba FA03     		.2byte	0x3fa
 443 00bc 97000000 		.4byte	0x97
 444 00c0 02       		.byte	0x2
 445 00c1 23       		.byte	0x23
 446 00c2 00       		.uleb128 0x0
 447 00c3 08       		.uleb128 0x8
 448 00c4 43524800 		.ascii	"CRH\000"
ARM GAS  C:\Users\z80\AppData\Local\Temp\ccPxM74j.s 			page 9


 449 00c8 03       		.byte	0x3
 450 00c9 FB03     		.2byte	0x3fb
 451 00cb 97000000 		.4byte	0x97
 452 00cf 02       		.byte	0x2
 453 00d0 23       		.byte	0x23
 454 00d1 04       		.uleb128 0x4
 455 00d2 08       		.uleb128 0x8
 456 00d3 49445200 		.ascii	"IDR\000"
 457 00d7 03       		.byte	0x3
 458 00d8 FC03     		.2byte	0x3fc
 459 00da 97000000 		.4byte	0x97
 460 00de 02       		.byte	0x2
 461 00df 23       		.byte	0x23
 462 00e0 08       		.uleb128 0x8
 463 00e1 08       		.uleb128 0x8
 464 00e2 4F445200 		.ascii	"ODR\000"
 465 00e6 03       		.byte	0x3
 466 00e7 FD03     		.2byte	0x3fd
 467 00e9 97000000 		.4byte	0x97
 468 00ed 02       		.byte	0x2
 469 00ee 23       		.byte	0x23
 470 00ef 0C       		.uleb128 0xc
 471 00f0 09       		.uleb128 0x9
 472 00f1 28000000 		.4byte	.LASF14
 473 00f5 03       		.byte	0x3
 474 00f6 FE03     		.2byte	0x3fe
 475 00f8 97000000 		.4byte	0x97
 476 00fc 02       		.byte	0x2
 477 00fd 23       		.byte	0x23
 478 00fe 10       		.uleb128 0x10
 479 00ff 08       		.uleb128 0x8
 480 0100 42525200 		.ascii	"BRR\000"
 481 0104 03       		.byte	0x3
 482 0105 FF03     		.2byte	0x3ff
 483 0107 97000000 		.4byte	0x97
 484 010b 02       		.byte	0x2
 485 010c 23       		.byte	0x23
 486 010d 14       		.uleb128 0x14
 487 010e 09       		.uleb128 0x9
 488 010f 15020000 		.4byte	.LASF15
 489 0113 03       		.byte	0x3
 490 0114 0004     		.2byte	0x400
 491 0116 97000000 		.4byte	0x97
 492 011a 02       		.byte	0x2
 493 011b 23       		.byte	0x23
 494 011c 18       		.uleb128 0x18
 495 011d 00       		.byte	0x0
 496 011e 0A       		.uleb128 0xa
 497 011f B7010000 		.4byte	.LASF16
 498 0123 03       		.byte	0x3
 499 0124 0104     		.2byte	0x401
 500 0126 AB000000 		.4byte	0xab
 501 012a 07       		.uleb128 0x7
 502 012b 28       		.byte	0x28
 503 012c 03       		.byte	0x3
 504 012d 4304     		.2byte	0x443
 505 012f C9010000 		.4byte	0x1c9
ARM GAS  C:\Users\z80\AppData\Local\Temp\ccPxM74j.s 			page 10


 506 0133 08       		.uleb128 0x8
 507 0134 435200   		.ascii	"CR\000"
 508 0137 03       		.byte	0x3
 509 0138 4504     		.2byte	0x445
 510 013a 97000000 		.4byte	0x97
 511 013e 02       		.byte	0x2
 512 013f 23       		.byte	0x23
 513 0140 00       		.uleb128 0x0
 514 0141 09       		.uleb128 0x9
 515 0142 5E010000 		.4byte	.LASF17
 516 0146 03       		.byte	0x3
 517 0147 4604     		.2byte	0x446
 518 0149 97000000 		.4byte	0x97
 519 014d 02       		.byte	0x2
 520 014e 23       		.byte	0x23
 521 014f 04       		.uleb128 0x4
 522 0150 08       		.uleb128 0x8
 523 0151 43495200 		.ascii	"CIR\000"
 524 0155 03       		.byte	0x3
 525 0156 4704     		.2byte	0x447
 526 0158 97000000 		.4byte	0x97
 527 015c 02       		.byte	0x2
 528 015d 23       		.byte	0x23
 529 015e 08       		.uleb128 0x8
 530 015f 09       		.uleb128 0x9
 531 0160 1F010000 		.4byte	.LASF18
 532 0164 03       		.byte	0x3
 533 0165 4804     		.2byte	0x448
 534 0167 97000000 		.4byte	0x97
 535 016b 02       		.byte	0x2
 536 016c 23       		.byte	0x23
 537 016d 0C       		.uleb128 0xc
 538 016e 09       		.uleb128 0x9
 539 016f 57000000 		.4byte	.LASF19
 540 0173 03       		.byte	0x3
 541 0174 4904     		.2byte	0x449
 542 0176 97000000 		.4byte	0x97
 543 017a 02       		.byte	0x2
 544 017b 23       		.byte	0x23
 545 017c 10       		.uleb128 0x10
 546 017d 09       		.uleb128 0x9
 547 017e 2D000000 		.4byte	.LASF20
 548 0182 03       		.byte	0x3
 549 0183 4A04     		.2byte	0x44a
 550 0185 97000000 		.4byte	0x97
 551 0189 02       		.byte	0x2
 552 018a 23       		.byte	0x23
 553 018b 14       		.uleb128 0x14
 554 018c 09       		.uleb128 0x9
 555 018d 6B010000 		.4byte	.LASF21
 556 0191 03       		.byte	0x3
 557 0192 4B04     		.2byte	0x44b
 558 0194 97000000 		.4byte	0x97
 559 0198 02       		.byte	0x2
 560 0199 23       		.byte	0x23
 561 019a 18       		.uleb128 0x18
 562 019b 09       		.uleb128 0x9
ARM GAS  C:\Users\z80\AppData\Local\Temp\ccPxM74j.s 			page 11


 563 019c 17010000 		.4byte	.LASF22
 564 01a0 03       		.byte	0x3
 565 01a1 4C04     		.2byte	0x44c
 566 01a3 97000000 		.4byte	0x97
 567 01a7 02       		.byte	0x2
 568 01a8 23       		.byte	0x23
 569 01a9 1C       		.uleb128 0x1c
 570 01aa 09       		.uleb128 0x9
 571 01ab 0E000000 		.4byte	.LASF23
 572 01af 03       		.byte	0x3
 573 01b0 4D04     		.2byte	0x44d
 574 01b2 97000000 		.4byte	0x97
 575 01b6 02       		.byte	0x2
 576 01b7 23       		.byte	0x23
 577 01b8 20       		.uleb128 0x20
 578 01b9 08       		.uleb128 0x8
 579 01ba 43535200 		.ascii	"CSR\000"
 580 01be 03       		.byte	0x3
 581 01bf 4E04     		.2byte	0x44e
 582 01c1 97000000 		.4byte	0x97
 583 01c5 02       		.byte	0x2
 584 01c6 23       		.byte	0x23
 585 01c7 24       		.uleb128 0x24
 586 01c8 00       		.byte	0x0
 587 01c9 0A       		.uleb128 0xa
 588 01ca 99010000 		.4byte	.LASF24
 589 01ce 03       		.byte	0x3
 590 01cf 5904     		.2byte	0x459
 591 01d1 2A010000 		.4byte	0x12a
 592 01d5 0B       		.uleb128 0xb
 593 01d6 0C       		.byte	0xc
 594 01d7 04       		.byte	0x4
 595 01d8 38       		.byte	0x38
 596 01d9 08020000 		.4byte	0x208
 597 01dd 0C       		.uleb128 0xc
 598 01de 6F647200 		.ascii	"odr\000"
 599 01e2 04       		.byte	0x4
 600 01e3 3A       		.byte	0x3a
 601 01e4 70000000 		.4byte	0x70
 602 01e8 02       		.byte	0x2
 603 01e9 23       		.byte	0x23
 604 01ea 00       		.uleb128 0x0
 605 01eb 0C       		.uleb128 0xc
 606 01ec 63726C00 		.ascii	"crl\000"
 607 01f0 04       		.byte	0x4
 608 01f1 3C       		.byte	0x3c
 609 01f2 70000000 		.4byte	0x70
 610 01f6 02       		.byte	0x2
 611 01f7 23       		.byte	0x23
 612 01f8 04       		.uleb128 0x4
 613 01f9 0C       		.uleb128 0xc
 614 01fa 63726800 		.ascii	"crh\000"
 615 01fe 04       		.byte	0x4
 616 01ff 3E       		.byte	0x3e
 617 0200 70000000 		.4byte	0x70
 618 0204 02       		.byte	0x2
 619 0205 23       		.byte	0x23
ARM GAS  C:\Users\z80\AppData\Local\Temp\ccPxM74j.s 			page 12


 620 0206 08       		.uleb128 0x8
 621 0207 00       		.byte	0x0
 622 0208 04       		.uleb128 0x4
 623 0209 75000000 		.4byte	.LASF25
 624 020d 04       		.byte	0x4
 625 020e 3F       		.byte	0x3f
 626 020f D5010000 		.4byte	0x1d5
 627 0213 0B       		.uleb128 0xb
 628 0214 3C       		.byte	0x3c
 629 0215 04       		.byte	0x4
 630 0216 48       		.byte	0x48
 631 0217 62020000 		.4byte	0x262
 632 021b 0D       		.uleb128 0xd
 633 021c 88000000 		.4byte	.LASF26
 634 0220 04       		.byte	0x4
 635 0221 4A       		.byte	0x4a
 636 0222 08020000 		.4byte	0x208
 637 0226 02       		.byte	0x2
 638 0227 23       		.byte	0x23
 639 0228 00       		.uleb128 0x0
 640 0229 0D       		.uleb128 0xd
 641 022a 45010000 		.4byte	.LASF27
 642 022e 04       		.byte	0x4
 643 022f 4C       		.byte	0x4c
 644 0230 08020000 		.4byte	0x208
 645 0234 02       		.byte	0x2
 646 0235 23       		.byte	0x23
 647 0236 0C       		.uleb128 0xc
 648 0237 0D       		.uleb128 0xd
 649 0238 87010000 		.4byte	.LASF28
 650 023c 04       		.byte	0x4
 651 023d 4E       		.byte	0x4e
 652 023e 08020000 		.4byte	0x208
 653 0242 02       		.byte	0x2
 654 0243 23       		.byte	0x23
 655 0244 18       		.uleb128 0x18
 656 0245 0D       		.uleb128 0xd
 657 0246 13000000 		.4byte	.LASF29
 658 024a 04       		.byte	0x4
 659 024b 50       		.byte	0x50
 660 024c 08020000 		.4byte	0x208
 661 0250 02       		.byte	0x2
 662 0251 23       		.byte	0x23
 663 0252 24       		.uleb128 0x24
 664 0253 0D       		.uleb128 0xd
 665 0254 60000000 		.4byte	.LASF30
 666 0258 04       		.byte	0x4
 667 0259 53       		.byte	0x53
 668 025a 08020000 		.4byte	0x208
 669 025e 02       		.byte	0x2
 670 025f 23       		.byte	0x23
 671 0260 30       		.uleb128 0x30
 672 0261 00       		.byte	0x0
 673 0262 04       		.uleb128 0x4
 674 0263 01010000 		.4byte	.LASF31
 675 0267 04       		.byte	0x4
 676 0268 5D       		.byte	0x5d
ARM GAS  C:\Users\z80\AppData\Local\Temp\ccPxM74j.s 			page 13


 677 0269 13020000 		.4byte	0x213
 678 026d 04       		.uleb128 0x4
 679 026e 41000000 		.4byte	.LASF32
 680 0272 04       		.byte	0x4
 681 0273 6D       		.byte	0x6d
 682 0274 70000000 		.4byte	0x70
 683 0278 04       		.uleb128 0x4
 684 0279 4E000000 		.4byte	.LASF33
 685 027d 04       		.byte	0x4
 686 027e 72       		.byte	0x72
 687 027f 70000000 		.4byte	0x70
 688 0283 04       		.uleb128 0x4
 689 0284 8E010000 		.4byte	.LASF34
 690 0288 04       		.byte	0x4
 691 0289 7A       		.byte	0x7a
 692 028a 8E020000 		.4byte	0x28e
 693 028e 0E       		.uleb128 0xe
 694 028f 04       		.byte	0x4
 695 0290 1E010000 		.4byte	0x11e
 696 0294 0F       		.uleb128 0xf
 697 0295 01       		.byte	0x1
 698 0296 1A000000 		.4byte	.LASF35
 699 029a 01       		.byte	0x1
 700 029b 4D       		.byte	0x4d
 701 029c 01       		.byte	0x1
 702 029d 00000000 		.4byte	.LFB63
 703 02a1 F2000000 		.4byte	.LFE63
 704 02a5 00000000 		.4byte	.LLST0
 705 02a9 BC020000 		.4byte	0x2bc
 706 02ad 10       		.uleb128 0x10
 707 02ae FA000000 		.4byte	.LASF37
 708 02b2 01       		.byte	0x1
 709 02b3 4D       		.byte	0x4d
 710 02b4 BC020000 		.4byte	0x2bc
 711 02b8 02       		.byte	0x2
 712 02b9 91       		.byte	0x91
 713 02ba 7C       		.sleb128 -4
 714 02bb 00       		.byte	0x0
 715 02bc 0E       		.uleb128 0xe
 716 02bd 04       		.byte	0x4
 717 02be C2020000 		.4byte	0x2c2
 718 02c2 11       		.uleb128 0x11
 719 02c3 62020000 		.4byte	0x262
 720 02c7 0F       		.uleb128 0xf
 721 02c8 01       		.byte	0x1
 722 02c9 28010000 		.4byte	.LASF36
 723 02cd 01       		.byte	0x1
 724 02ce 83       		.byte	0x83
 725 02cf 01       		.byte	0x1
 726 02d0 00000000 		.4byte	.LFB64
 727 02d4 EA000000 		.4byte	.LFE64
 728 02d8 20000000 		.4byte	.LLST1
 729 02dc 6C030000 		.4byte	0x36c
 730 02e0 10       		.uleb128 0x10
 731 02e1 78010000 		.4byte	.LASF38
 732 02e5 01       		.byte	0x1
 733 02e6 83       		.byte	0x83
ARM GAS  C:\Users\z80\AppData\Local\Temp\ccPxM74j.s 			page 14


 734 02e7 83020000 		.4byte	0x283
 735 02eb 02       		.byte	0x2
 736 02ec 91       		.byte	0x91
 737 02ed 64       		.sleb128 -28
 738 02ee 10       		.uleb128 0x10
 739 02ef 73010000 		.4byte	.LASF39
 740 02f3 01       		.byte	0x1
 741 02f4 84       		.byte	0x84
 742 02f5 6D020000 		.4byte	0x26d
 743 02f9 02       		.byte	0x2
 744 02fa 91       		.byte	0x91
 745 02fb 60       		.sleb128 -32
 746 02fc 10       		.uleb128 0x10
 747 02fd 59010000 		.4byte	.LASF40
 748 0301 01       		.byte	0x1
 749 0302 85       		.byte	0x85
 750 0303 78020000 		.4byte	0x278
 751 0307 02       		.byte	0x2
 752 0308 91       		.byte	0x91
 753 0309 5C       		.sleb128 -36
 754 030a 12       		.uleb128 0x12
 755 030b 3E010000 		.4byte	.LASF41
 756 030f 01       		.byte	0x1
 757 0310 86       		.byte	0x86
 758 0311 7C030000 		.4byte	0x37c
 759 0315 05       		.byte	0x5
 760 0316 03       		.byte	0x3
 761 0317 00000000 		.4byte	cfgtab.3706
 762 031b 13       		.uleb128 0x13
 763 031c 6D6800   		.ascii	"mh\000"
 764 031f 01       		.byte	0x1
 765 0320 9A       		.byte	0x9a
 766 0321 70000000 		.4byte	0x70
 767 0325 02       		.byte	0x2
 768 0326 91       		.byte	0x91
 769 0327 7C       		.sleb128 -4
 770 0328 13       		.uleb128 0x13
 771 0329 6D6C00   		.ascii	"ml\000"
 772 032c 01       		.byte	0x1
 773 032d 9A       		.byte	0x9a
 774 032e 70000000 		.4byte	0x70
 775 0332 02       		.byte	0x2
 776 0333 91       		.byte	0x91
 777 0334 78       		.sleb128 -8
 778 0335 13       		.uleb128 0x13
 779 0336 63726800 		.ascii	"crh\000"
 780 033a 01       		.byte	0x1
 781 033b 9A       		.byte	0x9a
 782 033c 70000000 		.4byte	0x70
 783 0340 02       		.byte	0x2
 784 0341 91       		.byte	0x91
 785 0342 74       		.sleb128 -12
 786 0343 13       		.uleb128 0x13
 787 0344 63726C00 		.ascii	"crl\000"
 788 0348 01       		.byte	0x1
 789 0349 9A       		.byte	0x9a
 790 034a 70000000 		.4byte	0x70
ARM GAS  C:\Users\z80\AppData\Local\Temp\ccPxM74j.s 			page 15


 791 034e 02       		.byte	0x2
 792 034f 91       		.byte	0x91
 793 0350 70       		.sleb128 -16
 794 0351 13       		.uleb128 0x13
 795 0352 63666700 		.ascii	"cfg\000"
 796 0356 01       		.byte	0x1
 797 0357 9A       		.byte	0x9a
 798 0358 70000000 		.4byte	0x70
 799 035c 02       		.byte	0x2
 800 035d 91       		.byte	0x91
 801 035e 68       		.sleb128 -24
 802 035f 13       		.uleb128 0x13
 803 0360 6900     		.ascii	"i\000"
 804 0362 01       		.byte	0x1
 805 0363 9B       		.byte	0x9b
 806 0364 30000000 		.4byte	0x30
 807 0368 02       		.byte	0x2
 808 0369 91       		.byte	0x91
 809 036a 6C       		.sleb128 -20
 810 036b 00       		.byte	0x0
 811 036c 14       		.uleb128 0x14
 812 036d 3E000000 		.4byte	0x3e
 813 0371 7C030000 		.4byte	0x37c
 814 0375 15       		.uleb128 0x15
 815 0376 9C000000 		.4byte	0x9c
 816 037a 11       		.byte	0x11
 817 037b 00       		.byte	0x0
 818 037c 11       		.uleb128 0x11
 819 037d 6C030000 		.4byte	0x36c
 820 0381 16       		.uleb128 0x16
 821 0382 ED000000 		.4byte	.LASF42
 822 0386 05       		.byte	0x5
 823 0387 0706     		.2byte	0x607
 824 0389 A6000000 		.4byte	0xa6
 825 038d 01       		.byte	0x1
 826 038e 01       		.byte	0x1
 827 038f 16       		.uleb128 0x16
 828 0390 ED000000 		.4byte	.LASF42
 829 0394 05       		.byte	0x5
 830 0395 0706     		.2byte	0x607
 831 0397 A6000000 		.4byte	0xa6
 832 039b 01       		.byte	0x1
 833 039c 01       		.byte	0x1
 834 039d 00       		.byte	0x0
 835              		.section	.debug_abbrev
 836 0000 01       		.uleb128 0x1
 837 0001 11       		.uleb128 0x11
 838 0002 01       		.byte	0x1
 839 0003 25       		.uleb128 0x25
 840 0004 0E       		.uleb128 0xe
 841 0005 13       		.uleb128 0x13
 842 0006 0B       		.uleb128 0xb
 843 0007 03       		.uleb128 0x3
 844 0008 0E       		.uleb128 0xe
 845 0009 1B       		.uleb128 0x1b
 846 000a 0E       		.uleb128 0xe
 847 000b 11       		.uleb128 0x11
ARM GAS  C:\Users\z80\AppData\Local\Temp\ccPxM74j.s 			page 16


 848 000c 01       		.uleb128 0x1
 849 000d 52       		.uleb128 0x52
 850 000e 01       		.uleb128 0x1
 851 000f 55       		.uleb128 0x55
 852 0010 06       		.uleb128 0x6
 853 0011 10       		.uleb128 0x10
 854 0012 06       		.uleb128 0x6
 855 0013 00       		.byte	0x0
 856 0014 00       		.byte	0x0
 857 0015 02       		.uleb128 0x2
 858 0016 24       		.uleb128 0x24
 859 0017 00       		.byte	0x0
 860 0018 0B       		.uleb128 0xb
 861 0019 0B       		.uleb128 0xb
 862 001a 3E       		.uleb128 0x3e
 863 001b 0B       		.uleb128 0xb
 864 001c 03       		.uleb128 0x3
 865 001d 08       		.uleb128 0x8
 866 001e 00       		.byte	0x0
 867 001f 00       		.byte	0x0
 868 0020 03       		.uleb128 0x3
 869 0021 24       		.uleb128 0x24
 870 0022 00       		.byte	0x0
 871 0023 0B       		.uleb128 0xb
 872 0024 0B       		.uleb128 0xb
 873 0025 3E       		.uleb128 0x3e
 874 0026 0B       		.uleb128 0xb
 875 0027 03       		.uleb128 0x3
 876 0028 0E       		.uleb128 0xe
 877 0029 00       		.byte	0x0
 878 002a 00       		.byte	0x0
 879 002b 04       		.uleb128 0x4
 880 002c 16       		.uleb128 0x16
 881 002d 00       		.byte	0x0
 882 002e 03       		.uleb128 0x3
 883 002f 0E       		.uleb128 0xe
 884 0030 3A       		.uleb128 0x3a
 885 0031 0B       		.uleb128 0xb
 886 0032 3B       		.uleb128 0x3b
 887 0033 0B       		.uleb128 0xb
 888 0034 49       		.uleb128 0x49
 889 0035 13       		.uleb128 0x13
 890 0036 00       		.byte	0x0
 891 0037 00       		.byte	0x0
 892 0038 05       		.uleb128 0x5
 893 0039 35       		.uleb128 0x35
 894 003a 00       		.byte	0x0
 895 003b 49       		.uleb128 0x49
 896 003c 13       		.uleb128 0x13
 897 003d 00       		.byte	0x0
 898 003e 00       		.byte	0x0
 899 003f 06       		.uleb128 0x6
 900 0040 24       		.uleb128 0x24
 901 0041 00       		.byte	0x0
 902 0042 0B       		.uleb128 0xb
 903 0043 0B       		.uleb128 0xb
 904 0044 3E       		.uleb128 0x3e
ARM GAS  C:\Users\z80\AppData\Local\Temp\ccPxM74j.s 			page 17


 905 0045 0B       		.uleb128 0xb
 906 0046 00       		.byte	0x0
 907 0047 00       		.byte	0x0
 908 0048 07       		.uleb128 0x7
 909 0049 13       		.uleb128 0x13
 910 004a 01       		.byte	0x1
 911 004b 0B       		.uleb128 0xb
 912 004c 0B       		.uleb128 0xb
 913 004d 3A       		.uleb128 0x3a
 914 004e 0B       		.uleb128 0xb
 915 004f 3B       		.uleb128 0x3b
 916 0050 05       		.uleb128 0x5
 917 0051 01       		.uleb128 0x1
 918 0052 13       		.uleb128 0x13
 919 0053 00       		.byte	0x0
 920 0054 00       		.byte	0x0
 921 0055 08       		.uleb128 0x8
 922 0056 0D       		.uleb128 0xd
 923 0057 00       		.byte	0x0
 924 0058 03       		.uleb128 0x3
 925 0059 08       		.uleb128 0x8
 926 005a 3A       		.uleb128 0x3a
 927 005b 0B       		.uleb128 0xb
 928 005c 3B       		.uleb128 0x3b
 929 005d 05       		.uleb128 0x5
 930 005e 49       		.uleb128 0x49
 931 005f 13       		.uleb128 0x13
 932 0060 38       		.uleb128 0x38
 933 0061 0A       		.uleb128 0xa
 934 0062 00       		.byte	0x0
 935 0063 00       		.byte	0x0
 936 0064 09       		.uleb128 0x9
 937 0065 0D       		.uleb128 0xd
 938 0066 00       		.byte	0x0
 939 0067 03       		.uleb128 0x3
 940 0068 0E       		.uleb128 0xe
 941 0069 3A       		.uleb128 0x3a
 942 006a 0B       		.uleb128 0xb
 943 006b 3B       		.uleb128 0x3b
 944 006c 05       		.uleb128 0x5
 945 006d 49       		.uleb128 0x49
 946 006e 13       		.uleb128 0x13
 947 006f 38       		.uleb128 0x38
 948 0070 0A       		.uleb128 0xa
 949 0071 00       		.byte	0x0
 950 0072 00       		.byte	0x0
 951 0073 0A       		.uleb128 0xa
 952 0074 16       		.uleb128 0x16
 953 0075 00       		.byte	0x0
 954 0076 03       		.uleb128 0x3
 955 0077 0E       		.uleb128 0xe
 956 0078 3A       		.uleb128 0x3a
 957 0079 0B       		.uleb128 0xb
 958 007a 3B       		.uleb128 0x3b
 959 007b 05       		.uleb128 0x5
 960 007c 49       		.uleb128 0x49
 961 007d 13       		.uleb128 0x13
ARM GAS  C:\Users\z80\AppData\Local\Temp\ccPxM74j.s 			page 18


 962 007e 00       		.byte	0x0
 963 007f 00       		.byte	0x0
 964 0080 0B       		.uleb128 0xb
 965 0081 13       		.uleb128 0x13
 966 0082 01       		.byte	0x1
 967 0083 0B       		.uleb128 0xb
 968 0084 0B       		.uleb128 0xb
 969 0085 3A       		.uleb128 0x3a
 970 0086 0B       		.uleb128 0xb
 971 0087 3B       		.uleb128 0x3b
 972 0088 0B       		.uleb128 0xb
 973 0089 01       		.uleb128 0x1
 974 008a 13       		.uleb128 0x13
 975 008b 00       		.byte	0x0
 976 008c 00       		.byte	0x0
 977 008d 0C       		.uleb128 0xc
 978 008e 0D       		.uleb128 0xd
 979 008f 00       		.byte	0x0
 980 0090 03       		.uleb128 0x3
 981 0091 08       		.uleb128 0x8
 982 0092 3A       		.uleb128 0x3a
 983 0093 0B       		.uleb128 0xb
 984 0094 3B       		.uleb128 0x3b
 985 0095 0B       		.uleb128 0xb
 986 0096 49       		.uleb128 0x49
 987 0097 13       		.uleb128 0x13
 988 0098 38       		.uleb128 0x38
 989 0099 0A       		.uleb128 0xa
 990 009a 00       		.byte	0x0
 991 009b 00       		.byte	0x0
 992 009c 0D       		.uleb128 0xd
 993 009d 0D       		.uleb128 0xd
 994 009e 00       		.byte	0x0
 995 009f 03       		.uleb128 0x3
 996 00a0 0E       		.uleb128 0xe
 997 00a1 3A       		.uleb128 0x3a
 998 00a2 0B       		.uleb128 0xb
 999 00a3 3B       		.uleb128 0x3b
 1000 00a4 0B       		.uleb128 0xb
 1001 00a5 49       		.uleb128 0x49
 1002 00a6 13       		.uleb128 0x13
 1003 00a7 38       		.uleb128 0x38
 1004 00a8 0A       		.uleb128 0xa
 1005 00a9 00       		.byte	0x0
 1006 00aa 00       		.byte	0x0
 1007 00ab 0E       		.uleb128 0xe
 1008 00ac 0F       		.uleb128 0xf
 1009 00ad 00       		.byte	0x0
 1010 00ae 0B       		.uleb128 0xb
 1011 00af 0B       		.uleb128 0xb
 1012 00b0 49       		.uleb128 0x49
 1013 00b1 13       		.uleb128 0x13
 1014 00b2 00       		.byte	0x0
 1015 00b3 00       		.byte	0x0
 1016 00b4 0F       		.uleb128 0xf
 1017 00b5 2E       		.uleb128 0x2e
 1018 00b6 01       		.byte	0x1
ARM GAS  C:\Users\z80\AppData\Local\Temp\ccPxM74j.s 			page 19


 1019 00b7 3F       		.uleb128 0x3f
 1020 00b8 0C       		.uleb128 0xc
 1021 00b9 03       		.uleb128 0x3
 1022 00ba 0E       		.uleb128 0xe
 1023 00bb 3A       		.uleb128 0x3a
 1024 00bc 0B       		.uleb128 0xb
 1025 00bd 3B       		.uleb128 0x3b
 1026 00be 0B       		.uleb128 0xb
 1027 00bf 27       		.uleb128 0x27
 1028 00c0 0C       		.uleb128 0xc
 1029 00c1 11       		.uleb128 0x11
 1030 00c2 01       		.uleb128 0x1
 1031 00c3 12       		.uleb128 0x12
 1032 00c4 01       		.uleb128 0x1
 1033 00c5 40       		.uleb128 0x40
 1034 00c6 06       		.uleb128 0x6
 1035 00c7 01       		.uleb128 0x1
 1036 00c8 13       		.uleb128 0x13
 1037 00c9 00       		.byte	0x0
 1038 00ca 00       		.byte	0x0
 1039 00cb 10       		.uleb128 0x10
 1040 00cc 05       		.uleb128 0x5
 1041 00cd 00       		.byte	0x0
 1042 00ce 03       		.uleb128 0x3
 1043 00cf 0E       		.uleb128 0xe
 1044 00d0 3A       		.uleb128 0x3a
 1045 00d1 0B       		.uleb128 0xb
 1046 00d2 3B       		.uleb128 0x3b
 1047 00d3 0B       		.uleb128 0xb
 1048 00d4 49       		.uleb128 0x49
 1049 00d5 13       		.uleb128 0x13
 1050 00d6 02       		.uleb128 0x2
 1051 00d7 0A       		.uleb128 0xa
 1052 00d8 00       		.byte	0x0
 1053 00d9 00       		.byte	0x0
 1054 00da 11       		.uleb128 0x11
 1055 00db 26       		.uleb128 0x26
 1056 00dc 00       		.byte	0x0
 1057 00dd 49       		.uleb128 0x49
 1058 00de 13       		.uleb128 0x13
 1059 00df 00       		.byte	0x0
 1060 00e0 00       		.byte	0x0
 1061 00e1 12       		.uleb128 0x12
 1062 00e2 34       		.uleb128 0x34
 1063 00e3 00       		.byte	0x0
 1064 00e4 03       		.uleb128 0x3
 1065 00e5 0E       		.uleb128 0xe
 1066 00e6 3A       		.uleb128 0x3a
 1067 00e7 0B       		.uleb128 0xb
 1068 00e8 3B       		.uleb128 0x3b
 1069 00e9 0B       		.uleb128 0xb
 1070 00ea 49       		.uleb128 0x49
 1071 00eb 13       		.uleb128 0x13
 1072 00ec 02       		.uleb128 0x2
 1073 00ed 0A       		.uleb128 0xa
 1074 00ee 00       		.byte	0x0
 1075 00ef 00       		.byte	0x0
ARM GAS  C:\Users\z80\AppData\Local\Temp\ccPxM74j.s 			page 20


 1076 00f0 13       		.uleb128 0x13
 1077 00f1 34       		.uleb128 0x34
 1078 00f2 00       		.byte	0x0
 1079 00f3 03       		.uleb128 0x3
 1080 00f4 08       		.uleb128 0x8
 1081 00f5 3A       		.uleb128 0x3a
 1082 00f6 0B       		.uleb128 0xb
 1083 00f7 3B       		.uleb128 0x3b
 1084 00f8 0B       		.uleb128 0xb
 1085 00f9 49       		.uleb128 0x49
 1086 00fa 13       		.uleb128 0x13
 1087 00fb 02       		.uleb128 0x2
 1088 00fc 0A       		.uleb128 0xa
 1089 00fd 00       		.byte	0x0
 1090 00fe 00       		.byte	0x0
 1091 00ff 14       		.uleb128 0x14
 1092 0100 01       		.uleb128 0x1
 1093 0101 01       		.byte	0x1
 1094 0102 49       		.uleb128 0x49
 1095 0103 13       		.uleb128 0x13
 1096 0104 01       		.uleb128 0x1
 1097 0105 13       		.uleb128 0x13
 1098 0106 00       		.byte	0x0
 1099 0107 00       		.byte	0x0
 1100 0108 15       		.uleb128 0x15
 1101 0109 21       		.uleb128 0x21
 1102 010a 00       		.byte	0x0
 1103 010b 49       		.uleb128 0x49
 1104 010c 13       		.uleb128 0x13
 1105 010d 2F       		.uleb128 0x2f
 1106 010e 0B       		.uleb128 0xb
 1107 010f 00       		.byte	0x0
 1108 0110 00       		.byte	0x0
 1109 0111 16       		.uleb128 0x16
 1110 0112 34       		.uleb128 0x34
 1111 0113 00       		.byte	0x0
 1112 0114 03       		.uleb128 0x3
 1113 0115 0E       		.uleb128 0xe
 1114 0116 3A       		.uleb128 0x3a
 1115 0117 0B       		.uleb128 0xb
 1116 0118 3B       		.uleb128 0x3b
 1117 0119 05       		.uleb128 0x5
 1118 011a 49       		.uleb128 0x49
 1119 011b 13       		.uleb128 0x13
 1120 011c 3F       		.uleb128 0x3f
 1121 011d 0C       		.uleb128 0xc
 1122 011e 3C       		.uleb128 0x3c
 1123 011f 0C       		.uleb128 0xc
 1124 0120 00       		.byte	0x0
 1125 0121 00       		.byte	0x0
 1126 0122 00       		.byte	0x0
 1127              		.section	.debug_pubnames,"",%progbits
 1128 0000 3A000000 		.4byte	0x3a
 1129 0004 0200     		.2byte	0x2
 1130 0006 00000000 		.4byte	.Ldebug_info0
 1131 000a 9E030000 		.4byte	0x39e
 1132 000e 94020000 		.4byte	0x294
ARM GAS  C:\Users\z80\AppData\Local\Temp\ccPxM74j.s 			page 21


 1133 0012 5F70616C 		.ascii	"_pal_lld_init\000"
 1133      5F6C6C64 
 1133      5F696E69 
 1133      7400
 1134 0020 C7020000 		.4byte	0x2c7
 1135 0024 5F70616C 		.ascii	"_pal_lld_setgroupmode\000"
 1135      5F6C6C64 
 1135      5F736574 
 1135      67726F75 
 1135      706D6F64 
 1136 003a 00000000 		.4byte	0x0
 1137              		.section	.debug_pubtypes,"",%progbits
 1138 0000 A6000000 		.4byte	0xa6
 1139 0004 0200     		.2byte	0x2
 1140 0006 00000000 		.4byte	.Ldebug_info0
 1141 000a 9E030000 		.4byte	0x39e
 1142 000e 3E000000 		.4byte	0x3e
 1143 0012 75696E74 		.ascii	"uint8_t\000"
 1143      385F7400 
 1144 001a 5E000000 		.4byte	0x5e
 1145 001e 696E7433 		.ascii	"int32_t\000"
 1145      325F7400 
 1146 0026 70000000 		.4byte	0x70
 1147 002a 75696E74 		.ascii	"uint32_t\000"
 1147      33325F74 
 1147      00
 1148 0033 1E010000 		.4byte	0x11e
 1149 0037 4750494F 		.ascii	"GPIO_TypeDef\000"
 1149      5F547970 
 1149      65446566 
 1149      00
 1150 0044 C9010000 		.4byte	0x1c9
 1151 0048 5243435F 		.ascii	"RCC_TypeDef\000"
 1151      54797065 
 1151      44656600 
 1152 0054 08020000 		.4byte	0x208
 1153 0058 73746D33 		.ascii	"stm32_gpio_setup_t\000"
 1153      325F6770 
 1153      696F5F73 
 1153      65747570 
 1153      5F7400
 1154 006b 62020000 		.4byte	0x262
 1155 006f 50414C43 		.ascii	"PALConfig\000"
 1155      6F6E6669 
 1155      6700
 1156 0079 6D020000 		.4byte	0x26d
 1157 007d 696F706F 		.ascii	"ioportmask_t\000"
 1157      72746D61 
 1157      736B5F74 
 1157      00
 1158 008a 78020000 		.4byte	0x278
 1159 008e 696F6D6F 		.ascii	"iomode_t\000"
 1159      64655F74 
 1159      00
 1160 0097 83020000 		.4byte	0x283
 1161 009b 696F706F 		.ascii	"ioportid_t\000"
 1161      72746964 
ARM GAS  C:\Users\z80\AppData\Local\Temp\ccPxM74j.s 			page 22


 1161      5F7400
 1162 00a6 00000000 		.4byte	0x0
 1163              		.section	.debug_aranges,"",%progbits
 1164 0000 24000000 		.4byte	0x24
 1165 0004 0200     		.2byte	0x2
 1166 0006 00000000 		.4byte	.Ldebug_info0
 1167 000a 04       		.byte	0x4
 1168 000b 00       		.byte	0x0
 1169 000c 0000     		.2byte	0x0
 1170 000e 0000     		.2byte	0x0
 1171 0010 00000000 		.4byte	.LFB63
 1172 0014 F2000000 		.4byte	.LFE63-.LFB63
 1173 0018 00000000 		.4byte	.LFB64
 1174 001c EA000000 		.4byte	.LFE64-.LFB64
 1175 0020 00000000 		.4byte	0x0
 1176 0024 00000000 		.4byte	0x0
 1177              		.section	.debug_ranges,"",%progbits
 1178              	.Ldebug_ranges0:
 1179 0000 00000000 		.4byte	.LFB63
 1180 0004 F2000000 		.4byte	.LFE63
 1181 0008 00000000 		.4byte	.LFB64
 1182 000c EA000000 		.4byte	.LFE64
 1183 0010 00000000 		.4byte	0x0
 1184 0014 00000000 		.4byte	0x0
 1185              		.section	.debug_str,"MS",%progbits,1
 1186              	.LASF10:
 1187 0000 6C6F6E67 		.ascii	"long long int\000"
 1187      206C6F6E 
 1187      6720696E 
 1187      7400
 1188              	.LASF23:
 1189 000e 42444352 		.ascii	"BDCR\000"
 1189      00
 1190              	.LASF29:
 1191 0013 50444461 		.ascii	"PDData\000"
 1191      746100
 1192              	.LASF35:
 1193 001a 5F70616C 		.ascii	"_pal_lld_init\000"
 1193      5F6C6C64 
 1193      5F696E69 
 1193      7400
 1194              	.LASF14:
 1195 0028 42535252 		.ascii	"BSRR\000"
 1195      00
 1196              	.LASF20:
 1197 002d 41484245 		.ascii	"AHBENR\000"
 1197      4E5200
 1198              	.LASF0:
 1199 0034 756E7369 		.ascii	"unsigned int\000"
 1199      676E6564 
 1199      20696E74 
 1199      00
 1200              	.LASF32:
 1201 0041 696F706F 		.ascii	"ioportmask_t\000"
 1201      72746D61 
 1201      736B5F74 
 1201      00
ARM GAS  C:\Users\z80\AppData\Local\Temp\ccPxM74j.s 			page 23


 1202              	.LASF33:
 1203 004e 696F6D6F 		.ascii	"iomode_t\000"
 1203      64655F74 
 1203      00
 1204              	.LASF19:
 1205 0057 41504231 		.ascii	"APB1RSTR\000"
 1205      52535452 
 1205      00
 1206              	.LASF30:
 1207 0060 50454461 		.ascii	"PEData\000"
 1207      746100
 1208              	.LASF2:
 1209 0067 756E7369 		.ascii	"unsigned char\000"
 1209      676E6564 
 1209      20636861 
 1209      7200
 1210              	.LASF25:
 1211 0075 73746D33 		.ascii	"stm32_gpio_setup_t\000"
 1211      325F6770 
 1211      696F5F73 
 1211      65747570 
 1211      5F7400
 1212              	.LASF26:
 1213 0088 50414461 		.ascii	"PAData\000"
 1213      746100
 1214              	.LASF44:
 1215 008f 2E2E2F63 		.ascii	"../chibios_2.6.3/os/hal/platforms/STM32/GPIOv1/pal_"
 1215      68696269 
 1215      6F735F32 
 1215      2E362E33 
 1215      2F6F732F 
 1216 00c2 6C6C642E 		.ascii	"lld.c\000"
 1216      6300
 1217              	.LASF9:
 1218 00c8 6C6F6E67 		.ascii	"long unsigned int\000"
 1218      20756E73 
 1218      69676E65 
 1218      6420696E 
 1218      7400
 1219              	.LASF4:
 1220 00da 73686F72 		.ascii	"short unsigned int\000"
 1220      7420756E 
 1220      7369676E 
 1220      65642069 
 1220      6E7400
 1221              	.LASF42:
 1222 00ed 49544D5F 		.ascii	"ITM_RxBuffer\000"
 1222      52784275 
 1222      66666572 
 1222      00
 1223              	.LASF37:
 1224 00fa 636F6E66 		.ascii	"config\000"
 1224      696700
 1225              	.LASF31:
 1226 0101 50414C43 		.ascii	"PALConfig\000"
 1226      6F6E6669 
 1226      6700
ARM GAS  C:\Users\z80\AppData\Local\Temp\ccPxM74j.s 			page 24


 1227              	.LASF43:
 1228 010b 474E5520 		.ascii	"GNU C 4.5.0\000"
 1228      4320342E 
 1228      352E3000 
 1229              	.LASF22:
 1230 0117 41504231 		.ascii	"APB1ENR\000"
 1230      454E5200 
 1231              	.LASF18:
 1232 011f 41504232 		.ascii	"APB2RSTR\000"
 1232      52535452 
 1232      00
 1233              	.LASF36:
 1234 0128 5F70616C 		.ascii	"_pal_lld_setgroupmode\000"
 1234      5F6C6C64 
 1234      5F736574 
 1234      67726F75 
 1234      706D6F64 
 1235              	.LASF41:
 1236 013e 63666774 		.ascii	"cfgtab\000"
 1236      616200
 1237              	.LASF27:
 1238 0145 50424461 		.ascii	"PBData\000"
 1238      746100
 1239              	.LASF13:
 1240 014c 63686172 		.ascii	"char\000"
 1240      00
 1241              	.LASF5:
 1242 0151 75696E74 		.ascii	"uint8_t\000"
 1242      385F7400 
 1243              	.LASF40:
 1244 0159 6D6F6465 		.ascii	"mode\000"
 1244      00
 1245              	.LASF17:
 1246 015e 43464752 		.ascii	"CFGR\000"
 1246      00
 1247              	.LASF6:
 1248 0163 696E7433 		.ascii	"int32_t\000"
 1248      325F7400 
 1249              	.LASF21:
 1250 016b 41504232 		.ascii	"APB2ENR\000"
 1250      454E5200 
 1251              	.LASF39:
 1252 0173 6D61736B 		.ascii	"mask\000"
 1252      00
 1253              	.LASF38:
 1254 0178 706F7274 		.ascii	"port\000"
 1254      00
 1255              	.LASF3:
 1256 017d 73686F72 		.ascii	"short int\000"
 1256      7420696E 
 1256      7400
 1257              	.LASF28:
 1258 0187 50434461 		.ascii	"PCData\000"
 1258      746100
 1259              	.LASF34:
 1260 018e 696F706F 		.ascii	"ioportid_t\000"
 1260      72746964 
ARM GAS  C:\Users\z80\AppData\Local\Temp\ccPxM74j.s 			page 25


 1260      5F7400
 1261              	.LASF24:
 1262 0199 5243435F 		.ascii	"RCC_TypeDef\000"
 1262      54797065 
 1262      44656600 
 1263              	.LASF8:
 1264 01a5 75696E74 		.ascii	"uint32_t\000"
 1264      33325F74 
 1264      00
 1265              	.LASF7:
 1266 01ae 6C6F6E67 		.ascii	"long int\000"
 1266      20696E74 
 1266      00
 1267              	.LASF16:
 1268 01b7 4750494F 		.ascii	"GPIO_TypeDef\000"
 1268      5F547970 
 1268      65446566 
 1268      00
 1269              	.LASF1:
 1270 01c4 7369676E 		.ascii	"signed char\000"
 1270      65642063 
 1270      68617200 
 1271              	.LASF45:
 1272 01d0 433A5C70 		.ascii	"C:\\projects\\clock.git\\firmware\\firmware\000"
 1272      726F6A65 
 1272      6374735C 
 1272      636C6F63 
 1272      6B2E6769 
 1273              	.LASF12:
 1274 01f8 5F426F6F 		.ascii	"_Bool\000"
 1274      6C00
 1275              	.LASF11:
 1276 01fe 6C6F6E67 		.ascii	"long long unsigned int\000"
 1276      206C6F6E 
 1276      6720756E 
 1276      7369676E 
 1276      65642069 
 1277              	.LASF15:
 1278 0215 4C434B52 		.ascii	"LCKR\000"
 1278      00
 1279              		.ident	"GCC: (GNU) 4.5.0"
ARM GAS  C:\Users\z80\AppData\Local\Temp\ccPxM74j.s 			page 26


DEFINED SYMBOLS
                            *ABS*:00000000 pal_lld.c
C:\Users\z80\AppData\Local\Temp\ccPxM74j.s:24     .text._pal_lld_init:00000000 $t
C:\Users\z80\AppData\Local\Temp\ccPxM74j.s:30     .text._pal_lld_init:00000000 _pal_lld_init
C:\Users\z80\AppData\Local\Temp\ccPxM74j.s:147    .text._pal_lld_setgroupmode:00000000 $t
C:\Users\z80\AppData\Local\Temp\ccPxM74j.s:153    .text._pal_lld_setgroupmode:00000000 _pal_lld_setgroupmode
C:\Users\z80\AppData\Local\Temp\ccPxM74j.s:297    .rodata.cfgtab.3706:00000000 cfgtab.3706
C:\Users\z80\AppData\Local\Temp\ccPxM74j.s:294    .rodata.cfgtab.3706:00000000 $d
                     .debug_frame:00000010 $d

NO UNDEFINED SYMBOLS
