ARM GAS  C:\Users\z80\AppData\Local\Temp\ccXL5WQm.s 			page 1


   1              		.syntax unified
   2              		.cpu cortex-m3
   3              		.fpu softvfp
   4              		.eabi_attribute 20, 1
   5              		.eabi_attribute 21, 1
   6              		.eabi_attribute 23, 3
   7              		.eabi_attribute 24, 1
   8              		.eabi_attribute 25, 1
   9              		.eabi_attribute 26, 1
  10              		.eabi_attribute 30, 6
  11              		.eabi_attribute 18, 4
  12              		.thumb
  13              		.file	"playback.c"
  20 0000 FC030000 		.text
  20      02001403 
  20      00000201 
  20      FB0E0D00 
  20      01010101 
  21              	.Ltext0:
  22              		.cfi_sections	.debug_frame
  23              		.global	sndBuf
  24              		.section	.bss.sndBuf,"aw",%nobits
  25              		.align	2
  26              		.type	sndBuf, %object
  27              		.size	sndBuf, 1024
  28              	sndBuf:
  29 0000 00000000 		.space	1024
  29      00000000 
  29      00000000 
  29      00000000 
  29      00000000 
  30              		.global	sndIndex
  31              		.section	.bss.sndIndex,"aw",%nobits
  32              		.align	2
  33              		.type	sndIndex, %object
  34              		.size	sndIndex, 4
  35              	sndIndex:
  36 0000 00000000 		.space	4
  37              		.global	sndStop
  38              		.section	.bss.sndStop,"aw",%nobits
  39              		.align	2
  40              		.type	sndStop, %object
  41              		.size	sndStop, 4
  42              	sndStop:
  43 0000 00000000 		.space	4
  44              		.section	.data.pwmcfg,"aw",%progbits
  45              		.align	2
  46              		.type	pwmcfg, %object
  47              		.size	pwmcfg, 52
  48              	pwmcfg:
  49 0000 00366E01 		.word	24000000
ARM GAS  C:\Users\z80\AppData\Local\Temp\ccXL5WQm.s 			page 2


  50 0004 E803     		.short	1000
  51 0006 0000     		.space	2
  52 0008 00000000 		.word	pwmpcb
  53 000c 01000000 		.word	1
  54 0010 00000000 		.word	0
  55 0014 00000000 		.word	0
  56 0018 00000000 		.word	0
  57 001c 00000000 		.word	0
  58 0020 00000000 		.word	0
  59 0024 00000000 		.word	0
  60 0028 00000000 		.word	0
  61 002c 00000000 		.word	0
  62 0030 00000000 		.word	0
  63              		.section	.bss.is_playing,"aw",%nobits
  64              		.align	2
  65              		.type	is_playing, %object
  66              		.size	is_playing, 4
  67              	is_playing:
  68 0000 00000000 		.space	4
  69              		.section	.bss.do_exit_pwm,"aw",%nobits
  70              		.align	2
  71              		.type	do_exit_pwm, %object
  72              		.size	do_exit_pwm, 4
  73              	do_exit_pwm:
  74 0000 00000000 		.space	4
  75              		.global	MMC_FS
  76              		.section	.bss.MMC_FS,"aw",%nobits
  77              		.align	2
  78              		.type	MMC_FS, %object
  79              		.size	MMC_FS, 548
  80              	MMC_FS:
  81 0000 00000000 		.space	548
  81      00000000 
  81      00000000 
  81      00000000 
  81      00000000 
  82              		.global	MMCD1
  83              		.section	.bss.MMCD1,"aw",%nobits
  84              		.align	2
  85              		.type	MMCD1, %object
  86              		.size	MMCD1, 52
  87              	MMCD1:
  88 0000 00000000 		.space	52
  88      00000000 
  88      00000000 
  88      00000000 
  88      00000000 
  89              		.section	.data.hs_spicfg,"aw",%progbits
  90              		.align	2
  91              		.type	hs_spicfg, %object
  92              		.size	hs_spicfg, 12
  93              	hs_spicfg:
  94 0000 00000000 		.word	0
  95 0004 000C0140 		.word	1073810432
  96 0008 0C00     		.short	12
  97 000a 0000     		.short	0
  98              		.section	.data.ls_spicfg,"aw",%progbits
ARM GAS  C:\Users\z80\AppData\Local\Temp\ccXL5WQm.s 			page 3


  99              		.align	2
 100              		.type	ls_spicfg, %object
 101              		.size	ls_spicfg, 12
 102              	ls_spicfg:
 103 0000 00000000 		.word	0
 104 0004 000C0140 		.word	1073810432
 105 0008 0C00     		.short	12
 106 000a 3000     		.short	48
 107              		.section	.data.mmccfg,"aw",%progbits
 108              		.align	2
 109              		.type	mmccfg, %object
 110              		.size	mmccfg, 12
 111              	mmccfg:
 112 0000 00000000 		.word	SPID2
 113 0004 00000000 		.word	ls_spicfg
 114 0008 00000000 		.word	hs_spicfg
 115              		.section	.bss.mailbox,"aw",%nobits
 116              		.align	2
 117              		.type	mailbox, %object
 118              		.size	mailbox, 40
 119              	mailbox:
 120 0000 00000000 		.space	40
 120      00000000 
 120      00000000 
 120      00000000 
 120      00000000 
 121              		.section	.bss.message,"aw",%nobits
 122              		.align	2
 123              		.type	message, %object
 124              		.size	message, 4
 125              	message:
 126 0000 00000000 		.space	4
 127              		.section	.text.playbackInit,"ax",%progbits
 128              		.align	2
 129              		.p2align 4,,15
 130              		.global	playbackInit
 131              		.thumb
 132              		.thumb_func
 133              		.type	playbackInit, %function
 134              	playbackInit:
 135              	.LFB63:
 136              		.file 1 "src/playback.c"
 137              		.loc 1 69 0
 138              		.cfi_startproc
 139              		@ args = 0, pretend = 0, frame = 0
 140              		@ frame_needed = 0, uses_anonymous_args = 0
 141 0000 08B5     		push	{r3, lr}
 142              	.LCFI0:
 143              		.cfi_def_cfa_offset 8
 144              		.loc 1 70 0
 145 0002 40F20000 		movw	r0, #:lower16:mailbox
 146 0006 C0F20000 		movt	r0, #:upper16:mailbox
 147 000a 40F20001 		movw	r1, #:lower16:message
 148 000e C0F20001 		movt	r1, #:upper16:message
 149 0012 4FF00102 		mov	r2, #1
 150              		.cfi_offset 14, -4
 151              		.cfi_offset 3, -8
ARM GAS  C:\Users\z80\AppData\Local\Temp\ccXL5WQm.s 			page 4


 152 0016 FFF7FEFF 		bl	chMBInit
 153              		.loc 1 72 0
 154 001a 4FF44060 		mov	r0, #3072
 155 001e C4F20100 		movt	r0, 16385
 156 0022 4FF40051 		mov	r1, #8192
 157 0026 4FF01002 		mov	r2, #16
 158 002a FFF7FEFF 		bl	_pal_lld_setgroupmode
 159              		.loc 1 73 0
 160 002e 4FF44060 		mov	r0, #3072
 161 0032 C4F20100 		movt	r0, 16385
 162 0036 4FF48041 		mov	r1, #16384
 163 003a 4FF01002 		mov	r2, #16
 164 003e FFF7FEFF 		bl	_pal_lld_setgroupmode
 165              		.loc 1 74 0
 166 0042 4FF44060 		mov	r0, #3072
 167 0046 C4F20100 		movt	r0, 16385
 168 004a 4FF40041 		mov	r1, #32768
 169 004e 4FF01002 		mov	r2, #16
 170 0052 FFF7FEFF 		bl	_pal_lld_setgroupmode
 171              		.loc 1 75 0
 172 0056 4FF44060 		mov	r0, #3072
 173 005a C4F20100 		movt	r0, 16385
 174 005e 4FF48051 		mov	r1, #4096
 175 0062 4FF00602 		mov	r2, #6
 176 0066 FFF7FEFF 		bl	_pal_lld_setgroupmode
 177              		.loc 1 76 0
 178 006a 4FF48050 		mov	r0, #4096
 179 006e C4F20100 		movt	r0, 16385
 180 0072 4FF40071 		mov	r1, #512
 181 0076 4FF00602 		mov	r2, #6
 182 007a FFF7FEFF 		bl	_pal_lld_setgroupmode
 183              		.loc 1 77 0
 184 007e 4FF44063 		mov	r3, #3072
 185 0082 C4F20103 		movt	r3, 16385
 186 0086 4FF48052 		mov	r2, #4096
 187 008a 1A61     		str	r2, [r3, #16]
 188              		.loc 1 78 0
 189 008c 4FF48053 		mov	r3, #4096
 190 0090 C4F20103 		movt	r3, 16385
 191 0094 4FF40072 		mov	r2, #512
 192 0098 5A61     		str	r2, [r3, #20]
 193              		.loc 1 81 0
 194 009a 4FF40060 		mov	r0, #2048
 195 009e C4F20100 		movt	r0, 16385
 196 00a2 4FF48071 		mov	r1, #256
 197 00a6 4FF01002 		mov	r2, #16
 198 00aa FFF7FEFF 		bl	_pal_lld_setgroupmode
 199              		.loc 1 83 0
 200 00ae 40F20000 		movw	r0, #:lower16:MMCD1
 201 00b2 C0F20000 		movt	r0, #:upper16:MMCD1
 202 00b6 FFF7FEFF 		bl	mmcObjectInit
 203              		.loc 1 84 0
 204 00ba 08BD     		pop	{r3, pc}
 205              		.cfi_endproc
 206              	.LFE63:
 207              		.size	playbackInit, .-playbackInit
 208 00bc AFF30080 		.section	.text.playbackStart,"ax",%progbits
ARM GAS  C:\Users\z80\AppData\Local\Temp\ccXL5WQm.s 			page 5


 209              		.align	2
 210              		.p2align 4,,15
 211              		.thumb
 212              		.thumb_func
 213              		.type	playbackStart, %function
 214              	playbackStart:
 215              	.LFB64:
 216              		.loc 1 87 0
 217              		.cfi_startproc
 218              		@ args = 0, pretend = 0, frame = 8
 219              		@ frame_needed = 0, uses_anonymous_args = 0
 220 0000 00B5     		push	{lr}
 221              	.LCFI1:
 222              		.cfi_def_cfa_offset 4
 223 0002 83B0     		sub	sp, sp, #12
 224              	.LCFI2:
 225              		.cfi_def_cfa_offset 16
 226              		.loc 1 89 0
 227 0004 40F20000 		movw	r0, #:lower16:MMCD1
 228 0008 C0F20000 		movt	r0, #:upper16:MMCD1
 229 000c 40F20001 		movw	r1, #:lower16:mmccfg
 230 0010 C0F20001 		movt	r1, #:upper16:mmccfg
 231              		.cfi_offset 14, -4
 232 0014 FFF7FEFF 		bl	mmcStart
 233              		.loc 1 90 0
 234 0018 4FF00000 		mov	r0, #0
 235 001c 40F20001 		movw	r1, #:lower16:MMC_FS
 236 0020 C0F20001 		movt	r1, #:upper16:MMC_FS
 237 0024 FFF7FEFF 		bl	f_mount
 238 0028 0346     		mov	r3, r0
 239 002a 8DF80730 		strb	r3, [sp, #7]
 240              		.loc 1 91 0
 241 002e 9DF80730 		ldrb	r3, [sp, #7]	@ zero_extendqisi2
 242 0032 002B     		cmp	r3, #0
 243 0034 02D0     		beq	.L3
 244              		.loc 1 92 0
 245 0036 4FF00103 		mov	r3, #1
 246 003a 08E0     		b	.L4
 247              	.L3:
 248              		.loc 1 93 0
 249 003c 4FF48053 		mov	r3, #4096
 250 0040 C4F20103 		movt	r3, 16385
 251 0044 4FF40072 		mov	r2, #512
 252 0048 1A61     		str	r2, [r3, #16]
 253              		.loc 1 94 0
 254 004a 4FF00003 		mov	r3, #0
 255              	.L4:
 256              		.loc 1 95 0
 257 004e 1846     		mov	r0, r3
 258 0050 03B0     		add	sp, sp, #12
 259 0052 00BD     		pop	{pc}
 260              		.cfi_endproc
 261              	.LFE64:
 262              		.size	playbackStart, .-playbackStart
 263 0054 AFF30080 		.section	.text.playbackStop,"ax",%progbits
 263      AFF30080 
 263      AFF30080 
ARM GAS  C:\Users\z80\AppData\Local\Temp\ccXL5WQm.s 			page 6


 264              		.align	2
 265              		.p2align 4,,15
 266              		.thumb
 267              		.thumb_func
 268              		.type	playbackStop, %function
 269              	playbackStop:
 270              	.LFB65:
 271              		.loc 1 98 0
 272              		.cfi_startproc
 273              		@ args = 0, pretend = 0, frame = 0
 274              		@ frame_needed = 0, uses_anonymous_args = 0
 275 0000 08B5     		push	{r3, lr}
 276              	.LCFI3:
 277              		.cfi_def_cfa_offset 8
 278              		.loc 1 99 0
 279 0002 4FF00000 		mov	r0, #0
 280 0006 4FF00001 		mov	r1, #0
 281              		.cfi_offset 14, -4
 282              		.cfi_offset 3, -8
 283 000a FFF7FEFF 		bl	f_mount
 284              		.loc 1 100 0
 285 000e 40F20000 		movw	r0, #:lower16:MMCD1
 286 0012 C0F20000 		movt	r0, #:upper16:MMCD1
 287 0016 FFF7FEFF 		bl	mmcDisconnect
 288              		.loc 1 106 0
 289 001a 40F20000 		movw	r0, #:lower16:PWMD1
 290 001e C0F20000 		movt	r0, #:upper16:PWMD1
 291 0022 FFF7FEFF 		bl	pwmStop
 292              		.loc 1 107 0
 293 0026 4FF48053 		mov	r3, #4096
 294 002a C4F20103 		movt	r3, 16385
 295 002e 4FF40072 		mov	r2, #512
 296 0032 5A61     		str	r2, [r3, #20]
 297              		.loc 1 108 0
 298 0034 08BD     		pop	{r3, pc}
 299              		.cfi_endproc
 300              	.LFE65:
 301              		.size	playbackStop, .-playbackStop
 302 0036 00BFAFF3 		.section	.text.play,"ax",%progbits
 302      0080AFF3 
 302      0080
 303              		.align	2
 304              		.p2align 4,,15
 305              		.global	play
 306              		.thumb
 307              		.thumb_func
 308              		.type	play, %function
 309              	play:
 310              	.LFB66:
 311              		.loc 1 111 0
 312              		.cfi_startproc
 313              		@ args = 0, pretend = 0, frame = 48
 314              		@ frame_needed = 0, uses_anonymous_args = 0
 315 0000 00B5     		push	{lr}
 316              	.LCFI4:
 317              		.cfi_def_cfa_offset 4
 318 0002 8DB0     		sub	sp, sp, #52
ARM GAS  C:\Users\z80\AppData\Local\Temp\ccXL5WQm.s 			page 7


 319              	.LCFI5:
 320              		.cfi_def_cfa_offset 56
 321 0004 0190     		str	r0, [sp, #4]
 322              		.loc 1 112 0
 323 0006 40F20003 		movw	r3, #:lower16:is_playing
 324 000a C0F20003 		movt	r3, #:upper16:is_playing
 325 000e 4FF00102 		mov	r2, #1
 326 0012 1A60     		str	r2, [r3, #0]
 327              		.loc 1 113 0
 328 0014 40F20003 		movw	r3, #:lower16:do_exit_pwm
 329 0018 C0F20003 		movt	r3, #:upper16:do_exit_pwm
 330 001c 4FF00002 		mov	r2, #0
 331 0020 1A60     		str	r2, [r3, #0]
 332              		.loc 1 114 0
 333              		.cfi_offset 14, -4
 334 0022 FFF7FEFF 		bl	playbackStart
 335 0026 0346     		mov	r3, r0
 336 0028 002B     		cmp	r3, #0
 337 002a 02D0     		beq	.L7
 338              		.loc 1 115 0
 339 002c 4FF00103 		mov	r3, #1
 340 0030 98E0     		b	.L8
 341              	.L7:
 342              		.loc 1 119 0
 343 0032 04AB     		add	r3, sp, #16
 344 0034 1846     		mov	r0, r3
 345 0036 0199     		ldr	r1, [sp, #4]
 346 0038 4FF00102 		mov	r2, #1
 347 003c FFF7FEFF 		bl	f_open
 348 0040 0346     		mov	r3, r0
 349 0042 8DF82F30 		strb	r3, [sp, #47]
 350              		.loc 1 120 0
 351 0046 9DF82F30 		ldrb	r3, [sp, #47]	@ zero_extendqisi2
 352 004a 002B     		cmp	r3, #0
 353 004c 40F08880 		bne	.L9
 354              	.LBB2:
 355              		.loc 1 122 0
 356 0050 40F20003 		movw	r3, #:lower16:sndIndex
 357 0054 C0F20003 		movt	r3, #:upper16:sndIndex
 358 0058 4FF00002 		mov	r2, #0
 359 005c 1A60     		str	r2, [r3, #0]
 360              		.loc 1 126 0
 361 005e 4FF00003 		mov	r3, #0
 362 0062 0393     		str	r3, [sp, #12]
 363 0064 0BE0     		b	.L10
 364              	.L11:
 365              		.loc 1 127 0 discriminator 2
 366 0066 039A     		ldr	r2, [sp, #12]
 367 0068 40F20003 		movw	r3, #:lower16:sndBuf
 368 006c C0F20003 		movt	r3, #:upper16:sndBuf
 369 0070 4FF00001 		mov	r1, #0
 370 0074 9954     		strb	r1, [r3, r2]
 371              		.loc 1 126 0 discriminator 2
 372 0076 039B     		ldr	r3, [sp, #12]
 373 0078 03F10103 		add	r3, r3, #1
 374 007c 0393     		str	r3, [sp, #12]
 375              	.L10:
ARM GAS  C:\Users\z80\AppData\Local\Temp\ccXL5WQm.s 			page 8


 376              		.loc 1 126 0 is_stmt 0 discriminator 1
 377 007e 039A     		ldr	r2, [sp, #12]
 378 0080 40F2FF33 		movw	r3, #1023
 379 0084 9A42     		cmp	r2, r3
 380 0086 EED9     		bls	.L11
 381              		.loc 1 129 0 is_stmt 1
 382 0088 04AA     		add	r2, sp, #16
 383 008a 03AB     		add	r3, sp, #12
 384 008c 1046     		mov	r0, r2
 385 008e 40F20001 		movw	r1, #:lower16:sndBuf
 386 0092 C0F20001 		movt	r1, #:upper16:sndBuf
 387 0096 4FF40072 		mov	r2, #512
 388 009a FFF7FEFF 		bl	f_read
 389 009e 0346     		mov	r3, r0
 390 00a0 8DF82F30 		strb	r3, [sp, #47]
 391              		.loc 1 130 0
 392 00a4 039B     		ldr	r3, [sp, #12]
 393 00a6 002B     		cmp	r3, #0
 394 00a8 0BD0     		beq	.L12
 395              		.loc 1 131 0
 396 00aa 304A     		ldr	r2, .L16
 397 00ac 04A9     		add	r1, sp, #16
 398 00ae 03AB     		add	r3, sp, #12
 399 00b0 0846     		mov	r0, r1
 400 00b2 1146     		mov	r1, r2
 401 00b4 4FF40072 		mov	r2, #512
 402 00b8 FFF7FEFF 		bl	f_read
 403 00bc 0346     		mov	r3, r0
 404 00be 8DF82F30 		strb	r3, [sp, #47]
 405              	.L12:
 406              		.loc 1 134 0
 407 00c2 40F20000 		movw	r0, #:lower16:PWMD1
 408 00c6 C0F20000 		movt	r0, #:upper16:PWMD1
 409 00ca 40F20001 		movw	r1, #:lower16:pwmcfg
 410 00ce C0F20001 		movt	r1, #:upper16:pwmcfg
 411 00d2 FFF7FEFF 		bl	pwmStart
 412              		.loc 1 136 0
 413 00d6 40F20000 		movw	r0, #:lower16:PWMD1
 414 00da C0F20000 		movt	r0, #:upper16:PWMD1
 415 00de 4FF00001 		mov	r1, #0
 416 00e2 4FF00002 		mov	r2, #0
 417 00e6 FFF7FEFF 		bl	pwmEnableChannel
 418              		.loc 1 139 0
 419 00ea 2AE0     		b	.L13
 420              	.L15:
 421              	.LBB3:
 422              		.loc 1 142 0
 423 00ec 02AB     		add	r3, sp, #8
 424 00ee 40F20000 		movw	r0, #:lower16:mailbox
 425 00f2 C0F20000 		movt	r0, #:upper16:mailbox
 426 00f6 1946     		mov	r1, r3
 427 00f8 4FF0FF32 		mov	r2, #-1
 428 00fc FFF7FEFF 		bl	chMBFetch
 429 0100 0346     		mov	r3, r0
 430 0102 002B     		cmp	r3, #0
 431 0104 1DD1     		bne	.L13
 432              		.loc 1 144 0
ARM GAS  C:\Users\z80\AppData\Local\Temp\ccXL5WQm.s 			page 9


 433 0106 029B     		ldr	r3, [sp, #8]
 434 0108 002B     		cmp	r3, #0
 435 010a 0ED1     		bne	.L14
 436              		.loc 1 145 0
 437 010c 04AA     		add	r2, sp, #16
 438 010e 03AB     		add	r3, sp, #12
 439 0110 1046     		mov	r0, r2
 440 0112 40F20001 		movw	r1, #:lower16:sndBuf
 441 0116 C0F20001 		movt	r1, #:upper16:sndBuf
 442 011a 4FF40072 		mov	r2, #512
 443 011e FFF7FEFF 		bl	f_read
 444 0122 0346     		mov	r3, r0
 445 0124 8DF82F30 		strb	r3, [sp, #47]
 446 0128 0BE0     		b	.L13
 447              	.L14:
 448              		.loc 1 147 0
 449 012a 104A     		ldr	r2, .L16
 450 012c 04A9     		add	r1, sp, #16
 451 012e 03AB     		add	r3, sp, #12
 452 0130 0846     		mov	r0, r1
 453 0132 1146     		mov	r1, r2
 454 0134 4FF40072 		mov	r2, #512
 455 0138 FFF7FEFF 		bl	f_read
 456 013c 0346     		mov	r3, r0
 457 013e 8DF82F30 		strb	r3, [sp, #47]
 458              	.L13:
 459              	.LBE3:
 460              		.loc 1 139 0 discriminator 1
 461 0142 039B     		ldr	r3, [sp, #12]
 462 0144 002B     		cmp	r3, #0
 463 0146 D1D1     		bne	.L15
 464              		.loc 1 150 0
 465 0148 40F20003 		movw	r3, #:lower16:is_playing
 466 014c C0F20003 		movt	r3, #:upper16:is_playing
 467 0150 4FF00002 		mov	r2, #0
 468 0154 1A60     		str	r2, [r3, #0]
 469              	.LBE2:
 470              		.loc 1 155 0
 471 0156 FFF7FEFF 		bl	playbackStop
 472              		.loc 1 156 0
 473 015a 4FF00003 		mov	r3, #0
 474 015e 01E0     		b	.L8
 475              	.L9:
 476              		.loc 1 153 0
 477 0160 4FF00203 		mov	r3, #2
 478              	.L8:
 479              		.loc 1 157 0
 480 0164 1846     		mov	r0, r3
 481 0166 0DB0     		add	sp, sp, #52
 482 0168 00BD     		pop	{pc}
 483              	.L17:
 484 016a 00BF     		.align	2
 485              	.L16:
 486 016c 00020000 		.word	sndBuf+512
 487              		.cfi_endproc
 488              	.LFE66:
 489              		.size	play, .-play
ARM GAS  C:\Users\z80\AppData\Local\Temp\ccXL5WQm.s 			page 10


 490              		.section	.text.isPlaying,"ax",%progbits
 491              		.align	2
 492              		.p2align 4,,15
 493              		.global	isPlaying
 494              		.thumb
 495              		.thumb_func
 496              		.type	isPlaying, %function
 497              	isPlaying:
 498              	.LFB67:
 499              		.loc 1 160 0
 500              		.cfi_startproc
 501              		@ args = 0, pretend = 0, frame = 0
 502              		@ frame_needed = 0, uses_anonymous_args = 0
 503              		@ link register save eliminated.
 504              		.loc 1 161 0
 505 0000 40F20003 		movw	r3, #:lower16:is_playing
 506 0004 C0F20003 		movt	r3, #:upper16:is_playing
 507 0008 1B68     		ldr	r3, [r3, #0]
 508              		.loc 1 162 0
 509 000a 1846     		mov	r0, r3
 510 000c 7047     		bx	lr
 511              		.cfi_endproc
 512              	.LFE67:
 513              		.size	isPlaying, .-isPlaying
 514 000e 00BF     		.section	.text.pwmpcb,"ax",%progbits
 515              		.align	2
 516              		.p2align 4,,15
 517              		.thumb
 518              		.thumb_func
 519              		.type	pwmpcb, %function
 520              	pwmpcb:
 521              	.LFB68:
 522              		.loc 1 165 0
 523              		.cfi_startproc
 524              		@ args = 0, pretend = 0, frame = 16
 525              		@ frame_needed = 0, uses_anonymous_args = 0
 526 0000 00B5     		push	{lr}
 527              	.LCFI6:
 528              		.cfi_def_cfa_offset 4
 529 0002 85B0     		sub	sp, sp, #20
 530              	.LCFI7:
 531              		.cfi_def_cfa_offset 24
 532 0004 0190     		str	r0, [sp, #4]
 533              		.loc 1 167 0
 534 0006 40F20003 		movw	r3, #:lower16:sndIndex
 535 000a C0F20003 		movt	r3, #:upper16:sndIndex
 536 000e 1A68     		ldr	r2, [r3, #0]
 537 0010 40F20003 		movw	r3, #:lower16:sndBuf
 538 0014 C0F20003 		movt	r3, #:upper16:sndBuf
 539 0018 9B5C     		ldrb	r3, [r3, r2]	@ zero_extendqisi2
 540 001a 0393     		str	r3, [sp, #12]
 541 001c 02F10102 		add	r2, r2, #1
 542 0020 40F20003 		movw	r3, #:lower16:sndIndex
 543 0024 C0F20003 		movt	r3, #:upper16:sndIndex
 544 0028 1A60     		str	r2, [r3, #0]
 545              	.LBB4:
 546              		.loc 1 169 0
ARM GAS  C:\Users\z80\AppData\Local\Temp\ccXL5WQm.s 			page 11


 547 002a 4FF02003 		mov	r3, #32
 548              	@ 169 "src/playback.c" 1
 549 002e 83F31188 		msr     BASEPRI, r3
 550              	@ 0 "" 2
 551              		.thumb
 552              	.LBE4:
 553              		.loc 1 171 0
 554 0032 40F20003 		movw	r3, #:lower16:PWMD1
 555 0036 C0F20003 		movt	r3, #:upper16:PWMD1
 556 003a 1B89     		ldrh	r3, [r3, #8]
 557 003c 039A     		ldr	r2, [sp, #12]
 558 003e 02FB03F2 		mul	r2, r2, r3
 559 0042 48F28103 		movw	r3, #32897
 560 0046 C8F28003 		movt	r3, 32896
 561 004a A3FB0213 		umull	r1, r3, r3, r2
 562 004e 4FEAD313 		lsr	r3, r3, #7
 563 0052 9BB2     		uxth	r3, r3
 564 0054 40F20000 		movw	r0, #:lower16:PWMD1
 565 0058 C0F20000 		movt	r0, #:upper16:PWMD1
 566 005c 4FF00001 		mov	r1, #0
 567 0060 1A46     		mov	r2, r3
 568              		.cfi_offset 14, -4
 569 0062 FFF7FEFF 		bl	pwmEnableChannel
 570              		.loc 1 172 0
 571 0066 40F20003 		movw	r3, #:lower16:sndIndex
 572 006a C0F20003 		movt	r3, #:upper16:sndIndex
 573 006e 1B68     		ldr	r3, [r3, #0]
 574 0070 B3F5007F 		cmp	r3, #512
 575 0074 26D1     		bne	.L20
 576              		.loc 1 174 0
 577 0076 40F20003 		movw	r3, #:lower16:do_exit_pwm
 578 007a C0F20003 		movt	r3, #:upper16:do_exit_pwm
 579 007e 1B68     		ldr	r3, [r3, #0]
 580 0080 002B     		cmp	r3, #0
 581 0082 07D0     		beq	.L21
 582              		.loc 1 176 0
 583 0084 40F20000 		movw	r0, #:lower16:PWMD1
 584 0088 C0F20000 		movt	r0, #:upper16:PWMD1
 585 008c 4FF00001 		mov	r1, #0
 586 0090 FFF7FEFF 		bl	pwm_lld_disable_channel
 587              	.L21:
 588              		.loc 1 178 0
 589 0094 40F20003 		movw	r3, #:lower16:is_playing
 590 0098 C0F20003 		movt	r3, #:upper16:is_playing
 591 009c 1B68     		ldr	r3, [r3, #0]
 592 009e 002B     		cmp	r3, #0
 593 00a0 07D1     		bne	.L22
 594              		.loc 1 179 0
 595 00a2 40F20003 		movw	r3, #:lower16:do_exit_pwm
 596 00a6 C0F20003 		movt	r3, #:upper16:do_exit_pwm
 597 00aa 4FF00102 		mov	r2, #1
 598 00ae 1A60     		str	r2, [r3, #0]
 599              		.loc 1 182 0
 600 00b0 3DE0     		b	.L24
 601              	.L22:
 602 00b2 40F20000 		movw	r0, #:lower16:mailbox
 603 00b6 C0F20000 		movt	r0, #:upper16:mailbox
ARM GAS  C:\Users\z80\AppData\Local\Temp\ccXL5WQm.s 			page 12


 604 00ba 4FF00001 		mov	r1, #0
 605 00be FFF7FEFF 		bl	chMBPostI
 606 00c2 34E0     		b	.L24
 607              	.L20:
 608              		.loc 1 185 0
 609 00c4 40F20003 		movw	r3, #:lower16:sndIndex
 610 00c8 C0F20003 		movt	r3, #:upper16:sndIndex
 611 00cc 1B68     		ldr	r3, [r3, #0]
 612 00ce B3F5806F 		cmp	r3, #1024
 613 00d2 2CD1     		bne	.L24
 614              		.loc 1 187 0
 615 00d4 40F20003 		movw	r3, #:lower16:do_exit_pwm
 616 00d8 C0F20003 		movt	r3, #:upper16:do_exit_pwm
 617 00dc 1B68     		ldr	r3, [r3, #0]
 618 00de 002B     		cmp	r3, #0
 619 00e0 07D0     		beq	.L25
 620              		.loc 1 189 0
 621 00e2 40F20000 		movw	r0, #:lower16:PWMD1
 622 00e6 C0F20000 		movt	r0, #:upper16:PWMD1
 623 00ea 4FF00001 		mov	r1, #0
 624 00ee FFF7FEFF 		bl	pwm_lld_disable_channel
 625              	.L25:
 626              		.loc 1 191 0
 627 00f2 40F20003 		movw	r3, #:lower16:is_playing
 628 00f6 C0F20003 		movt	r3, #:upper16:is_playing
 629 00fa 1B68     		ldr	r3, [r3, #0]
 630 00fc 002B     		cmp	r3, #0
 631 00fe 07D1     		bne	.L26
 632              		.loc 1 192 0
 633 0100 40F20003 		movw	r3, #:lower16:do_exit_pwm
 634 0104 C0F20003 		movt	r3, #:upper16:do_exit_pwm
 635 0108 4FF00102 		mov	r2, #1
 636 010c 1A60     		str	r2, [r3, #0]
 637 010e 07E0     		b	.L27
 638              	.L26:
 639              		.loc 1 195 0
 640 0110 40F20000 		movw	r0, #:lower16:mailbox
 641 0114 C0F20000 		movt	r0, #:upper16:mailbox
 642 0118 4FF00101 		mov	r1, #1
 643 011c FFF7FEFF 		bl	chMBPostI
 644              	.L27:
 645              		.loc 1 197 0
 646 0120 40F20003 		movw	r3, #:lower16:sndIndex
 647 0124 C0F20003 		movt	r3, #:upper16:sndIndex
 648 0128 4FF00002 		mov	r2, #0
 649 012c 1A60     		str	r2, [r3, #0]
 650              	.L24:
 651              	.LBB5:
 652              		.loc 1 199 0
 653 012e 4FF00003 		mov	r3, #0
 654              	@ 199 "src/playback.c" 1
 655 0132 83F31188 		msr     BASEPRI, r3
 656              	@ 0 "" 2
 657              		.thumb
 658              	.LBE5:
 659              		.loc 1 200 0
 660 0136 05B0     		add	sp, sp, #20
ARM GAS  C:\Users\z80\AppData\Local\Temp\ccXL5WQm.s 			page 13


 661 0138 00BD     		pop	{pc}
 662              		.cfi_endproc
 663              	.LFE68:
 664              		.size	pwmpcb, .-pwmpcb
 665 013a 00BFAFF3 		.section	.text.mmc_lld_is_card_inserted,"ax",%progbits
 665      0080
 666              		.align	2
 667              		.p2align 4,,15
 668              		.global	mmc_lld_is_card_inserted
 669              		.thumb
 670              		.thumb_func
 671              		.type	mmc_lld_is_card_inserted, %function
 672              	mmc_lld_is_card_inserted:
 673              	.LFB69:
 674              		.loc 1 206 0
 675              		.cfi_startproc
 676              		@ args = 0, pretend = 0, frame = 8
 677              		@ frame_needed = 0, uses_anonymous_args = 0
 678              		@ link register save eliminated.
 679 0000 82B0     		sub	sp, sp, #8
 680              	.LCFI8:
 681              		.cfi_def_cfa_offset 8
 682 0002 0190     		str	r0, [sp, #4]
 683              		.loc 1 209 0
 684 0004 4FF00103 		mov	r3, #1
 685              		.loc 1 210 0
 686 0008 1846     		mov	r0, r3
 687 000a 02B0     		add	sp, sp, #8
 688 000c 7047     		bx	lr
 689              		.cfi_endproc
 690              	.LFE69:
 691              		.size	mmc_lld_is_card_inserted, .-mmc_lld_is_card_inserted
 692 000e 00BF     		.section	.text.mmc_lld_is_write_protected,"ax",%progbits
 693              		.align	2
 694              		.p2align 4,,15
 695              		.global	mmc_lld_is_write_protected
 696              		.thumb
 697              		.thumb_func
 698              		.type	mmc_lld_is_write_protected, %function
 699              	mmc_lld_is_write_protected:
 700              	.LFB70:
 701              		.loc 1 212 0
 702              		.cfi_startproc
 703              		@ args = 0, pretend = 0, frame = 8
 704              		@ frame_needed = 0, uses_anonymous_args = 0
 705              		@ link register save eliminated.
 706 0000 82B0     		sub	sp, sp, #8
 707              	.LCFI9:
 708              		.cfi_def_cfa_offset 8
 709 0002 0190     		str	r0, [sp, #4]
 710              		.loc 1 215 0
 711 0004 4FF00103 		mov	r3, #1
 712              		.loc 1 216 0
 713 0008 1846     		mov	r0, r3
 714 000a 02B0     		add	sp, sp, #8
 715 000c 7047     		bx	lr
 716              		.cfi_endproc
ARM GAS  C:\Users\z80\AppData\Local\Temp\ccXL5WQm.s 			page 14


 717              	.LFE70:
 718              		.size	mmc_lld_is_write_protected, .-mmc_lld_is_write_protected
 719 000e 00BF     		.text
 720              	.Letext0: