ARM GAS  C:\Users\z80\AppData\Local\Temp\cc6b1W7q.s 			page 1


   1              		.syntax unified
   2              		.cpu cortex-m3
   3              		.fpu softvfp
   4              		.eabi_attribute 20, 1
   5              		.eabi_attribute 21, 1
   6              		.eabi_attribute 23, 3
   7              		.eabi_attribute 24, 1
   8              		.eabi_attribute 25, 1
   9              		.eabi_attribute 26, 1
  10              		.eabi_attribute 30, 6
  11              		.eabi_attribute 18, 4
  12              		.thumb
  13              		.file	"rtc.c"
  20 0000 DD010000 		.text
  20      02002801 
  20      00000201 
  20      FB0E0D00 
  20      01010101 
  21              	.Ltext0:
  22              		.cfi_sections	.debug_frame
  23              		.section	.text.rtcInit,"ax",%progbits
  24              		.align	2
  25              		.p2align 4,,15
  26              		.global	rtcInit
  27              		.thumb
  28              		.thumb_func
  29              		.type	rtcInit, %function
  30              	rtcInit:
  31              	.LFB63:
  32              		.file 1 "../chibios_2.6.3/os/hal/src/rtc.c"
  33              		.loc 1 72 0
  34              		.cfi_startproc
  35              		@ args = 0, pretend = 0, frame = 0
  36              		@ frame_needed = 0, uses_anonymous_args = 0
  37 0000 08B5     		push	{r3, lr}
  38              	.LCFI0:
  39              		.cfi_def_cfa_offset 8
  40              		.loc 1 74 0
  41              		.cfi_offset 14, -4
  42              		.cfi_offset 3, -8
  43 0002 FFF7FEFF 		bl	rtc_lld_init
  44              		.loc 1 75 0
  45 0006 08BD     		pop	{r3, pc}
  46              		.cfi_endproc
  47              	.LFE63:
  48              		.size	rtcInit, .-rtcInit
  49 0008 AFF30080 		.section	.text.rtcSetTime,"ax",%progbits
  49      AFF30080 
  50              		.align	2
  51              		.p2align 4,,15
  52              		.global	rtcSetTime
ARM GAS  C:\Users\z80\AppData\Local\Temp\cc6b1W7q.s 			page 2


  53              		.thumb
  54              		.thumb_func
  55              		.type	rtcSetTime, %function
  56              	rtcSetTime:
  57              	.LFB64:
  58              		.loc 1 85 0
  59              		.cfi_startproc
  60              		@ args = 0, pretend = 0, frame = 8
  61              		@ frame_needed = 0, uses_anonymous_args = 0
  62 0000 00B5     		push	{lr}
  63              	.LCFI1:
  64              		.cfi_def_cfa_offset 4
  65 0002 83B0     		sub	sp, sp, #12
  66              	.LCFI2:
  67              		.cfi_def_cfa_offset 16
  68 0004 0190     		str	r0, [sp, #4]
  69 0006 0091     		str	r1, [sp, #0]
  70              		.loc 1 87 0
  71 0008 019B     		ldr	r3, [sp, #4]
  72 000a 002B     		cmp	r3, #0
  73 000c 01D0     		beq	.L4
  74              		.cfi_offset 14, -4
  75              		.loc 1 87 0 is_stmt 0 discriminator 1
  76 000e 009B     		ldr	r3, [sp, #0]
  77 0010 002B     		cmp	r3, #0
  78              	.L4:
  79              	.LBB2:
  80              		.loc 1 89 0 is_stmt 1
  81 0012 4FF02003 		mov	r3, #32
  82              	@ 89 "../chibios_2.6.3/os/hal/src/rtc.c" 1
  83 0016 83F31188 		msr     BASEPRI, r3
  84              	@ 0 "" 2
  85              		.thumb
  86              	.LBE2:
  87              		.loc 1 90 0
  88 001a 0198     		ldr	r0, [sp, #4]
  89 001c 0099     		ldr	r1, [sp, #0]
  90 001e FFF7FEFF 		bl	rtc_lld_set_time
  91              	.LBB3:
  92              		.loc 1 91 0
  93 0022 4FF00003 		mov	r3, #0
  94              	@ 91 "../chibios_2.6.3/os/hal/src/rtc.c" 1
  95 0026 83F31188 		msr     BASEPRI, r3
  96              	@ 0 "" 2
  97              		.thumb
  98              	.LBE3:
  99              		.loc 1 92 0
 100 002a 03B0     		add	sp, sp, #12
 101 002c 00BD     		pop	{pc}
 102              		.cfi_endproc
 103              	.LFE64:
 104              		.size	rtcSetTime, .-rtcSetTime
 105 002e 00BF     		.section	.text.rtcGetTime,"ax",%progbits
 106              		.align	2
 107              		.p2align 4,,15
 108              		.global	rtcGetTime
 109              		.thumb
ARM GAS  C:\Users\z80\AppData\Local\Temp\cc6b1W7q.s 			page 3


 110              		.thumb_func
 111              		.type	rtcGetTime, %function
 112              	rtcGetTime:
 113              	.LFB65:
 114              		.loc 1 102 0
 115              		.cfi_startproc
 116              		@ args = 0, pretend = 0, frame = 8
 117              		@ frame_needed = 0, uses_anonymous_args = 0
 118 0000 00B5     		push	{lr}
 119              	.LCFI3:
 120              		.cfi_def_cfa_offset 4
 121 0002 83B0     		sub	sp, sp, #12
 122              	.LCFI4:
 123              		.cfi_def_cfa_offset 16
 124 0004 0190     		str	r0, [sp, #4]
 125 0006 0091     		str	r1, [sp, #0]
 126              		.loc 1 104 0
 127 0008 019B     		ldr	r3, [sp, #4]
 128 000a 002B     		cmp	r3, #0
 129 000c 01D0     		beq	.L7
 130              		.cfi_offset 14, -4
 131              		.loc 1 104 0 is_stmt 0 discriminator 1
 132 000e 009B     		ldr	r3, [sp, #0]
 133 0010 002B     		cmp	r3, #0
 134              	.L7:
 135              	.LBB4:
 136              		.loc 1 106 0 is_stmt 1
 137 0012 4FF02003 		mov	r3, #32
 138              	@ 106 "../chibios_2.6.3/os/hal/src/rtc.c" 1
 139 0016 83F31188 		msr     BASEPRI, r3
 140              	@ 0 "" 2
 141              		.thumb
 142              	.LBE4:
 143              		.loc 1 107 0
 144 001a 0198     		ldr	r0, [sp, #4]
 145 001c 0099     		ldr	r1, [sp, #0]
 146 001e FFF7FEFF 		bl	rtc_lld_get_time
 147              	.LBB5:
 148              		.loc 1 108 0
 149 0022 4FF00003 		mov	r3, #0
 150              	@ 108 "../chibios_2.6.3/os/hal/src/rtc.c" 1
 151 0026 83F31188 		msr     BASEPRI, r3
 152              	@ 0 "" 2
 153              		.thumb
 154              	.LBE5:
 155              		.loc 1 109 0
 156 002a 03B0     		add	sp, sp, #12
 157 002c 00BD     		pop	{pc}
 158              		.cfi_endproc
 159              	.LFE65:
 160              		.size	rtcGetTime, .-rtcGetTime
 161 002e 00BF     		.section	.text.rtcSetAlarm,"ax",%progbits
 162              		.align	2
 163              		.p2align 4,,15
 164              		.global	rtcSetAlarm
 165              		.thumb
 166              		.thumb_func
ARM GAS  C:\Users\z80\AppData\Local\Temp\cc6b1W7q.s 			page 4


 167              		.type	rtcSetAlarm, %function
 168              	rtcSetAlarm:
 169              	.LFB66:
 170              		.loc 1 123 0
 171              		.cfi_startproc
 172              		@ args = 0, pretend = 0, frame = 16
 173              		@ frame_needed = 0, uses_anonymous_args = 0
 174 0000 00B5     		push	{lr}
 175              	.LCFI5:
 176              		.cfi_def_cfa_offset 4
 177 0002 85B0     		sub	sp, sp, #20
 178              	.LCFI6:
 179              		.cfi_def_cfa_offset 24
 180 0004 0390     		str	r0, [sp, #12]
 181 0006 0291     		str	r1, [sp, #8]
 182 0008 0192     		str	r2, [sp, #4]
 183              		.loc 1 125 0
 184 000a 039B     		ldr	r3, [sp, #12]
 185 000c 002B     		cmp	r3, #0
 186 000e 01D0     		beq	.L10
 187              		.cfi_offset 14, -4
 188              		.loc 1 125 0 is_stmt 0 discriminator 1
 189 0010 029B     		ldr	r3, [sp, #8]
 190 0012 002B     		cmp	r3, #0
 191              	.L10:
 192              	.LBB6:
 193              		.loc 1 127 0 is_stmt 1
 194 0014 4FF02003 		mov	r3, #32
 195              	@ 127 "../chibios_2.6.3/os/hal/src/rtc.c" 1
 196 0018 83F31188 		msr     BASEPRI, r3
 197              	@ 0 "" 2
 198              		.thumb
 199              	.LBE6:
 200              		.loc 1 128 0
 201 001c 0398     		ldr	r0, [sp, #12]
 202 001e 0299     		ldr	r1, [sp, #8]
 203 0020 019A     		ldr	r2, [sp, #4]
 204 0022 FFF7FEFF 		bl	rtc_lld_set_alarm
 205              	.LBB7:
 206              		.loc 1 129 0
 207 0026 4FF00003 		mov	r3, #0
 208              	@ 129 "../chibios_2.6.3/os/hal/src/rtc.c" 1
 209 002a 83F31188 		msr     BASEPRI, r3
 210              	@ 0 "" 2
 211              		.thumb
 212              	.LBE7:
 213              		.loc 1 130 0
 214 002e 05B0     		add	sp, sp, #20
 215 0030 00BD     		pop	{pc}
 216              		.cfi_endproc
 217              	.LFE66:
 218              		.size	rtcSetAlarm, .-rtcSetAlarm
 219 0032 00BFAFF3 		.section	.text.rtcGetAlarm,"ax",%progbits
 219      0080AFF3 
 219      0080AFF3 
 219      0080
 220              		.align	2
ARM GAS  C:\Users\z80\AppData\Local\Temp\cc6b1W7q.s 			page 5


 221              		.p2align 4,,15
 222              		.global	rtcGetAlarm
 223              		.thumb
 224              		.thumb_func
 225              		.type	rtcGetAlarm, %function
 226              	rtcGetAlarm:
 227              	.LFB67:
 228              		.loc 1 145 0
 229              		.cfi_startproc
 230              		@ args = 0, pretend = 0, frame = 16
 231              		@ frame_needed = 0, uses_anonymous_args = 0
 232 0000 00B5     		push	{lr}
 233              	.LCFI7:
 234              		.cfi_def_cfa_offset 4
 235 0002 85B0     		sub	sp, sp, #20
 236              	.LCFI8:
 237              		.cfi_def_cfa_offset 24
 238 0004 0390     		str	r0, [sp, #12]
 239 0006 0291     		str	r1, [sp, #8]
 240 0008 0192     		str	r2, [sp, #4]
 241              		.loc 1 147 0
 242 000a 039B     		ldr	r3, [sp, #12]
 243 000c 002B     		cmp	r3, #0
 244 000e 04D0     		beq	.L13
 245              		.cfi_offset 14, -4
 246              		.loc 1 147 0 is_stmt 0 discriminator 1
 247 0010 029B     		ldr	r3, [sp, #8]
 248 0012 002B     		cmp	r3, #0
 249 0014 01D1     		bne	.L13
 250              		.loc 1 147 0 discriminator 3
 251 0016 019B     		ldr	r3, [sp, #4]
 252 0018 002B     		cmp	r3, #0
 253              	.L13:
 254              	.LBB8:
 255              		.loc 1 150 0 is_stmt 1
 256 001a 4FF02003 		mov	r3, #32
 257              	@ 150 "../chibios_2.6.3/os/hal/src/rtc.c" 1
 258 001e 83F31188 		msr     BASEPRI, r3
 259              	@ 0 "" 2
 260              		.thumb
 261              	.LBE8:
 262              		.loc 1 151 0
 263 0022 0398     		ldr	r0, [sp, #12]
 264 0024 0299     		ldr	r1, [sp, #8]
 265 0026 019A     		ldr	r2, [sp, #4]
 266 0028 FFF7FEFF 		bl	rtc_lld_get_alarm
 267              	.LBB9:
 268              		.loc 1 152 0
 269 002c 4FF00003 		mov	r3, #0
 270              	@ 152 "../chibios_2.6.3/os/hal/src/rtc.c" 1
 271 0030 83F31188 		msr     BASEPRI, r3
 272              	@ 0 "" 2
 273              		.thumb
 274              	.LBE9:
 275              		.loc 1 153 0
 276 0034 05B0     		add	sp, sp, #20
 277 0036 00BD     		pop	{pc}
ARM GAS  C:\Users\z80\AppData\Local\Temp\cc6b1W7q.s 			page 6


 278              		.cfi_endproc
 279              	.LFE67:
 280              		.size	rtcGetAlarm, .-rtcGetAlarm
 281 0038 AFF30080 		.section	.text.rtcSetCallback,"ax",%progbits
 281      AFF30080 
 282              		.align	2
 283              		.p2align 4,,15
 284              		.global	rtcSetCallback
 285              		.thumb
 286              		.thumb_func
 287              		.type	rtcSetCallback, %function
 288              	rtcSetCallback:
 289              	.LFB68:
 290              		.loc 1 167 0
 291              		.cfi_startproc
 292              		@ args = 0, pretend = 0, frame = 8
 293              		@ frame_needed = 0, uses_anonymous_args = 0
 294 0000 00B5     		push	{lr}
 295              	.LCFI9:
 296              		.cfi_def_cfa_offset 4
 297 0002 83B0     		sub	sp, sp, #12
 298              	.LCFI10:
 299              		.cfi_def_cfa_offset 16
 300 0004 0190     		str	r0, [sp, #4]
 301 0006 0091     		str	r1, [sp, #0]
 302              		.loc 1 169 0
 303 0008 019B     		ldr	r3, [sp, #4]
 304 000a 002B     		cmp	r3, #0
 305              	.LBB10:
 306              		.loc 1 171 0
 307 000c 4FF02003 		mov	r3, #32
 308              	@ 171 "../chibios_2.6.3/os/hal/src/rtc.c" 1
 309 0010 83F31188 		msr     BASEPRI, r3
 310              	@ 0 "" 2
 311              		.thumb
 312              	.LBE10:
 313              		.loc 1 172 0
 314 0014 0198     		ldr	r0, [sp, #4]
 315 0016 0099     		ldr	r1, [sp, #0]
 316              		.cfi_offset 14, -4
 317 0018 FFF7FEFF 		bl	rtc_lld_set_callback
 318              	.LBB11:
 319              		.loc 1 173 0
 320 001c 4FF00003 		mov	r3, #0
 321              	@ 173 "../chibios_2.6.3/os/hal/src/rtc.c" 1
 322 0020 83F31188 		msr     BASEPRI, r3
 323              	@ 0 "" 2
 324              		.thumb
 325              	.LBE11:
 326              		.loc 1 174 0
 327 0024 03B0     		add	sp, sp, #12
 328 0026 00BD     		pop	{pc}
 329              		.cfi_endproc
 330              	.LFE68:
 331              		.size	rtcSetCallback, .-rtcSetCallback
 332 0028 AFF30080 		.section	.text.rtcGetTimeFat,"ax",%progbits
 332      AFF30080 
ARM GAS  C:\Users\z80\AppData\Local\Temp\cc6b1W7q.s 			page 7


 333              		.align	2
 334              		.p2align 4,,15
 335              		.global	rtcGetTimeFat
 336              		.thumb
 337              		.thumb_func
 338              		.type	rtcGetTimeFat, %function
 339              	rtcGetTimeFat:
 340              	.LFB69:
 341              		.loc 1 185 0
 342              		.cfi_startproc
 343              		@ args = 0, pretend = 0, frame = 8
 344              		@ frame_needed = 0, uses_anonymous_args = 0
 345 0000 00B5     		push	{lr}
 346              	.LCFI11:
 347              		.cfi_def_cfa_offset 4
 348 0002 83B0     		sub	sp, sp, #12
 349              	.LCFI12:
 350              		.cfi_def_cfa_offset 16
 351 0004 0190     		str	r0, [sp, #4]
 352              		.loc 1 187 0
 353 0006 019B     		ldr	r3, [sp, #4]
 354 0008 002B     		cmp	r3, #0
 355              		.loc 1 188 0
 356 000a 0198     		ldr	r0, [sp, #4]
 357              		.cfi_offset 14, -4
 358 000c FFF7FEFF 		bl	rtc_lld_get_time_fat
 359 0010 0346     		mov	r3, r0
 360              		.loc 1 189 0
 361 0012 1846     		mov	r0, r3
 362 0014 03B0     		add	sp, sp, #12
 363 0016 00BD     		pop	{pc}
 364              		.cfi_endproc
 365              	.LFE69:
 366              		.size	rtcGetTimeFat, .-rtcGetTimeFat
 367 0018 AFF30080 		.text
 367      AFF30080 
 368              	.Letext0: