ARM GAS  C:\Users\z80\AppData\Local\Temp\cc9ubmT9.s 			page 1


   1              		.syntax unified
   2              		.cpu cortex-m3
   3              		.fpu softvfp
   4              		.eabi_attribute 20, 1
   5              		.eabi_attribute 21, 1
   6              		.eabi_attribute 23, 3
   7              		.eabi_attribute 24, 1
   8              		.eabi_attribute 25, 1
   9              		.eabi_attribute 26, 1
  10              		.eabi_attribute 30, 6
  11              		.eabi_attribute 18, 4
  12              		.thumb
  13              		.file	"rtc_lld.c"
  20 0000 9B020000 		.text
  20      02005501 
  20      00000201 
  20      FB0E0D00 
  20      01010101 
  21              	.Ltext0:
  22              		.cfi_sections	.debug_frame
  23              		.global	RTCD1
  24              		.section	.bss.RTCD1,"aw",%nobits
  25              		.align	2
  26              		.type	RTCD1, %object
  27              		.size	RTCD1, 4
  28              	RTCD1:
  29 0000 00000000 		.space	4
  30              		.section	.text.Vector4C,"ax",%progbits
  31              		.align	2
  32              		.p2align 4,,15
  33              		.global	Vector4C
  34              		.thumb
  35              		.thumb_func
  36              		.type	Vector4C, %function
  37              	Vector4C:
  38              	.LFB63:
  39              		.file 1 "../chibios_2.6.3/os/hal/platforms/STM32/RTCv1/rtc_lld.c"
  40              		.loc 1 99 0
  41              		.cfi_startproc
  42              		@ args = 0, pretend = 0, frame = 8
  43              		@ frame_needed = 0, uses_anonymous_args = 0
  44 0000 00B5     		push	{lr}
  45              	.LCFI0:
  46              		.cfi_def_cfa_offset 4
  47 0002 83B0     		sub	sp, sp, #12
  48              	.LCFI1:
  49              		.cfi_def_cfa_offset 16
  50              	.L2:
  51              		.loc 1 106 0 discriminator 1
  52 0004 4FF42053 		mov	r3, #10240
  53 0008 C4F20003 		movt	r3, 16384
ARM GAS  C:\Users\z80\AppData\Local\Temp\cc9ubmT9.s 			page 2


  54 000c 9B88     		ldrh	r3, [r3, #4]	@ movhi
  55 000e 9BB2     		uxth	r3, r3
  56 0010 03F00803 		and	r3, r3, #8
  57 0014 002B     		cmp	r3, #0
  58 0016 F5D0     		beq	.L2
  59              		.cfi_offset 14, -4
  60              		.loc 1 109 0
  61 0018 4FF42053 		mov	r3, #10240
  62 001c C4F20003 		movt	r3, 16384
  63 0020 1B88     		ldrh	r3, [r3, #0]	@ movhi
  64 0022 9AB2     		uxth	r2, r3
  65 0024 4FF42053 		mov	r3, #10240
  66 0028 C4F20003 		movt	r3, 16384
  67 002c 9B88     		ldrh	r3, [r3, #4]	@ movhi
  68 002e 9BB2     		uxth	r3, r3
  69 0030 02EA0303 		and	r3, r2, r3
  70 0034 ADF80630 		strh	r3, [sp, #6]	@ movhi
  71              		.loc 1 110 0
  72 0038 4FF42053 		mov	r3, #10240
  73 003c C4F20003 		movt	r3, 16384
  74 0040 4FF42052 		mov	r2, #10240
  75 0044 C4F20002 		movt	r2, 16384
  76 0048 9288     		ldrh	r2, [r2, #4]	@ movhi
  77 004a 92B2     		uxth	r2, r2
  78 004c 22F00702 		bic	r2, r2, #7
  79 0050 92B2     		uxth	r2, r2
  80 0052 9A80     		strh	r2, [r3, #4]	@ movhi
  81              		.loc 1 112 0
  82 0054 BDF80630 		ldrh	r3, [sp, #6]
  83 0058 03F00103 		and	r3, r3, #1
  84 005c DBB2     		uxtb	r3, r3
  85 005e 002B     		cmp	r3, #0
  86 0060 0BD0     		beq	.L3
  87              		.loc 1 113 0
  88 0062 40F20003 		movw	r3, #:lower16:RTCD1
  89 0066 C0F20003 		movt	r3, #:upper16:RTCD1
  90 006a 1B68     		ldr	r3, [r3, #0]
  91 006c 40F20000 		movw	r0, #:lower16:RTCD1
  92 0070 C0F20000 		movt	r0, #:upper16:RTCD1
  93 0074 4FF00001 		mov	r1, #0
  94 0078 9847     		blx	r3
  95              	.L3:
  96              		.loc 1 115 0
  97 007a BDF80630 		ldrh	r3, [sp, #6]
  98 007e 03F00203 		and	r3, r3, #2
  99 0082 002B     		cmp	r3, #0
 100 0084 0BD0     		beq	.L4
 101              		.loc 1 116 0
 102 0086 40F20003 		movw	r3, #:lower16:RTCD1
 103 008a C0F20003 		movt	r3, #:upper16:RTCD1
 104 008e 1B68     		ldr	r3, [r3, #0]
 105 0090 40F20000 		movw	r0, #:lower16:RTCD1
 106 0094 C0F20000 		movt	r0, #:upper16:RTCD1
 107 0098 4FF00101 		mov	r1, #1
 108 009c 9847     		blx	r3
 109              	.L4:
 110              		.loc 1 118 0
ARM GAS  C:\Users\z80\AppData\Local\Temp\cc9ubmT9.s 			page 3


 111 009e BDF80630 		ldrh	r3, [sp, #6]
 112 00a2 03F00403 		and	r3, r3, #4
 113 00a6 002B     		cmp	r3, #0
 114 00a8 0BD0     		beq	.L5
 115              		.loc 1 119 0
 116 00aa 40F20003 		movw	r3, #:lower16:RTCD1
 117 00ae C0F20003 		movt	r3, #:upper16:RTCD1
 118 00b2 1B68     		ldr	r3, [r3, #0]
 119 00b4 40F20000 		movw	r0, #:lower16:RTCD1
 120 00b8 C0F20000 		movt	r0, #:upper16:RTCD1
 121 00bc 4FF00201 		mov	r1, #2
 122 00c0 9847     		blx	r3
 123              	.L5:
 124              		.loc 1 121 0
 125 00c2 FFF7FEFF 		bl	_port_irq_epilogue
 126              		.loc 1 122 0
 127 00c6 03B0     		add	sp, sp, #12
 128 00c8 00BD     		pop	{pc}
 129              		.cfi_endproc
 130              	.LFE63:
 131              		.size	Vector4C, .-Vector4C
 132 00ca 00BFAFF3 		.section	.text.rtc_lld_set_prescaler,"ax",%progbits
 132      0080
 133              		.align	2
 134              		.p2align 4,,15
 135              		.global	rtc_lld_set_prescaler
 136              		.thumb
 137              		.thumb_func
 138              		.type	rtc_lld_set_prescaler, %function
 139              	rtc_lld_set_prescaler:
 140              	.LFB64:
 141              		.loc 1 138 0
 142              		.cfi_startproc
 143              		@ args = 0, pretend = 0, frame = 0
 144              		@ frame_needed = 0, uses_anonymous_args = 0
 145              		@ link register save eliminated.
 146              	.L7:
 147              		.loc 1 139 0 discriminator 1
 148 0000 4FF42053 		mov	r3, #10240
 149 0004 C4F20003 		movt	r3, 16384
 150 0008 9B88     		ldrh	r3, [r3, #4]	@ movhi
 151 000a 9BB2     		uxth	r3, r3
 152 000c 03F02003 		and	r3, r3, #32
 153 0010 002B     		cmp	r3, #0
 154 0012 F5D0     		beq	.L7
 155              		.loc 1 139 0 is_stmt 0 discriminator 2
 156 0014 4FF42053 		mov	r3, #10240
 157 0018 C4F20003 		movt	r3, 16384
 158 001c 4FF42052 		mov	r2, #10240
 159 0020 C4F20002 		movt	r2, 16384
 160 0024 9288     		ldrh	r2, [r2, #4]	@ movhi
 161 0026 92B2     		uxth	r2, r2
 162 0028 42F01002 		orr	r2, r2, #16
 163 002c 92B2     		uxth	r2, r2
 164 002e 9A80     		strh	r2, [r3, #4]	@ movhi
 165              		.loc 1 140 0 is_stmt 1 discriminator 2
 166 0030 4FF42053 		mov	r3, #10240
ARM GAS  C:\Users\z80\AppData\Local\Temp\cc9ubmT9.s 			page 4


 167 0034 C4F20003 		movt	r3, 16384
 168 0038 4FF00002 		mov	r2, #0
 169 003c 1A81     		strh	r2, [r3, #8]	@ movhi
 170              		.loc 1 141 0 discriminator 2
 171 003e 4FF42053 		mov	r3, #10240
 172 0042 C4F20003 		movt	r3, 16384
 173 0046 4FF22342 		movw	r2, #62499
 174 004a 9A81     		strh	r2, [r3, #12]	@ movhi
 175              		.loc 1 142 0 discriminator 2
 176 004c 4FF42053 		mov	r3, #10240
 177 0050 C4F20003 		movt	r3, 16384
 178 0054 4FF42052 		mov	r2, #10240
 179 0058 C4F20002 		movt	r2, 16384
 180 005c 9288     		ldrh	r2, [r2, #4]	@ movhi
 181 005e 92B2     		uxth	r2, r2
 182 0060 22F01002 		bic	r2, r2, #16
 183 0064 92B2     		uxth	r2, r2
 184 0066 9A80     		strh	r2, [r3, #4]	@ movhi
 185              		.loc 1 143 0 discriminator 2
 186 0068 7047     		bx	lr
 187              		.cfi_endproc
 188              	.LFE64:
 189              		.size	rtc_lld_set_prescaler, .-rtc_lld_set_prescaler
 190 006a 00BFAFF3 		.section	.text.rtc_lld_init,"ax",%progbits
 190      0080
 191              		.align	2
 192              		.p2align 4,,15
 193              		.global	rtc_lld_init
 194              		.thumb
 195              		.thumb_func
 196              		.type	rtc_lld_init, %function
 197              	rtc_lld_init:
 198              	.LFB65:
 199              		.loc 1 150 0
 200              		.cfi_startproc
 201              		@ args = 0, pretend = 0, frame = 0
 202              		@ frame_needed = 0, uses_anonymous_args = 0
 203 0000 08B5     		push	{r3, lr}
 204              	.LCFI2:
 205              		.cfi_def_cfa_offset 8
 206              		.loc 1 154 0
 207 0002 4FF42053 		mov	r3, #10240
 208              		.cfi_offset 14, -4
 209              		.cfi_offset 3, -8
 210 0006 C4F20003 		movt	r3, 16384
 211 000a 4FF42052 		mov	r2, #10240
 212 000e C4F20002 		movt	r2, 16384
 213 0012 9288     		ldrh	r2, [r2, #4]	@ movhi
 214 0014 92B2     		uxth	r2, r2
 215 0016 22F00802 		bic	r2, r2, #8
 216 001a 92B2     		uxth	r2, r2
 217 001c 9A80     		strh	r2, [r3, #4]	@ movhi
 218              	.L9:
 219              		.loc 1 157 0 discriminator 1
 220 001e 4FF42053 		mov	r3, #10240
 221 0022 C4F20003 		movt	r3, 16384
 222 0026 9B88     		ldrh	r3, [r3, #4]	@ movhi
ARM GAS  C:\Users\z80\AppData\Local\Temp\cc9ubmT9.s 			page 5


 223 0028 9BB2     		uxth	r3, r3
 224 002a 03F00803 		and	r3, r3, #8
 225 002e 002B     		cmp	r3, #0
 226 0030 F5D0     		beq	.L9
 227              	.L10:
 228              		.loc 1 160 0 discriminator 1
 229 0032 4FF42053 		mov	r3, #10240
 230 0036 C4F20003 		movt	r3, 16384
 231 003a 9B88     		ldrh	r3, [r3, #4]	@ movhi
 232 003c 9BB2     		uxth	r3, r3
 233 003e 03F02003 		and	r3, r3, #32
 234 0042 002B     		cmp	r3, #0
 235 0044 F5D0     		beq	.L10
 236              		.loc 1 161 0
 237 0046 4FF42053 		mov	r3, #10240
 238 004a C4F20003 		movt	r3, 16384
 239 004e 4FF00002 		mov	r2, #0
 240 0052 1A80     		strh	r2, [r3, #0]	@ movhi
 241              		.loc 1 164 0
 242 0054 40F20003 		movw	r3, #:lower16:RTCD1
 243 0058 C0F20003 		movt	r3, #:upper16:RTCD1
 244 005c 4FF00002 		mov	r2, #0
 245 0060 1A60     		str	r2, [r3, #0]
 246              		.loc 1 167 0
 247 0062 4FF00300 		mov	r0, #3
 248 0066 4FF0F001 		mov	r1, #240
 249 006a FFF7FEFF 		bl	nvicEnableVector
 250              		.loc 1 168 0
 251 006e 08BD     		pop	{r3, pc}
 252              		.cfi_endproc
 253              	.LFE65:
 254              		.size	rtc_lld_init, .-rtc_lld_init
 255              		.section	.text.rtc_lld_set_time,"ax",%progbits
 256              		.align	2
 257              		.p2align 4,,15
 258              		.global	rtc_lld_set_time
 259              		.thumb
 260              		.thumb_func
 261              		.type	rtc_lld_set_time, %function
 262              	rtc_lld_set_time:
 263              	.LFB66:
 264              		.loc 1 180 0
 265              		.cfi_startproc
 266              		@ args = 0, pretend = 0, frame = 8
 267              		@ frame_needed = 0, uses_anonymous_args = 0
 268              		@ link register save eliminated.
 269 0000 82B0     		sub	sp, sp, #8
 270              	.LCFI3:
 271              		.cfi_def_cfa_offset 8
 272 0002 0190     		str	r0, [sp, #4]
 273 0004 0091     		str	r1, [sp, #0]
 274              	.L12:
 275              		.loc 1 184 0 discriminator 1
 276 0006 4FF42053 		mov	r3, #10240
 277 000a C4F20003 		movt	r3, 16384
 278 000e 9B88     		ldrh	r3, [r3, #4]	@ movhi
 279 0010 9BB2     		uxth	r3, r3
ARM GAS  C:\Users\z80\AppData\Local\Temp\cc9ubmT9.s 			page 6


 280 0012 03F02003 		and	r3, r3, #32
 281 0016 002B     		cmp	r3, #0
 282 0018 F5D0     		beq	.L12
 283              		.loc 1 184 0 is_stmt 0 discriminator 2
 284 001a 4FF42053 		mov	r3, #10240
 285 001e C4F20003 		movt	r3, 16384
 286 0022 4FF42052 		mov	r2, #10240
 287 0026 C4F20002 		movt	r2, 16384
 288 002a 9288     		ldrh	r2, [r2, #4]	@ movhi
 289 002c 92B2     		uxth	r2, r2
 290 002e 42F01002 		orr	r2, r2, #16
 291 0032 92B2     		uxth	r2, r2
 292 0034 9A80     		strh	r2, [r3, #4]	@ movhi
 293              		.loc 1 185 0 is_stmt 1 discriminator 2
 294 0036 4FF42053 		mov	r3, #10240
 295 003a C4F20003 		movt	r3, 16384
 296 003e 009A     		ldr	r2, [sp, #0]
 297 0040 1268     		ldr	r2, [r2, #0]
 298 0042 4FEA1242 		lsr	r2, r2, #16
 299 0046 92B2     		uxth	r2, r2
 300 0048 1A83     		strh	r2, [r3, #24]	@ movhi
 301              		.loc 1 186 0 discriminator 2
 302 004a 4FF42053 		mov	r3, #10240
 303 004e C4F20003 		movt	r3, 16384
 304 0052 009A     		ldr	r2, [sp, #0]
 305 0054 1268     		ldr	r2, [r2, #0]
 306 0056 92B2     		uxth	r2, r2
 307 0058 9A83     		strh	r2, [r3, #28]	@ movhi
 308              		.loc 1 187 0 discriminator 2
 309 005a 4FF42053 		mov	r3, #10240
 310 005e C4F20003 		movt	r3, 16384
 311 0062 4FF42052 		mov	r2, #10240
 312 0066 C4F20002 		movt	r2, 16384
 313 006a 9288     		ldrh	r2, [r2, #4]	@ movhi
 314 006c 92B2     		uxth	r2, r2
 315 006e 22F01002 		bic	r2, r2, #16
 316 0072 92B2     		uxth	r2, r2
 317 0074 9A80     		strh	r2, [r3, #4]	@ movhi
 318              		.loc 1 188 0 discriminator 2
 319 0076 02B0     		add	sp, sp, #8
 320 0078 7047     		bx	lr
 321              		.cfi_endproc
 322              	.LFE66:
 323              		.size	rtc_lld_set_time, .-rtc_lld_set_time
 324 007a 00BFAFF3 		.section	.text.rtc_lld_get_time,"ax",%progbits
 324      0080
 325              		.align	2
 326              		.p2align 4,,15
 327              		.global	rtc_lld_get_time
 328              		.thumb
 329              		.thumb_func
 330              		.type	rtc_lld_get_time, %function
 331              	rtc_lld_get_time:
 332              	.LFB67:
 333              		.loc 1 198 0
 334              		.cfi_startproc
 335              		@ args = 0, pretend = 0, frame = 16
ARM GAS  C:\Users\z80\AppData\Local\Temp\cc9ubmT9.s 			page 7


 336              		@ frame_needed = 0, uses_anonymous_args = 0
 337              		@ link register save eliminated.
 338 0000 84B0     		sub	sp, sp, #16
 339              	.LCFI4:
 340              		.cfi_def_cfa_offset 16
 341 0002 0190     		str	r0, [sp, #4]
 342 0004 0091     		str	r1, [sp, #0]
 343              	.L14:
 344              		.loc 1 204 0 discriminator 1
 345 0006 4FF42053 		mov	r3, #10240
 346 000a C4F20003 		movt	r3, 16384
 347 000e 9B88     		ldrh	r3, [r3, #4]	@ movhi
 348 0010 9BB2     		uxth	r3, r3
 349 0012 03F00803 		and	r3, r3, #8
 350 0016 002B     		cmp	r3, #0
 351 0018 F5D0     		beq	.L14
 352              	.L15:
 353              		.loc 1 208 0 discriminator 1
 354 001a 4FF42053 		mov	r3, #10240
 355 001e C4F20003 		movt	r3, 16384
 356 0022 1B8B     		ldrh	r3, [r3, #24]	@ movhi
 357 0024 9BB2     		uxth	r3, r3
 358 0026 4FEA0342 		lsl	r2, r3, #16
 359 002a 4FF42053 		mov	r3, #10240
 360 002e C4F20003 		movt	r3, 16384
 361 0032 9B8B     		ldrh	r3, [r3, #28]	@ movhi
 362 0034 9BB2     		uxth	r3, r3
 363 0036 1A44     		add	r2, r2, r3
 364 0038 009B     		ldr	r3, [sp, #0]
 365 003a 1A60     		str	r2, [r3, #0]
 366              		.loc 1 209 0 discriminator 1
 367 003c 4FF42053 		mov	r3, #10240
 368 0040 C4F20003 		movt	r3, 16384
 369 0044 1B8A     		ldrh	r3, [r3, #16]	@ movhi
 370 0046 9BB2     		uxth	r3, r3
 371 0048 4FEA0342 		lsl	r2, r3, #16
 372 004c 4FF42053 		mov	r3, #10240
 373 0050 C4F20003 		movt	r3, 16384
 374 0054 9B8A     		ldrh	r3, [r3, #20]	@ movhi
 375 0056 9BB2     		uxth	r3, r3
 376 0058 1344     		add	r3, r2, r3
 377 005a 0393     		str	r3, [sp, #12]
 378              		.loc 1 210 0 discriminator 1
 379 005c 009B     		ldr	r3, [sp, #0]
 380 005e 1A68     		ldr	r2, [r3, #0]
 381 0060 4FF42053 		mov	r3, #10240
 382 0064 C4F20003 		movt	r3, 16384
 383 0068 1B8B     		ldrh	r3, [r3, #24]	@ movhi
 384 006a 9BB2     		uxth	r3, r3
 385 006c 4FEA0341 		lsl	r1, r3, #16
 386 0070 4FF42053 		mov	r3, #10240
 387 0074 C4F20003 		movt	r3, 16384
 388 0078 9B8B     		ldrh	r3, [r3, #28]	@ movhi
 389 007a 9BB2     		uxth	r3, r3
 390 007c 0B44     		add	r3, r1, r3
 391 007e 9A42     		cmp	r2, r3
 392 0080 CBD1     		bne	.L15
ARM GAS  C:\Users\z80\AppData\Local\Temp\cc9ubmT9.s 			page 8


 393              		.loc 1 212 0
 394 0082 039A     		ldr	r2, [sp, #12]
 395 0084 4FF61843 		movw	r3, #64536
 396 0088 CFF6FF73 		movt	r3, 65535
 397 008c 03FB02F2 		mul	r2, r3, r2
 398 0090 4AF6B803 		movw	r3, #43192
 399 0094 C0F2B933 		movt	r3, 953
 400 0098 1344     		add	r3, r2, r3
 401 009a 4DF68362 		movw	r2, #56963
 402 009e C4F21B32 		movt	r2, 17179
 403 00a2 A2FB0313 		umull	r1, r3, r2, r3
 404 00a6 4FEA9333 		lsr	r3, r3, #14
 405 00aa 9BB2     		uxth	r3, r3
 406 00ac 1A46     		mov	r2, r3
 407 00ae 009B     		ldr	r3, [sp, #0]
 408 00b0 5A60     		str	r2, [r3, #4]
 409              		.loc 1 214 0
 410 00b2 04B0     		add	sp, sp, #16
 411 00b4 7047     		bx	lr
 412              		.cfi_endproc
 413              	.LFE67:
 414              		.size	rtc_lld_get_time, .-rtc_lld_get_time
 415 00b6 00BFAFF3 		.section	.text.rtc_lld_set_alarm,"ax",%progbits
 415      0080AFF3 
 415      0080
 416              		.align	2
 417              		.p2align 4,,15
 418              		.global	rtc_lld_set_alarm
 419              		.thumb
 420              		.thumb_func
 421              		.type	rtc_lld_set_alarm, %function
 422              	rtc_lld_set_alarm:
 423              	.LFB68:
 424              		.loc 1 229 0
 425              		.cfi_startproc
 426              		@ args = 0, pretend = 0, frame = 16
 427              		@ frame_needed = 0, uses_anonymous_args = 0
 428              		@ link register save eliminated.
 429 0000 84B0     		sub	sp, sp, #16
 430              	.LCFI5:
 431              		.cfi_def_cfa_offset 16
 432 0002 0390     		str	r0, [sp, #12]
 433 0004 0291     		str	r1, [sp, #8]
 434 0006 0192     		str	r2, [sp, #4]
 435              	.L17:
 436              		.loc 1 234 0 discriminator 1
 437 0008 4FF42053 		mov	r3, #10240
 438 000c C4F20003 		movt	r3, 16384
 439 0010 9B88     		ldrh	r3, [r3, #4]	@ movhi
 440 0012 9BB2     		uxth	r3, r3
 441 0014 03F02003 		and	r3, r3, #32
 442 0018 002B     		cmp	r3, #0
 443 001a F5D0     		beq	.L17
 444              		.loc 1 234 0 is_stmt 0 discriminator 2
 445 001c 4FF42053 		mov	r3, #10240
 446 0020 C4F20003 		movt	r3, 16384
 447 0024 4FF42052 		mov	r2, #10240
ARM GAS  C:\Users\z80\AppData\Local\Temp\cc9ubmT9.s 			page 9


 448 0028 C4F20002 		movt	r2, 16384
 449 002c 9288     		ldrh	r2, [r2, #4]	@ movhi
 450 002e 92B2     		uxth	r2, r2
 451 0030 42F01002 		orr	r2, r2, #16
 452 0034 92B2     		uxth	r2, r2
 453 0036 9A80     		strh	r2, [r3, #4]	@ movhi
 454              		.loc 1 235 0 is_stmt 1 discriminator 2
 455 0038 019B     		ldr	r3, [sp, #4]
 456 003a 002B     		cmp	r3, #0
 457 003c 12D0     		beq	.L18
 458              		.loc 1 236 0
 459 003e 4FF42053 		mov	r3, #10240
 460 0042 C4F20003 		movt	r3, 16384
 461 0046 019A     		ldr	r2, [sp, #4]
 462 0048 1268     		ldr	r2, [r2, #0]
 463 004a 4FEA1242 		lsr	r2, r2, #16
 464 004e 92B2     		uxth	r2, r2
 465 0050 1A84     		strh	r2, [r3, #32]	@ movhi
 466              		.loc 1 237 0
 467 0052 4FF42053 		mov	r3, #10240
 468 0056 C4F20003 		movt	r3, 16384
 469 005a 019A     		ldr	r2, [sp, #4]
 470 005c 1268     		ldr	r2, [r2, #0]
 471 005e 92B2     		uxth	r2, r2
 472 0060 9A84     		strh	r2, [r3, #36]	@ movhi
 473 0062 0DE0     		b	.L19
 474              	.L18:
 475              		.loc 1 240 0
 476 0064 4FF42053 		mov	r3, #10240
 477 0068 C4F20003 		movt	r3, 16384
 478 006c 4FF00002 		mov	r2, #0
 479 0070 1A84     		strh	r2, [r3, #32]	@ movhi
 480              		.loc 1 241 0
 481 0072 4FF42053 		mov	r3, #10240
 482 0076 C4F20003 		movt	r3, 16384
 483 007a 4FF00002 		mov	r2, #0
 484 007e 9A84     		strh	r2, [r3, #36]	@ movhi
 485              	.L19:
 486              		.loc 1 243 0
 487 0080 4FF42053 		mov	r3, #10240
 488 0084 C4F20003 		movt	r3, 16384
 489 0088 4FF42052 		mov	r2, #10240
 490 008c C4F20002 		movt	r2, 16384
 491 0090 9288     		ldrh	r2, [r2, #4]	@ movhi
 492 0092 92B2     		uxth	r2, r2
 493 0094 22F01002 		bic	r2, r2, #16
 494 0098 92B2     		uxth	r2, r2
 495 009a 9A80     		strh	r2, [r3, #4]	@ movhi
 496              		.loc 1 244 0
 497 009c 04B0     		add	sp, sp, #16
 498 009e 7047     		bx	lr
 499              		.cfi_endproc
 500              	.LFE68:
 501              		.size	rtc_lld_set_alarm, .-rtc_lld_set_alarm
 502              		.section	.text.rtc_lld_get_alarm,"ax",%progbits
 503              		.align	2
 504              		.p2align 4,,15
ARM GAS  C:\Users\z80\AppData\Local\Temp\cc9ubmT9.s 			page 10


 505              		.global	rtc_lld_get_alarm
 506              		.thumb
 507              		.thumb_func
 508              		.type	rtc_lld_get_alarm, %function
 509              	rtc_lld_get_alarm:
 510              	.LFB69:
 511              		.loc 1 261 0
 512              		.cfi_startproc
 513              		@ args = 0, pretend = 0, frame = 16
 514              		@ frame_needed = 0, uses_anonymous_args = 0
 515              		@ link register save eliminated.
 516 0000 84B0     		sub	sp, sp, #16
 517              	.LCFI6:
 518              		.cfi_def_cfa_offset 16
 519 0002 0390     		str	r0, [sp, #12]
 520 0004 0291     		str	r1, [sp, #8]
 521 0006 0192     		str	r2, [sp, #4]
 522              	.L21:
 523              		.loc 1 267 0 discriminator 1
 524 0008 4FF42053 		mov	r3, #10240
 525 000c C4F20003 		movt	r3, 16384
 526 0010 9B88     		ldrh	r3, [r3, #4]	@ movhi
 527 0012 9BB2     		uxth	r3, r3
 528 0014 03F00803 		and	r3, r3, #8
 529 0018 002B     		cmp	r3, #0
 530 001a F5D0     		beq	.L21
 531              		.loc 1 269 0
 532 001c 4FF42053 		mov	r3, #10240
 533 0020 C4F20003 		movt	r3, 16384
 534 0024 1B8C     		ldrh	r3, [r3, #32]	@ movhi
 535 0026 9BB2     		uxth	r3, r3
 536 0028 4FEA0342 		lsl	r2, r3, #16
 537 002c 4FF42053 		mov	r3, #10240
 538 0030 C4F20003 		movt	r3, 16384
 539 0034 9B8C     		ldrh	r3, [r3, #36]	@ movhi
 540 0036 9BB2     		uxth	r3, r3
 541 0038 1344     		add	r3, r2, r3
 542 003a 1A46     		mov	r2, r3
 543 003c 019B     		ldr	r3, [sp, #4]
 544 003e 1A60     		str	r2, [r3, #0]
 545              		.loc 1 270 0
 546 0040 04B0     		add	sp, sp, #16
 547 0042 7047     		bx	lr
 548              		.cfi_endproc
 549              	.LFE69:
 550              		.size	rtc_lld_get_alarm, .-rtc_lld_get_alarm
 551 0044 AFF30080 		.section	.text.rtc_lld_set_callback,"ax",%progbits
 551      AFF30080 
 551      AFF30080 
 552              		.align	2
 553              		.p2align 4,,15
 554              		.global	rtc_lld_set_callback
 555              		.thumb
 556              		.thumb_func
 557              		.type	rtc_lld_set_callback, %function
 558              	rtc_lld_set_callback:
 559              	.LFB70:
ARM GAS  C:\Users\z80\AppData\Local\Temp\cc9ubmT9.s 			page 11


 560              		.loc 1 282 0
 561              		.cfi_startproc
 562              		@ args = 0, pretend = 0, frame = 8
 563              		@ frame_needed = 0, uses_anonymous_args = 0
 564              		@ link register save eliminated.
 565 0000 82B0     		sub	sp, sp, #8
 566              	.LCFI7:
 567              		.cfi_def_cfa_offset 8
 568 0002 0190     		str	r0, [sp, #4]
 569 0004 0091     		str	r1, [sp, #0]
 570              		.loc 1 284 0
 571 0006 009B     		ldr	r3, [sp, #0]
 572 0008 002B     		cmp	r3, #0
 573 000a 22D0     		beq	.L26
 574              		.loc 1 287 0
 575 000c 019B     		ldr	r3, [sp, #4]
 576 000e 009A     		ldr	r2, [sp, #0]
 577 0010 1A60     		str	r2, [r3, #0]
 578              	.L24:
 579              		.loc 1 289 0 discriminator 1
 580 0012 4FF42053 		mov	r3, #10240
 581 0016 C4F20003 		movt	r3, 16384
 582 001a 9B88     		ldrh	r3, [r3, #4]	@ movhi
 583 001c 9BB2     		uxth	r3, r3
 584 001e 03F02003 		and	r3, r3, #32
 585 0022 002B     		cmp	r3, #0
 586 0024 F5D0     		beq	.L24
 587              		.loc 1 290 0
 588 0026 4FF42053 		mov	r3, #10240
 589 002a C4F20003 		movt	r3, 16384
 590 002e 4FF42052 		mov	r2, #10240
 591 0032 C4F20002 		movt	r2, 16384
 592 0036 9288     		ldrh	r2, [r2, #4]	@ movhi
 593 0038 92B2     		uxth	r2, r2
 594 003a 22F00702 		bic	r2, r2, #7
 595 003e 92B2     		uxth	r2, r2
 596 0040 9A80     		strh	r2, [r3, #4]	@ movhi
 597              		.loc 1 291 0
 598 0042 4FF42053 		mov	r3, #10240
 599 0046 C4F20003 		movt	r3, 16384
 600 004a 4FF00702 		mov	r2, #7
 601 004e 1A80     		strh	r2, [r3, #0]	@ movhi
 602 0050 14E0     		b	.L22
 603              	.L26:
 604              		.loc 1 294 0 discriminator 1
 605 0052 4FF42053 		mov	r3, #10240
 606 0056 C4F20003 		movt	r3, 16384
 607 005a 9B88     		ldrh	r3, [r3, #4]	@ movhi
 608 005c 9BB2     		uxth	r3, r3
 609 005e 03F02003 		and	r3, r3, #32
 610 0062 002B     		cmp	r3, #0
 611 0064 F5D0     		beq	.L26
 612              		.loc 1 295 0
 613 0066 4FF42053 		mov	r3, #10240
 614 006a C4F20003 		movt	r3, 16384
 615 006e 4FF00002 		mov	r2, #0
 616 0072 1A80     		strh	r2, [r3, #0]	@ movhi
ARM GAS  C:\Users\z80\AppData\Local\Temp\cc9ubmT9.s 			page 12


 617              		.loc 1 298 0
 618 0074 019B     		ldr	r3, [sp, #4]
 619 0076 4FF00002 		mov	r2, #0
 620 007a 1A60     		str	r2, [r3, #0]
 621              	.L22:
 622              		.loc 1 300 0
 623 007c 02B0     		add	sp, sp, #8
 624 007e 7047     		bx	lr
 625              		.cfi_endproc
 626              	.LFE70:
 627              		.size	rtc_lld_set_callback, .-rtc_lld_set_callback
 628              		.section	.text.rtc_lld_get_time_fat,"ax",%progbits
 629              		.align	2
 630              		.p2align 4,,15
 631              		.global	rtc_lld_get_time_fat
 632              		.thumb
 633              		.thumb_func
 634              		.type	rtc_lld_get_time_fat, %function
 635              	rtc_lld_get_time_fat:
 636              	.LFB71:
 637              		.loc 1 312 0
 638              		.cfi_startproc
 639              		@ args = 0, pretend = 0, frame = 48
 640              		@ frame_needed = 0, uses_anonymous_args = 0
 641 0000 00B5     		push	{lr}
 642              	.LCFI8:
 643              		.cfi_def_cfa_offset 4
 644 0002 8DB0     		sub	sp, sp, #52
 645              	.LCFI9:
 646              		.cfi_def_cfa_offset 56
 647 0004 0190     		str	r0, [sp, #4]
 648              		.loc 1 316 0
 649 0006 02AB     		add	r3, sp, #8
 650 0008 0198     		ldr	r0, [sp, #4]
 651 000a 1946     		mov	r1, r3
 652              		.cfi_offset 14, -4
 653 000c FFF7FEFF 		bl	rtcGetTimeTm
 654              		.loc 1 318 0
 655 0010 029B     		ldr	r3, [sp, #8]
 656 0012 4FEA6303 		asr	r3, r3, #1
 657 0016 0B93     		str	r3, [sp, #44]
 658              		.loc 1 319 0
 659 0018 039B     		ldr	r3, [sp, #12]
 660 001a 4FEA4313 		lsl	r3, r3, #5
 661 001e 0B9A     		ldr	r2, [sp, #44]
 662 0020 42EA0303 		orr	r3, r2, r3
 663 0024 0B93     		str	r3, [sp, #44]
 664              		.loc 1 320 0
 665 0026 049B     		ldr	r3, [sp, #16]
 666 0028 4FEAC323 		lsl	r3, r3, #11
 667 002c 0B9A     		ldr	r2, [sp, #44]
 668 002e 42EA0303 		orr	r3, r2, r3
 669 0032 0B93     		str	r3, [sp, #44]
 670              		.loc 1 321 0
 671 0034 059B     		ldr	r3, [sp, #20]
 672 0036 4FEA0343 		lsl	r3, r3, #16
 673 003a 0B9A     		ldr	r2, [sp, #44]
ARM GAS  C:\Users\z80\AppData\Local\Temp\cc9ubmT9.s 			page 13


 674 003c 42EA0303 		orr	r3, r2, r3
 675 0040 0B93     		str	r3, [sp, #44]
 676              		.loc 1 322 0
 677 0042 069B     		ldr	r3, [sp, #24]
 678 0044 03F10103 		add	r3, r3, #1
 679 0048 4FEA4353 		lsl	r3, r3, #21
 680 004c 0B9A     		ldr	r2, [sp, #44]
 681 004e 42EA0303 		orr	r3, r2, r3
 682 0052 0B93     		str	r3, [sp, #44]
 683              		.loc 1 323 0
 684 0054 079B     		ldr	r3, [sp, #28]
 685 0056 A3F15003 		sub	r3, r3, #80
 686 005a 4FEA4363 		lsl	r3, r3, #25
 687 005e 0B9A     		ldr	r2, [sp, #44]
 688 0060 42EA0303 		orr	r3, r2, r3
 689 0064 0B93     		str	r3, [sp, #44]
 690              		.loc 1 325 0
 691 0066 0B9B     		ldr	r3, [sp, #44]
 692              		.loc 1 326 0
 693 0068 1846     		mov	r0, r3
 694 006a 0DB0     		add	sp, sp, #52
 695 006c 00BD     		pop	{pc}
 696              		.cfi_endproc
 697              	.LFE71:
 698              		.size	rtc_lld_get_time_fat, .-rtc_lld_get_time_fat
 699 006e 00BF     		.text
 700              	.Letext0: