ARM GAS  C:\Users\z80\AppData\Local\Temp\cc9ubmT9.s 			page 1


   1              		.syntax unified
   2              		.cpu cortex-m3
   3              		.fpu softvfp
   4              		.eabi_attribute 20, 1
   5              		.eabi_attribute 21, 1
   6              		.eabi_attribute 23, 3
   7              		.eabi_attribute 24, 1
   8              		.eabi_attribute 25, 1
   9              		.eabi_attribute 26, 1
  10              		.eabi_attribute 30, 6
  11              		.eabi_attribute 18, 4
  12              		.thumb
  13              		.file	"rtc_lld.c"
  14              		.section	.debug_abbrev,"",%progbits
  15              	.Ldebug_abbrev0:
  16              		.section	.debug_info,"",%progbits
  17              	.Ldebug_info0:
  18              		.section	.debug_line,"",%progbits
  19              	.Ldebug_line0:
  20 0000 9B020000 		.text
  20      02005501 
  20      00000201 
  20      FB0E0D00 
  20      01010101 
  21              	.Ltext0:
  22              		.cfi_sections	.debug_frame
  23              		.global	RTCD1
  24              		.section	.bss.RTCD1,"aw",%nobits
  25              		.align	2
  26              		.type	RTCD1, %object
  27              		.size	RTCD1, 4
  28              	RTCD1:
  29 0000 00000000 		.space	4
  30              		.section	.text.Vector4C,"ax",%progbits
  31              		.align	2
  32              		.p2align 4,,15
  33              		.global	Vector4C
  34              		.thumb
  35              		.thumb_func
  36              		.type	Vector4C, %function
  37              	Vector4C:
  38              	.LFB63:
  39              		.file 1 "../chibios_2.6.3/os/hal/platforms/STM32/RTCv1/rtc_lld.c"
  40              		.loc 1 99 0
  41              		.cfi_startproc
  42              		@ args = 0, pretend = 0, frame = 8
  43              		@ frame_needed = 0, uses_anonymous_args = 0
  44 0000 00B5     		push	{lr}
  45              	.LCFI0:
  46              		.cfi_def_cfa_offset 4
  47 0002 83B0     		sub	sp, sp, #12
  48              	.LCFI1:
  49              		.cfi_def_cfa_offset 16
  50              	.L2:
  51              		.loc 1 106 0 discriminator 1
  52 0004 4FF42053 		mov	r3, #10240
  53 0008 C4F20003 		movt	r3, 16384
ARM GAS  C:\Users\z80\AppData\Local\Temp\cc9ubmT9.s 			page 2


  54 000c 9B88     		ldrh	r3, [r3, #4]	@ movhi
  55 000e 9BB2     		uxth	r3, r3
  56 0010 03F00803 		and	r3, r3, #8
  57 0014 002B     		cmp	r3, #0
  58 0016 F5D0     		beq	.L2
  59              		.cfi_offset 14, -4
  60              		.loc 1 109 0
  61 0018 4FF42053 		mov	r3, #10240
  62 001c C4F20003 		movt	r3, 16384
  63 0020 1B88     		ldrh	r3, [r3, #0]	@ movhi
  64 0022 9AB2     		uxth	r2, r3
  65 0024 4FF42053 		mov	r3, #10240
  66 0028 C4F20003 		movt	r3, 16384
  67 002c 9B88     		ldrh	r3, [r3, #4]	@ movhi
  68 002e 9BB2     		uxth	r3, r3
  69 0030 02EA0303 		and	r3, r2, r3
  70 0034 ADF80630 		strh	r3, [sp, #6]	@ movhi
  71              		.loc 1 110 0
  72 0038 4FF42053 		mov	r3, #10240
  73 003c C4F20003 		movt	r3, 16384
  74 0040 4FF42052 		mov	r2, #10240
  75 0044 C4F20002 		movt	r2, 16384
  76 0048 9288     		ldrh	r2, [r2, #4]	@ movhi
  77 004a 92B2     		uxth	r2, r2
  78 004c 22F00702 		bic	r2, r2, #7
  79 0050 92B2     		uxth	r2, r2
  80 0052 9A80     		strh	r2, [r3, #4]	@ movhi
  81              		.loc 1 112 0
  82 0054 BDF80630 		ldrh	r3, [sp, #6]
  83 0058 03F00103 		and	r3, r3, #1
  84 005c DBB2     		uxtb	r3, r3
  85 005e 002B     		cmp	r3, #0
  86 0060 0BD0     		beq	.L3
  87              		.loc 1 113 0
  88 0062 40F20003 		movw	r3, #:lower16:RTCD1
  89 0066 C0F20003 		movt	r3, #:upper16:RTCD1
  90 006a 1B68     		ldr	r3, [r3, #0]
  91 006c 40F20000 		movw	r0, #:lower16:RTCD1
  92 0070 C0F20000 		movt	r0, #:upper16:RTCD1
  93 0074 4FF00001 		mov	r1, #0
  94 0078 9847     		blx	r3
  95              	.L3:
  96              		.loc 1 115 0
  97 007a BDF80630 		ldrh	r3, [sp, #6]
  98 007e 03F00203 		and	r3, r3, #2
  99 0082 002B     		cmp	r3, #0
 100 0084 0BD0     		beq	.L4
 101              		.loc 1 116 0
 102 0086 40F20003 		movw	r3, #:lower16:RTCD1
 103 008a C0F20003 		movt	r3, #:upper16:RTCD1
 104 008e 1B68     		ldr	r3, [r3, #0]
 105 0090 40F20000 		movw	r0, #:lower16:RTCD1
 106 0094 C0F20000 		movt	r0, #:upper16:RTCD1
 107 0098 4FF00101 		mov	r1, #1
 108 009c 9847     		blx	r3
 109              	.L4:
 110              		.loc 1 118 0
ARM GAS  C:\Users\z80\AppData\Local\Temp\cc9ubmT9.s 			page 3


 111 009e BDF80630 		ldrh	r3, [sp, #6]
 112 00a2 03F00403 		and	r3, r3, #4
 113 00a6 002B     		cmp	r3, #0
 114 00a8 0BD0     		beq	.L5
 115              		.loc 1 119 0
 116 00aa 40F20003 		movw	r3, #:lower16:RTCD1
 117 00ae C0F20003 		movt	r3, #:upper16:RTCD1
 118 00b2 1B68     		ldr	r3, [r3, #0]
 119 00b4 40F20000 		movw	r0, #:lower16:RTCD1
 120 00b8 C0F20000 		movt	r0, #:upper16:RTCD1
 121 00bc 4FF00201 		mov	r1, #2
 122 00c0 9847     		blx	r3
 123              	.L5:
 124              		.loc 1 121 0
 125 00c2 FFF7FEFF 		bl	_port_irq_epilogue
 126              		.loc 1 122 0
 127 00c6 03B0     		add	sp, sp, #12
 128 00c8 00BD     		pop	{pc}
 129              		.cfi_endproc
 130              	.LFE63:
 131              		.size	Vector4C, .-Vector4C
 132 00ca 00BFAFF3 		.section	.text.rtc_lld_set_prescaler,"ax",%progbits
 132      0080
 133              		.align	2
 134              		.p2align 4,,15
 135              		.global	rtc_lld_set_prescaler
 136              		.thumb
 137              		.thumb_func
 138              		.type	rtc_lld_set_prescaler, %function
 139              	rtc_lld_set_prescaler:
 140              	.LFB64:
 141              		.loc 1 138 0
 142              		.cfi_startproc
 143              		@ args = 0, pretend = 0, frame = 0
 144              		@ frame_needed = 0, uses_anonymous_args = 0
 145              		@ link register save eliminated.
 146              	.L7:
 147              		.loc 1 139 0 discriminator 1
 148 0000 4FF42053 		mov	r3, #10240
 149 0004 C4F20003 		movt	r3, 16384
 150 0008 9B88     		ldrh	r3, [r3, #4]	@ movhi
 151 000a 9BB2     		uxth	r3, r3
 152 000c 03F02003 		and	r3, r3, #32
 153 0010 002B     		cmp	r3, #0
 154 0012 F5D0     		beq	.L7
 155              		.loc 1 139 0 is_stmt 0 discriminator 2
 156 0014 4FF42053 		mov	r3, #10240
 157 0018 C4F20003 		movt	r3, 16384
 158 001c 4FF42052 		mov	r2, #10240
 159 0020 C4F20002 		movt	r2, 16384
 160 0024 9288     		ldrh	r2, [r2, #4]	@ movhi
 161 0026 92B2     		uxth	r2, r2
 162 0028 42F01002 		orr	r2, r2, #16
 163 002c 92B2     		uxth	r2, r2
 164 002e 9A80     		strh	r2, [r3, #4]	@ movhi
 165              		.loc 1 140 0 is_stmt 1 discriminator 2
 166 0030 4FF42053 		mov	r3, #10240
ARM GAS  C:\Users\z80\AppData\Local\Temp\cc9ubmT9.s 			page 4


 167 0034 C4F20003 		movt	r3, 16384
 168 0038 4FF00002 		mov	r2, #0
 169 003c 1A81     		strh	r2, [r3, #8]	@ movhi
 170              		.loc 1 141 0 discriminator 2
 171 003e 4FF42053 		mov	r3, #10240
 172 0042 C4F20003 		movt	r3, 16384
 173 0046 4FF22342 		movw	r2, #62499
 174 004a 9A81     		strh	r2, [r3, #12]	@ movhi
 175              		.loc 1 142 0 discriminator 2
 176 004c 4FF42053 		mov	r3, #10240
 177 0050 C4F20003 		movt	r3, 16384
 178 0054 4FF42052 		mov	r2, #10240
 179 0058 C4F20002 		movt	r2, 16384
 180 005c 9288     		ldrh	r2, [r2, #4]	@ movhi
 181 005e 92B2     		uxth	r2, r2
 182 0060 22F01002 		bic	r2, r2, #16
 183 0064 92B2     		uxth	r2, r2
 184 0066 9A80     		strh	r2, [r3, #4]	@ movhi
 185              		.loc 1 143 0 discriminator 2
 186 0068 7047     		bx	lr
 187              		.cfi_endproc
 188              	.LFE64:
 189              		.size	rtc_lld_set_prescaler, .-rtc_lld_set_prescaler
 190 006a 00BFAFF3 		.section	.text.rtc_lld_init,"ax",%progbits
 190      0080
 191              		.align	2
 192              		.p2align 4,,15
 193              		.global	rtc_lld_init
 194              		.thumb
 195              		.thumb_func
 196              		.type	rtc_lld_init, %function
 197              	rtc_lld_init:
 198              	.LFB65:
 199              		.loc 1 150 0
 200              		.cfi_startproc
 201              		@ args = 0, pretend = 0, frame = 0
 202              		@ frame_needed = 0, uses_anonymous_args = 0
 203 0000 08B5     		push	{r3, lr}
 204              	.LCFI2:
 205              		.cfi_def_cfa_offset 8
 206              		.loc 1 154 0
 207 0002 4FF42053 		mov	r3, #10240
 208              		.cfi_offset 14, -4
 209              		.cfi_offset 3, -8
 210 0006 C4F20003 		movt	r3, 16384
 211 000a 4FF42052 		mov	r2, #10240
 212 000e C4F20002 		movt	r2, 16384
 213 0012 9288     		ldrh	r2, [r2, #4]	@ movhi
 214 0014 92B2     		uxth	r2, r2
 215 0016 22F00802 		bic	r2, r2, #8
 216 001a 92B2     		uxth	r2, r2
 217 001c 9A80     		strh	r2, [r3, #4]	@ movhi
 218              	.L9:
 219              		.loc 1 157 0 discriminator 1
 220 001e 4FF42053 		mov	r3, #10240
 221 0022 C4F20003 		movt	r3, 16384
 222 0026 9B88     		ldrh	r3, [r3, #4]	@ movhi
ARM GAS  C:\Users\z80\AppData\Local\Temp\cc9ubmT9.s 			page 5


 223 0028 9BB2     		uxth	r3, r3
 224 002a 03F00803 		and	r3, r3, #8
 225 002e 002B     		cmp	r3, #0
 226 0030 F5D0     		beq	.L9
 227              	.L10:
 228              		.loc 1 160 0 discriminator 1
 229 0032 4FF42053 		mov	r3, #10240
 230 0036 C4F20003 		movt	r3, 16384
 231 003a 9B88     		ldrh	r3, [r3, #4]	@ movhi
 232 003c 9BB2     		uxth	r3, r3
 233 003e 03F02003 		and	r3, r3, #32
 234 0042 002B     		cmp	r3, #0
 235 0044 F5D0     		beq	.L10
 236              		.loc 1 161 0
 237 0046 4FF42053 		mov	r3, #10240
 238 004a C4F20003 		movt	r3, 16384
 239 004e 4FF00002 		mov	r2, #0
 240 0052 1A80     		strh	r2, [r3, #0]	@ movhi
 241              		.loc 1 164 0
 242 0054 40F20003 		movw	r3, #:lower16:RTCD1
 243 0058 C0F20003 		movt	r3, #:upper16:RTCD1
 244 005c 4FF00002 		mov	r2, #0
 245 0060 1A60     		str	r2, [r3, #0]
 246              		.loc 1 167 0
 247 0062 4FF00300 		mov	r0, #3
 248 0066 4FF0F001 		mov	r1, #240
 249 006a FFF7FEFF 		bl	nvicEnableVector
 250              		.loc 1 168 0
 251 006e 08BD     		pop	{r3, pc}
 252              		.cfi_endproc
 253              	.LFE65:
 254              		.size	rtc_lld_init, .-rtc_lld_init
 255              		.section	.text.rtc_lld_set_time,"ax",%progbits
 256              		.align	2
 257              		.p2align 4,,15
 258              		.global	rtc_lld_set_time
 259              		.thumb
 260              		.thumb_func
 261              		.type	rtc_lld_set_time, %function
 262              	rtc_lld_set_time:
 263              	.LFB66:
 264              		.loc 1 180 0
 265              		.cfi_startproc
 266              		@ args = 0, pretend = 0, frame = 8
 267              		@ frame_needed = 0, uses_anonymous_args = 0
 268              		@ link register save eliminated.
 269 0000 82B0     		sub	sp, sp, #8
 270              	.LCFI3:
 271              		.cfi_def_cfa_offset 8
 272 0002 0190     		str	r0, [sp, #4]
 273 0004 0091     		str	r1, [sp, #0]
 274              	.L12:
 275              		.loc 1 184 0 discriminator 1
 276 0006 4FF42053 		mov	r3, #10240
 277 000a C4F20003 		movt	r3, 16384
 278 000e 9B88     		ldrh	r3, [r3, #4]	@ movhi
 279 0010 9BB2     		uxth	r3, r3
ARM GAS  C:\Users\z80\AppData\Local\Temp\cc9ubmT9.s 			page 6


 280 0012 03F02003 		and	r3, r3, #32
 281 0016 002B     		cmp	r3, #0
 282 0018 F5D0     		beq	.L12
 283              		.loc 1 184 0 is_stmt 0 discriminator 2
 284 001a 4FF42053 		mov	r3, #10240
 285 001e C4F20003 		movt	r3, 16384
 286 0022 4FF42052 		mov	r2, #10240
 287 0026 C4F20002 		movt	r2, 16384
 288 002a 9288     		ldrh	r2, [r2, #4]	@ movhi
 289 002c 92B2     		uxth	r2, r2
 290 002e 42F01002 		orr	r2, r2, #16
 291 0032 92B2     		uxth	r2, r2
 292 0034 9A80     		strh	r2, [r3, #4]	@ movhi
 293              		.loc 1 185 0 is_stmt 1 discriminator 2
 294 0036 4FF42053 		mov	r3, #10240
 295 003a C4F20003 		movt	r3, 16384
 296 003e 009A     		ldr	r2, [sp, #0]
 297 0040 1268     		ldr	r2, [r2, #0]
 298 0042 4FEA1242 		lsr	r2, r2, #16
 299 0046 92B2     		uxth	r2, r2
 300 0048 1A83     		strh	r2, [r3, #24]	@ movhi
 301              		.loc 1 186 0 discriminator 2
 302 004a 4FF42053 		mov	r3, #10240
 303 004e C4F20003 		movt	r3, 16384
 304 0052 009A     		ldr	r2, [sp, #0]
 305 0054 1268     		ldr	r2, [r2, #0]
 306 0056 92B2     		uxth	r2, r2
 307 0058 9A83     		strh	r2, [r3, #28]	@ movhi
 308              		.loc 1 187 0 discriminator 2
 309 005a 4FF42053 		mov	r3, #10240
 310 005e C4F20003 		movt	r3, 16384
 311 0062 4FF42052 		mov	r2, #10240
 312 0066 C4F20002 		movt	r2, 16384
 313 006a 9288     		ldrh	r2, [r2, #4]	@ movhi
 314 006c 92B2     		uxth	r2, r2
 315 006e 22F01002 		bic	r2, r2, #16
 316 0072 92B2     		uxth	r2, r2
 317 0074 9A80     		strh	r2, [r3, #4]	@ movhi
 318              		.loc 1 188 0 discriminator 2
 319 0076 02B0     		add	sp, sp, #8
 320 0078 7047     		bx	lr
 321              		.cfi_endproc
 322              	.LFE66:
 323              		.size	rtc_lld_set_time, .-rtc_lld_set_time
 324 007a 00BFAFF3 		.section	.text.rtc_lld_get_time,"ax",%progbits
 324      0080
 325              		.align	2
 326              		.p2align 4,,15
 327              		.global	rtc_lld_get_time
 328              		.thumb
 329              		.thumb_func
 330              		.type	rtc_lld_get_time, %function
 331              	rtc_lld_get_time:
 332              	.LFB67:
 333              		.loc 1 198 0
 334              		.cfi_startproc
 335              		@ args = 0, pretend = 0, frame = 16
ARM GAS  C:\Users\z80\AppData\Local\Temp\cc9ubmT9.s 			page 7


 336              		@ frame_needed = 0, uses_anonymous_args = 0
 337              		@ link register save eliminated.
 338 0000 84B0     		sub	sp, sp, #16
 339              	.LCFI4:
 340              		.cfi_def_cfa_offset 16
 341 0002 0190     		str	r0, [sp, #4]
 342 0004 0091     		str	r1, [sp, #0]
 343              	.L14:
 344              		.loc 1 204 0 discriminator 1
 345 0006 4FF42053 		mov	r3, #10240
 346 000a C4F20003 		movt	r3, 16384
 347 000e 9B88     		ldrh	r3, [r3, #4]	@ movhi
 348 0010 9BB2     		uxth	r3, r3
 349 0012 03F00803 		and	r3, r3, #8
 350 0016 002B     		cmp	r3, #0
 351 0018 F5D0     		beq	.L14
 352              	.L15:
 353              		.loc 1 208 0 discriminator 1
 354 001a 4FF42053 		mov	r3, #10240
 355 001e C4F20003 		movt	r3, 16384
 356 0022 1B8B     		ldrh	r3, [r3, #24]	@ movhi
 357 0024 9BB2     		uxth	r3, r3
 358 0026 4FEA0342 		lsl	r2, r3, #16
 359 002a 4FF42053 		mov	r3, #10240
 360 002e C4F20003 		movt	r3, 16384
 361 0032 9B8B     		ldrh	r3, [r3, #28]	@ movhi
 362 0034 9BB2     		uxth	r3, r3
 363 0036 1A44     		add	r2, r2, r3
 364 0038 009B     		ldr	r3, [sp, #0]
 365 003a 1A60     		str	r2, [r3, #0]
 366              		.loc 1 209 0 discriminator 1
 367 003c 4FF42053 		mov	r3, #10240
 368 0040 C4F20003 		movt	r3, 16384
 369 0044 1B8A     		ldrh	r3, [r3, #16]	@ movhi
 370 0046 9BB2     		uxth	r3, r3
 371 0048 4FEA0342 		lsl	r2, r3, #16
 372 004c 4FF42053 		mov	r3, #10240
 373 0050 C4F20003 		movt	r3, 16384
 374 0054 9B8A     		ldrh	r3, [r3, #20]	@ movhi
 375 0056 9BB2     		uxth	r3, r3
 376 0058 1344     		add	r3, r2, r3
 377 005a 0393     		str	r3, [sp, #12]
 378              		.loc 1 210 0 discriminator 1
 379 005c 009B     		ldr	r3, [sp, #0]
 380 005e 1A68     		ldr	r2, [r3, #0]
 381 0060 4FF42053 		mov	r3, #10240
 382 0064 C4F20003 		movt	r3, 16384
 383 0068 1B8B     		ldrh	r3, [r3, #24]	@ movhi
 384 006a 9BB2     		uxth	r3, r3
 385 006c 4FEA0341 		lsl	r1, r3, #16
 386 0070 4FF42053 		mov	r3, #10240
 387 0074 C4F20003 		movt	r3, 16384
 388 0078 9B8B     		ldrh	r3, [r3, #28]	@ movhi
 389 007a 9BB2     		uxth	r3, r3
 390 007c 0B44     		add	r3, r1, r3
 391 007e 9A42     		cmp	r2, r3
 392 0080 CBD1     		bne	.L15
ARM GAS  C:\Users\z80\AppData\Local\Temp\cc9ubmT9.s 			page 8


 393              		.loc 1 212 0
 394 0082 039A     		ldr	r2, [sp, #12]
 395 0084 4FF61843 		movw	r3, #64536
 396 0088 CFF6FF73 		movt	r3, 65535
 397 008c 03FB02F2 		mul	r2, r3, r2
 398 0090 4AF6B803 		movw	r3, #43192
 399 0094 C0F2B933 		movt	r3, 953
 400 0098 1344     		add	r3, r2, r3
 401 009a 4DF68362 		movw	r2, #56963
 402 009e C4F21B32 		movt	r2, 17179
 403 00a2 A2FB0313 		umull	r1, r3, r2, r3
 404 00a6 4FEA9333 		lsr	r3, r3, #14
 405 00aa 9BB2     		uxth	r3, r3
 406 00ac 1A46     		mov	r2, r3
 407 00ae 009B     		ldr	r3, [sp, #0]
 408 00b0 5A60     		str	r2, [r3, #4]
 409              		.loc 1 214 0
 410 00b2 04B0     		add	sp, sp, #16
 411 00b4 7047     		bx	lr
 412              		.cfi_endproc
 413              	.LFE67:
 414              		.size	rtc_lld_get_time, .-rtc_lld_get_time
 415 00b6 00BFAFF3 		.section	.text.rtc_lld_set_alarm,"ax",%progbits
 415      0080AFF3 
 415      0080
 416              		.align	2
 417              		.p2align 4,,15
 418              		.global	rtc_lld_set_alarm
 419              		.thumb
 420              		.thumb_func
 421              		.type	rtc_lld_set_alarm, %function
 422              	rtc_lld_set_alarm:
 423              	.LFB68:
 424              		.loc 1 229 0
 425              		.cfi_startproc
 426              		@ args = 0, pretend = 0, frame = 16
 427              		@ frame_needed = 0, uses_anonymous_args = 0
 428              		@ link register save eliminated.
 429 0000 84B0     		sub	sp, sp, #16
 430              	.LCFI5:
 431              		.cfi_def_cfa_offset 16
 432 0002 0390     		str	r0, [sp, #12]
 433 0004 0291     		str	r1, [sp, #8]
 434 0006 0192     		str	r2, [sp, #4]
 435              	.L17:
 436              		.loc 1 234 0 discriminator 1
 437 0008 4FF42053 		mov	r3, #10240
 438 000c C4F20003 		movt	r3, 16384
 439 0010 9B88     		ldrh	r3, [r3, #4]	@ movhi
 440 0012 9BB2     		uxth	r3, r3
 441 0014 03F02003 		and	r3, r3, #32
 442 0018 002B     		cmp	r3, #0
 443 001a F5D0     		beq	.L17
 444              		.loc 1 234 0 is_stmt 0 discriminator 2
 445 001c 4FF42053 		mov	r3, #10240
 446 0020 C4F20003 		movt	r3, 16384
 447 0024 4FF42052 		mov	r2, #10240
ARM GAS  C:\Users\z80\AppData\Local\Temp\cc9ubmT9.s 			page 9


 448 0028 C4F20002 		movt	r2, 16384
 449 002c 9288     		ldrh	r2, [r2, #4]	@ movhi
 450 002e 92B2     		uxth	r2, r2
 451 0030 42F01002 		orr	r2, r2, #16
 452 0034 92B2     		uxth	r2, r2
 453 0036 9A80     		strh	r2, [r3, #4]	@ movhi
 454              		.loc 1 235 0 is_stmt 1 discriminator 2
 455 0038 019B     		ldr	r3, [sp, #4]
 456 003a 002B     		cmp	r3, #0
 457 003c 12D0     		beq	.L18
 458              		.loc 1 236 0
 459 003e 4FF42053 		mov	r3, #10240
 460 0042 C4F20003 		movt	r3, 16384
 461 0046 019A     		ldr	r2, [sp, #4]
 462 0048 1268     		ldr	r2, [r2, #0]
 463 004a 4FEA1242 		lsr	r2, r2, #16
 464 004e 92B2     		uxth	r2, r2
 465 0050 1A84     		strh	r2, [r3, #32]	@ movhi
 466              		.loc 1 237 0
 467 0052 4FF42053 		mov	r3, #10240
 468 0056 C4F20003 		movt	r3, 16384
 469 005a 019A     		ldr	r2, [sp, #4]
 470 005c 1268     		ldr	r2, [r2, #0]
 471 005e 92B2     		uxth	r2, r2
 472 0060 9A84     		strh	r2, [r3, #36]	@ movhi
 473 0062 0DE0     		b	.L19
 474              	.L18:
 475              		.loc 1 240 0
 476 0064 4FF42053 		mov	r3, #10240
 477 0068 C4F20003 		movt	r3, 16384
 478 006c 4FF00002 		mov	r2, #0
 479 0070 1A84     		strh	r2, [r3, #32]	@ movhi
 480              		.loc 1 241 0
 481 0072 4FF42053 		mov	r3, #10240
 482 0076 C4F20003 		movt	r3, 16384
 483 007a 4FF00002 		mov	r2, #0
 484 007e 9A84     		strh	r2, [r3, #36]	@ movhi
 485              	.L19:
 486              		.loc 1 243 0
 487 0080 4FF42053 		mov	r3, #10240
 488 0084 C4F20003 		movt	r3, 16384
 489 0088 4FF42052 		mov	r2, #10240
 490 008c C4F20002 		movt	r2, 16384
 491 0090 9288     		ldrh	r2, [r2, #4]	@ movhi
 492 0092 92B2     		uxth	r2, r2
 493 0094 22F01002 		bic	r2, r2, #16
 494 0098 92B2     		uxth	r2, r2
 495 009a 9A80     		strh	r2, [r3, #4]	@ movhi
 496              		.loc 1 244 0
 497 009c 04B0     		add	sp, sp, #16
 498 009e 7047     		bx	lr
 499              		.cfi_endproc
 500              	.LFE68:
 501              		.size	rtc_lld_set_alarm, .-rtc_lld_set_alarm
 502              		.section	.text.rtc_lld_get_alarm,"ax",%progbits
 503              		.align	2
 504              		.p2align 4,,15
ARM GAS  C:\Users\z80\AppData\Local\Temp\cc9ubmT9.s 			page 10


 505              		.global	rtc_lld_get_alarm
 506              		.thumb
 507              		.thumb_func
 508              		.type	rtc_lld_get_alarm, %function
 509              	rtc_lld_get_alarm:
 510              	.LFB69:
 511              		.loc 1 261 0
 512              		.cfi_startproc
 513              		@ args = 0, pretend = 0, frame = 16
 514              		@ frame_needed = 0, uses_anonymous_args = 0
 515              		@ link register save eliminated.
 516 0000 84B0     		sub	sp, sp, #16
 517              	.LCFI6:
 518              		.cfi_def_cfa_offset 16
 519 0002 0390     		str	r0, [sp, #12]
 520 0004 0291     		str	r1, [sp, #8]
 521 0006 0192     		str	r2, [sp, #4]
 522              	.L21:
 523              		.loc 1 267 0 discriminator 1
 524 0008 4FF42053 		mov	r3, #10240
 525 000c C4F20003 		movt	r3, 16384
 526 0010 9B88     		ldrh	r3, [r3, #4]	@ movhi
 527 0012 9BB2     		uxth	r3, r3
 528 0014 03F00803 		and	r3, r3, #8
 529 0018 002B     		cmp	r3, #0
 530 001a F5D0     		beq	.L21
 531              		.loc 1 269 0
 532 001c 4FF42053 		mov	r3, #10240
 533 0020 C4F20003 		movt	r3, 16384
 534 0024 1B8C     		ldrh	r3, [r3, #32]	@ movhi
 535 0026 9BB2     		uxth	r3, r3
 536 0028 4FEA0342 		lsl	r2, r3, #16
 537 002c 4FF42053 		mov	r3, #10240
 538 0030 C4F20003 		movt	r3, 16384
 539 0034 9B8C     		ldrh	r3, [r3, #36]	@ movhi
 540 0036 9BB2     		uxth	r3, r3
 541 0038 1344     		add	r3, r2, r3
 542 003a 1A46     		mov	r2, r3
 543 003c 019B     		ldr	r3, [sp, #4]
 544 003e 1A60     		str	r2, [r3, #0]
 545              		.loc 1 270 0
 546 0040 04B0     		add	sp, sp, #16
 547 0042 7047     		bx	lr
 548              		.cfi_endproc
 549              	.LFE69:
 550              		.size	rtc_lld_get_alarm, .-rtc_lld_get_alarm
 551 0044 AFF30080 		.section	.text.rtc_lld_set_callback,"ax",%progbits
 551      AFF30080 
 551      AFF30080 
 552              		.align	2
 553              		.p2align 4,,15
 554              		.global	rtc_lld_set_callback
 555              		.thumb
 556              		.thumb_func
 557              		.type	rtc_lld_set_callback, %function
 558              	rtc_lld_set_callback:
 559              	.LFB70:
ARM GAS  C:\Users\z80\AppData\Local\Temp\cc9ubmT9.s 			page 11


 560              		.loc 1 282 0
 561              		.cfi_startproc
 562              		@ args = 0, pretend = 0, frame = 8
 563              		@ frame_needed = 0, uses_anonymous_args = 0
 564              		@ link register save eliminated.
 565 0000 82B0     		sub	sp, sp, #8
 566              	.LCFI7:
 567              		.cfi_def_cfa_offset 8
 568 0002 0190     		str	r0, [sp, #4]
 569 0004 0091     		str	r1, [sp, #0]
 570              		.loc 1 284 0
 571 0006 009B     		ldr	r3, [sp, #0]
 572 0008 002B     		cmp	r3, #0
 573 000a 22D0     		beq	.L26
 574              		.loc 1 287 0
 575 000c 019B     		ldr	r3, [sp, #4]
 576 000e 009A     		ldr	r2, [sp, #0]
 577 0010 1A60     		str	r2, [r3, #0]
 578              	.L24:
 579              		.loc 1 289 0 discriminator 1
 580 0012 4FF42053 		mov	r3, #10240
 581 0016 C4F20003 		movt	r3, 16384
 582 001a 9B88     		ldrh	r3, [r3, #4]	@ movhi
 583 001c 9BB2     		uxth	r3, r3
 584 001e 03F02003 		and	r3, r3, #32
 585 0022 002B     		cmp	r3, #0
 586 0024 F5D0     		beq	.L24
 587              		.loc 1 290 0
 588 0026 4FF42053 		mov	r3, #10240
 589 002a C4F20003 		movt	r3, 16384
 590 002e 4FF42052 		mov	r2, #10240
 591 0032 C4F20002 		movt	r2, 16384
 592 0036 9288     		ldrh	r2, [r2, #4]	@ movhi
 593 0038 92B2     		uxth	r2, r2
 594 003a 22F00702 		bic	r2, r2, #7
 595 003e 92B2     		uxth	r2, r2
 596 0040 9A80     		strh	r2, [r3, #4]	@ movhi
 597              		.loc 1 291 0
 598 0042 4FF42053 		mov	r3, #10240
 599 0046 C4F20003 		movt	r3, 16384
 600 004a 4FF00702 		mov	r2, #7
 601 004e 1A80     		strh	r2, [r3, #0]	@ movhi
 602 0050 14E0     		b	.L22
 603              	.L26:
 604              		.loc 1 294 0 discriminator 1
 605 0052 4FF42053 		mov	r3, #10240
 606 0056 C4F20003 		movt	r3, 16384
 607 005a 9B88     		ldrh	r3, [r3, #4]	@ movhi
 608 005c 9BB2     		uxth	r3, r3
 609 005e 03F02003 		and	r3, r3, #32
 610 0062 002B     		cmp	r3, #0
 611 0064 F5D0     		beq	.L26
 612              		.loc 1 295 0
 613 0066 4FF42053 		mov	r3, #10240
 614 006a C4F20003 		movt	r3, 16384
 615 006e 4FF00002 		mov	r2, #0
 616 0072 1A80     		strh	r2, [r3, #0]	@ movhi
ARM GAS  C:\Users\z80\AppData\Local\Temp\cc9ubmT9.s 			page 12


 617              		.loc 1 298 0
 618 0074 019B     		ldr	r3, [sp, #4]
 619 0076 4FF00002 		mov	r2, #0
 620 007a 1A60     		str	r2, [r3, #0]
 621              	.L22:
 622              		.loc 1 300 0
 623 007c 02B0     		add	sp, sp, #8
 624 007e 7047     		bx	lr
 625              		.cfi_endproc
 626              	.LFE70:
 627              		.size	rtc_lld_set_callback, .-rtc_lld_set_callback
 628              		.section	.text.rtc_lld_get_time_fat,"ax",%progbits
 629              		.align	2
 630              		.p2align 4,,15
 631              		.global	rtc_lld_get_time_fat
 632              		.thumb
 633              		.thumb_func
 634              		.type	rtc_lld_get_time_fat, %function
 635              	rtc_lld_get_time_fat:
 636              	.LFB71:
 637              		.loc 1 312 0
 638              		.cfi_startproc
 639              		@ args = 0, pretend = 0, frame = 48
 640              		@ frame_needed = 0, uses_anonymous_args = 0
 641 0000 00B5     		push	{lr}
 642              	.LCFI8:
 643              		.cfi_def_cfa_offset 4
 644 0002 8DB0     		sub	sp, sp, #52
 645              	.LCFI9:
 646              		.cfi_def_cfa_offset 56
 647 0004 0190     		str	r0, [sp, #4]
 648              		.loc 1 316 0
 649 0006 02AB     		add	r3, sp, #8
 650 0008 0198     		ldr	r0, [sp, #4]
 651 000a 1946     		mov	r1, r3
 652              		.cfi_offset 14, -4
 653 000c FFF7FEFF 		bl	rtcGetTimeTm
 654              		.loc 1 318 0
 655 0010 029B     		ldr	r3, [sp, #8]
 656 0012 4FEA6303 		asr	r3, r3, #1
 657 0016 0B93     		str	r3, [sp, #44]
 658              		.loc 1 319 0
 659 0018 039B     		ldr	r3, [sp, #12]
 660 001a 4FEA4313 		lsl	r3, r3, #5
 661 001e 0B9A     		ldr	r2, [sp, #44]
 662 0020 42EA0303 		orr	r3, r2, r3
 663 0024 0B93     		str	r3, [sp, #44]
 664              		.loc 1 320 0
 665 0026 049B     		ldr	r3, [sp, #16]
 666 0028 4FEAC323 		lsl	r3, r3, #11
 667 002c 0B9A     		ldr	r2, [sp, #44]
 668 002e 42EA0303 		orr	r3, r2, r3
 669 0032 0B93     		str	r3, [sp, #44]
 670              		.loc 1 321 0
 671 0034 059B     		ldr	r3, [sp, #20]
 672 0036 4FEA0343 		lsl	r3, r3, #16
 673 003a 0B9A     		ldr	r2, [sp, #44]
ARM GAS  C:\Users\z80\AppData\Local\Temp\cc9ubmT9.s 			page 13


 674 003c 42EA0303 		orr	r3, r2, r3
 675 0040 0B93     		str	r3, [sp, #44]
 676              		.loc 1 322 0
 677 0042 069B     		ldr	r3, [sp, #24]
 678 0044 03F10103 		add	r3, r3, #1
 679 0048 4FEA4353 		lsl	r3, r3, #21
 680 004c 0B9A     		ldr	r2, [sp, #44]
 681 004e 42EA0303 		orr	r3, r2, r3
 682 0052 0B93     		str	r3, [sp, #44]
 683              		.loc 1 323 0
 684 0054 079B     		ldr	r3, [sp, #28]
 685 0056 A3F15003 		sub	r3, r3, #80
 686 005a 4FEA4363 		lsl	r3, r3, #25
 687 005e 0B9A     		ldr	r2, [sp, #44]
 688 0060 42EA0303 		orr	r3, r2, r3
 689 0064 0B93     		str	r3, [sp, #44]
 690              		.loc 1 325 0
 691 0066 0B9B     		ldr	r3, [sp, #44]
 692              		.loc 1 326 0
 693 0068 1846     		mov	r0, r3
 694 006a 0DB0     		add	sp, sp, #52
 695 006c 00BD     		pop	{pc}
 696              		.cfi_endproc
 697              	.LFE71:
 698              		.size	rtc_lld_get_time_fat, .-rtc_lld_get_time_fat
 699 006e 00BF     		.text
 700              	.Letext0:
 701              		.section	.debug_loc,"",%progbits
 702              	.Ldebug_loc0:
 703              	.LLST0:
 704 0000 00000000 		.4byte	.LFB63
 705 0004 02000000 		.4byte	.LCFI0
 706 0008 0200     		.2byte	0x2
 707 000a 7D       		.byte	0x7d
 708 000b 00       		.sleb128 0
 709 000c 02000000 		.4byte	.LCFI0
 710 0010 04000000 		.4byte	.LCFI1
 711 0014 0200     		.2byte	0x2
 712 0016 7D       		.byte	0x7d
 713 0017 04       		.sleb128 4
 714 0018 04000000 		.4byte	.LCFI1
 715 001c CA000000 		.4byte	.LFE63
 716 0020 0200     		.2byte	0x2
 717 0022 7D       		.byte	0x7d
 718 0023 10       		.sleb128 16
 719 0024 00000000 		.4byte	0x0
 720 0028 00000000 		.4byte	0x0
 721              	.LLST1:
 722 002c 00000000 		.4byte	.LFB65
 723 0030 02000000 		.4byte	.LCFI2
 724 0034 0200     		.2byte	0x2
 725 0036 7D       		.byte	0x7d
 726 0037 00       		.sleb128 0
 727 0038 02000000 		.4byte	.LCFI2
 728 003c 70000000 		.4byte	.LFE65
 729 0040 0200     		.2byte	0x2
 730 0042 7D       		.byte	0x7d
ARM GAS  C:\Users\z80\AppData\Local\Temp\cc9ubmT9.s 			page 14


 731 0043 08       		.sleb128 8
 732 0044 00000000 		.4byte	0x0
 733 0048 00000000 		.4byte	0x0
 734              	.LLST2:
 735 004c 00000000 		.4byte	.LFB66
 736 0050 02000000 		.4byte	.LCFI3
 737 0054 0200     		.2byte	0x2
 738 0056 7D       		.byte	0x7d
 739 0057 00       		.sleb128 0
 740 0058 02000000 		.4byte	.LCFI3
 741 005c 7A000000 		.4byte	.LFE66
 742 0060 0200     		.2byte	0x2
 743 0062 7D       		.byte	0x7d
 744 0063 08       		.sleb128 8
 745 0064 00000000 		.4byte	0x0
 746 0068 00000000 		.4byte	0x0
 747              	.LLST3:
 748 006c 00000000 		.4byte	.LFB67
 749 0070 02000000 		.4byte	.LCFI4
 750 0074 0200     		.2byte	0x2
 751 0076 7D       		.byte	0x7d
 752 0077 00       		.sleb128 0
 753 0078 02000000 		.4byte	.LCFI4
 754 007c B6000000 		.4byte	.LFE67
 755 0080 0200     		.2byte	0x2
 756 0082 7D       		.byte	0x7d
 757 0083 10       		.sleb128 16
 758 0084 00000000 		.4byte	0x0
 759 0088 00000000 		.4byte	0x0
 760              	.LLST4:
 761 008c 00000000 		.4byte	.LFB68
 762 0090 02000000 		.4byte	.LCFI5
 763 0094 0200     		.2byte	0x2
 764 0096 7D       		.byte	0x7d
 765 0097 00       		.sleb128 0
 766 0098 02000000 		.4byte	.LCFI5
 767 009c A0000000 		.4byte	.LFE68
 768 00a0 0200     		.2byte	0x2
 769 00a2 7D       		.byte	0x7d
 770 00a3 10       		.sleb128 16
 771 00a4 00000000 		.4byte	0x0
 772 00a8 00000000 		.4byte	0x0
 773              	.LLST5:
 774 00ac 00000000 		.4byte	.LFB69
 775 00b0 02000000 		.4byte	.LCFI6
 776 00b4 0200     		.2byte	0x2
 777 00b6 7D       		.byte	0x7d
 778 00b7 00       		.sleb128 0
 779 00b8 02000000 		.4byte	.LCFI6
 780 00bc 44000000 		.4byte	.LFE69
 781 00c0 0200     		.2byte	0x2
 782 00c2 7D       		.byte	0x7d
 783 00c3 10       		.sleb128 16
 784 00c4 00000000 		.4byte	0x0
 785 00c8 00000000 		.4byte	0x0
 786              	.LLST6:
 787 00cc 00000000 		.4byte	.LFB70
ARM GAS  C:\Users\z80\AppData\Local\Temp\cc9ubmT9.s 			page 15


 788 00d0 02000000 		.4byte	.LCFI7
 789 00d4 0200     		.2byte	0x2
 790 00d6 7D       		.byte	0x7d
 791 00d7 00       		.sleb128 0
 792 00d8 02000000 		.4byte	.LCFI7
 793 00dc 80000000 		.4byte	.LFE70
 794 00e0 0200     		.2byte	0x2
 795 00e2 7D       		.byte	0x7d
 796 00e3 08       		.sleb128 8
 797 00e4 00000000 		.4byte	0x0
 798 00e8 00000000 		.4byte	0x0
 799              	.LLST7:
 800 00ec 00000000 		.4byte	.LFB71
 801 00f0 02000000 		.4byte	.LCFI8
 802 00f4 0200     		.2byte	0x2
 803 00f6 7D       		.byte	0x7d
 804 00f7 00       		.sleb128 0
 805 00f8 02000000 		.4byte	.LCFI8
 806 00fc 04000000 		.4byte	.LCFI9
 807 0100 0200     		.2byte	0x2
 808 0102 7D       		.byte	0x7d
 809 0103 04       		.sleb128 4
 810 0104 04000000 		.4byte	.LCFI9
 811 0108 6E000000 		.4byte	.LFE71
 812 010c 0200     		.2byte	0x2
 813 010e 7D       		.byte	0x7d
 814 010f 38       		.sleb128 56
 815 0110 00000000 		.4byte	0x0
 816 0114 00000000 		.4byte	0x0
 817              		.file 2 "c:/programs/yagarto/lib/gcc/../../arm-none-eabi/sys-include/stdint.h"
 818              		.file 3 "../chibios_2.6.3/os/hal/platforms/STM32F1xx/stm32f10x.h"
 819              		.file 4 "../chibios_2.6.3/os/hal/include/rtc.h"
 820              		.file 5 "../chibios_2.6.3/os/hal/platforms/STM32/RTCv1/rtc_lld.h"
 821              		.file 6 "c:/programs/yagarto/lib/gcc/../../arm-none-eabi/sys-include/time.h"
 822              		.file 7 "../chibios_2.6.3/os/ports/common/ARMCMx/CMSIS/include/core_cm3.h"
 823              		.section	.debug_info
 824 0000 D0060000 		.4byte	0x6d0
 825 0004 0200     		.2byte	0x2
 826 0006 00000000 		.4byte	.Ldebug_abbrev0
 827 000a 04       		.byte	0x4
 828 000b 01       		.uleb128 0x1
 829 000c B7050000 		.4byte	.LASF124
 830 0010 01       		.byte	0x1
 831 0011 1D010000 		.4byte	.LASF125
 832 0015 A0020000 		.4byte	.LASF126
 833 0019 00000000 		.4byte	0x0
 834 001d 00000000 		.4byte	0x0
 835 0021 00000000 		.4byte	.Ldebug_ranges0+0x0
 836 0025 00000000 		.4byte	.Ldebug_line0
 837 0029 02       		.uleb128 0x2
 838 002a 04       		.byte	0x4
 839 002b 05       		.byte	0x5
 840 002c 696E7400 		.ascii	"int\000"
 841 0030 03       		.uleb128 0x3
 842 0031 04       		.byte	0x4
 843 0032 07       		.byte	0x7
 844 0033 CA010000 		.4byte	.LASF0
ARM GAS  C:\Users\z80\AppData\Local\Temp\cc9ubmT9.s 			page 16


 845 0037 03       		.uleb128 0x3
 846 0038 01       		.byte	0x1
 847 0039 06       		.byte	0x6
 848 003a C4000000 		.4byte	.LASF1
 849 003e 04       		.uleb128 0x4
 850 003f A9050000 		.4byte	.LASF4
 851 0043 02       		.byte	0x2
 852 0044 2A       		.byte	0x2a
 853 0045 49000000 		.4byte	0x49
 854 0049 03       		.uleb128 0x3
 855 004a 01       		.byte	0x1
 856 004b 08       		.byte	0x8
 857 004c 15040000 		.4byte	.LASF2
 858 0050 03       		.uleb128 0x3
 859 0051 02       		.byte	0x2
 860 0052 05       		.byte	0x5
 861 0053 5F040000 		.4byte	.LASF3
 862 0057 04       		.uleb128 0x4
 863 0058 0B010000 		.4byte	.LASF5
 864 005c 02       		.byte	0x2
 865 005d 36       		.byte	0x36
 866 005e 62000000 		.4byte	0x62
 867 0062 03       		.uleb128 0x3
 868 0063 02       		.byte	0x2
 869 0064 07       		.byte	0x7
 870 0065 3E020000 		.4byte	.LASF6
 871 0069 04       		.uleb128 0x4
 872 006a 0D040000 		.4byte	.LASF7
 873 006e 02       		.byte	0x2
 874 006f 4F       		.byte	0x4f
 875 0070 74000000 		.4byte	0x74
 876 0074 03       		.uleb128 0x3
 877 0075 04       		.byte	0x4
 878 0076 05       		.byte	0x5
 879 0077 E2000000 		.4byte	.LASF8
 880 007b 04       		.uleb128 0x4
 881 007c 14010000 		.4byte	.LASF9
 882 0080 02       		.byte	0x2
 883 0081 50       		.byte	0x50
 884 0082 86000000 		.4byte	0x86
 885 0086 03       		.uleb128 0x3
 886 0087 04       		.byte	0x4
 887 0088 07       		.byte	0x7
 888 0089 ED010000 		.4byte	.LASF10
 889 008d 03       		.uleb128 0x3
 890 008e 08       		.byte	0x8
 891 008f 05       		.byte	0x5
 892 0090 B6000000 		.4byte	.LASF11
 893 0094 03       		.uleb128 0x3
 894 0095 08       		.byte	0x8
 895 0096 07       		.byte	0x7
 896 0097 53000000 		.4byte	.LASF12
 897 009b 03       		.uleb128 0x3
 898 009c 01       		.byte	0x1
 899 009d 02       		.byte	0x2
 900 009e 07040000 		.4byte	.LASF13
 901 00a2 05       		.uleb128 0x5
ARM GAS  C:\Users\z80\AppData\Local\Temp\cc9ubmT9.s 			page 17


 902 00a3 04       		.byte	0x4
 903 00a4 07       		.byte	0x7
 904 00a5 03       		.uleb128 0x3
 905 00a6 01       		.byte	0x1
 906 00a7 08       		.byte	0x8
 907 00a8 E5040000 		.4byte	.LASF14
 908 00ac 06       		.uleb128 0x6
 909 00ad E2020000 		.4byte	.LASF127
 910 00b1 01       		.byte	0x1
 911 00b2 03       		.byte	0x3
 912 00b3 A9       		.byte	0xa9
 913 00b4 EB010000 		.4byte	0x1eb
 914 00b8 07       		.uleb128 0x7
 915 00b9 04050000 		.4byte	.LASF15
 916 00bd 72       		.sleb128 -14
 917 00be 07       		.uleb128 0x7
 918 00bf D7010000 		.4byte	.LASF16
 919 00c3 74       		.sleb128 -12
 920 00c4 07       		.uleb128 0x7
 921 00c5 AD010000 		.4byte	.LASF17
 922 00c9 75       		.sleb128 -11
 923 00ca 07       		.uleb128 0x7
 924 00cb D5040000 		.4byte	.LASF18
 925 00cf 76       		.sleb128 -10
 926 00d0 07       		.uleb128 0x7
 927 00d1 13030000 		.4byte	.LASF19
 928 00d5 7B       		.sleb128 -5
 929 00d6 07       		.uleb128 0x7
 930 00d7 D6050000 		.4byte	.LASF20
 931 00db 7C       		.sleb128 -4
 932 00dc 07       		.uleb128 0x7
 933 00dd F8040000 		.4byte	.LASF21
 934 00e1 7E       		.sleb128 -2
 935 00e2 07       		.uleb128 0x7
 936 00e3 C8020000 		.4byte	.LASF22
 937 00e7 7F       		.sleb128 -1
 938 00e8 07       		.uleb128 0x7
 939 00e9 9B000000 		.4byte	.LASF23
 940 00ed 00       		.sleb128 0
 941 00ee 07       		.uleb128 0x7
 942 00ef 08000000 		.4byte	.LASF24
 943 00f3 01       		.sleb128 1
 944 00f4 07       		.uleb128 0x7
 945 00f5 22050000 		.4byte	.LASF25
 946 00f9 02       		.sleb128 2
 947 00fa 07       		.uleb128 0x7
 948 00fb F5050000 		.4byte	.LASF26
 949 00ff 03       		.sleb128 3
 950 0100 07       		.uleb128 0x7
 951 0101 B6040000 		.4byte	.LASF27
 952 0105 04       		.sleb128 4
 953 0106 07       		.uleb128 0x7
 954 0107 14060000 		.4byte	.LASF28
 955 010b 05       		.sleb128 5
 956 010c 07       		.uleb128 0x7
 957 010d 60050000 		.4byte	.LASF29
 958 0111 06       		.sleb128 6
ARM GAS  C:\Users\z80\AppData\Local\Temp\cc9ubmT9.s 			page 18


 959 0112 07       		.uleb128 0x7
 960 0113 2C060000 		.4byte	.LASF30
 961 0117 07       		.sleb128 7
 962 0118 07       		.uleb128 0x7
 963 0119 90000000 		.4byte	.LASF31
 964 011d 08       		.sleb128 8
 965 011e 07       		.uleb128 0x7
 966 011f 3C030000 		.4byte	.LASF32
 967 0123 09       		.sleb128 9
 968 0124 07       		.uleb128 0x7
 969 0125 4E040000 		.4byte	.LASF33
 970 0129 0A       		.sleb128 10
 971 012a 07       		.uleb128 0x7
 972 012b 89030000 		.4byte	.LASF34
 973 012f 0B       		.sleb128 11
 974 0130 07       		.uleb128 0x7
 975 0131 E7020000 		.4byte	.LASF35
 976 0135 0C       		.sleb128 12
 977 0136 07       		.uleb128 0x7
 978 0137 69040000 		.4byte	.LASF36
 979 013b 0D       		.sleb128 13
 980 013c 07       		.uleb128 0x7
 981 013d 9A010000 		.4byte	.LASF37
 982 0141 0E       		.sleb128 14
 983 0142 07       		.uleb128 0x7
 984 0143 2B020000 		.4byte	.LASF38
 985 0147 0F       		.sleb128 15
 986 0148 07       		.uleb128 0x7
 987 0149 7A020000 		.4byte	.LASF39
 988 014d 10       		.sleb128 16
 989 014e 07       		.uleb128 0x7
 990 014f C3050000 		.4byte	.LASF40
 991 0153 11       		.sleb128 17
 992 0154 07       		.uleb128 0x7
 993 0155 5F010000 		.4byte	.LASF41
 994 0159 12       		.sleb128 18
 995 015a 07       		.uleb128 0x7
 996 015b 23040000 		.4byte	.LASF42
 997 015f 13       		.sleb128 19
 998 0160 07       		.uleb128 0x7
 999 0161 7C040000 		.4byte	.LASF43
 1000 0165 14       		.sleb128 20
 1001 0166 07       		.uleb128 0x7
 1002 0167 45000000 		.4byte	.LASF44
 1003 016b 15       		.sleb128 21
 1004 016c 07       		.uleb128 0x7
 1005 016d 06060000 		.4byte	.LASF45
 1006 0171 16       		.sleb128 22
 1007 0172 07       		.uleb128 0x7
 1008 0173 FE000000 		.4byte	.LASF46
 1009 0177 17       		.sleb128 23
 1010 0178 07       		.uleb128 0x7
 1011 0179 EA040000 		.4byte	.LASF47
 1012 017d 18       		.sleb128 24
 1013 017e 07       		.uleb128 0x7
 1014 017f 2E050000 		.4byte	.LASF48
 1015 0183 19       		.sleb128 25
ARM GAS  C:\Users\z80\AppData\Local\Temp\cc9ubmT9.s 			page 19


 1016 0184 07       		.uleb128 0x7
 1017 0185 19000000 		.4byte	.LASF49
 1018 0189 1A       		.sleb128 26
 1019 018a 07       		.uleb128 0x7
 1020 018b D5020000 		.4byte	.LASF50
 1021 018f 1B       		.sleb128 27
 1022 0190 07       		.uleb128 0x7
 1023 0191 56050000 		.4byte	.LASF51
 1024 0195 1C       		.sleb128 28
 1025 0196 07       		.uleb128 0x7
 1026 0197 22060000 		.4byte	.LASF52
 1027 019b 1D       		.sleb128 29
 1028 019c 07       		.uleb128 0x7
 1029 019d 86000000 		.4byte	.LASF53
 1030 01a1 1E       		.sleb128 30
 1031 01a2 07       		.uleb128 0x7
 1032 01a3 33000000 		.4byte	.LASF54
 1033 01a7 1F       		.sleb128 31
 1034 01a8 07       		.uleb128 0x7
 1035 01a9 E8050000 		.4byte	.LASF55
 1036 01ad 20       		.sleb128 32
 1037 01ae 07       		.uleb128 0x7
 1038 01af EB000000 		.4byte	.LASF56
 1039 01b3 21       		.sleb128 33
 1040 01b4 07       		.uleb128 0x7
 1041 01b5 79000000 		.4byte	.LASF57
 1042 01b9 22       		.sleb128 34
 1043 01ba 07       		.uleb128 0x7
 1044 01bb 8D020000 		.4byte	.LASF58
 1045 01bf 23       		.sleb128 35
 1046 01c0 07       		.uleb128 0x7
 1047 01c1 47030000 		.4byte	.LASF59
 1048 01c5 24       		.sleb128 36
 1049 01c6 07       		.uleb128 0x7
 1050 01c7 6B050000 		.4byte	.LASF60
 1051 01cb 25       		.sleb128 37
 1052 01cc 07       		.uleb128 0x7
 1053 01cd C9040000 		.4byte	.LASF61
 1054 01d1 26       		.sleb128 38
 1055 01d2 07       		.uleb128 0x7
 1056 01d3 43050000 		.4byte	.LASF62
 1057 01d7 27       		.sleb128 39
 1058 01d8 07       		.uleb128 0x7
 1059 01d9 6B020000 		.4byte	.LASF63
 1060 01dd 28       		.sleb128 40
 1061 01de 07       		.uleb128 0x7
 1062 01df 6A000000 		.4byte	.LASF64
 1063 01e3 29       		.sleb128 41
 1064 01e4 07       		.uleb128 0x7
 1065 01e5 61030000 		.4byte	.LASF65
 1066 01e9 2A       		.sleb128 42
 1067 01ea 00       		.byte	0x0
 1068 01eb 08       		.uleb128 0x8
 1069 01ec 57000000 		.4byte	0x57
 1070 01f0 08       		.uleb128 0x8
 1071 01f1 69000000 		.4byte	0x69
 1072 01f5 09       		.uleb128 0x9
ARM GAS  C:\Users\z80\AppData\Local\Temp\cc9ubmT9.s 			page 20


 1073 01f6 28       		.byte	0x28
 1074 01f7 03       		.byte	0x3
 1075 01f8 5F04     		.2byte	0x45f
 1076 01fa 2B030000 		.4byte	0x32b
 1077 01fe 0A       		.uleb128 0xa
 1078 01ff 43524800 		.ascii	"CRH\000"
 1079 0203 03       		.byte	0x3
 1080 0204 6104     		.2byte	0x461
 1081 0206 EB010000 		.4byte	0x1eb
 1082 020a 02       		.byte	0x2
 1083 020b 23       		.byte	0x23
 1084 020c 00       		.uleb128 0x0
 1085 020d 0B       		.uleb128 0xb
 1086 020e A3030000 		.4byte	.LASF66
 1087 0212 03       		.byte	0x3
 1088 0213 6204     		.2byte	0x462
 1089 0215 57000000 		.4byte	0x57
 1090 0219 02       		.byte	0x2
 1091 021a 23       		.byte	0x23
 1092 021b 02       		.uleb128 0x2
 1093 021c 0A       		.uleb128 0xa
 1094 021d 43524C00 		.ascii	"CRL\000"
 1095 0221 03       		.byte	0x3
 1096 0222 6304     		.2byte	0x463
 1097 0224 EB010000 		.4byte	0x1eb
 1098 0228 02       		.byte	0x2
 1099 0229 23       		.byte	0x23
 1100 022a 04       		.uleb128 0x4
 1101 022b 0B       		.uleb128 0xb
 1102 022c AD030000 		.4byte	.LASF67
 1103 0230 03       		.byte	0x3
 1104 0231 6404     		.2byte	0x464
 1105 0233 57000000 		.4byte	0x57
 1106 0237 02       		.byte	0x2
 1107 0238 23       		.byte	0x23
 1108 0239 06       		.uleb128 0x6
 1109 023a 0B       		.uleb128 0xb
 1110 023b B1000000 		.4byte	.LASF68
 1111 023f 03       		.byte	0x3
 1112 0240 6504     		.2byte	0x465
 1113 0242 EB010000 		.4byte	0x1eb
 1114 0246 02       		.byte	0x2
 1115 0247 23       		.byte	0x23
 1116 0248 08       		.uleb128 0x8
 1117 0249 0B       		.uleb128 0xb
 1118 024a B7030000 		.4byte	.LASF69
 1119 024e 03       		.byte	0x3
 1120 024f 6604     		.2byte	0x466
 1121 0251 57000000 		.4byte	0x57
 1122 0255 02       		.byte	0x2
 1123 0256 23       		.byte	0x23
 1124 0257 0A       		.uleb128 0xa
 1125 0258 0B       		.uleb128 0xb
 1126 0259 1D060000 		.4byte	.LASF70
 1127 025d 03       		.byte	0x3
 1128 025e 6704     		.2byte	0x467
 1129 0260 EB010000 		.4byte	0x1eb
ARM GAS  C:\Users\z80\AppData\Local\Temp\cc9ubmT9.s 			page 21


 1130 0264 02       		.byte	0x2
 1131 0265 23       		.byte	0x23
 1132 0266 0C       		.uleb128 0xc
 1133 0267 0B       		.uleb128 0xb
 1134 0268 C1030000 		.4byte	.LASF71
 1135 026c 03       		.byte	0x3
 1136 026d 6804     		.2byte	0x468
 1137 026f 57000000 		.4byte	0x57
 1138 0273 02       		.byte	0x2
 1139 0274 23       		.byte	0x23
 1140 0275 0E       		.uleb128 0xe
 1141 0276 0B       		.uleb128 0xb
 1142 0277 37030000 		.4byte	.LASF72
 1143 027b 03       		.byte	0x3
 1144 027c 6904     		.2byte	0x469
 1145 027e EB010000 		.4byte	0x1eb
 1146 0282 02       		.byte	0x2
 1147 0283 23       		.byte	0x23
 1148 0284 10       		.uleb128 0x10
 1149 0285 0B       		.uleb128 0xb
 1150 0286 CB030000 		.4byte	.LASF73
 1151 028a 03       		.byte	0x3
 1152 028b 6A04     		.2byte	0x46a
 1153 028d 57000000 		.4byte	0x57
 1154 0291 02       		.byte	0x2
 1155 0292 23       		.byte	0x23
 1156 0293 12       		.uleb128 0x12
 1157 0294 0B       		.uleb128 0xb
 1158 0295 6B010000 		.4byte	.LASF74
 1159 0299 03       		.byte	0x3
 1160 029a 6B04     		.2byte	0x46b
 1161 029c EB010000 		.4byte	0x1eb
 1162 02a0 02       		.byte	0x2
 1163 02a1 23       		.byte	0x23
 1164 02a2 14       		.uleb128 0x14
 1165 02a3 0B       		.uleb128 0xb
 1166 02a4 D5030000 		.4byte	.LASF75
 1167 02a8 03       		.byte	0x3
 1168 02a9 6C04     		.2byte	0x46c
 1169 02ab 57000000 		.4byte	0x57
 1170 02af 02       		.byte	0x2
 1171 02b0 23       		.byte	0x23
 1172 02b1 16       		.uleb128 0x16
 1173 02b2 0B       		.uleb128 0xb
 1174 02b3 DD000000 		.4byte	.LASF76
 1175 02b7 03       		.byte	0x3
 1176 02b8 6D04     		.2byte	0x46d
 1177 02ba EB010000 		.4byte	0x1eb
 1178 02be 02       		.byte	0x2
 1179 02bf 23       		.byte	0x23
 1180 02c0 18       		.uleb128 0x18
 1181 02c1 0B       		.uleb128 0xb
 1182 02c2 DF030000 		.4byte	.LASF77
 1183 02c6 03       		.byte	0x3
 1184 02c7 6E04     		.2byte	0x46e
 1185 02c9 57000000 		.4byte	0x57
 1186 02cd 02       		.byte	0x2
ARM GAS  C:\Users\z80\AppData\Local\Temp\cc9ubmT9.s 			page 22


 1187 02ce 23       		.byte	0x23
 1188 02cf 1A       		.uleb128 0x1a
 1189 02d0 0B       		.uleb128 0xb
 1190 02d1 40000000 		.4byte	.LASF78
 1191 02d5 03       		.byte	0x3
 1192 02d6 6F04     		.2byte	0x46f
 1193 02d8 EB010000 		.4byte	0x1eb
 1194 02dc 02       		.byte	0x2
 1195 02dd 23       		.byte	0x23
 1196 02de 1C       		.uleb128 0x1c
 1197 02df 0B       		.uleb128 0xb
 1198 02e0 E9030000 		.4byte	.LASF79
 1199 02e4 03       		.byte	0x3
 1200 02e5 7004     		.2byte	0x470
 1201 02e7 57000000 		.4byte	0x57
 1202 02eb 02       		.byte	0x2
 1203 02ec 23       		.byte	0x23
 1204 02ed 1E       		.uleb128 0x1e
 1205 02ee 0B       		.uleb128 0xb
 1206 02ef 0E030000 		.4byte	.LASF80
 1207 02f3 03       		.byte	0x3
 1208 02f4 7104     		.2byte	0x471
 1209 02f6 EB010000 		.4byte	0x1eb
 1210 02fa 02       		.byte	0x2
 1211 02fb 23       		.byte	0x23
 1212 02fc 20       		.uleb128 0x20
 1213 02fd 0B       		.uleb128 0xb
 1214 02fe F3030000 		.4byte	.LASF81
 1215 0302 03       		.byte	0x3
 1216 0303 7204     		.2byte	0x472
 1217 0305 57000000 		.4byte	0x57
 1218 0309 02       		.byte	0x2
 1219 030a 23       		.byte	0x23
 1220 030b 22       		.uleb128 0x22
 1221 030c 0B       		.uleb128 0xb
 1222 030d 1F030000 		.4byte	.LASF82
 1223 0311 03       		.byte	0x3
 1224 0312 7304     		.2byte	0x473
 1225 0314 EB010000 		.4byte	0x1eb
 1226 0318 02       		.byte	0x2
 1227 0319 23       		.byte	0x23
 1228 031a 24       		.uleb128 0x24
 1229 031b 0B       		.uleb128 0xb
 1230 031c FD030000 		.4byte	.LASF83
 1231 0320 03       		.byte	0x3
 1232 0321 7404     		.2byte	0x474
 1233 0323 57000000 		.4byte	0x57
 1234 0327 02       		.byte	0x2
 1235 0328 23       		.byte	0x23
 1236 0329 26       		.uleb128 0x26
 1237 032a 00       		.byte	0x0
 1238 032b 0C       		.uleb128 0xc
 1239 032c A5000000 		.4byte	.LASF84
 1240 0330 03       		.byte	0x3
 1241 0331 7504     		.2byte	0x475
 1242 0333 F5010000 		.4byte	0x1f5
 1243 0337 04       		.uleb128 0x4
ARM GAS  C:\Users\z80\AppData\Local\Temp\cc9ubmT9.s 			page 23


 1244 0338 44040000 		.4byte	.LASF85
 1245 033c 04       		.byte	0x4
 1246 033d 4C       		.byte	0x4c
 1247 033e 42030000 		.4byte	0x342
 1248 0342 0D       		.uleb128 0xd
 1249 0343 44040000 		.4byte	.LASF85
 1250 0347 04       		.byte	0x4
 1251 0348 05       		.byte	0x5
 1252 0349 91       		.byte	0x91
 1253 034a 5D030000 		.4byte	0x35d
 1254 034e 0E       		.uleb128 0xe
 1255 034f 97020000 		.4byte	.LASF86
 1256 0353 05       		.byte	0x5
 1257 0354 95       		.byte	0x95
 1258 0355 E8030000 		.4byte	0x3e8
 1259 0359 02       		.byte	0x2
 1260 035a 23       		.byte	0x23
 1261 035b 00       		.uleb128 0x0
 1262 035c 00       		.byte	0x0
 1263 035d 04       		.uleb128 0x4
 1264 035e 2B000000 		.4byte	.LASF87
 1265 0362 04       		.byte	0x4
 1266 0363 51       		.byte	0x51
 1267 0364 68030000 		.4byte	0x368
 1268 0368 0D       		.uleb128 0xd
 1269 0369 2B000000 		.4byte	.LASF87
 1270 036d 08       		.byte	0x8
 1271 036e 05       		.byte	0x5
 1272 036f 79       		.byte	0x79
 1273 0370 91030000 		.4byte	0x391
 1274 0374 0E       		.uleb128 0xe
 1275 0375 9C030000 		.4byte	.LASF88
 1276 0379 05       		.byte	0x5
 1277 037a 7D       		.byte	0x7d
 1278 037b 7B000000 		.4byte	0x7b
 1279 037f 02       		.byte	0x2
 1280 0380 23       		.byte	0x23
 1281 0381 00       		.uleb128 0x0
 1282 0382 0E       		.uleb128 0xe
 1283 0383 FE050000 		.4byte	.LASF89
 1284 0387 05       		.byte	0x5
 1285 0388 81       		.byte	0x81
 1286 0389 7B000000 		.4byte	0x7b
 1287 038d 02       		.byte	0x2
 1288 038e 23       		.byte	0x23
 1289 038f 04       		.uleb128 0x4
 1290 0390 00       		.byte	0x0
 1291 0391 04       		.uleb128 0x4
 1292 0392 8A050000 		.4byte	.LASF90
 1293 0396 05       		.byte	0x5
 1294 0397 51       		.byte	0x51
 1295 0398 9C030000 		.4byte	0x39c
 1296 039c 0D       		.uleb128 0xd
 1297 039d 8A050000 		.4byte	.LASF90
 1298 03a1 04       		.byte	0x4
 1299 03a2 05       		.byte	0x5
 1300 03a3 87       		.byte	0x87
ARM GAS  C:\Users\z80\AppData\Local\Temp\cc9ubmT9.s 			page 24


 1301 03a4 B7030000 		.4byte	0x3b7
 1302 03a8 0E       		.uleb128 0xe
 1303 03a9 9C030000 		.4byte	.LASF88
 1304 03ad 05       		.byte	0x5
 1305 03ae 8B       		.byte	0x8b
 1306 03af 7B000000 		.4byte	0x7b
 1307 03b3 02       		.byte	0x2
 1308 03b4 23       		.byte	0x23
 1309 03b5 00       		.uleb128 0x0
 1310 03b6 00       		.byte	0x0
 1311 03b7 04       		.uleb128 0x4
 1312 03b8 2C030000 		.4byte	.LASF91
 1313 03bc 05       		.byte	0x5
 1314 03bd 5C       		.byte	0x5c
 1315 03be 7B000000 		.4byte	0x7b
 1316 03c2 0F       		.uleb128 0xf
 1317 03c3 01       		.byte	0x1
 1318 03c4 05       		.byte	0x5
 1319 03c5 61       		.byte	0x61
 1320 03c6 DD030000 		.4byte	0x3dd
 1321 03ca 07       		.uleb128 0x7
 1322 03cb A5040000 		.4byte	.LASF92
 1323 03cf 00       		.sleb128 0
 1324 03d0 07       		.uleb128 0x7
 1325 03d1 51030000 		.4byte	.LASF93
 1326 03d5 01       		.sleb128 1
 1327 03d6 07       		.uleb128 0x7
 1328 03d7 77050000 		.4byte	.LASF94
 1329 03db 02       		.sleb128 2
 1330 03dc 00       		.byte	0x0
 1331 03dd 04       		.uleb128 0x4
 1332 03de 9A040000 		.4byte	.LASF95
 1333 03e2 05       		.byte	0x5
 1334 03e3 65       		.byte	0x65
 1335 03e4 C2030000 		.4byte	0x3c2
 1336 03e8 04       		.uleb128 0x4
 1337 03e9 01030000 		.4byte	.LASF96
 1338 03ed 05       		.byte	0x5
 1339 03ee 6A       		.byte	0x6a
 1340 03ef F3030000 		.4byte	0x3f3
 1341 03f3 10       		.uleb128 0x10
 1342 03f4 04       		.byte	0x4
 1343 03f5 F9030000 		.4byte	0x3f9
 1344 03f9 11       		.uleb128 0x11
 1345 03fa 01       		.byte	0x1
 1346 03fb 0A040000 		.4byte	0x40a
 1347 03ff 12       		.uleb128 0x12
 1348 0400 0A040000 		.4byte	0x40a
 1349 0404 12       		.uleb128 0x12
 1350 0405 DD030000 		.4byte	0x3dd
 1351 0409 00       		.byte	0x0
 1352 040a 10       		.uleb128 0x10
 1353 040b 04       		.byte	0x4
 1354 040c 37030000 		.4byte	0x337
 1355 0410 13       		.uleb128 0x13
 1356 0411 746D00   		.ascii	"tm\000"
 1357 0414 24       		.byte	0x24
ARM GAS  C:\Users\z80\AppData\Local\Temp\cc9ubmT9.s 			page 25


 1358 0415 06       		.byte	0x6
 1359 0416 21       		.byte	0x21
 1360 0417 9A040000 		.4byte	0x49a
 1361 041b 0E       		.uleb128 0xe
 1362 041c 4F050000 		.4byte	.LASF97
 1363 0420 06       		.byte	0x6
 1364 0421 23       		.byte	0x23
 1365 0422 29000000 		.4byte	0x29
 1366 0426 02       		.byte	0x2
 1367 0427 23       		.byte	0x23
 1368 0428 00       		.uleb128 0x0
 1369 0429 0E       		.uleb128 0xe
 1370 042a FA020000 		.4byte	.LASF98
 1371 042e 06       		.byte	0x6
 1372 042f 24       		.byte	0x24
 1373 0430 29000000 		.4byte	0x29
 1374 0434 02       		.byte	0x2
 1375 0435 23       		.byte	0x23
 1376 0436 04       		.uleb128 0x4
 1377 0437 0E       		.uleb128 0xe
 1378 0438 00000000 		.4byte	.LASF99
 1379 043c 06       		.byte	0x6
 1380 043d 25       		.byte	0x25
 1381 043e 29000000 		.4byte	0x29
 1382 0442 02       		.byte	0x2
 1383 0443 23       		.byte	0x23
 1384 0444 08       		.uleb128 0x8
 1385 0445 0E       		.uleb128 0xe
 1386 0446 3B050000 		.4byte	.LASF100
 1387 044a 06       		.byte	0x6
 1388 044b 26       		.byte	0x26
 1389 044c 29000000 		.4byte	0x29
 1390 0450 02       		.byte	0x2
 1391 0451 23       		.byte	0x23
 1392 0452 0C       		.uleb128 0xc
 1393 0453 0E       		.uleb128 0xe
 1394 0454 BB010000 		.4byte	.LASF101
 1395 0458 06       		.byte	0x6
 1396 0459 27       		.byte	0x27
 1397 045a 29000000 		.4byte	0x29
 1398 045e 02       		.byte	0x2
 1399 045f 23       		.byte	0x23
 1400 0460 10       		.uleb128 0x10
 1401 0461 0E       		.uleb128 0xe
 1402 0462 C2010000 		.4byte	.LASF102
 1403 0466 06       		.byte	0x6
 1404 0467 28       		.byte	0x28
 1405 0468 29000000 		.4byte	0x29
 1406 046c 02       		.byte	0x2
 1407 046d 23       		.byte	0x23
 1408 046e 14       		.uleb128 0x14
 1409 046f 0E       		.uleb128 0xe
 1410 0470 C1040000 		.4byte	.LASF103
 1411 0474 06       		.byte	0x6
 1412 0475 29       		.byte	0x29
 1413 0476 29000000 		.4byte	0x29
 1414 047a 02       		.byte	0x2
ARM GAS  C:\Users\z80\AppData\Local\Temp\cc9ubmT9.s 			page 26


 1415 047b 23       		.byte	0x23
 1416 047c 18       		.uleb128 0x18
 1417 047d 0E       		.uleb128 0xe
 1418 047e 24030000 		.4byte	.LASF104
 1419 0482 06       		.byte	0x6
 1420 0483 2A       		.byte	0x2a
 1421 0484 29000000 		.4byte	0x29
 1422 0488 02       		.byte	0x2
 1423 0489 23       		.byte	0x23
 1424 048a 1C       		.uleb128 0x1c
 1425 048b 0E       		.uleb128 0xe
 1426 048c 51020000 		.4byte	.LASF105
 1427 0490 06       		.byte	0x6
 1428 0491 2B       		.byte	0x2b
 1429 0492 29000000 		.4byte	0x29
 1430 0496 02       		.byte	0x2
 1431 0497 23       		.byte	0x23
 1432 0498 20       		.uleb128 0x20
 1433 0499 00       		.byte	0x0
 1434 049a 14       		.uleb128 0x14
 1435 049b 01       		.byte	0x1
 1436 049c FF010000 		.4byte	.LASF108
 1437 04a0 01       		.byte	0x1
 1438 04a1 63       		.byte	0x63
 1439 04a2 01       		.byte	0x1
 1440 04a3 00000000 		.4byte	.LFB63
 1441 04a7 CA000000 		.4byte	.LFE63
 1442 04ab 00000000 		.4byte	.LLST0
 1443 04af C2040000 		.4byte	0x4c2
 1444 04b3 15       		.uleb128 0x15
 1445 04b4 B1050000 		.4byte	.LASF113
 1446 04b8 01       		.byte	0x1
 1447 04b9 64       		.byte	0x64
 1448 04ba 57000000 		.4byte	0x57
 1449 04be 02       		.byte	0x2
 1450 04bf 91       		.byte	0x91
 1451 04c0 76       		.sleb128 -10
 1452 04c1 00       		.byte	0x0
 1453 04c2 16       		.uleb128 0x16
 1454 04c3 01       		.byte	0x1
 1455 04c4 93050000 		.4byte	.LASF106
 1456 04c8 01       		.byte	0x1
 1457 04c9 8A       		.byte	0x8a
 1458 04ca 01       		.byte	0x1
 1459 04cb 00000000 		.4byte	.LFB64
 1460 04cf 6A000000 		.4byte	.LFE64
 1461 04d3 02       		.byte	0x2
 1462 04d4 7D       		.byte	0x7d
 1463 04d5 00       		.sleb128 0
 1464 04d6 17       		.uleb128 0x17
 1465 04d7 01       		.byte	0x1
 1466 04d8 D0000000 		.4byte	.LASF107
 1467 04dc 01       		.byte	0x1
 1468 04dd 96       		.byte	0x96
 1469 04de 01       		.byte	0x1
 1470 04df 00000000 		.4byte	.LFB65
 1471 04e3 70000000 		.4byte	.LFE65
ARM GAS  C:\Users\z80\AppData\Local\Temp\cc9ubmT9.s 			page 27


 1472 04e7 2C000000 		.4byte	.LLST1
 1473 04eb 14       		.uleb128 0x14
 1474 04ec 01       		.byte	0x1
 1475 04ed 08020000 		.4byte	.LASF109
 1476 04f1 01       		.byte	0x1
 1477 04f2 B4       		.byte	0xb4
 1478 04f3 01       		.byte	0x1
 1479 04f4 00000000 		.4byte	.LFB66
 1480 04f8 7A000000 		.4byte	.LFE66
 1481 04fc 4C000000 		.4byte	.LLST2
 1482 0500 21050000 		.4byte	0x521
 1483 0504 18       		.uleb128 0x18
 1484 0505 09030000 		.4byte	.LASF110
 1485 0509 01       		.byte	0x1
 1486 050a B4       		.byte	0xb4
 1487 050b 0A040000 		.4byte	0x40a
 1488 050f 02       		.byte	0x2
 1489 0510 91       		.byte	0x91
 1490 0511 7C       		.sleb128 -4
 1491 0512 18       		.uleb128 0x18
 1492 0513 91040000 		.4byte	.LASF111
 1493 0517 01       		.byte	0x1
 1494 0518 B4       		.byte	0xb4
 1495 0519 21050000 		.4byte	0x521
 1496 051d 02       		.byte	0x2
 1497 051e 91       		.byte	0x91
 1498 051f 78       		.sleb128 -8
 1499 0520 00       		.byte	0x0
 1500 0521 10       		.uleb128 0x10
 1501 0522 04       		.byte	0x4
 1502 0523 27050000 		.4byte	0x527
 1503 0527 19       		.uleb128 0x19
 1504 0528 5D030000 		.4byte	0x35d
 1505 052c 14       		.uleb128 0x14
 1506 052d 01       		.byte	0x1
 1507 052e 5A020000 		.4byte	.LASF112
 1508 0532 01       		.byte	0x1
 1509 0533 C6       		.byte	0xc6
 1510 0534 01       		.byte	0x1
 1511 0535 00000000 		.4byte	.LFB67
 1512 0539 B6000000 		.4byte	.LFE67
 1513 053d 6C000000 		.4byte	.LLST3
 1514 0541 70050000 		.4byte	0x570
 1515 0545 18       		.uleb128 0x18
 1516 0546 09030000 		.4byte	.LASF110
 1517 054a 01       		.byte	0x1
 1518 054b C6       		.byte	0xc6
 1519 054c 0A040000 		.4byte	0x40a
 1520 0550 02       		.byte	0x2
 1521 0551 91       		.byte	0x91
 1522 0552 74       		.sleb128 -12
 1523 0553 18       		.uleb128 0x18
 1524 0554 91040000 		.4byte	.LASF111
 1525 0558 01       		.byte	0x1
 1526 0559 C6       		.byte	0xc6
 1527 055a 70050000 		.4byte	0x570
 1528 055e 02       		.byte	0x2
ARM GAS  C:\Users\z80\AppData\Local\Temp\cc9ubmT9.s 			page 28


 1529 055f 91       		.byte	0x91
 1530 0560 70       		.sleb128 -16
 1531 0561 15       		.uleb128 0x15
 1532 0562 18050000 		.4byte	.LASF114
 1533 0566 01       		.byte	0x1
 1534 0567 C9       		.byte	0xc9
 1535 0568 7B000000 		.4byte	0x7b
 1536 056c 02       		.byte	0x2
 1537 056d 91       		.byte	0x91
 1538 056e 7C       		.sleb128 -4
 1539 056f 00       		.byte	0x0
 1540 0570 10       		.uleb128 0x10
 1541 0571 04       		.byte	0x4
 1542 0572 5D030000 		.4byte	0x35d
 1543 0576 14       		.uleb128 0x14
 1544 0577 01       		.byte	0x1
 1545 0578 19020000 		.4byte	.LASF115
 1546 057c 01       		.byte	0x1
 1547 057d E3       		.byte	0xe3
 1548 057e 01       		.byte	0x1
 1549 057f 00000000 		.4byte	.LFB68
 1550 0583 A0000000 		.4byte	.LFE68
 1551 0587 8C000000 		.4byte	.LLST4
 1552 058b BA050000 		.4byte	0x5ba
 1553 058f 18       		.uleb128 0x18
 1554 0590 09030000 		.4byte	.LASF110
 1555 0594 01       		.byte	0x1
 1556 0595 E3       		.byte	0xe3
 1557 0596 0A040000 		.4byte	0x40a
 1558 059a 02       		.byte	0x2
 1559 059b 91       		.byte	0x91
 1560 059c 7C       		.sleb128 -4
 1561 059d 18       		.uleb128 0x18
 1562 059e F8000000 		.4byte	.LASF116
 1563 05a2 01       		.byte	0x1
 1564 05a3 E4       		.byte	0xe4
 1565 05a4 B7030000 		.4byte	0x3b7
 1566 05a8 02       		.byte	0x2
 1567 05a9 91       		.byte	0x91
 1568 05aa 78       		.sleb128 -8
 1569 05ab 18       		.uleb128 0x18
 1570 05ac 55010000 		.4byte	.LASF117
 1571 05b0 01       		.byte	0x1
 1572 05b1 E5       		.byte	0xe5
 1573 05b2 BA050000 		.4byte	0x5ba
 1574 05b6 02       		.byte	0x2
 1575 05b7 91       		.byte	0x91
 1576 05b8 74       		.sleb128 -12
 1577 05b9 00       		.byte	0x0
 1578 05ba 10       		.uleb128 0x10
 1579 05bb 04       		.byte	0x4
 1580 05bc C0050000 		.4byte	0x5c0
 1581 05c0 19       		.uleb128 0x19
 1582 05c1 91030000 		.4byte	0x391
 1583 05c5 1A       		.uleb128 0x1a
 1584 05c6 01       		.byte	0x1
 1585 05c7 77030000 		.4byte	.LASF118
ARM GAS  C:\Users\z80\AppData\Local\Temp\cc9ubmT9.s 			page 29


 1586 05cb 01       		.byte	0x1
 1587 05cc 0301     		.2byte	0x103
 1588 05ce 01       		.byte	0x1
 1589 05cf 00000000 		.4byte	.LFB69
 1590 05d3 44000000 		.4byte	.LFE69
 1591 05d7 AC000000 		.4byte	.LLST5
 1592 05db 0D060000 		.4byte	0x60d
 1593 05df 1B       		.uleb128 0x1b
 1594 05e0 09030000 		.4byte	.LASF110
 1595 05e4 01       		.byte	0x1
 1596 05e5 0301     		.2byte	0x103
 1597 05e7 0A040000 		.4byte	0x40a
 1598 05eb 02       		.byte	0x2
 1599 05ec 91       		.byte	0x91
 1600 05ed 7C       		.sleb128 -4
 1601 05ee 1B       		.uleb128 0x1b
 1602 05ef F8000000 		.4byte	.LASF116
 1603 05f3 01       		.byte	0x1
 1604 05f4 0401     		.2byte	0x104
 1605 05f6 B7030000 		.4byte	0x3b7
 1606 05fa 02       		.byte	0x2
 1607 05fb 91       		.byte	0x91
 1608 05fc 78       		.sleb128 -8
 1609 05fd 1B       		.uleb128 0x1b
 1610 05fe 55010000 		.4byte	.LASF117
 1611 0602 01       		.byte	0x1
 1612 0603 0501     		.2byte	0x105
 1613 0605 0D060000 		.4byte	0x60d
 1614 0609 02       		.byte	0x2
 1615 060a 91       		.byte	0x91
 1616 060b 74       		.sleb128 -12
 1617 060c 00       		.byte	0x0
 1618 060d 10       		.uleb128 0x10
 1619 060e 04       		.byte	0x4
 1620 060f 91030000 		.4byte	0x391
 1621 0613 1A       		.uleb128 0x1a
 1622 0614 01       		.byte	0x1
 1623 0615 70010000 		.4byte	.LASF119
 1624 0619 01       		.byte	0x1
 1625 061a 1A01     		.2byte	0x11a
 1626 061c 01       		.byte	0x1
 1627 061d 00000000 		.4byte	.LFB70
 1628 0621 80000000 		.4byte	.LFE70
 1629 0625 CC000000 		.4byte	.LLST6
 1630 0629 4C060000 		.4byte	0x64c
 1631 062d 1B       		.uleb128 0x1b
 1632 062e 09030000 		.4byte	.LASF110
 1633 0632 01       		.byte	0x1
 1634 0633 1A01     		.2byte	0x11a
 1635 0635 0A040000 		.4byte	0x40a
 1636 0639 02       		.byte	0x2
 1637 063a 91       		.byte	0x91
 1638 063b 7C       		.sleb128 -4
 1639 063c 1B       		.uleb128 0x1b
 1640 063d 97020000 		.4byte	.LASF86
 1641 0641 01       		.byte	0x1
 1642 0642 1A01     		.2byte	0x11a
ARM GAS  C:\Users\z80\AppData\Local\Temp\cc9ubmT9.s 			page 30


 1643 0644 E8030000 		.4byte	0x3e8
 1644 0648 02       		.byte	0x2
 1645 0649 91       		.byte	0x91
 1646 064a 78       		.sleb128 -8
 1647 064b 00       		.byte	0x0
 1648 064c 1C       		.uleb128 0x1c
 1649 064d 01       		.byte	0x1
 1650 064e 85010000 		.4byte	.LASF128
 1651 0652 01       		.byte	0x1
 1652 0653 3801     		.2byte	0x138
 1653 0655 01       		.byte	0x1
 1654 0656 7B000000 		.4byte	0x7b
 1655 065a 00000000 		.4byte	.LFB71
 1656 065e 6E000000 		.4byte	.LFE71
 1657 0662 EC000000 		.4byte	.LLST7
 1658 0666 98060000 		.4byte	0x698
 1659 066a 1B       		.uleb128 0x1b
 1660 066b 09030000 		.4byte	.LASF110
 1661 066f 01       		.byte	0x1
 1662 0670 3801     		.2byte	0x138
 1663 0672 0A040000 		.4byte	0x40a
 1664 0676 02       		.byte	0x2
 1665 0677 91       		.byte	0x91
 1666 0678 4C       		.sleb128 -52
 1667 0679 1D       		.uleb128 0x1d
 1668 067a 11000000 		.4byte	.LASF120
 1669 067e 01       		.byte	0x1
 1670 067f 3901     		.2byte	0x139
 1671 0681 7B000000 		.4byte	0x7b
 1672 0685 02       		.byte	0x2
 1673 0686 91       		.byte	0x91
 1674 0687 74       		.sleb128 -12
 1675 0688 1D       		.uleb128 0x1d
 1676 0689 72030000 		.4byte	.LASF121
 1677 068d 01       		.byte	0x1
 1678 068e 3A01     		.2byte	0x13a
 1679 0690 10040000 		.4byte	0x410
 1680 0694 02       		.byte	0x2
 1681 0695 91       		.byte	0x91
 1682 0696 50       		.sleb128 -48
 1683 0697 00       		.byte	0x0
 1684 0698 1E       		.uleb128 0x1e
 1685 0699 37040000 		.4byte	.LASF122
 1686 069d 07       		.byte	0x7
 1687 069e 0706     		.2byte	0x607
 1688 06a0 F0010000 		.4byte	0x1f0
 1689 06a4 01       		.byte	0x1
 1690 06a5 01       		.byte	0x1
 1691 06a6 1F       		.uleb128 0x1f
 1692 06a7 59040000 		.4byte	.LASF123
 1693 06ab 05       		.byte	0x5
 1694 06ac A1       		.byte	0xa1
 1695 06ad 37030000 		.4byte	0x337
 1696 06b1 01       		.byte	0x1
 1697 06b2 01       		.byte	0x1
 1698 06b3 1E       		.uleb128 0x1e
 1699 06b4 37040000 		.4byte	.LASF122
ARM GAS  C:\Users\z80\AppData\Local\Temp\cc9ubmT9.s 			page 31


 1700 06b8 07       		.byte	0x7
 1701 06b9 0706     		.2byte	0x607
 1702 06bb F0010000 		.4byte	0x1f0
 1703 06bf 01       		.byte	0x1
 1704 06c0 01       		.byte	0x1
 1705 06c1 20       		.uleb128 0x20
 1706 06c2 59040000 		.4byte	.LASF123
 1707 06c6 01       		.byte	0x1
 1708 06c7 2D       		.byte	0x2d
 1709 06c8 37030000 		.4byte	0x337
 1710 06cc 01       		.byte	0x1
 1711 06cd 05       		.byte	0x5
 1712 06ce 03       		.byte	0x3
 1713 06cf 00000000 		.4byte	RTCD1
 1714 06d3 00       		.byte	0x0
 1715              		.section	.debug_abbrev
 1716 0000 01       		.uleb128 0x1
 1717 0001 11       		.uleb128 0x11
 1718 0002 01       		.byte	0x1
 1719 0003 25       		.uleb128 0x25
 1720 0004 0E       		.uleb128 0xe
 1721 0005 13       		.uleb128 0x13
 1722 0006 0B       		.uleb128 0xb
 1723 0007 03       		.uleb128 0x3
 1724 0008 0E       		.uleb128 0xe
 1725 0009 1B       		.uleb128 0x1b
 1726 000a 0E       		.uleb128 0xe
 1727 000b 11       		.uleb128 0x11
 1728 000c 01       		.uleb128 0x1
 1729 000d 52       		.uleb128 0x52
 1730 000e 01       		.uleb128 0x1
 1731 000f 55       		.uleb128 0x55
 1732 0010 06       		.uleb128 0x6
 1733 0011 10       		.uleb128 0x10
 1734 0012 06       		.uleb128 0x6
 1735 0013 00       		.byte	0x0
 1736 0014 00       		.byte	0x0
 1737 0015 02       		.uleb128 0x2
 1738 0016 24       		.uleb128 0x24
 1739 0017 00       		.byte	0x0
 1740 0018 0B       		.uleb128 0xb
 1741 0019 0B       		.uleb128 0xb
 1742 001a 3E       		.uleb128 0x3e
 1743 001b 0B       		.uleb128 0xb
 1744 001c 03       		.uleb128 0x3
 1745 001d 08       		.uleb128 0x8
 1746 001e 00       		.byte	0x0
 1747 001f 00       		.byte	0x0
 1748 0020 03       		.uleb128 0x3
 1749 0021 24       		.uleb128 0x24
 1750 0022 00       		.byte	0x0
 1751 0023 0B       		.uleb128 0xb
 1752 0024 0B       		.uleb128 0xb
 1753 0025 3E       		.uleb128 0x3e
 1754 0026 0B       		.uleb128 0xb
 1755 0027 03       		.uleb128 0x3
 1756 0028 0E       		.uleb128 0xe
ARM GAS  C:\Users\z80\AppData\Local\Temp\cc9ubmT9.s 			page 32


 1757 0029 00       		.byte	0x0
 1758 002a 00       		.byte	0x0
 1759 002b 04       		.uleb128 0x4
 1760 002c 16       		.uleb128 0x16
 1761 002d 00       		.byte	0x0
 1762 002e 03       		.uleb128 0x3
 1763 002f 0E       		.uleb128 0xe
 1764 0030 3A       		.uleb128 0x3a
 1765 0031 0B       		.uleb128 0xb
 1766 0032 3B       		.uleb128 0x3b
 1767 0033 0B       		.uleb128 0xb
 1768 0034 49       		.uleb128 0x49
 1769 0035 13       		.uleb128 0x13
 1770 0036 00       		.byte	0x0
 1771 0037 00       		.byte	0x0
 1772 0038 05       		.uleb128 0x5
 1773 0039 24       		.uleb128 0x24
 1774 003a 00       		.byte	0x0
 1775 003b 0B       		.uleb128 0xb
 1776 003c 0B       		.uleb128 0xb
 1777 003d 3E       		.uleb128 0x3e
 1778 003e 0B       		.uleb128 0xb
 1779 003f 00       		.byte	0x0
 1780 0040 00       		.byte	0x0
 1781 0041 06       		.uleb128 0x6
 1782 0042 04       		.uleb128 0x4
 1783 0043 01       		.byte	0x1
 1784 0044 03       		.uleb128 0x3
 1785 0045 0E       		.uleb128 0xe
 1786 0046 0B       		.uleb128 0xb
 1787 0047 0B       		.uleb128 0xb
 1788 0048 3A       		.uleb128 0x3a
 1789 0049 0B       		.uleb128 0xb
 1790 004a 3B       		.uleb128 0x3b
 1791 004b 0B       		.uleb128 0xb
 1792 004c 01       		.uleb128 0x1
 1793 004d 13       		.uleb128 0x13
 1794 004e 00       		.byte	0x0
 1795 004f 00       		.byte	0x0
 1796 0050 07       		.uleb128 0x7
 1797 0051 28       		.uleb128 0x28
 1798 0052 00       		.byte	0x0
 1799 0053 03       		.uleb128 0x3
 1800 0054 0E       		.uleb128 0xe
 1801 0055 1C       		.uleb128 0x1c
 1802 0056 0D       		.uleb128 0xd
 1803 0057 00       		.byte	0x0
 1804 0058 00       		.byte	0x0
 1805 0059 08       		.uleb128 0x8
 1806 005a 35       		.uleb128 0x35
 1807 005b 00       		.byte	0x0
 1808 005c 49       		.uleb128 0x49
 1809 005d 13       		.uleb128 0x13
 1810 005e 00       		.byte	0x0
 1811 005f 00       		.byte	0x0
 1812 0060 09       		.uleb128 0x9
 1813 0061 13       		.uleb128 0x13
ARM GAS  C:\Users\z80\AppData\Local\Temp\cc9ubmT9.s 			page 33


 1814 0062 01       		.byte	0x1
 1815 0063 0B       		.uleb128 0xb
 1816 0064 0B       		.uleb128 0xb
 1817 0065 3A       		.uleb128 0x3a
 1818 0066 0B       		.uleb128 0xb
 1819 0067 3B       		.uleb128 0x3b
 1820 0068 05       		.uleb128 0x5
 1821 0069 01       		.uleb128 0x1
 1822 006a 13       		.uleb128 0x13
 1823 006b 00       		.byte	0x0
 1824 006c 00       		.byte	0x0
 1825 006d 0A       		.uleb128 0xa
 1826 006e 0D       		.uleb128 0xd
 1827 006f 00       		.byte	0x0
 1828 0070 03       		.uleb128 0x3
 1829 0071 08       		.uleb128 0x8
 1830 0072 3A       		.uleb128 0x3a
 1831 0073 0B       		.uleb128 0xb
 1832 0074 3B       		.uleb128 0x3b
 1833 0075 05       		.uleb128 0x5
 1834 0076 49       		.uleb128 0x49
 1835 0077 13       		.uleb128 0x13
 1836 0078 38       		.uleb128 0x38
 1837 0079 0A       		.uleb128 0xa
 1838 007a 00       		.byte	0x0
 1839 007b 00       		.byte	0x0
 1840 007c 0B       		.uleb128 0xb
 1841 007d 0D       		.uleb128 0xd
 1842 007e 00       		.byte	0x0
 1843 007f 03       		.uleb128 0x3
 1844 0080 0E       		.uleb128 0xe
 1845 0081 3A       		.uleb128 0x3a
 1846 0082 0B       		.uleb128 0xb
 1847 0083 3B       		.uleb128 0x3b
 1848 0084 05       		.uleb128 0x5
 1849 0085 49       		.uleb128 0x49
 1850 0086 13       		.uleb128 0x13
 1851 0087 38       		.uleb128 0x38
 1852 0088 0A       		.uleb128 0xa
 1853 0089 00       		.byte	0x0
 1854 008a 00       		.byte	0x0
 1855 008b 0C       		.uleb128 0xc
 1856 008c 16       		.uleb128 0x16
 1857 008d 00       		.byte	0x0
 1858 008e 03       		.uleb128 0x3
 1859 008f 0E       		.uleb128 0xe
 1860 0090 3A       		.uleb128 0x3a
 1861 0091 0B       		.uleb128 0xb
 1862 0092 3B       		.uleb128 0x3b
 1863 0093 05       		.uleb128 0x5
 1864 0094 49       		.uleb128 0x49
 1865 0095 13       		.uleb128 0x13
 1866 0096 00       		.byte	0x0
 1867 0097 00       		.byte	0x0
 1868 0098 0D       		.uleb128 0xd
 1869 0099 13       		.uleb128 0x13
 1870 009a 01       		.byte	0x1
ARM GAS  C:\Users\z80\AppData\Local\Temp\cc9ubmT9.s 			page 34


 1871 009b 03       		.uleb128 0x3
 1872 009c 0E       		.uleb128 0xe
 1873 009d 0B       		.uleb128 0xb
 1874 009e 0B       		.uleb128 0xb
 1875 009f 3A       		.uleb128 0x3a
 1876 00a0 0B       		.uleb128 0xb
 1877 00a1 3B       		.uleb128 0x3b
 1878 00a2 0B       		.uleb128 0xb
 1879 00a3 01       		.uleb128 0x1
 1880 00a4 13       		.uleb128 0x13
 1881 00a5 00       		.byte	0x0
 1882 00a6 00       		.byte	0x0
 1883 00a7 0E       		.uleb128 0xe
 1884 00a8 0D       		.uleb128 0xd
 1885 00a9 00       		.byte	0x0
 1886 00aa 03       		.uleb128 0x3
 1887 00ab 0E       		.uleb128 0xe
 1888 00ac 3A       		.uleb128 0x3a
 1889 00ad 0B       		.uleb128 0xb
 1890 00ae 3B       		.uleb128 0x3b
 1891 00af 0B       		.uleb128 0xb
 1892 00b0 49       		.uleb128 0x49
 1893 00b1 13       		.uleb128 0x13
 1894 00b2 38       		.uleb128 0x38
 1895 00b3 0A       		.uleb128 0xa
 1896 00b4 00       		.byte	0x0
 1897 00b5 00       		.byte	0x0
 1898 00b6 0F       		.uleb128 0xf
 1899 00b7 04       		.uleb128 0x4
 1900 00b8 01       		.byte	0x1
 1901 00b9 0B       		.uleb128 0xb
 1902 00ba 0B       		.uleb128 0xb
 1903 00bb 3A       		.uleb128 0x3a
 1904 00bc 0B       		.uleb128 0xb
 1905 00bd 3B       		.uleb128 0x3b
 1906 00be 0B       		.uleb128 0xb
 1907 00bf 01       		.uleb128 0x1
 1908 00c0 13       		.uleb128 0x13
 1909 00c1 00       		.byte	0x0
 1910 00c2 00       		.byte	0x0
 1911 00c3 10       		.uleb128 0x10
 1912 00c4 0F       		.uleb128 0xf
 1913 00c5 00       		.byte	0x0
 1914 00c6 0B       		.uleb128 0xb
 1915 00c7 0B       		.uleb128 0xb
 1916 00c8 49       		.uleb128 0x49
 1917 00c9 13       		.uleb128 0x13
 1918 00ca 00       		.byte	0x0
 1919 00cb 00       		.byte	0x0
 1920 00cc 11       		.uleb128 0x11
 1921 00cd 15       		.uleb128 0x15
 1922 00ce 01       		.byte	0x1
 1923 00cf 27       		.uleb128 0x27
 1924 00d0 0C       		.uleb128 0xc
 1925 00d1 01       		.uleb128 0x1
 1926 00d2 13       		.uleb128 0x13
 1927 00d3 00       		.byte	0x0
ARM GAS  C:\Users\z80\AppData\Local\Temp\cc9ubmT9.s 			page 35


 1928 00d4 00       		.byte	0x0
 1929 00d5 12       		.uleb128 0x12
 1930 00d6 05       		.uleb128 0x5
 1931 00d7 00       		.byte	0x0
 1932 00d8 49       		.uleb128 0x49
 1933 00d9 13       		.uleb128 0x13
 1934 00da 00       		.byte	0x0
 1935 00db 00       		.byte	0x0
 1936 00dc 13       		.uleb128 0x13
 1937 00dd 13       		.uleb128 0x13
 1938 00de 01       		.byte	0x1
 1939 00df 03       		.uleb128 0x3
 1940 00e0 08       		.uleb128 0x8
 1941 00e1 0B       		.uleb128 0xb
 1942 00e2 0B       		.uleb128 0xb
 1943 00e3 3A       		.uleb128 0x3a
 1944 00e4 0B       		.uleb128 0xb
 1945 00e5 3B       		.uleb128 0x3b
 1946 00e6 0B       		.uleb128 0xb
 1947 00e7 01       		.uleb128 0x1
 1948 00e8 13       		.uleb128 0x13
 1949 00e9 00       		.byte	0x0
 1950 00ea 00       		.byte	0x0
 1951 00eb 14       		.uleb128 0x14
 1952 00ec 2E       		.uleb128 0x2e
 1953 00ed 01       		.byte	0x1
 1954 00ee 3F       		.uleb128 0x3f
 1955 00ef 0C       		.uleb128 0xc
 1956 00f0 03       		.uleb128 0x3
 1957 00f1 0E       		.uleb128 0xe
 1958 00f2 3A       		.uleb128 0x3a
 1959 00f3 0B       		.uleb128 0xb
 1960 00f4 3B       		.uleb128 0x3b
 1961 00f5 0B       		.uleb128 0xb
 1962 00f6 27       		.uleb128 0x27
 1963 00f7 0C       		.uleb128 0xc
 1964 00f8 11       		.uleb128 0x11
 1965 00f9 01       		.uleb128 0x1
 1966 00fa 12       		.uleb128 0x12
 1967 00fb 01       		.uleb128 0x1
 1968 00fc 40       		.uleb128 0x40
 1969 00fd 06       		.uleb128 0x6
 1970 00fe 01       		.uleb128 0x1
 1971 00ff 13       		.uleb128 0x13
 1972 0100 00       		.byte	0x0
 1973 0101 00       		.byte	0x0
 1974 0102 15       		.uleb128 0x15
 1975 0103 34       		.uleb128 0x34
 1976 0104 00       		.byte	0x0
 1977 0105 03       		.uleb128 0x3
 1978 0106 0E       		.uleb128 0xe
 1979 0107 3A       		.uleb128 0x3a
 1980 0108 0B       		.uleb128 0xb
 1981 0109 3B       		.uleb128 0x3b
 1982 010a 0B       		.uleb128 0xb
 1983 010b 49       		.uleb128 0x49
 1984 010c 13       		.uleb128 0x13
ARM GAS  C:\Users\z80\AppData\Local\Temp\cc9ubmT9.s 			page 36


 1985 010d 02       		.uleb128 0x2
 1986 010e 0A       		.uleb128 0xa
 1987 010f 00       		.byte	0x0
 1988 0110 00       		.byte	0x0
 1989 0111 16       		.uleb128 0x16
 1990 0112 2E       		.uleb128 0x2e
 1991 0113 00       		.byte	0x0
 1992 0114 3F       		.uleb128 0x3f
 1993 0115 0C       		.uleb128 0xc
 1994 0116 03       		.uleb128 0x3
 1995 0117 0E       		.uleb128 0xe
 1996 0118 3A       		.uleb128 0x3a
 1997 0119 0B       		.uleb128 0xb
 1998 011a 3B       		.uleb128 0x3b
 1999 011b 0B       		.uleb128 0xb
 2000 011c 27       		.uleb128 0x27
 2001 011d 0C       		.uleb128 0xc
 2002 011e 11       		.uleb128 0x11
 2003 011f 01       		.uleb128 0x1
 2004 0120 12       		.uleb128 0x12
 2005 0121 01       		.uleb128 0x1
 2006 0122 40       		.uleb128 0x40
 2007 0123 0A       		.uleb128 0xa
 2008 0124 00       		.byte	0x0
 2009 0125 00       		.byte	0x0
 2010 0126 17       		.uleb128 0x17
 2011 0127 2E       		.uleb128 0x2e
 2012 0128 00       		.byte	0x0
 2013 0129 3F       		.uleb128 0x3f
 2014 012a 0C       		.uleb128 0xc
 2015 012b 03       		.uleb128 0x3
 2016 012c 0E       		.uleb128 0xe
 2017 012d 3A       		.uleb128 0x3a
 2018 012e 0B       		.uleb128 0xb
 2019 012f 3B       		.uleb128 0x3b
 2020 0130 0B       		.uleb128 0xb
 2021 0131 27       		.uleb128 0x27
 2022 0132 0C       		.uleb128 0xc
 2023 0133 11       		.uleb128 0x11
 2024 0134 01       		.uleb128 0x1
 2025 0135 12       		.uleb128 0x12
 2026 0136 01       		.uleb128 0x1
 2027 0137 40       		.uleb128 0x40
 2028 0138 06       		.uleb128 0x6
 2029 0139 00       		.byte	0x0
 2030 013a 00       		.byte	0x0
 2031 013b 18       		.uleb128 0x18
 2032 013c 05       		.uleb128 0x5
 2033 013d 00       		.byte	0x0
 2034 013e 03       		.uleb128 0x3
 2035 013f 0E       		.uleb128 0xe
 2036 0140 3A       		.uleb128 0x3a
 2037 0141 0B       		.uleb128 0xb
 2038 0142 3B       		.uleb128 0x3b
 2039 0143 0B       		.uleb128 0xb
 2040 0144 49       		.uleb128 0x49
 2041 0145 13       		.uleb128 0x13
ARM GAS  C:\Users\z80\AppData\Local\Temp\cc9ubmT9.s 			page 37


 2042 0146 02       		.uleb128 0x2
 2043 0147 0A       		.uleb128 0xa
 2044 0148 00       		.byte	0x0
 2045 0149 00       		.byte	0x0
 2046 014a 19       		.uleb128 0x19
 2047 014b 26       		.uleb128 0x26
 2048 014c 00       		.byte	0x0
 2049 014d 49       		.uleb128 0x49
 2050 014e 13       		.uleb128 0x13
 2051 014f 00       		.byte	0x0
 2052 0150 00       		.byte	0x0
 2053 0151 1A       		.uleb128 0x1a
 2054 0152 2E       		.uleb128 0x2e
 2055 0153 01       		.byte	0x1
 2056 0154 3F       		.uleb128 0x3f
 2057 0155 0C       		.uleb128 0xc
 2058 0156 03       		.uleb128 0x3
 2059 0157 0E       		.uleb128 0xe
 2060 0158 3A       		.uleb128 0x3a
 2061 0159 0B       		.uleb128 0xb
 2062 015a 3B       		.uleb128 0x3b
 2063 015b 05       		.uleb128 0x5
 2064 015c 27       		.uleb128 0x27
 2065 015d 0C       		.uleb128 0xc
 2066 015e 11       		.uleb128 0x11
 2067 015f 01       		.uleb128 0x1
 2068 0160 12       		.uleb128 0x12
 2069 0161 01       		.uleb128 0x1
 2070 0162 40       		.uleb128 0x40
 2071 0163 06       		.uleb128 0x6
 2072 0164 01       		.uleb128 0x1
 2073 0165 13       		.uleb128 0x13
 2074 0166 00       		.byte	0x0
 2075 0167 00       		.byte	0x0
 2076 0168 1B       		.uleb128 0x1b
 2077 0169 05       		.uleb128 0x5
 2078 016a 00       		.byte	0x0
 2079 016b 03       		.uleb128 0x3
 2080 016c 0E       		.uleb128 0xe
 2081 016d 3A       		.uleb128 0x3a
 2082 016e 0B       		.uleb128 0xb
 2083 016f 3B       		.uleb128 0x3b
 2084 0170 05       		.uleb128 0x5
 2085 0171 49       		.uleb128 0x49
 2086 0172 13       		.uleb128 0x13
 2087 0173 02       		.uleb128 0x2
 2088 0174 0A       		.uleb128 0xa
 2089 0175 00       		.byte	0x0
 2090 0176 00       		.byte	0x0
 2091 0177 1C       		.uleb128 0x1c
 2092 0178 2E       		.uleb128 0x2e
 2093 0179 01       		.byte	0x1
 2094 017a 3F       		.uleb128 0x3f
 2095 017b 0C       		.uleb128 0xc
 2096 017c 03       		.uleb128 0x3
 2097 017d 0E       		.uleb128 0xe
 2098 017e 3A       		.uleb128 0x3a
ARM GAS  C:\Users\z80\AppData\Local\Temp\cc9ubmT9.s 			page 38


 2099 017f 0B       		.uleb128 0xb
 2100 0180 3B       		.uleb128 0x3b
 2101 0181 05       		.uleb128 0x5
 2102 0182 27       		.uleb128 0x27
 2103 0183 0C       		.uleb128 0xc
 2104 0184 49       		.uleb128 0x49
 2105 0185 13       		.uleb128 0x13
 2106 0186 11       		.uleb128 0x11
 2107 0187 01       		.uleb128 0x1
 2108 0188 12       		.uleb128 0x12
 2109 0189 01       		.uleb128 0x1
 2110 018a 40       		.uleb128 0x40
 2111 018b 06       		.uleb128 0x6
 2112 018c 01       		.uleb128 0x1
 2113 018d 13       		.uleb128 0x13
 2114 018e 00       		.byte	0x0
 2115 018f 00       		.byte	0x0
 2116 0190 1D       		.uleb128 0x1d
 2117 0191 34       		.uleb128 0x34
 2118 0192 00       		.byte	0x0
 2119 0193 03       		.uleb128 0x3
 2120 0194 0E       		.uleb128 0xe
 2121 0195 3A       		.uleb128 0x3a
 2122 0196 0B       		.uleb128 0xb
 2123 0197 3B       		.uleb128 0x3b
 2124 0198 05       		.uleb128 0x5
 2125 0199 49       		.uleb128 0x49
 2126 019a 13       		.uleb128 0x13
 2127 019b 02       		.uleb128 0x2
 2128 019c 0A       		.uleb128 0xa
 2129 019d 00       		.byte	0x0
 2130 019e 00       		.byte	0x0
 2131 019f 1E       		.uleb128 0x1e
 2132 01a0 34       		.uleb128 0x34
 2133 01a1 00       		.byte	0x0
 2134 01a2 03       		.uleb128 0x3
 2135 01a3 0E       		.uleb128 0xe
 2136 01a4 3A       		.uleb128 0x3a
 2137 01a5 0B       		.uleb128 0xb
 2138 01a6 3B       		.uleb128 0x3b
 2139 01a7 05       		.uleb128 0x5
 2140 01a8 49       		.uleb128 0x49
 2141 01a9 13       		.uleb128 0x13
 2142 01aa 3F       		.uleb128 0x3f
 2143 01ab 0C       		.uleb128 0xc
 2144 01ac 3C       		.uleb128 0x3c
 2145 01ad 0C       		.uleb128 0xc
 2146 01ae 00       		.byte	0x0
 2147 01af 00       		.byte	0x0
 2148 01b0 1F       		.uleb128 0x1f
 2149 01b1 34       		.uleb128 0x34
 2150 01b2 00       		.byte	0x0
 2151 01b3 03       		.uleb128 0x3
 2152 01b4 0E       		.uleb128 0xe
 2153 01b5 3A       		.uleb128 0x3a
 2154 01b6 0B       		.uleb128 0xb
 2155 01b7 3B       		.uleb128 0x3b
ARM GAS  C:\Users\z80\AppData\Local\Temp\cc9ubmT9.s 			page 39


 2156 01b8 0B       		.uleb128 0xb
 2157 01b9 49       		.uleb128 0x49
 2158 01ba 13       		.uleb128 0x13
 2159 01bb 3F       		.uleb128 0x3f
 2160 01bc 0C       		.uleb128 0xc
 2161 01bd 3C       		.uleb128 0x3c
 2162 01be 0C       		.uleb128 0xc
 2163 01bf 00       		.byte	0x0
 2164 01c0 00       		.byte	0x0
 2165 01c1 20       		.uleb128 0x20
 2166 01c2 34       		.uleb128 0x34
 2167 01c3 00       		.byte	0x0
 2168 01c4 03       		.uleb128 0x3
 2169 01c5 0E       		.uleb128 0xe
 2170 01c6 3A       		.uleb128 0x3a
 2171 01c7 0B       		.uleb128 0xb
 2172 01c8 3B       		.uleb128 0x3b
 2173 01c9 0B       		.uleb128 0xb
 2174 01ca 49       		.uleb128 0x49
 2175 01cb 13       		.uleb128 0x13
 2176 01cc 3F       		.uleb128 0x3f
 2177 01cd 0C       		.uleb128 0xc
 2178 01ce 02       		.uleb128 0x2
 2179 01cf 0A       		.uleb128 0xa
 2180 01d0 00       		.byte	0x0
 2181 01d1 00       		.byte	0x0
 2182 01d2 00       		.byte	0x0
 2183              		.section	.debug_pubnames,"",%progbits
 2184 0000 D8000000 		.4byte	0xd8
 2185 0004 0200     		.2byte	0x2
 2186 0006 00000000 		.4byte	.Ldebug_info0
 2187 000a D4060000 		.4byte	0x6d4
 2188 000e 9A040000 		.4byte	0x49a
 2189 0012 56656374 		.ascii	"Vector4C\000"
 2189      6F723443 
 2189      00
 2190 001b C2040000 		.4byte	0x4c2
 2191 001f 7274635F 		.ascii	"rtc_lld_set_prescaler\000"
 2191      6C6C645F 
 2191      7365745F 
 2191      70726573 
 2191      63616C65 
 2192 0035 D6040000 		.4byte	0x4d6
 2193 0039 7274635F 		.ascii	"rtc_lld_init\000"
 2193      6C6C645F 
 2193      696E6974 
 2193      00
 2194 0046 EB040000 		.4byte	0x4eb
 2195 004a 7274635F 		.ascii	"rtc_lld_set_time\000"
 2195      6C6C645F 
 2195      7365745F 
 2195      74696D65 
 2195      00
 2196 005b 2C050000 		.4byte	0x52c
 2197 005f 7274635F 		.ascii	"rtc_lld_get_time\000"
 2197      6C6C645F 
 2197      6765745F 
ARM GAS  C:\Users\z80\AppData\Local\Temp\cc9ubmT9.s 			page 40


 2197      74696D65 
 2197      00
 2198 0070 76050000 		.4byte	0x576
 2199 0074 7274635F 		.ascii	"rtc_lld_set_alarm\000"
 2199      6C6C645F 
 2199      7365745F 
 2199      616C6172 
 2199      6D00
 2200 0086 C5050000 		.4byte	0x5c5
 2201 008a 7274635F 		.ascii	"rtc_lld_get_alarm\000"
 2201      6C6C645F 
 2201      6765745F 
 2201      616C6172 
 2201      6D00
 2202 009c 13060000 		.4byte	0x613
 2203 00a0 7274635F 		.ascii	"rtc_lld_set_callback\000"
 2203      6C6C645F 
 2203      7365745F 
 2203      63616C6C 
 2203      6261636B 
 2204 00b5 4C060000 		.4byte	0x64c
 2205 00b9 7274635F 		.ascii	"rtc_lld_get_time_fat\000"
 2205      6C6C645F 
 2205      6765745F 
 2205      74696D65 
 2205      5F666174 
 2206 00ce C1060000 		.4byte	0x6c1
 2207 00d2 52544344 		.ascii	"RTCD1\000"
 2207      3100
 2208 00d8 00000000 		.4byte	0x0
 2209              		.section	.debug_pubtypes,"",%progbits
 2210 0000 D8000000 		.4byte	0xd8
 2211 0004 0200     		.2byte	0x2
 2212 0006 00000000 		.4byte	.Ldebug_info0
 2213 000a D4060000 		.4byte	0x6d4
 2214 000e 3E000000 		.4byte	0x3e
 2215 0012 75696E74 		.ascii	"uint8_t\000"
 2215      385F7400 
 2216 001a 57000000 		.4byte	0x57
 2217 001e 75696E74 		.ascii	"uint16_t\000"
 2217      31365F74 
 2217      00
 2218 0027 69000000 		.4byte	0x69
 2219 002b 696E7433 		.ascii	"int32_t\000"
 2219      325F7400 
 2220 0033 7B000000 		.4byte	0x7b
 2221 0037 75696E74 		.ascii	"uint32_t\000"
 2221      33325F74 
 2221      00
 2222 0040 AC000000 		.4byte	0xac
 2223 0044 4952516E 		.ascii	"IRQn\000"
 2223      00
 2224 0049 2B030000 		.4byte	0x32b
 2225 004d 5254435F 		.ascii	"RTC_TypeDef\000"
 2225      54797065 
 2225      44656600 
 2226 0059 37030000 		.4byte	0x337
ARM GAS  C:\Users\z80\AppData\Local\Temp\cc9ubmT9.s 			page 41


 2227 005d 52544344 		.ascii	"RTCDriver\000"
 2227      72697665 
 2227      7200
 2228 0067 5D030000 		.4byte	0x35d
 2229 006b 52544354 		.ascii	"RTCTime\000"
 2229      696D6500 
 2230 0073 91030000 		.4byte	0x391
 2231 0077 52544341 		.ascii	"RTCAlarm\000"
 2231      6C61726D 
 2231      00
 2232 0080 B7030000 		.4byte	0x3b7
 2233 0084 72746361 		.ascii	"rtcalarm_t\000"
 2233      6C61726D 
 2233      5F7400
 2234 008f DD030000 		.4byte	0x3dd
 2235 0093 72746365 		.ascii	"rtcevent_t\000"
 2235      76656E74 
 2235      5F7400
 2236 009e E8030000 		.4byte	0x3e8
 2237 00a2 72746363 		.ascii	"rtccb_t\000"
 2237      625F7400 
 2238 00aa 68030000 		.4byte	0x368
 2239 00ae 52544354 		.ascii	"RTCTime\000"
 2239      696D6500 
 2240 00b6 9C030000 		.4byte	0x39c
 2241 00ba 52544341 		.ascii	"RTCAlarm\000"
 2241      6C61726D 
 2241      00
 2242 00c3 42030000 		.4byte	0x342
 2243 00c7 52544344 		.ascii	"RTCDriver\000"
 2243      72697665 
 2243      7200
 2244 00d1 10040000 		.4byte	0x410
 2245 00d5 746D00   		.ascii	"tm\000"
 2246 00d8 00000000 		.4byte	0x0
 2247              		.section	.debug_aranges,"",%progbits
 2248 0000 5C000000 		.4byte	0x5c
 2249 0004 0200     		.2byte	0x2
 2250 0006 00000000 		.4byte	.Ldebug_info0
 2251 000a 04       		.byte	0x4
 2252 000b 00       		.byte	0x0
 2253 000c 0000     		.2byte	0x0
 2254 000e 0000     		.2byte	0x0
 2255 0010 00000000 		.4byte	.LFB63
 2256 0014 CA000000 		.4byte	.LFE63-.LFB63
 2257 0018 00000000 		.4byte	.LFB64
 2258 001c 6A000000 		.4byte	.LFE64-.LFB64
 2259 0020 00000000 		.4byte	.LFB65
 2260 0024 70000000 		.4byte	.LFE65-.LFB65
 2261 0028 00000000 		.4byte	.LFB66
 2262 002c 7A000000 		.4byte	.LFE66-.LFB66
 2263 0030 00000000 		.4byte	.LFB67
 2264 0034 B6000000 		.4byte	.LFE67-.LFB67
 2265 0038 00000000 		.4byte	.LFB68
 2266 003c A0000000 		.4byte	.LFE68-.LFB68
 2267 0040 00000000 		.4byte	.LFB69
 2268 0044 44000000 		.4byte	.LFE69-.LFB69
ARM GAS  C:\Users\z80\AppData\Local\Temp\cc9ubmT9.s 			page 42


 2269 0048 00000000 		.4byte	.LFB70
 2270 004c 80000000 		.4byte	.LFE70-.LFB70
 2271 0050 00000000 		.4byte	.LFB71
 2272 0054 6E000000 		.4byte	.LFE71-.LFB71
 2273 0058 00000000 		.4byte	0x0
 2274 005c 00000000 		.4byte	0x0
 2275              		.section	.debug_ranges,"",%progbits
 2276              	.Ldebug_ranges0:
 2277 0000 00000000 		.4byte	.LFB63
 2278 0004 CA000000 		.4byte	.LFE63
 2279 0008 00000000 		.4byte	.LFB64
 2280 000c 6A000000 		.4byte	.LFE64
 2281 0010 00000000 		.4byte	.LFB65
 2282 0014 70000000 		.4byte	.LFE65
 2283 0018 00000000 		.4byte	.LFB66
 2284 001c 7A000000 		.4byte	.LFE66
 2285 0020 00000000 		.4byte	.LFB67
 2286 0024 B6000000 		.4byte	.LFE67
 2287 0028 00000000 		.4byte	.LFB68
 2288 002c A0000000 		.4byte	.LFE68
 2289 0030 00000000 		.4byte	.LFB69
 2290 0034 44000000 		.4byte	.LFE69
 2291 0038 00000000 		.4byte	.LFB70
 2292 003c 80000000 		.4byte	.LFE70
 2293 0040 00000000 		.4byte	.LFB71
 2294 0044 6E000000 		.4byte	.LFE71
 2295 0048 00000000 		.4byte	0x0
 2296 004c 00000000 		.4byte	0x0
 2297              		.section	.debug_str,"MS",%progbits,1
 2298              	.LASF99:
 2299 0000 746D5F68 		.ascii	"tm_hour\000"
 2299      6F757200 
 2300              	.LASF24:
 2301 0008 5056445F 		.ascii	"PVD_IRQn\000"
 2301      4952516E 
 2301      00
 2302              	.LASF120:
 2303 0011 66617474 		.ascii	"fattime\000"
 2303      696D6500 
 2304              	.LASF49:
 2305 0019 54494D31 		.ascii	"TIM1_TRG_COM_IRQn\000"
 2305      5F545247 
 2305      5F434F4D 
 2305      5F495251 
 2305      6E00
 2306              	.LASF87:
 2307 002b 52544354 		.ascii	"RTCTime\000"
 2307      696D6500 
 2308              	.LASF54:
 2309 0033 49324331 		.ascii	"I2C1_EV_IRQn\000"
 2309      5F45565F 
 2309      4952516E 
 2309      00
 2310              	.LASF78:
 2311 0040 434E544C 		.ascii	"CNTL\000"
 2311      00
 2312              	.LASF44:
ARM GAS  C:\Users\z80\AppData\Local\Temp\cc9ubmT9.s 			page 43


 2313 0045 43414E31 		.ascii	"CAN1_RX1_IRQn\000"
 2313      5F525831 
 2313      5F495251 
 2313      6E00
 2314              	.LASF12:
 2315 0053 6C6F6E67 		.ascii	"long long unsigned int\000"
 2315      206C6F6E 
 2315      6720756E 
 2315      7369676E 
 2315      65642069 
 2316              	.LASF64:
 2317 006a 5254435F 		.ascii	"RTC_Alarm_IRQn\000"
 2317      416C6172 
 2317      6D5F4952 
 2317      516E00
 2318              	.LASF57:
 2319 0079 49324332 		.ascii	"I2C2_ER_IRQn\000"
 2319      5F45525F 
 2319      4952516E 
 2319      00
 2320              	.LASF53:
 2321 0086 54494D34 		.ascii	"TIM4_IRQn\000"
 2321      5F495251 
 2321      6E00
 2322              	.LASF31:
 2323 0090 45585449 		.ascii	"EXTI2_IRQn\000"
 2323      325F4952 
 2323      516E00
 2324              	.LASF23:
 2325 009b 57574447 		.ascii	"WWDG_IRQn\000"
 2325      5F495251 
 2325      6E00
 2326              	.LASF84:
 2327 00a5 5254435F 		.ascii	"RTC_TypeDef\000"
 2327      54797065 
 2327      44656600 
 2328              	.LASF68:
 2329 00b1 50524C48 		.ascii	"PRLH\000"
 2329      00
 2330              	.LASF11:
 2331 00b6 6C6F6E67 		.ascii	"long long int\000"
 2331      206C6F6E 
 2331      6720696E 
 2331      7400
 2332              	.LASF1:
 2333 00c4 7369676E 		.ascii	"signed char\000"
 2333      65642063 
 2333      68617200 
 2334              	.LASF107:
 2335 00d0 7274635F 		.ascii	"rtc_lld_init\000"
 2335      6C6C645F 
 2335      696E6974 
 2335      00
 2336              	.LASF76:
 2337 00dd 434E5448 		.ascii	"CNTH\000"
 2337      00
 2338              	.LASF8:
ARM GAS  C:\Users\z80\AppData\Local\Temp\cc9ubmT9.s 			page 44


 2339 00e2 6C6F6E67 		.ascii	"long int\000"
 2339      20696E74 
 2339      00
 2340              	.LASF56:
 2341 00eb 49324332 		.ascii	"I2C2_EV_IRQn\000"
 2341      5F45565F 
 2341      4952516E 
 2341      00
 2342              	.LASF116:
 2343 00f8 616C6172 		.ascii	"alarm\000"
 2343      6D00
 2344              	.LASF46:
 2345 00fe 45585449 		.ascii	"EXTI9_5_IRQn\000"
 2345      395F355F 
 2345      4952516E 
 2345      00
 2346              	.LASF5:
 2347 010b 75696E74 		.ascii	"uint16_t\000"
 2347      31365F74 
 2347      00
 2348              	.LASF9:
 2349 0114 75696E74 		.ascii	"uint32_t\000"
 2349      33325F74 
 2349      00
 2350              	.LASF125:
 2351 011d 2E2E2F63 		.ascii	"../chibios_2.6.3/os/hal/platforms/STM32/RTCv1/rtc_l"
 2351      68696269 
 2351      6F735F32 
 2351      2E362E33 
 2351      2F6F732F 
 2352 0150 6C642E63 		.ascii	"ld.c\000"
 2352      00
 2353              	.LASF117:
 2354 0155 616C6172 		.ascii	"alarmspec\000"
 2354      6D737065 
 2354      6300
 2355              	.LASF41:
 2356 015f 41444331 		.ascii	"ADC1_2_IRQn\000"
 2356      5F325F49 
 2356      52516E00 
 2357              	.LASF74:
 2358 016b 4449564C 		.ascii	"DIVL\000"
 2358      00
 2359              	.LASF119:
 2360 0170 7274635F 		.ascii	"rtc_lld_set_callback\000"
 2360      6C6C645F 
 2360      7365745F 
 2360      63616C6C 
 2360      6261636B 
 2361              	.LASF128:
 2362 0185 7274635F 		.ascii	"rtc_lld_get_time_fat\000"
 2362      6C6C645F 
 2362      6765745F 
 2362      74696D65 
 2362      5F666174 
 2363              	.LASF37:
 2364 019a 444D4131 		.ascii	"DMA1_Channel4_IRQn\000"
ARM GAS  C:\Users\z80\AppData\Local\Temp\cc9ubmT9.s 			page 45


 2364      5F436861 
 2364      6E6E656C 
 2364      345F4952 
 2364      516E00
 2365              	.LASF17:
 2366 01ad 42757346 		.ascii	"BusFault_IRQn\000"
 2366      61756C74 
 2366      5F495251 
 2366      6E00
 2367              	.LASF101:
 2368 01bb 746D5F6D 		.ascii	"tm_mon\000"
 2368      6F6E00
 2369              	.LASF102:
 2370 01c2 746D5F79 		.ascii	"tm_year\000"
 2370      65617200 
 2371              	.LASF0:
 2372 01ca 756E7369 		.ascii	"unsigned int\000"
 2372      676E6564 
 2372      20696E74 
 2372      00
 2373              	.LASF16:
 2374 01d7 4D656D6F 		.ascii	"MemoryManagement_IRQn\000"
 2374      72794D61 
 2374      6E616765 
 2374      6D656E74 
 2374      5F495251 
 2375              	.LASF10:
 2376 01ed 6C6F6E67 		.ascii	"long unsigned int\000"
 2376      20756E73 
 2376      69676E65 
 2376      6420696E 
 2376      7400
 2377              	.LASF108:
 2378 01ff 56656374 		.ascii	"Vector4C\000"
 2378      6F723443 
 2378      00
 2379              	.LASF109:
 2380 0208 7274635F 		.ascii	"rtc_lld_set_time\000"
 2380      6C6C645F 
 2380      7365745F 
 2380      74696D65 
 2380      00
 2381              	.LASF115:
 2382 0219 7274635F 		.ascii	"rtc_lld_set_alarm\000"
 2382      6C6C645F 
 2382      7365745F 
 2382      616C6172 
 2382      6D00
 2383              	.LASF38:
 2384 022b 444D4131 		.ascii	"DMA1_Channel5_IRQn\000"
 2384      5F436861 
 2384      6E6E656C 
 2384      355F4952 
 2384      516E00
 2385              	.LASF6:
 2386 023e 73686F72 		.ascii	"short unsigned int\000"
 2386      7420756E 
ARM GAS  C:\Users\z80\AppData\Local\Temp\cc9ubmT9.s 			page 46


 2386      7369676E 
 2386      65642069 
 2386      6E7400
 2387              	.LASF105:
 2388 0251 746D5F69 		.ascii	"tm_isdst\000"
 2388      73647374 
 2388      00
 2389              	.LASF112:
 2390 025a 7274635F 		.ascii	"rtc_lld_get_time\000"
 2390      6C6C645F 
 2390      6765745F 
 2390      74696D65 
 2390      00
 2391              	.LASF63:
 2392 026b 45585449 		.ascii	"EXTI15_10_IRQn\000"
 2392      31355F31 
 2392      305F4952 
 2392      516E00
 2393              	.LASF39:
 2394 027a 444D4131 		.ascii	"DMA1_Channel6_IRQn\000"
 2394      5F436861 
 2394      6E6E656C 
 2394      365F4952 
 2394      516E00
 2395              	.LASF58:
 2396 028d 53504931 		.ascii	"SPI1_IRQn\000"
 2396      5F495251 
 2396      6E00
 2397              	.LASF86:
 2398 0297 63616C6C 		.ascii	"callback\000"
 2398      6261636B 
 2398      00
 2399              	.LASF126:
 2400 02a0 433A5C70 		.ascii	"C:\\projects\\clock.git\\firmware\\firmware\000"
 2400      726F6A65 
 2400      6374735C 
 2400      636C6F63 
 2400      6B2E6769 
 2401              	.LASF22:
 2402 02c8 53797354 		.ascii	"SysTick_IRQn\000"
 2402      69636B5F 
 2402      4952516E 
 2402      00
 2403              	.LASF50:
 2404 02d5 54494D31 		.ascii	"TIM1_CC_IRQn\000"
 2404      5F43435F 
 2404      4952516E 
 2404      00
 2405              	.LASF127:
 2406 02e2 4952516E 		.ascii	"IRQn\000"
 2406      00
 2407              	.LASF35:
 2408 02e7 444D4131 		.ascii	"DMA1_Channel2_IRQn\000"
 2408      5F436861 
 2408      6E6E656C 
 2408      325F4952 
 2408      516E00
ARM GAS  C:\Users\z80\AppData\Local\Temp\cc9ubmT9.s 			page 47


 2409              	.LASF98:
 2410 02fa 746D5F6D 		.ascii	"tm_min\000"
 2410      696E00
 2411              	.LASF96:
 2412 0301 72746363 		.ascii	"rtccb_t\000"
 2412      625F7400 
 2413              	.LASF110:
 2414 0309 72746370 		.ascii	"rtcp\000"
 2414      00
 2415              	.LASF80:
 2416 030e 414C5248 		.ascii	"ALRH\000"
 2416      00
 2417              	.LASF19:
 2418 0313 53564361 		.ascii	"SVCall_IRQn\000"
 2418      6C6C5F49 
 2418      52516E00 
 2419              	.LASF82:
 2420 031f 414C524C 		.ascii	"ALRL\000"
 2420      00
 2421              	.LASF104:
 2422 0324 746D5F79 		.ascii	"tm_yday\000"
 2422      64617900 
 2423              	.LASF91:
 2424 032c 72746361 		.ascii	"rtcalarm_t\000"
 2424      6C61726D 
 2424      5F7400
 2425              	.LASF72:
 2426 0337 44495648 		.ascii	"DIVH\000"
 2426      00
 2427              	.LASF32:
 2428 033c 45585449 		.ascii	"EXTI3_IRQn\000"
 2428      335F4952 
 2428      516E00
 2429              	.LASF59:
 2430 0347 53504932 		.ascii	"SPI2_IRQn\000"
 2430      5F495251 
 2430      6E00
 2431              	.LASF93:
 2432 0351 5254435F 		.ascii	"RTC_EVENT_ALARM\000"
 2432      4556454E 
 2432      545F414C 
 2432      41524D00 
 2433              	.LASF65:
 2434 0361 5553425F 		.ascii	"USB_FS_WKUP_IRQn\000"
 2434      46535F57 
 2434      4B55505F 
 2434      4952516E 
 2434      00
 2435              	.LASF121:
 2436 0372 74696D70 		.ascii	"timp\000"
 2436      00
 2437              	.LASF118:
 2438 0377 7274635F 		.ascii	"rtc_lld_get_alarm\000"
 2438      6C6C645F 
 2438      6765745F 
 2438      616C6172 
 2438      6D00
ARM GAS  C:\Users\z80\AppData\Local\Temp\cc9ubmT9.s 			page 48


 2439              	.LASF34:
 2440 0389 444D4131 		.ascii	"DMA1_Channel1_IRQn\000"
 2440      5F436861 
 2440      6E6E656C 
 2440      315F4952 
 2440      516E00
 2441              	.LASF88:
 2442 039c 74765F73 		.ascii	"tv_sec\000"
 2442      656300
 2443              	.LASF66:
 2444 03a3 52455345 		.ascii	"RESERVED0\000"
 2444      52564544 
 2444      3000
 2445              	.LASF67:
 2446 03ad 52455345 		.ascii	"RESERVED1\000"
 2446      52564544 
 2446      3100
 2447              	.LASF69:
 2448 03b7 52455345 		.ascii	"RESERVED2\000"
 2448      52564544 
 2448      3200
 2449              	.LASF71:
 2450 03c1 52455345 		.ascii	"RESERVED3\000"
 2450      52564544 
 2450      3300
 2451              	.LASF73:
 2452 03cb 52455345 		.ascii	"RESERVED4\000"
 2452      52564544 
 2452      3400
 2453              	.LASF75:
 2454 03d5 52455345 		.ascii	"RESERVED5\000"
 2454      52564544 
 2454      3500
 2455              	.LASF77:
 2456 03df 52455345 		.ascii	"RESERVED6\000"
 2456      52564544 
 2456      3600
 2457              	.LASF79:
 2458 03e9 52455345 		.ascii	"RESERVED7\000"
 2458      52564544 
 2458      3700
 2459              	.LASF81:
 2460 03f3 52455345 		.ascii	"RESERVED8\000"
 2460      52564544 
 2460      3800
 2461              	.LASF83:
 2462 03fd 52455345 		.ascii	"RESERVED9\000"
 2462      52564544 
 2462      3900
 2463              	.LASF13:
 2464 0407 5F426F6F 		.ascii	"_Bool\000"
 2464      6C00
 2465              	.LASF7:
 2466 040d 696E7433 		.ascii	"int32_t\000"
 2466      325F7400 
 2467              	.LASF2:
 2468 0415 756E7369 		.ascii	"unsigned char\000"
ARM GAS  C:\Users\z80\AppData\Local\Temp\cc9ubmT9.s 			page 49


 2468      676E6564 
 2468      20636861 
 2468      7200
 2469              	.LASF42:
 2470 0423 5553425F 		.ascii	"USB_HP_CAN1_TX_IRQn\000"
 2470      48505F43 
 2470      414E315F 
 2470      54585F49 
 2470      52516E00 
 2471              	.LASF122:
 2472 0437 49544D5F 		.ascii	"ITM_RxBuffer\000"
 2472      52784275 
 2472      66666572 
 2472      00
 2473              	.LASF85:
 2474 0444 52544344 		.ascii	"RTCDriver\000"
 2474      72697665 
 2474      7200
 2475              	.LASF33:
 2476 044e 45585449 		.ascii	"EXTI4_IRQn\000"
 2476      345F4952 
 2476      516E00
 2477              	.LASF123:
 2478 0459 52544344 		.ascii	"RTCD1\000"
 2478      3100
 2479              	.LASF3:
 2480 045f 73686F72 		.ascii	"short int\000"
 2480      7420696E 
 2480      7400
 2481              	.LASF36:
 2482 0469 444D4131 		.ascii	"DMA1_Channel3_IRQn\000"
 2482      5F436861 
 2482      6E6E656C 
 2482      335F4952 
 2482      516E00
 2483              	.LASF43:
 2484 047c 5553425F 		.ascii	"USB_LP_CAN1_RX0_IRQn\000"
 2484      4C505F43 
 2484      414E315F 
 2484      5258305F 
 2484      4952516E 
 2485              	.LASF111:
 2486 0491 74696D65 		.ascii	"timespec\000"
 2486      73706563 
 2486      00
 2487              	.LASF95:
 2488 049a 72746365 		.ascii	"rtcevent_t\000"
 2488      76656E74 
 2488      5F7400
 2489              	.LASF92:
 2490 04a5 5254435F 		.ascii	"RTC_EVENT_SECOND\000"
 2490      4556454E 
 2490      545F5345 
 2490      434F4E44 
 2490      00
 2491              	.LASF27:
 2492 04b6 464C4153 		.ascii	"FLASH_IRQn\000"
ARM GAS  C:\Users\z80\AppData\Local\Temp\cc9ubmT9.s 			page 50


 2492      485F4952 
 2492      516E00
 2493              	.LASF103:
 2494 04c1 746D5F77 		.ascii	"tm_wday\000"
 2494      64617900 
 2495              	.LASF61:
 2496 04c9 55534152 		.ascii	"USART2_IRQn\000"
 2496      54325F49 
 2496      52516E00 
 2497              	.LASF18:
 2498 04d5 55736167 		.ascii	"UsageFault_IRQn\000"
 2498      65466175 
 2498      6C745F49 
 2498      52516E00 
 2499              	.LASF14:
 2500 04e5 63686172 		.ascii	"char\000"
 2500      00
 2501              	.LASF47:
 2502 04ea 54494D31 		.ascii	"TIM1_BRK_IRQn\000"
 2502      5F42524B 
 2502      5F495251 
 2502      6E00
 2503              	.LASF21:
 2504 04f8 50656E64 		.ascii	"PendSV_IRQn\000"
 2504      53565F49 
 2504      52516E00 
 2505              	.LASF15:
 2506 0504 4E6F6E4D 		.ascii	"NonMaskableInt_IRQn\000"
 2506      61736B61 
 2506      626C6549 
 2506      6E745F49 
 2506      52516E00 
 2507              	.LASF114:
 2508 0518 74696D65 		.ascii	"time_frac\000"
 2508      5F667261 
 2508      6300
 2509              	.LASF25:
 2510 0522 54414D50 		.ascii	"TAMPER_IRQn\000"
 2510      45525F49 
 2510      52516E00 
 2511              	.LASF48:
 2512 052e 54494D31 		.ascii	"TIM1_UP_IRQn\000"
 2512      5F55505F 
 2512      4952516E 
 2512      00
 2513              	.LASF100:
 2514 053b 746D5F6D 		.ascii	"tm_mday\000"
 2514      64617900 
 2515              	.LASF62:
 2516 0543 55534152 		.ascii	"USART3_IRQn\000"
 2516      54335F49 
 2516      52516E00 
 2517              	.LASF97:
 2518 054f 746D5F73 		.ascii	"tm_sec\000"
 2518      656300
 2519              	.LASF51:
 2520 0556 54494D32 		.ascii	"TIM2_IRQn\000"
ARM GAS  C:\Users\z80\AppData\Local\Temp\cc9ubmT9.s 			page 51


 2520      5F495251 
 2520      6E00
 2521              	.LASF29:
 2522 0560 45585449 		.ascii	"EXTI0_IRQn\000"
 2522      305F4952 
 2522      516E00
 2523              	.LASF60:
 2524 056b 55534152 		.ascii	"USART1_IRQn\000"
 2524      54315F49 
 2524      52516E00 
 2525              	.LASF94:
 2526 0577 5254435F 		.ascii	"RTC_EVENT_OVERFLOW\000"
 2526      4556454E 
 2526      545F4F56 
 2526      4552464C 
 2526      4F5700
 2527              	.LASF90:
 2528 058a 52544341 		.ascii	"RTCAlarm\000"
 2528      6C61726D 
 2528      00
 2529              	.LASF106:
 2530 0593 7274635F 		.ascii	"rtc_lld_set_prescaler\000"
 2530      6C6C645F 
 2530      7365745F 
 2530      70726573 
 2530      63616C65 
 2531              	.LASF4:
 2532 05a9 75696E74 		.ascii	"uint8_t\000"
 2532      385F7400 
 2533              	.LASF113:
 2534 05b1 666C6167 		.ascii	"flags\000"
 2534      7300
 2535              	.LASF124:
 2536 05b7 474E5520 		.ascii	"GNU C 4.5.0\000"
 2536      4320342E 
 2536      352E3000 
 2537              	.LASF40:
 2538 05c3 444D4131 		.ascii	"DMA1_Channel7_IRQn\000"
 2538      5F436861 
 2538      6E6E656C 
 2538      375F4952 
 2538      516E00
 2539              	.LASF20:
 2540 05d6 44656275 		.ascii	"DebugMonitor_IRQn\000"
 2540      674D6F6E 
 2540      69746F72 
 2540      5F495251 
 2540      6E00
 2541              	.LASF55:
 2542 05e8 49324331 		.ascii	"I2C1_ER_IRQn\000"
 2542      5F45525F 
 2542      4952516E 
 2542      00
 2543              	.LASF26:
 2544 05f5 5254435F 		.ascii	"RTC_IRQn\000"
 2544      4952516E 
 2544      00
ARM GAS  C:\Users\z80\AppData\Local\Temp\cc9ubmT9.s 			page 52


 2545              	.LASF89:
 2546 05fe 74765F6D 		.ascii	"tv_msec\000"
 2546      73656300 
 2547              	.LASF45:
 2548 0606 43414E31 		.ascii	"CAN1_SCE_IRQn\000"
 2548      5F534345 
 2548      5F495251 
 2548      6E00
 2549              	.LASF28:
 2550 0614 5243435F 		.ascii	"RCC_IRQn\000"
 2550      4952516E 
 2550      00
 2551              	.LASF70:
 2552 061d 50524C4C 		.ascii	"PRLL\000"
 2552      00
 2553              	.LASF52:
 2554 0622 54494D33 		.ascii	"TIM3_IRQn\000"
 2554      5F495251 
 2554      6E00
 2555              	.LASF30:
 2556 062c 45585449 		.ascii	"EXTI1_IRQn\000"
 2556      315F4952 
 2556      516E00
 2557              		.ident	"GCC: (GNU) 4.5.0"
ARM GAS  C:\Users\z80\AppData\Local\Temp\cc9ubmT9.s 			page 53


DEFINED SYMBOLS
                            *ABS*:00000000 rtc_lld.c
C:\Users\z80\AppData\Local\Temp\cc9ubmT9.s:28     .bss.RTCD1:00000000 RTCD1
C:\Users\z80\AppData\Local\Temp\cc9ubmT9.s:25     .bss.RTCD1:00000000 $d
C:\Users\z80\AppData\Local\Temp\cc9ubmT9.s:31     .text.Vector4C:00000000 $t
C:\Users\z80\AppData\Local\Temp\cc9ubmT9.s:37     .text.Vector4C:00000000 Vector4C
C:\Users\z80\AppData\Local\Temp\cc9ubmT9.s:133    .text.rtc_lld_set_prescaler:00000000 $t
C:\Users\z80\AppData\Local\Temp\cc9ubmT9.s:139    .text.rtc_lld_set_prescaler:00000000 rtc_lld_set_prescaler
C:\Users\z80\AppData\Local\Temp\cc9ubmT9.s:191    .text.rtc_lld_init:00000000 $t
C:\Users\z80\AppData\Local\Temp\cc9ubmT9.s:197    .text.rtc_lld_init:00000000 rtc_lld_init
C:\Users\z80\AppData\Local\Temp\cc9ubmT9.s:256    .text.rtc_lld_set_time:00000000 $t
C:\Users\z80\AppData\Local\Temp\cc9ubmT9.s:262    .text.rtc_lld_set_time:00000000 rtc_lld_set_time
C:\Users\z80\AppData\Local\Temp\cc9ubmT9.s:325    .text.rtc_lld_get_time:00000000 $t
C:\Users\z80\AppData\Local\Temp\cc9ubmT9.s:331    .text.rtc_lld_get_time:00000000 rtc_lld_get_time
C:\Users\z80\AppData\Local\Temp\cc9ubmT9.s:416    .text.rtc_lld_set_alarm:00000000 $t
C:\Users\z80\AppData\Local\Temp\cc9ubmT9.s:422    .text.rtc_lld_set_alarm:00000000 rtc_lld_set_alarm
C:\Users\z80\AppData\Local\Temp\cc9ubmT9.s:503    .text.rtc_lld_get_alarm:00000000 $t
C:\Users\z80\AppData\Local\Temp\cc9ubmT9.s:509    .text.rtc_lld_get_alarm:00000000 rtc_lld_get_alarm
C:\Users\z80\AppData\Local\Temp\cc9ubmT9.s:552    .text.rtc_lld_set_callback:00000000 $t
C:\Users\z80\AppData\Local\Temp\cc9ubmT9.s:558    .text.rtc_lld_set_callback:00000000 rtc_lld_set_callback
C:\Users\z80\AppData\Local\Temp\cc9ubmT9.s:629    .text.rtc_lld_get_time_fat:00000000 $t
C:\Users\z80\AppData\Local\Temp\cc9ubmT9.s:635    .text.rtc_lld_get_time_fat:00000000 rtc_lld_get_time_fat
                     .debug_frame:00000010 $d

UNDEFINED SYMBOLS
_port_irq_epilogue
nvicEnableVector
rtcGetTimeTm
