ARM GAS  C:\Users\z80\AppData\Local\Temp\ccXdQxBL.s 			page 1


   1              		.syntax unified
   2              		.cpu cortex-m3
   3              		.fpu softvfp
   4              		.eabi_attribute 20, 1
   5              		.eabi_attribute 21, 1
   6              		.eabi_attribute 23, 3
   7              		.eabi_attribute 24, 1
   8              		.eabi_attribute 25, 1
   9              		.eabi_attribute 26, 1
  10              		.eabi_attribute 30, 6
  11              		.eabi_attribute 18, 4
  12              		.thumb
  13              		.file	"sd_spi_stm32.c"
  20 0000 2A040000 		.text
  20      02003C01 
  20      00000201 
  20      FB0E0D00 
  20      01010101 
  21              	.Ltext0:
  22              		.cfi_sections	.debug_frame
  23              		.section	.rodata.socket_state_mask_cp,"a",%progbits
  24              		.align	2
  25              		.type	socket_state_mask_cp, %object
  26              		.size	socket_state_mask_cp, 4
  27              	socket_state_mask_cp:
  28 0000 01000000 		.word	1
  29              		.section	.rodata.socket_state_mask_wp,"a",%progbits
  30              		.align	2
  31              		.type	socket_state_mask_wp, %object
  32              		.size	socket_state_mask_wp, 4
  33              	socket_state_mask_wp:
  34 0000 02000000 		.word	2
  35              		.section	.data.Stat,"aw",%progbits
  36              		.type	Stat, %object
  37              		.size	Stat, 1
  38              	Stat:
  39 0000 01       		.byte	1
  40              		.section	.bss.Timer1,"aw",%nobits
  41              		.align	2
  42              		.type	Timer1, %object
  43              		.size	Timer1, 4
  44              	Timer1:
  45 0000 00000000 		.space	4
  46              		.section	.bss.Timer2,"aw",%nobits
  47              		.align	2
  48              		.type	Timer2, %object
  49              		.size	Timer2, 4
  50              	Timer2:
  51 0000 00000000 		.space	4
  52              		.section	.bss.CardType,"aw",%nobits
  53              		.type	CardType, %object
ARM GAS  C:\Users\z80\AppData\Local\Temp\ccXdQxBL.s 			page 2


  54              		.size	CardType, 1
  55              	CardType:
  56 0000 00       		.space	1
  57              		.section	.text.interface_speed,"ax",%progbits
  58              		.align	2
  59              		.p2align 4,,15
  60              		.thumb
  61              		.thumb_func
  62              		.type	interface_speed, %function
  63              	interface_speed:
  64              	.LFB56:
  65              		.file 1 "fatfs/sd_spi_stm32.c"
  66              		.loc 1 195 0
  67              		.cfi_startproc
  68              		@ args = 0, pretend = 0, frame = 16
  69              		@ frame_needed = 0, uses_anonymous_args = 0
  70              		@ link register save eliminated.
  71 0000 84B0     		sub	sp, sp, #16
  72              	.LCFI0:
  73              		.cfi_def_cfa_offset 16
  74 0002 0346     		mov	r3, r0
  75 0004 8DF80730 		strb	r3, [sp, #7]
  76              		.loc 1 198 0
  77 0008 4FF46053 		mov	r3, #14336
  78 000c C4F20003 		movt	r3, 16384
  79 0010 1B88     		ldrh	r3, [r3, #0]	@ movhi
  80 0012 9BB2     		uxth	r3, r3
  81 0014 0393     		str	r3, [sp, #12]
  82              		.loc 1 199 0
  83 0016 9DF80730 		ldrb	r3, [sp, #7]	@ zero_extendqisi2
  84 001a 002B     		cmp	r3, #0
  85 001c 04D1     		bne	.L2
  86              		.loc 1 201 0
  87 001e 039B     		ldr	r3, [sp, #12]
  88 0020 43F03803 		orr	r3, r3, #56
  89 0024 0393     		str	r3, [sp, #12]
  90 0026 05E0     		b	.L3
  91              	.L2:
  92              		.loc 1 204 0
  93 0028 039B     		ldr	r3, [sp, #12]
  94 002a 23F03803 		bic	r3, r3, #56
  95 002e 43F00803 		orr	r3, r3, #8
  96 0032 0393     		str	r3, [sp, #12]
  97              	.L3:
  98              		.loc 1 206 0
  99 0034 4FF46053 		mov	r3, #14336
 100 0038 C4F20003 		movt	r3, 16384
 101 003c 039A     		ldr	r2, [sp, #12]
 102 003e 92B2     		uxth	r2, r2
 103 0040 1A80     		strh	r2, [r3, #0]	@ movhi
 104              		.loc 1 207 0
 105 0042 04B0     		add	sp, sp, #16
 106 0044 7047     		bx	lr
 107              		.cfi_endproc
 108              	.LFE56:
 109              		.size	interface_speed, .-interface_speed
 110 0046 00BFAFF3 		.section	.text.socket_wp_init,"ax",%progbits
ARM GAS  C:\Users\z80\AppData\Local\Temp\ccXdQxBL.s 			page 3


 110      0080AFF3 
 110      0080
 111              		.align	2
 112              		.p2align 4,,15
 113              		.thumb
 114              		.thumb_func
 115              		.type	socket_wp_init, %function
 116              	socket_wp_init:
 117              	.LFB57:
 118              		.loc 1 231 0
 119              		.cfi_startproc
 120              		@ args = 0, pretend = 0, frame = 0
 121              		@ frame_needed = 0, uses_anonymous_args = 0
 122              		@ link register save eliminated.
 123              		.loc 1 233 0
 124 0000 7047     		bx	lr
 125              		.cfi_endproc
 126              	.LFE57:
 127              		.size	socket_wp_init, .-socket_wp_init
 128 0002 00BFAFF3 		.section	.text.socket_is_write_protected,"ax",%progbits
 128      0080AFF3 
 128      0080AFF3 
 128      0080
 129              		.align	2
 130              		.p2align 4,,15
 131              		.thumb
 132              		.thumb_func
 133              		.type	socket_is_write_protected, %function
 134              	socket_is_write_protected:
 135              	.LFB58:
 136              		.loc 1 236 0
 137              		.cfi_startproc
 138              		@ args = 0, pretend = 0, frame = 0
 139              		@ frame_needed = 0, uses_anonymous_args = 0
 140              		@ link register save eliminated.
 141              		.loc 1 237 0
 142 0000 4FF00003 		mov	r3, #0
 143              		.loc 1 238 0
 144 0004 1846     		mov	r0, r3
 145 0006 7047     		bx	lr
 146              		.cfi_endproc
 147              	.LFE58:
 148              		.size	socket_is_write_protected, .-socket_is_write_protected
 149 0008 AFF30080 		.section	.text.socket_cp_init,"ax",%progbits
 149      AFF30080 
 150              		.align	2
 151              		.p2align 4,,15
 152              		.thumb
 153              		.thumb_func
 154              		.type	socket_cp_init, %function
 155              	socket_cp_init:
 156              	.LFB59:
 157              		.loc 1 265 0
 158              		.cfi_startproc
 159              		@ args = 0, pretend = 0, frame = 0
 160              		@ frame_needed = 0, uses_anonymous_args = 0
 161              		@ link register save eliminated.
ARM GAS  C:\Users\z80\AppData\Local\Temp\ccXdQxBL.s 			page 4


 162              		.loc 1 267 0
 163 0000 7047     		bx	lr
 164              		.cfi_endproc
 165              	.LFE59:
 166              		.size	socket_cp_init, .-socket_cp_init
 167 0002 00BFAFF3 		.section	.text.socket_is_empty,"ax",%progbits
 167      0080AFF3 
 167      0080AFF3 
 167      0080
 168              		.align	2
 169              		.p2align 4,,15
 170              		.thumb
 171              		.thumb_func
 172              		.type	socket_is_empty, %function
 173              	socket_is_empty:
 174              	.LFB60:
 175              		.loc 1 270 0
 176              		.cfi_startproc
 177              		@ args = 0, pretend = 0, frame = 0
 178              		@ frame_needed = 0, uses_anonymous_args = 0
 179              		@ link register save eliminated.
 180              		.loc 1 271 0
 181 0000 4FF00003 		mov	r3, #0
 182              		.loc 1 272 0
 183 0004 1846     		mov	r0, r3
 184 0006 7047     		bx	lr
 185              		.cfi_endproc
 186              	.LFE60:
 187              		.size	socket_is_empty, .-socket_is_empty
 188 0008 AFF30080 		.section	.text.card_power,"ax",%progbits
 188      AFF30080 
 189              		.align	2
 190              		.p2align 4,,15
 191              		.thumb
 192              		.thumb_func
 193              		.type	card_power, %function
 194              	card_power:
 195              	.LFB61:
 196              		.loc 1 320 0
 197              		.cfi_startproc
 198              		@ args = 0, pretend = 0, frame = 8
 199              		@ frame_needed = 0, uses_anonymous_args = 0
 200              		@ link register save eliminated.
 201 0000 82B0     		sub	sp, sp, #8
 202              	.LCFI1:
 203              		.cfi_def_cfa_offset 8
 204 0002 0346     		mov	r3, r0
 205 0004 8DF80730 		strb	r3, [sp, #7]
 206              		.loc 1 322 0
 207 0008 02B0     		add	sp, sp, #8
 208 000a 7047     		bx	lr
 209              		.cfi_endproc
 210              	.LFE61:
 211              		.size	card_power, .-card_power
 212              		.section	.text.stm32_spi_rw,"ax",%progbits
 213              		.align	2
 214              		.p2align 4,,15
ARM GAS  C:\Users\z80\AppData\Local\Temp\ccXdQxBL.s 			page 5


 215              		.thumb
 216              		.thumb_func
 217              		.type	stm32_spi_rw, %function
 218              	stm32_spi_rw:
 219              	.LFB62:
 220              		.loc 1 338 0
 221              		.cfi_startproc
 222              		@ args = 0, pretend = 0, frame = 8
 223              		@ frame_needed = 0, uses_anonymous_args = 0
 224 0000 00B5     		push	{lr}
 225              	.LCFI2:
 226              		.cfi_def_cfa_offset 4
 227 0002 83B0     		sub	sp, sp, #12
 228              	.LCFI3:
 229              		.cfi_def_cfa_offset 16
 230 0004 0346     		mov	r3, r0
 231 0006 8DF80730 		strb	r3, [sp, #7]
 232              		.loc 1 343 0
 233 000a 9DF80730 		ldrb	r3, [sp, #7]	@ zero_extendqisi2
 234 000e 9BB2     		uxth	r3, r3
 235 0010 4FF46050 		mov	r0, #14336
 236 0014 C4F20000 		movt	r0, 16384
 237 0018 1946     		mov	r1, r3
 238              		.cfi_offset 14, -4
 239 001a FFF7FEFF 		bl	SPI_I2S_SendData
 240              		.loc 1 346 0
 241 001e 00BF     		nop
 242              	.L10:
 243              		.loc 1 346 0 is_stmt 0 discriminator 1
 244 0020 4FF46050 		mov	r0, #14336
 245 0024 C4F20000 		movt	r0, 16384
 246 0028 4FF00101 		mov	r1, #1
 247 002c FFF7FEFF 		bl	SPI_I2S_GetFlagStatus
 248 0030 0346     		mov	r3, r0
 249 0032 002B     		cmp	r3, #0
 250 0034 F4D0     		beq	.L10
 251              		.loc 1 349 0 is_stmt 1
 252 0036 4FF46050 		mov	r0, #14336
 253 003a C4F20000 		movt	r0, 16384
 254 003e FFF7FEFF 		bl	SPI_I2S_ReceiveData
 255 0042 0346     		mov	r3, r0
 256 0044 DBB2     		uxtb	r3, r3
 257              		.loc 1 350 0
 258 0046 1846     		mov	r0, r3
 259 0048 03B0     		add	sp, sp, #12
 260 004a 00BD     		pop	{pc}
 261              		.cfi_endproc
 262              	.LFE62:
 263              		.size	stm32_spi_rw, .-stm32_spi_rw
 264 004c AFF30080 		.section	.text.rcvr_spi,"ax",%progbits
 265              		.align	2
 266              		.p2align 4,,15
 267              		.thumb
 268              		.thumb_func
 269              		.type	rcvr_spi, %function
 270              	rcvr_spi:
 271              	.LFB63:
ARM GAS  C:\Users\z80\AppData\Local\Temp\ccXdQxBL.s 			page 6


 272              		.loc 1 366 0
 273              		.cfi_startproc
 274              		@ args = 0, pretend = 0, frame = 0
 275              		@ frame_needed = 0, uses_anonymous_args = 0
 276 0000 08B5     		push	{r3, lr}
 277              	.LCFI4:
 278              		.cfi_def_cfa_offset 8
 279              		.loc 1 367 0
 280 0002 4FF0FF00 		mov	r0, #255
 281              		.cfi_offset 14, -4
 282              		.cfi_offset 3, -8
 283 0006 FFF7FEFF 		bl	stm32_spi_rw
 284 000a 0346     		mov	r3, r0
 285              		.loc 1 368 0
 286 000c 1846     		mov	r0, r3
 287 000e 08BD     		pop	{r3, pc}
 288              		.cfi_endproc
 289              	.LFE63:
 290              		.size	rcvr_spi, .-rcvr_spi
 291              		.section	.text.wait_ready,"ax",%progbits
 292              		.align	2
 293              		.p2align 4,,15
 294              		.thumb
 295              		.thumb_func
 296              		.type	wait_ready, %function
 297              	wait_ready:
 298              	.LFB64:
 299              		.loc 1 381 0
 300              		.cfi_startproc
 301              		@ args = 0, pretend = 0, frame = 8
 302              		@ frame_needed = 0, uses_anonymous_args = 0
 303 0000 00B5     		push	{lr}
 304              	.LCFI5:
 305              		.cfi_def_cfa_offset 4
 306 0002 83B0     		sub	sp, sp, #12
 307              	.LCFI6:
 308              		.cfi_def_cfa_offset 16
 309              		.loc 1 385 0
 310 0004 40F20003 		movw	r3, #:lower16:Timer2
 311 0008 C0F20003 		movt	r3, #:upper16:Timer2
 312 000c 4FF03202 		mov	r2, #50
 313 0010 1A60     		str	r2, [r3, #0]
 314              		.loc 1 386 0
 315              		.cfi_offset 14, -4
 316 0012 FFF7FEFF 		bl	rcvr_spi
 317              	.L14:
 318              		.loc 1 388 0 discriminator 1
 319 0016 FFF7FEFF 		bl	rcvr_spi
 320 001a 0346     		mov	r3, r0
 321 001c 8DF80730 		strb	r3, [sp, #7]
 322              		.loc 1 389 0 discriminator 1
 323 0020 9DF80730 		ldrb	r3, [sp, #7]	@ zero_extendqisi2
 324 0024 FF2B     		cmp	r3, #255
 325 0026 06D0     		beq	.L13
 326 0028 40F20003 		movw	r3, #:lower16:Timer2
 327 002c C0F20003 		movt	r3, #:upper16:Timer2
 328 0030 1B68     		ldr	r3, [r3, #0]
ARM GAS  C:\Users\z80\AppData\Local\Temp\ccXdQxBL.s 			page 7


 329 0032 002B     		cmp	r3, #0
 330 0034 EFD1     		bne	.L14
 331              	.L13:
 332              		.loc 1 391 0
 333 0036 9DF80730 		ldrb	r3, [sp, #7]	@ zero_extendqisi2
 334              		.loc 1 392 0
 335 003a 1846     		mov	r0, r3
 336 003c 03B0     		add	sp, sp, #12
 337 003e 00BD     		pop	{pc}
 338              		.cfi_endproc
 339              	.LFE64:
 340              		.size	wait_ready, .-wait_ready
 341              		.section	.text.release_spi,"ax",%progbits
 342              		.align	2
 343              		.p2align 4,,15
 344              		.thumb
 345              		.thumb_func
 346              		.type	release_spi, %function
 347              	release_spi:
 348              	.LFB65:
 349              		.loc 1 402 0
 350              		.cfi_startproc
 351              		@ args = 0, pretend = 0, frame = 0
 352              		@ frame_needed = 0, uses_anonymous_args = 0
 353 0000 08B5     		push	{r3, lr}
 354              	.LCFI7:
 355              		.cfi_def_cfa_offset 8
 356              		.loc 1 403 0
 357 0002 4FF44060 		mov	r0, #3072
 358 0006 C4F20100 		movt	r0, 16385
 359 000a 4FF48051 		mov	r1, #4096
 360              		.cfi_offset 14, -4
 361              		.cfi_offset 3, -8
 362 000e FFF7FEFF 		bl	GPIO_SetBits
 363              		.loc 1 404 0
 364 0012 FFF7FEFF 		bl	rcvr_spi
 365              		.loc 1 405 0
 366 0016 08BD     		pop	{r3, pc}
 367              		.cfi_endproc
 368              	.LFE65:
 369              		.size	release_spi, .-release_spi
 370 0018 AFF30080 		.section	.text.power_on,"ax",%progbits
 370      AFF30080 
 371              		.align	2
 372              		.p2align 4,,15
 373              		.thumb
 374              		.thumb_func
 375              		.type	power_on, %function
 376              	power_on:
 377              	.LFB66:
 378              		.loc 1 504 0
 379              		.cfi_startproc
 380              		@ args = 0, pretend = 0, frame = 32
 381              		@ frame_needed = 0, uses_anonymous_args = 0
 382 0000 00B5     		push	{lr}
 383              	.LCFI8:
 384              		.cfi_def_cfa_offset 4
ARM GAS  C:\Users\z80\AppData\Local\Temp\ccXdQxBL.s 			page 8


 385 0002 89B0     		sub	sp, sp, #36
 386              	.LCFI9:
 387              		.cfi_def_cfa_offset 40
 388              		.loc 1 510 0
 389 0004 4FF00800 		mov	r0, #8
 390 0008 4FF00101 		mov	r1, #1
 391              		.cfi_offset 14, -4
 392 000c FFF7FEFF 		bl	RCC_APB2PeriphClockCmd
 393              		.loc 1 512 0
 394 0010 4FF48040 		mov	r0, #16384
 395 0014 4FF00101 		mov	r1, #1
 396 0018 FFF7FEFF 		bl	RCC_APB1PeriphClockCmd
 397              		.loc 1 514 0
 398 001c 4FF00100 		mov	r0, #1
 399 0020 FFF7FEFF 		bl	card_power
 400              		.loc 1 515 0
 401 0024 FFF7FEFF 		bl	socket_cp_init
 402              		.loc 1 516 0
 403 0028 FFF7FEFF 		bl	socket_wp_init
 404              		.loc 1 520 0
 405 002c 4FF00003 		mov	r3, #0
 406 0030 0093     		str	r3, [sp, #0]
 407 0032 04E0     		b	.L17
 408              	.L18:
 409              		.loc 1 521 0 discriminator 2
 410              	@ 521 "fatfs/sd_spi_stm32.c" 1
 411 0034 00BF     		nop;
 412              	@ 0 "" 2
 413              		.loc 1 520 0 discriminator 2
 414              		.thumb
 415 0036 009B     		ldr	r3, [sp, #0]
 416 0038 03F10103 		add	r3, r3, #1
 417 003c 0093     		str	r3, [sp, #0]
 418              	.L17:
 419              		.loc 1 520 0 is_stmt 0 discriminator 1
 420 003e 009A     		ldr	r2, [sp, #0]
 421 0040 47F22F53 		movw	r3, #29999
 422 0044 9A42     		cmp	r2, r3
 423 0046 F5DD     		ble	.L18
 424              		.loc 1 524 0 is_stmt 1
 425 0048 4FF48053 		mov	r3, #4096
 426 004c ADF80830 		strh	r3, [sp, #8]	@ movhi
 427              		.loc 1 525 0
 428 0050 4FF01003 		mov	r3, #16
 429 0054 8DF80B30 		strb	r3, [sp, #11]
 430              		.loc 1 526 0
 431 0058 4FF00303 		mov	r3, #3
 432 005c 8DF80A30 		strb	r3, [sp, #10]
 433              		.loc 1 527 0
 434 0060 02AB     		add	r3, sp, #8
 435 0062 4FF44060 		mov	r0, #3072
 436 0066 C4F20100 		movt	r0, 16385
 437 006a 1946     		mov	r1, r3
 438 006c FFF7FEFF 		bl	GPIO_Init
 439              		.loc 1 530 0
 440 0070 4FF44060 		mov	r0, #3072
 441 0074 C4F20100 		movt	r0, 16385
ARM GAS  C:\Users\z80\AppData\Local\Temp\ccXdQxBL.s 			page 9


 442 0078 4FF48051 		mov	r1, #4096
 443 007c FFF7FEFF 		bl	GPIO_SetBits
 444              		.loc 1 533 0
 445 0080 4FF42043 		mov	r3, #40960
 446 0084 ADF80830 		strh	r3, [sp, #8]	@ movhi
 447              		.loc 1 534 0
 448 0088 4FF00303 		mov	r3, #3
 449 008c 8DF80A30 		strb	r3, [sp, #10]
 450              		.loc 1 535 0
 451 0090 4FF01803 		mov	r3, #24
 452 0094 8DF80B30 		strb	r3, [sp, #11]
 453              		.loc 1 536 0
 454 0098 02AB     		add	r3, sp, #8
 455 009a 4FF44060 		mov	r0, #3072
 456 009e C4F20100 		movt	r0, 16385
 457 00a2 1946     		mov	r1, r3
 458 00a4 FFF7FEFF 		bl	GPIO_Init
 459              		.loc 1 538 0
 460 00a8 4FF48043 		mov	r3, #16384
 461 00ac ADF80830 		strh	r3, [sp, #8]	@ movhi
 462              		.loc 1 539 0
 463 00b0 4FF04803 		mov	r3, #72
 464 00b4 8DF80B30 		strb	r3, [sp, #11]
 465              		.loc 1 540 0
 466 00b8 02AB     		add	r3, sp, #8
 467 00ba 4FF44060 		mov	r0, #3072
 468 00be C4F20100 		movt	r0, 16385
 469 00c2 1946     		mov	r1, r3
 470 00c4 FFF7FEFF 		bl	GPIO_Init
 471              		.loc 1 543 0
 472 00c8 4FF00003 		mov	r3, #0
 473 00cc ADF80C30 		strh	r3, [sp, #12]	@ movhi
 474              		.loc 1 544 0
 475 00d0 4FF48273 		mov	r3, #260
 476 00d4 ADF80E30 		strh	r3, [sp, #14]	@ movhi
 477              		.loc 1 545 0
 478 00d8 4FF00003 		mov	r3, #0
 479 00dc ADF81030 		strh	r3, [sp, #16]	@ movhi
 480              		.loc 1 546 0
 481 00e0 4FF00003 		mov	r3, #0
 482 00e4 ADF81230 		strh	r3, [sp, #18]	@ movhi
 483              		.loc 1 547 0
 484 00e8 4FF00003 		mov	r3, #0
 485 00ec ADF81430 		strh	r3, [sp, #20]	@ movhi
 486              		.loc 1 548 0
 487 00f0 4FF40073 		mov	r3, #512
 488 00f4 ADF81630 		strh	r3, [sp, #22]	@ movhi
 489              		.loc 1 549 0
 490 00f8 4FF03803 		mov	r3, #56
 491 00fc ADF81830 		strh	r3, [sp, #24]	@ movhi
 492              		.loc 1 550 0
 493 0100 4FF00003 		mov	r3, #0
 494 0104 ADF81A30 		strh	r3, [sp, #26]	@ movhi
 495              		.loc 1 551 0
 496 0108 4FF00703 		mov	r3, #7
 497 010c ADF81C30 		strh	r3, [sp, #28]	@ movhi
 498              		.loc 1 553 0
ARM GAS  C:\Users\z80\AppData\Local\Temp\ccXdQxBL.s 			page 10


 499 0110 03AB     		add	r3, sp, #12
 500 0112 4FF46050 		mov	r0, #14336
 501 0116 C4F20000 		movt	r0, 16384
 502 011a 1946     		mov	r1, r3
 503 011c FFF7FEFF 		bl	SPI_Init
 504              		.loc 1 554 0
 505 0120 4FF46050 		mov	r0, #14336
 506 0124 C4F20000 		movt	r0, 16384
 507 0128 4FF00001 		mov	r1, #0
 508 012c FFF7FEFF 		bl	SPI_CalculateCRC
 509              		.loc 1 555 0
 510 0130 4FF46050 		mov	r0, #14336
 511 0134 C4F20000 		movt	r0, 16384
 512 0138 4FF00101 		mov	r1, #1
 513 013c FFF7FEFF 		bl	SPI_Cmd
 514              		.loc 1 558 0
 515 0140 00BF     		nop
 516              	.L19:
 517              		.loc 1 558 0 is_stmt 0 discriminator 1
 518 0142 4FF46050 		mov	r0, #14336
 519 0146 C4F20000 		movt	r0, 16384
 520 014a 4FF00201 		mov	r1, #2
 521 014e FFF7FEFF 		bl	SPI_I2S_GetFlagStatus
 522 0152 0346     		mov	r3, r0
 523 0154 002B     		cmp	r3, #0
 524 0156 F4D0     		beq	.L19
 525              		.loc 1 559 0 is_stmt 1
 526 0158 4FF46050 		mov	r0, #14336
 527 015c C4F20000 		movt	r0, 16384
 528 0160 FFF7FEFF 		bl	SPI_I2S_ReceiveData
 529 0164 0346     		mov	r3, r0
 530 0166 DBB2     		uxtb	r3, r3
 531 0168 8DF80730 		strb	r3, [sp, #7]
 532              		.loc 1 565 0
 533 016c 09B0     		add	sp, sp, #36
 534 016e 00BD     		pop	{pc}
 535              		.cfi_endproc
 536              	.LFE66:
 537              		.size	power_on, .-power_on
 538              		.section	.text.power_off,"ax",%progbits
 539              		.align	2
 540              		.p2align 4,,15
 541              		.thumb
 542              		.thumb_func
 543              		.type	power_off, %function
 544              	power_off:
 545              	.LFB67:
 546              		.loc 1 569 0
 547              		.cfi_startproc
 548              		@ args = 0, pretend = 0, frame = 8
 549              		@ frame_needed = 0, uses_anonymous_args = 0
 550 0000 00B5     		push	{lr}
 551              	.LCFI10:
 552              		.cfi_def_cfa_offset 4
 553 0002 83B0     		sub	sp, sp, #12
 554              	.LCFI11:
 555              		.cfi_def_cfa_offset 16
ARM GAS  C:\Users\z80\AppData\Local\Temp\ccXdQxBL.s 			page 11


 556              		.loc 1 572 0
 557 0004 40F20003 		movw	r3, #:lower16:Stat
 558 0008 C0F20003 		movt	r3, #:upper16:Stat
 559 000c 1B78     		ldrb	r3, [r3, #0]
 560 000e DBB2     		uxtb	r3, r3
 561 0010 03F00103 		and	r3, r3, #1
 562 0014 002B     		cmp	r3, #0
 563 0016 0BD1     		bne	.L21
 564              		.cfi_offset 14, -4
 565              		.loc 1 573 0
 566 0018 4FF44060 		mov	r0, #3072
 567 001c C4F20100 		movt	r0, 16385
 568 0020 4FF48051 		mov	r1, #4096
 569 0024 FFF7FEFF 		bl	GPIO_ResetBits
 570              		.loc 1 574 0
 571 0028 FFF7FEFF 		bl	wait_ready
 572              		.loc 1 575 0
 573 002c FFF7FEFF 		bl	release_spi
 574              	.L21:
 575              		.loc 1 578 0
 576 0030 4FF46050 		mov	r0, #14336
 577 0034 C4F20000 		movt	r0, 16384
 578 0038 FFF7FEFF 		bl	SPI_I2S_DeInit
 579              		.loc 1 579 0
 580 003c 4FF46050 		mov	r0, #14336
 581 0040 C4F20000 		movt	r0, 16384
 582 0044 4FF00001 		mov	r1, #0
 583 0048 FFF7FEFF 		bl	SPI_Cmd
 584              		.loc 1 580 0
 585 004c 4FF48040 		mov	r0, #16384
 586 0050 4FF00001 		mov	r1, #0
 587 0054 FFF7FEFF 		bl	RCC_APB1PeriphClockCmd
 588              		.loc 1 583 0
 589 0058 4FF46043 		mov	r3, #57344
 590 005c ADF80430 		strh	r3, [sp, #4]	@ movhi
 591              		.loc 1 584 0
 592 0060 4FF02803 		mov	r3, #40
 593 0064 8DF80730 		strb	r3, [sp, #7]
 594              		.loc 1 585 0
 595 0068 01AB     		add	r3, sp, #4
 596 006a 4FF44060 		mov	r0, #3072
 597 006e C4F20100 		movt	r0, 16385
 598 0072 1946     		mov	r1, r3
 599 0074 FFF7FEFF 		bl	GPIO_Init
 600              		.loc 1 587 0
 601 0078 4FF00000 		mov	r0, #0
 602 007c FFF7FEFF 		bl	card_power
 603              		.loc 1 589 0
 604 0080 40F20003 		movw	r3, #:lower16:Stat
 605 0084 C0F20003 		movt	r3, #:upper16:Stat
 606 0088 1B78     		ldrb	r3, [r3, #0]
 607 008a DBB2     		uxtb	r3, r3
 608 008c 43F00103 		orr	r3, r3, #1
 609 0090 DAB2     		uxtb	r2, r3
 610 0092 40F20003 		movw	r3, #:lower16:Stat
 611 0096 C0F20003 		movt	r3, #:upper16:Stat
 612 009a 1A70     		strb	r2, [r3, #0]
ARM GAS  C:\Users\z80\AppData\Local\Temp\ccXdQxBL.s 			page 12


 613              		.loc 1 590 0
 614 009c 03B0     		add	sp, sp, #12
 615 009e 00BD     		pop	{pc}
 616              		.cfi_endproc
 617              	.LFE67:
 618              		.size	power_off, .-power_off
 619              		.section	.text.rcvr_datablock,"ax",%progbits
 620              		.align	2
 621              		.p2align 4,,15
 622              		.thumb
 623              		.thumb_func
 624              		.type	rcvr_datablock, %function
 625              	rcvr_datablock:
 626              	.LFB68:
 627              		.loc 1 602 0
 628              		.cfi_startproc
 629              		@ args = 0, pretend = 0, frame = 16
 630              		@ frame_needed = 0, uses_anonymous_args = 0
 631 0000 00B5     		push	{lr}
 632              	.LCFI12:
 633              		.cfi_def_cfa_offset 4
 634 0002 85B0     		sub	sp, sp, #20
 635              	.LCFI13:
 636              		.cfi_def_cfa_offset 24
 637 0004 0190     		str	r0, [sp, #4]
 638 0006 0091     		str	r1, [sp, #0]
 639              		.loc 1 606 0
 640 0008 40F20003 		movw	r3, #:lower16:Timer1
 641 000c C0F20003 		movt	r3, #:upper16:Timer1
 642 0010 4FF00A02 		mov	r2, #10
 643 0014 1A60     		str	r2, [r3, #0]
 644              	.L24:
 645              		.loc 1 608 0 discriminator 1
 646              		.cfi_offset 14, -4
 647 0016 FFF7FEFF 		bl	rcvr_spi
 648 001a 0346     		mov	r3, r0
 649 001c 8DF80F30 		strb	r3, [sp, #15]
 650              		.loc 1 609 0 discriminator 1
 651 0020 9DF80F30 		ldrb	r3, [sp, #15]	@ zero_extendqisi2
 652 0024 FF2B     		cmp	r3, #255
 653 0026 06D1     		bne	.L23
 654 0028 40F20003 		movw	r3, #:lower16:Timer1
 655 002c C0F20003 		movt	r3, #:upper16:Timer1
 656 0030 1B68     		ldr	r3, [r3, #0]
 657 0032 002B     		cmp	r3, #0
 658 0034 EFD1     		bne	.L24
 659              	.L23:
 660              		.loc 1 610 0
 661 0036 9DF80F30 		ldrb	r3, [sp, #15]	@ zero_extendqisi2
 662 003a FE2B     		cmp	r3, #254
 663 003c 02D0     		beq	.L25
 664              		.loc 1 610 0 is_stmt 0 discriminator 1
 665 003e 4FF00003 		mov	r3, #0
 666 0042 3CE0     		b	.L26
 667              	.L25:
 668              		.loc 1 616 0 is_stmt 1 discriminator 1
 669 0044 4FF0FF00 		mov	r0, #255
ARM GAS  C:\Users\z80\AppData\Local\Temp\ccXdQxBL.s 			page 13


 670 0048 FFF7FEFF 		bl	stm32_spi_rw
 671 004c 0346     		mov	r3, r0
 672 004e 1A46     		mov	r2, r3
 673 0050 019B     		ldr	r3, [sp, #4]
 674 0052 1A70     		strb	r2, [r3, #0]
 675 0054 019B     		ldr	r3, [sp, #4]
 676 0056 03F10103 		add	r3, r3, #1
 677 005a 0193     		str	r3, [sp, #4]
 678              		.loc 1 617 0 discriminator 1
 679 005c 4FF0FF00 		mov	r0, #255
 680 0060 FFF7FEFF 		bl	stm32_spi_rw
 681 0064 0346     		mov	r3, r0
 682 0066 1A46     		mov	r2, r3
 683 0068 019B     		ldr	r3, [sp, #4]
 684 006a 1A70     		strb	r2, [r3, #0]
 685 006c 019B     		ldr	r3, [sp, #4]
 686 006e 03F10103 		add	r3, r3, #1
 687 0072 0193     		str	r3, [sp, #4]
 688              		.loc 1 618 0 discriminator 1
 689 0074 4FF0FF00 		mov	r0, #255
 690 0078 FFF7FEFF 		bl	stm32_spi_rw
 691 007c 0346     		mov	r3, r0
 692 007e 1A46     		mov	r2, r3
 693 0080 019B     		ldr	r3, [sp, #4]
 694 0082 1A70     		strb	r2, [r3, #0]
 695 0084 019B     		ldr	r3, [sp, #4]
 696 0086 03F10103 		add	r3, r3, #1
 697 008a 0193     		str	r3, [sp, #4]
 698              		.loc 1 619 0 discriminator 1
 699 008c 4FF0FF00 		mov	r0, #255
 700 0090 FFF7FEFF 		bl	stm32_spi_rw
 701 0094 0346     		mov	r3, r0
 702 0096 1A46     		mov	r2, r3
 703 0098 019B     		ldr	r3, [sp, #4]
 704 009a 1A70     		strb	r2, [r3, #0]
 705 009c 019B     		ldr	r3, [sp, #4]
 706 009e 03F10103 		add	r3, r3, #1
 707 00a2 0193     		str	r3, [sp, #4]
 708              		.loc 1 620 0 discriminator 1
 709 00a4 009B     		ldr	r3, [sp, #0]
 710 00a6 A3F10403 		sub	r3, r3, #4
 711 00aa 0093     		str	r3, [sp, #0]
 712 00ac 009B     		ldr	r3, [sp, #0]
 713 00ae 002B     		cmp	r3, #0
 714 00b0 C8D1     		bne	.L25
 715              		.loc 1 623 0
 716 00b2 FFF7FEFF 		bl	rcvr_spi
 717              		.loc 1 624 0
 718 00b6 FFF7FEFF 		bl	rcvr_spi
 719              		.loc 1 626 0
 720 00ba 4FF00103 		mov	r3, #1
 721              	.L26:
 722              		.loc 1 627 0
 723 00be 1846     		mov	r0, r3
 724 00c0 05B0     		add	sp, sp, #20
 725 00c2 00BD     		pop	{pc}
 726              		.cfi_endproc
ARM GAS  C:\Users\z80\AppData\Local\Temp\ccXdQxBL.s 			page 14


 727              	.LFE68:
 728              		.size	rcvr_datablock, .-rcvr_datablock
 729 00c4 AFF30080 		.section	.text.send_cmd,"ax",%progbits
 729      AFF30080 
 729      AFF30080 
 730              		.align	2
 731              		.p2align 4,,15
 732              		.thumb
 733              		.thumb_func
 734              		.type	send_cmd, %function
 735              	send_cmd:
 736              	.LFB69:
 737              		.loc 1 684 0
 738              		.cfi_startproc
 739              		@ args = 0, pretend = 0, frame = 16
 740              		@ frame_needed = 0, uses_anonymous_args = 0
 741 0000 00B5     		push	{lr}
 742              	.LCFI14:
 743              		.cfi_def_cfa_offset 4
 744 0002 85B0     		sub	sp, sp, #20
 745              	.LCFI15:
 746              		.cfi_def_cfa_offset 24
 747 0004 0346     		mov	r3, r0
 748 0006 0091     		str	r1, [sp, #0]
 749 0008 8DF80730 		strb	r3, [sp, #7]
 750              		.loc 1 688 0
 751 000c 9DF80730 		ldrb	r3, [sp, #7]	@ zero_extendqisi2
 752 0010 5BB2     		sxtb	r3, r3
 753 0012 002B     		cmp	r3, #0
 754 0014 15DA     		bge	.L28
 755              		.cfi_offset 14, -4
 756              		.loc 1 689 0
 757 0016 9DF80730 		ldrb	r3, [sp, #7]
 758 001a 03F07F03 		and	r3, r3, #127
 759 001e 8DF80730 		strb	r3, [sp, #7]
 760              		.loc 1 690 0
 761 0022 4FF07700 		mov	r0, #119
 762 0026 4FF00001 		mov	r1, #0
 763 002a FFF7E9FF 		bl	send_cmd
 764 002e 0346     		mov	r3, r0
 765 0030 8DF80E30 		strb	r3, [sp, #14]
 766              		.loc 1 691 0
 767 0034 9DF80E30 		ldrb	r3, [sp, #14]	@ zero_extendqisi2
 768 0038 012B     		cmp	r3, #1
 769 003a 02D9     		bls	.L28
 770              		.loc 1 691 0 is_stmt 0 discriminator 1
 771 003c 9DF80E30 		ldrb	r3, [sp, #14]	@ zero_extendqisi2
 772 0040 6FE0     		b	.L29
 773              	.L28:
 774              		.loc 1 695 0 is_stmt 1
 775 0042 4FF44060 		mov	r0, #3072
 776 0046 C4F20100 		movt	r0, 16385
 777 004a 4FF48051 		mov	r1, #4096
 778 004e FFF7FEFF 		bl	GPIO_SetBits
 779              		.loc 1 696 0
 780 0052 4FF44060 		mov	r0, #3072
 781 0056 C4F20100 		movt	r0, 16385
ARM GAS  C:\Users\z80\AppData\Local\Temp\ccXdQxBL.s 			page 15


 782 005a 4FF48051 		mov	r1, #4096
 783 005e FFF7FEFF 		bl	GPIO_ResetBits
 784              		.loc 1 697 0
 785 0062 FFF7FEFF 		bl	wait_ready
 786 0066 0346     		mov	r3, r0
 787 0068 FF2B     		cmp	r3, #255
 788 006a 02D0     		beq	.L30
 789              		.loc 1 698 0
 790 006c 4FF0FF03 		mov	r3, #255
 791 0070 57E0     		b	.L29
 792              	.L30:
 793              		.loc 1 702 0
 794 0072 9DF80730 		ldrb	r3, [sp, #7]	@ zero_extendqisi2
 795 0076 1846     		mov	r0, r3
 796 0078 FFF7FEFF 		bl	stm32_spi_rw
 797              		.loc 1 703 0
 798 007c 009B     		ldr	r3, [sp, #0]
 799 007e 4FEA1363 		lsr	r3, r3, #24
 800 0082 DBB2     		uxtb	r3, r3
 801 0084 1846     		mov	r0, r3
 802 0086 FFF7FEFF 		bl	stm32_spi_rw
 803              		.loc 1 704 0
 804 008a 009B     		ldr	r3, [sp, #0]
 805 008c 4FEA1343 		lsr	r3, r3, #16
 806 0090 DBB2     		uxtb	r3, r3
 807 0092 1846     		mov	r0, r3
 808 0094 FFF7FEFF 		bl	stm32_spi_rw
 809              		.loc 1 705 0
 810 0098 009B     		ldr	r3, [sp, #0]
 811 009a 4FEA1323 		lsr	r3, r3, #8
 812 009e DBB2     		uxtb	r3, r3
 813 00a0 1846     		mov	r0, r3
 814 00a2 FFF7FEFF 		bl	stm32_spi_rw
 815              		.loc 1 706 0
 816 00a6 009B     		ldr	r3, [sp, #0]
 817 00a8 DBB2     		uxtb	r3, r3
 818 00aa 1846     		mov	r0, r3
 819 00ac FFF7FEFF 		bl	stm32_spi_rw
 820              		.loc 1 707 0
 821 00b0 4FF00103 		mov	r3, #1
 822 00b4 8DF80F30 		strb	r3, [sp, #15]
 823              		.loc 1 708 0
 824 00b8 9DF80730 		ldrb	r3, [sp, #7]	@ zero_extendqisi2
 825 00bc 402B     		cmp	r3, #64
 826 00be 03D1     		bne	.L31
 827              		.loc 1 708 0 is_stmt 0 discriminator 1
 828 00c0 4FF09503 		mov	r3, #149
 829 00c4 8DF80F30 		strb	r3, [sp, #15]
 830              	.L31:
 831              		.loc 1 709 0 is_stmt 1
 832 00c8 9DF80730 		ldrb	r3, [sp, #7]	@ zero_extendqisi2
 833 00cc 482B     		cmp	r3, #72
 834 00ce 03D1     		bne	.L32
 835              		.loc 1 709 0 is_stmt 0 discriminator 1
 836 00d0 4FF08703 		mov	r3, #135
 837 00d4 8DF80F30 		strb	r3, [sp, #15]
 838              	.L32:
ARM GAS  C:\Users\z80\AppData\Local\Temp\ccXdQxBL.s 			page 16


 839              		.loc 1 710 0 is_stmt 1
 840 00d8 9DF80F30 		ldrb	r3, [sp, #15]	@ zero_extendqisi2
 841 00dc 1846     		mov	r0, r3
 842 00de FFF7FEFF 		bl	stm32_spi_rw
 843              		.loc 1 713 0
 844 00e2 9DF80730 		ldrb	r3, [sp, #7]	@ zero_extendqisi2
 845 00e6 4C2B     		cmp	r3, #76
 846 00e8 01D1     		bne	.L33
 847              		.loc 1 713 0 is_stmt 0 discriminator 1
 848 00ea FFF7FEFF 		bl	rcvr_spi
 849              	.L33:
 850              		.loc 1 715 0 is_stmt 1
 851 00ee 4FF00A03 		mov	r3, #10
 852 00f2 8DF80F30 		strb	r3, [sp, #15]
 853              	.L35:
 854              		.loc 1 717 0 discriminator 1
 855 00f6 FFF7FEFF 		bl	rcvr_spi
 856 00fa 0346     		mov	r3, r0
 857 00fc 8DF80E30 		strb	r3, [sp, #14]
 858              		.loc 1 718 0 discriminator 1
 859 0100 9DF80E30 		ldrb	r3, [sp, #14]	@ zero_extendqisi2
 860 0104 5BB2     		sxtb	r3, r3
 861 0106 002B     		cmp	r3, #0
 862 0108 09DA     		bge	.L34
 863 010a 9DF80F30 		ldrb	r3, [sp, #15]
 864 010e 03F1FF33 		add	r3, r3, #-1
 865 0112 8DF80F30 		strb	r3, [sp, #15]
 866 0116 9DF80F30 		ldrb	r3, [sp, #15]	@ zero_extendqisi2
 867 011a 002B     		cmp	r3, #0
 868 011c EBD1     		bne	.L35
 869              	.L34:
 870              		.loc 1 720 0
 871 011e 9DF80E30 		ldrb	r3, [sp, #14]	@ zero_extendqisi2
 872              	.L29:
 873              		.loc 1 721 0
 874 0122 1846     		mov	r0, r3
 875 0124 05B0     		add	sp, sp, #20
 876 0126 00BD     		pop	{pc}
 877              		.cfi_endproc
 878              	.LFE69:
 879              		.size	send_cmd, .-send_cmd
 880 0128 AFF30080 		.section	.text.disk_initialize,"ax",%progbits
 880      AFF30080 
 881              		.align	2
 882              		.p2align 4,,15
 883              		.global	disk_initialize
 884              		.thumb
 885              		.thumb_func
 886              		.type	disk_initialize, %function
 887              	disk_initialize:
 888              	.LFB70:
 889              		.loc 1 739 0
 890              		.cfi_startproc
 891              		@ args = 0, pretend = 0, frame = 16
 892              		@ frame_needed = 0, uses_anonymous_args = 0
 893 0000 10B5     		push	{r4, lr}
 894              	.LCFI16:
ARM GAS  C:\Users\z80\AppData\Local\Temp\ccXdQxBL.s 			page 17


 895              		.cfi_def_cfa_offset 8
 896 0002 84B0     		sub	sp, sp, #16
 897              	.LCFI17:
 898              		.cfi_def_cfa_offset 24
 899 0004 0346     		mov	r3, r0
 900 0006 8DF80730 		strb	r3, [sp, #7]
 901              		.loc 1 742 0
 902 000a 9DF80730 		ldrb	r3, [sp, #7]	@ zero_extendqisi2
 903 000e 002B     		cmp	r3, #0
 904 0010 02D0     		beq	.L37
 905              		.cfi_offset 14, -4
 906              		.cfi_offset 4, -8
 907              		.loc 1 742 0 is_stmt 0 discriminator 1
 908 0012 4FF00103 		mov	r3, #1
 909 0016 22E1     		b	.L38
 910              	.L37:
 911              		.loc 1 743 0 is_stmt 1
 912 0018 40F20003 		movw	r3, #:lower16:Stat
 913 001c C0F20003 		movt	r3, #:upper16:Stat
 914 0020 1B78     		ldrb	r3, [r3, #0]
 915 0022 DBB2     		uxtb	r3, r3
 916 0024 03F00203 		and	r3, r3, #2
 917 0028 002B     		cmp	r3, #0
 918 002a 06D0     		beq	.L39
 919              		.loc 1 743 0 is_stmt 0 discriminator 1
 920 002c 40F20003 		movw	r3, #:lower16:Stat
 921 0030 C0F20003 		movt	r3, #:upper16:Stat
 922 0034 1B78     		ldrb	r3, [r3, #0]
 923 0036 DBB2     		uxtb	r3, r3
 924 0038 11E1     		b	.L38
 925              	.L39:
 926              		.loc 1 745 0 is_stmt 1
 927 003a FFF7FEFF 		bl	power_on
 928              		.loc 1 746 0
 929 003e 4FF00000 		mov	r0, #0
 930 0042 FFF7FEFF 		bl	interface_speed
 931              		.loc 1 747 0
 932 0046 4FF00A03 		mov	r3, #10
 933 004a 8DF80F30 		strb	r3, [sp, #15]
 934 004e 07E0     		b	.L40
 935              	.L41:
 936              		.loc 1 747 0 is_stmt 0 discriminator 2
 937 0050 FFF7FEFF 		bl	rcvr_spi
 938 0054 9DF80F30 		ldrb	r3, [sp, #15]
 939 0058 03F1FF33 		add	r3, r3, #-1
 940 005c 8DF80F30 		strb	r3, [sp, #15]
 941              	.L40:
 942              		.loc 1 747 0 discriminator 1
 943 0060 9DF80F30 		ldrb	r3, [sp, #15]	@ zero_extendqisi2
 944 0064 002B     		cmp	r3, #0
 945 0066 F3D1     		bne	.L41
 946              		.loc 1 749 0 is_stmt 1
 947 0068 4FF00003 		mov	r3, #0
 948 006c 8DF80D30 		strb	r3, [sp, #13]
 949              		.loc 1 750 0
 950 0070 4FF04000 		mov	r0, #64
 951 0074 4FF00001 		mov	r1, #0
ARM GAS  C:\Users\z80\AppData\Local\Temp\ccXdQxBL.s 			page 18


 952 0078 FFF7FEFF 		bl	send_cmd
 953 007c 0346     		mov	r3, r0
 954 007e 012B     		cmp	r3, #1
 955 0080 40F0C580 		bne	.L42
 956              		.loc 1 751 0
 957 0084 40F20003 		movw	r3, #:lower16:Timer1
 958 0088 C0F20003 		movt	r3, #:upper16:Timer1
 959 008c 4FF06402 		mov	r2, #100
 960 0090 1A60     		str	r2, [r3, #0]
 961              		.loc 1 752 0
 962 0092 4FF04800 		mov	r0, #72
 963 0096 4FF4D571 		mov	r1, #426
 964 009a FFF7FEFF 		bl	send_cmd
 965 009e 0346     		mov	r3, r0
 966 00a0 012B     		cmp	r3, #1
 967 00a2 6CD1     		bne	.L43
 968              		.loc 1 753 0
 969 00a4 4FF00003 		mov	r3, #0
 970 00a8 8DF80F30 		strb	r3, [sp, #15]
 971 00ac 10E0     		b	.L44
 972              	.L45:
 973              		.loc 1 753 0 is_stmt 0 discriminator 2
 974 00ae 9DF80F40 		ldrb	r4, [sp, #15]	@ zero_extendqisi2
 975 00b2 FFF7FEFF 		bl	rcvr_spi
 976 00b6 0346     		mov	r3, r0
 977 00b8 1A46     		mov	r2, r3
 978 00ba 04A9     		add	r1, sp, #16
 979 00bc 01EB0403 		add	r3, r1, r4
 980 00c0 03F8082C 		strb	r2, [r3, #-8]
 981 00c4 9DF80F30 		ldrb	r3, [sp, #15]
 982 00c8 03F10103 		add	r3, r3, #1
 983 00cc 8DF80F30 		strb	r3, [sp, #15]
 984              	.L44:
 985              		.loc 1 753 0 discriminator 1
 986 00d0 9DF80F30 		ldrb	r3, [sp, #15]	@ zero_extendqisi2
 987 00d4 032B     		cmp	r3, #3
 988 00d6 EAD9     		bls	.L45
 989              		.loc 1 754 0 is_stmt 1
 990 00d8 9DF80A30 		ldrb	r3, [sp, #10]	@ zero_extendqisi2
 991 00dc 012B     		cmp	r3, #1
 992 00de 40F08F80 		bne	.L60
 993              		.loc 1 754 0 is_stmt 0 discriminator 1
 994 00e2 9DF80B30 		ldrb	r3, [sp, #11]	@ zero_extendqisi2
 995 00e6 AA2B     		cmp	r3, #170
 996 00e8 40F08C80 		bne	.L61
 997              		.loc 1 755 0 is_stmt 1
 998 00ec 00BF     		nop
 999              	.L48:
 1000              		.loc 1 755 0 is_stmt 0 discriminator 1
 1001 00ee 40F20003 		movw	r3, #:lower16:Timer1
 1002 00f2 C0F20003 		movt	r3, #:upper16:Timer1
 1003 00f6 1B68     		ldr	r3, [r3, #0]
 1004 00f8 002B     		cmp	r3, #0
 1005 00fa 08D0     		beq	.L47
 1006              		.loc 1 755 0 discriminator 2
 1007 00fc 4FF0E900 		mov	r0, #233
 1008 0100 4FF08041 		mov	r1, #1073741824
ARM GAS  C:\Users\z80\AppData\Local\Temp\ccXdQxBL.s 			page 19


 1009 0104 FFF7FEFF 		bl	send_cmd
 1010 0108 0346     		mov	r3, r0
 1011 010a 002B     		cmp	r3, #0
 1012 010c EFD1     		bne	.L48
 1013              	.L47:
 1014              		.loc 1 756 0 is_stmt 1
 1015 010e 40F20003 		movw	r3, #:lower16:Timer1
 1016 0112 C0F20003 		movt	r3, #:upper16:Timer1
 1017 0116 1B68     		ldr	r3, [r3, #0]
 1018 0118 002B     		cmp	r3, #0
 1019 011a 75D0     		beq	.L62
 1020              		.loc 1 756 0 is_stmt 0 discriminator 1
 1021 011c 4FF07A00 		mov	r0, #122
 1022 0120 4FF00001 		mov	r1, #0
 1023 0124 FFF7FEFF 		bl	send_cmd
 1024 0128 0346     		mov	r3, r0
 1025 012a 002B     		cmp	r3, #0
 1026 012c 6ED1     		bne	.L63
 1027              		.loc 1 757 0 is_stmt 1
 1028 012e 4FF00003 		mov	r3, #0
 1029 0132 8DF80F30 		strb	r3, [sp, #15]
 1030 0136 10E0     		b	.L49
 1031              	.L50:
 1032              		.loc 1 757 0 is_stmt 0 discriminator 2
 1033 0138 9DF80F40 		ldrb	r4, [sp, #15]	@ zero_extendqisi2
 1034 013c FFF7FEFF 		bl	rcvr_spi
 1035 0140 0346     		mov	r3, r0
 1036 0142 1A46     		mov	r2, r3
 1037 0144 04A9     		add	r1, sp, #16
 1038 0146 01EB0403 		add	r3, r1, r4
 1039 014a 03F8082C 		strb	r2, [r3, #-8]
 1040 014e 9DF80F30 		ldrb	r3, [sp, #15]
 1041 0152 03F10103 		add	r3, r3, #1
 1042 0156 8DF80F30 		strb	r3, [sp, #15]
 1043              	.L49:
 1044              		.loc 1 757 0 discriminator 1
 1045 015a 9DF80F30 		ldrb	r3, [sp, #15]	@ zero_extendqisi2
 1046 015e 032B     		cmp	r3, #3
 1047 0160 EAD9     		bls	.L50
 1048              		.loc 1 758 0 is_stmt 1
 1049 0162 9DF80830 		ldrb	r3, [sp, #8]	@ zero_extendqisi2
 1050 0166 03F04003 		and	r3, r3, #64
 1051 016a 002B     		cmp	r3, #0
 1052 016c 02D0     		beq	.L51
 1053              		.loc 1 758 0 is_stmt 0 discriminator 1
 1054 016e 4FF00C03 		mov	r3, #12
 1055 0172 01E0     		b	.L52
 1056              	.L51:
 1057              		.loc 1 758 0 discriminator 2
 1058 0174 4FF00403 		mov	r3, #4
 1059              	.L52:
 1060              		.loc 1 758 0 discriminator 3
 1061 0178 8DF80D30 		strb	r3, [sp, #13]
 1062 017c 47E0     		b	.L42
 1063              	.L43:
 1064              		.loc 1 762 0 is_stmt 1
 1065 017e 4FF0E900 		mov	r0, #233
ARM GAS  C:\Users\z80\AppData\Local\Temp\ccXdQxBL.s 			page 20


 1066 0182 4FF00001 		mov	r1, #0
 1067 0186 FFF7FEFF 		bl	send_cmd
 1068 018a 0346     		mov	r3, r0
 1069 018c 012B     		cmp	r3, #1
 1070 018e 08D8     		bhi	.L53
 1071              		.loc 1 763 0
 1072 0190 4FF00203 		mov	r3, #2
 1073 0194 8DF80D30 		strb	r3, [sp, #13]
 1074 0198 4FF0E903 		mov	r3, #233
 1075 019c 8DF80E30 		strb	r3, [sp, #14]
 1076              		.loc 1 767 0
 1077 01a0 08E0     		b	.L56
 1078              	.L53:
 1079              		.loc 1 765 0
 1080 01a2 4FF00103 		mov	r3, #1
 1081 01a6 8DF80D30 		strb	r3, [sp, #13]
 1082 01aa 4FF04103 		mov	r3, #65
 1083 01ae 8DF80E30 		strb	r3, [sp, #14]
 1084              		.loc 1 767 0
 1085 01b2 00BF     		nop
 1086              	.L56:
 1087              		.loc 1 767 0 is_stmt 0 discriminator 1
 1088 01b4 40F20003 		movw	r3, #:lower16:Timer1
 1089 01b8 C0F20003 		movt	r3, #:upper16:Timer1
 1090 01bc 1B68     		ldr	r3, [r3, #0]
 1091 01be 002B     		cmp	r3, #0
 1092 01c0 09D0     		beq	.L55
 1093              		.loc 1 767 0 discriminator 2
 1094 01c2 9DF80E30 		ldrb	r3, [sp, #14]	@ zero_extendqisi2
 1095 01c6 1846     		mov	r0, r3
 1096 01c8 4FF00001 		mov	r1, #0
 1097 01cc FFF7FEFF 		bl	send_cmd
 1098 01d0 0346     		mov	r3, r0
 1099 01d2 002B     		cmp	r3, #0
 1100 01d4 EED1     		bne	.L56
 1101              	.L55:
 1102              		.loc 1 768 0 is_stmt 1
 1103 01d6 40F20003 		movw	r3, #:lower16:Timer1
 1104 01da C0F20003 		movt	r3, #:upper16:Timer1
 1105 01de 1B68     		ldr	r3, [r3, #0]
 1106 01e0 002B     		cmp	r3, #0
 1107 01e2 08D0     		beq	.L57
 1108              		.loc 1 768 0 is_stmt 0 discriminator 1
 1109 01e4 4FF05000 		mov	r0, #80
 1110 01e8 4FF40071 		mov	r1, #512
 1111 01ec FFF7FEFF 		bl	send_cmd
 1112 01f0 0346     		mov	r3, r0
 1113 01f2 002B     		cmp	r3, #0
 1114 01f4 0BD0     		beq	.L42
 1115              	.L57:
 1116              		.loc 1 769 0 is_stmt 1
 1117 01f6 4FF00003 		mov	r3, #0
 1118 01fa 8DF80D30 		strb	r3, [sp, #13]
 1119 01fe 06E0     		b	.L42
 1120              	.L60:
 1121              		.loc 1 758 0
 1122 0200 00BF     		nop
ARM GAS  C:\Users\z80\AppData\Local\Temp\ccXdQxBL.s 			page 21


 1123 0202 04E0     		b	.L42
 1124              	.L61:
 1125 0204 00BF     		nop
 1126 0206 02E0     		b	.L42
 1127              	.L62:
 1128 0208 00BF     		nop
 1129 020a 00E0     		b	.L42
 1130              	.L63:
 1131 020c 00BF     		nop
 1132              	.L42:
 1133              		.loc 1 772 0
 1134 020e 40F20003 		movw	r3, #:lower16:CardType
 1135 0212 C0F20003 		movt	r3, #:upper16:CardType
 1136 0216 9DF80D20 		ldrb	r2, [sp, #13]
 1137 021a 1A70     		strb	r2, [r3, #0]
 1138              		.loc 1 773 0
 1139 021c FFF7FEFF 		bl	release_spi
 1140              		.loc 1 775 0
 1141 0220 9DF80D30 		ldrb	r3, [sp, #13]	@ zero_extendqisi2
 1142 0224 002B     		cmp	r3, #0
 1143 0226 12D0     		beq	.L58
 1144              		.loc 1 776 0
 1145 0228 40F20003 		movw	r3, #:lower16:Stat
 1146 022c C0F20003 		movt	r3, #:upper16:Stat
 1147 0230 1B78     		ldrb	r3, [r3, #0]
 1148 0232 DBB2     		uxtb	r3, r3
 1149 0234 23F00103 		bic	r3, r3, #1
 1150 0238 DAB2     		uxtb	r2, r3
 1151 023a 40F20003 		movw	r3, #:lower16:Stat
 1152 023e C0F20003 		movt	r3, #:upper16:Stat
 1153 0242 1A70     		strb	r2, [r3, #0]
 1154              		.loc 1 777 0
 1155 0244 4FF00100 		mov	r0, #1
 1156 0248 FFF7FEFF 		bl	interface_speed
 1157 024c 01E0     		b	.L59
 1158              	.L58:
 1159              		.loc 1 779 0
 1160 024e FFF7FEFF 		bl	power_off
 1161              	.L59:
 1162              		.loc 1 782 0
 1163 0252 40F20003 		movw	r3, #:lower16:Stat
 1164 0256 C0F20003 		movt	r3, #:upper16:Stat
 1165 025a 1B78     		ldrb	r3, [r3, #0]
 1166 025c DBB2     		uxtb	r3, r3
 1167              	.L38:
 1168              		.loc 1 783 0
 1169 025e 1846     		mov	r0, r3
 1170 0260 04B0     		add	sp, sp, #16
 1171 0262 10BD     		pop	{r4, pc}
 1172              		.cfi_endproc
 1173              	.LFE70:
 1174              		.size	disk_initialize, .-disk_initialize
 1175 0264 AFF30080 		.section	.text.disk_status,"ax",%progbits
 1175      AFF30080 
 1175      AFF30080 
 1176              		.align	2
 1177              		.p2align 4,,15
ARM GAS  C:\Users\z80\AppData\Local\Temp\ccXdQxBL.s 			page 22


 1178              		.global	disk_status
 1179              		.thumb
 1180              		.thumb_func
 1181              		.type	disk_status, %function
 1182              	disk_status:
 1183              	.LFB71:
 1184              		.loc 1 794 0
 1185              		.cfi_startproc
 1186              		@ args = 0, pretend = 0, frame = 8
 1187              		@ frame_needed = 0, uses_anonymous_args = 0
 1188              		@ link register save eliminated.
 1189 0000 82B0     		sub	sp, sp, #8
 1190              	.LCFI18:
 1191              		.cfi_def_cfa_offset 8
 1192 0002 0346     		mov	r3, r0
 1193 0004 8DF80730 		strb	r3, [sp, #7]
 1194              		.loc 1 795 0
 1195 0008 9DF80730 		ldrb	r3, [sp, #7]	@ zero_extendqisi2
 1196 000c 002B     		cmp	r3, #0
 1197 000e 02D0     		beq	.L65
 1198              		.loc 1 795 0 is_stmt 0 discriminator 1
 1199 0010 4FF00103 		mov	r3, #1
 1200 0014 05E0     		b	.L66
 1201              	.L65:
 1202              		.loc 1 796 0 is_stmt 1
 1203 0016 40F20003 		movw	r3, #:lower16:Stat
 1204 001a C0F20003 		movt	r3, #:upper16:Stat
 1205 001e 1B78     		ldrb	r3, [r3, #0]
 1206 0020 DBB2     		uxtb	r3, r3
 1207              	.L66:
 1208              		.loc 1 797 0
 1209 0022 1846     		mov	r0, r3
 1210 0024 02B0     		add	sp, sp, #8
 1211 0026 7047     		bx	lr
 1212              		.cfi_endproc
 1213              	.LFE71:
 1214              		.size	disk_status, .-disk_status
 1215 0028 AFF30080 		.section	.text.disk_read,"ax",%progbits
 1215      AFF30080 
 1216              		.align	2
 1217              		.p2align 4,,15
 1218              		.global	disk_read
 1219              		.thumb
 1220              		.thumb_func
 1221              		.type	disk_read, %function
 1222              	disk_read:
 1223              	.LFB72:
 1224              		.loc 1 811 0
 1225              		.cfi_startproc
 1226              		@ args = 0, pretend = 0, frame = 16
 1227              		@ frame_needed = 0, uses_anonymous_args = 0
 1228 0000 00B5     		push	{lr}
 1229              	.LCFI19:
 1230              		.cfi_def_cfa_offset 4
 1231 0002 85B0     		sub	sp, sp, #20
 1232              	.LCFI20:
 1233              		.cfi_def_cfa_offset 24
ARM GAS  C:\Users\z80\AppData\Local\Temp\ccXdQxBL.s 			page 23


 1234 0004 0291     		str	r1, [sp, #8]
 1235 0006 0192     		str	r2, [sp, #4]
 1236 0008 0246     		mov	r2, r0
 1237 000a 8DF80F20 		strb	r2, [sp, #15]
 1238 000e 8DF80330 		strb	r3, [sp, #3]
 1239              		.loc 1 812 0
 1240 0012 9DF80F30 		ldrb	r3, [sp, #15]	@ zero_extendqisi2
 1241 0016 002B     		cmp	r3, #0
 1242 0018 03D1     		bne	.L68
 1243              		.cfi_offset 14, -4
 1244              		.loc 1 812 0 is_stmt 0 discriminator 2
 1245 001a 9DF80330 		ldrb	r3, [sp, #3]	@ zero_extendqisi2
 1246 001e 002B     		cmp	r3, #0
 1247 0020 02D1     		bne	.L69
 1248              	.L68:
 1249              		.loc 1 812 0 discriminator 1
 1250 0022 4FF00403 		mov	r3, #4
 1251 0026 66E0     		b	.L70
 1252              	.L69:
 1253              		.loc 1 813 0 is_stmt 1
 1254 0028 40F20003 		movw	r3, #:lower16:Stat
 1255 002c C0F20003 		movt	r3, #:upper16:Stat
 1256 0030 1B78     		ldrb	r3, [r3, #0]
 1257 0032 DBB2     		uxtb	r3, r3
 1258 0034 03F00103 		and	r3, r3, #1
 1259 0038 DBB2     		uxtb	r3, r3
 1260 003a 002B     		cmp	r3, #0
 1261 003c 02D0     		beq	.L71
 1262              		.loc 1 813 0 is_stmt 0 discriminator 1
 1263 003e 4FF00303 		mov	r3, #3
 1264 0042 58E0     		b	.L70
 1265              	.L71:
 1266              		.loc 1 815 0 is_stmt 1
 1267 0044 40F20003 		movw	r3, #:lower16:CardType
 1268 0048 C0F20003 		movt	r3, #:upper16:CardType
 1269 004c 1B78     		ldrb	r3, [r3, #0]	@ zero_extendqisi2
 1270 004e 03F00803 		and	r3, r3, #8
 1271 0052 002B     		cmp	r3, #0
 1272 0054 03D1     		bne	.L72
 1273              		.loc 1 815 0 is_stmt 0 discriminator 1
 1274 0056 019B     		ldr	r3, [sp, #4]
 1275 0058 4FEA4323 		lsl	r3, r3, #9
 1276 005c 0193     		str	r3, [sp, #4]
 1277              	.L72:
 1278              		.loc 1 817 0 is_stmt 1
 1279 005e 9DF80330 		ldrb	r3, [sp, #3]	@ zero_extendqisi2
 1280 0062 012B     		cmp	r3, #1
 1281 0064 14D1     		bne	.L73
 1282              		.loc 1 818 0
 1283 0066 4FF05100 		mov	r0, #81
 1284 006a 0199     		ldr	r1, [sp, #4]
 1285 006c FFF7FEFF 		bl	send_cmd
 1286 0070 0346     		mov	r3, r0
 1287 0072 002B     		cmp	r3, #0
 1288 0074 33D1     		bne	.L79
 1289              		.loc 1 819 0
 1290 0076 0298     		ldr	r0, [sp, #8]
ARM GAS  C:\Users\z80\AppData\Local\Temp\ccXdQxBL.s 			page 24


 1291 0078 4FF40071 		mov	r1, #512
 1292 007c FFF7FEFF 		bl	rcvr_datablock
 1293 0080 0346     		mov	r3, r0
 1294 0082 002B     		cmp	r3, #0
 1295 0084 2DD0     		beq	.L80
 1296              		.loc 1 820 0
 1297 0086 4FF00003 		mov	r3, #0
 1298 008a 8DF80330 		strb	r3, [sp, #3]
 1299 008e 29E0     		b	.L75
 1300              	.L73:
 1301              		.loc 1 825 0
 1302 0090 4FF05200 		mov	r0, #82
 1303 0094 0199     		ldr	r1, [sp, #4]
 1304 0096 FFF7FEFF 		bl	send_cmd
 1305 009a 0346     		mov	r3, r0
 1306 009c 002B     		cmp	r3, #0
 1307 009e 21D1     		bne	.L75
 1308              	.L78:
 1309              		.loc 1 827 0
 1310 00a0 0298     		ldr	r0, [sp, #8]
 1311 00a2 4FF40071 		mov	r1, #512
 1312 00a6 FFF7FEFF 		bl	rcvr_datablock
 1313 00aa 0346     		mov	r3, r0
 1314 00ac 002B     		cmp	r3, #0
 1315 00ae 0ED0     		beq	.L81
 1316              	.L76:
 1317              		.loc 1 830 0
 1318 00b0 029B     		ldr	r3, [sp, #8]
 1319 00b2 03F50073 		add	r3, r3, #512
 1320 00b6 0293     		str	r3, [sp, #8]
 1321              		.loc 1 831 0
 1322 00b8 9DF80330 		ldrb	r3, [sp, #3]
 1323 00bc 03F1FF33 		add	r3, r3, #-1
 1324 00c0 8DF80330 		strb	r3, [sp, #3]
 1325 00c4 9DF80330 		ldrb	r3, [sp, #3]	@ zero_extendqisi2
 1326 00c8 002B     		cmp	r3, #0
 1327 00ca E9D1     		bne	.L78
 1328 00cc 00E0     		b	.L77
 1329              	.L81:
 1330              		.loc 1 828 0
 1331 00ce 00BF     		nop
 1332              	.L77:
 1333              		.loc 1 832 0
 1334 00d0 4FF04C00 		mov	r0, #76
 1335 00d4 4FF00001 		mov	r1, #0
 1336 00d8 FFF7FEFF 		bl	send_cmd
 1337 00dc 02E0     		b	.L75
 1338              	.L79:
 1339              		.loc 1 820 0
 1340 00de 00BF     		nop
 1341 00e0 00E0     		b	.L75
 1342              	.L80:
 1343 00e2 00BF     		nop
 1344              	.L75:
 1345              		.loc 1 835 0
 1346 00e4 FFF7FEFF 		bl	release_spi
 1347              		.loc 1 837 0
ARM GAS  C:\Users\z80\AppData\Local\Temp\ccXdQxBL.s 			page 25


 1348 00e8 9DF80330 		ldrb	r3, [sp, #3]	@ zero_extendqisi2
 1349 00ec 002B     		cmp	r3, #0
 1350 00ee 0CBF     		ite	eq
 1351 00f0 0023     		moveq	r3, #0
 1352 00f2 0123     		movne	r3, #1
 1353 00f4 DBB2     		uxtb	r3, r3
 1354              	.L70:
 1355              		.loc 1 838 0
 1356 00f6 1846     		mov	r0, r3
 1357 00f8 05B0     		add	sp, sp, #20
 1358 00fa 00BD     		pop	{pc}
 1359              		.cfi_endproc
 1360              	.LFE72:
 1361              		.size	disk_read, .-disk_read
 1362 00fc AFF30080 		.section	.text.disk_timerproc,"ax",%progbits
 1363              		.align	2
 1364              		.p2align 4,,15
 1365              		.global	disk_timerproc
 1366              		.thumb
 1367              		.thumb_func
 1368              		.type	disk_timerproc, %function
 1369              	disk_timerproc:
 1370              	.LFB73:
 1371              		.loc 1 1024 0
 1372              		.cfi_startproc
 1373              		@ args = 0, pretend = 0, frame = 8
 1374              		@ frame_needed = 0, uses_anonymous_args = 0
 1375 0000 10B5     		push	{r4, lr}
 1376              	.LCFI21:
 1377              		.cfi_def_cfa_offset 8
 1378 0002 82B0     		sub	sp, sp, #8
 1379              	.LCFI22:
 1380              		.cfi_def_cfa_offset 16
 1381              		.loc 1 1030 0
 1382 0004 40F20003 		movw	r3, #:lower16:Timer1
 1383 0008 C0F20003 		movt	r3, #:upper16:Timer1
 1384 000c 1B68     		ldr	r3, [r3, #0]
 1385 000e 8DF80630 		strb	r3, [sp, #6]
 1386              		.loc 1 1031 0
 1387 0012 9DF80630 		ldrb	r3, [sp, #6]	@ zero_extendqisi2
 1388 0016 002B     		cmp	r3, #0
 1389 0018 0CD0     		beq	.L83
 1390              		.cfi_offset 14, -4
 1391              		.cfi_offset 4, -8
 1392              		.loc 1 1031 0 is_stmt 0 discriminator 1
 1393 001a 9DF80630 		ldrb	r3, [sp, #6]
 1394 001e 03F1FF33 		add	r3, r3, #-1
 1395 0022 8DF80630 		strb	r3, [sp, #6]
 1396 0026 9DF80620 		ldrb	r2, [sp, #6]	@ zero_extendqisi2
 1397 002a 40F20003 		movw	r3, #:lower16:Timer1
 1398 002e C0F20003 		movt	r3, #:upper16:Timer1
 1399 0032 1A60     		str	r2, [r3, #0]
 1400              	.L83:
 1401              		.loc 1 1032 0 is_stmt 1
 1402 0034 40F20003 		movw	r3, #:lower16:Timer2
 1403 0038 C0F20003 		movt	r3, #:upper16:Timer2
 1404 003c 1B68     		ldr	r3, [r3, #0]
ARM GAS  C:\Users\z80\AppData\Local\Temp\ccXdQxBL.s 			page 26


 1405 003e 8DF80630 		strb	r3, [sp, #6]
 1406              		.loc 1 1033 0
 1407 0042 9DF80630 		ldrb	r3, [sp, #6]	@ zero_extendqisi2
 1408 0046 002B     		cmp	r3, #0
 1409 0048 0CD0     		beq	.L84
 1410              		.loc 1 1033 0 is_stmt 0 discriminator 1
 1411 004a 9DF80630 		ldrb	r3, [sp, #6]
 1412 004e 03F1FF33 		add	r3, r3, #-1
 1413 0052 8DF80630 		strb	r3, [sp, #6]
 1414 0056 9DF80620 		ldrb	r2, [sp, #6]	@ zero_extendqisi2
 1415 005a 40F20003 		movw	r3, #:lower16:Timer2
 1416 005e C0F20003 		movt	r3, #:upper16:Timer2
 1417 0062 1A60     		str	r2, [r3, #0]
 1418              	.L84:
 1419              		.loc 1 1035 0 is_stmt 1
 1420 0064 40F20003 		movw	r3, #:lower16:pv.2695
 1421 0068 C0F20003 		movt	r3, #:upper16:pv.2695
 1422 006c 1B68     		ldr	r3, [r3, #0]
 1423 006e 0093     		str	r3, [sp, #0]
 1424              		.loc 1 1036 0
 1425 0070 FFF7FEFF 		bl	socket_is_empty
 1426 0074 0446     		mov	r4, r0
 1427 0076 FFF7FEFF 		bl	socket_is_write_protected
 1428 007a 0346     		mov	r3, r0
 1429 007c 44EA0302 		orr	r2, r4, r3
 1430 0080 40F20003 		movw	r3, #:lower16:pv.2695
 1431 0084 C0F20003 		movt	r3, #:upper16:pv.2695
 1432 0088 1A60     		str	r2, [r3, #0]
 1433              		.loc 1 1038 0
 1434 008a 40F20003 		movw	r3, #:lower16:pv.2695
 1435 008e C0F20003 		movt	r3, #:upper16:pv.2695
 1436 0092 1B68     		ldr	r3, [r3, #0]
 1437 0094 009A     		ldr	r2, [sp, #0]
 1438 0096 9A42     		cmp	r2, r3
 1439 0098 43D1     		bne	.L82
 1440              		.loc 1 1039 0
 1441 009a 40F20003 		movw	r3, #:lower16:Stat
 1442 009e C0F20003 		movt	r3, #:upper16:Stat
 1443 00a2 1B78     		ldrb	r3, [r3, #0]
 1444 00a4 8DF80730 		strb	r3, [sp, #7]
 1445              		.loc 1 1041 0
 1446 00a8 40F20003 		movw	r3, #:lower16:pv.2695
 1447 00ac C0F20003 		movt	r3, #:upper16:pv.2695
 1448 00b0 1A68     		ldr	r2, [r3, #0]
 1449 00b2 40F20003 		movw	r3, #:lower16:socket_state_mask_wp
 1450 00b6 C0F20003 		movt	r3, #:upper16:socket_state_mask_wp
 1451 00ba 1B68     		ldr	r3, [r3, #0]
 1452 00bc 02EA0303 		and	r3, r2, r3
 1453 00c0 002B     		cmp	r3, #0
 1454 00c2 06D0     		beq	.L86
 1455              		.loc 1 1042 0
 1456 00c4 9DF80730 		ldrb	r3, [sp, #7]
 1457 00c8 43F00403 		orr	r3, r3, #4
 1458 00cc 8DF80730 		strb	r3, [sp, #7]
 1459 00d0 05E0     		b	.L87
 1460              	.L86:
 1461              		.loc 1 1044 0
ARM GAS  C:\Users\z80\AppData\Local\Temp\ccXdQxBL.s 			page 27


 1462 00d2 9DF80730 		ldrb	r3, [sp, #7]
 1463 00d6 23F00403 		bic	r3, r3, #4
 1464 00da 8DF80730 		strb	r3, [sp, #7]
 1465              	.L87:
 1466              		.loc 1 1046 0
 1467 00de 40F20003 		movw	r3, #:lower16:pv.2695
 1468 00e2 C0F20003 		movt	r3, #:upper16:pv.2695
 1469 00e6 1A68     		ldr	r2, [r3, #0]
 1470 00e8 40F20003 		movw	r3, #:lower16:socket_state_mask_cp
 1471 00ec C0F20003 		movt	r3, #:upper16:socket_state_mask_cp
 1472 00f0 1B68     		ldr	r3, [r3, #0]
 1473 00f2 02EA0303 		and	r3, r2, r3
 1474 00f6 002B     		cmp	r3, #0
 1475 00f8 06D0     		beq	.L88
 1476              		.loc 1 1047 0
 1477 00fa 9DF80730 		ldrb	r3, [sp, #7]
 1478 00fe 43F00303 		orr	r3, r3, #3
 1479 0102 8DF80730 		strb	r3, [sp, #7]
 1480 0106 05E0     		b	.L89
 1481              	.L88:
 1482              		.loc 1 1049 0
 1483 0108 9DF80730 		ldrb	r3, [sp, #7]
 1484 010c 23F00203 		bic	r3, r3, #2
 1485 0110 8DF80730 		strb	r3, [sp, #7]
 1486              	.L89:
 1487              		.loc 1 1051 0
 1488 0114 40F20003 		movw	r3, #:lower16:Stat
 1489 0118 C0F20003 		movt	r3, #:upper16:Stat
 1490 011c 9DF80720 		ldrb	r2, [sp, #7]
 1491 0120 1A70     		strb	r2, [r3, #0]
 1492              	.L82:
 1493              		.loc 1 1053 0
 1494 0122 02B0     		add	sp, sp, #8
 1495 0124 10BD     		pop	{r4, pc}
 1496              		.cfi_endproc
 1497              	.LFE73:
 1498              		.size	disk_timerproc, .-disk_timerproc
 1499 0126 00BFAFF3 		.section	.bss.pv.2695,"aw",%nobits
 1499      0080AFF3 
 1499      0080
 1500              		.align	2
 1501              		.type	pv.2695, %object
 1502              		.size	pv.2695, 4
 1503              	pv.2695:
 1504 0000 00000000 		.space	4
 1505              		.text
 1506              	.Letext0: