ARM GAS  C:\Users\z80\AppData\Local\Temp\ccrpgqeh.s 			page 1


   1              		.syntax unified
   2              		.cpu cortex-m3
   3              		.fpu softvfp
   4              		.eabi_attribute 20, 1
   5              		.eabi_attribute 21, 1
   6              		.eabi_attribute 23, 3
   7              		.eabi_attribute 24, 1
   8              		.eabi_attribute 25, 1
   9              		.eabi_attribute 26, 1
  10              		.eabi_attribute 30, 6
  11              		.eabi_attribute 18, 4
  12              		.thumb
  13              		.file	"serial_lld.c"
  20 0000 44030000 		.text
  20      02004902 
  20      00000201 
  20      FB0E0D00 
  20      01010101 
  21              	.Ltext0:
  22              		.cfi_sections	.debug_frame
  23              		.global	SD2
  24              		.section	.bss.SD2,"aw",%nobits
  25              		.align	2
  26              		.type	SD2, %object
  27              		.size	SD2, 120
  28              	SD2:
  29 0000 00000000 		.space	120
  29      00000000 
  29      00000000 
  29      00000000 
  29      00000000 
  30              		.section	.rodata.default_config,"a",%progbits
  31              		.align	2
  32              		.type	default_config, %object
  33              		.size	default_config, 12
  34              	default_config:
  35 0000 00960000 		.word	38400
  36 0004 0000     		.short	0
  37 0006 0040     		.short	16384
  38 0008 0000     		.short	0
  39 000a 0000     		.space	2
  40              		.section	.text.usart_init,"ax",%progbits
  41              		.align	2
  42              		.p2align 4,,15
  43              		.thumb
  44              		.thumb_func
  45              		.type	usart_init, %function
  46              	usart_init:
  47              	.LFB63:
  48              		.file 1 "../chibios_2.6.3/os/hal/platforms/STM32/USARTv1/serial_lld.c"
  49              		.loc 1 92 0
ARM GAS  C:\Users\z80\AppData\Local\Temp\ccrpgqeh.s 			page 2


  50              		.cfi_startproc
  51              		@ args = 0, pretend = 0, frame = 16
  52              		@ frame_needed = 0, uses_anonymous_args = 0
  53              		@ link register save eliminated.
  54 0000 84B0     		sub	sp, sp, #16
  55              	.LCFI0:
  56              		.cfi_def_cfa_offset 16
  57 0002 0190     		str	r0, [sp, #4]
  58 0004 0091     		str	r1, [sp, #0]
  59              		.loc 1 93 0
  60 0006 019B     		ldr	r3, [sp, #4]
  61 0008 5B6F     		ldr	r3, [r3, #116]
  62 000a 0393     		str	r3, [sp, #12]
  63              		.loc 1 99 0
  64 000c 019B     		ldr	r3, [sp, #4]
  65 000e 5A6F     		ldr	r2, [r3, #116]
  66 0010 4FF46053 		mov	r3, #14336
  67 0014 C4F20103 		movt	r3, 16385
  68 0018 9A42     		cmp	r2, r3
  69 001a 0BD1     		bne	.L2
  70              		.loc 1 101 0
  71 001c 009B     		ldr	r3, [sp, #0]
  72 001e 1A68     		ldr	r2, [r3, #0]
  73 0020 4FF4D853 		mov	r3, #6912
  74 0024 C0F2B703 		movt	r3, 183
  75 0028 B3FBF2F3 		udiv	r3, r3, r2
  76 002c 9AB2     		uxth	r2, r3
  77 002e 039B     		ldr	r3, [sp, #12]
  78 0030 1A81     		strh	r2, [r3, #8]	@ movhi
  79 0032 0AE0     		b	.L3
  80              	.L2:
  81              		.loc 1 103 0
  82 0034 009B     		ldr	r3, [sp, #0]
  83 0036 1A68     		ldr	r2, [r3, #0]
  84 0038 4FF4D853 		mov	r3, #6912
  85 003c C0F2B703 		movt	r3, 183
  86 0040 B3FBF2F3 		udiv	r3, r3, r2
  87 0044 9AB2     		uxth	r2, r3
  88 0046 039B     		ldr	r3, [sp, #12]
  89 0048 1A81     		strh	r2, [r3, #8]	@ movhi
  90              	.L3:
  91              		.loc 1 106 0
  92 004a 009B     		ldr	r3, [sp, #0]
  93 004c DB88     		ldrh	r3, [r3, #6]
  94 004e 43F04003 		orr	r3, r3, #64
  95 0052 9AB2     		uxth	r2, r3
  96 0054 039B     		ldr	r3, [sp, #12]
  97 0056 1A82     		strh	r2, [r3, #16]	@ movhi
  98              		.loc 1 107 0
  99 0058 009B     		ldr	r3, [sp, #0]
 100 005a 1B89     		ldrh	r3, [r3, #8]
 101 005c 43F00103 		orr	r3, r3, #1
 102 0060 9AB2     		uxth	r2, r3
 103 0062 039B     		ldr	r3, [sp, #12]
 104 0064 9A82     		strh	r2, [r3, #20]	@ movhi
 105              		.loc 1 108 0
 106 0066 009B     		ldr	r3, [sp, #0]
ARM GAS  C:\Users\z80\AppData\Local\Temp\ccrpgqeh.s 			page 3


 107 0068 9B88     		ldrh	r3, [r3, #4]
 108 006a 43F40453 		orr	r3, r3, #8448
 109 006e 43F02C03 		orr	r3, r3, #44
 110 0072 9AB2     		uxth	r2, r3
 111 0074 039B     		ldr	r3, [sp, #12]
 112 0076 9A81     		strh	r2, [r3, #12]	@ movhi
 113              		.loc 1 111 0
 114 0078 039B     		ldr	r3, [sp, #12]
 115 007a 4FF00002 		mov	r2, #0
 116 007e 1A80     		strh	r2, [r3, #0]	@ movhi
 117              		.loc 1 112 0
 118 0080 039B     		ldr	r3, [sp, #12]
 119 0082 1B88     		ldrh	r3, [r3, #0]	@ movhi
 120              		.loc 1 113 0
 121 0084 039B     		ldr	r3, [sp, #12]
 122 0086 9B88     		ldrh	r3, [r3, #4]	@ movhi
 123              		.loc 1 114 0
 124 0088 04B0     		add	sp, sp, #16
 125 008a 7047     		bx	lr
 126              		.cfi_endproc
 127              	.LFE63:
 128              		.size	usart_init, .-usart_init
 129 008c AFF30080 		.section	.text.usart_deinit,"ax",%progbits
 130              		.align	2
 131              		.p2align 4,,15
 132              		.thumb
 133              		.thumb_func
 134              		.type	usart_deinit, %function
 135              	usart_deinit:
 136              	.LFB64:
 137              		.loc 1 122 0
 138              		.cfi_startproc
 139              		@ args = 0, pretend = 0, frame = 8
 140              		@ frame_needed = 0, uses_anonymous_args = 0
 141              		@ link register save eliminated.
 142 0000 82B0     		sub	sp, sp, #8
 143              	.LCFI1:
 144              		.cfi_def_cfa_offset 8
 145 0002 0190     		str	r0, [sp, #4]
 146              		.loc 1 124 0
 147 0004 019B     		ldr	r3, [sp, #4]
 148 0006 4FF00002 		mov	r2, #0
 149 000a 9A81     		strh	r2, [r3, #12]	@ movhi
 150              		.loc 1 125 0
 151 000c 019B     		ldr	r3, [sp, #4]
 152 000e 4FF00002 		mov	r2, #0
 153 0012 1A82     		strh	r2, [r3, #16]	@ movhi
 154              		.loc 1 126 0
 155 0014 019B     		ldr	r3, [sp, #4]
 156 0016 4FF00002 		mov	r2, #0
 157 001a 9A82     		strh	r2, [r3, #20]	@ movhi
 158              		.loc 1 127 0
 159 001c 02B0     		add	sp, sp, #8
 160 001e 7047     		bx	lr
 161              		.cfi_endproc
 162              	.LFE64:
 163              		.size	usart_deinit, .-usart_deinit
ARM GAS  C:\Users\z80\AppData\Local\Temp\ccrpgqeh.s 			page 4


 164              		.section	.text.set_error,"ax",%progbits
 165              		.align	2
 166              		.p2align 4,,15
 167              		.thumb
 168              		.thumb_func
 169              		.type	set_error, %function
 170              	set_error:
 171              	.LFB65:
 172              		.loc 1 135 0
 173              		.cfi_startproc
 174              		@ args = 0, pretend = 0, frame = 16
 175              		@ frame_needed = 0, uses_anonymous_args = 0
 176 0000 00B5     		push	{lr}
 177              	.LCFI2:
 178              		.cfi_def_cfa_offset 4
 179 0002 85B0     		sub	sp, sp, #20
 180              	.LCFI3:
 181              		.cfi_def_cfa_offset 24
 182 0004 0190     		str	r0, [sp, #4]
 183 0006 0B46     		mov	r3, r1
 184 0008 ADF80230 		strh	r3, [sp, #2]	@ movhi
 185              		.loc 1 136 0
 186 000c 4FF00003 		mov	r3, #0
 187 0010 0393     		str	r3, [sp, #12]
 188              		.loc 1 138 0
 189 0012 BDF80230 		ldrh	r3, [sp, #2]
 190 0016 03F00803 		and	r3, r3, #8
 191 001a 002B     		cmp	r3, #0
 192 001c 03D0     		beq	.L6
 193              		.cfi_offset 14, -4
 194              		.loc 1 139 0
 195 001e 039B     		ldr	r3, [sp, #12]
 196 0020 43F08003 		orr	r3, r3, #128
 197 0024 0393     		str	r3, [sp, #12]
 198              	.L6:
 199              		.loc 1 140 0
 200 0026 BDF80230 		ldrh	r3, [sp, #2]
 201 002a 03F00103 		and	r3, r3, #1
 202 002e DBB2     		uxtb	r3, r3
 203 0030 002B     		cmp	r3, #0
 204 0032 03D0     		beq	.L7
 205              		.loc 1 141 0
 206 0034 039B     		ldr	r3, [sp, #12]
 207 0036 43F02003 		orr	r3, r3, #32
 208 003a 0393     		str	r3, [sp, #12]
 209              	.L7:
 210              		.loc 1 142 0
 211 003c BDF80230 		ldrh	r3, [sp, #2]
 212 0040 03F00203 		and	r3, r3, #2
 213 0044 002B     		cmp	r3, #0
 214 0046 03D0     		beq	.L8
 215              		.loc 1 143 0
 216 0048 039B     		ldr	r3, [sp, #12]
 217 004a 43F04003 		orr	r3, r3, #64
 218 004e 0393     		str	r3, [sp, #12]
 219              	.L8:
 220              		.loc 1 144 0
ARM GAS  C:\Users\z80\AppData\Local\Temp\ccrpgqeh.s 			page 5


 221 0050 BDF80230 		ldrh	r3, [sp, #2]
 222 0054 03F00403 		and	r3, r3, #4
 223 0058 002B     		cmp	r3, #0
 224 005a 03D0     		beq	.L9
 225              		.loc 1 145 0
 226 005c 039B     		ldr	r3, [sp, #12]
 227 005e 43F48073 		orr	r3, r3, #256
 228 0062 0393     		str	r3, [sp, #12]
 229              	.L9:
 230              		.loc 1 146 0
 231 0064 019B     		ldr	r3, [sp, #4]
 232 0066 03F10403 		add	r3, r3, #4
 233 006a 1846     		mov	r0, r3
 234 006c 0399     		ldr	r1, [sp, #12]
 235 006e FFF7FEFF 		bl	chEvtBroadcastFlagsI
 236              		.loc 1 147 0
 237 0072 05B0     		add	sp, sp, #20
 238 0074 00BD     		pop	{pc}
 239              		.cfi_endproc
 240              	.LFE65:
 241              		.size	set_error, .-set_error
 242 0076 00BFAFF3 		.section	.text.serve_interrupt,"ax",%progbits
 242      0080AFF3 
 242      0080
 243              		.align	2
 244              		.p2align 4,,15
 245              		.thumb
 246              		.thumb_func
 247              		.type	serve_interrupt, %function
 248              	serve_interrupt:
 249              	.LFB66:
 250              		.loc 1 154 0
 251              		.cfi_startproc
 252              		@ args = 0, pretend = 0, frame = 24
 253              		@ frame_needed = 0, uses_anonymous_args = 0
 254 0000 00B5     		push	{lr}
 255              	.LCFI4:
 256              		.cfi_def_cfa_offset 4
 257 0002 87B0     		sub	sp, sp, #28
 258              	.LCFI5:
 259              		.cfi_def_cfa_offset 32
 260 0004 0190     		str	r0, [sp, #4]
 261              		.loc 1 155 0
 262 0006 019B     		ldr	r3, [sp, #4]
 263 0008 5B6F     		ldr	r3, [r3, #116]
 264 000a 0493     		str	r3, [sp, #16]
 265              		.loc 1 156 0
 266 000c 049B     		ldr	r3, [sp, #16]
 267 000e 9B89     		ldrh	r3, [r3, #12]	@ movhi
 268 0010 ADF80E30 		strh	r3, [sp, #14]	@ movhi
 269              		.loc 1 157 0
 270 0014 049B     		ldr	r3, [sp, #16]
 271 0016 1B88     		ldrh	r3, [r3, #0]	@ movhi
 272 0018 ADF81630 		strh	r3, [sp, #22]	@ movhi
 273              		.loc 1 160 0
 274 001c BDF81630 		ldrh	r3, [sp, #22]
 275 0020 03F48073 		and	r3, r3, #256
ARM GAS  C:\Users\z80\AppData\Local\Temp\ccrpgqeh.s 			page 6


 276 0024 002B     		cmp	r3, #0
 277 0026 13D0     		beq	.L11
 278              		.cfi_offset 14, -4
 279              	.LBB2:
 280              		.loc 1 161 0
 281 0028 4FF02003 		mov	r3, #32
 282              	@ 161 "../chibios_2.6.3/os/hal/platforms/STM32/USARTv1/serial_lld.c" 1
 283 002c 83F31188 		msr     BASEPRI, r3
 284              	@ 0 "" 2
 285              		.thumb
 286              	.LBE2:
 287              		.loc 1 162 0
 288 0030 019B     		ldr	r3, [sp, #4]
 289 0032 03F10403 		add	r3, r3, #4
 290 0036 1846     		mov	r0, r3
 291 0038 4FF40071 		mov	r1, #512
 292 003c FFF7FEFF 		bl	chEvtBroadcastFlagsI
 293              	.LBB3:
 294              		.loc 1 163 0
 295 0040 4FF00003 		mov	r3, #0
 296              	@ 163 "../chibios_2.6.3/os/hal/platforms/STM32/USARTv1/serial_lld.c" 1
 297 0044 83F31188 		msr     BASEPRI, r3
 298              	@ 0 "" 2
 299              		.thumb
 300              	.LBE3:
 301              		.loc 1 164 0
 302 0048 049B     		ldr	r3, [sp, #16]
 303 004a 4FF6FF62 		movw	r2, #65279
 304 004e 1A80     		strh	r2, [r3, #0]	@ movhi
 305              	.L11:
 306              	.LBB4:
 307              		.loc 1 168 0
 308 0050 4FF02003 		mov	r3, #32
 309              	@ 168 "../chibios_2.6.3/os/hal/platforms/STM32/USARTv1/serial_lld.c" 1
 310 0054 83F31188 		msr     BASEPRI, r3
 311              	@ 0 "" 2
 312              		.thumb
 313              	.LBE4:
 314              		.loc 1 169 0
 315 0058 17E0     		b	.L12
 316              	.L14:
 317              		.loc 1 171 0
 318 005a BDF81630 		ldrh	r3, [sp, #22]
 319 005e 03F00F03 		and	r3, r3, #15
 320 0062 002B     		cmp	r3, #0
 321 0064 05D0     		beq	.L13
 322              		.loc 1 172 0
 323 0066 BDF81630 		ldrh	r3, [sp, #22]
 324 006a 0198     		ldr	r0, [sp, #4]
 325 006c 1946     		mov	r1, r3
 326 006e FFF7FEFF 		bl	set_error
 327              	.L13:
 328              		.loc 1 173 0
 329 0072 049B     		ldr	r3, [sp, #16]
 330 0074 9B88     		ldrh	r3, [r3, #4]	@ movhi
 331 0076 9BB2     		uxth	r3, r3
 332 0078 DBB2     		uxtb	r3, r3
ARM GAS  C:\Users\z80\AppData\Local\Temp\ccrpgqeh.s 			page 7


 333 007a 0198     		ldr	r0, [sp, #4]
 334 007c 1946     		mov	r1, r3
 335 007e FFF7FEFF 		bl	sdIncomingDataI
 336              		.loc 1 174 0
 337 0082 049B     		ldr	r3, [sp, #16]
 338 0084 1B88     		ldrh	r3, [r3, #0]	@ movhi
 339 0086 ADF81630 		strh	r3, [sp, #22]	@ movhi
 340              	.L12:
 341              		.loc 1 169 0 discriminator 1
 342 008a BDF81630 		ldrh	r3, [sp, #22]
 343 008e 03F02003 		and	r3, r3, #32
 344 0092 002B     		cmp	r3, #0
 345 0094 E1D1     		bne	.L14
 346              	.LBB5:
 347              		.loc 1 176 0
 348 0096 4FF00003 		mov	r3, #0
 349              	@ 176 "../chibios_2.6.3/os/hal/platforms/STM32/USARTv1/serial_lld.c" 1
 350 009a 83F31188 		msr     BASEPRI, r3
 351              	@ 0 "" 2
 352              		.thumb
 353              	.LBE5:
 354              		.loc 1 179 0
 355 009e BDF80E30 		ldrh	r3, [sp, #14]
 356 00a2 03F08003 		and	r3, r3, #128
 357 00a6 002B     		cmp	r3, #0
 358 00a8 30D0     		beq	.L15
 359              		.loc 1 179 0 is_stmt 0 discriminator 1
 360 00aa BDF81630 		ldrh	r3, [sp, #22]
 361 00ae 03F08003 		and	r3, r3, #128
 362 00b2 002B     		cmp	r3, #0
 363 00b4 2AD0     		beq	.L15
 364              	.LBB6:
 365              	.LBB7:
 366              		.loc 1 181 0 is_stmt 1
 367 00b6 4FF02003 		mov	r3, #32
 368              	@ 181 "../chibios_2.6.3/os/hal/platforms/STM32/USARTv1/serial_lld.c" 1
 369 00ba 83F31188 		msr     BASEPRI, r3
 370              	@ 0 "" 2
 371              		.thumb
 372              	.LBE7:
 373              		.loc 1 182 0
 374 00be 019B     		ldr	r3, [sp, #4]
 375 00c0 03F13003 		add	r3, r3, #48
 376 00c4 1846     		mov	r0, r3
 377 00c6 FFF7FEFF 		bl	chOQGetI
 378 00ca 0346     		mov	r3, r0
 379 00cc 0293     		str	r3, [sp, #8]
 380              		.loc 1 183 0
 381 00ce 029B     		ldr	r3, [sp, #8]
 382 00d0 002B     		cmp	r3, #0
 383 00d2 13DA     		bge	.L16
 384              		.loc 1 184 0
 385 00d4 019B     		ldr	r3, [sp, #4]
 386 00d6 03F10403 		add	r3, r3, #4
 387 00da 1846     		mov	r0, r3
 388 00dc 4FF00801 		mov	r1, #8
 389 00e0 FFF7FEFF 		bl	chEvtBroadcastFlagsI
ARM GAS  C:\Users\z80\AppData\Local\Temp\ccrpgqeh.s 			page 8


 390              		.loc 1 185 0
 391 00e4 BDF80E30 		ldrh	r3, [sp, #14]
 392 00e8 23F0C003 		bic	r3, r3, #192
 393 00ec 9BB2     		uxth	r3, r3
 394 00ee 43F04003 		orr	r3, r3, #64
 395 00f2 9BB2     		uxth	r3, r3
 396 00f4 9AB2     		uxth	r2, r3
 397 00f6 049B     		ldr	r3, [sp, #16]
 398 00f8 9A81     		strh	r2, [r3, #12]	@ movhi
 399 00fa 03E0     		b	.L17
 400              	.L16:
 401              		.loc 1 188 0
 402 00fc 029B     		ldr	r3, [sp, #8]
 403 00fe 9AB2     		uxth	r2, r3
 404 0100 049B     		ldr	r3, [sp, #16]
 405 0102 9A80     		strh	r2, [r3, #4]	@ movhi
 406              	.L17:
 407              	.LBB8:
 408              		.loc 1 189 0
 409 0104 4FF00003 		mov	r3, #0
 410              	@ 189 "../chibios_2.6.3/os/hal/platforms/STM32/USARTv1/serial_lld.c" 1
 411 0108 83F31188 		msr     BASEPRI, r3
 412              	@ 0 "" 2
 413              		.thumb
 414              	.L15:
 415              	.LBE8:
 416              	.LBE6:
 417              		.loc 1 193 0
 418 010c BDF81630 		ldrh	r3, [sp, #22]
 419 0110 03F04003 		and	r3, r3, #64
 420 0114 002B     		cmp	r3, #0
 421 0116 1AD0     		beq	.L10
 422              	.LBB9:
 423              		.loc 1 194 0
 424 0118 4FF02003 		mov	r3, #32
 425              	@ 194 "../chibios_2.6.3/os/hal/platforms/STM32/USARTv1/serial_lld.c" 1
 426 011c 83F31188 		msr     BASEPRI, r3
 427              	@ 0 "" 2
 428              		.thumb
 429              	.LBE9:
 430              		.loc 1 195 0
 431 0120 019B     		ldr	r3, [sp, #4]
 432 0122 03F10403 		add	r3, r3, #4
 433 0126 1846     		mov	r0, r3
 434 0128 4FF01001 		mov	r1, #16
 435 012c FFF7FEFF 		bl	chEvtBroadcastFlagsI
 436              	.LBB10:
 437              		.loc 1 196 0
 438 0130 4FF00003 		mov	r3, #0
 439              	@ 196 "../chibios_2.6.3/os/hal/platforms/STM32/USARTv1/serial_lld.c" 1
 440 0134 83F31188 		msr     BASEPRI, r3
 441              	@ 0 "" 2
 442              		.thumb
 443              	.LBE10:
 444              		.loc 1 197 0
 445 0138 BDF80E30 		ldrh	r3, [sp, #14]	@ movhi
 446 013c 23F0C003 		bic	r3, r3, #192
ARM GAS  C:\Users\z80\AppData\Local\Temp\ccrpgqeh.s 			page 9


 447 0140 9AB2     		uxth	r2, r3
 448 0142 049B     		ldr	r3, [sp, #16]
 449 0144 9A81     		strh	r2, [r3, #12]	@ movhi
 450              		.loc 1 198 0
 451 0146 049B     		ldr	r3, [sp, #16]
 452 0148 4FF6BF72 		movw	r2, #65471
 453 014c 1A80     		strh	r2, [r3, #0]	@ movhi
 454              	.L10:
 455              		.loc 1 200 0
 456 014e 07B0     		add	sp, sp, #28
 457 0150 00BD     		pop	{pc}
 458              		.cfi_endproc
 459              	.LFE66:
 460              		.size	serve_interrupt, .-serve_interrupt
 461 0152 00BFAFF3 		.section	.text.notify2,"ax",%progbits
 461      0080AFF3 
 461      0080AFF3 
 461      0080
 462              		.align	2
 463              		.p2align 4,,15
 464              		.thumb
 465              		.thumb_func
 466              		.type	notify2, %function
 467              	notify2:
 468              	.LFB67:
 469              		.loc 1 211 0
 470              		.cfi_startproc
 471              		@ args = 0, pretend = 0, frame = 8
 472              		@ frame_needed = 0, uses_anonymous_args = 0
 473              		@ link register save eliminated.
 474 0000 82B0     		sub	sp, sp, #8
 475              	.LCFI6:
 476              		.cfi_def_cfa_offset 8
 477 0002 0190     		str	r0, [sp, #4]
 478              		.loc 1 214 0
 479 0004 4FF48843 		mov	r3, #17408
 480 0008 C4F20003 		movt	r3, 16384
 481 000c 4FF48842 		mov	r2, #17408
 482 0010 C4F20002 		movt	r2, 16384
 483 0014 9289     		ldrh	r2, [r2, #12]	@ movhi
 484 0016 92B2     		uxth	r2, r2
 485 0018 42F08002 		orr	r2, r2, #128
 486 001c 92B2     		uxth	r2, r2
 487 001e 9A81     		strh	r2, [r3, #12]	@ movhi
 488              		.loc 1 215 0
 489 0020 02B0     		add	sp, sp, #8
 490 0022 7047     		bx	lr
 491              		.cfi_endproc
 492              	.LFE67:
 493              		.size	notify2, .-notify2
 494 0024 AFF30080 		.section	.text.VectorD8,"ax",%progbits
 494      AFF30080 
 494      AFF30080 
 495              		.align	2
 496              		.p2align 4,,15
 497              		.global	VectorD8
 498              		.thumb
ARM GAS  C:\Users\z80\AppData\Local\Temp\ccrpgqeh.s 			page 10


 499              		.thumb_func
 500              		.type	VectorD8, %function
 501              	VectorD8:
 502              	.LFB68:
 503              		.loc 1 282 0
 504              		.cfi_startproc
 505              		@ args = 0, pretend = 0, frame = 0
 506              		@ frame_needed = 0, uses_anonymous_args = 0
 507 0000 08B5     		push	{r3, lr}
 508              	.LCFI7:
 509              		.cfi_def_cfa_offset 8
 510              		.loc 1 286 0
 511 0002 40F20000 		movw	r0, #:lower16:SD2
 512 0006 C0F20000 		movt	r0, #:upper16:SD2
 513              		.cfi_offset 14, -4
 514              		.cfi_offset 3, -8
 515 000a FFF7FEFF 		bl	serve_interrupt
 516              		.loc 1 288 0
 517 000e FFF7FEFF 		bl	_port_irq_epilogue
 518              		.loc 1 289 0
 519 0012 08BD     		pop	{r3, pc}
 520              		.cfi_endproc
 521              	.LFE68:
 522              		.size	VectorD8, .-VectorD8
 523 0014 AFF30080 		.section	.text.sd_lld_init,"ax",%progbits
 523      AFF30080 
 523      AFF30080 
 524              		.align	2
 525              		.p2align 4,,15
 526              		.global	sd_lld_init
 527              		.thumb
 528              		.thumb_func
 529              		.type	sd_lld_init, %function
 530              	sd_lld_init:
 531              	.LFB69:
 532              		.loc 1 377 0
 533              		.cfi_startproc
 534              		@ args = 0, pretend = 0, frame = 0
 535              		@ frame_needed = 0, uses_anonymous_args = 0
 536 0000 08B5     		push	{r3, lr}
 537              	.LCFI8:
 538              		.cfi_def_cfa_offset 8
 539              		.loc 1 385 0
 540 0002 40F20000 		movw	r0, #:lower16:SD2
 541 0006 C0F20000 		movt	r0, #:upper16:SD2
 542 000a 4FF00001 		mov	r1, #0
 543 000e 40F20002 		movw	r2, #:lower16:notify2
 544 0012 C0F20002 		movt	r2, #:upper16:notify2
 545              		.cfi_offset 14, -4
 546              		.cfi_offset 3, -8
 547 0016 FFF7FEFF 		bl	sdObjectInit
 548              		.loc 1 386 0
 549 001a 40F20003 		movw	r3, #:lower16:SD2
 550 001e C0F20003 		movt	r3, #:upper16:SD2
 551 0022 4FF48842 		mov	r2, #17408
 552 0026 C4F20002 		movt	r2, 16384
 553 002a 5A67     		str	r2, [r3, #116]
ARM GAS  C:\Users\z80\AppData\Local\Temp\ccrpgqeh.s 			page 11


 554              		.loc 1 408 0
 555 002c 08BD     		pop	{r3, pc}
 556              		.cfi_endproc
 557              	.LFE69:
 558              		.size	sd_lld_init, .-sd_lld_init
 559 002e 00BF     		.section	.text.sd_lld_start,"ax",%progbits
 560              		.align	2
 561              		.p2align 4,,15
 562              		.global	sd_lld_start
 563              		.thumb
 564              		.thumb_func
 565              		.type	sd_lld_start, %function
 566              	sd_lld_start:
 567              	.LFB70:
 568              		.loc 1 420 0
 569              		.cfi_startproc
 570              		@ args = 0, pretend = 0, frame = 8
 571              		@ frame_needed = 0, uses_anonymous_args = 0
 572 0000 00B5     		push	{lr}
 573              	.LCFI9:
 574              		.cfi_def_cfa_offset 4
 575 0002 83B0     		sub	sp, sp, #12
 576              	.LCFI10:
 577              		.cfi_def_cfa_offset 16
 578 0004 0190     		str	r0, [sp, #4]
 579 0006 0091     		str	r1, [sp, #0]
 580              		.loc 1 422 0
 581 0008 009B     		ldr	r3, [sp, #0]
 582 000a 002B     		cmp	r3, #0
 583 000c 04D1     		bne	.L23
 584              		.cfi_offset 14, -4
 585              		.loc 1 423 0
 586 000e 40F20003 		movw	r3, #:lower16:default_config
 587 0012 C0F20003 		movt	r3, #:upper16:default_config
 588 0016 0093     		str	r3, [sp, #0]
 589              	.L23:
 590              		.loc 1 425 0
 591 0018 019B     		ldr	r3, [sp, #4]
 592 001a 1B7A     		ldrb	r3, [r3, #8]	@ zero_extendqisi2
 593 001c 012B     		cmp	r3, #1
 594 001e 18D1     		bne	.L24
 595              		.loc 1 434 0
 596 0020 019A     		ldr	r2, [sp, #4]
 597 0022 40F20003 		movw	r3, #:lower16:SD2
 598 0026 C0F20003 		movt	r3, #:upper16:SD2
 599 002a 9A42     		cmp	r2, r3
 600 002c 11D1     		bne	.L24
 601              		.loc 1 435 0
 602 002e 4FF48053 		mov	r3, #4096
 603 0032 C4F20203 		movt	r3, 16386
 604 0036 4FF48052 		mov	r2, #4096
 605 003a C4F20202 		movt	r2, 16386
 606 003e D269     		ldr	r2, [r2, #28]
 607 0040 42F40032 		orr	r2, r2, #131072
 608 0044 DA61     		str	r2, [r3, #28]
 609              		.loc 1 436 0
 610 0046 4FF02600 		mov	r0, #38
ARM GAS  C:\Users\z80\AppData\Local\Temp\ccrpgqeh.s 			page 12


 611 004a 4FF0C001 		mov	r1, #192
 612 004e FFF7FEFF 		bl	nvicEnableVector
 613              	.L24:
 614              		.loc 1 469 0
 615 0052 0198     		ldr	r0, [sp, #4]
 616 0054 0099     		ldr	r1, [sp, #0]
 617 0056 FFF7FEFF 		bl	usart_init
 618              		.loc 1 470 0
 619 005a 03B0     		add	sp, sp, #12
 620 005c 00BD     		pop	{pc}
 621              		.cfi_endproc
 622              	.LFE70:
 623              		.size	sd_lld_start, .-sd_lld_start
 624 005e 00BF     		.section	.text.sd_lld_stop,"ax",%progbits
 625              		.align	2
 626              		.p2align 4,,15
 627              		.global	sd_lld_stop
 628              		.thumb
 629              		.thumb_func
 630              		.type	sd_lld_stop, %function
 631              	sd_lld_stop:
 632              	.LFB71:
 633              		.loc 1 481 0
 634              		.cfi_startproc
 635              		@ args = 0, pretend = 0, frame = 8
 636              		@ frame_needed = 0, uses_anonymous_args = 0
 637 0000 00B5     		push	{lr}
 638              	.LCFI11:
 639              		.cfi_def_cfa_offset 4
 640 0002 83B0     		sub	sp, sp, #12
 641              	.LCFI12:
 642              		.cfi_def_cfa_offset 16
 643 0004 0190     		str	r0, [sp, #4]
 644              		.loc 1 483 0
 645 0006 019B     		ldr	r3, [sp, #4]
 646 0008 1B7A     		ldrb	r3, [r3, #8]	@ zero_extendqisi2
 647 000a 022B     		cmp	r3, #2
 648 000c 1CD1     		bne	.L25
 649              		.cfi_offset 14, -4
 650              		.loc 1 484 0
 651 000e 019B     		ldr	r3, [sp, #4]
 652 0010 5B6F     		ldr	r3, [r3, #116]
 653 0012 1846     		mov	r0, r3
 654 0014 FFF7FEFF 		bl	usart_deinit
 655              		.loc 1 493 0
 656 0018 019A     		ldr	r2, [sp, #4]
 657 001a 40F20003 		movw	r3, #:lower16:SD2
 658 001e C0F20003 		movt	r3, #:upper16:SD2
 659 0022 9A42     		cmp	r2, r3
 660 0024 10D1     		bne	.L25
 661              		.loc 1 494 0
 662 0026 4FF48053 		mov	r3, #4096
 663 002a C4F20203 		movt	r3, 16386
 664 002e 4FF48052 		mov	r2, #4096
 665 0032 C4F20202 		movt	r2, 16386
 666 0036 D269     		ldr	r2, [r2, #28]
 667 0038 22F40032 		bic	r2, r2, #131072
ARM GAS  C:\Users\z80\AppData\Local\Temp\ccrpgqeh.s 			page 13


 668 003c DA61     		str	r2, [r3, #28]
 669              		.loc 1 495 0
 670 003e 4FF02600 		mov	r0, #38
 671 0042 FFF7FEFF 		bl	nvicDisableVector
 672              		.loc 1 496 0
 673 0046 00BF     		nop
 674              	.L25:
 675              		.loc 1 528 0
 676 0048 03B0     		add	sp, sp, #12
 677 004a 00BD     		pop	{pc}
 678              		.cfi_endproc
 679              	.LFE71:
 680              		.size	sd_lld_stop, .-sd_lld_stop
 681 004c AFF30080 		.text
 682              	.Letext0: