ARM GAS  C:\Users\z80\AppData\Local\Temp\cclK1yqI.s 			page 1


   1              		.syntax unified
   2              		.cpu cortex-m3
   3              		.fpu softvfp
   4              		.eabi_attribute 20, 1
   5              		.eabi_attribute 21, 1
   6              		.eabi_attribute 23, 3
   7              		.eabi_attribute 24, 1
   8              		.eabi_attribute 25, 1
   9              		.eabi_attribute 26, 1
  10              		.eabi_attribute 30, 6
  11              		.eabi_attribute 18, 4
  12              		.thumb
  13              		.file	"shell.c"
  20 0000 8D030000 		.text
  20      0200F501 
  20      00000201 
  20      FB0E0D00 
  20      01010101 
  21              	.Ltext0:
  22              		.cfi_sections	.debug_frame
  23              		.section	.text.chprintf,"ax",%progbits
  24              		.align	2
  25              		.p2align 4,,15
  26              		.thumb
  27              		.thumb_func
  28              		.type	chprintf, %function
  29              	chprintf:
  30              	.LFB63:
  31              		.file 1 "../chibios_2.6.3/os/various/chprintf.h"
  32              		.loc 1 69 0
  33              		.cfi_startproc
  34              		@ args = 4, pretend = 12, frame = 16
  35              		@ frame_needed = 0, uses_anonymous_args = 1
  36 0000 0EB4     		push	{r1, r2, r3}
  37              	.LCFI0:
  38              		.cfi_def_cfa_offset 12
  39 0002 00B5     		push	{lr}
  40              	.LCFI1:
  41              		.cfi_def_cfa_offset 16
  42 0004 84B0     		sub	sp, sp, #16
  43              	.LCFI2:
  44              		.cfi_def_cfa_offset 32
  45 0006 0190     		str	r0, [sp, #4]
  46              		.loc 1 72 0
  47 0008 06AB     		add	r3, sp, #24
  48              		.cfi_offset 14, -16
  49              		.cfi_offset 3, -4
  50              		.cfi_offset 2, -8
  51              		.cfi_offset 1, -12
  52 000a 0393     		str	r3, [sp, #12]
  53              		.loc 1 73 0
ARM GAS  C:\Users\z80\AppData\Local\Temp\cclK1yqI.s 			page 2


  54 000c 0198     		ldr	r0, [sp, #4]
  55 000e 0599     		ldr	r1, [sp, #20]
  56 0010 039A     		ldr	r2, [sp, #12]
  57 0012 FFF7FEFF 		bl	chvprintf
  58              		.loc 1 75 0
  59 0016 04B0     		add	sp, sp, #16
  60 0018 5DF804EB 		pop	{lr}
  61 001c 03B0     		add	sp, sp, #12
  62 001e 7047     		bx	lr
  63              		.cfi_endproc
  64              	.LFE63:
  65              		.size	chprintf, .-chprintf
  66              		.global	shell_terminated
  67              		.section	.bss.shell_terminated,"aw",%nobits
  68              		.align	2
  69              		.type	shell_terminated, %object
  70              		.size	shell_terminated, 4
  71              	shell_terminated:
  72 0000 00000000 		.space	4
  73              		.section	.text._strtok,"ax",%progbits
  74              		.align	2
  75              		.p2align 4,,15
  76              		.thumb
  77              		.thumb_func
  78              		.type	_strtok, %function
  79              	_strtok:
  80              	.LFB64:
  81              		.file 2 "../chibios_2.6.3/os/various/shell.c"
  82              		.loc 2 37 0
  83              		.cfi_startproc
  84              		@ args = 0, pretend = 0, frame = 24
  85              		@ frame_needed = 0, uses_anonymous_args = 0
  86 0000 00B5     		push	{lr}
  87              	.LCFI3:
  88              		.cfi_def_cfa_offset 4
  89 0002 87B0     		sub	sp, sp, #28
  90              	.LCFI4:
  91              		.cfi_def_cfa_offset 32
  92 0004 0390     		str	r0, [sp, #12]
  93 0006 0291     		str	r1, [sp, #8]
  94 0008 0192     		str	r2, [sp, #4]
  95              		.loc 2 39 0
  96 000a 039B     		ldr	r3, [sp, #12]
  97 000c 002B     		cmp	r3, #0
  98 000e 02D0     		beq	.L3
  99              		.cfi_offset 14, -4
 100              		.loc 2 40 0
 101 0010 019B     		ldr	r3, [sp, #4]
 102 0012 039A     		ldr	r2, [sp, #12]
 103 0014 1A60     		str	r2, [r3, #0]
 104              	.L3:
 105              		.loc 2 41 0
 106 0016 019B     		ldr	r3, [sp, #4]
 107 0018 1B68     		ldr	r3, [r3, #0]
 108 001a 0593     		str	r3, [sp, #20]
 109              		.loc 2 43 0
 110 001c 059B     		ldr	r3, [sp, #20]
ARM GAS  C:\Users\z80\AppData\Local\Temp\cclK1yqI.s 			page 3


 111 001e 002B     		cmp	r3, #0
 112 0020 02D1     		bne	.L4
 113              		.loc 2 44 0
 114 0022 4FF00003 		mov	r3, #0
 115 0026 23E0     		b	.L5
 116              	.L4:
 117              		.loc 2 46 0
 118 0028 0598     		ldr	r0, [sp, #20]
 119 002a 0299     		ldr	r1, [sp, #8]
 120 002c FFF7FEFF 		bl	strspn
 121 0030 0346     		mov	r3, r0
 122 0032 059A     		ldr	r2, [sp, #20]
 123 0034 1344     		add	r3, r2, r3
 124 0036 0593     		str	r3, [sp, #20]
 125              		.loc 2 47 0
 126 0038 0598     		ldr	r0, [sp, #20]
 127 003a 0299     		ldr	r1, [sp, #8]
 128 003c FFF7FEFF 		bl	strpbrk
 129 0040 0246     		mov	r2, r0
 130 0042 019B     		ldr	r3, [sp, #4]
 131 0044 1A60     		str	r2, [r3, #0]
 132              		.loc 2 48 0
 133 0046 019B     		ldr	r3, [sp, #4]
 134 0048 1B68     		ldr	r3, [r3, #0]
 135 004a 002B     		cmp	r3, #0
 136 004c 08D0     		beq	.L6
 137              		.loc 2 49 0
 138 004e 019B     		ldr	r3, [sp, #4]
 139 0050 1B68     		ldr	r3, [r3, #0]
 140 0052 4FF00002 		mov	r2, #0
 141 0056 1A70     		strb	r2, [r3, #0]
 142 0058 03F10102 		add	r2, r3, #1
 143 005c 019B     		ldr	r3, [sp, #4]
 144 005e 1A60     		str	r2, [r3, #0]
 145              	.L6:
 146              		.loc 2 51 0
 147 0060 059B     		ldr	r3, [sp, #20]
 148 0062 1B78     		ldrb	r3, [r3, #0]	@ zero_extendqisi2
 149 0064 002B     		cmp	r3, #0
 150 0066 01D0     		beq	.L7
 151              		.loc 2 51 0 is_stmt 0 discriminator 1
 152 0068 059B     		ldr	r3, [sp, #20]
 153 006a 01E0     		b	.L8
 154              	.L7:
 155              		.loc 2 51 0 discriminator 2
 156 006c 4FF00003 		mov	r3, #0
 157              	.L8:
 158              	.L5:
 159              		.loc 2 52 0 is_stmt 1
 160 0070 1846     		mov	r0, r3
 161 0072 07B0     		add	sp, sp, #28
 162 0074 00BD     		pop	{pc}
 163              		.cfi_endproc
 164              	.LFE64:
 165              		.size	_strtok, .-_strtok
 166 0076 00BFAFF3 		.section	.rodata
 166      0080AFF3 
ARM GAS  C:\Users\z80\AppData\Local\Temp\cclK1yqI.s 			page 4


 166      0080
 167              		.align	2
 168              	.LC0:
 169 0000 55736167 		.ascii	"Usage: %s\015\012\000"
 169      653A2025 
 169      730D0A00 
 170              		.section	.text.usage,"ax",%progbits
 171              		.align	2
 172              		.p2align 4,,15
 173              		.thumb
 174              		.thumb_func
 175              		.type	usage, %function
 176              	usage:
 177              	.LFB65:
 178              		.loc 2 54 0
 179              		.cfi_startproc
 180              		@ args = 0, pretend = 0, frame = 8
 181              		@ frame_needed = 0, uses_anonymous_args = 0
 182 0000 00B5     		push	{lr}
 183              	.LCFI5:
 184              		.cfi_def_cfa_offset 4
 185 0002 83B0     		sub	sp, sp, #12
 186              	.LCFI6:
 187              		.cfi_def_cfa_offset 16
 188 0004 0190     		str	r0, [sp, #4]
 189 0006 0091     		str	r1, [sp, #0]
 190              		.loc 2 56 0
 191 0008 0198     		ldr	r0, [sp, #4]
 192 000a 40F20001 		movw	r1, #:lower16:.LC0
 193 000e C0F20001 		movt	r1, #:upper16:.LC0
 194 0012 009A     		ldr	r2, [sp, #0]
 195              		.cfi_offset 14, -4
 196 0014 FFF7FEFF 		bl	chprintf
 197              		.loc 2 57 0
 198 0018 03B0     		add	sp, sp, #12
 199 001a 00BD     		pop	{pc}
 200              		.cfi_endproc
 201              	.LFE65:
 202              		.size	usage, .-usage
 203 001c AFF30080 		.section	.rodata
 204              		.align	2
 205              	.LC1:
 206 000c 25732000 		.ascii	"%s \000"
 207              		.section	.text.list_commands,"ax",%progbits
 208              		.align	2
 209              		.p2align 4,,15
 210              		.thumb
 211              		.thumb_func
 212              		.type	list_commands, %function
 213              	list_commands:
 214              	.LFB66:
 215              		.loc 2 59 0
 216              		.cfi_startproc
 217              		@ args = 0, pretend = 0, frame = 8
 218              		@ frame_needed = 0, uses_anonymous_args = 0
 219 0000 00B5     		push	{lr}
 220              	.LCFI7:
ARM GAS  C:\Users\z80\AppData\Local\Temp\cclK1yqI.s 			page 5


 221              		.cfi_def_cfa_offset 4
 222 0002 83B0     		sub	sp, sp, #12
 223              	.LCFI8:
 224              		.cfi_def_cfa_offset 16
 225 0004 0190     		str	r0, [sp, #4]
 226 0006 0091     		str	r1, [sp, #0]
 227              		.loc 2 61 0
 228 0008 0DE0     		b	.L11
 229              		.cfi_offset 14, -4
 230              	.L12:
 231              		.loc 2 62 0
 232 000a 009B     		ldr	r3, [sp, #0]
 233 000c 1B68     		ldr	r3, [r3, #0]
 234 000e 0198     		ldr	r0, [sp, #4]
 235 0010 40F20001 		movw	r1, #:lower16:.LC1
 236 0014 C0F20001 		movt	r1, #:upper16:.LC1
 237 0018 1A46     		mov	r2, r3
 238 001a FFF7FEFF 		bl	chprintf
 239              		.loc 2 63 0
 240 001e 009B     		ldr	r3, [sp, #0]
 241 0020 03F10803 		add	r3, r3, #8
 242 0024 0093     		str	r3, [sp, #0]
 243              	.L11:
 244              		.loc 2 61 0 discriminator 1
 245 0026 009B     		ldr	r3, [sp, #0]
 246 0028 1B68     		ldr	r3, [r3, #0]
 247 002a 002B     		cmp	r3, #0
 248 002c EDD1     		bne	.L12
 249              		.loc 2 65 0
 250 002e 03B0     		add	sp, sp, #12
 251 0030 00BD     		pop	{pc}
 252              		.cfi_endproc
 253              	.LFE66:
 254              		.size	list_commands, .-list_commands
 255 0032 00BFAFF3 		.section	.rodata
 255      0080AFF3 
 255      0080AFF3 
 255      0080
 256              		.align	2
 257              	.LC2:
 258 0010 696E666F 		.ascii	"info\000"
 258      00
 259 0015 000000   		.align	2
 260              	.LC3:
 261 0018 4B65726E 		.ascii	"Kernel:       %s\015\012\000"
 261      656C3A20 
 261      20202020 
 261      20202573 
 261      0D0A00
 262 002b 00       		.align	2
 263              	.LC4:
 264 002c 322E362E 		.ascii	"2.6.3\000"
 264      3300
 265 0032 0000     		.align	2
 266              	.LC5:
 267 0034 436F6D70 		.ascii	"Compiler:     %s\015\012\000"
 267      696C6572 
ARM GAS  C:\Users\z80\AppData\Local\Temp\cclK1yqI.s 			page 6


 267      3A202020 
 267      20202573 
 267      0D0A00
 268 0047 00       		.align	2
 269              	.LC6:
 270 0048 47434320 		.ascii	"GCC 4.5.0\000"
 270      342E352E 
 270      3000
 271 0052 0000     		.align	2
 272              	.LC7:
 273 0054 41726368 		.ascii	"Architecture: %s\015\012\000"
 273      69746563 
 273      74757265 
 273      3A202573 
 273      0D0A00
 274 0067 00       		.align	2
 275              	.LC8:
 276 0068 41524D76 		.ascii	"ARMv7-M\000"
 276      372D4D00 
 277              		.align	2
 278              	.LC9:
 279 0070 436F7265 		.ascii	"Core Variant: %s\015\012\000"
 279      20566172 
 279      69616E74 
 279      3A202573 
 279      0D0A00
 280 0083 00       		.align	2
 281              	.LC10:
 282 0084 436F7274 		.ascii	"Cortex-M3\000"
 282      65782D4D 
 282      3300
 283 008e 0000     		.align	2
 284              	.LC11:
 285 0090 506F7274 		.ascii	"Port Info:    %s\015\012\000"
 285      20496E66 
 285      6F3A2020 
 285      20202573 
 285      0D0A00
 286 00a3 00       		.align	2
 287              	.LC12:
 288 00a4 41647661 		.ascii	"Advanced kernel mode\000"
 288      6E636564 
 288      206B6572 
 288      6E656C20 
 288      6D6F6465 
 289 00b9 000000   		.align	2
 290              	.LC13:
 291 00bc 506C6174 		.ascii	"Platform:     %s\015\012\000"
 291      666F726D 
 291      3A202020 
 291      20202573 
 291      0D0A00
 292 00cf 00       		.align	2
 293              	.LC14:
 294 00d0 53544D33 		.ascii	"STM32F10x Performance Line Medium Density\000"
 294      32463130 
 294      78205065 
ARM GAS  C:\Users\z80\AppData\Local\Temp\cclK1yqI.s 			page 7


 294      72666F72 
 294      6D616E63 
 295 00fa 0000     		.align	2
 296              	.LC15:
 297 00fc 426F6172 		.ascii	"Board:        %s\015\012\000"
 297      643A2020 
 297      20202020 
 297      20202573 
 297      0D0A00
 298 010f 00       		.align	2
 299              	.LC16:
 300 0110 6D792063 		.ascii	"my ctrl-board\000"
 300      74726C2D 
 300      626F6172 
 300      6400
 301 011e 0000     		.align	2
 302              	.LC17:
 303 0120 4275696C 		.ascii	"Build time:   %s%s%s\015\012\000"
 303      64207469 
 303      6D653A20 
 303      20202573 
 303      25732573 
 304 0137 00       		.align	2
 305              	.LC18:
 306 0138 4D617220 		.ascii	"Mar 30 2014\000"
 306      33302032 
 306      30313400 
 307              		.align	2
 308              	.LC19:
 309 0144 202D2000 		.ascii	" - \000"
 310              		.align	2
 311              	.LC20:
 312 0148 31393A34 		.ascii	"19:45:52\000"
 312      353A3532 
 312      00
 313              		.section	.text.cmd_info,"ax",%progbits
 314              		.align	2
 315              		.p2align 4,,15
 316              		.thumb
 317              		.thumb_func
 318              		.type	cmd_info, %function
 319              	cmd_info:
 320              	.LFB67:
 321              		.loc 2 67 0
 322              		.cfi_startproc
 323              		@ args = 0, pretend = 0, frame = 16
 324              		@ frame_needed = 0, uses_anonymous_args = 0
 325 0000 00B5     		push	{lr}
 326              	.LCFI9:
 327              		.cfi_def_cfa_offset 4
 328 0002 87B0     		sub	sp, sp, #28
 329              	.LCFI10:
 330              		.cfi_def_cfa_offset 32
 331 0004 0590     		str	r0, [sp, #20]
 332 0006 0491     		str	r1, [sp, #16]
 333 0008 0392     		str	r2, [sp, #12]
 334              		.loc 2 70 0
ARM GAS  C:\Users\z80\AppData\Local\Temp\cclK1yqI.s 			page 8


 335 000a 049B     		ldr	r3, [sp, #16]
 336 000c 002B     		cmp	r3, #0
 337 000e 07DD     		ble	.L14
 338              		.cfi_offset 14, -4
 339              		.loc 2 71 0
 340 0010 0598     		ldr	r0, [sp, #20]
 341 0012 40F20001 		movw	r1, #:lower16:.LC2
 342 0016 C0F20001 		movt	r1, #:upper16:.LC2
 343 001a FFF7FEFF 		bl	usage
 344              		.loc 2 72 0
 345 001e 60E0     		b	.L13
 346              	.L14:
 347              		.loc 2 75 0
 348 0020 0598     		ldr	r0, [sp, #20]
 349 0022 40F20001 		movw	r1, #:lower16:.LC3
 350 0026 C0F20001 		movt	r1, #:upper16:.LC3
 351 002a 40F20002 		movw	r2, #:lower16:.LC4
 352 002e C0F20002 		movt	r2, #:upper16:.LC4
 353 0032 FFF7FEFF 		bl	chprintf
 354              		.loc 2 77 0
 355 0036 0598     		ldr	r0, [sp, #20]
 356 0038 40F20001 		movw	r1, #:lower16:.LC5
 357 003c C0F20001 		movt	r1, #:upper16:.LC5
 358 0040 40F20002 		movw	r2, #:lower16:.LC6
 359 0044 C0F20002 		movt	r2, #:upper16:.LC6
 360 0048 FFF7FEFF 		bl	chprintf
 361              		.loc 2 79 0
 362 004c 0598     		ldr	r0, [sp, #20]
 363 004e 40F20001 		movw	r1, #:lower16:.LC7
 364 0052 C0F20001 		movt	r1, #:upper16:.LC7
 365 0056 40F20002 		movw	r2, #:lower16:.LC8
 366 005a C0F20002 		movt	r2, #:upper16:.LC8
 367 005e FFF7FEFF 		bl	chprintf
 368              		.loc 2 81 0
 369 0062 0598     		ldr	r0, [sp, #20]
 370 0064 40F20001 		movw	r1, #:lower16:.LC9
 371 0068 C0F20001 		movt	r1, #:upper16:.LC9
 372 006c 40F20002 		movw	r2, #:lower16:.LC10
 373 0070 C0F20002 		movt	r2, #:upper16:.LC10
 374 0074 FFF7FEFF 		bl	chprintf
 375              		.loc 2 84 0
 376 0078 0598     		ldr	r0, [sp, #20]
 377 007a 40F20001 		movw	r1, #:lower16:.LC11
 378 007e C0F20001 		movt	r1, #:upper16:.LC11
 379 0082 40F20002 		movw	r2, #:lower16:.LC12
 380 0086 C0F20002 		movt	r2, #:upper16:.LC12
 381 008a FFF7FEFF 		bl	chprintf
 382              		.loc 2 87 0
 383 008e 0598     		ldr	r0, [sp, #20]
 384 0090 40F20001 		movw	r1, #:lower16:.LC13
 385 0094 C0F20001 		movt	r1, #:upper16:.LC13
 386 0098 40F20002 		movw	r2, #:lower16:.LC14
 387 009c C0F20002 		movt	r2, #:upper16:.LC14
 388 00a0 FFF7FEFF 		bl	chprintf
 389              		.loc 2 90 0
 390 00a4 0598     		ldr	r0, [sp, #20]
 391 00a6 40F20001 		movw	r1, #:lower16:.LC15
ARM GAS  C:\Users\z80\AppData\Local\Temp\cclK1yqI.s 			page 9


 392 00aa C0F20001 		movt	r1, #:upper16:.LC15
 393 00ae 40F20002 		movw	r2, #:lower16:.LC16
 394 00b2 C0F20002 		movt	r2, #:upper16:.LC16
 395 00b6 FFF7FEFF 		bl	chprintf
 396              		.loc 2 94 0
 397 00ba 40F20003 		movw	r3, #:lower16:.LC20
 398 00be C0F20003 		movt	r3, #:upper16:.LC20
 399 00c2 0093     		str	r3, [sp, #0]
 400 00c4 0598     		ldr	r0, [sp, #20]
 401 00c6 40F20001 		movw	r1, #:lower16:.LC17
 402 00ca C0F20001 		movt	r1, #:upper16:.LC17
 403 00ce 40F20002 		movw	r2, #:lower16:.LC18
 404 00d2 C0F20002 		movt	r2, #:upper16:.LC18
 405 00d6 40F20003 		movw	r3, #:lower16:.LC19
 406 00da C0F20003 		movt	r3, #:upper16:.LC19
 407 00de FFF7FEFF 		bl	chprintf
 408              	.L13:
 409              		.loc 2 97 0
 410 00e2 07B0     		add	sp, sp, #28
 411 00e4 00BD     		pop	{pc}
 412              		.cfi_endproc
 413              	.LFE67:
 414              		.size	cmd_info, .-cmd_info
 415 00e6 00BFAFF3 		.section	.rodata
 415      0080AFF3 
 415      0080
 416 0151 000000   		.align	2
 417              	.LC21:
 418 0154 73797374 		.ascii	"systime\000"
 418      696D6500 
 419              		.align	2
 420              	.LC22:
 421 015c 256C750D 		.ascii	"%lu\015\012\000"
 421      0A00
 422              		.section	.text.cmd_systime,"ax",%progbits
 423              		.align	2
 424              		.p2align 4,,15
 425              		.thumb
 426              		.thumb_func
 427              		.type	cmd_systime, %function
 428              	cmd_systime:
 429              	.LFB68:
 430              		.loc 2 99 0
 431              		.cfi_startproc
 432              		@ args = 0, pretend = 0, frame = 16
 433              		@ frame_needed = 0, uses_anonymous_args = 0
 434 0000 00B5     		push	{lr}
 435              	.LCFI11:
 436              		.cfi_def_cfa_offset 4
 437 0002 85B0     		sub	sp, sp, #20
 438              	.LCFI12:
 439              		.cfi_def_cfa_offset 24
 440 0004 0390     		str	r0, [sp, #12]
 441 0006 0291     		str	r1, [sp, #8]
 442 0008 0192     		str	r2, [sp, #4]
 443              		.loc 2 102 0
 444 000a 029B     		ldr	r3, [sp, #8]
ARM GAS  C:\Users\z80\AppData\Local\Temp\cclK1yqI.s 			page 10


 445 000c 002B     		cmp	r3, #0
 446 000e 07DD     		ble	.L17
 447              		.cfi_offset 14, -4
 448              		.loc 2 103 0
 449 0010 0398     		ldr	r0, [sp, #12]
 450 0012 40F20001 		movw	r1, #:lower16:.LC21
 451 0016 C0F20001 		movt	r1, #:upper16:.LC21
 452 001a FFF7FEFF 		bl	usage
 453              		.loc 2 104 0
 454 001e 0CE0     		b	.L16
 455              	.L17:
 456              		.loc 2 106 0
 457 0020 40F20003 		movw	r3, #:lower16:vtlist
 458 0024 C0F20003 		movt	r3, #:upper16:vtlist
 459 0028 DB68     		ldr	r3, [r3, #12]
 460 002a 0398     		ldr	r0, [sp, #12]
 461 002c 40F20001 		movw	r1, #:lower16:.LC22
 462 0030 C0F20001 		movt	r1, #:upper16:.LC22
 463 0034 1A46     		mov	r2, r3
 464 0036 FFF7FEFF 		bl	chprintf
 465              	.L16:
 466              		.loc 2 107 0
 467 003a 05B0     		add	sp, sp, #20
 468 003c 00BD     		pop	{pc}
 469              		.cfi_endproc
 470              	.LFE68:
 471              		.size	cmd_systime, .-cmd_systime
 472 003e 00BF     		.section	.data.local_commands,"aw",%progbits
 473              		.align	2
 474              		.type	local_commands, %object
 475              		.size	local_commands, 24
 476              	local_commands:
 477 0000 10000000 		.word	.LC2
 478 0004 00000000 		.word	cmd_info
 479 0008 54010000 		.word	.LC21
 480 000c 00000000 		.word	cmd_systime
 481 0010 00000000 		.word	0
 482 0014 00000000 		.word	0
 483              		.section	.text.cmdexec,"ax",%progbits
 484              		.align	2
 485              		.p2align 4,,15
 486              		.thumb
 487              		.thumb_func
 488              		.type	cmdexec, %function
 489              	cmdexec:
 490              	.LFB69:
 491              		.loc 2 119 0
 492              		.cfi_startproc
 493              		@ args = 4, pretend = 0, frame = 16
 494              		@ frame_needed = 0, uses_anonymous_args = 0
 495 0000 00B5     		push	{lr}
 496              	.LCFI13:
 497              		.cfi_def_cfa_offset 4
 498 0002 85B0     		sub	sp, sp, #20
 499              	.LCFI14:
 500              		.cfi_def_cfa_offset 24
 501 0004 0390     		str	r0, [sp, #12]
ARM GAS  C:\Users\z80\AppData\Local\Temp\cclK1yqI.s 			page 11


 502 0006 0291     		str	r1, [sp, #8]
 503 0008 0192     		str	r2, [sp, #4]
 504 000a 0093     		str	r3, [sp, #0]
 505              		.loc 2 121 0
 506 000c 15E0     		b	.L20
 507              		.cfi_offset 14, -4
 508              	.L23:
 509              		.loc 2 122 0
 510 000e 039B     		ldr	r3, [sp, #12]
 511 0010 1B68     		ldr	r3, [r3, #0]
 512 0012 1846     		mov	r0, r3
 513 0014 0199     		ldr	r1, [sp, #4]
 514 0016 FFF7FEFF 		bl	strcasecmp
 515 001a 0346     		mov	r3, r0
 516 001c 002B     		cmp	r3, #0
 517 001e 08D1     		bne	.L21
 518              		.loc 2 123 0
 519 0020 039B     		ldr	r3, [sp, #12]
 520 0022 5B68     		ldr	r3, [r3, #4]
 521 0024 0298     		ldr	r0, [sp, #8]
 522 0026 0099     		ldr	r1, [sp, #0]
 523 0028 069A     		ldr	r2, [sp, #24]
 524 002a 9847     		blx	r3
 525              		.loc 2 124 0
 526 002c 4FF00003 		mov	r3, #0
 527 0030 09E0     		b	.L22
 528              	.L21:
 529              		.loc 2 126 0
 530 0032 039B     		ldr	r3, [sp, #12]
 531 0034 03F10803 		add	r3, r3, #8
 532 0038 0393     		str	r3, [sp, #12]
 533              	.L20:
 534              		.loc 2 121 0 discriminator 1
 535 003a 039B     		ldr	r3, [sp, #12]
 536 003c 1B68     		ldr	r3, [r3, #0]
 537 003e 002B     		cmp	r3, #0
 538 0040 E5D1     		bne	.L23
 539              		.loc 2 128 0
 540 0042 4FF00103 		mov	r3, #1
 541              	.L22:
 542              		.loc 2 129 0
 543 0046 1846     		mov	r0, r3
 544 0048 05B0     		add	sp, sp, #20
 545 004a 00BD     		pop	{pc}
 546              		.cfi_endproc
 547              	.LFE69:
 548              		.size	cmdexec, .-cmdexec
 549 004c AFF30080 		.section	.rodata
 550 0162 0000     		.align	2
 551              	.LC23:
 552 0164 7368656C 		.ascii	"shell\000"
 552      6C00
 553 016a 0000     		.align	2
 554              	.LC24:
 555 016c 0D0A4368 		.ascii	"\015\012ChibiOS/RT Shell\015\012\000"
 555      6962694F 
 555      532F5254 
ARM GAS  C:\Users\z80\AppData\Local\Temp\cclK1yqI.s 			page 12


 555      20536865 
 555      6C6C0D0A 
 556 0181 000000   		.align	2
 557              	.LC25:
 558 0184 63683E20 		.ascii	"ch> \000"
 558      00
 559 0189 000000   		.align	2
 560              	.LC26:
 561 018c 0D0A6C6F 		.ascii	"\015\012logout\000"
 561      676F7574 
 561      00
 562 0195 000000   		.align	2
 563              	.LC27:
 564 0198 200900   		.ascii	" \011\000"
 565 019b 00       		.align	2
 566              	.LC28:
 567 019c 746F6F20 		.ascii	"too many arguments\015\012\000"
 567      6D616E79 
 567      20617267 
 567      756D656E 
 567      74730D0A 
 568 01b1 000000   		.align	2
 569              	.LC29:
 570 01b4 65786974 		.ascii	"exit\000"
 570      00
 571 01b9 000000   		.align	2
 572              	.LC30:
 573 01bc 68656C70 		.ascii	"help\000"
 573      00
 574 01c1 000000   		.align	2
 575              	.LC31:
 576 01c4 436F6D6D 		.ascii	"Commands: help exit \000"
 576      616E6473 
 576      3A206865 
 576      6C702065 
 576      78697420 
 577 01d9 000000   		.align	2
 578              	.LC32:
 579 01dc 0D0A00   		.ascii	"\015\012\000"
 580 01df 00       		.align	2
 581              	.LC33:
 582 01e0 257300   		.ascii	"%s\000"
 583 01e3 00       		.align	2
 584              	.LC34:
 585 01e4 203F0D0A 		.ascii	" ?\015\012\000"
 585      00
 586              		.section	.text.shell_thread,"ax",%progbits
 587              		.align	2
 588              		.p2align 4,,15
 589              		.thumb
 590              		.thumb_func
 591              		.type	shell_thread, %function
 592              	shell_thread:
 593              	.LFB70:
 594              		.loc 2 141 0
 595              		.cfi_startproc
 596              		@ args = 0, pretend = 0, frame = 120
ARM GAS  C:\Users\z80\AppData\Local\Temp\cclK1yqI.s 			page 13


 597              		@ frame_needed = 0, uses_anonymous_args = 0
 598 0000 00B5     		push	{lr}
 599              	.LCFI15:
 600              		.cfi_def_cfa_offset 4
 601 0002 A1B0     		sub	sp, sp, #132
 602              	.LCFI16:
 603              		.cfi_def_cfa_offset 136
 604 0004 0390     		str	r0, [sp, #12]
 605              		.loc 2 143 0
 606 0006 039B     		ldr	r3, [sp, #12]
 607 0008 1B68     		ldr	r3, [r3, #0]
 608 000a 1D93     		str	r3, [sp, #116]
 609              		.loc 2 144 0
 610 000c 039B     		ldr	r3, [sp, #12]
 611 000e 5B68     		ldr	r3, [r3, #4]
 612 0010 1C93     		str	r3, [sp, #112]
 613              		.loc 2 148 0
 614 0012 40F20003 		movw	r3, #:lower16:rlist
 615 0016 C0F20003 		movt	r3, #:upper16:rlist
 616 001a 9A69     		ldr	r2, [r3, #24]
 617 001c 40F20003 		movw	r3, #:lower16:.LC23
 618 0020 C0F20003 		movt	r3, #:upper16:.LC23
 619 0024 9361     		str	r3, [r2, #24]
 620              		.loc 2 149 0
 621 0026 1D98     		ldr	r0, [sp, #116]
 622 0028 40F20001 		movw	r1, #:lower16:.LC24
 623 002c C0F20001 		movt	r1, #:upper16:.LC24
 624              		.cfi_offset 14, -4
 625 0030 FFF7FEFF 		bl	chprintf
 626 0034 04E0     		b	.L38
 627              	.L39:
 628              		.loc 2 193 0
 629 0036 00BF     		nop
 630 0038 02E0     		b	.L38
 631              	.L41:
 632 003a 00BF     		nop
 633 003c 00E0     		b	.L38
 634              	.L42:
 635 003e 00BF     		nop
 636              	.L38:
 637              		.loc 2 151 0
 638 0040 1D98     		ldr	r0, [sp, #116]
 639 0042 40F20001 		movw	r1, #:lower16:.LC25
 640 0046 C0F20001 		movt	r1, #:upper16:.LC25
 641 004a FFF7FEFF 		bl	chprintf
 642              		.loc 2 152 0
 643 004e 0AAB     		add	r3, sp, #40
 644 0050 1D98     		ldr	r0, [sp, #116]
 645 0052 1946     		mov	r1, r3
 646 0054 4FF04002 		mov	r2, #64
 647 0058 FFF7FEFF 		bl	shellGetLine
 648 005c 0346     		mov	r3, r0
 649 005e 002B     		cmp	r3, #0
 650 0060 07D0     		beq	.L25
 651              		.loc 2 153 0
 652 0062 1D98     		ldr	r0, [sp, #116]
 653 0064 40F20001 		movw	r1, #:lower16:.LC26
ARM GAS  C:\Users\z80\AppData\Local\Temp\cclK1yqI.s 			page 14


 654 0068 C0F20001 		movt	r1, #:upper16:.LC26
 655 006c FFF7FEFF 		bl	chprintf
 656              		.loc 2 154 0
 657 0070 BDE0     		b	.L26
 658              	.L25:
 659              		.loc 2 156 0
 660 0072 0AAA     		add	r2, sp, #40
 661 0074 1AAB     		add	r3, sp, #104
 662 0076 1046     		mov	r0, r2
 663 0078 40F20001 		movw	r1, #:lower16:.LC27
 664 007c C0F20001 		movt	r1, #:upper16:.LC27
 665 0080 1A46     		mov	r2, r3
 666 0082 FFF7FEFF 		bl	_strtok
 667 0086 0346     		mov	r3, r0
 668 0088 1B93     		str	r3, [sp, #108]
 669              		.loc 2 157 0
 670 008a 1B9B     		ldr	r3, [sp, #108]
 671 008c 1E93     		str	r3, [sp, #120]
 672              		.loc 2 158 0
 673 008e 4FF00003 		mov	r3, #0
 674 0092 1F93     		str	r3, [sp, #124]
 675              		.loc 2 159 0
 676 0094 19E0     		b	.L27
 677              	.L30:
 678              		.loc 2 160 0
 679 0096 1F9B     		ldr	r3, [sp, #124]
 680 0098 032B     		cmp	r3, #3
 681 009a 0ADD     		ble	.L28
 682              		.loc 2 161 0
 683 009c 1D98     		ldr	r0, [sp, #116]
 684 009e 40F20001 		movw	r1, #:lower16:.LC28
 685 00a2 C0F20001 		movt	r1, #:upper16:.LC28
 686 00a6 FFF7FEFF 		bl	chprintf
 687              		.loc 2 162 0
 688 00aa 4FF00003 		mov	r3, #0
 689 00ae 1E93     		str	r3, [sp, #120]
 690              		.loc 2 163 0
 691 00b0 1AE0     		b	.L29
 692              	.L28:
 693              		.loc 2 165 0
 694 00b2 1F9B     		ldr	r3, [sp, #124]
 695 00b4 4FEA8303 		lsl	r3, r3, #2
 696 00b8 20AA     		add	r2, sp, #128
 697 00ba 1344     		add	r3, r2, r3
 698 00bc 1B9A     		ldr	r2, [sp, #108]
 699 00be 43F86C2C 		str	r2, [r3, #-108]
 700 00c2 1F9B     		ldr	r3, [sp, #124]
 701 00c4 03F10103 		add	r3, r3, #1
 702 00c8 1F93     		str	r3, [sp, #124]
 703              	.L27:
 704              		.loc 2 159 0 discriminator 1
 705 00ca 1AAB     		add	r3, sp, #104
 706 00cc 4FF00000 		mov	r0, #0
 707 00d0 40F20001 		movw	r1, #:lower16:.LC27
 708 00d4 C0F20001 		movt	r1, #:upper16:.LC27
 709 00d8 1A46     		mov	r2, r3
 710 00da FFF7FEFF 		bl	_strtok
ARM GAS  C:\Users\z80\AppData\Local\Temp\cclK1yqI.s 			page 15


 711 00de 0346     		mov	r3, r0
 712 00e0 1B93     		str	r3, [sp, #108]
 713 00e2 1B9B     		ldr	r3, [sp, #108]
 714 00e4 002B     		cmp	r3, #0
 715 00e6 D6D1     		bne	.L30
 716              	.L29:
 717              		.loc 2 167 0
 718 00e8 1F9B     		ldr	r3, [sp, #124]
 719 00ea 4FEA8303 		lsl	r3, r3, #2
 720 00ee 20AA     		add	r2, sp, #128
 721 00f0 1344     		add	r3, r2, r3
 722 00f2 4FF00002 		mov	r2, #0
 723 00f6 43F86C2C 		str	r2, [r3, #-108]
 724              		.loc 2 168 0
 725 00fa 1E9B     		ldr	r3, [sp, #120]
 726 00fc 002B     		cmp	r3, #0
 727 00fe 9AD0     		beq	.L39
 728              		.loc 2 169 0
 729 0100 1E98     		ldr	r0, [sp, #120]
 730 0102 40F20001 		movw	r1, #:lower16:.LC29
 731 0106 C0F20001 		movt	r1, #:upper16:.LC29
 732 010a FFF7FEFF 		bl	strcasecmp
 733 010e 0346     		mov	r3, r0
 734 0110 002B     		cmp	r3, #0
 735 0112 0AD1     		bne	.L32
 736              		.loc 2 170 0
 737 0114 1F9B     		ldr	r3, [sp, #124]
 738 0116 002B     		cmp	r3, #0
 739 0118 68DD     		ble	.L40
 740              		.loc 2 171 0
 741 011a 1D98     		ldr	r0, [sp, #116]
 742 011c 40F20001 		movw	r1, #:lower16:.LC29
 743 0120 C0F20001 		movt	r1, #:upper16:.LC29
 744 0124 FFF7FEFF 		bl	usage
 745              		.loc 2 172 0
 746 0128 5FE0     		b	.L31
 747              	.L32:
 748              		.loc 2 176 0
 749 012a 1E98     		ldr	r0, [sp, #120]
 750 012c 40F20001 		movw	r1, #:lower16:.LC30
 751 0130 C0F20001 		movt	r1, #:upper16:.LC30
 752 0134 FFF7FEFF 		bl	strcasecmp
 753 0138 0346     		mov	r3, r0
 754 013a 002B     		cmp	r3, #0
 755 013c 27D1     		bne	.L34
 756              		.loc 2 177 0
 757 013e 1F9B     		ldr	r3, [sp, #124]
 758 0140 002B     		cmp	r3, #0
 759 0142 07DD     		ble	.L35
 760              		.loc 2 178 0
 761 0144 1D98     		ldr	r0, [sp, #116]
 762 0146 40F20001 		movw	r1, #:lower16:.LC30
 763 014a C0F20001 		movt	r1, #:upper16:.LC30
 764 014e FFF7FEFF 		bl	usage
 765              		.loc 2 179 0
 766 0152 4AE0     		b	.L31
 767              	.L35:
ARM GAS  C:\Users\z80\AppData\Local\Temp\cclK1yqI.s 			page 16


 768              		.loc 2 181 0
 769 0154 1D98     		ldr	r0, [sp, #116]
 770 0156 40F20001 		movw	r1, #:lower16:.LC31
 771 015a C0F20001 		movt	r1, #:upper16:.LC31
 772 015e FFF7FEFF 		bl	chprintf
 773              		.loc 2 182 0
 774 0162 1D98     		ldr	r0, [sp, #116]
 775 0164 40F20001 		movw	r1, #:lower16:local_commands
 776 0168 C0F20001 		movt	r1, #:upper16:local_commands
 777 016c FFF7FEFF 		bl	list_commands
 778              		.loc 2 183 0
 779 0170 1C9B     		ldr	r3, [sp, #112]
 780 0172 002B     		cmp	r3, #0
 781 0174 03D0     		beq	.L36
 782              		.loc 2 184 0
 783 0176 1D98     		ldr	r0, [sp, #116]
 784 0178 1C99     		ldr	r1, [sp, #112]
 785 017a FFF7FEFF 		bl	list_commands
 786              	.L36:
 787              		.loc 2 185 0
 788 017e 1D98     		ldr	r0, [sp, #116]
 789 0180 40F20001 		movw	r1, #:lower16:.LC32
 790 0184 C0F20001 		movt	r1, #:upper16:.LC32
 791 0188 FFF7FEFF 		bl	chprintf
 792              		.loc 2 193 0
 793 018c 58E7     		b	.L38
 794              	.L34:
 795              		.loc 2 187 0
 796 018e 05AB     		add	r3, sp, #20
 797 0190 0093     		str	r3, [sp, #0]
 798 0192 40F20000 		movw	r0, #:lower16:local_commands
 799 0196 C0F20000 		movt	r0, #:upper16:local_commands
 800 019a 1D99     		ldr	r1, [sp, #116]
 801 019c 1E9A     		ldr	r2, [sp, #120]
 802 019e 1F9B     		ldr	r3, [sp, #124]
 803 01a0 FFF7FEFF 		bl	cmdexec
 804 01a4 0346     		mov	r3, r0
 805 01a6 002B     		cmp	r3, #0
 806 01a8 3FF447AF 		beq	.L41
 807              		.loc 2 187 0 is_stmt 0 discriminator 1
 808 01ac 1C9B     		ldr	r3, [sp, #112]
 809 01ae 002B     		cmp	r3, #0
 810 01b0 0BD0     		beq	.L37
 811              		.loc 2 188 0 is_stmt 1
 812 01b2 05AB     		add	r3, sp, #20
 813 01b4 0093     		str	r3, [sp, #0]
 814 01b6 1C98     		ldr	r0, [sp, #112]
 815 01b8 1D99     		ldr	r1, [sp, #116]
 816 01ba 1E9A     		ldr	r2, [sp, #120]
 817 01bc 1F9B     		ldr	r3, [sp, #124]
 818 01be FFF7FEFF 		bl	cmdexec
 819 01c2 0346     		mov	r3, r0
 820 01c4 002B     		cmp	r3, #0
 821 01c6 3FF43AAF 		beq	.L42
 822              	.L37:
 823              		.loc 2 189 0
 824 01ca 1D98     		ldr	r0, [sp, #116]
ARM GAS  C:\Users\z80\AppData\Local\Temp\cclK1yqI.s 			page 17


 825 01cc 40F20001 		movw	r1, #:lower16:.LC33
 826 01d0 C0F20001 		movt	r1, #:upper16:.LC33
 827 01d4 1E9A     		ldr	r2, [sp, #120]
 828 01d6 FFF7FEFF 		bl	chprintf
 829              		.loc 2 190 0
 830 01da 1D98     		ldr	r0, [sp, #116]
 831 01dc 40F20001 		movw	r1, #:lower16:.LC34
 832 01e0 C0F20001 		movt	r1, #:upper16:.LC34
 833 01e4 FFF7FEFF 		bl	chprintf
 834              		.loc 2 193 0
 835 01e8 2AE7     		b	.L38
 836              	.L31:
 837 01ea 29E7     		b	.L38
 838              	.L40:
 839              		.loc 2 174 0
 840 01ec 00BF     		nop
 841              	.L26:
 842              		.loc 2 194 0
 843 01ee 4FF00000 		mov	r0, #0
 844 01f2 FFF7FEFF 		bl	shellExit
 845              		.loc 2 196 0
 846 01f6 4FF00003 		mov	r3, #0
 847              		.loc 2 197 0
 848 01fa 1846     		mov	r0, r3
 849 01fc 21B0     		add	sp, sp, #132
 850 01fe 00BD     		pop	{pc}
 851              		.cfi_endproc
 852              	.LFE70:
 853              		.size	shell_thread, .-shell_thread
 854              		.section	.text.shellInit,"ax",%progbits
 855              		.align	2
 856              		.p2align 4,,15
 857              		.global	shellInit
 858              		.thumb
 859              		.thumb_func
 860              		.type	shellInit, %function
 861              	shellInit:
 862              	.LFB71:
 863              		.loc 2 204 0
 864              		.cfi_startproc
 865              		@ args = 0, pretend = 0, frame = 0
 866              		@ frame_needed = 0, uses_anonymous_args = 0
 867              		@ link register save eliminated.
 868              		.loc 2 206 0
 869 0000 40F20002 		movw	r2, #:lower16:shell_terminated
 870 0004 C0F20002 		movt	r2, #:upper16:shell_terminated
 871 0008 40F20003 		movw	r3, #:lower16:shell_terminated
 872 000c C0F20003 		movt	r3, #:upper16:shell_terminated
 873 0010 1A60     		str	r2, [r3, #0]
 874              		.loc 2 207 0
 875 0012 7047     		bx	lr
 876              		.cfi_endproc
 877              	.LFE71:
 878              		.size	shellInit, .-shellInit
 879 0014 AFF30080 		.section	.text.shellExit,"ax",%progbits
 879      AFF30080 
 879      AFF30080 
ARM GAS  C:\Users\z80\AppData\Local\Temp\cclK1yqI.s 			page 18


 880              		.align	2
 881              		.p2align 4,,15
 882              		.global	shellExit
 883              		.thumb
 884              		.thumb_func
 885              		.type	shellExit, %function
 886              	shellExit:
 887              	.LFB72:
 888              		.loc 2 218 0
 889              		.cfi_startproc
 890              		@ args = 0, pretend = 0, frame = 8
 891              		@ frame_needed = 0, uses_anonymous_args = 0
 892 0000 00B5     		push	{lr}
 893              	.LCFI17:
 894              		.cfi_def_cfa_offset 4
 895 0002 83B0     		sub	sp, sp, #12
 896              	.LCFI18:
 897              		.cfi_def_cfa_offset 16
 898 0004 0190     		str	r0, [sp, #4]
 899              	.LBB2:
 900              		.loc 2 222 0
 901 0006 4FF02003 		mov	r3, #32
 902              	@ 222 "../chibios_2.6.3/os/various/shell.c" 1
 903 000a 83F31188 		msr     BASEPRI, r3
 904              	@ 0 "" 2
 905              		.thumb
 906              	.LBE2:
 907              		.loc 2 223 0
 908 000e 40F20000 		movw	r0, #:lower16:shell_terminated
 909 0012 C0F20000 		movt	r0, #:upper16:shell_terminated
 910 0016 4FF00001 		mov	r1, #0
 911              		.cfi_offset 14, -4
 912 001a FFF7FEFF 		bl	chEvtBroadcastFlagsI
 913              		.loc 2 224 0
 914 001e 0198     		ldr	r0, [sp, #4]
 915 0020 FFF7FEFF 		bl	chThdExitS
 916              		.loc 2 225 0
 917 0024 03B0     		add	sp, sp, #12
 918 0026 00BD     		pop	{pc}
 919              		.cfi_endproc
 920              	.LFE72:
 921              		.size	shellExit, .-shellExit
 922 0028 AFF30080 		.section	.text.shellCreate,"ax",%progbits
 922      AFF30080 
 923              		.align	2
 924              		.p2align 4,,15
 925              		.global	shellCreate
 926              		.thumb
 927              		.thumb_func
 928              		.type	shellCreate, %function
 929              	shellCreate:
 930              	.LFB73:
 931              		.loc 2 240 0
 932              		.cfi_startproc
 933              		@ args = 0, pretend = 0, frame = 16
 934              		@ frame_needed = 0, uses_anonymous_args = 0
 935 0000 00B5     		push	{lr}
ARM GAS  C:\Users\z80\AppData\Local\Temp\cclK1yqI.s 			page 19


 936              	.LCFI19:
 937              		.cfi_def_cfa_offset 4
 938 0002 87B0     		sub	sp, sp, #28
 939              	.LCFI20:
 940              		.cfi_def_cfa_offset 32
 941 0004 0590     		str	r0, [sp, #20]
 942 0006 0491     		str	r1, [sp, #16]
 943 0008 0392     		str	r2, [sp, #12]
 944              		.loc 2 242 0
 945 000a 059B     		ldr	r3, [sp, #20]
 946 000c 0093     		str	r3, [sp, #0]
 947 000e 4FF00000 		mov	r0, #0
 948 0012 0499     		ldr	r1, [sp, #16]
 949 0014 039A     		ldr	r2, [sp, #12]
 950 0016 40F20003 		movw	r3, #:lower16:shell_thread
 951 001a C0F20003 		movt	r3, #:upper16:shell_thread
 952              		.cfi_offset 14, -4
 953 001e FFF7FEFF 		bl	chThdCreateFromHeap
 954 0022 0346     		mov	r3, r0
 955              		.loc 2 243 0
 956 0024 1846     		mov	r0, r3
 957 0026 07B0     		add	sp, sp, #28
 958 0028 00BD     		pop	{pc}
 959              		.cfi_endproc
 960              	.LFE73:
 961              		.size	shellCreate, .-shellCreate
 962 002a 00BFAFF3 		.section	.text.shellCreateStatic,"ax",%progbits
 962      0080
 963              		.align	2
 964              		.p2align 4,,15
 965              		.global	shellCreateStatic
 966              		.thumb
 967              		.thumb_func
 968              		.type	shellCreateStatic, %function
 969              	shellCreateStatic:
 970              	.LFB74:
 971              		.loc 2 258 0
 972              		.cfi_startproc
 973              		@ args = 0, pretend = 0, frame = 16
 974              		@ frame_needed = 0, uses_anonymous_args = 0
 975 0000 00B5     		push	{lr}
 976              	.LCFI21:
 977              		.cfi_def_cfa_offset 4
 978 0002 87B0     		sub	sp, sp, #28
 979              	.LCFI22:
 980              		.cfi_def_cfa_offset 32
 981 0004 0590     		str	r0, [sp, #20]
 982 0006 0491     		str	r1, [sp, #16]
 983 0008 0392     		str	r2, [sp, #12]
 984 000a 0293     		str	r3, [sp, #8]
 985              		.loc 2 260 0
 986 000c 059B     		ldr	r3, [sp, #20]
 987 000e 0093     		str	r3, [sp, #0]
 988 0010 0498     		ldr	r0, [sp, #16]
 989 0012 0399     		ldr	r1, [sp, #12]
 990 0014 029A     		ldr	r2, [sp, #8]
 991 0016 40F20003 		movw	r3, #:lower16:shell_thread
ARM GAS  C:\Users\z80\AppData\Local\Temp\cclK1yqI.s 			page 20


 992 001a C0F20003 		movt	r3, #:upper16:shell_thread
 993              		.cfi_offset 14, -4
 994 001e FFF7FEFF 		bl	chThdCreateStatic
 995 0022 0346     		mov	r3, r0
 996              		.loc 2 261 0
 997 0024 1846     		mov	r0, r3
 998 0026 07B0     		add	sp, sp, #28
 999 0028 00BD     		pop	{pc}
 1000              		.cfi_endproc
 1001              	.LFE74:
 1002              		.size	shellCreateStatic, .-shellCreateStatic
 1003 002a 00BFAFF3 		.section	.rodata
 1003      0080
 1004 01e9 000000   		.align	2
 1005              	.LC35:
 1006 01ec 5E4400   		.ascii	"^D\000"
 1007 01ef 00       		.section	.text.shellGetLine,"ax",%progbits
 1008              		.align	2
 1009              		.p2align 4,,15
 1010              		.global	shellGetLine
 1011              		.thumb
 1012              		.thumb_func
 1013              		.type	shellGetLine, %function
 1014              	shellGetLine:
 1015              	.LFB75:
 1016              		.loc 2 275 0
 1017              		.cfi_startproc
 1018              		@ args = 0, pretend = 0, frame = 24
 1019              		@ frame_needed = 0, uses_anonymous_args = 0
 1020 0000 00B5     		push	{lr}
 1021              	.LCFI23:
 1022              		.cfi_def_cfa_offset 4
 1023 0002 87B0     		sub	sp, sp, #28
 1024              	.LCFI24:
 1025              		.cfi_def_cfa_offset 32
 1026 0004 0390     		str	r0, [sp, #12]
 1027 0006 0291     		str	r1, [sp, #8]
 1028 0008 0192     		str	r2, [sp, #4]
 1029              		.loc 2 276 0
 1030 000a 029B     		ldr	r3, [sp, #8]
 1031 000c 0593     		str	r3, [sp, #20]
 1032 000e 00E0     		b	.L56
 1033              		.cfi_offset 14, -4
 1034              	.L57:
 1035              		.loc 2 307 0
 1036 0010 00BF     		nop
 1037              	.L56:
 1038              	.LBB3:
 1039              		.loc 2 281 0
 1040 0012 039B     		ldr	r3, [sp, #12]
 1041 0014 1B68     		ldr	r3, [r3, #0]
 1042 0016 5B68     		ldr	r3, [r3, #4]
 1043 0018 0DF11302 		add	r2, sp, #19
 1044 001c 0398     		ldr	r0, [sp, #12]
 1045 001e 1146     		mov	r1, r2
 1046 0020 4FF00102 		mov	r2, #1
 1047 0024 9847     		blx	r3
ARM GAS  C:\Users\z80\AppData\Local\Temp\cclK1yqI.s 			page 21


 1048 0026 0346     		mov	r3, r0
 1049 0028 002B     		cmp	r3, #0
 1050 002a 02D1     		bne	.L48
 1051              		.loc 2 282 0
 1052 002c 4FF00103 		mov	r3, #1
 1053 0030 62E0     		b	.L49
 1054              	.L48:
 1055              		.loc 2 283 0
 1056 0032 9DF81330 		ldrb	r3, [sp, #19]	@ zero_extendqisi2
 1057 0036 042B     		cmp	r3, #4
 1058 0038 09D1     		bne	.L50
 1059              		.loc 2 284 0
 1060 003a 0398     		ldr	r0, [sp, #12]
 1061 003c 40F20001 		movw	r1, #:lower16:.LC35
 1062 0040 C0F20001 		movt	r1, #:upper16:.LC35
 1063 0044 FFF7FEFF 		bl	chprintf
 1064              		.loc 2 285 0
 1065 0048 4FF00103 		mov	r3, #1
 1066 004c 54E0     		b	.L49
 1067              	.L50:
 1068              		.loc 2 287 0
 1069 004e 9DF81330 		ldrb	r3, [sp, #19]	@ zero_extendqisi2
 1070 0052 082B     		cmp	r3, #8
 1071 0054 1FD1     		bne	.L51
 1072              		.loc 2 288 0
 1073 0056 059A     		ldr	r2, [sp, #20]
 1074 0058 029B     		ldr	r3, [sp, #8]
 1075 005a 9A42     		cmp	r2, r3
 1076 005c 1AD0     		beq	.L52
 1077              		.loc 2 289 0
 1078 005e 039B     		ldr	r3, [sp, #12]
 1079 0060 1B68     		ldr	r3, [r3, #0]
 1080 0062 9B68     		ldr	r3, [r3, #8]
 1081 0064 9DF81320 		ldrb	r2, [sp, #19]	@ zero_extendqisi2
 1082 0068 0398     		ldr	r0, [sp, #12]
 1083 006a 1146     		mov	r1, r2
 1084 006c 9847     		blx	r3
 1085              		.loc 2 290 0
 1086 006e 039B     		ldr	r3, [sp, #12]
 1087 0070 1B68     		ldr	r3, [r3, #0]
 1088 0072 9B68     		ldr	r3, [r3, #8]
 1089 0074 0398     		ldr	r0, [sp, #12]
 1090 0076 4FF02001 		mov	r1, #32
 1091 007a 9847     		blx	r3
 1092              		.loc 2 291 0
 1093 007c 039B     		ldr	r3, [sp, #12]
 1094 007e 1B68     		ldr	r3, [r3, #0]
 1095 0080 9B68     		ldr	r3, [r3, #8]
 1096 0082 9DF81320 		ldrb	r2, [sp, #19]	@ zero_extendqisi2
 1097 0086 0398     		ldr	r0, [sp, #12]
 1098 0088 1146     		mov	r1, r2
 1099 008a 9847     		blx	r3
 1100              		.loc 2 292 0
 1101 008c 059B     		ldr	r3, [sp, #20]
 1102 008e 03F1FF33 		add	r3, r3, #-1
 1103 0092 0593     		str	r3, [sp, #20]
 1104              	.L52:
ARM GAS  C:\Users\z80\AppData\Local\Temp\cclK1yqI.s 			page 22


 1105              		.loc 2 294 0
 1106 0094 2FE0     		b	.L53
 1107              	.L51:
 1108              		.loc 2 296 0
 1109 0096 9DF81330 		ldrb	r3, [sp, #19]	@ zero_extendqisi2
 1110 009a 0D2B     		cmp	r3, #13
 1111 009c 0DD1     		bne	.L54
 1112              		.loc 2 297 0
 1113 009e 0398     		ldr	r0, [sp, #12]
 1114 00a0 40F20001 		movw	r1, #:lower16:.LC32
 1115 00a4 C0F20001 		movt	r1, #:upper16:.LC32
 1116 00a8 FFF7FEFF 		bl	chprintf
 1117              		.loc 2 298 0
 1118 00ac 059B     		ldr	r3, [sp, #20]
 1119 00ae 4FF00002 		mov	r2, #0
 1120 00b2 1A70     		strb	r2, [r3, #0]
 1121              		.loc 2 299 0
 1122 00b4 4FF00003 		mov	r3, #0
 1123 00b8 1EE0     		b	.L49
 1124              	.L54:
 1125              		.loc 2 301 0
 1126 00ba 9DF81330 		ldrb	r3, [sp, #19]	@ zero_extendqisi2
 1127 00be 1F2B     		cmp	r3, #31
 1128 00c0 00D8     		bhi	.L55
 1129              		.loc 2 302 0
 1130 00c2 18E0     		b	.L53
 1131              	.L55:
 1132              		.loc 2 303 0
 1133 00c4 019B     		ldr	r3, [sp, #4]
 1134 00c6 03F1FF33 		add	r3, r3, #-1
 1135 00ca 029A     		ldr	r2, [sp, #8]
 1136 00cc 1A44     		add	r2, r2, r3
 1137 00ce 059B     		ldr	r3, [sp, #20]
 1138 00d0 9A42     		cmp	r2, r3
 1139 00d2 9DD9     		bls	.L57
 1140              		.loc 2 304 0
 1141 00d4 039B     		ldr	r3, [sp, #12]
 1142 00d6 1B68     		ldr	r3, [r3, #0]
 1143 00d8 9B68     		ldr	r3, [r3, #8]
 1144 00da 9DF81320 		ldrb	r2, [sp, #19]	@ zero_extendqisi2
 1145 00de 0398     		ldr	r0, [sp, #12]
 1146 00e0 1146     		mov	r1, r2
 1147 00e2 9847     		blx	r3
 1148              		.loc 2 305 0
 1149 00e4 9DF81320 		ldrb	r2, [sp, #19]	@ zero_extendqisi2
 1150 00e8 059B     		ldr	r3, [sp, #20]
 1151 00ea 1A70     		strb	r2, [r3, #0]
 1152 00ec 059B     		ldr	r3, [sp, #20]
 1153 00ee 03F10103 		add	r3, r3, #1
 1154 00f2 0593     		str	r3, [sp, #20]
 1155              	.LBE3:
 1156              		.loc 2 307 0
 1157 00f4 8DE7     		b	.L56
 1158              	.L53:
 1159 00f6 8CE7     		b	.L56
 1160              	.L49:
 1161              		.loc 2 308 0
ARM GAS  C:\Users\z80\AppData\Local\Temp\cclK1yqI.s 			page 23


 1162 00f8 1846     		mov	r0, r3
 1163 00fa 07B0     		add	sp, sp, #28
 1164 00fc 00BD     		pop	{pc}
 1165              		.cfi_endproc
 1166              	.LFE75:
 1167              		.size	shellGetLine, .-shellGetLine
 1168 00fe 00BF     		.text
 1169              	.Letext0: