ARM GAS  C:\Users\z80\AppData\Local\Temp\cchCGb6d.s 			page 1


   1              		.syntax unified
   2              		.cpu cortex-m3
   3              		.fpu softvfp
   4              		.eabi_attribute 20, 1
   5              		.eabi_attribute 21, 1
   6              		.eabi_attribute 23, 3
   7              		.eabi_attribute 24, 1
   8              		.eabi_attribute 25, 1
   9              		.eabi_attribute 26, 1
  10              		.eabi_attribute 30, 6
  11              		.eabi_attribute 18, 4
  12              		.thumb
  13              		.file	"spi_lld.c"
  14              		.section	.debug_abbrev,"",%progbits
  15              	.Ldebug_abbrev0:
  16              		.section	.debug_info,"",%progbits
  17              	.Ldebug_info0:
  18              		.section	.debug_line,"",%progbits
  19              	.Ldebug_line0:
  20 0000 D2030000 		.text
  20      02006D02 
  20      00000201 
  20      FB0E0D00 
  20      01010101 
  21              	.Ltext0:
  22              		.cfi_sections	.debug_frame
  23              		.global	SPID1
  24              		.section	.bss.SPID1,"aw",%nobits
  25              		.align	2
  26              		.type	SPID1, %object
  27              		.size	SPID1, 48
  28              	SPID1:
  29 0000 00000000 		.space	48
  29      00000000 
  29      00000000 
  29      00000000 
  29      00000000 
  30              		.global	SPID2
  31              		.section	.bss.SPID2,"aw",%nobits
  32              		.align	2
  33              		.type	SPID2, %object
  34              		.size	SPID2, 48
  35              	SPID2:
  36 0000 00000000 		.space	48
  36      00000000 
  36      00000000 
  36      00000000 
  36      00000000 
  37              		.section	.bss.dummytx,"aw",%nobits
  38              		.align	1
  39              		.type	dummytx, %object
  40              		.size	dummytx, 2
  41              	dummytx:
  42 0000 0000     		.space	2
  43              		.section	.bss.dummyrx,"aw",%nobits
  44              		.align	1
  45              		.type	dummyrx, %object
ARM GAS  C:\Users\z80\AppData\Local\Temp\cchCGb6d.s 			page 2


  46              		.size	dummyrx, 2
  47              	dummyrx:
  48 0000 0000     		.space	2
  49              		.section	.text.spi_lld_serve_rx_interrupt,"ax",%progbits
  50              		.align	2
  51              		.p2align 4,,15
  52              		.thumb
  53              		.thumb_func
  54              		.type	spi_lld_serve_rx_interrupt, %function
  55              	spi_lld_serve_rx_interrupt:
  56              	.LFB63:
  57              		.file 1 "../chibios_2.6.3/os/hal/platforms/STM32/SPIv1/spi_lld.c"
  58              		.loc 1 133 0
  59              		.cfi_startproc
  60              		@ args = 0, pretend = 0, frame = 16
  61              		@ frame_needed = 0, uses_anonymous_args = 0
  62 0000 00B5     		push	{lr}
  63              	.LCFI0:
  64              		.cfi_def_cfa_offset 4
  65 0002 85B0     		sub	sp, sp, #20
  66              	.LCFI1:
  67              		.cfi_def_cfa_offset 24
  68 0004 0190     		str	r0, [sp, #4]
  69 0006 0091     		str	r1, [sp, #0]
  70              		.loc 1 137 0
  71 0008 009B     		ldr	r3, [sp, #0]
  72 000a 03F00803 		and	r3, r3, #8
  73 000e 002B     		cmp	r3, #0
  74 0010 01D0     		beq	.L2
  75              		.cfi_offset 14, -4
  76              		.loc 1 138 0
  77 0012 FFF7FEFF 		bl	port_halt
  78              	.L2:
  79              		.loc 1 145 0
  80 0016 019B     		ldr	r3, [sp, #4]
  81 0018 5B6A     		ldr	r3, [r3, #36]
  82 001a 1B68     		ldr	r3, [r3, #0]
  83 001c 019A     		ldr	r2, [sp, #4]
  84 001e 526A     		ldr	r2, [r2, #36]
  85 0020 1268     		ldr	r2, [r2, #0]
  86 0022 1268     		ldr	r2, [r2, #0]
  87 0024 22F00F02 		bic	r2, r2, #15
  88 0028 1A60     		str	r2, [r3, #0]
  89 002a 019B     		ldr	r3, [sp, #4]
  90 002c 5B6A     		ldr	r3, [r3, #36]
  91 002e 5B68     		ldr	r3, [r3, #4]
  92 0030 019A     		ldr	r2, [sp, #4]
  93 0032 526A     		ldr	r2, [r2, #36]
  94 0034 127A     		ldrb	r2, [r2, #8]	@ zero_extendqisi2
  95 0036 4FF00F01 		mov	r1, #15
  96 003a 01FA02F2 		lsl	r2, r1, r2
  97 003e 1A60     		str	r2, [r3, #0]
  98              		.loc 1 146 0
  99 0040 019B     		ldr	r3, [sp, #4]
 100 0042 1B6A     		ldr	r3, [r3, #32]
 101 0044 1B68     		ldr	r3, [r3, #0]
 102 0046 019A     		ldr	r2, [sp, #4]
ARM GAS  C:\Users\z80\AppData\Local\Temp\cchCGb6d.s 			page 3


 103 0048 126A     		ldr	r2, [r2, #32]
 104 004a 1268     		ldr	r2, [r2, #0]
 105 004c 1268     		ldr	r2, [r2, #0]
 106 004e 22F00F02 		bic	r2, r2, #15
 107 0052 1A60     		str	r2, [r3, #0]
 108 0054 019B     		ldr	r3, [sp, #4]
 109 0056 1B6A     		ldr	r3, [r3, #32]
 110 0058 5B68     		ldr	r3, [r3, #4]
 111 005a 019A     		ldr	r2, [sp, #4]
 112 005c 126A     		ldr	r2, [r2, #32]
 113 005e 127A     		ldrb	r2, [r2, #8]	@ zero_extendqisi2
 114 0060 4FF00F01 		mov	r1, #15
 115 0064 01FA02F2 		lsl	r2, r1, r2
 116 0068 1A60     		str	r2, [r3, #0]
 117              		.loc 1 150 0
 118 006a 019B     		ldr	r3, [sp, #4]
 119 006c 5B68     		ldr	r3, [r3, #4]
 120 006e 1B68     		ldr	r3, [r3, #0]
 121 0070 002B     		cmp	r3, #0
 122 0072 11D0     		beq	.L3
 123              		.loc 1 150 0 is_stmt 0 discriminator 1
 124 0074 019B     		ldr	r3, [sp, #4]
 125 0076 4FF00402 		mov	r2, #4
 126 007a 1A70     		strb	r2, [r3, #0]
 127 007c 019B     		ldr	r3, [sp, #4]
 128 007e 5B68     		ldr	r3, [r3, #4]
 129 0080 1B68     		ldr	r3, [r3, #0]
 130 0082 0198     		ldr	r0, [sp, #4]
 131 0084 9847     		blx	r3
 132 0086 019B     		ldr	r3, [sp, #4]
 133 0088 1B78     		ldrb	r3, [r3, #0]	@ zero_extendqisi2
 134 008a 042B     		cmp	r3, #4
 135 008c 08D1     		bne	.L5
 136              		.loc 1 150 0 discriminator 3
 137 008e 019B     		ldr	r3, [sp, #4]
 138 0090 4FF00202 		mov	r2, #2
 139 0094 1A70     		strb	r2, [r3, #0]
 140 0096 03E0     		b	.L5
 141              	.L3:
 142              		.loc 1 150 0 discriminator 2
 143 0098 019B     		ldr	r3, [sp, #4]
 144 009a 4FF00202 		mov	r2, #2
 145 009e 1A70     		strb	r2, [r3, #0]
 146              	.L5:
 147              	.LBB2:
 148              		.loc 1 150 0 discriminator 4
 149 00a0 4FF02003 		mov	r3, #32
 150              	@ 150 "../chibios_2.6.3/os/hal/platforms/STM32/SPIv1/spi_lld.c" 1
 151 00a4 83F31188 		msr     BASEPRI, r3
 152              	@ 0 "" 2
 153              		.thumb
 154              	.LBE2:
 155 00a8 019B     		ldr	r3, [sp, #4]
 156 00aa 9B68     		ldr	r3, [r3, #8]
 157 00ac 002B     		cmp	r3, #0
 158 00ae 0DD0     		beq	.L6
 159              	.LBB3:
ARM GAS  C:\Users\z80\AppData\Local\Temp\cchCGb6d.s 			page 4


 160              		.loc 1 150 0 discriminator 5
 161 00b0 019B     		ldr	r3, [sp, #4]
 162 00b2 9B68     		ldr	r3, [r3, #8]
 163 00b4 0393     		str	r3, [sp, #12]
 164 00b6 019B     		ldr	r3, [sp, #4]
 165 00b8 4FF00002 		mov	r2, #0
 166 00bc 9A60     		str	r2, [r3, #8]
 167 00be 039B     		ldr	r3, [sp, #12]
 168 00c0 4FF00002 		mov	r2, #0
 169 00c4 5A62     		str	r2, [r3, #36]
 170 00c6 0398     		ldr	r0, [sp, #12]
 171 00c8 FFF7FEFF 		bl	chSchReadyI
 172              	.L6:
 173              	.LBE3:
 174              	.LBB4:
 175              		.loc 1 150 0 discriminator 6
 176 00cc 4FF00003 		mov	r3, #0
 177              	@ 150 "../chibios_2.6.3/os/hal/platforms/STM32/SPIv1/spi_lld.c" 1
 178 00d0 83F31188 		msr     BASEPRI, r3
 179              	@ 0 "" 2
 180              		.thumb
 181              	.LBE4:
 182              		.loc 1 151 0 is_stmt 1 discriminator 6
 183 00d4 05B0     		add	sp, sp, #20
 184 00d6 00BD     		pop	{pc}
 185              		.cfi_endproc
 186              	.LFE63:
 187              		.size	spi_lld_serve_rx_interrupt, .-spi_lld_serve_rx_interrupt
 188 00d8 AFF30080 		.section	.text.spi_lld_serve_tx_interrupt,"ax",%progbits
 188      AFF30080 
 189              		.align	2
 190              		.p2align 4,,15
 191              		.thumb
 192              		.thumb_func
 193              		.type	spi_lld_serve_tx_interrupt, %function
 194              	spi_lld_serve_tx_interrupt:
 195              	.LFB64:
 196              		.loc 1 159 0
 197              		.cfi_startproc
 198              		@ args = 0, pretend = 0, frame = 8
 199              		@ frame_needed = 0, uses_anonymous_args = 0
 200 0000 00B5     		push	{lr}
 201              	.LCFI2:
 202              		.cfi_def_cfa_offset 4
 203 0002 83B0     		sub	sp, sp, #12
 204              	.LCFI3:
 205              		.cfi_def_cfa_offset 16
 206 0004 0190     		str	r0, [sp, #4]
 207 0006 0091     		str	r1, [sp, #0]
 208              		.loc 1 164 0
 209 0008 009B     		ldr	r3, [sp, #0]
 210 000a 03F00803 		and	r3, r3, #8
 211 000e 002B     		cmp	r3, #0
 212 0010 01D0     		beq	.L7
 213              		.cfi_offset 14, -4
 214              		.loc 1 165 0
 215 0012 FFF7FEFF 		bl	port_halt
ARM GAS  C:\Users\z80\AppData\Local\Temp\cchCGb6d.s 			page 5


 216              	.L7:
 217              		.loc 1 171 0
 218 0016 03B0     		add	sp, sp, #12
 219 0018 00BD     		pop	{pc}
 220              		.cfi_endproc
 221              	.LFE64:
 222              		.size	spi_lld_serve_tx_interrupt, .-spi_lld_serve_tx_interrupt
 223 001a 00BFAFF3 		.section	.text.spi_lld_init,"ax",%progbits
 223      0080
 224              		.align	2
 225              		.p2align 4,,15
 226              		.global	spi_lld_init
 227              		.thumb
 228              		.thumb_func
 229              		.type	spi_lld_init, %function
 230              	spi_lld_init:
 231              	.LFB65:
 232              		.loc 1 186 0
 233              		.cfi_startproc
 234              		@ args = 0, pretend = 0, frame = 0
 235              		@ frame_needed = 0, uses_anonymous_args = 0
 236 0000 08B5     		push	{r3, lr}
 237              	.LCFI4:
 238              		.cfi_def_cfa_offset 8
 239              		.loc 1 188 0
 240 0002 40F20003 		movw	r3, #:lower16:dummytx
 241              		.cfi_offset 14, -4
 242              		.cfi_offset 3, -8
 243 0006 C0F20003 		movt	r3, #:upper16:dummytx
 244 000a 4FF6FF72 		movw	r2, #65535
 245 000e 1A80     		strh	r2, [r3, #0]	@ movhi
 246              		.loc 1 191 0
 247 0010 40F20000 		movw	r0, #:lower16:SPID1
 248 0014 C0F20000 		movt	r0, #:upper16:SPID1
 249 0018 FFF7FEFF 		bl	spiObjectInit
 250              		.loc 1 192 0
 251 001c 40F20003 		movw	r3, #:lower16:SPID1
 252 0020 C0F20003 		movt	r3, #:upper16:SPID1
 253 0024 4FF44052 		mov	r2, #12288
 254 0028 C4F20102 		movt	r2, 16385
 255 002c DA61     		str	r2, [r3, #28]
 256              		.loc 1 193 0
 257 002e 40F20003 		movw	r3, #:lower16:SPID1
 258 0032 C0F20003 		movt	r3, #:upper16:SPID1
 259 0036 204A     		ldr	r2, .L10
 260 0038 1A62     		str	r2, [r3, #32]
 261              		.loc 1 194 0
 262 003a 40F20003 		movw	r3, #:lower16:SPID1
 263 003e C0F20003 		movt	r3, #:upper16:SPID1
 264 0042 1E4A     		ldr	r2, .L10+4
 265 0044 5A62     		str	r2, [r3, #36]
 266              		.loc 1 195 0
 267 0046 40F20003 		movw	r3, #:lower16:SPID1
 268 004a C0F20003 		movt	r3, #:upper16:SPID1
 269 004e 41F20A02 		movw	r2, #4106
 270 0052 9A62     		str	r2, [r3, #40]
 271              		.loc 1 201 0
ARM GAS  C:\Users\z80\AppData\Local\Temp\cchCGb6d.s 			page 6


 272 0054 40F20003 		movw	r3, #:lower16:SPID1
 273 0058 C0F20003 		movt	r3, #:upper16:SPID1
 274 005c 41F21802 		movw	r2, #4120
 275 0060 DA62     		str	r2, [r3, #44]
 276              		.loc 1 209 0
 277 0062 40F20000 		movw	r0, #:lower16:SPID2
 278 0066 C0F20000 		movt	r0, #:upper16:SPID2
 279 006a FFF7FEFF 		bl	spiObjectInit
 280              		.loc 1 210 0
 281 006e 40F20003 		movw	r3, #:lower16:SPID2
 282 0072 C0F20003 		movt	r3, #:upper16:SPID2
 283 0076 4FF46052 		mov	r2, #14336
 284 007a C4F20002 		movt	r2, 16384
 285 007e DA61     		str	r2, [r3, #28]
 286              		.loc 1 211 0
 287 0080 40F20003 		movw	r3, #:lower16:SPID2
 288 0084 C0F20003 		movt	r3, #:upper16:SPID2
 289 0088 0D4A     		ldr	r2, .L10+8
 290 008a 1A62     		str	r2, [r3, #32]
 291              		.loc 1 212 0
 292 008c 40F20003 		movw	r3, #:lower16:SPID2
 293 0090 C0F20003 		movt	r3, #:upper16:SPID2
 294 0094 0B4A     		ldr	r2, .L10+12
 295 0096 5A62     		str	r2, [r3, #36]
 296              		.loc 1 213 0
 297 0098 40F20003 		movw	r3, #:lower16:SPID2
 298 009c C0F20003 		movt	r3, #:upper16:SPID2
 299 00a0 41F20A02 		movw	r2, #4106
 300 00a4 9A62     		str	r2, [r3, #40]
 301              		.loc 1 219 0
 302 00a6 40F20003 		movw	r3, #:lower16:SPID2
 303 00aa C0F20003 		movt	r3, #:upper16:SPID2
 304 00ae 41F21802 		movw	r2, #4120
 305 00b2 DA62     		str	r2, [r3, #44]
 306              		.loc 1 297 0
 307 00b4 08BD     		pop	{r3, pc}
 308              	.L11:
 309 00b6 00BF     		.align	2
 310              	.L10:
 311 00b8 0C000000 		.word	_stm32_dma_streams+12
 312 00bc 18000000 		.word	_stm32_dma_streams+24
 313 00c0 24000000 		.word	_stm32_dma_streams+36
 314 00c4 30000000 		.word	_stm32_dma_streams+48
 315              		.cfi_endproc
 316              	.LFE65:
 317              		.size	spi_lld_init, .-spi_lld_init
 318 00c8 AFF30080 		.section	.text.spi_lld_start,"ax",%progbits
 318      AFF30080 
 319              		.align	2
 320              		.p2align 4,,15
 321              		.global	spi_lld_start
 322              		.thumb
 323              		.thumb_func
 324              		.type	spi_lld_start, %function
 325              	spi_lld_start:
 326              	.LFB66:
 327              		.loc 1 306 0
ARM GAS  C:\Users\z80\AppData\Local\Temp\cchCGb6d.s 			page 7


 328              		.cfi_startproc
 329              		@ args = 0, pretend = 0, frame = 16
 330              		@ frame_needed = 0, uses_anonymous_args = 0
 331 0000 00B5     		push	{lr}
 332              	.LCFI5:
 333              		.cfi_def_cfa_offset 4
 334 0002 85B0     		sub	sp, sp, #20
 335              	.LCFI6:
 336              		.cfi_def_cfa_offset 24
 337 0004 0190     		str	r0, [sp, #4]
 338              		.loc 1 309 0
 339 0006 019B     		ldr	r3, [sp, #4]
 340 0008 1B78     		ldrb	r3, [r3, #0]	@ zero_extendqisi2
 341 000a 012B     		cmp	r3, #1
 342 000c 75D1     		bne	.L13
 343              		.cfi_offset 14, -4
 344              		.loc 1 311 0
 345 000e 019A     		ldr	r2, [sp, #4]
 346 0010 40F20003 		movw	r3, #:lower16:SPID1
 347 0014 C0F20003 		movt	r3, #:upper16:SPID1
 348 0018 9A42     		cmp	r2, r3
 349 001a 2BD1     		bne	.L14
 350              	.LBB5:
 351              		.loc 1 313 0
 352 001c 019B     		ldr	r3, [sp, #4]
 353 001e 1A6A     		ldr	r2, [r3, #32]
 354 0020 40F20003 		movw	r3, #:lower16:spi_lld_serve_rx_interrupt
 355 0024 C0F20003 		movt	r3, #:upper16:spi_lld_serve_rx_interrupt
 356 0028 1046     		mov	r0, r2
 357 002a 4FF00A01 		mov	r1, #10
 358 002e 1A46     		mov	r2, r3
 359 0030 019B     		ldr	r3, [sp, #4]
 360 0032 FFF7FEFF 		bl	dmaStreamAllocate
 361 0036 0346     		mov	r3, r0
 362 0038 8DF80F30 		strb	r3, [sp, #15]
 363              		.loc 1 318 0
 364 003c 019B     		ldr	r3, [sp, #4]
 365 003e 5A6A     		ldr	r2, [r3, #36]
 366 0040 40F20003 		movw	r3, #:lower16:spi_lld_serve_tx_interrupt
 367 0044 C0F20003 		movt	r3, #:upper16:spi_lld_serve_tx_interrupt
 368 0048 1046     		mov	r0, r2
 369 004a 4FF00A01 		mov	r1, #10
 370 004e 1A46     		mov	r2, r3
 371 0050 019B     		ldr	r3, [sp, #4]
 372 0052 FFF7FEFF 		bl	dmaStreamAllocate
 373 0056 0346     		mov	r3, r0
 374 0058 8DF80F30 		strb	r3, [sp, #15]
 375              		.loc 1 323 0
 376 005c 4FF48053 		mov	r3, #4096
 377 0060 C4F20203 		movt	r3, 16386
 378 0064 4FF48052 		mov	r2, #4096
 379 0068 C4F20202 		movt	r2, 16386
 380 006c 9269     		ldr	r2, [r2, #24]
 381 006e 42F48052 		orr	r2, r2, #4096
 382 0072 9A61     		str	r2, [r3, #24]
 383              	.L14:
 384              	.LBE5:
ARM GAS  C:\Users\z80\AppData\Local\Temp\cchCGb6d.s 			page 8


 385              		.loc 1 327 0
 386 0074 019A     		ldr	r2, [sp, #4]
 387 0076 40F20003 		movw	r3, #:lower16:SPID2
 388 007a C0F20003 		movt	r3, #:upper16:SPID2
 389 007e 9A42     		cmp	r2, r3
 390 0080 2BD1     		bne	.L15
 391              	.LBB6:
 392              		.loc 1 329 0
 393 0082 019B     		ldr	r3, [sp, #4]
 394 0084 1A6A     		ldr	r2, [r3, #32]
 395 0086 40F20003 		movw	r3, #:lower16:spi_lld_serve_rx_interrupt
 396 008a C0F20003 		movt	r3, #:upper16:spi_lld_serve_rx_interrupt
 397 008e 1046     		mov	r0, r2
 398 0090 4FF00A01 		mov	r1, #10
 399 0094 1A46     		mov	r2, r3
 400 0096 019B     		ldr	r3, [sp, #4]
 401 0098 FFF7FEFF 		bl	dmaStreamAllocate
 402 009c 0346     		mov	r3, r0
 403 009e 8DF80E30 		strb	r3, [sp, #14]
 404              		.loc 1 334 0
 405 00a2 019B     		ldr	r3, [sp, #4]
 406 00a4 5A6A     		ldr	r2, [r3, #36]
 407 00a6 40F20003 		movw	r3, #:lower16:spi_lld_serve_tx_interrupt
 408 00aa C0F20003 		movt	r3, #:upper16:spi_lld_serve_tx_interrupt
 409 00ae 1046     		mov	r0, r2
 410 00b0 4FF00A01 		mov	r1, #10
 411 00b4 1A46     		mov	r2, r3
 412 00b6 019B     		ldr	r3, [sp, #4]
 413 00b8 FFF7FEFF 		bl	dmaStreamAllocate
 414 00bc 0346     		mov	r3, r0
 415 00be 8DF80E30 		strb	r3, [sp, #14]
 416              		.loc 1 339 0
 417 00c2 4FF48053 		mov	r3, #4096
 418 00c6 C4F20203 		movt	r3, 16386
 419 00ca 4FF48052 		mov	r2, #4096
 420 00ce C4F20202 		movt	r2, 16386
 421 00d2 D269     		ldr	r2, [r2, #28]
 422 00d4 42F48042 		orr	r2, r2, #16384
 423 00d8 DA61     		str	r2, [r3, #28]
 424              	.L15:
 425              	.LBE6:
 426              		.loc 1 408 0
 427 00da 019B     		ldr	r3, [sp, #4]
 428 00dc 1B6A     		ldr	r3, [r3, #32]
 429 00de 1B68     		ldr	r3, [r3, #0]
 430 00e0 019A     		ldr	r2, [sp, #4]
 431 00e2 D269     		ldr	r2, [r2, #28]
 432 00e4 02F10C02 		add	r2, r2, #12
 433 00e8 9A60     		str	r2, [r3, #8]
 434              		.loc 1 409 0
 435 00ea 019B     		ldr	r3, [sp, #4]
 436 00ec 5B6A     		ldr	r3, [r3, #36]
 437 00ee 1B68     		ldr	r3, [r3, #0]
 438 00f0 019A     		ldr	r2, [sp, #4]
 439 00f2 D269     		ldr	r2, [r2, #28]
 440 00f4 02F10C02 		add	r2, r2, #12
 441 00f8 9A60     		str	r2, [r3, #8]
ARM GAS  C:\Users\z80\AppData\Local\Temp\cchCGb6d.s 			page 9


 442              	.L13:
 443              		.loc 1 413 0
 444 00fa 019B     		ldr	r3, [sp, #4]
 445 00fc 5B68     		ldr	r3, [r3, #4]
 446 00fe 5B89     		ldrh	r3, [r3, #10]
 447 0100 03F40063 		and	r3, r3, #2048
 448 0104 002B     		cmp	r3, #0
 449 0106 0CD1     		bne	.L16
 450              		.loc 1 415 0
 451 0108 019B     		ldr	r3, [sp, #4]
 452 010a 9B6A     		ldr	r3, [r3, #40]
 453              		.loc 1 416 0
 454 010c 23F47062 		bic	r2, r3, #3840
 455              		.loc 1 415 0
 456 0110 019B     		ldr	r3, [sp, #4]
 457 0112 9A62     		str	r2, [r3, #40]
 458              		.loc 1 417 0
 459 0114 019B     		ldr	r3, [sp, #4]
 460 0116 DB6A     		ldr	r3, [r3, #44]
 461              		.loc 1 418 0
 462 0118 23F47062 		bic	r2, r3, #3840
 463              		.loc 1 417 0
 464 011c 019B     		ldr	r3, [sp, #4]
 465 011e DA62     		str	r2, [r3, #44]
 466 0120 0FE0     		b	.L17
 467              	.L16:
 468              		.loc 1 422 0
 469 0122 019B     		ldr	r3, [sp, #4]
 470 0124 9B6A     		ldr	r3, [r3, #40]
 471 0126 23F47063 		bic	r3, r3, #3840
 472              		.loc 1 423 0
 473 012a 43F4A062 		orr	r2, r3, #1280
 474              		.loc 1 422 0
 475 012e 019B     		ldr	r3, [sp, #4]
 476 0130 9A62     		str	r2, [r3, #40]
 477              		.loc 1 424 0
 478 0132 019B     		ldr	r3, [sp, #4]
 479 0134 DB6A     		ldr	r3, [r3, #44]
 480 0136 23F47063 		bic	r3, r3, #3840
 481              		.loc 1 425 0
 482 013a 43F4A062 		orr	r2, r3, #1280
 483              		.loc 1 424 0
 484 013e 019B     		ldr	r3, [sp, #4]
 485 0140 DA62     		str	r2, [r3, #44]
 486              	.L17:
 487              		.loc 1 428 0
 488 0142 019B     		ldr	r3, [sp, #4]
 489 0144 DB69     		ldr	r3, [r3, #28]
 490 0146 4FF00002 		mov	r2, #0
 491 014a 1A80     		strh	r2, [r3, #0]	@ movhi
 492              		.loc 1 429 0
 493 014c 019B     		ldr	r3, [sp, #4]
 494 014e DB69     		ldr	r3, [r3, #28]
 495 0150 019A     		ldr	r2, [sp, #4]
 496 0152 5268     		ldr	r2, [r2, #4]
 497 0154 5289     		ldrh	r2, [r2, #10]
 498 0156 42F44172 		orr	r2, r2, #772
ARM GAS  C:\Users\z80\AppData\Local\Temp\cchCGb6d.s 			page 10


 499 015a 92B2     		uxth	r2, r2
 500 015c 1A80     		strh	r2, [r3, #0]	@ movhi
 501              		.loc 1 431 0
 502 015e 019B     		ldr	r3, [sp, #4]
 503 0160 DB69     		ldr	r3, [r3, #28]
 504 0162 4FF00702 		mov	r2, #7
 505 0166 9A80     		strh	r2, [r3, #4]	@ movhi
 506              		.loc 1 432 0
 507 0168 019B     		ldr	r3, [sp, #4]
 508 016a DB69     		ldr	r3, [r3, #28]
 509 016c 019A     		ldr	r2, [sp, #4]
 510 016e D269     		ldr	r2, [r2, #28]
 511 0170 1288     		ldrh	r2, [r2, #0]	@ movhi
 512 0172 92B2     		uxth	r2, r2
 513 0174 42F04002 		orr	r2, r2, #64
 514 0178 92B2     		uxth	r2, r2
 515 017a 1A80     		strh	r2, [r3, #0]	@ movhi
 516              		.loc 1 433 0
 517 017c 05B0     		add	sp, sp, #20
 518 017e 00BD     		pop	{pc}
 519              		.cfi_endproc
 520              	.LFE66:
 521              		.size	spi_lld_start, .-spi_lld_start
 522              		.section	.text.spi_lld_stop,"ax",%progbits
 523              		.align	2
 524              		.p2align 4,,15
 525              		.global	spi_lld_stop
 526              		.thumb
 527              		.thumb_func
 528              		.type	spi_lld_stop, %function
 529              	spi_lld_stop:
 530              	.LFB67:
 531              		.loc 1 442 0
 532              		.cfi_startproc
 533              		@ args = 0, pretend = 0, frame = 8
 534              		@ frame_needed = 0, uses_anonymous_args = 0
 535 0000 00B5     		push	{lr}
 536              	.LCFI7:
 537              		.cfi_def_cfa_offset 4
 538 0002 83B0     		sub	sp, sp, #12
 539              	.LCFI8:
 540              		.cfi_def_cfa_offset 16
 541 0004 0190     		str	r0, [sp, #4]
 542              		.loc 1 445 0
 543 0006 019B     		ldr	r3, [sp, #4]
 544 0008 1B78     		ldrb	r3, [r3, #0]	@ zero_extendqisi2
 545 000a 022B     		cmp	r3, #2
 546 000c 39D1     		bne	.L18
 547              		.cfi_offset 14, -4
 548              		.loc 1 448 0
 549 000e 019B     		ldr	r3, [sp, #4]
 550 0010 DB69     		ldr	r3, [r3, #28]
 551 0012 4FF00002 		mov	r2, #0
 552 0016 1A80     		strh	r2, [r3, #0]	@ movhi
 553              		.loc 1 449 0
 554 0018 019B     		ldr	r3, [sp, #4]
 555 001a DB69     		ldr	r3, [r3, #28]
ARM GAS  C:\Users\z80\AppData\Local\Temp\cchCGb6d.s 			page 11


 556 001c 4FF00002 		mov	r2, #0
 557 0020 9A80     		strh	r2, [r3, #4]	@ movhi
 558              		.loc 1 450 0
 559 0022 019B     		ldr	r3, [sp, #4]
 560 0024 1B6A     		ldr	r3, [r3, #32]
 561 0026 1846     		mov	r0, r3
 562 0028 FFF7FEFF 		bl	dmaStreamRelease
 563              		.loc 1 451 0
 564 002c 019B     		ldr	r3, [sp, #4]
 565 002e 5B6A     		ldr	r3, [r3, #36]
 566 0030 1846     		mov	r0, r3
 567 0032 FFF7FEFF 		bl	dmaStreamRelease
 568              		.loc 1 454 0
 569 0036 019A     		ldr	r2, [sp, #4]
 570 0038 40F20003 		movw	r3, #:lower16:SPID1
 571 003c C0F20003 		movt	r3, #:upper16:SPID1
 572 0040 9A42     		cmp	r2, r3
 573 0042 0BD1     		bne	.L20
 574              		.loc 1 455 0
 575 0044 4FF48053 		mov	r3, #4096
 576 0048 C4F20203 		movt	r3, 16386
 577 004c 4FF48052 		mov	r2, #4096
 578 0050 C4F20202 		movt	r2, 16386
 579 0054 9269     		ldr	r2, [r2, #24]
 580 0056 22F48052 		bic	r2, r2, #4096
 581 005a 9A61     		str	r2, [r3, #24]
 582              	.L20:
 583              		.loc 1 458 0
 584 005c 019A     		ldr	r2, [sp, #4]
 585 005e 40F20003 		movw	r3, #:lower16:SPID2
 586 0062 C0F20003 		movt	r3, #:upper16:SPID2
 587 0066 9A42     		cmp	r2, r3
 588 0068 0BD1     		bne	.L18
 589              		.loc 1 459 0
 590 006a 4FF48053 		mov	r3, #4096
 591 006e C4F20203 		movt	r3, 16386
 592 0072 4FF48052 		mov	r2, #4096
 593 0076 C4F20202 		movt	r2, 16386
 594 007a D269     		ldr	r2, [r2, #28]
 595 007c 22F48042 		bic	r2, r2, #16384
 596 0080 DA61     		str	r2, [r3, #28]
 597              	.L18:
 598              		.loc 1 478 0
 599 0082 03B0     		add	sp, sp, #12
 600 0084 00BD     		pop	{pc}
 601              		.cfi_endproc
 602              	.LFE67:
 603              		.size	spi_lld_stop, .-spi_lld_stop
 604 0086 00BFAFF3 		.section	.text.spi_lld_select,"ax",%progbits
 604      0080AFF3 
 604      0080
 605              		.align	2
 606              		.p2align 4,,15
 607              		.global	spi_lld_select
 608              		.thumb
 609              		.thumb_func
 610              		.type	spi_lld_select, %function
ARM GAS  C:\Users\z80\AppData\Local\Temp\cchCGb6d.s 			page 12


 611              	spi_lld_select:
 612              	.LFB68:
 613              		.loc 1 487 0
 614              		.cfi_startproc
 615              		@ args = 0, pretend = 0, frame = 8
 616              		@ frame_needed = 0, uses_anonymous_args = 0
 617              		@ link register save eliminated.
 618 0000 82B0     		sub	sp, sp, #8
 619              	.LCFI9:
 620              		.cfi_def_cfa_offset 8
 621 0002 0190     		str	r0, [sp, #4]
 622              		.loc 1 489 0
 623 0004 019B     		ldr	r3, [sp, #4]
 624 0006 5B68     		ldr	r3, [r3, #4]
 625 0008 5B68     		ldr	r3, [r3, #4]
 626 000a 019A     		ldr	r2, [sp, #4]
 627 000c 5268     		ldr	r2, [r2, #4]
 628 000e 1289     		ldrh	r2, [r2, #8]
 629 0010 4FF00101 		mov	r1, #1
 630 0014 01FA02F2 		lsl	r2, r1, r2
 631 0018 5A61     		str	r2, [r3, #20]
 632              		.loc 1 490 0
 633 001a 02B0     		add	sp, sp, #8
 634 001c 7047     		bx	lr
 635              		.cfi_endproc
 636              	.LFE68:
 637              		.size	spi_lld_select, .-spi_lld_select
 638 001e 00BF     		.section	.text.spi_lld_unselect,"ax",%progbits
 639              		.align	2
 640              		.p2align 4,,15
 641              		.global	spi_lld_unselect
 642              		.thumb
 643              		.thumb_func
 644              		.type	spi_lld_unselect, %function
 645              	spi_lld_unselect:
 646              	.LFB69:
 647              		.loc 1 500 0
 648              		.cfi_startproc
 649              		@ args = 0, pretend = 0, frame = 8
 650              		@ frame_needed = 0, uses_anonymous_args = 0
 651              		@ link register save eliminated.
 652 0000 82B0     		sub	sp, sp, #8
 653              	.LCFI10:
 654              		.cfi_def_cfa_offset 8
 655 0002 0190     		str	r0, [sp, #4]
 656              		.loc 1 502 0
 657 0004 019B     		ldr	r3, [sp, #4]
 658 0006 5B68     		ldr	r3, [r3, #4]
 659 0008 5B68     		ldr	r3, [r3, #4]
 660 000a 019A     		ldr	r2, [sp, #4]
 661 000c 5268     		ldr	r2, [r2, #4]
 662 000e 1289     		ldrh	r2, [r2, #8]
 663 0010 4FF00101 		mov	r1, #1
 664 0014 01FA02F2 		lsl	r2, r1, r2
 665 0018 1A61     		str	r2, [r3, #16]
 666              		.loc 1 503 0
 667 001a 02B0     		add	sp, sp, #8
ARM GAS  C:\Users\z80\AppData\Local\Temp\cchCGb6d.s 			page 13


 668 001c 7047     		bx	lr
 669              		.cfi_endproc
 670              	.LFE69:
 671              		.size	spi_lld_unselect, .-spi_lld_unselect
 672 001e 00BF     		.section	.text.spi_lld_ignore,"ax",%progbits
 673              		.align	2
 674              		.p2align 4,,15
 675              		.global	spi_lld_ignore
 676              		.thumb
 677              		.thumb_func
 678              		.type	spi_lld_ignore, %function
 679              	spi_lld_ignore:
 680              	.LFB70:
 681              		.loc 1 516 0
 682              		.cfi_startproc
 683              		@ args = 0, pretend = 0, frame = 8
 684              		@ frame_needed = 0, uses_anonymous_args = 0
 685              		@ link register save eliminated.
 686 0000 82B0     		sub	sp, sp, #8
 687              	.LCFI11:
 688              		.cfi_def_cfa_offset 8
 689 0002 0190     		str	r0, [sp, #4]
 690 0004 0091     		str	r1, [sp, #0]
 691              		.loc 1 518 0
 692 0006 019B     		ldr	r3, [sp, #4]
 693 0008 1B6A     		ldr	r3, [r3, #32]
 694 000a 1A68     		ldr	r2, [r3, #0]
 695 000c 40F20003 		movw	r3, #:lower16:dummyrx
 696 0010 C0F20003 		movt	r3, #:upper16:dummyrx
 697 0014 D360     		str	r3, [r2, #12]
 698              		.loc 1 519 0
 699 0016 019B     		ldr	r3, [sp, #4]
 700 0018 1B6A     		ldr	r3, [r3, #32]
 701 001a 1B68     		ldr	r3, [r3, #0]
 702 001c 009A     		ldr	r2, [sp, #0]
 703 001e 5A60     		str	r2, [r3, #4]
 704              		.loc 1 520 0
 705 0020 019B     		ldr	r3, [sp, #4]
 706 0022 1B6A     		ldr	r3, [r3, #32]
 707 0024 1B68     		ldr	r3, [r3, #0]
 708 0026 019A     		ldr	r2, [sp, #4]
 709 0028 926A     		ldr	r2, [r2, #40]
 710 002a 1A60     		str	r2, [r3, #0]
 711              		.loc 1 522 0
 712 002c 019B     		ldr	r3, [sp, #4]
 713 002e 5B6A     		ldr	r3, [r3, #36]
 714 0030 1A68     		ldr	r2, [r3, #0]
 715 0032 40F20003 		movw	r3, #:lower16:dummytx
 716 0036 C0F20003 		movt	r3, #:upper16:dummytx
 717 003a D360     		str	r3, [r2, #12]
 718              		.loc 1 523 0
 719 003c 019B     		ldr	r3, [sp, #4]
 720 003e 5B6A     		ldr	r3, [r3, #36]
 721 0040 1B68     		ldr	r3, [r3, #0]
 722 0042 009A     		ldr	r2, [sp, #0]
 723 0044 5A60     		str	r2, [r3, #4]
 724              		.loc 1 524 0
ARM GAS  C:\Users\z80\AppData\Local\Temp\cchCGb6d.s 			page 14


 725 0046 019B     		ldr	r3, [sp, #4]
 726 0048 5B6A     		ldr	r3, [r3, #36]
 727 004a 1B68     		ldr	r3, [r3, #0]
 728 004c 019A     		ldr	r2, [sp, #4]
 729 004e D26A     		ldr	r2, [r2, #44]
 730 0050 1A60     		str	r2, [r3, #0]
 731              		.loc 1 526 0
 732 0052 019B     		ldr	r3, [sp, #4]
 733 0054 1B6A     		ldr	r3, [r3, #32]
 734 0056 1B68     		ldr	r3, [r3, #0]
 735 0058 019A     		ldr	r2, [sp, #4]
 736 005a 126A     		ldr	r2, [r2, #32]
 737 005c 1268     		ldr	r2, [r2, #0]
 738 005e 1268     		ldr	r2, [r2, #0]
 739 0060 42F00102 		orr	r2, r2, #1
 740 0064 1A60     		str	r2, [r3, #0]
 741              		.loc 1 527 0
 742 0066 019B     		ldr	r3, [sp, #4]
 743 0068 5B6A     		ldr	r3, [r3, #36]
 744 006a 1B68     		ldr	r3, [r3, #0]
 745 006c 019A     		ldr	r2, [sp, #4]
 746 006e 526A     		ldr	r2, [r2, #36]
 747 0070 1268     		ldr	r2, [r2, #0]
 748 0072 1268     		ldr	r2, [r2, #0]
 749 0074 42F00102 		orr	r2, r2, #1
 750 0078 1A60     		str	r2, [r3, #0]
 751              		.loc 1 528 0
 752 007a 02B0     		add	sp, sp, #8
 753 007c 7047     		bx	lr
 754              		.cfi_endproc
 755              	.LFE70:
 756              		.size	spi_lld_ignore, .-spi_lld_ignore
 757 007e 00BF     		.section	.text.spi_lld_exchange,"ax",%progbits
 758              		.align	2
 759              		.p2align 4,,15
 760              		.global	spi_lld_exchange
 761              		.thumb
 762              		.thumb_func
 763              		.type	spi_lld_exchange, %function
 764              	spi_lld_exchange:
 765              	.LFB71:
 766              		.loc 1 546 0
 767              		.cfi_startproc
 768              		@ args = 0, pretend = 0, frame = 16
 769              		@ frame_needed = 0, uses_anonymous_args = 0
 770              		@ link register save eliminated.
 771 0000 84B0     		sub	sp, sp, #16
 772              	.LCFI12:
 773              		.cfi_def_cfa_offset 16
 774 0002 0390     		str	r0, [sp, #12]
 775 0004 0291     		str	r1, [sp, #8]
 776 0006 0192     		str	r2, [sp, #4]
 777 0008 0093     		str	r3, [sp, #0]
 778              		.loc 1 548 0
 779 000a 039B     		ldr	r3, [sp, #12]
 780 000c 1B6A     		ldr	r3, [r3, #32]
 781 000e 1B68     		ldr	r3, [r3, #0]
ARM GAS  C:\Users\z80\AppData\Local\Temp\cchCGb6d.s 			page 15


 782 0010 009A     		ldr	r2, [sp, #0]
 783 0012 DA60     		str	r2, [r3, #12]
 784              		.loc 1 549 0
 785 0014 039B     		ldr	r3, [sp, #12]
 786 0016 1B6A     		ldr	r3, [r3, #32]
 787 0018 1B68     		ldr	r3, [r3, #0]
 788 001a 029A     		ldr	r2, [sp, #8]
 789 001c 5A60     		str	r2, [r3, #4]
 790              		.loc 1 550 0
 791 001e 039B     		ldr	r3, [sp, #12]
 792 0020 1B6A     		ldr	r3, [r3, #32]
 793 0022 1B68     		ldr	r3, [r3, #0]
 794 0024 039A     		ldr	r2, [sp, #12]
 795 0026 926A     		ldr	r2, [r2, #40]
 796 0028 42F08002 		orr	r2, r2, #128
 797 002c 1A60     		str	r2, [r3, #0]
 798              		.loc 1 552 0
 799 002e 039B     		ldr	r3, [sp, #12]
 800 0030 5B6A     		ldr	r3, [r3, #36]
 801 0032 1B68     		ldr	r3, [r3, #0]
 802 0034 019A     		ldr	r2, [sp, #4]
 803 0036 DA60     		str	r2, [r3, #12]
 804              		.loc 1 553 0
 805 0038 039B     		ldr	r3, [sp, #12]
 806 003a 5B6A     		ldr	r3, [r3, #36]
 807 003c 1B68     		ldr	r3, [r3, #0]
 808 003e 029A     		ldr	r2, [sp, #8]
 809 0040 5A60     		str	r2, [r3, #4]
 810              		.loc 1 554 0
 811 0042 039B     		ldr	r3, [sp, #12]
 812 0044 5B6A     		ldr	r3, [r3, #36]
 813 0046 1B68     		ldr	r3, [r3, #0]
 814 0048 039A     		ldr	r2, [sp, #12]
 815 004a D26A     		ldr	r2, [r2, #44]
 816 004c 42F08002 		orr	r2, r2, #128
 817 0050 1A60     		str	r2, [r3, #0]
 818              		.loc 1 556 0
 819 0052 039B     		ldr	r3, [sp, #12]
 820 0054 1B6A     		ldr	r3, [r3, #32]
 821 0056 1B68     		ldr	r3, [r3, #0]
 822 0058 039A     		ldr	r2, [sp, #12]
 823 005a 126A     		ldr	r2, [r2, #32]
 824 005c 1268     		ldr	r2, [r2, #0]
 825 005e 1268     		ldr	r2, [r2, #0]
 826 0060 42F00102 		orr	r2, r2, #1
 827 0064 1A60     		str	r2, [r3, #0]
 828              		.loc 1 557 0
 829 0066 039B     		ldr	r3, [sp, #12]
 830 0068 5B6A     		ldr	r3, [r3, #36]
 831 006a 1B68     		ldr	r3, [r3, #0]
 832 006c 039A     		ldr	r2, [sp, #12]
 833 006e 526A     		ldr	r2, [r2, #36]
 834 0070 1268     		ldr	r2, [r2, #0]
 835 0072 1268     		ldr	r2, [r2, #0]
 836 0074 42F00102 		orr	r2, r2, #1
 837 0078 1A60     		str	r2, [r3, #0]
 838              		.loc 1 558 0
ARM GAS  C:\Users\z80\AppData\Local\Temp\cchCGb6d.s 			page 16


 839 007a 04B0     		add	sp, sp, #16
 840 007c 7047     		bx	lr
 841              		.cfi_endproc
 842              	.LFE71:
 843              		.size	spi_lld_exchange, .-spi_lld_exchange
 844 007e 00BF     		.section	.text.spi_lld_send,"ax",%progbits
 845              		.align	2
 846              		.p2align 4,,15
 847              		.global	spi_lld_send
 848              		.thumb
 849              		.thumb_func
 850              		.type	spi_lld_send, %function
 851              	spi_lld_send:
 852              	.LFB72:
 853              		.loc 1 573 0
 854              		.cfi_startproc
 855              		@ args = 0, pretend = 0, frame = 16
 856              		@ frame_needed = 0, uses_anonymous_args = 0
 857              		@ link register save eliminated.
 858 0000 84B0     		sub	sp, sp, #16
 859              	.LCFI13:
 860              		.cfi_def_cfa_offset 16
 861 0002 0390     		str	r0, [sp, #12]
 862 0004 0291     		str	r1, [sp, #8]
 863 0006 0192     		str	r2, [sp, #4]
 864              		.loc 1 575 0
 865 0008 039B     		ldr	r3, [sp, #12]
 866 000a 1B6A     		ldr	r3, [r3, #32]
 867 000c 1A68     		ldr	r2, [r3, #0]
 868 000e 40F20003 		movw	r3, #:lower16:dummyrx
 869 0012 C0F20003 		movt	r3, #:upper16:dummyrx
 870 0016 D360     		str	r3, [r2, #12]
 871              		.loc 1 576 0
 872 0018 039B     		ldr	r3, [sp, #12]
 873 001a 1B6A     		ldr	r3, [r3, #32]
 874 001c 1B68     		ldr	r3, [r3, #0]
 875 001e 029A     		ldr	r2, [sp, #8]
 876 0020 5A60     		str	r2, [r3, #4]
 877              		.loc 1 577 0
 878 0022 039B     		ldr	r3, [sp, #12]
 879 0024 1B6A     		ldr	r3, [r3, #32]
 880 0026 1B68     		ldr	r3, [r3, #0]
 881 0028 039A     		ldr	r2, [sp, #12]
 882 002a 926A     		ldr	r2, [r2, #40]
 883 002c 1A60     		str	r2, [r3, #0]
 884              		.loc 1 579 0
 885 002e 039B     		ldr	r3, [sp, #12]
 886 0030 5B6A     		ldr	r3, [r3, #36]
 887 0032 1B68     		ldr	r3, [r3, #0]
 888 0034 019A     		ldr	r2, [sp, #4]
 889 0036 DA60     		str	r2, [r3, #12]
 890              		.loc 1 580 0
 891 0038 039B     		ldr	r3, [sp, #12]
 892 003a 5B6A     		ldr	r3, [r3, #36]
 893 003c 1B68     		ldr	r3, [r3, #0]
 894 003e 029A     		ldr	r2, [sp, #8]
 895 0040 5A60     		str	r2, [r3, #4]
ARM GAS  C:\Users\z80\AppData\Local\Temp\cchCGb6d.s 			page 17


 896              		.loc 1 581 0
 897 0042 039B     		ldr	r3, [sp, #12]
 898 0044 5B6A     		ldr	r3, [r3, #36]
 899 0046 1B68     		ldr	r3, [r3, #0]
 900 0048 039A     		ldr	r2, [sp, #12]
 901 004a D26A     		ldr	r2, [r2, #44]
 902 004c 42F08002 		orr	r2, r2, #128
 903 0050 1A60     		str	r2, [r3, #0]
 904              		.loc 1 583 0
 905 0052 039B     		ldr	r3, [sp, #12]
 906 0054 1B6A     		ldr	r3, [r3, #32]
 907 0056 1B68     		ldr	r3, [r3, #0]
 908 0058 039A     		ldr	r2, [sp, #12]
 909 005a 126A     		ldr	r2, [r2, #32]
 910 005c 1268     		ldr	r2, [r2, #0]
 911 005e 1268     		ldr	r2, [r2, #0]
 912 0060 42F00102 		orr	r2, r2, #1
 913 0064 1A60     		str	r2, [r3, #0]
 914              		.loc 1 584 0
 915 0066 039B     		ldr	r3, [sp, #12]
 916 0068 5B6A     		ldr	r3, [r3, #36]
 917 006a 1B68     		ldr	r3, [r3, #0]
 918 006c 039A     		ldr	r2, [sp, #12]
 919 006e 526A     		ldr	r2, [r2, #36]
 920 0070 1268     		ldr	r2, [r2, #0]
 921 0072 1268     		ldr	r2, [r2, #0]
 922 0074 42F00102 		orr	r2, r2, #1
 923 0078 1A60     		str	r2, [r3, #0]
 924              		.loc 1 585 0
 925 007a 04B0     		add	sp, sp, #16
 926 007c 7047     		bx	lr
 927              		.cfi_endproc
 928              	.LFE72:
 929              		.size	spi_lld_send, .-spi_lld_send
 930 007e 00BF     		.section	.text.spi_lld_receive,"ax",%progbits
 931              		.align	2
 932              		.p2align 4,,15
 933              		.global	spi_lld_receive
 934              		.thumb
 935              		.thumb_func
 936              		.type	spi_lld_receive, %function
 937              	spi_lld_receive:
 938              	.LFB73:
 939              		.loc 1 600 0
 940              		.cfi_startproc
 941              		@ args = 0, pretend = 0, frame = 16
 942              		@ frame_needed = 0, uses_anonymous_args = 0
 943              		@ link register save eliminated.
 944 0000 84B0     		sub	sp, sp, #16
 945              	.LCFI14:
 946              		.cfi_def_cfa_offset 16
 947 0002 0390     		str	r0, [sp, #12]
 948 0004 0291     		str	r1, [sp, #8]
 949 0006 0192     		str	r2, [sp, #4]
 950              		.loc 1 602 0
 951 0008 039B     		ldr	r3, [sp, #12]
 952 000a 1B6A     		ldr	r3, [r3, #32]
ARM GAS  C:\Users\z80\AppData\Local\Temp\cchCGb6d.s 			page 18


 953 000c 1B68     		ldr	r3, [r3, #0]
 954 000e 019A     		ldr	r2, [sp, #4]
 955 0010 DA60     		str	r2, [r3, #12]
 956              		.loc 1 603 0
 957 0012 039B     		ldr	r3, [sp, #12]
 958 0014 1B6A     		ldr	r3, [r3, #32]
 959 0016 1B68     		ldr	r3, [r3, #0]
 960 0018 029A     		ldr	r2, [sp, #8]
 961 001a 5A60     		str	r2, [r3, #4]
 962              		.loc 1 604 0
 963 001c 039B     		ldr	r3, [sp, #12]
 964 001e 1B6A     		ldr	r3, [r3, #32]
 965 0020 1B68     		ldr	r3, [r3, #0]
 966 0022 039A     		ldr	r2, [sp, #12]
 967 0024 926A     		ldr	r2, [r2, #40]
 968 0026 42F08002 		orr	r2, r2, #128
 969 002a 1A60     		str	r2, [r3, #0]
 970              		.loc 1 606 0
 971 002c 039B     		ldr	r3, [sp, #12]
 972 002e 5B6A     		ldr	r3, [r3, #36]
 973 0030 1A68     		ldr	r2, [r3, #0]
 974 0032 40F20003 		movw	r3, #:lower16:dummytx
 975 0036 C0F20003 		movt	r3, #:upper16:dummytx
 976 003a D360     		str	r3, [r2, #12]
 977              		.loc 1 607 0
 978 003c 039B     		ldr	r3, [sp, #12]
 979 003e 5B6A     		ldr	r3, [r3, #36]
 980 0040 1B68     		ldr	r3, [r3, #0]
 981 0042 029A     		ldr	r2, [sp, #8]
 982 0044 5A60     		str	r2, [r3, #4]
 983              		.loc 1 608 0
 984 0046 039B     		ldr	r3, [sp, #12]
 985 0048 5B6A     		ldr	r3, [r3, #36]
 986 004a 1B68     		ldr	r3, [r3, #0]
 987 004c 039A     		ldr	r2, [sp, #12]
 988 004e D26A     		ldr	r2, [r2, #44]
 989 0050 1A60     		str	r2, [r3, #0]
 990              		.loc 1 610 0
 991 0052 039B     		ldr	r3, [sp, #12]
 992 0054 1B6A     		ldr	r3, [r3, #32]
 993 0056 1B68     		ldr	r3, [r3, #0]
 994 0058 039A     		ldr	r2, [sp, #12]
 995 005a 126A     		ldr	r2, [r2, #32]
 996 005c 1268     		ldr	r2, [r2, #0]
 997 005e 1268     		ldr	r2, [r2, #0]
 998 0060 42F00102 		orr	r2, r2, #1
 999 0064 1A60     		str	r2, [r3, #0]
 1000              		.loc 1 611 0
 1001 0066 039B     		ldr	r3, [sp, #12]
 1002 0068 5B6A     		ldr	r3, [r3, #36]
 1003 006a 1B68     		ldr	r3, [r3, #0]
 1004 006c 039A     		ldr	r2, [sp, #12]
 1005 006e 526A     		ldr	r2, [r2, #36]
 1006 0070 1268     		ldr	r2, [r2, #0]
 1007 0072 1268     		ldr	r2, [r2, #0]
 1008 0074 42F00102 		orr	r2, r2, #1
 1009 0078 1A60     		str	r2, [r3, #0]
ARM GAS  C:\Users\z80\AppData\Local\Temp\cchCGb6d.s 			page 19


 1010              		.loc 1 612 0
 1011 007a 04B0     		add	sp, sp, #16
 1012 007c 7047     		bx	lr
 1013              		.cfi_endproc
 1014              	.LFE73:
 1015              		.size	spi_lld_receive, .-spi_lld_receive
 1016 007e 00BF     		.section	.text.spi_lld_polled_exchange,"ax",%progbits
 1017              		.align	2
 1018              		.p2align 4,,15
 1019              		.global	spi_lld_polled_exchange
 1020              		.thumb
 1021              		.thumb_func
 1022              		.type	spi_lld_polled_exchange, %function
 1023              	spi_lld_polled_exchange:
 1024              	.LFB74:
 1025              		.loc 1 626 0
 1026              		.cfi_startproc
 1027              		@ args = 0, pretend = 0, frame = 8
 1028              		@ frame_needed = 0, uses_anonymous_args = 0
 1029              		@ link register save eliminated.
 1030 0000 82B0     		sub	sp, sp, #8
 1031              	.LCFI15:
 1032              		.cfi_def_cfa_offset 8
 1033 0002 0190     		str	r0, [sp, #4]
 1034 0004 0B46     		mov	r3, r1
 1035 0006 ADF80230 		strh	r3, [sp, #2]	@ movhi
 1036              		.loc 1 628 0
 1037 000a 019B     		ldr	r3, [sp, #4]
 1038 000c DB69     		ldr	r3, [r3, #28]
 1039 000e BDF80220 		ldrh	r2, [sp, #2]	@ movhi
 1040 0012 9A81     		strh	r2, [r3, #12]	@ movhi
 1041              		.loc 1 629 0
 1042 0014 00BF     		nop
 1043              	.L28:
 1044              		.loc 1 629 0 is_stmt 0 discriminator 1
 1045 0016 019B     		ldr	r3, [sp, #4]
 1046 0018 DB69     		ldr	r3, [r3, #28]
 1047 001a 1B89     		ldrh	r3, [r3, #8]	@ movhi
 1048 001c 9BB2     		uxth	r3, r3
 1049 001e 03F00103 		and	r3, r3, #1
 1050 0022 002B     		cmp	r3, #0
 1051 0024 F7D0     		beq	.L28
 1052              		.loc 1 631 0 is_stmt 1
 1053 0026 019B     		ldr	r3, [sp, #4]
 1054 0028 DB69     		ldr	r3, [r3, #28]
 1055 002a 9B89     		ldrh	r3, [r3, #12]	@ movhi
 1056 002c 9BB2     		uxth	r3, r3
 1057              		.loc 1 632 0
 1058 002e 1846     		mov	r0, r3
 1059 0030 02B0     		add	sp, sp, #8
 1060 0032 7047     		bx	lr
 1061              		.cfi_endproc
 1062              	.LFE74:
 1063              		.size	spi_lld_polled_exchange, .-spi_lld_polled_exchange
 1064 0034 AFF30080 		.text
 1064      AFF30080 
 1064      AFF30080 
ARM GAS  C:\Users\z80\AppData\Local\Temp\cchCGb6d.s 			page 20


 1065              	.Letext0:
 1066              		.section	.debug_loc,"",%progbits
 1067              	.Ldebug_loc0:
 1068              	.LLST0:
 1069 0000 00000000 		.4byte	.LFB63
 1070 0004 02000000 		.4byte	.LCFI0
 1071 0008 0200     		.2byte	0x2
 1072 000a 7D       		.byte	0x7d
 1073 000b 00       		.sleb128 0
 1074 000c 02000000 		.4byte	.LCFI0
 1075 0010 04000000 		.4byte	.LCFI1
 1076 0014 0200     		.2byte	0x2
 1077 0016 7D       		.byte	0x7d
 1078 0017 04       		.sleb128 4
 1079 0018 04000000 		.4byte	.LCFI1
 1080 001c D8000000 		.4byte	.LFE63
 1081 0020 0200     		.2byte	0x2
 1082 0022 7D       		.byte	0x7d
 1083 0023 18       		.sleb128 24
 1084 0024 00000000 		.4byte	0x0
 1085 0028 00000000 		.4byte	0x0
 1086              	.LLST1:
 1087 002c 00000000 		.4byte	.LFB64
 1088 0030 02000000 		.4byte	.LCFI2
 1089 0034 0200     		.2byte	0x2
 1090 0036 7D       		.byte	0x7d
 1091 0037 00       		.sleb128 0
 1092 0038 02000000 		.4byte	.LCFI2
 1093 003c 04000000 		.4byte	.LCFI3
 1094 0040 0200     		.2byte	0x2
 1095 0042 7D       		.byte	0x7d
 1096 0043 04       		.sleb128 4
 1097 0044 04000000 		.4byte	.LCFI3
 1098 0048 1A000000 		.4byte	.LFE64
 1099 004c 0200     		.2byte	0x2
 1100 004e 7D       		.byte	0x7d
 1101 004f 10       		.sleb128 16
 1102 0050 00000000 		.4byte	0x0
 1103 0054 00000000 		.4byte	0x0
 1104              	.LLST2:
 1105 0058 00000000 		.4byte	.LFB65
 1106 005c 02000000 		.4byte	.LCFI4
 1107 0060 0200     		.2byte	0x2
 1108 0062 7D       		.byte	0x7d
 1109 0063 00       		.sleb128 0
 1110 0064 02000000 		.4byte	.LCFI4
 1111 0068 C8000000 		.4byte	.LFE65
 1112 006c 0200     		.2byte	0x2
 1113 006e 7D       		.byte	0x7d
 1114 006f 08       		.sleb128 8
 1115 0070 00000000 		.4byte	0x0
 1116 0074 00000000 		.4byte	0x0
 1117              	.LLST3:
 1118 0078 00000000 		.4byte	.LFB66
 1119 007c 02000000 		.4byte	.LCFI5
 1120 0080 0200     		.2byte	0x2
 1121 0082 7D       		.byte	0x7d
ARM GAS  C:\Users\z80\AppData\Local\Temp\cchCGb6d.s 			page 21


 1122 0083 00       		.sleb128 0
 1123 0084 02000000 		.4byte	.LCFI5
 1124 0088 04000000 		.4byte	.LCFI6
 1125 008c 0200     		.2byte	0x2
 1126 008e 7D       		.byte	0x7d
 1127 008f 04       		.sleb128 4
 1128 0090 04000000 		.4byte	.LCFI6
 1129 0094 80010000 		.4byte	.LFE66
 1130 0098 0200     		.2byte	0x2
 1131 009a 7D       		.byte	0x7d
 1132 009b 18       		.sleb128 24
 1133 009c 00000000 		.4byte	0x0
 1134 00a0 00000000 		.4byte	0x0
 1135              	.LLST4:
 1136 00a4 00000000 		.4byte	.LFB67
 1137 00a8 02000000 		.4byte	.LCFI7
 1138 00ac 0200     		.2byte	0x2
 1139 00ae 7D       		.byte	0x7d
 1140 00af 00       		.sleb128 0
 1141 00b0 02000000 		.4byte	.LCFI7
 1142 00b4 04000000 		.4byte	.LCFI8
 1143 00b8 0200     		.2byte	0x2
 1144 00ba 7D       		.byte	0x7d
 1145 00bb 04       		.sleb128 4
 1146 00bc 04000000 		.4byte	.LCFI8
 1147 00c0 86000000 		.4byte	.LFE67
 1148 00c4 0200     		.2byte	0x2
 1149 00c6 7D       		.byte	0x7d
 1150 00c7 10       		.sleb128 16
 1151 00c8 00000000 		.4byte	0x0
 1152 00cc 00000000 		.4byte	0x0
 1153              	.LLST5:
 1154 00d0 00000000 		.4byte	.LFB68
 1155 00d4 02000000 		.4byte	.LCFI9
 1156 00d8 0200     		.2byte	0x2
 1157 00da 7D       		.byte	0x7d
 1158 00db 00       		.sleb128 0
 1159 00dc 02000000 		.4byte	.LCFI9
 1160 00e0 1E000000 		.4byte	.LFE68
 1161 00e4 0200     		.2byte	0x2
 1162 00e6 7D       		.byte	0x7d
 1163 00e7 08       		.sleb128 8
 1164 00e8 00000000 		.4byte	0x0
 1165 00ec 00000000 		.4byte	0x0
 1166              	.LLST6:
 1167 00f0 00000000 		.4byte	.LFB69
 1168 00f4 02000000 		.4byte	.LCFI10
 1169 00f8 0200     		.2byte	0x2
 1170 00fa 7D       		.byte	0x7d
 1171 00fb 00       		.sleb128 0
 1172 00fc 02000000 		.4byte	.LCFI10
 1173 0100 1E000000 		.4byte	.LFE69
 1174 0104 0200     		.2byte	0x2
 1175 0106 7D       		.byte	0x7d
 1176 0107 08       		.sleb128 8
 1177 0108 00000000 		.4byte	0x0
 1178 010c 00000000 		.4byte	0x0
ARM GAS  C:\Users\z80\AppData\Local\Temp\cchCGb6d.s 			page 22


 1179              	.LLST7:
 1180 0110 00000000 		.4byte	.LFB70
 1181 0114 02000000 		.4byte	.LCFI11
 1182 0118 0200     		.2byte	0x2
 1183 011a 7D       		.byte	0x7d
 1184 011b 00       		.sleb128 0
 1185 011c 02000000 		.4byte	.LCFI11
 1186 0120 7E000000 		.4byte	.LFE70
 1187 0124 0200     		.2byte	0x2
 1188 0126 7D       		.byte	0x7d
 1189 0127 08       		.sleb128 8
 1190 0128 00000000 		.4byte	0x0
 1191 012c 00000000 		.4byte	0x0
 1192              	.LLST8:
 1193 0130 00000000 		.4byte	.LFB71
 1194 0134 02000000 		.4byte	.LCFI12
 1195 0138 0200     		.2byte	0x2
 1196 013a 7D       		.byte	0x7d
 1197 013b 00       		.sleb128 0
 1198 013c 02000000 		.4byte	.LCFI12
 1199 0140 7E000000 		.4byte	.LFE71
 1200 0144 0200     		.2byte	0x2
 1201 0146 7D       		.byte	0x7d
 1202 0147 10       		.sleb128 16
 1203 0148 00000000 		.4byte	0x0
 1204 014c 00000000 		.4byte	0x0
 1205              	.LLST9:
 1206 0150 00000000 		.4byte	.LFB72
 1207 0154 02000000 		.4byte	.LCFI13
 1208 0158 0200     		.2byte	0x2
 1209 015a 7D       		.byte	0x7d
 1210 015b 00       		.sleb128 0
 1211 015c 02000000 		.4byte	.LCFI13
 1212 0160 7E000000 		.4byte	.LFE72
 1213 0164 0200     		.2byte	0x2
 1214 0166 7D       		.byte	0x7d
 1215 0167 10       		.sleb128 16
 1216 0168 00000000 		.4byte	0x0
 1217 016c 00000000 		.4byte	0x0
 1218              	.LLST10:
 1219 0170 00000000 		.4byte	.LFB73
 1220 0174 02000000 		.4byte	.LCFI14
 1221 0178 0200     		.2byte	0x2
 1222 017a 7D       		.byte	0x7d
 1223 017b 00       		.sleb128 0
 1224 017c 02000000 		.4byte	.LCFI14
 1225 0180 7E000000 		.4byte	.LFE73
 1226 0184 0200     		.2byte	0x2
 1227 0186 7D       		.byte	0x7d
 1228 0187 10       		.sleb128 16
 1229 0188 00000000 		.4byte	0x0
 1230 018c 00000000 		.4byte	0x0
 1231              	.LLST11:
 1232 0190 00000000 		.4byte	.LFB74
 1233 0194 02000000 		.4byte	.LCFI15
 1234 0198 0200     		.2byte	0x2
 1235 019a 7D       		.byte	0x7d
ARM GAS  C:\Users\z80\AppData\Local\Temp\cchCGb6d.s 			page 23


 1236 019b 00       		.sleb128 0
 1237 019c 02000000 		.4byte	.LCFI15
 1238 01a0 34000000 		.4byte	.LFE74
 1239 01a4 0200     		.2byte	0x2
 1240 01a6 7D       		.byte	0x7d
 1241 01a7 08       		.sleb128 8
 1242 01a8 00000000 		.4byte	0x0
 1243 01ac 00000000 		.4byte	0x0
 1244              		.file 2 "c:\\programs\\yagarto\\bin\\../lib/gcc/arm-none-eabi/4.5.0/include/stddef.h"
 1245              		.file 3 "c:/programs/yagarto/lib/gcc/../../arm-none-eabi/sys-include/stdint.h"
 1246              		.file 4 "../chibios_2.6.3/os/ports/GCC/ARMCMx/chtypes.h"
 1247              		.file 5 "../chibios_2.6.3/os/kernel/include/chlists.h"
 1248              		.file 6 "../chibios_2.6.3/os/kernel/include/chthreads.h"
 1249              		.file 7 "../chibios_2.6.3/os/ports/GCC/ARMCMx/chcore_v7m.h"
 1250              		.file 8 "../chibios_2.6.3/os/kernel/include/chmtx.h"
 1251              		.file 9 "../chibios_2.6.3/os/hal/platforms/STM32F1xx/stm32f10x.h"
 1252              		.file 10 "../chibios_2.6.3/os/hal/platforms/STM32F1xx/stm32_dma.h"
 1253              		.file 11 "../chibios_2.6.3/os/hal/platforms/STM32/GPIOv1/pal_lld.h"
 1254              		.file 12 "../chibios_2.6.3/os/hal/include/spi.h"
 1255              		.file 13 "../chibios_2.6.3/os/hal/platforms/STM32/SPIv1/spi_lld.h"
 1256              		.file 14 "../chibios_2.6.3/os/ports/common/ARMCMx/CMSIS/include/core_cm3.h"
 1257              		.section	.debug_info
 1258 0000 5C0C0000 		.4byte	0xc5c
 1259 0004 0200     		.2byte	0x2
 1260 0006 00000000 		.4byte	.Ldebug_abbrev0
 1261 000a 04       		.byte	0x4
 1262 000b 01       		.uleb128 0x1
 1263 000c 44050000 		.4byte	.LASF138
 1264 0010 01       		.byte	0x1
 1265 0011 F2000000 		.4byte	.LASF139
 1266 0015 8B020000 		.4byte	.LASF140
 1267 0019 00000000 		.4byte	0x0
 1268 001d 00000000 		.4byte	0x0
 1269 0021 00000000 		.4byte	.Ldebug_ranges0+0x0
 1270 0025 00000000 		.4byte	.Ldebug_line0
 1271 0029 02       		.uleb128 0x2
 1272 002a 04       		.byte	0x4
 1273 002b 05       		.byte	0x5
 1274 002c 696E7400 		.ascii	"int\000"
 1275 0030 03       		.uleb128 0x3
 1276 0031 00000000 		.4byte	.LASF2
 1277 0035 02       		.byte	0x2
 1278 0036 D3       		.byte	0xd3
 1279 0037 3B000000 		.4byte	0x3b
 1280 003b 04       		.uleb128 0x4
 1281 003c 04       		.byte	0x4
 1282 003d 07       		.byte	0x7
 1283 003e D5010000 		.4byte	.LASF0
 1284 0042 04       		.uleb128 0x4
 1285 0043 01       		.byte	0x1
 1286 0044 06       		.byte	0x6
 1287 0045 B1000000 		.4byte	.LASF1
 1288 0049 03       		.uleb128 0x3
 1289 004a 31050000 		.4byte	.LASF3
 1290 004e 03       		.byte	0x3
 1291 004f 2A       		.byte	0x2a
 1292 0050 54000000 		.4byte	0x54
ARM GAS  C:\Users\z80\AppData\Local\Temp\cchCGb6d.s 			page 24


 1293 0054 04       		.uleb128 0x4
 1294 0055 01       		.byte	0x1
 1295 0056 08       		.byte	0x8
 1296 0057 BA030000 		.4byte	.LASF4
 1297 005b 04       		.uleb128 0x4
 1298 005c 02       		.byte	0x2
 1299 005d 05       		.byte	0x5
 1300 005e 01040000 		.4byte	.LASF5
 1301 0062 03       		.uleb128 0x3
 1302 0063 78010000 		.4byte	.LASF6
 1303 0067 03       		.byte	0x3
 1304 0068 36       		.byte	0x36
 1305 0069 6D000000 		.4byte	0x6d
 1306 006d 04       		.uleb128 0x4
 1307 006e 02       		.byte	0x2
 1308 006f 07       		.byte	0x7
 1309 0070 4A020000 		.4byte	.LASF7
 1310 0074 03       		.uleb128 0x3
 1311 0075 B2030000 		.4byte	.LASF8
 1312 0079 03       		.byte	0x3
 1313 007a 4F       		.byte	0x4f
 1314 007b 7F000000 		.4byte	0x7f
 1315 007f 04       		.uleb128 0x4
 1316 0080 04       		.byte	0x4
 1317 0081 05       		.byte	0x5
 1318 0082 2A010000 		.4byte	.LASF9
 1319 0086 03       		.uleb128 0x3
 1320 0087 4E040000 		.4byte	.LASF10
 1321 008b 03       		.byte	0x3
 1322 008c 50       		.byte	0x50
 1323 008d 91000000 		.4byte	0x91
 1324 0091 04       		.uleb128 0x4
 1325 0092 04       		.byte	0x4
 1326 0093 07       		.byte	0x7
 1327 0094 5F040000 		.4byte	.LASF11
 1328 0098 04       		.uleb128 0x4
 1329 0099 08       		.byte	0x8
 1330 009a 05       		.byte	0x5
 1331 009b A3000000 		.4byte	.LASF12
 1332 009f 04       		.uleb128 0x4
 1333 00a0 08       		.byte	0x8
 1334 00a1 07       		.byte	0x7
 1335 00a2 32000000 		.4byte	.LASF13
 1336 00a6 03       		.uleb128 0x3
 1337 00a7 D3000000 		.4byte	.LASF14
 1338 00ab 04       		.byte	0x4
 1339 00ac 2B       		.byte	0x2b
 1340 00ad B1000000 		.4byte	0xb1
 1341 00b1 04       		.uleb128 0x4
 1342 00b2 01       		.byte	0x1
 1343 00b3 02       		.byte	0x2
 1344 00b4 AC030000 		.4byte	.LASF15
 1345 00b8 03       		.uleb128 0x3
 1346 00b9 6B020000 		.4byte	.LASF16
 1347 00bd 04       		.byte	0x4
 1348 00be 2C       		.byte	0x2c
 1349 00bf 49000000 		.4byte	0x49
ARM GAS  C:\Users\z80\AppData\Local\Temp\cchCGb6d.s 			page 25


 1350 00c3 03       		.uleb128 0x3
 1351 00c4 57010000 		.4byte	.LASF17
 1352 00c8 04       		.byte	0x4
 1353 00c9 2D       		.byte	0x2d
 1354 00ca 49000000 		.4byte	0x49
 1355 00ce 03       		.uleb128 0x3
 1356 00cf 57040000 		.4byte	.LASF18
 1357 00d3 04       		.byte	0x4
 1358 00d4 2E       		.byte	0x2e
 1359 00d5 49000000 		.4byte	0x49
 1360 00d9 03       		.uleb128 0x3
 1361 00da E2000000 		.4byte	.LASF19
 1362 00de 04       		.byte	0x4
 1363 00df 2F       		.byte	0x2f
 1364 00e0 49000000 		.4byte	0x49
 1365 00e4 03       		.uleb128 0x3
 1366 00e5 9E030000 		.4byte	.LASF20
 1367 00e9 04       		.byte	0x4
 1368 00ea 30       		.byte	0x30
 1369 00eb 86000000 		.4byte	0x86
 1370 00ef 03       		.uleb128 0x3
 1371 00f0 5D020000 		.4byte	.LASF21
 1372 00f4 04       		.byte	0x4
 1373 00f5 31       		.byte	0x31
 1374 00f6 74000000 		.4byte	0x74
 1375 00fa 03       		.uleb128 0x3
 1376 00fb 7F020000 		.4byte	.LASF22
 1377 00ff 04       		.byte	0x4
 1378 0100 33       		.byte	0x33
 1379 0101 86000000 		.4byte	0x86
 1380 0105 03       		.uleb128 0x3
 1381 0106 A8040000 		.4byte	.LASF23
 1382 010a 04       		.byte	0x4
 1383 010b 35       		.byte	0x35
 1384 010c 86000000 		.4byte	0x86
 1385 0110 03       		.uleb128 0x3
 1386 0111 C5020000 		.4byte	.LASF24
 1387 0115 05       		.byte	0x5
 1388 0116 2A       		.byte	0x2a
 1389 0117 1B010000 		.4byte	0x11b
 1390 011b 05       		.uleb128 0x5
 1391 011c C5020000 		.4byte	.LASF24
 1392 0120 48       		.byte	0x48
 1393 0121 06       		.byte	0x6
 1394 0122 5E       		.byte	0x5e
 1395 0123 40020000 		.4byte	0x240
 1396 0127 06       		.uleb128 0x6
 1397 0128 F0020000 		.4byte	.LASF25
 1398 012c 06       		.byte	0x6
 1399 012d 5F       		.byte	0x5f
 1400 012e 65020000 		.4byte	0x265
 1401 0132 02       		.byte	0x2
 1402 0133 23       		.byte	0x23
 1403 0134 00       		.uleb128 0x0
 1404 0135 06       		.uleb128 0x6
 1405 0136 79030000 		.4byte	.LASF26
 1406 013a 06       		.byte	0x6
ARM GAS  C:\Users\z80\AppData\Local\Temp\cchCGb6d.s 			page 26


 1407 013b 61       		.byte	0x61
 1408 013c 65020000 		.4byte	0x265
 1409 0140 02       		.byte	0x2
 1410 0141 23       		.byte	0x23
 1411 0142 04       		.uleb128 0x4
 1412 0143 06       		.uleb128 0x6
 1413 0144 9C000000 		.4byte	.LASF27
 1414 0148 06       		.byte	0x6
 1415 0149 63       		.byte	0x63
 1416 014a E4000000 		.4byte	0xe4
 1417 014e 02       		.byte	0x2
 1418 014f 23       		.byte	0x23
 1419 0150 08       		.uleb128 0x8
 1420 0151 06       		.uleb128 0x6
 1421 0152 A9050000 		.4byte	.LASF28
 1422 0156 06       		.byte	0x6
 1423 0157 64       		.byte	0x64
 1424 0158 33030000 		.4byte	0x333
 1425 015c 02       		.byte	0x2
 1426 015d 23       		.byte	0x23
 1427 015e 0C       		.uleb128 0xc
 1428 015f 06       		.uleb128 0x6
 1429 0160 88010000 		.4byte	.LASF29
 1430 0164 06       		.byte	0x6
 1431 0165 66       		.byte	0x66
 1432 0166 65020000 		.4byte	0x265
 1433 016a 02       		.byte	0x2
 1434 016b 23       		.byte	0x23
 1435 016c 10       		.uleb128 0x10
 1436 016d 06       		.uleb128 0x6
 1437 016e 04030000 		.4byte	.LASF30
 1438 0172 06       		.byte	0x6
 1439 0173 67       		.byte	0x67
 1440 0174 65020000 		.4byte	0x265
 1441 0178 02       		.byte	0x2
 1442 0179 23       		.byte	0x23
 1443 017a 14       		.uleb128 0x14
 1444 017b 06       		.uleb128 0x6
 1445 017c 72050000 		.4byte	.LASF31
 1446 0180 06       		.byte	0x6
 1447 0181 6E       		.byte	0x6e
 1448 0182 E0030000 		.4byte	0x3e0
 1449 0186 02       		.byte	0x2
 1450 0187 23       		.byte	0x23
 1451 0188 18       		.uleb128 0x18
 1452 0189 06       		.uleb128 0x6
 1453 018a EF030000 		.4byte	.LASF32
 1454 018e 06       		.byte	0x6
 1455 018f 79       		.byte	0x79
 1456 0190 C3000000 		.4byte	0xc3
 1457 0194 02       		.byte	0x2
 1458 0195 23       		.byte	0x23
 1459 0196 1C       		.uleb128 0x1c
 1460 0197 06       		.uleb128 0x6
 1461 0198 1C040000 		.4byte	.LASF33
 1462 019c 06       		.byte	0x6
 1463 019d 7D       		.byte	0x7d
ARM GAS  C:\Users\z80\AppData\Local\Temp\cchCGb6d.s 			page 27


 1464 019e B8000000 		.4byte	0xb8
 1465 01a2 02       		.byte	0x2
 1466 01a3 23       		.byte	0x23
 1467 01a4 1D       		.uleb128 0x1d
 1468 01a5 06       		.uleb128 0x6
 1469 01a6 71010000 		.4byte	.LASF34
 1470 01aa 06       		.byte	0x6
 1471 01ab 82       		.byte	0x82
 1472 01ac CE000000 		.4byte	0xce
 1473 01b0 02       		.byte	0x2
 1474 01b1 23       		.byte	0x23
 1475 01b2 1E       		.uleb128 0x1e
 1476 01b3 06       		.uleb128 0x6
 1477 01b4 0B040000 		.4byte	.LASF35
 1478 01b8 06       		.byte	0x6
 1479 01b9 88       		.byte	0x88
 1480 01ba D9000000 		.4byte	0xd9
 1481 01be 02       		.byte	0x2
 1482 01bf 23       		.byte	0x23
 1483 01c0 1F       		.uleb128 0x1f
 1484 01c1 06       		.uleb128 0x6
 1485 01c2 81010000 		.4byte	.LASF36
 1486 01c6 06       		.byte	0x6
 1487 01c7 8F       		.byte	0x8f
 1488 01c8 5E030000 		.4byte	0x35e
 1489 01cc 02       		.byte	0x2
 1490 01cd 23       		.byte	0x23
 1491 01ce 20       		.uleb128 0x20
 1492 01cf 07       		.uleb128 0x7
 1493 01d0 705F7500 		.ascii	"p_u\000"
 1494 01d4 06       		.byte	0x6
 1495 01d5 B4       		.byte	0xb4
 1496 01d6 AB030000 		.4byte	0x3ab
 1497 01da 02       		.byte	0x2
 1498 01db 23       		.byte	0x23
 1499 01dc 24       		.uleb128 0x24
 1500 01dd 06       		.uleb128 0x6
 1501 01de AF050000 		.4byte	.LASF37
 1502 01e2 06       		.byte	0x6
 1503 01e3 B9       		.byte	0xb9
 1504 01e4 8D020000 		.4byte	0x28d
 1505 01e8 02       		.byte	0x2
 1506 01e9 23       		.byte	0x23
 1507 01ea 28       		.uleb128 0x28
 1508 01eb 06       		.uleb128 0x6
 1509 01ec 12020000 		.4byte	.LASF38
 1510 01f0 06       		.byte	0x6
 1511 01f1 BF       		.byte	0xbf
 1512 01f2 6B020000 		.4byte	0x26b
 1513 01f6 02       		.byte	0x2
 1514 01f7 23       		.byte	0x23
 1515 01f8 2C       		.uleb128 0x2c
 1516 01f9 06       		.uleb128 0x6
 1517 01fa 9B050000 		.4byte	.LASF39
 1518 01fe 06       		.byte	0x6
 1519 01ff C3       		.byte	0xc3
 1520 0200 EF000000 		.4byte	0xef
ARM GAS  C:\Users\z80\AppData\Local\Temp\cchCGb6d.s 			page 28


 1521 0204 02       		.byte	0x2
 1522 0205 23       		.byte	0x23
 1523 0206 34       		.uleb128 0x34
 1524 0207 06       		.uleb128 0x6
 1525 0208 34040000 		.4byte	.LASF40
 1526 020c 06       		.byte	0x6
 1527 020d C9       		.byte	0xc9
 1528 020e FA000000 		.4byte	0xfa
 1529 0212 02       		.byte	0x2
 1530 0213 23       		.byte	0x23
 1531 0214 38       		.uleb128 0x38
 1532 0215 06       		.uleb128 0x6
 1533 0216 F7030000 		.4byte	.LASF41
 1534 021a 06       		.byte	0x6
 1535 021b D0       		.byte	0xd0
 1536 021c F2030000 		.4byte	0x3f2
 1537 0220 02       		.byte	0x2
 1538 0221 23       		.byte	0x23
 1539 0222 3C       		.uleb128 0x3c
 1540 0223 06       		.uleb128 0x6
 1541 0224 B2040000 		.4byte	.LASF42
 1542 0228 06       		.byte	0x6
 1543 0229 D4       		.byte	0xd4
 1544 022a E4000000 		.4byte	0xe4
 1545 022e 02       		.byte	0x2
 1546 022f 23       		.byte	0x23
 1547 0230 40       		.uleb128 0x40
 1548 0231 06       		.uleb128 0x6
 1549 0232 CB000000 		.4byte	.LASF43
 1550 0236 06       		.byte	0x6
 1551 0237 DA       		.byte	0xda
 1552 0238 A3020000 		.4byte	0x2a3
 1553 023c 02       		.byte	0x2
 1554 023d 23       		.byte	0x23
 1555 023e 44       		.uleb128 0x44
 1556 023f 00       		.byte	0x0
 1557 0240 08       		.uleb128 0x8
 1558 0241 08       		.byte	0x8
 1559 0242 05       		.byte	0x5
 1560 0243 61       		.byte	0x61
 1561 0244 65020000 		.4byte	0x265
 1562 0248 06       		.uleb128 0x6
 1563 0249 F0020000 		.4byte	.LASF25
 1564 024d 05       		.byte	0x5
 1565 024e 62       		.byte	0x62
 1566 024f 65020000 		.4byte	0x265
 1567 0253 02       		.byte	0x2
 1568 0254 23       		.byte	0x23
 1569 0255 00       		.uleb128 0x0
 1570 0256 06       		.uleb128 0x6
 1571 0257 79030000 		.4byte	.LASF26
 1572 025b 05       		.byte	0x5
 1573 025c 64       		.byte	0x64
 1574 025d 65020000 		.4byte	0x265
 1575 0261 02       		.byte	0x2
 1576 0262 23       		.byte	0x23
 1577 0263 04       		.uleb128 0x4
ARM GAS  C:\Users\z80\AppData\Local\Temp\cchCGb6d.s 			page 29


 1578 0264 00       		.byte	0x0
 1579 0265 09       		.uleb128 0x9
 1580 0266 04       		.byte	0x4
 1581 0267 10010000 		.4byte	0x110
 1582 026b 03       		.uleb128 0x3
 1583 026c 0C030000 		.4byte	.LASF44
 1584 0270 05       		.byte	0x5
 1585 0271 66       		.byte	0x66
 1586 0272 40020000 		.4byte	0x240
 1587 0276 08       		.uleb128 0x8
 1588 0277 04       		.byte	0x4
 1589 0278 05       		.byte	0x5
 1590 0279 6B       		.byte	0x6b
 1591 027a 8D020000 		.4byte	0x28d
 1592 027e 06       		.uleb128 0x6
 1593 027f F0020000 		.4byte	.LASF25
 1594 0283 05       		.byte	0x5
 1595 0284 6D       		.byte	0x6d
 1596 0285 65020000 		.4byte	0x265
 1597 0289 02       		.byte	0x2
 1598 028a 23       		.byte	0x23
 1599 028b 00       		.uleb128 0x0
 1600 028c 00       		.byte	0x0
 1601 028d 03       		.uleb128 0x3
 1602 028e 73020000 		.4byte	.LASF45
 1603 0292 05       		.byte	0x5
 1604 0293 70       		.byte	0x70
 1605 0294 76020000 		.4byte	0x276
 1606 0298 03       		.uleb128 0x3
 1607 0299 A7010000 		.4byte	.LASF46
 1608 029d 07       		.byte	0x7
 1609 029e E5       		.byte	0xe5
 1610 029f A3020000 		.4byte	0x2a3
 1611 02a3 0A       		.uleb128 0xa
 1612 02a4 04       		.byte	0x4
 1613 02a5 0B       		.uleb128 0xb
 1614 02a6 E6040000 		.4byte	.LASF47
 1615 02aa 24       		.byte	0x24
 1616 02ab 07       		.byte	0x7
 1617 02ac 0C01     		.2byte	0x10c
 1618 02ae 33030000 		.4byte	0x333
 1619 02b2 0C       		.uleb128 0xc
 1620 02b3 723400   		.ascii	"r4\000"
 1621 02b6 07       		.byte	0x7
 1622 02b7 1F01     		.2byte	0x11f
 1623 02b9 98020000 		.4byte	0x298
 1624 02bd 02       		.byte	0x2
 1625 02be 23       		.byte	0x23
 1626 02bf 00       		.uleb128 0x0
 1627 02c0 0C       		.uleb128 0xc
 1628 02c1 723500   		.ascii	"r5\000"
 1629 02c4 07       		.byte	0x7
 1630 02c5 2001     		.2byte	0x120
 1631 02c7 98020000 		.4byte	0x298
 1632 02cb 02       		.byte	0x2
 1633 02cc 23       		.byte	0x23
 1634 02cd 04       		.uleb128 0x4
ARM GAS  C:\Users\z80\AppData\Local\Temp\cchCGb6d.s 			page 30


 1635 02ce 0C       		.uleb128 0xc
 1636 02cf 723600   		.ascii	"r6\000"
 1637 02d2 07       		.byte	0x7
 1638 02d3 2101     		.2byte	0x121
 1639 02d5 98020000 		.4byte	0x298
 1640 02d9 02       		.byte	0x2
 1641 02da 23       		.byte	0x23
 1642 02db 08       		.uleb128 0x8
 1643 02dc 0C       		.uleb128 0xc
 1644 02dd 723700   		.ascii	"r7\000"
 1645 02e0 07       		.byte	0x7
 1646 02e1 2201     		.2byte	0x122
 1647 02e3 98020000 		.4byte	0x298
 1648 02e7 02       		.byte	0x2
 1649 02e8 23       		.byte	0x23
 1650 02e9 0C       		.uleb128 0xc
 1651 02ea 0C       		.uleb128 0xc
 1652 02eb 723800   		.ascii	"r8\000"
 1653 02ee 07       		.byte	0x7
 1654 02ef 2301     		.2byte	0x123
 1655 02f1 98020000 		.4byte	0x298
 1656 02f5 02       		.byte	0x2
 1657 02f6 23       		.byte	0x23
 1658 02f7 10       		.uleb128 0x10
 1659 02f8 0C       		.uleb128 0xc
 1660 02f9 723900   		.ascii	"r9\000"
 1661 02fc 07       		.byte	0x7
 1662 02fd 2401     		.2byte	0x124
 1663 02ff 98020000 		.4byte	0x298
 1664 0303 02       		.byte	0x2
 1665 0304 23       		.byte	0x23
 1666 0305 14       		.uleb128 0x14
 1667 0306 0C       		.uleb128 0xc
 1668 0307 72313000 		.ascii	"r10\000"
 1669 030b 07       		.byte	0x7
 1670 030c 2501     		.2byte	0x125
 1671 030e 98020000 		.4byte	0x298
 1672 0312 02       		.byte	0x2
 1673 0313 23       		.byte	0x23
 1674 0314 18       		.uleb128 0x18
 1675 0315 0C       		.uleb128 0xc
 1676 0316 72313100 		.ascii	"r11\000"
 1677 031a 07       		.byte	0x7
 1678 031b 2601     		.2byte	0x126
 1679 031d 98020000 		.4byte	0x298
 1680 0321 02       		.byte	0x2
 1681 0322 23       		.byte	0x23
 1682 0323 1C       		.uleb128 0x1c
 1683 0324 0C       		.uleb128 0xc
 1684 0325 6C7200   		.ascii	"lr\000"
 1685 0328 07       		.byte	0x7
 1686 0329 2701     		.2byte	0x127
 1687 032b 98020000 		.4byte	0x298
 1688 032f 02       		.byte	0x2
 1689 0330 23       		.byte	0x23
 1690 0331 20       		.uleb128 0x20
 1691 0332 00       		.byte	0x0
ARM GAS  C:\Users\z80\AppData\Local\Temp\cchCGb6d.s 			page 31


 1692 0333 0B       		.uleb128 0xb
 1693 0334 42020000 		.4byte	.LASF48
 1694 0338 04       		.byte	0x4
 1695 0339 07       		.byte	0x7
 1696 033a 3101     		.2byte	0x131
 1697 033c 50030000 		.4byte	0x350
 1698 0340 0C       		.uleb128 0xc
 1699 0341 72313300 		.ascii	"r13\000"
 1700 0345 07       		.byte	0x7
 1701 0346 3201     		.2byte	0x132
 1702 0348 50030000 		.4byte	0x350
 1703 034c 02       		.byte	0x2
 1704 034d 23       		.byte	0x23
 1705 034e 00       		.uleb128 0x0
 1706 034f 00       		.byte	0x0
 1707 0350 09       		.uleb128 0x9
 1708 0351 04       		.byte	0x4
 1709 0352 A5020000 		.4byte	0x2a5
 1710 0356 0D       		.uleb128 0xd
 1711 0357 86000000 		.4byte	0x86
 1712 035b 0E       		.uleb128 0xe
 1713 035c 04       		.byte	0x4
 1714 035d 07       		.byte	0x7
 1715 035e 0D       		.uleb128 0xd
 1716 035f 05010000 		.4byte	0x105
 1717 0363 05       		.uleb128 0x5
 1718 0364 E2020000 		.4byte	.LASF49
 1719 0368 10       		.byte	0x10
 1720 0369 08       		.byte	0x8
 1721 036a 2C       		.byte	0x2c
 1722 036b 9A030000 		.4byte	0x39a
 1723 036f 06       		.uleb128 0x6
 1724 0370 DA000000 		.4byte	.LASF50
 1725 0374 08       		.byte	0x8
 1726 0375 2D       		.byte	0x2d
 1727 0376 6B020000 		.4byte	0x26b
 1728 037a 02       		.byte	0x2
 1729 037b 23       		.byte	0x23
 1730 037c 00       		.uleb128 0x0
 1731 037d 06       		.uleb128 0x6
 1732 037e A1050000 		.4byte	.LASF51
 1733 0382 08       		.byte	0x8
 1734 0383 2F       		.byte	0x2f
 1735 0384 65020000 		.4byte	0x265
 1736 0388 02       		.byte	0x2
 1737 0389 23       		.byte	0x23
 1738 038a 08       		.uleb128 0x8
 1739 038b 06       		.uleb128 0x6
 1740 038c A1040000 		.4byte	.LASF52
 1741 0390 08       		.byte	0x8
 1742 0391 31       		.byte	0x31
 1743 0392 9A030000 		.4byte	0x39a
 1744 0396 02       		.byte	0x2
 1745 0397 23       		.byte	0x23
 1746 0398 0C       		.uleb128 0xc
 1747 0399 00       		.byte	0x0
 1748 039a 09       		.uleb128 0x9
ARM GAS  C:\Users\z80\AppData\Local\Temp\cchCGb6d.s 			page 32


 1749 039b 04       		.byte	0x4
 1750 039c 63030000 		.4byte	0x363
 1751 03a0 03       		.uleb128 0x3
 1752 03a1 E2020000 		.4byte	.LASF49
 1753 03a5 08       		.byte	0x8
 1754 03a6 33       		.byte	0x33
 1755 03a7 63030000 		.4byte	0x363
 1756 03ab 0F       		.uleb128 0xf
 1757 03ac 04       		.byte	0x4
 1758 03ad 06       		.byte	0x6
 1759 03ae 96       		.byte	0x96
 1760 03af E0030000 		.4byte	0x3e0
 1761 03b3 10       		.uleb128 0x10
 1762 03b4 07000000 		.4byte	.LASF53
 1763 03b8 06       		.byte	0x6
 1764 03b9 9D       		.byte	0x9d
 1765 03ba EF000000 		.4byte	0xef
 1766 03be 10       		.uleb128 0x10
 1767 03bf 55000000 		.4byte	.LASF54
 1768 03c3 06       		.byte	0x6
 1769 03c4 A4       		.byte	0xa4
 1770 03c5 EF000000 		.4byte	0xef
 1771 03c9 10       		.uleb128 0x10
 1772 03ca 50050000 		.4byte	.LASF55
 1773 03ce 06       		.byte	0x6
 1774 03cf AB       		.byte	0xab
 1775 03d0 A3020000 		.4byte	0x2a3
 1776 03d4 10       		.uleb128 0x10
 1777 03d5 15040000 		.4byte	.LASF56
 1778 03d9 06       		.byte	0x6
 1779 03da B2       		.byte	0xb2
 1780 03db FA000000 		.4byte	0xfa
 1781 03df 00       		.byte	0x0
 1782 03e0 09       		.uleb128 0x9
 1783 03e1 04       		.byte	0x4
 1784 03e2 E6030000 		.4byte	0x3e6
 1785 03e6 11       		.uleb128 0x11
 1786 03e7 EB030000 		.4byte	0x3eb
 1787 03eb 04       		.uleb128 0x4
 1788 03ec 01       		.byte	0x1
 1789 03ed 08       		.byte	0x8
 1790 03ee 7D040000 		.4byte	.LASF57
 1791 03f2 09       		.uleb128 0x9
 1792 03f3 04       		.byte	0x4
 1793 03f4 A0030000 		.4byte	0x3a0
 1794 03f8 0D       		.uleb128 0xd
 1795 03f9 62000000 		.4byte	0x62
 1796 03fd 0D       		.uleb128 0xd
 1797 03fe 74000000 		.4byte	0x74
 1798 0402 12       		.uleb128 0x12
 1799 0403 10       		.byte	0x10
 1800 0404 09       		.byte	0x9
 1801 0405 2D03     		.2byte	0x32d
 1802 0407 48040000 		.4byte	0x448
 1803 040b 0C       		.uleb128 0xc
 1804 040c 43435200 		.ascii	"CCR\000"
 1805 0410 09       		.byte	0x9
ARM GAS  C:\Users\z80\AppData\Local\Temp\cchCGb6d.s 			page 33


 1806 0411 2F03     		.2byte	0x32f
 1807 0413 56030000 		.4byte	0x356
 1808 0417 02       		.byte	0x2
 1809 0418 23       		.byte	0x23
 1810 0419 00       		.uleb128 0x0
 1811 041a 13       		.uleb128 0x13
 1812 041b 11050000 		.4byte	.LASF58
 1813 041f 09       		.byte	0x9
 1814 0420 3003     		.2byte	0x330
 1815 0422 56030000 		.4byte	0x356
 1816 0426 02       		.byte	0x2
 1817 0427 23       		.byte	0x23
 1818 0428 04       		.uleb128 0x4
 1819 0429 13       		.uleb128 0x13
 1820 042a FE010000 		.4byte	.LASF59
 1821 042e 09       		.byte	0x9
 1822 042f 3103     		.2byte	0x331
 1823 0431 56030000 		.4byte	0x356
 1824 0435 02       		.byte	0x2
 1825 0436 23       		.byte	0x23
 1826 0437 08       		.uleb128 0x8
 1827 0438 13       		.uleb128 0x13
 1828 0439 B3020000 		.4byte	.LASF60
 1829 043d 09       		.byte	0x9
 1830 043e 3203     		.2byte	0x332
 1831 0440 56030000 		.4byte	0x356
 1832 0444 02       		.byte	0x2
 1833 0445 23       		.byte	0x23
 1834 0446 0C       		.uleb128 0xc
 1835 0447 00       		.byte	0x0
 1836 0448 14       		.uleb128 0x14
 1837 0449 2C030000 		.4byte	.LASF61
 1838 044d 09       		.byte	0x9
 1839 044e 3303     		.2byte	0x333
 1840 0450 02040000 		.4byte	0x402
 1841 0454 12       		.uleb128 0x12
 1842 0455 1C       		.byte	0x1c
 1843 0456 09       		.byte	0x9
 1844 0457 F803     		.2byte	0x3f8
 1845 0459 C7040000 		.4byte	0x4c7
 1846 045d 0C       		.uleb128 0xc
 1847 045e 43524C00 		.ascii	"CRL\000"
 1848 0462 09       		.byte	0x9
 1849 0463 FA03     		.2byte	0x3fa
 1850 0465 56030000 		.4byte	0x356
 1851 0469 02       		.byte	0x2
 1852 046a 23       		.byte	0x23
 1853 046b 00       		.uleb128 0x0
 1854 046c 0C       		.uleb128 0xc
 1855 046d 43524800 		.ascii	"CRH\000"
 1856 0471 09       		.byte	0x9
 1857 0472 FB03     		.2byte	0x3fb
 1858 0474 56030000 		.4byte	0x356
 1859 0478 02       		.byte	0x2
 1860 0479 23       		.byte	0x23
 1861 047a 04       		.uleb128 0x4
 1862 047b 0C       		.uleb128 0xc
ARM GAS  C:\Users\z80\AppData\Local\Temp\cchCGb6d.s 			page 34


 1863 047c 49445200 		.ascii	"IDR\000"
 1864 0480 09       		.byte	0x9
 1865 0481 FC03     		.2byte	0x3fc
 1866 0483 56030000 		.4byte	0x356
 1867 0487 02       		.byte	0x2
 1868 0488 23       		.byte	0x23
 1869 0489 08       		.uleb128 0x8
 1870 048a 0C       		.uleb128 0xc
 1871 048b 4F445200 		.ascii	"ODR\000"
 1872 048f 09       		.byte	0x9
 1873 0490 FD03     		.2byte	0x3fd
 1874 0492 56030000 		.4byte	0x356
 1875 0496 02       		.byte	0x2
 1876 0497 23       		.byte	0x23
 1877 0498 0C       		.uleb128 0xc
 1878 0499 13       		.uleb128 0x13
 1879 049a BD000000 		.4byte	.LASF62
 1880 049e 09       		.byte	0x9
 1881 049f FE03     		.2byte	0x3fe
 1882 04a1 56030000 		.4byte	0x356
 1883 04a5 02       		.byte	0x2
 1884 04a6 23       		.byte	0x23
 1885 04a7 10       		.uleb128 0x10
 1886 04a8 0C       		.uleb128 0xc
 1887 04a9 42525200 		.ascii	"BRR\000"
 1888 04ad 09       		.byte	0x9
 1889 04ae FF03     		.2byte	0x3ff
 1890 04b0 56030000 		.4byte	0x356
 1891 04b4 02       		.byte	0x2
 1892 04b5 23       		.byte	0x23
 1893 04b6 14       		.uleb128 0x14
 1894 04b7 13       		.uleb128 0x13
 1895 04b8 36020000 		.4byte	.LASF63
 1896 04bc 09       		.byte	0x9
 1897 04bd 0004     		.2byte	0x400
 1898 04bf 56030000 		.4byte	0x356
 1899 04c3 02       		.byte	0x2
 1900 04c4 23       		.byte	0x23
 1901 04c5 18       		.uleb128 0x18
 1902 04c6 00       		.byte	0x0
 1903 04c7 14       		.uleb128 0x14
 1904 04c8 1D020000 		.4byte	.LASF64
 1905 04cc 09       		.byte	0x9
 1906 04cd 0104     		.2byte	0x401
 1907 04cf 54040000 		.4byte	0x454
 1908 04d3 12       		.uleb128 0x12
 1909 04d4 28       		.byte	0x28
 1910 04d5 09       		.byte	0x9
 1911 04d6 4304     		.2byte	0x443
 1912 04d8 72050000 		.4byte	0x572
 1913 04dc 0C       		.uleb128 0xc
 1914 04dd 435200   		.ascii	"CR\000"
 1915 04e0 09       		.byte	0x9
 1916 04e1 4504     		.2byte	0x445
 1917 04e3 56030000 		.4byte	0x356
 1918 04e7 02       		.byte	0x2
 1919 04e8 23       		.byte	0x23
ARM GAS  C:\Users\z80\AppData\Local\Temp\cchCGb6d.s 			page 35


 1920 04e9 00       		.uleb128 0x0
 1921 04ea 13       		.uleb128 0x13
 1922 04eb F9010000 		.4byte	.LASF65
 1923 04ef 09       		.byte	0x9
 1924 04f0 4604     		.2byte	0x446
 1925 04f2 56030000 		.4byte	0x356
 1926 04f6 02       		.byte	0x2
 1927 04f7 23       		.byte	0x23
 1928 04f8 04       		.uleb128 0x4
 1929 04f9 0C       		.uleb128 0xc
 1930 04fa 43495200 		.ascii	"CIR\000"
 1931 04fe 09       		.byte	0x9
 1932 04ff 4704     		.2byte	0x447
 1933 0501 56030000 		.4byte	0x356
 1934 0505 02       		.byte	0x2
 1935 0506 23       		.byte	0x23
 1936 0507 08       		.uleb128 0x8
 1937 0508 13       		.uleb128 0x13
 1938 0509 4E010000 		.4byte	.LASF66
 1939 050d 09       		.byte	0x9
 1940 050e 4804     		.2byte	0x448
 1941 0510 56030000 		.4byte	0x356
 1942 0514 02       		.byte	0x2
 1943 0515 23       		.byte	0x23
 1944 0516 0C       		.uleb128 0xc
 1945 0517 13       		.uleb128 0x13
 1946 0518 23030000 		.4byte	.LASF67
 1947 051c 09       		.byte	0x9
 1948 051d 4904     		.2byte	0x449
 1949 051f 56030000 		.4byte	0x356
 1950 0523 02       		.byte	0x2
 1951 0524 23       		.byte	0x23
 1952 0525 10       		.uleb128 0x10
 1953 0526 13       		.uleb128 0x13
 1954 0527 B9050000 		.4byte	.LASF68
 1955 052b 09       		.byte	0x9
 1956 052c 4A04     		.2byte	0x44a
 1957 052e 56030000 		.4byte	0x356
 1958 0532 02       		.byte	0x2
 1959 0533 23       		.byte	0x23
 1960 0534 14       		.uleb128 0x14
 1961 0535 13       		.uleb128 0x13
 1962 0536 24040000 		.4byte	.LASF69
 1963 053a 09       		.byte	0x9
 1964 053b 4B04     		.2byte	0x44b
 1965 053d 56030000 		.4byte	0x356
 1966 0541 02       		.byte	0x2
 1967 0542 23       		.byte	0x23
 1968 0543 18       		.uleb128 0x18
 1969 0544 13       		.uleb128 0x13
 1970 0545 C4040000 		.4byte	.LASF70
 1971 0549 09       		.byte	0x9
 1972 054a 4C04     		.2byte	0x44c
 1973 054c 56030000 		.4byte	0x356
 1974 0550 02       		.byte	0x2
 1975 0551 23       		.byte	0x23
 1976 0552 1C       		.uleb128 0x1c
ARM GAS  C:\Users\z80\AppData\Local\Temp\cchCGb6d.s 			page 36


 1977 0553 13       		.uleb128 0x13
 1978 0554 17050000 		.4byte	.LASF71
 1979 0558 09       		.byte	0x9
 1980 0559 4D04     		.2byte	0x44d
 1981 055b 56030000 		.4byte	0x356
 1982 055f 02       		.byte	0x2
 1983 0560 23       		.byte	0x23
 1984 0561 20       		.uleb128 0x20
 1985 0562 0C       		.uleb128 0xc
 1986 0563 43535200 		.ascii	"CSR\000"
 1987 0567 09       		.byte	0x9
 1988 0568 4E04     		.2byte	0x44e
 1989 056a 56030000 		.4byte	0x356
 1990 056e 02       		.byte	0x2
 1991 056f 23       		.byte	0x23
 1992 0570 24       		.uleb128 0x24
 1993 0571 00       		.byte	0x0
 1994 0572 14       		.uleb128 0x14
 1995 0573 2A020000 		.4byte	.LASF72
 1996 0577 09       		.byte	0x9
 1997 0578 5904     		.2byte	0x459
 1998 057a D3040000 		.4byte	0x4d3
 1999 057e 12       		.uleb128 0x12
 2000 057f 24       		.byte	0x24
 2001 0580 09       		.byte	0x9
 2002 0581 9704     		.2byte	0x497
 2003 0583 94060000 		.4byte	0x694
 2004 0587 0C       		.uleb128 0xc
 2005 0588 43523100 		.ascii	"CR1\000"
 2006 058c 09       		.byte	0x9
 2007 058d 9904     		.2byte	0x499
 2008 058f F8030000 		.4byte	0x3f8
 2009 0593 02       		.byte	0x2
 2010 0594 23       		.byte	0x23
 2011 0595 00       		.uleb128 0x0
 2012 0596 13       		.uleb128 0x13
 2013 0597 47030000 		.4byte	.LASF73
 2014 059b 09       		.byte	0x9
 2015 059c 9A04     		.2byte	0x49a
 2016 059e 62000000 		.4byte	0x62
 2017 05a2 02       		.byte	0x2
 2018 05a3 23       		.byte	0x23
 2019 05a4 02       		.uleb128 0x2
 2020 05a5 0C       		.uleb128 0xc
 2021 05a6 43523200 		.ascii	"CR2\000"
 2022 05aa 09       		.byte	0x9
 2023 05ab 9B04     		.2byte	0x49b
 2024 05ad F8030000 		.4byte	0x3f8
 2025 05b1 02       		.byte	0x2
 2026 05b2 23       		.byte	0x23
 2027 05b3 04       		.uleb128 0x4
 2028 05b4 13       		.uleb128 0x13
 2029 05b5 51030000 		.4byte	.LASF74
 2030 05b9 09       		.byte	0x9
 2031 05ba 9C04     		.2byte	0x49c
 2032 05bc 62000000 		.4byte	0x62
 2033 05c0 02       		.byte	0x2
ARM GAS  C:\Users\z80\AppData\Local\Temp\cchCGb6d.s 			page 37


 2034 05c1 23       		.byte	0x23
 2035 05c2 06       		.uleb128 0x6
 2036 05c3 0C       		.uleb128 0xc
 2037 05c4 535200   		.ascii	"SR\000"
 2038 05c7 09       		.byte	0x9
 2039 05c8 9D04     		.2byte	0x49d
 2040 05ca F8030000 		.4byte	0x3f8
 2041 05ce 02       		.byte	0x2
 2042 05cf 23       		.byte	0x23
 2043 05d0 08       		.uleb128 0x8
 2044 05d1 13       		.uleb128 0x13
 2045 05d2 5B030000 		.4byte	.LASF75
 2046 05d6 09       		.byte	0x9
 2047 05d7 9E04     		.2byte	0x49e
 2048 05d9 62000000 		.4byte	0x62
 2049 05dd 02       		.byte	0x2
 2050 05de 23       		.byte	0x23
 2051 05df 0A       		.uleb128 0xa
 2052 05e0 0C       		.uleb128 0xc
 2053 05e1 445200   		.ascii	"DR\000"
 2054 05e4 09       		.byte	0x9
 2055 05e5 9F04     		.2byte	0x49f
 2056 05e7 F8030000 		.4byte	0x3f8
 2057 05eb 02       		.byte	0x2
 2058 05ec 23       		.byte	0x23
 2059 05ed 0C       		.uleb128 0xc
 2060 05ee 13       		.uleb128 0x13
 2061 05ef 65030000 		.4byte	.LASF76
 2062 05f3 09       		.byte	0x9
 2063 05f4 A004     		.2byte	0x4a0
 2064 05f6 62000000 		.4byte	0x62
 2065 05fa 02       		.byte	0x2
 2066 05fb 23       		.byte	0x23
 2067 05fc 0E       		.uleb128 0xe
 2068 05fd 13       		.uleb128 0x13
 2069 05fe 49000000 		.4byte	.LASF77
 2070 0602 09       		.byte	0x9
 2071 0603 A104     		.2byte	0x4a1
 2072 0605 F8030000 		.4byte	0x3f8
 2073 0609 02       		.byte	0x2
 2074 060a 23       		.byte	0x23
 2075 060b 10       		.uleb128 0x10
 2076 060c 13       		.uleb128 0x13
 2077 060d 6F030000 		.4byte	.LASF78
 2078 0611 09       		.byte	0x9
 2079 0612 A204     		.2byte	0x4a2
 2080 0614 62000000 		.4byte	0x62
 2081 0618 02       		.byte	0x2
 2082 0619 23       		.byte	0x23
 2083 061a 12       		.uleb128 0x12
 2084 061b 13       		.uleb128 0x13
 2085 061c 1C050000 		.4byte	.LASF79
 2086 0620 09       		.byte	0x9
 2087 0621 A304     		.2byte	0x4a3
 2088 0623 F8030000 		.4byte	0x3f8
 2089 0627 02       		.byte	0x2
 2090 0628 23       		.byte	0x23
ARM GAS  C:\Users\z80\AppData\Local\Temp\cchCGb6d.s 			page 38


 2091 0629 14       		.uleb128 0x14
 2092 062a 13       		.uleb128 0x13
 2093 062b 44040000 		.4byte	.LASF80
 2094 062f 09       		.byte	0x9
 2095 0630 A404     		.2byte	0x4a4
 2096 0632 62000000 		.4byte	0x62
 2097 0636 02       		.byte	0x2
 2098 0637 23       		.byte	0x23
 2099 0638 16       		.uleb128 0x16
 2100 0639 13       		.uleb128 0x13
 2101 063a 40030000 		.4byte	.LASF81
 2102 063e 09       		.byte	0x9
 2103 063f A504     		.2byte	0x4a5
 2104 0641 F8030000 		.4byte	0x3f8
 2105 0645 02       		.byte	0x2
 2106 0646 23       		.byte	0x23
 2107 0647 18       		.uleb128 0x18
 2108 0648 13       		.uleb128 0x13
 2109 0649 80030000 		.4byte	.LASF82
 2110 064d 09       		.byte	0x9
 2111 064e A604     		.2byte	0x4a6
 2112 0650 62000000 		.4byte	0x62
 2113 0654 02       		.byte	0x2
 2114 0655 23       		.byte	0x23
 2115 0656 1A       		.uleb128 0x1a
 2116 0657 13       		.uleb128 0x13
 2117 0658 E8020000 		.4byte	.LASF83
 2118 065c 09       		.byte	0x9
 2119 065d A704     		.2byte	0x4a7
 2120 065f F8030000 		.4byte	0x3f8
 2121 0663 02       		.byte	0x2
 2122 0664 23       		.byte	0x23
 2123 0665 1C       		.uleb128 0x1c
 2124 0666 13       		.uleb128 0x13
 2125 0667 8A030000 		.4byte	.LASF84
 2126 066b 09       		.byte	0x9
 2127 066c A804     		.2byte	0x4a8
 2128 066e 62000000 		.4byte	0x62
 2129 0672 02       		.byte	0x2
 2130 0673 23       		.byte	0x23
 2131 0674 1E       		.uleb128 0x1e
 2132 0675 13       		.uleb128 0x13
 2133 0676 DC020000 		.4byte	.LASF85
 2134 067a 09       		.byte	0x9
 2135 067b A904     		.2byte	0x4a9
 2136 067d F8030000 		.4byte	0x3f8
 2137 0681 02       		.byte	0x2
 2138 0682 23       		.byte	0x23
 2139 0683 20       		.uleb128 0x20
 2140 0684 13       		.uleb128 0x13
 2141 0685 94030000 		.4byte	.LASF86
 2142 0689 09       		.byte	0x9
 2143 068a AA04     		.2byte	0x4aa
 2144 068c 62000000 		.4byte	0x62
 2145 0690 02       		.byte	0x2
 2146 0691 23       		.byte	0x23
 2147 0692 22       		.uleb128 0x22
ARM GAS  C:\Users\z80\AppData\Local\Temp\cchCGb6d.s 			page 39


 2148 0693 00       		.byte	0x0
 2149 0694 14       		.uleb128 0x14
 2150 0695 71040000 		.4byte	.LASF87
 2151 0699 09       		.byte	0x9
 2152 069a AB04     		.2byte	0x4ab
 2153 069c 7E050000 		.4byte	0x57e
 2154 06a0 08       		.uleb128 0x8
 2155 06a1 0C       		.byte	0xc
 2156 06a2 0A       		.byte	0xa
 2157 06a3 C1       		.byte	0xc1
 2158 06a4 EF060000 		.4byte	0x6ef
 2159 06a8 06       		.uleb128 0x6
 2160 06a9 2C040000 		.4byte	.LASF88
 2161 06ad 0A       		.byte	0xa
 2162 06ae C2       		.byte	0xc2
 2163 06af EF060000 		.4byte	0x6ef
 2164 06b3 02       		.byte	0x2
 2165 06b4 23       		.byte	0x23
 2166 06b5 00       		.uleb128 0x0
 2167 06b6 06       		.uleb128 0x6
 2168 06b7 3F040000 		.4byte	.LASF89
 2169 06bb 0A       		.byte	0xa
 2170 06bc C3       		.byte	0xc3
 2171 06bd F5060000 		.4byte	0x6f5
 2172 06c1 02       		.byte	0x2
 2173 06c2 23       		.byte	0x23
 2174 06c3 04       		.uleb128 0x4
 2175 06c4 06       		.uleb128 0x6
 2176 06c5 3B020000 		.4byte	.LASF90
 2177 06c9 0A       		.byte	0xa
 2178 06ca C4       		.byte	0xc4
 2179 06cb 49000000 		.4byte	0x49
 2180 06cf 02       		.byte	0x2
 2181 06d0 23       		.byte	0x23
 2182 06d1 08       		.uleb128 0x8
 2183 06d2 06       		.uleb128 0x6
 2184 06d3 B0010000 		.4byte	.LASF91
 2185 06d7 0A       		.byte	0xa
 2186 06d8 C6       		.byte	0xc6
 2187 06d9 49000000 		.4byte	0x49
 2188 06dd 02       		.byte	0x2
 2189 06de 23       		.byte	0x23
 2190 06df 09       		.uleb128 0x9
 2191 06e0 06       		.uleb128 0x6
 2192 06e1 5E000000 		.4byte	.LASF92
 2193 06e5 0A       		.byte	0xa
 2194 06e6 C7       		.byte	0xc7
 2195 06e7 49000000 		.4byte	0x49
 2196 06eb 02       		.byte	0x2
 2197 06ec 23       		.byte	0x23
 2198 06ed 0A       		.uleb128 0xa
 2199 06ee 00       		.byte	0x0
 2200 06ef 09       		.uleb128 0x9
 2201 06f0 04       		.byte	0x4
 2202 06f1 48040000 		.4byte	0x448
 2203 06f5 09       		.uleb128 0x9
 2204 06f6 04       		.byte	0x4
ARM GAS  C:\Users\z80\AppData\Local\Temp\cchCGb6d.s 			page 40


 2205 06f7 56030000 		.4byte	0x356
 2206 06fb 03       		.uleb128 0x3
 2207 06fc C8030000 		.4byte	.LASF93
 2208 0700 0A       		.byte	0xa
 2209 0701 C8       		.byte	0xc8
 2210 0702 A0060000 		.4byte	0x6a0
 2211 0706 03       		.uleb128 0x3
 2212 0707 03020000 		.4byte	.LASF94
 2213 070b 0A       		.byte	0xa
 2214 070c D1       		.byte	0xd1
 2215 070d 11070000 		.4byte	0x711
 2216 0711 09       		.uleb128 0x9
 2217 0712 04       		.byte	0x4
 2218 0713 17070000 		.4byte	0x717
 2219 0717 15       		.uleb128 0x15
 2220 0718 01       		.byte	0x1
 2221 0719 28070000 		.4byte	0x728
 2222 071d 16       		.uleb128 0x16
 2223 071e A3020000 		.4byte	0x2a3
 2224 0722 16       		.uleb128 0x16
 2225 0723 86000000 		.4byte	0x86
 2226 0727 00       		.byte	0x0
 2227 0728 03       		.uleb128 0x3
 2228 0729 19000000 		.4byte	.LASF95
 2229 072d 0B       		.byte	0xb
 2230 072e 6D       		.byte	0x6d
 2231 072f 86000000 		.4byte	0x86
 2232 0733 03       		.uleb128 0x3
 2233 0734 CC040000 		.4byte	.LASF96
 2234 0738 0B       		.byte	0xb
 2235 0739 7A       		.byte	0x7a
 2236 073a 3E070000 		.4byte	0x73e
 2237 073e 09       		.uleb128 0x9
 2238 073f 04       		.byte	0x4
 2239 0740 C7040000 		.4byte	0x4c7
 2240 0744 09       		.uleb128 0x9
 2241 0745 04       		.byte	0x4
 2242 0746 4A070000 		.4byte	0x74a
 2243 074a 11       		.uleb128 0x11
 2244 074b FB060000 		.4byte	0x6fb
 2245 074f 17       		.uleb128 0x17
 2246 0750 01       		.byte	0x1
 2247 0751 0C       		.byte	0xc
 2248 0752 55       		.byte	0x55
 2249 0753 76070000 		.4byte	0x776
 2250 0757 18       		.uleb128 0x18
 2251 0758 F7040000 		.4byte	.LASF97
 2252 075c 00       		.sleb128 0
 2253 075d 18       		.uleb128 0x18
 2254 075e C2000000 		.4byte	.LASF98
 2255 0762 01       		.sleb128 1
 2256 0763 18       		.uleb128 0x18
 2257 0764 ED040000 		.4byte	.LASF99
 2258 0768 02       		.sleb128 2
 2259 0769 18       		.uleb128 0x18
 2260 076a 0E000000 		.4byte	.LASF100
 2261 076e 03       		.sleb128 3
ARM GAS  C:\Users\z80\AppData\Local\Temp\cchCGb6d.s 			page 41


 2262 076f 18       		.uleb128 0x18
 2263 0770 82040000 		.4byte	.LASF101
 2264 0774 04       		.sleb128 4
 2265 0775 00       		.byte	0x0
 2266 0776 03       		.uleb128 0x3
 2267 0777 96040000 		.4byte	.LASF102
 2268 077b 0C       		.byte	0xc
 2269 077c 5B       		.byte	0x5b
 2270 077d 4F070000 		.4byte	0x74f
 2271 0781 14       		.uleb128 0x14
 2272 0782 78000000 		.4byte	.LASF103
 2273 0786 0D       		.byte	0xd
 2274 0787 E701     		.2byte	0x1e7
 2275 0789 8D070000 		.4byte	0x78d
 2276 078d 0B       		.uleb128 0xb
 2277 078e 78000000 		.4byte	.LASF103
 2278 0792 30       		.byte	0x30
 2279 0793 0D       		.byte	0xd
 2280 0794 0B02     		.2byte	0x20b
 2281 0796 22080000 		.4byte	0x822
 2282 079a 13       		.uleb128 0x13
 2283 079b EC000000 		.4byte	.LASF104
 2284 079f 0D       		.byte	0xd
 2285 07a0 0F02     		.2byte	0x20f
 2286 07a2 76070000 		.4byte	0x776
 2287 07a6 02       		.byte	0x2
 2288 07a7 23       		.byte	0x23
 2289 07a8 00       		.uleb128 0x0
 2290 07a9 13       		.uleb128 0x13
 2291 07aa 8F040000 		.4byte	.LASF105
 2292 07ae 0D       		.byte	0xd
 2293 07af 1302     		.2byte	0x213
 2294 07b1 98080000 		.4byte	0x898
 2295 07b5 02       		.byte	0x2
 2296 07b6 23       		.byte	0x23
 2297 07b7 04       		.uleb128 0x4
 2298 07b8 13       		.uleb128 0x13
 2299 07b9 BD040000 		.4byte	.LASF106
 2300 07bd 0D       		.byte	0xd
 2301 07be 1802     		.2byte	0x218
 2302 07c0 65020000 		.4byte	0x265
 2303 07c4 02       		.byte	0x2
 2304 07c5 23       		.byte	0x23
 2305 07c6 08       		.uleb128 0x8
 2306 07c7 13       		.uleb128 0x13
 2307 07c8 A6030000 		.4byte	.LASF107
 2308 07cc 0D       		.byte	0xd
 2309 07cd 1F02     		.2byte	0x21f
 2310 07cf A0030000 		.4byte	0x3a0
 2311 07d3 02       		.byte	0x2
 2312 07d4 23       		.byte	0x23
 2313 07d5 0C       		.uleb128 0xc
 2314 07d6 0C       		.uleb128 0xc
 2315 07d7 73706900 		.ascii	"spi\000"
 2316 07db 0D       		.byte	0xd
 2317 07dc 2B02     		.2byte	0x22b
 2318 07de A3080000 		.4byte	0x8a3
ARM GAS  C:\Users\z80\AppData\Local\Temp\cchCGb6d.s 			page 42


 2319 07e2 02       		.byte	0x2
 2320 07e3 23       		.byte	0x23
 2321 07e4 1C       		.uleb128 0x1c
 2322 07e5 13       		.uleb128 0x13
 2323 07e6 26000000 		.4byte	.LASF108
 2324 07ea 0D       		.byte	0xd
 2325 07eb 2F02     		.2byte	0x22f
 2326 07ed 44070000 		.4byte	0x744
 2327 07f1 02       		.byte	0x2
 2328 07f2 23       		.byte	0x23
 2329 07f3 20       		.uleb128 0x20
 2330 07f4 13       		.uleb128 0x13
 2331 07f5 A1010000 		.4byte	.LASF109
 2332 07f9 0D       		.byte	0xd
 2333 07fa 3302     		.2byte	0x233
 2334 07fc 44070000 		.4byte	0x744
 2335 0800 02       		.byte	0x2
 2336 0801 23       		.byte	0x23
 2337 0802 24       		.uleb128 0x24
 2338 0803 13       		.uleb128 0x13
 2339 0804 97010000 		.4byte	.LASF110
 2340 0808 0D       		.byte	0xd
 2341 0809 3702     		.2byte	0x237
 2342 080b 86000000 		.4byte	0x86
 2343 080f 02       		.byte	0x2
 2344 0810 23       		.byte	0x23
 2345 0811 28       		.uleb128 0x28
 2346 0812 13       		.uleb128 0x13
 2347 0813 19030000 		.4byte	.LASF111
 2348 0817 0D       		.byte	0xd
 2349 0818 3B02     		.2byte	0x23b
 2350 081a 86000000 		.4byte	0x86
 2351 081e 02       		.byte	0x2
 2352 081f 23       		.byte	0x23
 2353 0820 2C       		.uleb128 0x2c
 2354 0821 00       		.byte	0x0
 2355 0822 14       		.uleb128 0x14
 2356 0823 BA010000 		.4byte	.LASF112
 2357 0827 0D       		.byte	0xd
 2358 0828 EF01     		.2byte	0x1ef
 2359 082a 2E080000 		.4byte	0x82e
 2360 082e 09       		.uleb128 0x9
 2361 082f 04       		.byte	0x4
 2362 0830 34080000 		.4byte	0x834
 2363 0834 15       		.uleb128 0x15
 2364 0835 01       		.byte	0x1
 2365 0836 40080000 		.4byte	0x840
 2366 083a 16       		.uleb128 0x16
 2367 083b 40080000 		.4byte	0x840
 2368 083f 00       		.byte	0x0
 2369 0840 09       		.uleb128 0x9
 2370 0841 04       		.byte	0x4
 2371 0842 81070000 		.4byte	0x781
 2372 0846 12       		.uleb128 0x12
 2373 0847 0C       		.byte	0xc
 2374 0848 0D       		.byte	0xd
 2375 0849 F401     		.2byte	0x1f4
ARM GAS  C:\Users\z80\AppData\Local\Temp\cchCGb6d.s 			page 43


 2376 084b 8C080000 		.4byte	0x88c
 2377 084f 13       		.uleb128 0x13
 2378 0850 90010000 		.4byte	.LASF113
 2379 0854 0D       		.byte	0xd
 2380 0855 F801     		.2byte	0x1f8
 2381 0857 22080000 		.4byte	0x822
 2382 085b 02       		.byte	0x2
 2383 085c 23       		.byte	0x23
 2384 085d 00       		.uleb128 0x0
 2385 085e 13       		.uleb128 0x13
 2386 085f 82000000 		.4byte	.LASF114
 2387 0863 0D       		.byte	0xd
 2388 0864 FD01     		.2byte	0x1fd
 2389 0866 33070000 		.4byte	0x733
 2390 086a 02       		.byte	0x2
 2391 086b 23       		.byte	0x23
 2392 086c 04       		.uleb128 0x4
 2393 086d 13       		.uleb128 0x13
 2394 086e 2C000000 		.4byte	.LASF115
 2395 0872 0D       		.byte	0xd
 2396 0873 0102     		.2byte	0x201
 2397 0875 62000000 		.4byte	0x62
 2398 0879 02       		.byte	0x2
 2399 087a 23       		.byte	0x23
 2400 087b 08       		.uleb128 0x8
 2401 087c 0C       		.uleb128 0xc
 2402 087d 63723100 		.ascii	"cr1\000"
 2403 0881 0D       		.byte	0xd
 2404 0882 0502     		.2byte	0x205
 2405 0884 62000000 		.4byte	0x62
 2406 0888 02       		.byte	0x2
 2407 0889 23       		.byte	0x23
 2408 088a 0A       		.uleb128 0xa
 2409 088b 00       		.byte	0x0
 2410 088c 14       		.uleb128 0x14
 2411 088d 91050000 		.4byte	.LASF116
 2412 0891 0D       		.byte	0xd
 2413 0892 0602     		.2byte	0x206
 2414 0894 46080000 		.4byte	0x846
 2415 0898 09       		.uleb128 0x9
 2416 0899 04       		.byte	0x4
 2417 089a 9E080000 		.4byte	0x89e
 2418 089e 11       		.uleb128 0x11
 2419 089f 8C080000 		.4byte	0x88c
 2420 08a3 09       		.uleb128 0x9
 2421 08a4 04       		.byte	0x4
 2422 08a5 94060000 		.4byte	0x694
 2423 08a9 19       		.uleb128 0x19
 2424 08aa 33010000 		.4byte	.LASF119
 2425 08ae 01       		.byte	0x1
 2426 08af 85       		.byte	0x85
 2427 08b0 01       		.byte	0x1
 2428 08b1 00000000 		.4byte	.LFB63
 2429 08b5 D8000000 		.4byte	.LFE63
 2430 08b9 00000000 		.4byte	.LLST0
 2431 08bd 2B090000 		.4byte	0x92b
 2432 08c1 1A       		.uleb128 0x1a
ARM GAS  C:\Users\z80\AppData\Local\Temp\cchCGb6d.s 			page 44


 2433 08c2 39050000 		.4byte	.LASF117
 2434 08c6 01       		.byte	0x1
 2435 08c7 85       		.byte	0x85
 2436 08c8 40080000 		.4byte	0x840
 2437 08cc 02       		.byte	0x2
 2438 08cd 91       		.byte	0x91
 2439 08ce 6C       		.sleb128 -20
 2440 08cf 1A       		.uleb128 0x1a
 2441 08d0 3E050000 		.4byte	.LASF118
 2442 08d4 01       		.byte	0x1
 2443 08d5 85       		.byte	0x85
 2444 08d6 86000000 		.4byte	0x86
 2445 08da 02       		.byte	0x2
 2446 08db 91       		.byte	0x91
 2447 08dc 68       		.sleb128 -24
 2448 08dd 1B       		.uleb128 0x1b
 2449 08de A0000000 		.4byte	.LBB2
 2450 08e2 A8000000 		.4byte	.LBE2
 2451 08e6 F8080000 		.4byte	0x8f8
 2452 08ea 1C       		.uleb128 0x1c
 2453 08eb 746D7000 		.ascii	"tmp\000"
 2454 08ef 01       		.byte	0x1
 2455 08f0 96       		.byte	0x96
 2456 08f1 86000000 		.4byte	0x86
 2457 08f5 01       		.byte	0x1
 2458 08f6 53       		.byte	0x53
 2459 08f7 00       		.byte	0x0
 2460 08f8 1B       		.uleb128 0x1b
 2461 08f9 B0000000 		.4byte	.LBB3
 2462 08fd CC000000 		.4byte	.LBE3
 2463 0901 13090000 		.4byte	0x913
 2464 0905 1C       		.uleb128 0x1c
 2465 0906 747000   		.ascii	"tp\000"
 2466 0909 01       		.byte	0x1
 2467 090a 96       		.byte	0x96
 2468 090b 65020000 		.4byte	0x265
 2469 090f 02       		.byte	0x2
 2470 0910 91       		.byte	0x91
 2471 0911 74       		.sleb128 -12
 2472 0912 00       		.byte	0x0
 2473 0913 1D       		.uleb128 0x1d
 2474 0914 CC000000 		.4byte	.LBB4
 2475 0918 D4000000 		.4byte	.LBE4
 2476 091c 1C       		.uleb128 0x1c
 2477 091d 746D7000 		.ascii	"tmp\000"
 2478 0921 01       		.byte	0x1
 2479 0922 96       		.byte	0x96
 2480 0923 86000000 		.4byte	0x86
 2481 0927 01       		.byte	0x1
 2482 0928 53       		.byte	0x53
 2483 0929 00       		.byte	0x0
 2484 092a 00       		.byte	0x0
 2485 092b 19       		.uleb128 0x19
 2486 092c 57050000 		.4byte	.LASF120
 2487 0930 01       		.byte	0x1
 2488 0931 9F       		.byte	0x9f
 2489 0932 01       		.byte	0x1
ARM GAS  C:\Users\z80\AppData\Local\Temp\cchCGb6d.s 			page 45


 2490 0933 00000000 		.4byte	.LFB64
 2491 0937 1A000000 		.4byte	.LFE64
 2492 093b 2C000000 		.4byte	.LLST1
 2493 093f 60090000 		.4byte	0x960
 2494 0943 1A       		.uleb128 0x1a
 2495 0944 39050000 		.4byte	.LASF117
 2496 0948 01       		.byte	0x1
 2497 0949 9F       		.byte	0x9f
 2498 094a 40080000 		.4byte	0x840
 2499 094e 02       		.byte	0x2
 2500 094f 91       		.byte	0x91
 2501 0950 74       		.sleb128 -12
 2502 0951 1A       		.uleb128 0x1a
 2503 0952 3E050000 		.4byte	.LASF118
 2504 0956 01       		.byte	0x1
 2505 0957 9F       		.byte	0x9f
 2506 0958 86000000 		.4byte	0x86
 2507 095c 02       		.byte	0x2
 2508 095d 91       		.byte	0x91
 2509 095e 70       		.sleb128 -16
 2510 095f 00       		.byte	0x0
 2511 0960 1E       		.uleb128 0x1e
 2512 0961 01       		.byte	0x1
 2513 0962 B8020000 		.4byte	.LASF141
 2514 0966 01       		.byte	0x1
 2515 0967 BA       		.byte	0xba
 2516 0968 01       		.byte	0x1
 2517 0969 00000000 		.4byte	.LFB65
 2518 096d C8000000 		.4byte	.LFE65
 2519 0971 58000000 		.4byte	.LLST2
 2520 0975 1F       		.uleb128 0x1f
 2521 0976 01       		.byte	0x1
 2522 0977 23050000 		.4byte	.LASF121
 2523 097b 01       		.byte	0x1
 2524 097c 3201     		.2byte	0x132
 2525 097e 01       		.byte	0x1
 2526 097f 00000000 		.4byte	.LFB66
 2527 0983 80010000 		.4byte	.LFE66
 2528 0987 78000000 		.4byte	.LLST3
 2529 098b D1090000 		.4byte	0x9d1
 2530 098f 20       		.uleb128 0x20
 2531 0990 39050000 		.4byte	.LASF117
 2532 0994 01       		.byte	0x1
 2533 0995 3201     		.2byte	0x132
 2534 0997 40080000 		.4byte	0x840
 2535 099b 02       		.byte	0x2
 2536 099c 91       		.byte	0x91
 2537 099d 6C       		.sleb128 -20
 2538 099e 1B       		.uleb128 0x1b
 2539 099f 1C000000 		.4byte	.LBB5
 2540 09a3 74000000 		.4byte	.LBE5
 2541 09a7 B9090000 		.4byte	0x9b9
 2542 09ab 21       		.uleb128 0x21
 2543 09ac 6200     		.ascii	"b\000"
 2544 09ae 01       		.byte	0x1
 2545 09af 3801     		.2byte	0x138
 2546 09b1 A6000000 		.4byte	0xa6
ARM GAS  C:\Users\z80\AppData\Local\Temp\cchCGb6d.s 			page 46


 2547 09b5 02       		.byte	0x2
 2548 09b6 91       		.byte	0x91
 2549 09b7 77       		.sleb128 -9
 2550 09b8 00       		.byte	0x0
 2551 09b9 1D       		.uleb128 0x1d
 2552 09ba 82000000 		.4byte	.LBB6
 2553 09be DA000000 		.4byte	.LBE6
 2554 09c2 21       		.uleb128 0x21
 2555 09c3 6200     		.ascii	"b\000"
 2556 09c5 01       		.byte	0x1
 2557 09c6 4801     		.2byte	0x148
 2558 09c8 A6000000 		.4byte	0xa6
 2559 09cc 02       		.byte	0x2
 2560 09cd 91       		.byte	0x91
 2561 09ce 76       		.sleb128 -10
 2562 09cf 00       		.byte	0x0
 2563 09d0 00       		.byte	0x0
 2564 09d1 1F       		.uleb128 0x1f
 2565 09d2 01       		.byte	0x1
 2566 09d3 F7020000 		.4byte	.LASF122
 2567 09d7 01       		.byte	0x1
 2568 09d8 BA01     		.2byte	0x1ba
 2569 09da 01       		.byte	0x1
 2570 09db 00000000 		.4byte	.LFB67
 2571 09df 86000000 		.4byte	.LFE67
 2572 09e3 A4000000 		.4byte	.LLST4
 2573 09e7 FB090000 		.4byte	0x9fb
 2574 09eb 20       		.uleb128 0x20
 2575 09ec 39050000 		.4byte	.LASF117
 2576 09f0 01       		.byte	0x1
 2577 09f1 BA01     		.2byte	0x1ba
 2578 09f3 40080000 		.4byte	0x840
 2579 09f7 02       		.byte	0x2
 2580 09f8 91       		.byte	0x91
 2581 09f9 74       		.sleb128 -12
 2582 09fa 00       		.byte	0x0
 2583 09fb 1F       		.uleb128 0x1f
 2584 09fc 01       		.byte	0x1
 2585 09fd D7040000 		.4byte	.LASF123
 2586 0a01 01       		.byte	0x1
 2587 0a02 E701     		.2byte	0x1e7
 2588 0a04 01       		.byte	0x1
 2589 0a05 00000000 		.4byte	.LFB68
 2590 0a09 1E000000 		.4byte	.LFE68
 2591 0a0d D0000000 		.4byte	.LLST5
 2592 0a11 250A0000 		.4byte	0xa25
 2593 0a15 20       		.uleb128 0x20
 2594 0a16 39050000 		.4byte	.LASF117
 2595 0a1a 01       		.byte	0x1
 2596 0a1b E701     		.2byte	0x1e7
 2597 0a1d 40080000 		.4byte	0x840
 2598 0a21 02       		.byte	0x2
 2599 0a22 91       		.byte	0x91
 2600 0a23 7C       		.sleb128 -4
 2601 0a24 00       		.byte	0x0
 2602 0a25 1F       		.uleb128 0x1f
 2603 0a26 01       		.byte	0x1
ARM GAS  C:\Users\z80\AppData\Local\Temp\cchCGb6d.s 			page 47


 2604 0a27 E2010000 		.4byte	.LASF124
 2605 0a2b 01       		.byte	0x1
 2606 0a2c F401     		.2byte	0x1f4
 2607 0a2e 01       		.byte	0x1
 2608 0a2f 00000000 		.4byte	.LFB69
 2609 0a33 1E000000 		.4byte	.LFE69
 2610 0a37 F0000000 		.4byte	.LLST6
 2611 0a3b 4F0A0000 		.4byte	0xa4f
 2612 0a3f 20       		.uleb128 0x20
 2613 0a40 39050000 		.4byte	.LASF117
 2614 0a44 01       		.byte	0x1
 2615 0a45 F401     		.2byte	0x1f4
 2616 0a47 40080000 		.4byte	0x840
 2617 0a4b 02       		.byte	0x2
 2618 0a4c 91       		.byte	0x91
 2619 0a4d 7C       		.sleb128 -4
 2620 0a4e 00       		.byte	0x0
 2621 0a4f 1F       		.uleb128 0x1f
 2622 0a50 01       		.byte	0x1
 2623 0a51 02050000 		.4byte	.LASF125
 2624 0a55 01       		.byte	0x1
 2625 0a56 0402     		.2byte	0x204
 2626 0a58 01       		.byte	0x1
 2627 0a59 00000000 		.4byte	.LFB70
 2628 0a5d 7E000000 		.4byte	.LFE70
 2629 0a61 10010000 		.4byte	.LLST7
 2630 0a65 860A0000 		.4byte	0xa86
 2631 0a69 20       		.uleb128 0x20
 2632 0a6a 39050000 		.4byte	.LASF117
 2633 0a6e 01       		.byte	0x1
 2634 0a6f 0402     		.2byte	0x204
 2635 0a71 40080000 		.4byte	0x840
 2636 0a75 02       		.byte	0x2
 2637 0a76 91       		.byte	0x91
 2638 0a77 7C       		.sleb128 -4
 2639 0a78 22       		.uleb128 0x22
 2640 0a79 6E00     		.ascii	"n\000"
 2641 0a7b 01       		.byte	0x1
 2642 0a7c 0402     		.2byte	0x204
 2643 0a7e 30000000 		.4byte	0x30
 2644 0a82 02       		.byte	0x2
 2645 0a83 91       		.byte	0x91
 2646 0a84 78       		.sleb128 -8
 2647 0a85 00       		.byte	0x0
 2648 0a86 1F       		.uleb128 0x1f
 2649 0a87 01       		.byte	0x1
 2650 0a88 60010000 		.4byte	.LASF126
 2651 0a8c 01       		.byte	0x1
 2652 0a8d 2102     		.2byte	0x221
 2653 0a8f 01       		.byte	0x1
 2654 0a90 00000000 		.4byte	.LFB71
 2655 0a94 7E000000 		.4byte	.LFE71
 2656 0a98 30010000 		.4byte	.LLST8
 2657 0a9c DB0A0000 		.4byte	0xadb
 2658 0aa0 20       		.uleb128 0x20
 2659 0aa1 39050000 		.4byte	.LASF117
 2660 0aa5 01       		.byte	0x1
ARM GAS  C:\Users\z80\AppData\Local\Temp\cchCGb6d.s 			page 48


 2661 0aa6 2102     		.2byte	0x221
 2662 0aa8 40080000 		.4byte	0x840
 2663 0aac 02       		.byte	0x2
 2664 0aad 91       		.byte	0x91
 2665 0aae 7C       		.sleb128 -4
 2666 0aaf 22       		.uleb128 0x22
 2667 0ab0 6E00     		.ascii	"n\000"
 2668 0ab2 01       		.byte	0x1
 2669 0ab3 2102     		.2byte	0x221
 2670 0ab5 30000000 		.4byte	0x30
 2671 0ab9 02       		.byte	0x2
 2672 0aba 91       		.byte	0x91
 2673 0abb 78       		.sleb128 -8
 2674 0abc 20       		.uleb128 0x20
 2675 0abd F3010000 		.4byte	.LASF127
 2676 0ac1 01       		.byte	0x1
 2677 0ac2 2202     		.2byte	0x222
 2678 0ac4 DB0A0000 		.4byte	0xadb
 2679 0ac8 02       		.byte	0x2
 2680 0ac9 91       		.byte	0x91
 2681 0aca 74       		.sleb128 -12
 2682 0acb 20       		.uleb128 0x20
 2683 0acc 96000000 		.4byte	.LASF128
 2684 0ad0 01       		.byte	0x1
 2685 0ad1 2202     		.2byte	0x222
 2686 0ad3 A3020000 		.4byte	0x2a3
 2687 0ad7 02       		.byte	0x2
 2688 0ad8 91       		.byte	0x91
 2689 0ad9 70       		.sleb128 -16
 2690 0ada 00       		.byte	0x0
 2691 0adb 09       		.uleb128 0x9
 2692 0adc 04       		.byte	0x4
 2693 0add E10A0000 		.4byte	0xae1
 2694 0ae1 23       		.uleb128 0x23
 2695 0ae2 1F       		.uleb128 0x1f
 2696 0ae3 01       		.byte	0x1
 2697 0ae4 C8010000 		.4byte	.LASF129
 2698 0ae8 01       		.byte	0x1
 2699 0ae9 3D02     		.2byte	0x23d
 2700 0aeb 01       		.byte	0x1
 2701 0aec 00000000 		.4byte	.LFB72
 2702 0af0 7E000000 		.4byte	.LFE72
 2703 0af4 50010000 		.4byte	.LLST9
 2704 0af8 280B0000 		.4byte	0xb28
 2705 0afc 20       		.uleb128 0x20
 2706 0afd 39050000 		.4byte	.LASF117
 2707 0b01 01       		.byte	0x1
 2708 0b02 3D02     		.2byte	0x23d
 2709 0b04 40080000 		.4byte	0x840
 2710 0b08 02       		.byte	0x2
 2711 0b09 91       		.byte	0x91
 2712 0b0a 7C       		.sleb128 -4
 2713 0b0b 22       		.uleb128 0x22
 2714 0b0c 6E00     		.ascii	"n\000"
 2715 0b0e 01       		.byte	0x1
 2716 0b0f 3D02     		.2byte	0x23d
 2717 0b11 30000000 		.4byte	0x30
ARM GAS  C:\Users\z80\AppData\Local\Temp\cchCGb6d.s 			page 49


 2718 0b15 02       		.byte	0x2
 2719 0b16 91       		.byte	0x91
 2720 0b17 78       		.sleb128 -8
 2721 0b18 20       		.uleb128 0x20
 2722 0b19 F3010000 		.4byte	.LASF127
 2723 0b1d 01       		.byte	0x1
 2724 0b1e 3D02     		.2byte	0x23d
 2725 0b20 DB0A0000 		.4byte	0xadb
 2726 0b24 02       		.byte	0x2
 2727 0b25 91       		.byte	0x91
 2728 0b26 74       		.sleb128 -12
 2729 0b27 00       		.byte	0x0
 2730 0b28 1F       		.uleb128 0x1f
 2731 0b29 01       		.byte	0x1
 2732 0b2a CC020000 		.4byte	.LASF130
 2733 0b2e 01       		.byte	0x1
 2734 0b2f 5802     		.2byte	0x258
 2735 0b31 01       		.byte	0x1
 2736 0b32 00000000 		.4byte	.LFB73
 2737 0b36 7E000000 		.4byte	.LFE73
 2738 0b3a 70010000 		.4byte	.LLST10
 2739 0b3e 6E0B0000 		.4byte	0xb6e
 2740 0b42 20       		.uleb128 0x20
 2741 0b43 39050000 		.4byte	.LASF117
 2742 0b47 01       		.byte	0x1
 2743 0b48 5802     		.2byte	0x258
 2744 0b4a 40080000 		.4byte	0x840
 2745 0b4e 02       		.byte	0x2
 2746 0b4f 91       		.byte	0x91
 2747 0b50 7C       		.sleb128 -4
 2748 0b51 22       		.uleb128 0x22
 2749 0b52 6E00     		.ascii	"n\000"
 2750 0b54 01       		.byte	0x1
 2751 0b55 5802     		.2byte	0x258
 2752 0b57 30000000 		.4byte	0x30
 2753 0b5b 02       		.byte	0x2
 2754 0b5c 91       		.byte	0x91
 2755 0b5d 78       		.sleb128 -8
 2756 0b5e 20       		.uleb128 0x20
 2757 0b5f 96000000 		.4byte	.LASF128
 2758 0b63 01       		.byte	0x1
 2759 0b64 5802     		.2byte	0x258
 2760 0b66 A3020000 		.4byte	0x2a3
 2761 0b6a 02       		.byte	0x2
 2762 0b6b 91       		.byte	0x91
 2763 0b6c 74       		.sleb128 -12
 2764 0b6d 00       		.byte	0x0
 2765 0b6e 24       		.uleb128 0x24
 2766 0b6f 01       		.byte	0x1
 2767 0b70 79050000 		.4byte	.LASF142
 2768 0b74 01       		.byte	0x1
 2769 0b75 7202     		.2byte	0x272
 2770 0b77 01       		.byte	0x1
 2771 0b78 62000000 		.4byte	0x62
 2772 0b7c 00000000 		.4byte	.LFB74
 2773 0b80 34000000 		.4byte	.LFE74
 2774 0b84 90010000 		.4byte	.LLST11
ARM GAS  C:\Users\z80\AppData\Local\Temp\cchCGb6d.s 			page 50


 2775 0b88 AB0B0000 		.4byte	0xbab
 2776 0b8c 20       		.uleb128 0x20
 2777 0b8d 39050000 		.4byte	.LASF117
 2778 0b91 01       		.byte	0x1
 2779 0b92 7202     		.2byte	0x272
 2780 0b94 40080000 		.4byte	0x840
 2781 0b98 02       		.byte	0x2
 2782 0b99 91       		.byte	0x91
 2783 0b9a 7C       		.sleb128 -4
 2784 0b9b 20       		.uleb128 0x20
 2785 0b9c 4F000000 		.4byte	.LASF131
 2786 0ba0 01       		.byte	0x1
 2787 0ba1 7202     		.2byte	0x272
 2788 0ba3 62000000 		.4byte	0x62
 2789 0ba7 02       		.byte	0x2
 2790 0ba8 91       		.byte	0x91
 2791 0ba9 7A       		.sleb128 -6
 2792 0baa 00       		.byte	0x0
 2793 0bab 25       		.uleb128 0x25
 2794 0bac 89000000 		.4byte	.LASF132
 2795 0bb0 0E       		.byte	0xe
 2796 0bb1 0706     		.2byte	0x607
 2797 0bb3 FD030000 		.4byte	0x3fd
 2798 0bb7 01       		.byte	0x1
 2799 0bb8 01       		.byte	0x1
 2800 0bb9 26       		.uleb128 0x26
 2801 0bba FB060000 		.4byte	0x6fb
 2802 0bbe C90B0000 		.4byte	0xbc9
 2803 0bc2 27       		.uleb128 0x27
 2804 0bc3 5B030000 		.4byte	0x35b
 2805 0bc7 06       		.byte	0x6
 2806 0bc8 00       		.byte	0x0
 2807 0bc9 25       		.uleb128 0x25
 2808 0bca 65000000 		.4byte	.LASF133
 2809 0bce 0A       		.byte	0xa
 2810 0bcf 8401     		.2byte	0x184
 2811 0bd1 D70B0000 		.4byte	0xbd7
 2812 0bd5 01       		.byte	0x1
 2813 0bd6 01       		.byte	0x1
 2814 0bd7 11       		.uleb128 0x11
 2815 0bd8 B90B0000 		.4byte	0xbb9
 2816 0bdc 25       		.uleb128 0x25
 2817 0bdd DB030000 		.4byte	.LASF134
 2818 0be1 0D       		.byte	0xd
 2819 0be2 4702     		.2byte	0x247
 2820 0be4 81070000 		.4byte	0x781
 2821 0be8 01       		.byte	0x1
 2822 0be9 01       		.byte	0x1
 2823 0bea 25       		.uleb128 0x25
 2824 0beb E1030000 		.4byte	.LASF135
 2825 0bef 0D       		.byte	0xd
 2826 0bf0 4B02     		.2byte	0x24b
 2827 0bf2 81070000 		.4byte	0x781
 2828 0bf6 01       		.byte	0x1
 2829 0bf7 01       		.byte	0x1
 2830 0bf8 28       		.uleb128 0x28
 2831 0bf9 E7030000 		.4byte	.LASF136
ARM GAS  C:\Users\z80\AppData\Local\Temp\cchCGb6d.s 			page 51


 2832 0bfd 01       		.byte	0x1
 2833 0bfe 78       		.byte	0x78
 2834 0bff 62000000 		.4byte	0x62
 2835 0c03 05       		.byte	0x5
 2836 0c04 03       		.byte	0x3
 2837 0c05 00000000 		.4byte	dummytx
 2838 0c09 28       		.uleb128 0x28
 2839 0c0a 63020000 		.4byte	.LASF137
 2840 0c0e 01       		.byte	0x1
 2841 0c0f 79       		.byte	0x79
 2842 0c10 62000000 		.4byte	0x62
 2843 0c14 05       		.byte	0x5
 2844 0c15 03       		.byte	0x3
 2845 0c16 00000000 		.4byte	dummyrx
 2846 0c1a 25       		.uleb128 0x25
 2847 0c1b 89000000 		.4byte	.LASF132
 2848 0c1f 0E       		.byte	0xe
 2849 0c20 0706     		.2byte	0x607
 2850 0c22 FD030000 		.4byte	0x3fd
 2851 0c26 01       		.byte	0x1
 2852 0c27 01       		.byte	0x1
 2853 0c28 25       		.uleb128 0x25
 2854 0c29 65000000 		.4byte	.LASF133
 2855 0c2d 0A       		.byte	0xa
 2856 0c2e 8401     		.2byte	0x184
 2857 0c30 360C0000 		.4byte	0xc36
 2858 0c34 01       		.byte	0x1
 2859 0c35 01       		.byte	0x1
 2860 0c36 11       		.uleb128 0x11
 2861 0c37 B90B0000 		.4byte	0xbb9
 2862 0c3b 29       		.uleb128 0x29
 2863 0c3c DB030000 		.4byte	.LASF134
 2864 0c40 01       		.byte	0x1
 2865 0c41 58       		.byte	0x58
 2866 0c42 81070000 		.4byte	0x781
 2867 0c46 01       		.byte	0x1
 2868 0c47 05       		.byte	0x5
 2869 0c48 03       		.byte	0x3
 2870 0c49 00000000 		.4byte	SPID1
 2871 0c4d 29       		.uleb128 0x29
 2872 0c4e E1030000 		.4byte	.LASF135
 2873 0c52 01       		.byte	0x1
 2874 0c53 5D       		.byte	0x5d
 2875 0c54 81070000 		.4byte	0x781
 2876 0c58 01       		.byte	0x1
 2877 0c59 05       		.byte	0x5
 2878 0c5a 03       		.byte	0x3
 2879 0c5b 00000000 		.4byte	SPID2
 2880 0c5f 00       		.byte	0x0
 2881              		.section	.debug_abbrev
 2882 0000 01       		.uleb128 0x1
 2883 0001 11       		.uleb128 0x11
 2884 0002 01       		.byte	0x1
 2885 0003 25       		.uleb128 0x25
 2886 0004 0E       		.uleb128 0xe
 2887 0005 13       		.uleb128 0x13
 2888 0006 0B       		.uleb128 0xb
ARM GAS  C:\Users\z80\AppData\Local\Temp\cchCGb6d.s 			page 52


 2889 0007 03       		.uleb128 0x3
 2890 0008 0E       		.uleb128 0xe
 2891 0009 1B       		.uleb128 0x1b
 2892 000a 0E       		.uleb128 0xe
 2893 000b 11       		.uleb128 0x11
 2894 000c 01       		.uleb128 0x1
 2895 000d 52       		.uleb128 0x52
 2896 000e 01       		.uleb128 0x1
 2897 000f 55       		.uleb128 0x55
 2898 0010 06       		.uleb128 0x6
 2899 0011 10       		.uleb128 0x10
 2900 0012 06       		.uleb128 0x6
 2901 0013 00       		.byte	0x0
 2902 0014 00       		.byte	0x0
 2903 0015 02       		.uleb128 0x2
 2904 0016 24       		.uleb128 0x24
 2905 0017 00       		.byte	0x0
 2906 0018 0B       		.uleb128 0xb
 2907 0019 0B       		.uleb128 0xb
 2908 001a 3E       		.uleb128 0x3e
 2909 001b 0B       		.uleb128 0xb
 2910 001c 03       		.uleb128 0x3
 2911 001d 08       		.uleb128 0x8
 2912 001e 00       		.byte	0x0
 2913 001f 00       		.byte	0x0
 2914 0020 03       		.uleb128 0x3
 2915 0021 16       		.uleb128 0x16
 2916 0022 00       		.byte	0x0
 2917 0023 03       		.uleb128 0x3
 2918 0024 0E       		.uleb128 0xe
 2919 0025 3A       		.uleb128 0x3a
 2920 0026 0B       		.uleb128 0xb
 2921 0027 3B       		.uleb128 0x3b
 2922 0028 0B       		.uleb128 0xb
 2923 0029 49       		.uleb128 0x49
 2924 002a 13       		.uleb128 0x13
 2925 002b 00       		.byte	0x0
 2926 002c 00       		.byte	0x0
 2927 002d 04       		.uleb128 0x4
 2928 002e 24       		.uleb128 0x24
 2929 002f 00       		.byte	0x0
 2930 0030 0B       		.uleb128 0xb
 2931 0031 0B       		.uleb128 0xb
 2932 0032 3E       		.uleb128 0x3e
 2933 0033 0B       		.uleb128 0xb
 2934 0034 03       		.uleb128 0x3
 2935 0035 0E       		.uleb128 0xe
 2936 0036 00       		.byte	0x0
 2937 0037 00       		.byte	0x0
 2938 0038 05       		.uleb128 0x5
 2939 0039 13       		.uleb128 0x13
 2940 003a 01       		.byte	0x1
 2941 003b 03       		.uleb128 0x3
 2942 003c 0E       		.uleb128 0xe
 2943 003d 0B       		.uleb128 0xb
 2944 003e 0B       		.uleb128 0xb
 2945 003f 3A       		.uleb128 0x3a
ARM GAS  C:\Users\z80\AppData\Local\Temp\cchCGb6d.s 			page 53


 2946 0040 0B       		.uleb128 0xb
 2947 0041 3B       		.uleb128 0x3b
 2948 0042 0B       		.uleb128 0xb
 2949 0043 01       		.uleb128 0x1
 2950 0044 13       		.uleb128 0x13
 2951 0045 00       		.byte	0x0
 2952 0046 00       		.byte	0x0
 2953 0047 06       		.uleb128 0x6
 2954 0048 0D       		.uleb128 0xd
 2955 0049 00       		.byte	0x0
 2956 004a 03       		.uleb128 0x3
 2957 004b 0E       		.uleb128 0xe
 2958 004c 3A       		.uleb128 0x3a
 2959 004d 0B       		.uleb128 0xb
 2960 004e 3B       		.uleb128 0x3b
 2961 004f 0B       		.uleb128 0xb
 2962 0050 49       		.uleb128 0x49
 2963 0051 13       		.uleb128 0x13
 2964 0052 38       		.uleb128 0x38
 2965 0053 0A       		.uleb128 0xa
 2966 0054 00       		.byte	0x0
 2967 0055 00       		.byte	0x0
 2968 0056 07       		.uleb128 0x7
 2969 0057 0D       		.uleb128 0xd
 2970 0058 00       		.byte	0x0
 2971 0059 03       		.uleb128 0x3
 2972 005a 08       		.uleb128 0x8
 2973 005b 3A       		.uleb128 0x3a
 2974 005c 0B       		.uleb128 0xb
 2975 005d 3B       		.uleb128 0x3b
 2976 005e 0B       		.uleb128 0xb
 2977 005f 49       		.uleb128 0x49
 2978 0060 13       		.uleb128 0x13
 2979 0061 38       		.uleb128 0x38
 2980 0062 0A       		.uleb128 0xa
 2981 0063 00       		.byte	0x0
 2982 0064 00       		.byte	0x0
 2983 0065 08       		.uleb128 0x8
 2984 0066 13       		.uleb128 0x13
 2985 0067 01       		.byte	0x1
 2986 0068 0B       		.uleb128 0xb
 2987 0069 0B       		.uleb128 0xb
 2988 006a 3A       		.uleb128 0x3a
 2989 006b 0B       		.uleb128 0xb
 2990 006c 3B       		.uleb128 0x3b
 2991 006d 0B       		.uleb128 0xb
 2992 006e 01       		.uleb128 0x1
 2993 006f 13       		.uleb128 0x13
 2994 0070 00       		.byte	0x0
 2995 0071 00       		.byte	0x0
 2996 0072 09       		.uleb128 0x9
 2997 0073 0F       		.uleb128 0xf
 2998 0074 00       		.byte	0x0
 2999 0075 0B       		.uleb128 0xb
 3000 0076 0B       		.uleb128 0xb
 3001 0077 49       		.uleb128 0x49
 3002 0078 13       		.uleb128 0x13
ARM GAS  C:\Users\z80\AppData\Local\Temp\cchCGb6d.s 			page 54


 3003 0079 00       		.byte	0x0
 3004 007a 00       		.byte	0x0
 3005 007b 0A       		.uleb128 0xa
 3006 007c 0F       		.uleb128 0xf
 3007 007d 00       		.byte	0x0
 3008 007e 0B       		.uleb128 0xb
 3009 007f 0B       		.uleb128 0xb
 3010 0080 00       		.byte	0x0
 3011 0081 00       		.byte	0x0
 3012 0082 0B       		.uleb128 0xb
 3013 0083 13       		.uleb128 0x13
 3014 0084 01       		.byte	0x1
 3015 0085 03       		.uleb128 0x3
 3016 0086 0E       		.uleb128 0xe
 3017 0087 0B       		.uleb128 0xb
 3018 0088 0B       		.uleb128 0xb
 3019 0089 3A       		.uleb128 0x3a
 3020 008a 0B       		.uleb128 0xb
 3021 008b 3B       		.uleb128 0x3b
 3022 008c 05       		.uleb128 0x5
 3023 008d 01       		.uleb128 0x1
 3024 008e 13       		.uleb128 0x13
 3025 008f 00       		.byte	0x0
 3026 0090 00       		.byte	0x0
 3027 0091 0C       		.uleb128 0xc
 3028 0092 0D       		.uleb128 0xd
 3029 0093 00       		.byte	0x0
 3030 0094 03       		.uleb128 0x3
 3031 0095 08       		.uleb128 0x8
 3032 0096 3A       		.uleb128 0x3a
 3033 0097 0B       		.uleb128 0xb
 3034 0098 3B       		.uleb128 0x3b
 3035 0099 05       		.uleb128 0x5
 3036 009a 49       		.uleb128 0x49
 3037 009b 13       		.uleb128 0x13
 3038 009c 38       		.uleb128 0x38
 3039 009d 0A       		.uleb128 0xa
 3040 009e 00       		.byte	0x0
 3041 009f 00       		.byte	0x0
 3042 00a0 0D       		.uleb128 0xd
 3043 00a1 35       		.uleb128 0x35
 3044 00a2 00       		.byte	0x0
 3045 00a3 49       		.uleb128 0x49
 3046 00a4 13       		.uleb128 0x13
 3047 00a5 00       		.byte	0x0
 3048 00a6 00       		.byte	0x0
 3049 00a7 0E       		.uleb128 0xe
 3050 00a8 24       		.uleb128 0x24
 3051 00a9 00       		.byte	0x0
 3052 00aa 0B       		.uleb128 0xb
 3053 00ab 0B       		.uleb128 0xb
 3054 00ac 3E       		.uleb128 0x3e
 3055 00ad 0B       		.uleb128 0xb
 3056 00ae 00       		.byte	0x0
 3057 00af 00       		.byte	0x0
 3058 00b0 0F       		.uleb128 0xf
 3059 00b1 17       		.uleb128 0x17
ARM GAS  C:\Users\z80\AppData\Local\Temp\cchCGb6d.s 			page 55


 3060 00b2 01       		.byte	0x1
 3061 00b3 0B       		.uleb128 0xb
 3062 00b4 0B       		.uleb128 0xb
 3063 00b5 3A       		.uleb128 0x3a
 3064 00b6 0B       		.uleb128 0xb
 3065 00b7 3B       		.uleb128 0x3b
 3066 00b8 0B       		.uleb128 0xb
 3067 00b9 01       		.uleb128 0x1
 3068 00ba 13       		.uleb128 0x13
 3069 00bb 00       		.byte	0x0
 3070 00bc 00       		.byte	0x0
 3071 00bd 10       		.uleb128 0x10
 3072 00be 0D       		.uleb128 0xd
 3073 00bf 00       		.byte	0x0
 3074 00c0 03       		.uleb128 0x3
 3075 00c1 0E       		.uleb128 0xe
 3076 00c2 3A       		.uleb128 0x3a
 3077 00c3 0B       		.uleb128 0xb
 3078 00c4 3B       		.uleb128 0x3b
 3079 00c5 0B       		.uleb128 0xb
 3080 00c6 49       		.uleb128 0x49
 3081 00c7 13       		.uleb128 0x13
 3082 00c8 00       		.byte	0x0
 3083 00c9 00       		.byte	0x0
 3084 00ca 11       		.uleb128 0x11
 3085 00cb 26       		.uleb128 0x26
 3086 00cc 00       		.byte	0x0
 3087 00cd 49       		.uleb128 0x49
 3088 00ce 13       		.uleb128 0x13
 3089 00cf 00       		.byte	0x0
 3090 00d0 00       		.byte	0x0
 3091 00d1 12       		.uleb128 0x12
 3092 00d2 13       		.uleb128 0x13
 3093 00d3 01       		.byte	0x1
 3094 00d4 0B       		.uleb128 0xb
 3095 00d5 0B       		.uleb128 0xb
 3096 00d6 3A       		.uleb128 0x3a
 3097 00d7 0B       		.uleb128 0xb
 3098 00d8 3B       		.uleb128 0x3b
 3099 00d9 05       		.uleb128 0x5
 3100 00da 01       		.uleb128 0x1
 3101 00db 13       		.uleb128 0x13
 3102 00dc 00       		.byte	0x0
 3103 00dd 00       		.byte	0x0
 3104 00de 13       		.uleb128 0x13
 3105 00df 0D       		.uleb128 0xd
 3106 00e0 00       		.byte	0x0
 3107 00e1 03       		.uleb128 0x3
 3108 00e2 0E       		.uleb128 0xe
 3109 00e3 3A       		.uleb128 0x3a
 3110 00e4 0B       		.uleb128 0xb
 3111 00e5 3B       		.uleb128 0x3b
 3112 00e6 05       		.uleb128 0x5
 3113 00e7 49       		.uleb128 0x49
 3114 00e8 13       		.uleb128 0x13
 3115 00e9 38       		.uleb128 0x38
 3116 00ea 0A       		.uleb128 0xa
ARM GAS  C:\Users\z80\AppData\Local\Temp\cchCGb6d.s 			page 56


 3117 00eb 00       		.byte	0x0
 3118 00ec 00       		.byte	0x0
 3119 00ed 14       		.uleb128 0x14
 3120 00ee 16       		.uleb128 0x16
 3121 00ef 00       		.byte	0x0
 3122 00f0 03       		.uleb128 0x3
 3123 00f1 0E       		.uleb128 0xe
 3124 00f2 3A       		.uleb128 0x3a
 3125 00f3 0B       		.uleb128 0xb
 3126 00f4 3B       		.uleb128 0x3b
 3127 00f5 05       		.uleb128 0x5
 3128 00f6 49       		.uleb128 0x49
 3129 00f7 13       		.uleb128 0x13
 3130 00f8 00       		.byte	0x0
 3131 00f9 00       		.byte	0x0
 3132 00fa 15       		.uleb128 0x15
 3133 00fb 15       		.uleb128 0x15
 3134 00fc 01       		.byte	0x1
 3135 00fd 27       		.uleb128 0x27
 3136 00fe 0C       		.uleb128 0xc
 3137 00ff 01       		.uleb128 0x1
 3138 0100 13       		.uleb128 0x13
 3139 0101 00       		.byte	0x0
 3140 0102 00       		.byte	0x0
 3141 0103 16       		.uleb128 0x16
 3142 0104 05       		.uleb128 0x5
 3143 0105 00       		.byte	0x0
 3144 0106 49       		.uleb128 0x49
 3145 0107 13       		.uleb128 0x13
 3146 0108 00       		.byte	0x0
 3147 0109 00       		.byte	0x0
 3148 010a 17       		.uleb128 0x17
 3149 010b 04       		.uleb128 0x4
 3150 010c 01       		.byte	0x1
 3151 010d 0B       		.uleb128 0xb
 3152 010e 0B       		.uleb128 0xb
 3153 010f 3A       		.uleb128 0x3a
 3154 0110 0B       		.uleb128 0xb
 3155 0111 3B       		.uleb128 0x3b
 3156 0112 0B       		.uleb128 0xb
 3157 0113 01       		.uleb128 0x1
 3158 0114 13       		.uleb128 0x13
 3159 0115 00       		.byte	0x0
 3160 0116 00       		.byte	0x0
 3161 0117 18       		.uleb128 0x18
 3162 0118 28       		.uleb128 0x28
 3163 0119 00       		.byte	0x0
 3164 011a 03       		.uleb128 0x3
 3165 011b 0E       		.uleb128 0xe
 3166 011c 1C       		.uleb128 0x1c
 3167 011d 0D       		.uleb128 0xd
 3168 011e 00       		.byte	0x0
 3169 011f 00       		.byte	0x0
 3170 0120 19       		.uleb128 0x19
 3171 0121 2E       		.uleb128 0x2e
 3172 0122 01       		.byte	0x1
 3173 0123 03       		.uleb128 0x3
ARM GAS  C:\Users\z80\AppData\Local\Temp\cchCGb6d.s 			page 57


 3174 0124 0E       		.uleb128 0xe
 3175 0125 3A       		.uleb128 0x3a
 3176 0126 0B       		.uleb128 0xb
 3177 0127 3B       		.uleb128 0x3b
 3178 0128 0B       		.uleb128 0xb
 3179 0129 27       		.uleb128 0x27
 3180 012a 0C       		.uleb128 0xc
 3181 012b 11       		.uleb128 0x11
 3182 012c 01       		.uleb128 0x1
 3183 012d 12       		.uleb128 0x12
 3184 012e 01       		.uleb128 0x1
 3185 012f 40       		.uleb128 0x40
 3186 0130 06       		.uleb128 0x6
 3187 0131 01       		.uleb128 0x1
 3188 0132 13       		.uleb128 0x13
 3189 0133 00       		.byte	0x0
 3190 0134 00       		.byte	0x0
 3191 0135 1A       		.uleb128 0x1a
 3192 0136 05       		.uleb128 0x5
 3193 0137 00       		.byte	0x0
 3194 0138 03       		.uleb128 0x3
 3195 0139 0E       		.uleb128 0xe
 3196 013a 3A       		.uleb128 0x3a
 3197 013b 0B       		.uleb128 0xb
 3198 013c 3B       		.uleb128 0x3b
 3199 013d 0B       		.uleb128 0xb
 3200 013e 49       		.uleb128 0x49
 3201 013f 13       		.uleb128 0x13
 3202 0140 02       		.uleb128 0x2
 3203 0141 0A       		.uleb128 0xa
 3204 0142 00       		.byte	0x0
 3205 0143 00       		.byte	0x0
 3206 0144 1B       		.uleb128 0x1b
 3207 0145 0B       		.uleb128 0xb
 3208 0146 01       		.byte	0x1
 3209 0147 11       		.uleb128 0x11
 3210 0148 01       		.uleb128 0x1
 3211 0149 12       		.uleb128 0x12
 3212 014a 01       		.uleb128 0x1
 3213 014b 01       		.uleb128 0x1
 3214 014c 13       		.uleb128 0x13
 3215 014d 00       		.byte	0x0
 3216 014e 00       		.byte	0x0
 3217 014f 1C       		.uleb128 0x1c
 3218 0150 34       		.uleb128 0x34
 3219 0151 00       		.byte	0x0
 3220 0152 03       		.uleb128 0x3
 3221 0153 08       		.uleb128 0x8
 3222 0154 3A       		.uleb128 0x3a
 3223 0155 0B       		.uleb128 0xb
 3224 0156 3B       		.uleb128 0x3b
 3225 0157 0B       		.uleb128 0xb
 3226 0158 49       		.uleb128 0x49
 3227 0159 13       		.uleb128 0x13
 3228 015a 02       		.uleb128 0x2
 3229 015b 0A       		.uleb128 0xa
 3230 015c 00       		.byte	0x0
ARM GAS  C:\Users\z80\AppData\Local\Temp\cchCGb6d.s 			page 58


 3231 015d 00       		.byte	0x0
 3232 015e 1D       		.uleb128 0x1d
 3233 015f 0B       		.uleb128 0xb
 3234 0160 01       		.byte	0x1
 3235 0161 11       		.uleb128 0x11
 3236 0162 01       		.uleb128 0x1
 3237 0163 12       		.uleb128 0x12
 3238 0164 01       		.uleb128 0x1
 3239 0165 00       		.byte	0x0
 3240 0166 00       		.byte	0x0
 3241 0167 1E       		.uleb128 0x1e
 3242 0168 2E       		.uleb128 0x2e
 3243 0169 00       		.byte	0x0
 3244 016a 3F       		.uleb128 0x3f
 3245 016b 0C       		.uleb128 0xc
 3246 016c 03       		.uleb128 0x3
 3247 016d 0E       		.uleb128 0xe
 3248 016e 3A       		.uleb128 0x3a
 3249 016f 0B       		.uleb128 0xb
 3250 0170 3B       		.uleb128 0x3b
 3251 0171 0B       		.uleb128 0xb
 3252 0172 27       		.uleb128 0x27
 3253 0173 0C       		.uleb128 0xc
 3254 0174 11       		.uleb128 0x11
 3255 0175 01       		.uleb128 0x1
 3256 0176 12       		.uleb128 0x12
 3257 0177 01       		.uleb128 0x1
 3258 0178 40       		.uleb128 0x40
 3259 0179 06       		.uleb128 0x6
 3260 017a 00       		.byte	0x0
 3261 017b 00       		.byte	0x0
 3262 017c 1F       		.uleb128 0x1f
 3263 017d 2E       		.uleb128 0x2e
 3264 017e 01       		.byte	0x1
 3265 017f 3F       		.uleb128 0x3f
 3266 0180 0C       		.uleb128 0xc
 3267 0181 03       		.uleb128 0x3
 3268 0182 0E       		.uleb128 0xe
 3269 0183 3A       		.uleb128 0x3a
 3270 0184 0B       		.uleb128 0xb
 3271 0185 3B       		.uleb128 0x3b
 3272 0186 05       		.uleb128 0x5
 3273 0187 27       		.uleb128 0x27
 3274 0188 0C       		.uleb128 0xc
 3275 0189 11       		.uleb128 0x11
 3276 018a 01       		.uleb128 0x1
 3277 018b 12       		.uleb128 0x12
 3278 018c 01       		.uleb128 0x1
 3279 018d 40       		.uleb128 0x40
 3280 018e 06       		.uleb128 0x6
 3281 018f 01       		.uleb128 0x1
 3282 0190 13       		.uleb128 0x13
 3283 0191 00       		.byte	0x0
 3284 0192 00       		.byte	0x0
 3285 0193 20       		.uleb128 0x20
 3286 0194 05       		.uleb128 0x5
 3287 0195 00       		.byte	0x0
ARM GAS  C:\Users\z80\AppData\Local\Temp\cchCGb6d.s 			page 59


 3288 0196 03       		.uleb128 0x3
 3289 0197 0E       		.uleb128 0xe
 3290 0198 3A       		.uleb128 0x3a
 3291 0199 0B       		.uleb128 0xb
 3292 019a 3B       		.uleb128 0x3b
 3293 019b 05       		.uleb128 0x5
 3294 019c 49       		.uleb128 0x49
 3295 019d 13       		.uleb128 0x13
 3296 019e 02       		.uleb128 0x2
 3297 019f 0A       		.uleb128 0xa
 3298 01a0 00       		.byte	0x0
 3299 01a1 00       		.byte	0x0
 3300 01a2 21       		.uleb128 0x21
 3301 01a3 34       		.uleb128 0x34
 3302 01a4 00       		.byte	0x0
 3303 01a5 03       		.uleb128 0x3
 3304 01a6 08       		.uleb128 0x8
 3305 01a7 3A       		.uleb128 0x3a
 3306 01a8 0B       		.uleb128 0xb
 3307 01a9 3B       		.uleb128 0x3b
 3308 01aa 05       		.uleb128 0x5
 3309 01ab 49       		.uleb128 0x49
 3310 01ac 13       		.uleb128 0x13
 3311 01ad 02       		.uleb128 0x2
 3312 01ae 0A       		.uleb128 0xa
 3313 01af 00       		.byte	0x0
 3314 01b0 00       		.byte	0x0
 3315 01b1 22       		.uleb128 0x22
 3316 01b2 05       		.uleb128 0x5
 3317 01b3 00       		.byte	0x0
 3318 01b4 03       		.uleb128 0x3
 3319 01b5 08       		.uleb128 0x8
 3320 01b6 3A       		.uleb128 0x3a
 3321 01b7 0B       		.uleb128 0xb
 3322 01b8 3B       		.uleb128 0x3b
 3323 01b9 05       		.uleb128 0x5
 3324 01ba 49       		.uleb128 0x49
 3325 01bb 13       		.uleb128 0x13
 3326 01bc 02       		.uleb128 0x2
 3327 01bd 0A       		.uleb128 0xa
 3328 01be 00       		.byte	0x0
 3329 01bf 00       		.byte	0x0
 3330 01c0 23       		.uleb128 0x23
 3331 01c1 26       		.uleb128 0x26
 3332 01c2 00       		.byte	0x0
 3333 01c3 00       		.byte	0x0
 3334 01c4 00       		.byte	0x0
 3335 01c5 24       		.uleb128 0x24
 3336 01c6 2E       		.uleb128 0x2e
 3337 01c7 01       		.byte	0x1
 3338 01c8 3F       		.uleb128 0x3f
 3339 01c9 0C       		.uleb128 0xc
 3340 01ca 03       		.uleb128 0x3
 3341 01cb 0E       		.uleb128 0xe
 3342 01cc 3A       		.uleb128 0x3a
 3343 01cd 0B       		.uleb128 0xb
 3344 01ce 3B       		.uleb128 0x3b
ARM GAS  C:\Users\z80\AppData\Local\Temp\cchCGb6d.s 			page 60


 3345 01cf 05       		.uleb128 0x5
 3346 01d0 27       		.uleb128 0x27
 3347 01d1 0C       		.uleb128 0xc
 3348 01d2 49       		.uleb128 0x49
 3349 01d3 13       		.uleb128 0x13
 3350 01d4 11       		.uleb128 0x11
 3351 01d5 01       		.uleb128 0x1
 3352 01d6 12       		.uleb128 0x12
 3353 01d7 01       		.uleb128 0x1
 3354 01d8 40       		.uleb128 0x40
 3355 01d9 06       		.uleb128 0x6
 3356 01da 01       		.uleb128 0x1
 3357 01db 13       		.uleb128 0x13
 3358 01dc 00       		.byte	0x0
 3359 01dd 00       		.byte	0x0
 3360 01de 25       		.uleb128 0x25
 3361 01df 34       		.uleb128 0x34
 3362 01e0 00       		.byte	0x0
 3363 01e1 03       		.uleb128 0x3
 3364 01e2 0E       		.uleb128 0xe
 3365 01e3 3A       		.uleb128 0x3a
 3366 01e4 0B       		.uleb128 0xb
 3367 01e5 3B       		.uleb128 0x3b
 3368 01e6 05       		.uleb128 0x5
 3369 01e7 49       		.uleb128 0x49
 3370 01e8 13       		.uleb128 0x13
 3371 01e9 3F       		.uleb128 0x3f
 3372 01ea 0C       		.uleb128 0xc
 3373 01eb 3C       		.uleb128 0x3c
 3374 01ec 0C       		.uleb128 0xc
 3375 01ed 00       		.byte	0x0
 3376 01ee 00       		.byte	0x0
 3377 01ef 26       		.uleb128 0x26
 3378 01f0 01       		.uleb128 0x1
 3379 01f1 01       		.byte	0x1
 3380 01f2 49       		.uleb128 0x49
 3381 01f3 13       		.uleb128 0x13
 3382 01f4 01       		.uleb128 0x1
 3383 01f5 13       		.uleb128 0x13
 3384 01f6 00       		.byte	0x0
 3385 01f7 00       		.byte	0x0
 3386 01f8 27       		.uleb128 0x27
 3387 01f9 21       		.uleb128 0x21
 3388 01fa 00       		.byte	0x0
 3389 01fb 49       		.uleb128 0x49
 3390 01fc 13       		.uleb128 0x13
 3391 01fd 2F       		.uleb128 0x2f
 3392 01fe 0B       		.uleb128 0xb
 3393 01ff 00       		.byte	0x0
 3394 0200 00       		.byte	0x0
 3395 0201 28       		.uleb128 0x28
 3396 0202 34       		.uleb128 0x34
 3397 0203 00       		.byte	0x0
 3398 0204 03       		.uleb128 0x3
 3399 0205 0E       		.uleb128 0xe
 3400 0206 3A       		.uleb128 0x3a
 3401 0207 0B       		.uleb128 0xb
ARM GAS  C:\Users\z80\AppData\Local\Temp\cchCGb6d.s 			page 61


 3402 0208 3B       		.uleb128 0x3b
 3403 0209 0B       		.uleb128 0xb
 3404 020a 49       		.uleb128 0x49
 3405 020b 13       		.uleb128 0x13
 3406 020c 02       		.uleb128 0x2
 3407 020d 0A       		.uleb128 0xa
 3408 020e 00       		.byte	0x0
 3409 020f 00       		.byte	0x0
 3410 0210 29       		.uleb128 0x29
 3411 0211 34       		.uleb128 0x34
 3412 0212 00       		.byte	0x0
 3413 0213 03       		.uleb128 0x3
 3414 0214 0E       		.uleb128 0xe
 3415 0215 3A       		.uleb128 0x3a
 3416 0216 0B       		.uleb128 0xb
 3417 0217 3B       		.uleb128 0x3b
 3418 0218 0B       		.uleb128 0xb
 3419 0219 49       		.uleb128 0x49
 3420 021a 13       		.uleb128 0x13
 3421 021b 3F       		.uleb128 0x3f
 3422 021c 0C       		.uleb128 0xc
 3423 021d 02       		.uleb128 0x2
 3424 021e 0A       		.uleb128 0xa
 3425 021f 00       		.byte	0x0
 3426 0220 00       		.byte	0x0
 3427 0221 00       		.byte	0x0
 3428              		.section	.debug_pubnames,"",%progbits
 3429 0000 E7000000 		.4byte	0xe7
 3430 0004 0200     		.2byte	0x2
 3431 0006 00000000 		.4byte	.Ldebug_info0
 3432 000a 600C0000 		.4byte	0xc60
 3433 000e 60090000 		.4byte	0x960
 3434 0012 7370695F 		.ascii	"spi_lld_init\000"
 3434      6C6C645F 
 3434      696E6974 
 3434      00
 3435 001f 75090000 		.4byte	0x975
 3436 0023 7370695F 		.ascii	"spi_lld_start\000"
 3436      6C6C645F 
 3436      73746172 
 3436      7400
 3437 0031 D1090000 		.4byte	0x9d1
 3438 0035 7370695F 		.ascii	"spi_lld_stop\000"
 3438      6C6C645F 
 3438      73746F70 
 3438      00
 3439 0042 FB090000 		.4byte	0x9fb
 3440 0046 7370695F 		.ascii	"spi_lld_select\000"
 3440      6C6C645F 
 3440      73656C65 
 3440      637400
 3441 0055 250A0000 		.4byte	0xa25
 3442 0059 7370695F 		.ascii	"spi_lld_unselect\000"
 3442      6C6C645F 
 3442      756E7365 
 3442      6C656374 
 3442      00
ARM GAS  C:\Users\z80\AppData\Local\Temp\cchCGb6d.s 			page 62


 3443 006a 4F0A0000 		.4byte	0xa4f
 3444 006e 7370695F 		.ascii	"spi_lld_ignore\000"
 3444      6C6C645F 
 3444      69676E6F 
 3444      726500
 3445 007d 860A0000 		.4byte	0xa86
 3446 0081 7370695F 		.ascii	"spi_lld_exchange\000"
 3446      6C6C645F 
 3446      65786368 
 3446      616E6765 
 3446      00
 3447 0092 E20A0000 		.4byte	0xae2
 3448 0096 7370695F 		.ascii	"spi_lld_send\000"
 3448      6C6C645F 
 3448      73656E64 
 3448      00
 3449 00a3 280B0000 		.4byte	0xb28
 3450 00a7 7370695F 		.ascii	"spi_lld_receive\000"
 3450      6C6C645F 
 3450      72656365 
 3450      69766500 
 3451 00b7 6E0B0000 		.4byte	0xb6e
 3452 00bb 7370695F 		.ascii	"spi_lld_polled_exchange\000"
 3452      6C6C645F 
 3452      706F6C6C 
 3452      65645F65 
 3452      78636861 
 3453 00d3 3B0C0000 		.4byte	0xc3b
 3454 00d7 53504944 		.ascii	"SPID1\000"
 3454      3100
 3455 00dd 4D0C0000 		.4byte	0xc4d
 3456 00e1 53504944 		.ascii	"SPID2\000"
 3456      3200
 3457 00e7 00000000 		.4byte	0x0
 3458              		.section	.debug_pubtypes,"",%progbits
 3459 0000 0A020000 		.4byte	0x20a
 3460 0004 0200     		.2byte	0x2
 3461 0006 00000000 		.4byte	.Ldebug_info0
 3462 000a 600C0000 		.4byte	0xc60
 3463 000e 30000000 		.4byte	0x30
 3464 0012 73697A65 		.ascii	"size_t\000"
 3464      5F7400
 3465 0019 49000000 		.4byte	0x49
 3466 001d 75696E74 		.ascii	"uint8_t\000"
 3466      385F7400 
 3467 0025 62000000 		.4byte	0x62
 3468 0029 75696E74 		.ascii	"uint16_t\000"
 3468      31365F74 
 3468      00
 3469 0032 74000000 		.4byte	0x74
 3470 0036 696E7433 		.ascii	"int32_t\000"
 3470      325F7400 
 3471 003e 86000000 		.4byte	0x86
 3472 0042 75696E74 		.ascii	"uint32_t\000"
 3472      33325F74 
 3472      00
 3473 004b A6000000 		.4byte	0xa6
ARM GAS  C:\Users\z80\AppData\Local\Temp\cchCGb6d.s 			page 63


 3474 004f 626F6F6C 		.ascii	"bool_t\000"
 3474      5F7400
 3475 0056 B8000000 		.4byte	0xb8
 3476 005a 746D6F64 		.ascii	"tmode_t\000"
 3476      655F7400 
 3477 0062 C3000000 		.4byte	0xc3
 3478 0066 74737461 		.ascii	"tstate_t\000"
 3478      74655F74 
 3478      00
 3479 006f CE000000 		.4byte	0xce
 3480 0073 74726566 		.ascii	"trefs_t\000"
 3480      735F7400 
 3481 007b D9000000 		.4byte	0xd9
 3482 007f 74736C69 		.ascii	"tslices_t\000"
 3482      6365735F 
 3482      7400
 3483 0089 E4000000 		.4byte	0xe4
 3484 008d 74707269 		.ascii	"tprio_t\000"
 3484      6F5F7400 
 3485 0095 EF000000 		.4byte	0xef
 3486 0099 6D73675F 		.ascii	"msg_t\000"
 3486      7400
 3487 009f FA000000 		.4byte	0xfa
 3488 00a3 6576656E 		.ascii	"eventmask_t\000"
 3488      746D6173 
 3488      6B5F7400 
 3489 00af 05010000 		.4byte	0x105
 3490 00b3 73797374 		.ascii	"systime_t\000"
 3490      696D655F 
 3490      7400
 3491 00bd 10010000 		.4byte	0x110
 3492 00c1 54687265 		.ascii	"Thread\000"
 3492      616400
 3493 00c8 6B020000 		.4byte	0x26b
 3494 00cc 54687265 		.ascii	"ThreadsQueue\000"
 3494      61647351 
 3494      75657565 
 3494      00
 3495 00d9 8D020000 		.4byte	0x28d
 3496 00dd 54687265 		.ascii	"ThreadsList\000"
 3496      6164734C 
 3496      69737400 
 3497 00e9 98020000 		.4byte	0x298
 3498 00ed 72656761 		.ascii	"regarm_t\000"
 3498      726D5F74 
 3498      00
 3499 00f6 A5020000 		.4byte	0x2a5
 3500 00fa 696E7463 		.ascii	"intctx\000"
 3500      747800
 3501 0101 33030000 		.4byte	0x333
 3502 0105 636F6E74 		.ascii	"context\000"
 3502      65787400 
 3503 010d 63030000 		.4byte	0x363
 3504 0111 4D757465 		.ascii	"Mutex\000"
 3504      7800
 3505 0117 A0030000 		.4byte	0x3a0
 3506 011b 4D757465 		.ascii	"Mutex\000"
ARM GAS  C:\Users\z80\AppData\Local\Temp\cchCGb6d.s 			page 64


 3506      7800
 3507 0121 1B010000 		.4byte	0x11b
 3508 0125 54687265 		.ascii	"Thread\000"
 3508      616400
 3509 012c 48040000 		.4byte	0x448
 3510 0130 444D415F 		.ascii	"DMA_Channel_TypeDef\000"
 3510      4368616E 
 3510      6E656C5F 
 3510      54797065 
 3510      44656600 
 3511 0144 C7040000 		.4byte	0x4c7
 3512 0148 4750494F 		.ascii	"GPIO_TypeDef\000"
 3512      5F547970 
 3512      65446566 
 3512      00
 3513 0155 72050000 		.4byte	0x572
 3514 0159 5243435F 		.ascii	"RCC_TypeDef\000"
 3514      54797065 
 3514      44656600 
 3515 0165 94060000 		.4byte	0x694
 3516 0169 5350495F 		.ascii	"SPI_TypeDef\000"
 3516      54797065 
 3516      44656600 
 3517 0175 FB060000 		.4byte	0x6fb
 3518 0179 73746D33 		.ascii	"stm32_dma_stream_t\000"
 3518      325F646D 
 3518      615F7374 
 3518      7265616D 
 3518      5F7400
 3519 018c 06070000 		.4byte	0x706
 3520 0190 73746D33 		.ascii	"stm32_dmaisr_t\000"
 3520      325F646D 
 3520      61697372 
 3520      5F7400
 3521 019f 28070000 		.4byte	0x728
 3522 01a3 696F706F 		.ascii	"ioportmask_t\000"
 3522      72746D61 
 3522      736B5F74 
 3522      00
 3523 01b0 33070000 		.4byte	0x733
 3524 01b4 696F706F 		.ascii	"ioportid_t\000"
 3524      72746964 
 3524      5F7400
 3525 01bf 76070000 		.4byte	0x776
 3526 01c3 73706973 		.ascii	"spistate_t\000"
 3526      74617465 
 3526      5F7400
 3527 01ce 81070000 		.4byte	0x781
 3528 01d2 53504944 		.ascii	"SPIDriver\000"
 3528      72697665 
 3528      7200
 3529 01dc 22080000 		.4byte	0x822
 3530 01e0 73706963 		.ascii	"spicallback_t\000"
 3530      616C6C62 
 3530      61636B5F 
 3530      7400
 3531 01ee 8C080000 		.4byte	0x88c
ARM GAS  C:\Users\z80\AppData\Local\Temp\cchCGb6d.s 			page 65


 3532 01f2 53504943 		.ascii	"SPIConfig\000"
 3532      6F6E6669 
 3532      6700
 3533 01fc 8D070000 		.4byte	0x78d
 3534 0200 53504944 		.ascii	"SPIDriver\000"
 3534      72697665 
 3534      7200
 3535 020a 00000000 		.4byte	0x0
 3536              		.section	.debug_aranges,"",%progbits
 3537 0000 74000000 		.4byte	0x74
 3538 0004 0200     		.2byte	0x2
 3539 0006 00000000 		.4byte	.Ldebug_info0
 3540 000a 04       		.byte	0x4
 3541 000b 00       		.byte	0x0
 3542 000c 0000     		.2byte	0x0
 3543 000e 0000     		.2byte	0x0
 3544 0010 00000000 		.4byte	.LFB63
 3545 0014 D8000000 		.4byte	.LFE63-.LFB63
 3546 0018 00000000 		.4byte	.LFB64
 3547 001c 1A000000 		.4byte	.LFE64-.LFB64
 3548 0020 00000000 		.4byte	.LFB65
 3549 0024 C8000000 		.4byte	.LFE65-.LFB65
 3550 0028 00000000 		.4byte	.LFB66
 3551 002c 80010000 		.4byte	.LFE66-.LFB66
 3552 0030 00000000 		.4byte	.LFB67
 3553 0034 86000000 		.4byte	.LFE67-.LFB67
 3554 0038 00000000 		.4byte	.LFB68
 3555 003c 1E000000 		.4byte	.LFE68-.LFB68
 3556 0040 00000000 		.4byte	.LFB69
 3557 0044 1E000000 		.4byte	.LFE69-.LFB69
 3558 0048 00000000 		.4byte	.LFB70
 3559 004c 7E000000 		.4byte	.LFE70-.LFB70
 3560 0050 00000000 		.4byte	.LFB71
 3561 0054 7E000000 		.4byte	.LFE71-.LFB71
 3562 0058 00000000 		.4byte	.LFB72
 3563 005c 7E000000 		.4byte	.LFE72-.LFB72
 3564 0060 00000000 		.4byte	.LFB73
 3565 0064 7E000000 		.4byte	.LFE73-.LFB73
 3566 0068 00000000 		.4byte	.LFB74
 3567 006c 34000000 		.4byte	.LFE74-.LFB74
 3568 0070 00000000 		.4byte	0x0
 3569 0074 00000000 		.4byte	0x0
 3570              		.section	.debug_ranges,"",%progbits
 3571              	.Ldebug_ranges0:
 3572 0000 00000000 		.4byte	.LFB63
 3573 0004 D8000000 		.4byte	.LFE63
 3574 0008 00000000 		.4byte	.LFB64
 3575 000c 1A000000 		.4byte	.LFE64
 3576 0010 00000000 		.4byte	.LFB65
 3577 0014 C8000000 		.4byte	.LFE65
 3578 0018 00000000 		.4byte	.LFB66
 3579 001c 80010000 		.4byte	.LFE66
 3580 0020 00000000 		.4byte	.LFB67
 3581 0024 86000000 		.4byte	.LFE67
 3582 0028 00000000 		.4byte	.LFB68
 3583 002c 1E000000 		.4byte	.LFE68
 3584 0030 00000000 		.4byte	.LFB69
ARM GAS  C:\Users\z80\AppData\Local\Temp\cchCGb6d.s 			page 66


 3585 0034 1E000000 		.4byte	.LFE69
 3586 0038 00000000 		.4byte	.LFB70
 3587 003c 7E000000 		.4byte	.LFE70
 3588 0040 00000000 		.4byte	.LFB71
 3589 0044 7E000000 		.4byte	.LFE71
 3590 0048 00000000 		.4byte	.LFB72
 3591 004c 7E000000 		.4byte	.LFE72
 3592 0050 00000000 		.4byte	.LFB73
 3593 0054 7E000000 		.4byte	.LFE73
 3594 0058 00000000 		.4byte	.LFB74
 3595 005c 34000000 		.4byte	.LFE74
 3596 0060 00000000 		.4byte	0x0
 3597 0064 00000000 		.4byte	0x0
 3598              		.section	.debug_str,"MS",%progbits,1
 3599              	.LASF2:
 3600 0000 73697A65 		.ascii	"size_t\000"
 3600      5F7400
 3601              	.LASF53:
 3602 0007 7264796D 		.ascii	"rdymsg\000"
 3602      736700
 3603              	.LASF100:
 3604 000e 5350495F 		.ascii	"SPI_ACTIVE\000"
 3604      41435449 
 3604      564500
 3605              	.LASF95:
 3606 0019 696F706F 		.ascii	"ioportmask_t\000"
 3606      72746D61 
 3606      736B5F74 
 3606      00
 3607              	.LASF108:
 3608 0026 646D6172 		.ascii	"dmarx\000"
 3608      7800
 3609              	.LASF115:
 3610 002c 73737061 		.ascii	"sspad\000"
 3610      6400
 3611              	.LASF13:
 3612 0032 6C6F6E67 		.ascii	"long long unsigned int\000"
 3612      206C6F6E 
 3612      6720756E 
 3612      7369676E 
 3612      65642069 
 3613              	.LASF77:
 3614 0049 43524350 		.ascii	"CRCPR\000"
 3614      5200
 3615              	.LASF131:
 3616 004f 6672616D 		.ascii	"frame\000"
 3616      6500
 3617              	.LASF54:
 3618 0055 65786974 		.ascii	"exitcode\000"
 3618      636F6465 
 3618      00
 3619              	.LASF92:
 3620 005e 76656374 		.ascii	"vector\000"
 3620      6F7200
 3621              	.LASF133:
 3622 0065 5F73746D 		.ascii	"_stm32_dma_streams\000"
 3622      33325F64 
ARM GAS  C:\Users\z80\AppData\Local\Temp\cchCGb6d.s 			page 67


 3622      6D615F73 
 3622      74726561 
 3622      6D7300
 3623              	.LASF103:
 3624 0078 53504944 		.ascii	"SPIDriver\000"
 3624      72697665 
 3624      7200
 3625              	.LASF114:
 3626 0082 7373706F 		.ascii	"ssport\000"
 3626      727400
 3627              	.LASF132:
 3628 0089 49544D5F 		.ascii	"ITM_RxBuffer\000"
 3628      52784275 
 3628      66666572 
 3628      00
 3629              	.LASF128:
 3630 0096 72786275 		.ascii	"rxbuf\000"
 3630      6600
 3631              	.LASF27:
 3632 009c 705F7072 		.ascii	"p_prio\000"
 3632      696F00
 3633              	.LASF12:
 3634 00a3 6C6F6E67 		.ascii	"long long int\000"
 3634      206C6F6E 
 3634      6720696E 
 3634      7400
 3635              	.LASF1:
 3636 00b1 7369676E 		.ascii	"signed char\000"
 3636      65642063 
 3636      68617200 
 3637              	.LASF62:
 3638 00bd 42535252 		.ascii	"BSRR\000"
 3638      00
 3639              	.LASF98:
 3640 00c2 5350495F 		.ascii	"SPI_STOP\000"
 3640      53544F50 
 3640      00
 3641              	.LASF43:
 3642 00cb 705F6D70 		.ascii	"p_mpool\000"
 3642      6F6F6C00 
 3643              	.LASF14:
 3644 00d3 626F6F6C 		.ascii	"bool_t\000"
 3644      5F7400
 3645              	.LASF50:
 3646 00da 6D5F7175 		.ascii	"m_queue\000"
 3646      65756500 
 3647              	.LASF19:
 3648 00e2 74736C69 		.ascii	"tslices_t\000"
 3648      6365735F 
 3648      7400
 3649              	.LASF104:
 3650 00ec 73746174 		.ascii	"state\000"
 3650      6500
 3651              	.LASF139:
 3652 00f2 2E2E2F63 		.ascii	"../chibios_2.6.3/os/hal/platforms/STM32/SPIv1/spi_l"
 3652      68696269 
 3652      6F735F32 
ARM GAS  C:\Users\z80\AppData\Local\Temp\cchCGb6d.s 			page 68


 3652      2E362E33 
 3652      2F6F732F 
 3653 0125 6C642E63 		.ascii	"ld.c\000"
 3653      00
 3654              	.LASF9:
 3655 012a 6C6F6E67 		.ascii	"long int\000"
 3655      20696E74 
 3655      00
 3656              	.LASF119:
 3657 0133 7370695F 		.ascii	"spi_lld_serve_rx_interrupt\000"
 3657      6C6C645F 
 3657      73657276 
 3657      655F7278 
 3657      5F696E74 
 3658              	.LASF66:
 3659 014e 41504232 		.ascii	"APB2RSTR\000"
 3659      52535452 
 3659      00
 3660              	.LASF17:
 3661 0157 74737461 		.ascii	"tstate_t\000"
 3661      74655F74 
 3661      00
 3662              	.LASF126:
 3663 0160 7370695F 		.ascii	"spi_lld_exchange\000"
 3663      6C6C645F 
 3663      65786368 
 3663      616E6765 
 3663      00
 3664              	.LASF34:
 3665 0171 705F7265 		.ascii	"p_refs\000"
 3665      667300
 3666              	.LASF6:
 3667 0178 75696E74 		.ascii	"uint16_t\000"
 3667      31365F74 
 3667      00
 3668              	.LASF36:
 3669 0181 705F7469 		.ascii	"p_time\000"
 3669      6D6500
 3670              	.LASF29:
 3671 0188 705F6E65 		.ascii	"p_newer\000"
 3671      77657200 
 3672              	.LASF113:
 3673 0190 656E645F 		.ascii	"end_cb\000"
 3673      636200
 3674              	.LASF110:
 3675 0197 7278646D 		.ascii	"rxdmamode\000"
 3675      616D6F64 
 3675      6500
 3676              	.LASF109:
 3677 01a1 646D6174 		.ascii	"dmatx\000"
 3677      7800
 3678              	.LASF46:
 3679 01a7 72656761 		.ascii	"regarm_t\000"
 3679      726D5F74 
 3679      00
 3680              	.LASF91:
 3681 01b0 73656C66 		.ascii	"selfindex\000"
ARM GAS  C:\Users\z80\AppData\Local\Temp\cchCGb6d.s 			page 69


 3681      696E6465 
 3681      7800
 3682              	.LASF112:
 3683 01ba 73706963 		.ascii	"spicallback_t\000"
 3683      616C6C62 
 3683      61636B5F 
 3683      7400
 3684              	.LASF129:
 3685 01c8 7370695F 		.ascii	"spi_lld_send\000"
 3685      6C6C645F 
 3685      73656E64 
 3685      00
 3686              	.LASF0:
 3687 01d5 756E7369 		.ascii	"unsigned int\000"
 3687      676E6564 
 3687      20696E74 
 3687      00
 3688              	.LASF124:
 3689 01e2 7370695F 		.ascii	"spi_lld_unselect\000"
 3689      6C6C645F 
 3689      756E7365 
 3689      6C656374 
 3689      00
 3690              	.LASF127:
 3691 01f3 74786275 		.ascii	"txbuf\000"
 3691      6600
 3692              	.LASF65:
 3693 01f9 43464752 		.ascii	"CFGR\000"
 3693      00
 3694              	.LASF59:
 3695 01fe 43504152 		.ascii	"CPAR\000"
 3695      00
 3696              	.LASF94:
 3697 0203 73746D33 		.ascii	"stm32_dmaisr_t\000"
 3697      325F646D 
 3697      61697372 
 3697      5F7400
 3698              	.LASF38:
 3699 0212 705F6D73 		.ascii	"p_msgqueue\000"
 3699      67717565 
 3699      756500
 3700              	.LASF64:
 3701 021d 4750494F 		.ascii	"GPIO_TypeDef\000"
 3701      5F547970 
 3701      65446566 
 3701      00
 3702              	.LASF72:
 3703 022a 5243435F 		.ascii	"RCC_TypeDef\000"
 3703      54797065 
 3703      44656600 
 3704              	.LASF63:
 3705 0236 4C434B52 		.ascii	"LCKR\000"
 3705      00
 3706              	.LASF90:
 3707 023b 69736869 		.ascii	"ishift\000"
 3707      667400
 3708              	.LASF48:
ARM GAS  C:\Users\z80\AppData\Local\Temp\cchCGb6d.s 			page 70


 3709 0242 636F6E74 		.ascii	"context\000"
 3709      65787400 
 3710              	.LASF7:
 3711 024a 73686F72 		.ascii	"short unsigned int\000"
 3711      7420756E 
 3711      7369676E 
 3711      65642069 
 3711      6E7400
 3712              	.LASF21:
 3713 025d 6D73675F 		.ascii	"msg_t\000"
 3713      7400
 3714              	.LASF137:
 3715 0263 64756D6D 		.ascii	"dummyrx\000"
 3715      79727800 
 3716              	.LASF16:
 3717 026b 746D6F64 		.ascii	"tmode_t\000"
 3717      655F7400 
 3718              	.LASF45:
 3719 0273 54687265 		.ascii	"ThreadsList\000"
 3719      6164734C 
 3719      69737400 
 3720              	.LASF22:
 3721 027f 6576656E 		.ascii	"eventmask_t\000"
 3721      746D6173 
 3721      6B5F7400 
 3722              	.LASF140:
 3723 028b 433A5C70 		.ascii	"C:\\projects\\clock.git\\firmware\\firmware\000"
 3723      726F6A65 
 3723      6374735C 
 3723      636C6F63 
 3723      6B2E6769 
 3724              	.LASF60:
 3725 02b3 434D4152 		.ascii	"CMAR\000"
 3725      00
 3726              	.LASF141:
 3727 02b8 7370695F 		.ascii	"spi_lld_init\000"
 3727      6C6C645F 
 3727      696E6974 
 3727      00
 3728              	.LASF24:
 3729 02c5 54687265 		.ascii	"Thread\000"
 3729      616400
 3730              	.LASF130:
 3731 02cc 7370695F 		.ascii	"spi_lld_receive\000"
 3731      6C6C645F 
 3731      72656365 
 3731      69766500 
 3732              	.LASF85:
 3733 02dc 49325350 		.ascii	"I2SPR\000"
 3733      5200
 3734              	.LASF49:
 3735 02e2 4D757465 		.ascii	"Mutex\000"
 3735      7800
 3736              	.LASF83:
 3737 02e8 49325343 		.ascii	"I2SCFGR\000"
 3737      46475200 
 3738              	.LASF25:
ARM GAS  C:\Users\z80\AppData\Local\Temp\cchCGb6d.s 			page 71


 3739 02f0 705F6E65 		.ascii	"p_next\000"
 3739      787400
 3740              	.LASF122:
 3741 02f7 7370695F 		.ascii	"spi_lld_stop\000"
 3741      6C6C645F 
 3741      73746F70 
 3741      00
 3742              	.LASF30:
 3743 0304 705F6F6C 		.ascii	"p_older\000"
 3743      64657200 
 3744              	.LASF44:
 3745 030c 54687265 		.ascii	"ThreadsQueue\000"
 3745      61647351 
 3745      75657565 
 3745      00
 3746              	.LASF111:
 3747 0319 7478646D 		.ascii	"txdmamode\000"
 3747      616D6F64 
 3747      6500
 3748              	.LASF67:
 3749 0323 41504231 		.ascii	"APB1RSTR\000"
 3749      52535452 
 3749      00
 3750              	.LASF61:
 3751 032c 444D415F 		.ascii	"DMA_Channel_TypeDef\000"
 3751      4368616E 
 3751      6E656C5F 
 3751      54797065 
 3751      44656600 
 3752              	.LASF81:
 3753 0340 54584352 		.ascii	"TXCRCR\000"
 3753      435200
 3754              	.LASF73:
 3755 0347 52455345 		.ascii	"RESERVED0\000"
 3755      52564544 
 3755      3000
 3756              	.LASF74:
 3757 0351 52455345 		.ascii	"RESERVED1\000"
 3757      52564544 
 3757      3100
 3758              	.LASF75:
 3759 035b 52455345 		.ascii	"RESERVED2\000"
 3759      52564544 
 3759      3200
 3760              	.LASF76:
 3761 0365 52455345 		.ascii	"RESERVED3\000"
 3761      52564544 
 3761      3300
 3762              	.LASF78:
 3763 036f 52455345 		.ascii	"RESERVED4\000"
 3763      52564544 
 3763      3400
 3764              	.LASF26:
 3765 0379 705F7072 		.ascii	"p_prev\000"
 3765      657600
 3766              	.LASF82:
 3767 0380 52455345 		.ascii	"RESERVED6\000"
ARM GAS  C:\Users\z80\AppData\Local\Temp\cchCGb6d.s 			page 72


 3767      52564544 
 3767      3600
 3768              	.LASF84:
 3769 038a 52455345 		.ascii	"RESERVED7\000"
 3769      52564544 
 3769      3700
 3770              	.LASF86:
 3771 0394 52455345 		.ascii	"RESERVED8\000"
 3771      52564544 
 3771      3800
 3772              	.LASF20:
 3773 039e 74707269 		.ascii	"tprio_t\000"
 3773      6F5F7400 
 3774              	.LASF107:
 3775 03a6 6D757465 		.ascii	"mutex\000"
 3775      7800
 3776              	.LASF15:
 3777 03ac 5F426F6F 		.ascii	"_Bool\000"
 3777      6C00
 3778              	.LASF8:
 3779 03b2 696E7433 		.ascii	"int32_t\000"
 3779      325F7400 
 3780              	.LASF4:
 3781 03ba 756E7369 		.ascii	"unsigned char\000"
 3781      676E6564 
 3781      20636861 
 3781      7200
 3782              	.LASF93:
 3783 03c8 73746D33 		.ascii	"stm32_dma_stream_t\000"
 3783      325F646D 
 3783      615F7374 
 3783      7265616D 
 3783      5F7400
 3784              	.LASF134:
 3785 03db 53504944 		.ascii	"SPID1\000"
 3785      3100
 3786              	.LASF135:
 3787 03e1 53504944 		.ascii	"SPID2\000"
 3787      3200
 3788              	.LASF136:
 3789 03e7 64756D6D 		.ascii	"dummytx\000"
 3789      79747800 
 3790              	.LASF32:
 3791 03ef 705F7374 		.ascii	"p_state\000"
 3791      61746500 
 3792              	.LASF41:
 3793 03f7 705F6D74 		.ascii	"p_mtxlist\000"
 3793      786C6973 
 3793      7400
 3794              	.LASF5:
 3795 0401 73686F72 		.ascii	"short int\000"
 3795      7420696E 
 3795      7400
 3796              	.LASF35:
 3797 040b 705F7072 		.ascii	"p_preempt\000"
 3797      65656D70 
 3797      7400
ARM GAS  C:\Users\z80\AppData\Local\Temp\cchCGb6d.s 			page 73


 3798              	.LASF56:
 3799 0415 65776D61 		.ascii	"ewmask\000"
 3799      736B00
 3800              	.LASF33:
 3801 041c 705F666C 		.ascii	"p_flags\000"
 3801      61677300 
 3802              	.LASF69:
 3803 0424 41504232 		.ascii	"APB2ENR\000"
 3803      454E5200 
 3804              	.LASF88:
 3805 042c 6368616E 		.ascii	"channel\000"
 3805      6E656C00 
 3806              	.LASF40:
 3807 0434 705F6570 		.ascii	"p_epending\000"
 3807      656E6469 
 3807      6E6700
 3808              	.LASF89:
 3809 043f 69666372 		.ascii	"ifcr\000"
 3809      00
 3810              	.LASF80:
 3811 0444 52455345 		.ascii	"RESERVED5\000"
 3811      52564544 
 3811      3500
 3812              	.LASF10:
 3813 044e 75696E74 		.ascii	"uint32_t\000"
 3813      33325F74 
 3813      00
 3814              	.LASF18:
 3815 0457 74726566 		.ascii	"trefs_t\000"
 3815      735F7400 
 3816              	.LASF11:
 3817 045f 6C6F6E67 		.ascii	"long unsigned int\000"
 3817      20756E73 
 3817      69676E65 
 3817      6420696E 
 3817      7400
 3818              	.LASF87:
 3819 0471 5350495F 		.ascii	"SPI_TypeDef\000"
 3819      54797065 
 3819      44656600 
 3820              	.LASF57:
 3821 047d 63686172 		.ascii	"char\000"
 3821      00
 3822              	.LASF101:
 3823 0482 5350495F 		.ascii	"SPI_COMPLETE\000"
 3823      434F4D50 
 3823      4C455445 
 3823      00
 3824              	.LASF105:
 3825 048f 636F6E66 		.ascii	"config\000"
 3825      696700
 3826              	.LASF102:
 3827 0496 73706973 		.ascii	"spistate_t\000"
 3827      74617465 
 3827      5F7400
 3828              	.LASF52:
 3829 04a1 6D5F6E65 		.ascii	"m_next\000"
ARM GAS  C:\Users\z80\AppData\Local\Temp\cchCGb6d.s 			page 74


 3829      787400
 3830              	.LASF23:
 3831 04a8 73797374 		.ascii	"systime_t\000"
 3831      696D655F 
 3831      7400
 3832              	.LASF42:
 3833 04b2 705F7265 		.ascii	"p_realprio\000"
 3833      616C7072 
 3833      696F00
 3834              	.LASF106:
 3835 04bd 74687265 		.ascii	"thread\000"
 3835      616400
 3836              	.LASF70:
 3837 04c4 41504231 		.ascii	"APB1ENR\000"
 3837      454E5200 
 3838              	.LASF96:
 3839 04cc 696F706F 		.ascii	"ioportid_t\000"
 3839      72746964 
 3839      5F7400
 3840              	.LASF123:
 3841 04d7 7370695F 		.ascii	"spi_lld_select\000"
 3841      6C6C645F 
 3841      73656C65 
 3841      637400
 3842              	.LASF47:
 3843 04e6 696E7463 		.ascii	"intctx\000"
 3843      747800
 3844              	.LASF99:
 3845 04ed 5350495F 		.ascii	"SPI_READY\000"
 3845      52454144 
 3845      5900
 3846              	.LASF97:
 3847 04f7 5350495F 		.ascii	"SPI_UNINIT\000"
 3847      554E494E 
 3847      495400
 3848              	.LASF125:
 3849 0502 7370695F 		.ascii	"spi_lld_ignore\000"
 3849      6C6C645F 
 3849      69676E6F 
 3849      726500
 3850              	.LASF58:
 3851 0511 434E4454 		.ascii	"CNDTR\000"
 3851      5200
 3852              	.LASF71:
 3853 0517 42444352 		.ascii	"BDCR\000"
 3853      00
 3854              	.LASF79:
 3855 051c 52584352 		.ascii	"RXCRCR\000"
 3855      435200
 3856              	.LASF121:
 3857 0523 7370695F 		.ascii	"spi_lld_start\000"
 3857      6C6C645F 
 3857      73746172 
 3857      7400
 3858              	.LASF3:
 3859 0531 75696E74 		.ascii	"uint8_t\000"
 3859      385F7400 
ARM GAS  C:\Users\z80\AppData\Local\Temp\cchCGb6d.s 			page 75


 3860              	.LASF117:
 3861 0539 73706970 		.ascii	"spip\000"
 3861      00
 3862              	.LASF118:
 3863 053e 666C6167 		.ascii	"flags\000"
 3863      7300
 3864              	.LASF138:
 3865 0544 474E5520 		.ascii	"GNU C 4.5.0\000"
 3865      4320342E 
 3865      352E3000 
 3866              	.LASF55:
 3867 0550 77746F62 		.ascii	"wtobjp\000"
 3867      6A7000
 3868              	.LASF120:
 3869 0557 7370695F 		.ascii	"spi_lld_serve_tx_interrupt\000"
 3869      6C6C645F 
 3869      73657276 
 3869      655F7478 
 3869      5F696E74 
 3870              	.LASF31:
 3871 0572 705F6E61 		.ascii	"p_name\000"
 3871      6D6500
 3872              	.LASF142:
 3873 0579 7370695F 		.ascii	"spi_lld_polled_exchange\000"
 3873      6C6C645F 
 3873      706F6C6C 
 3873      65645F65 
 3873      78636861 
 3874              	.LASF116:
 3875 0591 53504943 		.ascii	"SPIConfig\000"
 3875      6F6E6669 
 3875      6700
 3876              	.LASF39:
 3877 059b 705F6D73 		.ascii	"p_msg\000"
 3877      6700
 3878              	.LASF51:
 3879 05a1 6D5F6F77 		.ascii	"m_owner\000"
 3879      6E657200 
 3880              	.LASF28:
 3881 05a9 705F6374 		.ascii	"p_ctx\000"
 3881      7800
 3882              	.LASF37:
 3883 05af 705F7761 		.ascii	"p_waiting\000"
 3883      6974696E 
 3883      6700
 3884              	.LASF68:
 3885 05b9 41484245 		.ascii	"AHBENR\000"
 3885      4E5200
 3886              		.ident	"GCC: (GNU) 4.5.0"
ARM GAS  C:\Users\z80\AppData\Local\Temp\cchCGb6d.s 			page 76


DEFINED SYMBOLS
                            *ABS*:00000000 spi_lld.c
C:\Users\z80\AppData\Local\Temp\cchCGb6d.s:28     .bss.SPID1:00000000 SPID1
C:\Users\z80\AppData\Local\Temp\cchCGb6d.s:25     .bss.SPID1:00000000 $d
C:\Users\z80\AppData\Local\Temp\cchCGb6d.s:35     .bss.SPID2:00000000 SPID2
C:\Users\z80\AppData\Local\Temp\cchCGb6d.s:32     .bss.SPID2:00000000 $d
C:\Users\z80\AppData\Local\Temp\cchCGb6d.s:38     .bss.dummytx:00000000 $d
C:\Users\z80\AppData\Local\Temp\cchCGb6d.s:41     .bss.dummytx:00000000 dummytx
C:\Users\z80\AppData\Local\Temp\cchCGb6d.s:44     .bss.dummyrx:00000000 $d
C:\Users\z80\AppData\Local\Temp\cchCGb6d.s:47     .bss.dummyrx:00000000 dummyrx
C:\Users\z80\AppData\Local\Temp\cchCGb6d.s:50     .text.spi_lld_serve_rx_interrupt:00000000 $t
C:\Users\z80\AppData\Local\Temp\cchCGb6d.s:55     .text.spi_lld_serve_rx_interrupt:00000000 spi_lld_serve_rx_interrupt
C:\Users\z80\AppData\Local\Temp\cchCGb6d.s:189    .text.spi_lld_serve_tx_interrupt:00000000 $t
C:\Users\z80\AppData\Local\Temp\cchCGb6d.s:194    .text.spi_lld_serve_tx_interrupt:00000000 spi_lld_serve_tx_interrupt
C:\Users\z80\AppData\Local\Temp\cchCGb6d.s:224    .text.spi_lld_init:00000000 $t
C:\Users\z80\AppData\Local\Temp\cchCGb6d.s:230    .text.spi_lld_init:00000000 spi_lld_init
C:\Users\z80\AppData\Local\Temp\cchCGb6d.s:311    .text.spi_lld_init:000000b8 $d
C:\Users\z80\AppData\Local\Temp\cchCGb6d.s:319    .text.spi_lld_start:00000000 $t
C:\Users\z80\AppData\Local\Temp\cchCGb6d.s:325    .text.spi_lld_start:00000000 spi_lld_start
C:\Users\z80\AppData\Local\Temp\cchCGb6d.s:523    .text.spi_lld_stop:00000000 $t
C:\Users\z80\AppData\Local\Temp\cchCGb6d.s:529    .text.spi_lld_stop:00000000 spi_lld_stop
C:\Users\z80\AppData\Local\Temp\cchCGb6d.s:605    .text.spi_lld_select:00000000 $t
C:\Users\z80\AppData\Local\Temp\cchCGb6d.s:611    .text.spi_lld_select:00000000 spi_lld_select
C:\Users\z80\AppData\Local\Temp\cchCGb6d.s:639    .text.spi_lld_unselect:00000000 $t
C:\Users\z80\AppData\Local\Temp\cchCGb6d.s:645    .text.spi_lld_unselect:00000000 spi_lld_unselect
C:\Users\z80\AppData\Local\Temp\cchCGb6d.s:673    .text.spi_lld_ignore:00000000 $t
C:\Users\z80\AppData\Local\Temp\cchCGb6d.s:679    .text.spi_lld_ignore:00000000 spi_lld_ignore
C:\Users\z80\AppData\Local\Temp\cchCGb6d.s:758    .text.spi_lld_exchange:00000000 $t
C:\Users\z80\AppData\Local\Temp\cchCGb6d.s:764    .text.spi_lld_exchange:00000000 spi_lld_exchange
C:\Users\z80\AppData\Local\Temp\cchCGb6d.s:845    .text.spi_lld_send:00000000 $t
C:\Users\z80\AppData\Local\Temp\cchCGb6d.s:851    .text.spi_lld_send:00000000 spi_lld_send
C:\Users\z80\AppData\Local\Temp\cchCGb6d.s:931    .text.spi_lld_receive:00000000 $t
C:\Users\z80\AppData\Local\Temp\cchCGb6d.s:937    .text.spi_lld_receive:00000000 spi_lld_receive
C:\Users\z80\AppData\Local\Temp\cchCGb6d.s:1017   .text.spi_lld_polled_exchange:00000000 $t
C:\Users\z80\AppData\Local\Temp\cchCGb6d.s:1023   .text.spi_lld_polled_exchange:00000000 spi_lld_polled_exchange
                     .debug_frame:00000010 $d
C:\Users\z80\AppData\Local\Temp\cchCGb6d.s:318    .text.spi_lld_init:000000c8 $t

UNDEFINED SYMBOLS
port_halt
chSchReadyI
spiObjectInit
_stm32_dma_streams
dmaStreamAllocate
dmaStreamRelease
