ARM GAS  C:\Users\z80\AppData\Local\Temp\cchCGb6d.s 			page 1


   1              		.syntax unified
   2              		.cpu cortex-m3
   3              		.fpu softvfp
   4              		.eabi_attribute 20, 1
   5              		.eabi_attribute 21, 1
   6              		.eabi_attribute 23, 3
   7              		.eabi_attribute 24, 1
   8              		.eabi_attribute 25, 1
   9              		.eabi_attribute 26, 1
  10              		.eabi_attribute 30, 6
  11              		.eabi_attribute 18, 4
  12              		.thumb
  13              		.file	"spi_lld.c"
  20 0000 D2030000 		.text
  20      02006D02 
  20      00000201 
  20      FB0E0D00 
  20      01010101 
  21              	.Ltext0:
  22              		.cfi_sections	.debug_frame
  23              		.global	SPID1
  24              		.section	.bss.SPID1,"aw",%nobits
  25              		.align	2
  26              		.type	SPID1, %object
  27              		.size	SPID1, 48
  28              	SPID1:
  29 0000 00000000 		.space	48
  29      00000000 
  29      00000000 
  29      00000000 
  29      00000000 
  30              		.global	SPID2
  31              		.section	.bss.SPID2,"aw",%nobits
  32              		.align	2
  33              		.type	SPID2, %object
  34              		.size	SPID2, 48
  35              	SPID2:
  36 0000 00000000 		.space	48
  36      00000000 
  36      00000000 
  36      00000000 
  36      00000000 
  37              		.section	.bss.dummytx,"aw",%nobits
  38              		.align	1
  39              		.type	dummytx, %object
  40              		.size	dummytx, 2
  41              	dummytx:
  42 0000 0000     		.space	2
  43              		.section	.bss.dummyrx,"aw",%nobits
  44              		.align	1
  45              		.type	dummyrx, %object
ARM GAS  C:\Users\z80\AppData\Local\Temp\cchCGb6d.s 			page 2


  46              		.size	dummyrx, 2
  47              	dummyrx:
  48 0000 0000     		.space	2
  49              		.section	.text.spi_lld_serve_rx_interrupt,"ax",%progbits
  50              		.align	2
  51              		.p2align 4,,15
  52              		.thumb
  53              		.thumb_func
  54              		.type	spi_lld_serve_rx_interrupt, %function
  55              	spi_lld_serve_rx_interrupt:
  56              	.LFB63:
  57              		.file 1 "../chibios_2.6.3/os/hal/platforms/STM32/SPIv1/spi_lld.c"
  58              		.loc 1 133 0
  59              		.cfi_startproc
  60              		@ args = 0, pretend = 0, frame = 16
  61              		@ frame_needed = 0, uses_anonymous_args = 0
  62 0000 00B5     		push	{lr}
  63              	.LCFI0:
  64              		.cfi_def_cfa_offset 4
  65 0002 85B0     		sub	sp, sp, #20
  66              	.LCFI1:
  67              		.cfi_def_cfa_offset 24
  68 0004 0190     		str	r0, [sp, #4]
  69 0006 0091     		str	r1, [sp, #0]
  70              		.loc 1 137 0
  71 0008 009B     		ldr	r3, [sp, #0]
  72 000a 03F00803 		and	r3, r3, #8
  73 000e 002B     		cmp	r3, #0
  74 0010 01D0     		beq	.L2
  75              		.cfi_offset 14, -4
  76              		.loc 1 138 0
  77 0012 FFF7FEFF 		bl	port_halt
  78              	.L2:
  79              		.loc 1 145 0
  80 0016 019B     		ldr	r3, [sp, #4]
  81 0018 5B6A     		ldr	r3, [r3, #36]
  82 001a 1B68     		ldr	r3, [r3, #0]
  83 001c 019A     		ldr	r2, [sp, #4]
  84 001e 526A     		ldr	r2, [r2, #36]
  85 0020 1268     		ldr	r2, [r2, #0]
  86 0022 1268     		ldr	r2, [r2, #0]
  87 0024 22F00F02 		bic	r2, r2, #15
  88 0028 1A60     		str	r2, [r3, #0]
  89 002a 019B     		ldr	r3, [sp, #4]
  90 002c 5B6A     		ldr	r3, [r3, #36]
  91 002e 5B68     		ldr	r3, [r3, #4]
  92 0030 019A     		ldr	r2, [sp, #4]
  93 0032 526A     		ldr	r2, [r2, #36]
  94 0034 127A     		ldrb	r2, [r2, #8]	@ zero_extendqisi2
  95 0036 4FF00F01 		mov	r1, #15
  96 003a 01FA02F2 		lsl	r2, r1, r2
  97 003e 1A60     		str	r2, [r3, #0]
  98              		.loc 1 146 0
  99 0040 019B     		ldr	r3, [sp, #4]
 100 0042 1B6A     		ldr	r3, [r3, #32]
 101 0044 1B68     		ldr	r3, [r3, #0]
 102 0046 019A     		ldr	r2, [sp, #4]
ARM GAS  C:\Users\z80\AppData\Local\Temp\cchCGb6d.s 			page 3


 103 0048 126A     		ldr	r2, [r2, #32]
 104 004a 1268     		ldr	r2, [r2, #0]
 105 004c 1268     		ldr	r2, [r2, #0]
 106 004e 22F00F02 		bic	r2, r2, #15
 107 0052 1A60     		str	r2, [r3, #0]
 108 0054 019B     		ldr	r3, [sp, #4]
 109 0056 1B6A     		ldr	r3, [r3, #32]
 110 0058 5B68     		ldr	r3, [r3, #4]
 111 005a 019A     		ldr	r2, [sp, #4]
 112 005c 126A     		ldr	r2, [r2, #32]
 113 005e 127A     		ldrb	r2, [r2, #8]	@ zero_extendqisi2
 114 0060 4FF00F01 		mov	r1, #15
 115 0064 01FA02F2 		lsl	r2, r1, r2
 116 0068 1A60     		str	r2, [r3, #0]
 117              		.loc 1 150 0
 118 006a 019B     		ldr	r3, [sp, #4]
 119 006c 5B68     		ldr	r3, [r3, #4]
 120 006e 1B68     		ldr	r3, [r3, #0]
 121 0070 002B     		cmp	r3, #0
 122 0072 11D0     		beq	.L3
 123              		.loc 1 150 0 is_stmt 0 discriminator 1
 124 0074 019B     		ldr	r3, [sp, #4]
 125 0076 4FF00402 		mov	r2, #4
 126 007a 1A70     		strb	r2, [r3, #0]
 127 007c 019B     		ldr	r3, [sp, #4]
 128 007e 5B68     		ldr	r3, [r3, #4]
 129 0080 1B68     		ldr	r3, [r3, #0]
 130 0082 0198     		ldr	r0, [sp, #4]
 131 0084 9847     		blx	r3
 132 0086 019B     		ldr	r3, [sp, #4]
 133 0088 1B78     		ldrb	r3, [r3, #0]	@ zero_extendqisi2
 134 008a 042B     		cmp	r3, #4
 135 008c 08D1     		bne	.L5
 136              		.loc 1 150 0 discriminator 3
 137 008e 019B     		ldr	r3, [sp, #4]
 138 0090 4FF00202 		mov	r2, #2
 139 0094 1A70     		strb	r2, [r3, #0]
 140 0096 03E0     		b	.L5
 141              	.L3:
 142              		.loc 1 150 0 discriminator 2
 143 0098 019B     		ldr	r3, [sp, #4]
 144 009a 4FF00202 		mov	r2, #2
 145 009e 1A70     		strb	r2, [r3, #0]
 146              	.L5:
 147              	.LBB2:
 148              		.loc 1 150 0 discriminator 4
 149 00a0 4FF02003 		mov	r3, #32
 150              	@ 150 "../chibios_2.6.3/os/hal/platforms/STM32/SPIv1/spi_lld.c" 1
 151 00a4 83F31188 		msr     BASEPRI, r3
 152              	@ 0 "" 2
 153              		.thumb
 154              	.LBE2:
 155 00a8 019B     		ldr	r3, [sp, #4]
 156 00aa 9B68     		ldr	r3, [r3, #8]
 157 00ac 002B     		cmp	r3, #0
 158 00ae 0DD0     		beq	.L6
 159              	.LBB3:
ARM GAS  C:\Users\z80\AppData\Local\Temp\cchCGb6d.s 			page 4


 160              		.loc 1 150 0 discriminator 5
 161 00b0 019B     		ldr	r3, [sp, #4]
 162 00b2 9B68     		ldr	r3, [r3, #8]
 163 00b4 0393     		str	r3, [sp, #12]
 164 00b6 019B     		ldr	r3, [sp, #4]
 165 00b8 4FF00002 		mov	r2, #0
 166 00bc 9A60     		str	r2, [r3, #8]
 167 00be 039B     		ldr	r3, [sp, #12]
 168 00c0 4FF00002 		mov	r2, #0
 169 00c4 5A62     		str	r2, [r3, #36]
 170 00c6 0398     		ldr	r0, [sp, #12]
 171 00c8 FFF7FEFF 		bl	chSchReadyI
 172              	.L6:
 173              	.LBE3:
 174              	.LBB4:
 175              		.loc 1 150 0 discriminator 6
 176 00cc 4FF00003 		mov	r3, #0
 177              	@ 150 "../chibios_2.6.3/os/hal/platforms/STM32/SPIv1/spi_lld.c" 1
 178 00d0 83F31188 		msr     BASEPRI, r3
 179              	@ 0 "" 2
 180              		.thumb
 181              	.LBE4:
 182              		.loc 1 151 0 is_stmt 1 discriminator 6
 183 00d4 05B0     		add	sp, sp, #20
 184 00d6 00BD     		pop	{pc}
 185              		.cfi_endproc
 186              	.LFE63:
 187              		.size	spi_lld_serve_rx_interrupt, .-spi_lld_serve_rx_interrupt
 188 00d8 AFF30080 		.section	.text.spi_lld_serve_tx_interrupt,"ax",%progbits
 188      AFF30080 
 189              		.align	2
 190              		.p2align 4,,15
 191              		.thumb
 192              		.thumb_func
 193              		.type	spi_lld_serve_tx_interrupt, %function
 194              	spi_lld_serve_tx_interrupt:
 195              	.LFB64:
 196              		.loc 1 159 0
 197              		.cfi_startproc
 198              		@ args = 0, pretend = 0, frame = 8
 199              		@ frame_needed = 0, uses_anonymous_args = 0
 200 0000 00B5     		push	{lr}
 201              	.LCFI2:
 202              		.cfi_def_cfa_offset 4
 203 0002 83B0     		sub	sp, sp, #12
 204              	.LCFI3:
 205              		.cfi_def_cfa_offset 16
 206 0004 0190     		str	r0, [sp, #4]
 207 0006 0091     		str	r1, [sp, #0]
 208              		.loc 1 164 0
 209 0008 009B     		ldr	r3, [sp, #0]
 210 000a 03F00803 		and	r3, r3, #8
 211 000e 002B     		cmp	r3, #0
 212 0010 01D0     		beq	.L7
 213              		.cfi_offset 14, -4
 214              		.loc 1 165 0
 215 0012 FFF7FEFF 		bl	port_halt
ARM GAS  C:\Users\z80\AppData\Local\Temp\cchCGb6d.s 			page 5


 216              	.L7:
 217              		.loc 1 171 0
 218 0016 03B0     		add	sp, sp, #12
 219 0018 00BD     		pop	{pc}
 220              		.cfi_endproc
 221              	.LFE64:
 222              		.size	spi_lld_serve_tx_interrupt, .-spi_lld_serve_tx_interrupt
 223 001a 00BFAFF3 		.section	.text.spi_lld_init,"ax",%progbits
 223      0080
 224              		.align	2
 225              		.p2align 4,,15
 226              		.global	spi_lld_init
 227              		.thumb
 228              		.thumb_func
 229              		.type	spi_lld_init, %function
 230              	spi_lld_init:
 231              	.LFB65:
 232              		.loc 1 186 0
 233              		.cfi_startproc
 234              		@ args = 0, pretend = 0, frame = 0
 235              		@ frame_needed = 0, uses_anonymous_args = 0
 236 0000 08B5     		push	{r3, lr}
 237              	.LCFI4:
 238              		.cfi_def_cfa_offset 8
 239              		.loc 1 188 0
 240 0002 40F20003 		movw	r3, #:lower16:dummytx
 241              		.cfi_offset 14, -4
 242              		.cfi_offset 3, -8
 243 0006 C0F20003 		movt	r3, #:upper16:dummytx
 244 000a 4FF6FF72 		movw	r2, #65535
 245 000e 1A80     		strh	r2, [r3, #0]	@ movhi
 246              		.loc 1 191 0
 247 0010 40F20000 		movw	r0, #:lower16:SPID1
 248 0014 C0F20000 		movt	r0, #:upper16:SPID1
 249 0018 FFF7FEFF 		bl	spiObjectInit
 250              		.loc 1 192 0
 251 001c 40F20003 		movw	r3, #:lower16:SPID1
 252 0020 C0F20003 		movt	r3, #:upper16:SPID1
 253 0024 4FF44052 		mov	r2, #12288
 254 0028 C4F20102 		movt	r2, 16385
 255 002c DA61     		str	r2, [r3, #28]
 256              		.loc 1 193 0
 257 002e 40F20003 		movw	r3, #:lower16:SPID1
 258 0032 C0F20003 		movt	r3, #:upper16:SPID1
 259 0036 204A     		ldr	r2, .L10
 260 0038 1A62     		str	r2, [r3, #32]
 261              		.loc 1 194 0
 262 003a 40F20003 		movw	r3, #:lower16:SPID1
 263 003e C0F20003 		movt	r3, #:upper16:SPID1
 264 0042 1E4A     		ldr	r2, .L10+4
 265 0044 5A62     		str	r2, [r3, #36]
 266              		.loc 1 195 0
 267 0046 40F20003 		movw	r3, #:lower16:SPID1
 268 004a C0F20003 		movt	r3, #:upper16:SPID1
 269 004e 41F20A02 		movw	r2, #4106
 270 0052 9A62     		str	r2, [r3, #40]
 271              		.loc 1 201 0
ARM GAS  C:\Users\z80\AppData\Local\Temp\cchCGb6d.s 			page 6


 272 0054 40F20003 		movw	r3, #:lower16:SPID1
 273 0058 C0F20003 		movt	r3, #:upper16:SPID1
 274 005c 41F21802 		movw	r2, #4120
 275 0060 DA62     		str	r2, [r3, #44]
 276              		.loc 1 209 0
 277 0062 40F20000 		movw	r0, #:lower16:SPID2
 278 0066 C0F20000 		movt	r0, #:upper16:SPID2
 279 006a FFF7FEFF 		bl	spiObjectInit
 280              		.loc 1 210 0
 281 006e 40F20003 		movw	r3, #:lower16:SPID2
 282 0072 C0F20003 		movt	r3, #:upper16:SPID2
 283 0076 4FF46052 		mov	r2, #14336
 284 007a C4F20002 		movt	r2, 16384
 285 007e DA61     		str	r2, [r3, #28]
 286              		.loc 1 211 0
 287 0080 40F20003 		movw	r3, #:lower16:SPID2
 288 0084 C0F20003 		movt	r3, #:upper16:SPID2
 289 0088 0D4A     		ldr	r2, .L10+8
 290 008a 1A62     		str	r2, [r3, #32]
 291              		.loc 1 212 0
 292 008c 40F20003 		movw	r3, #:lower16:SPID2
 293 0090 C0F20003 		movt	r3, #:upper16:SPID2
 294 0094 0B4A     		ldr	r2, .L10+12
 295 0096 5A62     		str	r2, [r3, #36]
 296              		.loc 1 213 0
 297 0098 40F20003 		movw	r3, #:lower16:SPID2
 298 009c C0F20003 		movt	r3, #:upper16:SPID2
 299 00a0 41F20A02 		movw	r2, #4106
 300 00a4 9A62     		str	r2, [r3, #40]
 301              		.loc 1 219 0
 302 00a6 40F20003 		movw	r3, #:lower16:SPID2
 303 00aa C0F20003 		movt	r3, #:upper16:SPID2
 304 00ae 41F21802 		movw	r2, #4120
 305 00b2 DA62     		str	r2, [r3, #44]
 306              		.loc 1 297 0
 307 00b4 08BD     		pop	{r3, pc}
 308              	.L11:
 309 00b6 00BF     		.align	2
 310              	.L10:
 311 00b8 0C000000 		.word	_stm32_dma_streams+12
 312 00bc 18000000 		.word	_stm32_dma_streams+24
 313 00c0 24000000 		.word	_stm32_dma_streams+36
 314 00c4 30000000 		.word	_stm32_dma_streams+48
 315              		.cfi_endproc
 316              	.LFE65:
 317              		.size	spi_lld_init, .-spi_lld_init
 318 00c8 AFF30080 		.section	.text.spi_lld_start,"ax",%progbits
 318      AFF30080 
 319              		.align	2
 320              		.p2align 4,,15
 321              		.global	spi_lld_start
 322              		.thumb
 323              		.thumb_func
 324              		.type	spi_lld_start, %function
 325              	spi_lld_start:
 326              	.LFB66:
 327              		.loc 1 306 0
ARM GAS  C:\Users\z80\AppData\Local\Temp\cchCGb6d.s 			page 7


 328              		.cfi_startproc
 329              		@ args = 0, pretend = 0, frame = 16
 330              		@ frame_needed = 0, uses_anonymous_args = 0
 331 0000 00B5     		push	{lr}
 332              	.LCFI5:
 333              		.cfi_def_cfa_offset 4
 334 0002 85B0     		sub	sp, sp, #20
 335              	.LCFI6:
 336              		.cfi_def_cfa_offset 24
 337 0004 0190     		str	r0, [sp, #4]
 338              		.loc 1 309 0
 339 0006 019B     		ldr	r3, [sp, #4]
 340 0008 1B78     		ldrb	r3, [r3, #0]	@ zero_extendqisi2
 341 000a 012B     		cmp	r3, #1
 342 000c 75D1     		bne	.L13
 343              		.cfi_offset 14, -4
 344              		.loc 1 311 0
 345 000e 019A     		ldr	r2, [sp, #4]
 346 0010 40F20003 		movw	r3, #:lower16:SPID1
 347 0014 C0F20003 		movt	r3, #:upper16:SPID1
 348 0018 9A42     		cmp	r2, r3
 349 001a 2BD1     		bne	.L14
 350              	.LBB5:
 351              		.loc 1 313 0
 352 001c 019B     		ldr	r3, [sp, #4]
 353 001e 1A6A     		ldr	r2, [r3, #32]
 354 0020 40F20003 		movw	r3, #:lower16:spi_lld_serve_rx_interrupt
 355 0024 C0F20003 		movt	r3, #:upper16:spi_lld_serve_rx_interrupt
 356 0028 1046     		mov	r0, r2
 357 002a 4FF00A01 		mov	r1, #10
 358 002e 1A46     		mov	r2, r3
 359 0030 019B     		ldr	r3, [sp, #4]
 360 0032 FFF7FEFF 		bl	dmaStreamAllocate
 361 0036 0346     		mov	r3, r0
 362 0038 8DF80F30 		strb	r3, [sp, #15]
 363              		.loc 1 318 0
 364 003c 019B     		ldr	r3, [sp, #4]
 365 003e 5A6A     		ldr	r2, [r3, #36]
 366 0040 40F20003 		movw	r3, #:lower16:spi_lld_serve_tx_interrupt
 367 0044 C0F20003 		movt	r3, #:upper16:spi_lld_serve_tx_interrupt
 368 0048 1046     		mov	r0, r2
 369 004a 4FF00A01 		mov	r1, #10
 370 004e 1A46     		mov	r2, r3
 371 0050 019B     		ldr	r3, [sp, #4]
 372 0052 FFF7FEFF 		bl	dmaStreamAllocate
 373 0056 0346     		mov	r3, r0
 374 0058 8DF80F30 		strb	r3, [sp, #15]
 375              		.loc 1 323 0
 376 005c 4FF48053 		mov	r3, #4096
 377 0060 C4F20203 		movt	r3, 16386
 378 0064 4FF48052 		mov	r2, #4096
 379 0068 C4F20202 		movt	r2, 16386
 380 006c 9269     		ldr	r2, [r2, #24]
 381 006e 42F48052 		orr	r2, r2, #4096
 382 0072 9A61     		str	r2, [r3, #24]
 383              	.L14:
 384              	.LBE5:
ARM GAS  C:\Users\z80\AppData\Local\Temp\cchCGb6d.s 			page 8


 385              		.loc 1 327 0
 386 0074 019A     		ldr	r2, [sp, #4]
 387 0076 40F20003 		movw	r3, #:lower16:SPID2
 388 007a C0F20003 		movt	r3, #:upper16:SPID2
 389 007e 9A42     		cmp	r2, r3
 390 0080 2BD1     		bne	.L15
 391              	.LBB6:
 392              		.loc 1 329 0
 393 0082 019B     		ldr	r3, [sp, #4]
 394 0084 1A6A     		ldr	r2, [r3, #32]
 395 0086 40F20003 		movw	r3, #:lower16:spi_lld_serve_rx_interrupt
 396 008a C0F20003 		movt	r3, #:upper16:spi_lld_serve_rx_interrupt
 397 008e 1046     		mov	r0, r2
 398 0090 4FF00A01 		mov	r1, #10
 399 0094 1A46     		mov	r2, r3
 400 0096 019B     		ldr	r3, [sp, #4]
 401 0098 FFF7FEFF 		bl	dmaStreamAllocate
 402 009c 0346     		mov	r3, r0
 403 009e 8DF80E30 		strb	r3, [sp, #14]
 404              		.loc 1 334 0
 405 00a2 019B     		ldr	r3, [sp, #4]
 406 00a4 5A6A     		ldr	r2, [r3, #36]
 407 00a6 40F20003 		movw	r3, #:lower16:spi_lld_serve_tx_interrupt
 408 00aa C0F20003 		movt	r3, #:upper16:spi_lld_serve_tx_interrupt
 409 00ae 1046     		mov	r0, r2
 410 00b0 4FF00A01 		mov	r1, #10
 411 00b4 1A46     		mov	r2, r3
 412 00b6 019B     		ldr	r3, [sp, #4]
 413 00b8 FFF7FEFF 		bl	dmaStreamAllocate
 414 00bc 0346     		mov	r3, r0
 415 00be 8DF80E30 		strb	r3, [sp, #14]
 416              		.loc 1 339 0
 417 00c2 4FF48053 		mov	r3, #4096
 418 00c6 C4F20203 		movt	r3, 16386
 419 00ca 4FF48052 		mov	r2, #4096
 420 00ce C4F20202 		movt	r2, 16386
 421 00d2 D269     		ldr	r2, [r2, #28]
 422 00d4 42F48042 		orr	r2, r2, #16384
 423 00d8 DA61     		str	r2, [r3, #28]
 424              	.L15:
 425              	.LBE6:
 426              		.loc 1 408 0
 427 00da 019B     		ldr	r3, [sp, #4]
 428 00dc 1B6A     		ldr	r3, [r3, #32]
 429 00de 1B68     		ldr	r3, [r3, #0]
 430 00e0 019A     		ldr	r2, [sp, #4]
 431 00e2 D269     		ldr	r2, [r2, #28]
 432 00e4 02F10C02 		add	r2, r2, #12
 433 00e8 9A60     		str	r2, [r3, #8]
 434              		.loc 1 409 0
 435 00ea 019B     		ldr	r3, [sp, #4]
 436 00ec 5B6A     		ldr	r3, [r3, #36]
 437 00ee 1B68     		ldr	r3, [r3, #0]
 438 00f0 019A     		ldr	r2, [sp, #4]
 439 00f2 D269     		ldr	r2, [r2, #28]
 440 00f4 02F10C02 		add	r2, r2, #12
 441 00f8 9A60     		str	r2, [r3, #8]
ARM GAS  C:\Users\z80\AppData\Local\Temp\cchCGb6d.s 			page 9


 442              	.L13:
 443              		.loc 1 413 0
 444 00fa 019B     		ldr	r3, [sp, #4]
 445 00fc 5B68     		ldr	r3, [r3, #4]
 446 00fe 5B89     		ldrh	r3, [r3, #10]
 447 0100 03F40063 		and	r3, r3, #2048
 448 0104 002B     		cmp	r3, #0
 449 0106 0CD1     		bne	.L16
 450              		.loc 1 415 0
 451 0108 019B     		ldr	r3, [sp, #4]
 452 010a 9B6A     		ldr	r3, [r3, #40]
 453              		.loc 1 416 0
 454 010c 23F47062 		bic	r2, r3, #3840
 455              		.loc 1 415 0
 456 0110 019B     		ldr	r3, [sp, #4]
 457 0112 9A62     		str	r2, [r3, #40]
 458              		.loc 1 417 0
 459 0114 019B     		ldr	r3, [sp, #4]
 460 0116 DB6A     		ldr	r3, [r3, #44]
 461              		.loc 1 418 0
 462 0118 23F47062 		bic	r2, r3, #3840
 463              		.loc 1 417 0
 464 011c 019B     		ldr	r3, [sp, #4]
 465 011e DA62     		str	r2, [r3, #44]
 466 0120 0FE0     		b	.L17
 467              	.L16:
 468              		.loc 1 422 0
 469 0122 019B     		ldr	r3, [sp, #4]
 470 0124 9B6A     		ldr	r3, [r3, #40]
 471 0126 23F47063 		bic	r3, r3, #3840
 472              		.loc 1 423 0
 473 012a 43F4A062 		orr	r2, r3, #1280
 474              		.loc 1 422 0
 475 012e 019B     		ldr	r3, [sp, #4]
 476 0130 9A62     		str	r2, [r3, #40]
 477              		.loc 1 424 0
 478 0132 019B     		ldr	r3, [sp, #4]
 479 0134 DB6A     		ldr	r3, [r3, #44]
 480 0136 23F47063 		bic	r3, r3, #3840
 481              		.loc 1 425 0
 482 013a 43F4A062 		orr	r2, r3, #1280
 483              		.loc 1 424 0
 484 013e 019B     		ldr	r3, [sp, #4]
 485 0140 DA62     		str	r2, [r3, #44]
 486              	.L17:
 487              		.loc 1 428 0
 488 0142 019B     		ldr	r3, [sp, #4]
 489 0144 DB69     		ldr	r3, [r3, #28]
 490 0146 4FF00002 		mov	r2, #0
 491 014a 1A80     		strh	r2, [r3, #0]	@ movhi
 492              		.loc 1 429 0
 493 014c 019B     		ldr	r3, [sp, #4]
 494 014e DB69     		ldr	r3, [r3, #28]
 495 0150 019A     		ldr	r2, [sp, #4]
 496 0152 5268     		ldr	r2, [r2, #4]
 497 0154 5289     		ldrh	r2, [r2, #10]
 498 0156 42F44172 		orr	r2, r2, #772
ARM GAS  C:\Users\z80\AppData\Local\Temp\cchCGb6d.s 			page 10


 499 015a 92B2     		uxth	r2, r2
 500 015c 1A80     		strh	r2, [r3, #0]	@ movhi
 501              		.loc 1 431 0
 502 015e 019B     		ldr	r3, [sp, #4]
 503 0160 DB69     		ldr	r3, [r3, #28]
 504 0162 4FF00702 		mov	r2, #7
 505 0166 9A80     		strh	r2, [r3, #4]	@ movhi
 506              		.loc 1 432 0
 507 0168 019B     		ldr	r3, [sp, #4]
 508 016a DB69     		ldr	r3, [r3, #28]
 509 016c 019A     		ldr	r2, [sp, #4]
 510 016e D269     		ldr	r2, [r2, #28]
 511 0170 1288     		ldrh	r2, [r2, #0]	@ movhi
 512 0172 92B2     		uxth	r2, r2
 513 0174 42F04002 		orr	r2, r2, #64
 514 0178 92B2     		uxth	r2, r2
 515 017a 1A80     		strh	r2, [r3, #0]	@ movhi
 516              		.loc 1 433 0
 517 017c 05B0     		add	sp, sp, #20
 518 017e 00BD     		pop	{pc}
 519              		.cfi_endproc
 520              	.LFE66:
 521              		.size	spi_lld_start, .-spi_lld_start
 522              		.section	.text.spi_lld_stop,"ax",%progbits
 523              		.align	2
 524              		.p2align 4,,15
 525              		.global	spi_lld_stop
 526              		.thumb
 527              		.thumb_func
 528              		.type	spi_lld_stop, %function
 529              	spi_lld_stop:
 530              	.LFB67:
 531              		.loc 1 442 0
 532              		.cfi_startproc
 533              		@ args = 0, pretend = 0, frame = 8
 534              		@ frame_needed = 0, uses_anonymous_args = 0
 535 0000 00B5     		push	{lr}
 536              	.LCFI7:
 537              		.cfi_def_cfa_offset 4
 538 0002 83B0     		sub	sp, sp, #12
 539              	.LCFI8:
 540              		.cfi_def_cfa_offset 16
 541 0004 0190     		str	r0, [sp, #4]
 542              		.loc 1 445 0
 543 0006 019B     		ldr	r3, [sp, #4]
 544 0008 1B78     		ldrb	r3, [r3, #0]	@ zero_extendqisi2
 545 000a 022B     		cmp	r3, #2
 546 000c 39D1     		bne	.L18
 547              		.cfi_offset 14, -4
 548              		.loc 1 448 0
 549 000e 019B     		ldr	r3, [sp, #4]
 550 0010 DB69     		ldr	r3, [r3, #28]
 551 0012 4FF00002 		mov	r2, #0
 552 0016 1A80     		strh	r2, [r3, #0]	@ movhi
 553              		.loc 1 449 0
 554 0018 019B     		ldr	r3, [sp, #4]
 555 001a DB69     		ldr	r3, [r3, #28]
ARM GAS  C:\Users\z80\AppData\Local\Temp\cchCGb6d.s 			page 11


 556 001c 4FF00002 		mov	r2, #0
 557 0020 9A80     		strh	r2, [r3, #4]	@ movhi
 558              		.loc 1 450 0
 559 0022 019B     		ldr	r3, [sp, #4]
 560 0024 1B6A     		ldr	r3, [r3, #32]
 561 0026 1846     		mov	r0, r3
 562 0028 FFF7FEFF 		bl	dmaStreamRelease
 563              		.loc 1 451 0
 564 002c 019B     		ldr	r3, [sp, #4]
 565 002e 5B6A     		ldr	r3, [r3, #36]
 566 0030 1846     		mov	r0, r3
 567 0032 FFF7FEFF 		bl	dmaStreamRelease
 568              		.loc 1 454 0
 569 0036 019A     		ldr	r2, [sp, #4]
 570 0038 40F20003 		movw	r3, #:lower16:SPID1
 571 003c C0F20003 		movt	r3, #:upper16:SPID1
 572 0040 9A42     		cmp	r2, r3
 573 0042 0BD1     		bne	.L20
 574              		.loc 1 455 0
 575 0044 4FF48053 		mov	r3, #4096
 576 0048 C4F20203 		movt	r3, 16386
 577 004c 4FF48052 		mov	r2, #4096
 578 0050 C4F20202 		movt	r2, 16386
 579 0054 9269     		ldr	r2, [r2, #24]
 580 0056 22F48052 		bic	r2, r2, #4096
 581 005a 9A61     		str	r2, [r3, #24]
 582              	.L20:
 583              		.loc 1 458 0
 584 005c 019A     		ldr	r2, [sp, #4]
 585 005e 40F20003 		movw	r3, #:lower16:SPID2
 586 0062 C0F20003 		movt	r3, #:upper16:SPID2
 587 0066 9A42     		cmp	r2, r3
 588 0068 0BD1     		bne	.L18
 589              		.loc 1 459 0
 590 006a 4FF48053 		mov	r3, #4096
 591 006e C4F20203 		movt	r3, 16386
 592 0072 4FF48052 		mov	r2, #4096
 593 0076 C4F20202 		movt	r2, 16386
 594 007a D269     		ldr	r2, [r2, #28]
 595 007c 22F48042 		bic	r2, r2, #16384
 596 0080 DA61     		str	r2, [r3, #28]
 597              	.L18:
 598              		.loc 1 478 0
 599 0082 03B0     		add	sp, sp, #12
 600 0084 00BD     		pop	{pc}
 601              		.cfi_endproc
 602              	.LFE67:
 603              		.size	spi_lld_stop, .-spi_lld_stop
 604 0086 00BFAFF3 		.section	.text.spi_lld_select,"ax",%progbits
 604      0080AFF3 
 604      0080
 605              		.align	2
 606              		.p2align 4,,15
 607              		.global	spi_lld_select
 608              		.thumb
 609              		.thumb_func
 610              		.type	spi_lld_select, %function
ARM GAS  C:\Users\z80\AppData\Local\Temp\cchCGb6d.s 			page 12


 611              	spi_lld_select:
 612              	.LFB68:
 613              		.loc 1 487 0
 614              		.cfi_startproc
 615              		@ args = 0, pretend = 0, frame = 8
 616              		@ frame_needed = 0, uses_anonymous_args = 0
 617              		@ link register save eliminated.
 618 0000 82B0     		sub	sp, sp, #8
 619              	.LCFI9:
 620              		.cfi_def_cfa_offset 8
 621 0002 0190     		str	r0, [sp, #4]
 622              		.loc 1 489 0
 623 0004 019B     		ldr	r3, [sp, #4]
 624 0006 5B68     		ldr	r3, [r3, #4]
 625 0008 5B68     		ldr	r3, [r3, #4]
 626 000a 019A     		ldr	r2, [sp, #4]
 627 000c 5268     		ldr	r2, [r2, #4]
 628 000e 1289     		ldrh	r2, [r2, #8]
 629 0010 4FF00101 		mov	r1, #1
 630 0014 01FA02F2 		lsl	r2, r1, r2
 631 0018 5A61     		str	r2, [r3, #20]
 632              		.loc 1 490 0
 633 001a 02B0     		add	sp, sp, #8
 634 001c 7047     		bx	lr
 635              		.cfi_endproc
 636              	.LFE68:
 637              		.size	spi_lld_select, .-spi_lld_select
 638 001e 00BF     		.section	.text.spi_lld_unselect,"ax",%progbits
 639              		.align	2
 640              		.p2align 4,,15
 641              		.global	spi_lld_unselect
 642              		.thumb
 643              		.thumb_func
 644              		.type	spi_lld_unselect, %function
 645              	spi_lld_unselect:
 646              	.LFB69:
 647              		.loc 1 500 0
 648              		.cfi_startproc
 649              		@ args = 0, pretend = 0, frame = 8
 650              		@ frame_needed = 0, uses_anonymous_args = 0
 651              		@ link register save eliminated.
 652 0000 82B0     		sub	sp, sp, #8
 653              	.LCFI10:
 654              		.cfi_def_cfa_offset 8
 655 0002 0190     		str	r0, [sp, #4]
 656              		.loc 1 502 0
 657 0004 019B     		ldr	r3, [sp, #4]
 658 0006 5B68     		ldr	r3, [r3, #4]
 659 0008 5B68     		ldr	r3, [r3, #4]
 660 000a 019A     		ldr	r2, [sp, #4]
 661 000c 5268     		ldr	r2, [r2, #4]
 662 000e 1289     		ldrh	r2, [r2, #8]
 663 0010 4FF00101 		mov	r1, #1
 664 0014 01FA02F2 		lsl	r2, r1, r2
 665 0018 1A61     		str	r2, [r3, #16]
 666              		.loc 1 503 0
 667 001a 02B0     		add	sp, sp, #8
ARM GAS  C:\Users\z80\AppData\Local\Temp\cchCGb6d.s 			page 13


 668 001c 7047     		bx	lr
 669              		.cfi_endproc
 670              	.LFE69:
 671              		.size	spi_lld_unselect, .-spi_lld_unselect
 672 001e 00BF     		.section	.text.spi_lld_ignore,"ax",%progbits
 673              		.align	2
 674              		.p2align 4,,15
 675              		.global	spi_lld_ignore
 676              		.thumb
 677              		.thumb_func
 678              		.type	spi_lld_ignore, %function
 679              	spi_lld_ignore:
 680              	.LFB70:
 681              		.loc 1 516 0
 682              		.cfi_startproc
 683              		@ args = 0, pretend = 0, frame = 8
 684              		@ frame_needed = 0, uses_anonymous_args = 0
 685              		@ link register save eliminated.
 686 0000 82B0     		sub	sp, sp, #8
 687              	.LCFI11:
 688              		.cfi_def_cfa_offset 8
 689 0002 0190     		str	r0, [sp, #4]
 690 0004 0091     		str	r1, [sp, #0]
 691              		.loc 1 518 0
 692 0006 019B     		ldr	r3, [sp, #4]
 693 0008 1B6A     		ldr	r3, [r3, #32]
 694 000a 1A68     		ldr	r2, [r3, #0]
 695 000c 40F20003 		movw	r3, #:lower16:dummyrx
 696 0010 C0F20003 		movt	r3, #:upper16:dummyrx
 697 0014 D360     		str	r3, [r2, #12]
 698              		.loc 1 519 0
 699 0016 019B     		ldr	r3, [sp, #4]
 700 0018 1B6A     		ldr	r3, [r3, #32]
 701 001a 1B68     		ldr	r3, [r3, #0]
 702 001c 009A     		ldr	r2, [sp, #0]
 703 001e 5A60     		str	r2, [r3, #4]
 704              		.loc 1 520 0
 705 0020 019B     		ldr	r3, [sp, #4]
 706 0022 1B6A     		ldr	r3, [r3, #32]
 707 0024 1B68     		ldr	r3, [r3, #0]
 708 0026 019A     		ldr	r2, [sp, #4]
 709 0028 926A     		ldr	r2, [r2, #40]
 710 002a 1A60     		str	r2, [r3, #0]
 711              		.loc 1 522 0
 712 002c 019B     		ldr	r3, [sp, #4]
 713 002e 5B6A     		ldr	r3, [r3, #36]
 714 0030 1A68     		ldr	r2, [r3, #0]
 715 0032 40F20003 		movw	r3, #:lower16:dummytx
 716 0036 C0F20003 		movt	r3, #:upper16:dummytx
 717 003a D360     		str	r3, [r2, #12]
 718              		.loc 1 523 0
 719 003c 019B     		ldr	r3, [sp, #4]
 720 003e 5B6A     		ldr	r3, [r3, #36]
 721 0040 1B68     		ldr	r3, [r3, #0]
 722 0042 009A     		ldr	r2, [sp, #0]
 723 0044 5A60     		str	r2, [r3, #4]
 724              		.loc 1 524 0
ARM GAS  C:\Users\z80\AppData\Local\Temp\cchCGb6d.s 			page 14


 725 0046 019B     		ldr	r3, [sp, #4]
 726 0048 5B6A     		ldr	r3, [r3, #36]
 727 004a 1B68     		ldr	r3, [r3, #0]
 728 004c 019A     		ldr	r2, [sp, #4]
 729 004e D26A     		ldr	r2, [r2, #44]
 730 0050 1A60     		str	r2, [r3, #0]
 731              		.loc 1 526 0
 732 0052 019B     		ldr	r3, [sp, #4]
 733 0054 1B6A     		ldr	r3, [r3, #32]
 734 0056 1B68     		ldr	r3, [r3, #0]
 735 0058 019A     		ldr	r2, [sp, #4]
 736 005a 126A     		ldr	r2, [r2, #32]
 737 005c 1268     		ldr	r2, [r2, #0]
 738 005e 1268     		ldr	r2, [r2, #0]
 739 0060 42F00102 		orr	r2, r2, #1
 740 0064 1A60     		str	r2, [r3, #0]
 741              		.loc 1 527 0
 742 0066 019B     		ldr	r3, [sp, #4]
 743 0068 5B6A     		ldr	r3, [r3, #36]
 744 006a 1B68     		ldr	r3, [r3, #0]
 745 006c 019A     		ldr	r2, [sp, #4]
 746 006e 526A     		ldr	r2, [r2, #36]
 747 0070 1268     		ldr	r2, [r2, #0]
 748 0072 1268     		ldr	r2, [r2, #0]
 749 0074 42F00102 		orr	r2, r2, #1
 750 0078 1A60     		str	r2, [r3, #0]
 751              		.loc 1 528 0
 752 007a 02B0     		add	sp, sp, #8
 753 007c 7047     		bx	lr
 754              		.cfi_endproc
 755              	.LFE70:
 756              		.size	spi_lld_ignore, .-spi_lld_ignore
 757 007e 00BF     		.section	.text.spi_lld_exchange,"ax",%progbits
 758              		.align	2
 759              		.p2align 4,,15
 760              		.global	spi_lld_exchange
 761              		.thumb
 762              		.thumb_func
 763              		.type	spi_lld_exchange, %function
 764              	spi_lld_exchange:
 765              	.LFB71:
 766              		.loc 1 546 0
 767              		.cfi_startproc
 768              		@ args = 0, pretend = 0, frame = 16
 769              		@ frame_needed = 0, uses_anonymous_args = 0
 770              		@ link register save eliminated.
 771 0000 84B0     		sub	sp, sp, #16
 772              	.LCFI12:
 773              		.cfi_def_cfa_offset 16
 774 0002 0390     		str	r0, [sp, #12]
 775 0004 0291     		str	r1, [sp, #8]
 776 0006 0192     		str	r2, [sp, #4]
 777 0008 0093     		str	r3, [sp, #0]
 778              		.loc 1 548 0
 779 000a 039B     		ldr	r3, [sp, #12]
 780 000c 1B6A     		ldr	r3, [r3, #32]
 781 000e 1B68     		ldr	r3, [r3, #0]
ARM GAS  C:\Users\z80\AppData\Local\Temp\cchCGb6d.s 			page 15


 782 0010 009A     		ldr	r2, [sp, #0]
 783 0012 DA60     		str	r2, [r3, #12]
 784              		.loc 1 549 0
 785 0014 039B     		ldr	r3, [sp, #12]
 786 0016 1B6A     		ldr	r3, [r3, #32]
 787 0018 1B68     		ldr	r3, [r3, #0]
 788 001a 029A     		ldr	r2, [sp, #8]
 789 001c 5A60     		str	r2, [r3, #4]
 790              		.loc 1 550 0
 791 001e 039B     		ldr	r3, [sp, #12]
 792 0020 1B6A     		ldr	r3, [r3, #32]
 793 0022 1B68     		ldr	r3, [r3, #0]
 794 0024 039A     		ldr	r2, [sp, #12]
 795 0026 926A     		ldr	r2, [r2, #40]
 796 0028 42F08002 		orr	r2, r2, #128
 797 002c 1A60     		str	r2, [r3, #0]
 798              		.loc 1 552 0
 799 002e 039B     		ldr	r3, [sp, #12]
 800 0030 5B6A     		ldr	r3, [r3, #36]
 801 0032 1B68     		ldr	r3, [r3, #0]
 802 0034 019A     		ldr	r2, [sp, #4]
 803 0036 DA60     		str	r2, [r3, #12]
 804              		.loc 1 553 0
 805 0038 039B     		ldr	r3, [sp, #12]
 806 003a 5B6A     		ldr	r3, [r3, #36]
 807 003c 1B68     		ldr	r3, [r3, #0]
 808 003e 029A     		ldr	r2, [sp, #8]
 809 0040 5A60     		str	r2, [r3, #4]
 810              		.loc 1 554 0
 811 0042 039B     		ldr	r3, [sp, #12]
 812 0044 5B6A     		ldr	r3, [r3, #36]
 813 0046 1B68     		ldr	r3, [r3, #0]
 814 0048 039A     		ldr	r2, [sp, #12]
 815 004a D26A     		ldr	r2, [r2, #44]
 816 004c 42F08002 		orr	r2, r2, #128
 817 0050 1A60     		str	r2, [r3, #0]
 818              		.loc 1 556 0
 819 0052 039B     		ldr	r3, [sp, #12]
 820 0054 1B6A     		ldr	r3, [r3, #32]
 821 0056 1B68     		ldr	r3, [r3, #0]
 822 0058 039A     		ldr	r2, [sp, #12]
 823 005a 126A     		ldr	r2, [r2, #32]
 824 005c 1268     		ldr	r2, [r2, #0]
 825 005e 1268     		ldr	r2, [r2, #0]
 826 0060 42F00102 		orr	r2, r2, #1
 827 0064 1A60     		str	r2, [r3, #0]
 828              		.loc 1 557 0
 829 0066 039B     		ldr	r3, [sp, #12]
 830 0068 5B6A     		ldr	r3, [r3, #36]
 831 006a 1B68     		ldr	r3, [r3, #0]
 832 006c 039A     		ldr	r2, [sp, #12]
 833 006e 526A     		ldr	r2, [r2, #36]
 834 0070 1268     		ldr	r2, [r2, #0]
 835 0072 1268     		ldr	r2, [r2, #0]
 836 0074 42F00102 		orr	r2, r2, #1
 837 0078 1A60     		str	r2, [r3, #0]
 838              		.loc 1 558 0
ARM GAS  C:\Users\z80\AppData\Local\Temp\cchCGb6d.s 			page 16


 839 007a 04B0     		add	sp, sp, #16
 840 007c 7047     		bx	lr
 841              		.cfi_endproc
 842              	.LFE71:
 843              		.size	spi_lld_exchange, .-spi_lld_exchange
 844 007e 00BF     		.section	.text.spi_lld_send,"ax",%progbits
 845              		.align	2
 846              		.p2align 4,,15
 847              		.global	spi_lld_send
 848              		.thumb
 849              		.thumb_func
 850              		.type	spi_lld_send, %function
 851              	spi_lld_send:
 852              	.LFB72:
 853              		.loc 1 573 0
 854              		.cfi_startproc
 855              		@ args = 0, pretend = 0, frame = 16
 856              		@ frame_needed = 0, uses_anonymous_args = 0
 857              		@ link register save eliminated.
 858 0000 84B0     		sub	sp, sp, #16
 859              	.LCFI13:
 860              		.cfi_def_cfa_offset 16
 861 0002 0390     		str	r0, [sp, #12]
 862 0004 0291     		str	r1, [sp, #8]
 863 0006 0192     		str	r2, [sp, #4]
 864              		.loc 1 575 0
 865 0008 039B     		ldr	r3, [sp, #12]
 866 000a 1B6A     		ldr	r3, [r3, #32]
 867 000c 1A68     		ldr	r2, [r3, #0]
 868 000e 40F20003 		movw	r3, #:lower16:dummyrx
 869 0012 C0F20003 		movt	r3, #:upper16:dummyrx
 870 0016 D360     		str	r3, [r2, #12]
 871              		.loc 1 576 0
 872 0018 039B     		ldr	r3, [sp, #12]
 873 001a 1B6A     		ldr	r3, [r3, #32]
 874 001c 1B68     		ldr	r3, [r3, #0]
 875 001e 029A     		ldr	r2, [sp, #8]
 876 0020 5A60     		str	r2, [r3, #4]
 877              		.loc 1 577 0
 878 0022 039B     		ldr	r3, [sp, #12]
 879 0024 1B6A     		ldr	r3, [r3, #32]
 880 0026 1B68     		ldr	r3, [r3, #0]
 881 0028 039A     		ldr	r2, [sp, #12]
 882 002a 926A     		ldr	r2, [r2, #40]
 883 002c 1A60     		str	r2, [r3, #0]
 884              		.loc 1 579 0
 885 002e 039B     		ldr	r3, [sp, #12]
 886 0030 5B6A     		ldr	r3, [r3, #36]
 887 0032 1B68     		ldr	r3, [r3, #0]
 888 0034 019A     		ldr	r2, [sp, #4]
 889 0036 DA60     		str	r2, [r3, #12]
 890              		.loc 1 580 0
 891 0038 039B     		ldr	r3, [sp, #12]
 892 003a 5B6A     		ldr	r3, [r3, #36]
 893 003c 1B68     		ldr	r3, [r3, #0]
 894 003e 029A     		ldr	r2, [sp, #8]
 895 0040 5A60     		str	r2, [r3, #4]
ARM GAS  C:\Users\z80\AppData\Local\Temp\cchCGb6d.s 			page 17


 896              		.loc 1 581 0
 897 0042 039B     		ldr	r3, [sp, #12]
 898 0044 5B6A     		ldr	r3, [r3, #36]
 899 0046 1B68     		ldr	r3, [r3, #0]
 900 0048 039A     		ldr	r2, [sp, #12]
 901 004a D26A     		ldr	r2, [r2, #44]
 902 004c 42F08002 		orr	r2, r2, #128
 903 0050 1A60     		str	r2, [r3, #0]
 904              		.loc 1 583 0
 905 0052 039B     		ldr	r3, [sp, #12]
 906 0054 1B6A     		ldr	r3, [r3, #32]
 907 0056 1B68     		ldr	r3, [r3, #0]
 908 0058 039A     		ldr	r2, [sp, #12]
 909 005a 126A     		ldr	r2, [r2, #32]
 910 005c 1268     		ldr	r2, [r2, #0]
 911 005e 1268     		ldr	r2, [r2, #0]
 912 0060 42F00102 		orr	r2, r2, #1
 913 0064 1A60     		str	r2, [r3, #0]
 914              		.loc 1 584 0
 915 0066 039B     		ldr	r3, [sp, #12]
 916 0068 5B6A     		ldr	r3, [r3, #36]
 917 006a 1B68     		ldr	r3, [r3, #0]
 918 006c 039A     		ldr	r2, [sp, #12]
 919 006e 526A     		ldr	r2, [r2, #36]
 920 0070 1268     		ldr	r2, [r2, #0]
 921 0072 1268     		ldr	r2, [r2, #0]
 922 0074 42F00102 		orr	r2, r2, #1
 923 0078 1A60     		str	r2, [r3, #0]
 924              		.loc 1 585 0
 925 007a 04B0     		add	sp, sp, #16
 926 007c 7047     		bx	lr
 927              		.cfi_endproc
 928              	.LFE72:
 929              		.size	spi_lld_send, .-spi_lld_send
 930 007e 00BF     		.section	.text.spi_lld_receive,"ax",%progbits
 931              		.align	2
 932              		.p2align 4,,15
 933              		.global	spi_lld_receive
 934              		.thumb
 935              		.thumb_func
 936              		.type	spi_lld_receive, %function
 937              	spi_lld_receive:
 938              	.LFB73:
 939              		.loc 1 600 0
 940              		.cfi_startproc
 941              		@ args = 0, pretend = 0, frame = 16
 942              		@ frame_needed = 0, uses_anonymous_args = 0
 943              		@ link register save eliminated.
 944 0000 84B0     		sub	sp, sp, #16
 945              	.LCFI14:
 946              		.cfi_def_cfa_offset 16
 947 0002 0390     		str	r0, [sp, #12]
 948 0004 0291     		str	r1, [sp, #8]
 949 0006 0192     		str	r2, [sp, #4]
 950              		.loc 1 602 0
 951 0008 039B     		ldr	r3, [sp, #12]
 952 000a 1B6A     		ldr	r3, [r3, #32]
ARM GAS  C:\Users\z80\AppData\Local\Temp\cchCGb6d.s 			page 18


 953 000c 1B68     		ldr	r3, [r3, #0]
 954 000e 019A     		ldr	r2, [sp, #4]
 955 0010 DA60     		str	r2, [r3, #12]
 956              		.loc 1 603 0
 957 0012 039B     		ldr	r3, [sp, #12]
 958 0014 1B6A     		ldr	r3, [r3, #32]
 959 0016 1B68     		ldr	r3, [r3, #0]
 960 0018 029A     		ldr	r2, [sp, #8]
 961 001a 5A60     		str	r2, [r3, #4]
 962              		.loc 1 604 0
 963 001c 039B     		ldr	r3, [sp, #12]
 964 001e 1B6A     		ldr	r3, [r3, #32]
 965 0020 1B68     		ldr	r3, [r3, #0]
 966 0022 039A     		ldr	r2, [sp, #12]
 967 0024 926A     		ldr	r2, [r2, #40]
 968 0026 42F08002 		orr	r2, r2, #128
 969 002a 1A60     		str	r2, [r3, #0]
 970              		.loc 1 606 0
 971 002c 039B     		ldr	r3, [sp, #12]
 972 002e 5B6A     		ldr	r3, [r3, #36]
 973 0030 1A68     		ldr	r2, [r3, #0]
 974 0032 40F20003 		movw	r3, #:lower16:dummytx
 975 0036 C0F20003 		movt	r3, #:upper16:dummytx
 976 003a D360     		str	r3, [r2, #12]
 977              		.loc 1 607 0
 978 003c 039B     		ldr	r3, [sp, #12]
 979 003e 5B6A     		ldr	r3, [r3, #36]
 980 0040 1B68     		ldr	r3, [r3, #0]
 981 0042 029A     		ldr	r2, [sp, #8]
 982 0044 5A60     		str	r2, [r3, #4]
 983              		.loc 1 608 0
 984 0046 039B     		ldr	r3, [sp, #12]
 985 0048 5B6A     		ldr	r3, [r3, #36]
 986 004a 1B68     		ldr	r3, [r3, #0]
 987 004c 039A     		ldr	r2, [sp, #12]
 988 004e D26A     		ldr	r2, [r2, #44]
 989 0050 1A60     		str	r2, [r3, #0]
 990              		.loc 1 610 0
 991 0052 039B     		ldr	r3, [sp, #12]
 992 0054 1B6A     		ldr	r3, [r3, #32]
 993 0056 1B68     		ldr	r3, [r3, #0]
 994 0058 039A     		ldr	r2, [sp, #12]
 995 005a 126A     		ldr	r2, [r2, #32]
 996 005c 1268     		ldr	r2, [r2, #0]
 997 005e 1268     		ldr	r2, [r2, #0]
 998 0060 42F00102 		orr	r2, r2, #1
 999 0064 1A60     		str	r2, [r3, #0]
 1000              		.loc 1 611 0
 1001 0066 039B     		ldr	r3, [sp, #12]
 1002 0068 5B6A     		ldr	r3, [r3, #36]
 1003 006a 1B68     		ldr	r3, [r3, #0]
 1004 006c 039A     		ldr	r2, [sp, #12]
 1005 006e 526A     		ldr	r2, [r2, #36]
 1006 0070 1268     		ldr	r2, [r2, #0]
 1007 0072 1268     		ldr	r2, [r2, #0]
 1008 0074 42F00102 		orr	r2, r2, #1
 1009 0078 1A60     		str	r2, [r3, #0]
ARM GAS  C:\Users\z80\AppData\Local\Temp\cchCGb6d.s 			page 19


 1010              		.loc 1 612 0
 1011 007a 04B0     		add	sp, sp, #16
 1012 007c 7047     		bx	lr
 1013              		.cfi_endproc
 1014              	.LFE73:
 1015              		.size	spi_lld_receive, .-spi_lld_receive
 1016 007e 00BF     		.section	.text.spi_lld_polled_exchange,"ax",%progbits
 1017              		.align	2
 1018              		.p2align 4,,15
 1019              		.global	spi_lld_polled_exchange
 1020              		.thumb
 1021              		.thumb_func
 1022              		.type	spi_lld_polled_exchange, %function
 1023              	spi_lld_polled_exchange:
 1024              	.LFB74:
 1025              		.loc 1 626 0
 1026              		.cfi_startproc
 1027              		@ args = 0, pretend = 0, frame = 8
 1028              		@ frame_needed = 0, uses_anonymous_args = 0
 1029              		@ link register save eliminated.
 1030 0000 82B0     		sub	sp, sp, #8
 1031              	.LCFI15:
 1032              		.cfi_def_cfa_offset 8
 1033 0002 0190     		str	r0, [sp, #4]
 1034 0004 0B46     		mov	r3, r1
 1035 0006 ADF80230 		strh	r3, [sp, #2]	@ movhi
 1036              		.loc 1 628 0
 1037 000a 019B     		ldr	r3, [sp, #4]
 1038 000c DB69     		ldr	r3, [r3, #28]
 1039 000e BDF80220 		ldrh	r2, [sp, #2]	@ movhi
 1040 0012 9A81     		strh	r2, [r3, #12]	@ movhi
 1041              		.loc 1 629 0
 1042 0014 00BF     		nop
 1043              	.L28:
 1044              		.loc 1 629 0 is_stmt 0 discriminator 1
 1045 0016 019B     		ldr	r3, [sp, #4]
 1046 0018 DB69     		ldr	r3, [r3, #28]
 1047 001a 1B89     		ldrh	r3, [r3, #8]	@ movhi
 1048 001c 9BB2     		uxth	r3, r3
 1049 001e 03F00103 		and	r3, r3, #1
 1050 0022 002B     		cmp	r3, #0
 1051 0024 F7D0     		beq	.L28
 1052              		.loc 1 631 0 is_stmt 1
 1053 0026 019B     		ldr	r3, [sp, #4]
 1054 0028 DB69     		ldr	r3, [r3, #28]
 1055 002a 9B89     		ldrh	r3, [r3, #12]	@ movhi
 1056 002c 9BB2     		uxth	r3, r3
 1057              		.loc 1 632 0
 1058 002e 1846     		mov	r0, r3
 1059 0030 02B0     		add	sp, sp, #8
 1060 0032 7047     		bx	lr
 1061              		.cfi_endproc
 1062              	.LFE74:
 1063              		.size	spi_lld_polled_exchange, .-spi_lld_polled_exchange
 1064 0034 AFF30080 		.text
 1064      AFF30080 
 1064      AFF30080 
ARM GAS  C:\Users\z80\AppData\Local\Temp\cchCGb6d.s 			page 20


 1065              	.Letext0: