ARM GAS  C:\Users\z80\AppData\Local\Temp\ccgwH8xw.s 			page 1


   1              		.syntax unified
   2              		.cpu cortex-m3
   3              		.fpu softvfp
   4              		.eabi_attribute 20, 1
   5              		.eabi_attribute 21, 1
   6              		.eabi_attribute 23, 3
   7              		.eabi_attribute 24, 1
   8              		.eabi_attribute 25, 1
   9              		.eabi_attribute 26, 1
  10              		.eabi_attribute 30, 6
  11              		.eabi_attribute 18, 4
  12              		.thumb
  13              		.file	"stm32f10x_rcc.c"
  20 0000 EC030000 		.text
  20      02000A01 
  20      00000201 
  20      FB0E0D00 
  20      01010101 
  21              	.Ltext0:
  22              		.cfi_sections	.debug_frame
  23              		.section	.data.APBAHBPrescTable,"aw",%progbits
  24              		.align	2
  25              		.type	APBAHBPrescTable, %object
  26              		.size	APBAHBPrescTable, 16
  27              	APBAHBPrescTable:
  28 0000 00       		.byte	0
  29 0001 00       		.byte	0
  30 0002 00       		.byte	0
  31 0003 00       		.byte	0
  32 0004 01       		.byte	1
  33 0005 02       		.byte	2
  34 0006 03       		.byte	3
  35 0007 04       		.byte	4
  36 0008 01       		.byte	1
  37 0009 02       		.byte	2
  38 000a 03       		.byte	3
  39 000b 04       		.byte	4
  40 000c 06       		.byte	6
  41 000d 07       		.byte	7
  42 000e 08       		.byte	8
  43 000f 09       		.byte	9
  44              		.section	.data.ADCPrescTable,"aw",%progbits
  45              		.align	2
  46              		.type	ADCPrescTable, %object
  47              		.size	ADCPrescTable, 4
  48              	ADCPrescTable:
  49 0000 02       		.byte	2
  50 0001 04       		.byte	4
  51 0002 06       		.byte	6
  52 0003 08       		.byte	8
  53              		.section	.text.RCC_DeInit,"ax",%progbits
ARM GAS  C:\Users\z80\AppData\Local\Temp\ccgwH8xw.s 			page 2


  54              		.align	2
  55              		.p2align 4,,15
  56              		.global	RCC_DeInit
  57              		.thumb
  58              		.thumb_func
  59              		.type	RCC_DeInit, %function
  60              	RCC_DeInit:
  61              	.LFB56:
  62              		.file 1 "stdperiph/stm32f10x_rcc.c"
  63              		.loc 1 220 0
  64              		.cfi_startproc
  65              		@ args = 0, pretend = 0, frame = 0
  66              		@ frame_needed = 0, uses_anonymous_args = 0
  67              		@ link register save eliminated.
  68              		.loc 1 222 0
  69 0000 4FF48053 		mov	r3, #4096
  70 0004 C4F20203 		movt	r3, 16386
  71 0008 4FF48052 		mov	r2, #4096
  72 000c C4F20202 		movt	r2, 16386
  73 0010 1268     		ldr	r2, [r2, #0]
  74 0012 42F00102 		orr	r2, r2, #1
  75 0016 1A60     		str	r2, [r3, #0]
  76              		.loc 1 226 0
  77 0018 4FF48052 		mov	r2, #4096
  78 001c C4F20202 		movt	r2, 16386
  79 0020 4FF48053 		mov	r3, #4096
  80 0024 C4F20203 		movt	r3, 16386
  81 0028 5968     		ldr	r1, [r3, #4]
  82 002a 4FF00003 		mov	r3, #0
  83 002e CFF6FF03 		movt	r3, 63743
  84 0032 01EA0303 		and	r3, r1, r3
  85 0036 5360     		str	r3, [r2, #4]
  86              		.loc 1 232 0
  87 0038 4FF48053 		mov	r3, #4096
  88 003c C4F20203 		movt	r3, 16386
  89 0040 4FF48052 		mov	r2, #4096
  90 0044 C4F20202 		movt	r2, 16386
  91 0048 1268     		ldr	r2, [r2, #0]
  92 004a 22F08472 		bic	r2, r2, #17301504
  93 004e 22F48032 		bic	r2, r2, #65536
  94 0052 1A60     		str	r2, [r3, #0]
  95              		.loc 1 235 0
  96 0054 4FF48053 		mov	r3, #4096
  97 0058 C4F20203 		movt	r3, 16386
  98 005c 4FF48052 		mov	r2, #4096
  99 0060 C4F20202 		movt	r2, 16386
 100 0064 1268     		ldr	r2, [r2, #0]
 101 0066 22F48022 		bic	r2, r2, #262144
 102 006a 1A60     		str	r2, [r3, #0]
 103              		.loc 1 238 0
 104 006c 4FF48053 		mov	r3, #4096
 105 0070 C4F20203 		movt	r3, 16386
 106 0074 4FF48052 		mov	r2, #4096
 107 0078 C4F20202 		movt	r2, 16386
 108 007c 5268     		ldr	r2, [r2, #4]
 109 007e 22F4FE02 		bic	r2, r2, #8323072
 110 0082 5A60     		str	r2, [r3, #4]
ARM GAS  C:\Users\z80\AppData\Local\Temp\ccgwH8xw.s 			page 3


 111              		.loc 1 257 0
 112 0084 4FF48053 		mov	r3, #4096
 113 0088 C4F20203 		movt	r3, 16386
 114 008c 4FF41F02 		mov	r2, #10420224
 115 0090 9A60     		str	r2, [r3, #8]
 116              		.loc 1 260 0
 117 0092 7047     		bx	lr
 118              		.cfi_endproc
 119              	.LFE56:
 120              		.size	RCC_DeInit, .-RCC_DeInit
 121 0094 AFF30080 		.section	.text.RCC_HSEConfig,"ax",%progbits
 121      AFF30080 
 121      AFF30080 
 122              		.align	2
 123              		.p2align 4,,15
 124              		.global	RCC_HSEConfig
 125              		.thumb
 126              		.thumb_func
 127              		.type	RCC_HSEConfig, %function
 128              	RCC_HSEConfig:
 129              	.LFB57:
 130              		.loc 1 273 0
 131              		.cfi_startproc
 132              		@ args = 0, pretend = 0, frame = 8
 133              		@ frame_needed = 0, uses_anonymous_args = 0
 134              		@ link register save eliminated.
 135 0000 82B0     		sub	sp, sp, #8
 136              	.LCFI0:
 137              		.cfi_def_cfa_offset 8
 138 0002 0190     		str	r0, [sp, #4]
 139              		.loc 1 278 0
 140 0004 4FF48053 		mov	r3, #4096
 141 0008 C4F20203 		movt	r3, 16386
 142 000c 4FF48052 		mov	r2, #4096
 143 0010 C4F20202 		movt	r2, 16386
 144 0014 1268     		ldr	r2, [r2, #0]
 145 0016 22F48032 		bic	r2, r2, #65536
 146 001a 1A60     		str	r2, [r3, #0]
 147              		.loc 1 280 0
 148 001c 4FF48053 		mov	r3, #4096
 149 0020 C4F20203 		movt	r3, 16386
 150 0024 4FF48052 		mov	r2, #4096
 151 0028 C4F20202 		movt	r2, 16386
 152 002c 1268     		ldr	r2, [r2, #0]
 153 002e 22F48022 		bic	r2, r2, #262144
 154 0032 1A60     		str	r2, [r3, #0]
 155              		.loc 1 282 0
 156 0034 019B     		ldr	r3, [sp, #4]
 157 0036 B3F5803F 		cmp	r3, #65536
 158 003a 03D0     		beq	.L4
 159 003c B3F5802F 		cmp	r3, #262144
 160 0040 0DD0     		beq	.L5
 161              		.loc 1 295 0
 162 0042 19E0     		b	.L2
 163              	.L4:
 164              		.loc 1 286 0
 165 0044 4FF48053 		mov	r3, #4096
ARM GAS  C:\Users\z80\AppData\Local\Temp\ccgwH8xw.s 			page 4


 166 0048 C4F20203 		movt	r3, 16386
 167 004c 4FF48052 		mov	r2, #4096
 168 0050 C4F20202 		movt	r2, 16386
 169 0054 1268     		ldr	r2, [r2, #0]
 170 0056 42F48032 		orr	r2, r2, #65536
 171 005a 1A60     		str	r2, [r3, #0]
 172              		.loc 1 287 0
 173 005c 0CE0     		b	.L2
 174              	.L5:
 175              		.loc 1 291 0
 176 005e 4FF48053 		mov	r3, #4096
 177 0062 C4F20203 		movt	r3, 16386
 178 0066 4FF48052 		mov	r2, #4096
 179 006a C4F20202 		movt	r2, 16386
 180 006e 1268     		ldr	r2, [r2, #0]
 181 0070 42F4A022 		orr	r2, r2, #327680
 182 0074 1A60     		str	r2, [r3, #0]
 183              		.loc 1 292 0
 184 0076 00BF     		nop
 185              	.L2:
 186              		.loc 1 297 0
 187 0078 02B0     		add	sp, sp, #8
 188 007a 7047     		bx	lr
 189              		.cfi_endproc
 190              	.LFE57:
 191              		.size	RCC_HSEConfig, .-RCC_HSEConfig
 192 007c AFF30080 		.section	.text.RCC_WaitForHSEStartUp,"ax",%progbits
 193              		.align	2
 194              		.p2align 4,,15
 195              		.global	RCC_WaitForHSEStartUp
 196              		.thumb
 197              		.thumb_func
 198              		.type	RCC_WaitForHSEStartUp, %function
 199              	RCC_WaitForHSEStartUp:
 200              	.LFB58:
 201              		.loc 1 307 0
 202              		.cfi_startproc
 203              		@ args = 0, pretend = 0, frame = 8
 204              		@ frame_needed = 0, uses_anonymous_args = 0
 205 0000 00B5     		push	{lr}
 206              	.LCFI1:
 207              		.cfi_def_cfa_offset 4
 208 0002 83B0     		sub	sp, sp, #12
 209              	.LCFI2:
 210              		.cfi_def_cfa_offset 16
 211              		.loc 1 308 0
 212 0004 4FF00003 		mov	r3, #0
 213 0008 0093     		str	r3, [sp, #0]
 214              		.loc 1 309 0
 215 000a 4FF00003 		mov	r3, #0
 216 000e 8DF80730 		strb	r3, [sp, #7]
 217              		.loc 1 310 0
 218 0012 4FF00003 		mov	r3, #0
 219 0016 8DF80630 		strb	r3, [sp, #6]
 220              	.L9:
 221              		.loc 1 315 0 discriminator 1
 222 001a 4FF03100 		mov	r0, #49
ARM GAS  C:\Users\z80\AppData\Local\Temp\ccgwH8xw.s 			page 5


 223              		.cfi_offset 14, -4
 224 001e FFF7FEFF 		bl	RCC_GetFlagStatus
 225 0022 0346     		mov	r3, r0
 226 0024 8DF80630 		strb	r3, [sp, #6]
 227              		.loc 1 316 0 discriminator 1
 228 0028 009B     		ldr	r3, [sp, #0]
 229 002a 03F10103 		add	r3, r3, #1
 230 002e 0093     		str	r3, [sp, #0]
 231              		.loc 1 317 0 discriminator 1
 232 0030 009B     		ldr	r3, [sp, #0]
 233 0032 B3F5A06F 		cmp	r3, #1280
 234 0036 03D0     		beq	.L8
 235 0038 9DF80630 		ldrb	r3, [sp, #6]	@ zero_extendqisi2
 236 003c 002B     		cmp	r3, #0
 237 003e ECD0     		beq	.L9
 238              	.L8:
 239              		.loc 1 319 0
 240 0040 4FF03100 		mov	r0, #49
 241 0044 FFF7FEFF 		bl	RCC_GetFlagStatus
 242 0048 0346     		mov	r3, r0
 243 004a 002B     		cmp	r3, #0
 244 004c 04D0     		beq	.L10
 245              		.loc 1 321 0
 246 004e 4FF00103 		mov	r3, #1
 247 0052 8DF80730 		strb	r3, [sp, #7]
 248 0056 03E0     		b	.L11
 249              	.L10:
 250              		.loc 1 325 0
 251 0058 4FF00003 		mov	r3, #0
 252 005c 8DF80730 		strb	r3, [sp, #7]
 253              	.L11:
 254              		.loc 1 327 0
 255 0060 9DF80730 		ldrb	r3, [sp, #7]	@ zero_extendqisi2
 256              		.loc 1 328 0
 257 0064 1846     		mov	r0, r3
 258 0066 03B0     		add	sp, sp, #12
 259 0068 00BD     		pop	{pc}
 260              		.cfi_endproc
 261              	.LFE58:
 262              		.size	RCC_WaitForHSEStartUp, .-RCC_WaitForHSEStartUp
 263 006a 00BFAFF3 		.section	.text.RCC_AdjustHSICalibrationValue,"ax",%progbits
 263      0080
 264              		.align	2
 265              		.p2align 4,,15
 266              		.global	RCC_AdjustHSICalibrationValue
 267              		.thumb
 268              		.thumb_func
 269              		.type	RCC_AdjustHSICalibrationValue, %function
 270              	RCC_AdjustHSICalibrationValue:
 271              	.LFB59:
 272              		.loc 1 337 0
 273              		.cfi_startproc
 274              		@ args = 0, pretend = 0, frame = 16
 275              		@ frame_needed = 0, uses_anonymous_args = 0
 276              		@ link register save eliminated.
 277 0000 84B0     		sub	sp, sp, #16
 278              	.LCFI3:
ARM GAS  C:\Users\z80\AppData\Local\Temp\ccgwH8xw.s 			page 6


 279              		.cfi_def_cfa_offset 16
 280 0002 0346     		mov	r3, r0
 281 0004 8DF80730 		strb	r3, [sp, #7]
 282              		.loc 1 338 0
 283 0008 4FF00003 		mov	r3, #0
 284 000c 0393     		str	r3, [sp, #12]
 285              		.loc 1 341 0
 286 000e 4FF48053 		mov	r3, #4096
 287 0012 C4F20203 		movt	r3, 16386
 288 0016 1B68     		ldr	r3, [r3, #0]
 289 0018 0393     		str	r3, [sp, #12]
 290              		.loc 1 343 0
 291 001a 039B     		ldr	r3, [sp, #12]
 292 001c 23F0F803 		bic	r3, r3, #248
 293 0020 0393     		str	r3, [sp, #12]
 294              		.loc 1 345 0
 295 0022 9DF80730 		ldrb	r3, [sp, #7]	@ zero_extendqisi2
 296 0026 4FEAC303 		lsl	r3, r3, #3
 297 002a 039A     		ldr	r2, [sp, #12]
 298 002c 42EA0303 		orr	r3, r2, r3
 299 0030 0393     		str	r3, [sp, #12]
 300              		.loc 1 347 0
 301 0032 4FF48053 		mov	r3, #4096
 302 0036 C4F20203 		movt	r3, 16386
 303 003a 039A     		ldr	r2, [sp, #12]
 304 003c 1A60     		str	r2, [r3, #0]
 305              		.loc 1 348 0
 306 003e 04B0     		add	sp, sp, #16
 307 0040 7047     		bx	lr
 308              		.cfi_endproc
 309              	.LFE59:
 310              		.size	RCC_AdjustHSICalibrationValue, .-RCC_AdjustHSICalibrationValue
 311 0042 00BFAFF3 		.section	.text.RCC_HSICmd,"ax",%progbits
 311      0080AFF3 
 311      0080AFF3 
 311      0080
 312              		.align	2
 313              		.p2align 4,,15
 314              		.global	RCC_HSICmd
 315              		.thumb
 316              		.thumb_func
 317              		.type	RCC_HSICmd, %function
 318              	RCC_HSICmd:
 319              	.LFB60:
 320              		.loc 1 357 0
 321              		.cfi_startproc
 322              		@ args = 0, pretend = 0, frame = 8
 323              		@ frame_needed = 0, uses_anonymous_args = 0
 324              		@ link register save eliminated.
 325 0000 82B0     		sub	sp, sp, #8
 326              	.LCFI4:
 327              		.cfi_def_cfa_offset 8
 328 0002 0346     		mov	r3, r0
 329 0004 8DF80730 		strb	r3, [sp, #7]
 330              		.loc 1 360 0
 331 0008 4FF00003 		mov	r3, #0
 332 000c C4F24223 		movt	r3, 16962
ARM GAS  C:\Users\z80\AppData\Local\Temp\ccgwH8xw.s 			page 7


 333 0010 9DF80720 		ldrb	r2, [sp, #7]	@ zero_extendqisi2
 334 0014 1A60     		str	r2, [r3, #0]
 335              		.loc 1 361 0
 336 0016 02B0     		add	sp, sp, #8
 337 0018 7047     		bx	lr
 338              		.cfi_endproc
 339              	.LFE60:
 340              		.size	RCC_HSICmd, .-RCC_HSICmd
 341 001a 00BFAFF3 		.section	.text.RCC_PLLConfig,"ax",%progbits
 341      0080
 342              		.align	2
 343              		.p2align 4,,15
 344              		.global	RCC_PLLConfig
 345              		.thumb
 346              		.thumb_func
 347              		.type	RCC_PLLConfig, %function
 348              	RCC_PLLConfig:
 349              	.LFB61:
 350              		.loc 1 381 0
 351              		.cfi_startproc
 352              		@ args = 0, pretend = 0, frame = 16
 353              		@ frame_needed = 0, uses_anonymous_args = 0
 354              		@ link register save eliminated.
 355 0000 84B0     		sub	sp, sp, #16
 356              	.LCFI5:
 357              		.cfi_def_cfa_offset 16
 358 0002 0190     		str	r0, [sp, #4]
 359 0004 0091     		str	r1, [sp, #0]
 360              		.loc 1 382 0
 361 0006 4FF00003 		mov	r3, #0
 362 000a 0393     		str	r3, [sp, #12]
 363              		.loc 1 388 0
 364 000c 4FF48053 		mov	r3, #4096
 365 0010 C4F20203 		movt	r3, 16386
 366 0014 5B68     		ldr	r3, [r3, #4]
 367 0016 0393     		str	r3, [sp, #12]
 368              		.loc 1 390 0
 369 0018 039B     		ldr	r3, [sp, #12]
 370 001a 23F47C13 		bic	r3, r3, #4128768
 371 001e 0393     		str	r3, [sp, #12]
 372              		.loc 1 392 0
 373 0020 019A     		ldr	r2, [sp, #4]
 374 0022 009B     		ldr	r3, [sp, #0]
 375 0024 42EA0303 		orr	r3, r2, r3
 376 0028 039A     		ldr	r2, [sp, #12]
 377 002a 42EA0303 		orr	r3, r2, r3
 378 002e 0393     		str	r3, [sp, #12]
 379              		.loc 1 394 0
 380 0030 4FF48053 		mov	r3, #4096
 381 0034 C4F20203 		movt	r3, 16386
 382 0038 039A     		ldr	r2, [sp, #12]
 383 003a 5A60     		str	r2, [r3, #4]
 384              		.loc 1 395 0
 385 003c 04B0     		add	sp, sp, #16
 386 003e 7047     		bx	lr
 387              		.cfi_endproc
 388              	.LFE61:
ARM GAS  C:\Users\z80\AppData\Local\Temp\ccgwH8xw.s 			page 8


 389              		.size	RCC_PLLConfig, .-RCC_PLLConfig
 390              		.section	.text.RCC_PLLCmd,"ax",%progbits
 391              		.align	2
 392              		.p2align 4,,15
 393              		.global	RCC_PLLCmd
 394              		.thumb
 395              		.thumb_func
 396              		.type	RCC_PLLCmd, %function
 397              	RCC_PLLCmd:
 398              	.LFB62:
 399              		.loc 1 404 0
 400              		.cfi_startproc
 401              		@ args = 0, pretend = 0, frame = 8
 402              		@ frame_needed = 0, uses_anonymous_args = 0
 403              		@ link register save eliminated.
 404 0000 82B0     		sub	sp, sp, #8
 405              	.LCFI6:
 406              		.cfi_def_cfa_offset 8
 407 0002 0346     		mov	r3, r0
 408 0004 8DF80730 		strb	r3, [sp, #7]
 409              		.loc 1 408 0
 410 0008 4FF06003 		mov	r3, #96
 411 000c C4F24223 		movt	r3, 16962
 412 0010 9DF80720 		ldrb	r2, [sp, #7]	@ zero_extendqisi2
 413 0014 1A60     		str	r2, [r3, #0]
 414              		.loc 1 409 0
 415 0016 02B0     		add	sp, sp, #8
 416 0018 7047     		bx	lr
 417              		.cfi_endproc
 418              	.LFE62:
 419              		.size	RCC_PLLCmd, .-RCC_PLLCmd
 420 001a 00BFAFF3 		.section	.text.RCC_SYSCLKConfig,"ax",%progbits
 420      0080
 421              		.align	2
 422              		.p2align 4,,15
 423              		.global	RCC_SYSCLKConfig
 424              		.thumb
 425              		.thumb_func
 426              		.type	RCC_SYSCLKConfig, %function
 427              	RCC_SYSCLKConfig:
 428              	.LFB63:
 429              		.loc 1 567 0
 430              		.cfi_startproc
 431              		@ args = 0, pretend = 0, frame = 16
 432              		@ frame_needed = 0, uses_anonymous_args = 0
 433              		@ link register save eliminated.
 434 0000 84B0     		sub	sp, sp, #16
 435              	.LCFI7:
 436              		.cfi_def_cfa_offset 16
 437 0002 0190     		str	r0, [sp, #4]
 438              		.loc 1 568 0
 439 0004 4FF00003 		mov	r3, #0
 440 0008 0393     		str	r3, [sp, #12]
 441              		.loc 1 571 0
 442 000a 4FF48053 		mov	r3, #4096
 443 000e C4F20203 		movt	r3, 16386
 444 0012 5B68     		ldr	r3, [r3, #4]
ARM GAS  C:\Users\z80\AppData\Local\Temp\ccgwH8xw.s 			page 9


 445 0014 0393     		str	r3, [sp, #12]
 446              		.loc 1 573 0
 447 0016 039B     		ldr	r3, [sp, #12]
 448 0018 23F00303 		bic	r3, r3, #3
 449 001c 0393     		str	r3, [sp, #12]
 450              		.loc 1 575 0
 451 001e 039A     		ldr	r2, [sp, #12]
 452 0020 019B     		ldr	r3, [sp, #4]
 453 0022 42EA0303 		orr	r3, r2, r3
 454 0026 0393     		str	r3, [sp, #12]
 455              		.loc 1 577 0
 456 0028 4FF48053 		mov	r3, #4096
 457 002c C4F20203 		movt	r3, 16386
 458 0030 039A     		ldr	r2, [sp, #12]
 459 0032 5A60     		str	r2, [r3, #4]
 460              		.loc 1 578 0
 461 0034 04B0     		add	sp, sp, #16
 462 0036 7047     		bx	lr
 463              		.cfi_endproc
 464              	.LFE63:
 465              		.size	RCC_SYSCLKConfig, .-RCC_SYSCLKConfig
 466 0038 AFF30080 		.section	.text.RCC_GetSYSCLKSource,"ax",%progbits
 466      AFF30080 
 467              		.align	2
 468              		.p2align 4,,15
 469              		.global	RCC_GetSYSCLKSource
 470              		.thumb
 471              		.thumb_func
 472              		.type	RCC_GetSYSCLKSource, %function
 473              	RCC_GetSYSCLKSource:
 474              	.LFB64:
 475              		.loc 1 590 0
 476              		.cfi_startproc
 477              		@ args = 0, pretend = 0, frame = 0
 478              		@ frame_needed = 0, uses_anonymous_args = 0
 479              		@ link register save eliminated.
 480              		.loc 1 591 0
 481 0000 4FF48053 		mov	r3, #4096
 482 0004 C4F20203 		movt	r3, 16386
 483 0008 5B68     		ldr	r3, [r3, #4]
 484 000a DBB2     		uxtb	r3, r3
 485 000c 03F00C03 		and	r3, r3, #12
 486 0010 DBB2     		uxtb	r3, r3
 487              		.loc 1 592 0
 488 0012 1846     		mov	r0, r3
 489 0014 7047     		bx	lr
 490              		.cfi_endproc
 491              	.LFE64:
 492              		.size	RCC_GetSYSCLKSource, .-RCC_GetSYSCLKSource
 493 0016 00BFAFF3 		.section	.text.RCC_HCLKConfig,"ax",%progbits
 493      0080AFF3 
 493      0080
 494              		.align	2
 495              		.p2align 4,,15
 496              		.global	RCC_HCLKConfig
 497              		.thumb
 498              		.thumb_func
ARM GAS  C:\Users\z80\AppData\Local\Temp\ccgwH8xw.s 			page 10


 499              		.type	RCC_HCLKConfig, %function
 500              	RCC_HCLKConfig:
 501              	.LFB65:
 502              		.loc 1 611 0
 503              		.cfi_startproc
 504              		@ args = 0, pretend = 0, frame = 16
 505              		@ frame_needed = 0, uses_anonymous_args = 0
 506              		@ link register save eliminated.
 507 0000 84B0     		sub	sp, sp, #16
 508              	.LCFI8:
 509              		.cfi_def_cfa_offset 16
 510 0002 0190     		str	r0, [sp, #4]
 511              		.loc 1 612 0
 512 0004 4FF00003 		mov	r3, #0
 513 0008 0393     		str	r3, [sp, #12]
 514              		.loc 1 615 0
 515 000a 4FF48053 		mov	r3, #4096
 516 000e C4F20203 		movt	r3, 16386
 517 0012 5B68     		ldr	r3, [r3, #4]
 518 0014 0393     		str	r3, [sp, #12]
 519              		.loc 1 617 0
 520 0016 039B     		ldr	r3, [sp, #12]
 521 0018 23F0F003 		bic	r3, r3, #240
 522 001c 0393     		str	r3, [sp, #12]
 523              		.loc 1 619 0
 524 001e 039A     		ldr	r2, [sp, #12]
 525 0020 019B     		ldr	r3, [sp, #4]
 526 0022 42EA0303 		orr	r3, r2, r3
 527 0026 0393     		str	r3, [sp, #12]
 528              		.loc 1 621 0
 529 0028 4FF48053 		mov	r3, #4096
 530 002c C4F20203 		movt	r3, 16386
 531 0030 039A     		ldr	r2, [sp, #12]
 532 0032 5A60     		str	r2, [r3, #4]
 533              		.loc 1 622 0
 534 0034 04B0     		add	sp, sp, #16
 535 0036 7047     		bx	lr
 536              		.cfi_endproc
 537              	.LFE65:
 538              		.size	RCC_HCLKConfig, .-RCC_HCLKConfig
 539 0038 AFF30080 		.section	.text.RCC_PCLK1Config,"ax",%progbits
 539      AFF30080 
 540              		.align	2
 541              		.p2align 4,,15
 542              		.global	RCC_PCLK1Config
 543              		.thumb
 544              		.thumb_func
 545              		.type	RCC_PCLK1Config, %function
 546              	RCC_PCLK1Config:
 547              	.LFB66:
 548              		.loc 1 637 0
 549              		.cfi_startproc
 550              		@ args = 0, pretend = 0, frame = 16
 551              		@ frame_needed = 0, uses_anonymous_args = 0
 552              		@ link register save eliminated.
 553 0000 84B0     		sub	sp, sp, #16
 554              	.LCFI9:
ARM GAS  C:\Users\z80\AppData\Local\Temp\ccgwH8xw.s 			page 11


 555              		.cfi_def_cfa_offset 16
 556 0002 0190     		str	r0, [sp, #4]
 557              		.loc 1 638 0
 558 0004 4FF00003 		mov	r3, #0
 559 0008 0393     		str	r3, [sp, #12]
 560              		.loc 1 641 0
 561 000a 4FF48053 		mov	r3, #4096
 562 000e C4F20203 		movt	r3, 16386
 563 0012 5B68     		ldr	r3, [r3, #4]
 564 0014 0393     		str	r3, [sp, #12]
 565              		.loc 1 643 0
 566 0016 039B     		ldr	r3, [sp, #12]
 567 0018 23F4E063 		bic	r3, r3, #1792
 568 001c 0393     		str	r3, [sp, #12]
 569              		.loc 1 645 0
 570 001e 039A     		ldr	r2, [sp, #12]
 571 0020 019B     		ldr	r3, [sp, #4]
 572 0022 42EA0303 		orr	r3, r2, r3
 573 0026 0393     		str	r3, [sp, #12]
 574              		.loc 1 647 0
 575 0028 4FF48053 		mov	r3, #4096
 576 002c C4F20203 		movt	r3, 16386
 577 0030 039A     		ldr	r2, [sp, #12]
 578 0032 5A60     		str	r2, [r3, #4]
 579              		.loc 1 648 0
 580 0034 04B0     		add	sp, sp, #16
 581 0036 7047     		bx	lr
 582              		.cfi_endproc
 583              	.LFE66:
 584              		.size	RCC_PCLK1Config, .-RCC_PCLK1Config
 585 0038 AFF30080 		.section	.text.RCC_PCLK2Config,"ax",%progbits
 585      AFF30080 
 586              		.align	2
 587              		.p2align 4,,15
 588              		.global	RCC_PCLK2Config
 589              		.thumb
 590              		.thumb_func
 591              		.type	RCC_PCLK2Config, %function
 592              	RCC_PCLK2Config:
 593              	.LFB67:
 594              		.loc 1 663 0
 595              		.cfi_startproc
 596              		@ args = 0, pretend = 0, frame = 16
 597              		@ frame_needed = 0, uses_anonymous_args = 0
 598              		@ link register save eliminated.
 599 0000 84B0     		sub	sp, sp, #16
 600              	.LCFI10:
 601              		.cfi_def_cfa_offset 16
 602 0002 0190     		str	r0, [sp, #4]
 603              		.loc 1 664 0
 604 0004 4FF00003 		mov	r3, #0
 605 0008 0393     		str	r3, [sp, #12]
 606              		.loc 1 667 0
 607 000a 4FF48053 		mov	r3, #4096
 608 000e C4F20203 		movt	r3, 16386
 609 0012 5B68     		ldr	r3, [r3, #4]
 610 0014 0393     		str	r3, [sp, #12]
ARM GAS  C:\Users\z80\AppData\Local\Temp\ccgwH8xw.s 			page 12


 611              		.loc 1 669 0
 612 0016 039B     		ldr	r3, [sp, #12]
 613 0018 23F46053 		bic	r3, r3, #14336
 614 001c 0393     		str	r3, [sp, #12]
 615              		.loc 1 671 0
 616 001e 019B     		ldr	r3, [sp, #4]
 617 0020 4FEAC303 		lsl	r3, r3, #3
 618 0024 039A     		ldr	r2, [sp, #12]
 619 0026 42EA0303 		orr	r3, r2, r3
 620 002a 0393     		str	r3, [sp, #12]
 621              		.loc 1 673 0
 622 002c 4FF48053 		mov	r3, #4096
 623 0030 C4F20203 		movt	r3, 16386
 624 0034 039A     		ldr	r2, [sp, #12]
 625 0036 5A60     		str	r2, [r3, #4]
 626              		.loc 1 674 0
 627 0038 04B0     		add	sp, sp, #16
 628 003a 7047     		bx	lr
 629              		.cfi_endproc
 630              	.LFE67:
 631              		.size	RCC_PCLK2Config, .-RCC_PCLK2Config
 632 003c AFF30080 		.section	.text.RCC_ITConfig,"ax",%progbits
 633              		.align	2
 634              		.p2align 4,,15
 635              		.global	RCC_ITConfig
 636              		.thumb
 637              		.thumb_func
 638              		.type	RCC_ITConfig, %function
 639              	RCC_ITConfig:
 640              	.LFB68:
 641              		.loc 1 703 0
 642              		.cfi_startproc
 643              		@ args = 0, pretend = 0, frame = 8
 644              		@ frame_needed = 0, uses_anonymous_args = 0
 645              		@ link register save eliminated.
 646 0000 82B0     		sub	sp, sp, #8
 647              	.LCFI11:
 648              		.cfi_def_cfa_offset 8
 649 0002 0246     		mov	r2, r0
 650 0004 0B46     		mov	r3, r1
 651 0006 8DF80720 		strb	r2, [sp, #7]
 652 000a 8DF80630 		strb	r3, [sp, #6]
 653              		.loc 1 707 0
 654 000e 9DF80630 		ldrb	r3, [sp, #6]	@ zero_extendqisi2
 655 0012 002B     		cmp	r3, #0
 656 0014 10D0     		beq	.L22
 657              		.loc 1 710 0
 658 0016 41F20903 		movw	r3, #4105
 659 001a C4F20203 		movt	r3, 16386
 660 001e 41F20902 		movw	r2, #4105
 661 0022 C4F20202 		movt	r2, 16386
 662 0026 1278     		ldrb	r2, [r2, #0]
 663 0028 D1B2     		uxtb	r1, r2
 664 002a 9DF80720 		ldrb	r2, [sp, #7]
 665 002e 41EA0202 		orr	r2, r1, r2
 666 0032 D2B2     		uxtb	r2, r2
 667 0034 1A70     		strb	r2, [r3, #0]
ARM GAS  C:\Users\z80\AppData\Local\Temp\ccgwH8xw.s 			page 13


 668 0036 12E0     		b	.L21
 669              	.L22:
 670              		.loc 1 715 0
 671 0038 41F20903 		movw	r3, #4105
 672 003c C4F20203 		movt	r3, 16386
 673 0040 41F20902 		movw	r2, #4105
 674 0044 C4F20202 		movt	r2, 16386
 675 0048 1278     		ldrb	r2, [r2, #0]
 676 004a D1B2     		uxtb	r1, r2
 677 004c 9DF80720 		ldrb	r2, [sp, #7]
 678 0050 6FEA0202 		mvn	r2, r2
 679 0054 D2B2     		uxtb	r2, r2
 680 0056 01EA0202 		and	r2, r1, r2
 681 005a D2B2     		uxtb	r2, r2
 682 005c 1A70     		strb	r2, [r3, #0]
 683              	.L21:
 684              		.loc 1 717 0
 685 005e 02B0     		add	sp, sp, #8
 686 0060 7047     		bx	lr
 687              		.cfi_endproc
 688              	.LFE68:
 689              		.size	RCC_ITConfig, .-RCC_ITConfig
 690 0062 00BFAFF3 		.section	.text.RCC_USBCLKConfig,"ax",%progbits
 690      0080AFF3 
 690      0080AFF3 
 690      0080
 691              		.align	2
 692              		.p2align 4,,15
 693              		.global	RCC_USBCLKConfig
 694              		.thumb
 695              		.thumb_func
 696              		.type	RCC_USBCLKConfig, %function
 697              	RCC_USBCLKConfig:
 698              	.LFB69:
 699              		.loc 1 731 0
 700              		.cfi_startproc
 701              		@ args = 0, pretend = 0, frame = 8
 702              		@ frame_needed = 0, uses_anonymous_args = 0
 703              		@ link register save eliminated.
 704 0000 82B0     		sub	sp, sp, #8
 705              	.LCFI12:
 706              		.cfi_def_cfa_offset 8
 707 0002 0190     		str	r0, [sp, #4]
 708              		.loc 1 735 0
 709 0004 4FF0D803 		mov	r3, #216
 710 0008 C4F24223 		movt	r3, 16962
 711 000c 019A     		ldr	r2, [sp, #4]
 712 000e 1A60     		str	r2, [r3, #0]
 713              		.loc 1 736 0
 714 0010 02B0     		add	sp, sp, #8
 715 0012 7047     		bx	lr
 716              		.cfi_endproc
 717              	.LFE69:
 718              		.size	RCC_USBCLKConfig, .-RCC_USBCLKConfig
 719 0014 AFF30080 		.section	.text.RCC_ADCCLKConfig,"ax",%progbits
 719      AFF30080 
 719      AFF30080 
ARM GAS  C:\Users\z80\AppData\Local\Temp\ccgwH8xw.s 			page 14


 720              		.align	2
 721              		.p2align 4,,15
 722              		.global	RCC_ADCCLKConfig
 723              		.thumb
 724              		.thumb_func
 725              		.type	RCC_ADCCLKConfig, %function
 726              	RCC_ADCCLKConfig:
 727              	.LFB70:
 728              		.loc 1 769 0
 729              		.cfi_startproc
 730              		@ args = 0, pretend = 0, frame = 16
 731              		@ frame_needed = 0, uses_anonymous_args = 0
 732              		@ link register save eliminated.
 733 0000 84B0     		sub	sp, sp, #16
 734              	.LCFI13:
 735              		.cfi_def_cfa_offset 16
 736 0002 0190     		str	r0, [sp, #4]
 737              		.loc 1 770 0
 738 0004 4FF00003 		mov	r3, #0
 739 0008 0393     		str	r3, [sp, #12]
 740              		.loc 1 773 0
 741 000a 4FF48053 		mov	r3, #4096
 742 000e C4F20203 		movt	r3, 16386
 743 0012 5B68     		ldr	r3, [r3, #4]
 744 0014 0393     		str	r3, [sp, #12]
 745              		.loc 1 775 0
 746 0016 039B     		ldr	r3, [sp, #12]
 747 0018 23F44043 		bic	r3, r3, #49152
 748 001c 0393     		str	r3, [sp, #12]
 749              		.loc 1 777 0
 750 001e 039A     		ldr	r2, [sp, #12]
 751 0020 019B     		ldr	r3, [sp, #4]
 752 0022 42EA0303 		orr	r3, r2, r3
 753 0026 0393     		str	r3, [sp, #12]
 754              		.loc 1 779 0
 755 0028 4FF48053 		mov	r3, #4096
 756 002c C4F20203 		movt	r3, 16386
 757 0030 039A     		ldr	r2, [sp, #12]
 758 0032 5A60     		str	r2, [r3, #4]
 759              		.loc 1 780 0
 760 0034 04B0     		add	sp, sp, #16
 761 0036 7047     		bx	lr
 762              		.cfi_endproc
 763              	.LFE70:
 764              		.size	RCC_ADCCLKConfig, .-RCC_ADCCLKConfig
 765 0038 AFF30080 		.section	.text.RCC_LSEConfig,"ax",%progbits
 765      AFF30080 
 766              		.align	2
 767              		.p2align 4,,15
 768              		.global	RCC_LSEConfig
 769              		.thumb
 770              		.thumb_func
 771              		.type	RCC_LSEConfig, %function
 772              	RCC_LSEConfig:
 773              	.LFB71:
 774              		.loc 1 832 0
 775              		.cfi_startproc
ARM GAS  C:\Users\z80\AppData\Local\Temp\ccgwH8xw.s 			page 15


 776              		@ args = 0, pretend = 0, frame = 8
 777              		@ frame_needed = 0, uses_anonymous_args = 0
 778              		@ link register save eliminated.
 779 0000 82B0     		sub	sp, sp, #8
 780              	.LCFI14:
 781              		.cfi_def_cfa_offset 8
 782 0002 0346     		mov	r3, r0
 783 0004 8DF80730 		strb	r3, [sp, #7]
 784              		.loc 1 837 0
 785 0008 4FF48153 		mov	r3, #4128
 786 000c C4F20203 		movt	r3, 16386
 787 0010 4FF00002 		mov	r2, #0
 788 0014 1A70     		strb	r2, [r3, #0]
 789              		.loc 1 839 0
 790 0016 4FF48153 		mov	r3, #4128
 791 001a C4F20203 		movt	r3, 16386
 792 001e 4FF00002 		mov	r2, #0
 793 0022 1A70     		strb	r2, [r3, #0]
 794              		.loc 1 841 0
 795 0024 9DF80730 		ldrb	r3, [sp, #7]	@ zero_extendqisi2
 796 0028 012B     		cmp	r3, #1
 797 002a 02D0     		beq	.L28
 798 002c 042B     		cmp	r3, #4
 799 002e 08D0     		beq	.L29
 800              		.loc 1 854 0
 801 0030 0FE0     		b	.L26
 802              	.L28:
 803              		.loc 1 845 0
 804 0032 4FF48153 		mov	r3, #4128
 805 0036 C4F20203 		movt	r3, 16386
 806 003a 4FF00102 		mov	r2, #1
 807 003e 1A70     		strb	r2, [r3, #0]
 808              		.loc 1 846 0
 809 0040 07E0     		b	.L26
 810              	.L29:
 811              		.loc 1 850 0
 812 0042 4FF48153 		mov	r3, #4128
 813 0046 C4F20203 		movt	r3, 16386
 814 004a 4FF00502 		mov	r2, #5
 815 004e 1A70     		strb	r2, [r3, #0]
 816              		.loc 1 851 0
 817 0050 00BF     		nop
 818              	.L26:
 819              		.loc 1 856 0
 820 0052 02B0     		add	sp, sp, #8
 821 0054 7047     		bx	lr
 822              		.cfi_endproc
 823              	.LFE71:
 824              		.size	RCC_LSEConfig, .-RCC_LSEConfig
 825 0056 00BFAFF3 		.section	.text.RCC_LSICmd,"ax",%progbits
 825      0080AFF3 
 825      0080
 826              		.align	2
 827              		.p2align 4,,15
 828              		.global	RCC_LSICmd
 829              		.thumb
 830              		.thumb_func
ARM GAS  C:\Users\z80\AppData\Local\Temp\ccgwH8xw.s 			page 16


 831              		.type	RCC_LSICmd, %function
 832              	RCC_LSICmd:
 833              	.LFB72:
 834              		.loc 1 865 0
 835              		.cfi_startproc
 836              		@ args = 0, pretend = 0, frame = 8
 837              		@ frame_needed = 0, uses_anonymous_args = 0
 838              		@ link register save eliminated.
 839 0000 82B0     		sub	sp, sp, #8
 840              	.LCFI15:
 841              		.cfi_def_cfa_offset 8
 842 0002 0346     		mov	r3, r0
 843 0004 8DF80730 		strb	r3, [sp, #7]
 844              		.loc 1 868 0
 845 0008 4FF49063 		mov	r3, #1152
 846 000c C4F24223 		movt	r3, 16962
 847 0010 9DF80720 		ldrb	r2, [sp, #7]	@ zero_extendqisi2
 848 0014 1A60     		str	r2, [r3, #0]
 849              		.loc 1 869 0
 850 0016 02B0     		add	sp, sp, #8
 851 0018 7047     		bx	lr
 852              		.cfi_endproc
 853              	.LFE72:
 854              		.size	RCC_LSICmd, .-RCC_LSICmd
 855 001a 00BFAFF3 		.section	.text.RCC_RTCCLKConfig,"ax",%progbits
 855      0080
 856              		.align	2
 857              		.p2align 4,,15
 858              		.global	RCC_RTCCLKConfig
 859              		.thumb
 860              		.thumb_func
 861              		.type	RCC_RTCCLKConfig, %function
 862              	RCC_RTCCLKConfig:
 863              	.LFB73:
 864              		.loc 1 882 0
 865              		.cfi_startproc
 866              		@ args = 0, pretend = 0, frame = 8
 867              		@ frame_needed = 0, uses_anonymous_args = 0
 868              		@ link register save eliminated.
 869 0000 82B0     		sub	sp, sp, #8
 870              	.LCFI16:
 871              		.cfi_def_cfa_offset 8
 872 0002 0190     		str	r0, [sp, #4]
 873              		.loc 1 886 0
 874 0004 4FF48053 		mov	r3, #4096
 875 0008 C4F20203 		movt	r3, 16386
 876 000c 4FF48052 		mov	r2, #4096
 877 0010 C4F20202 		movt	r2, 16386
 878 0014 116A     		ldr	r1, [r2, #32]
 879 0016 019A     		ldr	r2, [sp, #4]
 880 0018 41EA0202 		orr	r2, r1, r2
 881 001c 1A62     		str	r2, [r3, #32]
 882              		.loc 1 887 0
 883 001e 02B0     		add	sp, sp, #8
 884 0020 7047     		bx	lr
 885              		.cfi_endproc
 886              	.LFE73:
ARM GAS  C:\Users\z80\AppData\Local\Temp\ccgwH8xw.s 			page 17


 887              		.size	RCC_RTCCLKConfig, .-RCC_RTCCLKConfig
 888 0022 00BFAFF3 		.section	.text.RCC_RTCCLKCmd,"ax",%progbits
 888      0080AFF3 
 888      0080AFF3 
 888      0080
 889              		.align	2
 890              		.p2align 4,,15
 891              		.global	RCC_RTCCLKCmd
 892              		.thumb
 893              		.thumb_func
 894              		.type	RCC_RTCCLKCmd, %function
 895              	RCC_RTCCLKCmd:
 896              	.LFB74:
 897              		.loc 1 896 0
 898              		.cfi_startproc
 899              		@ args = 0, pretend = 0, frame = 8
 900              		@ frame_needed = 0, uses_anonymous_args = 0
 901              		@ link register save eliminated.
 902 0000 82B0     		sub	sp, sp, #8
 903              	.LCFI17:
 904              		.cfi_def_cfa_offset 8
 905 0002 0346     		mov	r3, r0
 906 0004 8DF80730 		strb	r3, [sp, #7]
 907              		.loc 1 899 0
 908 0008 40F23C43 		movw	r3, #1084
 909 000c C4F24223 		movt	r3, 16962
 910 0010 9DF80720 		ldrb	r2, [sp, #7]	@ zero_extendqisi2
 911 0014 1A60     		str	r2, [r3, #0]
 912              		.loc 1 900 0
 913 0016 02B0     		add	sp, sp, #8
 914 0018 7047     		bx	lr
 915              		.cfi_endproc
 916              	.LFE74:
 917              		.size	RCC_RTCCLKCmd, .-RCC_RTCCLKCmd
 918 001a 00BFAFF3 		.section	.text.RCC_GetClocksFreq,"ax",%progbits
 918      0080
 919              		.align	2
 920              		.p2align 4,,15
 921              		.global	RCC_GetClocksFreq
 922              		.thumb
 923              		.thumb_func
 924              		.type	RCC_GetClocksFreq, %function
 925              	RCC_GetClocksFreq:
 926              	.LFB75:
 927              		.loc 1 911 0
 928              		.cfi_startproc
 929              		@ args = 0, pretend = 0, frame = 24
 930              		@ frame_needed = 0, uses_anonymous_args = 0
 931              		@ link register save eliminated.
 932 0000 86B0     		sub	sp, sp, #24
 933              	.LCFI18:
 934              		.cfi_def_cfa_offset 24
 935 0002 0190     		str	r0, [sp, #4]
 936              		.loc 1 912 0
 937 0004 4FF00003 		mov	r3, #0
 938 0008 0593     		str	r3, [sp, #20]
 939 000a 4FF00003 		mov	r3, #0
ARM GAS  C:\Users\z80\AppData\Local\Temp\ccgwH8xw.s 			page 18


 940 000e 0493     		str	r3, [sp, #16]
 941 0010 4FF00003 		mov	r3, #0
 942 0014 0393     		str	r3, [sp, #12]
 943 0016 4FF00003 		mov	r3, #0
 944 001a 0293     		str	r3, [sp, #8]
 945              		.loc 1 923 0
 946 001c 4FF48053 		mov	r3, #4096
 947 0020 C4F20203 		movt	r3, 16386
 948 0024 5B68     		ldr	r3, [r3, #4]
 949 0026 03F00C03 		and	r3, r3, #12
 950 002a 0593     		str	r3, [sp, #20]
 951              		.loc 1 925 0
 952 002c 059B     		ldr	r3, [sp, #20]
 953 002e 042B     		cmp	r3, #4
 954 0030 0AD0     		beq	.L37
 955 0032 082B     		cmp	r3, #8
 956 0034 0FD0     		beq	.L38
 957 0036 002B     		cmp	r3, #0
 958 0038 4DD1     		bne	.L43
 959              	.L36:
 960              		.loc 1 928 0
 961 003a 019A     		ldr	r2, [sp, #4]
 962 003c 4FF49053 		mov	r3, #4608
 963 0040 C0F27A03 		movt	r3, 122
 964 0044 1360     		str	r3, [r2, #0]
 965              		.loc 1 929 0
 966 0046 4DE0     		b	.L39
 967              	.L37:
 968              		.loc 1 931 0
 969 0048 019A     		ldr	r2, [sp, #4]
 970 004a 4FF49053 		mov	r3, #4608
 971 004e C0F27A03 		movt	r3, 122
 972 0052 1360     		str	r3, [r2, #0]
 973              		.loc 1 932 0
 974 0054 46E0     		b	.L39
 975              	.L38:
 976              		.loc 1 936 0
 977 0056 4FF48053 		mov	r3, #4096
 978 005a C4F20203 		movt	r3, 16386
 979 005e 5B68     		ldr	r3, [r3, #4]
 980 0060 03F47013 		and	r3, r3, #3932160
 981 0064 0493     		str	r3, [sp, #16]
 982              		.loc 1 937 0
 983 0066 4FF48053 		mov	r3, #4096
 984 006a C4F20203 		movt	r3, 16386
 985 006e 5B68     		ldr	r3, [r3, #4]
 986 0070 03F48033 		and	r3, r3, #65536
 987 0074 0393     		str	r3, [sp, #12]
 988              		.loc 1 940 0
 989 0076 049B     		ldr	r3, [sp, #16]
 990 0078 4FEA9343 		lsr	r3, r3, #18
 991 007c 03F10203 		add	r3, r3, #2
 992 0080 0493     		str	r3, [sp, #16]
 993              		.loc 1 942 0
 994 0082 039B     		ldr	r3, [sp, #12]
 995 0084 002B     		cmp	r3, #0
 996 0086 09D1     		bne	.L40
ARM GAS  C:\Users\z80\AppData\Local\Temp\ccgwH8xw.s 			page 19


 997              		.loc 1 944 0
 998 0088 049A     		ldr	r2, [sp, #16]
 999 008a 4FF41063 		mov	r3, #2304
 1000 008e C0F23D03 		movt	r3, 61
 1001 0092 03FB02F2 		mul	r2, r3, r2
 1002 0096 019B     		ldr	r3, [sp, #4]
 1003 0098 1A60     		str	r2, [r3, #0]
 1004              		.loc 1 1001 0
 1005 009a 23E0     		b	.L39
 1006              	.L40:
 1007              		.loc 1 954 0
 1008 009c 4FF48053 		mov	r3, #4096
 1009 00a0 C4F20203 		movt	r3, 16386
 1010 00a4 5B68     		ldr	r3, [r3, #4]
 1011 00a6 03F40033 		and	r3, r3, #131072
 1012 00aa 002B     		cmp	r3, #0
 1013 00ac 09D0     		beq	.L42
 1014              		.loc 1 956 0
 1015 00ae 049A     		ldr	r2, [sp, #16]
 1016 00b0 4FF41063 		mov	r3, #2304
 1017 00b4 C0F23D03 		movt	r3, 61
 1018 00b8 03FB02F2 		mul	r2, r3, r2
 1019 00bc 019B     		ldr	r3, [sp, #4]
 1020 00be 1A60     		str	r2, [r3, #0]
 1021              		.loc 1 1001 0
 1022 00c0 10E0     		b	.L39
 1023              	.L42:
 1024              		.loc 1 960 0
 1025 00c2 049A     		ldr	r2, [sp, #16]
 1026 00c4 4FF49053 		mov	r3, #4608
 1027 00c8 C0F27A03 		movt	r3, 122
 1028 00cc 03FB02F2 		mul	r2, r3, r2
 1029 00d0 019B     		ldr	r3, [sp, #4]
 1030 00d2 1A60     		str	r2, [r3, #0]
 1031              		.loc 1 1001 0
 1032 00d4 06E0     		b	.L39
 1033              	.L43:
 1034              		.loc 1 1004 0
 1035 00d6 019A     		ldr	r2, [sp, #4]
 1036 00d8 4FF49053 		mov	r3, #4608
 1037 00dc C0F27A03 		movt	r3, 122
 1038 00e0 1360     		str	r3, [r2, #0]
 1039              		.loc 1 1005 0
 1040 00e2 00BF     		nop
 1041              	.L39:
 1042              		.loc 1 1010 0
 1043 00e4 4FF48053 		mov	r3, #4096
 1044 00e8 C4F20203 		movt	r3, 16386
 1045 00ec 5B68     		ldr	r3, [r3, #4]
 1046 00ee 03F0F003 		and	r3, r3, #240
 1047 00f2 0593     		str	r3, [sp, #20]
 1048              		.loc 1 1011 0
 1049 00f4 059B     		ldr	r3, [sp, #20]
 1050 00f6 4FEA1313 		lsr	r3, r3, #4
 1051 00fa 0593     		str	r3, [sp, #20]
 1052              		.loc 1 1012 0
 1053 00fc 40F20003 		movw	r3, #:lower16:APBAHBPrescTable
ARM GAS  C:\Users\z80\AppData\Local\Temp\ccgwH8xw.s 			page 20


 1054 0100 C0F20003 		movt	r3, #:upper16:APBAHBPrescTable
 1055 0104 059A     		ldr	r2, [sp, #20]
 1056 0106 1344     		add	r3, r3, r2
 1057 0108 1B78     		ldrb	r3, [r3, #0]
 1058 010a DBB2     		uxtb	r3, r3
 1059 010c 0293     		str	r3, [sp, #8]
 1060              		.loc 1 1014 0
 1061 010e 019B     		ldr	r3, [sp, #4]
 1062 0110 1A68     		ldr	r2, [r3, #0]
 1063 0112 029B     		ldr	r3, [sp, #8]
 1064 0114 22FA03F2 		lsr	r2, r2, r3
 1065 0118 019B     		ldr	r3, [sp, #4]
 1066 011a 5A60     		str	r2, [r3, #4]
 1067              		.loc 1 1016 0
 1068 011c 4FF48053 		mov	r3, #4096
 1069 0120 C4F20203 		movt	r3, 16386
 1070 0124 5B68     		ldr	r3, [r3, #4]
 1071 0126 03F4E063 		and	r3, r3, #1792
 1072 012a 0593     		str	r3, [sp, #20]
 1073              		.loc 1 1017 0
 1074 012c 059B     		ldr	r3, [sp, #20]
 1075 012e 4FEA1323 		lsr	r3, r3, #8
 1076 0132 0593     		str	r3, [sp, #20]
 1077              		.loc 1 1018 0
 1078 0134 40F20003 		movw	r3, #:lower16:APBAHBPrescTable
 1079 0138 C0F20003 		movt	r3, #:upper16:APBAHBPrescTable
 1080 013c 059A     		ldr	r2, [sp, #20]
 1081 013e 1344     		add	r3, r3, r2
 1082 0140 1B78     		ldrb	r3, [r3, #0]
 1083 0142 DBB2     		uxtb	r3, r3
 1084 0144 0293     		str	r3, [sp, #8]
 1085              		.loc 1 1020 0
 1086 0146 019B     		ldr	r3, [sp, #4]
 1087 0148 5A68     		ldr	r2, [r3, #4]
 1088 014a 029B     		ldr	r3, [sp, #8]
 1089 014c 22FA03F2 		lsr	r2, r2, r3
 1090 0150 019B     		ldr	r3, [sp, #4]
 1091 0152 9A60     		str	r2, [r3, #8]
 1092              		.loc 1 1022 0
 1093 0154 4FF48053 		mov	r3, #4096
 1094 0158 C4F20203 		movt	r3, 16386
 1095 015c 5B68     		ldr	r3, [r3, #4]
 1096 015e 03F46053 		and	r3, r3, #14336
 1097 0162 0593     		str	r3, [sp, #20]
 1098              		.loc 1 1023 0
 1099 0164 059B     		ldr	r3, [sp, #20]
 1100 0166 4FEAD323 		lsr	r3, r3, #11
 1101 016a 0593     		str	r3, [sp, #20]
 1102              		.loc 1 1024 0
 1103 016c 40F20003 		movw	r3, #:lower16:APBAHBPrescTable
 1104 0170 C0F20003 		movt	r3, #:upper16:APBAHBPrescTable
 1105 0174 059A     		ldr	r2, [sp, #20]
 1106 0176 1344     		add	r3, r3, r2
 1107 0178 1B78     		ldrb	r3, [r3, #0]
 1108 017a DBB2     		uxtb	r3, r3
 1109 017c 0293     		str	r3, [sp, #8]
 1110              		.loc 1 1026 0
ARM GAS  C:\Users\z80\AppData\Local\Temp\ccgwH8xw.s 			page 21


 1111 017e 019B     		ldr	r3, [sp, #4]
 1112 0180 5A68     		ldr	r2, [r3, #4]
 1113 0182 029B     		ldr	r3, [sp, #8]
 1114 0184 22FA03F2 		lsr	r2, r2, r3
 1115 0188 019B     		ldr	r3, [sp, #4]
 1116 018a DA60     		str	r2, [r3, #12]
 1117              		.loc 1 1028 0
 1118 018c 4FF48053 		mov	r3, #4096
 1119 0190 C4F20203 		movt	r3, 16386
 1120 0194 5B68     		ldr	r3, [r3, #4]
 1121 0196 03F44043 		and	r3, r3, #49152
 1122 019a 0593     		str	r3, [sp, #20]
 1123              		.loc 1 1029 0
 1124 019c 059B     		ldr	r3, [sp, #20]
 1125 019e 4FEA9333 		lsr	r3, r3, #14
 1126 01a2 0593     		str	r3, [sp, #20]
 1127              		.loc 1 1030 0
 1128 01a4 40F20003 		movw	r3, #:lower16:ADCPrescTable
 1129 01a8 C0F20003 		movt	r3, #:upper16:ADCPrescTable
 1130 01ac 059A     		ldr	r2, [sp, #20]
 1131 01ae 1344     		add	r3, r3, r2
 1132 01b0 1B78     		ldrb	r3, [r3, #0]
 1133 01b2 DBB2     		uxtb	r3, r3
 1134 01b4 0293     		str	r3, [sp, #8]
 1135              		.loc 1 1032 0
 1136 01b6 019B     		ldr	r3, [sp, #4]
 1137 01b8 DA68     		ldr	r2, [r3, #12]
 1138 01ba 029B     		ldr	r3, [sp, #8]
 1139 01bc B2FBF3F2 		udiv	r2, r2, r3
 1140 01c0 019B     		ldr	r3, [sp, #4]
 1141 01c2 1A61     		str	r2, [r3, #16]
 1142              		.loc 1 1033 0
 1143 01c4 06B0     		add	sp, sp, #24
 1144 01c6 7047     		bx	lr
 1145              		.cfi_endproc
 1146              	.LFE75:
 1147              		.size	RCC_GetClocksFreq, .-RCC_GetClocksFreq
 1148 01c8 AFF30080 		.section	.text.RCC_AHBPeriphClockCmd,"ax",%progbits
 1148      AFF30080 
 1149              		.align	2
 1150              		.p2align 4,,15
 1151              		.global	RCC_AHBPeriphClockCmd
 1152              		.thumb
 1153              		.thumb_func
 1154              		.type	RCC_AHBPeriphClockCmd, %function
 1155              	RCC_AHBPeriphClockCmd:
 1156              	.LFB76:
 1157              		.loc 1 1067 0
 1158              		.cfi_startproc
 1159              		@ args = 0, pretend = 0, frame = 8
 1160              		@ frame_needed = 0, uses_anonymous_args = 0
 1161              		@ link register save eliminated.
 1162 0000 82B0     		sub	sp, sp, #8
 1163              	.LCFI19:
 1164              		.cfi_def_cfa_offset 8
 1165 0002 0190     		str	r0, [sp, #4]
 1166 0004 0B46     		mov	r3, r1
ARM GAS  C:\Users\z80\AppData\Local\Temp\ccgwH8xw.s 			page 22


 1167 0006 8DF80330 		strb	r3, [sp, #3]
 1168              		.loc 1 1072 0
 1169 000a 9DF80330 		ldrb	r3, [sp, #3]	@ zero_extendqisi2
 1170 000e 002B     		cmp	r3, #0
 1171 0010 0DD0     		beq	.L45
 1172              		.loc 1 1074 0
 1173 0012 4FF48053 		mov	r3, #4096
 1174 0016 C4F20203 		movt	r3, 16386
 1175 001a 4FF48052 		mov	r2, #4096
 1176 001e C4F20202 		movt	r2, 16386
 1177 0022 5169     		ldr	r1, [r2, #20]
 1178 0024 019A     		ldr	r2, [sp, #4]
 1179 0026 41EA0202 		orr	r2, r1, r2
 1180 002a 5A61     		str	r2, [r3, #20]
 1181 002c 0EE0     		b	.L44
 1182              	.L45:
 1183              		.loc 1 1078 0
 1184 002e 4FF48053 		mov	r3, #4096
 1185 0032 C4F20203 		movt	r3, 16386
 1186 0036 4FF48052 		mov	r2, #4096
 1187 003a C4F20202 		movt	r2, 16386
 1188 003e 5169     		ldr	r1, [r2, #20]
 1189 0040 019A     		ldr	r2, [sp, #4]
 1190 0042 6FEA0202 		mvn	r2, r2
 1191 0046 01EA0202 		and	r2, r1, r2
 1192 004a 5A61     		str	r2, [r3, #20]
 1193              	.L44:
 1194              		.loc 1 1080 0
 1195 004c 02B0     		add	sp, sp, #8
 1196 004e 7047     		bx	lr
 1197              		.cfi_endproc
 1198              	.LFE76:
 1199              		.size	RCC_AHBPeriphClockCmd, .-RCC_AHBPeriphClockCmd
 1200              		.section	.text.RCC_APB2PeriphClockCmd,"ax",%progbits
 1201              		.align	2
 1202              		.p2align 4,,15
 1203              		.global	RCC_APB2PeriphClockCmd
 1204              		.thumb
 1205              		.thumb_func
 1206              		.type	RCC_APB2PeriphClockCmd, %function
 1207              	RCC_APB2PeriphClockCmd:
 1208              	.LFB77:
 1209              		.loc 1 1098 0
 1210              		.cfi_startproc
 1211              		@ args = 0, pretend = 0, frame = 8
 1212              		@ frame_needed = 0, uses_anonymous_args = 0
 1213              		@ link register save eliminated.
 1214 0000 82B0     		sub	sp, sp, #8
 1215              	.LCFI20:
 1216              		.cfi_def_cfa_offset 8
 1217 0002 0190     		str	r0, [sp, #4]
 1218 0004 0B46     		mov	r3, r1
 1219 0006 8DF80330 		strb	r3, [sp, #3]
 1220              		.loc 1 1102 0
 1221 000a 9DF80330 		ldrb	r3, [sp, #3]	@ zero_extendqisi2
 1222 000e 002B     		cmp	r3, #0
 1223 0010 0DD0     		beq	.L48
ARM GAS  C:\Users\z80\AppData\Local\Temp\ccgwH8xw.s 			page 23


 1224              		.loc 1 1104 0
 1225 0012 4FF48053 		mov	r3, #4096
 1226 0016 C4F20203 		movt	r3, 16386
 1227 001a 4FF48052 		mov	r2, #4096
 1228 001e C4F20202 		movt	r2, 16386
 1229 0022 9169     		ldr	r1, [r2, #24]
 1230 0024 019A     		ldr	r2, [sp, #4]
 1231 0026 41EA0202 		orr	r2, r1, r2
 1232 002a 9A61     		str	r2, [r3, #24]
 1233 002c 0EE0     		b	.L47
 1234              	.L48:
 1235              		.loc 1 1108 0
 1236 002e 4FF48053 		mov	r3, #4096
 1237 0032 C4F20203 		movt	r3, 16386
 1238 0036 4FF48052 		mov	r2, #4096
 1239 003a C4F20202 		movt	r2, 16386
 1240 003e 9169     		ldr	r1, [r2, #24]
 1241 0040 019A     		ldr	r2, [sp, #4]
 1242 0042 6FEA0202 		mvn	r2, r2
 1243 0046 01EA0202 		and	r2, r1, r2
 1244 004a 9A61     		str	r2, [r3, #24]
 1245              	.L47:
 1246              		.loc 1 1110 0
 1247 004c 02B0     		add	sp, sp, #8
 1248 004e 7047     		bx	lr
 1249              		.cfi_endproc
 1250              	.LFE77:
 1251              		.size	RCC_APB2PeriphClockCmd, .-RCC_APB2PeriphClockCmd
 1252              		.section	.text.RCC_APB1PeriphClockCmd,"ax",%progbits
 1253              		.align	2
 1254              		.p2align 4,,15
 1255              		.global	RCC_APB1PeriphClockCmd
 1256              		.thumb
 1257              		.thumb_func
 1258              		.type	RCC_APB1PeriphClockCmd, %function
 1259              	RCC_APB1PeriphClockCmd:
 1260              	.LFB78:
 1261              		.loc 1 1129 0
 1262              		.cfi_startproc
 1263              		@ args = 0, pretend = 0, frame = 8
 1264              		@ frame_needed = 0, uses_anonymous_args = 0
 1265              		@ link register save eliminated.
 1266 0000 82B0     		sub	sp, sp, #8
 1267              	.LCFI21:
 1268              		.cfi_def_cfa_offset 8
 1269 0002 0190     		str	r0, [sp, #4]
 1270 0004 0B46     		mov	r3, r1
 1271 0006 8DF80330 		strb	r3, [sp, #3]
 1272              		.loc 1 1133 0
 1273 000a 9DF80330 		ldrb	r3, [sp, #3]	@ zero_extendqisi2
 1274 000e 002B     		cmp	r3, #0
 1275 0010 0DD0     		beq	.L51
 1276              		.loc 1 1135 0
 1277 0012 4FF48053 		mov	r3, #4096
 1278 0016 C4F20203 		movt	r3, 16386
 1279 001a 4FF48052 		mov	r2, #4096
 1280 001e C4F20202 		movt	r2, 16386
ARM GAS  C:\Users\z80\AppData\Local\Temp\ccgwH8xw.s 			page 24


 1281 0022 D169     		ldr	r1, [r2, #28]
 1282 0024 019A     		ldr	r2, [sp, #4]
 1283 0026 41EA0202 		orr	r2, r1, r2
 1284 002a DA61     		str	r2, [r3, #28]
 1285 002c 0EE0     		b	.L50
 1286              	.L51:
 1287              		.loc 1 1139 0
 1288 002e 4FF48053 		mov	r3, #4096
 1289 0032 C4F20203 		movt	r3, 16386
 1290 0036 4FF48052 		mov	r2, #4096
 1291 003a C4F20202 		movt	r2, 16386
 1292 003e D169     		ldr	r1, [r2, #28]
 1293 0040 019A     		ldr	r2, [sp, #4]
 1294 0042 6FEA0202 		mvn	r2, r2
 1295 0046 01EA0202 		and	r2, r1, r2
 1296 004a DA61     		str	r2, [r3, #28]
 1297              	.L50:
 1298              		.loc 1 1141 0
 1299 004c 02B0     		add	sp, sp, #8
 1300 004e 7047     		bx	lr
 1301              		.cfi_endproc
 1302              	.LFE78:
 1303              		.size	RCC_APB1PeriphClockCmd, .-RCC_APB1PeriphClockCmd
 1304              		.section	.text.RCC_APB2PeriphResetCmd,"ax",%progbits
 1305              		.align	2
 1306              		.p2align 4,,15
 1307              		.global	RCC_APB2PeriphResetCmd
 1308              		.thumb
 1309              		.thumb_func
 1310              		.type	RCC_APB2PeriphResetCmd, %function
 1311              	RCC_APB2PeriphResetCmd:
 1312              	.LFB79:
 1313              		.loc 1 1188 0
 1314              		.cfi_startproc
 1315              		@ args = 0, pretend = 0, frame = 8
 1316              		@ frame_needed = 0, uses_anonymous_args = 0
 1317              		@ link register save eliminated.
 1318 0000 82B0     		sub	sp, sp, #8
 1319              	.LCFI22:
 1320              		.cfi_def_cfa_offset 8
 1321 0002 0190     		str	r0, [sp, #4]
 1322 0004 0B46     		mov	r3, r1
 1323 0006 8DF80330 		strb	r3, [sp, #3]
 1324              		.loc 1 1192 0
 1325 000a 9DF80330 		ldrb	r3, [sp, #3]	@ zero_extendqisi2
 1326 000e 002B     		cmp	r3, #0
 1327 0010 0DD0     		beq	.L54
 1328              		.loc 1 1194 0
 1329 0012 4FF48053 		mov	r3, #4096
 1330 0016 C4F20203 		movt	r3, 16386
 1331 001a 4FF48052 		mov	r2, #4096
 1332 001e C4F20202 		movt	r2, 16386
 1333 0022 D168     		ldr	r1, [r2, #12]
 1334 0024 019A     		ldr	r2, [sp, #4]
 1335 0026 41EA0202 		orr	r2, r1, r2
 1336 002a DA60     		str	r2, [r3, #12]
 1337 002c 0EE0     		b	.L53
ARM GAS  C:\Users\z80\AppData\Local\Temp\ccgwH8xw.s 			page 25


 1338              	.L54:
 1339              		.loc 1 1198 0
 1340 002e 4FF48053 		mov	r3, #4096
 1341 0032 C4F20203 		movt	r3, 16386
 1342 0036 4FF48052 		mov	r2, #4096
 1343 003a C4F20202 		movt	r2, 16386
 1344 003e D168     		ldr	r1, [r2, #12]
 1345 0040 019A     		ldr	r2, [sp, #4]
 1346 0042 6FEA0202 		mvn	r2, r2
 1347 0046 01EA0202 		and	r2, r1, r2
 1348 004a DA60     		str	r2, [r3, #12]
 1349              	.L53:
 1350              		.loc 1 1200 0
 1351 004c 02B0     		add	sp, sp, #8
 1352 004e 7047     		bx	lr
 1353              		.cfi_endproc
 1354              	.LFE79:
 1355              		.size	RCC_APB2PeriphResetCmd, .-RCC_APB2PeriphResetCmd
 1356              		.section	.text.RCC_APB1PeriphResetCmd,"ax",%progbits
 1357              		.align	2
 1358              		.p2align 4,,15
 1359              		.global	RCC_APB1PeriphResetCmd
 1360              		.thumb
 1361              		.thumb_func
 1362              		.type	RCC_APB1PeriphResetCmd, %function
 1363              	RCC_APB1PeriphResetCmd:
 1364              	.LFB80:
 1365              		.loc 1 1219 0
 1366              		.cfi_startproc
 1367              		@ args = 0, pretend = 0, frame = 8
 1368              		@ frame_needed = 0, uses_anonymous_args = 0
 1369              		@ link register save eliminated.
 1370 0000 82B0     		sub	sp, sp, #8
 1371              	.LCFI23:
 1372              		.cfi_def_cfa_offset 8
 1373 0002 0190     		str	r0, [sp, #4]
 1374 0004 0B46     		mov	r3, r1
 1375 0006 8DF80330 		strb	r3, [sp, #3]
 1376              		.loc 1 1223 0
 1377 000a 9DF80330 		ldrb	r3, [sp, #3]	@ zero_extendqisi2
 1378 000e 002B     		cmp	r3, #0
 1379 0010 0DD0     		beq	.L57
 1380              		.loc 1 1225 0
 1381 0012 4FF48053 		mov	r3, #4096
 1382 0016 C4F20203 		movt	r3, 16386
 1383 001a 4FF48052 		mov	r2, #4096
 1384 001e C4F20202 		movt	r2, 16386
 1385 0022 1169     		ldr	r1, [r2, #16]
 1386 0024 019A     		ldr	r2, [sp, #4]
 1387 0026 41EA0202 		orr	r2, r1, r2
 1388 002a 1A61     		str	r2, [r3, #16]
 1389 002c 0EE0     		b	.L56
 1390              	.L57:
 1391              		.loc 1 1229 0
 1392 002e 4FF48053 		mov	r3, #4096
 1393 0032 C4F20203 		movt	r3, 16386
 1394 0036 4FF48052 		mov	r2, #4096
ARM GAS  C:\Users\z80\AppData\Local\Temp\ccgwH8xw.s 			page 26


 1395 003a C4F20202 		movt	r2, 16386
 1396 003e 1169     		ldr	r1, [r2, #16]
 1397 0040 019A     		ldr	r2, [sp, #4]
 1398 0042 6FEA0202 		mvn	r2, r2
 1399 0046 01EA0202 		and	r2, r1, r2
 1400 004a 1A61     		str	r2, [r3, #16]
 1401              	.L56:
 1402              		.loc 1 1231 0
 1403 004c 02B0     		add	sp, sp, #8
 1404 004e 7047     		bx	lr
 1405              		.cfi_endproc
 1406              	.LFE80:
 1407              		.size	RCC_APB1PeriphResetCmd, .-RCC_APB1PeriphResetCmd
 1408              		.section	.text.RCC_BackupResetCmd,"ax",%progbits
 1409              		.align	2
 1410              		.p2align 4,,15
 1411              		.global	RCC_BackupResetCmd
 1412              		.thumb
 1413              		.thumb_func
 1414              		.type	RCC_BackupResetCmd, %function
 1415              	RCC_BackupResetCmd:
 1416              	.LFB81:
 1417              		.loc 1 1240 0
 1418              		.cfi_startproc
 1419              		@ args = 0, pretend = 0, frame = 8
 1420              		@ frame_needed = 0, uses_anonymous_args = 0
 1421              		@ link register save eliminated.
 1422 0000 82B0     		sub	sp, sp, #8
 1423              	.LCFI24:
 1424              		.cfi_def_cfa_offset 8
 1425 0002 0346     		mov	r3, r0
 1426 0004 8DF80730 		strb	r3, [sp, #7]
 1427              		.loc 1 1243 0
 1428 0008 4FF48863 		mov	r3, #1088
 1429 000c C4F24223 		movt	r3, 16962
 1430 0010 9DF80720 		ldrb	r2, [sp, #7]	@ zero_extendqisi2
 1431 0014 1A60     		str	r2, [r3, #0]
 1432              		.loc 1 1244 0
 1433 0016 02B0     		add	sp, sp, #8
 1434 0018 7047     		bx	lr
 1435              		.cfi_endproc
 1436              	.LFE81:
 1437              		.size	RCC_BackupResetCmd, .-RCC_BackupResetCmd
 1438 001a 00BFAFF3 		.section	.text.RCC_ClockSecuritySystemCmd,"ax",%progbits
 1438      0080
 1439              		.align	2
 1440              		.p2align 4,,15
 1441              		.global	RCC_ClockSecuritySystemCmd
 1442              		.thumb
 1443              		.thumb_func
 1444              		.type	RCC_ClockSecuritySystemCmd, %function
 1445              	RCC_ClockSecuritySystemCmd:
 1446              	.LFB82:
 1447              		.loc 1 1253 0
 1448              		.cfi_startproc
 1449              		@ args = 0, pretend = 0, frame = 8
 1450              		@ frame_needed = 0, uses_anonymous_args = 0
ARM GAS  C:\Users\z80\AppData\Local\Temp\ccgwH8xw.s 			page 27


 1451              		@ link register save eliminated.
 1452 0000 82B0     		sub	sp, sp, #8
 1453              	.LCFI25:
 1454              		.cfi_def_cfa_offset 8
 1455 0002 0346     		mov	r3, r0
 1456 0004 8DF80730 		strb	r3, [sp, #7]
 1457              		.loc 1 1256 0
 1458 0008 4FF04C03 		mov	r3, #76
 1459 000c C4F24223 		movt	r3, 16962
 1460 0010 9DF80720 		ldrb	r2, [sp, #7]	@ zero_extendqisi2
 1461 0014 1A60     		str	r2, [r3, #0]
 1462              		.loc 1 1257 0
 1463 0016 02B0     		add	sp, sp, #8
 1464 0018 7047     		bx	lr
 1465              		.cfi_endproc
 1466              	.LFE82:
 1467              		.size	RCC_ClockSecuritySystemCmd, .-RCC_ClockSecuritySystemCmd
 1468 001a 00BFAFF3 		.section	.text.RCC_MCOConfig,"ax",%progbits
 1468      0080
 1469              		.align	2
 1470              		.p2align 4,,15
 1471              		.global	RCC_MCOConfig
 1472              		.thumb
 1473              		.thumb_func
 1474              		.type	RCC_MCOConfig, %function
 1475              	RCC_MCOConfig:
 1476              	.LFB83:
 1477              		.loc 1 1285 0
 1478              		.cfi_startproc
 1479              		@ args = 0, pretend = 0, frame = 8
 1480              		@ frame_needed = 0, uses_anonymous_args = 0
 1481              		@ link register save eliminated.
 1482 0000 82B0     		sub	sp, sp, #8
 1483              	.LCFI26:
 1484              		.cfi_def_cfa_offset 8
 1485 0002 0346     		mov	r3, r0
 1486 0004 8DF80730 		strb	r3, [sp, #7]
 1487              		.loc 1 1290 0
 1488 0008 41F20703 		movw	r3, #4103
 1489 000c C4F20203 		movt	r3, 16386
 1490 0010 9DF80720 		ldrb	r2, [sp, #7]
 1491 0014 1A70     		strb	r2, [r3, #0]
 1492              		.loc 1 1291 0
 1493 0016 02B0     		add	sp, sp, #8
 1494 0018 7047     		bx	lr
 1495              		.cfi_endproc
 1496              	.LFE83:
 1497              		.size	RCC_MCOConfig, .-RCC_MCOConfig
 1498 001a 00BFAFF3 		.section	.text.RCC_GetFlagStatus,"ax",%progbits
 1498      0080
 1499              		.align	2
 1500              		.p2align 4,,15
 1501              		.global	RCC_GetFlagStatus
 1502              		.thumb
 1503              		.thumb_func
 1504              		.type	RCC_GetFlagStatus, %function
 1505              	RCC_GetFlagStatus:
ARM GAS  C:\Users\z80\AppData\Local\Temp\ccgwH8xw.s 			page 28


 1506              	.LFB84:
 1507              		.loc 1 1329 0
 1508              		.cfi_startproc
 1509              		@ args = 0, pretend = 0, frame = 24
 1510              		@ frame_needed = 0, uses_anonymous_args = 0
 1511              		@ link register save eliminated.
 1512 0000 86B0     		sub	sp, sp, #24
 1513              	.LCFI27:
 1514              		.cfi_def_cfa_offset 24
 1515 0002 0346     		mov	r3, r0
 1516 0004 8DF80730 		strb	r3, [sp, #7]
 1517              		.loc 1 1330 0
 1518 0008 4FF00003 		mov	r3, #0
 1519 000c 0393     		str	r3, [sp, #12]
 1520              		.loc 1 1331 0
 1521 000e 4FF00003 		mov	r3, #0
 1522 0012 0593     		str	r3, [sp, #20]
 1523              		.loc 1 1332 0
 1524 0014 4FF00003 		mov	r3, #0
 1525 0018 8DF81330 		strb	r3, [sp, #19]
 1526              		.loc 1 1337 0
 1527 001c 9DF80730 		ldrb	r3, [sp, #7]	@ zero_extendqisi2
 1528 0020 4FEA5313 		lsr	r3, r3, #5
 1529 0024 DBB2     		uxtb	r3, r3
 1530 0026 0393     		str	r3, [sp, #12]
 1531              		.loc 1 1338 0
 1532 0028 039B     		ldr	r3, [sp, #12]
 1533 002a 012B     		cmp	r3, #1
 1534 002c 06D1     		bne	.L63
 1535              		.loc 1 1340 0
 1536 002e 4FF48053 		mov	r3, #4096
 1537 0032 C4F20203 		movt	r3, 16386
 1538 0036 1B68     		ldr	r3, [r3, #0]
 1539 0038 0593     		str	r3, [sp, #20]
 1540 003a 0FE0     		b	.L64
 1541              	.L63:
 1542              		.loc 1 1342 0
 1543 003c 039B     		ldr	r3, [sp, #12]
 1544 003e 022B     		cmp	r3, #2
 1545 0040 06D1     		bne	.L65
 1546              		.loc 1 1344 0
 1547 0042 4FF48053 		mov	r3, #4096
 1548 0046 C4F20203 		movt	r3, 16386
 1549 004a 1B6A     		ldr	r3, [r3, #32]
 1550 004c 0593     		str	r3, [sp, #20]
 1551 004e 05E0     		b	.L64
 1552              	.L65:
 1553              		.loc 1 1348 0
 1554 0050 4FF48053 		mov	r3, #4096
 1555 0054 C4F20203 		movt	r3, 16386
 1556 0058 5B6A     		ldr	r3, [r3, #36]
 1557 005a 0593     		str	r3, [sp, #20]
 1558              	.L64:
 1559              		.loc 1 1352 0
 1560 005c 9DF80730 		ldrb	r3, [sp, #7]	@ zero_extendqisi2
 1561 0060 03F01F03 		and	r3, r3, #31
 1562 0064 0393     		str	r3, [sp, #12]
ARM GAS  C:\Users\z80\AppData\Local\Temp\ccgwH8xw.s 			page 29


 1563              		.loc 1 1353 0
 1564 0066 039B     		ldr	r3, [sp, #12]
 1565 0068 059A     		ldr	r2, [sp, #20]
 1566 006a 22FA03F3 		lsr	r3, r2, r3
 1567 006e 03F00103 		and	r3, r3, #1
 1568 0072 DBB2     		uxtb	r3, r3
 1569 0074 002B     		cmp	r3, #0
 1570 0076 04D0     		beq	.L66
 1571              		.loc 1 1355 0
 1572 0078 4FF00103 		mov	r3, #1
 1573 007c 8DF81330 		strb	r3, [sp, #19]
 1574 0080 03E0     		b	.L67
 1575              	.L66:
 1576              		.loc 1 1359 0
 1577 0082 4FF00003 		mov	r3, #0
 1578 0086 8DF81330 		strb	r3, [sp, #19]
 1579              	.L67:
 1580              		.loc 1 1363 0
 1581 008a 9DF81330 		ldrb	r3, [sp, #19]	@ zero_extendqisi2
 1582              		.loc 1 1364 0
 1583 008e 1846     		mov	r0, r3
 1584 0090 06B0     		add	sp, sp, #24
 1585 0092 7047     		bx	lr
 1586              		.cfi_endproc
 1587              	.LFE84:
 1588              		.size	RCC_GetFlagStatus, .-RCC_GetFlagStatus
 1589 0094 AFF30080 		.section	.text.RCC_ClearFlag,"ax",%progbits
 1589      AFF30080 
 1589      AFF30080 
 1590              		.align	2
 1591              		.p2align 4,,15
 1592              		.global	RCC_ClearFlag
 1593              		.thumb
 1594              		.thumb_func
 1595              		.type	RCC_ClearFlag, %function
 1596              	RCC_ClearFlag:
 1597              	.LFB85:
 1598              		.loc 1 1374 0
 1599              		.cfi_startproc
 1600              		@ args = 0, pretend = 0, frame = 0
 1601              		@ frame_needed = 0, uses_anonymous_args = 0
 1602              		@ link register save eliminated.
 1603              		.loc 1 1376 0
 1604 0000 4FF48053 		mov	r3, #4096
 1605 0004 C4F20203 		movt	r3, 16386
 1606 0008 4FF48052 		mov	r2, #4096
 1607 000c C4F20202 		movt	r2, 16386
 1608 0010 526A     		ldr	r2, [r2, #36]
 1609 0012 42F08072 		orr	r2, r2, #16777216
 1610 0016 5A62     		str	r2, [r3, #36]
 1611              		.loc 1 1377 0
 1612 0018 7047     		bx	lr
 1613              		.cfi_endproc
 1614              	.LFE85:
 1615              		.size	RCC_ClearFlag, .-RCC_ClearFlag
 1616 001a 00BFAFF3 		.section	.text.RCC_GetITStatus,"ax",%progbits
 1616      0080
ARM GAS  C:\Users\z80\AppData\Local\Temp\ccgwH8xw.s 			page 30


 1617              		.align	2
 1618              		.p2align 4,,15
 1619              		.global	RCC_GetITStatus
 1620              		.thumb
 1621              		.thumb_func
 1622              		.type	RCC_GetITStatus, %function
 1623              	RCC_GetITStatus:
 1624              	.LFB86:
 1625              		.loc 1 1405 0
 1626              		.cfi_startproc
 1627              		@ args = 0, pretend = 0, frame = 16
 1628              		@ frame_needed = 0, uses_anonymous_args = 0
 1629              		@ link register save eliminated.
 1630 0000 84B0     		sub	sp, sp, #16
 1631              	.LCFI28:
 1632              		.cfi_def_cfa_offset 16
 1633 0002 0346     		mov	r3, r0
 1634 0004 8DF80730 		strb	r3, [sp, #7]
 1635              		.loc 1 1406 0
 1636 0008 4FF00003 		mov	r3, #0
 1637 000c 8DF80F30 		strb	r3, [sp, #15]
 1638              		.loc 1 1411 0
 1639 0010 4FF48053 		mov	r3, #4096
 1640 0014 C4F20203 		movt	r3, 16386
 1641 0018 9A68     		ldr	r2, [r3, #8]
 1642 001a 9DF80730 		ldrb	r3, [sp, #7]	@ zero_extendqisi2
 1643 001e 02EA0303 		and	r3, r2, r3
 1644 0022 002B     		cmp	r3, #0
 1645 0024 04D0     		beq	.L70
 1646              		.loc 1 1413 0
 1647 0026 4FF00103 		mov	r3, #1
 1648 002a 8DF80F30 		strb	r3, [sp, #15]
 1649 002e 03E0     		b	.L71
 1650              	.L70:
 1651              		.loc 1 1417 0
 1652 0030 4FF00003 		mov	r3, #0
 1653 0034 8DF80F30 		strb	r3, [sp, #15]
 1654              	.L71:
 1655              		.loc 1 1421 0
 1656 0038 9DF80F30 		ldrb	r3, [sp, #15]	@ zero_extendqisi2
 1657              		.loc 1 1422 0
 1658 003c 1846     		mov	r0, r3
 1659 003e 04B0     		add	sp, sp, #16
 1660 0040 7047     		bx	lr
 1661              		.cfi_endproc
 1662              	.LFE86:
 1663              		.size	RCC_GetITStatus, .-RCC_GetITStatus
 1664 0042 00BFAFF3 		.section	.text.RCC_ClearITPendingBit,"ax",%progbits
 1664      0080AFF3 
 1664      0080AFF3 
 1664      0080
 1665              		.align	2
 1666              		.p2align 4,,15
 1667              		.global	RCC_ClearITPendingBit
 1668              		.thumb
 1669              		.thumb_func
 1670              		.type	RCC_ClearITPendingBit, %function
ARM GAS  C:\Users\z80\AppData\Local\Temp\ccgwH8xw.s 			page 31


 1671              	RCC_ClearITPendingBit:
 1672              	.LFB87:
 1673              		.loc 1 1451 0
 1674              		.cfi_startproc
 1675              		@ args = 0, pretend = 0, frame = 8
 1676              		@ frame_needed = 0, uses_anonymous_args = 0
 1677              		@ link register save eliminated.
 1678 0000 82B0     		sub	sp, sp, #8
 1679              	.LCFI29:
 1680              		.cfi_def_cfa_offset 8
 1681 0002 0346     		mov	r3, r0
 1682 0004 8DF80730 		strb	r3, [sp, #7]
 1683              		.loc 1 1457 0
 1684 0008 41F20A03 		movw	r3, #4106
 1685 000c C4F20203 		movt	r3, 16386
 1686 0010 9DF80720 		ldrb	r2, [sp, #7]
 1687 0014 1A70     		strb	r2, [r3, #0]
 1688              		.loc 1 1458 0
 1689 0016 02B0     		add	sp, sp, #8
 1690 0018 7047     		bx	lr
 1691              		.cfi_endproc
 1692              	.LFE87:
 1693              		.size	RCC_ClearITPendingBit, .-RCC_ClearITPendingBit
 1694 001a 00BFAFF3 		.text
 1694      0080
 1695              	.Letext0: