ARM GAS  C:\Users\z80\AppData\Local\Temp\ccWCzWFa.s 			page 1


   1              		.syntax unified
   2              		.cpu cortex-m3
   3              		.fpu softvfp
   4              		.eabi_attribute 20, 1
   5              		.eabi_attribute 21, 1
   6              		.eabi_attribute 23, 3
   7              		.eabi_attribute 24, 1
   8              		.eabi_attribute 25, 1
   9              		.eabi_attribute 26, 1
  10              		.eabi_attribute 30, 6
  11              		.eabi_attribute 18, 4
  12              		.thumb
  13              		.file	"stm32_dma.c"
  20 0000 2C020000 		.text
  20      02002A01 
  20      00000201 
  20      FB0E0D00 
  20      01010101 
  21              	.Ltext0:
  22              		.cfi_sections	.debug_frame
  23              		.global	_stm32_dma_streams
  24              		.section	.rodata._stm32_dma_streams,"a",%progbits
  25              		.align	2
  26              		.type	_stm32_dma_streams, %object
  27              		.size	_stm32_dma_streams, 84
  28              	_stm32_dma_streams:
  29 0000 08000240 		.word	1073872904
  30 0004 04000240 		.word	1073872900
  31 0008 00       		.byte	0
  32 0009 00       		.byte	0
  33 000a 0B       		.byte	11
  34 000b 00       		.space	1
  35 000c 1C000240 		.word	1073872924
  36 0010 04000240 		.word	1073872900
  37 0014 04       		.byte	4
  38 0015 01       		.byte	1
  39 0016 0C       		.byte	12
  40 0017 00       		.space	1
  41 0018 30000240 		.word	1073872944
  42 001c 04000240 		.word	1073872900
  43 0020 08       		.byte	8
  44 0021 02       		.byte	2
  45 0022 0D       		.byte	13
  46 0023 00       		.space	1
  47 0024 44000240 		.word	1073872964
  48 0028 04000240 		.word	1073872900
  49 002c 0C       		.byte	12
  50 002d 03       		.byte	3
  51 002e 0E       		.byte	14
  52 002f 00       		.space	1
  53 0030 58000240 		.word	1073872984
ARM GAS  C:\Users\z80\AppData\Local\Temp\ccWCzWFa.s 			page 2


  54 0034 04000240 		.word	1073872900
  55 0038 10       		.byte	16
  56 0039 04       		.byte	4
  57 003a 0F       		.byte	15
  58 003b 00       		.space	1
  59 003c 6C000240 		.word	1073873004
  60 0040 04000240 		.word	1073872900
  61 0044 14       		.byte	20
  62 0045 05       		.byte	5
  63 0046 10       		.byte	16
  64 0047 00       		.space	1
  65 0048 80000240 		.word	1073873024
  66 004c 04000240 		.word	1073872900
  67 0050 18       		.byte	24
  68 0051 06       		.byte	6
  69 0052 11       		.byte	17
  70 0053 00       		.space	1
  71              		.section	.bss.dma_streams_mask,"aw",%nobits
  72              		.align	2
  73              		.type	dma_streams_mask, %object
  74              		.size	dma_streams_mask, 4
  75              	dma_streams_mask:
  76 0000 00000000 		.space	4
  77              		.section	.bss.dma_isr_redir,"aw",%nobits
  78              		.align	2
  79              		.type	dma_isr_redir, %object
  80              		.size	dma_isr_redir, 56
  81              	dma_isr_redir:
  82 0000 00000000 		.space	56
  82      00000000 
  82      00000000 
  82      00000000 
  82      00000000 
  83              		.section	.text.Vector6C,"ax",%progbits
  84              		.align	2
  85              		.p2align 4,,15
  86              		.global	Vector6C
  87              		.thumb
  88              		.thumb_func
  89              		.type	Vector6C, %function
  90              	Vector6C:
  91              	.LFB63:
  92              		.file 1 "../chibios_2.6.3/os/hal/platforms/STM32F1xx/stm32_dma.c"
  93              		.loc 1 126 0
  94              		.cfi_startproc
  95              		@ args = 0, pretend = 0, frame = 8
  96              		@ frame_needed = 0, uses_anonymous_args = 0
  97 0000 00B5     		push	{lr}
  98              	.LCFI0:
  99              		.cfi_def_cfa_offset 4
 100 0002 83B0     		sub	sp, sp, #12
 101              	.LCFI1:
 102              		.cfi_def_cfa_offset 16
 103              		.loc 1 131 0
 104 0004 4FF00003 		mov	r3, #0
 105 0008 C4F20203 		movt	r3, 16386
 106 000c 1B68     		ldr	r3, [r3, #0]
ARM GAS  C:\Users\z80\AppData\Local\Temp\ccWCzWFa.s 			page 3


 107 000e 03F00F03 		and	r3, r3, #15
 108 0012 0193     		str	r3, [sp, #4]
 109              		.loc 1 132 0
 110 0014 4FF00003 		mov	r3, #0
 111 0018 C4F20203 		movt	r3, 16386
 112 001c 019A     		ldr	r2, [sp, #4]
 113 001e 5A60     		str	r2, [r3, #4]
 114              		.loc 1 133 0
 115 0020 40F20003 		movw	r3, #:lower16:dma_isr_redir
 116 0024 C0F20003 		movt	r3, #:upper16:dma_isr_redir
 117 0028 1B68     		ldr	r3, [r3, #0]
 118 002a 002B     		cmp	r3, #0
 119 002c 0CD0     		beq	.L2
 120              		.cfi_offset 14, -4
 121              		.loc 1 134 0
 122 002e 40F20003 		movw	r3, #:lower16:dma_isr_redir
 123 0032 C0F20003 		movt	r3, #:upper16:dma_isr_redir
 124 0036 1A68     		ldr	r2, [r3, #0]
 125 0038 40F20003 		movw	r3, #:lower16:dma_isr_redir
 126 003c C0F20003 		movt	r3, #:upper16:dma_isr_redir
 127 0040 5B68     		ldr	r3, [r3, #4]
 128 0042 1846     		mov	r0, r3
 129 0044 0199     		ldr	r1, [sp, #4]
 130 0046 9047     		blx	r2
 131              	.L2:
 132              		.loc 1 136 0
 133 0048 FFF7FEFF 		bl	_port_irq_epilogue
 134              		.loc 1 137 0
 135 004c 03B0     		add	sp, sp, #12
 136 004e 00BD     		pop	{pc}
 137              		.cfi_endproc
 138              	.LFE63:
 139              		.size	Vector6C, .-Vector6C
 140              		.section	.text.Vector70,"ax",%progbits
 141              		.align	2
 142              		.p2align 4,,15
 143              		.global	Vector70
 144              		.thumb
 145              		.thumb_func
 146              		.type	Vector70, %function
 147              	Vector70:
 148              	.LFB64:
 149              		.loc 1 144 0
 150              		.cfi_startproc
 151              		@ args = 0, pretend = 0, frame = 8
 152              		@ frame_needed = 0, uses_anonymous_args = 0
 153 0000 00B5     		push	{lr}
 154              	.LCFI2:
 155              		.cfi_def_cfa_offset 4
 156 0002 83B0     		sub	sp, sp, #12
 157              	.LCFI3:
 158              		.cfi_def_cfa_offset 16
 159              		.loc 1 149 0
 160 0004 4FF00003 		mov	r3, #0
 161 0008 C4F20203 		movt	r3, 16386
 162 000c 1B68     		ldr	r3, [r3, #0]
 163 000e 4FEA1313 		lsr	r3, r3, #4
ARM GAS  C:\Users\z80\AppData\Local\Temp\ccWCzWFa.s 			page 4


 164 0012 03F00F03 		and	r3, r3, #15
 165 0016 0193     		str	r3, [sp, #4]
 166              		.loc 1 150 0
 167 0018 4FF00003 		mov	r3, #0
 168 001c C4F20203 		movt	r3, 16386
 169 0020 019A     		ldr	r2, [sp, #4]
 170 0022 4FEA0212 		lsl	r2, r2, #4
 171 0026 5A60     		str	r2, [r3, #4]
 172              		.loc 1 151 0
 173 0028 40F20003 		movw	r3, #:lower16:dma_isr_redir
 174 002c C0F20003 		movt	r3, #:upper16:dma_isr_redir
 175 0030 9B68     		ldr	r3, [r3, #8]
 176 0032 002B     		cmp	r3, #0
 177 0034 0CD0     		beq	.L4
 178              		.cfi_offset 14, -4
 179              		.loc 1 152 0
 180 0036 40F20003 		movw	r3, #:lower16:dma_isr_redir
 181 003a C0F20003 		movt	r3, #:upper16:dma_isr_redir
 182 003e 9A68     		ldr	r2, [r3, #8]
 183 0040 40F20003 		movw	r3, #:lower16:dma_isr_redir
 184 0044 C0F20003 		movt	r3, #:upper16:dma_isr_redir
 185 0048 DB68     		ldr	r3, [r3, #12]
 186 004a 1846     		mov	r0, r3
 187 004c 0199     		ldr	r1, [sp, #4]
 188 004e 9047     		blx	r2
 189              	.L4:
 190              		.loc 1 154 0
 191 0050 FFF7FEFF 		bl	_port_irq_epilogue
 192              		.loc 1 155 0
 193 0054 03B0     		add	sp, sp, #12
 194 0056 00BD     		pop	{pc}
 195              		.cfi_endproc
 196              	.LFE64:
 197              		.size	Vector70, .-Vector70
 198 0058 AFF30080 		.section	.text.Vector74,"ax",%progbits
 198      AFF30080 
 199              		.align	2
 200              		.p2align 4,,15
 201              		.global	Vector74
 202              		.thumb
 203              		.thumb_func
 204              		.type	Vector74, %function
 205              	Vector74:
 206              	.LFB65:
 207              		.loc 1 162 0
 208              		.cfi_startproc
 209              		@ args = 0, pretend = 0, frame = 8
 210              		@ frame_needed = 0, uses_anonymous_args = 0
 211 0000 00B5     		push	{lr}
 212              	.LCFI4:
 213              		.cfi_def_cfa_offset 4
 214 0002 83B0     		sub	sp, sp, #12
 215              	.LCFI5:
 216              		.cfi_def_cfa_offset 16
 217              		.loc 1 167 0
 218 0004 4FF00003 		mov	r3, #0
 219 0008 C4F20203 		movt	r3, 16386
ARM GAS  C:\Users\z80\AppData\Local\Temp\ccWCzWFa.s 			page 5


 220 000c 1B68     		ldr	r3, [r3, #0]
 221 000e 4FEA1323 		lsr	r3, r3, #8
 222 0012 03F00F03 		and	r3, r3, #15
 223 0016 0193     		str	r3, [sp, #4]
 224              		.loc 1 168 0
 225 0018 4FF00003 		mov	r3, #0
 226 001c C4F20203 		movt	r3, 16386
 227 0020 019A     		ldr	r2, [sp, #4]
 228 0022 4FEA0222 		lsl	r2, r2, #8
 229 0026 5A60     		str	r2, [r3, #4]
 230              		.loc 1 169 0
 231 0028 40F20003 		movw	r3, #:lower16:dma_isr_redir
 232 002c C0F20003 		movt	r3, #:upper16:dma_isr_redir
 233 0030 1B69     		ldr	r3, [r3, #16]
 234 0032 002B     		cmp	r3, #0
 235 0034 0CD0     		beq	.L6
 236              		.cfi_offset 14, -4
 237              		.loc 1 170 0
 238 0036 40F20003 		movw	r3, #:lower16:dma_isr_redir
 239 003a C0F20003 		movt	r3, #:upper16:dma_isr_redir
 240 003e 1A69     		ldr	r2, [r3, #16]
 241 0040 40F20003 		movw	r3, #:lower16:dma_isr_redir
 242 0044 C0F20003 		movt	r3, #:upper16:dma_isr_redir
 243 0048 5B69     		ldr	r3, [r3, #20]
 244 004a 1846     		mov	r0, r3
 245 004c 0199     		ldr	r1, [sp, #4]
 246 004e 9047     		blx	r2
 247              	.L6:
 248              		.loc 1 172 0
 249 0050 FFF7FEFF 		bl	_port_irq_epilogue
 250              		.loc 1 173 0
 251 0054 03B0     		add	sp, sp, #12
 252 0056 00BD     		pop	{pc}
 253              		.cfi_endproc
 254              	.LFE65:
 255              		.size	Vector74, .-Vector74
 256 0058 AFF30080 		.section	.text.Vector78,"ax",%progbits
 256      AFF30080 
 257              		.align	2
 258              		.p2align 4,,15
 259              		.global	Vector78
 260              		.thumb
 261              		.thumb_func
 262              		.type	Vector78, %function
 263              	Vector78:
 264              	.LFB66:
 265              		.loc 1 180 0
 266              		.cfi_startproc
 267              		@ args = 0, pretend = 0, frame = 8
 268              		@ frame_needed = 0, uses_anonymous_args = 0
 269 0000 00B5     		push	{lr}
 270              	.LCFI6:
 271              		.cfi_def_cfa_offset 4
 272 0002 83B0     		sub	sp, sp, #12
 273              	.LCFI7:
 274              		.cfi_def_cfa_offset 16
 275              		.loc 1 185 0
ARM GAS  C:\Users\z80\AppData\Local\Temp\ccWCzWFa.s 			page 6


 276 0004 4FF00003 		mov	r3, #0
 277 0008 C4F20203 		movt	r3, 16386
 278 000c 1B68     		ldr	r3, [r3, #0]
 279 000e 4FEA1333 		lsr	r3, r3, #12
 280 0012 03F00F03 		and	r3, r3, #15
 281 0016 0193     		str	r3, [sp, #4]
 282              		.loc 1 186 0
 283 0018 4FF00003 		mov	r3, #0
 284 001c C4F20203 		movt	r3, 16386
 285 0020 019A     		ldr	r2, [sp, #4]
 286 0022 4FEA0232 		lsl	r2, r2, #12
 287 0026 5A60     		str	r2, [r3, #4]
 288              		.loc 1 187 0
 289 0028 40F20003 		movw	r3, #:lower16:dma_isr_redir
 290 002c C0F20003 		movt	r3, #:upper16:dma_isr_redir
 291 0030 9B69     		ldr	r3, [r3, #24]
 292 0032 002B     		cmp	r3, #0
 293 0034 0CD0     		beq	.L8
 294              		.cfi_offset 14, -4
 295              		.loc 1 188 0
 296 0036 40F20003 		movw	r3, #:lower16:dma_isr_redir
 297 003a C0F20003 		movt	r3, #:upper16:dma_isr_redir
 298 003e 9A69     		ldr	r2, [r3, #24]
 299 0040 40F20003 		movw	r3, #:lower16:dma_isr_redir
 300 0044 C0F20003 		movt	r3, #:upper16:dma_isr_redir
 301 0048 DB69     		ldr	r3, [r3, #28]
 302 004a 1846     		mov	r0, r3
 303 004c 0199     		ldr	r1, [sp, #4]
 304 004e 9047     		blx	r2
 305              	.L8:
 306              		.loc 1 190 0
 307 0050 FFF7FEFF 		bl	_port_irq_epilogue
 308              		.loc 1 191 0
 309 0054 03B0     		add	sp, sp, #12
 310 0056 00BD     		pop	{pc}
 311              		.cfi_endproc
 312              	.LFE66:
 313              		.size	Vector78, .-Vector78
 314 0058 AFF30080 		.section	.text.Vector7C,"ax",%progbits
 314      AFF30080 
 315              		.align	2
 316              		.p2align 4,,15
 317              		.global	Vector7C
 318              		.thumb
 319              		.thumb_func
 320              		.type	Vector7C, %function
 321              	Vector7C:
 322              	.LFB67:
 323              		.loc 1 198 0
 324              		.cfi_startproc
 325              		@ args = 0, pretend = 0, frame = 8
 326              		@ frame_needed = 0, uses_anonymous_args = 0
 327 0000 00B5     		push	{lr}
 328              	.LCFI8:
 329              		.cfi_def_cfa_offset 4
 330 0002 83B0     		sub	sp, sp, #12
 331              	.LCFI9:
ARM GAS  C:\Users\z80\AppData\Local\Temp\ccWCzWFa.s 			page 7


 332              		.cfi_def_cfa_offset 16
 333              		.loc 1 203 0
 334 0004 4FF00003 		mov	r3, #0
 335 0008 C4F20203 		movt	r3, 16386
 336 000c 1B68     		ldr	r3, [r3, #0]
 337 000e 4FEA1343 		lsr	r3, r3, #16
 338 0012 03F00F03 		and	r3, r3, #15
 339 0016 0193     		str	r3, [sp, #4]
 340              		.loc 1 204 0
 341 0018 4FF00003 		mov	r3, #0
 342 001c C4F20203 		movt	r3, 16386
 343 0020 019A     		ldr	r2, [sp, #4]
 344 0022 4FEA0242 		lsl	r2, r2, #16
 345 0026 5A60     		str	r2, [r3, #4]
 346              		.loc 1 205 0
 347 0028 40F20003 		movw	r3, #:lower16:dma_isr_redir
 348 002c C0F20003 		movt	r3, #:upper16:dma_isr_redir
 349 0030 1B6A     		ldr	r3, [r3, #32]
 350 0032 002B     		cmp	r3, #0
 351 0034 0CD0     		beq	.L10
 352              		.cfi_offset 14, -4
 353              		.loc 1 206 0
 354 0036 40F20003 		movw	r3, #:lower16:dma_isr_redir
 355 003a C0F20003 		movt	r3, #:upper16:dma_isr_redir
 356 003e 1A6A     		ldr	r2, [r3, #32]
 357 0040 40F20003 		movw	r3, #:lower16:dma_isr_redir
 358 0044 C0F20003 		movt	r3, #:upper16:dma_isr_redir
 359 0048 5B6A     		ldr	r3, [r3, #36]
 360 004a 1846     		mov	r0, r3
 361 004c 0199     		ldr	r1, [sp, #4]
 362 004e 9047     		blx	r2
 363              	.L10:
 364              		.loc 1 208 0
 365 0050 FFF7FEFF 		bl	_port_irq_epilogue
 366              		.loc 1 209 0
 367 0054 03B0     		add	sp, sp, #12
 368 0056 00BD     		pop	{pc}
 369              		.cfi_endproc
 370              	.LFE67:
 371              		.size	Vector7C, .-Vector7C
 372 0058 AFF30080 		.section	.text.Vector80,"ax",%progbits
 372      AFF30080 
 373              		.align	2
 374              		.p2align 4,,15
 375              		.global	Vector80
 376              		.thumb
 377              		.thumb_func
 378              		.type	Vector80, %function
 379              	Vector80:
 380              	.LFB68:
 381              		.loc 1 216 0
 382              		.cfi_startproc
 383              		@ args = 0, pretend = 0, frame = 8
 384              		@ frame_needed = 0, uses_anonymous_args = 0
 385 0000 00B5     		push	{lr}
 386              	.LCFI10:
 387              		.cfi_def_cfa_offset 4
ARM GAS  C:\Users\z80\AppData\Local\Temp\ccWCzWFa.s 			page 8


 388 0002 83B0     		sub	sp, sp, #12
 389              	.LCFI11:
 390              		.cfi_def_cfa_offset 16
 391              		.loc 1 221 0
 392 0004 4FF00003 		mov	r3, #0
 393 0008 C4F20203 		movt	r3, 16386
 394 000c 1B68     		ldr	r3, [r3, #0]
 395 000e 4FEA1353 		lsr	r3, r3, #20
 396 0012 03F00F03 		and	r3, r3, #15
 397 0016 0193     		str	r3, [sp, #4]
 398              		.loc 1 222 0
 399 0018 4FF00003 		mov	r3, #0
 400 001c C4F20203 		movt	r3, 16386
 401 0020 019A     		ldr	r2, [sp, #4]
 402 0022 4FEA0252 		lsl	r2, r2, #20
 403 0026 5A60     		str	r2, [r3, #4]
 404              		.loc 1 223 0
 405 0028 40F20003 		movw	r3, #:lower16:dma_isr_redir
 406 002c C0F20003 		movt	r3, #:upper16:dma_isr_redir
 407 0030 9B6A     		ldr	r3, [r3, #40]
 408 0032 002B     		cmp	r3, #0
 409 0034 0CD0     		beq	.L12
 410              		.cfi_offset 14, -4
 411              		.loc 1 224 0
 412 0036 40F20003 		movw	r3, #:lower16:dma_isr_redir
 413 003a C0F20003 		movt	r3, #:upper16:dma_isr_redir
 414 003e 9A6A     		ldr	r2, [r3, #40]
 415 0040 40F20003 		movw	r3, #:lower16:dma_isr_redir
 416 0044 C0F20003 		movt	r3, #:upper16:dma_isr_redir
 417 0048 DB6A     		ldr	r3, [r3, #44]
 418 004a 1846     		mov	r0, r3
 419 004c 0199     		ldr	r1, [sp, #4]
 420 004e 9047     		blx	r2
 421              	.L12:
 422              		.loc 1 226 0
 423 0050 FFF7FEFF 		bl	_port_irq_epilogue
 424              		.loc 1 227 0
 425 0054 03B0     		add	sp, sp, #12
 426 0056 00BD     		pop	{pc}
 427              		.cfi_endproc
 428              	.LFE68:
 429              		.size	Vector80, .-Vector80
 430 0058 AFF30080 		.section	.text.Vector84,"ax",%progbits
 430      AFF30080 
 431              		.align	2
 432              		.p2align 4,,15
 433              		.global	Vector84
 434              		.thumb
 435              		.thumb_func
 436              		.type	Vector84, %function
 437              	Vector84:
 438              	.LFB69:
 439              		.loc 1 234 0
 440              		.cfi_startproc
 441              		@ args = 0, pretend = 0, frame = 8
 442              		@ frame_needed = 0, uses_anonymous_args = 0
 443 0000 00B5     		push	{lr}
ARM GAS  C:\Users\z80\AppData\Local\Temp\ccWCzWFa.s 			page 9


 444              	.LCFI12:
 445              		.cfi_def_cfa_offset 4
 446 0002 83B0     		sub	sp, sp, #12
 447              	.LCFI13:
 448              		.cfi_def_cfa_offset 16
 449              		.loc 1 239 0
 450 0004 4FF00003 		mov	r3, #0
 451 0008 C4F20203 		movt	r3, 16386
 452 000c 1B68     		ldr	r3, [r3, #0]
 453 000e 4FEA1363 		lsr	r3, r3, #24
 454 0012 03F00F03 		and	r3, r3, #15
 455 0016 0193     		str	r3, [sp, #4]
 456              		.loc 1 240 0
 457 0018 4FF00003 		mov	r3, #0
 458 001c C4F20203 		movt	r3, 16386
 459 0020 019A     		ldr	r2, [sp, #4]
 460 0022 4FEA0262 		lsl	r2, r2, #24
 461 0026 5A60     		str	r2, [r3, #4]
 462              		.loc 1 241 0
 463 0028 40F20003 		movw	r3, #:lower16:dma_isr_redir
 464 002c C0F20003 		movt	r3, #:upper16:dma_isr_redir
 465 0030 1B6B     		ldr	r3, [r3, #48]
 466 0032 002B     		cmp	r3, #0
 467 0034 0CD0     		beq	.L14
 468              		.cfi_offset 14, -4
 469              		.loc 1 242 0
 470 0036 40F20003 		movw	r3, #:lower16:dma_isr_redir
 471 003a C0F20003 		movt	r3, #:upper16:dma_isr_redir
 472 003e 1A6B     		ldr	r2, [r3, #48]
 473 0040 40F20003 		movw	r3, #:lower16:dma_isr_redir
 474 0044 C0F20003 		movt	r3, #:upper16:dma_isr_redir
 475 0048 5B6B     		ldr	r3, [r3, #52]
 476 004a 1846     		mov	r0, r3
 477 004c 0199     		ldr	r1, [sp, #4]
 478 004e 9047     		blx	r2
 479              	.L14:
 480              		.loc 1 244 0
 481 0050 FFF7FEFF 		bl	_port_irq_epilogue
 482              		.loc 1 245 0
 483 0054 03B0     		add	sp, sp, #12
 484 0056 00BD     		pop	{pc}
 485              		.cfi_endproc
 486              	.LFE69:
 487              		.size	Vector84, .-Vector84
 488 0058 AFF30080 		.section	.text.dmaInit,"ax",%progbits
 488      AFF30080 
 489              		.align	2
 490              		.p2align 4,,15
 491              		.global	dmaInit
 492              		.thumb
 493              		.thumb_func
 494              		.type	dmaInit, %function
 495              	dmaInit:
 496              	.LFB70:
 497              		.loc 1 381 0
 498              		.cfi_startproc
 499              		@ args = 0, pretend = 0, frame = 8
ARM GAS  C:\Users\z80\AppData\Local\Temp\ccWCzWFa.s 			page 10


 500              		@ frame_needed = 0, uses_anonymous_args = 0
 501              		@ link register save eliminated.
 502 0000 82B0     		sub	sp, sp, #8
 503              	.LCFI14:
 504              		.cfi_def_cfa_offset 8
 505              		.loc 1 384 0
 506 0002 40F20003 		movw	r3, #:lower16:dma_streams_mask
 507 0006 C0F20003 		movt	r3, #:upper16:dma_streams_mask
 508 000a 4FF00002 		mov	r2, #0
 509 000e 1A60     		str	r2, [r3, #0]
 510              		.loc 1 385 0
 511 0010 4FF00003 		mov	r3, #0
 512 0014 0193     		str	r3, [sp, #4]
 513 0016 1CE0     		b	.L16
 514              	.L17:
 515              		.loc 1 386 0 discriminator 2
 516 0018 40F20002 		movw	r2, #:lower16:_stm32_dma_streams
 517 001c C0F20002 		movt	r2, #:upper16:_stm32_dma_streams
 518 0020 0199     		ldr	r1, [sp, #4]
 519 0022 0B46     		mov	r3, r1
 520 0024 4FEA4303 		lsl	r3, r3, #1
 521 0028 0B44     		add	r3, r3, r1
 522 002a 4FEA8303 		lsl	r3, r3, #2
 523 002e 1344     		add	r3, r2, r3
 524 0030 1B68     		ldr	r3, [r3, #0]
 525 0032 4FF00002 		mov	r2, #0
 526 0036 1A60     		str	r2, [r3, #0]
 527              		.loc 1 387 0 discriminator 2
 528 0038 40F20003 		movw	r3, #:lower16:dma_isr_redir
 529 003c C0F20003 		movt	r3, #:upper16:dma_isr_redir
 530 0040 019A     		ldr	r2, [sp, #4]
 531 0042 4FF00001 		mov	r1, #0
 532 0046 43F83210 		str	r1, [r3, r2, lsl #3]
 533              		.loc 1 385 0 discriminator 2
 534 004a 019B     		ldr	r3, [sp, #4]
 535 004c 03F10103 		add	r3, r3, #1
 536 0050 0193     		str	r3, [sp, #4]
 537              	.L16:
 538              		.loc 1 385 0 is_stmt 0 discriminator 1
 539 0052 019B     		ldr	r3, [sp, #4]
 540 0054 062B     		cmp	r3, #6
 541 0056 DFDD     		ble	.L17
 542              		.loc 1 389 0 is_stmt 1
 543 0058 4FF00003 		mov	r3, #0
 544 005c C4F20203 		movt	r3, 16386
 545 0060 4FF0FF32 		mov	r2, #-1
 546 0064 5A60     		str	r2, [r3, #4]
 547              		.loc 1 393 0
 548 0066 02B0     		add	sp, sp, #8
 549 0068 7047     		bx	lr
 550              		.cfi_endproc
 551              	.LFE70:
 552              		.size	dmaInit, .-dmaInit
 553 006a 00BFAFF3 		.section	.text.dmaStreamAllocate,"ax",%progbits
 553      0080
 554              		.align	2
 555              		.p2align 4,,15
ARM GAS  C:\Users\z80\AppData\Local\Temp\ccWCzWFa.s 			page 11


 556              		.global	dmaStreamAllocate
 557              		.thumb
 558              		.thumb_func
 559              		.type	dmaStreamAllocate, %function
 560              	dmaStreamAllocate:
 561              	.LFB71:
 562              		.loc 1 422 0
 563              		.cfi_startproc
 564              		@ args = 0, pretend = 0, frame = 16
 565              		@ frame_needed = 0, uses_anonymous_args = 0
 566 0000 00B5     		push	{lr}
 567              	.LCFI15:
 568              		.cfi_def_cfa_offset 4
 569 0002 85B0     		sub	sp, sp, #20
 570              	.LCFI16:
 571              		.cfi_def_cfa_offset 24
 572 0004 0390     		str	r0, [sp, #12]
 573 0006 0291     		str	r1, [sp, #8]
 574 0008 0192     		str	r2, [sp, #4]
 575 000a 0093     		str	r3, [sp, #0]
 576              		.loc 1 424 0
 577 000c 039B     		ldr	r3, [sp, #12]
 578 000e 002B     		cmp	r3, #0
 579              		.loc 1 427 0
 580 0010 039B     		ldr	r3, [sp, #12]
 581 0012 5B7A     		ldrb	r3, [r3, #9]	@ zero_extendqisi2
 582 0014 4FF00102 		mov	r2, #1
 583 0018 02FA03F3 		lsl	r3, r2, r3
 584 001c 1A46     		mov	r2, r3
 585 001e 40F20003 		movw	r3, #:lower16:dma_streams_mask
 586 0022 C0F20003 		movt	r3, #:upper16:dma_streams_mask
 587 0026 1B68     		ldr	r3, [r3, #0]
 588 0028 02EA0303 		and	r3, r2, r3
 589 002c 002B     		cmp	r3, #0
 590 002e 02D0     		beq	.L20
 591              		.cfi_offset 14, -4
 592              		.loc 1 428 0
 593 0030 4FF00103 		mov	r3, #1
 594 0034 61E0     		b	.L21
 595              	.L20:
 596              		.loc 1 431 0
 597 0036 039B     		ldr	r3, [sp, #12]
 598 0038 5B7A     		ldrb	r3, [r3, #9]	@ zero_extendqisi2
 599 003a 1A46     		mov	r2, r3
 600 003c 40F20003 		movw	r3, #:lower16:dma_isr_redir
 601 0040 C0F20003 		movt	r3, #:upper16:dma_isr_redir
 602 0044 0199     		ldr	r1, [sp, #4]
 603 0046 43F83210 		str	r1, [r3, r2, lsl #3]
 604              		.loc 1 432 0
 605 004a 039B     		ldr	r3, [sp, #12]
 606 004c 5B7A     		ldrb	r3, [r3, #9]	@ zero_extendqisi2
 607 004e 40F20002 		movw	r2, #:lower16:dma_isr_redir
 608 0052 C0F20002 		movt	r2, #:upper16:dma_isr_redir
 609 0056 4FEAC303 		lsl	r3, r3, #3
 610 005a 1344     		add	r3, r2, r3
 611 005c 009A     		ldr	r2, [sp, #0]
 612 005e 5A60     		str	r2, [r3, #4]
ARM GAS  C:\Users\z80\AppData\Local\Temp\ccWCzWFa.s 			page 12


 613              		.loc 1 433 0
 614 0060 039B     		ldr	r3, [sp, #12]
 615 0062 5B7A     		ldrb	r3, [r3, #9]	@ zero_extendqisi2
 616 0064 4FF00102 		mov	r2, #1
 617 0068 02FA03F3 		lsl	r3, r2, r3
 618 006c 1A46     		mov	r2, r3
 619 006e 40F20003 		movw	r3, #:lower16:dma_streams_mask
 620 0072 C0F20003 		movt	r3, #:upper16:dma_streams_mask
 621 0076 1B68     		ldr	r3, [r3, #0]
 622 0078 42EA0302 		orr	r2, r2, r3
 623 007c 40F20003 		movw	r3, #:lower16:dma_streams_mask
 624 0080 C0F20003 		movt	r3, #:upper16:dma_streams_mask
 625 0084 1A60     		str	r2, [r3, #0]
 626              		.loc 1 436 0
 627 0086 40F20003 		movw	r3, #:lower16:dma_streams_mask
 628 008a C0F20003 		movt	r3, #:upper16:dma_streams_mask
 629 008e 1B68     		ldr	r3, [r3, #0]
 630 0090 03F07F03 		and	r3, r3, #127
 631 0094 002B     		cmp	r3, #0
 632 0096 0BD0     		beq	.L22
 633              		.loc 1 437 0
 634 0098 4FF48053 		mov	r3, #4096
 635 009c C4F20203 		movt	r3, 16386
 636 00a0 4FF48052 		mov	r2, #4096
 637 00a4 C4F20202 		movt	r2, 16386
 638 00a8 5269     		ldr	r2, [r2, #20]
 639 00aa 42F00102 		orr	r2, r2, #1
 640 00ae 5A61     		str	r2, [r3, #20]
 641              	.L22:
 642              		.loc 1 444 0
 643 00b0 039B     		ldr	r3, [sp, #12]
 644 00b2 1B68     		ldr	r3, [r3, #0]
 645 00b4 039A     		ldr	r2, [sp, #12]
 646 00b6 1268     		ldr	r2, [r2, #0]
 647 00b8 1268     		ldr	r2, [r2, #0]
 648 00ba 22F00F02 		bic	r2, r2, #15
 649 00be 1A60     		str	r2, [r3, #0]
 650 00c0 039B     		ldr	r3, [sp, #12]
 651 00c2 5B68     		ldr	r3, [r3, #4]
 652 00c4 039A     		ldr	r2, [sp, #12]
 653 00c6 127A     		ldrb	r2, [r2, #8]	@ zero_extendqisi2
 654 00c8 4FF00F01 		mov	r1, #15
 655 00cc 01FA02F2 		lsl	r2, r1, r2
 656 00d0 1A60     		str	r2, [r3, #0]
 657              		.loc 1 445 0
 658 00d2 039B     		ldr	r3, [sp, #12]
 659 00d4 1B68     		ldr	r3, [r3, #0]
 660 00d6 4FF00002 		mov	r2, #0
 661 00da 1A60     		str	r2, [r3, #0]
 662              		.loc 1 448 0
 663 00dc 019B     		ldr	r3, [sp, #4]
 664 00de 002B     		cmp	r3, #0
 665 00e0 09D0     		beq	.L23
 666              		.loc 1 449 0
 667 00e2 039B     		ldr	r3, [sp, #12]
 668 00e4 9B7A     		ldrb	r3, [r3, #10]	@ zero_extendqisi2
 669 00e6 1A46     		mov	r2, r3
ARM GAS  C:\Users\z80\AppData\Local\Temp\ccWCzWFa.s 			page 13


 670 00e8 029B     		ldr	r3, [sp, #8]
 671 00ea 4FEA0313 		lsl	r3, r3, #4
 672 00ee 1046     		mov	r0, r2
 673 00f0 1946     		mov	r1, r3
 674 00f2 FFF7FEFF 		bl	nvicEnableVector
 675              	.L23:
 676              		.loc 1 451 0
 677 00f6 4FF00003 		mov	r3, #0
 678              	.L21:
 679              		.loc 1 452 0
 680 00fa 1846     		mov	r0, r3
 681 00fc 05B0     		add	sp, sp, #20
 682 00fe 00BD     		pop	{pc}
 683              		.cfi_endproc
 684              	.LFE71:
 685              		.size	dmaStreamAllocate, .-dmaStreamAllocate
 686              		.section	.text.dmaStreamRelease,"ax",%progbits
 687              		.align	2
 688              		.p2align 4,,15
 689              		.global	dmaStreamRelease
 690              		.thumb
 691              		.thumb_func
 692              		.type	dmaStreamRelease, %function
 693              	dmaStreamRelease:
 694              	.LFB72:
 695              		.loc 1 467 0
 696              		.cfi_startproc
 697              		@ args = 0, pretend = 0, frame = 8
 698              		@ frame_needed = 0, uses_anonymous_args = 0
 699 0000 00B5     		push	{lr}
 700              	.LCFI17:
 701              		.cfi_def_cfa_offset 4
 702 0002 83B0     		sub	sp, sp, #12
 703              	.LCFI18:
 704              		.cfi_def_cfa_offset 16
 705 0004 0190     		str	r0, [sp, #4]
 706              		.loc 1 469 0
 707 0006 019B     		ldr	r3, [sp, #4]
 708 0008 002B     		cmp	r3, #0
 709              		.loc 1 472 0
 710 000a 019B     		ldr	r3, [sp, #4]
 711 000c 5B7A     		ldrb	r3, [r3, #9]	@ zero_extendqisi2
 712 000e 4FF00102 		mov	r2, #1
 713 0012 02FA03F3 		lsl	r3, r2, r3
 714 0016 1A46     		mov	r2, r3
 715 0018 40F20003 		movw	r3, #:lower16:dma_streams_mask
 716 001c C0F20003 		movt	r3, #:upper16:dma_streams_mask
 717 0020 1B68     		ldr	r3, [r3, #0]
 718 0022 02EA0303 		and	r3, r2, r3
 719 0026 002B     		cmp	r3, #0
 720              		.loc 1 476 0
 721 0028 019B     		ldr	r3, [sp, #4]
 722 002a 9B7A     		ldrb	r3, [r3, #10]	@ zero_extendqisi2
 723 002c 1846     		mov	r0, r3
 724              		.cfi_offset 14, -4
 725 002e FFF7FEFF 		bl	nvicDisableVector
 726              		.loc 1 479 0
ARM GAS  C:\Users\z80\AppData\Local\Temp\ccWCzWFa.s 			page 14


 727 0032 019B     		ldr	r3, [sp, #4]
 728 0034 5B7A     		ldrb	r3, [r3, #9]	@ zero_extendqisi2
 729 0036 4FF00102 		mov	r2, #1
 730 003a 02FA03F3 		lsl	r3, r2, r3
 731 003e 6FEA0303 		mvn	r3, r3
 732 0042 1A46     		mov	r2, r3
 733 0044 40F20003 		movw	r3, #:lower16:dma_streams_mask
 734 0048 C0F20003 		movt	r3, #:upper16:dma_streams_mask
 735 004c 1B68     		ldr	r3, [r3, #0]
 736 004e 02EA0302 		and	r2, r2, r3
 737 0052 40F20003 		movw	r3, #:lower16:dma_streams_mask
 738 0056 C0F20003 		movt	r3, #:upper16:dma_streams_mask
 739 005a 1A60     		str	r2, [r3, #0]
 740              		.loc 1 482 0
 741 005c 40F20003 		movw	r3, #:lower16:dma_streams_mask
 742 0060 C0F20003 		movt	r3, #:upper16:dma_streams_mask
 743 0064 1B68     		ldr	r3, [r3, #0]
 744 0066 03F07F03 		and	r3, r3, #127
 745 006a 002B     		cmp	r3, #0
 746 006c 0BD1     		bne	.L24
 747              		.loc 1 483 0
 748 006e 4FF48053 		mov	r3, #4096
 749 0072 C4F20203 		movt	r3, 16386
 750 0076 4FF48052 		mov	r2, #4096
 751 007a C4F20202 		movt	r2, 16386
 752 007e 5269     		ldr	r2, [r2, #20]
 753 0080 22F00102 		bic	r2, r2, #1
 754 0084 5A61     		str	r2, [r3, #20]
 755              	.L24:
 756              		.loc 1 488 0
 757 0086 03B0     		add	sp, sp, #12
 758 0088 00BD     		pop	{pc}
 759              		.cfi_endproc
 760              	.LFE72:
 761              		.size	dmaStreamRelease, .-dmaStreamRelease
 762 008a 00BFAFF3 		.text
 762      0080
 763              	.Letext0: