ARM GAS  C:\Users\z80\AppData\Local\Temp\ccqYjHyO.s 			page 1


   1              		.syntax unified
   2              		.cpu cortex-m3
   3              		.fpu softvfp
   4              		.eabi_attribute 20, 1
   5              		.eabi_attribute 21, 1
   6              		.eabi_attribute 23, 3
   7              		.eabi_attribute 24, 1
   8              		.eabi_attribute 25, 1
   9              		.eabi_attribute 26, 1
  10              		.eabi_attribute 30, 6
  11              		.eabi_attribute 18, 4
  12              		.thumb
  13              		.file	"stm32f10x_spi.c"
  20 0000 48030000 		.text
  20      02001D01 
  20      00000201 
  20      FB0E0D00 
  20      01010101 
  21              	.Ltext0:
  22              		.cfi_sections	.debug_frame
  23              		.section	.text.SPI_I2S_DeInit,"ax",%progbits
  24              		.align	2
  25              		.p2align 4,,15
  26              		.global	SPI_I2S_DeInit
  27              		.thumb
  28              		.thumb_func
  29              		.type	SPI_I2S_DeInit, %function
  30              	SPI_I2S_DeInit:
  31              	.LFB56:
  32              		.file 1 "stdperiph/stm32f10x_spi.c"
  33              		.loc 1 122 0
  34              		.cfi_startproc
  35              		@ args = 0, pretend = 0, frame = 8
  36              		@ frame_needed = 0, uses_anonymous_args = 0
  37 0000 00B5     		push	{lr}
  38              	.LCFI0:
  39              		.cfi_def_cfa_offset 4
  40 0002 83B0     		sub	sp, sp, #12
  41              	.LCFI1:
  42              		.cfi_def_cfa_offset 16
  43 0004 0190     		str	r0, [sp, #4]
  44              		.loc 1 126 0
  45 0006 019A     		ldr	r2, [sp, #4]
  46 0008 4FF44053 		mov	r3, #12288
  47 000c C4F20103 		movt	r3, 16385
  48 0010 9A42     		cmp	r2, r3
  49 0012 0CD1     		bne	.L2
  50              		.cfi_offset 14, -4
  51              		.loc 1 129 0
  52 0014 4FF48050 		mov	r0, #4096
  53 0018 4FF00101 		mov	r1, #1
ARM GAS  C:\Users\z80\AppData\Local\Temp\ccqYjHyO.s 			page 2


  54 001c FFF7FEFF 		bl	RCC_APB2PeriphResetCmd
  55              		.loc 1 131 0
  56 0020 4FF48050 		mov	r0, #4096
  57 0024 4FF00001 		mov	r1, #0
  58 0028 FFF7FEFF 		bl	RCC_APB2PeriphResetCmd
  59 002c 26E0     		b	.L1
  60              	.L2:
  61              		.loc 1 133 0
  62 002e 019A     		ldr	r2, [sp, #4]
  63 0030 4FF46053 		mov	r3, #14336
  64 0034 C4F20003 		movt	r3, 16384
  65 0038 9A42     		cmp	r2, r3
  66 003a 0CD1     		bne	.L4
  67              		.loc 1 136 0
  68 003c 4FF48040 		mov	r0, #16384
  69 0040 4FF00101 		mov	r1, #1
  70 0044 FFF7FEFF 		bl	RCC_APB1PeriphResetCmd
  71              		.loc 1 138 0
  72 0048 4FF48040 		mov	r0, #16384
  73 004c 4FF00001 		mov	r1, #0
  74 0050 FFF7FEFF 		bl	RCC_APB1PeriphResetCmd
  75 0054 12E0     		b	.L1
  76              	.L4:
  77              		.loc 1 142 0
  78 0056 019A     		ldr	r2, [sp, #4]
  79 0058 4FF47053 		mov	r3, #15360
  80 005c C4F20003 		movt	r3, 16384
  81 0060 9A42     		cmp	r2, r3
  82 0062 0BD1     		bne	.L1
  83              		.loc 1 145 0
  84 0064 4FF40040 		mov	r0, #32768
  85 0068 4FF00101 		mov	r1, #1
  86 006c FFF7FEFF 		bl	RCC_APB1PeriphResetCmd
  87              		.loc 1 147 0
  88 0070 4FF40040 		mov	r0, #32768
  89 0074 4FF00001 		mov	r1, #0
  90 0078 FFF7FEFF 		bl	RCC_APB1PeriphResetCmd
  91              	.L1:
  92              		.loc 1 150 0
  93 007c 03B0     		add	sp, sp, #12
  94 007e 00BD     		pop	{pc}
  95              		.cfi_endproc
  96              	.LFE56:
  97              		.size	SPI_I2S_DeInit, .-SPI_I2S_DeInit
  98              		.section	.text.SPI_Init,"ax",%progbits
  99              		.align	2
 100              		.p2align 4,,15
 101              		.global	SPI_Init
 102              		.thumb
 103              		.thumb_func
 104              		.type	SPI_Init, %function
 105              	SPI_Init:
 106              	.LFB57:
 107              		.loc 1 161 0
 108              		.cfi_startproc
 109              		@ args = 0, pretend = 0, frame = 16
 110              		@ frame_needed = 0, uses_anonymous_args = 0
ARM GAS  C:\Users\z80\AppData\Local\Temp\ccqYjHyO.s 			page 3


 111              		@ link register save eliminated.
 112 0000 84B0     		sub	sp, sp, #16
 113              	.LCFI2:
 114              		.cfi_def_cfa_offset 16
 115 0002 0190     		str	r0, [sp, #4]
 116 0004 0091     		str	r1, [sp, #0]
 117              		.loc 1 162 0
 118 0006 4FF00003 		mov	r3, #0
 119 000a ADF80E30 		strh	r3, [sp, #14]	@ movhi
 120              		.loc 1 180 0
 121 000e 019B     		ldr	r3, [sp, #4]
 122 0010 1B88     		ldrh	r3, [r3, #0]	@ movhi
 123 0012 ADF80E30 		strh	r3, [sp, #14]	@ movhi
 124              		.loc 1 182 0
 125 0016 BDF80E30 		ldrh	r3, [sp, #14]	@ movhi
 126 001a 03F44153 		and	r3, r3, #12352
 127 001e ADF80E30 		strh	r3, [sp, #14]	@ movhi
 128              		.loc 1 191 0
 129 0022 009B     		ldr	r3, [sp, #0]
 130 0024 1A88     		ldrh	r2, [r3, #0]
 131 0026 009B     		ldr	r3, [sp, #0]
 132 0028 5B88     		ldrh	r3, [r3, #2]
 133 002a 42EA0303 		orr	r3, r2, r3
 134 002e 9AB2     		uxth	r2, r3
 135              		.loc 1 192 0
 136 0030 009B     		ldr	r3, [sp, #0]
 137 0032 9B88     		ldrh	r3, [r3, #4]
 138              		.loc 1 191 0
 139 0034 42EA0303 		orr	r3, r2, r3
 140 0038 9AB2     		uxth	r2, r3
 141              		.loc 1 192 0
 142 003a 009B     		ldr	r3, [sp, #0]
 143 003c DB88     		ldrh	r3, [r3, #6]
 144              		.loc 1 191 0
 145 003e 42EA0303 		orr	r3, r2, r3
 146 0042 9AB2     		uxth	r2, r3
 147              		.loc 1 193 0
 148 0044 009B     		ldr	r3, [sp, #0]
 149 0046 1B89     		ldrh	r3, [r3, #8]
 150              		.loc 1 191 0
 151 0048 42EA0303 		orr	r3, r2, r3
 152 004c 9AB2     		uxth	r2, r3
 153              		.loc 1 193 0
 154 004e 009B     		ldr	r3, [sp, #0]
 155 0050 5B89     		ldrh	r3, [r3, #10]
 156              		.loc 1 191 0
 157 0052 42EA0303 		orr	r3, r2, r3
 158 0056 9AB2     		uxth	r2, r3
 159              		.loc 1 194 0
 160 0058 009B     		ldr	r3, [sp, #0]
 161 005a 9B89     		ldrh	r3, [r3, #12]
 162              		.loc 1 191 0
 163 005c 42EA0303 		orr	r3, r2, r3
 164 0060 9AB2     		uxth	r2, r3
 165              		.loc 1 194 0
 166 0062 009B     		ldr	r3, [sp, #0]
 167 0064 DB89     		ldrh	r3, [r3, #14]
ARM GAS  C:\Users\z80\AppData\Local\Temp\ccqYjHyO.s 			page 4


 168              		.loc 1 191 0
 169 0066 42EA0303 		orr	r3, r2, r3
 170 006a 9AB2     		uxth	r2, r3
 171 006c BDF80E30 		ldrh	r3, [sp, #14]	@ movhi
 172 0070 42EA0303 		orr	r3, r2, r3
 173 0074 ADF80E30 		strh	r3, [sp, #14]	@ movhi
 174              		.loc 1 196 0
 175 0078 019B     		ldr	r3, [sp, #4]
 176 007a BDF80E20 		ldrh	r2, [sp, #14]	@ movhi
 177 007e 1A80     		strh	r2, [r3, #0]	@ movhi
 178              		.loc 1 199 0
 179 0080 019B     		ldr	r3, [sp, #4]
 180 0082 9B8B     		ldrh	r3, [r3, #28]	@ movhi
 181 0084 9BB2     		uxth	r3, r3
 182 0086 23F40063 		bic	r3, r3, #2048
 183 008a 9AB2     		uxth	r2, r3
 184 008c 019B     		ldr	r3, [sp, #4]
 185 008e 9A83     		strh	r2, [r3, #28]	@ movhi
 186              		.loc 1 203 0
 187 0090 009B     		ldr	r3, [sp, #0]
 188 0092 1A8A     		ldrh	r2, [r3, #16]
 189 0094 019B     		ldr	r3, [sp, #4]
 190 0096 1A82     		strh	r2, [r3, #16]	@ movhi
 191              		.loc 1 204 0
 192 0098 04B0     		add	sp, sp, #16
 193 009a 7047     		bx	lr
 194              		.cfi_endproc
 195              	.LFE57:
 196              		.size	SPI_Init, .-SPI_Init
 197 009c AFF30080 		.section	.text.I2S_Init,"ax",%progbits
 198              		.align	2
 199              		.p2align 4,,15
 200              		.global	I2S_Init
 201              		.thumb
 202              		.thumb_func
 203              		.type	I2S_Init, %function
 204              	I2S_Init:
 205              	.LFB58:
 206              		.loc 1 222 0
 207              		.cfi_startproc
 208              		@ args = 0, pretend = 0, frame = 48
 209              		@ frame_needed = 0, uses_anonymous_args = 0
 210 0000 00B5     		push	{lr}
 211              	.LCFI3:
 212              		.cfi_def_cfa_offset 4
 213 0002 8DB0     		sub	sp, sp, #52
 214              	.LCFI4:
 215              		.cfi_def_cfa_offset 56
 216 0004 0190     		str	r0, [sp, #4]
 217 0006 0091     		str	r1, [sp, #0]
 218              		.loc 1 223 0
 219 0008 4FF00003 		mov	r3, #0
 220 000c ADF82230 		strh	r3, [sp, #34]	@ movhi
 221 0010 4FF00203 		mov	r3, #2
 222 0014 ADF82E30 		strh	r3, [sp, #46]	@ movhi
 223 0018 4FF00003 		mov	r3, #0
 224 001c ADF82C30 		strh	r3, [sp, #44]	@ movhi
ARM GAS  C:\Users\z80\AppData\Local\Temp\ccqYjHyO.s 			page 5


 225 0020 4FF00103 		mov	r3, #1
 226 0024 ADF82A30 		strh	r3, [sp, #42]	@ movhi
 227              		.loc 1 224 0
 228 0028 4FF00003 		mov	r3, #0
 229 002c 0993     		str	r3, [sp, #36]
 230              		.loc 1 226 0
 231 002e 4FF00003 		mov	r3, #0
 232 0032 0793     		str	r3, [sp, #28]
 233              		.loc 1 239 0
 234 0034 019B     		ldr	r3, [sp, #4]
 235 0036 9B8B     		ldrh	r3, [r3, #28]	@ movhi
 236 0038 9BB2     		uxth	r3, r3
 237 003a 23F47A63 		bic	r3, r3, #4000
 238 003e 23F01F03 		bic	r3, r3, #31
 239 0042 9AB2     		uxth	r2, r3
 240 0044 019B     		ldr	r3, [sp, #4]
 241 0046 9A83     		strh	r2, [r3, #28]	@ movhi
 242              		.loc 1 240 0
 243 0048 019B     		ldr	r3, [sp, #4]
 244 004a 4FF00202 		mov	r2, #2
 245 004e 1A84     		strh	r2, [r3, #32]	@ movhi
 246              		.loc 1 243 0
 247 0050 019B     		ldr	r3, [sp, #4]
 248 0052 9B8B     		ldrh	r3, [r3, #28]	@ movhi
 249 0054 ADF82230 		strh	r3, [sp, #34]	@ movhi
 250              		.loc 1 246 0
 251 0058 009B     		ldr	r3, [sp, #0]
 252 005a 9B68     		ldr	r3, [r3, #8]
 253 005c 022B     		cmp	r3, #2
 254 005e 08D1     		bne	.L7
 255              		.cfi_offset 14, -4
 256              		.loc 1 248 0
 257 0060 4FF00003 		mov	r3, #0
 258 0064 ADF82C30 		strh	r3, [sp, #44]	@ movhi
 259              		.loc 1 249 0
 260 0068 4FF00203 		mov	r3, #2
 261 006c ADF82E30 		strh	r3, [sp, #46]	@ movhi
 262 0070 6FE0     		b	.L8
 263              	.L7:
 264              		.loc 1 255 0
 265 0072 009B     		ldr	r3, [sp, #0]
 266 0074 9B88     		ldrh	r3, [r3, #4]
 267 0076 002B     		cmp	r3, #0
 268 0078 04D1     		bne	.L9
 269              		.loc 1 258 0
 270 007a 4FF00103 		mov	r3, #1
 271 007e ADF82A30 		strh	r3, [sp, #42]	@ movhi
 272 0082 03E0     		b	.L10
 273              	.L9:
 274              		.loc 1 263 0
 275 0084 4FF00203 		mov	r3, #2
 276 0088 ADF82A30 		strh	r3, [sp, #42]	@ movhi
 277              	.L10:
 278              		.loc 1 267 0
 279 008c 019A     		ldr	r2, [sp, #4]
 280 008e 4FF46053 		mov	r3, #14336
 281 0092 C4F20003 		movt	r3, 16384
ARM GAS  C:\Users\z80\AppData\Local\Temp\ccqYjHyO.s 			page 6


 282 0096 9A42     		cmp	r2, r3
 283 0098 03D1     		bne	.L11
 284              		.loc 1 270 0
 285 009a 4FF40033 		mov	r3, #131072
 286 009e 0993     		str	r3, [sp, #36]
 287 00a0 02E0     		b	.L12
 288              	.L11:
 289              		.loc 1 275 0
 290 00a2 4FF48023 		mov	r3, #262144
 291 00a6 0993     		str	r3, [sp, #36]
 292              	.L12:
 293              		.loc 1 316 0
 294 00a8 02AB     		add	r3, sp, #8
 295 00aa 1846     		mov	r0, r3
 296 00ac FFF7FEFF 		bl	RCC_GetClocksFreq
 297              		.loc 1 319 0
 298 00b0 029B     		ldr	r3, [sp, #8]
 299 00b2 0793     		str	r3, [sp, #28]
 300              		.loc 1 323 0
 301 00b4 009B     		ldr	r3, [sp, #0]
 302 00b6 DB88     		ldrh	r3, [r3, #6]
 303 00b8 B3F5007F 		cmp	r3, #512
 304 00bc 13D1     		bne	.L13
 305              		.loc 1 326 0
 306 00be 079B     		ldr	r3, [sp, #28]
 307 00c0 4FEA1322 		lsr	r2, r3, #8
 308 00c4 1346     		mov	r3, r2
 309 00c6 4FEA8303 		lsl	r3, r3, #2
 310 00ca 1344     		add	r3, r3, r2
 311 00cc 4FEA4303 		lsl	r3, r3, #1
 312 00d0 1A46     		mov	r2, r3
 313 00d2 009B     		ldr	r3, [sp, #0]
 314 00d4 9B68     		ldr	r3, [r3, #8]
 315 00d6 B2FBF3F3 		udiv	r3, r2, r3
 316 00da 9BB2     		uxth	r3, r3
 317 00dc 03F10503 		add	r3, r3, #5
 318 00e0 9BB2     		uxth	r3, r3
 319 00e2 0993     		str	r3, [sp, #36]
 320 00e4 16E0     		b	.L14
 321              	.L13:
 322              		.loc 1 331 0
 323 00e6 BDF82A30 		ldrh	r3, [sp, #42]
 324 00ea 4FEA4313 		lsl	r3, r3, #5
 325 00ee 079A     		ldr	r2, [sp, #28]
 326 00f0 B2FBF3F2 		udiv	r2, r2, r3
 327 00f4 1346     		mov	r3, r2
 328 00f6 4FEA8303 		lsl	r3, r3, #2
 329 00fa 1344     		add	r3, r3, r2
 330 00fc 4FEA4303 		lsl	r3, r3, #1
 331 0100 1A46     		mov	r2, r3
 332 0102 009B     		ldr	r3, [sp, #0]
 333 0104 9B68     		ldr	r3, [r3, #8]
 334 0106 B2FBF3F3 		udiv	r3, r2, r3
 335 010a 9BB2     		uxth	r3, r3
 336 010c 03F10503 		add	r3, r3, #5
 337 0110 9BB2     		uxth	r3, r3
 338 0112 0993     		str	r3, [sp, #36]
ARM GAS  C:\Users\z80\AppData\Local\Temp\ccqYjHyO.s 			page 7


 339              	.L14:
 340              		.loc 1 335 0
 341 0114 099A     		ldr	r2, [sp, #36]
 342 0116 4CF6CD43 		movw	r3, #52429
 343 011a CCF6CC43 		movt	r3, 52428
 344 011e A3FB0213 		umull	r1, r3, r3, r2
 345 0122 4FEAD303 		lsr	r3, r3, #3
 346 0126 0993     		str	r3, [sp, #36]
 347              		.loc 1 338 0
 348 0128 099B     		ldr	r3, [sp, #36]
 349 012a 9BB2     		uxth	r3, r3
 350 012c 03F00103 		and	r3, r3, #1
 351 0130 ADF82C30 		strh	r3, [sp, #44]	@ movhi
 352              		.loc 1 341 0
 353 0134 BDF82C30 		ldrh	r3, [sp, #44]
 354 0138 099A     		ldr	r2, [sp, #36]
 355 013a C3EB0203 		rsb	r3, r3, r2
 356 013e 4FEA5303 		lsr	r3, r3, #1
 357 0142 ADF82E30 		strh	r3, [sp, #46]	@ movhi
 358              		.loc 1 344 0
 359 0146 BDF82C30 		ldrh	r3, [sp, #44]	@ movhi
 360 014a 4FEA0323 		lsl	r3, r3, #8
 361 014e ADF82C30 		strh	r3, [sp, #44]	@ movhi
 362              	.L8:
 363              		.loc 1 348 0
 364 0152 BDF82E30 		ldrh	r3, [sp, #46]
 365 0156 012B     		cmp	r3, #1
 366 0158 03D9     		bls	.L15
 367              		.loc 1 348 0 is_stmt 0 discriminator 1
 368 015a BDF82E30 		ldrh	r3, [sp, #46]
 369 015e FF2B     		cmp	r3, #255
 370 0160 07D9     		bls	.L16
 371              	.L15:
 372              		.loc 1 351 0 is_stmt 1
 373 0162 4FF00203 		mov	r3, #2
 374 0166 ADF82E30 		strh	r3, [sp, #46]	@ movhi
 375              		.loc 1 352 0
 376 016a 4FF00003 		mov	r3, #0
 377 016e ADF82C30 		strh	r3, [sp, #44]	@ movhi
 378              	.L16:
 379              		.loc 1 356 0
 380 0172 009B     		ldr	r3, [sp, #0]
 381 0174 DA88     		ldrh	r2, [r3, #6]
 382 0176 BDF82C30 		ldrh	r3, [sp, #44]	@ movhi
 383 017a 42EA0303 		orr	r3, r2, r3
 384 017e 9AB2     		uxth	r2, r3
 385 0180 BDF82E30 		ldrh	r3, [sp, #46]	@ movhi
 386 0184 42EA0303 		orr	r3, r2, r3
 387 0188 9AB2     		uxth	r2, r3
 388 018a 019B     		ldr	r3, [sp, #4]
 389 018c 1A84     		strh	r2, [r3, #32]	@ movhi
 390              		.loc 1 359 0
 391 018e 009B     		ldr	r3, [sp, #0]
 392 0190 1A88     		ldrh	r2, [r3, #0]
 393              		.loc 1 360 0
 394 0192 009B     		ldr	r3, [sp, #0]
 395 0194 5988     		ldrh	r1, [r3, #2]
ARM GAS  C:\Users\z80\AppData\Local\Temp\ccqYjHyO.s 			page 8


 396 0196 009B     		ldr	r3, [sp, #0]
 397 0198 9888     		ldrh	r0, [r3, #4]
 398              		.loc 1 361 0
 399 019a 009B     		ldr	r3, [sp, #0]
 400 019c 9B89     		ldrh	r3, [r3, #12]
 401              		.loc 1 360 0
 402 019e 40EA0303 		orr	r3, r0, r3
 403 01a2 9BB2     		uxth	r3, r3
 404 01a4 41EA0303 		orr	r3, r1, r3
 405 01a8 9BB2     		uxth	r3, r3
 406              		.loc 1 359 0
 407 01aa 42EA0303 		orr	r3, r2, r3
 408 01ae 9AB2     		uxth	r2, r3
 409 01b0 BDF82230 		ldrh	r3, [sp, #34]	@ movhi
 410 01b4 42EA0303 		orr	r3, r2, r3
 411 01b8 9BB2     		uxth	r3, r3
 412 01ba 43F40063 		orr	r3, r3, #2048
 413 01be ADF82230 		strh	r3, [sp, #34]	@ movhi
 414              		.loc 1 364 0
 415 01c2 019B     		ldr	r3, [sp, #4]
 416 01c4 BDF82220 		ldrh	r2, [sp, #34]	@ movhi
 417 01c8 9A83     		strh	r2, [r3, #28]	@ movhi
 418              		.loc 1 365 0
 419 01ca 0DB0     		add	sp, sp, #52
 420 01cc 00BD     		pop	{pc}
 421              		.cfi_endproc
 422              	.LFE58:
 423              		.size	I2S_Init, .-I2S_Init
 424 01ce 00BF     		.section	.text.SPI_StructInit,"ax",%progbits
 425              		.align	2
 426              		.p2align 4,,15
 427              		.global	SPI_StructInit
 428              		.thumb
 429              		.thumb_func
 430              		.type	SPI_StructInit, %function
 431              	SPI_StructInit:
 432              	.LFB59:
 433              		.loc 1 373 0
 434              		.cfi_startproc
 435              		@ args = 0, pretend = 0, frame = 8
 436              		@ frame_needed = 0, uses_anonymous_args = 0
 437              		@ link register save eliminated.
 438 0000 82B0     		sub	sp, sp, #8
 439              	.LCFI5:
 440              		.cfi_def_cfa_offset 8
 441 0002 0190     		str	r0, [sp, #4]
 442              		.loc 1 376 0
 443 0004 019B     		ldr	r3, [sp, #4]
 444 0006 4FF00002 		mov	r2, #0
 445 000a 1A80     		strh	r2, [r3, #0]	@ movhi
 446              		.loc 1 378 0
 447 000c 019B     		ldr	r3, [sp, #4]
 448 000e 4FF00002 		mov	r2, #0
 449 0012 5A80     		strh	r2, [r3, #2]	@ movhi
 450              		.loc 1 380 0
 451 0014 019B     		ldr	r3, [sp, #4]
 452 0016 4FF00002 		mov	r2, #0
ARM GAS  C:\Users\z80\AppData\Local\Temp\ccqYjHyO.s 			page 9


 453 001a 9A80     		strh	r2, [r3, #4]	@ movhi
 454              		.loc 1 382 0
 455 001c 019B     		ldr	r3, [sp, #4]
 456 001e 4FF00002 		mov	r2, #0
 457 0022 DA80     		strh	r2, [r3, #6]	@ movhi
 458              		.loc 1 384 0
 459 0024 019B     		ldr	r3, [sp, #4]
 460 0026 4FF00002 		mov	r2, #0
 461 002a 1A81     		strh	r2, [r3, #8]	@ movhi
 462              		.loc 1 386 0
 463 002c 019B     		ldr	r3, [sp, #4]
 464 002e 4FF00002 		mov	r2, #0
 465 0032 5A81     		strh	r2, [r3, #10]	@ movhi
 466              		.loc 1 388 0
 467 0034 019B     		ldr	r3, [sp, #4]
 468 0036 4FF00002 		mov	r2, #0
 469 003a 9A81     		strh	r2, [r3, #12]	@ movhi
 470              		.loc 1 390 0
 471 003c 019B     		ldr	r3, [sp, #4]
 472 003e 4FF00002 		mov	r2, #0
 473 0042 DA81     		strh	r2, [r3, #14]	@ movhi
 474              		.loc 1 392 0
 475 0044 019B     		ldr	r3, [sp, #4]
 476 0046 4FF00702 		mov	r2, #7
 477 004a 1A82     		strh	r2, [r3, #16]	@ movhi
 478              		.loc 1 393 0
 479 004c 02B0     		add	sp, sp, #8
 480 004e 7047     		bx	lr
 481              		.cfi_endproc
 482              	.LFE59:
 483              		.size	SPI_StructInit, .-SPI_StructInit
 484              		.section	.text.I2S_StructInit,"ax",%progbits
 485              		.align	2
 486              		.p2align 4,,15
 487              		.global	I2S_StructInit
 488              		.thumb
 489              		.thumb_func
 490              		.type	I2S_StructInit, %function
 491              	I2S_StructInit:
 492              	.LFB60:
 493              		.loc 1 401 0
 494              		.cfi_startproc
 495              		@ args = 0, pretend = 0, frame = 8
 496              		@ frame_needed = 0, uses_anonymous_args = 0
 497              		@ link register save eliminated.
 498 0000 82B0     		sub	sp, sp, #8
 499              	.LCFI6:
 500              		.cfi_def_cfa_offset 8
 501 0002 0190     		str	r0, [sp, #4]
 502              		.loc 1 404 0
 503 0004 019B     		ldr	r3, [sp, #4]
 504 0006 4FF00002 		mov	r2, #0
 505 000a 1A80     		strh	r2, [r3, #0]	@ movhi
 506              		.loc 1 407 0
 507 000c 019B     		ldr	r3, [sp, #4]
 508 000e 4FF00002 		mov	r2, #0
 509 0012 5A80     		strh	r2, [r3, #2]	@ movhi
ARM GAS  C:\Users\z80\AppData\Local\Temp\ccqYjHyO.s 			page 10


 510              		.loc 1 410 0
 511 0014 019B     		ldr	r3, [sp, #4]
 512 0016 4FF00002 		mov	r2, #0
 513 001a 9A80     		strh	r2, [r3, #4]	@ movhi
 514              		.loc 1 413 0
 515 001c 019B     		ldr	r3, [sp, #4]
 516 001e 4FF00002 		mov	r2, #0
 517 0022 DA80     		strh	r2, [r3, #6]	@ movhi
 518              		.loc 1 416 0
 519 0024 019B     		ldr	r3, [sp, #4]
 520 0026 4FF00202 		mov	r2, #2
 521 002a 9A60     		str	r2, [r3, #8]
 522              		.loc 1 419 0
 523 002c 019B     		ldr	r3, [sp, #4]
 524 002e 4FF00002 		mov	r2, #0
 525 0032 9A81     		strh	r2, [r3, #12]	@ movhi
 526              		.loc 1 420 0
 527 0034 02B0     		add	sp, sp, #8
 528 0036 7047     		bx	lr
 529              		.cfi_endproc
 530              	.LFE60:
 531              		.size	I2S_StructInit, .-I2S_StructInit
 532 0038 AFF30080 		.section	.text.SPI_Cmd,"ax",%progbits
 532      AFF30080 
 533              		.align	2
 534              		.p2align 4,,15
 535              		.global	SPI_Cmd
 536              		.thumb
 537              		.thumb_func
 538              		.type	SPI_Cmd, %function
 539              	SPI_Cmd:
 540              	.LFB61:
 541              		.loc 1 430 0
 542              		.cfi_startproc
 543              		@ args = 0, pretend = 0, frame = 8
 544              		@ frame_needed = 0, uses_anonymous_args = 0
 545              		@ link register save eliminated.
 546 0000 82B0     		sub	sp, sp, #8
 547              	.LCFI7:
 548              		.cfi_def_cfa_offset 8
 549 0002 0190     		str	r0, [sp, #4]
 550 0004 0B46     		mov	r3, r1
 551 0006 8DF80330 		strb	r3, [sp, #3]
 552              		.loc 1 434 0
 553 000a 9DF80330 		ldrb	r3, [sp, #3]	@ zero_extendqisi2
 554 000e 002B     		cmp	r3, #0
 555 0010 08D0     		beq	.L20
 556              		.loc 1 437 0
 557 0012 019B     		ldr	r3, [sp, #4]
 558 0014 1B88     		ldrh	r3, [r3, #0]	@ movhi
 559 0016 9BB2     		uxth	r3, r3
 560 0018 43F04003 		orr	r3, r3, #64
 561 001c 9AB2     		uxth	r2, r3
 562 001e 019B     		ldr	r3, [sp, #4]
 563 0020 1A80     		strh	r2, [r3, #0]	@ movhi
 564 0022 07E0     		b	.L19
 565              	.L20:
ARM GAS  C:\Users\z80\AppData\Local\Temp\ccqYjHyO.s 			page 11


 566              		.loc 1 442 0
 567 0024 019B     		ldr	r3, [sp, #4]
 568 0026 1B88     		ldrh	r3, [r3, #0]	@ movhi
 569 0028 9BB2     		uxth	r3, r3
 570 002a 23F04003 		bic	r3, r3, #64
 571 002e 9AB2     		uxth	r2, r3
 572 0030 019B     		ldr	r3, [sp, #4]
 573 0032 1A80     		strh	r2, [r3, #0]	@ movhi
 574              	.L19:
 575              		.loc 1 444 0
 576 0034 02B0     		add	sp, sp, #8
 577 0036 7047     		bx	lr
 578              		.cfi_endproc
 579              	.LFE61:
 580              		.size	SPI_Cmd, .-SPI_Cmd
 581 0038 AFF30080 		.section	.text.I2S_Cmd,"ax",%progbits
 581      AFF30080 
 582              		.align	2
 583              		.p2align 4,,15
 584              		.global	I2S_Cmd
 585              		.thumb
 586              		.thumb_func
 587              		.type	I2S_Cmd, %function
 588              	I2S_Cmd:
 589              	.LFB62:
 590              		.loc 1 454 0
 591              		.cfi_startproc
 592              		@ args = 0, pretend = 0, frame = 8
 593              		@ frame_needed = 0, uses_anonymous_args = 0
 594              		@ link register save eliminated.
 595 0000 82B0     		sub	sp, sp, #8
 596              	.LCFI8:
 597              		.cfi_def_cfa_offset 8
 598 0002 0190     		str	r0, [sp, #4]
 599 0004 0B46     		mov	r3, r1
 600 0006 8DF80330 		strb	r3, [sp, #3]
 601              		.loc 1 458 0
 602 000a 9DF80330 		ldrb	r3, [sp, #3]	@ zero_extendqisi2
 603 000e 002B     		cmp	r3, #0
 604 0010 08D0     		beq	.L23
 605              		.loc 1 461 0
 606 0012 019B     		ldr	r3, [sp, #4]
 607 0014 9B8B     		ldrh	r3, [r3, #28]	@ movhi
 608 0016 9BB2     		uxth	r3, r3
 609 0018 43F48063 		orr	r3, r3, #1024
 610 001c 9AB2     		uxth	r2, r3
 611 001e 019B     		ldr	r3, [sp, #4]
 612 0020 9A83     		strh	r2, [r3, #28]	@ movhi
 613 0022 07E0     		b	.L22
 614              	.L23:
 615              		.loc 1 466 0
 616 0024 019B     		ldr	r3, [sp, #4]
 617 0026 9B8B     		ldrh	r3, [r3, #28]	@ movhi
 618 0028 9BB2     		uxth	r3, r3
 619 002a 23F48063 		bic	r3, r3, #1024
 620 002e 9AB2     		uxth	r2, r3
 621 0030 019B     		ldr	r3, [sp, #4]
ARM GAS  C:\Users\z80\AppData\Local\Temp\ccqYjHyO.s 			page 12


 622 0032 9A83     		strh	r2, [r3, #28]	@ movhi
 623              	.L22:
 624              		.loc 1 468 0
 625 0034 02B0     		add	sp, sp, #8
 626 0036 7047     		bx	lr
 627              		.cfi_endproc
 628              	.LFE62:
 629              		.size	I2S_Cmd, .-I2S_Cmd
 630 0038 AFF30080 		.section	.text.SPI_I2S_ITConfig,"ax",%progbits
 630      AFF30080 
 631              		.align	2
 632              		.p2align 4,,15
 633              		.global	SPI_I2S_ITConfig
 634              		.thumb
 635              		.thumb_func
 636              		.type	SPI_I2S_ITConfig, %function
 637              	SPI_I2S_ITConfig:
 638              	.LFB63:
 639              		.loc 1 485 0
 640              		.cfi_startproc
 641              		@ args = 0, pretend = 0, frame = 16
 642              		@ frame_needed = 0, uses_anonymous_args = 0
 643              		@ link register save eliminated.
 644 0000 84B0     		sub	sp, sp, #16
 645              	.LCFI9:
 646              		.cfi_def_cfa_offset 16
 647 0002 0190     		str	r0, [sp, #4]
 648 0004 1346     		mov	r3, r2
 649 0006 0A46     		mov	r2, r1
 650 0008 8DF80320 		strb	r2, [sp, #3]
 651 000c 8DF80230 		strb	r3, [sp, #2]
 652              		.loc 1 486 0
 653 0010 4FF00003 		mov	r3, #0
 654 0014 ADF80E30 		strh	r3, [sp, #14]	@ movhi
 655 0018 4FF00003 		mov	r3, #0
 656 001c ADF80C30 		strh	r3, [sp, #12]	@ movhi
 657              		.loc 1 493 0
 658 0020 9DF80330 		ldrb	r3, [sp, #3]	@ zero_extendqisi2
 659 0024 4FEA1313 		lsr	r3, r3, #4
 660 0028 DBB2     		uxtb	r3, r3
 661 002a ADF80E30 		strh	r3, [sp, #14]	@ movhi
 662              		.loc 1 496 0
 663 002e BDF80E30 		ldrh	r3, [sp, #14]
 664 0032 4FF00102 		mov	r2, #1
 665 0036 02FA03F3 		lsl	r3, r2, r3
 666 003a ADF80C30 		strh	r3, [sp, #12]	@ movhi
 667              		.loc 1 498 0
 668 003e 9DF80230 		ldrb	r3, [sp, #2]	@ zero_extendqisi2
 669 0042 002B     		cmp	r3, #0
 670 0044 0AD0     		beq	.L26
 671              		.loc 1 501 0
 672 0046 019B     		ldr	r3, [sp, #4]
 673 0048 9B88     		ldrh	r3, [r3, #4]	@ movhi
 674 004a 9AB2     		uxth	r2, r3
 675 004c BDF80C30 		ldrh	r3, [sp, #12]	@ movhi
 676 0050 42EA0303 		orr	r3, r2, r3
 677 0054 9AB2     		uxth	r2, r3
ARM GAS  C:\Users\z80\AppData\Local\Temp\ccqYjHyO.s 			page 13


 678 0056 019B     		ldr	r3, [sp, #4]
 679 0058 9A80     		strh	r2, [r3, #4]	@ movhi
 680 005a 0CE0     		b	.L25
 681              	.L26:
 682              		.loc 1 506 0
 683 005c 019B     		ldr	r3, [sp, #4]
 684 005e 9B88     		ldrh	r3, [r3, #4]	@ movhi
 685 0060 9AB2     		uxth	r2, r3
 686 0062 BDF80C30 		ldrh	r3, [sp, #12]	@ movhi
 687 0066 6FEA0303 		mvn	r3, r3
 688 006a 9BB2     		uxth	r3, r3
 689 006c 02EA0303 		and	r3, r2, r3
 690 0070 9AB2     		uxth	r2, r3
 691 0072 019B     		ldr	r3, [sp, #4]
 692 0074 9A80     		strh	r2, [r3, #4]	@ movhi
 693              	.L25:
 694              		.loc 1 508 0
 695 0076 04B0     		add	sp, sp, #16
 696 0078 7047     		bx	lr
 697              		.cfi_endproc
 698              	.LFE63:
 699              		.size	SPI_I2S_ITConfig, .-SPI_I2S_ITConfig
 700              		.section	.text.SPI_I2S_DMACmd,"ax",%progbits
 701              		.align	2
 702              		.p2align 4,,15
 703              		.global	SPI_I2S_DMACmd
 704              		.thumb
 705              		.thumb_func
 706              		.type	SPI_I2S_DMACmd, %function
 707              	SPI_I2S_DMACmd:
 708              	.LFB64:
 709              		.loc 1 524 0
 710              		.cfi_startproc
 711              		@ args = 0, pretend = 0, frame = 8
 712              		@ frame_needed = 0, uses_anonymous_args = 0
 713              		@ link register save eliminated.
 714 0000 82B0     		sub	sp, sp, #8
 715              	.LCFI10:
 716              		.cfi_def_cfa_offset 8
 717 0002 0190     		str	r0, [sp, #4]
 718 0004 1346     		mov	r3, r2
 719 0006 0A46     		mov	r2, r1	@ movhi
 720 0008 ADF80220 		strh	r2, [sp, #2]	@ movhi
 721 000c 8DF80130 		strb	r3, [sp, #1]
 722              		.loc 1 529 0
 723 0010 9DF80130 		ldrb	r3, [sp, #1]	@ zero_extendqisi2
 724 0014 002B     		cmp	r3, #0
 725 0016 0AD0     		beq	.L29
 726              		.loc 1 532 0
 727 0018 019B     		ldr	r3, [sp, #4]
 728 001a 9B88     		ldrh	r3, [r3, #4]	@ movhi
 729 001c 9AB2     		uxth	r2, r3
 730 001e BDF80230 		ldrh	r3, [sp, #2]	@ movhi
 731 0022 42EA0303 		orr	r3, r2, r3
 732 0026 9AB2     		uxth	r2, r3
 733 0028 019B     		ldr	r3, [sp, #4]
 734 002a 9A80     		strh	r2, [r3, #4]	@ movhi
ARM GAS  C:\Users\z80\AppData\Local\Temp\ccqYjHyO.s 			page 14


 735 002c 0CE0     		b	.L28
 736              	.L29:
 737              		.loc 1 537 0
 738 002e 019B     		ldr	r3, [sp, #4]
 739 0030 9B88     		ldrh	r3, [r3, #4]	@ movhi
 740 0032 9AB2     		uxth	r2, r3
 741 0034 BDF80230 		ldrh	r3, [sp, #2]	@ movhi
 742 0038 6FEA0303 		mvn	r3, r3
 743 003c 9BB2     		uxth	r3, r3
 744 003e 02EA0303 		and	r3, r2, r3
 745 0042 9AB2     		uxth	r2, r3
 746 0044 019B     		ldr	r3, [sp, #4]
 747 0046 9A80     		strh	r2, [r3, #4]	@ movhi
 748              	.L28:
 749              		.loc 1 539 0
 750 0048 02B0     		add	sp, sp, #8
 751 004a 7047     		bx	lr
 752              		.cfi_endproc
 753              	.LFE64:
 754              		.size	SPI_I2S_DMACmd, .-SPI_I2S_DMACmd
 755 004c AFF30080 		.section	.text.SPI_I2S_SendData,"ax",%progbits
 756              		.align	2
 757              		.p2align 4,,15
 758              		.global	SPI_I2S_SendData
 759              		.thumb
 760              		.thumb_func
 761              		.type	SPI_I2S_SendData, %function
 762              	SPI_I2S_SendData:
 763              	.LFB65:
 764              		.loc 1 550 0
 765              		.cfi_startproc
 766              		@ args = 0, pretend = 0, frame = 8
 767              		@ frame_needed = 0, uses_anonymous_args = 0
 768              		@ link register save eliminated.
 769 0000 82B0     		sub	sp, sp, #8
 770              	.LCFI11:
 771              		.cfi_def_cfa_offset 8
 772 0002 0190     		str	r0, [sp, #4]
 773 0004 0B46     		mov	r3, r1
 774 0006 ADF80230 		strh	r3, [sp, #2]	@ movhi
 775              		.loc 1 555 0
 776 000a 019B     		ldr	r3, [sp, #4]
 777 000c BDF80220 		ldrh	r2, [sp, #2]	@ movhi
 778 0010 9A81     		strh	r2, [r3, #12]	@ movhi
 779              		.loc 1 556 0
 780 0012 02B0     		add	sp, sp, #8
 781 0014 7047     		bx	lr
 782              		.cfi_endproc
 783              	.LFE65:
 784              		.size	SPI_I2S_SendData, .-SPI_I2S_SendData
 785 0016 00BFAFF3 		.section	.text.SPI_I2S_ReceiveData,"ax",%progbits
 785      0080AFF3 
 785      0080
 786              		.align	2
 787              		.p2align 4,,15
 788              		.global	SPI_I2S_ReceiveData
 789              		.thumb
ARM GAS  C:\Users\z80\AppData\Local\Temp\ccqYjHyO.s 			page 15


 790              		.thumb_func
 791              		.type	SPI_I2S_ReceiveData, %function
 792              	SPI_I2S_ReceiveData:
 793              	.LFB66:
 794              		.loc 1 566 0
 795              		.cfi_startproc
 796              		@ args = 0, pretend = 0, frame = 8
 797              		@ frame_needed = 0, uses_anonymous_args = 0
 798              		@ link register save eliminated.
 799 0000 82B0     		sub	sp, sp, #8
 800              	.LCFI12:
 801              		.cfi_def_cfa_offset 8
 802 0002 0190     		str	r0, [sp, #4]
 803              		.loc 1 571 0
 804 0004 019B     		ldr	r3, [sp, #4]
 805 0006 9B89     		ldrh	r3, [r3, #12]	@ movhi
 806 0008 9BB2     		uxth	r3, r3
 807              		.loc 1 572 0
 808 000a 1846     		mov	r0, r3
 809 000c 02B0     		add	sp, sp, #8
 810 000e 7047     		bx	lr
 811              		.cfi_endproc
 812              	.LFE66:
 813              		.size	SPI_I2S_ReceiveData, .-SPI_I2S_ReceiveData
 814              		.section	.text.SPI_NSSInternalSoftwareConfig,"ax",%progbits
 815              		.align	2
 816              		.p2align 4,,15
 817              		.global	SPI_NSSInternalSoftwareConfig
 818              		.thumb
 819              		.thumb_func
 820              		.type	SPI_NSSInternalSoftwareConfig, %function
 821              	SPI_NSSInternalSoftwareConfig:
 822              	.LFB67:
 823              		.loc 1 584 0
 824              		.cfi_startproc
 825              		@ args = 0, pretend = 0, frame = 8
 826              		@ frame_needed = 0, uses_anonymous_args = 0
 827              		@ link register save eliminated.
 828 0000 82B0     		sub	sp, sp, #8
 829              	.LCFI13:
 830              		.cfi_def_cfa_offset 8
 831 0002 0190     		str	r0, [sp, #4]
 832 0004 0B46     		mov	r3, r1
 833 0006 ADF80230 		strh	r3, [sp, #2]	@ movhi
 834              		.loc 1 588 0
 835 000a BDF80220 		ldrh	r2, [sp, #2]
 836 000e 4FF6FF63 		movw	r3, #65279
 837 0012 9A42     		cmp	r2, r3
 838 0014 08D0     		beq	.L34
 839              		.loc 1 591 0
 840 0016 019B     		ldr	r3, [sp, #4]
 841 0018 1B88     		ldrh	r3, [r3, #0]	@ movhi
 842 001a 9BB2     		uxth	r3, r3
 843 001c 43F48073 		orr	r3, r3, #256
 844 0020 9AB2     		uxth	r2, r3
 845 0022 019B     		ldr	r3, [sp, #4]
 846 0024 1A80     		strh	r2, [r3, #0]	@ movhi
ARM GAS  C:\Users\z80\AppData\Local\Temp\ccqYjHyO.s 			page 16


 847 0026 07E0     		b	.L33
 848              	.L34:
 849              		.loc 1 596 0
 850 0028 019B     		ldr	r3, [sp, #4]
 851 002a 1B88     		ldrh	r3, [r3, #0]	@ movhi
 852 002c 9BB2     		uxth	r3, r3
 853 002e 23F48073 		bic	r3, r3, #256
 854 0032 9AB2     		uxth	r2, r3
 855 0034 019B     		ldr	r3, [sp, #4]
 856 0036 1A80     		strh	r2, [r3, #0]	@ movhi
 857              	.L33:
 858              		.loc 1 598 0
 859 0038 02B0     		add	sp, sp, #8
 860 003a 7047     		bx	lr
 861              		.cfi_endproc
 862              	.LFE67:
 863              		.size	SPI_NSSInternalSoftwareConfig, .-SPI_NSSInternalSoftwareConfig
 864 003c AFF30080 		.section	.text.SPI_SSOutputCmd,"ax",%progbits
 865              		.align	2
 866              		.p2align 4,,15
 867              		.global	SPI_SSOutputCmd
 868              		.thumb
 869              		.thumb_func
 870              		.type	SPI_SSOutputCmd, %function
 871              	SPI_SSOutputCmd:
 872              	.LFB68:
 873              		.loc 1 608 0
 874              		.cfi_startproc
 875              		@ args = 0, pretend = 0, frame = 8
 876              		@ frame_needed = 0, uses_anonymous_args = 0
 877              		@ link register save eliminated.
 878 0000 82B0     		sub	sp, sp, #8
 879              	.LCFI14:
 880              		.cfi_def_cfa_offset 8
 881 0002 0190     		str	r0, [sp, #4]
 882 0004 0B46     		mov	r3, r1
 883 0006 8DF80330 		strb	r3, [sp, #3]
 884              		.loc 1 612 0
 885 000a 9DF80330 		ldrb	r3, [sp, #3]	@ zero_extendqisi2
 886 000e 002B     		cmp	r3, #0
 887 0010 08D0     		beq	.L37
 888              		.loc 1 615 0
 889 0012 019B     		ldr	r3, [sp, #4]
 890 0014 9B88     		ldrh	r3, [r3, #4]	@ movhi
 891 0016 9BB2     		uxth	r3, r3
 892 0018 43F00403 		orr	r3, r3, #4
 893 001c 9AB2     		uxth	r2, r3
 894 001e 019B     		ldr	r3, [sp, #4]
 895 0020 9A80     		strh	r2, [r3, #4]	@ movhi
 896 0022 07E0     		b	.L36
 897              	.L37:
 898              		.loc 1 620 0
 899 0024 019B     		ldr	r3, [sp, #4]
 900 0026 9B88     		ldrh	r3, [r3, #4]	@ movhi
 901 0028 9BB2     		uxth	r3, r3
 902 002a 23F00403 		bic	r3, r3, #4
 903 002e 9AB2     		uxth	r2, r3
ARM GAS  C:\Users\z80\AppData\Local\Temp\ccqYjHyO.s 			page 17


 904 0030 019B     		ldr	r3, [sp, #4]
 905 0032 9A80     		strh	r2, [r3, #4]	@ movhi
 906              	.L36:
 907              		.loc 1 622 0
 908 0034 02B0     		add	sp, sp, #8
 909 0036 7047     		bx	lr
 910              		.cfi_endproc
 911              	.LFE68:
 912              		.size	SPI_SSOutputCmd, .-SPI_SSOutputCmd
 913 0038 AFF30080 		.section	.text.SPI_DataSizeConfig,"ax",%progbits
 913      AFF30080 
 914              		.align	2
 915              		.p2align 4,,15
 916              		.global	SPI_DataSizeConfig
 917              		.thumb
 918              		.thumb_func
 919              		.type	SPI_DataSizeConfig, %function
 920              	SPI_DataSizeConfig:
 921              	.LFB69:
 922              		.loc 1 634 0
 923              		.cfi_startproc
 924              		@ args = 0, pretend = 0, frame = 8
 925              		@ frame_needed = 0, uses_anonymous_args = 0
 926              		@ link register save eliminated.
 927 0000 82B0     		sub	sp, sp, #8
 928              	.LCFI15:
 929              		.cfi_def_cfa_offset 8
 930 0002 0190     		str	r0, [sp, #4]
 931 0004 0B46     		mov	r3, r1
 932 0006 ADF80230 		strh	r3, [sp, #2]	@ movhi
 933              		.loc 1 639 0
 934 000a 019B     		ldr	r3, [sp, #4]
 935 000c 1B88     		ldrh	r3, [r3, #0]	@ movhi
 936 000e 9BB2     		uxth	r3, r3
 937 0010 23F40063 		bic	r3, r3, #2048
 938 0014 9AB2     		uxth	r2, r3
 939 0016 019B     		ldr	r3, [sp, #4]
 940 0018 1A80     		strh	r2, [r3, #0]	@ movhi
 941              		.loc 1 641 0
 942 001a 019B     		ldr	r3, [sp, #4]
 943 001c 1B88     		ldrh	r3, [r3, #0]	@ movhi
 944 001e 9AB2     		uxth	r2, r3
 945 0020 BDF80230 		ldrh	r3, [sp, #2]	@ movhi
 946 0024 42EA0303 		orr	r3, r2, r3
 947 0028 9AB2     		uxth	r2, r3
 948 002a 019B     		ldr	r3, [sp, #4]
 949 002c 1A80     		strh	r2, [r3, #0]	@ movhi
 950              		.loc 1 642 0
 951 002e 02B0     		add	sp, sp, #8
 952 0030 7047     		bx	lr
 953              		.cfi_endproc
 954              	.LFE69:
 955              		.size	SPI_DataSizeConfig, .-SPI_DataSizeConfig
 956 0032 00BFAFF3 		.section	.text.SPI_TransmitCRC,"ax",%progbits
 956      0080AFF3 
 956      0080AFF3 
 956      0080
ARM GAS  C:\Users\z80\AppData\Local\Temp\ccqYjHyO.s 			page 18


 957              		.align	2
 958              		.p2align 4,,15
 959              		.global	SPI_TransmitCRC
 960              		.thumb
 961              		.thumb_func
 962              		.type	SPI_TransmitCRC, %function
 963              	SPI_TransmitCRC:
 964              	.LFB70:
 965              		.loc 1 650 0
 966              		.cfi_startproc
 967              		@ args = 0, pretend = 0, frame = 8
 968              		@ frame_needed = 0, uses_anonymous_args = 0
 969              		@ link register save eliminated.
 970 0000 82B0     		sub	sp, sp, #8
 971              	.LCFI16:
 972              		.cfi_def_cfa_offset 8
 973 0002 0190     		str	r0, [sp, #4]
 974              		.loc 1 655 0
 975 0004 019B     		ldr	r3, [sp, #4]
 976 0006 1B88     		ldrh	r3, [r3, #0]	@ movhi
 977 0008 9BB2     		uxth	r3, r3
 978 000a 43F48053 		orr	r3, r3, #4096
 979 000e 9AB2     		uxth	r2, r3
 980 0010 019B     		ldr	r3, [sp, #4]
 981 0012 1A80     		strh	r2, [r3, #0]	@ movhi
 982              		.loc 1 656 0
 983 0014 02B0     		add	sp, sp, #8
 984 0016 7047     		bx	lr
 985              		.cfi_endproc
 986              	.LFE70:
 987              		.size	SPI_TransmitCRC, .-SPI_TransmitCRC
 988 0018 AFF30080 		.section	.text.SPI_CalculateCRC,"ax",%progbits
 988      AFF30080 
 989              		.align	2
 990              		.p2align 4,,15
 991              		.global	SPI_CalculateCRC
 992              		.thumb
 993              		.thumb_func
 994              		.type	SPI_CalculateCRC, %function
 995              	SPI_CalculateCRC:
 996              	.LFB71:
 997              		.loc 1 666 0
 998              		.cfi_startproc
 999              		@ args = 0, pretend = 0, frame = 8
 1000              		@ frame_needed = 0, uses_anonymous_args = 0
 1001              		@ link register save eliminated.
 1002 0000 82B0     		sub	sp, sp, #8
 1003              	.LCFI17:
 1004              		.cfi_def_cfa_offset 8
 1005 0002 0190     		str	r0, [sp, #4]
 1006 0004 0B46     		mov	r3, r1
 1007 0006 8DF80330 		strb	r3, [sp, #3]
 1008              		.loc 1 670 0
 1009 000a 9DF80330 		ldrb	r3, [sp, #3]	@ zero_extendqisi2
 1010 000e 002B     		cmp	r3, #0
 1011 0010 08D0     		beq	.L42
 1012              		.loc 1 673 0
ARM GAS  C:\Users\z80\AppData\Local\Temp\ccqYjHyO.s 			page 19


 1013 0012 019B     		ldr	r3, [sp, #4]
 1014 0014 1B88     		ldrh	r3, [r3, #0]	@ movhi
 1015 0016 9BB2     		uxth	r3, r3
 1016 0018 43F40053 		orr	r3, r3, #8192
 1017 001c 9AB2     		uxth	r2, r3
 1018 001e 019B     		ldr	r3, [sp, #4]
 1019 0020 1A80     		strh	r2, [r3, #0]	@ movhi
 1020 0022 07E0     		b	.L41
 1021              	.L42:
 1022              		.loc 1 678 0
 1023 0024 019B     		ldr	r3, [sp, #4]
 1024 0026 1B88     		ldrh	r3, [r3, #0]	@ movhi
 1025 0028 9BB2     		uxth	r3, r3
 1026 002a 23F40053 		bic	r3, r3, #8192
 1027 002e 9AB2     		uxth	r2, r3
 1028 0030 019B     		ldr	r3, [sp, #4]
 1029 0032 1A80     		strh	r2, [r3, #0]	@ movhi
 1030              	.L41:
 1031              		.loc 1 680 0
 1032 0034 02B0     		add	sp, sp, #8
 1033 0036 7047     		bx	lr
 1034              		.cfi_endproc
 1035              	.LFE71:
 1036              		.size	SPI_CalculateCRC, .-SPI_CalculateCRC
 1037 0038 AFF30080 		.section	.text.SPI_GetCRC,"ax",%progbits
 1037      AFF30080 
 1038              		.align	2
 1039              		.p2align 4,,15
 1040              		.global	SPI_GetCRC
 1041              		.thumb
 1042              		.thumb_func
 1043              		.type	SPI_GetCRC, %function
 1044              	SPI_GetCRC:
 1045              	.LFB72:
 1046              		.loc 1 692 0
 1047              		.cfi_startproc
 1048              		@ args = 0, pretend = 0, frame = 16
 1049              		@ frame_needed = 0, uses_anonymous_args = 0
 1050              		@ link register save eliminated.
 1051 0000 84B0     		sub	sp, sp, #16
 1052              	.LCFI18:
 1053              		.cfi_def_cfa_offset 16
 1054 0002 0190     		str	r0, [sp, #4]
 1055 0004 0B46     		mov	r3, r1
 1056 0006 8DF80330 		strb	r3, [sp, #3]
 1057              		.loc 1 693 0
 1058 000a 4FF00003 		mov	r3, #0
 1059 000e ADF80E30 		strh	r3, [sp, #14]	@ movhi
 1060              		.loc 1 697 0
 1061 0012 9DF80330 		ldrb	r3, [sp, #3]	@ zero_extendqisi2
 1062 0016 012B     		cmp	r3, #1
 1063 0018 04D0     		beq	.L45
 1064              		.loc 1 700 0
 1065 001a 019B     		ldr	r3, [sp, #4]
 1066 001c 1B8B     		ldrh	r3, [r3, #24]	@ movhi
 1067 001e ADF80E30 		strh	r3, [sp, #14]	@ movhi
 1068 0022 03E0     		b	.L46
ARM GAS  C:\Users\z80\AppData\Local\Temp\ccqYjHyO.s 			page 20


 1069              	.L45:
 1070              		.loc 1 705 0
 1071 0024 019B     		ldr	r3, [sp, #4]
 1072 0026 9B8A     		ldrh	r3, [r3, #20]	@ movhi
 1073 0028 ADF80E30 		strh	r3, [sp, #14]	@ movhi
 1074              	.L46:
 1075              		.loc 1 708 0
 1076 002c BDF80E30 		ldrh	r3, [sp, #14]
 1077              		.loc 1 709 0
 1078 0030 1846     		mov	r0, r3
 1079 0032 04B0     		add	sp, sp, #16
 1080 0034 7047     		bx	lr
 1081              		.cfi_endproc
 1082              	.LFE72:
 1083              		.size	SPI_GetCRC, .-SPI_GetCRC
 1084 0036 00BFAFF3 		.section	.text.SPI_GetCRCPolynomial,"ax",%progbits
 1084      0080AFF3 
 1084      0080
 1085              		.align	2
 1086              		.p2align 4,,15
 1087              		.global	SPI_GetCRCPolynomial
 1088              		.thumb
 1089              		.thumb_func
 1090              		.type	SPI_GetCRCPolynomial, %function
 1091              	SPI_GetCRCPolynomial:
 1092              	.LFB73:
 1093              		.loc 1 717 0
 1094              		.cfi_startproc
 1095              		@ args = 0, pretend = 0, frame = 8
 1096              		@ frame_needed = 0, uses_anonymous_args = 0
 1097              		@ link register save eliminated.
 1098 0000 82B0     		sub	sp, sp, #8
 1099              	.LCFI19:
 1100              		.cfi_def_cfa_offset 8
 1101 0002 0190     		str	r0, [sp, #4]
 1102              		.loc 1 722 0
 1103 0004 019B     		ldr	r3, [sp, #4]
 1104 0006 1B8A     		ldrh	r3, [r3, #16]	@ movhi
 1105 0008 9BB2     		uxth	r3, r3
 1106              		.loc 1 723 0
 1107 000a 1846     		mov	r0, r3
 1108 000c 02B0     		add	sp, sp, #8
 1109 000e 7047     		bx	lr
 1110              		.cfi_endproc
 1111              	.LFE73:
 1112              		.size	SPI_GetCRCPolynomial, .-SPI_GetCRCPolynomial
 1113              		.section	.text.SPI_BiDirectionalLineConfig,"ax",%progbits
 1114              		.align	2
 1115              		.p2align 4,,15
 1116              		.global	SPI_BiDirectionalLineConfig
 1117              		.thumb
 1118              		.thumb_func
 1119              		.type	SPI_BiDirectionalLineConfig, %function
 1120              	SPI_BiDirectionalLineConfig:
 1121              	.LFB74:
 1122              		.loc 1 735 0
 1123              		.cfi_startproc
ARM GAS  C:\Users\z80\AppData\Local\Temp\ccqYjHyO.s 			page 21


 1124              		@ args = 0, pretend = 0, frame = 8
 1125              		@ frame_needed = 0, uses_anonymous_args = 0
 1126              		@ link register save eliminated.
 1127 0000 82B0     		sub	sp, sp, #8
 1128              	.LCFI20:
 1129              		.cfi_def_cfa_offset 8
 1130 0002 0190     		str	r0, [sp, #4]
 1131 0004 0B46     		mov	r3, r1
 1132 0006 ADF80230 		strh	r3, [sp, #2]	@ movhi
 1133              		.loc 1 739 0
 1134 000a BDF80230 		ldrh	r3, [sp, #2]
 1135 000e B3F5804F 		cmp	r3, #16384
 1136 0012 08D1     		bne	.L49
 1137              		.loc 1 742 0
 1138 0014 019B     		ldr	r3, [sp, #4]
 1139 0016 1B88     		ldrh	r3, [r3, #0]	@ movhi
 1140 0018 9BB2     		uxth	r3, r3
 1141 001a 43F48043 		orr	r3, r3, #16384
 1142 001e 9AB2     		uxth	r2, r3
 1143 0020 019B     		ldr	r3, [sp, #4]
 1144 0022 1A80     		strh	r2, [r3, #0]	@ movhi
 1145 0024 07E0     		b	.L48
 1146              	.L49:
 1147              		.loc 1 747 0
 1148 0026 019B     		ldr	r3, [sp, #4]
 1149 0028 1B88     		ldrh	r3, [r3, #0]	@ movhi
 1150 002a 9BB2     		uxth	r3, r3
 1151 002c 23F48043 		bic	r3, r3, #16384
 1152 0030 9AB2     		uxth	r2, r3
 1153 0032 019B     		ldr	r3, [sp, #4]
 1154 0034 1A80     		strh	r2, [r3, #0]	@ movhi
 1155              	.L48:
 1156              		.loc 1 749 0
 1157 0036 02B0     		add	sp, sp, #8
 1158 0038 7047     		bx	lr
 1159              		.cfi_endproc
 1160              	.LFE74:
 1161              		.size	SPI_BiDirectionalLineConfig, .-SPI_BiDirectionalLineConfig
 1162 003a 00BFAFF3 		.section	.text.SPI_I2S_GetFlagStatus,"ax",%progbits
 1162      0080
 1163              		.align	2
 1164              		.p2align 4,,15
 1165              		.global	SPI_I2S_GetFlagStatus
 1166              		.thumb
 1167              		.thumb_func
 1168              		.type	SPI_I2S_GetFlagStatus, %function
 1169              	SPI_I2S_GetFlagStatus:
 1170              	.LFB75:
 1171              		.loc 1 769 0
 1172              		.cfi_startproc
 1173              		@ args = 0, pretend = 0, frame = 16
 1174              		@ frame_needed = 0, uses_anonymous_args = 0
 1175              		@ link register save eliminated.
 1176 0000 84B0     		sub	sp, sp, #16
 1177              	.LCFI21:
 1178              		.cfi_def_cfa_offset 16
 1179 0002 0190     		str	r0, [sp, #4]
ARM GAS  C:\Users\z80\AppData\Local\Temp\ccqYjHyO.s 			page 22


 1180 0004 0B46     		mov	r3, r1
 1181 0006 ADF80230 		strh	r3, [sp, #2]	@ movhi
 1182              		.loc 1 770 0
 1183 000a 4FF00003 		mov	r3, #0
 1184 000e 8DF80F30 		strb	r3, [sp, #15]
 1185              		.loc 1 775 0
 1186 0012 019B     		ldr	r3, [sp, #4]
 1187 0014 1B89     		ldrh	r3, [r3, #8]	@ movhi
 1188 0016 9AB2     		uxth	r2, r3
 1189 0018 BDF80230 		ldrh	r3, [sp, #2]	@ movhi
 1190 001c 02EA0303 		and	r3, r2, r3
 1191 0020 9BB2     		uxth	r3, r3
 1192 0022 002B     		cmp	r3, #0
 1193 0024 04D0     		beq	.L52
 1194              		.loc 1 778 0
 1195 0026 4FF00103 		mov	r3, #1
 1196 002a 8DF80F30 		strb	r3, [sp, #15]
 1197 002e 03E0     		b	.L53
 1198              	.L52:
 1199              		.loc 1 783 0
 1200 0030 4FF00003 		mov	r3, #0
 1201 0034 8DF80F30 		strb	r3, [sp, #15]
 1202              	.L53:
 1203              		.loc 1 786 0
 1204 0038 9DF80F30 		ldrb	r3, [sp, #15]	@ zero_extendqisi2
 1205              		.loc 1 787 0
 1206 003c 1846     		mov	r0, r3
 1207 003e 04B0     		add	sp, sp, #16
 1208 0040 7047     		bx	lr
 1209              		.cfi_endproc
 1210              	.LFE75:
 1211              		.size	SPI_I2S_GetFlagStatus, .-SPI_I2S_GetFlagStatus
 1212 0042 00BFAFF3 		.section	.text.SPI_I2S_ClearFlag,"ax",%progbits
 1212      0080AFF3 
 1212      0080AFF3 
 1212      0080
 1213              		.align	2
 1214              		.p2align 4,,15
 1215              		.global	SPI_I2S_ClearFlag
 1216              		.thumb
 1217              		.thumb_func
 1218              		.type	SPI_I2S_ClearFlag, %function
 1219              	SPI_I2S_ClearFlag:
 1220              	.LFB76:
 1221              		.loc 1 807 0
 1222              		.cfi_startproc
 1223              		@ args = 0, pretend = 0, frame = 8
 1224              		@ frame_needed = 0, uses_anonymous_args = 0
 1225              		@ link register save eliminated.
 1226 0000 82B0     		sub	sp, sp, #8
 1227              	.LCFI22:
 1228              		.cfi_def_cfa_offset 8
 1229 0002 0190     		str	r0, [sp, #4]
 1230 0004 0B46     		mov	r3, r1
 1231 0006 ADF80230 		strh	r3, [sp, #2]	@ movhi
 1232              		.loc 1 813 0
 1233 000a BDF80230 		ldrh	r3, [sp, #2]	@ movhi
ARM GAS  C:\Users\z80\AppData\Local\Temp\ccqYjHyO.s 			page 23


 1234 000e 6FEA0303 		mvn	r3, r3
 1235 0012 9AB2     		uxth	r2, r3
 1236 0014 019B     		ldr	r3, [sp, #4]
 1237 0016 1A81     		strh	r2, [r3, #8]	@ movhi
 1238              		.loc 1 814 0
 1239 0018 02B0     		add	sp, sp, #8
 1240 001a 7047     		bx	lr
 1241              		.cfi_endproc
 1242              	.LFE76:
 1243              		.size	SPI_I2S_ClearFlag, .-SPI_I2S_ClearFlag
 1244 001c AFF30080 		.section	.text.SPI_I2S_GetITStatus,"ax",%progbits
 1245              		.align	2
 1246              		.p2align 4,,15
 1247              		.global	SPI_I2S_GetITStatus
 1248              		.thumb
 1249              		.thumb_func
 1250              		.type	SPI_I2S_GetITStatus, %function
 1251              	SPI_I2S_GetITStatus:
 1252              	.LFB77:
 1253              		.loc 1 832 0
 1254              		.cfi_startproc
 1255              		@ args = 0, pretend = 0, frame = 16
 1256              		@ frame_needed = 0, uses_anonymous_args = 0
 1257              		@ link register save eliminated.
 1258 0000 84B0     		sub	sp, sp, #16
 1259              	.LCFI23:
 1260              		.cfi_def_cfa_offset 16
 1261 0002 0190     		str	r0, [sp, #4]
 1262 0004 0B46     		mov	r3, r1
 1263 0006 8DF80330 		strb	r3, [sp, #3]
 1264              		.loc 1 833 0
 1265 000a 4FF00003 		mov	r3, #0
 1266 000e 8DF80F30 		strb	r3, [sp, #15]
 1267              		.loc 1 834 0
 1268 0012 4FF00003 		mov	r3, #0
 1269 0016 ADF80C30 		strh	r3, [sp, #12]	@ movhi
 1270 001a 4FF00003 		mov	r3, #0
 1271 001e ADF80A30 		strh	r3, [sp, #10]	@ movhi
 1272 0022 4FF00003 		mov	r3, #0
 1273 0026 ADF80830 		strh	r3, [sp, #8]	@ movhi
 1274              		.loc 1 841 0
 1275 002a 9DF80330 		ldrb	r3, [sp, #3]	@ zero_extendqisi2
 1276 002e 03F00F03 		and	r3, r3, #15
 1277 0032 4FF00102 		mov	r2, #1
 1278 0036 02FA03F3 		lsl	r3, r2, r3
 1279 003a ADF80C30 		strh	r3, [sp, #12]	@ movhi
 1280              		.loc 1 844 0
 1281 003e 9DF80330 		ldrb	r3, [sp, #3]	@ zero_extendqisi2
 1282 0042 4FEA1313 		lsr	r3, r3, #4
 1283 0046 DBB2     		uxtb	r3, r3
 1284 0048 ADF80A30 		strh	r3, [sp, #10]	@ movhi
 1285              		.loc 1 847 0
 1286 004c BDF80A30 		ldrh	r3, [sp, #10]
 1287 0050 4FF00102 		mov	r2, #1
 1288 0054 02FA03F3 		lsl	r3, r2, r3
 1289 0058 ADF80A30 		strh	r3, [sp, #10]	@ movhi
 1290              		.loc 1 850 0
ARM GAS  C:\Users\z80\AppData\Local\Temp\ccqYjHyO.s 			page 24


 1291 005c 019B     		ldr	r3, [sp, #4]
 1292 005e 9B88     		ldrh	r3, [r3, #4]	@ movhi
 1293 0060 9AB2     		uxth	r2, r3
 1294 0062 BDF80A30 		ldrh	r3, [sp, #10]	@ movhi
 1295 0066 02EA0303 		and	r3, r2, r3
 1296 006a ADF80830 		strh	r3, [sp, #8]	@ movhi
 1297              		.loc 1 853 0
 1298 006e 019B     		ldr	r3, [sp, #4]
 1299 0070 1B89     		ldrh	r3, [r3, #8]	@ movhi
 1300 0072 9AB2     		uxth	r2, r3
 1301 0074 BDF80C30 		ldrh	r3, [sp, #12]	@ movhi
 1302 0078 02EA0303 		and	r3, r2, r3
 1303 007c 9BB2     		uxth	r3, r3
 1304 007e 002B     		cmp	r3, #0
 1305 0080 08D0     		beq	.L56
 1306              		.loc 1 853 0 is_stmt 0 discriminator 1
 1307 0082 BDF80830 		ldrh	r3, [sp, #8]
 1308 0086 002B     		cmp	r3, #0
 1309 0088 04D0     		beq	.L56
 1310              		.loc 1 856 0 is_stmt 1
 1311 008a 4FF00103 		mov	r3, #1
 1312 008e 8DF80F30 		strb	r3, [sp, #15]
 1313 0092 03E0     		b	.L57
 1314              	.L56:
 1315              		.loc 1 861 0
 1316 0094 4FF00003 		mov	r3, #0
 1317 0098 8DF80F30 		strb	r3, [sp, #15]
 1318              	.L57:
 1319              		.loc 1 864 0
 1320 009c 9DF80F30 		ldrb	r3, [sp, #15]	@ zero_extendqisi2
 1321              		.loc 1 865 0
 1322 00a0 1846     		mov	r0, r3
 1323 00a2 04B0     		add	sp, sp, #16
 1324 00a4 7047     		bx	lr
 1325              		.cfi_endproc
 1326              	.LFE77:
 1327              		.size	SPI_I2S_GetITStatus, .-SPI_I2S_GetITStatus
 1328 00a6 00BFAFF3 		.section	.text.SPI_I2S_ClearITPendingBit,"ax",%progbits
 1328      0080AFF3 
 1328      0080
 1329              		.align	2
 1330              		.p2align 4,,15
 1331              		.global	SPI_I2S_ClearITPendingBit
 1332              		.thumb
 1333              		.thumb_func
 1334              		.type	SPI_I2S_ClearITPendingBit, %function
 1335              	SPI_I2S_ClearITPendingBit:
 1336              	.LFB78:
 1337              		.loc 1 886 0
 1338              		.cfi_startproc
 1339              		@ args = 0, pretend = 0, frame = 16
 1340              		@ frame_needed = 0, uses_anonymous_args = 0
 1341              		@ link register save eliminated.
 1342 0000 84B0     		sub	sp, sp, #16
 1343              	.LCFI24:
 1344              		.cfi_def_cfa_offset 16
 1345 0002 0190     		str	r0, [sp, #4]
ARM GAS  C:\Users\z80\AppData\Local\Temp\ccqYjHyO.s 			page 25


 1346 0004 0B46     		mov	r3, r1
 1347 0006 8DF80330 		strb	r3, [sp, #3]
 1348              		.loc 1 887 0
 1349 000a 4FF00003 		mov	r3, #0
 1350 000e ADF80E30 		strh	r3, [sp, #14]	@ movhi
 1351              		.loc 1 893 0
 1352 0012 9DF80330 		ldrb	r3, [sp, #3]	@ zero_extendqisi2
 1353 0016 03F00F03 		and	r3, r3, #15
 1354 001a 4FF00102 		mov	r2, #1
 1355 001e 02FA03F3 		lsl	r3, r2, r3
 1356 0022 ADF80E30 		strh	r3, [sp, #14]	@ movhi
 1357              		.loc 1 896 0
 1358 0026 BDF80E30 		ldrh	r3, [sp, #14]	@ movhi
 1359 002a 6FEA0303 		mvn	r3, r3
 1360 002e 9AB2     		uxth	r2, r3
 1361 0030 019B     		ldr	r3, [sp, #4]
 1362 0032 1A81     		strh	r2, [r3, #8]	@ movhi
 1363              		.loc 1 897 0
 1364 0034 04B0     		add	sp, sp, #16
 1365 0036 7047     		bx	lr
 1366              		.cfi_endproc
 1367              	.LFE78:
 1368              		.size	SPI_I2S_ClearITPendingBit, .-SPI_I2S_ClearITPendingBit
 1369 0038 AFF30080 		.text
 1369      AFF30080 
 1370              	.Letext0: