ARM GAS  C:\Users\z80\AppData\Local\Temp\ccqYjHyO.s 			page 1


   1              		.syntax unified
   2              		.cpu cortex-m3
   3              		.fpu softvfp
   4              		.eabi_attribute 20, 1
   5              		.eabi_attribute 21, 1
   6              		.eabi_attribute 23, 3
   7              		.eabi_attribute 24, 1
   8              		.eabi_attribute 25, 1
   9              		.eabi_attribute 26, 1
  10              		.eabi_attribute 30, 6
  11              		.eabi_attribute 18, 4
  12              		.thumb
  13              		.file	"stm32f10x_spi.c"
  14              		.section	.debug_abbrev,"",%progbits
  15              	.Ldebug_abbrev0:
  16              		.section	.debug_info,"",%progbits
  17              	.Ldebug_info0:
  18              		.section	.debug_line,"",%progbits
  19              	.Ldebug_line0:
  20 0000 48030000 		.text
  20      02001D01 
  20      00000201 
  20      FB0E0D00 
  20      01010101 
  21              	.Ltext0:
  22              		.cfi_sections	.debug_frame
  23              		.section	.text.SPI_I2S_DeInit,"ax",%progbits
  24              		.align	2
  25              		.p2align 4,,15
  26              		.global	SPI_I2S_DeInit
  27              		.thumb
  28              		.thumb_func
  29              		.type	SPI_I2S_DeInit, %function
  30              	SPI_I2S_DeInit:
  31              	.LFB56:
  32              		.file 1 "stdperiph/stm32f10x_spi.c"
  33              		.loc 1 122 0
  34              		.cfi_startproc
  35              		@ args = 0, pretend = 0, frame = 8
  36              		@ frame_needed = 0, uses_anonymous_args = 0
  37 0000 00B5     		push	{lr}
  38              	.LCFI0:
  39              		.cfi_def_cfa_offset 4
  40 0002 83B0     		sub	sp, sp, #12
  41              	.LCFI1:
  42              		.cfi_def_cfa_offset 16
  43 0004 0190     		str	r0, [sp, #4]
  44              		.loc 1 126 0
  45 0006 019A     		ldr	r2, [sp, #4]
  46 0008 4FF44053 		mov	r3, #12288
  47 000c C4F20103 		movt	r3, 16385
  48 0010 9A42     		cmp	r2, r3
  49 0012 0CD1     		bne	.L2
  50              		.cfi_offset 14, -4
  51              		.loc 1 129 0
  52 0014 4FF48050 		mov	r0, #4096
  53 0018 4FF00101 		mov	r1, #1
ARM GAS  C:\Users\z80\AppData\Local\Temp\ccqYjHyO.s 			page 2


  54 001c FFF7FEFF 		bl	RCC_APB2PeriphResetCmd
  55              		.loc 1 131 0
  56 0020 4FF48050 		mov	r0, #4096
  57 0024 4FF00001 		mov	r1, #0
  58 0028 FFF7FEFF 		bl	RCC_APB2PeriphResetCmd
  59 002c 26E0     		b	.L1
  60              	.L2:
  61              		.loc 1 133 0
  62 002e 019A     		ldr	r2, [sp, #4]
  63 0030 4FF46053 		mov	r3, #14336
  64 0034 C4F20003 		movt	r3, 16384
  65 0038 9A42     		cmp	r2, r3
  66 003a 0CD1     		bne	.L4
  67              		.loc 1 136 0
  68 003c 4FF48040 		mov	r0, #16384
  69 0040 4FF00101 		mov	r1, #1
  70 0044 FFF7FEFF 		bl	RCC_APB1PeriphResetCmd
  71              		.loc 1 138 0
  72 0048 4FF48040 		mov	r0, #16384
  73 004c 4FF00001 		mov	r1, #0
  74 0050 FFF7FEFF 		bl	RCC_APB1PeriphResetCmd
  75 0054 12E0     		b	.L1
  76              	.L4:
  77              		.loc 1 142 0
  78 0056 019A     		ldr	r2, [sp, #4]
  79 0058 4FF47053 		mov	r3, #15360
  80 005c C4F20003 		movt	r3, 16384
  81 0060 9A42     		cmp	r2, r3
  82 0062 0BD1     		bne	.L1
  83              		.loc 1 145 0
  84 0064 4FF40040 		mov	r0, #32768
  85 0068 4FF00101 		mov	r1, #1
  86 006c FFF7FEFF 		bl	RCC_APB1PeriphResetCmd
  87              		.loc 1 147 0
  88 0070 4FF40040 		mov	r0, #32768
  89 0074 4FF00001 		mov	r1, #0
  90 0078 FFF7FEFF 		bl	RCC_APB1PeriphResetCmd
  91              	.L1:
  92              		.loc 1 150 0
  93 007c 03B0     		add	sp, sp, #12
  94 007e 00BD     		pop	{pc}
  95              		.cfi_endproc
  96              	.LFE56:
  97              		.size	SPI_I2S_DeInit, .-SPI_I2S_DeInit
  98              		.section	.text.SPI_Init,"ax",%progbits
  99              		.align	2
 100              		.p2align 4,,15
 101              		.global	SPI_Init
 102              		.thumb
 103              		.thumb_func
 104              		.type	SPI_Init, %function
 105              	SPI_Init:
 106              	.LFB57:
 107              		.loc 1 161 0
 108              		.cfi_startproc
 109              		@ args = 0, pretend = 0, frame = 16
 110              		@ frame_needed = 0, uses_anonymous_args = 0
ARM GAS  C:\Users\z80\AppData\Local\Temp\ccqYjHyO.s 			page 3


 111              		@ link register save eliminated.
 112 0000 84B0     		sub	sp, sp, #16
 113              	.LCFI2:
 114              		.cfi_def_cfa_offset 16
 115 0002 0190     		str	r0, [sp, #4]
 116 0004 0091     		str	r1, [sp, #0]
 117              		.loc 1 162 0
 118 0006 4FF00003 		mov	r3, #0
 119 000a ADF80E30 		strh	r3, [sp, #14]	@ movhi
 120              		.loc 1 180 0
 121 000e 019B     		ldr	r3, [sp, #4]
 122 0010 1B88     		ldrh	r3, [r3, #0]	@ movhi
 123 0012 ADF80E30 		strh	r3, [sp, #14]	@ movhi
 124              		.loc 1 182 0
 125 0016 BDF80E30 		ldrh	r3, [sp, #14]	@ movhi
 126 001a 03F44153 		and	r3, r3, #12352
 127 001e ADF80E30 		strh	r3, [sp, #14]	@ movhi
 128              		.loc 1 191 0
 129 0022 009B     		ldr	r3, [sp, #0]
 130 0024 1A88     		ldrh	r2, [r3, #0]
 131 0026 009B     		ldr	r3, [sp, #0]
 132 0028 5B88     		ldrh	r3, [r3, #2]
 133 002a 42EA0303 		orr	r3, r2, r3
 134 002e 9AB2     		uxth	r2, r3
 135              		.loc 1 192 0
 136 0030 009B     		ldr	r3, [sp, #0]
 137 0032 9B88     		ldrh	r3, [r3, #4]
 138              		.loc 1 191 0
 139 0034 42EA0303 		orr	r3, r2, r3
 140 0038 9AB2     		uxth	r2, r3
 141              		.loc 1 192 0
 142 003a 009B     		ldr	r3, [sp, #0]
 143 003c DB88     		ldrh	r3, [r3, #6]
 144              		.loc 1 191 0
 145 003e 42EA0303 		orr	r3, r2, r3
 146 0042 9AB2     		uxth	r2, r3
 147              		.loc 1 193 0
 148 0044 009B     		ldr	r3, [sp, #0]
 149 0046 1B89     		ldrh	r3, [r3, #8]
 150              		.loc 1 191 0
 151 0048 42EA0303 		orr	r3, r2, r3
 152 004c 9AB2     		uxth	r2, r3
 153              		.loc 1 193 0
 154 004e 009B     		ldr	r3, [sp, #0]
 155 0050 5B89     		ldrh	r3, [r3, #10]
 156              		.loc 1 191 0
 157 0052 42EA0303 		orr	r3, r2, r3
 158 0056 9AB2     		uxth	r2, r3
 159              		.loc 1 194 0
 160 0058 009B     		ldr	r3, [sp, #0]
 161 005a 9B89     		ldrh	r3, [r3, #12]
 162              		.loc 1 191 0
 163 005c 42EA0303 		orr	r3, r2, r3
 164 0060 9AB2     		uxth	r2, r3
 165              		.loc 1 194 0
 166 0062 009B     		ldr	r3, [sp, #0]
 167 0064 DB89     		ldrh	r3, [r3, #14]
ARM GAS  C:\Users\z80\AppData\Local\Temp\ccqYjHyO.s 			page 4


 168              		.loc 1 191 0
 169 0066 42EA0303 		orr	r3, r2, r3
 170 006a 9AB2     		uxth	r2, r3
 171 006c BDF80E30 		ldrh	r3, [sp, #14]	@ movhi
 172 0070 42EA0303 		orr	r3, r2, r3
 173 0074 ADF80E30 		strh	r3, [sp, #14]	@ movhi
 174              		.loc 1 196 0
 175 0078 019B     		ldr	r3, [sp, #4]
 176 007a BDF80E20 		ldrh	r2, [sp, #14]	@ movhi
 177 007e 1A80     		strh	r2, [r3, #0]	@ movhi
 178              		.loc 1 199 0
 179 0080 019B     		ldr	r3, [sp, #4]
 180 0082 9B8B     		ldrh	r3, [r3, #28]	@ movhi
 181 0084 9BB2     		uxth	r3, r3
 182 0086 23F40063 		bic	r3, r3, #2048
 183 008a 9AB2     		uxth	r2, r3
 184 008c 019B     		ldr	r3, [sp, #4]
 185 008e 9A83     		strh	r2, [r3, #28]	@ movhi
 186              		.loc 1 203 0
 187 0090 009B     		ldr	r3, [sp, #0]
 188 0092 1A8A     		ldrh	r2, [r3, #16]
 189 0094 019B     		ldr	r3, [sp, #4]
 190 0096 1A82     		strh	r2, [r3, #16]	@ movhi
 191              		.loc 1 204 0
 192 0098 04B0     		add	sp, sp, #16
 193 009a 7047     		bx	lr
 194              		.cfi_endproc
 195              	.LFE57:
 196              		.size	SPI_Init, .-SPI_Init
 197 009c AFF30080 		.section	.text.I2S_Init,"ax",%progbits
 198              		.align	2
 199              		.p2align 4,,15
 200              		.global	I2S_Init
 201              		.thumb
 202              		.thumb_func
 203              		.type	I2S_Init, %function
 204              	I2S_Init:
 205              	.LFB58:
 206              		.loc 1 222 0
 207              		.cfi_startproc
 208              		@ args = 0, pretend = 0, frame = 48
 209              		@ frame_needed = 0, uses_anonymous_args = 0
 210 0000 00B5     		push	{lr}
 211              	.LCFI3:
 212              		.cfi_def_cfa_offset 4
 213 0002 8DB0     		sub	sp, sp, #52
 214              	.LCFI4:
 215              		.cfi_def_cfa_offset 56
 216 0004 0190     		str	r0, [sp, #4]
 217 0006 0091     		str	r1, [sp, #0]
 218              		.loc 1 223 0
 219 0008 4FF00003 		mov	r3, #0
 220 000c ADF82230 		strh	r3, [sp, #34]	@ movhi
 221 0010 4FF00203 		mov	r3, #2
 222 0014 ADF82E30 		strh	r3, [sp, #46]	@ movhi
 223 0018 4FF00003 		mov	r3, #0
 224 001c ADF82C30 		strh	r3, [sp, #44]	@ movhi
ARM GAS  C:\Users\z80\AppData\Local\Temp\ccqYjHyO.s 			page 5


 225 0020 4FF00103 		mov	r3, #1
 226 0024 ADF82A30 		strh	r3, [sp, #42]	@ movhi
 227              		.loc 1 224 0
 228 0028 4FF00003 		mov	r3, #0
 229 002c 0993     		str	r3, [sp, #36]
 230              		.loc 1 226 0
 231 002e 4FF00003 		mov	r3, #0
 232 0032 0793     		str	r3, [sp, #28]
 233              		.loc 1 239 0
 234 0034 019B     		ldr	r3, [sp, #4]
 235 0036 9B8B     		ldrh	r3, [r3, #28]	@ movhi
 236 0038 9BB2     		uxth	r3, r3
 237 003a 23F47A63 		bic	r3, r3, #4000
 238 003e 23F01F03 		bic	r3, r3, #31
 239 0042 9AB2     		uxth	r2, r3
 240 0044 019B     		ldr	r3, [sp, #4]
 241 0046 9A83     		strh	r2, [r3, #28]	@ movhi
 242              		.loc 1 240 0
 243 0048 019B     		ldr	r3, [sp, #4]
 244 004a 4FF00202 		mov	r2, #2
 245 004e 1A84     		strh	r2, [r3, #32]	@ movhi
 246              		.loc 1 243 0
 247 0050 019B     		ldr	r3, [sp, #4]
 248 0052 9B8B     		ldrh	r3, [r3, #28]	@ movhi
 249 0054 ADF82230 		strh	r3, [sp, #34]	@ movhi
 250              		.loc 1 246 0
 251 0058 009B     		ldr	r3, [sp, #0]
 252 005a 9B68     		ldr	r3, [r3, #8]
 253 005c 022B     		cmp	r3, #2
 254 005e 08D1     		bne	.L7
 255              		.cfi_offset 14, -4
 256              		.loc 1 248 0
 257 0060 4FF00003 		mov	r3, #0
 258 0064 ADF82C30 		strh	r3, [sp, #44]	@ movhi
 259              		.loc 1 249 0
 260 0068 4FF00203 		mov	r3, #2
 261 006c ADF82E30 		strh	r3, [sp, #46]	@ movhi
 262 0070 6FE0     		b	.L8
 263              	.L7:
 264              		.loc 1 255 0
 265 0072 009B     		ldr	r3, [sp, #0]
 266 0074 9B88     		ldrh	r3, [r3, #4]
 267 0076 002B     		cmp	r3, #0
 268 0078 04D1     		bne	.L9
 269              		.loc 1 258 0
 270 007a 4FF00103 		mov	r3, #1
 271 007e ADF82A30 		strh	r3, [sp, #42]	@ movhi
 272 0082 03E0     		b	.L10
 273              	.L9:
 274              		.loc 1 263 0
 275 0084 4FF00203 		mov	r3, #2
 276 0088 ADF82A30 		strh	r3, [sp, #42]	@ movhi
 277              	.L10:
 278              		.loc 1 267 0
 279 008c 019A     		ldr	r2, [sp, #4]
 280 008e 4FF46053 		mov	r3, #14336
 281 0092 C4F20003 		movt	r3, 16384
ARM GAS  C:\Users\z80\AppData\Local\Temp\ccqYjHyO.s 			page 6


 282 0096 9A42     		cmp	r2, r3
 283 0098 03D1     		bne	.L11
 284              		.loc 1 270 0
 285 009a 4FF40033 		mov	r3, #131072
 286 009e 0993     		str	r3, [sp, #36]
 287 00a0 02E0     		b	.L12
 288              	.L11:
 289              		.loc 1 275 0
 290 00a2 4FF48023 		mov	r3, #262144
 291 00a6 0993     		str	r3, [sp, #36]
 292              	.L12:
 293              		.loc 1 316 0
 294 00a8 02AB     		add	r3, sp, #8
 295 00aa 1846     		mov	r0, r3
 296 00ac FFF7FEFF 		bl	RCC_GetClocksFreq
 297              		.loc 1 319 0
 298 00b0 029B     		ldr	r3, [sp, #8]
 299 00b2 0793     		str	r3, [sp, #28]
 300              		.loc 1 323 0
 301 00b4 009B     		ldr	r3, [sp, #0]
 302 00b6 DB88     		ldrh	r3, [r3, #6]
 303 00b8 B3F5007F 		cmp	r3, #512
 304 00bc 13D1     		bne	.L13
 305              		.loc 1 326 0
 306 00be 079B     		ldr	r3, [sp, #28]
 307 00c0 4FEA1322 		lsr	r2, r3, #8
 308 00c4 1346     		mov	r3, r2
 309 00c6 4FEA8303 		lsl	r3, r3, #2
 310 00ca 1344     		add	r3, r3, r2
 311 00cc 4FEA4303 		lsl	r3, r3, #1
 312 00d0 1A46     		mov	r2, r3
 313 00d2 009B     		ldr	r3, [sp, #0]
 314 00d4 9B68     		ldr	r3, [r3, #8]
 315 00d6 B2FBF3F3 		udiv	r3, r2, r3
 316 00da 9BB2     		uxth	r3, r3
 317 00dc 03F10503 		add	r3, r3, #5
 318 00e0 9BB2     		uxth	r3, r3
 319 00e2 0993     		str	r3, [sp, #36]
 320 00e4 16E0     		b	.L14
 321              	.L13:
 322              		.loc 1 331 0
 323 00e6 BDF82A30 		ldrh	r3, [sp, #42]
 324 00ea 4FEA4313 		lsl	r3, r3, #5
 325 00ee 079A     		ldr	r2, [sp, #28]
 326 00f0 B2FBF3F2 		udiv	r2, r2, r3
 327 00f4 1346     		mov	r3, r2
 328 00f6 4FEA8303 		lsl	r3, r3, #2
 329 00fa 1344     		add	r3, r3, r2
 330 00fc 4FEA4303 		lsl	r3, r3, #1
 331 0100 1A46     		mov	r2, r3
 332 0102 009B     		ldr	r3, [sp, #0]
 333 0104 9B68     		ldr	r3, [r3, #8]
 334 0106 B2FBF3F3 		udiv	r3, r2, r3
 335 010a 9BB2     		uxth	r3, r3
 336 010c 03F10503 		add	r3, r3, #5
 337 0110 9BB2     		uxth	r3, r3
 338 0112 0993     		str	r3, [sp, #36]
ARM GAS  C:\Users\z80\AppData\Local\Temp\ccqYjHyO.s 			page 7


 339              	.L14:
 340              		.loc 1 335 0
 341 0114 099A     		ldr	r2, [sp, #36]
 342 0116 4CF6CD43 		movw	r3, #52429
 343 011a CCF6CC43 		movt	r3, 52428
 344 011e A3FB0213 		umull	r1, r3, r3, r2
 345 0122 4FEAD303 		lsr	r3, r3, #3
 346 0126 0993     		str	r3, [sp, #36]
 347              		.loc 1 338 0
 348 0128 099B     		ldr	r3, [sp, #36]
 349 012a 9BB2     		uxth	r3, r3
 350 012c 03F00103 		and	r3, r3, #1
 351 0130 ADF82C30 		strh	r3, [sp, #44]	@ movhi
 352              		.loc 1 341 0
 353 0134 BDF82C30 		ldrh	r3, [sp, #44]
 354 0138 099A     		ldr	r2, [sp, #36]
 355 013a C3EB0203 		rsb	r3, r3, r2
 356 013e 4FEA5303 		lsr	r3, r3, #1
 357 0142 ADF82E30 		strh	r3, [sp, #46]	@ movhi
 358              		.loc 1 344 0
 359 0146 BDF82C30 		ldrh	r3, [sp, #44]	@ movhi
 360 014a 4FEA0323 		lsl	r3, r3, #8
 361 014e ADF82C30 		strh	r3, [sp, #44]	@ movhi
 362              	.L8:
 363              		.loc 1 348 0
 364 0152 BDF82E30 		ldrh	r3, [sp, #46]
 365 0156 012B     		cmp	r3, #1
 366 0158 03D9     		bls	.L15
 367              		.loc 1 348 0 is_stmt 0 discriminator 1
 368 015a BDF82E30 		ldrh	r3, [sp, #46]
 369 015e FF2B     		cmp	r3, #255
 370 0160 07D9     		bls	.L16
 371              	.L15:
 372              		.loc 1 351 0 is_stmt 1
 373 0162 4FF00203 		mov	r3, #2
 374 0166 ADF82E30 		strh	r3, [sp, #46]	@ movhi
 375              		.loc 1 352 0
 376 016a 4FF00003 		mov	r3, #0
 377 016e ADF82C30 		strh	r3, [sp, #44]	@ movhi
 378              	.L16:
 379              		.loc 1 356 0
 380 0172 009B     		ldr	r3, [sp, #0]
 381 0174 DA88     		ldrh	r2, [r3, #6]
 382 0176 BDF82C30 		ldrh	r3, [sp, #44]	@ movhi
 383 017a 42EA0303 		orr	r3, r2, r3
 384 017e 9AB2     		uxth	r2, r3
 385 0180 BDF82E30 		ldrh	r3, [sp, #46]	@ movhi
 386 0184 42EA0303 		orr	r3, r2, r3
 387 0188 9AB2     		uxth	r2, r3
 388 018a 019B     		ldr	r3, [sp, #4]
 389 018c 1A84     		strh	r2, [r3, #32]	@ movhi
 390              		.loc 1 359 0
 391 018e 009B     		ldr	r3, [sp, #0]
 392 0190 1A88     		ldrh	r2, [r3, #0]
 393              		.loc 1 360 0
 394 0192 009B     		ldr	r3, [sp, #0]
 395 0194 5988     		ldrh	r1, [r3, #2]
ARM GAS  C:\Users\z80\AppData\Local\Temp\ccqYjHyO.s 			page 8


 396 0196 009B     		ldr	r3, [sp, #0]
 397 0198 9888     		ldrh	r0, [r3, #4]
 398              		.loc 1 361 0
 399 019a 009B     		ldr	r3, [sp, #0]
 400 019c 9B89     		ldrh	r3, [r3, #12]
 401              		.loc 1 360 0
 402 019e 40EA0303 		orr	r3, r0, r3
 403 01a2 9BB2     		uxth	r3, r3
 404 01a4 41EA0303 		orr	r3, r1, r3
 405 01a8 9BB2     		uxth	r3, r3
 406              		.loc 1 359 0
 407 01aa 42EA0303 		orr	r3, r2, r3
 408 01ae 9AB2     		uxth	r2, r3
 409 01b0 BDF82230 		ldrh	r3, [sp, #34]	@ movhi
 410 01b4 42EA0303 		orr	r3, r2, r3
 411 01b8 9BB2     		uxth	r3, r3
 412 01ba 43F40063 		orr	r3, r3, #2048
 413 01be ADF82230 		strh	r3, [sp, #34]	@ movhi
 414              		.loc 1 364 0
 415 01c2 019B     		ldr	r3, [sp, #4]
 416 01c4 BDF82220 		ldrh	r2, [sp, #34]	@ movhi
 417 01c8 9A83     		strh	r2, [r3, #28]	@ movhi
 418              		.loc 1 365 0
 419 01ca 0DB0     		add	sp, sp, #52
 420 01cc 00BD     		pop	{pc}
 421              		.cfi_endproc
 422              	.LFE58:
 423              		.size	I2S_Init, .-I2S_Init
 424 01ce 00BF     		.section	.text.SPI_StructInit,"ax",%progbits
 425              		.align	2
 426              		.p2align 4,,15
 427              		.global	SPI_StructInit
 428              		.thumb
 429              		.thumb_func
 430              		.type	SPI_StructInit, %function
 431              	SPI_StructInit:
 432              	.LFB59:
 433              		.loc 1 373 0
 434              		.cfi_startproc
 435              		@ args = 0, pretend = 0, frame = 8
 436              		@ frame_needed = 0, uses_anonymous_args = 0
 437              		@ link register save eliminated.
 438 0000 82B0     		sub	sp, sp, #8
 439              	.LCFI5:
 440              		.cfi_def_cfa_offset 8
 441 0002 0190     		str	r0, [sp, #4]
 442              		.loc 1 376 0
 443 0004 019B     		ldr	r3, [sp, #4]
 444 0006 4FF00002 		mov	r2, #0
 445 000a 1A80     		strh	r2, [r3, #0]	@ movhi
 446              		.loc 1 378 0
 447 000c 019B     		ldr	r3, [sp, #4]
 448 000e 4FF00002 		mov	r2, #0
 449 0012 5A80     		strh	r2, [r3, #2]	@ movhi
 450              		.loc 1 380 0
 451 0014 019B     		ldr	r3, [sp, #4]
 452 0016 4FF00002 		mov	r2, #0
ARM GAS  C:\Users\z80\AppData\Local\Temp\ccqYjHyO.s 			page 9


 453 001a 9A80     		strh	r2, [r3, #4]	@ movhi
 454              		.loc 1 382 0
 455 001c 019B     		ldr	r3, [sp, #4]
 456 001e 4FF00002 		mov	r2, #0
 457 0022 DA80     		strh	r2, [r3, #6]	@ movhi
 458              		.loc 1 384 0
 459 0024 019B     		ldr	r3, [sp, #4]
 460 0026 4FF00002 		mov	r2, #0
 461 002a 1A81     		strh	r2, [r3, #8]	@ movhi
 462              		.loc 1 386 0
 463 002c 019B     		ldr	r3, [sp, #4]
 464 002e 4FF00002 		mov	r2, #0
 465 0032 5A81     		strh	r2, [r3, #10]	@ movhi
 466              		.loc 1 388 0
 467 0034 019B     		ldr	r3, [sp, #4]
 468 0036 4FF00002 		mov	r2, #0
 469 003a 9A81     		strh	r2, [r3, #12]	@ movhi
 470              		.loc 1 390 0
 471 003c 019B     		ldr	r3, [sp, #4]
 472 003e 4FF00002 		mov	r2, #0
 473 0042 DA81     		strh	r2, [r3, #14]	@ movhi
 474              		.loc 1 392 0
 475 0044 019B     		ldr	r3, [sp, #4]
 476 0046 4FF00702 		mov	r2, #7
 477 004a 1A82     		strh	r2, [r3, #16]	@ movhi
 478              		.loc 1 393 0
 479 004c 02B0     		add	sp, sp, #8
 480 004e 7047     		bx	lr
 481              		.cfi_endproc
 482              	.LFE59:
 483              		.size	SPI_StructInit, .-SPI_StructInit
 484              		.section	.text.I2S_StructInit,"ax",%progbits
 485              		.align	2
 486              		.p2align 4,,15
 487              		.global	I2S_StructInit
 488              		.thumb
 489              		.thumb_func
 490              		.type	I2S_StructInit, %function
 491              	I2S_StructInit:
 492              	.LFB60:
 493              		.loc 1 401 0
 494              		.cfi_startproc
 495              		@ args = 0, pretend = 0, frame = 8
 496              		@ frame_needed = 0, uses_anonymous_args = 0
 497              		@ link register save eliminated.
 498 0000 82B0     		sub	sp, sp, #8
 499              	.LCFI6:
 500              		.cfi_def_cfa_offset 8
 501 0002 0190     		str	r0, [sp, #4]
 502              		.loc 1 404 0
 503 0004 019B     		ldr	r3, [sp, #4]
 504 0006 4FF00002 		mov	r2, #0
 505 000a 1A80     		strh	r2, [r3, #0]	@ movhi
 506              		.loc 1 407 0
 507 000c 019B     		ldr	r3, [sp, #4]
 508 000e 4FF00002 		mov	r2, #0
 509 0012 5A80     		strh	r2, [r3, #2]	@ movhi
ARM GAS  C:\Users\z80\AppData\Local\Temp\ccqYjHyO.s 			page 10


 510              		.loc 1 410 0
 511 0014 019B     		ldr	r3, [sp, #4]
 512 0016 4FF00002 		mov	r2, #0
 513 001a 9A80     		strh	r2, [r3, #4]	@ movhi
 514              		.loc 1 413 0
 515 001c 019B     		ldr	r3, [sp, #4]
 516 001e 4FF00002 		mov	r2, #0
 517 0022 DA80     		strh	r2, [r3, #6]	@ movhi
 518              		.loc 1 416 0
 519 0024 019B     		ldr	r3, [sp, #4]
 520 0026 4FF00202 		mov	r2, #2
 521 002a 9A60     		str	r2, [r3, #8]
 522              		.loc 1 419 0
 523 002c 019B     		ldr	r3, [sp, #4]
 524 002e 4FF00002 		mov	r2, #0
 525 0032 9A81     		strh	r2, [r3, #12]	@ movhi
 526              		.loc 1 420 0
 527 0034 02B0     		add	sp, sp, #8
 528 0036 7047     		bx	lr
 529              		.cfi_endproc
 530              	.LFE60:
 531              		.size	I2S_StructInit, .-I2S_StructInit
 532 0038 AFF30080 		.section	.text.SPI_Cmd,"ax",%progbits
 532      AFF30080 
 533              		.align	2
 534              		.p2align 4,,15
 535              		.global	SPI_Cmd
 536              		.thumb
 537              		.thumb_func
 538              		.type	SPI_Cmd, %function
 539              	SPI_Cmd:
 540              	.LFB61:
 541              		.loc 1 430 0
 542              		.cfi_startproc
 543              		@ args = 0, pretend = 0, frame = 8
 544              		@ frame_needed = 0, uses_anonymous_args = 0
 545              		@ link register save eliminated.
 546 0000 82B0     		sub	sp, sp, #8
 547              	.LCFI7:
 548              		.cfi_def_cfa_offset 8
 549 0002 0190     		str	r0, [sp, #4]
 550 0004 0B46     		mov	r3, r1
 551 0006 8DF80330 		strb	r3, [sp, #3]
 552              		.loc 1 434 0
 553 000a 9DF80330 		ldrb	r3, [sp, #3]	@ zero_extendqisi2
 554 000e 002B     		cmp	r3, #0
 555 0010 08D0     		beq	.L20
 556              		.loc 1 437 0
 557 0012 019B     		ldr	r3, [sp, #4]
 558 0014 1B88     		ldrh	r3, [r3, #0]	@ movhi
 559 0016 9BB2     		uxth	r3, r3
 560 0018 43F04003 		orr	r3, r3, #64
 561 001c 9AB2     		uxth	r2, r3
 562 001e 019B     		ldr	r3, [sp, #4]
 563 0020 1A80     		strh	r2, [r3, #0]	@ movhi
 564 0022 07E0     		b	.L19
 565              	.L20:
ARM GAS  C:\Users\z80\AppData\Local\Temp\ccqYjHyO.s 			page 11


 566              		.loc 1 442 0
 567 0024 019B     		ldr	r3, [sp, #4]
 568 0026 1B88     		ldrh	r3, [r3, #0]	@ movhi
 569 0028 9BB2     		uxth	r3, r3
 570 002a 23F04003 		bic	r3, r3, #64
 571 002e 9AB2     		uxth	r2, r3
 572 0030 019B     		ldr	r3, [sp, #4]
 573 0032 1A80     		strh	r2, [r3, #0]	@ movhi
 574              	.L19:
 575              		.loc 1 444 0
 576 0034 02B0     		add	sp, sp, #8
 577 0036 7047     		bx	lr
 578              		.cfi_endproc
 579              	.LFE61:
 580              		.size	SPI_Cmd, .-SPI_Cmd
 581 0038 AFF30080 		.section	.text.I2S_Cmd,"ax",%progbits
 581      AFF30080 
 582              		.align	2
 583              		.p2align 4,,15
 584              		.global	I2S_Cmd
 585              		.thumb
 586              		.thumb_func
 587              		.type	I2S_Cmd, %function
 588              	I2S_Cmd:
 589              	.LFB62:
 590              		.loc 1 454 0
 591              		.cfi_startproc
 592              		@ args = 0, pretend = 0, frame = 8
 593              		@ frame_needed = 0, uses_anonymous_args = 0
 594              		@ link register save eliminated.
 595 0000 82B0     		sub	sp, sp, #8
 596              	.LCFI8:
 597              		.cfi_def_cfa_offset 8
 598 0002 0190     		str	r0, [sp, #4]
 599 0004 0B46     		mov	r3, r1
 600 0006 8DF80330 		strb	r3, [sp, #3]
 601              		.loc 1 458 0
 602 000a 9DF80330 		ldrb	r3, [sp, #3]	@ zero_extendqisi2
 603 000e 002B     		cmp	r3, #0
 604 0010 08D0     		beq	.L23
 605              		.loc 1 461 0
 606 0012 019B     		ldr	r3, [sp, #4]
 607 0014 9B8B     		ldrh	r3, [r3, #28]	@ movhi
 608 0016 9BB2     		uxth	r3, r3
 609 0018 43F48063 		orr	r3, r3, #1024
 610 001c 9AB2     		uxth	r2, r3
 611 001e 019B     		ldr	r3, [sp, #4]
 612 0020 9A83     		strh	r2, [r3, #28]	@ movhi
 613 0022 07E0     		b	.L22
 614              	.L23:
 615              		.loc 1 466 0
 616 0024 019B     		ldr	r3, [sp, #4]
 617 0026 9B8B     		ldrh	r3, [r3, #28]	@ movhi
 618 0028 9BB2     		uxth	r3, r3
 619 002a 23F48063 		bic	r3, r3, #1024
 620 002e 9AB2     		uxth	r2, r3
 621 0030 019B     		ldr	r3, [sp, #4]
ARM GAS  C:\Users\z80\AppData\Local\Temp\ccqYjHyO.s 			page 12


 622 0032 9A83     		strh	r2, [r3, #28]	@ movhi
 623              	.L22:
 624              		.loc 1 468 0
 625 0034 02B0     		add	sp, sp, #8
 626 0036 7047     		bx	lr
 627              		.cfi_endproc
 628              	.LFE62:
 629              		.size	I2S_Cmd, .-I2S_Cmd
 630 0038 AFF30080 		.section	.text.SPI_I2S_ITConfig,"ax",%progbits
 630      AFF30080 
 631              		.align	2
 632              		.p2align 4,,15
 633              		.global	SPI_I2S_ITConfig
 634              		.thumb
 635              		.thumb_func
 636              		.type	SPI_I2S_ITConfig, %function
 637              	SPI_I2S_ITConfig:
 638              	.LFB63:
 639              		.loc 1 485 0
 640              		.cfi_startproc
 641              		@ args = 0, pretend = 0, frame = 16
 642              		@ frame_needed = 0, uses_anonymous_args = 0
 643              		@ link register save eliminated.
 644 0000 84B0     		sub	sp, sp, #16
 645              	.LCFI9:
 646              		.cfi_def_cfa_offset 16
 647 0002 0190     		str	r0, [sp, #4]
 648 0004 1346     		mov	r3, r2
 649 0006 0A46     		mov	r2, r1
 650 0008 8DF80320 		strb	r2, [sp, #3]
 651 000c 8DF80230 		strb	r3, [sp, #2]
 652              		.loc 1 486 0
 653 0010 4FF00003 		mov	r3, #0
 654 0014 ADF80E30 		strh	r3, [sp, #14]	@ movhi
 655 0018 4FF00003 		mov	r3, #0
 656 001c ADF80C30 		strh	r3, [sp, #12]	@ movhi
 657              		.loc 1 493 0
 658 0020 9DF80330 		ldrb	r3, [sp, #3]	@ zero_extendqisi2
 659 0024 4FEA1313 		lsr	r3, r3, #4
 660 0028 DBB2     		uxtb	r3, r3
 661 002a ADF80E30 		strh	r3, [sp, #14]	@ movhi
 662              		.loc 1 496 0
 663 002e BDF80E30 		ldrh	r3, [sp, #14]
 664 0032 4FF00102 		mov	r2, #1
 665 0036 02FA03F3 		lsl	r3, r2, r3
 666 003a ADF80C30 		strh	r3, [sp, #12]	@ movhi
 667              		.loc 1 498 0
 668 003e 9DF80230 		ldrb	r3, [sp, #2]	@ zero_extendqisi2
 669 0042 002B     		cmp	r3, #0
 670 0044 0AD0     		beq	.L26
 671              		.loc 1 501 0
 672 0046 019B     		ldr	r3, [sp, #4]
 673 0048 9B88     		ldrh	r3, [r3, #4]	@ movhi
 674 004a 9AB2     		uxth	r2, r3
 675 004c BDF80C30 		ldrh	r3, [sp, #12]	@ movhi
 676 0050 42EA0303 		orr	r3, r2, r3
 677 0054 9AB2     		uxth	r2, r3
ARM GAS  C:\Users\z80\AppData\Local\Temp\ccqYjHyO.s 			page 13


 678 0056 019B     		ldr	r3, [sp, #4]
 679 0058 9A80     		strh	r2, [r3, #4]	@ movhi
 680 005a 0CE0     		b	.L25
 681              	.L26:
 682              		.loc 1 506 0
 683 005c 019B     		ldr	r3, [sp, #4]
 684 005e 9B88     		ldrh	r3, [r3, #4]	@ movhi
 685 0060 9AB2     		uxth	r2, r3
 686 0062 BDF80C30 		ldrh	r3, [sp, #12]	@ movhi
 687 0066 6FEA0303 		mvn	r3, r3
 688 006a 9BB2     		uxth	r3, r3
 689 006c 02EA0303 		and	r3, r2, r3
 690 0070 9AB2     		uxth	r2, r3
 691 0072 019B     		ldr	r3, [sp, #4]
 692 0074 9A80     		strh	r2, [r3, #4]	@ movhi
 693              	.L25:
 694              		.loc 1 508 0
 695 0076 04B0     		add	sp, sp, #16
 696 0078 7047     		bx	lr
 697              		.cfi_endproc
 698              	.LFE63:
 699              		.size	SPI_I2S_ITConfig, .-SPI_I2S_ITConfig
 700              		.section	.text.SPI_I2S_DMACmd,"ax",%progbits
 701              		.align	2
 702              		.p2align 4,,15
 703              		.global	SPI_I2S_DMACmd
 704              		.thumb
 705              		.thumb_func
 706              		.type	SPI_I2S_DMACmd, %function
 707              	SPI_I2S_DMACmd:
 708              	.LFB64:
 709              		.loc 1 524 0
 710              		.cfi_startproc
 711              		@ args = 0, pretend = 0, frame = 8
 712              		@ frame_needed = 0, uses_anonymous_args = 0
 713              		@ link register save eliminated.
 714 0000 82B0     		sub	sp, sp, #8
 715              	.LCFI10:
 716              		.cfi_def_cfa_offset 8
 717 0002 0190     		str	r0, [sp, #4]
 718 0004 1346     		mov	r3, r2
 719 0006 0A46     		mov	r2, r1	@ movhi
 720 0008 ADF80220 		strh	r2, [sp, #2]	@ movhi
 721 000c 8DF80130 		strb	r3, [sp, #1]
 722              		.loc 1 529 0
 723 0010 9DF80130 		ldrb	r3, [sp, #1]	@ zero_extendqisi2
 724 0014 002B     		cmp	r3, #0
 725 0016 0AD0     		beq	.L29
 726              		.loc 1 532 0
 727 0018 019B     		ldr	r3, [sp, #4]
 728 001a 9B88     		ldrh	r3, [r3, #4]	@ movhi
 729 001c 9AB2     		uxth	r2, r3
 730 001e BDF80230 		ldrh	r3, [sp, #2]	@ movhi
 731 0022 42EA0303 		orr	r3, r2, r3
 732 0026 9AB2     		uxth	r2, r3
 733 0028 019B     		ldr	r3, [sp, #4]
 734 002a 9A80     		strh	r2, [r3, #4]	@ movhi
ARM GAS  C:\Users\z80\AppData\Local\Temp\ccqYjHyO.s 			page 14


 735 002c 0CE0     		b	.L28
 736              	.L29:
 737              		.loc 1 537 0
 738 002e 019B     		ldr	r3, [sp, #4]
 739 0030 9B88     		ldrh	r3, [r3, #4]	@ movhi
 740 0032 9AB2     		uxth	r2, r3
 741 0034 BDF80230 		ldrh	r3, [sp, #2]	@ movhi
 742 0038 6FEA0303 		mvn	r3, r3
 743 003c 9BB2     		uxth	r3, r3
 744 003e 02EA0303 		and	r3, r2, r3
 745 0042 9AB2     		uxth	r2, r3
 746 0044 019B     		ldr	r3, [sp, #4]
 747 0046 9A80     		strh	r2, [r3, #4]	@ movhi
 748              	.L28:
 749              		.loc 1 539 0
 750 0048 02B0     		add	sp, sp, #8
 751 004a 7047     		bx	lr
 752              		.cfi_endproc
 753              	.LFE64:
 754              		.size	SPI_I2S_DMACmd, .-SPI_I2S_DMACmd
 755 004c AFF30080 		.section	.text.SPI_I2S_SendData,"ax",%progbits
 756              		.align	2
 757              		.p2align 4,,15
 758              		.global	SPI_I2S_SendData
 759              		.thumb
 760              		.thumb_func
 761              		.type	SPI_I2S_SendData, %function
 762              	SPI_I2S_SendData:
 763              	.LFB65:
 764              		.loc 1 550 0
 765              		.cfi_startproc
 766              		@ args = 0, pretend = 0, frame = 8
 767              		@ frame_needed = 0, uses_anonymous_args = 0
 768              		@ link register save eliminated.
 769 0000 82B0     		sub	sp, sp, #8
 770              	.LCFI11:
 771              		.cfi_def_cfa_offset 8
 772 0002 0190     		str	r0, [sp, #4]
 773 0004 0B46     		mov	r3, r1
 774 0006 ADF80230 		strh	r3, [sp, #2]	@ movhi
 775              		.loc 1 555 0
 776 000a 019B     		ldr	r3, [sp, #4]
 777 000c BDF80220 		ldrh	r2, [sp, #2]	@ movhi
 778 0010 9A81     		strh	r2, [r3, #12]	@ movhi
 779              		.loc 1 556 0
 780 0012 02B0     		add	sp, sp, #8
 781 0014 7047     		bx	lr
 782              		.cfi_endproc
 783              	.LFE65:
 784              		.size	SPI_I2S_SendData, .-SPI_I2S_SendData
 785 0016 00BFAFF3 		.section	.text.SPI_I2S_ReceiveData,"ax",%progbits
 785      0080AFF3 
 785      0080
 786              		.align	2
 787              		.p2align 4,,15
 788              		.global	SPI_I2S_ReceiveData
 789              		.thumb
ARM GAS  C:\Users\z80\AppData\Local\Temp\ccqYjHyO.s 			page 15


 790              		.thumb_func
 791              		.type	SPI_I2S_ReceiveData, %function
 792              	SPI_I2S_ReceiveData:
 793              	.LFB66:
 794              		.loc 1 566 0
 795              		.cfi_startproc
 796              		@ args = 0, pretend = 0, frame = 8
 797              		@ frame_needed = 0, uses_anonymous_args = 0
 798              		@ link register save eliminated.
 799 0000 82B0     		sub	sp, sp, #8
 800              	.LCFI12:
 801              		.cfi_def_cfa_offset 8
 802 0002 0190     		str	r0, [sp, #4]
 803              		.loc 1 571 0
 804 0004 019B     		ldr	r3, [sp, #4]
 805 0006 9B89     		ldrh	r3, [r3, #12]	@ movhi
 806 0008 9BB2     		uxth	r3, r3
 807              		.loc 1 572 0
 808 000a 1846     		mov	r0, r3
 809 000c 02B0     		add	sp, sp, #8
 810 000e 7047     		bx	lr
 811              		.cfi_endproc
 812              	.LFE66:
 813              		.size	SPI_I2S_ReceiveData, .-SPI_I2S_ReceiveData
 814              		.section	.text.SPI_NSSInternalSoftwareConfig,"ax",%progbits
 815              		.align	2
 816              		.p2align 4,,15
 817              		.global	SPI_NSSInternalSoftwareConfig
 818              		.thumb
 819              		.thumb_func
 820              		.type	SPI_NSSInternalSoftwareConfig, %function
 821              	SPI_NSSInternalSoftwareConfig:
 822              	.LFB67:
 823              		.loc 1 584 0
 824              		.cfi_startproc
 825              		@ args = 0, pretend = 0, frame = 8
 826              		@ frame_needed = 0, uses_anonymous_args = 0
 827              		@ link register save eliminated.
 828 0000 82B0     		sub	sp, sp, #8
 829              	.LCFI13:
 830              		.cfi_def_cfa_offset 8
 831 0002 0190     		str	r0, [sp, #4]
 832 0004 0B46     		mov	r3, r1
 833 0006 ADF80230 		strh	r3, [sp, #2]	@ movhi
 834              		.loc 1 588 0
 835 000a BDF80220 		ldrh	r2, [sp, #2]
 836 000e 4FF6FF63 		movw	r3, #65279
 837 0012 9A42     		cmp	r2, r3
 838 0014 08D0     		beq	.L34
 839              		.loc 1 591 0
 840 0016 019B     		ldr	r3, [sp, #4]
 841 0018 1B88     		ldrh	r3, [r3, #0]	@ movhi
 842 001a 9BB2     		uxth	r3, r3
 843 001c 43F48073 		orr	r3, r3, #256
 844 0020 9AB2     		uxth	r2, r3
 845 0022 019B     		ldr	r3, [sp, #4]
 846 0024 1A80     		strh	r2, [r3, #0]	@ movhi
ARM GAS  C:\Users\z80\AppData\Local\Temp\ccqYjHyO.s 			page 16


 847 0026 07E0     		b	.L33
 848              	.L34:
 849              		.loc 1 596 0
 850 0028 019B     		ldr	r3, [sp, #4]
 851 002a 1B88     		ldrh	r3, [r3, #0]	@ movhi
 852 002c 9BB2     		uxth	r3, r3
 853 002e 23F48073 		bic	r3, r3, #256
 854 0032 9AB2     		uxth	r2, r3
 855 0034 019B     		ldr	r3, [sp, #4]
 856 0036 1A80     		strh	r2, [r3, #0]	@ movhi
 857              	.L33:
 858              		.loc 1 598 0
 859 0038 02B0     		add	sp, sp, #8
 860 003a 7047     		bx	lr
 861              		.cfi_endproc
 862              	.LFE67:
 863              		.size	SPI_NSSInternalSoftwareConfig, .-SPI_NSSInternalSoftwareConfig
 864 003c AFF30080 		.section	.text.SPI_SSOutputCmd,"ax",%progbits
 865              		.align	2
 866              		.p2align 4,,15
 867              		.global	SPI_SSOutputCmd
 868              		.thumb
 869              		.thumb_func
 870              		.type	SPI_SSOutputCmd, %function
 871              	SPI_SSOutputCmd:
 872              	.LFB68:
 873              		.loc 1 608 0
 874              		.cfi_startproc
 875              		@ args = 0, pretend = 0, frame = 8
 876              		@ frame_needed = 0, uses_anonymous_args = 0
 877              		@ link register save eliminated.
 878 0000 82B0     		sub	sp, sp, #8
 879              	.LCFI14:
 880              		.cfi_def_cfa_offset 8
 881 0002 0190     		str	r0, [sp, #4]
 882 0004 0B46     		mov	r3, r1
 883 0006 8DF80330 		strb	r3, [sp, #3]
 884              		.loc 1 612 0
 885 000a 9DF80330 		ldrb	r3, [sp, #3]	@ zero_extendqisi2
 886 000e 002B     		cmp	r3, #0
 887 0010 08D0     		beq	.L37
 888              		.loc 1 615 0
 889 0012 019B     		ldr	r3, [sp, #4]
 890 0014 9B88     		ldrh	r3, [r3, #4]	@ movhi
 891 0016 9BB2     		uxth	r3, r3
 892 0018 43F00403 		orr	r3, r3, #4
 893 001c 9AB2     		uxth	r2, r3
 894 001e 019B     		ldr	r3, [sp, #4]
 895 0020 9A80     		strh	r2, [r3, #4]	@ movhi
 896 0022 07E0     		b	.L36
 897              	.L37:
 898              		.loc 1 620 0
 899 0024 019B     		ldr	r3, [sp, #4]
 900 0026 9B88     		ldrh	r3, [r3, #4]	@ movhi
 901 0028 9BB2     		uxth	r3, r3
 902 002a 23F00403 		bic	r3, r3, #4
 903 002e 9AB2     		uxth	r2, r3
ARM GAS  C:\Users\z80\AppData\Local\Temp\ccqYjHyO.s 			page 17


 904 0030 019B     		ldr	r3, [sp, #4]
 905 0032 9A80     		strh	r2, [r3, #4]	@ movhi
 906              	.L36:
 907              		.loc 1 622 0
 908 0034 02B0     		add	sp, sp, #8
 909 0036 7047     		bx	lr
 910              		.cfi_endproc
 911              	.LFE68:
 912              		.size	SPI_SSOutputCmd, .-SPI_SSOutputCmd
 913 0038 AFF30080 		.section	.text.SPI_DataSizeConfig,"ax",%progbits
 913      AFF30080 
 914              		.align	2
 915              		.p2align 4,,15
 916              		.global	SPI_DataSizeConfig
 917              		.thumb
 918              		.thumb_func
 919              		.type	SPI_DataSizeConfig, %function
 920              	SPI_DataSizeConfig:
 921              	.LFB69:
 922              		.loc 1 634 0
 923              		.cfi_startproc
 924              		@ args = 0, pretend = 0, frame = 8
 925              		@ frame_needed = 0, uses_anonymous_args = 0
 926              		@ link register save eliminated.
 927 0000 82B0     		sub	sp, sp, #8
 928              	.LCFI15:
 929              		.cfi_def_cfa_offset 8
 930 0002 0190     		str	r0, [sp, #4]
 931 0004 0B46     		mov	r3, r1
 932 0006 ADF80230 		strh	r3, [sp, #2]	@ movhi
 933              		.loc 1 639 0
 934 000a 019B     		ldr	r3, [sp, #4]
 935 000c 1B88     		ldrh	r3, [r3, #0]	@ movhi
 936 000e 9BB2     		uxth	r3, r3
 937 0010 23F40063 		bic	r3, r3, #2048
 938 0014 9AB2     		uxth	r2, r3
 939 0016 019B     		ldr	r3, [sp, #4]
 940 0018 1A80     		strh	r2, [r3, #0]	@ movhi
 941              		.loc 1 641 0
 942 001a 019B     		ldr	r3, [sp, #4]
 943 001c 1B88     		ldrh	r3, [r3, #0]	@ movhi
 944 001e 9AB2     		uxth	r2, r3
 945 0020 BDF80230 		ldrh	r3, [sp, #2]	@ movhi
 946 0024 42EA0303 		orr	r3, r2, r3
 947 0028 9AB2     		uxth	r2, r3
 948 002a 019B     		ldr	r3, [sp, #4]
 949 002c 1A80     		strh	r2, [r3, #0]	@ movhi
 950              		.loc 1 642 0
 951 002e 02B0     		add	sp, sp, #8
 952 0030 7047     		bx	lr
 953              		.cfi_endproc
 954              	.LFE69:
 955              		.size	SPI_DataSizeConfig, .-SPI_DataSizeConfig
 956 0032 00BFAFF3 		.section	.text.SPI_TransmitCRC,"ax",%progbits
 956      0080AFF3 
 956      0080AFF3 
 956      0080
ARM GAS  C:\Users\z80\AppData\Local\Temp\ccqYjHyO.s 			page 18


 957              		.align	2
 958              		.p2align 4,,15
 959              		.global	SPI_TransmitCRC
 960              		.thumb
 961              		.thumb_func
 962              		.type	SPI_TransmitCRC, %function
 963              	SPI_TransmitCRC:
 964              	.LFB70:
 965              		.loc 1 650 0
 966              		.cfi_startproc
 967              		@ args = 0, pretend = 0, frame = 8
 968              		@ frame_needed = 0, uses_anonymous_args = 0
 969              		@ link register save eliminated.
 970 0000 82B0     		sub	sp, sp, #8
 971              	.LCFI16:
 972              		.cfi_def_cfa_offset 8
 973 0002 0190     		str	r0, [sp, #4]
 974              		.loc 1 655 0
 975 0004 019B     		ldr	r3, [sp, #4]
 976 0006 1B88     		ldrh	r3, [r3, #0]	@ movhi
 977 0008 9BB2     		uxth	r3, r3
 978 000a 43F48053 		orr	r3, r3, #4096
 979 000e 9AB2     		uxth	r2, r3
 980 0010 019B     		ldr	r3, [sp, #4]
 981 0012 1A80     		strh	r2, [r3, #0]	@ movhi
 982              		.loc 1 656 0
 983 0014 02B0     		add	sp, sp, #8
 984 0016 7047     		bx	lr
 985              		.cfi_endproc
 986              	.LFE70:
 987              		.size	SPI_TransmitCRC, .-SPI_TransmitCRC
 988 0018 AFF30080 		.section	.text.SPI_CalculateCRC,"ax",%progbits
 988      AFF30080 
 989              		.align	2
 990              		.p2align 4,,15
 991              		.global	SPI_CalculateCRC
 992              		.thumb
 993              		.thumb_func
 994              		.type	SPI_CalculateCRC, %function
 995              	SPI_CalculateCRC:
 996              	.LFB71:
 997              		.loc 1 666 0
 998              		.cfi_startproc
 999              		@ args = 0, pretend = 0, frame = 8
 1000              		@ frame_needed = 0, uses_anonymous_args = 0
 1001              		@ link register save eliminated.
 1002 0000 82B0     		sub	sp, sp, #8
 1003              	.LCFI17:
 1004              		.cfi_def_cfa_offset 8
 1005 0002 0190     		str	r0, [sp, #4]
 1006 0004 0B46     		mov	r3, r1
 1007 0006 8DF80330 		strb	r3, [sp, #3]
 1008              		.loc 1 670 0
 1009 000a 9DF80330 		ldrb	r3, [sp, #3]	@ zero_extendqisi2
 1010 000e 002B     		cmp	r3, #0
 1011 0010 08D0     		beq	.L42
 1012              		.loc 1 673 0
ARM GAS  C:\Users\z80\AppData\Local\Temp\ccqYjHyO.s 			page 19


 1013 0012 019B     		ldr	r3, [sp, #4]
 1014 0014 1B88     		ldrh	r3, [r3, #0]	@ movhi
 1015 0016 9BB2     		uxth	r3, r3
 1016 0018 43F40053 		orr	r3, r3, #8192
 1017 001c 9AB2     		uxth	r2, r3
 1018 001e 019B     		ldr	r3, [sp, #4]
 1019 0020 1A80     		strh	r2, [r3, #0]	@ movhi
 1020 0022 07E0     		b	.L41
 1021              	.L42:
 1022              		.loc 1 678 0
 1023 0024 019B     		ldr	r3, [sp, #4]
 1024 0026 1B88     		ldrh	r3, [r3, #0]	@ movhi
 1025 0028 9BB2     		uxth	r3, r3
 1026 002a 23F40053 		bic	r3, r3, #8192
 1027 002e 9AB2     		uxth	r2, r3
 1028 0030 019B     		ldr	r3, [sp, #4]
 1029 0032 1A80     		strh	r2, [r3, #0]	@ movhi
 1030              	.L41:
 1031              		.loc 1 680 0
 1032 0034 02B0     		add	sp, sp, #8
 1033 0036 7047     		bx	lr
 1034              		.cfi_endproc
 1035              	.LFE71:
 1036              		.size	SPI_CalculateCRC, .-SPI_CalculateCRC
 1037 0038 AFF30080 		.section	.text.SPI_GetCRC,"ax",%progbits
 1037      AFF30080 
 1038              		.align	2
 1039              		.p2align 4,,15
 1040              		.global	SPI_GetCRC
 1041              		.thumb
 1042              		.thumb_func
 1043              		.type	SPI_GetCRC, %function
 1044              	SPI_GetCRC:
 1045              	.LFB72:
 1046              		.loc 1 692 0
 1047              		.cfi_startproc
 1048              		@ args = 0, pretend = 0, frame = 16
 1049              		@ frame_needed = 0, uses_anonymous_args = 0
 1050              		@ link register save eliminated.
 1051 0000 84B0     		sub	sp, sp, #16
 1052              	.LCFI18:
 1053              		.cfi_def_cfa_offset 16
 1054 0002 0190     		str	r0, [sp, #4]
 1055 0004 0B46     		mov	r3, r1
 1056 0006 8DF80330 		strb	r3, [sp, #3]
 1057              		.loc 1 693 0
 1058 000a 4FF00003 		mov	r3, #0
 1059 000e ADF80E30 		strh	r3, [sp, #14]	@ movhi
 1060              		.loc 1 697 0
 1061 0012 9DF80330 		ldrb	r3, [sp, #3]	@ zero_extendqisi2
 1062 0016 012B     		cmp	r3, #1
 1063 0018 04D0     		beq	.L45
 1064              		.loc 1 700 0
 1065 001a 019B     		ldr	r3, [sp, #4]
 1066 001c 1B8B     		ldrh	r3, [r3, #24]	@ movhi
 1067 001e ADF80E30 		strh	r3, [sp, #14]	@ movhi
 1068 0022 03E0     		b	.L46
ARM GAS  C:\Users\z80\AppData\Local\Temp\ccqYjHyO.s 			page 20


 1069              	.L45:
 1070              		.loc 1 705 0
 1071 0024 019B     		ldr	r3, [sp, #4]
 1072 0026 9B8A     		ldrh	r3, [r3, #20]	@ movhi
 1073 0028 ADF80E30 		strh	r3, [sp, #14]	@ movhi
 1074              	.L46:
 1075              		.loc 1 708 0
 1076 002c BDF80E30 		ldrh	r3, [sp, #14]
 1077              		.loc 1 709 0
 1078 0030 1846     		mov	r0, r3
 1079 0032 04B0     		add	sp, sp, #16
 1080 0034 7047     		bx	lr
 1081              		.cfi_endproc
 1082              	.LFE72:
 1083              		.size	SPI_GetCRC, .-SPI_GetCRC
 1084 0036 00BFAFF3 		.section	.text.SPI_GetCRCPolynomial,"ax",%progbits
 1084      0080AFF3 
 1084      0080
 1085              		.align	2
 1086              		.p2align 4,,15
 1087              		.global	SPI_GetCRCPolynomial
 1088              		.thumb
 1089              		.thumb_func
 1090              		.type	SPI_GetCRCPolynomial, %function
 1091              	SPI_GetCRCPolynomial:
 1092              	.LFB73:
 1093              		.loc 1 717 0
 1094              		.cfi_startproc
 1095              		@ args = 0, pretend = 0, frame = 8
 1096              		@ frame_needed = 0, uses_anonymous_args = 0
 1097              		@ link register save eliminated.
 1098 0000 82B0     		sub	sp, sp, #8
 1099              	.LCFI19:
 1100              		.cfi_def_cfa_offset 8
 1101 0002 0190     		str	r0, [sp, #4]
 1102              		.loc 1 722 0
 1103 0004 019B     		ldr	r3, [sp, #4]
 1104 0006 1B8A     		ldrh	r3, [r3, #16]	@ movhi
 1105 0008 9BB2     		uxth	r3, r3
 1106              		.loc 1 723 0
 1107 000a 1846     		mov	r0, r3
 1108 000c 02B0     		add	sp, sp, #8
 1109 000e 7047     		bx	lr
 1110              		.cfi_endproc
 1111              	.LFE73:
 1112              		.size	SPI_GetCRCPolynomial, .-SPI_GetCRCPolynomial
 1113              		.section	.text.SPI_BiDirectionalLineConfig,"ax",%progbits
 1114              		.align	2
 1115              		.p2align 4,,15
 1116              		.global	SPI_BiDirectionalLineConfig
 1117              		.thumb
 1118              		.thumb_func
 1119              		.type	SPI_BiDirectionalLineConfig, %function
 1120              	SPI_BiDirectionalLineConfig:
 1121              	.LFB74:
 1122              		.loc 1 735 0
 1123              		.cfi_startproc
ARM GAS  C:\Users\z80\AppData\Local\Temp\ccqYjHyO.s 			page 21


 1124              		@ args = 0, pretend = 0, frame = 8
 1125              		@ frame_needed = 0, uses_anonymous_args = 0
 1126              		@ link register save eliminated.
 1127 0000 82B0     		sub	sp, sp, #8
 1128              	.LCFI20:
 1129              		.cfi_def_cfa_offset 8
 1130 0002 0190     		str	r0, [sp, #4]
 1131 0004 0B46     		mov	r3, r1
 1132 0006 ADF80230 		strh	r3, [sp, #2]	@ movhi
 1133              		.loc 1 739 0
 1134 000a BDF80230 		ldrh	r3, [sp, #2]
 1135 000e B3F5804F 		cmp	r3, #16384
 1136 0012 08D1     		bne	.L49
 1137              		.loc 1 742 0
 1138 0014 019B     		ldr	r3, [sp, #4]
 1139 0016 1B88     		ldrh	r3, [r3, #0]	@ movhi
 1140 0018 9BB2     		uxth	r3, r3
 1141 001a 43F48043 		orr	r3, r3, #16384
 1142 001e 9AB2     		uxth	r2, r3
 1143 0020 019B     		ldr	r3, [sp, #4]
 1144 0022 1A80     		strh	r2, [r3, #0]	@ movhi
 1145 0024 07E0     		b	.L48
 1146              	.L49:
 1147              		.loc 1 747 0
 1148 0026 019B     		ldr	r3, [sp, #4]
 1149 0028 1B88     		ldrh	r3, [r3, #0]	@ movhi
 1150 002a 9BB2     		uxth	r3, r3
 1151 002c 23F48043 		bic	r3, r3, #16384
 1152 0030 9AB2     		uxth	r2, r3
 1153 0032 019B     		ldr	r3, [sp, #4]
 1154 0034 1A80     		strh	r2, [r3, #0]	@ movhi
 1155              	.L48:
 1156              		.loc 1 749 0
 1157 0036 02B0     		add	sp, sp, #8
 1158 0038 7047     		bx	lr
 1159              		.cfi_endproc
 1160              	.LFE74:
 1161              		.size	SPI_BiDirectionalLineConfig, .-SPI_BiDirectionalLineConfig
 1162 003a 00BFAFF3 		.section	.text.SPI_I2S_GetFlagStatus,"ax",%progbits
 1162      0080
 1163              		.align	2
 1164              		.p2align 4,,15
 1165              		.global	SPI_I2S_GetFlagStatus
 1166              		.thumb
 1167              		.thumb_func
 1168              		.type	SPI_I2S_GetFlagStatus, %function
 1169              	SPI_I2S_GetFlagStatus:
 1170              	.LFB75:
 1171              		.loc 1 769 0
 1172              		.cfi_startproc
 1173              		@ args = 0, pretend = 0, frame = 16
 1174              		@ frame_needed = 0, uses_anonymous_args = 0
 1175              		@ link register save eliminated.
 1176 0000 84B0     		sub	sp, sp, #16
 1177              	.LCFI21:
 1178              		.cfi_def_cfa_offset 16
 1179 0002 0190     		str	r0, [sp, #4]
ARM GAS  C:\Users\z80\AppData\Local\Temp\ccqYjHyO.s 			page 22


 1180 0004 0B46     		mov	r3, r1
 1181 0006 ADF80230 		strh	r3, [sp, #2]	@ movhi
 1182              		.loc 1 770 0
 1183 000a 4FF00003 		mov	r3, #0
 1184 000e 8DF80F30 		strb	r3, [sp, #15]
 1185              		.loc 1 775 0
 1186 0012 019B     		ldr	r3, [sp, #4]
 1187 0014 1B89     		ldrh	r3, [r3, #8]	@ movhi
 1188 0016 9AB2     		uxth	r2, r3
 1189 0018 BDF80230 		ldrh	r3, [sp, #2]	@ movhi
 1190 001c 02EA0303 		and	r3, r2, r3
 1191 0020 9BB2     		uxth	r3, r3
 1192 0022 002B     		cmp	r3, #0
 1193 0024 04D0     		beq	.L52
 1194              		.loc 1 778 0
 1195 0026 4FF00103 		mov	r3, #1
 1196 002a 8DF80F30 		strb	r3, [sp, #15]
 1197 002e 03E0     		b	.L53
 1198              	.L52:
 1199              		.loc 1 783 0
 1200 0030 4FF00003 		mov	r3, #0
 1201 0034 8DF80F30 		strb	r3, [sp, #15]
 1202              	.L53:
 1203              		.loc 1 786 0
 1204 0038 9DF80F30 		ldrb	r3, [sp, #15]	@ zero_extendqisi2
 1205              		.loc 1 787 0
 1206 003c 1846     		mov	r0, r3
 1207 003e 04B0     		add	sp, sp, #16
 1208 0040 7047     		bx	lr
 1209              		.cfi_endproc
 1210              	.LFE75:
 1211              		.size	SPI_I2S_GetFlagStatus, .-SPI_I2S_GetFlagStatus
 1212 0042 00BFAFF3 		.section	.text.SPI_I2S_ClearFlag,"ax",%progbits
 1212      0080AFF3 
 1212      0080AFF3 
 1212      0080
 1213              		.align	2
 1214              		.p2align 4,,15
 1215              		.global	SPI_I2S_ClearFlag
 1216              		.thumb
 1217              		.thumb_func
 1218              		.type	SPI_I2S_ClearFlag, %function
 1219              	SPI_I2S_ClearFlag:
 1220              	.LFB76:
 1221              		.loc 1 807 0
 1222              		.cfi_startproc
 1223              		@ args = 0, pretend = 0, frame = 8
 1224              		@ frame_needed = 0, uses_anonymous_args = 0
 1225              		@ link register save eliminated.
 1226 0000 82B0     		sub	sp, sp, #8
 1227              	.LCFI22:
 1228              		.cfi_def_cfa_offset 8
 1229 0002 0190     		str	r0, [sp, #4]
 1230 0004 0B46     		mov	r3, r1
 1231 0006 ADF80230 		strh	r3, [sp, #2]	@ movhi
 1232              		.loc 1 813 0
 1233 000a BDF80230 		ldrh	r3, [sp, #2]	@ movhi
ARM GAS  C:\Users\z80\AppData\Local\Temp\ccqYjHyO.s 			page 23


 1234 000e 6FEA0303 		mvn	r3, r3
 1235 0012 9AB2     		uxth	r2, r3
 1236 0014 019B     		ldr	r3, [sp, #4]
 1237 0016 1A81     		strh	r2, [r3, #8]	@ movhi
 1238              		.loc 1 814 0
 1239 0018 02B0     		add	sp, sp, #8
 1240 001a 7047     		bx	lr
 1241              		.cfi_endproc
 1242              	.LFE76:
 1243              		.size	SPI_I2S_ClearFlag, .-SPI_I2S_ClearFlag
 1244 001c AFF30080 		.section	.text.SPI_I2S_GetITStatus,"ax",%progbits
 1245              		.align	2
 1246              		.p2align 4,,15
 1247              		.global	SPI_I2S_GetITStatus
 1248              		.thumb
 1249              		.thumb_func
 1250              		.type	SPI_I2S_GetITStatus, %function
 1251              	SPI_I2S_GetITStatus:
 1252              	.LFB77:
 1253              		.loc 1 832 0
 1254              		.cfi_startproc
 1255              		@ args = 0, pretend = 0, frame = 16
 1256              		@ frame_needed = 0, uses_anonymous_args = 0
 1257              		@ link register save eliminated.
 1258 0000 84B0     		sub	sp, sp, #16
 1259              	.LCFI23:
 1260              		.cfi_def_cfa_offset 16
 1261 0002 0190     		str	r0, [sp, #4]
 1262 0004 0B46     		mov	r3, r1
 1263 0006 8DF80330 		strb	r3, [sp, #3]
 1264              		.loc 1 833 0
 1265 000a 4FF00003 		mov	r3, #0
 1266 000e 8DF80F30 		strb	r3, [sp, #15]
 1267              		.loc 1 834 0
 1268 0012 4FF00003 		mov	r3, #0
 1269 0016 ADF80C30 		strh	r3, [sp, #12]	@ movhi
 1270 001a 4FF00003 		mov	r3, #0
 1271 001e ADF80A30 		strh	r3, [sp, #10]	@ movhi
 1272 0022 4FF00003 		mov	r3, #0
 1273 0026 ADF80830 		strh	r3, [sp, #8]	@ movhi
 1274              		.loc 1 841 0
 1275 002a 9DF80330 		ldrb	r3, [sp, #3]	@ zero_extendqisi2
 1276 002e 03F00F03 		and	r3, r3, #15
 1277 0032 4FF00102 		mov	r2, #1
 1278 0036 02FA03F3 		lsl	r3, r2, r3
 1279 003a ADF80C30 		strh	r3, [sp, #12]	@ movhi
 1280              		.loc 1 844 0
 1281 003e 9DF80330 		ldrb	r3, [sp, #3]	@ zero_extendqisi2
 1282 0042 4FEA1313 		lsr	r3, r3, #4
 1283 0046 DBB2     		uxtb	r3, r3
 1284 0048 ADF80A30 		strh	r3, [sp, #10]	@ movhi
 1285              		.loc 1 847 0
 1286 004c BDF80A30 		ldrh	r3, [sp, #10]
 1287 0050 4FF00102 		mov	r2, #1
 1288 0054 02FA03F3 		lsl	r3, r2, r3
 1289 0058 ADF80A30 		strh	r3, [sp, #10]	@ movhi
 1290              		.loc 1 850 0
ARM GAS  C:\Users\z80\AppData\Local\Temp\ccqYjHyO.s 			page 24


 1291 005c 019B     		ldr	r3, [sp, #4]
 1292 005e 9B88     		ldrh	r3, [r3, #4]	@ movhi
 1293 0060 9AB2     		uxth	r2, r3
 1294 0062 BDF80A30 		ldrh	r3, [sp, #10]	@ movhi
 1295 0066 02EA0303 		and	r3, r2, r3
 1296 006a ADF80830 		strh	r3, [sp, #8]	@ movhi
 1297              		.loc 1 853 0
 1298 006e 019B     		ldr	r3, [sp, #4]
 1299 0070 1B89     		ldrh	r3, [r3, #8]	@ movhi
 1300 0072 9AB2     		uxth	r2, r3
 1301 0074 BDF80C30 		ldrh	r3, [sp, #12]	@ movhi
 1302 0078 02EA0303 		and	r3, r2, r3
 1303 007c 9BB2     		uxth	r3, r3
 1304 007e 002B     		cmp	r3, #0
 1305 0080 08D0     		beq	.L56
 1306              		.loc 1 853 0 is_stmt 0 discriminator 1
 1307 0082 BDF80830 		ldrh	r3, [sp, #8]
 1308 0086 002B     		cmp	r3, #0
 1309 0088 04D0     		beq	.L56
 1310              		.loc 1 856 0 is_stmt 1
 1311 008a 4FF00103 		mov	r3, #1
 1312 008e 8DF80F30 		strb	r3, [sp, #15]
 1313 0092 03E0     		b	.L57
 1314              	.L56:
 1315              		.loc 1 861 0
 1316 0094 4FF00003 		mov	r3, #0
 1317 0098 8DF80F30 		strb	r3, [sp, #15]
 1318              	.L57:
 1319              		.loc 1 864 0
 1320 009c 9DF80F30 		ldrb	r3, [sp, #15]	@ zero_extendqisi2
 1321              		.loc 1 865 0
 1322 00a0 1846     		mov	r0, r3
 1323 00a2 04B0     		add	sp, sp, #16
 1324 00a4 7047     		bx	lr
 1325              		.cfi_endproc
 1326              	.LFE77:
 1327              		.size	SPI_I2S_GetITStatus, .-SPI_I2S_GetITStatus
 1328 00a6 00BFAFF3 		.section	.text.SPI_I2S_ClearITPendingBit,"ax",%progbits
 1328      0080AFF3 
 1328      0080
 1329              		.align	2
 1330              		.p2align 4,,15
 1331              		.global	SPI_I2S_ClearITPendingBit
 1332              		.thumb
 1333              		.thumb_func
 1334              		.type	SPI_I2S_ClearITPendingBit, %function
 1335              	SPI_I2S_ClearITPendingBit:
 1336              	.LFB78:
 1337              		.loc 1 886 0
 1338              		.cfi_startproc
 1339              		@ args = 0, pretend = 0, frame = 16
 1340              		@ frame_needed = 0, uses_anonymous_args = 0
 1341              		@ link register save eliminated.
 1342 0000 84B0     		sub	sp, sp, #16
 1343              	.LCFI24:
 1344              		.cfi_def_cfa_offset 16
 1345 0002 0190     		str	r0, [sp, #4]
ARM GAS  C:\Users\z80\AppData\Local\Temp\ccqYjHyO.s 			page 25


 1346 0004 0B46     		mov	r3, r1
 1347 0006 8DF80330 		strb	r3, [sp, #3]
 1348              		.loc 1 887 0
 1349 000a 4FF00003 		mov	r3, #0
 1350 000e ADF80E30 		strh	r3, [sp, #14]	@ movhi
 1351              		.loc 1 893 0
 1352 0012 9DF80330 		ldrb	r3, [sp, #3]	@ zero_extendqisi2
 1353 0016 03F00F03 		and	r3, r3, #15
 1354 001a 4FF00102 		mov	r2, #1
 1355 001e 02FA03F3 		lsl	r3, r2, r3
 1356 0022 ADF80E30 		strh	r3, [sp, #14]	@ movhi
 1357              		.loc 1 896 0
 1358 0026 BDF80E30 		ldrh	r3, [sp, #14]	@ movhi
 1359 002a 6FEA0303 		mvn	r3, r3
 1360 002e 9AB2     		uxth	r2, r3
 1361 0030 019B     		ldr	r3, [sp, #4]
 1362 0032 1A81     		strh	r2, [r3, #8]	@ movhi
 1363              		.loc 1 897 0
 1364 0034 04B0     		add	sp, sp, #16
 1365 0036 7047     		bx	lr
 1366              		.cfi_endproc
 1367              	.LFE78:
 1368              		.size	SPI_I2S_ClearITPendingBit, .-SPI_I2S_ClearITPendingBit
 1369 0038 AFF30080 		.text
 1369      AFF30080 
 1370              	.Letext0:
 1371              		.section	.debug_loc,"",%progbits
 1372              	.Ldebug_loc0:
 1373              	.LLST0:
 1374 0000 00000000 		.4byte	.LFB56
 1375 0004 02000000 		.4byte	.LCFI0
 1376 0008 0200     		.2byte	0x2
 1377 000a 7D       		.byte	0x7d
 1378 000b 00       		.sleb128 0
 1379 000c 02000000 		.4byte	.LCFI0
 1380 0010 04000000 		.4byte	.LCFI1
 1381 0014 0200     		.2byte	0x2
 1382 0016 7D       		.byte	0x7d
 1383 0017 04       		.sleb128 4
 1384 0018 04000000 		.4byte	.LCFI1
 1385 001c 80000000 		.4byte	.LFE56
 1386 0020 0200     		.2byte	0x2
 1387 0022 7D       		.byte	0x7d
 1388 0023 10       		.sleb128 16
 1389 0024 00000000 		.4byte	0x0
 1390 0028 00000000 		.4byte	0x0
 1391              	.LLST1:
 1392 002c 00000000 		.4byte	.LFB57
 1393 0030 02000000 		.4byte	.LCFI2
 1394 0034 0200     		.2byte	0x2
 1395 0036 7D       		.byte	0x7d
 1396 0037 00       		.sleb128 0
 1397 0038 02000000 		.4byte	.LCFI2
 1398 003c 9C000000 		.4byte	.LFE57
 1399 0040 0200     		.2byte	0x2
 1400 0042 7D       		.byte	0x7d
 1401 0043 10       		.sleb128 16
ARM GAS  C:\Users\z80\AppData\Local\Temp\ccqYjHyO.s 			page 26


 1402 0044 00000000 		.4byte	0x0
 1403 0048 00000000 		.4byte	0x0
 1404              	.LLST2:
 1405 004c 00000000 		.4byte	.LFB58
 1406 0050 02000000 		.4byte	.LCFI3
 1407 0054 0200     		.2byte	0x2
 1408 0056 7D       		.byte	0x7d
 1409 0057 00       		.sleb128 0
 1410 0058 02000000 		.4byte	.LCFI3
 1411 005c 04000000 		.4byte	.LCFI4
 1412 0060 0200     		.2byte	0x2
 1413 0062 7D       		.byte	0x7d
 1414 0063 04       		.sleb128 4
 1415 0064 04000000 		.4byte	.LCFI4
 1416 0068 CE010000 		.4byte	.LFE58
 1417 006c 0200     		.2byte	0x2
 1418 006e 7D       		.byte	0x7d
 1419 006f 38       		.sleb128 56
 1420 0070 00000000 		.4byte	0x0
 1421 0074 00000000 		.4byte	0x0
 1422              	.LLST3:
 1423 0078 00000000 		.4byte	.LFB59
 1424 007c 02000000 		.4byte	.LCFI5
 1425 0080 0200     		.2byte	0x2
 1426 0082 7D       		.byte	0x7d
 1427 0083 00       		.sleb128 0
 1428 0084 02000000 		.4byte	.LCFI5
 1429 0088 50000000 		.4byte	.LFE59
 1430 008c 0200     		.2byte	0x2
 1431 008e 7D       		.byte	0x7d
 1432 008f 08       		.sleb128 8
 1433 0090 00000000 		.4byte	0x0
 1434 0094 00000000 		.4byte	0x0
 1435              	.LLST4:
 1436 0098 00000000 		.4byte	.LFB60
 1437 009c 02000000 		.4byte	.LCFI6
 1438 00a0 0200     		.2byte	0x2
 1439 00a2 7D       		.byte	0x7d
 1440 00a3 00       		.sleb128 0
 1441 00a4 02000000 		.4byte	.LCFI6
 1442 00a8 38000000 		.4byte	.LFE60
 1443 00ac 0200     		.2byte	0x2
 1444 00ae 7D       		.byte	0x7d
 1445 00af 08       		.sleb128 8
 1446 00b0 00000000 		.4byte	0x0
 1447 00b4 00000000 		.4byte	0x0
 1448              	.LLST5:
 1449 00b8 00000000 		.4byte	.LFB61
 1450 00bc 02000000 		.4byte	.LCFI7
 1451 00c0 0200     		.2byte	0x2
 1452 00c2 7D       		.byte	0x7d
 1453 00c3 00       		.sleb128 0
 1454 00c4 02000000 		.4byte	.LCFI7
 1455 00c8 38000000 		.4byte	.LFE61
 1456 00cc 0200     		.2byte	0x2
 1457 00ce 7D       		.byte	0x7d
 1458 00cf 08       		.sleb128 8
ARM GAS  C:\Users\z80\AppData\Local\Temp\ccqYjHyO.s 			page 27


 1459 00d0 00000000 		.4byte	0x0
 1460 00d4 00000000 		.4byte	0x0
 1461              	.LLST6:
 1462 00d8 00000000 		.4byte	.LFB62
 1463 00dc 02000000 		.4byte	.LCFI8
 1464 00e0 0200     		.2byte	0x2
 1465 00e2 7D       		.byte	0x7d
 1466 00e3 00       		.sleb128 0
 1467 00e4 02000000 		.4byte	.LCFI8
 1468 00e8 38000000 		.4byte	.LFE62
 1469 00ec 0200     		.2byte	0x2
 1470 00ee 7D       		.byte	0x7d
 1471 00ef 08       		.sleb128 8
 1472 00f0 00000000 		.4byte	0x0
 1473 00f4 00000000 		.4byte	0x0
 1474              	.LLST7:
 1475 00f8 00000000 		.4byte	.LFB63
 1476 00fc 02000000 		.4byte	.LCFI9
 1477 0100 0200     		.2byte	0x2
 1478 0102 7D       		.byte	0x7d
 1479 0103 00       		.sleb128 0
 1480 0104 02000000 		.4byte	.LCFI9
 1481 0108 7A000000 		.4byte	.LFE63
 1482 010c 0200     		.2byte	0x2
 1483 010e 7D       		.byte	0x7d
 1484 010f 10       		.sleb128 16
 1485 0110 00000000 		.4byte	0x0
 1486 0114 00000000 		.4byte	0x0
 1487              	.LLST8:
 1488 0118 00000000 		.4byte	.LFB64
 1489 011c 02000000 		.4byte	.LCFI10
 1490 0120 0200     		.2byte	0x2
 1491 0122 7D       		.byte	0x7d
 1492 0123 00       		.sleb128 0
 1493 0124 02000000 		.4byte	.LCFI10
 1494 0128 4C000000 		.4byte	.LFE64
 1495 012c 0200     		.2byte	0x2
 1496 012e 7D       		.byte	0x7d
 1497 012f 08       		.sleb128 8
 1498 0130 00000000 		.4byte	0x0
 1499 0134 00000000 		.4byte	0x0
 1500              	.LLST9:
 1501 0138 00000000 		.4byte	.LFB65
 1502 013c 02000000 		.4byte	.LCFI11
 1503 0140 0200     		.2byte	0x2
 1504 0142 7D       		.byte	0x7d
 1505 0143 00       		.sleb128 0
 1506 0144 02000000 		.4byte	.LCFI11
 1507 0148 16000000 		.4byte	.LFE65
 1508 014c 0200     		.2byte	0x2
 1509 014e 7D       		.byte	0x7d
 1510 014f 08       		.sleb128 8
 1511 0150 00000000 		.4byte	0x0
 1512 0154 00000000 		.4byte	0x0
 1513              	.LLST10:
 1514 0158 00000000 		.4byte	.LFB66
 1515 015c 02000000 		.4byte	.LCFI12
ARM GAS  C:\Users\z80\AppData\Local\Temp\ccqYjHyO.s 			page 28


 1516 0160 0200     		.2byte	0x2
 1517 0162 7D       		.byte	0x7d
 1518 0163 00       		.sleb128 0
 1519 0164 02000000 		.4byte	.LCFI12
 1520 0168 10000000 		.4byte	.LFE66
 1521 016c 0200     		.2byte	0x2
 1522 016e 7D       		.byte	0x7d
 1523 016f 08       		.sleb128 8
 1524 0170 00000000 		.4byte	0x0
 1525 0174 00000000 		.4byte	0x0
 1526              	.LLST11:
 1527 0178 00000000 		.4byte	.LFB67
 1528 017c 02000000 		.4byte	.LCFI13
 1529 0180 0200     		.2byte	0x2
 1530 0182 7D       		.byte	0x7d
 1531 0183 00       		.sleb128 0
 1532 0184 02000000 		.4byte	.LCFI13
 1533 0188 3C000000 		.4byte	.LFE67
 1534 018c 0200     		.2byte	0x2
 1535 018e 7D       		.byte	0x7d
 1536 018f 08       		.sleb128 8
 1537 0190 00000000 		.4byte	0x0
 1538 0194 00000000 		.4byte	0x0
 1539              	.LLST12:
 1540 0198 00000000 		.4byte	.LFB68
 1541 019c 02000000 		.4byte	.LCFI14
 1542 01a0 0200     		.2byte	0x2
 1543 01a2 7D       		.byte	0x7d
 1544 01a3 00       		.sleb128 0
 1545 01a4 02000000 		.4byte	.LCFI14
 1546 01a8 38000000 		.4byte	.LFE68
 1547 01ac 0200     		.2byte	0x2
 1548 01ae 7D       		.byte	0x7d
 1549 01af 08       		.sleb128 8
 1550 01b0 00000000 		.4byte	0x0
 1551 01b4 00000000 		.4byte	0x0
 1552              	.LLST13:
 1553 01b8 00000000 		.4byte	.LFB69
 1554 01bc 02000000 		.4byte	.LCFI15
 1555 01c0 0200     		.2byte	0x2
 1556 01c2 7D       		.byte	0x7d
 1557 01c3 00       		.sleb128 0
 1558 01c4 02000000 		.4byte	.LCFI15
 1559 01c8 32000000 		.4byte	.LFE69
 1560 01cc 0200     		.2byte	0x2
 1561 01ce 7D       		.byte	0x7d
 1562 01cf 08       		.sleb128 8
 1563 01d0 00000000 		.4byte	0x0
 1564 01d4 00000000 		.4byte	0x0
 1565              	.LLST14:
 1566 01d8 00000000 		.4byte	.LFB70
 1567 01dc 02000000 		.4byte	.LCFI16
 1568 01e0 0200     		.2byte	0x2
 1569 01e2 7D       		.byte	0x7d
 1570 01e3 00       		.sleb128 0
 1571 01e4 02000000 		.4byte	.LCFI16
 1572 01e8 18000000 		.4byte	.LFE70
ARM GAS  C:\Users\z80\AppData\Local\Temp\ccqYjHyO.s 			page 29


 1573 01ec 0200     		.2byte	0x2
 1574 01ee 7D       		.byte	0x7d
 1575 01ef 08       		.sleb128 8
 1576 01f0 00000000 		.4byte	0x0
 1577 01f4 00000000 		.4byte	0x0
 1578              	.LLST15:
 1579 01f8 00000000 		.4byte	.LFB71
 1580 01fc 02000000 		.4byte	.LCFI17
 1581 0200 0200     		.2byte	0x2
 1582 0202 7D       		.byte	0x7d
 1583 0203 00       		.sleb128 0
 1584 0204 02000000 		.4byte	.LCFI17
 1585 0208 38000000 		.4byte	.LFE71
 1586 020c 0200     		.2byte	0x2
 1587 020e 7D       		.byte	0x7d
 1588 020f 08       		.sleb128 8
 1589 0210 00000000 		.4byte	0x0
 1590 0214 00000000 		.4byte	0x0
 1591              	.LLST16:
 1592 0218 00000000 		.4byte	.LFB72
 1593 021c 02000000 		.4byte	.LCFI18
 1594 0220 0200     		.2byte	0x2
 1595 0222 7D       		.byte	0x7d
 1596 0223 00       		.sleb128 0
 1597 0224 02000000 		.4byte	.LCFI18
 1598 0228 36000000 		.4byte	.LFE72
 1599 022c 0200     		.2byte	0x2
 1600 022e 7D       		.byte	0x7d
 1601 022f 10       		.sleb128 16
 1602 0230 00000000 		.4byte	0x0
 1603 0234 00000000 		.4byte	0x0
 1604              	.LLST17:
 1605 0238 00000000 		.4byte	.LFB73
 1606 023c 02000000 		.4byte	.LCFI19
 1607 0240 0200     		.2byte	0x2
 1608 0242 7D       		.byte	0x7d
 1609 0243 00       		.sleb128 0
 1610 0244 02000000 		.4byte	.LCFI19
 1611 0248 10000000 		.4byte	.LFE73
 1612 024c 0200     		.2byte	0x2
 1613 024e 7D       		.byte	0x7d
 1614 024f 08       		.sleb128 8
 1615 0250 00000000 		.4byte	0x0
 1616 0254 00000000 		.4byte	0x0
 1617              	.LLST18:
 1618 0258 00000000 		.4byte	.LFB74
 1619 025c 02000000 		.4byte	.LCFI20
 1620 0260 0200     		.2byte	0x2
 1621 0262 7D       		.byte	0x7d
 1622 0263 00       		.sleb128 0
 1623 0264 02000000 		.4byte	.LCFI20
 1624 0268 3A000000 		.4byte	.LFE74
 1625 026c 0200     		.2byte	0x2
 1626 026e 7D       		.byte	0x7d
 1627 026f 08       		.sleb128 8
 1628 0270 00000000 		.4byte	0x0
 1629 0274 00000000 		.4byte	0x0
ARM GAS  C:\Users\z80\AppData\Local\Temp\ccqYjHyO.s 			page 30


 1630              	.LLST19:
 1631 0278 00000000 		.4byte	.LFB75
 1632 027c 02000000 		.4byte	.LCFI21
 1633 0280 0200     		.2byte	0x2
 1634 0282 7D       		.byte	0x7d
 1635 0283 00       		.sleb128 0
 1636 0284 02000000 		.4byte	.LCFI21
 1637 0288 42000000 		.4byte	.LFE75
 1638 028c 0200     		.2byte	0x2
 1639 028e 7D       		.byte	0x7d
 1640 028f 10       		.sleb128 16
 1641 0290 00000000 		.4byte	0x0
 1642 0294 00000000 		.4byte	0x0
 1643              	.LLST20:
 1644 0298 00000000 		.4byte	.LFB76
 1645 029c 02000000 		.4byte	.LCFI22
 1646 02a0 0200     		.2byte	0x2
 1647 02a2 7D       		.byte	0x7d
 1648 02a3 00       		.sleb128 0
 1649 02a4 02000000 		.4byte	.LCFI22
 1650 02a8 1C000000 		.4byte	.LFE76
 1651 02ac 0200     		.2byte	0x2
 1652 02ae 7D       		.byte	0x7d
 1653 02af 08       		.sleb128 8
 1654 02b0 00000000 		.4byte	0x0
 1655 02b4 00000000 		.4byte	0x0
 1656              	.LLST21:
 1657 02b8 00000000 		.4byte	.LFB77
 1658 02bc 02000000 		.4byte	.LCFI23
 1659 02c0 0200     		.2byte	0x2
 1660 02c2 7D       		.byte	0x7d
 1661 02c3 00       		.sleb128 0
 1662 02c4 02000000 		.4byte	.LCFI23
 1663 02c8 A6000000 		.4byte	.LFE77
 1664 02cc 0200     		.2byte	0x2
 1665 02ce 7D       		.byte	0x7d
 1666 02cf 10       		.sleb128 16
 1667 02d0 00000000 		.4byte	0x0
 1668 02d4 00000000 		.4byte	0x0
 1669              	.LLST22:
 1670 02d8 00000000 		.4byte	.LFB78
 1671 02dc 02000000 		.4byte	.LCFI24
 1672 02e0 0200     		.2byte	0x2
 1673 02e2 7D       		.byte	0x7d
 1674 02e3 00       		.sleb128 0
 1675 02e4 02000000 		.4byte	.LCFI24
 1676 02e8 38000000 		.4byte	.LFE78
 1677 02ec 0200     		.2byte	0x2
 1678 02ee 7D       		.byte	0x7d
 1679 02ef 10       		.sleb128 16
 1680 02f0 00000000 		.4byte	0x0
 1681 02f4 00000000 		.4byte	0x0
 1682              		.file 2 "c:/programs/yagarto/lib/gcc/../../arm-none-eabi/sys-include/stdint.h"
 1683              		.file 3 "../chibios_2.6.3/os/hal/platforms/STM32F1xx/stm32f10x.h"
 1684              		.file 4 "stdperiph/stm32f10x_spi.h"
 1685              		.file 5 "stdperiph/stm32f10x_rcc.h"
 1686              		.file 6 "../chibios_2.6.3/os/ports/common/ARMCMx/CMSIS/include/core_cm3.h"
ARM GAS  C:\Users\z80\AppData\Local\Temp\ccqYjHyO.s 			page 31


 1687              		.section	.debug_info
 1688 0000 7F090000 		.4byte	0x97f
 1689 0004 0200     		.2byte	0x2
 1690 0006 00000000 		.4byte	.Ldebug_abbrev0
 1691 000a 04       		.byte	0x4
 1692 000b 01       		.uleb128 0x1
 1693 000c 69040000 		.4byte	.LASF102
 1694 0010 01       		.byte	0x1
 1695 0011 09020000 		.4byte	.LASF103
 1696 0015 9F010000 		.4byte	.LASF104
 1697 0019 00000000 		.4byte	0x0
 1698 001d 00000000 		.4byte	0x0
 1699 0021 00000000 		.4byte	.Ldebug_ranges0+0x0
 1700 0025 00000000 		.4byte	.Ldebug_line0
 1701 0029 02       		.uleb128 0x2
 1702 002a 01       		.byte	0x1
 1703 002b 06       		.byte	0x6
 1704 002c AE020000 		.4byte	.LASF0
 1705 0030 03       		.uleb128 0x3
 1706 0031 2C010000 		.4byte	.LASF3
 1707 0035 02       		.byte	0x2
 1708 0036 2A       		.byte	0x2a
 1709 0037 3B000000 		.4byte	0x3b
 1710 003b 02       		.uleb128 0x2
 1711 003c 01       		.byte	0x1
 1712 003d 08       		.byte	0x8
 1713 003e 82020000 		.4byte	.LASF1
 1714 0042 02       		.uleb128 0x2
 1715 0043 02       		.byte	0x2
 1716 0044 05       		.byte	0x5
 1717 0045 FB000000 		.4byte	.LASF2
 1718 0049 03       		.uleb128 0x3
 1719 004a 0D030000 		.4byte	.LASF4
 1720 004e 02       		.byte	0x2
 1721 004f 36       		.byte	0x36
 1722 0050 54000000 		.4byte	0x54
 1723 0054 02       		.uleb128 0x2
 1724 0055 02       		.byte	0x2
 1725 0056 07       		.byte	0x7
 1726 0057 3C030000 		.4byte	.LASF5
 1727 005b 03       		.uleb128 0x3
 1728 005c 67030000 		.4byte	.LASF6
 1729 0060 02       		.byte	0x2
 1730 0061 4F       		.byte	0x4f
 1731 0062 66000000 		.4byte	0x66
 1732 0066 02       		.uleb128 0x2
 1733 0067 04       		.byte	0x4
 1734 0068 05       		.byte	0x5
 1735 0069 5E030000 		.4byte	.LASF7
 1736 006d 03       		.uleb128 0x3
 1737 006e EF020000 		.4byte	.LASF8
 1738 0072 02       		.byte	0x2
 1739 0073 50       		.byte	0x50
 1740 0074 78000000 		.4byte	0x78
 1741 0078 02       		.uleb128 0x2
 1742 0079 04       		.byte	0x4
 1743 007a 07       		.byte	0x7
ARM GAS  C:\Users\z80\AppData\Local\Temp\ccqYjHyO.s 			page 32


 1744 007b 2A030000 		.4byte	.LASF9
 1745 007f 02       		.uleb128 0x2
 1746 0080 08       		.byte	0x8
 1747 0081 05       		.byte	0x5
 1748 0082 AC000000 		.4byte	.LASF10
 1749 0086 02       		.uleb128 0x2
 1750 0087 08       		.byte	0x8
 1751 0088 07       		.byte	0x7
 1752 0089 D8020000 		.4byte	.LASF11
 1753 008d 04       		.uleb128 0x4
 1754 008e 04       		.byte	0x4
 1755 008f 05       		.byte	0x5
 1756 0090 696E7400 		.ascii	"int\000"
 1757 0094 02       		.uleb128 0x2
 1758 0095 04       		.byte	0x4
 1759 0096 07       		.byte	0x7
 1760 0097 00030000 		.4byte	.LASF12
 1761 009b 05       		.uleb128 0x5
 1762 009c 04       		.byte	0x4
 1763 009d 07       		.byte	0x7
 1764 009e 06       		.uleb128 0x6
 1765 009f 49000000 		.4byte	0x49
 1766 00a3 06       		.uleb128 0x6
 1767 00a4 5B000000 		.4byte	0x5b
 1768 00a8 07       		.uleb128 0x7
 1769 00a9 01       		.byte	0x1
 1770 00aa 03       		.byte	0x3
 1771 00ab 1602     		.2byte	0x216
 1772 00ad BE000000 		.4byte	0xbe
 1773 00b1 08       		.uleb128 0x8
 1774 00b2 9F040000 		.4byte	.LASF13
 1775 00b6 00       		.sleb128 0
 1776 00b7 09       		.uleb128 0x9
 1777 00b8 53455400 		.ascii	"SET\000"
 1778 00bc 01       		.sleb128 1
 1779 00bd 00       		.byte	0x0
 1780 00be 0A       		.uleb128 0xa
 1781 00bf 23020000 		.4byte	.LASF14
 1782 00c3 03       		.byte	0x3
 1783 00c4 1602     		.2byte	0x216
 1784 00c6 A8000000 		.4byte	0xa8
 1785 00ca 0A       		.uleb128 0xa
 1786 00cb 26000000 		.4byte	.LASF15
 1787 00cf 03       		.byte	0x3
 1788 00d0 1602     		.2byte	0x216
 1789 00d2 A8000000 		.4byte	0xa8
 1790 00d6 07       		.uleb128 0x7
 1791 00d7 01       		.byte	0x1
 1792 00d8 03       		.byte	0x3
 1793 00d9 1802     		.2byte	0x218
 1794 00db EC000000 		.4byte	0xec
 1795 00df 08       		.uleb128 0x8
 1796 00e0 62010000 		.4byte	.LASF16
 1797 00e4 00       		.sleb128 0
 1798 00e5 08       		.uleb128 0x8
 1799 00e6 3D050000 		.4byte	.LASF17
 1800 00ea 01       		.sleb128 1
ARM GAS  C:\Users\z80\AppData\Local\Temp\ccqYjHyO.s 			page 33


 1801 00eb 00       		.byte	0x0
 1802 00ec 0A       		.uleb128 0xa
 1803 00ed 59040000 		.4byte	.LASF18
 1804 00f1 03       		.byte	0x3
 1805 00f2 1802     		.2byte	0x218
 1806 00f4 D6000000 		.4byte	0xd6
 1807 00f8 0B       		.uleb128 0xb
 1808 00f9 24       		.byte	0x24
 1809 00fa 03       		.byte	0x3
 1810 00fb 9704     		.2byte	0x497
 1811 00fd 0E020000 		.4byte	0x20e
 1812 0101 0C       		.uleb128 0xc
 1813 0102 43523100 		.ascii	"CR1\000"
 1814 0106 03       		.byte	0x3
 1815 0107 9904     		.2byte	0x499
 1816 0109 9E000000 		.4byte	0x9e
 1817 010d 02       		.byte	0x2
 1818 010e 23       		.byte	0x23
 1819 010f 00       		.uleb128 0x0
 1820 0110 0D       		.uleb128 0xd
 1821 0111 FC030000 		.4byte	.LASF19
 1822 0115 03       		.byte	0x3
 1823 0116 9A04     		.2byte	0x49a
 1824 0118 49000000 		.4byte	0x49
 1825 011c 02       		.byte	0x2
 1826 011d 23       		.byte	0x23
 1827 011e 02       		.uleb128 0x2
 1828 011f 0C       		.uleb128 0xc
 1829 0120 43523200 		.ascii	"CR2\000"
 1830 0124 03       		.byte	0x3
 1831 0125 9B04     		.2byte	0x49b
 1832 0127 9E000000 		.4byte	0x9e
 1833 012b 02       		.byte	0x2
 1834 012c 23       		.byte	0x23
 1835 012d 04       		.uleb128 0x4
 1836 012e 0D       		.uleb128 0xd
 1837 012f 06040000 		.4byte	.LASF20
 1838 0133 03       		.byte	0x3
 1839 0134 9C04     		.2byte	0x49c
 1840 0136 49000000 		.4byte	0x49
 1841 013a 02       		.byte	0x2
 1842 013b 23       		.byte	0x23
 1843 013c 06       		.uleb128 0x6
 1844 013d 0C       		.uleb128 0xc
 1845 013e 535200   		.ascii	"SR\000"
 1846 0141 03       		.byte	0x3
 1847 0142 9D04     		.2byte	0x49d
 1848 0144 9E000000 		.4byte	0x9e
 1849 0148 02       		.byte	0x2
 1850 0149 23       		.byte	0x23
 1851 014a 08       		.uleb128 0x8
 1852 014b 0D       		.uleb128 0xd
 1853 014c 10040000 		.4byte	.LASF21
 1854 0150 03       		.byte	0x3
 1855 0151 9E04     		.2byte	0x49e
 1856 0153 49000000 		.4byte	0x49
 1857 0157 02       		.byte	0x2
ARM GAS  C:\Users\z80\AppData\Local\Temp\ccqYjHyO.s 			page 34


 1858 0158 23       		.byte	0x23
 1859 0159 0A       		.uleb128 0xa
 1860 015a 0C       		.uleb128 0xc
 1861 015b 445200   		.ascii	"DR\000"
 1862 015e 03       		.byte	0x3
 1863 015f 9F04     		.2byte	0x49f
 1864 0161 9E000000 		.4byte	0x9e
 1865 0165 02       		.byte	0x2
 1866 0166 23       		.byte	0x23
 1867 0167 0C       		.uleb128 0xc
 1868 0168 0D       		.uleb128 0xd
 1869 0169 22010000 		.4byte	.LASF22
 1870 016d 03       		.byte	0x3
 1871 016e A004     		.2byte	0x4a0
 1872 0170 49000000 		.4byte	0x49
 1873 0174 02       		.byte	0x2
 1874 0175 23       		.byte	0x23
 1875 0176 0E       		.uleb128 0xe
 1876 0177 0D       		.uleb128 0xd
 1877 0178 4F030000 		.4byte	.LASF23
 1878 017c 03       		.byte	0x3
 1879 017d A104     		.2byte	0x4a1
 1880 017f 9E000000 		.4byte	0x9e
 1881 0183 02       		.byte	0x2
 1882 0184 23       		.byte	0x23
 1883 0185 10       		.uleb128 0x10
 1884 0186 0D       		.uleb128 0xd
 1885 0187 22040000 		.4byte	.LASF24
 1886 018b 03       		.byte	0x3
 1887 018c A204     		.2byte	0x4a2
 1888 018e 49000000 		.4byte	0x49
 1889 0192 02       		.byte	0x2
 1890 0193 23       		.byte	0x23
 1891 0194 12       		.uleb128 0x12
 1892 0195 0D       		.uleb128 0xd
 1893 0196 1B010000 		.4byte	.LASF25
 1894 019a 03       		.byte	0x3
 1895 019b A304     		.2byte	0x4a3
 1896 019d 9E000000 		.4byte	0x9e
 1897 01a1 02       		.byte	0x2
 1898 01a2 23       		.byte	0x23
 1899 01a3 14       		.uleb128 0x14
 1900 01a4 0D       		.uleb128 0xd
 1901 01a5 2C040000 		.4byte	.LASF26
 1902 01a9 03       		.byte	0x3
 1903 01aa A404     		.2byte	0x4a4
 1904 01ac 49000000 		.4byte	0x49
 1905 01b0 02       		.byte	0x2
 1906 01b1 23       		.byte	0x23
 1907 01b2 16       		.uleb128 0x16
 1908 01b3 0D       		.uleb128 0xd
 1909 01b4 F4000000 		.4byte	.LASF27
 1910 01b8 03       		.byte	0x3
 1911 01b9 A504     		.2byte	0x4a5
 1912 01bb 9E000000 		.4byte	0x9e
 1913 01bf 02       		.byte	0x2
 1914 01c0 23       		.byte	0x23
ARM GAS  C:\Users\z80\AppData\Local\Temp\ccqYjHyO.s 			page 35


 1915 01c1 18       		.uleb128 0x18
 1916 01c2 0D       		.uleb128 0xd
 1917 01c3 36040000 		.4byte	.LASF28
 1918 01c7 03       		.byte	0x3
 1919 01c8 A604     		.2byte	0x4a6
 1920 01ca 49000000 		.4byte	0x49
 1921 01ce 02       		.byte	0x2
 1922 01cf 23       		.byte	0x23
 1923 01d0 1A       		.uleb128 0x1a
 1924 01d1 0D       		.uleb128 0xd
 1925 01d2 F8020000 		.4byte	.LASF29
 1926 01d6 03       		.byte	0x3
 1927 01d7 A704     		.2byte	0x4a7
 1928 01d9 9E000000 		.4byte	0x9e
 1929 01dd 02       		.byte	0x2
 1930 01de 23       		.byte	0x23
 1931 01df 1C       		.uleb128 0x1c
 1932 01e0 0D       		.uleb128 0xd
 1933 01e1 40010000 		.4byte	.LASF30
 1934 01e5 03       		.byte	0x3
 1935 01e6 A804     		.2byte	0x4a8
 1936 01e8 49000000 		.4byte	0x49
 1937 01ec 02       		.byte	0x2
 1938 01ed 23       		.byte	0x23
 1939 01ee 1E       		.uleb128 0x1e
 1940 01ef 0D       		.uleb128 0xd
 1941 01f0 1E050000 		.4byte	.LASF31
 1942 01f4 03       		.byte	0x3
 1943 01f5 A904     		.2byte	0x4a9
 1944 01f7 9E000000 		.4byte	0x9e
 1945 01fb 02       		.byte	0x2
 1946 01fc 23       		.byte	0x23
 1947 01fd 20       		.uleb128 0x20
 1948 01fe 0D       		.uleb128 0xd
 1949 01ff 4F040000 		.4byte	.LASF32
 1950 0203 03       		.byte	0x3
 1951 0204 AA04     		.2byte	0x4aa
 1952 0206 49000000 		.4byte	0x49
 1953 020a 02       		.byte	0x2
 1954 020b 23       		.byte	0x23
 1955 020c 22       		.uleb128 0x22
 1956 020d 00       		.byte	0x0
 1957 020e 0A       		.uleb128 0xa
 1958 020f 80030000 		.4byte	.LASF33
 1959 0213 03       		.byte	0x3
 1960 0214 AB04     		.2byte	0x4ab
 1961 0216 F8000000 		.4byte	0xf8
 1962 021a 0E       		.uleb128 0xe
 1963 021b 12       		.byte	0x12
 1964 021c 04       		.byte	0x4
 1965 021d 32       		.byte	0x32
 1966 021e A1020000 		.4byte	0x2a1
 1967 0222 0F       		.uleb128 0xf
 1968 0223 18000000 		.4byte	.LASF34
 1969 0227 04       		.byte	0x4
 1970 0228 34       		.byte	0x34
 1971 0229 49000000 		.4byte	0x49
ARM GAS  C:\Users\z80\AppData\Local\Temp\ccqYjHyO.s 			page 36


 1972 022d 02       		.byte	0x2
 1973 022e 23       		.byte	0x23
 1974 022f 00       		.uleb128 0x0
 1975 0230 0F       		.uleb128 0xf
 1976 0231 55030000 		.4byte	.LASF35
 1977 0235 04       		.byte	0x4
 1978 0236 37       		.byte	0x37
 1979 0237 49000000 		.4byte	0x49
 1980 023b 02       		.byte	0x2
 1981 023c 23       		.byte	0x23
 1982 023d 02       		.uleb128 0x2
 1983 023e 0F       		.uleb128 0xf
 1984 023f 4A000000 		.4byte	.LASF36
 1985 0243 04       		.byte	0x4
 1986 0244 3A       		.byte	0x3a
 1987 0245 49000000 		.4byte	0x49
 1988 0249 02       		.byte	0x2
 1989 024a 23       		.byte	0x23
 1990 024b 04       		.uleb128 0x4
 1991 024c 0F       		.uleb128 0xf
 1992 024d F0040000 		.4byte	.LASF37
 1993 0251 04       		.byte	0x4
 1994 0252 3D       		.byte	0x3d
 1995 0253 49000000 		.4byte	0x49
 1996 0257 02       		.byte	0x2
 1997 0258 23       		.byte	0x23
 1998 0259 06       		.uleb128 0x6
 1999 025a 0F       		.uleb128 0xf
 2000 025b 0F000000 		.4byte	.LASF38
 2001 025f 04       		.byte	0x4
 2002 0260 40       		.byte	0x40
 2003 0261 49000000 		.4byte	0x49
 2004 0265 02       		.byte	0x2
 2005 0266 23       		.byte	0x23
 2006 0267 08       		.uleb128 0x8
 2007 0268 0F       		.uleb128 0xf
 2008 0269 CB000000 		.4byte	.LASF39
 2009 026d 04       		.byte	0x4
 2010 026e 43       		.byte	0x43
 2011 026f 49000000 		.4byte	0x49
 2012 0273 02       		.byte	0x2
 2013 0274 23       		.byte	0x23
 2014 0275 0A       		.uleb128 0xa
 2015 0276 0F       		.uleb128 0xf
 2016 0277 05010000 		.4byte	.LASF40
 2017 027b 04       		.byte	0x4
 2018 027c 47       		.byte	0x47
 2019 027d 49000000 		.4byte	0x49
 2020 0281 02       		.byte	0x2
 2021 0282 23       		.byte	0x23
 2022 0283 0C       		.uleb128 0xc
 2023 0284 0F       		.uleb128 0xf
 2024 0285 7A000000 		.4byte	.LASF41
 2025 0289 04       		.byte	0x4
 2026 028a 4D       		.byte	0x4d
 2027 028b 49000000 		.4byte	0x49
 2028 028f 02       		.byte	0x2
ARM GAS  C:\Users\z80\AppData\Local\Temp\ccqYjHyO.s 			page 37


 2029 0290 23       		.byte	0x23
 2030 0291 0E       		.uleb128 0xe
 2031 0292 0F       		.uleb128 0xf
 2032 0293 2B050000 		.4byte	.LASF42
 2033 0297 04       		.byte	0x4
 2034 0298 50       		.byte	0x50
 2035 0299 49000000 		.4byte	0x49
 2036 029d 02       		.byte	0x2
 2037 029e 23       		.byte	0x23
 2038 029f 10       		.uleb128 0x10
 2039 02a0 00       		.byte	0x0
 2040 02a1 03       		.uleb128 0x3
 2041 02a2 44050000 		.4byte	.LASF43
 2042 02a6 04       		.byte	0x4
 2043 02a7 51       		.byte	0x51
 2044 02a8 1A020000 		.4byte	0x21a
 2045 02ac 0E       		.uleb128 0xe
 2046 02ad 10       		.byte	0x10
 2047 02ae 04       		.byte	0x4
 2048 02af 57       		.byte	0x57
 2049 02b0 09030000 		.4byte	0x309
 2050 02b4 0F       		.uleb128 0xf
 2051 02b5 A5040000 		.4byte	.LASF44
 2052 02b9 04       		.byte	0x4
 2053 02ba 5A       		.byte	0x5a
 2054 02bb 49000000 		.4byte	0x49
 2055 02bf 02       		.byte	0x2
 2056 02c0 23       		.byte	0x23
 2057 02c1 00       		.uleb128 0x0
 2058 02c2 0F       		.uleb128 0xf
 2059 02c3 64000000 		.4byte	.LASF45
 2060 02c7 04       		.byte	0x4
 2061 02c8 5D       		.byte	0x5d
 2062 02c9 49000000 		.4byte	0x49
 2063 02cd 02       		.byte	0x2
 2064 02ce 23       		.byte	0x23
 2065 02cf 02       		.uleb128 0x2
 2066 02d0 0F       		.uleb128 0xf
 2067 02d1 90020000 		.4byte	.LASF46
 2068 02d5 04       		.byte	0x4
 2069 02d6 60       		.byte	0x60
 2070 02d7 49000000 		.4byte	0x49
 2071 02db 02       		.byte	0x2
 2072 02dc 23       		.byte	0x23
 2073 02dd 04       		.uleb128 0x4
 2074 02de 0F       		.uleb128 0xf
 2075 02df 2E020000 		.4byte	.LASF47
 2076 02e3 04       		.byte	0x4
 2077 02e4 63       		.byte	0x63
 2078 02e5 49000000 		.4byte	0x49
 2079 02e9 02       		.byte	0x2
 2080 02ea 23       		.byte	0x23
 2081 02eb 06       		.uleb128 0x6
 2082 02ec 0F       		.uleb128 0xf
 2083 02ed FB010000 		.4byte	.LASF48
 2084 02f1 04       		.byte	0x4
 2085 02f2 66       		.byte	0x66
ARM GAS  C:\Users\z80\AppData\Local\Temp\ccqYjHyO.s 			page 38


 2086 02f3 6D000000 		.4byte	0x6d
 2087 02f7 02       		.byte	0x2
 2088 02f8 23       		.byte	0x23
 2089 02f9 08       		.uleb128 0x8
 2090 02fa 0F       		.uleb128 0xf
 2091 02fb 96000000 		.4byte	.LASF49
 2092 02ff 04       		.byte	0x4
 2093 0300 69       		.byte	0x69
 2094 0301 49000000 		.4byte	0x49
 2095 0305 02       		.byte	0x2
 2096 0306 23       		.byte	0x23
 2097 0307 0C       		.uleb128 0xc
 2098 0308 00       		.byte	0x0
 2099 0309 03       		.uleb128 0x3
 2100 030a 6A010000 		.4byte	.LASF50
 2101 030e 04       		.byte	0x4
 2102 030f 6B       		.byte	0x6b
 2103 0310 AC020000 		.4byte	0x2ac
 2104 0314 0E       		.uleb128 0xe
 2105 0315 14       		.byte	0x14
 2106 0316 05       		.byte	0x5
 2107 0317 2E       		.byte	0x2e
 2108 0318 63030000 		.4byte	0x363
 2109 031c 0F       		.uleb128 0xf
 2110 031d 96030000 		.4byte	.LASF51
 2111 0321 05       		.byte	0x5
 2112 0322 30       		.byte	0x30
 2113 0323 6D000000 		.4byte	0x6d
 2114 0327 02       		.byte	0x2
 2115 0328 23       		.byte	0x23
 2116 0329 00       		.uleb128 0x0
 2117 032a 0F       		.uleb128 0xf
 2118 032b 87000000 		.4byte	.LASF52
 2119 032f 05       		.byte	0x5
 2120 0330 31       		.byte	0x31
 2121 0331 6D000000 		.4byte	0x6d
 2122 0335 02       		.byte	0x2
 2123 0336 23       		.byte	0x23
 2124 0337 04       		.uleb128 0x4
 2125 0338 0F       		.uleb128 0xf
 2126 0339 75040000 		.4byte	.LASF53
 2127 033d 05       		.byte	0x5
 2128 033e 32       		.byte	0x32
 2129 033f 6D000000 		.4byte	0x6d
 2130 0343 02       		.byte	0x2
 2131 0344 23       		.byte	0x23
 2132 0345 08       		.uleb128 0x8
 2133 0346 0F       		.uleb128 0xf
 2134 0347 B2030000 		.4byte	.LASF54
 2135 034b 05       		.byte	0x5
 2136 034c 33       		.byte	0x33
 2137 034d 6D000000 		.4byte	0x6d
 2138 0351 02       		.byte	0x2
 2139 0352 23       		.byte	0x23
 2140 0353 0C       		.uleb128 0xc
 2141 0354 0F       		.uleb128 0xf
 2142 0355 6F030000 		.4byte	.LASF55
ARM GAS  C:\Users\z80\AppData\Local\Temp\ccqYjHyO.s 			page 39


 2143 0359 05       		.byte	0x5
 2144 035a 34       		.byte	0x34
 2145 035b 6D000000 		.4byte	0x6d
 2146 035f 02       		.byte	0x2
 2147 0360 23       		.byte	0x23
 2148 0361 10       		.uleb128 0x10
 2149 0362 00       		.byte	0x0
 2150 0363 03       		.uleb128 0x3
 2151 0364 E2000000 		.4byte	.LASF56
 2152 0368 05       		.byte	0x5
 2153 0369 35       		.byte	0x35
 2154 036a 14030000 		.4byte	0x314
 2155 036e 10       		.uleb128 0x10
 2156 036f 01       		.byte	0x1
 2157 0370 9F020000 		.4byte	.LASF57
 2158 0374 01       		.byte	0x1
 2159 0375 79       		.byte	0x79
 2160 0376 01       		.byte	0x1
 2161 0377 00000000 		.4byte	.LFB56
 2162 037b 80000000 		.4byte	.LFE56
 2163 037f 00000000 		.4byte	.LLST0
 2164 0383 96030000 		.4byte	0x396
 2165 0387 11       		.uleb128 0x11
 2166 0388 C4040000 		.4byte	.LASF59
 2167 038c 01       		.byte	0x1
 2168 038d 79       		.byte	0x79
 2169 038e 96030000 		.4byte	0x396
 2170 0392 02       		.byte	0x2
 2171 0393 91       		.byte	0x91
 2172 0394 74       		.sleb128 -12
 2173 0395 00       		.byte	0x0
 2174 0396 12       		.uleb128 0x12
 2175 0397 04       		.byte	0x4
 2176 0398 0E020000 		.4byte	0x20e
 2177 039c 10       		.uleb128 0x10
 2178 039d 01       		.byte	0x1
 2179 039e 71000000 		.4byte	.LASF58
 2180 03a2 01       		.byte	0x1
 2181 03a3 A0       		.byte	0xa0
 2182 03a4 01       		.byte	0x1
 2183 03a5 00000000 		.4byte	.LFB57
 2184 03a9 9C000000 		.4byte	.LFE57
 2185 03ad 2C000000 		.4byte	.LLST1
 2186 03b1 E0030000 		.4byte	0x3e0
 2187 03b5 11       		.uleb128 0x11
 2188 03b6 C4040000 		.4byte	.LASF59
 2189 03ba 01       		.byte	0x1
 2190 03bb A0       		.byte	0xa0
 2191 03bc 96030000 		.4byte	0x396
 2192 03c0 02       		.byte	0x2
 2193 03c1 91       		.byte	0x91
 2194 03c2 74       		.sleb128 -12
 2195 03c3 11       		.uleb128 0x11
 2196 03c4 54050000 		.4byte	.LASF60
 2197 03c8 01       		.byte	0x1
 2198 03c9 A0       		.byte	0xa0
 2199 03ca E0030000 		.4byte	0x3e0
ARM GAS  C:\Users\z80\AppData\Local\Temp\ccqYjHyO.s 			page 40


 2200 03ce 02       		.byte	0x2
 2201 03cf 91       		.byte	0x91
 2202 03d0 70       		.sleb128 -16
 2203 03d1 13       		.uleb128 0x13
 2204 03d2 55020000 		.4byte	.LASF63
 2205 03d6 01       		.byte	0x1
 2206 03d7 A2       		.byte	0xa2
 2207 03d8 49000000 		.4byte	0x49
 2208 03dc 02       		.byte	0x2
 2209 03dd 91       		.byte	0x91
 2210 03de 7E       		.sleb128 -2
 2211 03df 00       		.byte	0x0
 2212 03e0 12       		.uleb128 0x12
 2213 03e1 04       		.byte	0x4
 2214 03e2 A1020000 		.4byte	0x2a1
 2215 03e6 10       		.uleb128 0x10
 2216 03e7 01       		.byte	0x1
 2217 03e8 87010000 		.4byte	.LASF61
 2218 03ec 01       		.byte	0x1
 2219 03ed DD       		.byte	0xdd
 2220 03ee 01       		.byte	0x1
 2221 03ef 00000000 		.4byte	.LFB58
 2222 03f3 CE010000 		.4byte	.LFE58
 2223 03f7 4C000000 		.4byte	.LLST2
 2224 03fb 7E040000 		.4byte	0x47e
 2225 03ff 11       		.uleb128 0x11
 2226 0400 C4040000 		.4byte	.LASF59
 2227 0404 01       		.byte	0x1
 2228 0405 DD       		.byte	0xdd
 2229 0406 96030000 		.4byte	0x396
 2230 040a 02       		.byte	0x2
 2231 040b 91       		.byte	0x91
 2232 040c 4C       		.sleb128 -52
 2233 040d 11       		.uleb128 0x11
 2234 040e 53010000 		.4byte	.LASF62
 2235 0412 01       		.byte	0x1
 2236 0413 DD       		.byte	0xdd
 2237 0414 7E040000 		.4byte	0x47e
 2238 0418 02       		.byte	0x2
 2239 0419 91       		.byte	0x91
 2240 041a 48       		.sleb128 -56
 2241 041b 13       		.uleb128 0x13
 2242 041c 55020000 		.4byte	.LASF63
 2243 0420 01       		.byte	0x1
 2244 0421 DF       		.byte	0xdf
 2245 0422 49000000 		.4byte	0x49
 2246 0426 02       		.byte	0x2
 2247 0427 91       		.byte	0x91
 2248 0428 6A       		.sleb128 -22
 2249 0429 13       		.uleb128 0x13
 2250 042a E3010000 		.4byte	.LASF64
 2251 042e 01       		.byte	0x1
 2252 042f DF       		.byte	0xdf
 2253 0430 49000000 		.4byte	0x49
 2254 0434 02       		.byte	0x2
 2255 0435 91       		.byte	0x91
 2256 0436 76       		.sleb128 -10
ARM GAS  C:\Users\z80\AppData\Local\Temp\ccqYjHyO.s 			page 41


 2257 0437 13       		.uleb128 0x13
 2258 0438 D9040000 		.4byte	.LASF65
 2259 043c 01       		.byte	0x1
 2260 043d DF       		.byte	0xdf
 2261 043e 49000000 		.4byte	0x49
 2262 0442 02       		.byte	0x2
 2263 0443 91       		.byte	0x91
 2264 0444 74       		.sleb128 -12
 2265 0445 13       		.uleb128 0x13
 2266 0446 9F000000 		.4byte	.LASF66
 2267 044a 01       		.byte	0x1
 2268 044b DF       		.byte	0xdf
 2269 044c 49000000 		.4byte	0x49
 2270 0450 02       		.byte	0x2
 2271 0451 91       		.byte	0x91
 2272 0452 72       		.sleb128 -14
 2273 0453 14       		.uleb128 0x14
 2274 0454 746D7000 		.ascii	"tmp\000"
 2275 0458 01       		.byte	0x1
 2276 0459 E0       		.byte	0xe0
 2277 045a 6D000000 		.4byte	0x6d
 2278 045e 02       		.byte	0x2
 2279 045f 91       		.byte	0x91
 2280 0460 6C       		.sleb128 -20
 2281 0461 13       		.uleb128 0x13
 2282 0462 A7030000 		.4byte	.LASF67
 2283 0466 01       		.byte	0x1
 2284 0467 E1       		.byte	0xe1
 2285 0468 63030000 		.4byte	0x363
 2286 046c 02       		.byte	0x2
 2287 046d 91       		.byte	0x91
 2288 046e 50       		.sleb128 -48
 2289 046f 13       		.uleb128 0x13
 2290 0470 34010000 		.4byte	.LASF68
 2291 0474 01       		.byte	0x1
 2292 0475 E2       		.byte	0xe2
 2293 0476 6D000000 		.4byte	0x6d
 2294 047a 02       		.byte	0x2
 2295 047b 91       		.byte	0x91
 2296 047c 64       		.sleb128 -28
 2297 047d 00       		.byte	0x0
 2298 047e 12       		.uleb128 0x12
 2299 047f 04       		.byte	0x4
 2300 0480 09030000 		.4byte	0x309
 2301 0484 15       		.uleb128 0x15
 2302 0485 01       		.byte	0x1
 2303 0486 40040000 		.4byte	.LASF69
 2304 048a 01       		.byte	0x1
 2305 048b 7401     		.2byte	0x174
 2306 048d 01       		.byte	0x1
 2307 048e 00000000 		.4byte	.LFB59
 2308 0492 50000000 		.4byte	.LFE59
 2309 0496 78000000 		.4byte	.LLST3
 2310 049a AE040000 		.4byte	0x4ae
 2311 049e 16       		.uleb128 0x16
 2312 049f 54050000 		.4byte	.LASF60
 2313 04a3 01       		.byte	0x1
ARM GAS  C:\Users\z80\AppData\Local\Temp\ccqYjHyO.s 			page 42


 2314 04a4 7401     		.2byte	0x174
 2315 04a6 E0030000 		.4byte	0x3e0
 2316 04aa 02       		.byte	0x2
 2317 04ab 91       		.byte	0x91
 2318 04ac 7C       		.sleb128 -4
 2319 04ad 00       		.byte	0x0
 2320 04ae 15       		.uleb128 0x15
 2321 04af 01       		.byte	0x1
 2322 04b0 90010000 		.4byte	.LASF70
 2323 04b4 01       		.byte	0x1
 2324 04b5 9001     		.2byte	0x190
 2325 04b7 01       		.byte	0x1
 2326 04b8 00000000 		.4byte	.LFB60
 2327 04bc 38000000 		.4byte	.LFE60
 2328 04c0 98000000 		.4byte	.LLST4
 2329 04c4 D8040000 		.4byte	0x4d8
 2330 04c8 16       		.uleb128 0x16
 2331 04c9 53010000 		.4byte	.LASF62
 2332 04cd 01       		.byte	0x1
 2333 04ce 9001     		.2byte	0x190
 2334 04d0 7E040000 		.4byte	0x47e
 2335 04d4 02       		.byte	0x2
 2336 04d5 91       		.byte	0x91
 2337 04d6 7C       		.sleb128 -4
 2338 04d7 00       		.byte	0x0
 2339 04d8 15       		.uleb128 0x15
 2340 04d9 01       		.byte	0x1
 2341 04da 5C020000 		.4byte	.LASF71
 2342 04de 01       		.byte	0x1
 2343 04df AD01     		.2byte	0x1ad
 2344 04e1 01       		.byte	0x1
 2345 04e2 00000000 		.4byte	.LFB61
 2346 04e6 38000000 		.4byte	.LFE61
 2347 04ea B8000000 		.4byte	.LLST5
 2348 04ee 11050000 		.4byte	0x511
 2349 04f2 16       		.uleb128 0x16
 2350 04f3 C4040000 		.4byte	.LASF59
 2351 04f7 01       		.byte	0x1
 2352 04f8 AD01     		.2byte	0x1ad
 2353 04fa 96030000 		.4byte	0x396
 2354 04fe 02       		.byte	0x2
 2355 04ff 91       		.byte	0x91
 2356 0500 7C       		.sleb128 -4
 2357 0501 16       		.uleb128 0x16
 2358 0502 4A010000 		.4byte	.LASF72
 2359 0506 01       		.byte	0x1
 2360 0507 AD01     		.2byte	0x1ad
 2361 0509 EC000000 		.4byte	0xec
 2362 050d 02       		.byte	0x2
 2363 050e 91       		.byte	0x91
 2364 050f 7B       		.sleb128 -5
 2365 0510 00       		.byte	0x0
 2366 0511 15       		.uleb128 0x15
 2367 0512 01       		.byte	0x1
 2368 0513 1A040000 		.4byte	.LASF73
 2369 0517 01       		.byte	0x1
 2370 0518 C501     		.2byte	0x1c5
ARM GAS  C:\Users\z80\AppData\Local\Temp\ccqYjHyO.s 			page 43


 2371 051a 01       		.byte	0x1
 2372 051b 00000000 		.4byte	.LFB62
 2373 051f 38000000 		.4byte	.LFE62
 2374 0523 D8000000 		.4byte	.LLST6
 2375 0527 4A050000 		.4byte	0x54a
 2376 052b 16       		.uleb128 0x16
 2377 052c C4040000 		.4byte	.LASF59
 2378 0530 01       		.byte	0x1
 2379 0531 C501     		.2byte	0x1c5
 2380 0533 96030000 		.4byte	0x396
 2381 0537 02       		.byte	0x2
 2382 0538 91       		.byte	0x91
 2383 0539 7C       		.sleb128 -4
 2384 053a 16       		.uleb128 0x16
 2385 053b 4A010000 		.4byte	.LASF72
 2386 053f 01       		.byte	0x1
 2387 0540 C501     		.2byte	0x1c5
 2388 0542 EC000000 		.4byte	0xec
 2389 0546 02       		.byte	0x2
 2390 0547 91       		.byte	0x91
 2391 0548 7B       		.sleb128 -5
 2392 0549 00       		.byte	0x0
 2393 054a 15       		.uleb128 0x15
 2394 054b 01       		.byte	0x1
 2395 054c EA010000 		.4byte	.LASF74
 2396 0550 01       		.byte	0x1
 2397 0551 E401     		.2byte	0x1e4
 2398 0553 01       		.byte	0x1
 2399 0554 00000000 		.4byte	.LFB63
 2400 0558 7A000000 		.4byte	.LFE63
 2401 055c F8000000 		.4byte	.LLST7
 2402 0560 B0050000 		.4byte	0x5b0
 2403 0564 16       		.uleb128 0x16
 2404 0565 C4040000 		.4byte	.LASF59
 2405 0569 01       		.byte	0x1
 2406 056a E401     		.2byte	0x1e4
 2407 056c 96030000 		.4byte	0x396
 2408 0570 02       		.byte	0x2
 2409 0571 91       		.byte	0x91
 2410 0572 74       		.sleb128 -12
 2411 0573 16       		.uleb128 0x16
 2412 0574 4A020000 		.4byte	.LASF75
 2413 0578 01       		.byte	0x1
 2414 0579 E401     		.2byte	0x1e4
 2415 057b 30000000 		.4byte	0x30
 2416 057f 02       		.byte	0x2
 2417 0580 91       		.byte	0x91
 2418 0581 73       		.sleb128 -13
 2419 0582 16       		.uleb128 0x16
 2420 0583 4A010000 		.4byte	.LASF72
 2421 0587 01       		.byte	0x1
 2422 0588 E401     		.2byte	0x1e4
 2423 058a EC000000 		.4byte	0xec
 2424 058e 02       		.byte	0x2
 2425 058f 91       		.byte	0x91
 2426 0590 72       		.sleb128 -14
 2427 0591 17       		.uleb128 0x17
ARM GAS  C:\Users\z80\AppData\Local\Temp\ccqYjHyO.s 			page 44


 2428 0592 44000000 		.4byte	.LASF76
 2429 0596 01       		.byte	0x1
 2430 0597 E601     		.2byte	0x1e6
 2431 0599 49000000 		.4byte	0x49
 2432 059d 02       		.byte	0x2
 2433 059e 91       		.byte	0x91
 2434 059f 7E       		.sleb128 -2
 2435 05a0 17       		.uleb128 0x17
 2436 05a1 F9040000 		.4byte	.LASF77
 2437 05a5 01       		.byte	0x1
 2438 05a6 E601     		.2byte	0x1e6
 2439 05a8 49000000 		.4byte	0x49
 2440 05ac 02       		.byte	0x2
 2441 05ad 91       		.byte	0x91
 2442 05ae 7C       		.sleb128 -4
 2443 05af 00       		.byte	0x0
 2444 05b0 15       		.uleb128 0x15
 2445 05b1 01       		.byte	0x1
 2446 05b2 00000000 		.4byte	.LASF78
 2447 05b6 01       		.byte	0x1
 2448 05b7 0B02     		.2byte	0x20b
 2449 05b9 01       		.byte	0x1
 2450 05ba 00000000 		.4byte	.LFB64
 2451 05be 4C000000 		.4byte	.LFE64
 2452 05c2 18010000 		.4byte	.LLST8
 2453 05c6 F8050000 		.4byte	0x5f8
 2454 05ca 16       		.uleb128 0x16
 2455 05cb C4040000 		.4byte	.LASF59
 2456 05cf 01       		.byte	0x1
 2457 05d0 0B02     		.2byte	0x20b
 2458 05d2 96030000 		.4byte	0x396
 2459 05d6 02       		.byte	0x2
 2460 05d7 91       		.byte	0x91
 2461 05d8 7C       		.sleb128 -4
 2462 05d9 16       		.uleb128 0x16
 2463 05da D3000000 		.4byte	.LASF79
 2464 05de 01       		.byte	0x1
 2465 05df 0B02     		.2byte	0x20b
 2466 05e1 49000000 		.4byte	0x49
 2467 05e5 02       		.byte	0x2
 2468 05e6 91       		.byte	0x91
 2469 05e7 7A       		.sleb128 -6
 2470 05e8 16       		.uleb128 0x16
 2471 05e9 4A010000 		.4byte	.LASF72
 2472 05ed 01       		.byte	0x1
 2473 05ee 0B02     		.2byte	0x20b
 2474 05f0 EC000000 		.4byte	0xec
 2475 05f4 02       		.byte	0x2
 2476 05f5 91       		.byte	0x91
 2477 05f6 79       		.sleb128 -7
 2478 05f7 00       		.byte	0x0
 2479 05f8 15       		.uleb128 0x15
 2480 05f9 01       		.byte	0x1
 2481 05fa BA000000 		.4byte	.LASF80
 2482 05fe 01       		.byte	0x1
 2483 05ff 2502     		.2byte	0x225
 2484 0601 01       		.byte	0x1
ARM GAS  C:\Users\z80\AppData\Local\Temp\ccqYjHyO.s 			page 45


 2485 0602 00000000 		.4byte	.LFB65
 2486 0606 16000000 		.4byte	.LFE65
 2487 060a 38010000 		.4byte	.LLST9
 2488 060e 31060000 		.4byte	0x631
 2489 0612 16       		.uleb128 0x16
 2490 0613 C4040000 		.4byte	.LASF59
 2491 0617 01       		.byte	0x1
 2492 0618 2502     		.2byte	0x225
 2493 061a 96030000 		.4byte	0x396
 2494 061e 02       		.byte	0x2
 2495 061f 91       		.byte	0x91
 2496 0620 7C       		.sleb128 -4
 2497 0621 16       		.uleb128 0x16
 2498 0622 3D020000 		.4byte	.LASF81
 2499 0626 01       		.byte	0x1
 2500 0627 2502     		.2byte	0x225
 2501 0629 49000000 		.4byte	0x49
 2502 062d 02       		.byte	0x2
 2503 062e 91       		.byte	0x91
 2504 062f 7A       		.sleb128 -6
 2505 0630 00       		.byte	0x0
 2506 0631 18       		.uleb128 0x18
 2507 0632 01       		.byte	0x1
 2508 0633 C2030000 		.4byte	.LASF88
 2509 0637 01       		.byte	0x1
 2510 0638 3502     		.2byte	0x235
 2511 063a 01       		.byte	0x1
 2512 063b 49000000 		.4byte	0x49
 2513 063f 00000000 		.4byte	.LFB66
 2514 0643 10000000 		.4byte	.LFE66
 2515 0647 58010000 		.4byte	.LLST10
 2516 064b 5F060000 		.4byte	0x65f
 2517 064f 16       		.uleb128 0x16
 2518 0650 C4040000 		.4byte	.LASF59
 2519 0654 01       		.byte	0x1
 2520 0655 3502     		.2byte	0x235
 2521 0657 96030000 		.4byte	0x396
 2522 065b 02       		.byte	0x2
 2523 065c 91       		.byte	0x91
 2524 065d 7C       		.sleb128 -4
 2525 065e 00       		.byte	0x0
 2526 065f 15       		.uleb128 0x15
 2527 0660 01       		.byte	0x1
 2528 0661 BA020000 		.4byte	.LASF82
 2529 0665 01       		.byte	0x1
 2530 0666 4702     		.2byte	0x247
 2531 0668 01       		.byte	0x1
 2532 0669 00000000 		.4byte	.LFB67
 2533 066d 3C000000 		.4byte	.LFE67
 2534 0671 78010000 		.4byte	.LLST11
 2535 0675 98060000 		.4byte	0x698
 2536 0679 16       		.uleb128 0x16
 2537 067a C4040000 		.4byte	.LASF59
 2538 067e 01       		.byte	0x1
 2539 067f 4702     		.2byte	0x247
 2540 0681 96030000 		.4byte	0x396
 2541 0685 02       		.byte	0x2
ARM GAS  C:\Users\z80\AppData\Local\Temp\ccqYjHyO.s 			page 46


 2542 0686 91       		.byte	0x91
 2543 0687 7C       		.sleb128 -4
 2544 0688 16       		.uleb128 0x16
 2545 0689 D6030000 		.4byte	.LASF83
 2546 068d 01       		.byte	0x1
 2547 068e 4702     		.2byte	0x247
 2548 0690 49000000 		.4byte	0x49
 2549 0694 02       		.byte	0x2
 2550 0695 91       		.byte	0x91
 2551 0696 7A       		.sleb128 -6
 2552 0697 00       		.byte	0x0
 2553 0698 15       		.uleb128 0x15
 2554 0699 01       		.byte	0x1
 2555 069a C9040000 		.4byte	.LASF84
 2556 069e 01       		.byte	0x1
 2557 069f 5F02     		.2byte	0x25f
 2558 06a1 01       		.byte	0x1
 2559 06a2 00000000 		.4byte	.LFB68
 2560 06a6 38000000 		.4byte	.LFE68
 2561 06aa 98010000 		.4byte	.LLST12
 2562 06ae D1060000 		.4byte	0x6d1
 2563 06b2 16       		.uleb128 0x16
 2564 06b3 C4040000 		.4byte	.LASF59
 2565 06b7 01       		.byte	0x1
 2566 06b8 5F02     		.2byte	0x25f
 2567 06ba 96030000 		.4byte	0x396
 2568 06be 02       		.byte	0x2
 2569 06bf 91       		.byte	0x91
 2570 06c0 7C       		.sleb128 -4
 2571 06c1 16       		.uleb128 0x16
 2572 06c2 4A010000 		.4byte	.LASF72
 2573 06c6 01       		.byte	0x1
 2574 06c7 5F02     		.2byte	0x25f
 2575 06c9 EC000000 		.4byte	0xec
 2576 06cd 02       		.byte	0x2
 2577 06ce 91       		.byte	0x91
 2578 06cf 7B       		.sleb128 -5
 2579 06d0 00       		.byte	0x0
 2580 06d1 15       		.uleb128 0x15
 2581 06d2 01       		.byte	0x1
 2582 06d3 6F020000 		.4byte	.LASF85
 2583 06d7 01       		.byte	0x1
 2584 06d8 7902     		.2byte	0x279
 2585 06da 01       		.byte	0x1
 2586 06db 00000000 		.4byte	.LFB69
 2587 06df 32000000 		.4byte	.LFE69
 2588 06e3 B8010000 		.4byte	.LLST13
 2589 06e7 0A070000 		.4byte	0x70a
 2590 06eb 16       		.uleb128 0x16
 2591 06ec C4040000 		.4byte	.LASF59
 2592 06f0 01       		.byte	0x1
 2593 06f1 7902     		.2byte	0x279
 2594 06f3 96030000 		.4byte	0x396
 2595 06f7 02       		.byte	0x2
 2596 06f8 91       		.byte	0x91
 2597 06f9 7C       		.sleb128 -4
 2598 06fa 16       		.uleb128 0x16
ARM GAS  C:\Users\z80\AppData\Local\Temp\ccqYjHyO.s 			page 47


 2599 06fb 4A000000 		.4byte	.LASF36
 2600 06ff 01       		.byte	0x1
 2601 0700 7902     		.2byte	0x279
 2602 0702 49000000 		.4byte	0x49
 2603 0706 02       		.byte	0x2
 2604 0707 91       		.byte	0x91
 2605 0708 7A       		.sleb128 -6
 2606 0709 00       		.byte	0x0
 2607 070a 15       		.uleb128 0x15
 2608 070b 01       		.byte	0x1
 2609 070c E0040000 		.4byte	.LASF86
 2610 0710 01       		.byte	0x1
 2611 0711 8902     		.2byte	0x289
 2612 0713 01       		.byte	0x1
 2613 0714 00000000 		.4byte	.LFB70
 2614 0718 18000000 		.4byte	.LFE70
 2615 071c D8010000 		.4byte	.LLST14
 2616 0720 34070000 		.4byte	0x734
 2617 0724 16       		.uleb128 0x16
 2618 0725 C4040000 		.4byte	.LASF59
 2619 0729 01       		.byte	0x1
 2620 072a 8902     		.2byte	0x289
 2621 072c 96030000 		.4byte	0x396
 2622 0730 02       		.byte	0x2
 2623 0731 91       		.byte	0x91
 2624 0732 7C       		.sleb128 -4
 2625 0733 00       		.byte	0x0
 2626 0734 15       		.uleb128 0x15
 2627 0735 01       		.byte	0x1
 2628 0736 0D050000 		.4byte	.LASF87
 2629 073a 01       		.byte	0x1
 2630 073b 9902     		.2byte	0x299
 2631 073d 01       		.byte	0x1
 2632 073e 00000000 		.4byte	.LFB71
 2633 0742 38000000 		.4byte	.LFE71
 2634 0746 F8010000 		.4byte	.LLST15
 2635 074a 6D070000 		.4byte	0x76d
 2636 074e 16       		.uleb128 0x16
 2637 074f C4040000 		.4byte	.LASF59
 2638 0753 01       		.byte	0x1
 2639 0754 9902     		.2byte	0x299
 2640 0756 96030000 		.4byte	0x396
 2641 075a 02       		.byte	0x2
 2642 075b 91       		.byte	0x91
 2643 075c 7C       		.sleb128 -4
 2644 075d 16       		.uleb128 0x16
 2645 075e 4A010000 		.4byte	.LASF72
 2646 0762 01       		.byte	0x1
 2647 0763 9902     		.2byte	0x299
 2648 0765 EC000000 		.4byte	0xec
 2649 0769 02       		.byte	0x2
 2650 076a 91       		.byte	0x91
 2651 076b 7B       		.sleb128 -5
 2652 076c 00       		.byte	0x0
 2653 076d 18       		.uleb128 0x18
 2654 076e 01       		.byte	0x1
 2655 076f 64020000 		.4byte	.LASF89
ARM GAS  C:\Users\z80\AppData\Local\Temp\ccqYjHyO.s 			page 48


 2656 0773 01       		.byte	0x1
 2657 0774 B302     		.2byte	0x2b3
 2658 0776 01       		.byte	0x1
 2659 0777 49000000 		.4byte	0x49
 2660 077b 00000000 		.4byte	.LFB72
 2661 077f 36000000 		.4byte	.LFE72
 2662 0783 18020000 		.4byte	.LLST16
 2663 0787 B9070000 		.4byte	0x7b9
 2664 078b 16       		.uleb128 0x16
 2665 078c C4040000 		.4byte	.LASF59
 2666 0790 01       		.byte	0x1
 2667 0791 B302     		.2byte	0x2b3
 2668 0793 96030000 		.4byte	0x396
 2669 0797 02       		.byte	0x2
 2670 0798 91       		.byte	0x91
 2671 0799 74       		.sleb128 -12
 2672 079a 16       		.uleb128 0x16
 2673 079b 42020000 		.4byte	.LASF90
 2674 079f 01       		.byte	0x1
 2675 07a0 B302     		.2byte	0x2b3
 2676 07a2 30000000 		.4byte	0x30
 2677 07a6 02       		.byte	0x2
 2678 07a7 91       		.byte	0x91
 2679 07a8 73       		.sleb128 -13
 2680 07a9 17       		.uleb128 0x17
 2681 07aa 24050000 		.4byte	.LASF91
 2682 07ae 01       		.byte	0x1
 2683 07af B502     		.2byte	0x2b5
 2684 07b1 49000000 		.4byte	0x49
 2685 07b5 02       		.byte	0x2
 2686 07b6 91       		.byte	0x91
 2687 07b7 7E       		.sleb128 -2
 2688 07b8 00       		.byte	0x0
 2689 07b9 18       		.uleb128 0x18
 2690 07ba 01       		.byte	0x1
 2691 07bb 2F000000 		.4byte	.LASF92
 2692 07bf 01       		.byte	0x1
 2693 07c0 CC02     		.2byte	0x2cc
 2694 07c2 01       		.byte	0x1
 2695 07c3 49000000 		.4byte	0x49
 2696 07c7 00000000 		.4byte	.LFB73
 2697 07cb 10000000 		.4byte	.LFE73
 2698 07cf 38020000 		.4byte	.LLST17
 2699 07d3 E7070000 		.4byte	0x7e7
 2700 07d7 16       		.uleb128 0x16
 2701 07d8 C4040000 		.4byte	.LASF59
 2702 07dc 01       		.byte	0x1
 2703 07dd CC02     		.2byte	0x2cc
 2704 07df 96030000 		.4byte	0x396
 2705 07e3 02       		.byte	0x2
 2706 07e4 91       		.byte	0x91
 2707 07e5 7C       		.sleb128 -4
 2708 07e6 00       		.byte	0x0
 2709 07e7 15       		.uleb128 0x15
 2710 07e8 01       		.byte	0x1
 2711 07e9 C7010000 		.4byte	.LASF93
 2712 07ed 01       		.byte	0x1
ARM GAS  C:\Users\z80\AppData\Local\Temp\ccqYjHyO.s 			page 49


 2713 07ee DE02     		.2byte	0x2de
 2714 07f0 01       		.byte	0x1
 2715 07f1 00000000 		.4byte	.LFB74
 2716 07f5 3A000000 		.4byte	.LFE74
 2717 07f9 58020000 		.4byte	.LLST18
 2718 07fd 20080000 		.4byte	0x820
 2719 0801 16       		.uleb128 0x16
 2720 0802 C4040000 		.4byte	.LASF59
 2721 0806 01       		.byte	0x1
 2722 0807 DE02     		.2byte	0x2de
 2723 0809 96030000 		.4byte	0x396
 2724 080d 02       		.byte	0x2
 2725 080e 91       		.byte	0x91
 2726 080f 7C       		.sleb128 -4
 2727 0810 16       		.uleb128 0x16
 2728 0811 18000000 		.4byte	.LASF34
 2729 0815 01       		.byte	0x1
 2730 0816 DE02     		.2byte	0x2de
 2731 0818 49000000 		.4byte	0x49
 2732 081c 02       		.byte	0x2
 2733 081d 91       		.byte	0x91
 2734 081e 7A       		.sleb128 -6
 2735 081f 00       		.byte	0x0
 2736 0820 18       		.uleb128 0x18
 2737 0821 01       		.byte	0x1
 2738 0822 AE040000 		.4byte	.LASF94
 2739 0826 01       		.byte	0x1
 2740 0827 0003     		.2byte	0x300
 2741 0829 01       		.byte	0x1
 2742 082a BE000000 		.4byte	0xbe
 2743 082e 00000000 		.4byte	.LFB75
 2744 0832 42000000 		.4byte	.LFE75
 2745 0836 78020000 		.4byte	.LLST19
 2746 083a 6C080000 		.4byte	0x86c
 2747 083e 16       		.uleb128 0x16
 2748 083f C4040000 		.4byte	.LASF59
 2749 0843 01       		.byte	0x1
 2750 0844 0003     		.2byte	0x300
 2751 0846 96030000 		.4byte	0x396
 2752 084a 02       		.byte	0x2
 2753 084b 91       		.byte	0x91
 2754 084c 74       		.sleb128 -12
 2755 084d 16       		.uleb128 0x16
 2756 084e 57000000 		.4byte	.LASF95
 2757 0852 01       		.byte	0x1
 2758 0853 0003     		.2byte	0x300
 2759 0855 49000000 		.4byte	0x49
 2760 0859 02       		.byte	0x2
 2761 085a 91       		.byte	0x91
 2762 085b 72       		.sleb128 -14
 2763 085c 17       		.uleb128 0x17
 2764 085d 8C030000 		.4byte	.LASF96
 2765 0861 01       		.byte	0x1
 2766 0862 0203     		.2byte	0x302
 2767 0864 BE000000 		.4byte	0xbe
 2768 0868 02       		.byte	0x2
 2769 0869 91       		.byte	0x91
ARM GAS  C:\Users\z80\AppData\Local\Temp\ccqYjHyO.s 			page 50


 2770 086a 7F       		.sleb128 -1
 2771 086b 00       		.byte	0x0
 2772 086c 15       		.uleb128 0x15
 2773 086d 01       		.byte	0x1
 2774 086e EA030000 		.4byte	.LASF97
 2775 0872 01       		.byte	0x1
 2776 0873 2603     		.2byte	0x326
 2777 0875 01       		.byte	0x1
 2778 0876 00000000 		.4byte	.LFB76
 2779 087a 1C000000 		.4byte	.LFE76
 2780 087e 98020000 		.4byte	.LLST20
 2781 0882 A5080000 		.4byte	0x8a5
 2782 0886 16       		.uleb128 0x16
 2783 0887 C4040000 		.4byte	.LASF59
 2784 088b 01       		.byte	0x1
 2785 088c 2603     		.2byte	0x326
 2786 088e 96030000 		.4byte	0x396
 2787 0892 02       		.byte	0x2
 2788 0893 91       		.byte	0x91
 2789 0894 7C       		.sleb128 -4
 2790 0895 16       		.uleb128 0x16
 2791 0896 57000000 		.4byte	.LASF95
 2792 089a 01       		.byte	0x1
 2793 089b 2603     		.2byte	0x326
 2794 089d 49000000 		.4byte	0x49
 2795 08a1 02       		.byte	0x2
 2796 08a2 91       		.byte	0x91
 2797 08a3 7A       		.sleb128 -6
 2798 08a4 00       		.byte	0x0
 2799 08a5 18       		.uleb128 0x18
 2800 08a6 01       		.byte	0x1
 2801 08a7 16030000 		.4byte	.LASF98
 2802 08ab 01       		.byte	0x1
 2803 08ac 3F03     		.2byte	0x33f
 2804 08ae 01       		.byte	0x1
 2805 08af CA000000 		.4byte	0xca
 2806 08b3 00000000 		.4byte	.LFB77
 2807 08b7 A6000000 		.4byte	.LFE77
 2808 08bb B8020000 		.4byte	.LLST21
 2809 08bf 1E090000 		.4byte	0x91e
 2810 08c3 16       		.uleb128 0x16
 2811 08c4 C4040000 		.4byte	.LASF59
 2812 08c8 01       		.byte	0x1
 2813 08c9 3F03     		.2byte	0x33f
 2814 08cb 96030000 		.4byte	0x396
 2815 08cf 02       		.byte	0x2
 2816 08d0 91       		.byte	0x91
 2817 08d1 74       		.sleb128 -12
 2818 08d2 16       		.uleb128 0x16
 2819 08d3 4A020000 		.4byte	.LASF75
 2820 08d7 01       		.byte	0x1
 2821 08d8 3F03     		.2byte	0x33f
 2822 08da 30000000 		.4byte	0x30
 2823 08de 02       		.byte	0x2
 2824 08df 91       		.byte	0x91
 2825 08e0 73       		.sleb128 -13
 2826 08e1 17       		.uleb128 0x17
ARM GAS  C:\Users\z80\AppData\Local\Temp\ccqYjHyO.s 			page 51


 2827 08e2 8C030000 		.4byte	.LASF96
 2828 08e6 01       		.byte	0x1
 2829 08e7 4103     		.2byte	0x341
 2830 08e9 CA000000 		.4byte	0xca
 2831 08ed 02       		.byte	0x2
 2832 08ee 91       		.byte	0x91
 2833 08ef 7F       		.sleb128 -1
 2834 08f0 17       		.uleb128 0x17
 2835 08f1 44000000 		.4byte	.LASF76
 2836 08f5 01       		.byte	0x1
 2837 08f6 4203     		.2byte	0x342
 2838 08f8 49000000 		.4byte	0x49
 2839 08fc 02       		.byte	0x2
 2840 08fd 91       		.byte	0x91
 2841 08fe 7C       		.sleb128 -4
 2842 08ff 17       		.uleb128 0x17
 2843 0900 F9040000 		.4byte	.LASF77
 2844 0904 01       		.byte	0x1
 2845 0905 4203     		.2byte	0x342
 2846 0907 49000000 		.4byte	0x49
 2847 090b 02       		.byte	0x2
 2848 090c 91       		.byte	0x91
 2849 090d 7A       		.sleb128 -6
 2850 090e 17       		.uleb128 0x17
 2851 090f 7A010000 		.4byte	.LASF99
 2852 0913 01       		.byte	0x1
 2853 0914 4203     		.2byte	0x342
 2854 0916 49000000 		.4byte	0x49
 2855 091a 02       		.byte	0x2
 2856 091b 91       		.byte	0x91
 2857 091c 78       		.sleb128 -8
 2858 091d 00       		.byte	0x0
 2859 091e 15       		.uleb128 0x15
 2860 091f 01       		.byte	0x1
 2861 0920 85040000 		.4byte	.LASF100
 2862 0924 01       		.byte	0x1
 2863 0925 7503     		.2byte	0x375
 2864 0927 01       		.byte	0x1
 2865 0928 00000000 		.4byte	.LFB78
 2866 092c 38000000 		.4byte	.LFE78
 2867 0930 D8020000 		.4byte	.LLST22
 2868 0934 66090000 		.4byte	0x966
 2869 0938 16       		.uleb128 0x16
 2870 0939 C4040000 		.4byte	.LASF59
 2871 093d 01       		.byte	0x1
 2872 093e 7503     		.2byte	0x375
 2873 0940 96030000 		.4byte	0x396
 2874 0944 02       		.byte	0x2
 2875 0945 91       		.byte	0x91
 2876 0946 74       		.sleb128 -12
 2877 0947 16       		.uleb128 0x16
 2878 0948 4A020000 		.4byte	.LASF75
 2879 094c 01       		.byte	0x1
 2880 094d 7503     		.2byte	0x375
 2881 094f 30000000 		.4byte	0x30
 2882 0953 02       		.byte	0x2
 2883 0954 91       		.byte	0x91
ARM GAS  C:\Users\z80\AppData\Local\Temp\ccqYjHyO.s 			page 52


 2884 0955 73       		.sleb128 -13
 2885 0956 17       		.uleb128 0x17
 2886 0957 44000000 		.4byte	.LASF76
 2887 095b 01       		.byte	0x1
 2888 095c 7703     		.2byte	0x377
 2889 095e 49000000 		.4byte	0x49
 2890 0962 02       		.byte	0x2
 2891 0963 91       		.byte	0x91
 2892 0964 7E       		.sleb128 -2
 2893 0965 00       		.byte	0x0
 2894 0966 19       		.uleb128 0x19
 2895 0967 00050000 		.4byte	.LASF101
 2896 096b 06       		.byte	0x6
 2897 096c 0706     		.2byte	0x607
 2898 096e A3000000 		.4byte	0xa3
 2899 0972 01       		.byte	0x1
 2900 0973 01       		.byte	0x1
 2901 0974 19       		.uleb128 0x19
 2902 0975 00050000 		.4byte	.LASF101
 2903 0979 06       		.byte	0x6
 2904 097a 0706     		.2byte	0x607
 2905 097c A3000000 		.4byte	0xa3
 2906 0980 01       		.byte	0x1
 2907 0981 01       		.byte	0x1
 2908 0982 00       		.byte	0x0
 2909              		.section	.debug_abbrev
 2910 0000 01       		.uleb128 0x1
 2911 0001 11       		.uleb128 0x11
 2912 0002 01       		.byte	0x1
 2913 0003 25       		.uleb128 0x25
 2914 0004 0E       		.uleb128 0xe
 2915 0005 13       		.uleb128 0x13
 2916 0006 0B       		.uleb128 0xb
 2917 0007 03       		.uleb128 0x3
 2918 0008 0E       		.uleb128 0xe
 2919 0009 1B       		.uleb128 0x1b
 2920 000a 0E       		.uleb128 0xe
 2921 000b 11       		.uleb128 0x11
 2922 000c 01       		.uleb128 0x1
 2923 000d 52       		.uleb128 0x52
 2924 000e 01       		.uleb128 0x1
 2925 000f 55       		.uleb128 0x55
 2926 0010 06       		.uleb128 0x6
 2927 0011 10       		.uleb128 0x10
 2928 0012 06       		.uleb128 0x6
 2929 0013 00       		.byte	0x0
 2930 0014 00       		.byte	0x0
 2931 0015 02       		.uleb128 0x2
 2932 0016 24       		.uleb128 0x24
 2933 0017 00       		.byte	0x0
 2934 0018 0B       		.uleb128 0xb
 2935 0019 0B       		.uleb128 0xb
 2936 001a 3E       		.uleb128 0x3e
 2937 001b 0B       		.uleb128 0xb
 2938 001c 03       		.uleb128 0x3
 2939 001d 0E       		.uleb128 0xe
 2940 001e 00       		.byte	0x0
ARM GAS  C:\Users\z80\AppData\Local\Temp\ccqYjHyO.s 			page 53


 2941 001f 00       		.byte	0x0
 2942 0020 03       		.uleb128 0x3
 2943 0021 16       		.uleb128 0x16
 2944 0022 00       		.byte	0x0
 2945 0023 03       		.uleb128 0x3
 2946 0024 0E       		.uleb128 0xe
 2947 0025 3A       		.uleb128 0x3a
 2948 0026 0B       		.uleb128 0xb
 2949 0027 3B       		.uleb128 0x3b
 2950 0028 0B       		.uleb128 0xb
 2951 0029 49       		.uleb128 0x49
 2952 002a 13       		.uleb128 0x13
 2953 002b 00       		.byte	0x0
 2954 002c 00       		.byte	0x0
 2955 002d 04       		.uleb128 0x4
 2956 002e 24       		.uleb128 0x24
 2957 002f 00       		.byte	0x0
 2958 0030 0B       		.uleb128 0xb
 2959 0031 0B       		.uleb128 0xb
 2960 0032 3E       		.uleb128 0x3e
 2961 0033 0B       		.uleb128 0xb
 2962 0034 03       		.uleb128 0x3
 2963 0035 08       		.uleb128 0x8
 2964 0036 00       		.byte	0x0
 2965 0037 00       		.byte	0x0
 2966 0038 05       		.uleb128 0x5
 2967 0039 24       		.uleb128 0x24
 2968 003a 00       		.byte	0x0
 2969 003b 0B       		.uleb128 0xb
 2970 003c 0B       		.uleb128 0xb
 2971 003d 3E       		.uleb128 0x3e
 2972 003e 0B       		.uleb128 0xb
 2973 003f 00       		.byte	0x0
 2974 0040 00       		.byte	0x0
 2975 0041 06       		.uleb128 0x6
 2976 0042 35       		.uleb128 0x35
 2977 0043 00       		.byte	0x0
 2978 0044 49       		.uleb128 0x49
 2979 0045 13       		.uleb128 0x13
 2980 0046 00       		.byte	0x0
 2981 0047 00       		.byte	0x0
 2982 0048 07       		.uleb128 0x7
 2983 0049 04       		.uleb128 0x4
 2984 004a 01       		.byte	0x1
 2985 004b 0B       		.uleb128 0xb
 2986 004c 0B       		.uleb128 0xb
 2987 004d 3A       		.uleb128 0x3a
 2988 004e 0B       		.uleb128 0xb
 2989 004f 3B       		.uleb128 0x3b
 2990 0050 05       		.uleb128 0x5
 2991 0051 01       		.uleb128 0x1
 2992 0052 13       		.uleb128 0x13
 2993 0053 00       		.byte	0x0
 2994 0054 00       		.byte	0x0
 2995 0055 08       		.uleb128 0x8
 2996 0056 28       		.uleb128 0x28
 2997 0057 00       		.byte	0x0
ARM GAS  C:\Users\z80\AppData\Local\Temp\ccqYjHyO.s 			page 54


 2998 0058 03       		.uleb128 0x3
 2999 0059 0E       		.uleb128 0xe
 3000 005a 1C       		.uleb128 0x1c
 3001 005b 0D       		.uleb128 0xd
 3002 005c 00       		.byte	0x0
 3003 005d 00       		.byte	0x0
 3004 005e 09       		.uleb128 0x9
 3005 005f 28       		.uleb128 0x28
 3006 0060 00       		.byte	0x0
 3007 0061 03       		.uleb128 0x3
 3008 0062 08       		.uleb128 0x8
 3009 0063 1C       		.uleb128 0x1c
 3010 0064 0D       		.uleb128 0xd
 3011 0065 00       		.byte	0x0
 3012 0066 00       		.byte	0x0
 3013 0067 0A       		.uleb128 0xa
 3014 0068 16       		.uleb128 0x16
 3015 0069 00       		.byte	0x0
 3016 006a 03       		.uleb128 0x3
 3017 006b 0E       		.uleb128 0xe
 3018 006c 3A       		.uleb128 0x3a
 3019 006d 0B       		.uleb128 0xb
 3020 006e 3B       		.uleb128 0x3b
 3021 006f 05       		.uleb128 0x5
 3022 0070 49       		.uleb128 0x49
 3023 0071 13       		.uleb128 0x13
 3024 0072 00       		.byte	0x0
 3025 0073 00       		.byte	0x0
 3026 0074 0B       		.uleb128 0xb
 3027 0075 13       		.uleb128 0x13
 3028 0076 01       		.byte	0x1
 3029 0077 0B       		.uleb128 0xb
 3030 0078 0B       		.uleb128 0xb
 3031 0079 3A       		.uleb128 0x3a
 3032 007a 0B       		.uleb128 0xb
 3033 007b 3B       		.uleb128 0x3b
 3034 007c 05       		.uleb128 0x5
 3035 007d 01       		.uleb128 0x1
 3036 007e 13       		.uleb128 0x13
 3037 007f 00       		.byte	0x0
 3038 0080 00       		.byte	0x0
 3039 0081 0C       		.uleb128 0xc
 3040 0082 0D       		.uleb128 0xd
 3041 0083 00       		.byte	0x0
 3042 0084 03       		.uleb128 0x3
 3043 0085 08       		.uleb128 0x8
 3044 0086 3A       		.uleb128 0x3a
 3045 0087 0B       		.uleb128 0xb
 3046 0088 3B       		.uleb128 0x3b
 3047 0089 05       		.uleb128 0x5
 3048 008a 49       		.uleb128 0x49
 3049 008b 13       		.uleb128 0x13
 3050 008c 38       		.uleb128 0x38
 3051 008d 0A       		.uleb128 0xa
 3052 008e 00       		.byte	0x0
 3053 008f 00       		.byte	0x0
 3054 0090 0D       		.uleb128 0xd
ARM GAS  C:\Users\z80\AppData\Local\Temp\ccqYjHyO.s 			page 55


 3055 0091 0D       		.uleb128 0xd
 3056 0092 00       		.byte	0x0
 3057 0093 03       		.uleb128 0x3
 3058 0094 0E       		.uleb128 0xe
 3059 0095 3A       		.uleb128 0x3a
 3060 0096 0B       		.uleb128 0xb
 3061 0097 3B       		.uleb128 0x3b
 3062 0098 05       		.uleb128 0x5
 3063 0099 49       		.uleb128 0x49
 3064 009a 13       		.uleb128 0x13
 3065 009b 38       		.uleb128 0x38
 3066 009c 0A       		.uleb128 0xa
 3067 009d 00       		.byte	0x0
 3068 009e 00       		.byte	0x0
 3069 009f 0E       		.uleb128 0xe
 3070 00a0 13       		.uleb128 0x13
 3071 00a1 01       		.byte	0x1
 3072 00a2 0B       		.uleb128 0xb
 3073 00a3 0B       		.uleb128 0xb
 3074 00a4 3A       		.uleb128 0x3a
 3075 00a5 0B       		.uleb128 0xb
 3076 00a6 3B       		.uleb128 0x3b
 3077 00a7 0B       		.uleb128 0xb
 3078 00a8 01       		.uleb128 0x1
 3079 00a9 13       		.uleb128 0x13
 3080 00aa 00       		.byte	0x0
 3081 00ab 00       		.byte	0x0
 3082 00ac 0F       		.uleb128 0xf
 3083 00ad 0D       		.uleb128 0xd
 3084 00ae 00       		.byte	0x0
 3085 00af 03       		.uleb128 0x3
 3086 00b0 0E       		.uleb128 0xe
 3087 00b1 3A       		.uleb128 0x3a
 3088 00b2 0B       		.uleb128 0xb
 3089 00b3 3B       		.uleb128 0x3b
 3090 00b4 0B       		.uleb128 0xb
 3091 00b5 49       		.uleb128 0x49
 3092 00b6 13       		.uleb128 0x13
 3093 00b7 38       		.uleb128 0x38
 3094 00b8 0A       		.uleb128 0xa
 3095 00b9 00       		.byte	0x0
 3096 00ba 00       		.byte	0x0
 3097 00bb 10       		.uleb128 0x10
 3098 00bc 2E       		.uleb128 0x2e
 3099 00bd 01       		.byte	0x1
 3100 00be 3F       		.uleb128 0x3f
 3101 00bf 0C       		.uleb128 0xc
 3102 00c0 03       		.uleb128 0x3
 3103 00c1 0E       		.uleb128 0xe
 3104 00c2 3A       		.uleb128 0x3a
 3105 00c3 0B       		.uleb128 0xb
 3106 00c4 3B       		.uleb128 0x3b
 3107 00c5 0B       		.uleb128 0xb
 3108 00c6 27       		.uleb128 0x27
 3109 00c7 0C       		.uleb128 0xc
 3110 00c8 11       		.uleb128 0x11
 3111 00c9 01       		.uleb128 0x1
ARM GAS  C:\Users\z80\AppData\Local\Temp\ccqYjHyO.s 			page 56


 3112 00ca 12       		.uleb128 0x12
 3113 00cb 01       		.uleb128 0x1
 3114 00cc 40       		.uleb128 0x40
 3115 00cd 06       		.uleb128 0x6
 3116 00ce 01       		.uleb128 0x1
 3117 00cf 13       		.uleb128 0x13
 3118 00d0 00       		.byte	0x0
 3119 00d1 00       		.byte	0x0
 3120 00d2 11       		.uleb128 0x11
 3121 00d3 05       		.uleb128 0x5
 3122 00d4 00       		.byte	0x0
 3123 00d5 03       		.uleb128 0x3
 3124 00d6 0E       		.uleb128 0xe
 3125 00d7 3A       		.uleb128 0x3a
 3126 00d8 0B       		.uleb128 0xb
 3127 00d9 3B       		.uleb128 0x3b
 3128 00da 0B       		.uleb128 0xb
 3129 00db 49       		.uleb128 0x49
 3130 00dc 13       		.uleb128 0x13
 3131 00dd 02       		.uleb128 0x2
 3132 00de 0A       		.uleb128 0xa
 3133 00df 00       		.byte	0x0
 3134 00e0 00       		.byte	0x0
 3135 00e1 12       		.uleb128 0x12
 3136 00e2 0F       		.uleb128 0xf
 3137 00e3 00       		.byte	0x0
 3138 00e4 0B       		.uleb128 0xb
 3139 00e5 0B       		.uleb128 0xb
 3140 00e6 49       		.uleb128 0x49
 3141 00e7 13       		.uleb128 0x13
 3142 00e8 00       		.byte	0x0
 3143 00e9 00       		.byte	0x0
 3144 00ea 13       		.uleb128 0x13
 3145 00eb 34       		.uleb128 0x34
 3146 00ec 00       		.byte	0x0
 3147 00ed 03       		.uleb128 0x3
 3148 00ee 0E       		.uleb128 0xe
 3149 00ef 3A       		.uleb128 0x3a
 3150 00f0 0B       		.uleb128 0xb
 3151 00f1 3B       		.uleb128 0x3b
 3152 00f2 0B       		.uleb128 0xb
 3153 00f3 49       		.uleb128 0x49
 3154 00f4 13       		.uleb128 0x13
 3155 00f5 02       		.uleb128 0x2
 3156 00f6 0A       		.uleb128 0xa
 3157 00f7 00       		.byte	0x0
 3158 00f8 00       		.byte	0x0
 3159 00f9 14       		.uleb128 0x14
 3160 00fa 34       		.uleb128 0x34
 3161 00fb 00       		.byte	0x0
 3162 00fc 03       		.uleb128 0x3
 3163 00fd 08       		.uleb128 0x8
 3164 00fe 3A       		.uleb128 0x3a
 3165 00ff 0B       		.uleb128 0xb
 3166 0100 3B       		.uleb128 0x3b
 3167 0101 0B       		.uleb128 0xb
 3168 0102 49       		.uleb128 0x49
ARM GAS  C:\Users\z80\AppData\Local\Temp\ccqYjHyO.s 			page 57


 3169 0103 13       		.uleb128 0x13
 3170 0104 02       		.uleb128 0x2
 3171 0105 0A       		.uleb128 0xa
 3172 0106 00       		.byte	0x0
 3173 0107 00       		.byte	0x0
 3174 0108 15       		.uleb128 0x15
 3175 0109 2E       		.uleb128 0x2e
 3176 010a 01       		.byte	0x1
 3177 010b 3F       		.uleb128 0x3f
 3178 010c 0C       		.uleb128 0xc
 3179 010d 03       		.uleb128 0x3
 3180 010e 0E       		.uleb128 0xe
 3181 010f 3A       		.uleb128 0x3a
 3182 0110 0B       		.uleb128 0xb
 3183 0111 3B       		.uleb128 0x3b
 3184 0112 05       		.uleb128 0x5
 3185 0113 27       		.uleb128 0x27
 3186 0114 0C       		.uleb128 0xc
 3187 0115 11       		.uleb128 0x11
 3188 0116 01       		.uleb128 0x1
 3189 0117 12       		.uleb128 0x12
 3190 0118 01       		.uleb128 0x1
 3191 0119 40       		.uleb128 0x40
 3192 011a 06       		.uleb128 0x6
 3193 011b 01       		.uleb128 0x1
 3194 011c 13       		.uleb128 0x13
 3195 011d 00       		.byte	0x0
 3196 011e 00       		.byte	0x0
 3197 011f 16       		.uleb128 0x16
 3198 0120 05       		.uleb128 0x5
 3199 0121 00       		.byte	0x0
 3200 0122 03       		.uleb128 0x3
 3201 0123 0E       		.uleb128 0xe
 3202 0124 3A       		.uleb128 0x3a
 3203 0125 0B       		.uleb128 0xb
 3204 0126 3B       		.uleb128 0x3b
 3205 0127 05       		.uleb128 0x5
 3206 0128 49       		.uleb128 0x49
 3207 0129 13       		.uleb128 0x13
 3208 012a 02       		.uleb128 0x2
 3209 012b 0A       		.uleb128 0xa
 3210 012c 00       		.byte	0x0
 3211 012d 00       		.byte	0x0
 3212 012e 17       		.uleb128 0x17
 3213 012f 34       		.uleb128 0x34
 3214 0130 00       		.byte	0x0
 3215 0131 03       		.uleb128 0x3
 3216 0132 0E       		.uleb128 0xe
 3217 0133 3A       		.uleb128 0x3a
 3218 0134 0B       		.uleb128 0xb
 3219 0135 3B       		.uleb128 0x3b
 3220 0136 05       		.uleb128 0x5
 3221 0137 49       		.uleb128 0x49
 3222 0138 13       		.uleb128 0x13
 3223 0139 02       		.uleb128 0x2
 3224 013a 0A       		.uleb128 0xa
 3225 013b 00       		.byte	0x0
ARM GAS  C:\Users\z80\AppData\Local\Temp\ccqYjHyO.s 			page 58


 3226 013c 00       		.byte	0x0
 3227 013d 18       		.uleb128 0x18
 3228 013e 2E       		.uleb128 0x2e
 3229 013f 01       		.byte	0x1
 3230 0140 3F       		.uleb128 0x3f
 3231 0141 0C       		.uleb128 0xc
 3232 0142 03       		.uleb128 0x3
 3233 0143 0E       		.uleb128 0xe
 3234 0144 3A       		.uleb128 0x3a
 3235 0145 0B       		.uleb128 0xb
 3236 0146 3B       		.uleb128 0x3b
 3237 0147 05       		.uleb128 0x5
 3238 0148 27       		.uleb128 0x27
 3239 0149 0C       		.uleb128 0xc
 3240 014a 49       		.uleb128 0x49
 3241 014b 13       		.uleb128 0x13
 3242 014c 11       		.uleb128 0x11
 3243 014d 01       		.uleb128 0x1
 3244 014e 12       		.uleb128 0x12
 3245 014f 01       		.uleb128 0x1
 3246 0150 40       		.uleb128 0x40
 3247 0151 06       		.uleb128 0x6
 3248 0152 01       		.uleb128 0x1
 3249 0153 13       		.uleb128 0x13
 3250 0154 00       		.byte	0x0
 3251 0155 00       		.byte	0x0
 3252 0156 19       		.uleb128 0x19
 3253 0157 34       		.uleb128 0x34
 3254 0158 00       		.byte	0x0
 3255 0159 03       		.uleb128 0x3
 3256 015a 0E       		.uleb128 0xe
 3257 015b 3A       		.uleb128 0x3a
 3258 015c 0B       		.uleb128 0xb
 3259 015d 3B       		.uleb128 0x3b
 3260 015e 05       		.uleb128 0x5
 3261 015f 49       		.uleb128 0x49
 3262 0160 13       		.uleb128 0x13
 3263 0161 3F       		.uleb128 0x3f
 3264 0162 0C       		.uleb128 0xc
 3265 0163 3C       		.uleb128 0x3c
 3266 0164 0C       		.uleb128 0xc
 3267 0165 00       		.byte	0x0
 3268 0166 00       		.byte	0x0
 3269 0167 00       		.byte	0x0
 3270              		.section	.debug_pubnames,"",%progbits
 3271 0000 F2010000 		.4byte	0x1f2
 3272 0004 0200     		.2byte	0x2
 3273 0006 00000000 		.4byte	.Ldebug_info0
 3274 000a 83090000 		.4byte	0x983
 3275 000e 6E030000 		.4byte	0x36e
 3276 0012 5350495F 		.ascii	"SPI_I2S_DeInit\000"
 3276      4932535F 
 3276      4465496E 
 3276      697400
 3277 0021 9C030000 		.4byte	0x39c
 3278 0025 5350495F 		.ascii	"SPI_Init\000"
 3278      496E6974 
ARM GAS  C:\Users\z80\AppData\Local\Temp\ccqYjHyO.s 			page 59


 3278      00
 3279 002e E6030000 		.4byte	0x3e6
 3280 0032 4932535F 		.ascii	"I2S_Init\000"
 3280      496E6974 
 3280      00
 3281 003b 84040000 		.4byte	0x484
 3282 003f 5350495F 		.ascii	"SPI_StructInit\000"
 3282      53747275 
 3282      6374496E 
 3282      697400
 3283 004e AE040000 		.4byte	0x4ae
 3284 0052 4932535F 		.ascii	"I2S_StructInit\000"
 3284      53747275 
 3284      6374496E 
 3284      697400
 3285 0061 D8040000 		.4byte	0x4d8
 3286 0065 5350495F 		.ascii	"SPI_Cmd\000"
 3286      436D6400 
 3287 006d 11050000 		.4byte	0x511
 3288 0071 4932535F 		.ascii	"I2S_Cmd\000"
 3288      436D6400 
 3289 0079 4A050000 		.4byte	0x54a
 3290 007d 5350495F 		.ascii	"SPI_I2S_ITConfig\000"
 3290      4932535F 
 3290      4954436F 
 3290      6E666967 
 3290      00
 3291 008e B0050000 		.4byte	0x5b0
 3292 0092 5350495F 		.ascii	"SPI_I2S_DMACmd\000"
 3292      4932535F 
 3292      444D4143 
 3292      6D6400
 3293 00a1 F8050000 		.4byte	0x5f8
 3294 00a5 5350495F 		.ascii	"SPI_I2S_SendData\000"
 3294      4932535F 
 3294      53656E64 
 3294      44617461 
 3294      00
 3295 00b6 31060000 		.4byte	0x631
 3296 00ba 5350495F 		.ascii	"SPI_I2S_ReceiveData\000"
 3296      4932535F 
 3296      52656365 
 3296      69766544 
 3296      61746100 
 3297 00ce 5F060000 		.4byte	0x65f
 3298 00d2 5350495F 		.ascii	"SPI_NSSInternalSoftwareConfig\000"
 3298      4E535349 
 3298      6E746572 
 3298      6E616C53 
 3298      6F667477 
 3299 00f0 98060000 		.4byte	0x698
 3300 00f4 5350495F 		.ascii	"SPI_SSOutputCmd\000"
 3300      53534F75 
 3300      74707574 
 3300      436D6400 
 3301 0104 D1060000 		.4byte	0x6d1
 3302 0108 5350495F 		.ascii	"SPI_DataSizeConfig\000"
ARM GAS  C:\Users\z80\AppData\Local\Temp\ccqYjHyO.s 			page 60


 3302      44617461 
 3302      53697A65 
 3302      436F6E66 
 3302      696700
 3303 011b 0A070000 		.4byte	0x70a
 3304 011f 5350495F 		.ascii	"SPI_TransmitCRC\000"
 3304      5472616E 
 3304      736D6974 
 3304      43524300 
 3305 012f 34070000 		.4byte	0x734
 3306 0133 5350495F 		.ascii	"SPI_CalculateCRC\000"
 3306      43616C63 
 3306      756C6174 
 3306      65435243 
 3306      00
 3307 0144 6D070000 		.4byte	0x76d
 3308 0148 5350495F 		.ascii	"SPI_GetCRC\000"
 3308      47657443 
 3308      524300
 3309 0153 B9070000 		.4byte	0x7b9
 3310 0157 5350495F 		.ascii	"SPI_GetCRCPolynomial\000"
 3310      47657443 
 3310      5243506F 
 3310      6C796E6F 
 3310      6D69616C 
 3311 016c E7070000 		.4byte	0x7e7
 3312 0170 5350495F 		.ascii	"SPI_BiDirectionalLineConfig\000"
 3312      42694469 
 3312      72656374 
 3312      696F6E61 
 3312      6C4C696E 
 3313 018c 20080000 		.4byte	0x820
 3314 0190 5350495F 		.ascii	"SPI_I2S_GetFlagStatus\000"
 3314      4932535F 
 3314      47657446 
 3314      6C616753 
 3314      74617475 
 3315 01a6 6C080000 		.4byte	0x86c
 3316 01aa 5350495F 		.ascii	"SPI_I2S_ClearFlag\000"
 3316      4932535F 
 3316      436C6561 
 3316      72466C61 
 3316      6700
 3317 01bc A5080000 		.4byte	0x8a5
 3318 01c0 5350495F 		.ascii	"SPI_I2S_GetITStatus\000"
 3318      4932535F 
 3318      47657449 
 3318      54537461 
 3318      74757300 
 3319 01d4 1E090000 		.4byte	0x91e
 3320 01d8 5350495F 		.ascii	"SPI_I2S_ClearITPendingBit\000"
 3320      4932535F 
 3320      436C6561 
 3320      72495450 
 3320      656E6469 
 3321 01f2 00000000 		.4byte	0x0
 3322              		.section	.debug_pubtypes,"",%progbits
ARM GAS  C:\Users\z80\AppData\Local\Temp\ccqYjHyO.s 			page 61


 3323 0000 BE000000 		.4byte	0xbe
 3324 0004 0200     		.2byte	0x2
 3325 0006 00000000 		.4byte	.Ldebug_info0
 3326 000a 83090000 		.4byte	0x983
 3327 000e 30000000 		.4byte	0x30
 3328 0012 75696E74 		.ascii	"uint8_t\000"
 3328      385F7400 
 3329 001a 49000000 		.4byte	0x49
 3330 001e 75696E74 		.ascii	"uint16_t\000"
 3330      31365F74 
 3330      00
 3331 0027 5B000000 		.4byte	0x5b
 3332 002b 696E7433 		.ascii	"int32_t\000"
 3332      325F7400 
 3333 0033 6D000000 		.4byte	0x6d
 3334 0037 75696E74 		.ascii	"uint32_t\000"
 3334      33325F74 
 3334      00
 3335 0040 BE000000 		.4byte	0xbe
 3336 0044 466C6167 		.ascii	"FlagStatus\000"
 3336      53746174 
 3336      757300
 3337 004f CA000000 		.4byte	0xca
 3338 0053 49545374 		.ascii	"ITStatus\000"
 3338      61747573 
 3338      00
 3339 005c EC000000 		.4byte	0xec
 3340 0060 46756E63 		.ascii	"FunctionalState\000"
 3340      74696F6E 
 3340      616C5374 
 3340      61746500 
 3341 0070 0E020000 		.4byte	0x20e
 3342 0074 5350495F 		.ascii	"SPI_TypeDef\000"
 3342      54797065 
 3342      44656600 
 3343 0080 A1020000 		.4byte	0x2a1
 3344 0084 5350495F 		.ascii	"SPI_InitTypeDef\000"
 3344      496E6974 
 3344      54797065 
 3344      44656600 
 3345 0094 09030000 		.4byte	0x309
 3346 0098 4932535F 		.ascii	"I2S_InitTypeDef\000"
 3346      496E6974 
 3346      54797065 
 3346      44656600 
 3347 00a8 63030000 		.4byte	0x363
 3348 00ac 5243435F 		.ascii	"RCC_ClocksTypeDef\000"
 3348      436C6F63 
 3348      6B735479 
 3348      70654465 
 3348      6600
 3349 00be 00000000 		.4byte	0x0
 3350              		.section	.debug_aranges,"",%progbits
 3351 0000 CC000000 		.4byte	0xcc
 3352 0004 0200     		.2byte	0x2
 3353 0006 00000000 		.4byte	.Ldebug_info0
 3354 000a 04       		.byte	0x4
ARM GAS  C:\Users\z80\AppData\Local\Temp\ccqYjHyO.s 			page 62


 3355 000b 00       		.byte	0x0
 3356 000c 0000     		.2byte	0x0
 3357 000e 0000     		.2byte	0x0
 3358 0010 00000000 		.4byte	.LFB56
 3359 0014 80000000 		.4byte	.LFE56-.LFB56
 3360 0018 00000000 		.4byte	.LFB57
 3361 001c 9C000000 		.4byte	.LFE57-.LFB57
 3362 0020 00000000 		.4byte	.LFB58
 3363 0024 CE010000 		.4byte	.LFE58-.LFB58
 3364 0028 00000000 		.4byte	.LFB59
 3365 002c 50000000 		.4byte	.LFE59-.LFB59
 3366 0030 00000000 		.4byte	.LFB60
 3367 0034 38000000 		.4byte	.LFE60-.LFB60
 3368 0038 00000000 		.4byte	.LFB61
 3369 003c 38000000 		.4byte	.LFE61-.LFB61
 3370 0040 00000000 		.4byte	.LFB62
 3371 0044 38000000 		.4byte	.LFE62-.LFB62
 3372 0048 00000000 		.4byte	.LFB63
 3373 004c 7A000000 		.4byte	.LFE63-.LFB63
 3374 0050 00000000 		.4byte	.LFB64
 3375 0054 4C000000 		.4byte	.LFE64-.LFB64
 3376 0058 00000000 		.4byte	.LFB65
 3377 005c 16000000 		.4byte	.LFE65-.LFB65
 3378 0060 00000000 		.4byte	.LFB66
 3379 0064 10000000 		.4byte	.LFE66-.LFB66
 3380 0068 00000000 		.4byte	.LFB67
 3381 006c 3C000000 		.4byte	.LFE67-.LFB67
 3382 0070 00000000 		.4byte	.LFB68
 3383 0074 38000000 		.4byte	.LFE68-.LFB68
 3384 0078 00000000 		.4byte	.LFB69
 3385 007c 32000000 		.4byte	.LFE69-.LFB69
 3386 0080 00000000 		.4byte	.LFB70
 3387 0084 18000000 		.4byte	.LFE70-.LFB70
 3388 0088 00000000 		.4byte	.LFB71
 3389 008c 38000000 		.4byte	.LFE71-.LFB71
 3390 0090 00000000 		.4byte	.LFB72
 3391 0094 36000000 		.4byte	.LFE72-.LFB72
 3392 0098 00000000 		.4byte	.LFB73
 3393 009c 10000000 		.4byte	.LFE73-.LFB73
 3394 00a0 00000000 		.4byte	.LFB74
 3395 00a4 3A000000 		.4byte	.LFE74-.LFB74
 3396 00a8 00000000 		.4byte	.LFB75
 3397 00ac 42000000 		.4byte	.LFE75-.LFB75
 3398 00b0 00000000 		.4byte	.LFB76
 3399 00b4 1C000000 		.4byte	.LFE76-.LFB76
 3400 00b8 00000000 		.4byte	.LFB77
 3401 00bc A6000000 		.4byte	.LFE77-.LFB77
 3402 00c0 00000000 		.4byte	.LFB78
 3403 00c4 38000000 		.4byte	.LFE78-.LFB78
 3404 00c8 00000000 		.4byte	0x0
 3405 00cc 00000000 		.4byte	0x0
 3406              		.section	.debug_ranges,"",%progbits
 3407              	.Ldebug_ranges0:
 3408 0000 00000000 		.4byte	.LFB56
 3409 0004 80000000 		.4byte	.LFE56
 3410 0008 00000000 		.4byte	.LFB57
 3411 000c 9C000000 		.4byte	.LFE57
ARM GAS  C:\Users\z80\AppData\Local\Temp\ccqYjHyO.s 			page 63


 3412 0010 00000000 		.4byte	.LFB58
 3413 0014 CE010000 		.4byte	.LFE58
 3414 0018 00000000 		.4byte	.LFB59
 3415 001c 50000000 		.4byte	.LFE59
 3416 0020 00000000 		.4byte	.LFB60
 3417 0024 38000000 		.4byte	.LFE60
 3418 0028 00000000 		.4byte	.LFB61
 3419 002c 38000000 		.4byte	.LFE61
 3420 0030 00000000 		.4byte	.LFB62
 3421 0034 38000000 		.4byte	.LFE62
 3422 0038 00000000 		.4byte	.LFB63
 3423 003c 7A000000 		.4byte	.LFE63
 3424 0040 00000000 		.4byte	.LFB64
 3425 0044 4C000000 		.4byte	.LFE64
 3426 0048 00000000 		.4byte	.LFB65
 3427 004c 16000000 		.4byte	.LFE65
 3428 0050 00000000 		.4byte	.LFB66
 3429 0054 10000000 		.4byte	.LFE66
 3430 0058 00000000 		.4byte	.LFB67
 3431 005c 3C000000 		.4byte	.LFE67
 3432 0060 00000000 		.4byte	.LFB68
 3433 0064 38000000 		.4byte	.LFE68
 3434 0068 00000000 		.4byte	.LFB69
 3435 006c 32000000 		.4byte	.LFE69
 3436 0070 00000000 		.4byte	.LFB70
 3437 0074 18000000 		.4byte	.LFE70
 3438 0078 00000000 		.4byte	.LFB71
 3439 007c 38000000 		.4byte	.LFE71
 3440 0080 00000000 		.4byte	.LFB72
 3441 0084 36000000 		.4byte	.LFE72
 3442 0088 00000000 		.4byte	.LFB73
 3443 008c 10000000 		.4byte	.LFE73
 3444 0090 00000000 		.4byte	.LFB74
 3445 0094 3A000000 		.4byte	.LFE74
 3446 0098 00000000 		.4byte	.LFB75
 3447 009c 42000000 		.4byte	.LFE75
 3448 00a0 00000000 		.4byte	.LFB76
 3449 00a4 1C000000 		.4byte	.LFE76
 3450 00a8 00000000 		.4byte	.LFB77
 3451 00ac A6000000 		.4byte	.LFE77
 3452 00b0 00000000 		.4byte	.LFB78
 3453 00b4 38000000 		.4byte	.LFE78
 3454 00b8 00000000 		.4byte	0x0
 3455 00bc 00000000 		.4byte	0x0
 3456              		.section	.debug_str,"MS",%progbits,1
 3457              	.LASF78:
 3458 0000 5350495F 		.ascii	"SPI_I2S_DMACmd\000"
 3458      4932535F 
 3458      444D4143 
 3458      6D6400
 3459              	.LASF38:
 3460 000f 5350495F 		.ascii	"SPI_CPHA\000"
 3460      43504841 
 3460      00
 3461              	.LASF34:
 3462 0018 5350495F 		.ascii	"SPI_Direction\000"
 3462      44697265 
ARM GAS  C:\Users\z80\AppData\Local\Temp\ccqYjHyO.s 			page 64


 3462      6374696F 
 3462      6E00
 3463              	.LASF15:
 3464 0026 49545374 		.ascii	"ITStatus\000"
 3464      61747573 
 3464      00
 3465              	.LASF92:
 3466 002f 5350495F 		.ascii	"SPI_GetCRCPolynomial\000"
 3466      47657443 
 3466      5243506F 
 3466      6C796E6F 
 3466      6D69616C 
 3467              	.LASF76:
 3468 0044 6974706F 		.ascii	"itpos\000"
 3468      7300
 3469              	.LASF36:
 3470 004a 5350495F 		.ascii	"SPI_DataSize\000"
 3470      44617461 
 3470      53697A65 
 3470      00
 3471              	.LASF95:
 3472 0057 5350495F 		.ascii	"SPI_I2S_FLAG\000"
 3472      4932535F 
 3472      464C4147 
 3472      00
 3473              	.LASF45:
 3474 0064 4932535F 		.ascii	"I2S_Standard\000"
 3474      5374616E 
 3474      64617264 
 3474      00
 3475              	.LASF58:
 3476 0071 5350495F 		.ascii	"SPI_Init\000"
 3476      496E6974 
 3476      00
 3477              	.LASF41:
 3478 007a 5350495F 		.ascii	"SPI_FirstBit\000"
 3478      46697273 
 3478      74426974 
 3478      00
 3479              	.LASF52:
 3480 0087 48434C4B 		.ascii	"HCLK_Frequency\000"
 3480      5F467265 
 3480      7175656E 
 3480      637900
 3481              	.LASF49:
 3482 0096 4932535F 		.ascii	"I2S_CPOL\000"
 3482      43504F4C 
 3482      00
 3483              	.LASF66:
 3484 009f 7061636B 		.ascii	"packetlength\000"
 3484      65746C65 
 3484      6E677468 
 3484      00
 3485              	.LASF10:
 3486 00ac 6C6F6E67 		.ascii	"long long int\000"
 3486      206C6F6E 
 3486      6720696E 
ARM GAS  C:\Users\z80\AppData\Local\Temp\ccqYjHyO.s 			page 65


 3486      7400
 3487              	.LASF80:
 3488 00ba 5350495F 		.ascii	"SPI_I2S_SendData\000"
 3488      4932535F 
 3488      53656E64 
 3488      44617461 
 3488      00
 3489              	.LASF39:
 3490 00cb 5350495F 		.ascii	"SPI_NSS\000"
 3490      4E535300 
 3491              	.LASF79:
 3492 00d3 5350495F 		.ascii	"SPI_I2S_DMAReq\000"
 3492      4932535F 
 3492      444D4152 
 3492      657100
 3493              	.LASF56:
 3494 00e2 5243435F 		.ascii	"RCC_ClocksTypeDef\000"
 3494      436C6F63 
 3494      6B735479 
 3494      70654465 
 3494      6600
 3495              	.LASF27:
 3496 00f4 54584352 		.ascii	"TXCRCR\000"
 3496      435200
 3497              	.LASF2:
 3498 00fb 73686F72 		.ascii	"short int\000"
 3498      7420696E 
 3498      7400
 3499              	.LASF40:
 3500 0105 5350495F 		.ascii	"SPI_BaudRatePrescaler\000"
 3500      42617564 
 3500      52617465 
 3500      50726573 
 3500      63616C65 
 3501              	.LASF25:
 3502 011b 52584352 		.ascii	"RXCRCR\000"
 3502      435200
 3503              	.LASF22:
 3504 0122 52455345 		.ascii	"RESERVED3\000"
 3504      52564544 
 3504      3300
 3505              	.LASF3:
 3506 012c 75696E74 		.ascii	"uint8_t\000"
 3506      385F7400 
 3507              	.LASF68:
 3508 0134 736F7572 		.ascii	"sourceclock\000"
 3508      6365636C 
 3508      6F636B00 
 3509              	.LASF30:
 3510 0140 52455345 		.ascii	"RESERVED7\000"
 3510      52564544 
 3510      3700
 3511              	.LASF72:
 3512 014a 4E657753 		.ascii	"NewState\000"
 3512      74617465 
 3512      00
 3513              	.LASF62:
ARM GAS  C:\Users\z80\AppData\Local\Temp\ccqYjHyO.s 			page 66


 3514 0153 4932535F 		.ascii	"I2S_InitStruct\000"
 3514      496E6974 
 3514      53747275 
 3514      637400
 3515              	.LASF16:
 3516 0162 44495341 		.ascii	"DISABLE\000"
 3516      424C4500 
 3517              	.LASF50:
 3518 016a 4932535F 		.ascii	"I2S_InitTypeDef\000"
 3518      496E6974 
 3518      54797065 
 3518      44656600 
 3519              	.LASF99:
 3520 017a 656E6162 		.ascii	"enablestatus\000"
 3520      6C657374 
 3520      61747573 
 3520      00
 3521              	.LASF61:
 3522 0187 4932535F 		.ascii	"I2S_Init\000"
 3522      496E6974 
 3522      00
 3523              	.LASF70:
 3524 0190 4932535F 		.ascii	"I2S_StructInit\000"
 3524      53747275 
 3524      6374496E 
 3524      697400
 3525              	.LASF104:
 3526 019f 433A5C70 		.ascii	"C:\\projects\\clock.git\\firmware\\firmware\000"
 3526      726F6A65 
 3526      6374735C 
 3526      636C6F63 
 3526      6B2E6769 
 3527              	.LASF93:
 3528 01c7 5350495F 		.ascii	"SPI_BiDirectionalLineConfig\000"
 3528      42694469 
 3528      72656374 
 3528      696F6E61 
 3528      6C4C696E 
 3529              	.LASF64:
 3530 01e3 69327364 		.ascii	"i2sdiv\000"
 3530      697600
 3531              	.LASF74:
 3532 01ea 5350495F 		.ascii	"SPI_I2S_ITConfig\000"
 3532      4932535F 
 3532      4954436F 
 3532      6E666967 
 3532      00
 3533              	.LASF48:
 3534 01fb 4932535F 		.ascii	"I2S_AudioFreq\000"
 3534      41756469 
 3534      6F467265 
 3534      7100
 3535              	.LASF103:
 3536 0209 73746470 		.ascii	"stdperiph/stm32f10x_spi.c\000"
 3536      65726970 
 3536      682F7374 
 3536      6D333266 
ARM GAS  C:\Users\z80\AppData\Local\Temp\ccqYjHyO.s 			page 67


 3536      3130785F 
 3537              	.LASF14:
 3538 0223 466C6167 		.ascii	"FlagStatus\000"
 3538      53746174 
 3538      757300
 3539              	.LASF47:
 3540 022e 4932535F 		.ascii	"I2S_MCLKOutput\000"
 3540      4D434C4B 
 3540      4F757470 
 3540      757400
 3541              	.LASF81:
 3542 023d 44617461 		.ascii	"Data\000"
 3542      00
 3543              	.LASF90:
 3544 0242 5350495F 		.ascii	"SPI_CRC\000"
 3544      43524300 
 3545              	.LASF75:
 3546 024a 5350495F 		.ascii	"SPI_I2S_IT\000"
 3546      4932535F 
 3546      495400
 3547              	.LASF63:
 3548 0255 746D7072 		.ascii	"tmpreg\000"
 3548      656700
 3549              	.LASF71:
 3550 025c 5350495F 		.ascii	"SPI_Cmd\000"
 3550      436D6400 
 3551              	.LASF89:
 3552 0264 5350495F 		.ascii	"SPI_GetCRC\000"
 3552      47657443 
 3552      524300
 3553              	.LASF85:
 3554 026f 5350495F 		.ascii	"SPI_DataSizeConfig\000"
 3554      44617461 
 3554      53697A65 
 3554      436F6E66 
 3554      696700
 3555              	.LASF1:
 3556 0282 756E7369 		.ascii	"unsigned char\000"
 3556      676E6564 
 3556      20636861 
 3556      7200
 3557              	.LASF46:
 3558 0290 4932535F 		.ascii	"I2S_DataFormat\000"
 3558      44617461 
 3558      466F726D 
 3558      617400
 3559              	.LASF57:
 3560 029f 5350495F 		.ascii	"SPI_I2S_DeInit\000"
 3560      4932535F 
 3560      4465496E 
 3560      697400
 3561              	.LASF0:
 3562 02ae 7369676E 		.ascii	"signed char\000"
 3562      65642063 
 3562      68617200 
 3563              	.LASF82:
 3564 02ba 5350495F 		.ascii	"SPI_NSSInternalSoftwareConfig\000"
ARM GAS  C:\Users\z80\AppData\Local\Temp\ccqYjHyO.s 			page 68


 3564      4E535349 
 3564      6E746572 
 3564      6E616C53 
 3564      6F667477 
 3565              	.LASF11:
 3566 02d8 6C6F6E67 		.ascii	"long long unsigned int\000"
 3566      206C6F6E 
 3566      6720756E 
 3566      7369676E 
 3566      65642069 
 3567              	.LASF8:
 3568 02ef 75696E74 		.ascii	"uint32_t\000"
 3568      33325F74 
 3568      00
 3569              	.LASF29:
 3570 02f8 49325343 		.ascii	"I2SCFGR\000"
 3570      46475200 
 3571              	.LASF12:
 3572 0300 756E7369 		.ascii	"unsigned int\000"
 3572      676E6564 
 3572      20696E74 
 3572      00
 3573              	.LASF4:
 3574 030d 75696E74 		.ascii	"uint16_t\000"
 3574      31365F74 
 3574      00
 3575              	.LASF98:
 3576 0316 5350495F 		.ascii	"SPI_I2S_GetITStatus\000"
 3576      4932535F 
 3576      47657449 
 3576      54537461 
 3576      74757300 
 3577              	.LASF9:
 3578 032a 6C6F6E67 		.ascii	"long unsigned int\000"
 3578      20756E73 
 3578      69676E65 
 3578      6420696E 
 3578      7400
 3579              	.LASF5:
 3580 033c 73686F72 		.ascii	"short unsigned int\000"
 3580      7420756E 
 3580      7369676E 
 3580      65642069 
 3580      6E7400
 3581              	.LASF23:
 3582 034f 43524350 		.ascii	"CRCPR\000"
 3582      5200
 3583              	.LASF35:
 3584 0355 5350495F 		.ascii	"SPI_Mode\000"
 3584      4D6F6465 
 3584      00
 3585              	.LASF7:
 3586 035e 6C6F6E67 		.ascii	"long int\000"
 3586      20696E74 
 3586      00
 3587              	.LASF6:
 3588 0367 696E7433 		.ascii	"int32_t\000"
ARM GAS  C:\Users\z80\AppData\Local\Temp\ccqYjHyO.s 			page 69


 3588      325F7400 
 3589              	.LASF55:
 3590 036f 41444343 		.ascii	"ADCCLK_Frequency\000"
 3590      4C4B5F46 
 3590      72657175 
 3590      656E6379 
 3590      00
 3591              	.LASF33:
 3592 0380 5350495F 		.ascii	"SPI_TypeDef\000"
 3592      54797065 
 3592      44656600 
 3593              	.LASF96:
 3594 038c 62697473 		.ascii	"bitstatus\000"
 3594      74617475 
 3594      7300
 3595              	.LASF51:
 3596 0396 53595343 		.ascii	"SYSCLK_Frequency\000"
 3596      4C4B5F46 
 3596      72657175 
 3596      656E6379 
 3596      00
 3597              	.LASF67:
 3598 03a7 5243435F 		.ascii	"RCC_Clocks\000"
 3598      436C6F63 
 3598      6B7300
 3599              	.LASF54:
 3600 03b2 50434C4B 		.ascii	"PCLK2_Frequency\000"
 3600      325F4672 
 3600      65717565 
 3600      6E637900 
 3601              	.LASF88:
 3602 03c2 5350495F 		.ascii	"SPI_I2S_ReceiveData\000"
 3602      4932535F 
 3602      52656365 
 3602      69766544 
 3602      61746100 
 3603              	.LASF83:
 3604 03d6 5350495F 		.ascii	"SPI_NSSInternalSoft\000"
 3604      4E535349 
 3604      6E746572 
 3604      6E616C53 
 3604      6F667400 
 3605              	.LASF97:
 3606 03ea 5350495F 		.ascii	"SPI_I2S_ClearFlag\000"
 3606      4932535F 
 3606      436C6561 
 3606      72466C61 
 3606      6700
 3607              	.LASF19:
 3608 03fc 52455345 		.ascii	"RESERVED0\000"
 3608      52564544 
 3608      3000
 3609              	.LASF20:
 3610 0406 52455345 		.ascii	"RESERVED1\000"
 3610      52564544 
 3610      3100
 3611              	.LASF21:
ARM GAS  C:\Users\z80\AppData\Local\Temp\ccqYjHyO.s 			page 70


 3612 0410 52455345 		.ascii	"RESERVED2\000"
 3612      52564544 
 3612      3200
 3613              	.LASF73:
 3614 041a 4932535F 		.ascii	"I2S_Cmd\000"
 3614      436D6400 
 3615              	.LASF24:
 3616 0422 52455345 		.ascii	"RESERVED4\000"
 3616      52564544 
 3616      3400
 3617              	.LASF26:
 3618 042c 52455345 		.ascii	"RESERVED5\000"
 3618      52564544 
 3618      3500
 3619              	.LASF28:
 3620 0436 52455345 		.ascii	"RESERVED6\000"
 3620      52564544 
 3620      3600
 3621              	.LASF69:
 3622 0440 5350495F 		.ascii	"SPI_StructInit\000"
 3622      53747275 
 3622      6374496E 
 3622      697400
 3623              	.LASF32:
 3624 044f 52455345 		.ascii	"RESERVED8\000"
 3624      52564544 
 3624      3800
 3625              	.LASF18:
 3626 0459 46756E63 		.ascii	"FunctionalState\000"
 3626      74696F6E 
 3626      616C5374 
 3626      61746500 
 3627              	.LASF102:
 3628 0469 474E5520 		.ascii	"GNU C 4.5.0\000"
 3628      4320342E 
 3628      352E3000 
 3629              	.LASF53:
 3630 0475 50434C4B 		.ascii	"PCLK1_Frequency\000"
 3630      315F4672 
 3630      65717565 
 3630      6E637900 
 3631              	.LASF100:
 3632 0485 5350495F 		.ascii	"SPI_I2S_ClearITPendingBit\000"
 3632      4932535F 
 3632      436C6561 
 3632      72495450 
 3632      656E6469 
 3633              	.LASF13:
 3634 049f 52455345 		.ascii	"RESET\000"
 3634      5400
 3635              	.LASF44:
 3636 04a5 4932535F 		.ascii	"I2S_Mode\000"
 3636      4D6F6465 
 3636      00
 3637              	.LASF94:
 3638 04ae 5350495F 		.ascii	"SPI_I2S_GetFlagStatus\000"
 3638      4932535F 
ARM GAS  C:\Users\z80\AppData\Local\Temp\ccqYjHyO.s 			page 71


 3638      47657446 
 3638      6C616753 
 3638      74617475 
 3639              	.LASF59:
 3640 04c4 53504978 		.ascii	"SPIx\000"
 3640      00
 3641              	.LASF84:
 3642 04c9 5350495F 		.ascii	"SPI_SSOutputCmd\000"
 3642      53534F75 
 3642      74707574 
 3642      436D6400 
 3643              	.LASF65:
 3644 04d9 6932736F 		.ascii	"i2sodd\000"
 3644      646400
 3645              	.LASF86:
 3646 04e0 5350495F 		.ascii	"SPI_TransmitCRC\000"
 3646      5472616E 
 3646      736D6974 
 3646      43524300 
 3647              	.LASF37:
 3648 04f0 5350495F 		.ascii	"SPI_CPOL\000"
 3648      43504F4C 
 3648      00
 3649              	.LASF77:
 3650 04f9 69746D61 		.ascii	"itmask\000"
 3650      736B00
 3651              	.LASF101:
 3652 0500 49544D5F 		.ascii	"ITM_RxBuffer\000"
 3652      52784275 
 3652      66666572 
 3652      00
 3653              	.LASF87:
 3654 050d 5350495F 		.ascii	"SPI_CalculateCRC\000"
 3654      43616C63 
 3654      756C6174 
 3654      65435243 
 3654      00
 3655              	.LASF31:
 3656 051e 49325350 		.ascii	"I2SPR\000"
 3656      5200
 3657              	.LASF91:
 3658 0524 63726372 		.ascii	"crcreg\000"
 3658      656700
 3659              	.LASF42:
 3660 052b 5350495F 		.ascii	"SPI_CRCPolynomial\000"
 3660      43524350 
 3660      6F6C796E 
 3660      6F6D6961 
 3660      6C00
 3661              	.LASF17:
 3662 053d 454E4142 		.ascii	"ENABLE\000"
 3662      4C4500
 3663              	.LASF43:
 3664 0544 5350495F 		.ascii	"SPI_InitTypeDef\000"
 3664      496E6974 
 3664      54797065 
 3664      44656600 
ARM GAS  C:\Users\z80\AppData\Local\Temp\ccqYjHyO.s 			page 72


 3665              	.LASF60:
 3666 0554 5350495F 		.ascii	"SPI_InitStruct\000"
 3666      496E6974 
 3666      53747275 
 3666      637400
 3667              		.ident	"GCC: (GNU) 4.5.0"
ARM GAS  C:\Users\z80\AppData\Local\Temp\ccqYjHyO.s 			page 73


DEFINED SYMBOLS
                            *ABS*:00000000 stm32f10x_spi.c
C:\Users\z80\AppData\Local\Temp\ccqYjHyO.s:24     .text.SPI_I2S_DeInit:00000000 $t
C:\Users\z80\AppData\Local\Temp\ccqYjHyO.s:30     .text.SPI_I2S_DeInit:00000000 SPI_I2S_DeInit
C:\Users\z80\AppData\Local\Temp\ccqYjHyO.s:99     .text.SPI_Init:00000000 $t
C:\Users\z80\AppData\Local\Temp\ccqYjHyO.s:105    .text.SPI_Init:00000000 SPI_Init
C:\Users\z80\AppData\Local\Temp\ccqYjHyO.s:198    .text.I2S_Init:00000000 $t
C:\Users\z80\AppData\Local\Temp\ccqYjHyO.s:204    .text.I2S_Init:00000000 I2S_Init
C:\Users\z80\AppData\Local\Temp\ccqYjHyO.s:425    .text.SPI_StructInit:00000000 $t
C:\Users\z80\AppData\Local\Temp\ccqYjHyO.s:431    .text.SPI_StructInit:00000000 SPI_StructInit
C:\Users\z80\AppData\Local\Temp\ccqYjHyO.s:485    .text.I2S_StructInit:00000000 $t
C:\Users\z80\AppData\Local\Temp\ccqYjHyO.s:491    .text.I2S_StructInit:00000000 I2S_StructInit
C:\Users\z80\AppData\Local\Temp\ccqYjHyO.s:533    .text.SPI_Cmd:00000000 $t
C:\Users\z80\AppData\Local\Temp\ccqYjHyO.s:539    .text.SPI_Cmd:00000000 SPI_Cmd
C:\Users\z80\AppData\Local\Temp\ccqYjHyO.s:582    .text.I2S_Cmd:00000000 $t
C:\Users\z80\AppData\Local\Temp\ccqYjHyO.s:588    .text.I2S_Cmd:00000000 I2S_Cmd
C:\Users\z80\AppData\Local\Temp\ccqYjHyO.s:631    .text.SPI_I2S_ITConfig:00000000 $t
C:\Users\z80\AppData\Local\Temp\ccqYjHyO.s:637    .text.SPI_I2S_ITConfig:00000000 SPI_I2S_ITConfig
C:\Users\z80\AppData\Local\Temp\ccqYjHyO.s:701    .text.SPI_I2S_DMACmd:00000000 $t
C:\Users\z80\AppData\Local\Temp\ccqYjHyO.s:707    .text.SPI_I2S_DMACmd:00000000 SPI_I2S_DMACmd
C:\Users\z80\AppData\Local\Temp\ccqYjHyO.s:756    .text.SPI_I2S_SendData:00000000 $t
C:\Users\z80\AppData\Local\Temp\ccqYjHyO.s:762    .text.SPI_I2S_SendData:00000000 SPI_I2S_SendData
C:\Users\z80\AppData\Local\Temp\ccqYjHyO.s:786    .text.SPI_I2S_ReceiveData:00000000 $t
C:\Users\z80\AppData\Local\Temp\ccqYjHyO.s:792    .text.SPI_I2S_ReceiveData:00000000 SPI_I2S_ReceiveData
C:\Users\z80\AppData\Local\Temp\ccqYjHyO.s:815    .text.SPI_NSSInternalSoftwareConfig:00000000 $t
C:\Users\z80\AppData\Local\Temp\ccqYjHyO.s:821    .text.SPI_NSSInternalSoftwareConfig:00000000 SPI_NSSInternalSoftwareConfig
C:\Users\z80\AppData\Local\Temp\ccqYjHyO.s:865    .text.SPI_SSOutputCmd:00000000 $t
C:\Users\z80\AppData\Local\Temp\ccqYjHyO.s:871    .text.SPI_SSOutputCmd:00000000 SPI_SSOutputCmd
C:\Users\z80\AppData\Local\Temp\ccqYjHyO.s:914    .text.SPI_DataSizeConfig:00000000 $t
C:\Users\z80\AppData\Local\Temp\ccqYjHyO.s:920    .text.SPI_DataSizeConfig:00000000 SPI_DataSizeConfig
C:\Users\z80\AppData\Local\Temp\ccqYjHyO.s:957    .text.SPI_TransmitCRC:00000000 $t
C:\Users\z80\AppData\Local\Temp\ccqYjHyO.s:963    .text.SPI_TransmitCRC:00000000 SPI_TransmitCRC
C:\Users\z80\AppData\Local\Temp\ccqYjHyO.s:989    .text.SPI_CalculateCRC:00000000 $t
C:\Users\z80\AppData\Local\Temp\ccqYjHyO.s:995    .text.SPI_CalculateCRC:00000000 SPI_CalculateCRC
C:\Users\z80\AppData\Local\Temp\ccqYjHyO.s:1038   .text.SPI_GetCRC:00000000 $t
C:\Users\z80\AppData\Local\Temp\ccqYjHyO.s:1044   .text.SPI_GetCRC:00000000 SPI_GetCRC
C:\Users\z80\AppData\Local\Temp\ccqYjHyO.s:1085   .text.SPI_GetCRCPolynomial:00000000 $t
C:\Users\z80\AppData\Local\Temp\ccqYjHyO.s:1091   .text.SPI_GetCRCPolynomial:00000000 SPI_GetCRCPolynomial
C:\Users\z80\AppData\Local\Temp\ccqYjHyO.s:1114   .text.SPI_BiDirectionalLineConfig:00000000 $t
C:\Users\z80\AppData\Local\Temp\ccqYjHyO.s:1120   .text.SPI_BiDirectionalLineConfig:00000000 SPI_BiDirectionalLineConfig
C:\Users\z80\AppData\Local\Temp\ccqYjHyO.s:1163   .text.SPI_I2S_GetFlagStatus:00000000 $t
C:\Users\z80\AppData\Local\Temp\ccqYjHyO.s:1169   .text.SPI_I2S_GetFlagStatus:00000000 SPI_I2S_GetFlagStatus
C:\Users\z80\AppData\Local\Temp\ccqYjHyO.s:1213   .text.SPI_I2S_ClearFlag:00000000 $t
C:\Users\z80\AppData\Local\Temp\ccqYjHyO.s:1219   .text.SPI_I2S_ClearFlag:00000000 SPI_I2S_ClearFlag
C:\Users\z80\AppData\Local\Temp\ccqYjHyO.s:1245   .text.SPI_I2S_GetITStatus:00000000 $t
C:\Users\z80\AppData\Local\Temp\ccqYjHyO.s:1251   .text.SPI_I2S_GetITStatus:00000000 SPI_I2S_GetITStatus
C:\Users\z80\AppData\Local\Temp\ccqYjHyO.s:1329   .text.SPI_I2S_ClearITPendingBit:00000000 $t
C:\Users\z80\AppData\Local\Temp\ccqYjHyO.s:1335   .text.SPI_I2S_ClearITPendingBit:00000000 SPI_I2S_ClearITPendingBit
                     .debug_frame:00000010 $d

UNDEFINED SYMBOLS
RCC_APB2PeriphResetCmd
RCC_APB1PeriphResetCmd
RCC_GetClocksFreq
