ARM GAS  C:\Users\z80\AppData\Local\Temp\cckkFSRu.s 			page 1


   1              		.syntax unified
   2              		.cpu cortex-m3
   3              		.fpu softvfp
   4              		.eabi_attribute 20, 1
   5              		.eabi_attribute 21, 1
   6              		.eabi_attribute 23, 3
   7              		.eabi_attribute 24, 1
   8              		.eabi_attribute 25, 1
   9              		.eabi_attribute 26, 1
  10              		.eabi_attribute 30, 6
  11              		.eabi_attribute 18, 4
  12              		.thumb
  13              		.file	"syscalls.c"
  14              		.section	.debug_abbrev,"",%progbits
  15              	.Ldebug_abbrev0:
  16              		.section	.debug_info,"",%progbits
  17              	.Ldebug_info0:
  18              		.section	.debug_line,"",%progbits
  19              	.Ldebug_line0:
  20 0000 8E010000 		.text
  20      0200FE00 
  20      00000201 
  20      FB0E0D00 
  20      01010101 
  21              	.Ltext0:
  22              		.cfi_sections	.debug_frame
  23              		.section	.text._read_r,"ax",%progbits
  24              		.align	2
  25              		.p2align 4,,15
  26              		.global	_read_r
  27              		.thumb
  28              		.thumb_func
  29              		.type	_read_r, %function
  30              	_read_r:
  31              	.LFB7:
  32              		.file 1 "../chibios_2.6.3/os/various/syscalls.c"
  33              		.loc 1 76 0
  34              		.cfi_startproc
  35              		@ args = 0, pretend = 0, frame = 16
  36              		@ frame_needed = 0, uses_anonymous_args = 0
  37              		@ link register save eliminated.
  38 0000 84B0     		sub	sp, sp, #16
  39              	.LCFI0:
  40              		.cfi_def_cfa_offset 16
  41 0002 0390     		str	r0, [sp, #12]
  42 0004 0291     		str	r1, [sp, #8]
  43 0006 0192     		str	r2, [sp, #4]
  44 0008 0093     		str	r3, [sp, #0]
  45              		.loc 1 89 0
  46 000a 039B     		ldr	r3, [sp, #12]
  47 000c 4FF01602 		mov	r2, #22
  48 0010 1A60     		str	r2, [r3, #0]
  49              		.loc 1 90 0
  50 0012 4FF0FF33 		mov	r3, #-1
  51              		.loc 1 92 0
  52 0016 1846     		mov	r0, r3
  53 0018 04B0     		add	sp, sp, #16
ARM GAS  C:\Users\z80\AppData\Local\Temp\cckkFSRu.s 			page 2


  54 001a 7047     		bx	lr
  55              		.cfi_endproc
  56              	.LFE7:
  57              		.size	_read_r, .-_read_r
  58 001c AFF30080 		.section	.text._lseek_r,"ax",%progbits
  59              		.align	2
  60              		.p2align 4,,15
  61              		.global	_lseek_r
  62              		.thumb
  63              		.thumb_func
  64              		.type	_lseek_r, %function
  65              	_lseek_r:
  66              	.LFB8:
  67              		.loc 1 97 0
  68              		.cfi_startproc
  69              		@ args = 0, pretend = 0, frame = 16
  70              		@ frame_needed = 0, uses_anonymous_args = 0
  71              		@ link register save eliminated.
  72 0000 84B0     		sub	sp, sp, #16
  73              	.LCFI1:
  74              		.cfi_def_cfa_offset 16
  75 0002 0390     		str	r0, [sp, #12]
  76 0004 0291     		str	r1, [sp, #8]
  77 0006 0192     		str	r2, [sp, #4]
  78 0008 0093     		str	r3, [sp, #0]
  79              		.loc 1 103 0
  80 000a 4FF00003 		mov	r3, #0
  81              		.loc 1 104 0
  82 000e 1846     		mov	r0, r3
  83 0010 04B0     		add	sp, sp, #16
  84 0012 7047     		bx	lr
  85              		.cfi_endproc
  86              	.LFE8:
  87              		.size	_lseek_r, .-_lseek_r
  88 0014 AFF30080 		.section	.text._write_r,"ax",%progbits
  88      AFF30080 
  88      AFF30080 
  89              		.align	2
  90              		.p2align 4,,15
  91              		.global	_write_r
  92              		.thumb
  93              		.thumb_func
  94              		.type	_write_r, %function
  95              	_write_r:
  96              	.LFB9:
  97              		.loc 1 109 0
  98              		.cfi_startproc
  99              		@ args = 0, pretend = 0, frame = 16
 100              		@ frame_needed = 0, uses_anonymous_args = 0
 101              		@ link register save eliminated.
 102 0000 84B0     		sub	sp, sp, #16
 103              	.LCFI2:
 104              		.cfi_def_cfa_offset 16
 105 0002 0390     		str	r0, [sp, #12]
 106 0004 0291     		str	r1, [sp, #8]
 107 0006 0192     		str	r2, [sp, #4]
 108 0008 0093     		str	r3, [sp, #0]
ARM GAS  C:\Users\z80\AppData\Local\Temp\cckkFSRu.s 			page 3


 109              		.loc 1 120 0
 110 000a 009B     		ldr	r3, [sp, #0]
 111              		.loc 1 121 0
 112 000c 1846     		mov	r0, r3
 113 000e 04B0     		add	sp, sp, #16
 114 0010 7047     		bx	lr
 115              		.cfi_endproc
 116              	.LFE9:
 117              		.size	_write_r, .-_write_r
 118 0012 00BFAFF3 		.section	.text._close_r,"ax",%progbits
 118      0080AFF3 
 118      0080AFF3 
 118      0080
 119              		.align	2
 120              		.p2align 4,,15
 121              		.global	_close_r
 122              		.thumb
 123              		.thumb_func
 124              		.type	_close_r, %function
 125              	_close_r:
 126              	.LFB10:
 127              		.loc 1 126 0
 128              		.cfi_startproc
 129              		@ args = 0, pretend = 0, frame = 8
 130              		@ frame_needed = 0, uses_anonymous_args = 0
 131              		@ link register save eliminated.
 132 0000 82B0     		sub	sp, sp, #8
 133              	.LCFI3:
 134              		.cfi_def_cfa_offset 8
 135 0002 0190     		str	r0, [sp, #4]
 136 0004 0091     		str	r1, [sp, #0]
 137              		.loc 1 130 0
 138 0006 4FF00003 		mov	r3, #0
 139              		.loc 1 131 0
 140 000a 1846     		mov	r0, r3
 141 000c 02B0     		add	sp, sp, #8
 142 000e 7047     		bx	lr
 143              		.cfi_endproc
 144              	.LFE10:
 145              		.size	_close_r, .-_close_r
 146              		.section	.text._sbrk_r,"ax",%progbits
 147              		.align	2
 148              		.p2align 4,,15
 149              		.global	_sbrk_r
 150              		.thumb
 151              		.thumb_func
 152              		.type	_sbrk_r, %function
 153              	_sbrk_r:
 154              	.LFB11:
 155              		.loc 1 136 0
 156              		.cfi_startproc
 157              		@ args = 0, pretend = 0, frame = 16
 158              		@ frame_needed = 0, uses_anonymous_args = 0
 159 0000 00B5     		push	{lr}
 160              	.LCFI4:
 161              		.cfi_def_cfa_offset 4
 162 0002 85B0     		sub	sp, sp, #20
ARM GAS  C:\Users\z80\AppData\Local\Temp\cckkFSRu.s 			page 4


 163              	.LCFI5:
 164              		.cfi_def_cfa_offset 24
 165 0004 0190     		str	r0, [sp, #4]
 166 0006 0091     		str	r1, [sp, #0]
 167              		.loc 1 140 0
 168 0008 009B     		ldr	r3, [sp, #0]
 169 000a 002B     		cmp	r3, #0
 170              		.loc 1 143 0
 171 000c 009B     		ldr	r3, [sp, #0]
 172 000e 1846     		mov	r0, r3
 173              		.cfi_offset 14, -4
 174 0010 FFF7FEFF 		bl	chCoreAlloc
 175 0014 0346     		mov	r3, r0
 176 0016 0393     		str	r3, [sp, #12]
 177              		.loc 1 144 0
 178 0018 039B     		ldr	r3, [sp, #12]
 179 001a 002B     		cmp	r3, #0
 180 001c 06D1     		bne	.L7
 181              		.loc 1 145 0
 182 001e 019B     		ldr	r3, [sp, #4]
 183 0020 4FF00C02 		mov	r2, #12
 184 0024 1A60     		str	r2, [r3, #0]
 185              		.loc 1 146 0
 186 0026 4FF0FF33 		mov	r3, #-1
 187 002a 00E0     		b	.L8
 188              	.L7:
 189              		.loc 1 148 0
 190 002c 039B     		ldr	r3, [sp, #12]
 191              	.L8:
 192              		.loc 1 153 0
 193 002e 1846     		mov	r0, r3
 194 0030 05B0     		add	sp, sp, #20
 195 0032 00BD     		pop	{pc}
 196              		.cfi_endproc
 197              	.LFE11:
 198              		.size	_sbrk_r, .-_sbrk_r
 199 0034 AFF30080 		.section	.text._fstat_r,"ax",%progbits
 199      AFF30080 
 199      AFF30080 
 200              		.align	2
 201              		.p2align 4,,15
 202              		.global	_fstat_r
 203              		.thumb
 204              		.thumb_func
 205              		.type	_fstat_r, %function
 206              	_fstat_r:
 207              	.LFB12:
 208              		.loc 1 158 0
 209              		.cfi_startproc
 210              		@ args = 0, pretend = 0, frame = 16
 211              		@ frame_needed = 0, uses_anonymous_args = 0
 212 0000 00B5     		push	{lr}
 213              	.LCFI6:
 214              		.cfi_def_cfa_offset 4
 215 0002 85B0     		sub	sp, sp, #20
 216              	.LCFI7:
 217              		.cfi_def_cfa_offset 24
ARM GAS  C:\Users\z80\AppData\Local\Temp\cckkFSRu.s 			page 5


 218 0004 0390     		str	r0, [sp, #12]
 219 0006 0291     		str	r1, [sp, #8]
 220 0008 0192     		str	r2, [sp, #4]
 221              		.loc 1 162 0
 222 000a 0198     		ldr	r0, [sp, #4]
 223 000c 4FF00001 		mov	r1, #0
 224 0010 4FF03C02 		mov	r2, #60
 225              		.cfi_offset 14, -4
 226 0014 FFF7FEFF 		bl	memset
 227              		.loc 1 163 0
 228 0018 019B     		ldr	r3, [sp, #4]
 229 001a 4FF40052 		mov	r2, #8192
 230 001e 5A60     		str	r2, [r3, #4]
 231              		.loc 1 164 0
 232 0020 4FF00003 		mov	r3, #0
 233              		.loc 1 165 0
 234 0024 1846     		mov	r0, r3
 235 0026 05B0     		add	sp, sp, #20
 236 0028 00BD     		pop	{pc}
 237              		.cfi_endproc
 238              	.LFE12:
 239              		.size	_fstat_r, .-_fstat_r
 240 002a 00BFAFF3 		.section	.text._isatty_r,"ax",%progbits
 240      0080
 241              		.align	2
 242              		.p2align 4,,15
 243              		.global	_isatty_r
 244              		.thumb
 245              		.thumb_func
 246              		.type	_isatty_r, %function
 247              	_isatty_r:
 248              	.LFB13:
 249              		.loc 1 170 0
 250              		.cfi_startproc
 251              		@ args = 0, pretend = 0, frame = 8
 252              		@ frame_needed = 0, uses_anonymous_args = 0
 253              		@ link register save eliminated.
 254 0000 82B0     		sub	sp, sp, #8
 255              	.LCFI8:
 256              		.cfi_def_cfa_offset 8
 257 0002 0190     		str	r0, [sp, #4]
 258 0004 0091     		str	r1, [sp, #0]
 259              		.loc 1 174 0
 260 0006 4FF00103 		mov	r3, #1
 261              		.loc 1 175 0
 262 000a 1846     		mov	r0, r3
 263 000c 02B0     		add	sp, sp, #8
 264 000e 7047     		bx	lr
 265              		.cfi_endproc
 266              	.LFE13:
 267              		.size	_isatty_r, .-_isatty_r
 268              		.text
 269              	.Letext0:
 270              		.section	.debug_loc,"",%progbits
 271              	.Ldebug_loc0:
 272              	.LLST0:
 273 0000 00000000 		.4byte	.LFB7
ARM GAS  C:\Users\z80\AppData\Local\Temp\cckkFSRu.s 			page 6


 274 0004 02000000 		.4byte	.LCFI0
 275 0008 0200     		.2byte	0x2
 276 000a 7D       		.byte	0x7d
 277 000b 00       		.sleb128 0
 278 000c 02000000 		.4byte	.LCFI0
 279 0010 1C000000 		.4byte	.LFE7
 280 0014 0200     		.2byte	0x2
 281 0016 7D       		.byte	0x7d
 282 0017 10       		.sleb128 16
 283 0018 00000000 		.4byte	0x0
 284 001c 00000000 		.4byte	0x0
 285              	.LLST1:
 286 0020 00000000 		.4byte	.LFB8
 287 0024 02000000 		.4byte	.LCFI1
 288 0028 0200     		.2byte	0x2
 289 002a 7D       		.byte	0x7d
 290 002b 00       		.sleb128 0
 291 002c 02000000 		.4byte	.LCFI1
 292 0030 14000000 		.4byte	.LFE8
 293 0034 0200     		.2byte	0x2
 294 0036 7D       		.byte	0x7d
 295 0037 10       		.sleb128 16
 296 0038 00000000 		.4byte	0x0
 297 003c 00000000 		.4byte	0x0
 298              	.LLST2:
 299 0040 00000000 		.4byte	.LFB9
 300 0044 02000000 		.4byte	.LCFI2
 301 0048 0200     		.2byte	0x2
 302 004a 7D       		.byte	0x7d
 303 004b 00       		.sleb128 0
 304 004c 02000000 		.4byte	.LCFI2
 305 0050 12000000 		.4byte	.LFE9
 306 0054 0200     		.2byte	0x2
 307 0056 7D       		.byte	0x7d
 308 0057 10       		.sleb128 16
 309 0058 00000000 		.4byte	0x0
 310 005c 00000000 		.4byte	0x0
 311              	.LLST3:
 312 0060 00000000 		.4byte	.LFB10
 313 0064 02000000 		.4byte	.LCFI3
 314 0068 0200     		.2byte	0x2
 315 006a 7D       		.byte	0x7d
 316 006b 00       		.sleb128 0
 317 006c 02000000 		.4byte	.LCFI3
 318 0070 10000000 		.4byte	.LFE10
 319 0074 0200     		.2byte	0x2
 320 0076 7D       		.byte	0x7d
 321 0077 08       		.sleb128 8
 322 0078 00000000 		.4byte	0x0
 323 007c 00000000 		.4byte	0x0
 324              	.LLST4:
 325 0080 00000000 		.4byte	.LFB11
 326 0084 02000000 		.4byte	.LCFI4
 327 0088 0200     		.2byte	0x2
 328 008a 7D       		.byte	0x7d
 329 008b 00       		.sleb128 0
 330 008c 02000000 		.4byte	.LCFI4
ARM GAS  C:\Users\z80\AppData\Local\Temp\cckkFSRu.s 			page 7


 331 0090 04000000 		.4byte	.LCFI5
 332 0094 0200     		.2byte	0x2
 333 0096 7D       		.byte	0x7d
 334 0097 04       		.sleb128 4
 335 0098 04000000 		.4byte	.LCFI5
 336 009c 34000000 		.4byte	.LFE11
 337 00a0 0200     		.2byte	0x2
 338 00a2 7D       		.byte	0x7d
 339 00a3 18       		.sleb128 24
 340 00a4 00000000 		.4byte	0x0
 341 00a8 00000000 		.4byte	0x0
 342              	.LLST5:
 343 00ac 00000000 		.4byte	.LFB12
 344 00b0 02000000 		.4byte	.LCFI6
 345 00b4 0200     		.2byte	0x2
 346 00b6 7D       		.byte	0x7d
 347 00b7 00       		.sleb128 0
 348 00b8 02000000 		.4byte	.LCFI6
 349 00bc 04000000 		.4byte	.LCFI7
 350 00c0 0200     		.2byte	0x2
 351 00c2 7D       		.byte	0x7d
 352 00c3 04       		.sleb128 4
 353 00c4 04000000 		.4byte	.LCFI7
 354 00c8 2A000000 		.4byte	.LFE12
 355 00cc 0200     		.2byte	0x2
 356 00ce 7D       		.byte	0x7d
 357 00cf 18       		.sleb128 24
 358 00d0 00000000 		.4byte	0x0
 359 00d4 00000000 		.4byte	0x0
 360              	.LLST6:
 361 00d8 00000000 		.4byte	.LFB13
 362 00dc 02000000 		.4byte	.LCFI8
 363 00e0 0200     		.2byte	0x2
 364 00e2 7D       		.byte	0x7d
 365 00e3 00       		.sleb128 0
 366 00e4 02000000 		.4byte	.LCFI8
 367 00e8 10000000 		.4byte	.LFE13
 368 00ec 0200     		.2byte	0x2
 369 00ee 7D       		.byte	0x7d
 370 00ef 08       		.sleb128 8
 371 00f0 00000000 		.4byte	0x0
 372 00f4 00000000 		.4byte	0x0
 373              		.file 2 "c:\\programs\\yagarto\\bin\\../lib/gcc/arm-none-eabi/4.5.0/include/stddef.h"
 374              		.file 3 "c:/programs/yagarto/lib/gcc/../../arm-none-eabi/sys-include/sys/lock.h"
 375              		.file 4 "c:/programs/yagarto/lib/gcc/../../arm-none-eabi/sys-include/sys/_types.h"
 376              		.file 5 "c:/programs/yagarto/lib/gcc/../../arm-none-eabi/sys-include/sys/reent.h"
 377              		.file 6 "c:/programs/yagarto/lib/gcc/../../arm-none-eabi/sys-include/sys/types.h"
 378              		.file 7 "c:/programs/yagarto/lib/gcc/../../arm-none-eabi/sys-include/sys/stat.h"
 379              		.section	.debug_info
 380 0000 CF0C0000 		.4byte	0xccf
 381 0004 0200     		.2byte	0x2
 382 0006 00000000 		.4byte	.Ldebug_abbrev0
 383 000a 04       		.byte	0x4
 384 000b 01       		.uleb128 0x1
 385 000c 42020000 		.4byte	.LASF156
 386 0010 01       		.byte	0x1
 387 0011 00000000 		.4byte	.LASF157
ARM GAS  C:\Users\z80\AppData\Local\Temp\cckkFSRu.s 			page 8


 388 0015 C6040000 		.4byte	.LASF158
 389 0019 00000000 		.4byte	0x0
 390 001d 00000000 		.4byte	0x0
 391 0021 00000000 		.4byte	.Ldebug_ranges0+0x0
 392 0025 00000000 		.4byte	.Ldebug_line0
 393 0029 02       		.uleb128 0x2
 394 002a A7010000 		.4byte	.LASF7
 395 002e 02       		.byte	0x2
 396 002f D3       		.byte	0xd3
 397 0030 34000000 		.4byte	0x34
 398 0034 03       		.uleb128 0x3
 399 0035 04       		.byte	0x4
 400 0036 07       		.byte	0x7
 401 0037 67000000 		.4byte	.LASF0
 402 003b 03       		.uleb128 0x3
 403 003c 01       		.byte	0x1
 404 003d 06       		.byte	0x6
 405 003e 3B050000 		.4byte	.LASF1
 406 0042 03       		.uleb128 0x3
 407 0043 01       		.byte	0x1
 408 0044 08       		.byte	0x8
 409 0045 AB040000 		.4byte	.LASF2
 410 0049 03       		.uleb128 0x3
 411 004a 02       		.byte	0x2
 412 004b 05       		.byte	0x5
 413 004c BD030000 		.4byte	.LASF3
 414 0050 03       		.uleb128 0x3
 415 0051 02       		.byte	0x2
 416 0052 07       		.byte	0x7
 417 0053 5B050000 		.4byte	.LASF4
 418 0057 04       		.uleb128 0x4
 419 0058 04       		.byte	0x4
 420 0059 05       		.byte	0x5
 421 005a 696E7400 		.ascii	"int\000"
 422 005e 03       		.uleb128 0x3
 423 005f 08       		.byte	0x8
 424 0060 05       		.byte	0x5
 425 0061 D0020000 		.4byte	.LASF5
 426 0065 03       		.uleb128 0x3
 427 0066 08       		.byte	0x8
 428 0067 07       		.byte	0x7
 429 0068 35010000 		.4byte	.LASF6
 430 006c 02       		.uleb128 0x2
 431 006d 96000000 		.4byte	.LASF8
 432 0071 03       		.byte	0x3
 433 0072 07       		.byte	0x7
 434 0073 57000000 		.4byte	0x57
 435 0077 02       		.uleb128 0x2
 436 0078 7D050000 		.4byte	.LASF9
 437 007c 04       		.byte	0x4
 438 007d 10       		.byte	0x10
 439 007e 82000000 		.4byte	0x82
 440 0082 03       		.uleb128 0x3
 441 0083 04       		.byte	0x4
 442 0084 05       		.byte	0x5
 443 0085 C7030000 		.4byte	.LASF10
 444 0089 02       		.uleb128 0x2
ARM GAS  C:\Users\z80\AppData\Local\Temp\cckkFSRu.s 			page 9


 445 008a EE020000 		.4byte	.LASF11
 446 008e 04       		.byte	0x4
 447 008f 18       		.byte	0x18
 448 0090 49000000 		.4byte	0x49
 449 0094 02       		.uleb128 0x2
 450 0095 11040000 		.4byte	.LASF12
 451 0099 04       		.byte	0x4
 452 009a 1D       		.byte	0x1d
 453 009b 50000000 		.4byte	0x50
 454 009f 02       		.uleb128 0x2
 455 00a0 97030000 		.4byte	.LASF13
 456 00a4 04       		.byte	0x4
 457 00a5 20       		.byte	0x20
 458 00a6 50000000 		.4byte	0x50
 459 00aa 02       		.uleb128 0x2
 460 00ab C4000000 		.4byte	.LASF14
 461 00af 04       		.byte	0x4
 462 00b0 2C       		.byte	0x2c
 463 00b1 82000000 		.4byte	0x82
 464 00b5 05       		.uleb128 0x5
 465 00b6 88040000 		.4byte	.LASF15
 466 00ba 02       		.byte	0x2
 467 00bb 6001     		.2byte	0x160
 468 00bd 34000000 		.4byte	0x34
 469 00c1 06       		.uleb128 0x6
 470 00c2 04       		.byte	0x4
 471 00c3 04       		.byte	0x4
 472 00c4 46       		.byte	0x46
 473 00c5 E0000000 		.4byte	0xe0
 474 00c9 07       		.uleb128 0x7
 475 00ca 8E020000 		.4byte	.LASF16
 476 00ce 04       		.byte	0x4
 477 00cf 48       		.byte	0x48
 478 00d0 B5000000 		.4byte	0xb5
 479 00d4 07       		.uleb128 0x7
 480 00d5 F1030000 		.4byte	.LASF17
 481 00d9 04       		.byte	0x4
 482 00da 49       		.byte	0x49
 483 00db E0000000 		.4byte	0xe0
 484 00df 00       		.byte	0x0
 485 00e0 08       		.uleb128 0x8
 486 00e1 42000000 		.4byte	0x42
 487 00e5 F0000000 		.4byte	0xf0
 488 00e9 09       		.uleb128 0x9
 489 00ea F0000000 		.4byte	0xf0
 490 00ee 03       		.byte	0x3
 491 00ef 00       		.byte	0x0
 492 00f0 0A       		.uleb128 0xa
 493 00f1 04       		.byte	0x4
 494 00f2 07       		.byte	0x7
 495 00f3 0B       		.uleb128 0xb
 496 00f4 08       		.byte	0x8
 497 00f5 04       		.byte	0x4
 498 00f6 43       		.byte	0x43
 499 00f7 18010000 		.4byte	0x118
 500 00fb 0C       		.uleb128 0xc
 501 00fc 0B010000 		.4byte	.LASF18
ARM GAS  C:\Users\z80\AppData\Local\Temp\cckkFSRu.s 			page 10


 502 0100 04       		.byte	0x4
 503 0101 45       		.byte	0x45
 504 0102 57000000 		.4byte	0x57
 505 0106 02       		.byte	0x2
 506 0107 23       		.byte	0x23
 507 0108 00       		.uleb128 0x0
 508 0109 0C       		.uleb128 0xc
 509 010a 08020000 		.4byte	.LASF19
 510 010e 04       		.byte	0x4
 511 010f 4A       		.byte	0x4a
 512 0110 C1000000 		.4byte	0xc1
 513 0114 02       		.byte	0x2
 514 0115 23       		.byte	0x23
 515 0116 04       		.uleb128 0x4
 516 0117 00       		.byte	0x0
 517 0118 02       		.uleb128 0x2
 518 0119 2F030000 		.4byte	.LASF20
 519 011d 04       		.byte	0x4
 520 011e 4B       		.byte	0x4b
 521 011f F3000000 		.4byte	0xf3
 522 0123 02       		.uleb128 0x2
 523 0124 77020000 		.4byte	.LASF21
 524 0128 04       		.byte	0x4
 525 0129 4F       		.byte	0x4f
 526 012a 6C000000 		.4byte	0x6c
 527 012e 0D       		.uleb128 0xd
 528 012f 04       		.byte	0x4
 529 0130 02       		.uleb128 0x2
 530 0131 FC020000 		.4byte	.LASF22
 531 0135 05       		.byte	0x5
 532 0136 15       		.byte	0x15
 533 0137 3B010000 		.4byte	0x13b
 534 013b 03       		.uleb128 0x3
 535 013c 04       		.byte	0x4
 536 013d 07       		.byte	0x7
 537 013e 6F040000 		.4byte	.LASF23
 538 0142 0E       		.uleb128 0xe
 539 0143 D9000000 		.4byte	.LASF28
 540 0147 18       		.byte	0x18
 541 0148 05       		.byte	0x5
 542 0149 2C       		.byte	0x2c
 543 014a A1010000 		.4byte	0x1a1
 544 014e 0C       		.uleb128 0xc
 545 014f D2010000 		.4byte	.LASF24
 546 0153 05       		.byte	0x5
 547 0154 2E       		.byte	0x2e
 548 0155 A1010000 		.4byte	0x1a1
 549 0159 02       		.byte	0x2
 550 015a 23       		.byte	0x23
 551 015b 00       		.uleb128 0x0
 552 015c 0F       		.uleb128 0xf
 553 015d 5F6B00   		.ascii	"_k\000"
 554 0160 05       		.byte	0x5
 555 0161 2F       		.byte	0x2f
 556 0162 57000000 		.4byte	0x57
 557 0166 02       		.byte	0x2
 558 0167 23       		.byte	0x23
ARM GAS  C:\Users\z80\AppData\Local\Temp\cckkFSRu.s 			page 11


 559 0168 04       		.uleb128 0x4
 560 0169 0C       		.uleb128 0xc
 561 016a 2F040000 		.4byte	.LASF25
 562 016e 05       		.byte	0x5
 563 016f 2F       		.byte	0x2f
 564 0170 57000000 		.4byte	0x57
 565 0174 02       		.byte	0x2
 566 0175 23       		.byte	0x23
 567 0176 08       		.uleb128 0x8
 568 0177 0C       		.uleb128 0xc
 569 0178 D5030000 		.4byte	.LASF26
 570 017c 05       		.byte	0x5
 571 017d 2F       		.byte	0x2f
 572 017e 57000000 		.4byte	0x57
 573 0182 02       		.byte	0x2
 574 0183 23       		.byte	0x23
 575 0184 0C       		.uleb128 0xc
 576 0185 0C       		.uleb128 0xc
 577 0186 6B010000 		.4byte	.LASF27
 578 018a 05       		.byte	0x5
 579 018b 2F       		.byte	0x2f
 580 018c 57000000 		.4byte	0x57
 581 0190 02       		.byte	0x2
 582 0191 23       		.byte	0x23
 583 0192 10       		.uleb128 0x10
 584 0193 0F       		.uleb128 0xf
 585 0194 5F7800   		.ascii	"_x\000"
 586 0197 05       		.byte	0x5
 587 0198 30       		.byte	0x30
 588 0199 A7010000 		.4byte	0x1a7
 589 019d 02       		.byte	0x2
 590 019e 23       		.byte	0x23
 591 019f 14       		.uleb128 0x14
 592 01a0 00       		.byte	0x0
 593 01a1 10       		.uleb128 0x10
 594 01a2 04       		.byte	0x4
 595 01a3 42010000 		.4byte	0x142
 596 01a7 08       		.uleb128 0x8
 597 01a8 30010000 		.4byte	0x130
 598 01ac B7010000 		.4byte	0x1b7
 599 01b0 09       		.uleb128 0x9
 600 01b1 F0000000 		.4byte	0xf0
 601 01b5 00       		.byte	0x0
 602 01b6 00       		.byte	0x0
 603 01b7 0E       		.uleb128 0xe
 604 01b8 64040000 		.4byte	.LASF29
 605 01bc 24       		.byte	0x24
 606 01bd 05       		.byte	0x5
 607 01be 34       		.byte	0x34
 608 01bf 42020000 		.4byte	0x242
 609 01c3 0C       		.uleb128 0xc
 610 01c4 AE010000 		.4byte	.LASF30
 611 01c8 05       		.byte	0x5
 612 01c9 36       		.byte	0x36
 613 01ca 57000000 		.4byte	0x57
 614 01ce 02       		.byte	0x2
 615 01cf 23       		.byte	0x23
ARM GAS  C:\Users\z80\AppData\Local\Temp\cckkFSRu.s 			page 12


 616 01d0 00       		.uleb128 0x0
 617 01d1 0C       		.uleb128 0xc
 618 01d2 13010000 		.4byte	.LASF31
 619 01d6 05       		.byte	0x5
 620 01d7 37       		.byte	0x37
 621 01d8 57000000 		.4byte	0x57
 622 01dc 02       		.byte	0x2
 623 01dd 23       		.byte	0x23
 624 01de 04       		.uleb128 0x4
 625 01df 0C       		.uleb128 0xc
 626 01e0 F9000000 		.4byte	.LASF32
 627 01e4 05       		.byte	0x5
 628 01e5 38       		.byte	0x38
 629 01e6 57000000 		.4byte	0x57
 630 01ea 02       		.byte	0x2
 631 01eb 23       		.byte	0x23
 632 01ec 08       		.uleb128 0x8
 633 01ed 0C       		.uleb128 0xc
 634 01ee 38020000 		.4byte	.LASF33
 635 01f2 05       		.byte	0x5
 636 01f3 39       		.byte	0x39
 637 01f4 57000000 		.4byte	0x57
 638 01f8 02       		.byte	0x2
 639 01f9 23       		.byte	0x23
 640 01fa 0C       		.uleb128 0xc
 641 01fb 0C       		.uleb128 0xc
 642 01fc 85030000 		.4byte	.LASF34
 643 0200 05       		.byte	0x5
 644 0201 3A       		.byte	0x3a
 645 0202 57000000 		.4byte	0x57
 646 0206 02       		.byte	0x2
 647 0207 23       		.byte	0x23
 648 0208 10       		.uleb128 0x10
 649 0209 0C       		.uleb128 0xc
 650 020a F8030000 		.4byte	.LASF35
 651 020e 05       		.byte	0x5
 652 020f 3B       		.byte	0x3b
 653 0210 57000000 		.4byte	0x57
 654 0214 02       		.byte	0x2
 655 0215 23       		.byte	0x23
 656 0216 14       		.uleb128 0x14
 657 0217 0C       		.uleb128 0xc
 658 0218 E1000000 		.4byte	.LASF36
 659 021c 05       		.byte	0x5
 660 021d 3C       		.byte	0x3c
 661 021e 57000000 		.4byte	0x57
 662 0222 02       		.byte	0x2
 663 0223 23       		.byte	0x23
 664 0224 18       		.uleb128 0x18
 665 0225 0C       		.uleb128 0xc
 666 0226 B7010000 		.4byte	.LASF37
 667 022a 05       		.byte	0x5
 668 022b 3D       		.byte	0x3d
 669 022c 57000000 		.4byte	0x57
 670 0230 02       		.byte	0x2
 671 0231 23       		.byte	0x23
 672 0232 1C       		.uleb128 0x1c
ARM GAS  C:\Users\z80\AppData\Local\Temp\cckkFSRu.s 			page 13


 673 0233 0C       		.uleb128 0xc
 674 0234 3A030000 		.4byte	.LASF38
 675 0238 05       		.byte	0x5
 676 0239 3E       		.byte	0x3e
 677 023a 57000000 		.4byte	0x57
 678 023e 02       		.byte	0x2
 679 023f 23       		.byte	0x23
 680 0240 20       		.uleb128 0x20
 681 0241 00       		.byte	0x0
 682 0242 11       		.uleb128 0x11
 683 0243 27000000 		.4byte	.LASF39
 684 0247 0801     		.2byte	0x108
 685 0249 05       		.byte	0x5
 686 024a 47       		.byte	0x47
 687 024b 8B020000 		.4byte	0x28b
 688 024f 0C       		.uleb128 0xc
 689 0250 33050000 		.4byte	.LASF40
 690 0254 05       		.byte	0x5
 691 0255 48       		.byte	0x48
 692 0256 8B020000 		.4byte	0x28b
 693 025a 02       		.byte	0x2
 694 025b 23       		.byte	0x23
 695 025c 00       		.uleb128 0x0
 696 025d 0C       		.uleb128 0xc
 697 025e 8F040000 		.4byte	.LASF41
 698 0262 05       		.byte	0x5
 699 0263 49       		.byte	0x49
 700 0264 8B020000 		.4byte	0x28b
 701 0268 03       		.byte	0x3
 702 0269 23       		.byte	0x23
 703 026a 8001     		.uleb128 0x80
 704 026c 0C       		.uleb128 0xc
 705 026d 6E050000 		.4byte	.LASF42
 706 0271 05       		.byte	0x5
 707 0272 4B       		.byte	0x4b
 708 0273 30010000 		.4byte	0x130
 709 0277 03       		.byte	0x3
 710 0278 23       		.byte	0x23
 711 0279 8002     		.uleb128 0x100
 712 027b 0C       		.uleb128 0xc
 713 027c A7050000 		.4byte	.LASF43
 714 0280 05       		.byte	0x5
 715 0281 4E       		.byte	0x4e
 716 0282 30010000 		.4byte	0x130
 717 0286 03       		.byte	0x3
 718 0287 23       		.byte	0x23
 719 0288 8402     		.uleb128 0x104
 720 028a 00       		.byte	0x0
 721 028b 08       		.uleb128 0x8
 722 028c 2E010000 		.4byte	0x12e
 723 0290 9B020000 		.4byte	0x29b
 724 0294 09       		.uleb128 0x9
 725 0295 F0000000 		.4byte	0xf0
 726 0299 1F       		.byte	0x1f
 727 029a 00       		.byte	0x0
 728 029b 11       		.uleb128 0x11
 729 029c AC030000 		.4byte	.LASF44
ARM GAS  C:\Users\z80\AppData\Local\Temp\cckkFSRu.s 			page 14


 730 02a0 9001     		.2byte	0x190
 731 02a2 05       		.byte	0x5
 732 02a3 59       		.byte	0x59
 733 02a4 E2020000 		.4byte	0x2e2
 734 02a8 0C       		.uleb128 0xc
 735 02a9 D2010000 		.4byte	.LASF24
 736 02ad 05       		.byte	0x5
 737 02ae 5A       		.byte	0x5a
 738 02af E2020000 		.4byte	0x2e2
 739 02b3 02       		.byte	0x2
 740 02b4 23       		.byte	0x23
 741 02b5 00       		.uleb128 0x0
 742 02b6 0C       		.uleb128 0xc
 743 02b7 C6010000 		.4byte	.LASF45
 744 02bb 05       		.byte	0x5
 745 02bc 5B       		.byte	0x5b
 746 02bd 57000000 		.4byte	0x57
 747 02c1 02       		.byte	0x2
 748 02c2 23       		.byte	0x23
 749 02c3 04       		.uleb128 0x4
 750 02c4 0C       		.uleb128 0xc
 751 02c5 CC000000 		.4byte	.LASF46
 752 02c9 05       		.byte	0x5
 753 02ca 5D       		.byte	0x5d
 754 02cb E8020000 		.4byte	0x2e8
 755 02cf 02       		.byte	0x2
 756 02d0 23       		.byte	0x23
 757 02d1 08       		.uleb128 0x8
 758 02d2 0C       		.uleb128 0xc
 759 02d3 27000000 		.4byte	.LASF39
 760 02d7 05       		.byte	0x5
 761 02d8 5E       		.byte	0x5e
 762 02d9 42020000 		.4byte	0x242
 763 02dd 03       		.byte	0x3
 764 02de 23       		.byte	0x23
 765 02df 8801     		.uleb128 0x88
 766 02e1 00       		.byte	0x0
 767 02e2 10       		.uleb128 0x10
 768 02e3 04       		.byte	0x4
 769 02e4 9B020000 		.4byte	0x29b
 770 02e8 08       		.uleb128 0x8
 771 02e9 FA020000 		.4byte	0x2fa
 772 02ed F8020000 		.4byte	0x2f8
 773 02f1 09       		.uleb128 0x9
 774 02f2 F0000000 		.4byte	0xf0
 775 02f6 1F       		.byte	0x1f
 776 02f7 00       		.byte	0x0
 777 02f8 12       		.uleb128 0x12
 778 02f9 01       		.byte	0x1
 779 02fa 10       		.uleb128 0x10
 780 02fb 04       		.byte	0x4
 781 02fc F8020000 		.4byte	0x2f8
 782 0300 0E       		.uleb128 0xe
 783 0301 FB040000 		.4byte	.LASF47
 784 0305 08       		.byte	0x8
 785 0306 05       		.byte	0x5
 786 0307 69       		.byte	0x69
ARM GAS  C:\Users\z80\AppData\Local\Temp\cckkFSRu.s 			page 15


 787 0308 29030000 		.4byte	0x329
 788 030c 0C       		.uleb128 0xc
 789 030d DE020000 		.4byte	.LASF48
 790 0311 05       		.byte	0x5
 791 0312 6A       		.byte	0x6a
 792 0313 29030000 		.4byte	0x329
 793 0317 02       		.byte	0x2
 794 0318 23       		.byte	0x23
 795 0319 00       		.uleb128 0x0
 796 031a 0C       		.uleb128 0xc
 797 031b 77050000 		.4byte	.LASF49
 798 031f 05       		.byte	0x5
 799 0320 6B       		.byte	0x6b
 800 0321 57000000 		.4byte	0x57
 801 0325 02       		.byte	0x2
 802 0326 23       		.byte	0x23
 803 0327 04       		.uleb128 0x4
 804 0328 00       		.byte	0x0
 805 0329 10       		.uleb128 0x10
 806 032a 04       		.byte	0x4
 807 032b 42000000 		.4byte	0x42
 808 032f 0E       		.uleb128 0xe
 809 0330 63010000 		.4byte	.LASF50
 810 0334 68       		.byte	0x68
 811 0335 05       		.byte	0x5
 812 0336 A9       		.byte	0xa9
 813 0337 89040000 		.4byte	0x489
 814 033b 0F       		.uleb128 0xf
 815 033c 5F7000   		.ascii	"_p\000"
 816 033f 05       		.byte	0x5
 817 0340 AA       		.byte	0xaa
 818 0341 29030000 		.4byte	0x329
 819 0345 02       		.byte	0x2
 820 0346 23       		.byte	0x23
 821 0347 00       		.uleb128 0x0
 822 0348 0F       		.uleb128 0xf
 823 0349 5F7200   		.ascii	"_r\000"
 824 034c 05       		.byte	0x5
 825 034d AB       		.byte	0xab
 826 034e 57000000 		.4byte	0x57
 827 0352 02       		.byte	0x2
 828 0353 23       		.byte	0x23
 829 0354 04       		.uleb128 0x4
 830 0355 0F       		.uleb128 0xf
 831 0356 5F7700   		.ascii	"_w\000"
 832 0359 05       		.byte	0x5
 833 035a AC       		.byte	0xac
 834 035b 57000000 		.4byte	0x57
 835 035f 02       		.byte	0x2
 836 0360 23       		.byte	0x23
 837 0361 08       		.uleb128 0x8
 838 0362 0C       		.uleb128 0xc
 839 0363 88000000 		.4byte	.LASF51
 840 0367 05       		.byte	0x5
 841 0368 AD       		.byte	0xad
 842 0369 49000000 		.4byte	0x49
 843 036d 02       		.byte	0x2
ARM GAS  C:\Users\z80\AppData\Local\Temp\cckkFSRu.s 			page 16


 844 036e 23       		.byte	0x23
 845 036f 0C       		.uleb128 0xc
 846 0370 0C       		.uleb128 0xc
 847 0371 1F030000 		.4byte	.LASF52
 848 0375 05       		.byte	0x5
 849 0376 AE       		.byte	0xae
 850 0377 49000000 		.4byte	0x49
 851 037b 02       		.byte	0x2
 852 037c 23       		.byte	0x23
 853 037d 0E       		.uleb128 0xe
 854 037e 0F       		.uleb128 0xf
 855 037f 5F626600 		.ascii	"_bf\000"
 856 0383 05       		.byte	0x5
 857 0384 AF       		.byte	0xaf
 858 0385 00030000 		.4byte	0x300
 859 0389 02       		.byte	0x2
 860 038a 23       		.byte	0x23
 861 038b 10       		.uleb128 0x10
 862 038c 0C       		.uleb128 0xc
 863 038d 7F000000 		.4byte	.LASF53
 864 0391 05       		.byte	0x5
 865 0392 B0       		.byte	0xb0
 866 0393 57000000 		.4byte	0x57
 867 0397 02       		.byte	0x2
 868 0398 23       		.byte	0x23
 869 0399 18       		.uleb128 0x18
 870 039a 0C       		.uleb128 0xc
 871 039b D1000000 		.4byte	.LASF54
 872 039f 05       		.byte	0x5
 873 03a0 B7       		.byte	0xb7
 874 03a1 2E010000 		.4byte	0x12e
 875 03a5 02       		.byte	0x2
 876 03a6 23       		.byte	0x23
 877 03a7 1C       		.uleb128 0x1c
 878 03a8 0C       		.uleb128 0xc
 879 03a9 A8000000 		.4byte	.LASF55
 880 03ad 05       		.byte	0x5
 881 03ae B9       		.byte	0xb9
 882 03af 19060000 		.4byte	0x619
 883 03b3 02       		.byte	0x2
 884 03b4 23       		.byte	0x23
 885 03b5 20       		.uleb128 0x20
 886 03b6 0C       		.uleb128 0xc
 887 03b7 9F030000 		.4byte	.LASF56
 888 03bb 05       		.byte	0x5
 889 03bc BB       		.byte	0xbb
 890 03bd 49060000 		.4byte	0x649
 891 03c1 02       		.byte	0x2
 892 03c2 23       		.byte	0x23
 893 03c3 24       		.uleb128 0x24
 894 03c4 0C       		.uleb128 0xc
 895 03c5 C0050000 		.4byte	.LASF57
 896 03c9 05       		.byte	0x5
 897 03ca BD       		.byte	0xbd
 898 03cb 6E060000 		.4byte	0x66e
 899 03cf 02       		.byte	0x2
 900 03d0 23       		.byte	0x23
ARM GAS  C:\Users\z80\AppData\Local\Temp\cckkFSRu.s 			page 17


 901 03d1 28       		.uleb128 0x28
 902 03d2 0C       		.uleb128 0xc
 903 03d3 A1020000 		.4byte	.LASF58
 904 03d7 05       		.byte	0x5
 905 03d8 BE       		.byte	0xbe
 906 03d9 89060000 		.4byte	0x689
 907 03dd 02       		.byte	0x2
 908 03de 23       		.byte	0x23
 909 03df 2C       		.uleb128 0x2c
 910 03e0 0F       		.uleb128 0xf
 911 03e1 5F756200 		.ascii	"_ub\000"
 912 03e5 05       		.byte	0x5
 913 03e6 C1       		.byte	0xc1
 914 03e7 00030000 		.4byte	0x300
 915 03eb 02       		.byte	0x2
 916 03ec 23       		.byte	0x23
 917 03ed 30       		.uleb128 0x30
 918 03ee 0F       		.uleb128 0xf
 919 03ef 5F757000 		.ascii	"_up\000"
 920 03f3 05       		.byte	0x5
 921 03f4 C2       		.byte	0xc2
 922 03f5 29030000 		.4byte	0x329
 923 03f9 02       		.byte	0x2
 924 03fa 23       		.byte	0x23
 925 03fb 38       		.uleb128 0x38
 926 03fc 0F       		.uleb128 0xf
 927 03fd 5F757200 		.ascii	"_ur\000"
 928 0401 05       		.byte	0x5
 929 0402 C3       		.byte	0xc3
 930 0403 57000000 		.4byte	0x57
 931 0407 02       		.byte	0x2
 932 0408 23       		.byte	0x23
 933 0409 3C       		.uleb128 0x3c
 934 040a 0C       		.uleb128 0xc
 935 040b D7050000 		.4byte	.LASF59
 936 040f 05       		.byte	0x5
 937 0410 C6       		.byte	0xc6
 938 0411 8F060000 		.4byte	0x68f
 939 0415 02       		.byte	0x2
 940 0416 23       		.byte	0x23
 941 0417 40       		.uleb128 0x40
 942 0418 0C       		.uleb128 0xc
 943 0419 84050000 		.4byte	.LASF60
 944 041d 05       		.byte	0x5
 945 041e C7       		.byte	0xc7
 946 041f 9F060000 		.4byte	0x69f
 947 0423 02       		.byte	0x2
 948 0424 23       		.byte	0x23
 949 0425 43       		.uleb128 0x43
 950 0426 0F       		.uleb128 0xf
 951 0427 5F6C6200 		.ascii	"_lb\000"
 952 042b 05       		.byte	0x5
 953 042c CA       		.byte	0xca
 954 042d 00030000 		.4byte	0x300
 955 0431 02       		.byte	0x2
 956 0432 23       		.byte	0x23
 957 0433 44       		.uleb128 0x44
ARM GAS  C:\Users\z80\AppData\Local\Temp\cckkFSRu.s 			page 18


 958 0434 0C       		.uleb128 0xc
 959 0435 5B040000 		.4byte	.LASF61
 960 0439 05       		.byte	0x5
 961 043a CD       		.byte	0xcd
 962 043b 57000000 		.4byte	0x57
 963 043f 02       		.byte	0x2
 964 0440 23       		.byte	0x23
 965 0441 4C       		.uleb128 0x4c
 966 0442 0C       		.uleb128 0xc
 967 0443 88010000 		.4byte	.LASF62
 968 0447 05       		.byte	0x5
 969 0448 CE       		.byte	0xce
 970 0449 57000000 		.4byte	0x57
 971 044d 02       		.byte	0x2
 972 044e 23       		.byte	0x23
 973 044f 50       		.uleb128 0x50
 974 0450 0C       		.uleb128 0xc
 975 0451 EB030000 		.4byte	.LASF63
 976 0455 05       		.byte	0x5
 977 0456 D1       		.byte	0xd1
 978 0457 A8040000 		.4byte	0x4a8
 979 045b 02       		.byte	0x2
 980 045c 23       		.byte	0x23
 981 045d 54       		.uleb128 0x54
 982 045e 0C       		.uleb128 0xc
 983 045f 69040000 		.4byte	.LASF64
 984 0463 05       		.byte	0x5
 985 0464 D5       		.byte	0xd5
 986 0465 23010000 		.4byte	0x123
 987 0469 02       		.byte	0x2
 988 046a 23       		.byte	0x23
 989 046b 58       		.uleb128 0x58
 990 046c 0C       		.uleb128 0xc
 991 046d B4030000 		.4byte	.LASF65
 992 0471 05       		.byte	0x5
 993 0472 D7       		.byte	0xd7
 994 0473 18010000 		.4byte	0x118
 995 0477 02       		.byte	0x2
 996 0478 23       		.byte	0x23
 997 0479 5C       		.uleb128 0x5c
 998 047a 0C       		.uleb128 0xc
 999 047b 9F050000 		.4byte	.LASF66
 1000 047f 05       		.byte	0x5
 1001 0480 D8       		.byte	0xd8
 1002 0481 57000000 		.4byte	0x57
 1003 0485 02       		.byte	0x2
 1004 0486 23       		.byte	0x23
 1005 0487 64       		.uleb128 0x64
 1006 0488 00       		.byte	0x0
 1007 0489 13       		.uleb128 0x13
 1008 048a 01       		.byte	0x1
 1009 048b 57000000 		.4byte	0x57
 1010 048f A8040000 		.4byte	0x4a8
 1011 0493 14       		.uleb128 0x14
 1012 0494 A8040000 		.4byte	0x4a8
 1013 0498 14       		.uleb128 0x14
 1014 0499 2E010000 		.4byte	0x12e
ARM GAS  C:\Users\z80\AppData\Local\Temp\cckkFSRu.s 			page 19


 1015 049d 14       		.uleb128 0x14
 1016 049e 0C060000 		.4byte	0x60c
 1017 04a2 14       		.uleb128 0x14
 1018 04a3 57000000 		.4byte	0x57
 1019 04a7 00       		.byte	0x0
 1020 04a8 10       		.uleb128 0x10
 1021 04a9 04       		.byte	0x4
 1022 04aa AE040000 		.4byte	0x4ae
 1023 04ae 15       		.uleb128 0x15
 1024 04af 4E050000 		.4byte	.LASF67
 1025 04b3 2804     		.2byte	0x428
 1026 04b5 05       		.byte	0x5
 1027 04b6 4302     		.2byte	0x243
 1028 04b8 0C060000 		.4byte	0x60c
 1029 04bc 16       		.uleb128 0x16
 1030 04bd 8F000000 		.4byte	.LASF68
 1031 04c1 05       		.byte	0x5
 1032 04c2 4502     		.2byte	0x245
 1033 04c4 57000000 		.4byte	0x57
 1034 04c8 02       		.byte	0x2
 1035 04c9 23       		.byte	0x23
 1036 04ca 00       		.uleb128 0x0
 1037 04cb 16       		.uleb128 0x16
 1038 04cc BA020000 		.4byte	.LASF69
 1039 04d0 05       		.byte	0x5
 1040 04d1 4A02     		.2byte	0x24a
 1041 04d3 FC060000 		.4byte	0x6fc
 1042 04d7 02       		.byte	0x2
 1043 04d8 23       		.byte	0x23
 1044 04d9 04       		.uleb128 0x4
 1045 04da 16       		.uleb128 0x16
 1046 04db BC000000 		.4byte	.LASF70
 1047 04df 05       		.byte	0x5
 1048 04e0 4A02     		.2byte	0x24a
 1049 04e2 FC060000 		.4byte	0x6fc
 1050 04e6 02       		.byte	0x2
 1051 04e7 23       		.byte	0x23
 1052 04e8 08       		.uleb128 0x8
 1053 04e9 16       		.uleb128 0x16
 1054 04ea C6050000 		.4byte	.LASF71
 1055 04ee 05       		.byte	0x5
 1056 04ef 4A02     		.2byte	0x24a
 1057 04f1 FC060000 		.4byte	0x6fc
 1058 04f5 02       		.byte	0x2
 1059 04f6 23       		.byte	0x23
 1060 04f7 0C       		.uleb128 0xc
 1061 04f8 16       		.uleb128 0x16
 1062 04f9 C1010000 		.4byte	.LASF72
 1063 04fd 05       		.byte	0x5
 1064 04fe 4C02     		.2byte	0x24c
 1065 0500 57000000 		.4byte	0x57
 1066 0504 02       		.byte	0x2
 1067 0505 23       		.byte	0x23
 1068 0506 10       		.uleb128 0x10
 1069 0507 16       		.uleb128 0x16
 1070 0508 95010000 		.4byte	.LASF73
 1071 050c 05       		.byte	0x5
ARM GAS  C:\Users\z80\AppData\Local\Temp\cckkFSRu.s 			page 20


 1072 050d 4D02     		.2byte	0x24d
 1073 050f 17090000 		.4byte	0x917
 1074 0513 02       		.byte	0x2
 1075 0514 23       		.byte	0x23
 1076 0515 14       		.uleb128 0x14
 1077 0516 16       		.uleb128 0x16
 1078 0517 41040000 		.4byte	.LASF74
 1079 051b 05       		.byte	0x5
 1080 051c 4F02     		.2byte	0x24f
 1081 051e 57000000 		.4byte	0x57
 1082 0522 02       		.byte	0x2
 1083 0523 23       		.byte	0x23
 1084 0524 30       		.uleb128 0x30
 1085 0525 16       		.uleb128 0x16
 1086 0526 DB030000 		.4byte	.LASF75
 1087 052a 05       		.byte	0x5
 1088 052b 5002     		.2byte	0x250
 1089 052d 3E060000 		.4byte	0x63e
 1090 0531 02       		.byte	0x2
 1091 0532 23       		.byte	0x23
 1092 0533 34       		.uleb128 0x34
 1093 0534 16       		.uleb128 0x16
 1094 0535 A8020000 		.4byte	.LASF76
 1095 0539 05       		.byte	0x5
 1096 053a 5202     		.2byte	0x252
 1097 053c 57000000 		.4byte	0x57
 1098 0540 02       		.byte	0x2
 1099 0541 23       		.byte	0x23
 1100 0542 38       		.uleb128 0x38
 1101 0543 16       		.uleb128 0x16
 1102 0544 25030000 		.4byte	.LASF77
 1103 0548 05       		.byte	0x5
 1104 0549 5402     		.2byte	0x254
 1105 054b 33090000 		.4byte	0x933
 1106 054f 02       		.byte	0x2
 1107 0550 23       		.byte	0x23
 1108 0551 3C       		.uleb128 0x3c
 1109 0552 16       		.uleb128 0x16
 1110 0553 EB000000 		.4byte	.LASF78
 1111 0557 05       		.byte	0x5
 1112 0558 5702     		.2byte	0x257
 1113 055a A1010000 		.4byte	0x1a1
 1114 055e 02       		.byte	0x2
 1115 055f 23       		.byte	0x23
 1116 0560 40       		.uleb128 0x40
 1117 0561 16       		.uleb128 0x16
 1118 0562 2B010000 		.4byte	.LASF79
 1119 0566 05       		.byte	0x5
 1120 0567 5802     		.2byte	0x258
 1121 0569 57000000 		.4byte	0x57
 1122 056d 02       		.byte	0x2
 1123 056e 23       		.byte	0x23
 1124 056f 44       		.uleb128 0x44
 1125 0570 16       		.uleb128 0x16
 1126 0571 10020000 		.4byte	.LASF80
 1127 0575 05       		.byte	0x5
 1128 0576 5902     		.2byte	0x259
ARM GAS  C:\Users\z80\AppData\Local\Temp\cckkFSRu.s 			page 21


 1129 0578 A1010000 		.4byte	0x1a1
 1130 057c 02       		.byte	0x2
 1131 057d 23       		.byte	0x23
 1132 057e 48       		.uleb128 0x48
 1133 057f 16       		.uleb128 0x16
 1134 0580 E4020000 		.4byte	.LASF81
 1135 0584 05       		.byte	0x5
 1136 0585 5A02     		.2byte	0x25a
 1137 0587 39090000 		.4byte	0x939
 1138 058b 02       		.byte	0x2
 1139 058c 23       		.byte	0x23
 1140 058d 4C       		.uleb128 0x4c
 1141 058e 16       		.uleb128 0x16
 1142 058f 27040000 		.4byte	.LASF82
 1143 0593 05       		.byte	0x5
 1144 0594 5D02     		.2byte	0x25d
 1145 0596 57000000 		.4byte	0x57
 1146 059a 02       		.byte	0x2
 1147 059b 23       		.byte	0x23
 1148 059c 50       		.uleb128 0x50
 1149 059d 16       		.uleb128 0x16
 1150 059e A3040000 		.4byte	.LASF83
 1151 05a2 05       		.byte	0x5
 1152 05a3 5E02     		.2byte	0x25e
 1153 05a5 0C060000 		.4byte	0x60c
 1154 05a9 02       		.byte	0x2
 1155 05aa 23       		.byte	0x23
 1156 05ab 54       		.uleb128 0x54
 1157 05ac 16       		.uleb128 0x16
 1158 05ad 22040000 		.4byte	.LASF84
 1159 05b1 05       		.byte	0x5
 1160 05b2 8102     		.2byte	0x281
 1161 05b4 F5080000 		.4byte	0x8f5
 1162 05b8 02       		.byte	0x2
 1163 05b9 23       		.byte	0x23
 1164 05ba 58       		.uleb128 0x58
 1165 05bb 16       		.uleb128 0x16
 1166 05bc AC030000 		.4byte	.LASF44
 1167 05c0 05       		.byte	0x5
 1168 05c1 8402     		.2byte	0x284
 1169 05c3 E2020000 		.4byte	0x2e2
 1170 05c7 03       		.byte	0x3
 1171 05c8 23       		.byte	0x23
 1172 05c9 C802     		.uleb128 0x148
 1173 05cb 16       		.uleb128 0x16
 1174 05cc 67020000 		.4byte	.LASF85
 1175 05d0 05       		.byte	0x5
 1176 05d1 8502     		.2byte	0x285
 1177 05d3 9B020000 		.4byte	0x29b
 1178 05d7 03       		.byte	0x3
 1179 05d8 23       		.byte	0x23
 1180 05d9 CC02     		.uleb128 0x14c
 1181 05db 16       		.uleb128 0x16
 1182 05dc 4E020000 		.4byte	.LASF86
 1183 05e0 05       		.byte	0x5
 1184 05e1 8802     		.2byte	0x288
 1185 05e3 4B090000 		.4byte	0x94b
ARM GAS  C:\Users\z80\AppData\Local\Temp\cckkFSRu.s 			page 22


 1186 05e7 03       		.byte	0x3
 1187 05e8 23       		.byte	0x23
 1188 05e9 DC05     		.uleb128 0x2dc
 1189 05eb 16       		.uleb128 0x16
 1190 05ec 10050000 		.4byte	.LASF87
 1191 05f0 05       		.byte	0x5
 1192 05f1 8D02     		.2byte	0x28d
 1193 05f3 BB060000 		.4byte	0x6bb
 1194 05f7 03       		.byte	0x3
 1195 05f8 23       		.byte	0x23
 1196 05f9 E005     		.uleb128 0x2e0
 1197 05fb 16       		.uleb128 0x16
 1198 05fc D0030000 		.4byte	.LASF88
 1199 0600 05       		.byte	0x5
 1200 0601 8E02     		.2byte	0x28e
 1201 0603 57090000 		.4byte	0x957
 1202 0607 03       		.byte	0x3
 1203 0608 23       		.byte	0x23
 1204 0609 EC05     		.uleb128 0x2ec
 1205 060b 00       		.byte	0x0
 1206 060c 10       		.uleb128 0x10
 1207 060d 04       		.byte	0x4
 1208 060e 12060000 		.4byte	0x612
 1209 0612 03       		.uleb128 0x3
 1210 0613 01       		.byte	0x1
 1211 0614 08       		.byte	0x8
 1212 0615 33020000 		.4byte	.LASF89
 1213 0619 10       		.uleb128 0x10
 1214 061a 04       		.byte	0x4
 1215 061b 89040000 		.4byte	0x489
 1216 061f 13       		.uleb128 0x13
 1217 0620 01       		.byte	0x1
 1218 0621 57000000 		.4byte	0x57
 1219 0625 3E060000 		.4byte	0x63e
 1220 0629 14       		.uleb128 0x14
 1221 062a A8040000 		.4byte	0x4a8
 1222 062e 14       		.uleb128 0x14
 1223 062f 2E010000 		.4byte	0x12e
 1224 0633 14       		.uleb128 0x14
 1225 0634 3E060000 		.4byte	0x63e
 1226 0638 14       		.uleb128 0x14
 1227 0639 57000000 		.4byte	0x57
 1228 063d 00       		.byte	0x0
 1229 063e 10       		.uleb128 0x10
 1230 063f 04       		.byte	0x4
 1231 0640 44060000 		.4byte	0x644
 1232 0644 17       		.uleb128 0x17
 1233 0645 12060000 		.4byte	0x612
 1234 0649 10       		.uleb128 0x10
 1235 064a 04       		.byte	0x4
 1236 064b 1F060000 		.4byte	0x61f
 1237 064f 13       		.uleb128 0x13
 1238 0650 01       		.byte	0x1
 1239 0651 AA000000 		.4byte	0xaa
 1240 0655 6E060000 		.4byte	0x66e
 1241 0659 14       		.uleb128 0x14
 1242 065a A8040000 		.4byte	0x4a8
ARM GAS  C:\Users\z80\AppData\Local\Temp\cckkFSRu.s 			page 23


 1243 065e 14       		.uleb128 0x14
 1244 065f 2E010000 		.4byte	0x12e
 1245 0663 14       		.uleb128 0x14
 1246 0664 AA000000 		.4byte	0xaa
 1247 0668 14       		.uleb128 0x14
 1248 0669 57000000 		.4byte	0x57
 1249 066d 00       		.byte	0x0
 1250 066e 10       		.uleb128 0x10
 1251 066f 04       		.byte	0x4
 1252 0670 4F060000 		.4byte	0x64f
 1253 0674 13       		.uleb128 0x13
 1254 0675 01       		.byte	0x1
 1255 0676 57000000 		.4byte	0x57
 1256 067a 89060000 		.4byte	0x689
 1257 067e 14       		.uleb128 0x14
 1258 067f A8040000 		.4byte	0x4a8
 1259 0683 14       		.uleb128 0x14
 1260 0684 2E010000 		.4byte	0x12e
 1261 0688 00       		.byte	0x0
 1262 0689 10       		.uleb128 0x10
 1263 068a 04       		.byte	0x4
 1264 068b 74060000 		.4byte	0x674
 1265 068f 08       		.uleb128 0x8
 1266 0690 42000000 		.4byte	0x42
 1267 0694 9F060000 		.4byte	0x69f
 1268 0698 09       		.uleb128 0x9
 1269 0699 F0000000 		.4byte	0xf0
 1270 069d 02       		.byte	0x2
 1271 069e 00       		.byte	0x0
 1272 069f 08       		.uleb128 0x8
 1273 06a0 42000000 		.4byte	0x42
 1274 06a4 AF060000 		.4byte	0x6af
 1275 06a8 09       		.uleb128 0x9
 1276 06a9 F0000000 		.4byte	0xf0
 1277 06ad 00       		.byte	0x0
 1278 06ae 00       		.byte	0x0
 1279 06af 05       		.uleb128 0x5
 1280 06b0 81010000 		.4byte	.LASF90
 1281 06b4 05       		.byte	0x5
 1282 06b5 1101     		.2byte	0x111
 1283 06b7 2F030000 		.4byte	0x32f
 1284 06bb 18       		.uleb128 0x18
 1285 06bc 0A050000 		.4byte	.LASF91
 1286 06c0 0C       		.byte	0xc
 1287 06c1 05       		.byte	0x5
 1288 06c2 1501     		.2byte	0x115
 1289 06c4 F6060000 		.4byte	0x6f6
 1290 06c8 16       		.uleb128 0x16
 1291 06c9 D2010000 		.4byte	.LASF24
 1292 06cd 05       		.byte	0x5
 1293 06ce 1701     		.2byte	0x117
 1294 06d0 F6060000 		.4byte	0x6f6
 1295 06d4 02       		.byte	0x2
 1296 06d5 23       		.byte	0x23
 1297 06d6 00       		.uleb128 0x0
 1298 06d7 16       		.uleb128 0x16
 1299 06d8 81040000 		.4byte	.LASF92
ARM GAS  C:\Users\z80\AppData\Local\Temp\cckkFSRu.s 			page 24


 1300 06dc 05       		.byte	0x5
 1301 06dd 1801     		.2byte	0x118
 1302 06df 57000000 		.4byte	0x57
 1303 06e3 02       		.byte	0x2
 1304 06e4 23       		.byte	0x23
 1305 06e5 04       		.uleb128 0x4
 1306 06e6 16       		.uleb128 0x16
 1307 06e7 94020000 		.4byte	.LASF93
 1308 06eb 05       		.byte	0x5
 1309 06ec 1901     		.2byte	0x119
 1310 06ee FC060000 		.4byte	0x6fc
 1311 06f2 02       		.byte	0x2
 1312 06f3 23       		.byte	0x23
 1313 06f4 08       		.uleb128 0x8
 1314 06f5 00       		.byte	0x0
 1315 06f6 10       		.uleb128 0x10
 1316 06f7 04       		.byte	0x4
 1317 06f8 BB060000 		.4byte	0x6bb
 1318 06fc 10       		.uleb128 0x10
 1319 06fd 04       		.byte	0x4
 1320 06fe AF060000 		.4byte	0x6af
 1321 0702 18       		.uleb128 0x18
 1322 0703 23010000 		.4byte	.LASF94
 1323 0707 0E       		.byte	0xe
 1324 0708 05       		.byte	0x5
 1325 0709 3101     		.2byte	0x131
 1326 070b 3D070000 		.4byte	0x73d
 1327 070f 16       		.uleb128 0x16
 1328 0710 AF050000 		.4byte	.LASF95
 1329 0714 05       		.byte	0x5
 1330 0715 3201     		.2byte	0x132
 1331 0717 3D070000 		.4byte	0x73d
 1332 071b 02       		.byte	0x2
 1333 071c 23       		.byte	0x23
 1334 071d 00       		.uleb128 0x0
 1335 071e 16       		.uleb128 0x16
 1336 071f F6020000 		.4byte	.LASF96
 1337 0723 05       		.byte	0x5
 1338 0724 3301     		.2byte	0x133
 1339 0726 3D070000 		.4byte	0x73d
 1340 072a 02       		.byte	0x2
 1341 072b 23       		.byte	0x23
 1342 072c 06       		.uleb128 0x6
 1343 072d 16       		.uleb128 0x16
 1344 072e EE040000 		.4byte	.LASF97
 1345 0732 05       		.byte	0x5
 1346 0733 3401     		.2byte	0x134
 1347 0735 50000000 		.4byte	0x50
 1348 0739 02       		.byte	0x2
 1349 073a 23       		.byte	0x23
 1350 073b 0C       		.uleb128 0xc
 1351 073c 00       		.byte	0x0
 1352 073d 08       		.uleb128 0x8
 1353 073e 50000000 		.4byte	0x50
 1354 0742 4D070000 		.4byte	0x74d
 1355 0746 09       		.uleb128 0x9
 1356 0747 F0000000 		.4byte	0xf0
ARM GAS  C:\Users\z80\AppData\Local\Temp\cckkFSRu.s 			page 25


 1357 074b 02       		.byte	0x2
 1358 074c 00       		.byte	0x0
 1359 074d 19       		.uleb128 0x19
 1360 074e D0       		.byte	0xd0
 1361 074f 05       		.byte	0x5
 1362 0750 6202     		.2byte	0x262
 1363 0752 7D080000 		.4byte	0x87d
 1364 0756 16       		.uleb128 0x16
 1365 0757 8A050000 		.4byte	.LASF98
 1366 075b 05       		.byte	0x5
 1367 075c 6402     		.2byte	0x264
 1368 075e 34000000 		.4byte	0x34
 1369 0762 02       		.byte	0x2
 1370 0763 23       		.byte	0x23
 1371 0764 00       		.uleb128 0x0
 1372 0765 16       		.uleb128 0x16
 1373 0766 18050000 		.4byte	.LASF99
 1374 076a 05       		.byte	0x5
 1375 076b 6502     		.2byte	0x265
 1376 076d 0C060000 		.4byte	0x60c
 1377 0771 02       		.byte	0x2
 1378 0772 23       		.byte	0x23
 1379 0773 04       		.uleb128 0x4
 1380 0774 16       		.uleb128 0x16
 1381 0775 56010000 		.4byte	.LASF100
 1382 0779 05       		.byte	0x5
 1383 077a 6602     		.2byte	0x266
 1384 077c 7D080000 		.4byte	0x87d
 1385 0780 02       		.byte	0x2
 1386 0781 23       		.byte	0x23
 1387 0782 08       		.uleb128 0x8
 1388 0783 16       		.uleb128 0x16
 1389 0784 02040000 		.4byte	.LASF101
 1390 0788 05       		.byte	0x5
 1391 0789 6702     		.2byte	0x267
 1392 078b B7010000 		.4byte	0x1b7
 1393 078f 02       		.byte	0x2
 1394 0790 23       		.byte	0x23
 1395 0791 24       		.uleb128 0x24
 1396 0792 16       		.uleb128 0x16
 1397 0793 C1020000 		.4byte	.LASF102
 1398 0797 05       		.byte	0x5
 1399 0798 6802     		.2byte	0x268
 1400 079a 57000000 		.4byte	0x57
 1401 079e 02       		.byte	0x2
 1402 079f 23       		.byte	0x23
 1403 07a0 48       		.uleb128 0x48
 1404 07a1 16       		.uleb128 0x16
 1405 07a2 B5050000 		.4byte	.LASF103
 1406 07a6 05       		.byte	0x5
 1407 07a7 6902     		.2byte	0x269
 1408 07a9 65000000 		.4byte	0x65
 1409 07ad 02       		.byte	0x2
 1410 07ae 23       		.byte	0x23
 1411 07af 50       		.uleb128 0x50
 1412 07b0 16       		.uleb128 0x16
 1413 07b1 4D000000 		.4byte	.LASF104
ARM GAS  C:\Users\z80\AppData\Local\Temp\cckkFSRu.s 			page 26


 1414 07b5 05       		.byte	0x5
 1415 07b6 6A02     		.2byte	0x26a
 1416 07b8 02070000 		.4byte	0x702
 1417 07bc 02       		.byte	0x2
 1418 07bd 23       		.byte	0x23
 1419 07be 58       		.uleb128 0x58
 1420 07bf 16       		.uleb128 0x16
 1421 07c0 26020000 		.4byte	.LASF105
 1422 07c4 05       		.byte	0x5
 1423 07c5 6B02     		.2byte	0x26b
 1424 07c7 18010000 		.4byte	0x118
 1425 07cb 02       		.byte	0x2
 1426 07cc 23       		.byte	0x23
 1427 07cd 68       		.uleb128 0x68
 1428 07ce 16       		.uleb128 0x16
 1429 07cf 25050000 		.4byte	.LASF106
 1430 07d3 05       		.byte	0x5
 1431 07d4 6C02     		.2byte	0x26c
 1432 07d6 18010000 		.4byte	0x118
 1433 07da 02       		.byte	0x2
 1434 07db 23       		.byte	0x23
 1435 07dc 70       		.uleb128 0x70
 1436 07dd 16       		.uleb128 0x16
 1437 07de 35000000 		.4byte	.LASF107
 1438 07e2 05       		.byte	0x5
 1439 07e3 6D02     		.2byte	0x26d
 1440 07e5 18010000 		.4byte	0x118
 1441 07e9 02       		.byte	0x2
 1442 07ea 23       		.byte	0x23
 1443 07eb 78       		.uleb128 0x78
 1444 07ec 16       		.uleb128 0x16
 1445 07ed 37040000 		.4byte	.LASF108
 1446 07f1 05       		.byte	0x5
 1447 07f2 6E02     		.2byte	0x26e
 1448 07f4 8D080000 		.4byte	0x88d
 1449 07f8 03       		.byte	0x3
 1450 07f9 23       		.byte	0x23
 1451 07fa 8001     		.uleb128 0x80
 1452 07fc 16       		.uleb128 0x16
 1453 07fd 5B000000 		.4byte	.LASF109
 1454 0801 05       		.byte	0x5
 1455 0802 6F02     		.2byte	0x26f
 1456 0804 9D080000 		.4byte	0x89d
 1457 0808 03       		.byte	0x3
 1458 0809 23       		.byte	0x23
 1459 080a 8801     		.uleb128 0x88
 1460 080c 16       		.uleb128 0x16
 1461 080d B9040000 		.4byte	.LASF110
 1462 0811 05       		.byte	0x5
 1463 0812 7002     		.2byte	0x270
 1464 0814 57000000 		.4byte	0x57
 1465 0818 03       		.byte	0x3
 1466 0819 23       		.byte	0x23
 1467 081a A001     		.uleb128 0xa0
 1468 081c 16       		.uleb128 0x16
 1469 081d AE000000 		.4byte	.LASF111
 1470 0821 05       		.byte	0x5
ARM GAS  C:\Users\z80\AppData\Local\Temp\cckkFSRu.s 			page 27


 1471 0822 7102     		.2byte	0x271
 1472 0824 18010000 		.4byte	0x118
 1473 0828 03       		.byte	0x3
 1474 0829 23       		.byte	0x23
 1475 082a A401     		.uleb128 0xa4
 1476 082c 16       		.uleb128 0x16
 1477 082d 58020000 		.4byte	.LASF112
 1478 0831 05       		.byte	0x5
 1479 0832 7202     		.2byte	0x272
 1480 0834 18010000 		.4byte	0x118
 1481 0838 03       		.byte	0x3
 1482 0839 23       		.byte	0x23
 1483 083a AC01     		.uleb128 0xac
 1484 083c 16       		.uleb128 0x16
 1485 083d E0010000 		.4byte	.LASF113
 1486 0841 05       		.byte	0x5
 1487 0842 7302     		.2byte	0x273
 1488 0844 18010000 		.4byte	0x118
 1489 0848 03       		.byte	0x3
 1490 0849 23       		.byte	0x23
 1491 084a B401     		.uleb128 0xb4
 1492 084c 16       		.uleb128 0x16
 1493 084d 04030000 		.4byte	.LASF114
 1494 0851 05       		.byte	0x5
 1495 0852 7402     		.2byte	0x274
 1496 0854 18010000 		.4byte	0x118
 1497 0858 03       		.byte	0x3
 1498 0859 23       		.byte	0x23
 1499 085a BC01     		.uleb128 0xbc
 1500 085c 16       		.uleb128 0x16
 1501 085d 15020000 		.4byte	.LASF115
 1502 0861 05       		.byte	0x5
 1503 0862 7502     		.2byte	0x275
 1504 0864 18010000 		.4byte	0x118
 1505 0868 03       		.byte	0x3
 1506 0869 23       		.byte	0x23
 1507 086a C401     		.uleb128 0xc4
 1508 086c 16       		.uleb128 0x16
 1509 086d 45030000 		.4byte	.LASF116
 1510 0871 05       		.byte	0x5
 1511 0872 7602     		.2byte	0x276
 1512 0874 57000000 		.4byte	0x57
 1513 0878 03       		.byte	0x3
 1514 0879 23       		.byte	0x23
 1515 087a CC01     		.uleb128 0xcc
 1516 087c 00       		.byte	0x0
 1517 087d 08       		.uleb128 0x8
 1518 087e 12060000 		.4byte	0x612
 1519 0882 8D080000 		.4byte	0x88d
 1520 0886 09       		.uleb128 0x9
 1521 0887 F0000000 		.4byte	0xf0
 1522 088b 19       		.byte	0x19
 1523 088c 00       		.byte	0x0
 1524 088d 08       		.uleb128 0x8
 1525 088e 12060000 		.4byte	0x612
 1526 0892 9D080000 		.4byte	0x89d
 1527 0896 09       		.uleb128 0x9
ARM GAS  C:\Users\z80\AppData\Local\Temp\cckkFSRu.s 			page 28


 1528 0897 F0000000 		.4byte	0xf0
 1529 089b 07       		.byte	0x7
 1530 089c 00       		.byte	0x0
 1531 089d 08       		.uleb128 0x8
 1532 089e 12060000 		.4byte	0x612
 1533 08a2 AD080000 		.4byte	0x8ad
 1534 08a6 09       		.uleb128 0x9
 1535 08a7 F0000000 		.4byte	0xf0
 1536 08ab 17       		.byte	0x17
 1537 08ac 00       		.byte	0x0
 1538 08ad 19       		.uleb128 0x19
 1539 08ae F0       		.byte	0xf0
 1540 08af 05       		.byte	0x5
 1541 08b0 7B02     		.2byte	0x27b
 1542 08b2 D5080000 		.4byte	0x8d5
 1543 08b6 16       		.uleb128 0x16
 1544 08b7 1C010000 		.4byte	.LASF117
 1545 08bb 05       		.byte	0x5
 1546 08bc 7E02     		.2byte	0x27e
 1547 08be D5080000 		.4byte	0x8d5
 1548 08c2 02       		.byte	0x2
 1549 08c3 23       		.byte	0x23
 1550 08c4 00       		.uleb128 0x0
 1551 08c5 16       		.uleb128 0x16
 1552 08c6 CE050000 		.4byte	.LASF118
 1553 08ca 05       		.byte	0x5
 1554 08cb 7F02     		.2byte	0x27f
 1555 08cd E5080000 		.4byte	0x8e5
 1556 08d1 02       		.byte	0x2
 1557 08d2 23       		.byte	0x23
 1558 08d3 78       		.uleb128 0x78
 1559 08d4 00       		.byte	0x0
 1560 08d5 08       		.uleb128 0x8
 1561 08d6 29030000 		.4byte	0x329
 1562 08da E5080000 		.4byte	0x8e5
 1563 08de 09       		.uleb128 0x9
 1564 08df F0000000 		.4byte	0xf0
 1565 08e3 1D       		.byte	0x1d
 1566 08e4 00       		.byte	0x0
 1567 08e5 08       		.uleb128 0x8
 1568 08e6 34000000 		.4byte	0x34
 1569 08ea F5080000 		.4byte	0x8f5
 1570 08ee 09       		.uleb128 0x9
 1571 08ef F0000000 		.4byte	0xf0
 1572 08f3 1D       		.byte	0x1d
 1573 08f4 00       		.byte	0x0
 1574 08f5 1A       		.uleb128 0x1a
 1575 08f6 F0       		.byte	0xf0
 1576 08f7 05       		.byte	0x5
 1577 08f8 6002     		.2byte	0x260
 1578 08fa 17090000 		.4byte	0x917
 1579 08fe 1B       		.uleb128 0x1b
 1580 08ff 4E050000 		.4byte	.LASF67
 1581 0903 05       		.byte	0x5
 1582 0904 7702     		.2byte	0x277
 1583 0906 4D070000 		.4byte	0x74d
 1584 090a 1B       		.uleb128 0x1b
ARM GAS  C:\Users\z80\AppData\Local\Temp\cckkFSRu.s 			page 29


 1585 090b F3040000 		.4byte	.LASF119
 1586 090f 05       		.byte	0x5
 1587 0910 8002     		.2byte	0x280
 1588 0912 AD080000 		.4byte	0x8ad
 1589 0916 00       		.byte	0x0
 1590 0917 08       		.uleb128 0x8
 1591 0918 12060000 		.4byte	0x612
 1592 091c 27090000 		.4byte	0x927
 1593 0920 09       		.uleb128 0x9
 1594 0921 F0000000 		.4byte	0xf0
 1595 0925 18       		.byte	0x18
 1596 0926 00       		.byte	0x0
 1597 0927 1C       		.uleb128 0x1c
 1598 0928 01       		.byte	0x1
 1599 0929 33090000 		.4byte	0x933
 1600 092d 14       		.uleb128 0x14
 1601 092e A8040000 		.4byte	0x4a8
 1602 0932 00       		.byte	0x0
 1603 0933 10       		.uleb128 0x10
 1604 0934 04       		.byte	0x4
 1605 0935 27090000 		.4byte	0x927
 1606 0939 10       		.uleb128 0x10
 1607 093a 04       		.byte	0x4
 1608 093b A1010000 		.4byte	0x1a1
 1609 093f 1C       		.uleb128 0x1c
 1610 0940 01       		.byte	0x1
 1611 0941 4B090000 		.4byte	0x94b
 1612 0945 14       		.uleb128 0x14
 1613 0946 57000000 		.4byte	0x57
 1614 094a 00       		.byte	0x0
 1615 094b 10       		.uleb128 0x10
 1616 094c 04       		.byte	0x4
 1617 094d 51090000 		.4byte	0x951
 1618 0951 10       		.uleb128 0x10
 1619 0952 04       		.byte	0x4
 1620 0953 3F090000 		.4byte	0x93f
 1621 0957 08       		.uleb128 0x8
 1622 0958 AF060000 		.4byte	0x6af
 1623 095c 67090000 		.4byte	0x967
 1624 0960 09       		.uleb128 0x9
 1625 0961 F0000000 		.4byte	0xf0
 1626 0965 02       		.byte	0x2
 1627 0966 00       		.byte	0x0
 1628 0967 02       		.uleb128 0x2
 1629 0968 9A020000 		.4byte	.LASF120
 1630 096c 06       		.byte	0x6
 1631 096d 6D       		.byte	0x6d
 1632 096e 82000000 		.4byte	0x82
 1633 0972 02       		.uleb128 0x2
 1634 0973 53040000 		.4byte	.LASF121
 1635 0977 06       		.byte	0x6
 1636 0978 7E       		.byte	0x7e
 1637 0979 0C060000 		.4byte	0x60c
 1638 097d 02       		.uleb128 0x2
 1639 097e F3000000 		.4byte	.LASF122
 1640 0982 06       		.byte	0x6
 1641 0983 85       		.byte	0x85
ARM GAS  C:\Users\z80\AppData\Local\Temp\cckkFSRu.s 			page 30


 1642 0984 50000000 		.4byte	0x50
 1643 0988 02       		.uleb128 0x2
 1644 0989 55050000 		.4byte	.LASF123
 1645 098d 06       		.byte	0x6
 1646 098e A2       		.byte	0xa2
 1647 098f 77000000 		.4byte	0x77
 1648 0993 02       		.uleb128 0x2
 1649 0994 19030000 		.4byte	.LASF124
 1650 0998 06       		.byte	0x6
 1651 0999 A3       		.byte	0xa3
 1652 099a 89000000 		.4byte	0x89
 1653 099e 02       		.uleb128 0x2
 1654 099f 13030000 		.4byte	.LASF125
 1655 09a3 06       		.byte	0x6
 1656 09a4 A4       		.byte	0xa4
 1657 09a5 94000000 		.4byte	0x94
 1658 09a9 02       		.uleb128 0x2
 1659 09aa A6030000 		.4byte	.LASF126
 1660 09ae 06       		.byte	0x6
 1661 09af A5       		.byte	0xa5
 1662 09b0 9F000000 		.4byte	0x9f
 1663 09b4 02       		.uleb128 0x2
 1664 09b5 47050000 		.4byte	.LASF127
 1665 09b9 06       		.byte	0x6
 1666 09ba BF       		.byte	0xbf
 1667 09bb 34000000 		.4byte	0x34
 1668 09bf 02       		.uleb128 0x2
 1669 09c0 9B040000 		.4byte	.LASF128
 1670 09c4 06       		.byte	0x6
 1671 09c5 C4       		.byte	0xc4
 1672 09c6 50000000 		.4byte	0x50
 1673 09ca 0E       		.uleb128 0xe
 1674 09cb 90010000 		.4byte	.LASF129
 1675 09cf 3C       		.byte	0x3c
 1676 09d0 07       		.byte	0x7
 1677 09d1 19       		.byte	0x19
 1678 09d2 C50A0000 		.4byte	0xac5
 1679 09d6 0C       		.uleb128 0xc
 1680 09d7 A0010000 		.4byte	.LASF130
 1681 09db 07       		.byte	0x7
 1682 09dc 1B       		.byte	0x1b
 1683 09dd 93090000 		.4byte	0x993
 1684 09e1 02       		.byte	0x2
 1685 09e2 23       		.byte	0x23
 1686 09e3 00       		.uleb128 0x0
 1687 09e4 0C       		.uleb128 0xc
 1688 09e5 B3020000 		.4byte	.LASF131
 1689 09e9 07       		.byte	0x7
 1690 09ea 1C       		.byte	0x1c
 1691 09eb 7D090000 		.4byte	0x97d
 1692 09ef 02       		.byte	0x2
 1693 09f0 23       		.byte	0x23
 1694 09f1 02       		.uleb128 0x2
 1695 09f2 0C       		.uleb128 0xc
 1696 09f3 D8010000 		.4byte	.LASF132
 1697 09f7 07       		.byte	0x7
 1698 09f8 1D       		.byte	0x1d
ARM GAS  C:\Users\z80\AppData\Local\Temp\cckkFSRu.s 			page 31


 1699 09f9 B4090000 		.4byte	0x9b4
 1700 09fd 02       		.byte	0x2
 1701 09fe 23       		.byte	0x23
 1702 09ff 04       		.uleb128 0x4
 1703 0a00 0C       		.uleb128 0xc
 1704 0a01 F1010000 		.4byte	.LASF133
 1705 0a05 07       		.byte	0x7
 1706 0a06 1E       		.byte	0x1e
 1707 0a07 BF090000 		.4byte	0x9bf
 1708 0a0b 02       		.byte	0x2
 1709 0a0c 23       		.byte	0x23
 1710 0a0d 08       		.uleb128 0x8
 1711 0a0e 0C       		.uleb128 0xc
 1712 0a0f 70020000 		.4byte	.LASF134
 1713 0a13 07       		.byte	0x7
 1714 0a14 1F       		.byte	0x1f
 1715 0a15 9E090000 		.4byte	0x99e
 1716 0a19 02       		.byte	0x2
 1717 0a1a 23       		.byte	0x23
 1718 0a1b 0A       		.uleb128 0xa
 1719 0a1c 0C       		.uleb128 0xc
 1720 0a1d CB010000 		.4byte	.LASF135
 1721 0a21 07       		.byte	0x7
 1722 0a22 20       		.byte	0x20
 1723 0a23 A9090000 		.4byte	0x9a9
 1724 0a27 02       		.byte	0x2
 1725 0a28 23       		.byte	0x23
 1726 0a29 0C       		.uleb128 0xc
 1727 0a2a 0C       		.uleb128 0xc
 1728 0a2b 97050000 		.4byte	.LASF136
 1729 0a2f 07       		.byte	0x7
 1730 0a30 21       		.byte	0x21
 1731 0a31 93090000 		.4byte	0x993
 1732 0a35 02       		.byte	0x2
 1733 0a36 23       		.byte	0x23
 1734 0a37 0E       		.uleb128 0xe
 1735 0a38 0C       		.uleb128 0xc
 1736 0a39 02050000 		.4byte	.LASF137
 1737 0a3d 07       		.byte	0x7
 1738 0a3e 22       		.byte	0x22
 1739 0a3f 88090000 		.4byte	0x988
 1740 0a43 02       		.byte	0x2
 1741 0a44 23       		.byte	0x23
 1742 0a45 10       		.uleb128 0x10
 1743 0a46 0C       		.uleb128 0xc
 1744 0a47 80020000 		.4byte	.LASF138
 1745 0a4b 07       		.byte	0x7
 1746 0a4c 30       		.byte	0x30
 1747 0a4d 67090000 		.4byte	0x967
 1748 0a51 02       		.byte	0x2
 1749 0a52 23       		.byte	0x23
 1750 0a53 14       		.uleb128 0x14
 1751 0a54 0C       		.uleb128 0xc
 1752 0a55 4E030000 		.4byte	.LASF139
 1753 0a59 07       		.byte	0x7
 1754 0a5a 31       		.byte	0x31
 1755 0a5b 82000000 		.4byte	0x82
ARM GAS  C:\Users\z80\AppData\Local\Temp\cckkFSRu.s 			page 32


 1756 0a5f 02       		.byte	0x2
 1757 0a60 23       		.byte	0x23
 1758 0a61 18       		.uleb128 0x18
 1759 0a62 0C       		.uleb128 0xc
 1760 0a63 78010000 		.4byte	.LASF140
 1761 0a67 07       		.byte	0x7
 1762 0a68 32       		.byte	0x32
 1763 0a69 67090000 		.4byte	0x967
 1764 0a6d 02       		.byte	0x2
 1765 0a6e 23       		.byte	0x23
 1766 0a6f 1C       		.uleb128 0x1c
 1767 0a70 0C       		.uleb128 0xc
 1768 0a71 58030000 		.4byte	.LASF141
 1769 0a75 07       		.byte	0x7
 1770 0a76 33       		.byte	0x33
 1771 0a77 82000000 		.4byte	0x82
 1772 0a7b 02       		.byte	0x2
 1773 0a7c 23       		.byte	0x23
 1774 0a7d 20       		.uleb128 0x20
 1775 0a7e 0C       		.uleb128 0xc
 1776 0a7f 19040000 		.4byte	.LASF142
 1777 0a83 07       		.byte	0x7
 1778 0a84 34       		.byte	0x34
 1779 0a85 67090000 		.4byte	0x967
 1780 0a89 02       		.byte	0x2
 1781 0a8a 23       		.byte	0x23
 1782 0a8b 24       		.uleb128 0x24
 1783 0a8c 0C       		.uleb128 0xc
 1784 0a8d 62030000 		.4byte	.LASF143
 1785 0a91 07       		.byte	0x7
 1786 0a92 35       		.byte	0x35
 1787 0a93 82000000 		.4byte	0x82
 1788 0a97 02       		.byte	0x2
 1789 0a98 23       		.byte	0x23
 1790 0a99 28       		.uleb128 0x28
 1791 0a9a 0C       		.uleb128 0xc
 1792 0a9b 74000000 		.4byte	.LASF144
 1793 0a9f 07       		.byte	0x7
 1794 0aa0 36       		.byte	0x36
 1795 0aa1 82000000 		.4byte	0x82
 1796 0aa5 02       		.byte	0x2
 1797 0aa6 23       		.byte	0x23
 1798 0aa7 2C       		.uleb128 0x2c
 1799 0aa8 0C       		.uleb128 0xc
 1800 0aa9 4C010000 		.4byte	.LASF145
 1801 0aad 07       		.byte	0x7
 1802 0aae 37       		.byte	0x37
 1803 0aaf 82000000 		.4byte	0x82
 1804 0ab3 02       		.byte	0x2
 1805 0ab4 23       		.byte	0x23
 1806 0ab5 30       		.uleb128 0x30
 1807 0ab6 0C       		.uleb128 0xc
 1808 0ab7 6C030000 		.4byte	.LASF146
 1809 0abb 07       		.byte	0x7
 1810 0abc 38       		.byte	0x38
 1811 0abd C50A0000 		.4byte	0xac5
 1812 0ac1 02       		.byte	0x2
ARM GAS  C:\Users\z80\AppData\Local\Temp\cckkFSRu.s 			page 33


 1813 0ac2 23       		.byte	0x23
 1814 0ac3 34       		.uleb128 0x34
 1815 0ac4 00       		.byte	0x0
 1816 0ac5 08       		.uleb128 0x8
 1817 0ac6 82000000 		.4byte	0x82
 1818 0aca D50A0000 		.4byte	0xad5
 1819 0ace 09       		.uleb128 0x9
 1820 0acf F0000000 		.4byte	0xf0
 1821 0ad3 01       		.byte	0x1
 1822 0ad4 00       		.byte	0x0
 1823 0ad5 03       		.uleb128 0x3
 1824 0ad6 01       		.byte	0x1
 1825 0ad7 02       		.byte	0x2
 1826 0ad8 7F030000 		.4byte	.LASF147
 1827 0adc 1D       		.uleb128 0x1d
 1828 0add 01       		.byte	0x1
 1829 0ade 03010000 		.4byte	.LASF149
 1830 0ae2 01       		.byte	0x1
 1831 0ae3 4B       		.byte	0x4b
 1832 0ae4 01       		.byte	0x1
 1833 0ae5 57000000 		.4byte	0x57
 1834 0ae9 00000000 		.4byte	.LFB7
 1835 0aed 1C000000 		.4byte	.LFE7
 1836 0af1 00000000 		.4byte	.LLST0
 1837 0af5 300B0000 		.4byte	0xb30
 1838 0af9 1E       		.uleb128 0x1e
 1839 0afa 7200     		.ascii	"r\000"
 1840 0afc 01       		.byte	0x1
 1841 0afd 4B       		.byte	0x4b
 1842 0afe A8040000 		.4byte	0x4a8
 1843 0b02 02       		.byte	0x2
 1844 0b03 91       		.byte	0x91
 1845 0b04 7C       		.sleb128 -4
 1846 0b05 1F       		.uleb128 0x1f
 1847 0b06 89020000 		.4byte	.LASF148
 1848 0b0a 01       		.byte	0x1
 1849 0b0b 4B       		.byte	0x4b
 1850 0b0c 57000000 		.4byte	0x57
 1851 0b10 02       		.byte	0x2
 1852 0b11 91       		.byte	0x91
 1853 0b12 78       		.sleb128 -8
 1854 0b13 1E       		.uleb128 0x1e
 1855 0b14 70747200 		.ascii	"ptr\000"
 1856 0b18 01       		.byte	0x1
 1857 0b19 4B       		.byte	0x4b
 1858 0b1a 0C060000 		.4byte	0x60c
 1859 0b1e 02       		.byte	0x2
 1860 0b1f 91       		.byte	0x91
 1861 0b20 74       		.sleb128 -12
 1862 0b21 1E       		.uleb128 0x1e
 1863 0b22 6C656E00 		.ascii	"len\000"
 1864 0b26 01       		.byte	0x1
 1865 0b27 4B       		.byte	0x4b
 1866 0b28 57000000 		.4byte	0x57
 1867 0b2c 02       		.byte	0x2
 1868 0b2d 91       		.byte	0x91
 1869 0b2e 70       		.sleb128 -16
ARM GAS  C:\Users\z80\AppData\Local\Temp\cckkFSRu.s 			page 34


 1870 0b2f 00       		.byte	0x0
 1871 0b30 1D       		.uleb128 0x1d
 1872 0b31 01       		.byte	0x1
 1873 0b32 8E030000 		.4byte	.LASF150
 1874 0b36 01       		.byte	0x1
 1875 0b37 60       		.byte	0x60
 1876 0b38 01       		.byte	0x1
 1877 0b39 57000000 		.4byte	0x57
 1878 0b3d 00000000 		.4byte	.LFB8
 1879 0b41 14000000 		.4byte	.LFE8
 1880 0b45 20000000 		.4byte	.LLST1
 1881 0b49 840B0000 		.4byte	0xb84
 1882 0b4d 1E       		.uleb128 0x1e
 1883 0b4e 7200     		.ascii	"r\000"
 1884 0b50 01       		.byte	0x1
 1885 0b51 60       		.byte	0x60
 1886 0b52 A8040000 		.4byte	0x4a8
 1887 0b56 02       		.byte	0x2
 1888 0b57 91       		.byte	0x91
 1889 0b58 7C       		.sleb128 -4
 1890 0b59 1F       		.uleb128 0x1f
 1891 0b5a 89020000 		.4byte	.LASF148
 1892 0b5e 01       		.byte	0x1
 1893 0b5f 60       		.byte	0x60
 1894 0b60 57000000 		.4byte	0x57
 1895 0b64 02       		.byte	0x2
 1896 0b65 91       		.byte	0x91
 1897 0b66 78       		.sleb128 -8
 1898 0b67 1E       		.uleb128 0x1e
 1899 0b68 70747200 		.ascii	"ptr\000"
 1900 0b6c 01       		.byte	0x1
 1901 0b6d 60       		.byte	0x60
 1902 0b6e 57000000 		.4byte	0x57
 1903 0b72 02       		.byte	0x2
 1904 0b73 91       		.byte	0x91
 1905 0b74 74       		.sleb128 -12
 1906 0b75 1E       		.uleb128 0x1e
 1907 0b76 64697200 		.ascii	"dir\000"
 1908 0b7a 01       		.byte	0x1
 1909 0b7b 60       		.byte	0x60
 1910 0b7c 57000000 		.4byte	0x57
 1911 0b80 02       		.byte	0x2
 1912 0b81 91       		.byte	0x91
 1913 0b82 70       		.sleb128 -16
 1914 0b83 00       		.byte	0x0
 1915 0b84 1D       		.uleb128 0x1d
 1916 0b85 01       		.byte	0x1
 1917 0b86 52000000 		.4byte	.LASF151
 1918 0b8a 01       		.byte	0x1
 1919 0b8b 6C       		.byte	0x6c
 1920 0b8c 01       		.byte	0x1
 1921 0b8d 57000000 		.4byte	0x57
 1922 0b91 00000000 		.4byte	.LFB9
 1923 0b95 12000000 		.4byte	.LFE9
 1924 0b99 40000000 		.4byte	.LLST2
 1925 0b9d D80B0000 		.4byte	0xbd8
 1926 0ba1 1E       		.uleb128 0x1e
ARM GAS  C:\Users\z80\AppData\Local\Temp\cckkFSRu.s 			page 35


 1927 0ba2 7200     		.ascii	"r\000"
 1928 0ba4 01       		.byte	0x1
 1929 0ba5 6C       		.byte	0x6c
 1930 0ba6 A8040000 		.4byte	0x4a8
 1931 0baa 02       		.byte	0x2
 1932 0bab 91       		.byte	0x91
 1933 0bac 7C       		.sleb128 -4
 1934 0bad 1F       		.uleb128 0x1f
 1935 0bae 89020000 		.4byte	.LASF148
 1936 0bb2 01       		.byte	0x1
 1937 0bb3 6C       		.byte	0x6c
 1938 0bb4 57000000 		.4byte	0x57
 1939 0bb8 02       		.byte	0x2
 1940 0bb9 91       		.byte	0x91
 1941 0bba 78       		.sleb128 -8
 1942 0bbb 1E       		.uleb128 0x1e
 1943 0bbc 70747200 		.ascii	"ptr\000"
 1944 0bc0 01       		.byte	0x1
 1945 0bc1 6C       		.byte	0x6c
 1946 0bc2 0C060000 		.4byte	0x60c
 1947 0bc6 02       		.byte	0x2
 1948 0bc7 91       		.byte	0x91
 1949 0bc8 74       		.sleb128 -12
 1950 0bc9 1E       		.uleb128 0x1e
 1951 0bca 6C656E00 		.ascii	"len\000"
 1952 0bce 01       		.byte	0x1
 1953 0bcf 6C       		.byte	0x6c
 1954 0bd0 57000000 		.4byte	0x57
 1955 0bd4 02       		.byte	0x2
 1956 0bd5 91       		.byte	0x91
 1957 0bd6 70       		.sleb128 -16
 1958 0bd7 00       		.byte	0x0
 1959 0bd8 1D       		.uleb128 0x1d
 1960 0bd9 01       		.byte	0x1
 1961 0bda 76030000 		.4byte	.LASF152
 1962 0bde 01       		.byte	0x1
 1963 0bdf 7D       		.byte	0x7d
 1964 0be0 01       		.byte	0x1
 1965 0be1 57000000 		.4byte	0x57
 1966 0be5 00000000 		.4byte	.LFB10
 1967 0be9 10000000 		.4byte	.LFE10
 1968 0bed 60000000 		.4byte	.LLST3
 1969 0bf1 100C0000 		.4byte	0xc10
 1970 0bf5 1E       		.uleb128 0x1e
 1971 0bf6 7200     		.ascii	"r\000"
 1972 0bf8 01       		.byte	0x1
 1973 0bf9 7D       		.byte	0x7d
 1974 0bfa A8040000 		.4byte	0x4a8
 1975 0bfe 02       		.byte	0x2
 1976 0bff 91       		.byte	0x91
 1977 0c00 7C       		.sleb128 -4
 1978 0c01 1F       		.uleb128 0x1f
 1979 0c02 89020000 		.4byte	.LASF148
 1980 0c06 01       		.byte	0x1
 1981 0c07 7D       		.byte	0x7d
 1982 0c08 57000000 		.4byte	0x57
 1983 0c0c 02       		.byte	0x2
ARM GAS  C:\Users\z80\AppData\Local\Temp\cckkFSRu.s 			page 36


 1984 0c0d 91       		.byte	0x91
 1985 0c0e 78       		.sleb128 -8
 1986 0c0f 00       		.byte	0x0
 1987 0c10 1D       		.uleb128 0x1d
 1988 0c11 01       		.byte	0x1
 1989 0c12 70010000 		.4byte	.LASF153
 1990 0c16 01       		.byte	0x1
 1991 0c17 87       		.byte	0x87
 1992 0c18 01       		.byte	0x1
 1993 0c19 72090000 		.4byte	0x972
 1994 0c1d 00000000 		.4byte	.LFB11
 1995 0c21 34000000 		.4byte	.LFE11
 1996 0c25 80000000 		.4byte	.LLST4
 1997 0c29 540C0000 		.4byte	0xc54
 1998 0c2d 1E       		.uleb128 0x1e
 1999 0c2e 7200     		.ascii	"r\000"
 2000 0c30 01       		.byte	0x1
 2001 0c31 87       		.byte	0x87
 2002 0c32 A8040000 		.4byte	0x4a8
 2003 0c36 02       		.byte	0x2
 2004 0c37 91       		.byte	0x91
 2005 0c38 6C       		.sleb128 -20
 2006 0c39 1F       		.uleb128 0x1f
 2007 0c3a 03020000 		.4byte	.LASF154
 2008 0c3e 01       		.byte	0x1
 2009 0c3f 87       		.byte	0x87
 2010 0c40 57000000 		.4byte	0x57
 2011 0c44 02       		.byte	0x2
 2012 0c45 91       		.byte	0x91
 2013 0c46 68       		.sleb128 -24
 2014 0c47 20       		.uleb128 0x20
 2015 0c48 7000     		.ascii	"p\000"
 2016 0c4a 01       		.byte	0x1
 2017 0c4b 8A       		.byte	0x8a
 2018 0c4c 2E010000 		.4byte	0x12e
 2019 0c50 02       		.byte	0x2
 2020 0c51 91       		.byte	0x91
 2021 0c52 74       		.sleb128 -12
 2022 0c53 00       		.byte	0x0
 2023 0c54 1D       		.uleb128 0x1d
 2024 0c55 01       		.byte	0x1
 2025 0c56 FA010000 		.4byte	.LASF155
 2026 0c5a 01       		.byte	0x1
 2027 0c5b 9D       		.byte	0x9d
 2028 0c5c 01       		.byte	0x1
 2029 0c5d 57000000 		.4byte	0x57
 2030 0c61 00000000 		.4byte	.LFB12
 2031 0c65 2A000000 		.4byte	.LFE12
 2032 0c69 AC000000 		.4byte	.LLST5
 2033 0c6d 990C0000 		.4byte	0xc99
 2034 0c71 1E       		.uleb128 0x1e
 2035 0c72 7200     		.ascii	"r\000"
 2036 0c74 01       		.byte	0x1
 2037 0c75 9D       		.byte	0x9d
 2038 0c76 A8040000 		.4byte	0x4a8
 2039 0c7a 02       		.byte	0x2
 2040 0c7b 91       		.byte	0x91
ARM GAS  C:\Users\z80\AppData\Local\Temp\cckkFSRu.s 			page 37


 2041 0c7c 74       		.sleb128 -12
 2042 0c7d 1F       		.uleb128 0x1f
 2043 0c7e 89020000 		.4byte	.LASF148
 2044 0c82 01       		.byte	0x1
 2045 0c83 9D       		.byte	0x9d
 2046 0c84 57000000 		.4byte	0x57
 2047 0c88 02       		.byte	0x2
 2048 0c89 91       		.byte	0x91
 2049 0c8a 70       		.sleb128 -16
 2050 0c8b 1E       		.uleb128 0x1e
 2051 0c8c 737400   		.ascii	"st\000"
 2052 0c8f 01       		.byte	0x1
 2053 0c90 9D       		.byte	0x9d
 2054 0c91 990C0000 		.4byte	0xc99
 2055 0c95 02       		.byte	0x2
 2056 0c96 91       		.byte	0x91
 2057 0c97 6C       		.sleb128 -20
 2058 0c98 00       		.byte	0x0
 2059 0c99 10       		.uleb128 0x10
 2060 0c9a 04       		.byte	0x4
 2061 0c9b CA090000 		.4byte	0x9ca
 2062 0c9f 21       		.uleb128 0x21
 2063 0ca0 01       		.byte	0x1
 2064 0ca1 43000000 		.4byte	.LASF159
 2065 0ca5 01       		.byte	0x1
 2066 0ca6 A9       		.byte	0xa9
 2067 0ca7 01       		.byte	0x1
 2068 0ca8 57000000 		.4byte	0x57
 2069 0cac 00000000 		.4byte	.LFB13
 2070 0cb0 10000000 		.4byte	.LFE13
 2071 0cb4 D8000000 		.4byte	.LLST6
 2072 0cb8 1E       		.uleb128 0x1e
 2073 0cb9 7200     		.ascii	"r\000"
 2074 0cbb 01       		.byte	0x1
 2075 0cbc A9       		.byte	0xa9
 2076 0cbd A8040000 		.4byte	0x4a8
 2077 0cc1 02       		.byte	0x2
 2078 0cc2 91       		.byte	0x91
 2079 0cc3 7C       		.sleb128 -4
 2080 0cc4 1E       		.uleb128 0x1e
 2081 0cc5 666400   		.ascii	"fd\000"
 2082 0cc8 01       		.byte	0x1
 2083 0cc9 A9       		.byte	0xa9
 2084 0cca 57000000 		.4byte	0x57
 2085 0cce 02       		.byte	0x2
 2086 0ccf 91       		.byte	0x91
 2087 0cd0 78       		.sleb128 -8
 2088 0cd1 00       		.byte	0x0
 2089 0cd2 00       		.byte	0x0
 2090              		.section	.debug_abbrev
 2091 0000 01       		.uleb128 0x1
 2092 0001 11       		.uleb128 0x11
 2093 0002 01       		.byte	0x1
 2094 0003 25       		.uleb128 0x25
 2095 0004 0E       		.uleb128 0xe
 2096 0005 13       		.uleb128 0x13
 2097 0006 0B       		.uleb128 0xb
ARM GAS  C:\Users\z80\AppData\Local\Temp\cckkFSRu.s 			page 38


 2098 0007 03       		.uleb128 0x3
 2099 0008 0E       		.uleb128 0xe
 2100 0009 1B       		.uleb128 0x1b
 2101 000a 0E       		.uleb128 0xe
 2102 000b 11       		.uleb128 0x11
 2103 000c 01       		.uleb128 0x1
 2104 000d 52       		.uleb128 0x52
 2105 000e 01       		.uleb128 0x1
 2106 000f 55       		.uleb128 0x55
 2107 0010 06       		.uleb128 0x6
 2108 0011 10       		.uleb128 0x10
 2109 0012 06       		.uleb128 0x6
 2110 0013 00       		.byte	0x0
 2111 0014 00       		.byte	0x0
 2112 0015 02       		.uleb128 0x2
 2113 0016 16       		.uleb128 0x16
 2114 0017 00       		.byte	0x0
 2115 0018 03       		.uleb128 0x3
 2116 0019 0E       		.uleb128 0xe
 2117 001a 3A       		.uleb128 0x3a
 2118 001b 0B       		.uleb128 0xb
 2119 001c 3B       		.uleb128 0x3b
 2120 001d 0B       		.uleb128 0xb
 2121 001e 49       		.uleb128 0x49
 2122 001f 13       		.uleb128 0x13
 2123 0020 00       		.byte	0x0
 2124 0021 00       		.byte	0x0
 2125 0022 03       		.uleb128 0x3
 2126 0023 24       		.uleb128 0x24
 2127 0024 00       		.byte	0x0
 2128 0025 0B       		.uleb128 0xb
 2129 0026 0B       		.uleb128 0xb
 2130 0027 3E       		.uleb128 0x3e
 2131 0028 0B       		.uleb128 0xb
 2132 0029 03       		.uleb128 0x3
 2133 002a 0E       		.uleb128 0xe
 2134 002b 00       		.byte	0x0
 2135 002c 00       		.byte	0x0
 2136 002d 04       		.uleb128 0x4
 2137 002e 24       		.uleb128 0x24
 2138 002f 00       		.byte	0x0
 2139 0030 0B       		.uleb128 0xb
 2140 0031 0B       		.uleb128 0xb
 2141 0032 3E       		.uleb128 0x3e
 2142 0033 0B       		.uleb128 0xb
 2143 0034 03       		.uleb128 0x3
 2144 0035 08       		.uleb128 0x8
 2145 0036 00       		.byte	0x0
 2146 0037 00       		.byte	0x0
 2147 0038 05       		.uleb128 0x5
 2148 0039 16       		.uleb128 0x16
 2149 003a 00       		.byte	0x0
 2150 003b 03       		.uleb128 0x3
 2151 003c 0E       		.uleb128 0xe
 2152 003d 3A       		.uleb128 0x3a
 2153 003e 0B       		.uleb128 0xb
 2154 003f 3B       		.uleb128 0x3b
ARM GAS  C:\Users\z80\AppData\Local\Temp\cckkFSRu.s 			page 39


 2155 0040 05       		.uleb128 0x5
 2156 0041 49       		.uleb128 0x49
 2157 0042 13       		.uleb128 0x13
 2158 0043 00       		.byte	0x0
 2159 0044 00       		.byte	0x0
 2160 0045 06       		.uleb128 0x6
 2161 0046 17       		.uleb128 0x17
 2162 0047 01       		.byte	0x1
 2163 0048 0B       		.uleb128 0xb
 2164 0049 0B       		.uleb128 0xb
 2165 004a 3A       		.uleb128 0x3a
 2166 004b 0B       		.uleb128 0xb
 2167 004c 3B       		.uleb128 0x3b
 2168 004d 0B       		.uleb128 0xb
 2169 004e 01       		.uleb128 0x1
 2170 004f 13       		.uleb128 0x13
 2171 0050 00       		.byte	0x0
 2172 0051 00       		.byte	0x0
 2173 0052 07       		.uleb128 0x7
 2174 0053 0D       		.uleb128 0xd
 2175 0054 00       		.byte	0x0
 2176 0055 03       		.uleb128 0x3
 2177 0056 0E       		.uleb128 0xe
 2178 0057 3A       		.uleb128 0x3a
 2179 0058 0B       		.uleb128 0xb
 2180 0059 3B       		.uleb128 0x3b
 2181 005a 0B       		.uleb128 0xb
 2182 005b 49       		.uleb128 0x49
 2183 005c 13       		.uleb128 0x13
 2184 005d 00       		.byte	0x0
 2185 005e 00       		.byte	0x0
 2186 005f 08       		.uleb128 0x8
 2187 0060 01       		.uleb128 0x1
 2188 0061 01       		.byte	0x1
 2189 0062 49       		.uleb128 0x49
 2190 0063 13       		.uleb128 0x13
 2191 0064 01       		.uleb128 0x1
 2192 0065 13       		.uleb128 0x13
 2193 0066 00       		.byte	0x0
 2194 0067 00       		.byte	0x0
 2195 0068 09       		.uleb128 0x9
 2196 0069 21       		.uleb128 0x21
 2197 006a 00       		.byte	0x0
 2198 006b 49       		.uleb128 0x49
 2199 006c 13       		.uleb128 0x13
 2200 006d 2F       		.uleb128 0x2f
 2201 006e 0B       		.uleb128 0xb
 2202 006f 00       		.byte	0x0
 2203 0070 00       		.byte	0x0
 2204 0071 0A       		.uleb128 0xa
 2205 0072 24       		.uleb128 0x24
 2206 0073 00       		.byte	0x0
 2207 0074 0B       		.uleb128 0xb
 2208 0075 0B       		.uleb128 0xb
 2209 0076 3E       		.uleb128 0x3e
 2210 0077 0B       		.uleb128 0xb
 2211 0078 00       		.byte	0x0
ARM GAS  C:\Users\z80\AppData\Local\Temp\cckkFSRu.s 			page 40


 2212 0079 00       		.byte	0x0
 2213 007a 0B       		.uleb128 0xb
 2214 007b 13       		.uleb128 0x13
 2215 007c 01       		.byte	0x1
 2216 007d 0B       		.uleb128 0xb
 2217 007e 0B       		.uleb128 0xb
 2218 007f 3A       		.uleb128 0x3a
 2219 0080 0B       		.uleb128 0xb
 2220 0081 3B       		.uleb128 0x3b
 2221 0082 0B       		.uleb128 0xb
 2222 0083 01       		.uleb128 0x1
 2223 0084 13       		.uleb128 0x13
 2224 0085 00       		.byte	0x0
 2225 0086 00       		.byte	0x0
 2226 0087 0C       		.uleb128 0xc
 2227 0088 0D       		.uleb128 0xd
 2228 0089 00       		.byte	0x0
 2229 008a 03       		.uleb128 0x3
 2230 008b 0E       		.uleb128 0xe
 2231 008c 3A       		.uleb128 0x3a
 2232 008d 0B       		.uleb128 0xb
 2233 008e 3B       		.uleb128 0x3b
 2234 008f 0B       		.uleb128 0xb
 2235 0090 49       		.uleb128 0x49
 2236 0091 13       		.uleb128 0x13
 2237 0092 38       		.uleb128 0x38
 2238 0093 0A       		.uleb128 0xa
 2239 0094 00       		.byte	0x0
 2240 0095 00       		.byte	0x0
 2241 0096 0D       		.uleb128 0xd
 2242 0097 0F       		.uleb128 0xf
 2243 0098 00       		.byte	0x0
 2244 0099 0B       		.uleb128 0xb
 2245 009a 0B       		.uleb128 0xb
 2246 009b 00       		.byte	0x0
 2247 009c 00       		.byte	0x0
 2248 009d 0E       		.uleb128 0xe
 2249 009e 13       		.uleb128 0x13
 2250 009f 01       		.byte	0x1
 2251 00a0 03       		.uleb128 0x3
 2252 00a1 0E       		.uleb128 0xe
 2253 00a2 0B       		.uleb128 0xb
 2254 00a3 0B       		.uleb128 0xb
 2255 00a4 3A       		.uleb128 0x3a
 2256 00a5 0B       		.uleb128 0xb
 2257 00a6 3B       		.uleb128 0x3b
 2258 00a7 0B       		.uleb128 0xb
 2259 00a8 01       		.uleb128 0x1
 2260 00a9 13       		.uleb128 0x13
 2261 00aa 00       		.byte	0x0
 2262 00ab 00       		.byte	0x0
 2263 00ac 0F       		.uleb128 0xf
 2264 00ad 0D       		.uleb128 0xd
 2265 00ae 00       		.byte	0x0
 2266 00af 03       		.uleb128 0x3
 2267 00b0 08       		.uleb128 0x8
 2268 00b1 3A       		.uleb128 0x3a
ARM GAS  C:\Users\z80\AppData\Local\Temp\cckkFSRu.s 			page 41


 2269 00b2 0B       		.uleb128 0xb
 2270 00b3 3B       		.uleb128 0x3b
 2271 00b4 0B       		.uleb128 0xb
 2272 00b5 49       		.uleb128 0x49
 2273 00b6 13       		.uleb128 0x13
 2274 00b7 38       		.uleb128 0x38
 2275 00b8 0A       		.uleb128 0xa
 2276 00b9 00       		.byte	0x0
 2277 00ba 00       		.byte	0x0
 2278 00bb 10       		.uleb128 0x10
 2279 00bc 0F       		.uleb128 0xf
 2280 00bd 00       		.byte	0x0
 2281 00be 0B       		.uleb128 0xb
 2282 00bf 0B       		.uleb128 0xb
 2283 00c0 49       		.uleb128 0x49
 2284 00c1 13       		.uleb128 0x13
 2285 00c2 00       		.byte	0x0
 2286 00c3 00       		.byte	0x0
 2287 00c4 11       		.uleb128 0x11
 2288 00c5 13       		.uleb128 0x13
 2289 00c6 01       		.byte	0x1
 2290 00c7 03       		.uleb128 0x3
 2291 00c8 0E       		.uleb128 0xe
 2292 00c9 0B       		.uleb128 0xb
 2293 00ca 05       		.uleb128 0x5
 2294 00cb 3A       		.uleb128 0x3a
 2295 00cc 0B       		.uleb128 0xb
 2296 00cd 3B       		.uleb128 0x3b
 2297 00ce 0B       		.uleb128 0xb
 2298 00cf 01       		.uleb128 0x1
 2299 00d0 13       		.uleb128 0x13
 2300 00d1 00       		.byte	0x0
 2301 00d2 00       		.byte	0x0
 2302 00d3 12       		.uleb128 0x12
 2303 00d4 15       		.uleb128 0x15
 2304 00d5 00       		.byte	0x0
 2305 00d6 27       		.uleb128 0x27
 2306 00d7 0C       		.uleb128 0xc
 2307 00d8 00       		.byte	0x0
 2308 00d9 00       		.byte	0x0
 2309 00da 13       		.uleb128 0x13
 2310 00db 15       		.uleb128 0x15
 2311 00dc 01       		.byte	0x1
 2312 00dd 27       		.uleb128 0x27
 2313 00de 0C       		.uleb128 0xc
 2314 00df 49       		.uleb128 0x49
 2315 00e0 13       		.uleb128 0x13
 2316 00e1 01       		.uleb128 0x1
 2317 00e2 13       		.uleb128 0x13
 2318 00e3 00       		.byte	0x0
 2319 00e4 00       		.byte	0x0
 2320 00e5 14       		.uleb128 0x14
 2321 00e6 05       		.uleb128 0x5
 2322 00e7 00       		.byte	0x0
 2323 00e8 49       		.uleb128 0x49
 2324 00e9 13       		.uleb128 0x13
 2325 00ea 00       		.byte	0x0
ARM GAS  C:\Users\z80\AppData\Local\Temp\cckkFSRu.s 			page 42


 2326 00eb 00       		.byte	0x0
 2327 00ec 15       		.uleb128 0x15
 2328 00ed 13       		.uleb128 0x13
 2329 00ee 01       		.byte	0x1
 2330 00ef 03       		.uleb128 0x3
 2331 00f0 0E       		.uleb128 0xe
 2332 00f1 0B       		.uleb128 0xb
 2333 00f2 05       		.uleb128 0x5
 2334 00f3 3A       		.uleb128 0x3a
 2335 00f4 0B       		.uleb128 0xb
 2336 00f5 3B       		.uleb128 0x3b
 2337 00f6 05       		.uleb128 0x5
 2338 00f7 01       		.uleb128 0x1
 2339 00f8 13       		.uleb128 0x13
 2340 00f9 00       		.byte	0x0
 2341 00fa 00       		.byte	0x0
 2342 00fb 16       		.uleb128 0x16
 2343 00fc 0D       		.uleb128 0xd
 2344 00fd 00       		.byte	0x0
 2345 00fe 03       		.uleb128 0x3
 2346 00ff 0E       		.uleb128 0xe
 2347 0100 3A       		.uleb128 0x3a
 2348 0101 0B       		.uleb128 0xb
 2349 0102 3B       		.uleb128 0x3b
 2350 0103 05       		.uleb128 0x5
 2351 0104 49       		.uleb128 0x49
 2352 0105 13       		.uleb128 0x13
 2353 0106 38       		.uleb128 0x38
 2354 0107 0A       		.uleb128 0xa
 2355 0108 00       		.byte	0x0
 2356 0109 00       		.byte	0x0
 2357 010a 17       		.uleb128 0x17
 2358 010b 26       		.uleb128 0x26
 2359 010c 00       		.byte	0x0
 2360 010d 49       		.uleb128 0x49
 2361 010e 13       		.uleb128 0x13
 2362 010f 00       		.byte	0x0
 2363 0110 00       		.byte	0x0
 2364 0111 18       		.uleb128 0x18
 2365 0112 13       		.uleb128 0x13
 2366 0113 01       		.byte	0x1
 2367 0114 03       		.uleb128 0x3
 2368 0115 0E       		.uleb128 0xe
 2369 0116 0B       		.uleb128 0xb
 2370 0117 0B       		.uleb128 0xb
 2371 0118 3A       		.uleb128 0x3a
 2372 0119 0B       		.uleb128 0xb
 2373 011a 3B       		.uleb128 0x3b
 2374 011b 05       		.uleb128 0x5
 2375 011c 01       		.uleb128 0x1
 2376 011d 13       		.uleb128 0x13
 2377 011e 00       		.byte	0x0
 2378 011f 00       		.byte	0x0
 2379 0120 19       		.uleb128 0x19
 2380 0121 13       		.uleb128 0x13
 2381 0122 01       		.byte	0x1
 2382 0123 0B       		.uleb128 0xb
ARM GAS  C:\Users\z80\AppData\Local\Temp\cckkFSRu.s 			page 43


 2383 0124 0B       		.uleb128 0xb
 2384 0125 3A       		.uleb128 0x3a
 2385 0126 0B       		.uleb128 0xb
 2386 0127 3B       		.uleb128 0x3b
 2387 0128 05       		.uleb128 0x5
 2388 0129 01       		.uleb128 0x1
 2389 012a 13       		.uleb128 0x13
 2390 012b 00       		.byte	0x0
 2391 012c 00       		.byte	0x0
 2392 012d 1A       		.uleb128 0x1a
 2393 012e 17       		.uleb128 0x17
 2394 012f 01       		.byte	0x1
 2395 0130 0B       		.uleb128 0xb
 2396 0131 0B       		.uleb128 0xb
 2397 0132 3A       		.uleb128 0x3a
 2398 0133 0B       		.uleb128 0xb
 2399 0134 3B       		.uleb128 0x3b
 2400 0135 05       		.uleb128 0x5
 2401 0136 01       		.uleb128 0x1
 2402 0137 13       		.uleb128 0x13
 2403 0138 00       		.byte	0x0
 2404 0139 00       		.byte	0x0
 2405 013a 1B       		.uleb128 0x1b
 2406 013b 0D       		.uleb128 0xd
 2407 013c 00       		.byte	0x0
 2408 013d 03       		.uleb128 0x3
 2409 013e 0E       		.uleb128 0xe
 2410 013f 3A       		.uleb128 0x3a
 2411 0140 0B       		.uleb128 0xb
 2412 0141 3B       		.uleb128 0x3b
 2413 0142 05       		.uleb128 0x5
 2414 0143 49       		.uleb128 0x49
 2415 0144 13       		.uleb128 0x13
 2416 0145 00       		.byte	0x0
 2417 0146 00       		.byte	0x0
 2418 0147 1C       		.uleb128 0x1c
 2419 0148 15       		.uleb128 0x15
 2420 0149 01       		.byte	0x1
 2421 014a 27       		.uleb128 0x27
 2422 014b 0C       		.uleb128 0xc
 2423 014c 01       		.uleb128 0x1
 2424 014d 13       		.uleb128 0x13
 2425 014e 00       		.byte	0x0
 2426 014f 00       		.byte	0x0
 2427 0150 1D       		.uleb128 0x1d
 2428 0151 2E       		.uleb128 0x2e
 2429 0152 01       		.byte	0x1
 2430 0153 3F       		.uleb128 0x3f
 2431 0154 0C       		.uleb128 0xc
 2432 0155 03       		.uleb128 0x3
 2433 0156 0E       		.uleb128 0xe
 2434 0157 3A       		.uleb128 0x3a
 2435 0158 0B       		.uleb128 0xb
 2436 0159 3B       		.uleb128 0x3b
 2437 015a 0B       		.uleb128 0xb
 2438 015b 27       		.uleb128 0x27
 2439 015c 0C       		.uleb128 0xc
ARM GAS  C:\Users\z80\AppData\Local\Temp\cckkFSRu.s 			page 44


 2440 015d 49       		.uleb128 0x49
 2441 015e 13       		.uleb128 0x13
 2442 015f 11       		.uleb128 0x11
 2443 0160 01       		.uleb128 0x1
 2444 0161 12       		.uleb128 0x12
 2445 0162 01       		.uleb128 0x1
 2446 0163 40       		.uleb128 0x40
 2447 0164 06       		.uleb128 0x6
 2448 0165 01       		.uleb128 0x1
 2449 0166 13       		.uleb128 0x13
 2450 0167 00       		.byte	0x0
 2451 0168 00       		.byte	0x0
 2452 0169 1E       		.uleb128 0x1e
 2453 016a 05       		.uleb128 0x5
 2454 016b 00       		.byte	0x0
 2455 016c 03       		.uleb128 0x3
 2456 016d 08       		.uleb128 0x8
 2457 016e 3A       		.uleb128 0x3a
 2458 016f 0B       		.uleb128 0xb
 2459 0170 3B       		.uleb128 0x3b
 2460 0171 0B       		.uleb128 0xb
 2461 0172 49       		.uleb128 0x49
 2462 0173 13       		.uleb128 0x13
 2463 0174 02       		.uleb128 0x2
 2464 0175 0A       		.uleb128 0xa
 2465 0176 00       		.byte	0x0
 2466 0177 00       		.byte	0x0
 2467 0178 1F       		.uleb128 0x1f
 2468 0179 05       		.uleb128 0x5
 2469 017a 00       		.byte	0x0
 2470 017b 03       		.uleb128 0x3
 2471 017c 0E       		.uleb128 0xe
 2472 017d 3A       		.uleb128 0x3a
 2473 017e 0B       		.uleb128 0xb
 2474 017f 3B       		.uleb128 0x3b
 2475 0180 0B       		.uleb128 0xb
 2476 0181 49       		.uleb128 0x49
 2477 0182 13       		.uleb128 0x13
 2478 0183 02       		.uleb128 0x2
 2479 0184 0A       		.uleb128 0xa
 2480 0185 00       		.byte	0x0
 2481 0186 00       		.byte	0x0
 2482 0187 20       		.uleb128 0x20
 2483 0188 34       		.uleb128 0x34
 2484 0189 00       		.byte	0x0
 2485 018a 03       		.uleb128 0x3
 2486 018b 08       		.uleb128 0x8
 2487 018c 3A       		.uleb128 0x3a
 2488 018d 0B       		.uleb128 0xb
 2489 018e 3B       		.uleb128 0x3b
 2490 018f 0B       		.uleb128 0xb
 2491 0190 49       		.uleb128 0x49
 2492 0191 13       		.uleb128 0x13
 2493 0192 02       		.uleb128 0x2
 2494 0193 0A       		.uleb128 0xa
 2495 0194 00       		.byte	0x0
 2496 0195 00       		.byte	0x0
ARM GAS  C:\Users\z80\AppData\Local\Temp\cckkFSRu.s 			page 45


 2497 0196 21       		.uleb128 0x21
 2498 0197 2E       		.uleb128 0x2e
 2499 0198 01       		.byte	0x1
 2500 0199 3F       		.uleb128 0x3f
 2501 019a 0C       		.uleb128 0xc
 2502 019b 03       		.uleb128 0x3
 2503 019c 0E       		.uleb128 0xe
 2504 019d 3A       		.uleb128 0x3a
 2505 019e 0B       		.uleb128 0xb
 2506 019f 3B       		.uleb128 0x3b
 2507 01a0 0B       		.uleb128 0xb
 2508 01a1 27       		.uleb128 0x27
 2509 01a2 0C       		.uleb128 0xc
 2510 01a3 49       		.uleb128 0x49
 2511 01a4 13       		.uleb128 0x13
 2512 01a5 11       		.uleb128 0x11
 2513 01a6 01       		.uleb128 0x1
 2514 01a7 12       		.uleb128 0x12
 2515 01a8 01       		.uleb128 0x1
 2516 01a9 40       		.uleb128 0x40
 2517 01aa 06       		.uleb128 0x6
 2518 01ab 00       		.byte	0x0
 2519 01ac 00       		.byte	0x0
 2520 01ad 00       		.byte	0x0
 2521              		.section	.debug_pubnames,"",%progbits
 2522 0000 68000000 		.4byte	0x68
 2523 0004 0200     		.2byte	0x2
 2524 0006 00000000 		.4byte	.Ldebug_info0
 2525 000a D30C0000 		.4byte	0xcd3
 2526 000e DC0A0000 		.4byte	0xadc
 2527 0012 5F726561 		.ascii	"_read_r\000"
 2527      645F7200 
 2528 001a 300B0000 		.4byte	0xb30
 2529 001e 5F6C7365 		.ascii	"_lseek_r\000"
 2529      656B5F72 
 2529      00
 2530 0027 840B0000 		.4byte	0xb84
 2531 002b 5F777269 		.ascii	"_write_r\000"
 2531      74655F72 
 2531      00
 2532 0034 D80B0000 		.4byte	0xbd8
 2533 0038 5F636C6F 		.ascii	"_close_r\000"
 2533      73655F72 
 2533      00
 2534 0041 100C0000 		.4byte	0xc10
 2535 0045 5F736272 		.ascii	"_sbrk_r\000"
 2535      6B5F7200 
 2536 004d 540C0000 		.4byte	0xc54
 2537 0051 5F667374 		.ascii	"_fstat_r\000"
 2537      61745F72 
 2537      00
 2538 005a 9F0C0000 		.4byte	0xc9f
 2539 005e 5F697361 		.ascii	"_isatty_r\000"
 2539      7474795F 
 2539      7200
 2540 0068 00000000 		.4byte	0x0
 2541              		.section	.debug_pubtypes,"",%progbits
ARM GAS  C:\Users\z80\AppData\Local\Temp\cckkFSRu.s 			page 46


 2542 0000 7C010000 		.4byte	0x17c
 2543 0004 0200     		.2byte	0x2
 2544 0006 00000000 		.4byte	.Ldebug_info0
 2545 000a D30C0000 		.4byte	0xcd3
 2546 000e 29000000 		.4byte	0x29
 2547 0012 73697A65 		.ascii	"size_t\000"
 2547      5F7400
 2548 0019 6C000000 		.4byte	0x6c
 2549 001d 5F4C4F43 		.ascii	"_LOCK_RECURSIVE_T\000"
 2549      4B5F5245 
 2549      43555253 
 2549      4956455F 
 2549      5400
 2550 002f 77000000 		.4byte	0x77
 2551 0033 5F6F6666 		.ascii	"_off_t\000"
 2551      5F7400
 2552 003a 89000000 		.4byte	0x89
 2553 003e 5F5F6465 		.ascii	"__dev_t\000"
 2553      765F7400 
 2554 0046 94000000 		.4byte	0x94
 2555 004a 5F5F7569 		.ascii	"__uid_t\000"
 2555      645F7400 
 2556 0052 9F000000 		.4byte	0x9f
 2557 0056 5F5F6769 		.ascii	"__gid_t\000"
 2557      645F7400 
 2558 005e AA000000 		.4byte	0xaa
 2559 0062 5F66706F 		.ascii	"_fpos_t\000"
 2559      735F7400 
 2560 006a B5000000 		.4byte	0xb5
 2561 006e 77696E74 		.ascii	"wint_t\000"
 2561      5F7400
 2562 0075 18010000 		.4byte	0x118
 2563 0079 5F6D6273 		.ascii	"_mbstate_t\000"
 2563      74617465 
 2563      5F7400
 2564 0084 23010000 		.4byte	0x123
 2565 0088 5F666C6F 		.ascii	"_flock_t\000"
 2565      636B5F74 
 2565      00
 2566 0091 30010000 		.4byte	0x130
 2567 0095 5F5F554C 		.ascii	"__ULong\000"
 2567      6F6E6700 
 2568 009d 42010000 		.4byte	0x142
 2569 00a1 5F426967 		.ascii	"_Bigint\000"
 2569      696E7400 
 2570 00a9 B7010000 		.4byte	0x1b7
 2571 00ad 5F5F746D 		.ascii	"__tm\000"
 2571      00
 2572 00b2 42020000 		.4byte	0x242
 2573 00b6 5F6F6E5F 		.ascii	"_on_exit_args\000"
 2573      65786974 
 2573      5F617267 
 2573      7300
 2574 00c4 9B020000 		.4byte	0x29b
 2575 00c8 5F617465 		.ascii	"_atexit\000"
 2575      78697400 
 2576 00d0 00030000 		.4byte	0x300
ARM GAS  C:\Users\z80\AppData\Local\Temp\cckkFSRu.s 			page 47


 2577 00d4 5F5F7362 		.ascii	"__sbuf\000"
 2577      756600
 2578 00db 2F030000 		.4byte	0x32f
 2579 00df 5F5F7346 		.ascii	"__sFILE\000"
 2579      494C4500 
 2580 00e7 AF060000 		.4byte	0x6af
 2581 00eb 5F5F4649 		.ascii	"__FILE\000"
 2581      4C4500
 2582 00f2 BB060000 		.4byte	0x6bb
 2583 00f6 5F676C75 		.ascii	"_glue\000"
 2583      6500
 2584 00fc 02070000 		.4byte	0x702
 2585 0100 5F72616E 		.ascii	"_rand48\000"
 2585      64343800 
 2586 0108 AE040000 		.4byte	0x4ae
 2587 010c 5F726565 		.ascii	"_reent\000"
 2587      6E7400
 2588 0113 67090000 		.4byte	0x967
 2589 0117 74696D65 		.ascii	"time_t\000"
 2589      5F7400
 2590 011e 72090000 		.4byte	0x972
 2591 0122 63616464 		.ascii	"caddr_t\000"
 2591      725F7400 
 2592 012a 7D090000 		.4byte	0x97d
 2593 012e 696E6F5F 		.ascii	"ino_t\000"
 2593      7400
 2594 0134 88090000 		.4byte	0x988
 2595 0138 6F66665F 		.ascii	"off_t\000"
 2595      7400
 2596 013e 93090000 		.4byte	0x993
 2597 0142 6465765F 		.ascii	"dev_t\000"
 2597      7400
 2598 0148 9E090000 		.4byte	0x99e
 2599 014c 7569645F 		.ascii	"uid_t\000"
 2599      7400
 2600 0152 A9090000 		.4byte	0x9a9
 2601 0156 6769645F 		.ascii	"gid_t\000"
 2601      7400
 2602 015c B4090000 		.4byte	0x9b4
 2603 0160 6D6F6465 		.ascii	"mode_t\000"
 2603      5F7400
 2604 0167 BF090000 		.4byte	0x9bf
 2605 016b 6E6C696E 		.ascii	"nlink_t\000"
 2605      6B5F7400 
 2606 0173 CA090000 		.4byte	0x9ca
 2607 0177 73746174 		.ascii	"stat\000"
 2607      00
 2608 017c 00000000 		.4byte	0x0
 2609              		.section	.debug_aranges,"",%progbits
 2610 0000 4C000000 		.4byte	0x4c
 2611 0004 0200     		.2byte	0x2
 2612 0006 00000000 		.4byte	.Ldebug_info0
 2613 000a 04       		.byte	0x4
 2614 000b 00       		.byte	0x0
 2615 000c 0000     		.2byte	0x0
 2616 000e 0000     		.2byte	0x0
 2617 0010 00000000 		.4byte	.LFB7
ARM GAS  C:\Users\z80\AppData\Local\Temp\cckkFSRu.s 			page 48


 2618 0014 1C000000 		.4byte	.LFE7-.LFB7
 2619 0018 00000000 		.4byte	.LFB8
 2620 001c 14000000 		.4byte	.LFE8-.LFB8
 2621 0020 00000000 		.4byte	.LFB9
 2622 0024 12000000 		.4byte	.LFE9-.LFB9
 2623 0028 00000000 		.4byte	.LFB10
 2624 002c 10000000 		.4byte	.LFE10-.LFB10
 2625 0030 00000000 		.4byte	.LFB11
 2626 0034 34000000 		.4byte	.LFE11-.LFB11
 2627 0038 00000000 		.4byte	.LFB12
 2628 003c 2A000000 		.4byte	.LFE12-.LFB12
 2629 0040 00000000 		.4byte	.LFB13
 2630 0044 10000000 		.4byte	.LFE13-.LFB13
 2631 0048 00000000 		.4byte	0x0
 2632 004c 00000000 		.4byte	0x0
 2633              		.section	.debug_ranges,"",%progbits
 2634              	.Ldebug_ranges0:
 2635 0000 00000000 		.4byte	.LFB7
 2636 0004 1C000000 		.4byte	.LFE7
 2637 0008 00000000 		.4byte	.LFB8
 2638 000c 14000000 		.4byte	.LFE8
 2639 0010 00000000 		.4byte	.LFB9
 2640 0014 12000000 		.4byte	.LFE9
 2641 0018 00000000 		.4byte	.LFB10
 2642 001c 10000000 		.4byte	.LFE10
 2643 0020 00000000 		.4byte	.LFB11
 2644 0024 34000000 		.4byte	.LFE11
 2645 0028 00000000 		.4byte	.LFB12
 2646 002c 2A000000 		.4byte	.LFE12
 2647 0030 00000000 		.4byte	.LFB13
 2648 0034 10000000 		.4byte	.LFE13
 2649 0038 00000000 		.4byte	0x0
 2650 003c 00000000 		.4byte	0x0
 2651              		.section	.debug_str,"MS",%progbits,1
 2652              	.LASF157:
 2653 0000 2E2E2F63 		.ascii	"../chibios_2.6.3/os/various/syscalls.c\000"
 2653      68696269 
 2653      6F735F32 
 2653      2E362E33 
 2653      2F6F732F 
 2654              	.LASF39:
 2655 0027 5F6F6E5F 		.ascii	"_on_exit_args\000"
 2655      65786974 
 2655      5F617267 
 2655      7300
 2656              	.LASF107:
 2657 0035 5F776374 		.ascii	"_wctomb_state\000"
 2657      6F6D625F 
 2657      73746174 
 2657      6500
 2658              	.LASF159:
 2659 0043 5F697361 		.ascii	"_isatty_r\000"
 2659      7474795F 
 2659      7200
 2660              	.LASF104:
 2661 004d 5F723438 		.ascii	"_r48\000"
 2661      00
ARM GAS  C:\Users\z80\AppData\Local\Temp\cckkFSRu.s 			page 49


 2662              	.LASF151:
 2663 0052 5F777269 		.ascii	"_write_r\000"
 2663      74655F72 
 2663      00
 2664              	.LASF109:
 2665 005b 5F736967 		.ascii	"_signal_buf\000"
 2665      6E616C5F 
 2665      62756600 
 2666              	.LASF0:
 2667 0067 756E7369 		.ascii	"unsigned int\000"
 2667      676E6564 
 2667      20696E74 
 2667      00
 2668              	.LASF144:
 2669 0074 73745F62 		.ascii	"st_blksize\000"
 2669      6C6B7369 
 2669      7A6500
 2670              	.LASF53:
 2671 007f 5F6C6266 		.ascii	"_lbfsize\000"
 2671      73697A65 
 2671      00
 2672              	.LASF51:
 2673 0088 5F666C61 		.ascii	"_flags\000"
 2673      677300
 2674              	.LASF68:
 2675 008f 5F657272 		.ascii	"_errno\000"
 2675      6E6F00
 2676              	.LASF8:
 2677 0096 5F4C4F43 		.ascii	"_LOCK_RECURSIVE_T\000"
 2677      4B5F5245 
 2677      43555253 
 2677      4956455F 
 2677      5400
 2678              	.LASF55:
 2679 00a8 5F726561 		.ascii	"_read\000"
 2679      6400
 2680              	.LASF111:
 2681 00ae 5F6D6272 		.ascii	"_mbrlen_state\000"
 2681      6C656E5F 
 2681      73746174 
 2681      6500
 2682              	.LASF70:
 2683 00bc 5F737464 		.ascii	"_stdout\000"
 2683      6F757400 
 2684              	.LASF14:
 2685 00c4 5F66706F 		.ascii	"_fpos_t\000"
 2685      735F7400 
 2686              	.LASF46:
 2687 00cc 5F666E73 		.ascii	"_fns\000"
 2687      00
 2688              	.LASF54:
 2689 00d1 5F636F6F 		.ascii	"_cookie\000"
 2689      6B696500 
 2690              	.LASF28:
 2691 00d9 5F426967 		.ascii	"_Bigint\000"
 2691      696E7400 
 2692              	.LASF36:
ARM GAS  C:\Users\z80\AppData\Local\Temp\cckkFSRu.s 			page 50


 2693 00e1 5F5F746D 		.ascii	"__tm_wday\000"
 2693      5F776461 
 2693      7900
 2694              	.LASF78:
 2695 00eb 5F726573 		.ascii	"_result\000"
 2695      756C7400 
 2696              	.LASF122:
 2697 00f3 696E6F5F 		.ascii	"ino_t\000"
 2697      7400
 2698              	.LASF32:
 2699 00f9 5F5F746D 		.ascii	"__tm_hour\000"
 2699      5F686F75 
 2699      7200
 2700              	.LASF149:
 2701 0103 5F726561 		.ascii	"_read_r\000"
 2701      645F7200 
 2702              	.LASF18:
 2703 010b 5F5F636F 		.ascii	"__count\000"
 2703      756E7400 
 2704              	.LASF31:
 2705 0113 5F5F746D 		.ascii	"__tm_min\000"
 2705      5F6D696E 
 2705      00
 2706              	.LASF117:
 2707 011c 5F6E6578 		.ascii	"_nextf\000"
 2707      746600
 2708              	.LASF94:
 2709 0123 5F72616E 		.ascii	"_rand48\000"
 2709      64343800 
 2710              	.LASF79:
 2711 012b 5F726573 		.ascii	"_result_k\000"
 2711      756C745F 
 2711      6B00
 2712              	.LASF6:
 2713 0135 6C6F6E67 		.ascii	"long long unsigned int\000"
 2713      206C6F6E 
 2713      6720756E 
 2713      7369676E 
 2713      65642069 
 2714              	.LASF145:
 2715 014c 73745F62 		.ascii	"st_blocks\000"
 2715      6C6F636B 
 2715      7300
 2716              	.LASF100:
 2717 0156 5F617363 		.ascii	"_asctime_buf\000"
 2717      74696D65 
 2717      5F627566 
 2717      00
 2718              	.LASF50:
 2719 0163 5F5F7346 		.ascii	"__sFILE\000"
 2719      494C4500 
 2720              	.LASF27:
 2721 016b 5F776473 		.ascii	"_wds\000"
 2721      00
 2722              	.LASF153:
 2723 0170 5F736272 		.ascii	"_sbrk_r\000"
 2723      6B5F7200 
ARM GAS  C:\Users\z80\AppData\Local\Temp\cckkFSRu.s 			page 51


 2724              	.LASF140:
 2725 0178 73745F6D 		.ascii	"st_mtime\000"
 2725      74696D65 
 2725      00
 2726              	.LASF90:
 2727 0181 5F5F4649 		.ascii	"__FILE\000"
 2727      4C4500
 2728              	.LASF62:
 2729 0188 5F6F6666 		.ascii	"_offset\000"
 2729      73657400 
 2730              	.LASF129:
 2731 0190 73746174 		.ascii	"stat\000"
 2731      00
 2732              	.LASF73:
 2733 0195 5F656D65 		.ascii	"_emergency\000"
 2733      7267656E 
 2733      637900
 2734              	.LASF130:
 2735 01a0 73745F64 		.ascii	"st_dev\000"
 2735      657600
 2736              	.LASF7:
 2737 01a7 73697A65 		.ascii	"size_t\000"
 2737      5F7400
 2738              	.LASF30:
 2739 01ae 5F5F746D 		.ascii	"__tm_sec\000"
 2739      5F736563 
 2739      00
 2740              	.LASF37:
 2741 01b7 5F5F746D 		.ascii	"__tm_yday\000"
 2741      5F796461 
 2741      7900
 2742              	.LASF72:
 2743 01c1 5F696E63 		.ascii	"_inc\000"
 2743      00
 2744              	.LASF45:
 2745 01c6 5F696E64 		.ascii	"_ind\000"
 2745      00
 2746              	.LASF135:
 2747 01cb 73745F67 		.ascii	"st_gid\000"
 2747      696400
 2748              	.LASF24:
 2749 01d2 5F6E6578 		.ascii	"_next\000"
 2749      7400
 2750              	.LASF132:
 2751 01d8 73745F6D 		.ascii	"st_mode\000"
 2751      6F646500 
 2752              	.LASF113:
 2753 01e0 5F6D6273 		.ascii	"_mbsrtowcs_state\000"
 2753      72746F77 
 2753      63735F73 
 2753      74617465 
 2753      00
 2754              	.LASF133:
 2755 01f1 73745F6E 		.ascii	"st_nlink\000"
 2755      6C696E6B 
 2755      00
 2756              	.LASF155:
ARM GAS  C:\Users\z80\AppData\Local\Temp\cckkFSRu.s 			page 52


 2757 01fa 5F667374 		.ascii	"_fstat_r\000"
 2757      61745F72 
 2757      00
 2758              	.LASF154:
 2759 0203 696E6372 		.ascii	"incr\000"
 2759      00
 2760              	.LASF19:
 2761 0208 5F5F7661 		.ascii	"__value\000"
 2761      6C756500 
 2762              	.LASF80:
 2763 0210 5F703573 		.ascii	"_p5s\000"
 2763      00
 2764              	.LASF115:
 2765 0215 5F776373 		.ascii	"_wcsrtombs_state\000"
 2765      72746F6D 
 2765      62735F73 
 2765      74617465 
 2765      00
 2766              	.LASF105:
 2767 0226 5F6D626C 		.ascii	"_mblen_state\000"
 2767      656E5F73 
 2767      74617465 
 2767      00
 2768              	.LASF89:
 2769 0233 63686172 		.ascii	"char\000"
 2769      00
 2770              	.LASF33:
 2771 0238 5F5F746D 		.ascii	"__tm_mday\000"
 2771      5F6D6461 
 2771      7900
 2772              	.LASF156:
 2773 0242 474E5520 		.ascii	"GNU C 4.5.0\000"
 2773      4320342E 
 2773      352E3000 
 2774              	.LASF86:
 2775 024e 5F736967 		.ascii	"_sig_func\000"
 2775      5F66756E 
 2775      6300
 2776              	.LASF112:
 2777 0258 5F6D6272 		.ascii	"_mbrtowc_state\000"
 2777      746F7763 
 2777      5F737461 
 2777      746500
 2778              	.LASF85:
 2779 0267 5F617465 		.ascii	"_atexit0\000"
 2779      78697430 
 2779      00
 2780              	.LASF134:
 2781 0270 73745F75 		.ascii	"st_uid\000"
 2781      696400
 2782              	.LASF21:
 2783 0277 5F666C6F 		.ascii	"_flock_t\000"
 2783      636B5F74 
 2783      00
 2784              	.LASF138:
 2785 0280 73745F61 		.ascii	"st_atime\000"
 2785      74696D65 
ARM GAS  C:\Users\z80\AppData\Local\Temp\cckkFSRu.s 			page 53


 2785      00
 2786              	.LASF148:
 2787 0289 66696C65 		.ascii	"file\000"
 2787      00
 2788              	.LASF16:
 2789 028e 5F5F7763 		.ascii	"__wch\000"
 2789      6800
 2790              	.LASF93:
 2791 0294 5F696F62 		.ascii	"_iobs\000"
 2791      7300
 2792              	.LASF120:
 2793 029a 74696D65 		.ascii	"time_t\000"
 2793      5F7400
 2794              	.LASF58:
 2795 02a1 5F636C6F 		.ascii	"_close\000"
 2795      736500
 2796              	.LASF76:
 2797 02a8 5F5F7364 		.ascii	"__sdidinit\000"
 2797      6964696E 
 2797      697400
 2798              	.LASF131:
 2799 02b3 73745F69 		.ascii	"st_ino\000"
 2799      6E6F00
 2800              	.LASF69:
 2801 02ba 5F737464 		.ascii	"_stdin\000"
 2801      696E00
 2802              	.LASF102:
 2803 02c1 5F67616D 		.ascii	"_gamma_signgam\000"
 2803      6D615F73 
 2803      69676E67 
 2803      616D00
 2804              	.LASF5:
 2805 02d0 6C6F6E67 		.ascii	"long long int\000"
 2805      206C6F6E 
 2805      6720696E 
 2805      7400
 2806              	.LASF48:
 2807 02de 5F626173 		.ascii	"_base\000"
 2807      6500
 2808              	.LASF81:
 2809 02e4 5F667265 		.ascii	"_freelist\000"
 2809      656C6973 
 2809      7400
 2810              	.LASF11:
 2811 02ee 5F5F6465 		.ascii	"__dev_t\000"
 2811      765F7400 
 2812              	.LASF96:
 2813 02f6 5F6D756C 		.ascii	"_mult\000"
 2813      7400
 2814              	.LASF22:
 2815 02fc 5F5F554C 		.ascii	"__ULong\000"
 2815      6F6E6700 
 2816              	.LASF114:
 2817 0304 5F776372 		.ascii	"_wcrtomb_state\000"
 2817      746F6D62 
 2817      5F737461 
 2817      746500
ARM GAS  C:\Users\z80\AppData\Local\Temp\cckkFSRu.s 			page 54


 2818              	.LASF125:
 2819 0313 7569645F 		.ascii	"uid_t\000"
 2819      7400
 2820              	.LASF124:
 2821 0319 6465765F 		.ascii	"dev_t\000"
 2821      7400
 2822              	.LASF52:
 2823 031f 5F66696C 		.ascii	"_file\000"
 2823      6500
 2824              	.LASF77:
 2825 0325 5F5F636C 		.ascii	"__cleanup\000"
 2825      65616E75 
 2825      7000
 2826              	.LASF20:
 2827 032f 5F6D6273 		.ascii	"_mbstate_t\000"
 2827      74617465 
 2827      5F7400
 2828              	.LASF38:
 2829 033a 5F5F746D 		.ascii	"__tm_isdst\000"
 2829      5F697364 
 2829      737400
 2830              	.LASF116:
 2831 0345 5F685F65 		.ascii	"_h_errno\000"
 2831      72726E6F 
 2831      00
 2832              	.LASF139:
 2833 034e 73745F73 		.ascii	"st_spare1\000"
 2833      70617265 
 2833      3100
 2834              	.LASF141:
 2835 0358 73745F73 		.ascii	"st_spare2\000"
 2835      70617265 
 2835      3200
 2836              	.LASF143:
 2837 0362 73745F73 		.ascii	"st_spare3\000"
 2837      70617265 
 2837      3300
 2838              	.LASF146:
 2839 036c 73745F73 		.ascii	"st_spare4\000"
 2839      70617265 
 2839      3400
 2840              	.LASF152:
 2841 0376 5F636C6F 		.ascii	"_close_r\000"
 2841      73655F72 
 2841      00
 2842              	.LASF147:
 2843 037f 5F426F6F 		.ascii	"_Bool\000"
 2843      6C00
 2844              	.LASF34:
 2845 0385 5F5F746D 		.ascii	"__tm_mon\000"
 2845      5F6D6F6E 
 2845      00
 2846              	.LASF150:
 2847 038e 5F6C7365 		.ascii	"_lseek_r\000"
 2847      656B5F72 
 2847      00
 2848              	.LASF13:
ARM GAS  C:\Users\z80\AppData\Local\Temp\cckkFSRu.s 			page 55


 2849 0397 5F5F6769 		.ascii	"__gid_t\000"
 2849      645F7400 
 2850              	.LASF56:
 2851 039f 5F777269 		.ascii	"_write\000"
 2851      746500
 2852              	.LASF126:
 2853 03a6 6769645F 		.ascii	"gid_t\000"
 2853      7400
 2854              	.LASF44:
 2855 03ac 5F617465 		.ascii	"_atexit\000"
 2855      78697400 
 2856              	.LASF65:
 2857 03b4 5F6D6273 		.ascii	"_mbstate\000"
 2857      74617465 
 2857      00
 2858              	.LASF3:
 2859 03bd 73686F72 		.ascii	"short int\000"
 2859      7420696E 
 2859      7400
 2860              	.LASF10:
 2861 03c7 6C6F6E67 		.ascii	"long int\000"
 2861      20696E74 
 2861      00
 2862              	.LASF88:
 2863 03d0 5F5F7366 		.ascii	"__sf\000"
 2863      00
 2864              	.LASF26:
 2865 03d5 5F736967 		.ascii	"_sign\000"
 2865      6E00
 2866              	.LASF75:
 2867 03db 5F637572 		.ascii	"_current_locale\000"
 2867      72656E74 
 2867      5F6C6F63 
 2867      616C6500 
 2868              	.LASF63:
 2869 03eb 5F646174 		.ascii	"_data\000"
 2869      6100
 2870              	.LASF17:
 2871 03f1 5F5F7763 		.ascii	"__wchb\000"
 2871      686200
 2872              	.LASF35:
 2873 03f8 5F5F746D 		.ascii	"__tm_year\000"
 2873      5F796561 
 2873      7200
 2874              	.LASF101:
 2875 0402 5F6C6F63 		.ascii	"_localtime_buf\000"
 2875      616C7469 
 2875      6D655F62 
 2875      756600
 2876              	.LASF12:
 2877 0411 5F5F7569 		.ascii	"__uid_t\000"
 2877      645F7400 
 2878              	.LASF142:
 2879 0419 73745F63 		.ascii	"st_ctime\000"
 2879      74696D65 
 2879      00
 2880              	.LASF84:
ARM GAS  C:\Users\z80\AppData\Local\Temp\cckkFSRu.s 			page 56


 2881 0422 5F6E6577 		.ascii	"_new\000"
 2881      00
 2882              	.LASF82:
 2883 0427 5F637674 		.ascii	"_cvtlen\000"
 2883      6C656E00 
 2884              	.LASF25:
 2885 042f 5F6D6178 		.ascii	"_maxwds\000"
 2885      77647300 
 2886              	.LASF108:
 2887 0437 5F6C3634 		.ascii	"_l64a_buf\000"
 2887      615F6275 
 2887      6600
 2888              	.LASF74:
 2889 0441 5F637572 		.ascii	"_current_category\000"
 2889      72656E74 
 2889      5F636174 
 2889      65676F72 
 2889      7900
 2890              	.LASF121:
 2891 0453 63616464 		.ascii	"caddr_t\000"
 2891      725F7400 
 2892              	.LASF61:
 2893 045b 5F626C6B 		.ascii	"_blksize\000"
 2893      73697A65 
 2893      00
 2894              	.LASF29:
 2895 0464 5F5F746D 		.ascii	"__tm\000"
 2895      00
 2896              	.LASF64:
 2897 0469 5F6C6F63 		.ascii	"_lock\000"
 2897      6B00
 2898              	.LASF23:
 2899 046f 6C6F6E67 		.ascii	"long unsigned int\000"
 2899      20756E73 
 2899      69676E65 
 2899      6420696E 
 2899      7400
 2900              	.LASF92:
 2901 0481 5F6E696F 		.ascii	"_niobs\000"
 2901      627300
 2902              	.LASF15:
 2903 0488 77696E74 		.ascii	"wint_t\000"
 2903      5F7400
 2904              	.LASF41:
 2905 048f 5F64736F 		.ascii	"_dso_handle\000"
 2905      5F68616E 
 2905      646C6500 
 2906              	.LASF128:
 2907 049b 6E6C696E 		.ascii	"nlink_t\000"
 2907      6B5F7400 
 2908              	.LASF83:
 2909 04a3 5F637674 		.ascii	"_cvtbuf\000"
 2909      62756600 
 2910              	.LASF2:
 2911 04ab 756E7369 		.ascii	"unsigned char\000"
 2911      676E6564 
 2911      20636861 
ARM GAS  C:\Users\z80\AppData\Local\Temp\cckkFSRu.s 			page 57


 2911      7200
 2912              	.LASF110:
 2913 04b9 5F676574 		.ascii	"_getdate_err\000"
 2913      64617465 
 2913      5F657272 
 2913      00
 2914              	.LASF158:
 2915 04c6 433A5C70 		.ascii	"C:\\projects\\clock.git\\firmware\\firmware\000"
 2915      726F6A65 
 2915      6374735C 
 2915      636C6F63 
 2915      6B2E6769 
 2916              	.LASF97:
 2917 04ee 5F616464 		.ascii	"_add\000"
 2917      00
 2918              	.LASF119:
 2919 04f3 5F756E75 		.ascii	"_unused\000"
 2919      73656400 
 2920              	.LASF47:
 2921 04fb 5F5F7362 		.ascii	"__sbuf\000"
 2921      756600
 2922              	.LASF137:
 2923 0502 73745F73 		.ascii	"st_size\000"
 2923      697A6500 
 2924              	.LASF91:
 2925 050a 5F676C75 		.ascii	"_glue\000"
 2925      6500
 2926              	.LASF87:
 2927 0510 5F5F7367 		.ascii	"__sglue\000"
 2927      6C756500 
 2928              	.LASF99:
 2929 0518 5F737472 		.ascii	"_strtok_last\000"
 2929      746F6B5F 
 2929      6C617374 
 2929      00
 2930              	.LASF106:
 2931 0525 5F6D6274 		.ascii	"_mbtowc_state\000"
 2931      6F77635F 
 2931      73746174 
 2931      6500
 2932              	.LASF40:
 2933 0533 5F666E61 		.ascii	"_fnargs\000"
 2933      72677300 
 2934              	.LASF1:
 2935 053b 7369676E 		.ascii	"signed char\000"
 2935      65642063 
 2935      68617200 
 2936              	.LASF127:
 2937 0547 6D6F6465 		.ascii	"mode_t\000"
 2937      5F7400
 2938              	.LASF67:
 2939 054e 5F726565 		.ascii	"_reent\000"
 2939      6E7400
 2940              	.LASF123:
 2941 0555 6F66665F 		.ascii	"off_t\000"
 2941      7400
 2942              	.LASF4:
ARM GAS  C:\Users\z80\AppData\Local\Temp\cckkFSRu.s 			page 58


 2943 055b 73686F72 		.ascii	"short unsigned int\000"
 2943      7420756E 
 2943      7369676E 
 2943      65642069 
 2943      6E7400
 2944              	.LASF42:
 2945 056e 5F666E74 		.ascii	"_fntypes\000"
 2945      79706573 
 2945      00
 2946              	.LASF49:
 2947 0577 5F73697A 		.ascii	"_size\000"
 2947      6500
 2948              	.LASF9:
 2949 057d 5F6F6666 		.ascii	"_off_t\000"
 2949      5F7400
 2950              	.LASF60:
 2951 0584 5F6E6275 		.ascii	"_nbuf\000"
 2951      6600
 2952              	.LASF98:
 2953 058a 5F756E75 		.ascii	"_unused_rand\000"
 2953      7365645F 
 2953      72616E64 
 2953      00
 2954              	.LASF136:
 2955 0597 73745F72 		.ascii	"st_rdev\000"
 2955      64657600 
 2956              	.LASF66:
 2957 059f 5F666C61 		.ascii	"_flags2\000"
 2957      67733200 
 2958              	.LASF43:
 2959 05a7 5F69735F 		.ascii	"_is_cxa\000"
 2959      63786100 
 2960              	.LASF95:
 2961 05af 5F736565 		.ascii	"_seed\000"
 2961      6400
 2962              	.LASF103:
 2963 05b5 5F72616E 		.ascii	"_rand_next\000"
 2963      645F6E65 
 2963      787400
 2964              	.LASF57:
 2965 05c0 5F736565 		.ascii	"_seek\000"
 2965      6B00
 2966              	.LASF71:
 2967 05c6 5F737464 		.ascii	"_stderr\000"
 2967      65727200 
 2968              	.LASF118:
 2969 05ce 5F6E6D61 		.ascii	"_nmalloc\000"
 2969      6C6C6F63 
 2969      00
 2970              	.LASF59:
 2971 05d7 5F756275 		.ascii	"_ubuf\000"
 2971      6600
 2972              		.ident	"GCC: (GNU) 4.5.0"
ARM GAS  C:\Users\z80\AppData\Local\Temp\cckkFSRu.s 			page 59


DEFINED SYMBOLS
                            *ABS*:00000000 syscalls.c
C:\Users\z80\AppData\Local\Temp\cckkFSRu.s:24     .text._read_r:00000000 $t
C:\Users\z80\AppData\Local\Temp\cckkFSRu.s:30     .text._read_r:00000000 _read_r
C:\Users\z80\AppData\Local\Temp\cckkFSRu.s:59     .text._lseek_r:00000000 $t
C:\Users\z80\AppData\Local\Temp\cckkFSRu.s:65     .text._lseek_r:00000000 _lseek_r
C:\Users\z80\AppData\Local\Temp\cckkFSRu.s:89     .text._write_r:00000000 $t
C:\Users\z80\AppData\Local\Temp\cckkFSRu.s:95     .text._write_r:00000000 _write_r
C:\Users\z80\AppData\Local\Temp\cckkFSRu.s:119    .text._close_r:00000000 $t
C:\Users\z80\AppData\Local\Temp\cckkFSRu.s:125    .text._close_r:00000000 _close_r
C:\Users\z80\AppData\Local\Temp\cckkFSRu.s:147    .text._sbrk_r:00000000 $t
C:\Users\z80\AppData\Local\Temp\cckkFSRu.s:153    .text._sbrk_r:00000000 _sbrk_r
C:\Users\z80\AppData\Local\Temp\cckkFSRu.s:200    .text._fstat_r:00000000 $t
C:\Users\z80\AppData\Local\Temp\cckkFSRu.s:206    .text._fstat_r:00000000 _fstat_r
C:\Users\z80\AppData\Local\Temp\cckkFSRu.s:241    .text._isatty_r:00000000 $t
C:\Users\z80\AppData\Local\Temp\cckkFSRu.s:247    .text._isatty_r:00000000 _isatty_r
                     .debug_frame:00000010 $d

UNDEFINED SYMBOLS
chCoreAlloc
memset
