ARM GAS  C:\Users\z80\AppData\Local\Temp\cckkFSRu.s 			page 1


   1              		.syntax unified
   2              		.cpu cortex-m3
   3              		.fpu softvfp
   4              		.eabi_attribute 20, 1
   5              		.eabi_attribute 21, 1
   6              		.eabi_attribute 23, 3
   7              		.eabi_attribute 24, 1
   8              		.eabi_attribute 25, 1
   9              		.eabi_attribute 26, 1
  10              		.eabi_attribute 30, 6
  11              		.eabi_attribute 18, 4
  12              		.thumb
  13              		.file	"syscalls.c"
  20 0000 8E010000 		.text
  20      0200FE00 
  20      00000201 
  20      FB0E0D00 
  20      01010101 
  21              	.Ltext0:
  22              		.cfi_sections	.debug_frame
  23              		.section	.text._read_r,"ax",%progbits
  24              		.align	2
  25              		.p2align 4,,15
  26              		.global	_read_r
  27              		.thumb
  28              		.thumb_func
  29              		.type	_read_r, %function
  30              	_read_r:
  31              	.LFB7:
  32              		.file 1 "../chibios_2.6.3/os/various/syscalls.c"
  33              		.loc 1 76 0
  34              		.cfi_startproc
  35              		@ args = 0, pretend = 0, frame = 16
  36              		@ frame_needed = 0, uses_anonymous_args = 0
  37              		@ link register save eliminated.
  38 0000 84B0     		sub	sp, sp, #16
  39              	.LCFI0:
  40              		.cfi_def_cfa_offset 16
  41 0002 0390     		str	r0, [sp, #12]
  42 0004 0291     		str	r1, [sp, #8]
  43 0006 0192     		str	r2, [sp, #4]
  44 0008 0093     		str	r3, [sp, #0]
  45              		.loc 1 89 0
  46 000a 039B     		ldr	r3, [sp, #12]
  47 000c 4FF01602 		mov	r2, #22
  48 0010 1A60     		str	r2, [r3, #0]
  49              		.loc 1 90 0
  50 0012 4FF0FF33 		mov	r3, #-1
  51              		.loc 1 92 0
  52 0016 1846     		mov	r0, r3
  53 0018 04B0     		add	sp, sp, #16
ARM GAS  C:\Users\z80\AppData\Local\Temp\cckkFSRu.s 			page 2


  54 001a 7047     		bx	lr
  55              		.cfi_endproc
  56              	.LFE7:
  57              		.size	_read_r, .-_read_r
  58 001c AFF30080 		.section	.text._lseek_r,"ax",%progbits
  59              		.align	2
  60              		.p2align 4,,15
  61              		.global	_lseek_r
  62              		.thumb
  63              		.thumb_func
  64              		.type	_lseek_r, %function
  65              	_lseek_r:
  66              	.LFB8:
  67              		.loc 1 97 0
  68              		.cfi_startproc
  69              		@ args = 0, pretend = 0, frame = 16
  70              		@ frame_needed = 0, uses_anonymous_args = 0
  71              		@ link register save eliminated.
  72 0000 84B0     		sub	sp, sp, #16
  73              	.LCFI1:
  74              		.cfi_def_cfa_offset 16
  75 0002 0390     		str	r0, [sp, #12]
  76 0004 0291     		str	r1, [sp, #8]
  77 0006 0192     		str	r2, [sp, #4]
  78 0008 0093     		str	r3, [sp, #0]
  79              		.loc 1 103 0
  80 000a 4FF00003 		mov	r3, #0
  81              		.loc 1 104 0
  82 000e 1846     		mov	r0, r3
  83 0010 04B0     		add	sp, sp, #16
  84 0012 7047     		bx	lr
  85              		.cfi_endproc
  86              	.LFE8:
  87              		.size	_lseek_r, .-_lseek_r
  88 0014 AFF30080 		.section	.text._write_r,"ax",%progbits
  88      AFF30080 
  88      AFF30080 
  89              		.align	2
  90              		.p2align 4,,15
  91              		.global	_write_r
  92              		.thumb
  93              		.thumb_func
  94              		.type	_write_r, %function
  95              	_write_r:
  96              	.LFB9:
  97              		.loc 1 109 0
  98              		.cfi_startproc
  99              		@ args = 0, pretend = 0, frame = 16
 100              		@ frame_needed = 0, uses_anonymous_args = 0
 101              		@ link register save eliminated.
 102 0000 84B0     		sub	sp, sp, #16
 103              	.LCFI2:
 104              		.cfi_def_cfa_offset 16
 105 0002 0390     		str	r0, [sp, #12]
 106 0004 0291     		str	r1, [sp, #8]
 107 0006 0192     		str	r2, [sp, #4]
 108 0008 0093     		str	r3, [sp, #0]
ARM GAS  C:\Users\z80\AppData\Local\Temp\cckkFSRu.s 			page 3


 109              		.loc 1 120 0
 110 000a 009B     		ldr	r3, [sp, #0]
 111              		.loc 1 121 0
 112 000c 1846     		mov	r0, r3
 113 000e 04B0     		add	sp, sp, #16
 114 0010 7047     		bx	lr
 115              		.cfi_endproc
 116              	.LFE9:
 117              		.size	_write_r, .-_write_r
 118 0012 00BFAFF3 		.section	.text._close_r,"ax",%progbits
 118      0080AFF3 
 118      0080AFF3 
 118      0080
 119              		.align	2
 120              		.p2align 4,,15
 121              		.global	_close_r
 122              		.thumb
 123              		.thumb_func
 124              		.type	_close_r, %function
 125              	_close_r:
 126              	.LFB10:
 127              		.loc 1 126 0
 128              		.cfi_startproc
 129              		@ args = 0, pretend = 0, frame = 8
 130              		@ frame_needed = 0, uses_anonymous_args = 0
 131              		@ link register save eliminated.
 132 0000 82B0     		sub	sp, sp, #8
 133              	.LCFI3:
 134              		.cfi_def_cfa_offset 8
 135 0002 0190     		str	r0, [sp, #4]
 136 0004 0091     		str	r1, [sp, #0]
 137              		.loc 1 130 0
 138 0006 4FF00003 		mov	r3, #0
 139              		.loc 1 131 0
 140 000a 1846     		mov	r0, r3
 141 000c 02B0     		add	sp, sp, #8
 142 000e 7047     		bx	lr
 143              		.cfi_endproc
 144              	.LFE10:
 145              		.size	_close_r, .-_close_r
 146              		.section	.text._sbrk_r,"ax",%progbits
 147              		.align	2
 148              		.p2align 4,,15
 149              		.global	_sbrk_r
 150              		.thumb
 151              		.thumb_func
 152              		.type	_sbrk_r, %function
 153              	_sbrk_r:
 154              	.LFB11:
 155              		.loc 1 136 0
 156              		.cfi_startproc
 157              		@ args = 0, pretend = 0, frame = 16
 158              		@ frame_needed = 0, uses_anonymous_args = 0
 159 0000 00B5     		push	{lr}
 160              	.LCFI4:
 161              		.cfi_def_cfa_offset 4
 162 0002 85B0     		sub	sp, sp, #20
ARM GAS  C:\Users\z80\AppData\Local\Temp\cckkFSRu.s 			page 4


 163              	.LCFI5:
 164              		.cfi_def_cfa_offset 24
 165 0004 0190     		str	r0, [sp, #4]
 166 0006 0091     		str	r1, [sp, #0]
 167              		.loc 1 140 0
 168 0008 009B     		ldr	r3, [sp, #0]
 169 000a 002B     		cmp	r3, #0
 170              		.loc 1 143 0
 171 000c 009B     		ldr	r3, [sp, #0]
 172 000e 1846     		mov	r0, r3
 173              		.cfi_offset 14, -4
 174 0010 FFF7FEFF 		bl	chCoreAlloc
 175 0014 0346     		mov	r3, r0
 176 0016 0393     		str	r3, [sp, #12]
 177              		.loc 1 144 0
 178 0018 039B     		ldr	r3, [sp, #12]
 179 001a 002B     		cmp	r3, #0
 180 001c 06D1     		bne	.L7
 181              		.loc 1 145 0
 182 001e 019B     		ldr	r3, [sp, #4]
 183 0020 4FF00C02 		mov	r2, #12
 184 0024 1A60     		str	r2, [r3, #0]
 185              		.loc 1 146 0
 186 0026 4FF0FF33 		mov	r3, #-1
 187 002a 00E0     		b	.L8
 188              	.L7:
 189              		.loc 1 148 0
 190 002c 039B     		ldr	r3, [sp, #12]
 191              	.L8:
 192              		.loc 1 153 0
 193 002e 1846     		mov	r0, r3
 194 0030 05B0     		add	sp, sp, #20
 195 0032 00BD     		pop	{pc}
 196              		.cfi_endproc
 197              	.LFE11:
 198              		.size	_sbrk_r, .-_sbrk_r
 199 0034 AFF30080 		.section	.text._fstat_r,"ax",%progbits
 199      AFF30080 
 199      AFF30080 
 200              		.align	2
 201              		.p2align 4,,15
 202              		.global	_fstat_r
 203              		.thumb
 204              		.thumb_func
 205              		.type	_fstat_r, %function
 206              	_fstat_r:
 207              	.LFB12:
 208              		.loc 1 158 0
 209              		.cfi_startproc
 210              		@ args = 0, pretend = 0, frame = 16
 211              		@ frame_needed = 0, uses_anonymous_args = 0
 212 0000 00B5     		push	{lr}
 213              	.LCFI6:
 214              		.cfi_def_cfa_offset 4
 215 0002 85B0     		sub	sp, sp, #20
 216              	.LCFI7:
 217              		.cfi_def_cfa_offset 24
ARM GAS  C:\Users\z80\AppData\Local\Temp\cckkFSRu.s 			page 5


 218 0004 0390     		str	r0, [sp, #12]
 219 0006 0291     		str	r1, [sp, #8]
 220 0008 0192     		str	r2, [sp, #4]
 221              		.loc 1 162 0
 222 000a 0198     		ldr	r0, [sp, #4]
 223 000c 4FF00001 		mov	r1, #0
 224 0010 4FF03C02 		mov	r2, #60
 225              		.cfi_offset 14, -4
 226 0014 FFF7FEFF 		bl	memset
 227              		.loc 1 163 0
 228 0018 019B     		ldr	r3, [sp, #4]
 229 001a 4FF40052 		mov	r2, #8192
 230 001e 5A60     		str	r2, [r3, #4]
 231              		.loc 1 164 0
 232 0020 4FF00003 		mov	r3, #0
 233              		.loc 1 165 0
 234 0024 1846     		mov	r0, r3
 235 0026 05B0     		add	sp, sp, #20
 236 0028 00BD     		pop	{pc}
 237              		.cfi_endproc
 238              	.LFE12:
 239              		.size	_fstat_r, .-_fstat_r
 240 002a 00BFAFF3 		.section	.text._isatty_r,"ax",%progbits
 240      0080
 241              		.align	2
 242              		.p2align 4,,15
 243              		.global	_isatty_r
 244              		.thumb
 245              		.thumb_func
 246              		.type	_isatty_r, %function
 247              	_isatty_r:
 248              	.LFB13:
 249              		.loc 1 170 0
 250              		.cfi_startproc
 251              		@ args = 0, pretend = 0, frame = 8
 252              		@ frame_needed = 0, uses_anonymous_args = 0
 253              		@ link register save eliminated.
 254 0000 82B0     		sub	sp, sp, #8
 255              	.LCFI8:
 256              		.cfi_def_cfa_offset 8
 257 0002 0190     		str	r0, [sp, #4]
 258 0004 0091     		str	r1, [sp, #0]
 259              		.loc 1 174 0
 260 0006 4FF00103 		mov	r3, #1
 261              		.loc 1 175 0
 262 000a 1846     		mov	r0, r3
 263 000c 02B0     		add	sp, sp, #8
 264 000e 7047     		bx	lr
 265              		.cfi_endproc
 266              	.LFE13:
 267              		.size	_isatty_r, .-_isatty_r
 268              		.text
 269              	.Letext0: