ARM GAS  C:\Users\z80\AppData\Local\Temp\ccoYycsf.s 			page 1


   1              		.syntax unified
   2              		.cpu cortex-m3
   3              		.fpu softvfp
   4              		.eabi_attribute 20, 1
   5              		.eabi_attribute 21, 1
   6              		.eabi_attribute 23, 3
   7              		.eabi_attribute 24, 1
   8              		.eabi_attribute 25, 1
   9              		.eabi_attribute 26, 1
  10              		.eabi_attribute 30, 6
  11              		.eabi_attribute 18, 4
  12              		.thumb
  13              		.file	"adc.c"
  14              		.section	.debug_abbrev,"",%progbits
  15              	.Ldebug_abbrev0:
  16              		.section	.debug_info,"",%progbits
  17              	.Ldebug_info0:
  18              		.section	.debug_line,"",%progbits
  19              	.Ldebug_line0:
  20 0000 C5030000 		.text
  20      02002702 
  20      00000201 
  20      FB0E0D00 
  20      01010101 
  21              	.Ltext0:
  22              		.cfi_sections	.debug_frame
  23              		.section	.text.adcInit,"ax",%progbits
  24              		.align	2
  25              		.p2align 4,,15
  26              		.global	adcInit
  27              		.thumb
  28              		.thumb_func
  29              		.type	adcInit, %function
  30              	adcInit:
  31              	.LFB62:
  32              		.file 1 "../chibios_2.4.x/os/hal/src/adc.c"
  33              		.loc 1 68 0
  34              		.cfi_startproc
  35              		@ args = 0, pretend = 0, frame = 0
  36              		@ frame_needed = 0, uses_anonymous_args = 0
  37 0000 08B5     		push	{r3, lr}
  38              	.LCFI0:
  39              		.cfi_def_cfa_offset 8
  40              		.loc 1 70 0
  41              		.cfi_offset 14, -4
  42              		.cfi_offset 3, -8
  43 0002 FFF7FEFF 		bl	adc_lld_init
  44              		.loc 1 71 0
  45 0006 08BD     		pop	{r3, pc}
  46              		.cfi_endproc
  47              	.LFE62:
  48              		.size	adcInit, .-adcInit
  49 0008 AFF30080 		.section	.text.adcObjectInit,"ax",%progbits
  49      AFF30080 
  50              		.align	2
  51              		.p2align 4,,15
  52              		.global	adcObjectInit
ARM GAS  C:\Users\z80\AppData\Local\Temp\ccoYycsf.s 			page 2


  53              		.thumb
  54              		.thumb_func
  55              		.type	adcObjectInit, %function
  56              	adcObjectInit:
  57              	.LFB63:
  58              		.loc 1 80 0
  59              		.cfi_startproc
  60              		@ args = 0, pretend = 0, frame = 8
  61              		@ frame_needed = 0, uses_anonymous_args = 0
  62 0000 00B5     		push	{lr}
  63              	.LCFI1:
  64              		.cfi_def_cfa_offset 4
  65 0002 83B0     		sub	sp, sp, #12
  66              	.LCFI2:
  67              		.cfi_def_cfa_offset 16
  68 0004 0190     		str	r0, [sp, #4]
  69              		.loc 1 82 0
  70 0006 019B     		ldr	r3, [sp, #4]
  71 0008 4FF00102 		mov	r2, #1
  72 000c 1A70     		strb	r2, [r3, #0]
  73              		.loc 1 83 0
  74 000e 019B     		ldr	r3, [sp, #4]
  75 0010 4FF00002 		mov	r2, #0
  76 0014 5A60     		str	r2, [r3, #4]
  77              		.loc 1 84 0
  78 0016 019B     		ldr	r3, [sp, #4]
  79 0018 4FF00002 		mov	r2, #0
  80 001c 9A60     		str	r2, [r3, #8]
  81              		.loc 1 85 0
  82 001e 019B     		ldr	r3, [sp, #4]
  83 0020 4FF00002 		mov	r2, #0
  84 0024 DA60     		str	r2, [r3, #12]
  85              		.loc 1 86 0
  86 0026 019B     		ldr	r3, [sp, #4]
  87 0028 4FF00002 		mov	r2, #0
  88 002c 1A61     		str	r2, [r3, #16]
  89              		.loc 1 88 0
  90 002e 019B     		ldr	r3, [sp, #4]
  91 0030 4FF00002 		mov	r2, #0
  92 0034 5A61     		str	r2, [r3, #20]
  93              		.loc 1 92 0
  94 0036 019B     		ldr	r3, [sp, #4]
  95 0038 03F11803 		add	r3, r3, #24
  96 003c 1846     		mov	r0, r3
  97              		.cfi_offset 14, -4
  98 003e FFF7FEFF 		bl	chMtxInit
  99              		.loc 1 100 0
 100 0042 03B0     		add	sp, sp, #12
 101 0044 00BD     		pop	{pc}
 102              		.cfi_endproc
 103              	.LFE63:
 104              		.size	adcObjectInit, .-adcObjectInit
 105 0046 00BFAFF3 		.section	.rodata
 105      0080AFF3 
 105      0080
 106              		.align	2
 107              	.LC0:
ARM GAS  C:\Users\z80\AppData\Local\Temp\ccoYycsf.s 			page 3


 108 0000 22616463 		.ascii	"\"adcStart\"()\000"
 108      53746172 
 108      74222829 
 108      00
 109 000d 000000   		.align	2
 110              	.LC1:
 111 0010 61646353 		.ascii	"adcStart(), #1\000"
 111      74617274 
 111      28292C20 
 111      233100
 112              		.section	.text.adcStart,"ax",%progbits
 113              		.align	2
 114              		.p2align 4,,15
 115              		.global	adcStart
 116              		.thumb
 117              		.thumb_func
 118              		.type	adcStart, %function
 119              	adcStart:
 120              	.LFB64:
 121              		.loc 1 111 0
 122              		.cfi_startproc
 123              		@ args = 0, pretend = 0, frame = 8
 124              		@ frame_needed = 0, uses_anonymous_args = 0
 125 0000 00B5     		push	{lr}
 126              	.LCFI3:
 127              		.cfi_def_cfa_offset 4
 128 0002 83B0     		sub	sp, sp, #12
 129              	.LCFI4:
 130              		.cfi_def_cfa_offset 16
 131 0004 0190     		str	r0, [sp, #4]
 132 0006 0091     		str	r1, [sp, #0]
 133              		.loc 1 113 0
 134 0008 019B     		ldr	r3, [sp, #4]
 135 000a 002B     		cmp	r3, #0
 136 000c 05D1     		bne	.L4
 137              		.cfi_offset 14, -4
 138              		.loc 1 113 0 is_stmt 0 discriminator 1
 139 000e 40F20000 		movw	r0, #:lower16:.LC0
 140 0012 C0F20000 		movt	r0, #:upper16:.LC0
 141 0016 FFF7FEFF 		bl	chDbgPanic
 142              	.L4:
 143              	.LBB2:
 144              		.loc 1 115 0 is_stmt 1
 145 001a 4FF02003 		mov	r3, #32
 146              	@ 115 "../chibios_2.4.x/os/hal/src/adc.c" 1
 147 001e 83F31188 		msr     BASEPRI, r3
 148              	@ 0 "" 2
 149              		.thumb
 150              	.LBE2:
 151 0022 FFF7FEFF 		bl	dbg_check_lock
 152              		.loc 1 116 0
 153 0026 019B     		ldr	r3, [sp, #4]
 154 0028 1B78     		ldrb	r3, [r3, #0]	@ zero_extendqisi2
 155 002a 012B     		cmp	r3, #1
 156 002c 09D0     		beq	.L5
 157              		.loc 1 116 0 is_stmt 0 discriminator 1
 158 002e 019B     		ldr	r3, [sp, #4]
ARM GAS  C:\Users\z80\AppData\Local\Temp\ccoYycsf.s 			page 4


 159 0030 1B78     		ldrb	r3, [r3, #0]	@ zero_extendqisi2
 160 0032 022B     		cmp	r3, #2
 161 0034 05D0     		beq	.L5
 162              		.loc 1 116 0 discriminator 2
 163 0036 40F20000 		movw	r0, #:lower16:.LC1
 164 003a C0F20000 		movt	r0, #:upper16:.LC1
 165 003e FFF7FEFF 		bl	chDbgPanic
 166              	.L5:
 167              		.loc 1 118 0 is_stmt 1
 168 0042 019B     		ldr	r3, [sp, #4]
 169 0044 009A     		ldr	r2, [sp, #0]
 170 0046 5A60     		str	r2, [r3, #4]
 171              		.loc 1 119 0
 172 0048 0198     		ldr	r0, [sp, #4]
 173 004a FFF7FEFF 		bl	adc_lld_start
 174              		.loc 1 120 0
 175 004e 019B     		ldr	r3, [sp, #4]
 176 0050 4FF00202 		mov	r2, #2
 177 0054 1A70     		strb	r2, [r3, #0]
 178              		.loc 1 121 0
 179 0056 FFF7FEFF 		bl	dbg_check_unlock
 180              	.LBB3:
 181 005a 4FF00003 		mov	r3, #0
 182              	@ 121 "../chibios_2.4.x/os/hal/src/adc.c" 1
 183 005e 83F31188 		msr     BASEPRI, r3
 184              	@ 0 "" 2
 185              		.thumb
 186              	.LBE3:
 187              		.loc 1 122 0
 188 0062 03B0     		add	sp, sp, #12
 189 0064 00BD     		pop	{pc}
 190              		.cfi_endproc
 191              	.LFE64:
 192              		.size	adcStart, .-adcStart
 193 0066 00BFAFF3 		.section	.rodata
 193      0080AFF3 
 193      0080
 194 001f 00       		.align	2
 195              	.LC2:
 196 0020 22616463 		.ascii	"\"adcStop\"()\000"
 196      53746F70 
 196      22282900 
 197              		.align	2
 198              	.LC3:
 199 002c 61646353 		.ascii	"adcStop(), #1\000"
 199      746F7028 
 199      292C2023 
 199      3100
 200              		.section	.text.adcStop,"ax",%progbits
 201              		.align	2
 202              		.p2align 4,,15
 203              		.global	adcStop
 204              		.thumb
 205              		.thumb_func
 206              		.type	adcStop, %function
 207              	adcStop:
 208              	.LFB65:
ARM GAS  C:\Users\z80\AppData\Local\Temp\ccoYycsf.s 			page 5


 209              		.loc 1 131 0
 210              		.cfi_startproc
 211              		@ args = 0, pretend = 0, frame = 8
 212              		@ frame_needed = 0, uses_anonymous_args = 0
 213 0000 00B5     		push	{lr}
 214              	.LCFI5:
 215              		.cfi_def_cfa_offset 4
 216 0002 83B0     		sub	sp, sp, #12
 217              	.LCFI6:
 218              		.cfi_def_cfa_offset 16
 219 0004 0190     		str	r0, [sp, #4]
 220              		.loc 1 133 0
 221 0006 019B     		ldr	r3, [sp, #4]
 222 0008 002B     		cmp	r3, #0
 223 000a 05D1     		bne	.L7
 224              		.cfi_offset 14, -4
 225              		.loc 1 133 0 is_stmt 0 discriminator 1
 226 000c 40F20000 		movw	r0, #:lower16:.LC2
 227 0010 C0F20000 		movt	r0, #:upper16:.LC2
 228 0014 FFF7FEFF 		bl	chDbgPanic
 229              	.L7:
 230              	.LBB4:
 231              		.loc 1 135 0 is_stmt 1
 232 0018 4FF02003 		mov	r3, #32
 233              	@ 135 "../chibios_2.4.x/os/hal/src/adc.c" 1
 234 001c 83F31188 		msr     BASEPRI, r3
 235              	@ 0 "" 2
 236              		.thumb
 237              	.LBE4:
 238 0020 FFF7FEFF 		bl	dbg_check_lock
 239              		.loc 1 136 0
 240 0024 019B     		ldr	r3, [sp, #4]
 241 0026 1B78     		ldrb	r3, [r3, #0]	@ zero_extendqisi2
 242 0028 012B     		cmp	r3, #1
 243 002a 09D0     		beq	.L8
 244              		.loc 1 136 0 is_stmt 0 discriminator 1
 245 002c 019B     		ldr	r3, [sp, #4]
 246 002e 1B78     		ldrb	r3, [r3, #0]	@ zero_extendqisi2
 247 0030 022B     		cmp	r3, #2
 248 0032 05D0     		beq	.L8
 249              		.loc 1 136 0 discriminator 2
 250 0034 40F20000 		movw	r0, #:lower16:.LC3
 251 0038 C0F20000 		movt	r0, #:upper16:.LC3
 252 003c FFF7FEFF 		bl	chDbgPanic
 253              	.L8:
 254              		.loc 1 138 0 is_stmt 1
 255 0040 0198     		ldr	r0, [sp, #4]
 256 0042 FFF7FEFF 		bl	adc_lld_stop
 257              		.loc 1 139 0
 258 0046 019B     		ldr	r3, [sp, #4]
 259 0048 4FF00102 		mov	r2, #1
 260 004c 1A70     		strb	r2, [r3, #0]
 261              		.loc 1 140 0
 262 004e FFF7FEFF 		bl	dbg_check_unlock
 263              	.LBB5:
 264 0052 4FF00003 		mov	r3, #0
 265              	@ 140 "../chibios_2.4.x/os/hal/src/adc.c" 1
ARM GAS  C:\Users\z80\AppData\Local\Temp\ccoYycsf.s 			page 6


 266 0056 83F31188 		msr     BASEPRI, r3
 267              	@ 0 "" 2
 268              		.thumb
 269              	.LBE5:
 270              		.loc 1 141 0
 271 005a 03B0     		add	sp, sp, #12
 272 005c 00BD     		pop	{pc}
 273              		.cfi_endproc
 274              	.LFE65:
 275              		.size	adcStop, .-adcStop
 276 005e 00BF     		.section	.text.adcStartConversion,"ax",%progbits
 277              		.align	2
 278              		.p2align 4,,15
 279              		.global	adcStartConversion
 280              		.thumb
 281              		.thumb_func
 282              		.type	adcStartConversion, %function
 283              	adcStartConversion:
 284              	.LFB66:
 285              		.loc 1 162 0
 286              		.cfi_startproc
 287              		@ args = 0, pretend = 0, frame = 16
 288              		@ frame_needed = 0, uses_anonymous_args = 0
 289 0000 00B5     		push	{lr}
 290              	.LCFI7:
 291              		.cfi_def_cfa_offset 4
 292 0002 85B0     		sub	sp, sp, #20
 293              	.LCFI8:
 294              		.cfi_def_cfa_offset 24
 295 0004 0390     		str	r0, [sp, #12]
 296 0006 0291     		str	r1, [sp, #8]
 297 0008 0192     		str	r2, [sp, #4]
 298 000a 0093     		str	r3, [sp, #0]
 299              	.LBB6:
 300              		.loc 1 164 0
 301 000c 4FF02003 		mov	r3, #32
 302              	@ 164 "../chibios_2.4.x/os/hal/src/adc.c" 1
 303 0010 83F31188 		msr     BASEPRI, r3
 304              	@ 0 "" 2
 305              		.thumb
 306              	.LBE6:
 307              		.cfi_offset 14, -4
 308 0014 FFF7FEFF 		bl	dbg_check_lock
 309              		.loc 1 165 0
 310 0018 0398     		ldr	r0, [sp, #12]
 311 001a 0299     		ldr	r1, [sp, #8]
 312 001c 019A     		ldr	r2, [sp, #4]
 313 001e 009B     		ldr	r3, [sp, #0]
 314 0020 FFF7FEFF 		bl	adcStartConversionI
 315              		.loc 1 166 0
 316 0024 FFF7FEFF 		bl	dbg_check_unlock
 317              	.LBB7:
 318 0028 4FF00003 		mov	r3, #0
 319              	@ 166 "../chibios_2.4.x/os/hal/src/adc.c" 1
 320 002c 83F31188 		msr     BASEPRI, r3
 321              	@ 0 "" 2
 322              		.thumb
ARM GAS  C:\Users\z80\AppData\Local\Temp\ccoYycsf.s 			page 7


 323              	.LBE7:
 324              		.loc 1 167 0
 325 0030 05B0     		add	sp, sp, #20
 326 0032 00BD     		pop	{pc}
 327              		.cfi_endproc
 328              	.LFE66:
 329              		.size	adcStartConversion, .-adcStartConversion
 330 0034 AFF30080 		.section	.rodata
 330      AFF30080 
 330      AFF30080 
 331 003a 0000     		.align	2
 332              	.LC4:
 333 003c 22616463 		.ascii	"\"adcStartConversionI\"()\000"
 333      53746172 
 333      74436F6E 
 333      76657273 
 333      696F6E49 
 334              		.align	2
 335              	.LC5:
 336 0054 61646353 		.ascii	"adcStartConversionI(), #1\000"
 336      74617274 
 336      436F6E76 
 336      65727369 
 336      6F6E4928 
 337              		.section	.text.adcStartConversionI,"ax",%progbits
 338              		.align	2
 339              		.p2align 4,,15
 340              		.global	adcStartConversionI
 341              		.thumb
 342              		.thumb_func
 343              		.type	adcStartConversionI, %function
 344              	adcStartConversionI:
 345              	.LFB67:
 346              		.loc 1 190 0
 347              		.cfi_startproc
 348              		@ args = 0, pretend = 0, frame = 16
 349              		@ frame_needed = 0, uses_anonymous_args = 0
 350 0000 00B5     		push	{lr}
 351              	.LCFI9:
 352              		.cfi_def_cfa_offset 4
 353 0002 85B0     		sub	sp, sp, #20
 354              	.LCFI10:
 355              		.cfi_def_cfa_offset 24
 356 0004 0390     		str	r0, [sp, #12]
 357 0006 0291     		str	r1, [sp, #8]
 358 0008 0192     		str	r2, [sp, #4]
 359 000a 0093     		str	r3, [sp, #0]
 360              		.loc 1 192 0
 361              		.cfi_offset 14, -4
 362 000c FFF7FEFF 		bl	chDbgCheckClassI
 363              		.loc 1 193 0
 364 0010 039B     		ldr	r3, [sp, #12]
 365 0012 002B     		cmp	r3, #0
 366 0014 0ED0     		beq	.L11
 367              		.loc 1 193 0 is_stmt 0 discriminator 2
 368 0016 029B     		ldr	r3, [sp, #8]
 369 0018 002B     		cmp	r3, #0
ARM GAS  C:\Users\z80\AppData\Local\Temp\ccoYycsf.s 			page 8


 370 001a 0BD0     		beq	.L11
 371              		.loc 1 193 0 discriminator 3
 372 001c 019B     		ldr	r3, [sp, #4]
 373 001e 002B     		cmp	r3, #0
 374 0020 08D0     		beq	.L11
 375              		.loc 1 193 0 discriminator 4
 376 0022 009B     		ldr	r3, [sp, #0]
 377 0024 012B     		cmp	r3, #1
 378 0026 0BD0     		beq	.L12
 379              		.loc 1 193 0 discriminator 5
 380 0028 009B     		ldr	r3, [sp, #0]
 381 002a 03F00103 		and	r3, r3, #1
 382 002e DBB2     		uxtb	r3, r3
 383 0030 002B     		cmp	r3, #0
 384 0032 05D0     		beq	.L12
 385              	.L11:
 386              		.loc 1 193 0 discriminator 1
 387 0034 40F20000 		movw	r0, #:lower16:.LC4
 388 0038 C0F20000 		movt	r0, #:upper16:.LC4
 389 003c FFF7FEFF 		bl	chDbgPanic
 390              	.L12:
 391              		.loc 1 196 0 is_stmt 1
 392 0040 039B     		ldr	r3, [sp, #12]
 393 0042 1B78     		ldrb	r3, [r3, #0]	@ zero_extendqisi2
 394 0044 022B     		cmp	r3, #2
 395 0046 0DD0     		beq	.L13
 396              		.loc 1 196 0 is_stmt 0 discriminator 1
 397 0048 039B     		ldr	r3, [sp, #12]
 398 004a 1B78     		ldrb	r3, [r3, #0]	@ zero_extendqisi2
 399 004c 042B     		cmp	r3, #4
 400 004e 09D0     		beq	.L13
 401              		.loc 1 196 0 discriminator 2
 402 0050 039B     		ldr	r3, [sp, #12]
 403 0052 1B78     		ldrb	r3, [r3, #0]	@ zero_extendqisi2
 404 0054 052B     		cmp	r3, #5
 405 0056 05D0     		beq	.L13
 406              		.loc 1 196 0 discriminator 3
 407 0058 40F20000 		movw	r0, #:lower16:.LC5
 408 005c C0F20000 		movt	r0, #:upper16:.LC5
 409 0060 FFF7FEFF 		bl	chDbgPanic
 410              	.L13:
 411              		.loc 1 201 0 is_stmt 1
 412 0064 039B     		ldr	r3, [sp, #12]
 413 0066 019A     		ldr	r2, [sp, #4]
 414 0068 9A60     		str	r2, [r3, #8]
 415              		.loc 1 202 0
 416 006a 039B     		ldr	r3, [sp, #12]
 417 006c 009A     		ldr	r2, [sp, #0]
 418 006e DA60     		str	r2, [r3, #12]
 419              		.loc 1 203 0
 420 0070 039B     		ldr	r3, [sp, #12]
 421 0072 029A     		ldr	r2, [sp, #8]
 422 0074 1A61     		str	r2, [r3, #16]
 423              		.loc 1 204 0
 424 0076 039B     		ldr	r3, [sp, #12]
 425 0078 4FF00302 		mov	r2, #3
 426 007c 1A70     		strb	r2, [r3, #0]
ARM GAS  C:\Users\z80\AppData\Local\Temp\ccoYycsf.s 			page 9


 427              		.loc 1 205 0
 428 007e 0398     		ldr	r0, [sp, #12]
 429 0080 FFF7FEFF 		bl	adc_lld_start_conversion
 430              		.loc 1 206 0
 431 0084 05B0     		add	sp, sp, #20
 432 0086 00BD     		pop	{pc}
 433              		.cfi_endproc
 434              	.LFE67:
 435              		.size	adcStartConversionI, .-adcStartConversionI
 436 0088 AFF30080 		.section	.rodata
 436      AFF30080 
 437 006e 0000     		.align	2
 438              	.LC6:
 439 0070 22616463 		.ascii	"\"adcStopConversion\"()\000"
 439      53746F70 
 439      436F6E76 
 439      65727369 
 439      6F6E2228 
 440 0086 0000     		.align	2
 441              	.LC7:
 442 0088 61646353 		.ascii	"adcStopConversion(), #1\000"
 442      746F7043 
 442      6F6E7665 
 442      7273696F 
 442      6E28292C 
 443              		.section	.text.adcStopConversion,"ax",%progbits
 444              		.align	2
 445              		.p2align 4,,15
 446              		.global	adcStopConversion
 447              		.thumb
 448              		.thumb_func
 449              		.type	adcStopConversion, %function
 450              	adcStopConversion:
 451              	.LFB68:
 452              		.loc 1 218 0
 453              		.cfi_startproc
 454              		@ args = 0, pretend = 0, frame = 16
 455              		@ frame_needed = 0, uses_anonymous_args = 0
 456 0000 00B5     		push	{lr}
 457              	.LCFI11:
 458              		.cfi_def_cfa_offset 4
 459 0002 85B0     		sub	sp, sp, #20
 460              	.LCFI12:
 461              		.cfi_def_cfa_offset 24
 462 0004 0190     		str	r0, [sp, #4]
 463              		.loc 1 220 0
 464 0006 019B     		ldr	r3, [sp, #4]
 465 0008 002B     		cmp	r3, #0
 466 000a 05D1     		bne	.L15
 467              		.cfi_offset 14, -4
 468              		.loc 1 220 0 is_stmt 0 discriminator 1
 469 000c 40F20000 		movw	r0, #:lower16:.LC6
 470 0010 C0F20000 		movt	r0, #:upper16:.LC6
 471 0014 FFF7FEFF 		bl	chDbgPanic
 472              	.L15:
 473              	.LBB8:
 474              		.loc 1 222 0 is_stmt 1
ARM GAS  C:\Users\z80\AppData\Local\Temp\ccoYycsf.s 			page 10


 475 0018 4FF02003 		mov	r3, #32
 476              	@ 222 "../chibios_2.4.x/os/hal/src/adc.c" 1
 477 001c 83F31188 		msr     BASEPRI, r3
 478              	@ 0 "" 2
 479              		.thumb
 480              	.LBE8:
 481 0020 FFF7FEFF 		bl	dbg_check_lock
 482              		.loc 1 223 0
 483 0024 019B     		ldr	r3, [sp, #4]
 484 0026 1B78     		ldrb	r3, [r3, #0]	@ zero_extendqisi2
 485 0028 022B     		cmp	r3, #2
 486 002a 09D0     		beq	.L16
 487              		.loc 1 223 0 is_stmt 0 discriminator 1
 488 002c 019B     		ldr	r3, [sp, #4]
 489 002e 1B78     		ldrb	r3, [r3, #0]	@ zero_extendqisi2
 490 0030 032B     		cmp	r3, #3
 491 0032 05D0     		beq	.L16
 492              		.loc 1 223 0 discriminator 2
 493 0034 40F20000 		movw	r0, #:lower16:.LC7
 494 0038 C0F20000 		movt	r0, #:upper16:.LC7
 495 003c FFF7FEFF 		bl	chDbgPanic
 496              	.L16:
 497              		.loc 1 226 0 is_stmt 1
 498 0040 019B     		ldr	r3, [sp, #4]
 499 0042 1B78     		ldrb	r3, [r3, #0]	@ zero_extendqisi2
 500 0044 022B     		cmp	r3, #2
 501 0046 1AD0     		beq	.L17
 502              		.loc 1 227 0
 503 0048 0198     		ldr	r0, [sp, #4]
 504 004a FFF7FEFF 		bl	adc_lld_stop_conversion
 505              		.loc 1 228 0
 506 004e 019B     		ldr	r3, [sp, #4]
 507 0050 4FF00002 		mov	r2, #0
 508 0054 1A61     		str	r2, [r3, #16]
 509              		.loc 1 229 0
 510 0056 019B     		ldr	r3, [sp, #4]
 511 0058 4FF00202 		mov	r2, #2
 512 005c 1A70     		strb	r2, [r3, #0]
 513              		.loc 1 230 0
 514 005e 019B     		ldr	r3, [sp, #4]
 515 0060 5B69     		ldr	r3, [r3, #20]
 516 0062 002B     		cmp	r3, #0
 517 0064 0BD0     		beq	.L17
 518              	.LBB9:
 519              		.loc 1 230 0 is_stmt 0 discriminator 1
 520 0066 019B     		ldr	r3, [sp, #4]
 521 0068 5B69     		ldr	r3, [r3, #20]
 522 006a 0393     		str	r3, [sp, #12]
 523 006c 019B     		ldr	r3, [sp, #4]
 524 006e 4FF00002 		mov	r2, #0
 525 0072 5A61     		str	r2, [r3, #20]
 526 0074 0398     		ldr	r0, [sp, #12]
 527 0076 6FF00101 		mvn	r1, #1
 528 007a FFF7FEFF 		bl	chSchWakeupS
 529              	.L17:
 530              	.LBE9:
 531              		.loc 1 232 0 is_stmt 1
ARM GAS  C:\Users\z80\AppData\Local\Temp\ccoYycsf.s 			page 11


 532 007e FFF7FEFF 		bl	dbg_check_unlock
 533              	.LBB10:
 534 0082 4FF00003 		mov	r3, #0
 535              	@ 232 "../chibios_2.4.x/os/hal/src/adc.c" 1
 536 0086 83F31188 		msr     BASEPRI, r3
 537              	@ 0 "" 2
 538              		.thumb
 539              	.LBE10:
 540              		.loc 1 233 0
 541 008a 05B0     		add	sp, sp, #20
 542 008c 00BD     		pop	{pc}
 543              		.cfi_endproc
 544              	.LFE68:
 545              		.size	adcStopConversion, .-adcStopConversion
 546 008e 00BF     		.section	.rodata
 547              		.align	2
 548              	.LC8:
 549 00a0 22616463 		.ascii	"\"adcStopConversionI\"()\000"
 549      53746F70 
 549      436F6E76 
 549      65727369 
 549      6F6E4922 
 550 00b7 00       		.align	2
 551              	.LC9:
 552 00b8 61646353 		.ascii	"adcStopConversionI(), #1\000"
 552      746F7043 
 552      6F6E7665 
 552      7273696F 
 552      6E492829 
 553              		.section	.text.adcStopConversionI,"ax",%progbits
 554              		.align	2
 555              		.p2align 4,,15
 556              		.global	adcStopConversionI
 557              		.thumb
 558              		.thumb_func
 559              		.type	adcStopConversionI, %function
 560              	adcStopConversionI:
 561              	.LFB69:
 562              		.loc 1 245 0
 563              		.cfi_startproc
 564              		@ args = 0, pretend = 0, frame = 16
 565              		@ frame_needed = 0, uses_anonymous_args = 0
 566 0000 00B5     		push	{lr}
 567              	.LCFI13:
 568              		.cfi_def_cfa_offset 4
 569 0002 85B0     		sub	sp, sp, #20
 570              	.LCFI14:
 571              		.cfi_def_cfa_offset 24
 572 0004 0190     		str	r0, [sp, #4]
 573              		.loc 1 247 0
 574              		.cfi_offset 14, -4
 575 0006 FFF7FEFF 		bl	chDbgCheckClassI
 576              		.loc 1 248 0
 577 000a 019B     		ldr	r3, [sp, #4]
 578 000c 002B     		cmp	r3, #0
 579 000e 05D1     		bne	.L19
 580              		.loc 1 248 0 is_stmt 0 discriminator 1
ARM GAS  C:\Users\z80\AppData\Local\Temp\ccoYycsf.s 			page 12


 581 0010 40F20000 		movw	r0, #:lower16:.LC8
 582 0014 C0F20000 		movt	r0, #:upper16:.LC8
 583 0018 FFF7FEFF 		bl	chDbgPanic
 584              	.L19:
 585              		.loc 1 249 0 is_stmt 1
 586 001c 019B     		ldr	r3, [sp, #4]
 587 001e 1B78     		ldrb	r3, [r3, #0]	@ zero_extendqisi2
 588 0020 022B     		cmp	r3, #2
 589 0022 0DD0     		beq	.L20
 590              		.loc 1 249 0 is_stmt 0 discriminator 1
 591 0024 019B     		ldr	r3, [sp, #4]
 592 0026 1B78     		ldrb	r3, [r3, #0]	@ zero_extendqisi2
 593 0028 032B     		cmp	r3, #3
 594 002a 09D0     		beq	.L20
 595              		.loc 1 249 0 discriminator 2
 596 002c 019B     		ldr	r3, [sp, #4]
 597 002e 1B78     		ldrb	r3, [r3, #0]	@ zero_extendqisi2
 598 0030 042B     		cmp	r3, #4
 599 0032 05D0     		beq	.L20
 600              		.loc 1 249 0 discriminator 3
 601 0034 40F20000 		movw	r0, #:lower16:.LC9
 602 0038 C0F20000 		movt	r0, #:upper16:.LC9
 603 003c FFF7FEFF 		bl	chDbgPanic
 604              	.L20:
 605              		.loc 1 254 0 is_stmt 1
 606 0040 019B     		ldr	r3, [sp, #4]
 607 0042 1B78     		ldrb	r3, [r3, #0]	@ zero_extendqisi2
 608 0044 022B     		cmp	r3, #2
 609 0046 1CD0     		beq	.L18
 610              		.loc 1 255 0
 611 0048 0198     		ldr	r0, [sp, #4]
 612 004a FFF7FEFF 		bl	adc_lld_stop_conversion
 613              		.loc 1 256 0
 614 004e 019B     		ldr	r3, [sp, #4]
 615 0050 4FF00002 		mov	r2, #0
 616 0054 1A61     		str	r2, [r3, #16]
 617              		.loc 1 257 0
 618 0056 019B     		ldr	r3, [sp, #4]
 619 0058 4FF00202 		mov	r2, #2
 620 005c 1A70     		strb	r2, [r3, #0]
 621              		.loc 1 258 0
 622 005e 019B     		ldr	r3, [sp, #4]
 623 0060 5B69     		ldr	r3, [r3, #20]
 624 0062 002B     		cmp	r3, #0
 625 0064 0DD0     		beq	.L18
 626              	.LBB11:
 627              		.loc 1 258 0 is_stmt 0 discriminator 1
 628 0066 019B     		ldr	r3, [sp, #4]
 629 0068 5B69     		ldr	r3, [r3, #20]
 630 006a 0393     		str	r3, [sp, #12]
 631 006c 019B     		ldr	r3, [sp, #4]
 632 006e 4FF00002 		mov	r2, #0
 633 0072 5A61     		str	r2, [r3, #20]
 634 0074 039B     		ldr	r3, [sp, #12]
 635 0076 6FF00102 		mvn	r2, #1
 636 007a 9A62     		str	r2, [r3, #40]
 637 007c 0398     		ldr	r0, [sp, #12]
ARM GAS  C:\Users\z80\AppData\Local\Temp\ccoYycsf.s 			page 13


 638 007e FFF7FEFF 		bl	chSchReadyI
 639              	.L18:
 640              	.LBE11:
 641              		.loc 1 260 0 is_stmt 1
 642 0082 05B0     		add	sp, sp, #20
 643 0084 00BD     		pop	{pc}
 644              		.cfi_endproc
 645              	.LFE69:
 646              		.size	adcStopConversionI, .-adcStopConversionI
 647 0086 00BFAFF3 		.section	.rodata
 647      0080AFF3 
 647      0080
 648 00d1 000000   		.align	2
 649              	.LC10:
 650 00d4 61646343 		.ascii	"adcConvert(), #1\000"
 650      6F6E7665 
 650      72742829 
 650      2C202331 
 650      00
 651              		.section	.text.adcConvert,"ax",%progbits
 652              		.align	2
 653              		.p2align 4,,15
 654              		.global	adcConvert
 655              		.thumb
 656              		.thumb_func
 657              		.type	adcConvert, %function
 658              	adcConvert:
 659              	.LFB70:
 660              		.loc 1 289 0
 661              		.cfi_startproc
 662              		@ args = 0, pretend = 0, frame = 24
 663              		@ frame_needed = 0, uses_anonymous_args = 0
 664 0000 00B5     		push	{lr}
 665              	.LCFI15:
 666              		.cfi_def_cfa_offset 4
 667 0002 87B0     		sub	sp, sp, #28
 668              	.LCFI16:
 669              		.cfi_def_cfa_offset 32
 670 0004 0390     		str	r0, [sp, #12]
 671 0006 0291     		str	r1, [sp, #8]
 672 0008 0192     		str	r2, [sp, #4]
 673 000a 0093     		str	r3, [sp, #0]
 674              	.LBB12:
 675              		.loc 1 292 0
 676 000c 4FF02003 		mov	r3, #32
 677              	@ 292 "../chibios_2.4.x/os/hal/src/adc.c" 1
 678 0010 83F31188 		msr     BASEPRI, r3
 679              	@ 0 "" 2
 680              		.thumb
 681              	.LBE12:
 682              		.cfi_offset 14, -4
 683 0014 FFF7FEFF 		bl	dbg_check_lock
 684              		.loc 1 293 0
 685 0018 039B     		ldr	r3, [sp, #12]
 686 001a 5B69     		ldr	r3, [r3, #20]
 687 001c 002B     		cmp	r3, #0
 688 001e 05D0     		beq	.L23
ARM GAS  C:\Users\z80\AppData\Local\Temp\ccoYycsf.s 			page 14


 689              		.loc 1 293 0 is_stmt 0 discriminator 1
 690 0020 40F20000 		movw	r0, #:lower16:.LC10
 691 0024 C0F20000 		movt	r0, #:upper16:.LC10
 692 0028 FFF7FEFF 		bl	chDbgPanic
 693              	.L23:
 694              		.loc 1 294 0 is_stmt 1
 695 002c 0398     		ldr	r0, [sp, #12]
 696 002e 0299     		ldr	r1, [sp, #8]
 697 0030 019A     		ldr	r2, [sp, #4]
 698 0032 009B     		ldr	r3, [sp, #0]
 699 0034 FFF7FEFF 		bl	adcStartConversionI
 700              		.loc 1 295 0
 701 0038 40F20003 		movw	r3, #:lower16:rlist
 702 003c C0F20003 		movt	r3, #:upper16:rlist
 703 0040 DA69     		ldr	r2, [r3, #28]
 704 0042 039B     		ldr	r3, [sp, #12]
 705 0044 5A61     		str	r2, [r3, #20]
 706              		.loc 1 296 0
 707 0046 4FF00200 		mov	r0, #2
 708 004a FFF7FEFF 		bl	chSchGoSleepS
 709              		.loc 1 297 0
 710 004e 40F20003 		movw	r3, #:lower16:rlist
 711 0052 C0F20003 		movt	r3, #:upper16:rlist
 712 0056 DB69     		ldr	r3, [r3, #28]
 713 0058 9B6A     		ldr	r3, [r3, #40]
 714 005a 0593     		str	r3, [sp, #20]
 715              		.loc 1 298 0
 716 005c FFF7FEFF 		bl	dbg_check_unlock
 717              	.LBB13:
 718 0060 4FF00003 		mov	r3, #0
 719              	@ 298 "../chibios_2.4.x/os/hal/src/adc.c" 1
 720 0064 83F31188 		msr     BASEPRI, r3
 721              	@ 0 "" 2
 722              		.thumb
 723              	.LBE13:
 724              		.loc 1 299 0
 725 0068 059B     		ldr	r3, [sp, #20]
 726              		.loc 1 300 0
 727 006a 1846     		mov	r0, r3
 728 006c 07B0     		add	sp, sp, #28
 729 006e 00BD     		pop	{pc}
 730              		.cfi_endproc
 731              	.LFE70:
 732              		.size	adcConvert, .-adcConvert
 733              		.section	.rodata
 734 00e5 000000   		.align	2
 735              	.LC11:
 736 00e8 22616463 		.ascii	"\"adcAcquireBus\"()\000"
 736      41637175 
 736      69726542 
 736      75732228 
 736      2900
 737              		.section	.text.adcAcquireBus,"ax",%progbits
 738              		.align	2
 739              		.p2align 4,,15
 740              		.global	adcAcquireBus
 741              		.thumb
ARM GAS  C:\Users\z80\AppData\Local\Temp\ccoYycsf.s 			page 15


 742              		.thumb_func
 743              		.type	adcAcquireBus, %function
 744              	adcAcquireBus:
 745              	.LFB71:
 746              		.loc 1 315 0
 747              		.cfi_startproc
 748              		@ args = 0, pretend = 0, frame = 8
 749              		@ frame_needed = 0, uses_anonymous_args = 0
 750 0000 00B5     		push	{lr}
 751              	.LCFI17:
 752              		.cfi_def_cfa_offset 4
 753 0002 83B0     		sub	sp, sp, #12
 754              	.LCFI18:
 755              		.cfi_def_cfa_offset 16
 756 0004 0190     		str	r0, [sp, #4]
 757              		.loc 1 317 0
 758 0006 019B     		ldr	r3, [sp, #4]
 759 0008 002B     		cmp	r3, #0
 760 000a 05D1     		bne	.L25
 761              		.cfi_offset 14, -4
 762              		.loc 1 317 0 is_stmt 0 discriminator 1
 763 000c 40F20000 		movw	r0, #:lower16:.LC11
 764 0010 C0F20000 		movt	r0, #:upper16:.LC11
 765 0014 FFF7FEFF 		bl	chDbgPanic
 766              	.L25:
 767              		.loc 1 320 0 is_stmt 1
 768 0018 019B     		ldr	r3, [sp, #4]
 769 001a 03F11803 		add	r3, r3, #24
 770 001e 1846     		mov	r0, r3
 771 0020 FFF7FEFF 		bl	chMtxLock
 772              		.loc 1 324 0
 773 0024 03B0     		add	sp, sp, #12
 774 0026 00BD     		pop	{pc}
 775              		.cfi_endproc
 776              	.LFE71:
 777              		.size	adcAcquireBus, .-adcAcquireBus
 778 0028 AFF30080 		.section	.rodata
 778      AFF30080 
 779 00fa 0000     		.align	2
 780              	.LC12:
 781 00fc 22616463 		.ascii	"\"adcReleaseBus\"()\000"
 781      52656C65 
 781      61736542 
 781      75732228 
 781      2900
 782 010e 0000     		.section	.text.adcReleaseBus,"ax",%progbits
 783              		.align	2
 784              		.p2align 4,,15
 785              		.global	adcReleaseBus
 786              		.thumb
 787              		.thumb_func
 788              		.type	adcReleaseBus, %function
 789              	adcReleaseBus:
 790              	.LFB72:
 791              		.loc 1 335 0
 792              		.cfi_startproc
 793              		@ args = 0, pretend = 0, frame = 8
ARM GAS  C:\Users\z80\AppData\Local\Temp\ccoYycsf.s 			page 16


 794              		@ frame_needed = 0, uses_anonymous_args = 0
 795 0000 00B5     		push	{lr}
 796              	.LCFI19:
 797              		.cfi_def_cfa_offset 4
 798 0002 83B0     		sub	sp, sp, #12
 799              	.LCFI20:
 800              		.cfi_def_cfa_offset 16
 801 0004 0190     		str	r0, [sp, #4]
 802              		.loc 1 337 0
 803 0006 019B     		ldr	r3, [sp, #4]
 804 0008 002B     		cmp	r3, #0
 805 000a 05D1     		bne	.L27
 806              		.cfi_offset 14, -4
 807              		.loc 1 337 0 is_stmt 0 discriminator 1
 808 000c 40F20000 		movw	r0, #:lower16:.LC12
 809 0010 C0F20000 		movt	r0, #:upper16:.LC12
 810 0014 FFF7FEFF 		bl	chDbgPanic
 811              	.L27:
 812              		.loc 1 341 0 is_stmt 1
 813 0018 FFF7FEFF 		bl	chMtxUnlock
 814              		.loc 1 345 0
 815 001c 03B0     		add	sp, sp, #12
 816 001e 00BD     		pop	{pc}
 817              		.cfi_endproc
 818              	.LFE72:
 819              		.size	adcReleaseBus, .-adcReleaseBus
 820              		.text
 821              	.Letext0:
 822              		.section	.debug_loc,"",%progbits
 823              	.Ldebug_loc0:
 824              	.LLST0:
 825 0000 00000000 		.4byte	.LFB62
 826 0004 02000000 		.4byte	.LCFI0
 827 0008 0200     		.2byte	0x2
 828 000a 7D       		.byte	0x7d
 829 000b 00       		.sleb128 0
 830 000c 02000000 		.4byte	.LCFI0
 831 0010 08000000 		.4byte	.LFE62
 832 0014 0200     		.2byte	0x2
 833 0016 7D       		.byte	0x7d
 834 0017 08       		.sleb128 8
 835 0018 00000000 		.4byte	0x0
 836 001c 00000000 		.4byte	0x0
 837              	.LLST1:
 838 0020 00000000 		.4byte	.LFB63
 839 0024 02000000 		.4byte	.LCFI1
 840 0028 0200     		.2byte	0x2
 841 002a 7D       		.byte	0x7d
 842 002b 00       		.sleb128 0
 843 002c 02000000 		.4byte	.LCFI1
 844 0030 04000000 		.4byte	.LCFI2
 845 0034 0200     		.2byte	0x2
 846 0036 7D       		.byte	0x7d
 847 0037 04       		.sleb128 4
 848 0038 04000000 		.4byte	.LCFI2
 849 003c 46000000 		.4byte	.LFE63
 850 0040 0200     		.2byte	0x2
ARM GAS  C:\Users\z80\AppData\Local\Temp\ccoYycsf.s 			page 17


 851 0042 7D       		.byte	0x7d
 852 0043 10       		.sleb128 16
 853 0044 00000000 		.4byte	0x0
 854 0048 00000000 		.4byte	0x0
 855              	.LLST2:
 856 004c 00000000 		.4byte	.LFB64
 857 0050 02000000 		.4byte	.LCFI3
 858 0054 0200     		.2byte	0x2
 859 0056 7D       		.byte	0x7d
 860 0057 00       		.sleb128 0
 861 0058 02000000 		.4byte	.LCFI3
 862 005c 04000000 		.4byte	.LCFI4
 863 0060 0200     		.2byte	0x2
 864 0062 7D       		.byte	0x7d
 865 0063 04       		.sleb128 4
 866 0064 04000000 		.4byte	.LCFI4
 867 0068 66000000 		.4byte	.LFE64
 868 006c 0200     		.2byte	0x2
 869 006e 7D       		.byte	0x7d
 870 006f 10       		.sleb128 16
 871 0070 00000000 		.4byte	0x0
 872 0074 00000000 		.4byte	0x0
 873              	.LLST3:
 874 0078 00000000 		.4byte	.LFB65
 875 007c 02000000 		.4byte	.LCFI5
 876 0080 0200     		.2byte	0x2
 877 0082 7D       		.byte	0x7d
 878 0083 00       		.sleb128 0
 879 0084 02000000 		.4byte	.LCFI5
 880 0088 04000000 		.4byte	.LCFI6
 881 008c 0200     		.2byte	0x2
 882 008e 7D       		.byte	0x7d
 883 008f 04       		.sleb128 4
 884 0090 04000000 		.4byte	.LCFI6
 885 0094 5E000000 		.4byte	.LFE65
 886 0098 0200     		.2byte	0x2
 887 009a 7D       		.byte	0x7d
 888 009b 10       		.sleb128 16
 889 009c 00000000 		.4byte	0x0
 890 00a0 00000000 		.4byte	0x0
 891              	.LLST4:
 892 00a4 00000000 		.4byte	.LFB66
 893 00a8 02000000 		.4byte	.LCFI7
 894 00ac 0200     		.2byte	0x2
 895 00ae 7D       		.byte	0x7d
 896 00af 00       		.sleb128 0
 897 00b0 02000000 		.4byte	.LCFI7
 898 00b4 04000000 		.4byte	.LCFI8
 899 00b8 0200     		.2byte	0x2
 900 00ba 7D       		.byte	0x7d
 901 00bb 04       		.sleb128 4
 902 00bc 04000000 		.4byte	.LCFI8
 903 00c0 34000000 		.4byte	.LFE66
 904 00c4 0200     		.2byte	0x2
 905 00c6 7D       		.byte	0x7d
 906 00c7 18       		.sleb128 24
 907 00c8 00000000 		.4byte	0x0
ARM GAS  C:\Users\z80\AppData\Local\Temp\ccoYycsf.s 			page 18


 908 00cc 00000000 		.4byte	0x0
 909              	.LLST5:
 910 00d0 00000000 		.4byte	.LFB67
 911 00d4 02000000 		.4byte	.LCFI9
 912 00d8 0200     		.2byte	0x2
 913 00da 7D       		.byte	0x7d
 914 00db 00       		.sleb128 0
 915 00dc 02000000 		.4byte	.LCFI9
 916 00e0 04000000 		.4byte	.LCFI10
 917 00e4 0200     		.2byte	0x2
 918 00e6 7D       		.byte	0x7d
 919 00e7 04       		.sleb128 4
 920 00e8 04000000 		.4byte	.LCFI10
 921 00ec 88000000 		.4byte	.LFE67
 922 00f0 0200     		.2byte	0x2
 923 00f2 7D       		.byte	0x7d
 924 00f3 18       		.sleb128 24
 925 00f4 00000000 		.4byte	0x0
 926 00f8 00000000 		.4byte	0x0
 927              	.LLST6:
 928 00fc 00000000 		.4byte	.LFB68
 929 0100 02000000 		.4byte	.LCFI11
 930 0104 0200     		.2byte	0x2
 931 0106 7D       		.byte	0x7d
 932 0107 00       		.sleb128 0
 933 0108 02000000 		.4byte	.LCFI11
 934 010c 04000000 		.4byte	.LCFI12
 935 0110 0200     		.2byte	0x2
 936 0112 7D       		.byte	0x7d
 937 0113 04       		.sleb128 4
 938 0114 04000000 		.4byte	.LCFI12
 939 0118 8E000000 		.4byte	.LFE68
 940 011c 0200     		.2byte	0x2
 941 011e 7D       		.byte	0x7d
 942 011f 18       		.sleb128 24
 943 0120 00000000 		.4byte	0x0
 944 0124 00000000 		.4byte	0x0
 945              	.LLST7:
 946 0128 00000000 		.4byte	.LFB69
 947 012c 02000000 		.4byte	.LCFI13
 948 0130 0200     		.2byte	0x2
 949 0132 7D       		.byte	0x7d
 950 0133 00       		.sleb128 0
 951 0134 02000000 		.4byte	.LCFI13
 952 0138 04000000 		.4byte	.LCFI14
 953 013c 0200     		.2byte	0x2
 954 013e 7D       		.byte	0x7d
 955 013f 04       		.sleb128 4
 956 0140 04000000 		.4byte	.LCFI14
 957 0144 86000000 		.4byte	.LFE69
 958 0148 0200     		.2byte	0x2
 959 014a 7D       		.byte	0x7d
 960 014b 18       		.sleb128 24
 961 014c 00000000 		.4byte	0x0
 962 0150 00000000 		.4byte	0x0
 963              	.LLST8:
 964 0154 00000000 		.4byte	.LFB70
ARM GAS  C:\Users\z80\AppData\Local\Temp\ccoYycsf.s 			page 19


 965 0158 02000000 		.4byte	.LCFI15
 966 015c 0200     		.2byte	0x2
 967 015e 7D       		.byte	0x7d
 968 015f 00       		.sleb128 0
 969 0160 02000000 		.4byte	.LCFI15
 970 0164 04000000 		.4byte	.LCFI16
 971 0168 0200     		.2byte	0x2
 972 016a 7D       		.byte	0x7d
 973 016b 04       		.sleb128 4
 974 016c 04000000 		.4byte	.LCFI16
 975 0170 70000000 		.4byte	.LFE70
 976 0174 0200     		.2byte	0x2
 977 0176 7D       		.byte	0x7d
 978 0177 20       		.sleb128 32
 979 0178 00000000 		.4byte	0x0
 980 017c 00000000 		.4byte	0x0
 981              	.LLST9:
 982 0180 00000000 		.4byte	.LFB71
 983 0184 02000000 		.4byte	.LCFI17
 984 0188 0200     		.2byte	0x2
 985 018a 7D       		.byte	0x7d
 986 018b 00       		.sleb128 0
 987 018c 02000000 		.4byte	.LCFI17
 988 0190 04000000 		.4byte	.LCFI18
 989 0194 0200     		.2byte	0x2
 990 0196 7D       		.byte	0x7d
 991 0197 04       		.sleb128 4
 992 0198 04000000 		.4byte	.LCFI18
 993 019c 28000000 		.4byte	.LFE71
 994 01a0 0200     		.2byte	0x2
 995 01a2 7D       		.byte	0x7d
 996 01a3 10       		.sleb128 16
 997 01a4 00000000 		.4byte	0x0
 998 01a8 00000000 		.4byte	0x0
 999              	.LLST10:
 1000 01ac 00000000 		.4byte	.LFB72
 1001 01b0 02000000 		.4byte	.LCFI19
 1002 01b4 0200     		.2byte	0x2
 1003 01b6 7D       		.byte	0x7d
 1004 01b7 00       		.sleb128 0
 1005 01b8 02000000 		.4byte	.LCFI19
 1006 01bc 04000000 		.4byte	.LCFI20
 1007 01c0 0200     		.2byte	0x2
 1008 01c2 7D       		.byte	0x7d
 1009 01c3 04       		.sleb128 4
 1010 01c4 04000000 		.4byte	.LCFI20
 1011 01c8 20000000 		.4byte	.LFE72
 1012 01cc 0200     		.2byte	0x2
 1013 01ce 7D       		.byte	0x7d
 1014 01cf 10       		.sleb128 16
 1015 01d0 00000000 		.4byte	0x0
 1016 01d4 00000000 		.4byte	0x0
 1017              		.file 2 "c:\\programs\\yagarto\\bin\\../lib/gcc/arm-none-eabi/4.5.0/include/stddef.h"
 1018              		.file 3 "c:/programs/yagarto/lib/gcc/../../arm-none-eabi/sys-include/stdint.h"
 1019              		.file 4 "../chibios_2.4.x/os/ports/GCC/ARMCMx/chtypes.h"
 1020              		.file 5 "../chibios_2.4.x/os/kernel/include/chlists.h"
 1021              		.file 6 "../chibios_2.4.x/os/kernel/include/chthreads.h"
ARM GAS  C:\Users\z80\AppData\Local\Temp\ccoYycsf.s 			page 20


 1022              		.file 7 "../chibios_2.4.x/os/ports/GCC/ARMCMx/chcore_v7m.h"
 1023              		.file 8 "../chibios_2.4.x/os/kernel/include/chschd.h"
 1024              		.file 9 "../chibios_2.4.x/os/kernel/include/chmtx.h"
 1025              		.file 10 "../chibios_2.4.x/os/hal/platforms/STM32F1xx/stm32f10x.h"
 1026              		.file 11 "../chibios_2.4.x/os/hal/platforms/STM32F1xx/stm32_dma.h"
 1027              		.file 12 "../chibios_2.4.x/os/hal/include/adc.h"
 1028              		.file 13 "../chibios_2.4.x/os/hal/platforms/STM32F1xx/adc_lld.h"
 1029              		.file 14 "../chibios_2.4.x/os/ports/common/ARMCMx/CMSIS/include/core_cm3.h"
 1030              		.section	.debug_info
 1031 0000 6D0C0000 		.4byte	0xc6d
 1032 0004 0200     		.2byte	0x2
 1033 0006 00000000 		.4byte	.Ldebug_abbrev0
 1034 000a 04       		.byte	0x4
 1035 000b 01       		.uleb128 0x1
 1036 000c DD040000 		.4byte	.LASF136
 1037 0010 01       		.byte	0x1
 1038 0011 6A030000 		.4byte	.LASF137
 1039 0015 CC020000 		.4byte	.LASF138
 1040 0019 00000000 		.4byte	0x0
 1041 001d 00000000 		.4byte	0x0
 1042 0021 00000000 		.4byte	.Ldebug_ranges0+0x0
 1043 0025 00000000 		.4byte	.Ldebug_line0
 1044 0029 02       		.uleb128 0x2
 1045 002a 04       		.byte	0x4
 1046 002b 05       		.byte	0x5
 1047 002c 696E7400 		.ascii	"int\000"
 1048 0030 03       		.uleb128 0x3
 1049 0031 00000000 		.4byte	.LASF2
 1050 0035 02       		.byte	0x2
 1051 0036 D3       		.byte	0xd3
 1052 0037 3B000000 		.4byte	0x3b
 1053 003b 04       		.uleb128 0x4
 1054 003c 04       		.byte	0x4
 1055 003d 07       		.byte	0x7
 1056 003e A2010000 		.4byte	.LASF0
 1057 0042 04       		.uleb128 0x4
 1058 0043 01       		.byte	0x1
 1059 0044 06       		.byte	0x6
 1060 0045 7E000000 		.4byte	.LASF1
 1061 0049 03       		.uleb128 0x3
 1062 004a 9B040000 		.4byte	.LASF3
 1063 004e 03       		.byte	0x3
 1064 004f 2A       		.byte	0x2a
 1065 0050 54000000 		.4byte	0x54
 1066 0054 04       		.uleb128 0x4
 1067 0055 01       		.byte	0x1
 1068 0056 08       		.byte	0x8
 1069 0057 5C030000 		.4byte	.LASF4
 1070 005b 04       		.uleb128 0x4
 1071 005c 02       		.byte	0x2
 1072 005d 05       		.byte	0x5
 1073 005e 96030000 		.4byte	.LASF5
 1074 0062 03       		.uleb128 0x3
 1075 0063 F9000000 		.4byte	.LASF6
 1076 0067 03       		.byte	0x3
 1077 0068 36       		.byte	0x36
 1078 0069 6D000000 		.4byte	0x6d
ARM GAS  C:\Users\z80\AppData\Local\Temp\ccoYycsf.s 			page 21


 1079 006d 04       		.uleb128 0x4
 1080 006e 02       		.byte	0x2
 1081 006f 07       		.byte	0x7
 1082 0070 F7010000 		.4byte	.LASF7
 1083 0074 03       		.uleb128 0x3
 1084 0075 54030000 		.4byte	.LASF8
 1085 0079 03       		.byte	0x3
 1086 007a 4F       		.byte	0x4f
 1087 007b 7F000000 		.4byte	0x7f
 1088 007f 04       		.uleb128 0x4
 1089 0080 04       		.byte	0x4
 1090 0081 05       		.byte	0x5
 1091 0082 BA000000 		.4byte	.LASF9
 1092 0086 03       		.uleb128 0x3
 1093 0087 EC030000 		.4byte	.LASF10
 1094 008b 03       		.byte	0x3
 1095 008c 50       		.byte	0x50
 1096 008d 91000000 		.4byte	0x91
 1097 0091 04       		.uleb128 0x4
 1098 0092 04       		.byte	0x4
 1099 0093 07       		.byte	0x7
 1100 0094 03040000 		.4byte	.LASF11
 1101 0098 04       		.uleb128 0x4
 1102 0099 08       		.byte	0x8
 1103 009a 05       		.byte	0x5
 1104 009b 70000000 		.4byte	.LASF12
 1105 009f 03       		.uleb128 0x3
 1106 00a0 9C020000 		.4byte	.LASF13
 1107 00a4 03       		.byte	0x3
 1108 00a5 78       		.byte	0x78
 1109 00a6 AA000000 		.4byte	0xaa
 1110 00aa 04       		.uleb128 0x4
 1111 00ab 08       		.byte	0x8
 1112 00ac 07       		.byte	0x7
 1113 00ad 29000000 		.4byte	.LASF14
 1114 00b1 03       		.uleb128 0x3
 1115 00b2 8A000000 		.4byte	.LASF15
 1116 00b6 04       		.byte	0x4
 1117 00b7 2E       		.byte	0x2e
 1118 00b8 74000000 		.4byte	0x74
 1119 00bc 03       		.uleb128 0x3
 1120 00bd 20020000 		.4byte	.LASF16
 1121 00c1 04       		.byte	0x4
 1122 00c2 2F       		.byte	0x2f
 1123 00c3 49000000 		.4byte	0x49
 1124 00c7 03       		.uleb128 0x3
 1125 00c8 E9000000 		.4byte	.LASF17
 1126 00cc 04       		.byte	0x4
 1127 00cd 30       		.byte	0x30
 1128 00ce 49000000 		.4byte	0x49
 1129 00d2 03       		.uleb128 0x3
 1130 00d3 46030000 		.4byte	.LASF18
 1131 00d7 04       		.byte	0x4
 1132 00d8 32       		.byte	0x32
 1133 00d9 86000000 		.4byte	0x86
 1134 00dd 03       		.uleb128 0x3
 1135 00de 1A020000 		.4byte	.LASF19
ARM GAS  C:\Users\z80\AppData\Local\Temp\ccoYycsf.s 			page 22


 1136 00e2 04       		.byte	0x4
 1137 00e3 33       		.byte	0x33
 1138 00e4 74000000 		.4byte	0x74
 1139 00e8 03       		.uleb128 0x3
 1140 00e9 41020000 		.4byte	.LASF20
 1141 00ed 04       		.byte	0x4
 1142 00ee 35       		.byte	0x35
 1143 00ef 86000000 		.4byte	0x86
 1144 00f3 03       		.uleb128 0x3
 1145 00f4 35040000 		.4byte	.LASF21
 1146 00f8 04       		.byte	0x4
 1147 00f9 36       		.byte	0x36
 1148 00fa 86000000 		.4byte	0x86
 1149 00fe 03       		.uleb128 0x3
 1150 00ff 91010000 		.4byte	.LASF22
 1151 0103 04       		.byte	0x4
 1152 0104 37       		.byte	0x37
 1153 0105 74000000 		.4byte	0x74
 1154 0109 03       		.uleb128 0x3
 1155 010a 74010000 		.4byte	.LASF23
 1156 010e 05       		.byte	0x5
 1157 010f 2A       		.byte	0x2a
 1158 0110 14010000 		.4byte	0x114
 1159 0114 05       		.uleb128 0x5
 1160 0115 74010000 		.4byte	.LASF23
 1161 0119 48       		.byte	0x48
 1162 011a 06       		.byte	0x6
 1163 011b 5E       		.byte	0x5e
 1164 011c 1D020000 		.4byte	0x21d
 1165 0120 06       		.uleb128 0x6
 1166 0121 BF030000 		.4byte	.LASF24
 1167 0125 06       		.byte	0x6
 1168 0126 5F       		.byte	0x5f
 1169 0127 42020000 		.4byte	0x242
 1170 012b 02       		.byte	0x2
 1171 012c 23       		.byte	0x23
 1172 012d 00       		.uleb128 0x0
 1173 012e 06       		.uleb128 0x6
 1174 012f 2C030000 		.4byte	.LASF25
 1175 0133 06       		.byte	0x6
 1176 0134 61       		.byte	0x61
 1177 0135 42020000 		.4byte	0x242
 1178 0139 02       		.byte	0x2
 1179 013a 23       		.byte	0x23
 1180 013b 04       		.uleb128 0x4
 1181 013c 06       		.uleb128 0x6
 1182 013d 64000000 		.4byte	.LASF26
 1183 0141 06       		.byte	0x6
 1184 0142 63       		.byte	0x63
 1185 0143 D2000000 		.4byte	0xd2
 1186 0147 02       		.byte	0x2
 1187 0148 23       		.byte	0x23
 1188 0149 08       		.uleb128 0x8
 1189 014a 06       		.uleb128 0x6
 1190 014b 4F050000 		.4byte	.LASF27
 1191 014f 06       		.byte	0x6
 1192 0150 64       		.byte	0x64
ARM GAS  C:\Users\z80\AppData\Local\Temp\ccoYycsf.s 			page 23


 1193 0151 1A030000 		.4byte	0x31a
 1194 0155 02       		.byte	0x2
 1195 0156 23       		.byte	0x23
 1196 0157 0C       		.uleb128 0xc
 1197 0158 06       		.uleb128 0x6
 1198 0159 15010000 		.4byte	.LASF28
 1199 015d 06       		.byte	0x6
 1200 015e 66       		.byte	0x66
 1201 015f 42020000 		.4byte	0x242
 1202 0163 02       		.byte	0x2
 1203 0164 23       		.byte	0x23
 1204 0165 10       		.uleb128 0x10
 1205 0166 06       		.uleb128 0x6
 1206 0167 A5020000 		.4byte	.LASF29
 1207 016b 06       		.byte	0x6
 1208 016c 67       		.byte	0x67
 1209 016d 42020000 		.4byte	0x242
 1210 0171 02       		.byte	0x2
 1211 0172 23       		.byte	0x23
 1212 0173 14       		.uleb128 0x14
 1213 0174 06       		.uleb128 0x6
 1214 0175 FD040000 		.4byte	.LASF30
 1215 0179 06       		.byte	0x6
 1216 017a 6E       		.byte	0x6e
 1217 017b 3D040000 		.4byte	0x43d
 1218 017f 02       		.byte	0x2
 1219 0180 23       		.byte	0x23
 1220 0181 18       		.uleb128 0x18
 1221 0182 06       		.uleb128 0x6
 1222 0183 97010000 		.4byte	.LASF31
 1223 0187 06       		.byte	0x6
 1224 0188 74       		.byte	0x74
 1225 0189 4F040000 		.4byte	0x44f
 1226 018d 02       		.byte	0x2
 1227 018e 23       		.byte	0x23
 1228 018f 1C       		.uleb128 0x1c
 1229 0190 06       		.uleb128 0x6
 1230 0191 A0030000 		.4byte	.LASF32
 1231 0195 06       		.byte	0x6
 1232 0196 79       		.byte	0x79
 1233 0197 C7000000 		.4byte	0xc7
 1234 019b 02       		.byte	0x2
 1235 019c 23       		.byte	0x23
 1236 019d 20       		.uleb128 0x20
 1237 019e 06       		.uleb128 0x6
 1238 019f C6030000 		.4byte	.LASF33
 1239 01a3 06       		.byte	0x6
 1240 01a4 7D       		.byte	0x7d
 1241 01a5 BC000000 		.4byte	0xbc
 1242 01a9 02       		.byte	0x2
 1243 01aa 23       		.byte	0x23
 1244 01ab 21       		.uleb128 0x21
 1245 01ac 06       		.uleb128 0x6
 1246 01ad 02010000 		.4byte	.LASF34
 1247 01b1 06       		.byte	0x6
 1248 01b2 89       		.byte	0x89
 1249 01b3 45030000 		.4byte	0x345
ARM GAS  C:\Users\z80\AppData\Local\Temp\ccoYycsf.s 			page 24


 1250 01b7 02       		.byte	0x2
 1251 01b8 23       		.byte	0x23
 1252 01b9 24       		.uleb128 0x24
 1253 01ba 07       		.uleb128 0x7
 1254 01bb 705F7500 		.ascii	"p_u\000"
 1255 01bf 06       		.byte	0x6
 1256 01c0 AE       		.byte	0xae
 1257 01c1 08040000 		.4byte	0x408
 1258 01c5 02       		.byte	0x2
 1259 01c6 23       		.byte	0x23
 1260 01c7 28       		.uleb128 0x28
 1261 01c8 06       		.uleb128 0x6
 1262 01c9 55050000 		.4byte	.LASF35
 1263 01cd 06       		.byte	0x6
 1264 01ce B3       		.byte	0xb3
 1265 01cf 6A020000 		.4byte	0x26a
 1266 01d3 02       		.byte	0x2
 1267 01d4 23       		.byte	0x23
 1268 01d5 2C       		.uleb128 0x2c
 1269 01d6 06       		.uleb128 0x6
 1270 01d7 C2010000 		.4byte	.LASF36
 1271 01db 06       		.byte	0x6
 1272 01dc B9       		.byte	0xb9
 1273 01dd 48020000 		.4byte	0x248
 1274 01e1 02       		.byte	0x2
 1275 01e2 23       		.byte	0x23
 1276 01e3 30       		.uleb128 0x30
 1277 01e4 06       		.uleb128 0x6
 1278 01e5 17050000 		.4byte	.LASF37
 1279 01e9 06       		.byte	0x6
 1280 01ea BD       		.byte	0xbd
 1281 01eb DD000000 		.4byte	0xdd
 1282 01ef 02       		.byte	0x2
 1283 01f0 23       		.byte	0x23
 1284 01f1 38       		.uleb128 0x38
 1285 01f2 06       		.uleb128 0x6
 1286 01f3 DC030000 		.4byte	.LASF38
 1287 01f7 06       		.byte	0x6
 1288 01f8 C3       		.byte	0xc3
 1289 01f9 E8000000 		.4byte	0xe8
 1290 01fd 02       		.byte	0x2
 1291 01fe 23       		.byte	0x23
 1292 01ff 3C       		.uleb128 0x3c
 1293 0200 06       		.uleb128 0x6
 1294 0201 8C030000 		.4byte	.LASF39
 1295 0205 06       		.byte	0x6
 1296 0206 CA       		.byte	0xca
 1297 0207 55040000 		.4byte	0x455
 1298 020b 02       		.byte	0x2
 1299 020c 23       		.byte	0x23
 1300 020d 40       		.uleb128 0x40
 1301 020e 06       		.uleb128 0x6
 1302 020f 3F040000 		.4byte	.LASF40
 1303 0213 06       		.byte	0x6
 1304 0214 CE       		.byte	0xce
 1305 0215 D2000000 		.4byte	0xd2
 1306 0219 02       		.byte	0x2
ARM GAS  C:\Users\z80\AppData\Local\Temp\ccoYycsf.s 			page 25


 1307 021a 23       		.byte	0x23
 1308 021b 44       		.uleb128 0x44
 1309 021c 00       		.byte	0x0
 1310 021d 08       		.uleb128 0x8
 1311 021e 08       		.byte	0x8
 1312 021f 05       		.byte	0x5
 1313 0220 61       		.byte	0x61
 1314 0221 42020000 		.4byte	0x242
 1315 0225 06       		.uleb128 0x6
 1316 0226 BF030000 		.4byte	.LASF24
 1317 022a 05       		.byte	0x5
 1318 022b 62       		.byte	0x62
 1319 022c 42020000 		.4byte	0x242
 1320 0230 02       		.byte	0x2
 1321 0231 23       		.byte	0x23
 1322 0232 00       		.uleb128 0x0
 1323 0233 06       		.uleb128 0x6
 1324 0234 2C030000 		.4byte	.LASF25
 1325 0238 05       		.byte	0x5
 1326 0239 64       		.byte	0x64
 1327 023a 42020000 		.4byte	0x242
 1328 023e 02       		.byte	0x2
 1329 023f 23       		.byte	0x23
 1330 0240 04       		.uleb128 0x4
 1331 0241 00       		.byte	0x0
 1332 0242 09       		.uleb128 0x9
 1333 0243 04       		.byte	0x4
 1334 0244 09010000 		.4byte	0x109
 1335 0248 03       		.uleb128 0x3
 1336 0249 B3020000 		.4byte	.LASF41
 1337 024d 05       		.byte	0x5
 1338 024e 66       		.byte	0x66
 1339 024f 1D020000 		.4byte	0x21d
 1340 0253 08       		.uleb128 0x8
 1341 0254 04       		.byte	0x4
 1342 0255 05       		.byte	0x5
 1343 0256 6B       		.byte	0x6b
 1344 0257 6A020000 		.4byte	0x26a
 1345 025b 06       		.uleb128 0x6
 1346 025c BF030000 		.4byte	.LASF24
 1347 0260 05       		.byte	0x5
 1348 0261 6D       		.byte	0x6d
 1349 0262 42020000 		.4byte	0x242
 1350 0266 02       		.byte	0x2
 1351 0267 23       		.byte	0x23
 1352 0268 00       		.uleb128 0x0
 1353 0269 00       		.byte	0x0
 1354 026a 03       		.uleb128 0x3
 1355 026b 35020000 		.4byte	.LASF42
 1356 026f 05       		.byte	0x5
 1357 0270 70       		.byte	0x70
 1358 0271 53020000 		.4byte	0x253
 1359 0275 03       		.uleb128 0x3
 1360 0276 5B010000 		.4byte	.LASF43
 1361 027a 07       		.byte	0x7
 1362 027b D7       		.byte	0xd7
 1363 027c 80020000 		.4byte	0x280
ARM GAS  C:\Users\z80\AppData\Local\Temp\ccoYycsf.s 			page 26


 1364 0280 0A       		.uleb128 0xa
 1365 0281 04       		.byte	0x4
 1366 0282 03       		.uleb128 0x3
 1367 0283 63020000 		.4byte	.LASF44
 1368 0287 07       		.byte	0x7
 1369 0288 DD       		.byte	0xdd
 1370 0289 9F000000 		.4byte	0x9f
 1371 028d 05       		.uleb128 0x5
 1372 028e 65040000 		.4byte	.LASF45
 1373 0292 24       		.byte	0x24
 1374 0293 07       		.byte	0x7
 1375 0294 FE       		.byte	0xfe
 1376 0295 1A030000 		.4byte	0x31a
 1377 0299 0B       		.uleb128 0xb
 1378 029a 723400   		.ascii	"r4\000"
 1379 029d 07       		.byte	0x7
 1380 029e 1101     		.2byte	0x111
 1381 02a0 75020000 		.4byte	0x275
 1382 02a4 02       		.byte	0x2
 1383 02a5 23       		.byte	0x23
 1384 02a6 00       		.uleb128 0x0
 1385 02a7 0B       		.uleb128 0xb
 1386 02a8 723500   		.ascii	"r5\000"
 1387 02ab 07       		.byte	0x7
 1388 02ac 1201     		.2byte	0x112
 1389 02ae 75020000 		.4byte	0x275
 1390 02b2 02       		.byte	0x2
 1391 02b3 23       		.byte	0x23
 1392 02b4 04       		.uleb128 0x4
 1393 02b5 0B       		.uleb128 0xb
 1394 02b6 723600   		.ascii	"r6\000"
 1395 02b9 07       		.byte	0x7
 1396 02ba 1301     		.2byte	0x113
 1397 02bc 75020000 		.4byte	0x275
 1398 02c0 02       		.byte	0x2
 1399 02c1 23       		.byte	0x23
 1400 02c2 08       		.uleb128 0x8
 1401 02c3 0B       		.uleb128 0xb
 1402 02c4 723700   		.ascii	"r7\000"
 1403 02c7 07       		.byte	0x7
 1404 02c8 1401     		.2byte	0x114
 1405 02ca 75020000 		.4byte	0x275
 1406 02ce 02       		.byte	0x2
 1407 02cf 23       		.byte	0x23
 1408 02d0 0C       		.uleb128 0xc
 1409 02d1 0B       		.uleb128 0xb
 1410 02d2 723800   		.ascii	"r8\000"
 1411 02d5 07       		.byte	0x7
 1412 02d6 1501     		.2byte	0x115
 1413 02d8 75020000 		.4byte	0x275
 1414 02dc 02       		.byte	0x2
 1415 02dd 23       		.byte	0x23
 1416 02de 10       		.uleb128 0x10
 1417 02df 0B       		.uleb128 0xb
 1418 02e0 723900   		.ascii	"r9\000"
 1419 02e3 07       		.byte	0x7
 1420 02e4 1601     		.2byte	0x116
ARM GAS  C:\Users\z80\AppData\Local\Temp\ccoYycsf.s 			page 27


 1421 02e6 75020000 		.4byte	0x275
 1422 02ea 02       		.byte	0x2
 1423 02eb 23       		.byte	0x23
 1424 02ec 14       		.uleb128 0x14
 1425 02ed 0B       		.uleb128 0xb
 1426 02ee 72313000 		.ascii	"r10\000"
 1427 02f2 07       		.byte	0x7
 1428 02f3 1701     		.2byte	0x117
 1429 02f5 75020000 		.4byte	0x275
 1430 02f9 02       		.byte	0x2
 1431 02fa 23       		.byte	0x23
 1432 02fb 18       		.uleb128 0x18
 1433 02fc 0B       		.uleb128 0xb
 1434 02fd 72313100 		.ascii	"r11\000"
 1435 0301 07       		.byte	0x7
 1436 0302 1801     		.2byte	0x118
 1437 0304 75020000 		.4byte	0x275
 1438 0308 02       		.byte	0x2
 1439 0309 23       		.byte	0x23
 1440 030a 1C       		.uleb128 0x1c
 1441 030b 0B       		.uleb128 0xb
 1442 030c 6C7200   		.ascii	"lr\000"
 1443 030f 07       		.byte	0x7
 1444 0310 1901     		.2byte	0x119
 1445 0312 75020000 		.4byte	0x275
 1446 0316 02       		.byte	0x2
 1447 0317 23       		.byte	0x23
 1448 0318 20       		.uleb128 0x20
 1449 0319 00       		.byte	0x0
 1450 031a 0C       		.uleb128 0xc
 1451 031b 4A040000 		.4byte	.LASF46
 1452 031f 04       		.byte	0x4
 1453 0320 07       		.byte	0x7
 1454 0321 2301     		.2byte	0x123
 1455 0323 37030000 		.4byte	0x337
 1456 0327 0B       		.uleb128 0xb
 1457 0328 72313300 		.ascii	"r13\000"
 1458 032c 07       		.byte	0x7
 1459 032d 2401     		.2byte	0x124
 1460 032f 37030000 		.4byte	0x337
 1461 0333 02       		.byte	0x2
 1462 0334 23       		.byte	0x23
 1463 0335 00       		.uleb128 0x0
 1464 0336 00       		.byte	0x0
 1465 0337 09       		.uleb128 0x9
 1466 0338 04       		.byte	0x4
 1467 0339 8D020000 		.4byte	0x28d
 1468 033d 0D       		.uleb128 0xd
 1469 033e 86000000 		.4byte	0x86
 1470 0342 0E       		.uleb128 0xe
 1471 0343 04       		.byte	0x4
 1472 0344 07       		.byte	0x7
 1473 0345 0D       		.uleb128 0xd
 1474 0346 F3000000 		.4byte	0xf3
 1475 034a 08       		.uleb128 0x8
 1476 034b 20       		.byte	0x20
 1477 034c 08       		.byte	0x8
ARM GAS  C:\Users\z80\AppData\Local\Temp\ccoYycsf.s 			page 28


 1478 034d 5E       		.byte	0x5e
 1479 034e B5030000 		.4byte	0x3b5
 1480 0352 06       		.uleb128 0x6
 1481 0353 F5030000 		.4byte	.LASF47
 1482 0357 08       		.byte	0x8
 1483 0358 5F       		.byte	0x5f
 1484 0359 48020000 		.4byte	0x248
 1485 035d 02       		.byte	0x2
 1486 035e 23       		.byte	0x23
 1487 035f 00       		.uleb128 0x0
 1488 0360 06       		.uleb128 0x6
 1489 0361 B1030000 		.4byte	.LASF48
 1490 0365 08       		.byte	0x8
 1491 0366 60       		.byte	0x60
 1492 0367 D2000000 		.4byte	0xd2
 1493 036b 02       		.byte	0x2
 1494 036c 23       		.byte	0x23
 1495 036d 08       		.uleb128 0x8
 1496 036e 06       		.uleb128 0x6
 1497 036f AD020000 		.4byte	.LASF49
 1498 0373 08       		.byte	0x8
 1499 0374 62       		.byte	0x62
 1500 0375 1A030000 		.4byte	0x31a
 1501 0379 02       		.byte	0x2
 1502 037a 23       		.byte	0x23
 1503 037b 0C       		.uleb128 0xc
 1504 037c 06       		.uleb128 0x6
 1505 037d 49010000 		.4byte	.LASF50
 1506 0381 08       		.byte	0x8
 1507 0382 65       		.byte	0x65
 1508 0383 42020000 		.4byte	0x242
 1509 0387 02       		.byte	0x2
 1510 0388 23       		.byte	0x23
 1511 0389 10       		.uleb128 0x10
 1512 038a 06       		.uleb128 0x6
 1513 038b 01030000 		.4byte	.LASF51
 1514 038f 08       		.byte	0x8
 1515 0390 66       		.byte	0x66
 1516 0391 42020000 		.4byte	0x242
 1517 0395 02       		.byte	0x2
 1518 0396 23       		.byte	0x23
 1519 0397 14       		.uleb128 0x14
 1520 0398 06       		.uleb128 0x6
 1521 0399 1D050000 		.4byte	.LASF52
 1522 039d 08       		.byte	0x8
 1523 039e 6A       		.byte	0x6a
 1524 039f FE000000 		.4byte	0xfe
 1525 03a3 02       		.byte	0x2
 1526 03a4 23       		.byte	0x23
 1527 03a5 18       		.uleb128 0x18
 1528 03a6 06       		.uleb128 0x6
 1529 03a7 F7020000 		.4byte	.LASF53
 1530 03ab 08       		.byte	0x8
 1531 03ac 6C       		.byte	0x6c
 1532 03ad 42020000 		.4byte	0x242
 1533 03b1 02       		.byte	0x2
 1534 03b2 23       		.byte	0x23
ARM GAS  C:\Users\z80\AppData\Local\Temp\ccoYycsf.s 			page 29


 1535 03b3 1C       		.uleb128 0x1c
 1536 03b4 00       		.byte	0x0
 1537 03b5 03       		.uleb128 0x3
 1538 03b6 7F040000 		.4byte	.LASF54
 1539 03ba 08       		.byte	0x8
 1540 03bb 6E       		.byte	0x6e
 1541 03bc 4A030000 		.4byte	0x34a
 1542 03c0 05       		.uleb128 0x5
 1543 03c1 8D020000 		.4byte	.LASF55
 1544 03c5 10       		.byte	0x10
 1545 03c6 09       		.byte	0x9
 1546 03c7 2C       		.byte	0x2c
 1547 03c8 F7030000 		.4byte	0x3f7
 1548 03cc 06       		.uleb128 0x6
 1549 03cd 91000000 		.4byte	.LASF56
 1550 03d1 09       		.byte	0x9
 1551 03d2 2D       		.byte	0x2d
 1552 03d3 48020000 		.4byte	0x248
 1553 03d7 02       		.byte	0x2
 1554 03d8 23       		.byte	0x23
 1555 03d9 00       		.uleb128 0x0
 1556 03da 06       		.uleb128 0x6
 1557 03db 39050000 		.4byte	.LASF57
 1558 03df 09       		.byte	0x9
 1559 03e0 2F       		.byte	0x2f
 1560 03e1 42020000 		.4byte	0x242
 1561 03e5 02       		.byte	0x2
 1562 03e6 23       		.byte	0x23
 1563 03e7 08       		.uleb128 0x8
 1564 03e8 06       		.uleb128 0x6
 1565 03e9 50000000 		.4byte	.LASF58
 1566 03ed 09       		.byte	0x9
 1567 03ee 31       		.byte	0x31
 1568 03ef F7030000 		.4byte	0x3f7
 1569 03f3 02       		.byte	0x2
 1570 03f4 23       		.byte	0x23
 1571 03f5 0C       		.uleb128 0xc
 1572 03f6 00       		.byte	0x0
 1573 03f7 09       		.uleb128 0x9
 1574 03f8 04       		.byte	0x4
 1575 03f9 C0030000 		.4byte	0x3c0
 1576 03fd 03       		.uleb128 0x3
 1577 03fe 8D020000 		.4byte	.LASF55
 1578 0402 09       		.byte	0x9
 1579 0403 33       		.byte	0x33
 1580 0404 C0030000 		.4byte	0x3c0
 1581 0408 0F       		.uleb128 0xf
 1582 0409 04       		.byte	0x4
 1583 040a 06       		.byte	0x6
 1584 040b 90       		.byte	0x90
 1585 040c 3D040000 		.4byte	0x43d
 1586 0410 10       		.uleb128 0x10
 1587 0411 07000000 		.4byte	.LASF59
 1588 0415 06       		.byte	0x6
 1589 0416 97       		.byte	0x97
 1590 0417 DD000000 		.4byte	0xdd
 1591 041b 10       		.uleb128 0x10
ARM GAS  C:\Users\z80\AppData\Local\Temp\ccoYycsf.s 			page 30


 1592 041c 40000000 		.4byte	.LASF60
 1593 0420 06       		.byte	0x6
 1594 0421 9E       		.byte	0x9e
 1595 0422 DD000000 		.4byte	0xdd
 1596 0426 10       		.uleb128 0x10
 1597 0427 E9040000 		.4byte	.LASF61
 1598 042b 06       		.byte	0x6
 1599 042c A5       		.byte	0xa5
 1600 042d 80020000 		.4byte	0x280
 1601 0431 10       		.uleb128 0x10
 1602 0432 B8030000 		.4byte	.LASF62
 1603 0436 06       		.byte	0x6
 1604 0437 AC       		.byte	0xac
 1605 0438 E8000000 		.4byte	0xe8
 1606 043c 00       		.byte	0x0
 1607 043d 09       		.uleb128 0x9
 1608 043e 04       		.byte	0x4
 1609 043f 43040000 		.4byte	0x443
 1610 0443 11       		.uleb128 0x11
 1611 0444 48040000 		.4byte	0x448
 1612 0448 04       		.uleb128 0x4
 1613 0449 01       		.byte	0x1
 1614 044a 08       		.byte	0x8
 1615 044b 15040000 		.4byte	.LASF63
 1616 044f 09       		.uleb128 0x9
 1617 0450 04       		.byte	0x4
 1618 0451 82020000 		.4byte	0x282
 1619 0455 09       		.uleb128 0x9
 1620 0456 04       		.byte	0x4
 1621 0457 FD030000 		.4byte	0x3fd
 1622 045b 0D       		.uleb128 0xd
 1623 045c 74000000 		.4byte	0x74
 1624 0460 12       		.uleb128 0x12
 1625 0461 50       		.byte	0x50
 1626 0462 0A       		.byte	0xa
 1627 0463 2D02     		.2byte	0x22d
 1628 0465 94050000 		.4byte	0x594
 1629 0469 0B       		.uleb128 0xb
 1630 046a 535200   		.ascii	"SR\000"
 1631 046d 0A       		.byte	0xa
 1632 046e 2F02     		.2byte	0x22f
 1633 0470 3D030000 		.4byte	0x33d
 1634 0474 02       		.byte	0x2
 1635 0475 23       		.byte	0x23
 1636 0476 00       		.uleb128 0x0
 1637 0477 0B       		.uleb128 0xb
 1638 0478 43523100 		.ascii	"CR1\000"
 1639 047c 0A       		.byte	0xa
 1640 047d 3002     		.2byte	0x230
 1641 047f 3D030000 		.4byte	0x33d
 1642 0483 02       		.byte	0x2
 1643 0484 23       		.byte	0x23
 1644 0485 04       		.uleb128 0x4
 1645 0486 0B       		.uleb128 0xb
 1646 0487 43523200 		.ascii	"CR2\000"
 1647 048b 0A       		.byte	0xa
 1648 048c 3102     		.2byte	0x231
ARM GAS  C:\Users\z80\AppData\Local\Temp\ccoYycsf.s 			page 31


 1649 048e 3D030000 		.4byte	0x33d
 1650 0492 02       		.byte	0x2
 1651 0493 23       		.byte	0x23
 1652 0494 08       		.uleb128 0x8
 1653 0495 13       		.uleb128 0x13
 1654 0496 C0020000 		.4byte	.LASF64
 1655 049a 0A       		.byte	0xa
 1656 049b 3202     		.2byte	0x232
 1657 049d 3D030000 		.4byte	0x33d
 1658 04a1 02       		.byte	0x2
 1659 04a2 23       		.byte	0x23
 1660 04a3 0C       		.uleb128 0xc
 1661 04a4 13       		.uleb128 0x13
 1662 04a5 C6020000 		.4byte	.LASF65
 1663 04a9 0A       		.byte	0xa
 1664 04aa 3302     		.2byte	0x233
 1665 04ac 3D030000 		.4byte	0x33d
 1666 04b0 02       		.byte	0x2
 1667 04b1 23       		.byte	0x23
 1668 04b2 10       		.uleb128 0x10
 1669 04b3 13       		.uleb128 0x13
 1670 04b4 73020000 		.4byte	.LASF66
 1671 04b8 0A       		.byte	0xa
 1672 04b9 3402     		.2byte	0x234
 1673 04bb 3D030000 		.4byte	0x33d
 1674 04bf 02       		.byte	0x2
 1675 04c0 23       		.byte	0x23
 1676 04c1 14       		.uleb128 0x14
 1677 04c2 13       		.uleb128 0x13
 1678 04c3 79020000 		.4byte	.LASF67
 1679 04c7 0A       		.byte	0xa
 1680 04c8 3502     		.2byte	0x235
 1681 04ca 3D030000 		.4byte	0x33d
 1682 04ce 02       		.byte	0x2
 1683 04cf 23       		.byte	0x23
 1684 04d0 18       		.uleb128 0x18
 1685 04d1 13       		.uleb128 0x13
 1686 04d2 7F020000 		.4byte	.LASF68
 1687 04d6 0A       		.byte	0xa
 1688 04d7 3602     		.2byte	0x236
 1689 04d9 3D030000 		.4byte	0x33d
 1690 04dd 02       		.byte	0x2
 1691 04de 23       		.byte	0x23
 1692 04df 1C       		.uleb128 0x1c
 1693 04e0 13       		.uleb128 0x13
 1694 04e1 CE030000 		.4byte	.LASF69
 1695 04e5 0A       		.byte	0xa
 1696 04e6 3702     		.2byte	0x237
 1697 04e8 3D030000 		.4byte	0x33d
 1698 04ec 02       		.byte	0x2
 1699 04ed 23       		.byte	0x23
 1700 04ee 20       		.uleb128 0x20
 1701 04ef 0B       		.uleb128 0xb
 1702 04f0 48545200 		.ascii	"HTR\000"
 1703 04f4 0A       		.byte	0xa
 1704 04f5 3802     		.2byte	0x238
 1705 04f7 3D030000 		.4byte	0x33d
ARM GAS  C:\Users\z80\AppData\Local\Temp\ccoYycsf.s 			page 32


 1706 04fb 02       		.byte	0x2
 1707 04fc 23       		.byte	0x23
 1708 04fd 24       		.uleb128 0x24
 1709 04fe 0B       		.uleb128 0xb
 1710 04ff 4C545200 		.ascii	"LTR\000"
 1711 0503 0A       		.byte	0xa
 1712 0504 3902     		.2byte	0x239
 1713 0506 3D030000 		.4byte	0x33d
 1714 050a 02       		.byte	0x2
 1715 050b 23       		.byte	0x23
 1716 050c 28       		.uleb128 0x28
 1717 050d 13       		.uleb128 0x13
 1718 050e 09030000 		.4byte	.LASF70
 1719 0512 0A       		.byte	0xa
 1720 0513 3A02     		.2byte	0x23a
 1721 0515 3D030000 		.4byte	0x33d
 1722 0519 02       		.byte	0x2
 1723 051a 23       		.byte	0x23
 1724 051b 2C       		.uleb128 0x2c
 1725 051c 13       		.uleb128 0x13
 1726 051d 0E030000 		.4byte	.LASF71
 1727 0521 0A       		.byte	0xa
 1728 0522 3B02     		.2byte	0x23b
 1729 0524 3D030000 		.4byte	0x33d
 1730 0528 02       		.byte	0x2
 1731 0529 23       		.byte	0x23
 1732 052a 30       		.uleb128 0x30
 1733 052b 13       		.uleb128 0x13
 1734 052c 13030000 		.4byte	.LASF72
 1735 0530 0A       		.byte	0xa
 1736 0531 3C02     		.2byte	0x23c
 1737 0533 3D030000 		.4byte	0x33d
 1738 0537 02       		.byte	0x2
 1739 0538 23       		.byte	0x23
 1740 0539 34       		.uleb128 0x34
 1741 053a 13       		.uleb128 0x13
 1742 053b 6B000000 		.4byte	.LASF73
 1743 053f 0A       		.byte	0xa
 1744 0540 3D02     		.2byte	0x23d
 1745 0542 3D030000 		.4byte	0x33d
 1746 0546 02       		.byte	0x2
 1747 0547 23       		.byte	0x23
 1748 0548 38       		.uleb128 0x38
 1749 0549 13       		.uleb128 0x13
 1750 054a C9040000 		.4byte	.LASF74
 1751 054e 0A       		.byte	0xa
 1752 054f 3E02     		.2byte	0x23e
 1753 0551 3D030000 		.4byte	0x33d
 1754 0555 02       		.byte	0x2
 1755 0556 23       		.byte	0x23
 1756 0557 3C       		.uleb128 0x3c
 1757 0558 13       		.uleb128 0x13
 1758 0559 CE040000 		.4byte	.LASF75
 1759 055d 0A       		.byte	0xa
 1760 055e 3F02     		.2byte	0x23f
 1761 0560 3D030000 		.4byte	0x33d
 1762 0564 02       		.byte	0x2
ARM GAS  C:\Users\z80\AppData\Local\Temp\ccoYycsf.s 			page 33


 1763 0565 23       		.byte	0x23
 1764 0566 40       		.uleb128 0x40
 1765 0567 13       		.uleb128 0x13
 1766 0568 D3040000 		.4byte	.LASF76
 1767 056c 0A       		.byte	0xa
 1768 056d 4002     		.2byte	0x240
 1769 056f 3D030000 		.4byte	0x33d
 1770 0573 02       		.byte	0x2
 1771 0574 23       		.byte	0x23
 1772 0575 44       		.uleb128 0x44
 1773 0576 13       		.uleb128 0x13
 1774 0577 D8040000 		.4byte	.LASF77
 1775 057b 0A       		.byte	0xa
 1776 057c 4102     		.2byte	0x241
 1777 057e 3D030000 		.4byte	0x33d
 1778 0582 02       		.byte	0x2
 1779 0583 23       		.byte	0x23
 1780 0584 48       		.uleb128 0x48
 1781 0585 0B       		.uleb128 0xb
 1782 0586 445200   		.ascii	"DR\000"
 1783 0589 0A       		.byte	0xa
 1784 058a 4202     		.2byte	0x242
 1785 058c 3D030000 		.4byte	0x33d
 1786 0590 02       		.byte	0x2
 1787 0591 23       		.byte	0x23
 1788 0592 4C       		.uleb128 0x4c
 1789 0593 00       		.byte	0x0
 1790 0594 14       		.uleb128 0x14
 1791 0595 09010000 		.4byte	.LASF78
 1792 0599 0A       		.byte	0xa
 1793 059a 4302     		.2byte	0x243
 1794 059c 60040000 		.4byte	0x460
 1795 05a0 12       		.uleb128 0x12
 1796 05a1 10       		.byte	0x10
 1797 05a2 0A       		.byte	0xa
 1798 05a3 2D03     		.2byte	0x32d
 1799 05a5 E6050000 		.4byte	0x5e6
 1800 05a9 0B       		.uleb128 0xb
 1801 05aa 43435200 		.ascii	"CCR\000"
 1802 05ae 0A       		.byte	0xa
 1803 05af 2F03     		.2byte	0x32f
 1804 05b1 3D030000 		.4byte	0x33d
 1805 05b5 02       		.byte	0x2
 1806 05b6 23       		.byte	0x23
 1807 05b7 00       		.uleb128 0x0
 1808 05b8 13       		.uleb128 0x13
 1809 05b9 89040000 		.4byte	.LASF79
 1810 05bd 0A       		.byte	0xa
 1811 05be 3003     		.2byte	0x330
 1812 05c0 3D030000 		.4byte	0x33d
 1813 05c4 02       		.byte	0x2
 1814 05c5 23       		.byte	0x23
 1815 05c6 04       		.uleb128 0x4
 1816 05c7 13       		.uleb128 0x13
 1817 05c8 BD010000 		.4byte	.LASF80
 1818 05cc 0A       		.byte	0xa
 1819 05cd 3103     		.2byte	0x331
ARM GAS  C:\Users\z80\AppData\Local\Temp\ccoYycsf.s 			page 34


 1820 05cf 3D030000 		.4byte	0x33d
 1821 05d3 02       		.byte	0x2
 1822 05d4 23       		.byte	0x23
 1823 05d5 08       		.uleb128 0x8
 1824 05d6 13       		.uleb128 0x13
 1825 05d7 21040000 		.4byte	.LASF81
 1826 05db 0A       		.byte	0xa
 1827 05dc 3203     		.2byte	0x332
 1828 05de 3D030000 		.4byte	0x33d
 1829 05e2 02       		.byte	0x2
 1830 05e3 23       		.byte	0x23
 1831 05e4 0C       		.uleb128 0xc
 1832 05e5 00       		.byte	0x0
 1833 05e6 14       		.uleb128 0x14
 1834 05e7 DC010000 		.4byte	.LASF82
 1835 05eb 0A       		.byte	0xa
 1836 05ec 3303     		.2byte	0x333
 1837 05ee A0050000 		.4byte	0x5a0
 1838 05f2 08       		.uleb128 0x8
 1839 05f3 0C       		.byte	0xc
 1840 05f4 0B       		.byte	0xb
 1841 05f5 C2       		.byte	0xc2
 1842 05f6 41060000 		.4byte	0x641
 1843 05fa 06       		.uleb128 0x6
 1844 05fb D4030000 		.4byte	.LASF83
 1845 05ff 0B       		.byte	0xb
 1846 0600 C3       		.byte	0xc3
 1847 0601 41060000 		.4byte	0x641
 1848 0605 02       		.byte	0x2
 1849 0606 23       		.byte	0x23
 1850 0607 00       		.uleb128 0x0
 1851 0608 06       		.uleb128 0x6
 1852 0609 E7030000 		.4byte	.LASF84
 1853 060d 0B       		.byte	0xb
 1854 060e C4       		.byte	0xc4
 1855 060f 47060000 		.4byte	0x647
 1856 0613 02       		.byte	0x2
 1857 0614 23       		.byte	0x23
 1858 0615 04       		.uleb128 0x4
 1859 0616 06       		.uleb128 0x6
 1860 0617 F0010000 		.4byte	.LASF85
 1861 061b 0B       		.byte	0xb
 1862 061c C5       		.byte	0xc5
 1863 061d 49000000 		.4byte	0x49
 1864 0621 02       		.byte	0x2
 1865 0622 23       		.byte	0x23
 1866 0623 08       		.uleb128 0x8
 1867 0624 06       		.uleb128 0x6
 1868 0625 64010000 		.4byte	.LASF86
 1869 0629 0B       		.byte	0xb
 1870 062a C7       		.byte	0xc7
 1871 062b 49000000 		.4byte	0x49
 1872 062f 02       		.byte	0x2
 1873 0630 23       		.byte	0x23
 1874 0631 09       		.uleb128 0x9
 1875 0632 06       		.uleb128 0x6
 1876 0633 49000000 		.4byte	.LASF87
ARM GAS  C:\Users\z80\AppData\Local\Temp\ccoYycsf.s 			page 35


 1877 0637 0B       		.byte	0xb
 1878 0638 C8       		.byte	0xc8
 1879 0639 49000000 		.4byte	0x49
 1880 063d 02       		.byte	0x2
 1881 063e 23       		.byte	0x23
 1882 063f 0A       		.uleb128 0xa
 1883 0640 00       		.byte	0x0
 1884 0641 09       		.uleb128 0x9
 1885 0642 04       		.byte	0x4
 1886 0643 E6050000 		.4byte	0x5e6
 1887 0647 09       		.uleb128 0x9
 1888 0648 04       		.byte	0x4
 1889 0649 3D030000 		.4byte	0x33d
 1890 064d 03       		.uleb128 0x3
 1891 064e 33030000 		.4byte	.LASF88
 1892 0652 0B       		.byte	0xb
 1893 0653 C9       		.byte	0xc9
 1894 0654 F2050000 		.4byte	0x5f2
 1895 0658 15       		.uleb128 0x15
 1896 0659 01       		.byte	0x1
 1897 065a 0C       		.byte	0xc
 1898 065b 55       		.byte	0x55
 1899 065c 85060000 		.4byte	0x685
 1900 0660 16       		.uleb128 0x16
 1901 0661 7B010000 		.4byte	.LASF89
 1902 0665 00       		.sleb128 0
 1903 0666 16       		.uleb128 0x16
 1904 0667 93020000 		.4byte	.LASF90
 1905 066b 01       		.sleb128 1
 1906 066c 16       		.uleb128 0x16
 1907 066d 0A020000 		.4byte	.LASF91
 1908 0671 02       		.sleb128 2
 1909 0672 16       		.uleb128 0x16
 1910 0673 86010000 		.4byte	.LASF92
 1911 0677 03       		.sleb128 3
 1912 0678 16       		.uleb128 0x16
 1913 0679 F0040000 		.4byte	.LASF93
 1914 067d 04       		.sleb128 4
 1915 067e 16       		.uleb128 0x16
 1916 067f 6C040000 		.4byte	.LASF94
 1917 0683 05       		.sleb128 5
 1918 0684 00       		.byte	0x0
 1919 0685 03       		.uleb128 0x3
 1920 0686 16000000 		.4byte	.LASF95
 1921 068a 0C       		.byte	0xc
 1922 068b 5C       		.byte	0x5c
 1923 068c 58060000 		.4byte	0x658
 1924 0690 03       		.uleb128 0x3
 1925 0691 3D010000 		.4byte	.LASF96
 1926 0695 0D       		.byte	0xd
 1927 0696 92       		.byte	0x92
 1928 0697 62000000 		.4byte	0x62
 1929 069b 03       		.uleb128 0x3
 1930 069c 04050000 		.4byte	.LASF97
 1931 06a0 0D       		.byte	0xd
 1932 06a1 97       		.byte	0x97
 1933 06a2 62000000 		.4byte	0x62
ARM GAS  C:\Users\z80\AppData\Local\Temp\ccoYycsf.s 			page 36


 1934 06a6 15       		.uleb128 0x15
 1935 06a7 01       		.byte	0x1
 1936 06a8 0D       		.byte	0xd
 1937 06a9 9E       		.byte	0x9e
 1938 06aa B5060000 		.4byte	0x6b5
 1939 06ae 16       		.uleb128 0x16
 1940 06af C3000000 		.4byte	.LASF98
 1941 06b3 00       		.sleb128 0
 1942 06b4 00       		.byte	0x0
 1943 06b5 03       		.uleb128 0x3
 1944 06b6 99000000 		.4byte	.LASF99
 1945 06ba 0D       		.byte	0xd
 1946 06bb A0       		.byte	0xa0
 1947 06bc A6060000 		.4byte	0x6a6
 1948 06c0 03       		.uleb128 0x3
 1949 06c1 CD010000 		.4byte	.LASF100
 1950 06c5 0D       		.byte	0xd
 1951 06c6 A5       		.byte	0xa5
 1952 06c7 CB060000 		.4byte	0x6cb
 1953 06cb 0C       		.uleb128 0xc
 1954 06cc CD010000 		.4byte	.LASF100
 1955 06d0 34       		.byte	0x34
 1956 06d1 0D       		.byte	0xd
 1957 06d2 0901     		.2byte	0x109
 1958 06d4 6F070000 		.4byte	0x76f
 1959 06d8 13       		.uleb128 0x13
 1960 06d9 AB000000 		.4byte	.LASF101
 1961 06dd 0D       		.byte	0xd
 1962 06de 0D01     		.2byte	0x10d
 1963 06e0 85060000 		.4byte	0x685
 1964 06e4 02       		.byte	0x2
 1965 06e5 23       		.byte	0x23
 1966 06e6 00       		.uleb128 0x0
 1967 06e7 13       		.uleb128 0x13
 1968 06e8 1A040000 		.4byte	.LASF102
 1969 06ec 0D       		.byte	0xd
 1970 06ed 1101     		.2byte	0x111
 1971 06ef 97080000 		.4byte	0x897
 1972 06f3 02       		.byte	0x2
 1973 06f4 23       		.byte	0x23
 1974 06f5 04       		.uleb128 0x4
 1975 06f6 13       		.uleb128 0x13
 1976 06f7 85020000 		.4byte	.LASF103
 1977 06fb 0D       		.byte	0xd
 1978 06fc 1501     		.2byte	0x115
 1979 06fe 9C070000 		.4byte	0x79c
 1980 0702 02       		.byte	0x2
 1981 0703 23       		.byte	0x23
 1982 0704 08       		.uleb128 0x8
 1983 0705 13       		.uleb128 0x13
 1984 0706 14020000 		.4byte	.LASF104
 1985 070a 0D       		.byte	0xd
 1986 070b 1901     		.2byte	0x119
 1987 070d 30000000 		.4byte	0x30
 1988 0711 02       		.byte	0x2
 1989 0712 23       		.byte	0x23
 1990 0713 0C       		.uleb128 0xc
ARM GAS  C:\Users\z80\AppData\Local\Temp\ccoYycsf.s 			page 37


 1991 0714 13       		.uleb128 0x13
 1992 0715 6E020000 		.4byte	.LASF105
 1993 0719 0D       		.byte	0xd
 1994 071a 1D01     		.2byte	0x11d
 1995 071c A2080000 		.4byte	0x8a2
 1996 0720 02       		.byte	0x2
 1997 0721 23       		.byte	0x23
 1998 0722 10       		.uleb128 0x10
 1999 0723 13       		.uleb128 0x13
 2000 0724 F2000000 		.4byte	.LASF106
 2001 0728 0D       		.byte	0xd
 2002 0729 2201     		.2byte	0x122
 2003 072b 42020000 		.4byte	0x242
 2004 072f 02       		.byte	0x2
 2005 0730 23       		.byte	0x23
 2006 0731 14       		.uleb128 0x14
 2007 0732 13       		.uleb128 0x13
 2008 0733 4E030000 		.4byte	.LASF107
 2009 0737 0D       		.byte	0xd
 2010 0738 2901     		.2byte	0x129
 2011 073a FD030000 		.4byte	0x3fd
 2012 073e 02       		.byte	0x2
 2013 073f 23       		.byte	0x23
 2014 0740 18       		.uleb128 0x18
 2015 0741 0B       		.uleb128 0xb
 2016 0742 61646300 		.ascii	"adc\000"
 2017 0746 0D       		.byte	0xd
 2018 0747 3501     		.2byte	0x135
 2019 0749 AD080000 		.4byte	0x8ad
 2020 074d 02       		.byte	0x2
 2021 074e 23       		.byte	0x23
 2022 074f 28       		.uleb128 0x28
 2023 0750 13       		.uleb128 0x13
 2024 0751 A4000000 		.4byte	.LASF108
 2025 0755 0D       		.byte	0xd
 2026 0756 3901     		.2byte	0x139
 2027 0758 B3080000 		.4byte	0x8b3
 2028 075c 02       		.byte	0x2
 2029 075d 23       		.byte	0x23
 2030 075e 2C       		.uleb128 0x2c
 2031 075f 13       		.uleb128 0x13
 2032 0760 0E000000 		.4byte	.LASF109
 2033 0764 0D       		.byte	0xd
 2034 0765 3D01     		.2byte	0x13d
 2035 0767 86000000 		.4byte	0x86
 2036 076b 02       		.byte	0x2
 2037 076c 23       		.byte	0x23
 2038 076d 30       		.uleb128 0x30
 2039 076e 00       		.byte	0x0
 2040 076f 03       		.uleb128 0x3
 2041 0770 24010000 		.4byte	.LASF110
 2042 0774 0D       		.byte	0xd
 2043 0775 AF       		.byte	0xaf
 2044 0776 7A070000 		.4byte	0x77a
 2045 077a 09       		.uleb128 0x9
 2046 077b 04       		.byte	0x4
 2047 077c 80070000 		.4byte	0x780
ARM GAS  C:\Users\z80\AppData\Local\Temp\ccoYycsf.s 			page 38


 2048 0780 17       		.uleb128 0x17
 2049 0781 01       		.byte	0x1
 2050 0782 96070000 		.4byte	0x796
 2051 0786 18       		.uleb128 0x18
 2052 0787 96070000 		.4byte	0x796
 2053 078b 18       		.uleb128 0x18
 2054 078c 9C070000 		.4byte	0x79c
 2055 0790 18       		.uleb128 0x18
 2056 0791 30000000 		.4byte	0x30
 2057 0795 00       		.byte	0x0
 2058 0796 09       		.uleb128 0x9
 2059 0797 04       		.byte	0x4
 2060 0798 C0060000 		.4byte	0x6c0
 2061 079c 09       		.uleb128 0x9
 2062 079d 04       		.byte	0x4
 2063 079e 90060000 		.4byte	0x690
 2064 07a2 03       		.uleb128 0x3
 2065 07a3 D6000000 		.4byte	.LASF111
 2066 07a7 0D       		.byte	0xd
 2067 07a8 B8       		.byte	0xb8
 2068 07a9 AD070000 		.4byte	0x7ad
 2069 07ad 09       		.uleb128 0x9
 2070 07ae 04       		.byte	0x4
 2071 07af B3070000 		.4byte	0x7b3
 2072 07b3 17       		.uleb128 0x17
 2073 07b4 01       		.byte	0x1
 2074 07b5 C4070000 		.4byte	0x7c4
 2075 07b9 18       		.uleb128 0x18
 2076 07ba 96070000 		.4byte	0x796
 2077 07be 18       		.uleb128 0x18
 2078 07bf B5060000 		.4byte	0x6b5
 2079 07c3 00       		.byte	0x0
 2080 07c4 08       		.uleb128 0x8
 2081 07c5 2C       		.byte	0x2c
 2082 07c6 0D       		.byte	0xd
 2083 07c7 C2       		.byte	0xc2
 2084 07c8 67080000 		.4byte	0x867
 2085 07cc 06       		.uleb128 0x6
 2086 07cd B1000000 		.4byte	.LASF112
 2087 07d1 0D       		.byte	0xd
 2088 07d2 C6       		.byte	0xc6
 2089 07d3 B1000000 		.4byte	0xb1
 2090 07d7 02       		.byte	0x2
 2091 07d8 23       		.byte	0x23
 2092 07d9 00       		.uleb128 0x0
 2093 07da 06       		.uleb128 0x6
 2094 07db 28020000 		.4byte	.LASF113
 2095 07df 0D       		.byte	0xd
 2096 07e0 CA       		.byte	0xca
 2097 07e1 9B060000 		.4byte	0x69b
 2098 07e5 02       		.byte	0x2
 2099 07e6 23       		.byte	0x23
 2100 07e7 04       		.uleb128 0x4
 2101 07e8 06       		.uleb128 0x6
 2102 07e9 1D010000 		.4byte	.LASF114
 2103 07ed 0D       		.byte	0xd
 2104 07ee CE       		.byte	0xce
ARM GAS  C:\Users\z80\AppData\Local\Temp\ccoYycsf.s 			page 39


 2105 07ef 6F070000 		.4byte	0x76f
 2106 07f3 02       		.byte	0x2
 2107 07f4 23       		.byte	0x23
 2108 07f5 08       		.uleb128 0x8
 2109 07f6 06       		.uleb128 0x6
 2110 07f7 A8030000 		.4byte	.LASF115
 2111 07fb 0D       		.byte	0xd
 2112 07fc D2       		.byte	0xd2
 2113 07fd A2070000 		.4byte	0x7a2
 2114 0801 02       		.byte	0x2
 2115 0802 23       		.byte	0x23
 2116 0803 0C       		.uleb128 0xc
 2117 0804 07       		.uleb128 0x7
 2118 0805 63723100 		.ascii	"cr1\000"
 2119 0809 0D       		.byte	0xd
 2120 080a D9       		.byte	0xd9
 2121 080b 86000000 		.4byte	0x86
 2122 080f 02       		.byte	0x2
 2123 0810 23       		.byte	0x23
 2124 0811 10       		.uleb128 0x10
 2125 0812 07       		.uleb128 0x7
 2126 0813 63723200 		.ascii	"cr2\000"
 2127 0817 0D       		.byte	0xd
 2128 0818 E0       		.byte	0xe0
 2129 0819 86000000 		.4byte	0x86
 2130 081d 02       		.byte	0x2
 2131 081e 23       		.byte	0x23
 2132 081f 14       		.uleb128 0x14
 2133 0820 06       		.uleb128 0x6
 2134 0821 FD030000 		.4byte	.LASF116
 2135 0825 0D       		.byte	0xd
 2136 0826 E6       		.byte	0xe6
 2137 0827 86000000 		.4byte	0x86
 2138 082b 02       		.byte	0x2
 2139 082c 23       		.byte	0x23
 2140 082d 18       		.uleb128 0x18
 2141 082e 06       		.uleb128 0x6
 2142 082f 8F040000 		.4byte	.LASF117
 2143 0833 0D       		.byte	0xd
 2144 0834 EC       		.byte	0xec
 2145 0835 86000000 		.4byte	0x86
 2146 0839 02       		.byte	0x2
 2147 083a 23       		.byte	0x23
 2148 083b 1C       		.uleb128 0x1c
 2149 083c 06       		.uleb128 0x6
 2150 083d 26040000 		.4byte	.LASF118
 2151 0841 0D       		.byte	0xd
 2152 0842 F1       		.byte	0xf1
 2153 0843 86000000 		.4byte	0x86
 2154 0847 02       		.byte	0x2
 2155 0848 23       		.byte	0x23
 2156 0849 20       		.uleb128 0x20
 2157 084a 06       		.uleb128 0x6
 2158 084b 2B040000 		.4byte	.LASF119
 2159 084f 0D       		.byte	0xd
 2160 0850 F6       		.byte	0xf6
 2161 0851 86000000 		.4byte	0x86
ARM GAS  C:\Users\z80\AppData\Local\Temp\ccoYycsf.s 			page 40


 2162 0855 02       		.byte	0x2
 2163 0856 23       		.byte	0x23
 2164 0857 24       		.uleb128 0x24
 2165 0858 06       		.uleb128 0x6
 2166 0859 30040000 		.4byte	.LASF120
 2167 085d 0D       		.byte	0xd
 2168 085e FB       		.byte	0xfb
 2169 085f 86000000 		.4byte	0x86
 2170 0863 02       		.byte	0x2
 2171 0864 23       		.byte	0x23
 2172 0865 28       		.uleb128 0x28
 2173 0866 00       		.byte	0x0
 2174 0867 03       		.uleb128 0x3
 2175 0868 B6040000 		.4byte	.LASF121
 2176 086c 0D       		.byte	0xd
 2177 086d FC       		.byte	0xfc
 2178 086e C4070000 		.4byte	0x7c4
 2179 0872 12       		.uleb128 0x12
 2180 0873 04       		.byte	0x4
 2181 0874 0D       		.byte	0xd
 2182 0875 0201     		.2byte	0x102
 2183 0877 8B080000 		.4byte	0x88b
 2184 087b 13       		.uleb128 0x13
 2185 087c 6E010000 		.4byte	.LASF122
 2186 0880 0D       		.byte	0xd
 2187 0881 0301     		.2byte	0x103
 2188 0883 86000000 		.4byte	0x86
 2189 0887 02       		.byte	0x2
 2190 0888 23       		.byte	0x23
 2191 0889 00       		.uleb128 0x0
 2192 088a 00       		.byte	0x0
 2193 088b 14       		.uleb128 0x14
 2194 088c 51010000 		.4byte	.LASF123
 2195 0890 0D       		.byte	0xd
 2196 0891 0401     		.2byte	0x104
 2197 0893 72080000 		.4byte	0x872
 2198 0897 09       		.uleb128 0x9
 2199 0898 04       		.byte	0x4
 2200 0899 9D080000 		.4byte	0x89d
 2201 089d 11       		.uleb128 0x11
 2202 089e 8B080000 		.4byte	0x88b
 2203 08a2 09       		.uleb128 0x9
 2204 08a3 04       		.byte	0x4
 2205 08a4 A8080000 		.4byte	0x8a8
 2206 08a8 11       		.uleb128 0x11
 2207 08a9 67080000 		.4byte	0x867
 2208 08ad 09       		.uleb128 0x9
 2209 08ae 04       		.byte	0x4
 2210 08af 94050000 		.4byte	0x594
 2211 08b3 09       		.uleb128 0x9
 2212 08b4 04       		.byte	0x4
 2213 08b5 B9080000 		.4byte	0x8b9
 2214 08b9 11       		.uleb128 0x11
 2215 08ba 4D060000 		.4byte	0x64d
 2216 08be 19       		.uleb128 0x19
 2217 08bf 01       		.byte	0x1
 2218 08c0 4D020000 		.4byte	.LASF139
ARM GAS  C:\Users\z80\AppData\Local\Temp\ccoYycsf.s 			page 41


 2219 08c4 01       		.byte	0x1
 2220 08c5 44       		.byte	0x44
 2221 08c6 01       		.byte	0x1
 2222 08c7 00000000 		.4byte	.LFB62
 2223 08cb 08000000 		.4byte	.LFE62
 2224 08cf 00000000 		.4byte	.LLST0
 2225 08d3 1A       		.uleb128 0x1a
 2226 08d4 01       		.byte	0x1
 2227 08d5 AF010000 		.4byte	.LASF124
 2228 08d9 01       		.byte	0x1
 2229 08da 50       		.byte	0x50
 2230 08db 01       		.byte	0x1
 2231 08dc 00000000 		.4byte	.LFB63
 2232 08e0 46000000 		.4byte	.LFE63
 2233 08e4 20000000 		.4byte	.LLST1
 2234 08e8 FB080000 		.4byte	0x8fb
 2235 08ec 1B       		.uleb128 0x1b
 2236 08ed D7010000 		.4byte	.LASF126
 2237 08f1 01       		.byte	0x1
 2238 08f2 50       		.byte	0x50
 2239 08f3 96070000 		.4byte	0x796
 2240 08f7 02       		.byte	0x2
 2241 08f8 91       		.byte	0x91
 2242 08f9 74       		.sleb128 -12
 2243 08fa 00       		.byte	0x0
 2244 08fb 1A       		.uleb128 0x1a
 2245 08fc 01       		.byte	0x1
 2246 08fd 76040000 		.4byte	.LASF125
 2247 0901 01       		.byte	0x1
 2248 0902 6F       		.byte	0x6f
 2249 0903 01       		.byte	0x1
 2250 0904 00000000 		.4byte	.LFB64
 2251 0908 66000000 		.4byte	.LFE64
 2252 090c 4C000000 		.4byte	.LLST2
 2253 0910 63090000 		.4byte	0x963
 2254 0914 1B       		.uleb128 0x1b
 2255 0915 D7010000 		.4byte	.LASF126
 2256 0919 01       		.byte	0x1
 2257 091a 6F       		.byte	0x6f
 2258 091b 96070000 		.4byte	0x796
 2259 091f 02       		.byte	0x2
 2260 0920 91       		.byte	0x91
 2261 0921 74       		.sleb128 -12
 2262 0922 1B       		.uleb128 0x1b
 2263 0923 1A040000 		.4byte	.LASF102
 2264 0927 01       		.byte	0x1
 2265 0928 6F       		.byte	0x6f
 2266 0929 97080000 		.4byte	0x897
 2267 092d 02       		.byte	0x2
 2268 092e 91       		.byte	0x91
 2269 092f 70       		.sleb128 -16
 2270 0930 1C       		.uleb128 0x1c
 2271 0931 1A000000 		.4byte	.LBB2
 2272 0935 22000000 		.4byte	.LBE2
 2273 0939 4B090000 		.4byte	0x94b
 2274 093d 1D       		.uleb128 0x1d
 2275 093e 746D7000 		.ascii	"tmp\000"
ARM GAS  C:\Users\z80\AppData\Local\Temp\ccoYycsf.s 			page 42


 2276 0942 01       		.byte	0x1
 2277 0943 73       		.byte	0x73
 2278 0944 86000000 		.4byte	0x86
 2279 0948 01       		.byte	0x1
 2280 0949 53       		.byte	0x53
 2281 094a 00       		.byte	0x0
 2282 094b 1E       		.uleb128 0x1e
 2283 094c 5A000000 		.4byte	.LBB3
 2284 0950 62000000 		.4byte	.LBE3
 2285 0954 1D       		.uleb128 0x1d
 2286 0955 746D7000 		.ascii	"tmp\000"
 2287 0959 01       		.byte	0x1
 2288 095a 79       		.byte	0x79
 2289 095b 86000000 		.4byte	0x86
 2290 095f 01       		.byte	0x1
 2291 0960 53       		.byte	0x53
 2292 0961 00       		.byte	0x0
 2293 0962 00       		.byte	0x0
 2294 0963 1A       		.uleb128 0x1a
 2295 0964 01       		.byte	0x1
 2296 0965 21000000 		.4byte	.LASF127
 2297 0969 01       		.byte	0x1
 2298 096a 83       		.byte	0x83
 2299 096b 01       		.byte	0x1
 2300 096c 00000000 		.4byte	.LFB65
 2301 0970 5E000000 		.4byte	.LFE65
 2302 0974 78000000 		.4byte	.LLST3
 2303 0978 BD090000 		.4byte	0x9bd
 2304 097c 1B       		.uleb128 0x1b
 2305 097d D7010000 		.4byte	.LASF126
 2306 0981 01       		.byte	0x1
 2307 0982 83       		.byte	0x83
 2308 0983 96070000 		.4byte	0x796
 2309 0987 02       		.byte	0x2
 2310 0988 91       		.byte	0x91
 2311 0989 74       		.sleb128 -12
 2312 098a 1C       		.uleb128 0x1c
 2313 098b 18000000 		.4byte	.LBB4
 2314 098f 20000000 		.4byte	.LBE4
 2315 0993 A5090000 		.4byte	0x9a5
 2316 0997 1D       		.uleb128 0x1d
 2317 0998 746D7000 		.ascii	"tmp\000"
 2318 099c 01       		.byte	0x1
 2319 099d 87       		.byte	0x87
 2320 099e 86000000 		.4byte	0x86
 2321 09a2 01       		.byte	0x1
 2322 09a3 53       		.byte	0x53
 2323 09a4 00       		.byte	0x0
 2324 09a5 1E       		.uleb128 0x1e
 2325 09a6 52000000 		.4byte	.LBB5
 2326 09aa 5A000000 		.4byte	.LBE5
 2327 09ae 1D       		.uleb128 0x1d
 2328 09af 746D7000 		.ascii	"tmp\000"
 2329 09b3 01       		.byte	0x1
 2330 09b4 8C       		.byte	0x8c
 2331 09b5 86000000 		.4byte	0x86
 2332 09b9 01       		.byte	0x1
ARM GAS  C:\Users\z80\AppData\Local\Temp\ccoYycsf.s 			page 43


 2333 09ba 53       		.byte	0x53
 2334 09bb 00       		.byte	0x0
 2335 09bc 00       		.byte	0x0
 2336 09bd 1A       		.uleb128 0x1a
 2337 09be 01       		.byte	0x1
 2338 09bf 52040000 		.4byte	.LASF128
 2339 09c3 01       		.byte	0x1
 2340 09c4 9F       		.byte	0x9f
 2341 09c5 01       		.byte	0x1
 2342 09c6 00000000 		.4byte	.LFB66
 2343 09ca 34000000 		.4byte	.LFE66
 2344 09ce A4000000 		.4byte	.LLST4
 2345 09d2 410A0000 		.4byte	0xa41
 2346 09d6 1B       		.uleb128 0x1b
 2347 09d7 D7010000 		.4byte	.LASF126
 2348 09db 01       		.byte	0x1
 2349 09dc 9F       		.byte	0x9f
 2350 09dd 96070000 		.4byte	0x796
 2351 09e1 02       		.byte	0x2
 2352 09e2 91       		.byte	0x91
 2353 09e3 74       		.sleb128 -12
 2354 09e4 1B       		.uleb128 0x1b
 2355 09e5 6E020000 		.4byte	.LASF105
 2356 09e9 01       		.byte	0x1
 2357 09ea A0       		.byte	0xa0
 2358 09eb A2080000 		.4byte	0x8a2
 2359 09ef 02       		.byte	0x2
 2360 09f0 91       		.byte	0x91
 2361 09f1 70       		.sleb128 -16
 2362 09f2 1B       		.uleb128 0x1b
 2363 09f3 85020000 		.4byte	.LASF103
 2364 09f7 01       		.byte	0x1
 2365 09f8 A1       		.byte	0xa1
 2366 09f9 9C070000 		.4byte	0x79c
 2367 09fd 02       		.byte	0x2
 2368 09fe 91       		.byte	0x91
 2369 09ff 6C       		.sleb128 -20
 2370 0a00 1B       		.uleb128 0x1b
 2371 0a01 14020000 		.4byte	.LASF104
 2372 0a05 01       		.byte	0x1
 2373 0a06 A2       		.byte	0xa2
 2374 0a07 30000000 		.4byte	0x30
 2375 0a0b 02       		.byte	0x2
 2376 0a0c 91       		.byte	0x91
 2377 0a0d 68       		.sleb128 -24
 2378 0a0e 1C       		.uleb128 0x1c
 2379 0a0f 0C000000 		.4byte	.LBB6
 2380 0a13 14000000 		.4byte	.LBE6
 2381 0a17 290A0000 		.4byte	0xa29
 2382 0a1b 1D       		.uleb128 0x1d
 2383 0a1c 746D7000 		.ascii	"tmp\000"
 2384 0a20 01       		.byte	0x1
 2385 0a21 A4       		.byte	0xa4
 2386 0a22 86000000 		.4byte	0x86
 2387 0a26 01       		.byte	0x1
 2388 0a27 53       		.byte	0x53
 2389 0a28 00       		.byte	0x0
ARM GAS  C:\Users\z80\AppData\Local\Temp\ccoYycsf.s 			page 44


 2390 0a29 1E       		.uleb128 0x1e
 2391 0a2a 28000000 		.4byte	.LBB7
 2392 0a2e 30000000 		.4byte	.LBE7
 2393 0a32 1D       		.uleb128 0x1d
 2394 0a33 746D7000 		.ascii	"tmp\000"
 2395 0a37 01       		.byte	0x1
 2396 0a38 A6       		.byte	0xa6
 2397 0a39 86000000 		.4byte	0x86
 2398 0a3d 01       		.byte	0x1
 2399 0a3e 53       		.byte	0x53
 2400 0a3f 00       		.byte	0x0
 2401 0a40 00       		.byte	0x0
 2402 0a41 1A       		.uleb128 0x1a
 2403 0a42 01       		.byte	0x1
 2404 0a43 18030000 		.4byte	.LASF129
 2405 0a47 01       		.byte	0x1
 2406 0a48 BB       		.byte	0xbb
 2407 0a49 01       		.byte	0x1
 2408 0a4a 00000000 		.4byte	.LFB67
 2409 0a4e 88000000 		.4byte	.LFE67
 2410 0a52 D0000000 		.4byte	.LLST5
 2411 0a56 930A0000 		.4byte	0xa93
 2412 0a5a 1B       		.uleb128 0x1b
 2413 0a5b D7010000 		.4byte	.LASF126
 2414 0a5f 01       		.byte	0x1
 2415 0a60 BB       		.byte	0xbb
 2416 0a61 96070000 		.4byte	0x796
 2417 0a65 02       		.byte	0x2
 2418 0a66 91       		.byte	0x91
 2419 0a67 74       		.sleb128 -12
 2420 0a68 1B       		.uleb128 0x1b
 2421 0a69 6E020000 		.4byte	.LASF105
 2422 0a6d 01       		.byte	0x1
 2423 0a6e BC       		.byte	0xbc
 2424 0a6f A2080000 		.4byte	0x8a2
 2425 0a73 02       		.byte	0x2
 2426 0a74 91       		.byte	0x91
 2427 0a75 70       		.sleb128 -16
 2428 0a76 1B       		.uleb128 0x1b
 2429 0a77 85020000 		.4byte	.LASF103
 2430 0a7b 01       		.byte	0x1
 2431 0a7c BD       		.byte	0xbd
 2432 0a7d 9C070000 		.4byte	0x79c
 2433 0a81 02       		.byte	0x2
 2434 0a82 91       		.byte	0x91
 2435 0a83 6C       		.sleb128 -20
 2436 0a84 1B       		.uleb128 0x1b
 2437 0a85 14020000 		.4byte	.LASF104
 2438 0a89 01       		.byte	0x1
 2439 0a8a BE       		.byte	0xbe
 2440 0a8b 30000000 		.4byte	0x30
 2441 0a8f 02       		.byte	0x2
 2442 0a90 91       		.byte	0x91
 2443 0a91 68       		.sleb128 -24
 2444 0a92 00       		.byte	0x0
 2445 0a93 1A       		.uleb128 0x1a
 2446 0a94 01       		.byte	0x1
ARM GAS  C:\Users\z80\AppData\Local\Temp\ccoYycsf.s 			page 45


 2447 0a95 27050000 		.4byte	.LASF130
 2448 0a99 01       		.byte	0x1
 2449 0a9a DA       		.byte	0xda
 2450 0a9b 01       		.byte	0x1
 2451 0a9c 00000000 		.4byte	.LFB68
 2452 0aa0 8E000000 		.4byte	.LFE68
 2453 0aa4 FC000000 		.4byte	.LLST6
 2454 0aa8 080B0000 		.4byte	0xb08
 2455 0aac 1B       		.uleb128 0x1b
 2456 0aad D7010000 		.4byte	.LASF126
 2457 0ab1 01       		.byte	0x1
 2458 0ab2 DA       		.byte	0xda
 2459 0ab3 96070000 		.4byte	0x796
 2460 0ab7 02       		.byte	0x2
 2461 0ab8 91       		.byte	0x91
 2462 0ab9 6C       		.sleb128 -20
 2463 0aba 1C       		.uleb128 0x1c
 2464 0abb 18000000 		.4byte	.LBB8
 2465 0abf 20000000 		.4byte	.LBE8
 2466 0ac3 D50A0000 		.4byte	0xad5
 2467 0ac7 1D       		.uleb128 0x1d
 2468 0ac8 746D7000 		.ascii	"tmp\000"
 2469 0acc 01       		.byte	0x1
 2470 0acd DE       		.byte	0xde
 2471 0ace 86000000 		.4byte	0x86
 2472 0ad2 01       		.byte	0x1
 2473 0ad3 53       		.byte	0x53
 2474 0ad4 00       		.byte	0x0
 2475 0ad5 1C       		.uleb128 0x1c
 2476 0ad6 66000000 		.4byte	.LBB9
 2477 0ada 7E000000 		.4byte	.LBE9
 2478 0ade F00A0000 		.4byte	0xaf0
 2479 0ae2 1D       		.uleb128 0x1d
 2480 0ae3 747000   		.ascii	"tp\000"
 2481 0ae6 01       		.byte	0x1
 2482 0ae7 E6       		.byte	0xe6
 2483 0ae8 42020000 		.4byte	0x242
 2484 0aec 02       		.byte	0x2
 2485 0aed 91       		.byte	0x91
 2486 0aee 74       		.sleb128 -12
 2487 0aef 00       		.byte	0x0
 2488 0af0 1E       		.uleb128 0x1e
 2489 0af1 82000000 		.4byte	.LBB10
 2490 0af5 8A000000 		.4byte	.LBE10
 2491 0af9 1D       		.uleb128 0x1d
 2492 0afa 746D7000 		.ascii	"tmp\000"
 2493 0afe 01       		.byte	0x1
 2494 0aff E8       		.byte	0xe8
 2495 0b00 86000000 		.4byte	0x86
 2496 0b04 01       		.byte	0x1
 2497 0b05 53       		.byte	0x53
 2498 0b06 00       		.byte	0x0
 2499 0b07 00       		.byte	0x0
 2500 0b08 1A       		.uleb128 0x1a
 2501 0b09 01       		.byte	0x1
 2502 0b0a A3040000 		.4byte	.LASF131
 2503 0b0e 01       		.byte	0x1
ARM GAS  C:\Users\z80\AppData\Local\Temp\ccoYycsf.s 			page 46


 2504 0b0f F5       		.byte	0xf5
 2505 0b10 01       		.byte	0x1
 2506 0b11 00000000 		.4byte	.LFB69
 2507 0b15 86000000 		.4byte	.LFE69
 2508 0b19 28010000 		.4byte	.LLST7
 2509 0b1d 480B0000 		.4byte	0xb48
 2510 0b21 1B       		.uleb128 0x1b
 2511 0b22 D7010000 		.4byte	.LASF126
 2512 0b26 01       		.byte	0x1
 2513 0b27 F5       		.byte	0xf5
 2514 0b28 96070000 		.4byte	0x796
 2515 0b2c 02       		.byte	0x2
 2516 0b2d 91       		.byte	0x91
 2517 0b2e 6C       		.sleb128 -20
 2518 0b2f 1E       		.uleb128 0x1e
 2519 0b30 66000000 		.4byte	.LBB11
 2520 0b34 82000000 		.4byte	.LBE11
 2521 0b38 1F       		.uleb128 0x1f
 2522 0b39 747000   		.ascii	"tp\000"
 2523 0b3c 01       		.byte	0x1
 2524 0b3d 0201     		.2byte	0x102
 2525 0b3f 42020000 		.4byte	0x242
 2526 0b43 02       		.byte	0x2
 2527 0b44 91       		.byte	0x91
 2528 0b45 74       		.sleb128 -12
 2529 0b46 00       		.byte	0x0
 2530 0b47 00       		.byte	0x0
 2531 0b48 20       		.uleb128 0x20
 2532 0b49 01       		.byte	0x1
 2533 0b4a 32010000 		.4byte	.LASF140
 2534 0b4e 01       		.byte	0x1
 2535 0b4f 1E01     		.2byte	0x11e
 2536 0b51 01       		.byte	0x1
 2537 0b52 DD000000 		.4byte	0xdd
 2538 0b56 00000000 		.4byte	.LFB70
 2539 0b5a 70000000 		.4byte	.LFE70
 2540 0b5e 54010000 		.4byte	.LLST8
 2541 0b62 E60B0000 		.4byte	0xbe6
 2542 0b66 21       		.uleb128 0x21
 2543 0b67 D7010000 		.4byte	.LASF126
 2544 0b6b 01       		.byte	0x1
 2545 0b6c 1E01     		.2byte	0x11e
 2546 0b6e 96070000 		.4byte	0x796
 2547 0b72 02       		.byte	0x2
 2548 0b73 91       		.byte	0x91
 2549 0b74 6C       		.sleb128 -20
 2550 0b75 21       		.uleb128 0x21
 2551 0b76 6E020000 		.4byte	.LASF105
 2552 0b7a 01       		.byte	0x1
 2553 0b7b 1F01     		.2byte	0x11f
 2554 0b7d A2080000 		.4byte	0x8a2
 2555 0b81 02       		.byte	0x2
 2556 0b82 91       		.byte	0x91
 2557 0b83 68       		.sleb128 -24
 2558 0b84 21       		.uleb128 0x21
 2559 0b85 85020000 		.4byte	.LASF103
 2560 0b89 01       		.byte	0x1
ARM GAS  C:\Users\z80\AppData\Local\Temp\ccoYycsf.s 			page 47


 2561 0b8a 2001     		.2byte	0x120
 2562 0b8c 9C070000 		.4byte	0x79c
 2563 0b90 02       		.byte	0x2
 2564 0b91 91       		.byte	0x91
 2565 0b92 64       		.sleb128 -28
 2566 0b93 21       		.uleb128 0x21
 2567 0b94 14020000 		.4byte	.LASF104
 2568 0b98 01       		.byte	0x1
 2569 0b99 2101     		.2byte	0x121
 2570 0b9b 30000000 		.4byte	0x30
 2571 0b9f 02       		.byte	0x2
 2572 0ba0 91       		.byte	0x91
 2573 0ba1 60       		.sleb128 -32
 2574 0ba2 1F       		.uleb128 0x1f
 2575 0ba3 6D736700 		.ascii	"msg\000"
 2576 0ba7 01       		.byte	0x1
 2577 0ba8 2201     		.2byte	0x122
 2578 0baa DD000000 		.4byte	0xdd
 2579 0bae 02       		.byte	0x2
 2580 0baf 91       		.byte	0x91
 2581 0bb0 74       		.sleb128 -12
 2582 0bb1 1C       		.uleb128 0x1c
 2583 0bb2 0C000000 		.4byte	.LBB12
 2584 0bb6 14000000 		.4byte	.LBE12
 2585 0bba CD0B0000 		.4byte	0xbcd
 2586 0bbe 1F       		.uleb128 0x1f
 2587 0bbf 746D7000 		.ascii	"tmp\000"
 2588 0bc3 01       		.byte	0x1
 2589 0bc4 2401     		.2byte	0x124
 2590 0bc6 86000000 		.4byte	0x86
 2591 0bca 01       		.byte	0x1
 2592 0bcb 53       		.byte	0x53
 2593 0bcc 00       		.byte	0x0
 2594 0bcd 1E       		.uleb128 0x1e
 2595 0bce 60000000 		.4byte	.LBB13
 2596 0bd2 68000000 		.4byte	.LBE13
 2597 0bd6 1F       		.uleb128 0x1f
 2598 0bd7 746D7000 		.ascii	"tmp\000"
 2599 0bdb 01       		.byte	0x1
 2600 0bdc 2A01     		.2byte	0x12a
 2601 0bde 86000000 		.4byte	0x86
 2602 0be2 01       		.byte	0x1
 2603 0be3 53       		.byte	0x53
 2604 0be4 00       		.byte	0x0
 2605 0be5 00       		.byte	0x0
 2606 0be6 22       		.uleb128 0x22
 2607 0be7 01       		.byte	0x1
 2608 0be8 41050000 		.4byte	.LASF132
 2609 0bec 01       		.byte	0x1
 2610 0bed 3B01     		.2byte	0x13b
 2611 0bef 01       		.byte	0x1
 2612 0bf0 00000000 		.4byte	.LFB71
 2613 0bf4 28000000 		.4byte	.LFE71
 2614 0bf8 80010000 		.4byte	.LLST9
 2615 0bfc 100C0000 		.4byte	0xc10
 2616 0c00 21       		.uleb128 0x21
 2617 0c01 D7010000 		.4byte	.LASF126
ARM GAS  C:\Users\z80\AppData\Local\Temp\ccoYycsf.s 			page 48


 2618 0c05 01       		.byte	0x1
 2619 0c06 3B01     		.2byte	0x13b
 2620 0c08 96070000 		.4byte	0x796
 2621 0c0c 02       		.byte	0x2
 2622 0c0d 91       		.byte	0x91
 2623 0c0e 74       		.sleb128 -12
 2624 0c0f 00       		.byte	0x0
 2625 0c10 22       		.uleb128 0x22
 2626 0c11 01       		.byte	0x1
 2627 0c12 55020000 		.4byte	.LASF133
 2628 0c16 01       		.byte	0x1
 2629 0c17 4F01     		.2byte	0x14f
 2630 0c19 01       		.byte	0x1
 2631 0c1a 00000000 		.4byte	.LFB72
 2632 0c1e 20000000 		.4byte	.LFE72
 2633 0c22 AC010000 		.4byte	.LLST10
 2634 0c26 3A0C0000 		.4byte	0xc3a
 2635 0c2a 21       		.uleb128 0x21
 2636 0c2b D7010000 		.4byte	.LASF126
 2637 0c2f 01       		.byte	0x1
 2638 0c30 4F01     		.2byte	0x14f
 2639 0c32 96070000 		.4byte	0x796
 2640 0c36 02       		.byte	0x2
 2641 0c37 91       		.byte	0x91
 2642 0c38 74       		.sleb128 -12
 2643 0c39 00       		.byte	0x0
 2644 0c3a 23       		.uleb128 0x23
 2645 0c3b 95040000 		.4byte	.LASF134
 2646 0c3f 08       		.byte	0x8
 2647 0c40 72       		.byte	0x72
 2648 0c41 B5030000 		.4byte	0x3b5
 2649 0c45 01       		.byte	0x1
 2650 0c46 01       		.byte	0x1
 2651 0c47 24       		.uleb128 0x24
 2652 0c48 57000000 		.4byte	.LASF135
 2653 0c4c 0E       		.byte	0xe
 2654 0c4d 9404     		.2byte	0x494
 2655 0c4f 5B040000 		.4byte	0x45b
 2656 0c53 01       		.byte	0x1
 2657 0c54 01       		.byte	0x1
 2658 0c55 23       		.uleb128 0x23
 2659 0c56 95040000 		.4byte	.LASF134
 2660 0c5a 08       		.byte	0x8
 2661 0c5b 72       		.byte	0x72
 2662 0c5c B5030000 		.4byte	0x3b5
 2663 0c60 01       		.byte	0x1
 2664 0c61 01       		.byte	0x1
 2665 0c62 24       		.uleb128 0x24
 2666 0c63 57000000 		.4byte	.LASF135
 2667 0c67 0E       		.byte	0xe
 2668 0c68 9404     		.2byte	0x494
 2669 0c6a 5B040000 		.4byte	0x45b
 2670 0c6e 01       		.byte	0x1
 2671 0c6f 01       		.byte	0x1
 2672 0c70 00       		.byte	0x0
 2673              		.section	.debug_abbrev
 2674 0000 01       		.uleb128 0x1
ARM GAS  C:\Users\z80\AppData\Local\Temp\ccoYycsf.s 			page 49


 2675 0001 11       		.uleb128 0x11
 2676 0002 01       		.byte	0x1
 2677 0003 25       		.uleb128 0x25
 2678 0004 0E       		.uleb128 0xe
 2679 0005 13       		.uleb128 0x13
 2680 0006 0B       		.uleb128 0xb
 2681 0007 03       		.uleb128 0x3
 2682 0008 0E       		.uleb128 0xe
 2683 0009 1B       		.uleb128 0x1b
 2684 000a 0E       		.uleb128 0xe
 2685 000b 11       		.uleb128 0x11
 2686 000c 01       		.uleb128 0x1
 2687 000d 52       		.uleb128 0x52
 2688 000e 01       		.uleb128 0x1
 2689 000f 55       		.uleb128 0x55
 2690 0010 06       		.uleb128 0x6
 2691 0011 10       		.uleb128 0x10
 2692 0012 06       		.uleb128 0x6
 2693 0013 00       		.byte	0x0
 2694 0014 00       		.byte	0x0
 2695 0015 02       		.uleb128 0x2
 2696 0016 24       		.uleb128 0x24
 2697 0017 00       		.byte	0x0
 2698 0018 0B       		.uleb128 0xb
 2699 0019 0B       		.uleb128 0xb
 2700 001a 3E       		.uleb128 0x3e
 2701 001b 0B       		.uleb128 0xb
 2702 001c 03       		.uleb128 0x3
 2703 001d 08       		.uleb128 0x8
 2704 001e 00       		.byte	0x0
 2705 001f 00       		.byte	0x0
 2706 0020 03       		.uleb128 0x3
 2707 0021 16       		.uleb128 0x16
 2708 0022 00       		.byte	0x0
 2709 0023 03       		.uleb128 0x3
 2710 0024 0E       		.uleb128 0xe
 2711 0025 3A       		.uleb128 0x3a
 2712 0026 0B       		.uleb128 0xb
 2713 0027 3B       		.uleb128 0x3b
 2714 0028 0B       		.uleb128 0xb
 2715 0029 49       		.uleb128 0x49
 2716 002a 13       		.uleb128 0x13
 2717 002b 00       		.byte	0x0
 2718 002c 00       		.byte	0x0
 2719 002d 04       		.uleb128 0x4
 2720 002e 24       		.uleb128 0x24
 2721 002f 00       		.byte	0x0
 2722 0030 0B       		.uleb128 0xb
 2723 0031 0B       		.uleb128 0xb
 2724 0032 3E       		.uleb128 0x3e
 2725 0033 0B       		.uleb128 0xb
 2726 0034 03       		.uleb128 0x3
 2727 0035 0E       		.uleb128 0xe
 2728 0036 00       		.byte	0x0
 2729 0037 00       		.byte	0x0
 2730 0038 05       		.uleb128 0x5
 2731 0039 13       		.uleb128 0x13
ARM GAS  C:\Users\z80\AppData\Local\Temp\ccoYycsf.s 			page 50


 2732 003a 01       		.byte	0x1
 2733 003b 03       		.uleb128 0x3
 2734 003c 0E       		.uleb128 0xe
 2735 003d 0B       		.uleb128 0xb
 2736 003e 0B       		.uleb128 0xb
 2737 003f 3A       		.uleb128 0x3a
 2738 0040 0B       		.uleb128 0xb
 2739 0041 3B       		.uleb128 0x3b
 2740 0042 0B       		.uleb128 0xb
 2741 0043 01       		.uleb128 0x1
 2742 0044 13       		.uleb128 0x13
 2743 0045 00       		.byte	0x0
 2744 0046 00       		.byte	0x0
 2745 0047 06       		.uleb128 0x6
 2746 0048 0D       		.uleb128 0xd
 2747 0049 00       		.byte	0x0
 2748 004a 03       		.uleb128 0x3
 2749 004b 0E       		.uleb128 0xe
 2750 004c 3A       		.uleb128 0x3a
 2751 004d 0B       		.uleb128 0xb
 2752 004e 3B       		.uleb128 0x3b
 2753 004f 0B       		.uleb128 0xb
 2754 0050 49       		.uleb128 0x49
 2755 0051 13       		.uleb128 0x13
 2756 0052 38       		.uleb128 0x38
 2757 0053 0A       		.uleb128 0xa
 2758 0054 00       		.byte	0x0
 2759 0055 00       		.byte	0x0
 2760 0056 07       		.uleb128 0x7
 2761 0057 0D       		.uleb128 0xd
 2762 0058 00       		.byte	0x0
 2763 0059 03       		.uleb128 0x3
 2764 005a 08       		.uleb128 0x8
 2765 005b 3A       		.uleb128 0x3a
 2766 005c 0B       		.uleb128 0xb
 2767 005d 3B       		.uleb128 0x3b
 2768 005e 0B       		.uleb128 0xb
 2769 005f 49       		.uleb128 0x49
 2770 0060 13       		.uleb128 0x13
 2771 0061 38       		.uleb128 0x38
 2772 0062 0A       		.uleb128 0xa
 2773 0063 00       		.byte	0x0
 2774 0064 00       		.byte	0x0
 2775 0065 08       		.uleb128 0x8
 2776 0066 13       		.uleb128 0x13
 2777 0067 01       		.byte	0x1
 2778 0068 0B       		.uleb128 0xb
 2779 0069 0B       		.uleb128 0xb
 2780 006a 3A       		.uleb128 0x3a
 2781 006b 0B       		.uleb128 0xb
 2782 006c 3B       		.uleb128 0x3b
 2783 006d 0B       		.uleb128 0xb
 2784 006e 01       		.uleb128 0x1
 2785 006f 13       		.uleb128 0x13
 2786 0070 00       		.byte	0x0
 2787 0071 00       		.byte	0x0
 2788 0072 09       		.uleb128 0x9
ARM GAS  C:\Users\z80\AppData\Local\Temp\ccoYycsf.s 			page 51


 2789 0073 0F       		.uleb128 0xf
 2790 0074 00       		.byte	0x0
 2791 0075 0B       		.uleb128 0xb
 2792 0076 0B       		.uleb128 0xb
 2793 0077 49       		.uleb128 0x49
 2794 0078 13       		.uleb128 0x13
 2795 0079 00       		.byte	0x0
 2796 007a 00       		.byte	0x0
 2797 007b 0A       		.uleb128 0xa
 2798 007c 0F       		.uleb128 0xf
 2799 007d 00       		.byte	0x0
 2800 007e 0B       		.uleb128 0xb
 2801 007f 0B       		.uleb128 0xb
 2802 0080 00       		.byte	0x0
 2803 0081 00       		.byte	0x0
 2804 0082 0B       		.uleb128 0xb
 2805 0083 0D       		.uleb128 0xd
 2806 0084 00       		.byte	0x0
 2807 0085 03       		.uleb128 0x3
 2808 0086 08       		.uleb128 0x8
 2809 0087 3A       		.uleb128 0x3a
 2810 0088 0B       		.uleb128 0xb
 2811 0089 3B       		.uleb128 0x3b
 2812 008a 05       		.uleb128 0x5
 2813 008b 49       		.uleb128 0x49
 2814 008c 13       		.uleb128 0x13
 2815 008d 38       		.uleb128 0x38
 2816 008e 0A       		.uleb128 0xa
 2817 008f 00       		.byte	0x0
 2818 0090 00       		.byte	0x0
 2819 0091 0C       		.uleb128 0xc
 2820 0092 13       		.uleb128 0x13
 2821 0093 01       		.byte	0x1
 2822 0094 03       		.uleb128 0x3
 2823 0095 0E       		.uleb128 0xe
 2824 0096 0B       		.uleb128 0xb
 2825 0097 0B       		.uleb128 0xb
 2826 0098 3A       		.uleb128 0x3a
 2827 0099 0B       		.uleb128 0xb
 2828 009a 3B       		.uleb128 0x3b
 2829 009b 05       		.uleb128 0x5
 2830 009c 01       		.uleb128 0x1
 2831 009d 13       		.uleb128 0x13
 2832 009e 00       		.byte	0x0
 2833 009f 00       		.byte	0x0
 2834 00a0 0D       		.uleb128 0xd
 2835 00a1 35       		.uleb128 0x35
 2836 00a2 00       		.byte	0x0
 2837 00a3 49       		.uleb128 0x49
 2838 00a4 13       		.uleb128 0x13
 2839 00a5 00       		.byte	0x0
 2840 00a6 00       		.byte	0x0
 2841 00a7 0E       		.uleb128 0xe
 2842 00a8 24       		.uleb128 0x24
 2843 00a9 00       		.byte	0x0
 2844 00aa 0B       		.uleb128 0xb
 2845 00ab 0B       		.uleb128 0xb
ARM GAS  C:\Users\z80\AppData\Local\Temp\ccoYycsf.s 			page 52


 2846 00ac 3E       		.uleb128 0x3e
 2847 00ad 0B       		.uleb128 0xb
 2848 00ae 00       		.byte	0x0
 2849 00af 00       		.byte	0x0
 2850 00b0 0F       		.uleb128 0xf
 2851 00b1 17       		.uleb128 0x17
 2852 00b2 01       		.byte	0x1
 2853 00b3 0B       		.uleb128 0xb
 2854 00b4 0B       		.uleb128 0xb
 2855 00b5 3A       		.uleb128 0x3a
 2856 00b6 0B       		.uleb128 0xb
 2857 00b7 3B       		.uleb128 0x3b
 2858 00b8 0B       		.uleb128 0xb
 2859 00b9 01       		.uleb128 0x1
 2860 00ba 13       		.uleb128 0x13
 2861 00bb 00       		.byte	0x0
 2862 00bc 00       		.byte	0x0
 2863 00bd 10       		.uleb128 0x10
 2864 00be 0D       		.uleb128 0xd
 2865 00bf 00       		.byte	0x0
 2866 00c0 03       		.uleb128 0x3
 2867 00c1 0E       		.uleb128 0xe
 2868 00c2 3A       		.uleb128 0x3a
 2869 00c3 0B       		.uleb128 0xb
 2870 00c4 3B       		.uleb128 0x3b
 2871 00c5 0B       		.uleb128 0xb
 2872 00c6 49       		.uleb128 0x49
 2873 00c7 13       		.uleb128 0x13
 2874 00c8 00       		.byte	0x0
 2875 00c9 00       		.byte	0x0
 2876 00ca 11       		.uleb128 0x11
 2877 00cb 26       		.uleb128 0x26
 2878 00cc 00       		.byte	0x0
 2879 00cd 49       		.uleb128 0x49
 2880 00ce 13       		.uleb128 0x13
 2881 00cf 00       		.byte	0x0
 2882 00d0 00       		.byte	0x0
 2883 00d1 12       		.uleb128 0x12
 2884 00d2 13       		.uleb128 0x13
 2885 00d3 01       		.byte	0x1
 2886 00d4 0B       		.uleb128 0xb
 2887 00d5 0B       		.uleb128 0xb
 2888 00d6 3A       		.uleb128 0x3a
 2889 00d7 0B       		.uleb128 0xb
 2890 00d8 3B       		.uleb128 0x3b
 2891 00d9 05       		.uleb128 0x5
 2892 00da 01       		.uleb128 0x1
 2893 00db 13       		.uleb128 0x13
 2894 00dc 00       		.byte	0x0
 2895 00dd 00       		.byte	0x0
 2896 00de 13       		.uleb128 0x13
 2897 00df 0D       		.uleb128 0xd
 2898 00e0 00       		.byte	0x0
 2899 00e1 03       		.uleb128 0x3
 2900 00e2 0E       		.uleb128 0xe
 2901 00e3 3A       		.uleb128 0x3a
 2902 00e4 0B       		.uleb128 0xb
ARM GAS  C:\Users\z80\AppData\Local\Temp\ccoYycsf.s 			page 53


 2903 00e5 3B       		.uleb128 0x3b
 2904 00e6 05       		.uleb128 0x5
 2905 00e7 49       		.uleb128 0x49
 2906 00e8 13       		.uleb128 0x13
 2907 00e9 38       		.uleb128 0x38
 2908 00ea 0A       		.uleb128 0xa
 2909 00eb 00       		.byte	0x0
 2910 00ec 00       		.byte	0x0
 2911 00ed 14       		.uleb128 0x14
 2912 00ee 16       		.uleb128 0x16
 2913 00ef 00       		.byte	0x0
 2914 00f0 03       		.uleb128 0x3
 2915 00f1 0E       		.uleb128 0xe
 2916 00f2 3A       		.uleb128 0x3a
 2917 00f3 0B       		.uleb128 0xb
 2918 00f4 3B       		.uleb128 0x3b
 2919 00f5 05       		.uleb128 0x5
 2920 00f6 49       		.uleb128 0x49
 2921 00f7 13       		.uleb128 0x13
 2922 00f8 00       		.byte	0x0
 2923 00f9 00       		.byte	0x0
 2924 00fa 15       		.uleb128 0x15
 2925 00fb 04       		.uleb128 0x4
 2926 00fc 01       		.byte	0x1
 2927 00fd 0B       		.uleb128 0xb
 2928 00fe 0B       		.uleb128 0xb
 2929 00ff 3A       		.uleb128 0x3a
 2930 0100 0B       		.uleb128 0xb
 2931 0101 3B       		.uleb128 0x3b
 2932 0102 0B       		.uleb128 0xb
 2933 0103 01       		.uleb128 0x1
 2934 0104 13       		.uleb128 0x13
 2935 0105 00       		.byte	0x0
 2936 0106 00       		.byte	0x0
 2937 0107 16       		.uleb128 0x16
 2938 0108 28       		.uleb128 0x28
 2939 0109 00       		.byte	0x0
 2940 010a 03       		.uleb128 0x3
 2941 010b 0E       		.uleb128 0xe
 2942 010c 1C       		.uleb128 0x1c
 2943 010d 0D       		.uleb128 0xd
 2944 010e 00       		.byte	0x0
 2945 010f 00       		.byte	0x0
 2946 0110 17       		.uleb128 0x17
 2947 0111 15       		.uleb128 0x15
 2948 0112 01       		.byte	0x1
 2949 0113 27       		.uleb128 0x27
 2950 0114 0C       		.uleb128 0xc
 2951 0115 01       		.uleb128 0x1
 2952 0116 13       		.uleb128 0x13
 2953 0117 00       		.byte	0x0
 2954 0118 00       		.byte	0x0
 2955 0119 18       		.uleb128 0x18
 2956 011a 05       		.uleb128 0x5
 2957 011b 00       		.byte	0x0
 2958 011c 49       		.uleb128 0x49
 2959 011d 13       		.uleb128 0x13
ARM GAS  C:\Users\z80\AppData\Local\Temp\ccoYycsf.s 			page 54


 2960 011e 00       		.byte	0x0
 2961 011f 00       		.byte	0x0
 2962 0120 19       		.uleb128 0x19
 2963 0121 2E       		.uleb128 0x2e
 2964 0122 00       		.byte	0x0
 2965 0123 3F       		.uleb128 0x3f
 2966 0124 0C       		.uleb128 0xc
 2967 0125 03       		.uleb128 0x3
 2968 0126 0E       		.uleb128 0xe
 2969 0127 3A       		.uleb128 0x3a
 2970 0128 0B       		.uleb128 0xb
 2971 0129 3B       		.uleb128 0x3b
 2972 012a 0B       		.uleb128 0xb
 2973 012b 27       		.uleb128 0x27
 2974 012c 0C       		.uleb128 0xc
 2975 012d 11       		.uleb128 0x11
 2976 012e 01       		.uleb128 0x1
 2977 012f 12       		.uleb128 0x12
 2978 0130 01       		.uleb128 0x1
 2979 0131 40       		.uleb128 0x40
 2980 0132 06       		.uleb128 0x6
 2981 0133 00       		.byte	0x0
 2982 0134 00       		.byte	0x0
 2983 0135 1A       		.uleb128 0x1a
 2984 0136 2E       		.uleb128 0x2e
 2985 0137 01       		.byte	0x1
 2986 0138 3F       		.uleb128 0x3f
 2987 0139 0C       		.uleb128 0xc
 2988 013a 03       		.uleb128 0x3
 2989 013b 0E       		.uleb128 0xe
 2990 013c 3A       		.uleb128 0x3a
 2991 013d 0B       		.uleb128 0xb
 2992 013e 3B       		.uleb128 0x3b
 2993 013f 0B       		.uleb128 0xb
 2994 0140 27       		.uleb128 0x27
 2995 0141 0C       		.uleb128 0xc
 2996 0142 11       		.uleb128 0x11
 2997 0143 01       		.uleb128 0x1
 2998 0144 12       		.uleb128 0x12
 2999 0145 01       		.uleb128 0x1
 3000 0146 40       		.uleb128 0x40
 3001 0147 06       		.uleb128 0x6
 3002 0148 01       		.uleb128 0x1
 3003 0149 13       		.uleb128 0x13
 3004 014a 00       		.byte	0x0
 3005 014b 00       		.byte	0x0
 3006 014c 1B       		.uleb128 0x1b
 3007 014d 05       		.uleb128 0x5
 3008 014e 00       		.byte	0x0
 3009 014f 03       		.uleb128 0x3
 3010 0150 0E       		.uleb128 0xe
 3011 0151 3A       		.uleb128 0x3a
 3012 0152 0B       		.uleb128 0xb
 3013 0153 3B       		.uleb128 0x3b
 3014 0154 0B       		.uleb128 0xb
 3015 0155 49       		.uleb128 0x49
 3016 0156 13       		.uleb128 0x13
ARM GAS  C:\Users\z80\AppData\Local\Temp\ccoYycsf.s 			page 55


 3017 0157 02       		.uleb128 0x2
 3018 0158 0A       		.uleb128 0xa
 3019 0159 00       		.byte	0x0
 3020 015a 00       		.byte	0x0
 3021 015b 1C       		.uleb128 0x1c
 3022 015c 0B       		.uleb128 0xb
 3023 015d 01       		.byte	0x1
 3024 015e 11       		.uleb128 0x11
 3025 015f 01       		.uleb128 0x1
 3026 0160 12       		.uleb128 0x12
 3027 0161 01       		.uleb128 0x1
 3028 0162 01       		.uleb128 0x1
 3029 0163 13       		.uleb128 0x13
 3030 0164 00       		.byte	0x0
 3031 0165 00       		.byte	0x0
 3032 0166 1D       		.uleb128 0x1d
 3033 0167 34       		.uleb128 0x34
 3034 0168 00       		.byte	0x0
 3035 0169 03       		.uleb128 0x3
 3036 016a 08       		.uleb128 0x8
 3037 016b 3A       		.uleb128 0x3a
 3038 016c 0B       		.uleb128 0xb
 3039 016d 3B       		.uleb128 0x3b
 3040 016e 0B       		.uleb128 0xb
 3041 016f 49       		.uleb128 0x49
 3042 0170 13       		.uleb128 0x13
 3043 0171 02       		.uleb128 0x2
 3044 0172 0A       		.uleb128 0xa
 3045 0173 00       		.byte	0x0
 3046 0174 00       		.byte	0x0
 3047 0175 1E       		.uleb128 0x1e
 3048 0176 0B       		.uleb128 0xb
 3049 0177 01       		.byte	0x1
 3050 0178 11       		.uleb128 0x11
 3051 0179 01       		.uleb128 0x1
 3052 017a 12       		.uleb128 0x12
 3053 017b 01       		.uleb128 0x1
 3054 017c 00       		.byte	0x0
 3055 017d 00       		.byte	0x0
 3056 017e 1F       		.uleb128 0x1f
 3057 017f 34       		.uleb128 0x34
 3058 0180 00       		.byte	0x0
 3059 0181 03       		.uleb128 0x3
 3060 0182 08       		.uleb128 0x8
 3061 0183 3A       		.uleb128 0x3a
 3062 0184 0B       		.uleb128 0xb
 3063 0185 3B       		.uleb128 0x3b
 3064 0186 05       		.uleb128 0x5
 3065 0187 49       		.uleb128 0x49
 3066 0188 13       		.uleb128 0x13
 3067 0189 02       		.uleb128 0x2
 3068 018a 0A       		.uleb128 0xa
 3069 018b 00       		.byte	0x0
 3070 018c 00       		.byte	0x0
 3071 018d 20       		.uleb128 0x20
 3072 018e 2E       		.uleb128 0x2e
 3073 018f 01       		.byte	0x1
ARM GAS  C:\Users\z80\AppData\Local\Temp\ccoYycsf.s 			page 56


 3074 0190 3F       		.uleb128 0x3f
 3075 0191 0C       		.uleb128 0xc
 3076 0192 03       		.uleb128 0x3
 3077 0193 0E       		.uleb128 0xe
 3078 0194 3A       		.uleb128 0x3a
 3079 0195 0B       		.uleb128 0xb
 3080 0196 3B       		.uleb128 0x3b
 3081 0197 05       		.uleb128 0x5
 3082 0198 27       		.uleb128 0x27
 3083 0199 0C       		.uleb128 0xc
 3084 019a 49       		.uleb128 0x49
 3085 019b 13       		.uleb128 0x13
 3086 019c 11       		.uleb128 0x11
 3087 019d 01       		.uleb128 0x1
 3088 019e 12       		.uleb128 0x12
 3089 019f 01       		.uleb128 0x1
 3090 01a0 40       		.uleb128 0x40
 3091 01a1 06       		.uleb128 0x6
 3092 01a2 01       		.uleb128 0x1
 3093 01a3 13       		.uleb128 0x13
 3094 01a4 00       		.byte	0x0
 3095 01a5 00       		.byte	0x0
 3096 01a6 21       		.uleb128 0x21
 3097 01a7 05       		.uleb128 0x5
 3098 01a8 00       		.byte	0x0
 3099 01a9 03       		.uleb128 0x3
 3100 01aa 0E       		.uleb128 0xe
 3101 01ab 3A       		.uleb128 0x3a
 3102 01ac 0B       		.uleb128 0xb
 3103 01ad 3B       		.uleb128 0x3b
 3104 01ae 05       		.uleb128 0x5
 3105 01af 49       		.uleb128 0x49
 3106 01b0 13       		.uleb128 0x13
 3107 01b1 02       		.uleb128 0x2
 3108 01b2 0A       		.uleb128 0xa
 3109 01b3 00       		.byte	0x0
 3110 01b4 00       		.byte	0x0
 3111 01b5 22       		.uleb128 0x22
 3112 01b6 2E       		.uleb128 0x2e
 3113 01b7 01       		.byte	0x1
 3114 01b8 3F       		.uleb128 0x3f
 3115 01b9 0C       		.uleb128 0xc
 3116 01ba 03       		.uleb128 0x3
 3117 01bb 0E       		.uleb128 0xe
 3118 01bc 3A       		.uleb128 0x3a
 3119 01bd 0B       		.uleb128 0xb
 3120 01be 3B       		.uleb128 0x3b
 3121 01bf 05       		.uleb128 0x5
 3122 01c0 27       		.uleb128 0x27
 3123 01c1 0C       		.uleb128 0xc
 3124 01c2 11       		.uleb128 0x11
 3125 01c3 01       		.uleb128 0x1
 3126 01c4 12       		.uleb128 0x12
 3127 01c5 01       		.uleb128 0x1
 3128 01c6 40       		.uleb128 0x40
 3129 01c7 06       		.uleb128 0x6
 3130 01c8 01       		.uleb128 0x1
ARM GAS  C:\Users\z80\AppData\Local\Temp\ccoYycsf.s 			page 57


 3131 01c9 13       		.uleb128 0x13
 3132 01ca 00       		.byte	0x0
 3133 01cb 00       		.byte	0x0
 3134 01cc 23       		.uleb128 0x23
 3135 01cd 34       		.uleb128 0x34
 3136 01ce 00       		.byte	0x0
 3137 01cf 03       		.uleb128 0x3
 3138 01d0 0E       		.uleb128 0xe
 3139 01d1 3A       		.uleb128 0x3a
 3140 01d2 0B       		.uleb128 0xb
 3141 01d3 3B       		.uleb128 0x3b
 3142 01d4 0B       		.uleb128 0xb
 3143 01d5 49       		.uleb128 0x49
 3144 01d6 13       		.uleb128 0x13
 3145 01d7 3F       		.uleb128 0x3f
 3146 01d8 0C       		.uleb128 0xc
 3147 01d9 3C       		.uleb128 0x3c
 3148 01da 0C       		.uleb128 0xc
 3149 01db 00       		.byte	0x0
 3150 01dc 00       		.byte	0x0
 3151 01dd 24       		.uleb128 0x24
 3152 01de 34       		.uleb128 0x34
 3153 01df 00       		.byte	0x0
 3154 01e0 03       		.uleb128 0x3
 3155 01e1 0E       		.uleb128 0xe
 3156 01e2 3A       		.uleb128 0x3a
 3157 01e3 0B       		.uleb128 0xb
 3158 01e4 3B       		.uleb128 0x3b
 3159 01e5 05       		.uleb128 0x5
 3160 01e6 49       		.uleb128 0x49
 3161 01e7 13       		.uleb128 0x13
 3162 01e8 3F       		.uleb128 0x3f
 3163 01e9 0C       		.uleb128 0xc
 3164 01ea 3C       		.uleb128 0x3c
 3165 01eb 0C       		.uleb128 0xc
 3166 01ec 00       		.byte	0x0
 3167 01ed 00       		.byte	0x0
 3168 01ee 00       		.byte	0x0
 3169              		.section	.debug_pubnames,"",%progbits
 3170 0000 D4000000 		.4byte	0xd4
 3171 0004 0200     		.2byte	0x2
 3172 0006 00000000 		.4byte	.Ldebug_info0
 3173 000a 710C0000 		.4byte	0xc71
 3174 000e BE080000 		.4byte	0x8be
 3175 0012 61646349 		.ascii	"adcInit\000"
 3175      6E697400 
 3176 001a D3080000 		.4byte	0x8d3
 3177 001e 6164634F 		.ascii	"adcObjectInit\000"
 3177      626A6563 
 3177      74496E69 
 3177      7400
 3178 002c FB080000 		.4byte	0x8fb
 3179 0030 61646353 		.ascii	"adcStart\000"
 3179      74617274 
 3179      00
 3180 0039 63090000 		.4byte	0x963
 3181 003d 61646353 		.ascii	"adcStop\000"
ARM GAS  C:\Users\z80\AppData\Local\Temp\ccoYycsf.s 			page 58


 3181      746F7000 
 3182 0045 BD090000 		.4byte	0x9bd
 3183 0049 61646353 		.ascii	"adcStartConversion\000"
 3183      74617274 
 3183      436F6E76 
 3183      65727369 
 3183      6F6E00
 3184 005c 410A0000 		.4byte	0xa41
 3185 0060 61646353 		.ascii	"adcStartConversionI\000"
 3185      74617274 
 3185      436F6E76 
 3185      65727369 
 3185      6F6E4900 
 3186 0074 930A0000 		.4byte	0xa93
 3187 0078 61646353 		.ascii	"adcStopConversion\000"
 3187      746F7043 
 3187      6F6E7665 
 3187      7273696F 
 3187      6E00
 3188 008a 080B0000 		.4byte	0xb08
 3189 008e 61646353 		.ascii	"adcStopConversionI\000"
 3189      746F7043 
 3189      6F6E7665 
 3189      7273696F 
 3189      6E4900
 3190 00a1 480B0000 		.4byte	0xb48
 3191 00a5 61646343 		.ascii	"adcConvert\000"
 3191      6F6E7665 
 3191      727400
 3192 00b0 E60B0000 		.4byte	0xbe6
 3193 00b4 61646341 		.ascii	"adcAcquireBus\000"
 3193      63717569 
 3193      72654275 
 3193      7300
 3194 00c2 100C0000 		.4byte	0xc10
 3195 00c6 61646352 		.ascii	"adcReleaseBus\000"
 3195      656C6561 
 3195      73654275 
 3195      7300
 3196 00d4 00000000 		.4byte	0x0
 3197              		.section	.debug_pubtypes,"",%progbits
 3198 0000 34020000 		.4byte	0x234
 3199 0004 0200     		.2byte	0x2
 3200 0006 00000000 		.4byte	.Ldebug_info0
 3201 000a 710C0000 		.4byte	0xc71
 3202 000e 30000000 		.4byte	0x30
 3203 0012 73697A65 		.ascii	"size_t\000"
 3203      5F7400
 3204 0019 49000000 		.4byte	0x49
 3205 001d 75696E74 		.ascii	"uint8_t\000"
 3205      385F7400 
 3206 0025 62000000 		.4byte	0x62
 3207 0029 75696E74 		.ascii	"uint16_t\000"
 3207      31365F74 
 3207      00
 3208 0032 74000000 		.4byte	0x74
 3209 0036 696E7433 		.ascii	"int32_t\000"
ARM GAS  C:\Users\z80\AppData\Local\Temp\ccoYycsf.s 			page 59


 3209      325F7400 
 3210 003e 86000000 		.4byte	0x86
 3211 0042 75696E74 		.ascii	"uint32_t\000"
 3211      33325F74 
 3211      00
 3212 004b 9F000000 		.4byte	0x9f
 3213 004f 75696E74 		.ascii	"uint64_t\000"
 3213      36345F74 
 3213      00
 3214 0058 B1000000 		.4byte	0xb1
 3215 005c 626F6F6C 		.ascii	"bool_t\000"
 3215      5F7400
 3216 0063 BC000000 		.4byte	0xbc
 3217 0067 746D6F64 		.ascii	"tmode_t\000"
 3217      655F7400 
 3218 006f C7000000 		.4byte	0xc7
 3219 0073 74737461 		.ascii	"tstate_t\000"
 3219      74655F74 
 3219      00
 3220 007c D2000000 		.4byte	0xd2
 3221 0080 74707269 		.ascii	"tprio_t\000"
 3221      6F5F7400 
 3222 0088 DD000000 		.4byte	0xdd
 3223 008c 6D73675F 		.ascii	"msg_t\000"
 3223      7400
 3224 0092 E8000000 		.4byte	0xe8
 3225 0096 6576656E 		.ascii	"eventmask_t\000"
 3225      746D6173 
 3225      6B5F7400 
 3226 00a2 F3000000 		.4byte	0xf3
 3227 00a6 73797374 		.ascii	"systime_t\000"
 3227      696D655F 
 3227      7400
 3228 00b0 FE000000 		.4byte	0xfe
 3229 00b4 636E745F 		.ascii	"cnt_t\000"
 3229      7400
 3230 00ba 09010000 		.4byte	0x109
 3231 00be 54687265 		.ascii	"Thread\000"
 3231      616400
 3232 00c5 48020000 		.4byte	0x248
 3233 00c9 54687265 		.ascii	"ThreadsQueue\000"
 3233      61647351 
 3233      75657565 
 3233      00
 3234 00d6 6A020000 		.4byte	0x26a
 3235 00da 54687265 		.ascii	"ThreadsList\000"
 3235      6164734C 
 3235      69737400 
 3236 00e6 75020000 		.4byte	0x275
 3237 00ea 72656761 		.ascii	"regarm_t\000"
 3237      726D5F74 
 3237      00
 3238 00f3 82020000 		.4byte	0x282
 3239 00f7 73746B61 		.ascii	"stkalign_t\000"
 3239      6C69676E 
 3239      5F7400
 3240 0102 8D020000 		.4byte	0x28d
ARM GAS  C:\Users\z80\AppData\Local\Temp\ccoYycsf.s 			page 60


 3241 0106 696E7463 		.ascii	"intctx\000"
 3241      747800
 3242 010d 1A030000 		.4byte	0x31a
 3243 0111 636F6E74 		.ascii	"context\000"
 3243      65787400 
 3244 0119 B5030000 		.4byte	0x3b5
 3245 011d 52656164 		.ascii	"ReadyList\000"
 3245      794C6973 
 3245      7400
 3246 0127 C0030000 		.4byte	0x3c0
 3247 012b 4D757465 		.ascii	"Mutex\000"
 3247      7800
 3248 0131 FD030000 		.4byte	0x3fd
 3249 0135 4D757465 		.ascii	"Mutex\000"
 3249      7800
 3250 013b 14010000 		.4byte	0x114
 3251 013f 54687265 		.ascii	"Thread\000"
 3251      616400
 3252 0146 94050000 		.4byte	0x594
 3253 014a 4144435F 		.ascii	"ADC_TypeDef\000"
 3253      54797065 
 3253      44656600 
 3254 0156 E6050000 		.4byte	0x5e6
 3255 015a 444D415F 		.ascii	"DMA_Channel_TypeDef\000"
 3255      4368616E 
 3255      6E656C5F 
 3255      54797065 
 3255      44656600 
 3256 016e 4D060000 		.4byte	0x64d
 3257 0172 73746D33 		.ascii	"stm32_dma_stream_t\000"
 3257      325F646D 
 3257      615F7374 
 3257      7265616D 
 3257      5F7400
 3258 0185 85060000 		.4byte	0x685
 3259 0189 61646373 		.ascii	"adcstate_t\000"
 3259      74617465 
 3259      5F7400
 3260 0194 90060000 		.4byte	0x690
 3261 0198 61646373 		.ascii	"adcsample_t\000"
 3261      616D706C 
 3261      655F7400 
 3262 01a4 9B060000 		.4byte	0x69b
 3263 01a8 6164635F 		.ascii	"adc_channels_num_t\000"
 3263      6368616E 
 3263      6E656C73 
 3263      5F6E756D 
 3263      5F7400
 3264 01bb B5060000 		.4byte	0x6b5
 3265 01bf 61646365 		.ascii	"adcerror_t\000"
 3265      72726F72 
 3265      5F7400
 3266 01ca C0060000 		.4byte	0x6c0
 3267 01ce 41444344 		.ascii	"ADCDriver\000"
 3267      72697665 
 3267      7200
 3268 01d8 6F070000 		.4byte	0x76f
ARM GAS  C:\Users\z80\AppData\Local\Temp\ccoYycsf.s 			page 61


 3269 01dc 61646363 		.ascii	"adccallback_t\000"
 3269      616C6C62 
 3269      61636B5F 
 3269      7400
 3270 01ea A2070000 		.4byte	0x7a2
 3271 01ee 61646365 		.ascii	"adcerrorcallback_t\000"
 3271      72726F72 
 3271      63616C6C 
 3271      6261636B 
 3271      5F7400
 3272 0201 67080000 		.4byte	0x867
 3273 0205 41444343 		.ascii	"ADCConversionGroup\000"
 3273      6F6E7665 
 3273      7273696F 
 3273      6E47726F 
 3273      757000
 3274 0218 8B080000 		.4byte	0x88b
 3275 021c 41444343 		.ascii	"ADCConfig\000"
 3275      6F6E6669 
 3275      6700
 3276 0226 CB060000 		.4byte	0x6cb
 3277 022a 41444344 		.ascii	"ADCDriver\000"
 3277      72697665 
 3277      7200
 3278 0234 00000000 		.4byte	0x0
 3279              		.section	.debug_aranges,"",%progbits
 3280 0000 6C000000 		.4byte	0x6c
 3281 0004 0200     		.2byte	0x2
 3282 0006 00000000 		.4byte	.Ldebug_info0
 3283 000a 04       		.byte	0x4
 3284 000b 00       		.byte	0x0
 3285 000c 0000     		.2byte	0x0
 3286 000e 0000     		.2byte	0x0
 3287 0010 00000000 		.4byte	.LFB62
 3288 0014 08000000 		.4byte	.LFE62-.LFB62
 3289 0018 00000000 		.4byte	.LFB63
 3290 001c 46000000 		.4byte	.LFE63-.LFB63
 3291 0020 00000000 		.4byte	.LFB64
 3292 0024 66000000 		.4byte	.LFE64-.LFB64
 3293 0028 00000000 		.4byte	.LFB65
 3294 002c 5E000000 		.4byte	.LFE65-.LFB65
 3295 0030 00000000 		.4byte	.LFB66
 3296 0034 34000000 		.4byte	.LFE66-.LFB66
 3297 0038 00000000 		.4byte	.LFB67
 3298 003c 88000000 		.4byte	.LFE67-.LFB67
 3299 0040 00000000 		.4byte	.LFB68
 3300 0044 8E000000 		.4byte	.LFE68-.LFB68
 3301 0048 00000000 		.4byte	.LFB69
 3302 004c 86000000 		.4byte	.LFE69-.LFB69
 3303 0050 00000000 		.4byte	.LFB70
 3304 0054 70000000 		.4byte	.LFE70-.LFB70
 3305 0058 00000000 		.4byte	.LFB71
 3306 005c 28000000 		.4byte	.LFE71-.LFB71
 3307 0060 00000000 		.4byte	.LFB72
 3308 0064 20000000 		.4byte	.LFE72-.LFB72
 3309 0068 00000000 		.4byte	0x0
 3310 006c 00000000 		.4byte	0x0
ARM GAS  C:\Users\z80\AppData\Local\Temp\ccoYycsf.s 			page 62


 3311              		.section	.debug_ranges,"",%progbits
 3312              	.Ldebug_ranges0:
 3313 0000 00000000 		.4byte	.LFB62
 3314 0004 08000000 		.4byte	.LFE62
 3315 0008 00000000 		.4byte	.LFB63
 3316 000c 46000000 		.4byte	.LFE63
 3317 0010 00000000 		.4byte	.LFB64
 3318 0014 66000000 		.4byte	.LFE64
 3319 0018 00000000 		.4byte	.LFB65
 3320 001c 5E000000 		.4byte	.LFE65
 3321 0020 00000000 		.4byte	.LFB66
 3322 0024 34000000 		.4byte	.LFE66
 3323 0028 00000000 		.4byte	.LFB67
 3324 002c 88000000 		.4byte	.LFE67
 3325 0030 00000000 		.4byte	.LFB68
 3326 0034 8E000000 		.4byte	.LFE68
 3327 0038 00000000 		.4byte	.LFB69
 3328 003c 86000000 		.4byte	.LFE69
 3329 0040 00000000 		.4byte	.LFB70
 3330 0044 70000000 		.4byte	.LFE70
 3331 0048 00000000 		.4byte	.LFB71
 3332 004c 28000000 		.4byte	.LFE71
 3333 0050 00000000 		.4byte	.LFB72
 3334 0054 20000000 		.4byte	.LFE72
 3335 0058 00000000 		.4byte	0x0
 3336 005c 00000000 		.4byte	0x0
 3337              		.section	.debug_str,"MS",%progbits,1
 3338              	.LASF2:
 3339 0000 73697A65 		.ascii	"size_t\000"
 3339      5F7400
 3340              	.LASF59:
 3341 0007 7264796D 		.ascii	"rdymsg\000"
 3341      736700
 3342              	.LASF109:
 3343 000e 646D616D 		.ascii	"dmamode\000"
 3343      6F646500 
 3344              	.LASF95:
 3345 0016 61646373 		.ascii	"adcstate_t\000"
 3345      74617465 
 3345      5F7400
 3346              	.LASF127:
 3347 0021 61646353 		.ascii	"adcStop\000"
 3347      746F7000 
 3348              	.LASF14:
 3349 0029 6C6F6E67 		.ascii	"long long unsigned int\000"
 3349      206C6F6E 
 3349      6720756E 
 3349      7369676E 
 3349      65642069 
 3350              	.LASF60:
 3351 0040 65786974 		.ascii	"exitcode\000"
 3351      636F6465 
 3351      00
 3352              	.LASF87:
 3353 0049 76656374 		.ascii	"vector\000"
 3353      6F7200
 3354              	.LASF58:
ARM GAS  C:\Users\z80\AppData\Local\Temp\ccoYycsf.s 			page 63


 3355 0050 6D5F6E65 		.ascii	"m_next\000"
 3355      787400
 3356              	.LASF135:
 3357 0057 49544D5F 		.ascii	"ITM_RxBuffer\000"
 3357      52784275 
 3357      66666572 
 3357      00
 3358              	.LASF26:
 3359 0064 705F7072 		.ascii	"p_prio\000"
 3359      696F00
 3360              	.LASF73:
 3361 006b 4A535152 		.ascii	"JSQR\000"
 3361      00
 3362              	.LASF12:
 3363 0070 6C6F6E67 		.ascii	"long long int\000"
 3363      206C6F6E 
 3363      6720696E 
 3363      7400
 3364              	.LASF1:
 3365 007e 7369676E 		.ascii	"signed char\000"
 3365      65642063 
 3365      68617200 
 3366              	.LASF15:
 3367 008a 626F6F6C 		.ascii	"bool_t\000"
 3367      5F7400
 3368              	.LASF56:
 3369 0091 6D5F7175 		.ascii	"m_queue\000"
 3369      65756500 
 3370              	.LASF99:
 3371 0099 61646365 		.ascii	"adcerror_t\000"
 3371      72726F72 
 3371      5F7400
 3372              	.LASF108:
 3373 00a4 646D6173 		.ascii	"dmastp\000"
 3373      747000
 3374              	.LASF101:
 3375 00ab 73746174 		.ascii	"state\000"
 3375      6500
 3376              	.LASF112:
 3377 00b1 63697263 		.ascii	"circular\000"
 3377      756C6172 
 3377      00
 3378              	.LASF9:
 3379 00ba 6C6F6E67 		.ascii	"long int\000"
 3379      20696E74 
 3379      00
 3380              	.LASF98:
 3381 00c3 4144435F 		.ascii	"ADC_ERR_DMAFAILURE\000"
 3381      4552525F 
 3381      444D4146 
 3381      41494C55 
 3381      524500
 3382              	.LASF111:
 3383 00d6 61646365 		.ascii	"adcerrorcallback_t\000"
 3383      72726F72 
 3383      63616C6C 
 3383      6261636B 
ARM GAS  C:\Users\z80\AppData\Local\Temp\ccoYycsf.s 			page 64


 3383      5F7400
 3384              	.LASF17:
 3385 00e9 74737461 		.ascii	"tstate_t\000"
 3385      74655F74 
 3385      00
 3386              	.LASF106:
 3387 00f2 74687265 		.ascii	"thread\000"
 3387      616400
 3388              	.LASF6:
 3389 00f9 75696E74 		.ascii	"uint16_t\000"
 3389      31365F74 
 3389      00
 3390              	.LASF34:
 3391 0102 705F7469 		.ascii	"p_time\000"
 3391      6D6500
 3392              	.LASF78:
 3393 0109 4144435F 		.ascii	"ADC_TypeDef\000"
 3393      54797065 
 3393      44656600 
 3394              	.LASF28:
 3395 0115 705F6E65 		.ascii	"p_newer\000"
 3395      77657200 
 3396              	.LASF114:
 3397 011d 656E645F 		.ascii	"end_cb\000"
 3397      636200
 3398              	.LASF110:
 3399 0124 61646363 		.ascii	"adccallback_t\000"
 3399      616C6C62 
 3399      61636B5F 
 3399      7400
 3400              	.LASF140:
 3401 0132 61646343 		.ascii	"adcConvert\000"
 3401      6F6E7665 
 3401      727400
 3402              	.LASF96:
 3403 013d 61646373 		.ascii	"adcsample_t\000"
 3403      616D706C 
 3403      655F7400 
 3404              	.LASF50:
 3405 0149 725F6E65 		.ascii	"r_newer\000"
 3405      77657200 
 3406              	.LASF123:
 3407 0151 41444343 		.ascii	"ADCConfig\000"
 3407      6F6E6669 
 3407      6700
 3408              	.LASF43:
 3409 015b 72656761 		.ascii	"regarm_t\000"
 3409      726D5F74 
 3409      00
 3410              	.LASF86:
 3411 0164 73656C66 		.ascii	"selfindex\000"
 3411      696E6465 
 3411      7800
 3412              	.LASF122:
 3413 016e 64756D6D 		.ascii	"dummy\000"
 3413      7900
 3414              	.LASF23:
ARM GAS  C:\Users\z80\AppData\Local\Temp\ccoYycsf.s 			page 65


 3415 0174 54687265 		.ascii	"Thread\000"
 3415      616400
 3416              	.LASF89:
 3417 017b 4144435F 		.ascii	"ADC_UNINIT\000"
 3417      554E494E 
 3417      495400
 3418              	.LASF92:
 3419 0186 4144435F 		.ascii	"ADC_ACTIVE\000"
 3419      41435449 
 3419      564500
 3420              	.LASF22:
 3421 0191 636E745F 		.ascii	"cnt_t\000"
 3421      7400
 3422              	.LASF31:
 3423 0197 705F7374 		.ascii	"p_stklimit\000"
 3423      6B6C696D 
 3423      697400
 3424              	.LASF0:
 3425 01a2 756E7369 		.ascii	"unsigned int\000"
 3425      676E6564 
 3425      20696E74 
 3425      00
 3426              	.LASF124:
 3427 01af 6164634F 		.ascii	"adcObjectInit\000"
 3427      626A6563 
 3427      74496E69 
 3427      7400
 3428              	.LASF80:
 3429 01bd 43504152 		.ascii	"CPAR\000"
 3429      00
 3430              	.LASF36:
 3431 01c2 705F6D73 		.ascii	"p_msgqueue\000"
 3431      67717565 
 3431      756500
 3432              	.LASF100:
 3433 01cd 41444344 		.ascii	"ADCDriver\000"
 3433      72697665 
 3433      7200
 3434              	.LASF126:
 3435 01d7 61646370 		.ascii	"adcp\000"
 3435      00
 3436              	.LASF82:
 3437 01dc 444D415F 		.ascii	"DMA_Channel_TypeDef\000"
 3437      4368616E 
 3437      6E656C5F 
 3437      54797065 
 3437      44656600 
 3438              	.LASF85:
 3439 01f0 69736869 		.ascii	"ishift\000"
 3439      667400
 3440              	.LASF7:
 3441 01f7 73686F72 		.ascii	"short unsigned int\000"
 3441      7420756E 
 3441      7369676E 
 3441      65642069 
 3441      6E7400
 3442              	.LASF91:
ARM GAS  C:\Users\z80\AppData\Local\Temp\ccoYycsf.s 			page 66


 3443 020a 4144435F 		.ascii	"ADC_READY\000"
 3443      52454144 
 3443      5900
 3444              	.LASF104:
 3445 0214 64657074 		.ascii	"depth\000"
 3445      6800
 3446              	.LASF19:
 3447 021a 6D73675F 		.ascii	"msg_t\000"
 3447      7400
 3448              	.LASF16:
 3449 0220 746D6F64 		.ascii	"tmode_t\000"
 3449      655F7400 
 3450              	.LASF113:
 3451 0228 6E756D5F 		.ascii	"num_channels\000"
 3451      6368616E 
 3451      6E656C73 
 3451      00
 3452              	.LASF42:
 3453 0235 54687265 		.ascii	"ThreadsList\000"
 3453      6164734C 
 3453      69737400 
 3454              	.LASF20:
 3455 0241 6576656E 		.ascii	"eventmask_t\000"
 3455      746D6173 
 3455      6B5F7400 
 3456              	.LASF139:
 3457 024d 61646349 		.ascii	"adcInit\000"
 3457      6E697400 
 3458              	.LASF133:
 3459 0255 61646352 		.ascii	"adcReleaseBus\000"
 3459      656C6561 
 3459      73654275 
 3459      7300
 3460              	.LASF44:
 3461 0263 73746B61 		.ascii	"stkalign_t\000"
 3461      6C69676E 
 3461      5F7400
 3462              	.LASF105:
 3463 026e 67727070 		.ascii	"grpp\000"
 3463      00
 3464              	.LASF66:
 3465 0273 4A4F4652 		.ascii	"JOFR1\000"
 3465      3100
 3466              	.LASF67:
 3467 0279 4A4F4652 		.ascii	"JOFR2\000"
 3467      3200
 3468              	.LASF68:
 3469 027f 4A4F4652 		.ascii	"JOFR3\000"
 3469      3300
 3470              	.LASF103:
 3471 0285 73616D70 		.ascii	"samples\000"
 3471      6C657300 
 3472              	.LASF55:
 3473 028d 4D757465 		.ascii	"Mutex\000"
 3473      7800
 3474              	.LASF90:
 3475 0293 4144435F 		.ascii	"ADC_STOP\000"
ARM GAS  C:\Users\z80\AppData\Local\Temp\ccoYycsf.s 			page 67


 3475      53544F50 
 3475      00
 3476              	.LASF13:
 3477 029c 75696E74 		.ascii	"uint64_t\000"
 3477      36345F74 
 3477      00
 3478              	.LASF29:
 3479 02a5 705F6F6C 		.ascii	"p_older\000"
 3479      64657200 
 3480              	.LASF49:
 3481 02ad 725F6374 		.ascii	"r_ctx\000"
 3481      7800
 3482              	.LASF41:
 3483 02b3 54687265 		.ascii	"ThreadsQueue\000"
 3483      61647351 
 3483      75657565 
 3483      00
 3484              	.LASF64:
 3485 02c0 534D5052 		.ascii	"SMPR1\000"
 3485      3100
 3486              	.LASF65:
 3487 02c6 534D5052 		.ascii	"SMPR2\000"
 3487      3200
 3488              	.LASF138:
 3489 02cc 433A5C70 		.ascii	"C:\\projects\\voltamper.git\\firmware\\voltamp\000"
 3489      726F6A65 
 3489      6374735C 
 3489      766F6C74 
 3489      616D7065 
 3490              	.LASF53:
 3491 02f7 725F6375 		.ascii	"r_current\000"
 3491      7272656E 
 3491      7400
 3492              	.LASF51:
 3493 0301 725F6F6C 		.ascii	"r_older\000"
 3493      64657200 
 3494              	.LASF70:
 3495 0309 53515231 		.ascii	"SQR1\000"
 3495      00
 3496              	.LASF71:
 3497 030e 53515232 		.ascii	"SQR2\000"
 3497      00
 3498              	.LASF72:
 3499 0313 53515233 		.ascii	"SQR3\000"
 3499      00
 3500              	.LASF129:
 3501 0318 61646353 		.ascii	"adcStartConversionI\000"
 3501      74617274 
 3501      436F6E76 
 3501      65727369 
 3501      6F6E4900 
 3502              	.LASF25:
 3503 032c 705F7072 		.ascii	"p_prev\000"
 3503      657600
 3504              	.LASF88:
 3505 0333 73746D33 		.ascii	"stm32_dma_stream_t\000"
 3505      325F646D 
ARM GAS  C:\Users\z80\AppData\Local\Temp\ccoYycsf.s 			page 68


 3505      615F7374 
 3505      7265616D 
 3505      5F7400
 3506              	.LASF18:
 3507 0346 74707269 		.ascii	"tprio_t\000"
 3507      6F5F7400 
 3508              	.LASF107:
 3509 034e 6D757465 		.ascii	"mutex\000"
 3509      7800
 3510              	.LASF8:
 3511 0354 696E7433 		.ascii	"int32_t\000"
 3511      325F7400 
 3512              	.LASF4:
 3513 035c 756E7369 		.ascii	"unsigned char\000"
 3513      676E6564 
 3513      20636861 
 3513      7200
 3514              	.LASF137:
 3515 036a 2E2E2F63 		.ascii	"../chibios_2.4.x/os/hal/src/adc.c\000"
 3515      68696269 
 3515      6F735F32 
 3515      2E342E78 
 3515      2F6F732F 
 3516              	.LASF39:
 3517 038c 705F6D74 		.ascii	"p_mtxlist\000"
 3517      786C6973 
 3517      7400
 3518              	.LASF5:
 3519 0396 73686F72 		.ascii	"short int\000"
 3519      7420696E 
 3519      7400
 3520              	.LASF32:
 3521 03a0 705F7374 		.ascii	"p_state\000"
 3521      61746500 
 3522              	.LASF115:
 3523 03a8 6572726F 		.ascii	"error_cb\000"
 3523      725F6362 
 3523      00
 3524              	.LASF48:
 3525 03b1 725F7072 		.ascii	"r_prio\000"
 3525      696F00
 3526              	.LASF62:
 3527 03b8 65776D61 		.ascii	"ewmask\000"
 3527      736B00
 3528              	.LASF24:
 3529 03bf 705F6E65 		.ascii	"p_next\000"
 3529      787400
 3530              	.LASF33:
 3531 03c6 705F666C 		.ascii	"p_flags\000"
 3531      61677300 
 3532              	.LASF69:
 3533 03ce 4A4F4652 		.ascii	"JOFR4\000"
 3533      3400
 3534              	.LASF83:
 3535 03d4 6368616E 		.ascii	"channel\000"
 3535      6E656C00 
 3536              	.LASF38:
ARM GAS  C:\Users\z80\AppData\Local\Temp\ccoYycsf.s 			page 69


 3537 03dc 705F6570 		.ascii	"p_epending\000"
 3537      656E6469 
 3537      6E6700
 3538              	.LASF84:
 3539 03e7 69666372 		.ascii	"ifcr\000"
 3539      00
 3540              	.LASF10:
 3541 03ec 75696E74 		.ascii	"uint32_t\000"
 3541      33325F74 
 3541      00
 3542              	.LASF47:
 3543 03f5 725F7175 		.ascii	"r_queue\000"
 3543      65756500 
 3544              	.LASF116:
 3545 03fd 736D7072 		.ascii	"smpr1\000"
 3545      3100
 3546              	.LASF11:
 3547 0403 6C6F6E67 		.ascii	"long unsigned int\000"
 3547      20756E73 
 3547      69676E65 
 3547      6420696E 
 3547      7400
 3548              	.LASF63:
 3549 0415 63686172 		.ascii	"char\000"
 3549      00
 3550              	.LASF102:
 3551 041a 636F6E66 		.ascii	"config\000"
 3551      696700
 3552              	.LASF81:
 3553 0421 434D4152 		.ascii	"CMAR\000"
 3553      00
 3554              	.LASF118:
 3555 0426 73717231 		.ascii	"sqr1\000"
 3555      00
 3556              	.LASF119:
 3557 042b 73717232 		.ascii	"sqr2\000"
 3557      00
 3558              	.LASF120:
 3559 0430 73717233 		.ascii	"sqr3\000"
 3559      00
 3560              	.LASF21:
 3561 0435 73797374 		.ascii	"systime_t\000"
 3561      696D655F 
 3561      7400
 3562              	.LASF40:
 3563 043f 705F7265 		.ascii	"p_realprio\000"
 3563      616C7072 
 3563      696F00
 3564              	.LASF46:
 3565 044a 636F6E74 		.ascii	"context\000"
 3565      65787400 
 3566              	.LASF128:
 3567 0452 61646353 		.ascii	"adcStartConversion\000"
 3567      74617274 
 3567      436F6E76 
 3567      65727369 
 3567      6F6E00
ARM GAS  C:\Users\z80\AppData\Local\Temp\ccoYycsf.s 			page 70


 3568              	.LASF45:
 3569 0465 696E7463 		.ascii	"intctx\000"
 3569      747800
 3570              	.LASF94:
 3571 046c 4144435F 		.ascii	"ADC_ERROR\000"
 3571      4552524F 
 3571      5200
 3572              	.LASF125:
 3573 0476 61646353 		.ascii	"adcStart\000"
 3573      74617274 
 3573      00
 3574              	.LASF54:
 3575 047f 52656164 		.ascii	"ReadyList\000"
 3575      794C6973 
 3575      7400
 3576              	.LASF79:
 3577 0489 434E4454 		.ascii	"CNDTR\000"
 3577      5200
 3578              	.LASF117:
 3579 048f 736D7072 		.ascii	"smpr2\000"
 3579      3200
 3580              	.LASF134:
 3581 0495 726C6973 		.ascii	"rlist\000"
 3581      7400
 3582              	.LASF3:
 3583 049b 75696E74 		.ascii	"uint8_t\000"
 3583      385F7400 
 3584              	.LASF131:
 3585 04a3 61646353 		.ascii	"adcStopConversionI\000"
 3585      746F7043 
 3585      6F6E7665 
 3585      7273696F 
 3585      6E4900
 3586              	.LASF121:
 3587 04b6 41444343 		.ascii	"ADCConversionGroup\000"
 3587      6F6E7665 
 3587      7273696F 
 3587      6E47726F 
 3587      757000
 3588              	.LASF74:
 3589 04c9 4A445231 		.ascii	"JDR1\000"
 3589      00
 3590              	.LASF75:
 3591 04ce 4A445232 		.ascii	"JDR2\000"
 3591      00
 3592              	.LASF76:
 3593 04d3 4A445233 		.ascii	"JDR3\000"
 3593      00
 3594              	.LASF77:
 3595 04d8 4A445234 		.ascii	"JDR4\000"
 3595      00
 3596              	.LASF136:
 3597 04dd 474E5520 		.ascii	"GNU C 4.5.0\000"
 3597      4320342E 
 3597      352E3000 
 3598              	.LASF61:
 3599 04e9 77746F62 		.ascii	"wtobjp\000"
ARM GAS  C:\Users\z80\AppData\Local\Temp\ccoYycsf.s 			page 71


 3599      6A7000
 3600              	.LASF93:
 3601 04f0 4144435F 		.ascii	"ADC_COMPLETE\000"
 3601      434F4D50 
 3601      4C455445 
 3601      00
 3602              	.LASF30:
 3603 04fd 705F6E61 		.ascii	"p_name\000"
 3603      6D6500
 3604              	.LASF97:
 3605 0504 6164635F 		.ascii	"adc_channels_num_t\000"
 3605      6368616E 
 3605      6E656C73 
 3605      5F6E756D 
 3605      5F7400
 3606              	.LASF37:
 3607 0517 705F6D73 		.ascii	"p_msg\000"
 3607      6700
 3608              	.LASF52:
 3609 051d 725F7072 		.ascii	"r_preempt\000"
 3609      65656D70 
 3609      7400
 3610              	.LASF130:
 3611 0527 61646353 		.ascii	"adcStopConversion\000"
 3611      746F7043 
 3611      6F6E7665 
 3611      7273696F 
 3611      6E00
 3612              	.LASF57:
 3613 0539 6D5F6F77 		.ascii	"m_owner\000"
 3613      6E657200 
 3614              	.LASF132:
 3615 0541 61646341 		.ascii	"adcAcquireBus\000"
 3615      63717569 
 3615      72654275 
 3615      7300
 3616              	.LASF27:
 3617 054f 705F6374 		.ascii	"p_ctx\000"
 3617      7800
 3618              	.LASF35:
 3619 0555 705F7761 		.ascii	"p_waiting\000"
 3619      6974696E 
 3619      6700
 3620              		.ident	"GCC: (GNU) 4.5.0"
ARM GAS  C:\Users\z80\AppData\Local\Temp\ccoYycsf.s 			page 72


DEFINED SYMBOLS
                            *ABS*:00000000 adc.c
C:\Users\z80\AppData\Local\Temp\ccoYycsf.s:24     .text.adcInit:00000000 $t
C:\Users\z80\AppData\Local\Temp\ccoYycsf.s:30     .text.adcInit:00000000 adcInit
C:\Users\z80\AppData\Local\Temp\ccoYycsf.s:50     .text.adcObjectInit:00000000 $t
C:\Users\z80\AppData\Local\Temp\ccoYycsf.s:56     .text.adcObjectInit:00000000 adcObjectInit
C:\Users\z80\AppData\Local\Temp\ccoYycsf.s:106    .rodata:00000000 $d
C:\Users\z80\AppData\Local\Temp\ccoYycsf.s:107    .rodata:00000000 .LC0
C:\Users\z80\AppData\Local\Temp\ccoYycsf.s:110    .rodata:00000010 .LC1
C:\Users\z80\AppData\Local\Temp\ccoYycsf.s:113    .text.adcStart:00000000 $t
C:\Users\z80\AppData\Local\Temp\ccoYycsf.s:119    .text.adcStart:00000000 adcStart
C:\Users\z80\AppData\Local\Temp\ccoYycsf.s:195    .rodata:00000020 .LC2
C:\Users\z80\AppData\Local\Temp\ccoYycsf.s:198    .rodata:0000002c .LC3
C:\Users\z80\AppData\Local\Temp\ccoYycsf.s:201    .text.adcStop:00000000 $t
C:\Users\z80\AppData\Local\Temp\ccoYycsf.s:207    .text.adcStop:00000000 adcStop
C:\Users\z80\AppData\Local\Temp\ccoYycsf.s:277    .text.adcStartConversion:00000000 $t
C:\Users\z80\AppData\Local\Temp\ccoYycsf.s:283    .text.adcStartConversion:00000000 adcStartConversion
C:\Users\z80\AppData\Local\Temp\ccoYycsf.s:344    .text.adcStartConversionI:00000000 adcStartConversionI
C:\Users\z80\AppData\Local\Temp\ccoYycsf.s:332    .rodata:0000003c .LC4
C:\Users\z80\AppData\Local\Temp\ccoYycsf.s:335    .rodata:00000054 .LC5
C:\Users\z80\AppData\Local\Temp\ccoYycsf.s:338    .text.adcStartConversionI:00000000 $t
C:\Users\z80\AppData\Local\Temp\ccoYycsf.s:438    .rodata:00000070 .LC6
C:\Users\z80\AppData\Local\Temp\ccoYycsf.s:441    .rodata:00000088 .LC7
C:\Users\z80\AppData\Local\Temp\ccoYycsf.s:444    .text.adcStopConversion:00000000 $t
C:\Users\z80\AppData\Local\Temp\ccoYycsf.s:450    .text.adcStopConversion:00000000 adcStopConversion
C:\Users\z80\AppData\Local\Temp\ccoYycsf.s:548    .rodata:000000a0 .LC8
C:\Users\z80\AppData\Local\Temp\ccoYycsf.s:551    .rodata:000000b8 .LC9
C:\Users\z80\AppData\Local\Temp\ccoYycsf.s:554    .text.adcStopConversionI:00000000 $t
C:\Users\z80\AppData\Local\Temp\ccoYycsf.s:560    .text.adcStopConversionI:00000000 adcStopConversionI
C:\Users\z80\AppData\Local\Temp\ccoYycsf.s:649    .rodata:000000d4 .LC10
C:\Users\z80\AppData\Local\Temp\ccoYycsf.s:652    .text.adcConvert:00000000 $t
C:\Users\z80\AppData\Local\Temp\ccoYycsf.s:658    .text.adcConvert:00000000 adcConvert
C:\Users\z80\AppData\Local\Temp\ccoYycsf.s:735    .rodata:000000e8 .LC11
C:\Users\z80\AppData\Local\Temp\ccoYycsf.s:738    .text.adcAcquireBus:00000000 $t
C:\Users\z80\AppData\Local\Temp\ccoYycsf.s:744    .text.adcAcquireBus:00000000 adcAcquireBus
C:\Users\z80\AppData\Local\Temp\ccoYycsf.s:780    .rodata:000000fc .LC12
C:\Users\z80\AppData\Local\Temp\ccoYycsf.s:783    .text.adcReleaseBus:00000000 $t
C:\Users\z80\AppData\Local\Temp\ccoYycsf.s:789    .text.adcReleaseBus:00000000 adcReleaseBus
                     .debug_frame:00000010 $d

UNDEFINED SYMBOLS
adc_lld_init
chMtxInit
chDbgPanic
dbg_check_lock
adc_lld_start
dbg_check_unlock
adc_lld_stop
chDbgCheckClassI
adc_lld_start_conversion
adc_lld_stop_conversion
chSchWakeupS
chSchReadyI
rlist
chSchGoSleepS
chMtxLock
chMtxUnlock
ARM GAS  C:\Users\z80\AppData\Local\Temp\ccoYycsf.s 			page 73


