ARM GAS  /tmp/ccaOL8bX.s 			page 1


   1              		.syntax unified
   2              		.cpu cortex-m3
   3              		.fpu softvfp
   4              		.eabi_attribute 20, 1
   5              		.eabi_attribute 21, 1
   6              		.eabi_attribute 23, 3
   7              		.eabi_attribute 24, 1
   8              		.eabi_attribute 25, 1
   9              		.eabi_attribute 26, 1
  10              		.eabi_attribute 30, 6
  11              		.eabi_attribute 18, 4
  12              		.thumb
  13              		.file	"adc.c"
  14              		.section	.debug_abbrev,"",%progbits
  15              	.Ldebug_abbrev0:
  16              		.section	.debug_info,"",%progbits
  17              	.Ldebug_info0:
  18              		.section	.debug_line,"",%progbits
  19              	.Ldebug_line0:
  20 0000 12040000 		.text
  20      02007402 
  20      00000201 
  20      FB0E0D00 
  20      01010101 
  21              	.Ltext0:
  22              		.cfi_sections	.debug_frame
  23              		.section	.text.adcInit,"ax",%progbits
  24              		.align	2
  25              		.p2align 4,,15
  26              		.global	adcInit
  27              		.thumb
  28              		.thumb_func
  29              		.type	adcInit, %function
  30              	adcInit:
  31              	.LFB62:
  32              		.file 1 "../chibios_2.4.x/os/hal/src/adc.c"
  33              		.loc 1 68 0
  34              		.cfi_startproc
  35              		@ args = 0, pretend = 0, frame = 0
  36              		@ frame_needed = 0, uses_anonymous_args = 0
  37 0000 08B5     		push	{r3, lr}
  38              	.LCFI0:
  39              		.cfi_def_cfa_offset 8
  40              		.loc 1 70 0
  41              		.cfi_offset 14, -4
  42              		.cfi_offset 3, -8
  43 0002 FFF7FEFF 		bl	adc_lld_init
  44              		.loc 1 71 0
  45 0006 08BD     		pop	{r3, pc}
  46              		.cfi_endproc
  47              	.LFE62:
  48              		.size	adcInit, .-adcInit
  49 0008 AFF30080 		.section	.text.adcObjectInit,"ax",%progbits
  49      AFF30080 
  50              		.align	2
  51              		.p2align 4,,15
  52              		.global	adcObjectInit
ARM GAS  /tmp/ccaOL8bX.s 			page 2


  53              		.thumb
  54              		.thumb_func
  55              		.type	adcObjectInit, %function
  56              	adcObjectInit:
  57              	.LFB63:
  58              		.loc 1 80 0
  59              		.cfi_startproc
  60              		@ args = 0, pretend = 0, frame = 8
  61              		@ frame_needed = 0, uses_anonymous_args = 0
  62 0000 00B5     		push	{lr}
  63              	.LCFI1:
  64              		.cfi_def_cfa_offset 4
  65 0002 83B0     		sub	sp, sp, #12
  66              	.LCFI2:
  67              		.cfi_def_cfa_offset 16
  68 0004 0190     		str	r0, [sp, #4]
  69              		.loc 1 82 0
  70 0006 019B     		ldr	r3, [sp, #4]
  71 0008 4FF00102 		mov	r2, #1
  72 000c 1A70     		strb	r2, [r3, #0]
  73              		.loc 1 83 0
  74 000e 019B     		ldr	r3, [sp, #4]
  75 0010 4FF00002 		mov	r2, #0
  76 0014 5A60     		str	r2, [r3, #4]
  77              		.loc 1 84 0
  78 0016 019B     		ldr	r3, [sp, #4]
  79 0018 4FF00002 		mov	r2, #0
  80 001c 9A60     		str	r2, [r3, #8]
  81              		.loc 1 85 0
  82 001e 019B     		ldr	r3, [sp, #4]
  83 0020 4FF00002 		mov	r2, #0
  84 0024 DA60     		str	r2, [r3, #12]
  85              		.loc 1 86 0
  86 0026 019B     		ldr	r3, [sp, #4]
  87 0028 4FF00002 		mov	r2, #0
  88 002c 1A61     		str	r2, [r3, #16]
  89              		.loc 1 88 0
  90 002e 019B     		ldr	r3, [sp, #4]
  91 0030 4FF00002 		mov	r2, #0
  92 0034 5A61     		str	r2, [r3, #20]
  93              		.loc 1 92 0
  94 0036 019B     		ldr	r3, [sp, #4]
  95 0038 03F11803 		add	r3, r3, #24
  96 003c 1846     		mov	r0, r3
  97              		.cfi_offset 14, -4
  98 003e FFF7FEFF 		bl	chMtxInit
  99              		.loc 1 100 0
 100 0042 03B0     		add	sp, sp, #12
 101 0044 00BD     		pop	{pc}
 102              		.cfi_endproc
 103              	.LFE63:
 104              		.size	adcObjectInit, .-adcObjectInit
 105 0046 00BFAFF3 		.section	.rodata
 105      0080AFF3 
 105      0080
 106              		.align	2
 107              	.LC0:
ARM GAS  /tmp/ccaOL8bX.s 			page 3


 108 0000 22616463 		.ascii	"\"adcStart\"()\000"
 108      53746172 
 108      74222829 
 108      00
 109 000d 000000   		.align	2
 110              	.LC1:
 111 0010 61646353 		.ascii	"adcStart(), #1\000"
 111      74617274 
 111      28292C20 
 111      233100
 112              		.section	.text.adcStart,"ax",%progbits
 113              		.align	2
 114              		.p2align 4,,15
 115              		.global	adcStart
 116              		.thumb
 117              		.thumb_func
 118              		.type	adcStart, %function
 119              	adcStart:
 120              	.LFB64:
 121              		.loc 1 111 0
 122              		.cfi_startproc
 123              		@ args = 0, pretend = 0, frame = 8
 124              		@ frame_needed = 0, uses_anonymous_args = 0
 125 0000 00B5     		push	{lr}
 126              	.LCFI3:
 127              		.cfi_def_cfa_offset 4
 128 0002 83B0     		sub	sp, sp, #12
 129              	.LCFI4:
 130              		.cfi_def_cfa_offset 16
 131 0004 0190     		str	r0, [sp, #4]
 132 0006 0091     		str	r1, [sp, #0]
 133              		.loc 1 113 0
 134 0008 019B     		ldr	r3, [sp, #4]
 135 000a 002B     		cmp	r3, #0
 136 000c 02D1     		bne	.L4
 137              		.cfi_offset 14, -4
 138              		.loc 1 113 0 is_stmt 0 discriminator 1
 139 000e 1348     		ldr	r0, .L6
 140 0010 FFF7FEFF 		bl	chDbgPanic
 141              	.L4:
 142              	.LBB2:
 143              		.loc 1 115 0 is_stmt 1
 144 0014 4FF02003 		mov	r3, #32
 145              	@ 115 "../chibios_2.4.x/os/hal/src/adc.c" 1
 146 0018 83F31188 		msr     BASEPRI, r3
 147              	@ 0 "" 2
 148              		.thumb
 149              	.LBE2:
 150 001c FFF7FEFF 		bl	dbg_check_lock
 151              		.loc 1 116 0
 152 0020 019B     		ldr	r3, [sp, #4]
 153 0022 1B78     		ldrb	r3, [r3, #0]	@ zero_extendqisi2
 154 0024 012B     		cmp	r3, #1
 155 0026 06D0     		beq	.L5
 156              		.loc 1 116 0 is_stmt 0 discriminator 1
 157 0028 019B     		ldr	r3, [sp, #4]
 158 002a 1B78     		ldrb	r3, [r3, #0]	@ zero_extendqisi2
ARM GAS  /tmp/ccaOL8bX.s 			page 4


 159 002c 022B     		cmp	r3, #2
 160 002e 02D0     		beq	.L5
 161              		.loc 1 116 0 discriminator 2
 162 0030 0B48     		ldr	r0, .L6+4
 163 0032 FFF7FEFF 		bl	chDbgPanic
 164              	.L5:
 165              		.loc 1 118 0 is_stmt 1
 166 0036 019B     		ldr	r3, [sp, #4]
 167 0038 009A     		ldr	r2, [sp, #0]
 168 003a 5A60     		str	r2, [r3, #4]
 169              		.loc 1 119 0
 170 003c 0198     		ldr	r0, [sp, #4]
 171 003e FFF7FEFF 		bl	adc_lld_start
 172              		.loc 1 120 0
 173 0042 019B     		ldr	r3, [sp, #4]
 174 0044 4FF00202 		mov	r2, #2
 175 0048 1A70     		strb	r2, [r3, #0]
 176              		.loc 1 121 0
 177 004a FFF7FEFF 		bl	dbg_check_unlock
 178              	.LBB3:
 179 004e 4FF00003 		mov	r3, #0
 180              	@ 121 "../chibios_2.4.x/os/hal/src/adc.c" 1
 181 0052 83F31188 		msr     BASEPRI, r3
 182              	@ 0 "" 2
 183              		.thumb
 184              	.LBE3:
 185              		.loc 1 122 0
 186 0056 03B0     		add	sp, sp, #12
 187 0058 00BD     		pop	{pc}
 188              	.L7:
 189 005a 00BF     		.align	2
 190              	.L6:
 191 005c 00000000 		.word	.LC0
 192 0060 10000000 		.word	.LC1
 193              		.cfi_endproc
 194              	.LFE64:
 195              		.size	adcStart, .-adcStart
 196 0064 AFF30080 		.section	.rodata
 196      AFF30080 
 196      AFF30080 
 197 001f 00       		.align	2
 198              	.LC2:
 199 0020 22616463 		.ascii	"\"adcStop\"()\000"
 199      53746F70 
 199      22282900 
 200              		.align	2
 201              	.LC3:
 202 002c 61646353 		.ascii	"adcStop(), #1\000"
 202      746F7028 
 202      292C2023 
 202      3100
 203              		.section	.text.adcStop,"ax",%progbits
 204              		.align	2
 205              		.p2align 4,,15
 206              		.global	adcStop
 207              		.thumb
 208              		.thumb_func
ARM GAS  /tmp/ccaOL8bX.s 			page 5


 209              		.type	adcStop, %function
 210              	adcStop:
 211              	.LFB65:
 212              		.loc 1 131 0
 213              		.cfi_startproc
 214              		@ args = 0, pretend = 0, frame = 8
 215              		@ frame_needed = 0, uses_anonymous_args = 0
 216 0000 00B5     		push	{lr}
 217              	.LCFI5:
 218              		.cfi_def_cfa_offset 4
 219 0002 83B0     		sub	sp, sp, #12
 220              	.LCFI6:
 221              		.cfi_def_cfa_offset 16
 222 0004 0190     		str	r0, [sp, #4]
 223              		.loc 1 133 0
 224 0006 019B     		ldr	r3, [sp, #4]
 225 0008 002B     		cmp	r3, #0
 226 000a 02D1     		bne	.L9
 227              		.cfi_offset 14, -4
 228              		.loc 1 133 0 is_stmt 0 discriminator 1
 229 000c 1148     		ldr	r0, .L11
 230 000e FFF7FEFF 		bl	chDbgPanic
 231              	.L9:
 232              	.LBB4:
 233              		.loc 1 135 0 is_stmt 1
 234 0012 4FF02003 		mov	r3, #32
 235              	@ 135 "../chibios_2.4.x/os/hal/src/adc.c" 1
 236 0016 83F31188 		msr     BASEPRI, r3
 237              	@ 0 "" 2
 238              		.thumb
 239              	.LBE4:
 240 001a FFF7FEFF 		bl	dbg_check_lock
 241              		.loc 1 136 0
 242 001e 019B     		ldr	r3, [sp, #4]
 243 0020 1B78     		ldrb	r3, [r3, #0]	@ zero_extendqisi2
 244 0022 012B     		cmp	r3, #1
 245 0024 06D0     		beq	.L10
 246              		.loc 1 136 0 is_stmt 0 discriminator 1
 247 0026 019B     		ldr	r3, [sp, #4]
 248 0028 1B78     		ldrb	r3, [r3, #0]	@ zero_extendqisi2
 249 002a 022B     		cmp	r3, #2
 250 002c 02D0     		beq	.L10
 251              		.loc 1 136 0 discriminator 2
 252 002e 0A48     		ldr	r0, .L11+4
 253 0030 FFF7FEFF 		bl	chDbgPanic
 254              	.L10:
 255              		.loc 1 138 0 is_stmt 1
 256 0034 0198     		ldr	r0, [sp, #4]
 257 0036 FFF7FEFF 		bl	adc_lld_stop
 258              		.loc 1 139 0
 259 003a 019B     		ldr	r3, [sp, #4]
 260 003c 4FF00102 		mov	r2, #1
 261 0040 1A70     		strb	r2, [r3, #0]
 262              		.loc 1 140 0
 263 0042 FFF7FEFF 		bl	dbg_check_unlock
 264              	.LBB5:
 265 0046 4FF00003 		mov	r3, #0
ARM GAS  /tmp/ccaOL8bX.s 			page 6


 266              	@ 140 "../chibios_2.4.x/os/hal/src/adc.c" 1
 267 004a 83F31188 		msr     BASEPRI, r3
 268              	@ 0 "" 2
 269              		.thumb
 270              	.LBE5:
 271              		.loc 1 141 0
 272 004e 03B0     		add	sp, sp, #12
 273 0050 00BD     		pop	{pc}
 274              	.L12:
 275 0052 00BF     		.align	2
 276              	.L11:
 277 0054 20000000 		.word	.LC2
 278 0058 2C000000 		.word	.LC3
 279              		.cfi_endproc
 280              	.LFE65:
 281              		.size	adcStop, .-adcStop
 282 005c AFF30080 		.section	.text.adcStartConversion,"ax",%progbits
 283              		.align	2
 284              		.p2align 4,,15
 285              		.global	adcStartConversion
 286              		.thumb
 287              		.thumb_func
 288              		.type	adcStartConversion, %function
 289              	adcStartConversion:
 290              	.LFB66:
 291              		.loc 1 162 0
 292              		.cfi_startproc
 293              		@ args = 0, pretend = 0, frame = 16
 294              		@ frame_needed = 0, uses_anonymous_args = 0
 295 0000 00B5     		push	{lr}
 296              	.LCFI7:
 297              		.cfi_def_cfa_offset 4
 298 0002 85B0     		sub	sp, sp, #20
 299              	.LCFI8:
 300              		.cfi_def_cfa_offset 24
 301 0004 0390     		str	r0, [sp, #12]
 302 0006 0291     		str	r1, [sp, #8]
 303 0008 0192     		str	r2, [sp, #4]
 304 000a 0093     		str	r3, [sp, #0]
 305              	.LBB6:
 306              		.loc 1 164 0
 307 000c 4FF02003 		mov	r3, #32
 308              	@ 164 "../chibios_2.4.x/os/hal/src/adc.c" 1
 309 0010 83F31188 		msr     BASEPRI, r3
 310              	@ 0 "" 2
 311              		.thumb
 312              	.LBE6:
 313              		.cfi_offset 14, -4
 314 0014 FFF7FEFF 		bl	dbg_check_lock
 315              		.loc 1 165 0
 316 0018 0398     		ldr	r0, [sp, #12]
 317 001a 0299     		ldr	r1, [sp, #8]
 318 001c 019A     		ldr	r2, [sp, #4]
 319 001e 009B     		ldr	r3, [sp, #0]
 320 0020 FFF7FEFF 		bl	adcStartConversionI
 321              		.loc 1 166 0
 322 0024 FFF7FEFF 		bl	dbg_check_unlock
ARM GAS  /tmp/ccaOL8bX.s 			page 7


 323              	.LBB7:
 324 0028 4FF00003 		mov	r3, #0
 325              	@ 166 "../chibios_2.4.x/os/hal/src/adc.c" 1
 326 002c 83F31188 		msr     BASEPRI, r3
 327              	@ 0 "" 2
 328              		.thumb
 329              	.LBE7:
 330              		.loc 1 167 0
 331 0030 05B0     		add	sp, sp, #20
 332 0032 00BD     		pop	{pc}
 333              		.cfi_endproc
 334              	.LFE66:
 335              		.size	adcStartConversion, .-adcStartConversion
 336 0034 AFF30080 		.section	.rodata
 336      AFF30080 
 336      AFF30080 
 337 003a 0000     		.align	2
 338              	.LC4:
 339 003c 22616463 		.ascii	"\"adcStartConversionI\"()\000"
 339      53746172 
 339      74436F6E 
 339      76657273 
 339      696F6E49 
 340              		.align	2
 341              	.LC5:
 342 0054 61646353 		.ascii	"adcStartConversionI(), #1\000"
 342      74617274 
 342      436F6E76 
 342      65727369 
 342      6F6E4928 
 343              		.section	.text.adcStartConversionI,"ax",%progbits
 344              		.align	2
 345              		.p2align 4,,15
 346              		.global	adcStartConversionI
 347              		.thumb
 348              		.thumb_func
 349              		.type	adcStartConversionI, %function
 350              	adcStartConversionI:
 351              	.LFB67:
 352              		.loc 1 190 0
 353              		.cfi_startproc
 354              		@ args = 0, pretend = 0, frame = 16
 355              		@ frame_needed = 0, uses_anonymous_args = 0
 356 0000 00B5     		push	{lr}
 357              	.LCFI9:
 358              		.cfi_def_cfa_offset 4
 359 0002 85B0     		sub	sp, sp, #20
 360              	.LCFI10:
 361              		.cfi_def_cfa_offset 24
 362 0004 0390     		str	r0, [sp, #12]
 363 0006 0291     		str	r1, [sp, #8]
 364 0008 0192     		str	r2, [sp, #4]
 365 000a 0093     		str	r3, [sp, #0]
 366              		.loc 1 192 0
 367              		.cfi_offset 14, -4
 368 000c FFF7FEFF 		bl	chDbgCheckClassI
 369              		.loc 1 193 0
ARM GAS  /tmp/ccaOL8bX.s 			page 8


 370 0010 039B     		ldr	r3, [sp, #12]
 371 0012 002B     		cmp	r3, #0
 372 0014 0ED0     		beq	.L15
 373              		.loc 1 193 0 is_stmt 0 discriminator 2
 374 0016 029B     		ldr	r3, [sp, #8]
 375 0018 002B     		cmp	r3, #0
 376 001a 0BD0     		beq	.L15
 377              		.loc 1 193 0 discriminator 3
 378 001c 019B     		ldr	r3, [sp, #4]
 379 001e 002B     		cmp	r3, #0
 380 0020 08D0     		beq	.L15
 381              		.loc 1 193 0 discriminator 4
 382 0022 009B     		ldr	r3, [sp, #0]
 383 0024 012B     		cmp	r3, #1
 384 0026 08D0     		beq	.L16
 385              		.loc 1 193 0 discriminator 5
 386 0028 009B     		ldr	r3, [sp, #0]
 387 002a 03F00103 		and	r3, r3, #1
 388 002e DBB2     		uxtb	r3, r3
 389 0030 002B     		cmp	r3, #0
 390 0032 02D0     		beq	.L16
 391              	.L15:
 392              		.loc 1 193 0 discriminator 1
 393 0034 1148     		ldr	r0, .L18
 394 0036 FFF7FEFF 		bl	chDbgPanic
 395              	.L16:
 396              		.loc 1 196 0 is_stmt 1
 397 003a 039B     		ldr	r3, [sp, #12]
 398 003c 1B78     		ldrb	r3, [r3, #0]	@ zero_extendqisi2
 399 003e 022B     		cmp	r3, #2
 400 0040 0AD0     		beq	.L17
 401              		.loc 1 196 0 is_stmt 0 discriminator 1
 402 0042 039B     		ldr	r3, [sp, #12]
 403 0044 1B78     		ldrb	r3, [r3, #0]	@ zero_extendqisi2
 404 0046 042B     		cmp	r3, #4
 405 0048 06D0     		beq	.L17
 406              		.loc 1 196 0 discriminator 2
 407 004a 039B     		ldr	r3, [sp, #12]
 408 004c 1B78     		ldrb	r3, [r3, #0]	@ zero_extendqisi2
 409 004e 052B     		cmp	r3, #5
 410 0050 02D0     		beq	.L17
 411              		.loc 1 196 0 discriminator 3
 412 0052 0B48     		ldr	r0, .L18+4
 413 0054 FFF7FEFF 		bl	chDbgPanic
 414              	.L17:
 415              		.loc 1 201 0 is_stmt 1
 416 0058 039B     		ldr	r3, [sp, #12]
 417 005a 019A     		ldr	r2, [sp, #4]
 418 005c 9A60     		str	r2, [r3, #8]
 419              		.loc 1 202 0
 420 005e 039B     		ldr	r3, [sp, #12]
 421 0060 009A     		ldr	r2, [sp, #0]
 422 0062 DA60     		str	r2, [r3, #12]
 423              		.loc 1 203 0
 424 0064 039B     		ldr	r3, [sp, #12]
 425 0066 029A     		ldr	r2, [sp, #8]
 426 0068 1A61     		str	r2, [r3, #16]
ARM GAS  /tmp/ccaOL8bX.s 			page 9


 427              		.loc 1 204 0
 428 006a 039B     		ldr	r3, [sp, #12]
 429 006c 4FF00302 		mov	r2, #3
 430 0070 1A70     		strb	r2, [r3, #0]
 431              		.loc 1 205 0
 432 0072 0398     		ldr	r0, [sp, #12]
 433 0074 FFF7FEFF 		bl	adc_lld_start_conversion
 434              		.loc 1 206 0
 435 0078 05B0     		add	sp, sp, #20
 436 007a 00BD     		pop	{pc}
 437              	.L19:
 438              		.align	2
 439              	.L18:
 440 007c 3C000000 		.word	.LC4
 441 0080 54000000 		.word	.LC5
 442              		.cfi_endproc
 443              	.LFE67:
 444              		.size	adcStartConversionI, .-adcStartConversionI
 445 0084 AFF30080 		.section	.rodata
 445      AFF30080 
 445      AFF30080 
 446 006e 0000     		.align	2
 447              	.LC6:
 448 0070 22616463 		.ascii	"\"adcStopConversion\"()\000"
 448      53746F70 
 448      436F6E76 
 448      65727369 
 448      6F6E2228 
 449 0086 0000     		.align	2
 450              	.LC7:
 451 0088 61646353 		.ascii	"adcStopConversion(), #1\000"
 451      746F7043 
 451      6F6E7665 
 451      7273696F 
 451      6E28292C 
 452              		.section	.text.adcStopConversion,"ax",%progbits
 453              		.align	2
 454              		.p2align 4,,15
 455              		.global	adcStopConversion
 456              		.thumb
 457              		.thumb_func
 458              		.type	adcStopConversion, %function
 459              	adcStopConversion:
 460              	.LFB68:
 461              		.loc 1 218 0
 462              		.cfi_startproc
 463              		@ args = 0, pretend = 0, frame = 16
 464              		@ frame_needed = 0, uses_anonymous_args = 0
 465 0000 00B5     		push	{lr}
 466              	.LCFI11:
 467              		.cfi_def_cfa_offset 4
 468 0002 85B0     		sub	sp, sp, #20
 469              	.LCFI12:
 470              		.cfi_def_cfa_offset 24
 471 0004 0190     		str	r0, [sp, #4]
 472              		.loc 1 220 0
 473 0006 019B     		ldr	r3, [sp, #4]
ARM GAS  /tmp/ccaOL8bX.s 			page 10


 474 0008 002B     		cmp	r3, #0
 475 000a 02D1     		bne	.L21
 476              		.cfi_offset 14, -4
 477              		.loc 1 220 0 is_stmt 0 discriminator 1
 478 000c 1D48     		ldr	r0, .L24
 479 000e FFF7FEFF 		bl	chDbgPanic
 480              	.L21:
 481              	.LBB8:
 482              		.loc 1 222 0 is_stmt 1
 483 0012 4FF02003 		mov	r3, #32
 484              	@ 222 "../chibios_2.4.x/os/hal/src/adc.c" 1
 485 0016 83F31188 		msr     BASEPRI, r3
 486              	@ 0 "" 2
 487              		.thumb
 488              	.LBE8:
 489 001a FFF7FEFF 		bl	dbg_check_lock
 490              		.loc 1 223 0
 491 001e 019B     		ldr	r3, [sp, #4]
 492 0020 1B78     		ldrb	r3, [r3, #0]	@ zero_extendqisi2
 493 0022 022B     		cmp	r3, #2
 494 0024 06D0     		beq	.L22
 495              		.loc 1 223 0 is_stmt 0 discriminator 1
 496 0026 019B     		ldr	r3, [sp, #4]
 497 0028 1B78     		ldrb	r3, [r3, #0]	@ zero_extendqisi2
 498 002a 032B     		cmp	r3, #3
 499 002c 02D0     		beq	.L22
 500              		.loc 1 223 0 discriminator 2
 501 002e 1648     		ldr	r0, .L24+4
 502 0030 FFF7FEFF 		bl	chDbgPanic
 503              	.L22:
 504              		.loc 1 226 0 is_stmt 1
 505 0034 019B     		ldr	r3, [sp, #4]
 506 0036 1B78     		ldrb	r3, [r3, #0]	@ zero_extendqisi2
 507 0038 022B     		cmp	r3, #2
 508 003a 1AD0     		beq	.L23
 509              		.loc 1 227 0
 510 003c 0198     		ldr	r0, [sp, #4]
 511 003e FFF7FEFF 		bl	adc_lld_stop_conversion
 512              		.loc 1 228 0
 513 0042 019B     		ldr	r3, [sp, #4]
 514 0044 4FF00002 		mov	r2, #0
 515 0048 1A61     		str	r2, [r3, #16]
 516              		.loc 1 229 0
 517 004a 019B     		ldr	r3, [sp, #4]
 518 004c 4FF00202 		mov	r2, #2
 519 0050 1A70     		strb	r2, [r3, #0]
 520              		.loc 1 230 0
 521 0052 019B     		ldr	r3, [sp, #4]
 522 0054 5B69     		ldr	r3, [r3, #20]
 523 0056 002B     		cmp	r3, #0
 524 0058 0BD0     		beq	.L23
 525              	.LBB9:
 526              		.loc 1 230 0 is_stmt 0 discriminator 1
 527 005a 019B     		ldr	r3, [sp, #4]
 528 005c 5B69     		ldr	r3, [r3, #20]
 529 005e 0393     		str	r3, [sp, #12]
 530 0060 019B     		ldr	r3, [sp, #4]
ARM GAS  /tmp/ccaOL8bX.s 			page 11


 531 0062 4FF00002 		mov	r2, #0
 532 0066 5A61     		str	r2, [r3, #20]
 533 0068 0398     		ldr	r0, [sp, #12]
 534 006a 6FF00101 		mvn	r1, #1
 535 006e FFF7FEFF 		bl	chSchWakeupS
 536              	.L23:
 537              	.LBE9:
 538              		.loc 1 232 0 is_stmt 1
 539 0072 FFF7FEFF 		bl	dbg_check_unlock
 540              	.LBB10:
 541 0076 4FF00003 		mov	r3, #0
 542              	@ 232 "../chibios_2.4.x/os/hal/src/adc.c" 1
 543 007a 83F31188 		msr     BASEPRI, r3
 544              	@ 0 "" 2
 545              		.thumb
 546              	.LBE10:
 547              		.loc 1 233 0
 548 007e 05B0     		add	sp, sp, #20
 549 0080 00BD     		pop	{pc}
 550              	.L25:
 551 0082 00BF     		.align	2
 552              	.L24:
 553 0084 70000000 		.word	.LC6
 554 0088 88000000 		.word	.LC7
 555              		.cfi_endproc
 556              	.LFE68:
 557              		.size	adcStopConversion, .-adcStopConversion
 558 008c AFF30080 		.section	.rodata
 559              		.align	2
 560              	.LC8:
 561 00a0 22616463 		.ascii	"\"adcStopConversionI\"()\000"
 561      53746F70 
 561      436F6E76 
 561      65727369 
 561      6F6E4922 
 562 00b7 00       		.align	2
 563              	.LC9:
 564 00b8 61646353 		.ascii	"adcStopConversionI(), #1\000"
 564      746F7043 
 564      6F6E7665 
 564      7273696F 
 564      6E492829 
 565              		.section	.text.adcStopConversionI,"ax",%progbits
 566              		.align	2
 567              		.p2align 4,,15
 568              		.global	adcStopConversionI
 569              		.thumb
 570              		.thumb_func
 571              		.type	adcStopConversionI, %function
 572              	adcStopConversionI:
 573              	.LFB69:
 574              		.loc 1 245 0
 575              		.cfi_startproc
 576              		@ args = 0, pretend = 0, frame = 16
 577              		@ frame_needed = 0, uses_anonymous_args = 0
 578 0000 00B5     		push	{lr}
 579              	.LCFI13:
ARM GAS  /tmp/ccaOL8bX.s 			page 12


 580              		.cfi_def_cfa_offset 4
 581 0002 85B0     		sub	sp, sp, #20
 582              	.LCFI14:
 583              		.cfi_def_cfa_offset 24
 584 0004 0190     		str	r0, [sp, #4]
 585              		.loc 1 247 0
 586              		.cfi_offset 14, -4
 587 0006 FFF7FEFF 		bl	chDbgCheckClassI
 588              		.loc 1 248 0
 589 000a 019B     		ldr	r3, [sp, #4]
 590 000c 002B     		cmp	r3, #0
 591 000e 02D1     		bne	.L27
 592              		.loc 1 248 0 is_stmt 0 discriminator 1
 593 0010 1A48     		ldr	r0, .L30
 594 0012 FFF7FEFF 		bl	chDbgPanic
 595              	.L27:
 596              		.loc 1 249 0 is_stmt 1
 597 0016 019B     		ldr	r3, [sp, #4]
 598 0018 1B78     		ldrb	r3, [r3, #0]	@ zero_extendqisi2
 599 001a 022B     		cmp	r3, #2
 600 001c 0AD0     		beq	.L28
 601              		.loc 1 249 0 is_stmt 0 discriminator 1
 602 001e 019B     		ldr	r3, [sp, #4]
 603 0020 1B78     		ldrb	r3, [r3, #0]	@ zero_extendqisi2
 604 0022 032B     		cmp	r3, #3
 605 0024 06D0     		beq	.L28
 606              		.loc 1 249 0 discriminator 2
 607 0026 019B     		ldr	r3, [sp, #4]
 608 0028 1B78     		ldrb	r3, [r3, #0]	@ zero_extendqisi2
 609 002a 042B     		cmp	r3, #4
 610 002c 02D0     		beq	.L28
 611              		.loc 1 249 0 discriminator 3
 612 002e 1448     		ldr	r0, .L30+4
 613 0030 FFF7FEFF 		bl	chDbgPanic
 614              	.L28:
 615              		.loc 1 254 0 is_stmt 1
 616 0034 019B     		ldr	r3, [sp, #4]
 617 0036 1B78     		ldrb	r3, [r3, #0]	@ zero_extendqisi2
 618 0038 022B     		cmp	r3, #2
 619 003a 1CD0     		beq	.L26
 620              		.loc 1 255 0
 621 003c 0198     		ldr	r0, [sp, #4]
 622 003e FFF7FEFF 		bl	adc_lld_stop_conversion
 623              		.loc 1 256 0
 624 0042 019B     		ldr	r3, [sp, #4]
 625 0044 4FF00002 		mov	r2, #0
 626 0048 1A61     		str	r2, [r3, #16]
 627              		.loc 1 257 0
 628 004a 019B     		ldr	r3, [sp, #4]
 629 004c 4FF00202 		mov	r2, #2
 630 0050 1A70     		strb	r2, [r3, #0]
 631              		.loc 1 258 0
 632 0052 019B     		ldr	r3, [sp, #4]
 633 0054 5B69     		ldr	r3, [r3, #20]
 634 0056 002B     		cmp	r3, #0
 635 0058 0DD0     		beq	.L26
 636              	.LBB11:
ARM GAS  /tmp/ccaOL8bX.s 			page 13


 637              		.loc 1 258 0 is_stmt 0 discriminator 1
 638 005a 019B     		ldr	r3, [sp, #4]
 639 005c 5B69     		ldr	r3, [r3, #20]
 640 005e 0393     		str	r3, [sp, #12]
 641 0060 019B     		ldr	r3, [sp, #4]
 642 0062 4FF00002 		mov	r2, #0
 643 0066 5A61     		str	r2, [r3, #20]
 644 0068 039B     		ldr	r3, [sp, #12]
 645 006a 6FF00102 		mvn	r2, #1
 646 006e 9A62     		str	r2, [r3, #40]
 647 0070 0398     		ldr	r0, [sp, #12]
 648 0072 FFF7FEFF 		bl	chSchReadyI
 649              	.L26:
 650              	.LBE11:
 651              		.loc 1 260 0 is_stmt 1
 652 0076 05B0     		add	sp, sp, #20
 653 0078 00BD     		pop	{pc}
 654              	.L31:
 655 007a 00BF     		.align	2
 656              	.L30:
 657 007c A0000000 		.word	.LC8
 658 0080 B8000000 		.word	.LC9
 659              		.cfi_endproc
 660              	.LFE69:
 661              		.size	adcStopConversionI, .-adcStopConversionI
 662 0084 AFF30080 		.section	.rodata
 662      AFF30080 
 662      AFF30080 
 663 00d1 000000   		.align	2
 664              	.LC10:
 665 00d4 61646343 		.ascii	"adcConvert(), #1\000"
 665      6F6E7665 
 665      72742829 
 665      2C202331 
 665      00
 666              		.section	.text.adcConvert,"ax",%progbits
 667              		.align	2
 668              		.p2align 4,,15
 669              		.global	adcConvert
 670              		.thumb
 671              		.thumb_func
 672              		.type	adcConvert, %function
 673              	adcConvert:
 674              	.LFB70:
 675              		.loc 1 289 0
 676              		.cfi_startproc
 677              		@ args = 0, pretend = 0, frame = 24
 678              		@ frame_needed = 0, uses_anonymous_args = 0
 679 0000 00B5     		push	{lr}
 680              	.LCFI15:
 681              		.cfi_def_cfa_offset 4
 682 0002 87B0     		sub	sp, sp, #28
 683              	.LCFI16:
 684              		.cfi_def_cfa_offset 32
 685 0004 0390     		str	r0, [sp, #12]
 686 0006 0291     		str	r1, [sp, #8]
 687 0008 0192     		str	r2, [sp, #4]
ARM GAS  /tmp/ccaOL8bX.s 			page 14


 688 000a 0093     		str	r3, [sp, #0]
 689              	.LBB12:
 690              		.loc 1 292 0
 691 000c 4FF02003 		mov	r3, #32
 692              	@ 292 "../chibios_2.4.x/os/hal/src/adc.c" 1
 693 0010 83F31188 		msr     BASEPRI, r3
 694              	@ 0 "" 2
 695              		.thumb
 696              	.LBE12:
 697              		.cfi_offset 14, -4
 698 0014 FFF7FEFF 		bl	dbg_check_lock
 699              		.loc 1 293 0
 700 0018 039B     		ldr	r3, [sp, #12]
 701 001a 5B69     		ldr	r3, [r3, #20]
 702 001c 002B     		cmp	r3, #0
 703 001e 02D0     		beq	.L33
 704              		.loc 1 293 0 is_stmt 0 discriminator 1
 705 0020 0F48     		ldr	r0, .L34
 706 0022 FFF7FEFF 		bl	chDbgPanic
 707              	.L33:
 708              		.loc 1 294 0 is_stmt 1
 709 0026 0398     		ldr	r0, [sp, #12]
 710 0028 0299     		ldr	r1, [sp, #8]
 711 002a 019A     		ldr	r2, [sp, #4]
 712 002c 009B     		ldr	r3, [sp, #0]
 713 002e FFF7FEFF 		bl	adcStartConversionI
 714              		.loc 1 295 0
 715 0032 0C4B     		ldr	r3, .L34+4
 716 0034 DA69     		ldr	r2, [r3, #28]
 717 0036 039B     		ldr	r3, [sp, #12]
 718 0038 5A61     		str	r2, [r3, #20]
 719              		.loc 1 296 0
 720 003a 4FF00200 		mov	r0, #2
 721 003e FFF7FEFF 		bl	chSchGoSleepS
 722              		.loc 1 297 0
 723 0042 084B     		ldr	r3, .L34+4
 724 0044 DB69     		ldr	r3, [r3, #28]
 725 0046 9B6A     		ldr	r3, [r3, #40]
 726 0048 0593     		str	r3, [sp, #20]
 727              		.loc 1 298 0
 728 004a FFF7FEFF 		bl	dbg_check_unlock
 729              	.LBB13:
 730 004e 4FF00003 		mov	r3, #0
 731              	@ 298 "../chibios_2.4.x/os/hal/src/adc.c" 1
 732 0052 83F31188 		msr     BASEPRI, r3
 733              	@ 0 "" 2
 734              		.thumb
 735              	.LBE13:
 736              		.loc 1 299 0
 737 0056 059B     		ldr	r3, [sp, #20]
 738              		.loc 1 300 0
 739 0058 1846     		mov	r0, r3
 740 005a 07B0     		add	sp, sp, #28
 741 005c 00BD     		pop	{pc}
 742              	.L35:
 743 005e 00BF     		.align	2
 744              	.L34:
ARM GAS  /tmp/ccaOL8bX.s 			page 15


 745 0060 D4000000 		.word	.LC10
 746 0064 00000000 		.word	rlist
 747              		.cfi_endproc
 748              	.LFE70:
 749              		.size	adcConvert, .-adcConvert
 750 0068 AFF30080 		.section	.rodata
 750      AFF30080 
 751 00e5 000000   		.align	2
 752              	.LC11:
 753 00e8 22616463 		.ascii	"\"adcAcquireBus\"()\000"
 753      41637175 
 753      69726542 
 753      75732228 
 753      2900
 754              		.section	.text.adcAcquireBus,"ax",%progbits
 755              		.align	2
 756              		.p2align 4,,15
 757              		.global	adcAcquireBus
 758              		.thumb
 759              		.thumb_func
 760              		.type	adcAcquireBus, %function
 761              	adcAcquireBus:
 762              	.LFB71:
 763              		.loc 1 315 0
 764              		.cfi_startproc
 765              		@ args = 0, pretend = 0, frame = 8
 766              		@ frame_needed = 0, uses_anonymous_args = 0
 767 0000 00B5     		push	{lr}
 768              	.LCFI17:
 769              		.cfi_def_cfa_offset 4
 770 0002 83B0     		sub	sp, sp, #12
 771              	.LCFI18:
 772              		.cfi_def_cfa_offset 16
 773 0004 0190     		str	r0, [sp, #4]
 774              		.loc 1 317 0
 775 0006 019B     		ldr	r3, [sp, #4]
 776 0008 002B     		cmp	r3, #0
 777 000a 02D1     		bne	.L37
 778              		.cfi_offset 14, -4
 779              		.loc 1 317 0 is_stmt 0 discriminator 1
 780 000c 0548     		ldr	r0, .L38
 781 000e FFF7FEFF 		bl	chDbgPanic
 782              	.L37:
 783              		.loc 1 320 0 is_stmt 1
 784 0012 019B     		ldr	r3, [sp, #4]
 785 0014 03F11803 		add	r3, r3, #24
 786 0018 1846     		mov	r0, r3
 787 001a FFF7FEFF 		bl	chMtxLock
 788              		.loc 1 324 0
 789 001e 03B0     		add	sp, sp, #12
 790 0020 00BD     		pop	{pc}
 791              	.L39:
 792 0022 00BF     		.align	2
 793              	.L38:
 794 0024 E8000000 		.word	.LC11
 795              		.cfi_endproc
 796              	.LFE71:
ARM GAS  /tmp/ccaOL8bX.s 			page 16


 797              		.size	adcAcquireBus, .-adcAcquireBus
 798 0028 AFF30080 		.section	.rodata
 798      AFF30080 
 799 00fa 0000     		.align	2
 800              	.LC12:
 801 00fc 22616463 		.ascii	"\"adcReleaseBus\"()\000"
 801      52656C65 
 801      61736542 
 801      75732228 
 801      2900
 802 010e 0000     		.section	.text.adcReleaseBus,"ax",%progbits
 803              		.align	2
 804              		.p2align 4,,15
 805              		.global	adcReleaseBus
 806              		.thumb
 807              		.thumb_func
 808              		.type	adcReleaseBus, %function
 809              	adcReleaseBus:
 810              	.LFB72:
 811              		.loc 1 335 0
 812              		.cfi_startproc
 813              		@ args = 0, pretend = 0, frame = 8
 814              		@ frame_needed = 0, uses_anonymous_args = 0
 815 0000 00B5     		push	{lr}
 816              	.LCFI19:
 817              		.cfi_def_cfa_offset 4
 818 0002 83B0     		sub	sp, sp, #12
 819              	.LCFI20:
 820              		.cfi_def_cfa_offset 16
 821 0004 0190     		str	r0, [sp, #4]
 822              		.loc 1 337 0
 823 0006 019B     		ldr	r3, [sp, #4]
 824 0008 002B     		cmp	r3, #0
 825 000a 02D1     		bne	.L41
 826              		.cfi_offset 14, -4
 827              		.loc 1 337 0 is_stmt 0 discriminator 1
 828 000c 0348     		ldr	r0, .L42
 829 000e FFF7FEFF 		bl	chDbgPanic
 830              	.L41:
 831              		.loc 1 341 0 is_stmt 1
 832 0012 FFF7FEFF 		bl	chMtxUnlock
 833              		.loc 1 345 0
 834 0016 03B0     		add	sp, sp, #12
 835 0018 00BD     		pop	{pc}
 836              	.L43:
 837 001a 00BF     		.align	2
 838              	.L42:
 839 001c FC000000 		.word	.LC12
 840              		.cfi_endproc
 841              	.LFE72:
 842              		.size	adcReleaseBus, .-adcReleaseBus
 843              		.text
 844              	.Letext0:
 845              		.section	.debug_loc,"",%progbits
 846              	.Ldebug_loc0:
 847              	.LLST0:
 848 0000 00000000 		.4byte	.LFB62
ARM GAS  /tmp/ccaOL8bX.s 			page 17


 849 0004 02000000 		.4byte	.LCFI0
 850 0008 0200     		.2byte	0x2
 851 000a 7D       		.byte	0x7d
 852 000b 00       		.sleb128 0
 853 000c 02000000 		.4byte	.LCFI0
 854 0010 08000000 		.4byte	.LFE62
 855 0014 0200     		.2byte	0x2
 856 0016 7D       		.byte	0x7d
 857 0017 08       		.sleb128 8
 858 0018 00000000 		.4byte	0x0
 859 001c 00000000 		.4byte	0x0
 860              	.LLST1:
 861 0020 00000000 		.4byte	.LFB63
 862 0024 02000000 		.4byte	.LCFI1
 863 0028 0200     		.2byte	0x2
 864 002a 7D       		.byte	0x7d
 865 002b 00       		.sleb128 0
 866 002c 02000000 		.4byte	.LCFI1
 867 0030 04000000 		.4byte	.LCFI2
 868 0034 0200     		.2byte	0x2
 869 0036 7D       		.byte	0x7d
 870 0037 04       		.sleb128 4
 871 0038 04000000 		.4byte	.LCFI2
 872 003c 46000000 		.4byte	.LFE63
 873 0040 0200     		.2byte	0x2
 874 0042 7D       		.byte	0x7d
 875 0043 10       		.sleb128 16
 876 0044 00000000 		.4byte	0x0
 877 0048 00000000 		.4byte	0x0
 878              	.LLST2:
 879 004c 00000000 		.4byte	.LFB64
 880 0050 02000000 		.4byte	.LCFI3
 881 0054 0200     		.2byte	0x2
 882 0056 7D       		.byte	0x7d
 883 0057 00       		.sleb128 0
 884 0058 02000000 		.4byte	.LCFI3
 885 005c 04000000 		.4byte	.LCFI4
 886 0060 0200     		.2byte	0x2
 887 0062 7D       		.byte	0x7d
 888 0063 04       		.sleb128 4
 889 0064 04000000 		.4byte	.LCFI4
 890 0068 64000000 		.4byte	.LFE64
 891 006c 0200     		.2byte	0x2
 892 006e 7D       		.byte	0x7d
 893 006f 10       		.sleb128 16
 894 0070 00000000 		.4byte	0x0
 895 0074 00000000 		.4byte	0x0
 896              	.LLST3:
 897 0078 00000000 		.4byte	.LFB65
 898 007c 02000000 		.4byte	.LCFI5
 899 0080 0200     		.2byte	0x2
 900 0082 7D       		.byte	0x7d
 901 0083 00       		.sleb128 0
 902 0084 02000000 		.4byte	.LCFI5
 903 0088 04000000 		.4byte	.LCFI6
 904 008c 0200     		.2byte	0x2
 905 008e 7D       		.byte	0x7d
ARM GAS  /tmp/ccaOL8bX.s 			page 18


 906 008f 04       		.sleb128 4
 907 0090 04000000 		.4byte	.LCFI6
 908 0094 5C000000 		.4byte	.LFE65
 909 0098 0200     		.2byte	0x2
 910 009a 7D       		.byte	0x7d
 911 009b 10       		.sleb128 16
 912 009c 00000000 		.4byte	0x0
 913 00a0 00000000 		.4byte	0x0
 914              	.LLST4:
 915 00a4 00000000 		.4byte	.LFB66
 916 00a8 02000000 		.4byte	.LCFI7
 917 00ac 0200     		.2byte	0x2
 918 00ae 7D       		.byte	0x7d
 919 00af 00       		.sleb128 0
 920 00b0 02000000 		.4byte	.LCFI7
 921 00b4 04000000 		.4byte	.LCFI8
 922 00b8 0200     		.2byte	0x2
 923 00ba 7D       		.byte	0x7d
 924 00bb 04       		.sleb128 4
 925 00bc 04000000 		.4byte	.LCFI8
 926 00c0 34000000 		.4byte	.LFE66
 927 00c4 0200     		.2byte	0x2
 928 00c6 7D       		.byte	0x7d
 929 00c7 18       		.sleb128 24
 930 00c8 00000000 		.4byte	0x0
 931 00cc 00000000 		.4byte	0x0
 932              	.LLST5:
 933 00d0 00000000 		.4byte	.LFB67
 934 00d4 02000000 		.4byte	.LCFI9
 935 00d8 0200     		.2byte	0x2
 936 00da 7D       		.byte	0x7d
 937 00db 00       		.sleb128 0
 938 00dc 02000000 		.4byte	.LCFI9
 939 00e0 04000000 		.4byte	.LCFI10
 940 00e4 0200     		.2byte	0x2
 941 00e6 7D       		.byte	0x7d
 942 00e7 04       		.sleb128 4
 943 00e8 04000000 		.4byte	.LCFI10
 944 00ec 84000000 		.4byte	.LFE67
 945 00f0 0200     		.2byte	0x2
 946 00f2 7D       		.byte	0x7d
 947 00f3 18       		.sleb128 24
 948 00f4 00000000 		.4byte	0x0
 949 00f8 00000000 		.4byte	0x0
 950              	.LLST6:
 951 00fc 00000000 		.4byte	.LFB68
 952 0100 02000000 		.4byte	.LCFI11
 953 0104 0200     		.2byte	0x2
 954 0106 7D       		.byte	0x7d
 955 0107 00       		.sleb128 0
 956 0108 02000000 		.4byte	.LCFI11
 957 010c 04000000 		.4byte	.LCFI12
 958 0110 0200     		.2byte	0x2
 959 0112 7D       		.byte	0x7d
 960 0113 04       		.sleb128 4
 961 0114 04000000 		.4byte	.LCFI12
 962 0118 8C000000 		.4byte	.LFE68
ARM GAS  /tmp/ccaOL8bX.s 			page 19


 963 011c 0200     		.2byte	0x2
 964 011e 7D       		.byte	0x7d
 965 011f 18       		.sleb128 24
 966 0120 00000000 		.4byte	0x0
 967 0124 00000000 		.4byte	0x0
 968              	.LLST7:
 969 0128 00000000 		.4byte	.LFB69
 970 012c 02000000 		.4byte	.LCFI13
 971 0130 0200     		.2byte	0x2
 972 0132 7D       		.byte	0x7d
 973 0133 00       		.sleb128 0
 974 0134 02000000 		.4byte	.LCFI13
 975 0138 04000000 		.4byte	.LCFI14
 976 013c 0200     		.2byte	0x2
 977 013e 7D       		.byte	0x7d
 978 013f 04       		.sleb128 4
 979 0140 04000000 		.4byte	.LCFI14
 980 0144 84000000 		.4byte	.LFE69
 981 0148 0200     		.2byte	0x2
 982 014a 7D       		.byte	0x7d
 983 014b 18       		.sleb128 24
 984 014c 00000000 		.4byte	0x0
 985 0150 00000000 		.4byte	0x0
 986              	.LLST8:
 987 0154 00000000 		.4byte	.LFB70
 988 0158 02000000 		.4byte	.LCFI15
 989 015c 0200     		.2byte	0x2
 990 015e 7D       		.byte	0x7d
 991 015f 00       		.sleb128 0
 992 0160 02000000 		.4byte	.LCFI15
 993 0164 04000000 		.4byte	.LCFI16
 994 0168 0200     		.2byte	0x2
 995 016a 7D       		.byte	0x7d
 996 016b 04       		.sleb128 4
 997 016c 04000000 		.4byte	.LCFI16
 998 0170 68000000 		.4byte	.LFE70
 999 0174 0200     		.2byte	0x2
 1000 0176 7D       		.byte	0x7d
 1001 0177 20       		.sleb128 32
 1002 0178 00000000 		.4byte	0x0
 1003 017c 00000000 		.4byte	0x0
 1004              	.LLST9:
 1005 0180 00000000 		.4byte	.LFB71
 1006 0184 02000000 		.4byte	.LCFI17
 1007 0188 0200     		.2byte	0x2
 1008 018a 7D       		.byte	0x7d
 1009 018b 00       		.sleb128 0
 1010 018c 02000000 		.4byte	.LCFI17
 1011 0190 04000000 		.4byte	.LCFI18
 1012 0194 0200     		.2byte	0x2
 1013 0196 7D       		.byte	0x7d
 1014 0197 04       		.sleb128 4
 1015 0198 04000000 		.4byte	.LCFI18
 1016 019c 28000000 		.4byte	.LFE71
 1017 01a0 0200     		.2byte	0x2
 1018 01a2 7D       		.byte	0x7d
 1019 01a3 10       		.sleb128 16
ARM GAS  /tmp/ccaOL8bX.s 			page 20


 1020 01a4 00000000 		.4byte	0x0
 1021 01a8 00000000 		.4byte	0x0
 1022              	.LLST10:
 1023 01ac 00000000 		.4byte	.LFB72
 1024 01b0 02000000 		.4byte	.LCFI19
 1025 01b4 0200     		.2byte	0x2
 1026 01b6 7D       		.byte	0x7d
 1027 01b7 00       		.sleb128 0
 1028 01b8 02000000 		.4byte	.LCFI19
 1029 01bc 04000000 		.4byte	.LCFI20
 1030 01c0 0200     		.2byte	0x2
 1031 01c2 7D       		.byte	0x7d
 1032 01c3 04       		.sleb128 4
 1033 01c4 04000000 		.4byte	.LCFI20
 1034 01c8 20000000 		.4byte	.LFE72
 1035 01cc 0200     		.2byte	0x2
 1036 01ce 7D       		.byte	0x7d
 1037 01cf 10       		.sleb128 16
 1038 01d0 00000000 		.4byte	0x0
 1039 01d4 00000000 		.4byte	0x0
 1040              		.file 2 "/home/z80/programs/code-sourcery/2011.03-42/bin/../lib/gcc/arm-none-eabi/4.5.2/include/st
 1041              		.file 3 "/home/z80/programs/code-sourcery/2011.03-42/bin/../lib/gcc/arm-none-eabi/4.5.2/../../../.
 1042              		.file 4 "../chibios_2.4.x/os/ports/GCC/ARMCMx/chtypes.h"
 1043              		.file 5 "../chibios_2.4.x/os/kernel/include/chlists.h"
 1044              		.file 6 "../chibios_2.4.x/os/kernel/include/chthreads.h"
 1045              		.file 7 "../chibios_2.4.x/os/ports/GCC/ARMCMx/chcore_v7m.h"
 1046              		.file 8 "../chibios_2.4.x/os/kernel/include/chschd.h"
 1047              		.file 9 "../chibios_2.4.x/os/kernel/include/chmtx.h"
 1048              		.file 10 "../chibios_2.4.x/os/hal/platforms/STM32F1xx/stm32f10x.h"
 1049              		.file 11 "../chibios_2.4.x/os/hal/platforms/STM32F1xx/stm32_dma.h"
 1050              		.file 12 "../chibios_2.4.x/os/hal/include/adc.h"
 1051              		.file 13 "../chibios_2.4.x/os/hal/platforms/STM32F1xx/adc_lld.h"
 1052              		.file 14 "../chibios_2.4.x/os/ports/common/ARMCMx/CMSIS/include/core_cm3.h"
 1053              		.section	.debug_info
 1054 0000 6A0C0000 		.4byte	0xc6a
 1055 0004 0200     		.2byte	0x2
 1056 0006 00000000 		.4byte	.Ldebug_abbrev0
 1057 000a 04       		.byte	0x4
 1058 000b 01       		.uleb128 0x1
 1059 000c 19020000 		.4byte	.LASF136
 1060 0010 01       		.byte	0x1
 1061 0011 7C030000 		.4byte	.LASF137
 1062 0015 52020000 		.4byte	.LASF138
 1063 0019 00000000 		.4byte	0x0
 1064 001d 00000000 		.4byte	0x0
 1065 0021 00000000 		.4byte	.Ldebug_ranges0+0x0
 1066 0025 00000000 		.4byte	.Ldebug_line0
 1067 0029 02       		.uleb128 0x2
 1068 002a 04       		.byte	0x4
 1069 002b 05       		.byte	0x5
 1070 002c 696E7400 		.ascii	"int\000"
 1071 0030 03       		.uleb128 0x3
 1072 0031 00000000 		.4byte	.LASF2
 1073 0035 02       		.byte	0x2
 1074 0036 D3       		.byte	0xd3
 1075 0037 3B000000 		.4byte	0x3b
 1076 003b 04       		.uleb128 0x4
ARM GAS  /tmp/ccaOL8bX.s 			page 21


 1077 003c 04       		.byte	0x4
 1078 003d 07       		.byte	0x7
 1079 003e 9B010000 		.4byte	.LASF0
 1080 0042 04       		.uleb128 0x4
 1081 0043 01       		.byte	0x1
 1082 0044 06       		.byte	0x6
 1083 0045 77000000 		.4byte	.LASF1
 1084 0049 03       		.uleb128 0x3
 1085 004a AE040000 		.4byte	.LASF3
 1086 004e 03       		.byte	0x3
 1087 004f 2A       		.byte	0x2a
 1088 0050 54000000 		.4byte	0x54
 1089 0054 04       		.uleb128 0x4
 1090 0055 01       		.byte	0x1
 1091 0056 08       		.byte	0x8
 1092 0057 6E030000 		.4byte	.LASF4
 1093 005b 04       		.uleb128 0x4
 1094 005c 02       		.byte	0x2
 1095 005d 05       		.byte	0x5
 1096 005e A8030000 		.4byte	.LASF5
 1097 0062 03       		.uleb128 0x3
 1098 0063 F2000000 		.4byte	.LASF6
 1099 0067 03       		.byte	0x3
 1100 0068 36       		.byte	0x36
 1101 0069 6D000000 		.4byte	0x6d
 1102 006d 04       		.uleb128 0x4
 1103 006e 02       		.byte	0x2
 1104 006f 07       		.byte	0x7
 1105 0070 F0010000 		.4byte	.LASF7
 1106 0074 03       		.uleb128 0x3
 1107 0075 66030000 		.4byte	.LASF8
 1108 0079 03       		.byte	0x3
 1109 007a 4F       		.byte	0x4f
 1110 007b 7F000000 		.4byte	0x7f
 1111 007f 04       		.uleb128 0x4
 1112 0080 04       		.byte	0x4
 1113 0081 05       		.byte	0x5
 1114 0082 B3000000 		.4byte	.LASF9
 1115 0086 03       		.uleb128 0x3
 1116 0087 FE030000 		.4byte	.LASF10
 1117 008b 03       		.byte	0x3
 1118 008c 50       		.byte	0x50
 1119 008d 91000000 		.4byte	0x91
 1120 0091 04       		.uleb128 0x4
 1121 0092 04       		.byte	0x4
 1122 0093 07       		.byte	0x7
 1123 0094 1B040000 		.4byte	.LASF11
 1124 0098 04       		.uleb128 0x4
 1125 0099 08       		.byte	0x8
 1126 009a 05       		.byte	0x5
 1127 009b 69000000 		.4byte	.LASF12
 1128 009f 03       		.uleb128 0x3
 1129 00a0 D2020000 		.4byte	.LASF13
 1130 00a4 03       		.byte	0x3
 1131 00a5 78       		.byte	0x78
 1132 00a6 AA000000 		.4byte	0xaa
 1133 00aa 04       		.uleb128 0x4
ARM GAS  /tmp/ccaOL8bX.s 			page 22


 1134 00ab 08       		.byte	0x8
 1135 00ac 07       		.byte	0x7
 1136 00ad 29000000 		.4byte	.LASF14
 1137 00b1 03       		.uleb128 0x3
 1138 00b2 83000000 		.4byte	.LASF15
 1139 00b6 04       		.byte	0x4
 1140 00b7 2E       		.byte	0x2e
 1141 00b8 74000000 		.4byte	0x74
 1142 00bc 03       		.uleb128 0x3
 1143 00bd 25020000 		.4byte	.LASF16
 1144 00c1 04       		.byte	0x4
 1145 00c2 2F       		.byte	0x2f
 1146 00c3 49000000 		.4byte	0x49
 1147 00c7 03       		.uleb128 0x3
 1148 00c8 E2000000 		.4byte	.LASF17
 1149 00cc 04       		.byte	0x4
 1150 00cd 30       		.byte	0x30
 1151 00ce 49000000 		.4byte	0x49
 1152 00d2 03       		.uleb128 0x3
 1153 00d3 58030000 		.4byte	.LASF18
 1154 00d7 04       		.byte	0x4
 1155 00d8 32       		.byte	0x32
 1156 00d9 86000000 		.4byte	0x86
 1157 00dd 03       		.uleb128 0x3
 1158 00de 13020000 		.4byte	.LASF19
 1159 00e2 04       		.byte	0x4
 1160 00e3 33       		.byte	0x33
 1161 00e4 74000000 		.4byte	0x74
 1162 00e8 03       		.uleb128 0x3
 1163 00e9 46020000 		.4byte	.LASF20
 1164 00ed 04       		.byte	0x4
 1165 00ee 35       		.byte	0x35
 1166 00ef 86000000 		.4byte	0x86
 1167 00f3 03       		.uleb128 0x3
 1168 00f4 48040000 		.4byte	.LASF21
 1169 00f8 04       		.byte	0x4
 1170 00f9 36       		.byte	0x36
 1171 00fa 86000000 		.4byte	0x86
 1172 00fe 03       		.uleb128 0x3
 1173 00ff 8A010000 		.4byte	.LASF22
 1174 0103 04       		.byte	0x4
 1175 0104 37       		.byte	0x37
 1176 0105 74000000 		.4byte	0x74
 1177 0109 03       		.uleb128 0x3
 1178 010a 6D010000 		.4byte	.LASF23
 1179 010e 05       		.byte	0x5
 1180 010f 2A       		.byte	0x2a
 1181 0110 14010000 		.4byte	0x114
 1182 0114 05       		.uleb128 0x5
 1183 0115 6D010000 		.4byte	.LASF23
 1184 0119 48       		.byte	0x48
 1185 011a 06       		.byte	0x6
 1186 011b 5E       		.byte	0x5e
 1187 011c 1D020000 		.4byte	0x21d
 1188 0120 06       		.uleb128 0x6
 1189 0121 D1030000 		.4byte	.LASF24
 1190 0125 06       		.byte	0x6
ARM GAS  /tmp/ccaOL8bX.s 			page 23


 1191 0126 5F       		.byte	0x5f
 1192 0127 42020000 		.4byte	0x242
 1193 012b 02       		.byte	0x2
 1194 012c 23       		.byte	0x23
 1195 012d 00       		.uleb128 0x0
 1196 012e 06       		.uleb128 0x6
 1197 012f 3E030000 		.4byte	.LASF25
 1198 0133 06       		.byte	0x6
 1199 0134 61       		.byte	0x61
 1200 0135 42020000 		.4byte	0x242
 1201 0139 02       		.byte	0x2
 1202 013a 23       		.byte	0x23
 1203 013b 04       		.uleb128 0x4
 1204 013c 06       		.uleb128 0x6
 1205 013d 5D000000 		.4byte	.LASF26
 1206 0141 06       		.byte	0x6
 1207 0142 63       		.byte	0x63
 1208 0143 D2000000 		.4byte	0xd2
 1209 0147 02       		.byte	0x2
 1210 0148 23       		.byte	0x23
 1211 0149 08       		.uleb128 0x8
 1212 014a 06       		.uleb128 0x6
 1213 014b 56050000 		.4byte	.LASF27
 1214 014f 06       		.byte	0x6
 1215 0150 64       		.byte	0x64
 1216 0151 1A030000 		.4byte	0x31a
 1217 0155 02       		.byte	0x2
 1218 0156 23       		.byte	0x23
 1219 0157 0C       		.uleb128 0xc
 1220 0158 06       		.uleb128 0x6
 1221 0159 0E010000 		.4byte	.LASF28
 1222 015d 06       		.byte	0x6
 1223 015e 66       		.byte	0x66
 1224 015f 42020000 		.4byte	0x242
 1225 0163 02       		.byte	0x2
 1226 0164 23       		.byte	0x23
 1227 0165 10       		.uleb128 0x10
 1228 0166 06       		.uleb128 0x6
 1229 0167 DB020000 		.4byte	.LASF29
 1230 016b 06       		.byte	0x6
 1231 016c 67       		.byte	0x67
 1232 016d 42020000 		.4byte	0x242
 1233 0171 02       		.byte	0x2
 1234 0172 23       		.byte	0x23
 1235 0173 14       		.uleb128 0x14
 1236 0174 06       		.uleb128 0x6
 1237 0175 04050000 		.4byte	.LASF30
 1238 0179 06       		.byte	0x6
 1239 017a 6E       		.byte	0x6e
 1240 017b 3A040000 		.4byte	0x43a
 1241 017f 02       		.byte	0x2
 1242 0180 23       		.byte	0x23
 1243 0181 18       		.uleb128 0x18
 1244 0182 06       		.uleb128 0x6
 1245 0183 90010000 		.4byte	.LASF31
 1246 0187 06       		.byte	0x6
 1247 0188 74       		.byte	0x74
ARM GAS  /tmp/ccaOL8bX.s 			page 24


 1248 0189 4C040000 		.4byte	0x44c
 1249 018d 02       		.byte	0x2
 1250 018e 23       		.byte	0x23
 1251 018f 1C       		.uleb128 0x1c
 1252 0190 06       		.uleb128 0x6
 1253 0191 B2030000 		.4byte	.LASF32
 1254 0195 06       		.byte	0x6
 1255 0196 79       		.byte	0x79
 1256 0197 C7000000 		.4byte	0xc7
 1257 019b 02       		.byte	0x2
 1258 019c 23       		.byte	0x23
 1259 019d 20       		.uleb128 0x20
 1260 019e 06       		.uleb128 0x6
 1261 019f D8030000 		.4byte	.LASF33
 1262 01a3 06       		.byte	0x6
 1263 01a4 7D       		.byte	0x7d
 1264 01a5 BC000000 		.4byte	0xbc
 1265 01a9 02       		.byte	0x2
 1266 01aa 23       		.byte	0x23
 1267 01ab 21       		.uleb128 0x21
 1268 01ac 06       		.uleb128 0x6
 1269 01ad FB000000 		.4byte	.LASF34
 1270 01b1 06       		.byte	0x6
 1271 01b2 89       		.byte	0x89
 1272 01b3 42030000 		.4byte	0x342
 1273 01b7 02       		.byte	0x2
 1274 01b8 23       		.byte	0x23
 1275 01b9 24       		.uleb128 0x24
 1276 01ba 07       		.uleb128 0x7
 1277 01bb 705F7500 		.ascii	"p_u\000"
 1278 01bf 06       		.byte	0x6
 1279 01c0 AE       		.byte	0xae
 1280 01c1 05040000 		.4byte	0x405
 1281 01c5 02       		.byte	0x2
 1282 01c6 23       		.byte	0x23
 1283 01c7 28       		.uleb128 0x28
 1284 01c8 06       		.uleb128 0x6
 1285 01c9 5C050000 		.4byte	.LASF35
 1286 01cd 06       		.byte	0x6
 1287 01ce B3       		.byte	0xb3
 1288 01cf 6A020000 		.4byte	0x26a
 1289 01d3 02       		.byte	0x2
 1290 01d4 23       		.byte	0x23
 1291 01d5 2C       		.uleb128 0x2c
 1292 01d6 06       		.uleb128 0x6
 1293 01d7 BB010000 		.4byte	.LASF36
 1294 01db 06       		.byte	0x6
 1295 01dc B9       		.byte	0xb9
 1296 01dd 48020000 		.4byte	0x248
 1297 01e1 02       		.byte	0x2
 1298 01e2 23       		.byte	0x23
 1299 01e3 30       		.uleb128 0x30
 1300 01e4 06       		.uleb128 0x6
 1301 01e5 1E050000 		.4byte	.LASF37
 1302 01e9 06       		.byte	0x6
 1303 01ea BD       		.byte	0xbd
 1304 01eb DD000000 		.4byte	0xdd
ARM GAS  /tmp/ccaOL8bX.s 			page 25


 1305 01ef 02       		.byte	0x2
 1306 01f0 23       		.byte	0x23
 1307 01f1 38       		.uleb128 0x38
 1308 01f2 06       		.uleb128 0x6
 1309 01f3 EE030000 		.4byte	.LASF38
 1310 01f7 06       		.byte	0x6
 1311 01f8 C3       		.byte	0xc3
 1312 01f9 E8000000 		.4byte	0xe8
 1313 01fd 02       		.byte	0x2
 1314 01fe 23       		.byte	0x23
 1315 01ff 3C       		.uleb128 0x3c
 1316 0200 06       		.uleb128 0x6
 1317 0201 9E030000 		.4byte	.LASF39
 1318 0205 06       		.byte	0x6
 1319 0206 CA       		.byte	0xca
 1320 0207 52040000 		.4byte	0x452
 1321 020b 02       		.byte	0x2
 1322 020c 23       		.byte	0x23
 1323 020d 40       		.uleb128 0x40
 1324 020e 06       		.uleb128 0x6
 1325 020f 52040000 		.4byte	.LASF40
 1326 0213 06       		.byte	0x6
 1327 0214 CE       		.byte	0xce
 1328 0215 D2000000 		.4byte	0xd2
 1329 0219 02       		.byte	0x2
 1330 021a 23       		.byte	0x23
 1331 021b 44       		.uleb128 0x44
 1332 021c 00       		.byte	0x0
 1333 021d 08       		.uleb128 0x8
 1334 021e 08       		.byte	0x8
 1335 021f 05       		.byte	0x5
 1336 0220 61       		.byte	0x61
 1337 0221 42020000 		.4byte	0x242
 1338 0225 06       		.uleb128 0x6
 1339 0226 D1030000 		.4byte	.LASF24
 1340 022a 05       		.byte	0x5
 1341 022b 62       		.byte	0x62
 1342 022c 42020000 		.4byte	0x242
 1343 0230 02       		.byte	0x2
 1344 0231 23       		.byte	0x23
 1345 0232 00       		.uleb128 0x0
 1346 0233 06       		.uleb128 0x6
 1347 0234 3E030000 		.4byte	.LASF25
 1348 0238 05       		.byte	0x5
 1349 0239 64       		.byte	0x64
 1350 023a 42020000 		.4byte	0x242
 1351 023e 02       		.byte	0x2
 1352 023f 23       		.byte	0x23
 1353 0240 04       		.uleb128 0x4
 1354 0241 00       		.byte	0x0
 1355 0242 09       		.uleb128 0x9
 1356 0243 04       		.byte	0x4
 1357 0244 09010000 		.4byte	0x109
 1358 0248 03       		.uleb128 0x3
 1359 0249 E9020000 		.4byte	.LASF41
 1360 024d 05       		.byte	0x5
 1361 024e 66       		.byte	0x66
ARM GAS  /tmp/ccaOL8bX.s 			page 26


 1362 024f 1D020000 		.4byte	0x21d
 1363 0253 08       		.uleb128 0x8
 1364 0254 04       		.byte	0x4
 1365 0255 05       		.byte	0x5
 1366 0256 6B       		.byte	0x6b
 1367 0257 6A020000 		.4byte	0x26a
 1368 025b 06       		.uleb128 0x6
 1369 025c D1030000 		.4byte	.LASF24
 1370 0260 05       		.byte	0x5
 1371 0261 6D       		.byte	0x6d
 1372 0262 42020000 		.4byte	0x242
 1373 0266 02       		.byte	0x2
 1374 0267 23       		.byte	0x23
 1375 0268 00       		.uleb128 0x0
 1376 0269 00       		.byte	0x0
 1377 026a 03       		.uleb128 0x3
 1378 026b 3A020000 		.4byte	.LASF42
 1379 026f 05       		.byte	0x5
 1380 0270 70       		.byte	0x70
 1381 0271 53020000 		.4byte	0x253
 1382 0275 03       		.uleb128 0x3
 1383 0276 54010000 		.4byte	.LASF43
 1384 027a 07       		.byte	0x7
 1385 027b D7       		.byte	0xd7
 1386 027c 80020000 		.4byte	0x280
 1387 0280 0A       		.uleb128 0xa
 1388 0281 04       		.byte	0x4
 1389 0282 03       		.uleb128 0x3
 1390 0283 91020000 		.4byte	.LASF44
 1391 0287 07       		.byte	0x7
 1392 0288 DD       		.byte	0xdd
 1393 0289 9F000000 		.4byte	0x9f
 1394 028d 05       		.uleb128 0x5
 1395 028e 78040000 		.4byte	.LASF45
 1396 0292 24       		.byte	0x24
 1397 0293 07       		.byte	0x7
 1398 0294 FE       		.byte	0xfe
 1399 0295 1A030000 		.4byte	0x31a
 1400 0299 0B       		.uleb128 0xb
 1401 029a 723400   		.ascii	"r4\000"
 1402 029d 07       		.byte	0x7
 1403 029e 1101     		.2byte	0x111
 1404 02a0 75020000 		.4byte	0x275
 1405 02a4 02       		.byte	0x2
 1406 02a5 23       		.byte	0x23
 1407 02a6 00       		.uleb128 0x0
 1408 02a7 0B       		.uleb128 0xb
 1409 02a8 723500   		.ascii	"r5\000"
 1410 02ab 07       		.byte	0x7
 1411 02ac 1201     		.2byte	0x112
 1412 02ae 75020000 		.4byte	0x275
 1413 02b2 02       		.byte	0x2
 1414 02b3 23       		.byte	0x23
 1415 02b4 04       		.uleb128 0x4
 1416 02b5 0B       		.uleb128 0xb
 1417 02b6 723600   		.ascii	"r6\000"
 1418 02b9 07       		.byte	0x7
ARM GAS  /tmp/ccaOL8bX.s 			page 27


 1419 02ba 1301     		.2byte	0x113
 1420 02bc 75020000 		.4byte	0x275
 1421 02c0 02       		.byte	0x2
 1422 02c1 23       		.byte	0x23
 1423 02c2 08       		.uleb128 0x8
 1424 02c3 0B       		.uleb128 0xb
 1425 02c4 723700   		.ascii	"r7\000"
 1426 02c7 07       		.byte	0x7
 1427 02c8 1401     		.2byte	0x114
 1428 02ca 75020000 		.4byte	0x275
 1429 02ce 02       		.byte	0x2
 1430 02cf 23       		.byte	0x23
 1431 02d0 0C       		.uleb128 0xc
 1432 02d1 0B       		.uleb128 0xb
 1433 02d2 723800   		.ascii	"r8\000"
 1434 02d5 07       		.byte	0x7
 1435 02d6 1501     		.2byte	0x115
 1436 02d8 75020000 		.4byte	0x275
 1437 02dc 02       		.byte	0x2
 1438 02dd 23       		.byte	0x23
 1439 02de 10       		.uleb128 0x10
 1440 02df 0B       		.uleb128 0xb
 1441 02e0 723900   		.ascii	"r9\000"
 1442 02e3 07       		.byte	0x7
 1443 02e4 1601     		.2byte	0x116
 1444 02e6 75020000 		.4byte	0x275
 1445 02ea 02       		.byte	0x2
 1446 02eb 23       		.byte	0x23
 1447 02ec 14       		.uleb128 0x14
 1448 02ed 0B       		.uleb128 0xb
 1449 02ee 72313000 		.ascii	"r10\000"
 1450 02f2 07       		.byte	0x7
 1451 02f3 1701     		.2byte	0x117
 1452 02f5 75020000 		.4byte	0x275
 1453 02f9 02       		.byte	0x2
 1454 02fa 23       		.byte	0x23
 1455 02fb 18       		.uleb128 0x18
 1456 02fc 0B       		.uleb128 0xb
 1457 02fd 72313100 		.ascii	"r11\000"
 1458 0301 07       		.byte	0x7
 1459 0302 1801     		.2byte	0x118
 1460 0304 75020000 		.4byte	0x275
 1461 0308 02       		.byte	0x2
 1462 0309 23       		.byte	0x23
 1463 030a 1C       		.uleb128 0x1c
 1464 030b 0B       		.uleb128 0xb
 1465 030c 6C7200   		.ascii	"lr\000"
 1466 030f 07       		.byte	0x7
 1467 0310 1901     		.2byte	0x119
 1468 0312 75020000 		.4byte	0x275
 1469 0316 02       		.byte	0x2
 1470 0317 23       		.byte	0x23
 1471 0318 20       		.uleb128 0x20
 1472 0319 00       		.byte	0x0
 1473 031a 0C       		.uleb128 0xc
 1474 031b 5D040000 		.4byte	.LASF46
 1475 031f 04       		.byte	0x4
ARM GAS  /tmp/ccaOL8bX.s 			page 28


 1476 0320 07       		.byte	0x7
 1477 0321 2301     		.2byte	0x123
 1478 0323 37030000 		.4byte	0x337
 1479 0327 0B       		.uleb128 0xb
 1480 0328 72313300 		.ascii	"r13\000"
 1481 032c 07       		.byte	0x7
 1482 032d 2401     		.2byte	0x124
 1483 032f 37030000 		.4byte	0x337
 1484 0333 02       		.byte	0x2
 1485 0334 23       		.byte	0x23
 1486 0335 00       		.uleb128 0x0
 1487 0336 00       		.byte	0x0
 1488 0337 09       		.uleb128 0x9
 1489 0338 04       		.byte	0x4
 1490 0339 8D020000 		.4byte	0x28d
 1491 033d 0D       		.uleb128 0xd
 1492 033e 86000000 		.4byte	0x86
 1493 0342 0D       		.uleb128 0xd
 1494 0343 F3000000 		.4byte	0xf3
 1495 0347 08       		.uleb128 0x8
 1496 0348 20       		.byte	0x20
 1497 0349 08       		.byte	0x8
 1498 034a 5E       		.byte	0x5e
 1499 034b B2030000 		.4byte	0x3b2
 1500 034f 06       		.uleb128 0x6
 1501 0350 C1020000 		.4byte	.LASF47
 1502 0354 08       		.byte	0x8
 1503 0355 5F       		.byte	0x5f
 1504 0356 48020000 		.4byte	0x248
 1505 035a 02       		.byte	0x2
 1506 035b 23       		.byte	0x23
 1507 035c 00       		.uleb128 0x0
 1508 035d 06       		.uleb128 0x6
 1509 035e C3030000 		.4byte	.LASF48
 1510 0362 08       		.byte	0x8
 1511 0363 60       		.byte	0x60
 1512 0364 D2000000 		.4byte	0xd2
 1513 0368 02       		.byte	0x2
 1514 0369 23       		.byte	0x23
 1515 036a 08       		.uleb128 0x8
 1516 036b 06       		.uleb128 0x6
 1517 036c E3020000 		.4byte	.LASF49
 1518 0370 08       		.byte	0x8
 1519 0371 62       		.byte	0x62
 1520 0372 1A030000 		.4byte	0x31a
 1521 0376 02       		.byte	0x2
 1522 0377 23       		.byte	0x23
 1523 0378 0C       		.uleb128 0xc
 1524 0379 06       		.uleb128 0x6
 1525 037a 42010000 		.4byte	.LASF50
 1526 037e 08       		.byte	0x8
 1527 037f 65       		.byte	0x65
 1528 0380 42020000 		.4byte	0x242
 1529 0384 02       		.byte	0x2
 1530 0385 23       		.byte	0x23
 1531 0386 10       		.uleb128 0x10
 1532 0387 06       		.uleb128 0x6
ARM GAS  /tmp/ccaOL8bX.s 			page 29


 1533 0388 13030000 		.4byte	.LASF51
 1534 038c 08       		.byte	0x8
 1535 038d 66       		.byte	0x66
 1536 038e 42020000 		.4byte	0x242
 1537 0392 02       		.byte	0x2
 1538 0393 23       		.byte	0x23
 1539 0394 14       		.uleb128 0x14
 1540 0395 06       		.uleb128 0x6
 1541 0396 24050000 		.4byte	.LASF52
 1542 039a 08       		.byte	0x8
 1543 039b 6A       		.byte	0x6a
 1544 039c FE000000 		.4byte	0xfe
 1545 03a0 02       		.byte	0x2
 1546 03a1 23       		.byte	0x23
 1547 03a2 18       		.uleb128 0x18
 1548 03a3 06       		.uleb128 0x6
 1549 03a4 09030000 		.4byte	.LASF53
 1550 03a8 08       		.byte	0x8
 1551 03a9 6C       		.byte	0x6c
 1552 03aa 42020000 		.4byte	0x242
 1553 03ae 02       		.byte	0x2
 1554 03af 23       		.byte	0x23
 1555 03b0 1C       		.uleb128 0x1c
 1556 03b1 00       		.byte	0x0
 1557 03b2 03       		.uleb128 0x3
 1558 03b3 92040000 		.4byte	.LASF54
 1559 03b7 08       		.byte	0x8
 1560 03b8 6E       		.byte	0x6e
 1561 03b9 47030000 		.4byte	0x347
 1562 03bd 05       		.uleb128 0x5
 1563 03be BB020000 		.4byte	.LASF55
 1564 03c2 10       		.byte	0x10
 1565 03c3 09       		.byte	0x9
 1566 03c4 2C       		.byte	0x2c
 1567 03c5 F4030000 		.4byte	0x3f4
 1568 03c9 06       		.uleb128 0x6
 1569 03ca 8A000000 		.4byte	.LASF56
 1570 03ce 09       		.byte	0x9
 1571 03cf 2D       		.byte	0x2d
 1572 03d0 48020000 		.4byte	0x248
 1573 03d4 02       		.byte	0x2
 1574 03d5 23       		.byte	0x23
 1575 03d6 00       		.uleb128 0x0
 1576 03d7 06       		.uleb128 0x6
 1577 03d8 40050000 		.4byte	.LASF57
 1578 03dc 09       		.byte	0x9
 1579 03dd 2F       		.byte	0x2f
 1580 03de 42020000 		.4byte	0x242
 1581 03e2 02       		.byte	0x2
 1582 03e3 23       		.byte	0x23
 1583 03e4 08       		.uleb128 0x8
 1584 03e5 06       		.uleb128 0x6
 1585 03e6 02030000 		.4byte	.LASF58
 1586 03ea 09       		.byte	0x9
 1587 03eb 31       		.byte	0x31
 1588 03ec F4030000 		.4byte	0x3f4
 1589 03f0 02       		.byte	0x2
ARM GAS  /tmp/ccaOL8bX.s 			page 30


 1590 03f1 23       		.byte	0x23
 1591 03f2 0C       		.uleb128 0xc
 1592 03f3 00       		.byte	0x0
 1593 03f4 09       		.uleb128 0x9
 1594 03f5 04       		.byte	0x4
 1595 03f6 BD030000 		.4byte	0x3bd
 1596 03fa 03       		.uleb128 0x3
 1597 03fb BB020000 		.4byte	.LASF55
 1598 03ff 09       		.byte	0x9
 1599 0400 33       		.byte	0x33
 1600 0401 BD030000 		.4byte	0x3bd
 1601 0405 0E       		.uleb128 0xe
 1602 0406 04       		.byte	0x4
 1603 0407 06       		.byte	0x6
 1604 0408 90       		.byte	0x90
 1605 0409 3A040000 		.4byte	0x43a
 1606 040d 0F       		.uleb128 0xf
 1607 040e 07000000 		.4byte	.LASF59
 1608 0412 06       		.byte	0x6
 1609 0413 97       		.byte	0x97
 1610 0414 DD000000 		.4byte	0xdd
 1611 0418 0F       		.uleb128 0xf
 1612 0419 40000000 		.4byte	.LASF60
 1613 041d 06       		.byte	0x6
 1614 041e 9E       		.byte	0x9e
 1615 041f DD000000 		.4byte	0xdd
 1616 0423 0F       		.uleb128 0xf
 1617 0424 F0040000 		.4byte	.LASF61
 1618 0428 06       		.byte	0x6
 1619 0429 A5       		.byte	0xa5
 1620 042a 80020000 		.4byte	0x280
 1621 042e 0F       		.uleb128 0xf
 1622 042f CA030000 		.4byte	.LASF62
 1623 0433 06       		.byte	0x6
 1624 0434 AC       		.byte	0xac
 1625 0435 E8000000 		.4byte	0xe8
 1626 0439 00       		.byte	0x0
 1627 043a 09       		.uleb128 0x9
 1628 043b 04       		.byte	0x4
 1629 043c 40040000 		.4byte	0x440
 1630 0440 10       		.uleb128 0x10
 1631 0441 45040000 		.4byte	0x445
 1632 0445 04       		.uleb128 0x4
 1633 0446 01       		.byte	0x1
 1634 0447 08       		.byte	0x8
 1635 0448 2D040000 		.4byte	.LASF63
 1636 044c 09       		.uleb128 0x9
 1637 044d 04       		.byte	0x4
 1638 044e 82020000 		.4byte	0x282
 1639 0452 09       		.uleb128 0x9
 1640 0453 04       		.byte	0x4
 1641 0454 FA030000 		.4byte	0x3fa
 1642 0458 0D       		.uleb128 0xd
 1643 0459 74000000 		.4byte	0x74
 1644 045d 11       		.uleb128 0x11
 1645 045e 50       		.byte	0x50
 1646 045f 0A       		.byte	0xa
ARM GAS  /tmp/ccaOL8bX.s 			page 31


 1647 0460 2D02     		.2byte	0x22d
 1648 0462 91050000 		.4byte	0x591
 1649 0466 0B       		.uleb128 0xb
 1650 0467 535200   		.ascii	"SR\000"
 1651 046a 0A       		.byte	0xa
 1652 046b 2F02     		.2byte	0x22f
 1653 046d 3D030000 		.4byte	0x33d
 1654 0471 02       		.byte	0x2
 1655 0472 23       		.byte	0x23
 1656 0473 00       		.uleb128 0x0
 1657 0474 0B       		.uleb128 0xb
 1658 0475 43523100 		.ascii	"CR1\000"
 1659 0479 0A       		.byte	0xa
 1660 047a 3002     		.2byte	0x230
 1661 047c 3D030000 		.4byte	0x33d
 1662 0480 02       		.byte	0x2
 1663 0481 23       		.byte	0x23
 1664 0482 04       		.uleb128 0x4
 1665 0483 0B       		.uleb128 0xb
 1666 0484 43523200 		.ascii	"CR2\000"
 1667 0488 0A       		.byte	0xa
 1668 0489 3102     		.2byte	0x231
 1669 048b 3D030000 		.4byte	0x33d
 1670 048f 02       		.byte	0x2
 1671 0490 23       		.byte	0x23
 1672 0491 08       		.uleb128 0x8
 1673 0492 12       		.uleb128 0x12
 1674 0493 F6020000 		.4byte	.LASF64
 1675 0497 0A       		.byte	0xa
 1676 0498 3202     		.2byte	0x232
 1677 049a 3D030000 		.4byte	0x33d
 1678 049e 02       		.byte	0x2
 1679 049f 23       		.byte	0x23
 1680 04a0 0C       		.uleb128 0xc
 1681 04a1 12       		.uleb128 0x12
 1682 04a2 FC020000 		.4byte	.LASF65
 1683 04a6 0A       		.byte	0xa
 1684 04a7 3302     		.2byte	0x233
 1685 04a9 3D030000 		.4byte	0x33d
 1686 04ad 02       		.byte	0x2
 1687 04ae 23       		.byte	0x23
 1688 04af 10       		.uleb128 0x10
 1689 04b0 12       		.uleb128 0x12
 1690 04b1 A1020000 		.4byte	.LASF66
 1691 04b5 0A       		.byte	0xa
 1692 04b6 3402     		.2byte	0x234
 1693 04b8 3D030000 		.4byte	0x33d
 1694 04bc 02       		.byte	0x2
 1695 04bd 23       		.byte	0x23
 1696 04be 14       		.uleb128 0x14
 1697 04bf 12       		.uleb128 0x12
 1698 04c0 A7020000 		.4byte	.LASF67
 1699 04c4 0A       		.byte	0xa
 1700 04c5 3502     		.2byte	0x235
 1701 04c7 3D030000 		.4byte	0x33d
 1702 04cb 02       		.byte	0x2
 1703 04cc 23       		.byte	0x23
ARM GAS  /tmp/ccaOL8bX.s 			page 32


 1704 04cd 18       		.uleb128 0x18
 1705 04ce 12       		.uleb128 0x12
 1706 04cf AD020000 		.4byte	.LASF68
 1707 04d3 0A       		.byte	0xa
 1708 04d4 3602     		.2byte	0x236
 1709 04d6 3D030000 		.4byte	0x33d
 1710 04da 02       		.byte	0x2
 1711 04db 23       		.byte	0x23
 1712 04dc 1C       		.uleb128 0x1c
 1713 04dd 12       		.uleb128 0x12
 1714 04de E0030000 		.4byte	.LASF69
 1715 04e2 0A       		.byte	0xa
 1716 04e3 3702     		.2byte	0x237
 1717 04e5 3D030000 		.4byte	0x33d
 1718 04e9 02       		.byte	0x2
 1719 04ea 23       		.byte	0x23
 1720 04eb 20       		.uleb128 0x20
 1721 04ec 0B       		.uleb128 0xb
 1722 04ed 48545200 		.ascii	"HTR\000"
 1723 04f1 0A       		.byte	0xa
 1724 04f2 3802     		.2byte	0x238
 1725 04f4 3D030000 		.4byte	0x33d
 1726 04f8 02       		.byte	0x2
 1727 04f9 23       		.byte	0x23
 1728 04fa 24       		.uleb128 0x24
 1729 04fb 0B       		.uleb128 0xb
 1730 04fc 4C545200 		.ascii	"LTR\000"
 1731 0500 0A       		.byte	0xa
 1732 0501 3902     		.2byte	0x239
 1733 0503 3D030000 		.4byte	0x33d
 1734 0507 02       		.byte	0x2
 1735 0508 23       		.byte	0x23
 1736 0509 28       		.uleb128 0x28
 1737 050a 12       		.uleb128 0x12
 1738 050b 1B030000 		.4byte	.LASF70
 1739 050f 0A       		.byte	0xa
 1740 0510 3A02     		.2byte	0x23a
 1741 0512 3D030000 		.4byte	0x33d
 1742 0516 02       		.byte	0x2
 1743 0517 23       		.byte	0x23
 1744 0518 2C       		.uleb128 0x2c
 1745 0519 12       		.uleb128 0x12
 1746 051a 20030000 		.4byte	.LASF71
 1747 051e 0A       		.byte	0xa
 1748 051f 3B02     		.2byte	0x23b
 1749 0521 3D030000 		.4byte	0x33d
 1750 0525 02       		.byte	0x2
 1751 0526 23       		.byte	0x23
 1752 0527 30       		.uleb128 0x30
 1753 0528 12       		.uleb128 0x12
 1754 0529 25030000 		.4byte	.LASF72
 1755 052d 0A       		.byte	0xa
 1756 052e 3C02     		.2byte	0x23c
 1757 0530 3D030000 		.4byte	0x33d
 1758 0534 02       		.byte	0x2
 1759 0535 23       		.byte	0x23
 1760 0536 34       		.uleb128 0x34
ARM GAS  /tmp/ccaOL8bX.s 			page 33


 1761 0537 12       		.uleb128 0x12
 1762 0538 64000000 		.4byte	.LASF73
 1763 053c 0A       		.byte	0xa
 1764 053d 3D02     		.2byte	0x23d
 1765 053f 3D030000 		.4byte	0x33d
 1766 0543 02       		.byte	0x2
 1767 0544 23       		.byte	0x23
 1768 0545 38       		.uleb128 0x38
 1769 0546 12       		.uleb128 0x12
 1770 0547 DC040000 		.4byte	.LASF74
 1771 054b 0A       		.byte	0xa
 1772 054c 3E02     		.2byte	0x23e
 1773 054e 3D030000 		.4byte	0x33d
 1774 0552 02       		.byte	0x2
 1775 0553 23       		.byte	0x23
 1776 0554 3C       		.uleb128 0x3c
 1777 0555 12       		.uleb128 0x12
 1778 0556 E1040000 		.4byte	.LASF75
 1779 055a 0A       		.byte	0xa
 1780 055b 3F02     		.2byte	0x23f
 1781 055d 3D030000 		.4byte	0x33d
 1782 0561 02       		.byte	0x2
 1783 0562 23       		.byte	0x23
 1784 0563 40       		.uleb128 0x40
 1785 0564 12       		.uleb128 0x12
 1786 0565 E6040000 		.4byte	.LASF76
 1787 0569 0A       		.byte	0xa
 1788 056a 4002     		.2byte	0x240
 1789 056c 3D030000 		.4byte	0x33d
 1790 0570 02       		.byte	0x2
 1791 0571 23       		.byte	0x23
 1792 0572 44       		.uleb128 0x44
 1793 0573 12       		.uleb128 0x12
 1794 0574 EB040000 		.4byte	.LASF77
 1795 0578 0A       		.byte	0xa
 1796 0579 4102     		.2byte	0x241
 1797 057b 3D030000 		.4byte	0x33d
 1798 057f 02       		.byte	0x2
 1799 0580 23       		.byte	0x23
 1800 0581 48       		.uleb128 0x48
 1801 0582 0B       		.uleb128 0xb
 1802 0583 445200   		.ascii	"DR\000"
 1803 0586 0A       		.byte	0xa
 1804 0587 4202     		.2byte	0x242
 1805 0589 3D030000 		.4byte	0x33d
 1806 058d 02       		.byte	0x2
 1807 058e 23       		.byte	0x23
 1808 058f 4C       		.uleb128 0x4c
 1809 0590 00       		.byte	0x0
 1810 0591 13       		.uleb128 0x13
 1811 0592 02010000 		.4byte	.LASF78
 1812 0596 0A       		.byte	0xa
 1813 0597 4302     		.2byte	0x243
 1814 0599 5D040000 		.4byte	0x45d
 1815 059d 11       		.uleb128 0x11
 1816 059e 10       		.byte	0x10
 1817 059f 0A       		.byte	0xa
ARM GAS  /tmp/ccaOL8bX.s 			page 34


 1818 05a0 2D03     		.2byte	0x32d
 1819 05a2 E3050000 		.4byte	0x5e3
 1820 05a6 0B       		.uleb128 0xb
 1821 05a7 43435200 		.ascii	"CCR\000"
 1822 05ab 0A       		.byte	0xa
 1823 05ac 2F03     		.2byte	0x32f
 1824 05ae 3D030000 		.4byte	0x33d
 1825 05b2 02       		.byte	0x2
 1826 05b3 23       		.byte	0x23
 1827 05b4 00       		.uleb128 0x0
 1828 05b5 12       		.uleb128 0x12
 1829 05b6 9C040000 		.4byte	.LASF79
 1830 05ba 0A       		.byte	0xa
 1831 05bb 3003     		.2byte	0x330
 1832 05bd 3D030000 		.4byte	0x33d
 1833 05c1 02       		.byte	0x2
 1834 05c2 23       		.byte	0x23
 1835 05c3 04       		.uleb128 0x4
 1836 05c4 12       		.uleb128 0x12
 1837 05c5 B6010000 		.4byte	.LASF80
 1838 05c9 0A       		.byte	0xa
 1839 05ca 3103     		.2byte	0x331
 1840 05cc 3D030000 		.4byte	0x33d
 1841 05d0 02       		.byte	0x2
 1842 05d1 23       		.byte	0x23
 1843 05d2 08       		.uleb128 0x8
 1844 05d3 12       		.uleb128 0x12
 1845 05d4 8C020000 		.4byte	.LASF81
 1846 05d8 0A       		.byte	0xa
 1847 05d9 3203     		.2byte	0x332
 1848 05db 3D030000 		.4byte	0x33d
 1849 05df 02       		.byte	0x2
 1850 05e0 23       		.byte	0x23
 1851 05e1 0C       		.uleb128 0xc
 1852 05e2 00       		.byte	0x0
 1853 05e3 13       		.uleb128 0x13
 1854 05e4 D5010000 		.4byte	.LASF82
 1855 05e8 0A       		.byte	0xa
 1856 05e9 3303     		.2byte	0x333
 1857 05eb 9D050000 		.4byte	0x59d
 1858 05ef 08       		.uleb128 0x8
 1859 05f0 0C       		.byte	0xc
 1860 05f1 0B       		.byte	0xb
 1861 05f2 C2       		.byte	0xc2
 1862 05f3 3E060000 		.4byte	0x63e
 1863 05f7 06       		.uleb128 0x6
 1864 05f8 E6030000 		.4byte	.LASF83
 1865 05fc 0B       		.byte	0xb
 1866 05fd C3       		.byte	0xc3
 1867 05fe 3E060000 		.4byte	0x63e
 1868 0602 02       		.byte	0x2
 1869 0603 23       		.byte	0x23
 1870 0604 00       		.uleb128 0x0
 1871 0605 06       		.uleb128 0x6
 1872 0606 F9030000 		.4byte	.LASF84
 1873 060a 0B       		.byte	0xb
 1874 060b C4       		.byte	0xc4
ARM GAS  /tmp/ccaOL8bX.s 			page 35


 1875 060c 44060000 		.4byte	0x644
 1876 0610 02       		.byte	0x2
 1877 0611 23       		.byte	0x23
 1878 0612 04       		.uleb128 0x4
 1879 0613 06       		.uleb128 0x6
 1880 0614 E9010000 		.4byte	.LASF85
 1881 0618 0B       		.byte	0xb
 1882 0619 C5       		.byte	0xc5
 1883 061a 49000000 		.4byte	0x49
 1884 061e 02       		.byte	0x2
 1885 061f 23       		.byte	0x23
 1886 0620 08       		.uleb128 0x8
 1887 0621 06       		.uleb128 0x6
 1888 0622 5D010000 		.4byte	.LASF86
 1889 0626 0B       		.byte	0xb
 1890 0627 C7       		.byte	0xc7
 1891 0628 49000000 		.4byte	0x49
 1892 062c 02       		.byte	0x2
 1893 062d 23       		.byte	0x23
 1894 062e 09       		.uleb128 0x9
 1895 062f 06       		.uleb128 0x6
 1896 0630 49000000 		.4byte	.LASF87
 1897 0634 0B       		.byte	0xb
 1898 0635 C8       		.byte	0xc8
 1899 0636 49000000 		.4byte	0x49
 1900 063a 02       		.byte	0x2
 1901 063b 23       		.byte	0x23
 1902 063c 0A       		.uleb128 0xa
 1903 063d 00       		.byte	0x0
 1904 063e 09       		.uleb128 0x9
 1905 063f 04       		.byte	0x4
 1906 0640 E3050000 		.4byte	0x5e3
 1907 0644 09       		.uleb128 0x9
 1908 0645 04       		.byte	0x4
 1909 0646 3D030000 		.4byte	0x33d
 1910 064a 03       		.uleb128 0x3
 1911 064b 45030000 		.4byte	.LASF88
 1912 064f 0B       		.byte	0xb
 1913 0650 C9       		.byte	0xc9
 1914 0651 EF050000 		.4byte	0x5ef
 1915 0655 14       		.uleb128 0x14
 1916 0656 01       		.byte	0x1
 1917 0657 0C       		.byte	0xc
 1918 0658 55       		.byte	0x55
 1919 0659 82060000 		.4byte	0x682
 1920 065d 15       		.uleb128 0x15
 1921 065e 74010000 		.4byte	.LASF89
 1922 0662 00       		.sleb128 0
 1923 0663 15       		.uleb128 0x15
 1924 0664 C9020000 		.4byte	.LASF90
 1925 0668 01       		.sleb128 1
 1926 0669 15       		.uleb128 0x15
 1927 066a 03020000 		.4byte	.LASF91
 1928 066e 02       		.sleb128 2
 1929 066f 15       		.uleb128 0x15
 1930 0670 7F010000 		.4byte	.LASF92
 1931 0674 03       		.sleb128 3
ARM GAS  /tmp/ccaOL8bX.s 			page 36


 1932 0675 15       		.uleb128 0x15
 1933 0676 F7040000 		.4byte	.LASF93
 1934 067a 04       		.sleb128 4
 1935 067b 15       		.uleb128 0x15
 1936 067c 7F040000 		.4byte	.LASF94
 1937 0680 05       		.sleb128 5
 1938 0681 00       		.byte	0x0
 1939 0682 03       		.uleb128 0x3
 1940 0683 16000000 		.4byte	.LASF95
 1941 0687 0C       		.byte	0xc
 1942 0688 5C       		.byte	0x5c
 1943 0689 55060000 		.4byte	0x655
 1944 068d 03       		.uleb128 0x3
 1945 068e 36010000 		.4byte	.LASF96
 1946 0692 0D       		.byte	0xd
 1947 0693 92       		.byte	0x92
 1948 0694 62000000 		.4byte	0x62
 1949 0698 03       		.uleb128 0x3
 1950 0699 0B050000 		.4byte	.LASF97
 1951 069d 0D       		.byte	0xd
 1952 069e 97       		.byte	0x97
 1953 069f 62000000 		.4byte	0x62
 1954 06a3 14       		.uleb128 0x14
 1955 06a4 01       		.byte	0x1
 1956 06a5 0D       		.byte	0xd
 1957 06a6 9E       		.byte	0x9e
 1958 06a7 B2060000 		.4byte	0x6b2
 1959 06ab 15       		.uleb128 0x15
 1960 06ac BC000000 		.4byte	.LASF98
 1961 06b0 00       		.sleb128 0
 1962 06b1 00       		.byte	0x0
 1963 06b2 03       		.uleb128 0x3
 1964 06b3 92000000 		.4byte	.LASF99
 1965 06b7 0D       		.byte	0xd
 1966 06b8 A0       		.byte	0xa0
 1967 06b9 A3060000 		.4byte	0x6a3
 1968 06bd 03       		.uleb128 0x3
 1969 06be C6010000 		.4byte	.LASF100
 1970 06c2 0D       		.byte	0xd
 1971 06c3 A5       		.byte	0xa5
 1972 06c4 C8060000 		.4byte	0x6c8
 1973 06c8 0C       		.uleb128 0xc
 1974 06c9 C6010000 		.4byte	.LASF100
 1975 06cd 34       		.byte	0x34
 1976 06ce 0D       		.byte	0xd
 1977 06cf 0901     		.2byte	0x109
 1978 06d1 6C070000 		.4byte	0x76c
 1979 06d5 12       		.uleb128 0x12
 1980 06d6 A4000000 		.4byte	.LASF101
 1981 06da 0D       		.byte	0xd
 1982 06db 0D01     		.2byte	0x10d
 1983 06dd 82060000 		.4byte	0x682
 1984 06e1 02       		.byte	0x2
 1985 06e2 23       		.byte	0x23
 1986 06e3 00       		.uleb128 0x0
 1987 06e4 12       		.uleb128 0x12
 1988 06e5 32040000 		.4byte	.LASF102
ARM GAS  /tmp/ccaOL8bX.s 			page 37


 1989 06e9 0D       		.byte	0xd
 1990 06ea 1101     		.2byte	0x111
 1991 06ec 94080000 		.4byte	0x894
 1992 06f0 02       		.byte	0x2
 1993 06f1 23       		.byte	0x23
 1994 06f2 04       		.uleb128 0x4
 1995 06f3 12       		.uleb128 0x12
 1996 06f4 B3020000 		.4byte	.LASF103
 1997 06f8 0D       		.byte	0xd
 1998 06f9 1501     		.2byte	0x115
 1999 06fb 99070000 		.4byte	0x799
 2000 06ff 02       		.byte	0x2
 2001 0700 23       		.byte	0x23
 2002 0701 08       		.uleb128 0x8
 2003 0702 12       		.uleb128 0x12
 2004 0703 0D020000 		.4byte	.LASF104
 2005 0707 0D       		.byte	0xd
 2006 0708 1901     		.2byte	0x119
 2007 070a 30000000 		.4byte	0x30
 2008 070e 02       		.byte	0x2
 2009 070f 23       		.byte	0x23
 2010 0710 0C       		.uleb128 0xc
 2011 0711 12       		.uleb128 0x12
 2012 0712 9C020000 		.4byte	.LASF105
 2013 0716 0D       		.byte	0xd
 2014 0717 1D01     		.2byte	0x11d
 2015 0719 9F080000 		.4byte	0x89f
 2016 071d 02       		.byte	0x2
 2017 071e 23       		.byte	0x23
 2018 071f 10       		.uleb128 0x10
 2019 0720 12       		.uleb128 0x12
 2020 0721 EB000000 		.4byte	.LASF106
 2021 0725 0D       		.byte	0xd
 2022 0726 2201     		.2byte	0x122
 2023 0728 42020000 		.4byte	0x242
 2024 072c 02       		.byte	0x2
 2025 072d 23       		.byte	0x23
 2026 072e 14       		.uleb128 0x14
 2027 072f 12       		.uleb128 0x12
 2028 0730 60030000 		.4byte	.LASF107
 2029 0734 0D       		.byte	0xd
 2030 0735 2901     		.2byte	0x129
 2031 0737 FA030000 		.4byte	0x3fa
 2032 073b 02       		.byte	0x2
 2033 073c 23       		.byte	0x23
 2034 073d 18       		.uleb128 0x18
 2035 073e 0B       		.uleb128 0xb
 2036 073f 61646300 		.ascii	"adc\000"
 2037 0743 0D       		.byte	0xd
 2038 0744 3501     		.2byte	0x135
 2039 0746 AA080000 		.4byte	0x8aa
 2040 074a 02       		.byte	0x2
 2041 074b 23       		.byte	0x23
 2042 074c 28       		.uleb128 0x28
 2043 074d 12       		.uleb128 0x12
 2044 074e 9D000000 		.4byte	.LASF108
 2045 0752 0D       		.byte	0xd
ARM GAS  /tmp/ccaOL8bX.s 			page 38


 2046 0753 3901     		.2byte	0x139
 2047 0755 B0080000 		.4byte	0x8b0
 2048 0759 02       		.byte	0x2
 2049 075a 23       		.byte	0x23
 2050 075b 2C       		.uleb128 0x2c
 2051 075c 12       		.uleb128 0x12
 2052 075d 0E000000 		.4byte	.LASF109
 2053 0761 0D       		.byte	0xd
 2054 0762 3D01     		.2byte	0x13d
 2055 0764 86000000 		.4byte	0x86
 2056 0768 02       		.byte	0x2
 2057 0769 23       		.byte	0x23
 2058 076a 30       		.uleb128 0x30
 2059 076b 00       		.byte	0x0
 2060 076c 03       		.uleb128 0x3
 2061 076d 1D010000 		.4byte	.LASF110
 2062 0771 0D       		.byte	0xd
 2063 0772 AF       		.byte	0xaf
 2064 0773 77070000 		.4byte	0x777
 2065 0777 09       		.uleb128 0x9
 2066 0778 04       		.byte	0x4
 2067 0779 7D070000 		.4byte	0x77d
 2068 077d 16       		.uleb128 0x16
 2069 077e 01       		.byte	0x1
 2070 077f 93070000 		.4byte	0x793
 2071 0783 17       		.uleb128 0x17
 2072 0784 93070000 		.4byte	0x793
 2073 0788 17       		.uleb128 0x17
 2074 0789 99070000 		.4byte	0x799
 2075 078d 17       		.uleb128 0x17
 2076 078e 30000000 		.4byte	0x30
 2077 0792 00       		.byte	0x0
 2078 0793 09       		.uleb128 0x9
 2079 0794 04       		.byte	0x4
 2080 0795 BD060000 		.4byte	0x6bd
 2081 0799 09       		.uleb128 0x9
 2082 079a 04       		.byte	0x4
 2083 079b 8D060000 		.4byte	0x68d
 2084 079f 03       		.uleb128 0x3
 2085 07a0 CF000000 		.4byte	.LASF111
 2086 07a4 0D       		.byte	0xd
 2087 07a5 B8       		.byte	0xb8
 2088 07a6 AA070000 		.4byte	0x7aa
 2089 07aa 09       		.uleb128 0x9
 2090 07ab 04       		.byte	0x4
 2091 07ac B0070000 		.4byte	0x7b0
 2092 07b0 16       		.uleb128 0x16
 2093 07b1 01       		.byte	0x1
 2094 07b2 C1070000 		.4byte	0x7c1
 2095 07b6 17       		.uleb128 0x17
 2096 07b7 93070000 		.4byte	0x793
 2097 07bb 17       		.uleb128 0x17
 2098 07bc B2060000 		.4byte	0x6b2
 2099 07c0 00       		.byte	0x0
 2100 07c1 08       		.uleb128 0x8
 2101 07c2 2C       		.byte	0x2c
 2102 07c3 0D       		.byte	0xd
ARM GAS  /tmp/ccaOL8bX.s 			page 39


 2103 07c4 C2       		.byte	0xc2
 2104 07c5 64080000 		.4byte	0x864
 2105 07c9 06       		.uleb128 0x6
 2106 07ca AA000000 		.4byte	.LASF112
 2107 07ce 0D       		.byte	0xd
 2108 07cf C6       		.byte	0xc6
 2109 07d0 B1000000 		.4byte	0xb1
 2110 07d4 02       		.byte	0x2
 2111 07d5 23       		.byte	0x23
 2112 07d6 00       		.uleb128 0x0
 2113 07d7 06       		.uleb128 0x6
 2114 07d8 2D020000 		.4byte	.LASF113
 2115 07dc 0D       		.byte	0xd
 2116 07dd CA       		.byte	0xca
 2117 07de 98060000 		.4byte	0x698
 2118 07e2 02       		.byte	0x2
 2119 07e3 23       		.byte	0x23
 2120 07e4 04       		.uleb128 0x4
 2121 07e5 06       		.uleb128 0x6
 2122 07e6 16010000 		.4byte	.LASF114
 2123 07ea 0D       		.byte	0xd
 2124 07eb CE       		.byte	0xce
 2125 07ec 6C070000 		.4byte	0x76c
 2126 07f0 02       		.byte	0x2
 2127 07f1 23       		.byte	0x23
 2128 07f2 08       		.uleb128 0x8
 2129 07f3 06       		.uleb128 0x6
 2130 07f4 BA030000 		.4byte	.LASF115
 2131 07f8 0D       		.byte	0xd
 2132 07f9 D2       		.byte	0xd2
 2133 07fa 9F070000 		.4byte	0x79f
 2134 07fe 02       		.byte	0x2
 2135 07ff 23       		.byte	0x23
 2136 0800 0C       		.uleb128 0xc
 2137 0801 07       		.uleb128 0x7
 2138 0802 63723100 		.ascii	"cr1\000"
 2139 0806 0D       		.byte	0xd
 2140 0807 D9       		.byte	0xd9
 2141 0808 86000000 		.4byte	0x86
 2142 080c 02       		.byte	0x2
 2143 080d 23       		.byte	0x23
 2144 080e 10       		.uleb128 0x10
 2145 080f 07       		.uleb128 0x7
 2146 0810 63723200 		.ascii	"cr2\000"
 2147 0814 0D       		.byte	0xd
 2148 0815 E0       		.byte	0xe0
 2149 0816 86000000 		.4byte	0x86
 2150 081a 02       		.byte	0x2
 2151 081b 23       		.byte	0x23
 2152 081c 14       		.uleb128 0x14
 2153 081d 06       		.uleb128 0x6
 2154 081e 15040000 		.4byte	.LASF116
 2155 0822 0D       		.byte	0xd
 2156 0823 E6       		.byte	0xe6
 2157 0824 86000000 		.4byte	0x86
 2158 0828 02       		.byte	0x2
 2159 0829 23       		.byte	0x23
ARM GAS  /tmp/ccaOL8bX.s 			page 40


 2160 082a 18       		.uleb128 0x18
 2161 082b 06       		.uleb128 0x6
 2162 082c A2040000 		.4byte	.LASF117
 2163 0830 0D       		.byte	0xd
 2164 0831 EC       		.byte	0xec
 2165 0832 86000000 		.4byte	0x86
 2166 0836 02       		.byte	0x2
 2167 0837 23       		.byte	0x23
 2168 0838 1C       		.uleb128 0x1c
 2169 0839 06       		.uleb128 0x6
 2170 083a 39040000 		.4byte	.LASF118
 2171 083e 0D       		.byte	0xd
 2172 083f F1       		.byte	0xf1
 2173 0840 86000000 		.4byte	0x86
 2174 0844 02       		.byte	0x2
 2175 0845 23       		.byte	0x23
 2176 0846 20       		.uleb128 0x20
 2177 0847 06       		.uleb128 0x6
 2178 0848 3E040000 		.4byte	.LASF119
 2179 084c 0D       		.byte	0xd
 2180 084d F6       		.byte	0xf6
 2181 084e 86000000 		.4byte	0x86
 2182 0852 02       		.byte	0x2
 2183 0853 23       		.byte	0x23
 2184 0854 24       		.uleb128 0x24
 2185 0855 06       		.uleb128 0x6
 2186 0856 43040000 		.4byte	.LASF120
 2187 085a 0D       		.byte	0xd
 2188 085b FB       		.byte	0xfb
 2189 085c 86000000 		.4byte	0x86
 2190 0860 02       		.byte	0x2
 2191 0861 23       		.byte	0x23
 2192 0862 28       		.uleb128 0x28
 2193 0863 00       		.byte	0x0
 2194 0864 03       		.uleb128 0x3
 2195 0865 C9040000 		.4byte	.LASF121
 2196 0869 0D       		.byte	0xd
 2197 086a FC       		.byte	0xfc
 2198 086b C1070000 		.4byte	0x7c1
 2199 086f 11       		.uleb128 0x11
 2200 0870 04       		.byte	0x4
 2201 0871 0D       		.byte	0xd
 2202 0872 0201     		.2byte	0x102
 2203 0874 88080000 		.4byte	0x888
 2204 0878 12       		.uleb128 0x12
 2205 0879 67010000 		.4byte	.LASF122
 2206 087d 0D       		.byte	0xd
 2207 087e 0301     		.2byte	0x103
 2208 0880 86000000 		.4byte	0x86
 2209 0884 02       		.byte	0x2
 2210 0885 23       		.byte	0x23
 2211 0886 00       		.uleb128 0x0
 2212 0887 00       		.byte	0x0
 2213 0888 13       		.uleb128 0x13
 2214 0889 4A010000 		.4byte	.LASF123
 2215 088d 0D       		.byte	0xd
 2216 088e 0401     		.2byte	0x104
ARM GAS  /tmp/ccaOL8bX.s 			page 41


 2217 0890 6F080000 		.4byte	0x86f
 2218 0894 09       		.uleb128 0x9
 2219 0895 04       		.byte	0x4
 2220 0896 9A080000 		.4byte	0x89a
 2221 089a 10       		.uleb128 0x10
 2222 089b 88080000 		.4byte	0x888
 2223 089f 09       		.uleb128 0x9
 2224 08a0 04       		.byte	0x4
 2225 08a1 A5080000 		.4byte	0x8a5
 2226 08a5 10       		.uleb128 0x10
 2227 08a6 64080000 		.4byte	0x864
 2228 08aa 09       		.uleb128 0x9
 2229 08ab 04       		.byte	0x4
 2230 08ac 91050000 		.4byte	0x591
 2231 08b0 09       		.uleb128 0x9
 2232 08b1 04       		.byte	0x4
 2233 08b2 B6080000 		.4byte	0x8b6
 2234 08b6 10       		.uleb128 0x10
 2235 08b7 4A060000 		.4byte	0x64a
 2236 08bb 18       		.uleb128 0x18
 2237 08bc 01       		.byte	0x1
 2238 08bd 84020000 		.4byte	.LASF139
 2239 08c1 01       		.byte	0x1
 2240 08c2 44       		.byte	0x44
 2241 08c3 01       		.byte	0x1
 2242 08c4 00000000 		.4byte	.LFB62
 2243 08c8 08000000 		.4byte	.LFE62
 2244 08cc 00000000 		.4byte	.LLST0
 2245 08d0 19       		.uleb128 0x19
 2246 08d1 01       		.byte	0x1
 2247 08d2 A8010000 		.4byte	.LASF124
 2248 08d6 01       		.byte	0x1
 2249 08d7 50       		.byte	0x50
 2250 08d8 01       		.byte	0x1
 2251 08d9 00000000 		.4byte	.LFB63
 2252 08dd 46000000 		.4byte	.LFE63
 2253 08e1 20000000 		.4byte	.LLST1
 2254 08e5 F8080000 		.4byte	0x8f8
 2255 08e9 1A       		.uleb128 0x1a
 2256 08ea D0010000 		.4byte	.LASF126
 2257 08ee 01       		.byte	0x1
 2258 08ef 50       		.byte	0x50
 2259 08f0 93070000 		.4byte	0x793
 2260 08f4 02       		.byte	0x2
 2261 08f5 91       		.byte	0x91
 2262 08f6 74       		.sleb128 -12
 2263 08f7 00       		.byte	0x0
 2264 08f8 19       		.uleb128 0x19
 2265 08f9 01       		.byte	0x1
 2266 08fa 89040000 		.4byte	.LASF125
 2267 08fe 01       		.byte	0x1
 2268 08ff 6F       		.byte	0x6f
 2269 0900 01       		.byte	0x1
 2270 0901 00000000 		.4byte	.LFB64
 2271 0905 64000000 		.4byte	.LFE64
 2272 0909 4C000000 		.4byte	.LLST2
 2273 090d 60090000 		.4byte	0x960
ARM GAS  /tmp/ccaOL8bX.s 			page 42


 2274 0911 1A       		.uleb128 0x1a
 2275 0912 D0010000 		.4byte	.LASF126
 2276 0916 01       		.byte	0x1
 2277 0917 6F       		.byte	0x6f
 2278 0918 93070000 		.4byte	0x793
 2279 091c 02       		.byte	0x2
 2280 091d 91       		.byte	0x91
 2281 091e 74       		.sleb128 -12
 2282 091f 1A       		.uleb128 0x1a
 2283 0920 32040000 		.4byte	.LASF102
 2284 0924 01       		.byte	0x1
 2285 0925 6F       		.byte	0x6f
 2286 0926 94080000 		.4byte	0x894
 2287 092a 02       		.byte	0x2
 2288 092b 91       		.byte	0x91
 2289 092c 70       		.sleb128 -16
 2290 092d 1B       		.uleb128 0x1b
 2291 092e 14000000 		.4byte	.LBB2
 2292 0932 1C000000 		.4byte	.LBE2
 2293 0936 48090000 		.4byte	0x948
 2294 093a 1C       		.uleb128 0x1c
 2295 093b 746D7000 		.ascii	"tmp\000"
 2296 093f 01       		.byte	0x1
 2297 0940 73       		.byte	0x73
 2298 0941 86000000 		.4byte	0x86
 2299 0945 01       		.byte	0x1
 2300 0946 53       		.byte	0x53
 2301 0947 00       		.byte	0x0
 2302 0948 1D       		.uleb128 0x1d
 2303 0949 4E000000 		.4byte	.LBB3
 2304 094d 56000000 		.4byte	.LBE3
 2305 0951 1C       		.uleb128 0x1c
 2306 0952 746D7000 		.ascii	"tmp\000"
 2307 0956 01       		.byte	0x1
 2308 0957 79       		.byte	0x79
 2309 0958 86000000 		.4byte	0x86
 2310 095c 01       		.byte	0x1
 2311 095d 53       		.byte	0x53
 2312 095e 00       		.byte	0x0
 2313 095f 00       		.byte	0x0
 2314 0960 19       		.uleb128 0x19
 2315 0961 01       		.byte	0x1
 2316 0962 21000000 		.4byte	.LASF127
 2317 0966 01       		.byte	0x1
 2318 0967 83       		.byte	0x83
 2319 0968 01       		.byte	0x1
 2320 0969 00000000 		.4byte	.LFB65
 2321 096d 5C000000 		.4byte	.LFE65
 2322 0971 78000000 		.4byte	.LLST3
 2323 0975 BA090000 		.4byte	0x9ba
 2324 0979 1A       		.uleb128 0x1a
 2325 097a D0010000 		.4byte	.LASF126
 2326 097e 01       		.byte	0x1
 2327 097f 83       		.byte	0x83
 2328 0980 93070000 		.4byte	0x793
 2329 0984 02       		.byte	0x2
 2330 0985 91       		.byte	0x91
ARM GAS  /tmp/ccaOL8bX.s 			page 43


 2331 0986 74       		.sleb128 -12
 2332 0987 1B       		.uleb128 0x1b
 2333 0988 12000000 		.4byte	.LBB4
 2334 098c 1A000000 		.4byte	.LBE4
 2335 0990 A2090000 		.4byte	0x9a2
 2336 0994 1C       		.uleb128 0x1c
 2337 0995 746D7000 		.ascii	"tmp\000"
 2338 0999 01       		.byte	0x1
 2339 099a 87       		.byte	0x87
 2340 099b 86000000 		.4byte	0x86
 2341 099f 01       		.byte	0x1
 2342 09a0 53       		.byte	0x53
 2343 09a1 00       		.byte	0x0
 2344 09a2 1D       		.uleb128 0x1d
 2345 09a3 46000000 		.4byte	.LBB5
 2346 09a7 4E000000 		.4byte	.LBE5
 2347 09ab 1C       		.uleb128 0x1c
 2348 09ac 746D7000 		.ascii	"tmp\000"
 2349 09b0 01       		.byte	0x1
 2350 09b1 8C       		.byte	0x8c
 2351 09b2 86000000 		.4byte	0x86
 2352 09b6 01       		.byte	0x1
 2353 09b7 53       		.byte	0x53
 2354 09b8 00       		.byte	0x0
 2355 09b9 00       		.byte	0x0
 2356 09ba 19       		.uleb128 0x19
 2357 09bb 01       		.byte	0x1
 2358 09bc 65040000 		.4byte	.LASF128
 2359 09c0 01       		.byte	0x1
 2360 09c1 9F       		.byte	0x9f
 2361 09c2 01       		.byte	0x1
 2362 09c3 00000000 		.4byte	.LFB66
 2363 09c7 34000000 		.4byte	.LFE66
 2364 09cb A4000000 		.4byte	.LLST4
 2365 09cf 3E0A0000 		.4byte	0xa3e
 2366 09d3 1A       		.uleb128 0x1a
 2367 09d4 D0010000 		.4byte	.LASF126
 2368 09d8 01       		.byte	0x1
 2369 09d9 9F       		.byte	0x9f
 2370 09da 93070000 		.4byte	0x793
 2371 09de 02       		.byte	0x2
 2372 09df 91       		.byte	0x91
 2373 09e0 74       		.sleb128 -12
 2374 09e1 1A       		.uleb128 0x1a
 2375 09e2 9C020000 		.4byte	.LASF105
 2376 09e6 01       		.byte	0x1
 2377 09e7 A0       		.byte	0xa0
 2378 09e8 9F080000 		.4byte	0x89f
 2379 09ec 02       		.byte	0x2
 2380 09ed 91       		.byte	0x91
 2381 09ee 70       		.sleb128 -16
 2382 09ef 1A       		.uleb128 0x1a
 2383 09f0 B3020000 		.4byte	.LASF103
 2384 09f4 01       		.byte	0x1
 2385 09f5 A1       		.byte	0xa1
 2386 09f6 99070000 		.4byte	0x799
 2387 09fa 02       		.byte	0x2
ARM GAS  /tmp/ccaOL8bX.s 			page 44


 2388 09fb 91       		.byte	0x91
 2389 09fc 6C       		.sleb128 -20
 2390 09fd 1A       		.uleb128 0x1a
 2391 09fe 0D020000 		.4byte	.LASF104
 2392 0a02 01       		.byte	0x1
 2393 0a03 A2       		.byte	0xa2
 2394 0a04 30000000 		.4byte	0x30
 2395 0a08 02       		.byte	0x2
 2396 0a09 91       		.byte	0x91
 2397 0a0a 68       		.sleb128 -24
 2398 0a0b 1B       		.uleb128 0x1b
 2399 0a0c 0C000000 		.4byte	.LBB6
 2400 0a10 14000000 		.4byte	.LBE6
 2401 0a14 260A0000 		.4byte	0xa26
 2402 0a18 1C       		.uleb128 0x1c
 2403 0a19 746D7000 		.ascii	"tmp\000"
 2404 0a1d 01       		.byte	0x1
 2405 0a1e A4       		.byte	0xa4
 2406 0a1f 86000000 		.4byte	0x86
 2407 0a23 01       		.byte	0x1
 2408 0a24 53       		.byte	0x53
 2409 0a25 00       		.byte	0x0
 2410 0a26 1D       		.uleb128 0x1d
 2411 0a27 28000000 		.4byte	.LBB7
 2412 0a2b 30000000 		.4byte	.LBE7
 2413 0a2f 1C       		.uleb128 0x1c
 2414 0a30 746D7000 		.ascii	"tmp\000"
 2415 0a34 01       		.byte	0x1
 2416 0a35 A6       		.byte	0xa6
 2417 0a36 86000000 		.4byte	0x86
 2418 0a3a 01       		.byte	0x1
 2419 0a3b 53       		.byte	0x53
 2420 0a3c 00       		.byte	0x0
 2421 0a3d 00       		.byte	0x0
 2422 0a3e 19       		.uleb128 0x19
 2423 0a3f 01       		.byte	0x1
 2424 0a40 2A030000 		.4byte	.LASF129
 2425 0a44 01       		.byte	0x1
 2426 0a45 BB       		.byte	0xbb
 2427 0a46 01       		.byte	0x1
 2428 0a47 00000000 		.4byte	.LFB67
 2429 0a4b 84000000 		.4byte	.LFE67
 2430 0a4f D0000000 		.4byte	.LLST5
 2431 0a53 900A0000 		.4byte	0xa90
 2432 0a57 1A       		.uleb128 0x1a
 2433 0a58 D0010000 		.4byte	.LASF126
 2434 0a5c 01       		.byte	0x1
 2435 0a5d BB       		.byte	0xbb
 2436 0a5e 93070000 		.4byte	0x793
 2437 0a62 02       		.byte	0x2
 2438 0a63 91       		.byte	0x91
 2439 0a64 74       		.sleb128 -12
 2440 0a65 1A       		.uleb128 0x1a
 2441 0a66 9C020000 		.4byte	.LASF105
 2442 0a6a 01       		.byte	0x1
 2443 0a6b BC       		.byte	0xbc
 2444 0a6c 9F080000 		.4byte	0x89f
ARM GAS  /tmp/ccaOL8bX.s 			page 45


 2445 0a70 02       		.byte	0x2
 2446 0a71 91       		.byte	0x91
 2447 0a72 70       		.sleb128 -16
 2448 0a73 1A       		.uleb128 0x1a
 2449 0a74 B3020000 		.4byte	.LASF103
 2450 0a78 01       		.byte	0x1
 2451 0a79 BD       		.byte	0xbd
 2452 0a7a 99070000 		.4byte	0x799
 2453 0a7e 02       		.byte	0x2
 2454 0a7f 91       		.byte	0x91
 2455 0a80 6C       		.sleb128 -20
 2456 0a81 1A       		.uleb128 0x1a
 2457 0a82 0D020000 		.4byte	.LASF104
 2458 0a86 01       		.byte	0x1
 2459 0a87 BE       		.byte	0xbe
 2460 0a88 30000000 		.4byte	0x30
 2461 0a8c 02       		.byte	0x2
 2462 0a8d 91       		.byte	0x91
 2463 0a8e 68       		.sleb128 -24
 2464 0a8f 00       		.byte	0x0
 2465 0a90 19       		.uleb128 0x19
 2466 0a91 01       		.byte	0x1
 2467 0a92 2E050000 		.4byte	.LASF130
 2468 0a96 01       		.byte	0x1
 2469 0a97 DA       		.byte	0xda
 2470 0a98 01       		.byte	0x1
 2471 0a99 00000000 		.4byte	.LFB68
 2472 0a9d 8C000000 		.4byte	.LFE68
 2473 0aa1 FC000000 		.4byte	.LLST6
 2474 0aa5 050B0000 		.4byte	0xb05
 2475 0aa9 1A       		.uleb128 0x1a
 2476 0aaa D0010000 		.4byte	.LASF126
 2477 0aae 01       		.byte	0x1
 2478 0aaf DA       		.byte	0xda
 2479 0ab0 93070000 		.4byte	0x793
 2480 0ab4 02       		.byte	0x2
 2481 0ab5 91       		.byte	0x91
 2482 0ab6 6C       		.sleb128 -20
 2483 0ab7 1B       		.uleb128 0x1b
 2484 0ab8 12000000 		.4byte	.LBB8
 2485 0abc 1A000000 		.4byte	.LBE8
 2486 0ac0 D20A0000 		.4byte	0xad2
 2487 0ac4 1C       		.uleb128 0x1c
 2488 0ac5 746D7000 		.ascii	"tmp\000"
 2489 0ac9 01       		.byte	0x1
 2490 0aca DE       		.byte	0xde
 2491 0acb 86000000 		.4byte	0x86
 2492 0acf 01       		.byte	0x1
 2493 0ad0 53       		.byte	0x53
 2494 0ad1 00       		.byte	0x0
 2495 0ad2 1B       		.uleb128 0x1b
 2496 0ad3 5A000000 		.4byte	.LBB9
 2497 0ad7 72000000 		.4byte	.LBE9
 2498 0adb ED0A0000 		.4byte	0xaed
 2499 0adf 1C       		.uleb128 0x1c
 2500 0ae0 747000   		.ascii	"tp\000"
 2501 0ae3 01       		.byte	0x1
ARM GAS  /tmp/ccaOL8bX.s 			page 46


 2502 0ae4 E6       		.byte	0xe6
 2503 0ae5 42020000 		.4byte	0x242
 2504 0ae9 02       		.byte	0x2
 2505 0aea 91       		.byte	0x91
 2506 0aeb 74       		.sleb128 -12
 2507 0aec 00       		.byte	0x0
 2508 0aed 1D       		.uleb128 0x1d
 2509 0aee 76000000 		.4byte	.LBB10
 2510 0af2 7E000000 		.4byte	.LBE10
 2511 0af6 1C       		.uleb128 0x1c
 2512 0af7 746D7000 		.ascii	"tmp\000"
 2513 0afb 01       		.byte	0x1
 2514 0afc E8       		.byte	0xe8
 2515 0afd 86000000 		.4byte	0x86
 2516 0b01 01       		.byte	0x1
 2517 0b02 53       		.byte	0x53
 2518 0b03 00       		.byte	0x0
 2519 0b04 00       		.byte	0x0
 2520 0b05 19       		.uleb128 0x19
 2521 0b06 01       		.byte	0x1
 2522 0b07 B6040000 		.4byte	.LASF131
 2523 0b0b 01       		.byte	0x1
 2524 0b0c F5       		.byte	0xf5
 2525 0b0d 01       		.byte	0x1
 2526 0b0e 00000000 		.4byte	.LFB69
 2527 0b12 84000000 		.4byte	.LFE69
 2528 0b16 28010000 		.4byte	.LLST7
 2529 0b1a 450B0000 		.4byte	0xb45
 2530 0b1e 1A       		.uleb128 0x1a
 2531 0b1f D0010000 		.4byte	.LASF126
 2532 0b23 01       		.byte	0x1
 2533 0b24 F5       		.byte	0xf5
 2534 0b25 93070000 		.4byte	0x793
 2535 0b29 02       		.byte	0x2
 2536 0b2a 91       		.byte	0x91
 2537 0b2b 6C       		.sleb128 -20
 2538 0b2c 1D       		.uleb128 0x1d
 2539 0b2d 5A000000 		.4byte	.LBB11
 2540 0b31 76000000 		.4byte	.LBE11
 2541 0b35 1E       		.uleb128 0x1e
 2542 0b36 747000   		.ascii	"tp\000"
 2543 0b39 01       		.byte	0x1
 2544 0b3a 0201     		.2byte	0x102
 2545 0b3c 42020000 		.4byte	0x242
 2546 0b40 02       		.byte	0x2
 2547 0b41 91       		.byte	0x91
 2548 0b42 74       		.sleb128 -12
 2549 0b43 00       		.byte	0x0
 2550 0b44 00       		.byte	0x0
 2551 0b45 1F       		.uleb128 0x1f
 2552 0b46 01       		.byte	0x1
 2553 0b47 2B010000 		.4byte	.LASF140
 2554 0b4b 01       		.byte	0x1
 2555 0b4c 1E01     		.2byte	0x11e
 2556 0b4e 01       		.byte	0x1
 2557 0b4f DD000000 		.4byte	0xdd
 2558 0b53 00000000 		.4byte	.LFB70
ARM GAS  /tmp/ccaOL8bX.s 			page 47


 2559 0b57 68000000 		.4byte	.LFE70
 2560 0b5b 54010000 		.4byte	.LLST8
 2561 0b5f E30B0000 		.4byte	0xbe3
 2562 0b63 20       		.uleb128 0x20
 2563 0b64 D0010000 		.4byte	.LASF126
 2564 0b68 01       		.byte	0x1
 2565 0b69 1E01     		.2byte	0x11e
 2566 0b6b 93070000 		.4byte	0x793
 2567 0b6f 02       		.byte	0x2
 2568 0b70 91       		.byte	0x91
 2569 0b71 6C       		.sleb128 -20
 2570 0b72 20       		.uleb128 0x20
 2571 0b73 9C020000 		.4byte	.LASF105
 2572 0b77 01       		.byte	0x1
 2573 0b78 1F01     		.2byte	0x11f
 2574 0b7a 9F080000 		.4byte	0x89f
 2575 0b7e 02       		.byte	0x2
 2576 0b7f 91       		.byte	0x91
 2577 0b80 68       		.sleb128 -24
 2578 0b81 20       		.uleb128 0x20
 2579 0b82 B3020000 		.4byte	.LASF103
 2580 0b86 01       		.byte	0x1
 2581 0b87 2001     		.2byte	0x120
 2582 0b89 99070000 		.4byte	0x799
 2583 0b8d 02       		.byte	0x2
 2584 0b8e 91       		.byte	0x91
 2585 0b8f 64       		.sleb128 -28
 2586 0b90 20       		.uleb128 0x20
 2587 0b91 0D020000 		.4byte	.LASF104
 2588 0b95 01       		.byte	0x1
 2589 0b96 2101     		.2byte	0x121
 2590 0b98 30000000 		.4byte	0x30
 2591 0b9c 02       		.byte	0x2
 2592 0b9d 91       		.byte	0x91
 2593 0b9e 60       		.sleb128 -32
 2594 0b9f 1E       		.uleb128 0x1e
 2595 0ba0 6D736700 		.ascii	"msg\000"
 2596 0ba4 01       		.byte	0x1
 2597 0ba5 2201     		.2byte	0x122
 2598 0ba7 DD000000 		.4byte	0xdd
 2599 0bab 02       		.byte	0x2
 2600 0bac 91       		.byte	0x91
 2601 0bad 74       		.sleb128 -12
 2602 0bae 1B       		.uleb128 0x1b
 2603 0baf 0C000000 		.4byte	.LBB12
 2604 0bb3 14000000 		.4byte	.LBE12
 2605 0bb7 CA0B0000 		.4byte	0xbca
 2606 0bbb 1E       		.uleb128 0x1e
 2607 0bbc 746D7000 		.ascii	"tmp\000"
 2608 0bc0 01       		.byte	0x1
 2609 0bc1 2401     		.2byte	0x124
 2610 0bc3 86000000 		.4byte	0x86
 2611 0bc7 01       		.byte	0x1
 2612 0bc8 53       		.byte	0x53
 2613 0bc9 00       		.byte	0x0
 2614 0bca 1D       		.uleb128 0x1d
 2615 0bcb 4E000000 		.4byte	.LBB13
ARM GAS  /tmp/ccaOL8bX.s 			page 48


 2616 0bcf 56000000 		.4byte	.LBE13
 2617 0bd3 1E       		.uleb128 0x1e
 2618 0bd4 746D7000 		.ascii	"tmp\000"
 2619 0bd8 01       		.byte	0x1
 2620 0bd9 2A01     		.2byte	0x12a
 2621 0bdb 86000000 		.4byte	0x86
 2622 0bdf 01       		.byte	0x1
 2623 0be0 53       		.byte	0x53
 2624 0be1 00       		.byte	0x0
 2625 0be2 00       		.byte	0x0
 2626 0be3 21       		.uleb128 0x21
 2627 0be4 01       		.byte	0x1
 2628 0be5 48050000 		.4byte	.LASF132
 2629 0be9 01       		.byte	0x1
 2630 0bea 3B01     		.2byte	0x13b
 2631 0bec 01       		.byte	0x1
 2632 0bed 00000000 		.4byte	.LFB71
 2633 0bf1 28000000 		.4byte	.LFE71
 2634 0bf5 80010000 		.4byte	.LLST9
 2635 0bf9 0D0C0000 		.4byte	0xc0d
 2636 0bfd 20       		.uleb128 0x20
 2637 0bfe D0010000 		.4byte	.LASF126
 2638 0c02 01       		.byte	0x1
 2639 0c03 3B01     		.2byte	0x13b
 2640 0c05 93070000 		.4byte	0x793
 2641 0c09 02       		.byte	0x2
 2642 0c0a 91       		.byte	0x91
 2643 0c0b 74       		.sleb128 -12
 2644 0c0c 00       		.byte	0x0
 2645 0c0d 21       		.uleb128 0x21
 2646 0c0e 01       		.byte	0x1
 2647 0c0f 07040000 		.4byte	.LASF133
 2648 0c13 01       		.byte	0x1
 2649 0c14 4F01     		.2byte	0x14f
 2650 0c16 01       		.byte	0x1
 2651 0c17 00000000 		.4byte	.LFB72
 2652 0c1b 20000000 		.4byte	.LFE72
 2653 0c1f AC010000 		.4byte	.LLST10
 2654 0c23 370C0000 		.4byte	0xc37
 2655 0c27 20       		.uleb128 0x20
 2656 0c28 D0010000 		.4byte	.LASF126
 2657 0c2c 01       		.byte	0x1
 2658 0c2d 4F01     		.2byte	0x14f
 2659 0c2f 93070000 		.4byte	0x793
 2660 0c33 02       		.byte	0x2
 2661 0c34 91       		.byte	0x91
 2662 0c35 74       		.sleb128 -12
 2663 0c36 00       		.byte	0x0
 2664 0c37 22       		.uleb128 0x22
 2665 0c38 A8040000 		.4byte	.LASF134
 2666 0c3c 08       		.byte	0x8
 2667 0c3d 72       		.byte	0x72
 2668 0c3e B2030000 		.4byte	0x3b2
 2669 0c42 01       		.byte	0x1
 2670 0c43 01       		.byte	0x1
 2671 0c44 23       		.uleb128 0x23
 2672 0c45 50000000 		.4byte	.LASF135
ARM GAS  /tmp/ccaOL8bX.s 			page 49


 2673 0c49 0E       		.byte	0xe
 2674 0c4a 9404     		.2byte	0x494
 2675 0c4c 58040000 		.4byte	0x458
 2676 0c50 01       		.byte	0x1
 2677 0c51 01       		.byte	0x1
 2678 0c52 22       		.uleb128 0x22
 2679 0c53 A8040000 		.4byte	.LASF134
 2680 0c57 08       		.byte	0x8
 2681 0c58 72       		.byte	0x72
 2682 0c59 B2030000 		.4byte	0x3b2
 2683 0c5d 01       		.byte	0x1
 2684 0c5e 01       		.byte	0x1
 2685 0c5f 23       		.uleb128 0x23
 2686 0c60 50000000 		.4byte	.LASF135
 2687 0c64 0E       		.byte	0xe
 2688 0c65 9404     		.2byte	0x494
 2689 0c67 58040000 		.4byte	0x458
 2690 0c6b 01       		.byte	0x1
 2691 0c6c 01       		.byte	0x1
 2692 0c6d 00       		.byte	0x0
 2693              		.section	.debug_abbrev
 2694 0000 01       		.uleb128 0x1
 2695 0001 11       		.uleb128 0x11
 2696 0002 01       		.byte	0x1
 2697 0003 25       		.uleb128 0x25
 2698 0004 0E       		.uleb128 0xe
 2699 0005 13       		.uleb128 0x13
 2700 0006 0B       		.uleb128 0xb
 2701 0007 03       		.uleb128 0x3
 2702 0008 0E       		.uleb128 0xe
 2703 0009 1B       		.uleb128 0x1b
 2704 000a 0E       		.uleb128 0xe
 2705 000b 11       		.uleb128 0x11
 2706 000c 01       		.uleb128 0x1
 2707 000d 52       		.uleb128 0x52
 2708 000e 01       		.uleb128 0x1
 2709 000f 55       		.uleb128 0x55
 2710 0010 06       		.uleb128 0x6
 2711 0011 10       		.uleb128 0x10
 2712 0012 06       		.uleb128 0x6
 2713 0013 00       		.byte	0x0
 2714 0014 00       		.byte	0x0
 2715 0015 02       		.uleb128 0x2
 2716 0016 24       		.uleb128 0x24
 2717 0017 00       		.byte	0x0
 2718 0018 0B       		.uleb128 0xb
 2719 0019 0B       		.uleb128 0xb
 2720 001a 3E       		.uleb128 0x3e
 2721 001b 0B       		.uleb128 0xb
 2722 001c 03       		.uleb128 0x3
 2723 001d 08       		.uleb128 0x8
 2724 001e 00       		.byte	0x0
 2725 001f 00       		.byte	0x0
 2726 0020 03       		.uleb128 0x3
 2727 0021 16       		.uleb128 0x16
 2728 0022 00       		.byte	0x0
 2729 0023 03       		.uleb128 0x3
ARM GAS  /tmp/ccaOL8bX.s 			page 50


 2730 0024 0E       		.uleb128 0xe
 2731 0025 3A       		.uleb128 0x3a
 2732 0026 0B       		.uleb128 0xb
 2733 0027 3B       		.uleb128 0x3b
 2734 0028 0B       		.uleb128 0xb
 2735 0029 49       		.uleb128 0x49
 2736 002a 13       		.uleb128 0x13
 2737 002b 00       		.byte	0x0
 2738 002c 00       		.byte	0x0
 2739 002d 04       		.uleb128 0x4
 2740 002e 24       		.uleb128 0x24
 2741 002f 00       		.byte	0x0
 2742 0030 0B       		.uleb128 0xb
 2743 0031 0B       		.uleb128 0xb
 2744 0032 3E       		.uleb128 0x3e
 2745 0033 0B       		.uleb128 0xb
 2746 0034 03       		.uleb128 0x3
 2747 0035 0E       		.uleb128 0xe
 2748 0036 00       		.byte	0x0
 2749 0037 00       		.byte	0x0
 2750 0038 05       		.uleb128 0x5
 2751 0039 13       		.uleb128 0x13
 2752 003a 01       		.byte	0x1
 2753 003b 03       		.uleb128 0x3
 2754 003c 0E       		.uleb128 0xe
 2755 003d 0B       		.uleb128 0xb
 2756 003e 0B       		.uleb128 0xb
 2757 003f 3A       		.uleb128 0x3a
 2758 0040 0B       		.uleb128 0xb
 2759 0041 3B       		.uleb128 0x3b
 2760 0042 0B       		.uleb128 0xb
 2761 0043 01       		.uleb128 0x1
 2762 0044 13       		.uleb128 0x13
 2763 0045 00       		.byte	0x0
 2764 0046 00       		.byte	0x0
 2765 0047 06       		.uleb128 0x6
 2766 0048 0D       		.uleb128 0xd
 2767 0049 00       		.byte	0x0
 2768 004a 03       		.uleb128 0x3
 2769 004b 0E       		.uleb128 0xe
 2770 004c 3A       		.uleb128 0x3a
 2771 004d 0B       		.uleb128 0xb
 2772 004e 3B       		.uleb128 0x3b
 2773 004f 0B       		.uleb128 0xb
 2774 0050 49       		.uleb128 0x49
 2775 0051 13       		.uleb128 0x13
 2776 0052 38       		.uleb128 0x38
 2777 0053 0A       		.uleb128 0xa
 2778 0054 00       		.byte	0x0
 2779 0055 00       		.byte	0x0
 2780 0056 07       		.uleb128 0x7
 2781 0057 0D       		.uleb128 0xd
 2782 0058 00       		.byte	0x0
 2783 0059 03       		.uleb128 0x3
 2784 005a 08       		.uleb128 0x8
 2785 005b 3A       		.uleb128 0x3a
 2786 005c 0B       		.uleb128 0xb
ARM GAS  /tmp/ccaOL8bX.s 			page 51


 2787 005d 3B       		.uleb128 0x3b
 2788 005e 0B       		.uleb128 0xb
 2789 005f 49       		.uleb128 0x49
 2790 0060 13       		.uleb128 0x13
 2791 0061 38       		.uleb128 0x38
 2792 0062 0A       		.uleb128 0xa
 2793 0063 00       		.byte	0x0
 2794 0064 00       		.byte	0x0
 2795 0065 08       		.uleb128 0x8
 2796 0066 13       		.uleb128 0x13
 2797 0067 01       		.byte	0x1
 2798 0068 0B       		.uleb128 0xb
 2799 0069 0B       		.uleb128 0xb
 2800 006a 3A       		.uleb128 0x3a
 2801 006b 0B       		.uleb128 0xb
 2802 006c 3B       		.uleb128 0x3b
 2803 006d 0B       		.uleb128 0xb
 2804 006e 01       		.uleb128 0x1
 2805 006f 13       		.uleb128 0x13
 2806 0070 00       		.byte	0x0
 2807 0071 00       		.byte	0x0
 2808 0072 09       		.uleb128 0x9
 2809 0073 0F       		.uleb128 0xf
 2810 0074 00       		.byte	0x0
 2811 0075 0B       		.uleb128 0xb
 2812 0076 0B       		.uleb128 0xb
 2813 0077 49       		.uleb128 0x49
 2814 0078 13       		.uleb128 0x13
 2815 0079 00       		.byte	0x0
 2816 007a 00       		.byte	0x0
 2817 007b 0A       		.uleb128 0xa
 2818 007c 0F       		.uleb128 0xf
 2819 007d 00       		.byte	0x0
 2820 007e 0B       		.uleb128 0xb
 2821 007f 0B       		.uleb128 0xb
 2822 0080 00       		.byte	0x0
 2823 0081 00       		.byte	0x0
 2824 0082 0B       		.uleb128 0xb
 2825 0083 0D       		.uleb128 0xd
 2826 0084 00       		.byte	0x0
 2827 0085 03       		.uleb128 0x3
 2828 0086 08       		.uleb128 0x8
 2829 0087 3A       		.uleb128 0x3a
 2830 0088 0B       		.uleb128 0xb
 2831 0089 3B       		.uleb128 0x3b
 2832 008a 05       		.uleb128 0x5
 2833 008b 49       		.uleb128 0x49
 2834 008c 13       		.uleb128 0x13
 2835 008d 38       		.uleb128 0x38
 2836 008e 0A       		.uleb128 0xa
 2837 008f 00       		.byte	0x0
 2838 0090 00       		.byte	0x0
 2839 0091 0C       		.uleb128 0xc
 2840 0092 13       		.uleb128 0x13
 2841 0093 01       		.byte	0x1
 2842 0094 03       		.uleb128 0x3
 2843 0095 0E       		.uleb128 0xe
ARM GAS  /tmp/ccaOL8bX.s 			page 52


 2844 0096 0B       		.uleb128 0xb
 2845 0097 0B       		.uleb128 0xb
 2846 0098 3A       		.uleb128 0x3a
 2847 0099 0B       		.uleb128 0xb
 2848 009a 3B       		.uleb128 0x3b
 2849 009b 05       		.uleb128 0x5
 2850 009c 01       		.uleb128 0x1
 2851 009d 13       		.uleb128 0x13
 2852 009e 00       		.byte	0x0
 2853 009f 00       		.byte	0x0
 2854 00a0 0D       		.uleb128 0xd
 2855 00a1 35       		.uleb128 0x35
 2856 00a2 00       		.byte	0x0
 2857 00a3 49       		.uleb128 0x49
 2858 00a4 13       		.uleb128 0x13
 2859 00a5 00       		.byte	0x0
 2860 00a6 00       		.byte	0x0
 2861 00a7 0E       		.uleb128 0xe
 2862 00a8 17       		.uleb128 0x17
 2863 00a9 01       		.byte	0x1
 2864 00aa 0B       		.uleb128 0xb
 2865 00ab 0B       		.uleb128 0xb
 2866 00ac 3A       		.uleb128 0x3a
 2867 00ad 0B       		.uleb128 0xb
 2868 00ae 3B       		.uleb128 0x3b
 2869 00af 0B       		.uleb128 0xb
 2870 00b0 01       		.uleb128 0x1
 2871 00b1 13       		.uleb128 0x13
 2872 00b2 00       		.byte	0x0
 2873 00b3 00       		.byte	0x0
 2874 00b4 0F       		.uleb128 0xf
 2875 00b5 0D       		.uleb128 0xd
 2876 00b6 00       		.byte	0x0
 2877 00b7 03       		.uleb128 0x3
 2878 00b8 0E       		.uleb128 0xe
 2879 00b9 3A       		.uleb128 0x3a
 2880 00ba 0B       		.uleb128 0xb
 2881 00bb 3B       		.uleb128 0x3b
 2882 00bc 0B       		.uleb128 0xb
 2883 00bd 49       		.uleb128 0x49
 2884 00be 13       		.uleb128 0x13
 2885 00bf 00       		.byte	0x0
 2886 00c0 00       		.byte	0x0
 2887 00c1 10       		.uleb128 0x10
 2888 00c2 26       		.uleb128 0x26
 2889 00c3 00       		.byte	0x0
 2890 00c4 49       		.uleb128 0x49
 2891 00c5 13       		.uleb128 0x13
 2892 00c6 00       		.byte	0x0
 2893 00c7 00       		.byte	0x0
 2894 00c8 11       		.uleb128 0x11
 2895 00c9 13       		.uleb128 0x13
 2896 00ca 01       		.byte	0x1
 2897 00cb 0B       		.uleb128 0xb
 2898 00cc 0B       		.uleb128 0xb
 2899 00cd 3A       		.uleb128 0x3a
 2900 00ce 0B       		.uleb128 0xb
ARM GAS  /tmp/ccaOL8bX.s 			page 53


 2901 00cf 3B       		.uleb128 0x3b
 2902 00d0 05       		.uleb128 0x5
 2903 00d1 01       		.uleb128 0x1
 2904 00d2 13       		.uleb128 0x13
 2905 00d3 00       		.byte	0x0
 2906 00d4 00       		.byte	0x0
 2907 00d5 12       		.uleb128 0x12
 2908 00d6 0D       		.uleb128 0xd
 2909 00d7 00       		.byte	0x0
 2910 00d8 03       		.uleb128 0x3
 2911 00d9 0E       		.uleb128 0xe
 2912 00da 3A       		.uleb128 0x3a
 2913 00db 0B       		.uleb128 0xb
 2914 00dc 3B       		.uleb128 0x3b
 2915 00dd 05       		.uleb128 0x5
 2916 00de 49       		.uleb128 0x49
 2917 00df 13       		.uleb128 0x13
 2918 00e0 38       		.uleb128 0x38
 2919 00e1 0A       		.uleb128 0xa
 2920 00e2 00       		.byte	0x0
 2921 00e3 00       		.byte	0x0
 2922 00e4 13       		.uleb128 0x13
 2923 00e5 16       		.uleb128 0x16
 2924 00e6 00       		.byte	0x0
 2925 00e7 03       		.uleb128 0x3
 2926 00e8 0E       		.uleb128 0xe
 2927 00e9 3A       		.uleb128 0x3a
 2928 00ea 0B       		.uleb128 0xb
 2929 00eb 3B       		.uleb128 0x3b
 2930 00ec 05       		.uleb128 0x5
 2931 00ed 49       		.uleb128 0x49
 2932 00ee 13       		.uleb128 0x13
 2933 00ef 00       		.byte	0x0
 2934 00f0 00       		.byte	0x0
 2935 00f1 14       		.uleb128 0x14
 2936 00f2 04       		.uleb128 0x4
 2937 00f3 01       		.byte	0x1
 2938 00f4 0B       		.uleb128 0xb
 2939 00f5 0B       		.uleb128 0xb
 2940 00f6 3A       		.uleb128 0x3a
 2941 00f7 0B       		.uleb128 0xb
 2942 00f8 3B       		.uleb128 0x3b
 2943 00f9 0B       		.uleb128 0xb
 2944 00fa 01       		.uleb128 0x1
 2945 00fb 13       		.uleb128 0x13
 2946 00fc 00       		.byte	0x0
 2947 00fd 00       		.byte	0x0
 2948 00fe 15       		.uleb128 0x15
 2949 00ff 28       		.uleb128 0x28
 2950 0100 00       		.byte	0x0
 2951 0101 03       		.uleb128 0x3
 2952 0102 0E       		.uleb128 0xe
 2953 0103 1C       		.uleb128 0x1c
 2954 0104 0D       		.uleb128 0xd
 2955 0105 00       		.byte	0x0
 2956 0106 00       		.byte	0x0
 2957 0107 16       		.uleb128 0x16
ARM GAS  /tmp/ccaOL8bX.s 			page 54


 2958 0108 15       		.uleb128 0x15
 2959 0109 01       		.byte	0x1
 2960 010a 27       		.uleb128 0x27
 2961 010b 0C       		.uleb128 0xc
 2962 010c 01       		.uleb128 0x1
 2963 010d 13       		.uleb128 0x13
 2964 010e 00       		.byte	0x0
 2965 010f 00       		.byte	0x0
 2966 0110 17       		.uleb128 0x17
 2967 0111 05       		.uleb128 0x5
 2968 0112 00       		.byte	0x0
 2969 0113 49       		.uleb128 0x49
 2970 0114 13       		.uleb128 0x13
 2971 0115 00       		.byte	0x0
 2972 0116 00       		.byte	0x0
 2973 0117 18       		.uleb128 0x18
 2974 0118 2E       		.uleb128 0x2e
 2975 0119 00       		.byte	0x0
 2976 011a 3F       		.uleb128 0x3f
 2977 011b 0C       		.uleb128 0xc
 2978 011c 03       		.uleb128 0x3
 2979 011d 0E       		.uleb128 0xe
 2980 011e 3A       		.uleb128 0x3a
 2981 011f 0B       		.uleb128 0xb
 2982 0120 3B       		.uleb128 0x3b
 2983 0121 0B       		.uleb128 0xb
 2984 0122 27       		.uleb128 0x27
 2985 0123 0C       		.uleb128 0xc
 2986 0124 11       		.uleb128 0x11
 2987 0125 01       		.uleb128 0x1
 2988 0126 12       		.uleb128 0x12
 2989 0127 01       		.uleb128 0x1
 2990 0128 40       		.uleb128 0x40
 2991 0129 06       		.uleb128 0x6
 2992 012a 00       		.byte	0x0
 2993 012b 00       		.byte	0x0
 2994 012c 19       		.uleb128 0x19
 2995 012d 2E       		.uleb128 0x2e
 2996 012e 01       		.byte	0x1
 2997 012f 3F       		.uleb128 0x3f
 2998 0130 0C       		.uleb128 0xc
 2999 0131 03       		.uleb128 0x3
 3000 0132 0E       		.uleb128 0xe
 3001 0133 3A       		.uleb128 0x3a
 3002 0134 0B       		.uleb128 0xb
 3003 0135 3B       		.uleb128 0x3b
 3004 0136 0B       		.uleb128 0xb
 3005 0137 27       		.uleb128 0x27
 3006 0138 0C       		.uleb128 0xc
 3007 0139 11       		.uleb128 0x11
 3008 013a 01       		.uleb128 0x1
 3009 013b 12       		.uleb128 0x12
 3010 013c 01       		.uleb128 0x1
 3011 013d 40       		.uleb128 0x40
 3012 013e 06       		.uleb128 0x6
 3013 013f 01       		.uleb128 0x1
 3014 0140 13       		.uleb128 0x13
ARM GAS  /tmp/ccaOL8bX.s 			page 55


 3015 0141 00       		.byte	0x0
 3016 0142 00       		.byte	0x0
 3017 0143 1A       		.uleb128 0x1a
 3018 0144 05       		.uleb128 0x5
 3019 0145 00       		.byte	0x0
 3020 0146 03       		.uleb128 0x3
 3021 0147 0E       		.uleb128 0xe
 3022 0148 3A       		.uleb128 0x3a
 3023 0149 0B       		.uleb128 0xb
 3024 014a 3B       		.uleb128 0x3b
 3025 014b 0B       		.uleb128 0xb
 3026 014c 49       		.uleb128 0x49
 3027 014d 13       		.uleb128 0x13
 3028 014e 02       		.uleb128 0x2
 3029 014f 0A       		.uleb128 0xa
 3030 0150 00       		.byte	0x0
 3031 0151 00       		.byte	0x0
 3032 0152 1B       		.uleb128 0x1b
 3033 0153 0B       		.uleb128 0xb
 3034 0154 01       		.byte	0x1
 3035 0155 11       		.uleb128 0x11
 3036 0156 01       		.uleb128 0x1
 3037 0157 12       		.uleb128 0x12
 3038 0158 01       		.uleb128 0x1
 3039 0159 01       		.uleb128 0x1
 3040 015a 13       		.uleb128 0x13
 3041 015b 00       		.byte	0x0
 3042 015c 00       		.byte	0x0
 3043 015d 1C       		.uleb128 0x1c
 3044 015e 34       		.uleb128 0x34
 3045 015f 00       		.byte	0x0
 3046 0160 03       		.uleb128 0x3
 3047 0161 08       		.uleb128 0x8
 3048 0162 3A       		.uleb128 0x3a
 3049 0163 0B       		.uleb128 0xb
 3050 0164 3B       		.uleb128 0x3b
 3051 0165 0B       		.uleb128 0xb
 3052 0166 49       		.uleb128 0x49
 3053 0167 13       		.uleb128 0x13
 3054 0168 02       		.uleb128 0x2
 3055 0169 0A       		.uleb128 0xa
 3056 016a 00       		.byte	0x0
 3057 016b 00       		.byte	0x0
 3058 016c 1D       		.uleb128 0x1d
 3059 016d 0B       		.uleb128 0xb
 3060 016e 01       		.byte	0x1
 3061 016f 11       		.uleb128 0x11
 3062 0170 01       		.uleb128 0x1
 3063 0171 12       		.uleb128 0x12
 3064 0172 01       		.uleb128 0x1
 3065 0173 00       		.byte	0x0
 3066 0174 00       		.byte	0x0
 3067 0175 1E       		.uleb128 0x1e
 3068 0176 34       		.uleb128 0x34
 3069 0177 00       		.byte	0x0
 3070 0178 03       		.uleb128 0x3
 3071 0179 08       		.uleb128 0x8
ARM GAS  /tmp/ccaOL8bX.s 			page 56


 3072 017a 3A       		.uleb128 0x3a
 3073 017b 0B       		.uleb128 0xb
 3074 017c 3B       		.uleb128 0x3b
 3075 017d 05       		.uleb128 0x5
 3076 017e 49       		.uleb128 0x49
 3077 017f 13       		.uleb128 0x13
 3078 0180 02       		.uleb128 0x2
 3079 0181 0A       		.uleb128 0xa
 3080 0182 00       		.byte	0x0
 3081 0183 00       		.byte	0x0
 3082 0184 1F       		.uleb128 0x1f
 3083 0185 2E       		.uleb128 0x2e
 3084 0186 01       		.byte	0x1
 3085 0187 3F       		.uleb128 0x3f
 3086 0188 0C       		.uleb128 0xc
 3087 0189 03       		.uleb128 0x3
 3088 018a 0E       		.uleb128 0xe
 3089 018b 3A       		.uleb128 0x3a
 3090 018c 0B       		.uleb128 0xb
 3091 018d 3B       		.uleb128 0x3b
 3092 018e 05       		.uleb128 0x5
 3093 018f 27       		.uleb128 0x27
 3094 0190 0C       		.uleb128 0xc
 3095 0191 49       		.uleb128 0x49
 3096 0192 13       		.uleb128 0x13
 3097 0193 11       		.uleb128 0x11
 3098 0194 01       		.uleb128 0x1
 3099 0195 12       		.uleb128 0x12
 3100 0196 01       		.uleb128 0x1
 3101 0197 40       		.uleb128 0x40
 3102 0198 06       		.uleb128 0x6
 3103 0199 01       		.uleb128 0x1
 3104 019a 13       		.uleb128 0x13
 3105 019b 00       		.byte	0x0
 3106 019c 00       		.byte	0x0
 3107 019d 20       		.uleb128 0x20
 3108 019e 05       		.uleb128 0x5
 3109 019f 00       		.byte	0x0
 3110 01a0 03       		.uleb128 0x3
 3111 01a1 0E       		.uleb128 0xe
 3112 01a2 3A       		.uleb128 0x3a
 3113 01a3 0B       		.uleb128 0xb
 3114 01a4 3B       		.uleb128 0x3b
 3115 01a5 05       		.uleb128 0x5
 3116 01a6 49       		.uleb128 0x49
 3117 01a7 13       		.uleb128 0x13
 3118 01a8 02       		.uleb128 0x2
 3119 01a9 0A       		.uleb128 0xa
 3120 01aa 00       		.byte	0x0
 3121 01ab 00       		.byte	0x0
 3122 01ac 21       		.uleb128 0x21
 3123 01ad 2E       		.uleb128 0x2e
 3124 01ae 01       		.byte	0x1
 3125 01af 3F       		.uleb128 0x3f
 3126 01b0 0C       		.uleb128 0xc
 3127 01b1 03       		.uleb128 0x3
 3128 01b2 0E       		.uleb128 0xe
ARM GAS  /tmp/ccaOL8bX.s 			page 57


 3129 01b3 3A       		.uleb128 0x3a
 3130 01b4 0B       		.uleb128 0xb
 3131 01b5 3B       		.uleb128 0x3b
 3132 01b6 05       		.uleb128 0x5
 3133 01b7 27       		.uleb128 0x27
 3134 01b8 0C       		.uleb128 0xc
 3135 01b9 11       		.uleb128 0x11
 3136 01ba 01       		.uleb128 0x1
 3137 01bb 12       		.uleb128 0x12
 3138 01bc 01       		.uleb128 0x1
 3139 01bd 40       		.uleb128 0x40
 3140 01be 06       		.uleb128 0x6
 3141 01bf 01       		.uleb128 0x1
 3142 01c0 13       		.uleb128 0x13
 3143 01c1 00       		.byte	0x0
 3144 01c2 00       		.byte	0x0
 3145 01c3 22       		.uleb128 0x22
 3146 01c4 34       		.uleb128 0x34
 3147 01c5 00       		.byte	0x0
 3148 01c6 03       		.uleb128 0x3
 3149 01c7 0E       		.uleb128 0xe
 3150 01c8 3A       		.uleb128 0x3a
 3151 01c9 0B       		.uleb128 0xb
 3152 01ca 3B       		.uleb128 0x3b
 3153 01cb 0B       		.uleb128 0xb
 3154 01cc 49       		.uleb128 0x49
 3155 01cd 13       		.uleb128 0x13
 3156 01ce 3F       		.uleb128 0x3f
 3157 01cf 0C       		.uleb128 0xc
 3158 01d0 3C       		.uleb128 0x3c
 3159 01d1 0C       		.uleb128 0xc
 3160 01d2 00       		.byte	0x0
 3161 01d3 00       		.byte	0x0
 3162 01d4 23       		.uleb128 0x23
 3163 01d5 34       		.uleb128 0x34
 3164 01d6 00       		.byte	0x0
 3165 01d7 03       		.uleb128 0x3
 3166 01d8 0E       		.uleb128 0xe
 3167 01d9 3A       		.uleb128 0x3a
 3168 01da 0B       		.uleb128 0xb
 3169 01db 3B       		.uleb128 0x3b
 3170 01dc 05       		.uleb128 0x5
 3171 01dd 49       		.uleb128 0x49
 3172 01de 13       		.uleb128 0x13
 3173 01df 3F       		.uleb128 0x3f
 3174 01e0 0C       		.uleb128 0xc
 3175 01e1 3C       		.uleb128 0x3c
 3176 01e2 0C       		.uleb128 0xc
 3177 01e3 00       		.byte	0x0
 3178 01e4 00       		.byte	0x0
 3179 01e5 00       		.byte	0x0
 3180              		.section	.debug_pubnames,"",%progbits
 3181 0000 D4000000 		.4byte	0xd4
 3182 0004 0200     		.2byte	0x2
 3183 0006 00000000 		.4byte	.Ldebug_info0
 3184 000a 6E0C0000 		.4byte	0xc6e
 3185 000e BB080000 		.4byte	0x8bb
ARM GAS  /tmp/ccaOL8bX.s 			page 58


 3186 0012 61646349 		.ascii	"adcInit\000"
 3186      6E697400 
 3187 001a D0080000 		.4byte	0x8d0
 3188 001e 6164634F 		.ascii	"adcObjectInit\000"
 3188      626A6563 
 3188      74496E69 
 3188      7400
 3189 002c F8080000 		.4byte	0x8f8
 3190 0030 61646353 		.ascii	"adcStart\000"
 3190      74617274 
 3190      00
 3191 0039 60090000 		.4byte	0x960
 3192 003d 61646353 		.ascii	"adcStop\000"
 3192      746F7000 
 3193 0045 BA090000 		.4byte	0x9ba
 3194 0049 61646353 		.ascii	"adcStartConversion\000"
 3194      74617274 
 3194      436F6E76 
 3194      65727369 
 3194      6F6E00
 3195 005c 3E0A0000 		.4byte	0xa3e
 3196 0060 61646353 		.ascii	"adcStartConversionI\000"
 3196      74617274 
 3196      436F6E76 
 3196      65727369 
 3196      6F6E4900 
 3197 0074 900A0000 		.4byte	0xa90
 3198 0078 61646353 		.ascii	"adcStopConversion\000"
 3198      746F7043 
 3198      6F6E7665 
 3198      7273696F 
 3198      6E00
 3199 008a 050B0000 		.4byte	0xb05
 3200 008e 61646353 		.ascii	"adcStopConversionI\000"
 3200      746F7043 
 3200      6F6E7665 
 3200      7273696F 
 3200      6E4900
 3201 00a1 450B0000 		.4byte	0xb45
 3202 00a5 61646343 		.ascii	"adcConvert\000"
 3202      6F6E7665 
 3202      727400
 3203 00b0 E30B0000 		.4byte	0xbe3
 3204 00b4 61646341 		.ascii	"adcAcquireBus\000"
 3204      63717569 
 3204      72654275 
 3204      7300
 3205 00c2 0D0C0000 		.4byte	0xc0d
 3206 00c6 61646352 		.ascii	"adcReleaseBus\000"
 3206      656C6561 
 3206      73654275 
 3206      7300
 3207 00d4 00000000 		.4byte	0x0
 3208              		.section	.debug_pubtypes,"",%progbits
 3209 0000 34020000 		.4byte	0x234
 3210 0004 0200     		.2byte	0x2
 3211 0006 00000000 		.4byte	.Ldebug_info0
ARM GAS  /tmp/ccaOL8bX.s 			page 59


 3212 000a 6E0C0000 		.4byte	0xc6e
 3213 000e 30000000 		.4byte	0x30
 3214 0012 73697A65 		.ascii	"size_t\000"
 3214      5F7400
 3215 0019 49000000 		.4byte	0x49
 3216 001d 75696E74 		.ascii	"uint8_t\000"
 3216      385F7400 
 3217 0025 62000000 		.4byte	0x62
 3218 0029 75696E74 		.ascii	"uint16_t\000"
 3218      31365F74 
 3218      00
 3219 0032 74000000 		.4byte	0x74
 3220 0036 696E7433 		.ascii	"int32_t\000"
 3220      325F7400 
 3221 003e 86000000 		.4byte	0x86
 3222 0042 75696E74 		.ascii	"uint32_t\000"
 3222      33325F74 
 3222      00
 3223 004b 9F000000 		.4byte	0x9f
 3224 004f 75696E74 		.ascii	"uint64_t\000"
 3224      36345F74 
 3224      00
 3225 0058 B1000000 		.4byte	0xb1
 3226 005c 626F6F6C 		.ascii	"bool_t\000"
 3226      5F7400
 3227 0063 BC000000 		.4byte	0xbc
 3228 0067 746D6F64 		.ascii	"tmode_t\000"
 3228      655F7400 
 3229 006f C7000000 		.4byte	0xc7
 3230 0073 74737461 		.ascii	"tstate_t\000"
 3230      74655F74 
 3230      00
 3231 007c D2000000 		.4byte	0xd2
 3232 0080 74707269 		.ascii	"tprio_t\000"
 3232      6F5F7400 
 3233 0088 DD000000 		.4byte	0xdd
 3234 008c 6D73675F 		.ascii	"msg_t\000"
 3234      7400
 3235 0092 E8000000 		.4byte	0xe8
 3236 0096 6576656E 		.ascii	"eventmask_t\000"
 3236      746D6173 
 3236      6B5F7400 
 3237 00a2 F3000000 		.4byte	0xf3
 3238 00a6 73797374 		.ascii	"systime_t\000"
 3238      696D655F 
 3238      7400
 3239 00b0 FE000000 		.4byte	0xfe
 3240 00b4 636E745F 		.ascii	"cnt_t\000"
 3240      7400
 3241 00ba 09010000 		.4byte	0x109
 3242 00be 54687265 		.ascii	"Thread\000"
 3242      616400
 3243 00c5 48020000 		.4byte	0x248
 3244 00c9 54687265 		.ascii	"ThreadsQueue\000"
 3244      61647351 
 3244      75657565 
 3244      00
ARM GAS  /tmp/ccaOL8bX.s 			page 60


 3245 00d6 6A020000 		.4byte	0x26a
 3246 00da 54687265 		.ascii	"ThreadsList\000"
 3246      6164734C 
 3246      69737400 
 3247 00e6 75020000 		.4byte	0x275
 3248 00ea 72656761 		.ascii	"regarm_t\000"
 3248      726D5F74 
 3248      00
 3249 00f3 82020000 		.4byte	0x282
 3250 00f7 73746B61 		.ascii	"stkalign_t\000"
 3250      6C69676E 
 3250      5F7400
 3251 0102 8D020000 		.4byte	0x28d
 3252 0106 696E7463 		.ascii	"intctx\000"
 3252      747800
 3253 010d 1A030000 		.4byte	0x31a
 3254 0111 636F6E74 		.ascii	"context\000"
 3254      65787400 
 3255 0119 B2030000 		.4byte	0x3b2
 3256 011d 52656164 		.ascii	"ReadyList\000"
 3256      794C6973 
 3256      7400
 3257 0127 BD030000 		.4byte	0x3bd
 3258 012b 4D757465 		.ascii	"Mutex\000"
 3258      7800
 3259 0131 FA030000 		.4byte	0x3fa
 3260 0135 4D757465 		.ascii	"Mutex\000"
 3260      7800
 3261 013b 14010000 		.4byte	0x114
 3262 013f 54687265 		.ascii	"Thread\000"
 3262      616400
 3263 0146 91050000 		.4byte	0x591
 3264 014a 4144435F 		.ascii	"ADC_TypeDef\000"
 3264      54797065 
 3264      44656600 
 3265 0156 E3050000 		.4byte	0x5e3
 3266 015a 444D415F 		.ascii	"DMA_Channel_TypeDef\000"
 3266      4368616E 
 3266      6E656C5F 
 3266      54797065 
 3266      44656600 
 3267 016e 4A060000 		.4byte	0x64a
 3268 0172 73746D33 		.ascii	"stm32_dma_stream_t\000"
 3268      325F646D 
 3268      615F7374 
 3268      7265616D 
 3268      5F7400
 3269 0185 82060000 		.4byte	0x682
 3270 0189 61646373 		.ascii	"adcstate_t\000"
 3270      74617465 
 3270      5F7400
 3271 0194 8D060000 		.4byte	0x68d
 3272 0198 61646373 		.ascii	"adcsample_t\000"
 3272      616D706C 
 3272      655F7400 
 3273 01a4 98060000 		.4byte	0x698
 3274 01a8 6164635F 		.ascii	"adc_channels_num_t\000"
ARM GAS  /tmp/ccaOL8bX.s 			page 61


 3274      6368616E 
 3274      6E656C73 
 3274      5F6E756D 
 3274      5F7400
 3275 01bb B2060000 		.4byte	0x6b2
 3276 01bf 61646365 		.ascii	"adcerror_t\000"
 3276      72726F72 
 3276      5F7400
 3277 01ca BD060000 		.4byte	0x6bd
 3278 01ce 41444344 		.ascii	"ADCDriver\000"
 3278      72697665 
 3278      7200
 3279 01d8 6C070000 		.4byte	0x76c
 3280 01dc 61646363 		.ascii	"adccallback_t\000"
 3280      616C6C62 
 3280      61636B5F 
 3280      7400
 3281 01ea 9F070000 		.4byte	0x79f
 3282 01ee 61646365 		.ascii	"adcerrorcallback_t\000"
 3282      72726F72 
 3282      63616C6C 
 3282      6261636B 
 3282      5F7400
 3283 0201 64080000 		.4byte	0x864
 3284 0205 41444343 		.ascii	"ADCConversionGroup\000"
 3284      6F6E7665 
 3284      7273696F 
 3284      6E47726F 
 3284      757000
 3285 0218 88080000 		.4byte	0x888
 3286 021c 41444343 		.ascii	"ADCConfig\000"
 3286      6F6E6669 
 3286      6700
 3287 0226 C8060000 		.4byte	0x6c8
 3288 022a 41444344 		.ascii	"ADCDriver\000"
 3288      72697665 
 3288      7200
 3289 0234 00000000 		.4byte	0x0
 3290              		.section	.debug_aranges,"",%progbits
 3291 0000 6C000000 		.4byte	0x6c
 3292 0004 0200     		.2byte	0x2
 3293 0006 00000000 		.4byte	.Ldebug_info0
 3294 000a 04       		.byte	0x4
 3295 000b 00       		.byte	0x0
 3296 000c 0000     		.2byte	0x0
 3297 000e 0000     		.2byte	0x0
 3298 0010 00000000 		.4byte	.LFB62
 3299 0014 08000000 		.4byte	.LFE62-.LFB62
 3300 0018 00000000 		.4byte	.LFB63
 3301 001c 46000000 		.4byte	.LFE63-.LFB63
 3302 0020 00000000 		.4byte	.LFB64
 3303 0024 64000000 		.4byte	.LFE64-.LFB64
 3304 0028 00000000 		.4byte	.LFB65
 3305 002c 5C000000 		.4byte	.LFE65-.LFB65
 3306 0030 00000000 		.4byte	.LFB66
 3307 0034 34000000 		.4byte	.LFE66-.LFB66
 3308 0038 00000000 		.4byte	.LFB67
ARM GAS  /tmp/ccaOL8bX.s 			page 62


 3309 003c 84000000 		.4byte	.LFE67-.LFB67
 3310 0040 00000000 		.4byte	.LFB68
 3311 0044 8C000000 		.4byte	.LFE68-.LFB68
 3312 0048 00000000 		.4byte	.LFB69
 3313 004c 84000000 		.4byte	.LFE69-.LFB69
 3314 0050 00000000 		.4byte	.LFB70
 3315 0054 68000000 		.4byte	.LFE70-.LFB70
 3316 0058 00000000 		.4byte	.LFB71
 3317 005c 28000000 		.4byte	.LFE71-.LFB71
 3318 0060 00000000 		.4byte	.LFB72
 3319 0064 20000000 		.4byte	.LFE72-.LFB72
 3320 0068 00000000 		.4byte	0x0
 3321 006c 00000000 		.4byte	0x0
 3322              		.section	.debug_ranges,"",%progbits
 3323              	.Ldebug_ranges0:
 3324 0000 00000000 		.4byte	.LFB62
 3325 0004 08000000 		.4byte	.LFE62
 3326 0008 00000000 		.4byte	.LFB63
 3327 000c 46000000 		.4byte	.LFE63
 3328 0010 00000000 		.4byte	.LFB64
 3329 0014 64000000 		.4byte	.LFE64
 3330 0018 00000000 		.4byte	.LFB65
 3331 001c 5C000000 		.4byte	.LFE65
 3332 0020 00000000 		.4byte	.LFB66
 3333 0024 34000000 		.4byte	.LFE66
 3334 0028 00000000 		.4byte	.LFB67
 3335 002c 84000000 		.4byte	.LFE67
 3336 0030 00000000 		.4byte	.LFB68
 3337 0034 8C000000 		.4byte	.LFE68
 3338 0038 00000000 		.4byte	.LFB69
 3339 003c 84000000 		.4byte	.LFE69
 3340 0040 00000000 		.4byte	.LFB70
 3341 0044 68000000 		.4byte	.LFE70
 3342 0048 00000000 		.4byte	.LFB71
 3343 004c 28000000 		.4byte	.LFE71
 3344 0050 00000000 		.4byte	.LFB72
 3345 0054 20000000 		.4byte	.LFE72
 3346 0058 00000000 		.4byte	0x0
 3347 005c 00000000 		.4byte	0x0
 3348              		.section	.debug_str,"MS",%progbits,1
 3349              	.LASF2:
 3350 0000 73697A65 		.ascii	"size_t\000"
 3350      5F7400
 3351              	.LASF59:
 3352 0007 7264796D 		.ascii	"rdymsg\000"
 3352      736700
 3353              	.LASF109:
 3354 000e 646D616D 		.ascii	"dmamode\000"
 3354      6F646500 
 3355              	.LASF95:
 3356 0016 61646373 		.ascii	"adcstate_t\000"
 3356      74617465 
 3356      5F7400
 3357              	.LASF127:
 3358 0021 61646353 		.ascii	"adcStop\000"
 3358      746F7000 
 3359              	.LASF14:
ARM GAS  /tmp/ccaOL8bX.s 			page 63


 3360 0029 6C6F6E67 		.ascii	"long long unsigned int\000"
 3360      206C6F6E 
 3360      6720756E 
 3360      7369676E 
 3360      65642069 
 3361              	.LASF60:
 3362 0040 65786974 		.ascii	"exitcode\000"
 3362      636F6465 
 3362      00
 3363              	.LASF87:
 3364 0049 76656374 		.ascii	"vector\000"
 3364      6F7200
 3365              	.LASF135:
 3366 0050 49544D5F 		.ascii	"ITM_RxBuffer\000"
 3366      52784275 
 3366      66666572 
 3366      00
 3367              	.LASF26:
 3368 005d 705F7072 		.ascii	"p_prio\000"
 3368      696F00
 3369              	.LASF73:
 3370 0064 4A535152 		.ascii	"JSQR\000"
 3370      00
 3371              	.LASF12:
 3372 0069 6C6F6E67 		.ascii	"long long int\000"
 3372      206C6F6E 
 3372      6720696E 
 3372      7400
 3373              	.LASF1:
 3374 0077 7369676E 		.ascii	"signed char\000"
 3374      65642063 
 3374      68617200 
 3375              	.LASF15:
 3376 0083 626F6F6C 		.ascii	"bool_t\000"
 3376      5F7400
 3377              	.LASF56:
 3378 008a 6D5F7175 		.ascii	"m_queue\000"
 3378      65756500 
 3379              	.LASF99:
 3380 0092 61646365 		.ascii	"adcerror_t\000"
 3380      72726F72 
 3380      5F7400
 3381              	.LASF108:
 3382 009d 646D6173 		.ascii	"dmastp\000"
 3382      747000
 3383              	.LASF101:
 3384 00a4 73746174 		.ascii	"state\000"
 3384      6500
 3385              	.LASF112:
 3386 00aa 63697263 		.ascii	"circular\000"
 3386      756C6172 
 3386      00
 3387              	.LASF9:
 3388 00b3 6C6F6E67 		.ascii	"long int\000"
 3388      20696E74 
 3388      00
 3389              	.LASF98:
ARM GAS  /tmp/ccaOL8bX.s 			page 64


 3390 00bc 4144435F 		.ascii	"ADC_ERR_DMAFAILURE\000"
 3390      4552525F 
 3390      444D4146 
 3390      41494C55 
 3390      524500
 3391              	.LASF111:
 3392 00cf 61646365 		.ascii	"adcerrorcallback_t\000"
 3392      72726F72 
 3392      63616C6C 
 3392      6261636B 
 3392      5F7400
 3393              	.LASF17:
 3394 00e2 74737461 		.ascii	"tstate_t\000"
 3394      74655F74 
 3394      00
 3395              	.LASF106:
 3396 00eb 74687265 		.ascii	"thread\000"
 3396      616400
 3397              	.LASF6:
 3398 00f2 75696E74 		.ascii	"uint16_t\000"
 3398      31365F74 
 3398      00
 3399              	.LASF34:
 3400 00fb 705F7469 		.ascii	"p_time\000"
 3400      6D6500
 3401              	.LASF78:
 3402 0102 4144435F 		.ascii	"ADC_TypeDef\000"
 3402      54797065 
 3402      44656600 
 3403              	.LASF28:
 3404 010e 705F6E65 		.ascii	"p_newer\000"
 3404      77657200 
 3405              	.LASF114:
 3406 0116 656E645F 		.ascii	"end_cb\000"
 3406      636200
 3407              	.LASF110:
 3408 011d 61646363 		.ascii	"adccallback_t\000"
 3408      616C6C62 
 3408      61636B5F 
 3408      7400
 3409              	.LASF140:
 3410 012b 61646343 		.ascii	"adcConvert\000"
 3410      6F6E7665 
 3410      727400
 3411              	.LASF96:
 3412 0136 61646373 		.ascii	"adcsample_t\000"
 3412      616D706C 
 3412      655F7400 
 3413              	.LASF50:
 3414 0142 725F6E65 		.ascii	"r_newer\000"
 3414      77657200 
 3415              	.LASF123:
 3416 014a 41444343 		.ascii	"ADCConfig\000"
 3416      6F6E6669 
 3416      6700
 3417              	.LASF43:
 3418 0154 72656761 		.ascii	"regarm_t\000"
ARM GAS  /tmp/ccaOL8bX.s 			page 65


 3418      726D5F74 
 3418      00
 3419              	.LASF86:
 3420 015d 73656C66 		.ascii	"selfindex\000"
 3420      696E6465 
 3420      7800
 3421              	.LASF122:
 3422 0167 64756D6D 		.ascii	"dummy\000"
 3422      7900
 3423              	.LASF23:
 3424 016d 54687265 		.ascii	"Thread\000"
 3424      616400
 3425              	.LASF89:
 3426 0174 4144435F 		.ascii	"ADC_UNINIT\000"
 3426      554E494E 
 3426      495400
 3427              	.LASF92:
 3428 017f 4144435F 		.ascii	"ADC_ACTIVE\000"
 3428      41435449 
 3428      564500
 3429              	.LASF22:
 3430 018a 636E745F 		.ascii	"cnt_t\000"
 3430      7400
 3431              	.LASF31:
 3432 0190 705F7374 		.ascii	"p_stklimit\000"
 3432      6B6C696D 
 3432      697400
 3433              	.LASF0:
 3434 019b 756E7369 		.ascii	"unsigned int\000"
 3434      676E6564 
 3434      20696E74 
 3434      00
 3435              	.LASF124:
 3436 01a8 6164634F 		.ascii	"adcObjectInit\000"
 3436      626A6563 
 3436      74496E69 
 3436      7400
 3437              	.LASF80:
 3438 01b6 43504152 		.ascii	"CPAR\000"
 3438      00
 3439              	.LASF36:
 3440 01bb 705F6D73 		.ascii	"p_msgqueue\000"
 3440      67717565 
 3440      756500
 3441              	.LASF100:
 3442 01c6 41444344 		.ascii	"ADCDriver\000"
 3442      72697665 
 3442      7200
 3443              	.LASF126:
 3444 01d0 61646370 		.ascii	"adcp\000"
 3444      00
 3445              	.LASF82:
 3446 01d5 444D415F 		.ascii	"DMA_Channel_TypeDef\000"
 3446      4368616E 
 3446      6E656C5F 
 3446      54797065 
 3446      44656600 
ARM GAS  /tmp/ccaOL8bX.s 			page 66


 3447              	.LASF85:
 3448 01e9 69736869 		.ascii	"ishift\000"
 3448      667400
 3449              	.LASF7:
 3450 01f0 73686F72 		.ascii	"short unsigned int\000"
 3450      7420756E 
 3450      7369676E 
 3450      65642069 
 3450      6E7400
 3451              	.LASF91:
 3452 0203 4144435F 		.ascii	"ADC_READY\000"
 3452      52454144 
 3452      5900
 3453              	.LASF104:
 3454 020d 64657074 		.ascii	"depth\000"
 3454      6800
 3455              	.LASF19:
 3456 0213 6D73675F 		.ascii	"msg_t\000"
 3456      7400
 3457              	.LASF136:
 3458 0219 474E5520 		.ascii	"GNU C 4.5.2\000"
 3458      4320342E 
 3458      352E3200 
 3459              	.LASF16:
 3460 0225 746D6F64 		.ascii	"tmode_t\000"
 3460      655F7400 
 3461              	.LASF113:
 3462 022d 6E756D5F 		.ascii	"num_channels\000"
 3462      6368616E 
 3462      6E656C73 
 3462      00
 3463              	.LASF42:
 3464 023a 54687265 		.ascii	"ThreadsList\000"
 3464      6164734C 
 3464      69737400 
 3465              	.LASF20:
 3466 0246 6576656E 		.ascii	"eventmask_t\000"
 3466      746D6173 
 3466      6B5F7400 
 3467              	.LASF138:
 3468 0252 2F686F6D 		.ascii	"/home/z80/projects/voltamper.git/firmware/voltamp\000"
 3468      652F7A38 
 3468      302F7072 
 3468      6F6A6563 
 3468      74732F76 
 3469              	.LASF139:
 3470 0284 61646349 		.ascii	"adcInit\000"
 3470      6E697400 
 3471              	.LASF81:
 3472 028c 434D4152 		.ascii	"CMAR\000"
 3472      00
 3473              	.LASF44:
 3474 0291 73746B61 		.ascii	"stkalign_t\000"
 3474      6C69676E 
 3474      5F7400
 3475              	.LASF105:
 3476 029c 67727070 		.ascii	"grpp\000"
ARM GAS  /tmp/ccaOL8bX.s 			page 67


 3476      00
 3477              	.LASF66:
 3478 02a1 4A4F4652 		.ascii	"JOFR1\000"
 3478      3100
 3479              	.LASF67:
 3480 02a7 4A4F4652 		.ascii	"JOFR2\000"
 3480      3200
 3481              	.LASF68:
 3482 02ad 4A4F4652 		.ascii	"JOFR3\000"
 3482      3300
 3483              	.LASF103:
 3484 02b3 73616D70 		.ascii	"samples\000"
 3484      6C657300 
 3485              	.LASF55:
 3486 02bb 4D757465 		.ascii	"Mutex\000"
 3486      7800
 3487              	.LASF47:
 3488 02c1 725F7175 		.ascii	"r_queue\000"
 3488      65756500 
 3489              	.LASF90:
 3490 02c9 4144435F 		.ascii	"ADC_STOP\000"
 3490      53544F50 
 3490      00
 3491              	.LASF13:
 3492 02d2 75696E74 		.ascii	"uint64_t\000"
 3492      36345F74 
 3492      00
 3493              	.LASF29:
 3494 02db 705F6F6C 		.ascii	"p_older\000"
 3494      64657200 
 3495              	.LASF49:
 3496 02e3 725F6374 		.ascii	"r_ctx\000"
 3496      7800
 3497              	.LASF41:
 3498 02e9 54687265 		.ascii	"ThreadsQueue\000"
 3498      61647351 
 3498      75657565 
 3498      00
 3499              	.LASF64:
 3500 02f6 534D5052 		.ascii	"SMPR1\000"
 3500      3100
 3501              	.LASF65:
 3502 02fc 534D5052 		.ascii	"SMPR2\000"
 3502      3200
 3503              	.LASF58:
 3504 0302 6D5F6E65 		.ascii	"m_next\000"
 3504      787400
 3505              	.LASF53:
 3506 0309 725F6375 		.ascii	"r_current\000"
 3506      7272656E 
 3506      7400
 3507              	.LASF51:
 3508 0313 725F6F6C 		.ascii	"r_older\000"
 3508      64657200 
 3509              	.LASF70:
 3510 031b 53515231 		.ascii	"SQR1\000"
 3510      00
ARM GAS  /tmp/ccaOL8bX.s 			page 68


 3511              	.LASF71:
 3512 0320 53515232 		.ascii	"SQR2\000"
 3512      00
 3513              	.LASF72:
 3514 0325 53515233 		.ascii	"SQR3\000"
 3514      00
 3515              	.LASF129:
 3516 032a 61646353 		.ascii	"adcStartConversionI\000"
 3516      74617274 
 3516      436F6E76 
 3516      65727369 
 3516      6F6E4900 
 3517              	.LASF25:
 3518 033e 705F7072 		.ascii	"p_prev\000"
 3518      657600
 3519              	.LASF88:
 3520 0345 73746D33 		.ascii	"stm32_dma_stream_t\000"
 3520      325F646D 
 3520      615F7374 
 3520      7265616D 
 3520      5F7400
 3521              	.LASF18:
 3522 0358 74707269 		.ascii	"tprio_t\000"
 3522      6F5F7400 
 3523              	.LASF107:
 3524 0360 6D757465 		.ascii	"mutex\000"
 3524      7800
 3525              	.LASF8:
 3526 0366 696E7433 		.ascii	"int32_t\000"
 3526      325F7400 
 3527              	.LASF4:
 3528 036e 756E7369 		.ascii	"unsigned char\000"
 3528      676E6564 
 3528      20636861 
 3528      7200
 3529              	.LASF137:
 3530 037c 2E2E2F63 		.ascii	"../chibios_2.4.x/os/hal/src/adc.c\000"
 3530      68696269 
 3530      6F735F32 
 3530      2E342E78 
 3530      2F6F732F 
 3531              	.LASF39:
 3532 039e 705F6D74 		.ascii	"p_mtxlist\000"
 3532      786C6973 
 3532      7400
 3533              	.LASF5:
 3534 03a8 73686F72 		.ascii	"short int\000"
 3534      7420696E 
 3534      7400
 3535              	.LASF32:
 3536 03b2 705F7374 		.ascii	"p_state\000"
 3536      61746500 
 3537              	.LASF115:
 3538 03ba 6572726F 		.ascii	"error_cb\000"
 3538      725F6362 
 3538      00
 3539              	.LASF48:
ARM GAS  /tmp/ccaOL8bX.s 			page 69


 3540 03c3 725F7072 		.ascii	"r_prio\000"
 3540      696F00
 3541              	.LASF62:
 3542 03ca 65776D61 		.ascii	"ewmask\000"
 3542      736B00
 3543              	.LASF24:
 3544 03d1 705F6E65 		.ascii	"p_next\000"
 3544      787400
 3545              	.LASF33:
 3546 03d8 705F666C 		.ascii	"p_flags\000"
 3546      61677300 
 3547              	.LASF69:
 3548 03e0 4A4F4652 		.ascii	"JOFR4\000"
 3548      3400
 3549              	.LASF83:
 3550 03e6 6368616E 		.ascii	"channel\000"
 3550      6E656C00 
 3551              	.LASF38:
 3552 03ee 705F6570 		.ascii	"p_epending\000"
 3552      656E6469 
 3552      6E6700
 3553              	.LASF84:
 3554 03f9 69666372 		.ascii	"ifcr\000"
 3554      00
 3555              	.LASF10:
 3556 03fe 75696E74 		.ascii	"uint32_t\000"
 3556      33325F74 
 3556      00
 3557              	.LASF133:
 3558 0407 61646352 		.ascii	"adcReleaseBus\000"
 3558      656C6561 
 3558      73654275 
 3558      7300
 3559              	.LASF116:
 3560 0415 736D7072 		.ascii	"smpr1\000"
 3560      3100
 3561              	.LASF11:
 3562 041b 6C6F6E67 		.ascii	"long unsigned int\000"
 3562      20756E73 
 3562      69676E65 
 3562      6420696E 
 3562      7400
 3563              	.LASF63:
 3564 042d 63686172 		.ascii	"char\000"
 3564      00
 3565              	.LASF102:
 3566 0432 636F6E66 		.ascii	"config\000"
 3566      696700
 3567              	.LASF118:
 3568 0439 73717231 		.ascii	"sqr1\000"
 3568      00
 3569              	.LASF119:
 3570 043e 73717232 		.ascii	"sqr2\000"
 3570      00
 3571              	.LASF120:
 3572 0443 73717233 		.ascii	"sqr3\000"
 3572      00
ARM GAS  /tmp/ccaOL8bX.s 			page 70


 3573              	.LASF21:
 3574 0448 73797374 		.ascii	"systime_t\000"
 3574      696D655F 
 3574      7400
 3575              	.LASF40:
 3576 0452 705F7265 		.ascii	"p_realprio\000"
 3576      616C7072 
 3576      696F00
 3577              	.LASF46:
 3578 045d 636F6E74 		.ascii	"context\000"
 3578      65787400 
 3579              	.LASF128:
 3580 0465 61646353 		.ascii	"adcStartConversion\000"
 3580      74617274 
 3580      436F6E76 
 3580      65727369 
 3580      6F6E00
 3581              	.LASF45:
 3582 0478 696E7463 		.ascii	"intctx\000"
 3582      747800
 3583              	.LASF94:
 3584 047f 4144435F 		.ascii	"ADC_ERROR\000"
 3584      4552524F 
 3584      5200
 3585              	.LASF125:
 3586 0489 61646353 		.ascii	"adcStart\000"
 3586      74617274 
 3586      00
 3587              	.LASF54:
 3588 0492 52656164 		.ascii	"ReadyList\000"
 3588      794C6973 
 3588      7400
 3589              	.LASF79:
 3590 049c 434E4454 		.ascii	"CNDTR\000"
 3590      5200
 3591              	.LASF117:
 3592 04a2 736D7072 		.ascii	"smpr2\000"
 3592      3200
 3593              	.LASF134:
 3594 04a8 726C6973 		.ascii	"rlist\000"
 3594      7400
 3595              	.LASF3:
 3596 04ae 75696E74 		.ascii	"uint8_t\000"
 3596      385F7400 
 3597              	.LASF131:
 3598 04b6 61646353 		.ascii	"adcStopConversionI\000"
 3598      746F7043 
 3598      6F6E7665 
 3598      7273696F 
 3598      6E4900
 3599              	.LASF121:
 3600 04c9 41444343 		.ascii	"ADCConversionGroup\000"
 3600      6F6E7665 
 3600      7273696F 
 3600      6E47726F 
 3600      757000
 3601              	.LASF74:
ARM GAS  /tmp/ccaOL8bX.s 			page 71


 3602 04dc 4A445231 		.ascii	"JDR1\000"
 3602      00
 3603              	.LASF75:
 3604 04e1 4A445232 		.ascii	"JDR2\000"
 3604      00
 3605              	.LASF76:
 3606 04e6 4A445233 		.ascii	"JDR3\000"
 3606      00
 3607              	.LASF77:
 3608 04eb 4A445234 		.ascii	"JDR4\000"
 3608      00
 3609              	.LASF61:
 3610 04f0 77746F62 		.ascii	"wtobjp\000"
 3610      6A7000
 3611              	.LASF93:
 3612 04f7 4144435F 		.ascii	"ADC_COMPLETE\000"
 3612      434F4D50 
 3612      4C455445 
 3612      00
 3613              	.LASF30:
 3614 0504 705F6E61 		.ascii	"p_name\000"
 3614      6D6500
 3615              	.LASF97:
 3616 050b 6164635F 		.ascii	"adc_channels_num_t\000"
 3616      6368616E 
 3616      6E656C73 
 3616      5F6E756D 
 3616      5F7400
 3617              	.LASF37:
 3618 051e 705F6D73 		.ascii	"p_msg\000"
 3618      6700
 3619              	.LASF52:
 3620 0524 725F7072 		.ascii	"r_preempt\000"
 3620      65656D70 
 3620      7400
 3621              	.LASF130:
 3622 052e 61646353 		.ascii	"adcStopConversion\000"
 3622      746F7043 
 3622      6F6E7665 
 3622      7273696F 
 3622      6E00
 3623              	.LASF57:
 3624 0540 6D5F6F77 		.ascii	"m_owner\000"
 3624      6E657200 
 3625              	.LASF132:
 3626 0548 61646341 		.ascii	"adcAcquireBus\000"
 3626      63717569 
 3626      72654275 
 3626      7300
 3627              	.LASF27:
 3628 0556 705F6374 		.ascii	"p_ctx\000"
 3628      7800
 3629              	.LASF35:
 3630 055c 705F7761 		.ascii	"p_waiting\000"
 3630      6974696E 
 3630      6700
 3631              		.ident	"GCC: (Sourcery G++ Lite 2011.03-42) 4.5.2"
ARM GAS  /tmp/ccaOL8bX.s 			page 72


ARM GAS  /tmp/ccaOL8bX.s 			page 73


DEFINED SYMBOLS
                            *ABS*:00000000 adc.c
     /tmp/ccaOL8bX.s:24     .text.adcInit:00000000 $t
     /tmp/ccaOL8bX.s:30     .text.adcInit:00000000 adcInit
     /tmp/ccaOL8bX.s:50     .text.adcObjectInit:00000000 $t
     /tmp/ccaOL8bX.s:56     .text.adcObjectInit:00000000 adcObjectInit
     /tmp/ccaOL8bX.s:106    .rodata:00000000 $d
     /tmp/ccaOL8bX.s:113    .text.adcStart:00000000 $t
     /tmp/ccaOL8bX.s:119    .text.adcStart:00000000 adcStart
     /tmp/ccaOL8bX.s:191    .text.adcStart:0000005c $d
     /tmp/ccaOL8bX.s:204    .text.adcStop:00000000 $t
     /tmp/ccaOL8bX.s:210    .text.adcStop:00000000 adcStop
     /tmp/ccaOL8bX.s:277    .text.adcStop:00000054 $d
     /tmp/ccaOL8bX.s:283    .text.adcStartConversion:00000000 $t
     /tmp/ccaOL8bX.s:289    .text.adcStartConversion:00000000 adcStartConversion
     /tmp/ccaOL8bX.s:350    .text.adcStartConversionI:00000000 adcStartConversionI
     /tmp/ccaOL8bX.s:344    .text.adcStartConversionI:00000000 $t
     /tmp/ccaOL8bX.s:440    .text.adcStartConversionI:0000007c $d
     /tmp/ccaOL8bX.s:453    .text.adcStopConversion:00000000 $t
     /tmp/ccaOL8bX.s:459    .text.adcStopConversion:00000000 adcStopConversion
     /tmp/ccaOL8bX.s:553    .text.adcStopConversion:00000084 $d
     /tmp/ccaOL8bX.s:566    .text.adcStopConversionI:00000000 $t
     /tmp/ccaOL8bX.s:572    .text.adcStopConversionI:00000000 adcStopConversionI
     /tmp/ccaOL8bX.s:657    .text.adcStopConversionI:0000007c $d
     /tmp/ccaOL8bX.s:667    .text.adcConvert:00000000 $t
     /tmp/ccaOL8bX.s:673    .text.adcConvert:00000000 adcConvert
     /tmp/ccaOL8bX.s:745    .text.adcConvert:00000060 $d
     /tmp/ccaOL8bX.s:755    .text.adcAcquireBus:00000000 $t
     /tmp/ccaOL8bX.s:761    .text.adcAcquireBus:00000000 adcAcquireBus
     /tmp/ccaOL8bX.s:794    .text.adcAcquireBus:00000024 $d
     /tmp/ccaOL8bX.s:803    .text.adcReleaseBus:00000000 $t
     /tmp/ccaOL8bX.s:809    .text.adcReleaseBus:00000000 adcReleaseBus
     /tmp/ccaOL8bX.s:839    .text.adcReleaseBus:0000001c $d
                     .debug_frame:00000010 $d
     /tmp/ccaOL8bX.s:196    .text.adcStart:00000064 $t
     /tmp/ccaOL8bX.s:282    .text.adcStop:0000005c $t
     /tmp/ccaOL8bX.s:445    .text.adcStartConversionI:00000084 $t
     /tmp/ccaOL8bX.s:558    .text.adcStopConversion:0000008c $t
     /tmp/ccaOL8bX.s:662    .text.adcStopConversionI:00000084 $t
     /tmp/ccaOL8bX.s:750    .text.adcConvert:00000068 $t
     /tmp/ccaOL8bX.s:798    .text.adcAcquireBus:00000028 $t

UNDEFINED SYMBOLS
adc_lld_init
chMtxInit
chDbgPanic
dbg_check_lock
adc_lld_start
dbg_check_unlock
adc_lld_stop
chDbgCheckClassI
adc_lld_start_conversion
adc_lld_stop_conversion
chSchWakeupS
chSchReadyI
chSchGoSleepS
rlist
ARM GAS  /tmp/ccaOL8bX.s 			page 74


chMtxLock
chMtxUnlock
