ARM GAS  /tmp/cctqM4r3.s 			page 1


   1              		.syntax unified
   2              		.cpu cortex-m3
   3              		.fpu softvfp
   4              		.eabi_attribute 20, 1
   5              		.eabi_attribute 21, 1
   6              		.eabi_attribute 23, 3
   7              		.eabi_attribute 24, 1
   8              		.eabi_attribute 25, 1
   9              		.eabi_attribute 26, 1
  10              		.eabi_attribute 30, 2
  11              		.eabi_attribute 18, 4
  12              		.thumb
  13              		.file	"adc.c"
  14              		.section	.debug_abbrev,"",%progbits
  15              	.Ldebug_abbrev0:
  16              		.section	.debug_info,"",%progbits
  17              	.Ldebug_info0:
  18              		.section	.debug_line,"",%progbits
  19              	.Ldebug_line0:
  20 0000 14040000 		.text
  20      02007402 
  20      00000201 
  20      FB0E0D00 
  20      01010101 
  21              	.Ltext0:
  22              		.cfi_sections	.debug_frame
  23              		.section	.text.adcInit,"ax",%progbits
  24              		.align	2
  25              		.p2align 4,,15
  26              		.global	adcInit
  27              		.thumb
  28              		.thumb_func
  29              		.type	adcInit, %function
  30              	adcInit:
  31              	.LFB62:
  32              		.file 1 "../chibios_2.4.x/os/hal/src/adc.c"
  33              		.loc 1 68 0
  34              		.cfi_startproc
  35              		@ args = 0, pretend = 0, frame = 0
  36              		@ frame_needed = 0, uses_anonymous_args = 0
  37              		@ link register save eliminated.
  38              		.loc 1 71 0
  39              		.loc 1 70 0
  40 0000 FFF7FEBF 		b	adc_lld_init
  41              		.cfi_endproc
  42              	.LFE62:
  43              		.size	adcInit, .-adcInit
  44 0004 AFF30080 		.section	.text.adcObjectInit,"ax",%progbits
  44      AFF30080 
  44      AFF30080 
  45              		.align	2
  46              		.p2align 4,,15
  47              		.global	adcObjectInit
  48              		.thumb
  49              		.thumb_func
  50              		.type	adcObjectInit, %function
  51              	adcObjectInit:
ARM GAS  /tmp/cctqM4r3.s 			page 2


  52              	.LFB63:
  53              		.loc 1 80 0
  54              		.cfi_startproc
  55              		@ args = 0, pretend = 0, frame = 0
  56              		@ frame_needed = 0, uses_anonymous_args = 0
  57              		@ link register save eliminated.
  58              	.LVL0:
  59              		.loc 1 83 0
  60 0000 0023     		movs	r3, #0
  61              		.loc 1 82 0
  62 0002 0122     		movs	r2, #1
  63 0004 0270     		strb	r2, [r0, #0]
  64              		.loc 1 83 0
  65 0006 4360     		str	r3, [r0, #4]
  66              		.loc 1 84 0
  67 0008 8360     		str	r3, [r0, #8]
  68              		.loc 1 85 0
  69 000a C360     		str	r3, [r0, #12]
  70              		.loc 1 86 0
  71 000c 0361     		str	r3, [r0, #16]
  72              		.loc 1 88 0
  73 000e 4361     		str	r3, [r0, #20]
  74              		.loc 1 92 0
  75 0010 1830     		adds	r0, r0, #24
  76              	.LVL1:
  77              		.loc 1 100 0
  78              		.loc 1 92 0
  79 0012 FFF7FEBF 		b	chMtxInit
  80              		.cfi_endproc
  81              	.LFE63:
  82              		.size	adcObjectInit, .-adcObjectInit
  83 0016 00BFAFF3 		.section	.text.adcStart,"ax",%progbits
  83      0080AFF3 
  83      0080
  84              		.align	2
  85              		.p2align 4,,15
  86              		.global	adcStart
  87              		.thumb
  88              		.thumb_func
  89              		.type	adcStart, %function
  90              	adcStart:
  91              	.LFB64:
  92              		.loc 1 111 0
  93              		.cfi_startproc
  94              		@ args = 0, pretend = 0, frame = 0
  95              		@ frame_needed = 0, uses_anonymous_args = 0
  96              	.LVL2:
  97 0000 38B5     		push	{r3, r4, r5, lr}
  98              	.LCFI0:
  99              		.cfi_def_cfa_offset 16
 100              		.loc 1 113 0
 101 0002 0446     		mov	r4, r0
 102              		.cfi_offset 14, -4
 103              		.cfi_offset 5, -8
 104              		.cfi_offset 4, -12
 105              		.cfi_offset 3, -16
 106              		.loc 1 111 0
ARM GAS  /tmp/cctqM4r3.s 			page 3


 107 0004 0D46     		mov	r5, r1
 108              		.loc 1 113 0
 109 0006 C0B1     		cbz	r0, .L7
 110              	.LVL3:
 111              	.L4:
 112              	.LBB2:
 113              		.loc 1 115 0
 114 0008 2023     		movs	r3, #32
 115              	.LVL4:
 116              	@ 115 "../chibios_2.4.x/os/hal/src/adc.c" 1
 117 000a 83F31188 		msr     BASEPRI, r3
 118              	@ 0 "" 2
 119              	.LVL5:
 120              		.thumb
 121              	.LBE2:
 122 000e FFF7FEFF 		bl	dbg_check_lock
 123              	.LVL6:
 124              		.loc 1 116 0
 125 0012 2178     		ldrb	r1, [r4, #0]	@ zero_extendqisi2
 126 0014 481E     		subs	r0, r1, #1
 127 0016 C3B2     		uxtb	r3, r0
 128 0018 012B     		cmp	r3, #1
 129 001a 02D9     		bls	.L5
 130              		.loc 1 116 0 is_stmt 0 discriminator 1
 131 001c 0948     		ldr	r0, .L8
 132 001e FFF7FEFF 		bl	chDbgPanic
 133              	.L5:
 134              		.loc 1 119 0 is_stmt 1
 135 0022 2046     		mov	r0, r4
 136              		.loc 1 118 0
 137 0024 6560     		str	r5, [r4, #4]
 138              		.loc 1 119 0
 139 0026 FFF7FEFF 		bl	adc_lld_start
 140              		.loc 1 120 0
 141 002a 0222     		movs	r2, #2
 142 002c 2270     		strb	r2, [r4, #0]
 143              		.loc 1 121 0
 144 002e FFF7FEFF 		bl	dbg_check_unlock
 145              	.LBB3:
 146 0032 0023     		movs	r3, #0
 147              	.LVL7:
 148              	@ 121 "../chibios_2.4.x/os/hal/src/adc.c" 1
 149 0034 83F31188 		msr     BASEPRI, r3
 150              	@ 0 "" 2
 151              	.LVL8:
 152              		.thumb
 153              	.LBE3:
 154              		.loc 1 122 0
 155 0038 38BD     		pop	{r3, r4, r5, pc}
 156              	.LVL9:
 157              	.L7:
 158              		.loc 1 113 0 discriminator 1
 159 003a 0348     		ldr	r0, .L8+4
 160 003c FFF7FEFF 		bl	chDbgPanic
 161 0040 E2E7     		b	.L4
 162              	.L9:
 163 0042 00BF     		.align	2
ARM GAS  /tmp/cctqM4r3.s 			page 4


 164              	.L8:
 165 0044 10000000 		.word	.LC1
 166 0048 00000000 		.word	.LC0
 167              		.cfi_endproc
 168              	.LFE64:
 169              		.size	adcStart, .-adcStart
 170 004c AFF30080 		.section	.text.adcStop,"ax",%progbits
 171              		.align	2
 172              		.p2align 4,,15
 173              		.global	adcStop
 174              		.thumb
 175              		.thumb_func
 176              		.type	adcStop, %function
 177              	adcStop:
 178              	.LFB65:
 179              		.loc 1 131 0
 180              		.cfi_startproc
 181              		@ args = 0, pretend = 0, frame = 0
 182              		@ frame_needed = 0, uses_anonymous_args = 0
 183              	.LVL10:
 184 0000 10B5     		push	{r4, lr}
 185              	.LCFI1:
 186              		.cfi_def_cfa_offset 8
 187              		.loc 1 133 0
 188 0002 0446     		mov	r4, r0
 189              		.cfi_offset 14, -4
 190              		.cfi_offset 4, -8
 191 0004 B8B1     		cbz	r0, .L13
 192              	.LVL11:
 193              	.L11:
 194              	.LBB4:
 195              		.loc 1 135 0
 196 0006 2023     		movs	r3, #32
 197              	.LVL12:
 198              	@ 135 "../chibios_2.4.x/os/hal/src/adc.c" 1
 199 0008 83F31188 		msr     BASEPRI, r3
 200              	@ 0 "" 2
 201              	.LVL13:
 202              		.thumb
 203              	.LBE4:
 204 000c FFF7FEFF 		bl	dbg_check_lock
 205              	.LVL14:
 206              		.loc 1 136 0
 207 0010 2178     		ldrb	r1, [r4, #0]	@ zero_extendqisi2
 208 0012 481E     		subs	r0, r1, #1
 209 0014 C3B2     		uxtb	r3, r0
 210 0016 012B     		cmp	r3, #1
 211 0018 02D9     		bls	.L12
 212              		.loc 1 136 0 is_stmt 0 discriminator 1
 213 001a 0948     		ldr	r0, .L14
 214 001c FFF7FEFF 		bl	chDbgPanic
 215              	.L12:
 216              		.loc 1 138 0 is_stmt 1
 217 0020 2046     		mov	r0, r4
 218 0022 FFF7FEFF 		bl	adc_lld_stop
 219              		.loc 1 139 0
 220 0026 0122     		movs	r2, #1
ARM GAS  /tmp/cctqM4r3.s 			page 5


 221 0028 2270     		strb	r2, [r4, #0]
 222              		.loc 1 140 0
 223 002a FFF7FEFF 		bl	dbg_check_unlock
 224              	.LBB5:
 225 002e 0023     		movs	r3, #0
 226              	.LVL15:
 227              	@ 140 "../chibios_2.4.x/os/hal/src/adc.c" 1
 228 0030 83F31188 		msr     BASEPRI, r3
 229              	@ 0 "" 2
 230              	.LVL16:
 231              		.thumb
 232              	.LBE5:
 233              		.loc 1 141 0
 234 0034 10BD     		pop	{r4, pc}
 235              	.LVL17:
 236              	.L13:
 237              		.loc 1 133 0 discriminator 1
 238 0036 0348     		ldr	r0, .L14+4
 239 0038 FFF7FEFF 		bl	chDbgPanic
 240 003c E3E7     		b	.L11
 241              	.L15:
 242 003e 00BF     		.align	2
 243              	.L14:
 244 0040 2C000000 		.word	.LC3
 245 0044 20000000 		.word	.LC2
 246              		.cfi_endproc
 247              	.LFE65:
 248              		.size	adcStop, .-adcStop
 249 0048 AFF30080 		.section	.text.adcStartConversionI,"ax",%progbits
 249      AFF30080 
 250              		.align	2
 251              		.p2align 4,,15
 252              		.global	adcStartConversionI
 253              		.thumb
 254              		.thumb_func
 255              		.type	adcStartConversionI, %function
 256              	adcStartConversionI:
 257              	.LFB67:
 258              		.loc 1 190 0
 259              		.cfi_startproc
 260              		@ args = 0, pretend = 0, frame = 0
 261              		@ frame_needed = 0, uses_anonymous_args = 0
 262              	.LVL18:
 263 0000 2DE9F041 		push	{r4, r5, r6, r7, r8, lr}
 264              	.LCFI2:
 265              		.cfi_def_cfa_offset 24
 266              		.loc 1 190 0
 267 0004 0446     		mov	r4, r0
 268              		.cfi_offset 14, -4
 269              		.cfi_offset 8, -8
 270              		.cfi_offset 7, -12
 271              		.cfi_offset 6, -16
 272              		.cfi_offset 5, -20
 273              		.cfi_offset 4, -24
 274 0006 0D46     		mov	r5, r1
 275 0008 1646     		mov	r6, r2
 276 000a 1F46     		mov	r7, r3
ARM GAS  /tmp/cctqM4r3.s 			page 6


 277              		.loc 1 192 0
 278 000c FFF7FEFF 		bl	chDbgCheckClassI
 279              	.LVL19:
 280              		.loc 1 193 0
 281 0010 D4B1     		cbz	r4, .L17
 282              		.loc 1 193 0 is_stmt 0 discriminator 2
 283 0012 CDB1     		cbz	r5, .L17
 284              		.loc 1 193 0 discriminator 3
 285 0014 C6B1     		cbz	r6, .L17
 286              		.loc 1 193 0 discriminator 4
 287 0016 012F     		cmp	r7, #1
 288 0018 02D0     		beq	.L18
 289              		.loc 1 193 0 discriminator 5
 290 001a 17F0010F 		tst	r7, #1
 291 001e 13D1     		bne	.L17
 292              	.L18:
 293              		.loc 1 196 0 is_stmt 1
 294 0020 2378     		ldrb	r3, [r4, #0]	@ zero_extendqisi2
 295 0022 022B     		cmp	r3, #2
 296 0024 06D0     		beq	.L19
 297              		.loc 1 196 0 is_stmt 0 discriminator 1
 298 0026 042B     		cmp	r3, #4
 299 0028 04D0     		beq	.L19
 300              		.loc 1 196 0 discriminator 2
 301 002a 052B     		cmp	r3, #5
 302 002c 02D0     		beq	.L19
 303              		.loc 1 196 0 discriminator 3
 304 002e 0848     		ldr	r0, .L20
 305 0030 FFF7FEFF 		bl	chDbgPanic
 306              	.L19:
 307              		.loc 1 204 0 is_stmt 1
 308 0034 0323     		movs	r3, #3
 309              		.loc 1 205 0
 310 0036 2046     		mov	r0, r4
 311              		.loc 1 201 0
 312 0038 A660     		str	r6, [r4, #8]
 313              		.loc 1 202 0
 314 003a E760     		str	r7, [r4, #12]
 315              		.loc 1 203 0
 316 003c 2561     		str	r5, [r4, #16]
 317              		.loc 1 204 0
 318 003e 2370     		strb	r3, [r4, #0]
 319              		.loc 1 206 0
 320 0040 BDE8F041 		pop	{r4, r5, r6, r7, r8, lr}
 321              		.loc 1 205 0
 322 0044 FFF7FEBF 		b	adc_lld_start_conversion
 323              	.L17:
 324              		.loc 1 193 0 discriminator 1
 325 0048 0248     		ldr	r0, .L20+4
 326 004a FFF7FEFF 		bl	chDbgPanic
 327 004e E7E7     		b	.L18
 328              	.L21:
 329              		.align	2
 330              	.L20:
 331 0050 54000000 		.word	.LC5
 332 0054 3C000000 		.word	.LC4
 333              		.cfi_endproc
ARM GAS  /tmp/cctqM4r3.s 			page 7


 334              	.LFE67:
 335              		.size	adcStartConversionI, .-adcStartConversionI
 336 0058 AFF30080 		.section	.text.adcStartConversion,"ax",%progbits
 336      AFF30080 
 337              		.align	2
 338              		.p2align 4,,15
 339              		.global	adcStartConversion
 340              		.thumb
 341              		.thumb_func
 342              		.type	adcStartConversion, %function
 343              	adcStartConversion:
 344              	.LFB66:
 345              		.loc 1 162 0
 346              		.cfi_startproc
 347              		@ args = 0, pretend = 0, frame = 0
 348              		@ frame_needed = 0, uses_anonymous_args = 0
 349              	.LVL20:
 350 0000 F8B5     		push	{r3, r4, r5, r6, r7, lr}
 351              	.LCFI3:
 352              		.cfi_def_cfa_offset 24
 353              		.loc 1 162 0
 354 0002 1C46     		mov	r4, r3
 355              		.cfi_offset 14, -4
 356              		.cfi_offset 7, -8
 357              		.cfi_offset 6, -12
 358              		.cfi_offset 5, -16
 359              		.cfi_offset 4, -20
 360              		.cfi_offset 3, -24
 361 0004 0746     		mov	r7, r0
 362 0006 0E46     		mov	r6, r1
 363 0008 1546     		mov	r5, r2
 364              	.LBB6:
 365              		.loc 1 164 0
 366 000a 2023     		movs	r3, #32
 367              	.LVL21:
 368              	@ 164 "../chibios_2.4.x/os/hal/src/adc.c" 1
 369 000c 83F31188 		msr     BASEPRI, r3
 370              	@ 0 "" 2
 371              	.LVL22:
 372              		.thumb
 373              	.LBE6:
 374 0010 FFF7FEFF 		bl	dbg_check_lock
 375              	.LVL23:
 376              		.loc 1 165 0
 377 0014 2346     		mov	r3, r4
 378 0016 3846     		mov	r0, r7
 379 0018 3146     		mov	r1, r6
 380 001a 2A46     		mov	r2, r5
 381 001c FFF7FEFF 		bl	adcStartConversionI
 382              		.loc 1 166 0
 383 0020 FFF7FEFF 		bl	dbg_check_unlock
 384              	.LBB7:
 385 0024 0023     		movs	r3, #0
 386              	.LVL24:
 387              	@ 166 "../chibios_2.4.x/os/hal/src/adc.c" 1
 388 0026 83F31188 		msr     BASEPRI, r3
 389              	@ 0 "" 2
ARM GAS  /tmp/cctqM4r3.s 			page 8


 390              	.LVL25:
 391              		.thumb
 392              	.LBE7:
 393              		.loc 1 167 0
 394 002a F8BD     		pop	{r3, r4, r5, r6, r7, pc}
 395              		.cfi_endproc
 396              	.LFE66:
 397              		.size	adcStartConversion, .-adcStartConversion
 398 002c AFF30080 		.section	.text.adcStopConversion,"ax",%progbits
 399              		.align	2
 400              		.p2align 4,,15
 401              		.global	adcStopConversion
 402              		.thumb
 403              		.thumb_func
 404              		.type	adcStopConversion, %function
 405              	adcStopConversion:
 406              	.LFB68:
 407              		.loc 1 218 0
 408              		.cfi_startproc
 409              		@ args = 0, pretend = 0, frame = 0
 410              		@ frame_needed = 0, uses_anonymous_args = 0
 411              	.LVL26:
 412 0000 10B5     		push	{r4, lr}
 413              	.LCFI4:
 414              		.cfi_def_cfa_offset 8
 415              		.loc 1 220 0
 416 0002 0446     		mov	r4, r0
 417              		.cfi_offset 14, -4
 418              		.cfi_offset 4, -8
 419 0004 18B3     		cbz	r0, .L27
 420              	.LVL27:
 421              	.L24:
 422              	.LBB8:
 423              		.loc 1 222 0
 424 0006 2023     		movs	r3, #32
 425              	.LVL28:
 426              	@ 222 "../chibios_2.4.x/os/hal/src/adc.c" 1
 427 0008 83F31188 		msr     BASEPRI, r3
 428              	@ 0 "" 2
 429              	.LVL29:
 430              		.thumb
 431              	.LBE8:
 432 000c FFF7FEFF 		bl	dbg_check_lock
 433              	.LVL30:
 434              		.loc 1 223 0
 435 0010 2378     		ldrb	r3, [r4, #0]	@ zero_extendqisi2
 436 0012 981E     		subs	r0, r3, #2
 437 0014 C2B2     		uxtb	r2, r0
 438 0016 012A     		cmp	r2, #1
 439 0018 03D9     		bls	.L25
 440              		.loc 1 223 0 is_stmt 0 discriminator 1
 441 001a 0F48     		ldr	r0, .L28
 442 001c FFF7FEFF 		bl	chDbgPanic
 443 0020 2378     		ldrb	r3, [r4, #0]	@ zero_extendqisi2
 444              	.L25:
 445              		.loc 1 226 0 is_stmt 1
 446 0022 022B     		cmp	r3, #2
ARM GAS  /tmp/cctqM4r3.s 			page 9


 447 0024 0DD0     		beq	.L26
 448              		.loc 1 227 0
 449 0026 2046     		mov	r0, r4
 450 0028 FFF7FEFF 		bl	adc_lld_stop_conversion
 451              		.loc 1 230 0
 452 002c 6069     		ldr	r0, [r4, #20]
 453              		.loc 1 228 0
 454 002e 0023     		movs	r3, #0
 455              		.loc 1 229 0
 456 0030 0221     		movs	r1, #2
 457              		.loc 1 228 0
 458 0032 2361     		str	r3, [r4, #16]
 459              		.loc 1 229 0
 460 0034 2170     		strb	r1, [r4, #0]
 461              		.loc 1 230 0
 462 0036 20B1     		cbz	r0, .L26
 463              	.LVL31:
 464              	.LBB9:
 465              		.loc 1 230 0 is_stmt 0 discriminator 1
 466 0038 6361     		str	r3, [r4, #20]
 467 003a 6FF00101 		mvn	r1, #1
 468 003e FFF7FEFF 		bl	chSchWakeupS
 469              	.LVL32:
 470              	.L26:
 471              	.LBE9:
 472              		.loc 1 232 0 is_stmt 1
 473 0042 FFF7FEFF 		bl	dbg_check_unlock
 474              	.LBB10:
 475 0046 0023     		movs	r3, #0
 476              	.LVL33:
 477              	@ 232 "../chibios_2.4.x/os/hal/src/adc.c" 1
 478 0048 83F31188 		msr     BASEPRI, r3
 479              	@ 0 "" 2
 480              	.LVL34:
 481              		.thumb
 482              	.LBE10:
 483              		.loc 1 233 0
 484 004c 10BD     		pop	{r4, pc}
 485              	.LVL35:
 486              	.L27:
 487              		.loc 1 220 0 discriminator 1
 488 004e 0348     		ldr	r0, .L28+4
 489 0050 FFF7FEFF 		bl	chDbgPanic
 490 0054 D7E7     		b	.L24
 491              	.L29:
 492 0056 00BF     		.align	2
 493              	.L28:
 494 0058 88000000 		.word	.LC7
 495 005c 70000000 		.word	.LC6
 496              		.cfi_endproc
 497              	.LFE68:
 498              		.size	adcStopConversion, .-adcStopConversion
 499              		.section	.text.adcStopConversionI,"ax",%progbits
 500              		.align	2
 501              		.p2align 4,,15
 502              		.global	adcStopConversionI
 503              		.thumb
ARM GAS  /tmp/cctqM4r3.s 			page 10


 504              		.thumb_func
 505              		.type	adcStopConversionI, %function
 506              	adcStopConversionI:
 507              	.LFB69:
 508              		.loc 1 245 0
 509              		.cfi_startproc
 510              		@ args = 0, pretend = 0, frame = 0
 511              		@ frame_needed = 0, uses_anonymous_args = 0
 512              	.LVL36:
 513 0000 10B5     		push	{r4, lr}
 514              	.LCFI5:
 515              		.cfi_def_cfa_offset 8
 516              		.loc 1 245 0
 517 0002 0446     		mov	r4, r0
 518              		.cfi_offset 14, -4
 519              		.cfi_offset 4, -8
 520              		.loc 1 247 0
 521 0004 FFF7FEFF 		bl	chDbgCheckClassI
 522              	.LVL37:
 523              		.loc 1 248 0
 524 0008 002C     		cmp	r4, #0
 525 000a 1ED0     		beq	.L34
 526              	.L31:
 527              		.loc 1 249 0
 528 000c 2378     		ldrb	r3, [r4, #0]	@ zero_extendqisi2
 529 000e 981E     		subs	r0, r3, #2
 530 0010 C2B2     		uxtb	r2, r0
 531 0012 022A     		cmp	r2, #2
 532 0014 14D8     		bhi	.L35
 533              	.L32:
 534              		.loc 1 254 0
 535 0016 022B     		cmp	r3, #2
 536 0018 11D0     		beq	.L30
 537              		.loc 1 255 0
 538 001a 2046     		mov	r0, r4
 539 001c FFF7FEFF 		bl	adc_lld_stop_conversion
 540              		.loc 1 258 0
 541 0020 6369     		ldr	r3, [r4, #20]
 542              		.loc 1 256 0
 543 0022 0022     		movs	r2, #0
 544              		.loc 1 257 0
 545 0024 0221     		movs	r1, #2
 546              		.loc 1 256 0
 547 0026 2261     		str	r2, [r4, #16]
 548              		.loc 1 257 0
 549 0028 2170     		strb	r1, [r4, #0]
 550              		.loc 1 258 0
 551 002a 43B1     		cbz	r3, .L30
 552              	.LVL38:
 553              	.LBB11:
 554              		.loc 1 258 0 is_stmt 0 discriminator 1
 555 002c 6261     		str	r2, [r4, #20]
 556 002e 1846     		mov	r0, r3
 557 0030 6FF00102 		mvn	r2, #1
 558 0034 9A62     		str	r2, [r3, #40]
 559              	.LBE11:
 560              		.loc 1 260 0 is_stmt 1 discriminator 1
ARM GAS  /tmp/cctqM4r3.s 			page 11


 561 0036 BDE81040 		pop	{r4, lr}
 562              	.LBB12:
 563              		.loc 1 258 0 discriminator 1
 564 003a FFF7FEBF 		b	chSchReadyI
 565              	.LVL39:
 566              	.L30:
 567 003e 10BD     		pop	{r4, pc}
 568              	.L35:
 569              	.LBE12:
 570              		.loc 1 249 0 discriminator 1
 571 0040 0448     		ldr	r0, .L36
 572 0042 FFF7FEFF 		bl	chDbgPanic
 573 0046 2378     		ldrb	r3, [r4, #0]	@ zero_extendqisi2
 574 0048 E5E7     		b	.L32
 575              	.L34:
 576              		.loc 1 248 0 discriminator 1
 577 004a 0348     		ldr	r0, .L36+4
 578 004c FFF7FEFF 		bl	chDbgPanic
 579 0050 DCE7     		b	.L31
 580              	.L37:
 581 0052 00BF     		.align	2
 582              	.L36:
 583 0054 B8000000 		.word	.LC9
 584 0058 A0000000 		.word	.LC8
 585              		.cfi_endproc
 586              	.LFE69:
 587              		.size	adcStopConversionI, .-adcStopConversionI
 588 005c AFF30080 		.section	.text.adcConvert,"ax",%progbits
 589              		.align	2
 590              		.p2align 4,,15
 591              		.global	adcConvert
 592              		.thumb
 593              		.thumb_func
 594              		.type	adcConvert, %function
 595              	adcConvert:
 596              	.LFB70:
 597              		.loc 1 289 0
 598              		.cfi_startproc
 599              		@ args = 0, pretend = 0, frame = 0
 600              		@ frame_needed = 0, uses_anonymous_args = 0
 601              	.LVL40:
 602 0000 2DE9F041 		push	{r4, r5, r6, r7, r8, lr}
 603              	.LCFI6:
 604              		.cfi_def_cfa_offset 24
 605              		.loc 1 289 0
 606 0004 1E46     		mov	r6, r3
 607              		.cfi_offset 14, -4
 608              		.cfi_offset 8, -8
 609              		.cfi_offset 7, -12
 610              		.cfi_offset 6, -16
 611              		.cfi_offset 5, -20
 612              		.cfi_offset 4, -24
 613 0006 0446     		mov	r4, r0
 614 0008 8846     		mov	r8, r1
 615 000a 1746     		mov	r7, r2
 616              	.LBB13:
 617              		.loc 1 292 0
ARM GAS  /tmp/cctqM4r3.s 			page 12


 618 000c 2023     		movs	r3, #32
 619              	.LVL41:
 620              	@ 292 "../chibios_2.4.x/os/hal/src/adc.c" 1
 621 000e 83F31188 		msr     BASEPRI, r3
 622              	@ 0 "" 2
 623              	.LVL42:
 624              		.thumb
 625              	.LBE13:
 626 0012 FFF7FEFF 		bl	dbg_check_lock
 627              	.LVL43:
 628              		.loc 1 293 0
 629 0016 6369     		ldr	r3, [r4, #20]
 630 0018 13B1     		cbz	r3, .L39
 631              		.loc 1 293 0 is_stmt 0 discriminator 1
 632 001a 0C48     		ldr	r0, .L40
 633 001c FFF7FEFF 		bl	chDbgPanic
 634              	.L39:
 635              		.loc 1 295 0 is_stmt 1
 636 0020 0B4D     		ldr	r5, .L40+4
 637              		.loc 1 294 0
 638 0022 3346     		mov	r3, r6
 639 0024 3A46     		mov	r2, r7
 640 0026 4146     		mov	r1, r8
 641 0028 2046     		mov	r0, r4
 642 002a FFF7FEFF 		bl	adcStartConversionI
 643              		.loc 1 295 0
 644 002e E969     		ldr	r1, [r5, #28]
 645              		.loc 1 296 0
 646 0030 0220     		movs	r0, #2
 647              		.loc 1 295 0
 648 0032 6161     		str	r1, [r4, #20]
 649              		.loc 1 296 0
 650 0034 FFF7FEFF 		bl	chSchGoSleepS
 651              		.loc 1 297 0
 652 0038 E869     		ldr	r0, [r5, #28]
 653 003a 846A     		ldr	r4, [r0, #40]
 654              	.LVL44:
 655              		.loc 1 298 0
 656 003c FFF7FEFF 		bl	dbg_check_unlock
 657              	.LVL45:
 658              	.LBB14:
 659 0040 0023     		movs	r3, #0
 660              	.LVL46:
 661              	@ 298 "../chibios_2.4.x/os/hal/src/adc.c" 1
 662 0042 83F31188 		msr     BASEPRI, r3
 663              	@ 0 "" 2
 664              	.LVL47:
 665              		.thumb
 666              	.LBE14:
 667              		.loc 1 300 0
 668 0046 2046     		mov	r0, r4
 669 0048 BDE8F081 		pop	{r4, r5, r6, r7, r8, pc}
 670              	.L41:
 671              		.align	2
 672              	.L40:
 673 004c D4000000 		.word	.LC10
 674 0050 00000000 		.word	rlist
ARM GAS  /tmp/cctqM4r3.s 			page 13


 675              		.cfi_endproc
 676              	.LFE70:
 677              		.size	adcConvert, .-adcConvert
 678 0054 AFF30080 		.section	.text.adcAcquireBus,"ax",%progbits
 678      AFF30080 
 678      AFF30080 
 679              		.align	2
 680              		.p2align 4,,15
 681              		.global	adcAcquireBus
 682              		.thumb
 683              		.thumb_func
 684              		.type	adcAcquireBus, %function
 685              	adcAcquireBus:
 686              	.LFB71:
 687              		.loc 1 315 0
 688              		.cfi_startproc
 689              		@ args = 0, pretend = 0, frame = 0
 690              		@ frame_needed = 0, uses_anonymous_args = 0
 691              	.LVL48:
 692 0000 10B5     		push	{r4, lr}
 693              	.LCFI7:
 694              		.cfi_def_cfa_offset 8
 695              		.loc 1 317 0
 696 0002 0446     		mov	r4, r0
 697              		.cfi_offset 14, -4
 698              		.cfi_offset 4, -8
 699 0004 28B1     		cbz	r0, .L44
 700              	.LVL49:
 701              	.L43:
 702              		.loc 1 320 0
 703 0006 04F11800 		add	r0, r4, #24
 704              		.loc 1 324 0
 705 000a BDE81040 		pop	{r4, lr}
 706              		.loc 1 320 0
 707 000e FFF7FEBF 		b	chMtxLock
 708              	.L44:
 709              		.loc 1 317 0 discriminator 1
 710 0012 0248     		ldr	r0, .L45
 711 0014 FFF7FEFF 		bl	chDbgPanic
 712 0018 F5E7     		b	.L43
 713              	.L46:
 714 001a 00BF     		.align	2
 715              	.L45:
 716 001c E8000000 		.word	.LC11
 717              		.cfi_endproc
 718              	.LFE71:
 719              		.size	adcAcquireBus, .-adcAcquireBus
 720              		.section	.text.adcReleaseBus,"ax",%progbits
 721              		.align	2
 722              		.p2align 4,,15
 723              		.global	adcReleaseBus
 724              		.thumb
 725              		.thumb_func
 726              		.type	adcReleaseBus, %function
 727              	adcReleaseBus:
 728              	.LFB72:
 729              		.loc 1 335 0
ARM GAS  /tmp/cctqM4r3.s 			page 14


 730              		.cfi_startproc
 731              		@ args = 0, pretend = 0, frame = 0
 732              		@ frame_needed = 0, uses_anonymous_args = 0
 733              	.LVL50:
 734 0000 10B5     		push	{r4, lr}
 735              	.LCFI8:
 736              		.cfi_def_cfa_offset 8
 737              		.loc 1 337 0
 738 0002 18B1     		cbz	r0, .L49
 739              		.cfi_offset 14, -4
 740              		.cfi_offset 4, -8
 741              	.LVL51:
 742              	.L48:
 743              		.loc 1 345 0
 744 0004 BDE81040 		pop	{r4, lr}
 745              		.loc 1 341 0
 746 0008 FFF7FEBF 		b	chMtxUnlock
 747              	.LVL52:
 748              	.L49:
 749              		.loc 1 337 0 discriminator 1
 750 000c 0148     		ldr	r0, .L50
 751              	.LVL53:
 752 000e FFF7FEFF 		bl	chDbgPanic
 753 0012 F7E7     		b	.L48
 754              	.L51:
 755              		.align	2
 756              	.L50:
 757 0014 FC000000 		.word	.LC12
 758              		.cfi_endproc
 759              	.LFE72:
 760              		.size	adcReleaseBus, .-adcReleaseBus
 761 0018 AFF30080 		.section	.rodata.str1.4,"aMS",%progbits,1
 761      AFF30080 
 762              		.align	2
 763              	.LC0:
 764 0000 22616463 		.ascii	"\"adcStart\"()\000"
 764      53746172 
 764      74222829 
 764      00
 765 000d 000000   		.space	3
 766              	.LC1:
 767 0010 61646353 		.ascii	"adcStart(), #1\000"
 767      74617274 
 767      28292C20 
 767      233100
 768 001f 00       		.space	1
 769              	.LC2:
 770 0020 22616463 		.ascii	"\"adcStop\"()\000"
 770      53746F70 
 770      22282900 
 771              	.LC3:
 772 002c 61646353 		.ascii	"adcStop(), #1\000"
 772      746F7028 
 772      292C2023 
 772      3100
 773 003a 0000     		.space	2
 774              	.LC4:
ARM GAS  /tmp/cctqM4r3.s 			page 15


 775 003c 22616463 		.ascii	"\"adcStartConversionI\"()\000"
 775      53746172 
 775      74436F6E 
 775      76657273 
 775      696F6E49 
 776              	.LC5:
 777 0054 61646353 		.ascii	"adcStartConversionI(), #1\000"
 777      74617274 
 777      436F6E76 
 777      65727369 
 777      6F6E4928 
 778 006e 0000     		.space	2
 779              	.LC6:
 780 0070 22616463 		.ascii	"\"adcStopConversion\"()\000"
 780      53746F70 
 780      436F6E76 
 780      65727369 
 780      6F6E2228 
 781 0086 0000     		.space	2
 782              	.LC7:
 783 0088 61646353 		.ascii	"adcStopConversion(), #1\000"
 783      746F7043 
 783      6F6E7665 
 783      7273696F 
 783      6E28292C 
 784              	.LC8:
 785 00a0 22616463 		.ascii	"\"adcStopConversionI\"()\000"
 785      53746F70 
 785      436F6E76 
 785      65727369 
 785      6F6E4922 
 786 00b7 00       		.space	1
 787              	.LC9:
 788 00b8 61646353 		.ascii	"adcStopConversionI(), #1\000"
 788      746F7043 
 788      6F6E7665 
 788      7273696F 
 788      6E492829 
 789 00d1 000000   		.space	3
 790              	.LC10:
 791 00d4 61646343 		.ascii	"adcConvert(), #1\000"
 791      6F6E7665 
 791      72742829 
 791      2C202331 
 791      00
 792 00e5 000000   		.space	3
 793              	.LC11:
 794 00e8 22616463 		.ascii	"\"adcAcquireBus\"()\000"
 794      41637175 
 794      69726542 
 794      75732228 
 794      2900
 795 00fa 0000     		.space	2
 796              	.LC12:
 797 00fc 22616463 		.ascii	"\"adcReleaseBus\"()\000"
 797      52656C65 
 797      61736542 
ARM GAS  /tmp/cctqM4r3.s 			page 16


 797      75732228 
 797      2900
 798 010e 0000     		.text
 799              	.Letext0:
 800              		.section	.debug_loc,"",%progbits
 801              	.Ldebug_loc0:
 802              	.LLST0:
 803 0000 00000000 		.4byte	.LVL0
 804 0004 12000000 		.4byte	.LVL1
 805 0008 0100     		.2byte	0x1
 806 000a 50       		.byte	0x50
 807 000b 12000000 		.4byte	.LVL1
 808 000f 16000000 		.4byte	.LFE63
 809 0013 0300     		.2byte	0x3
 810 0015 70       		.byte	0x70
 811 0016 68       		.sleb128 -24
 812 0017 9F       		.byte	0x9f
 813 0018 00000000 		.4byte	0x0
 814 001c 00000000 		.4byte	0x0
 815              	.LLST1:
 816 0020 00000000 		.4byte	.LFB64
 817 0024 02000000 		.4byte	.LCFI0
 818 0028 0200     		.2byte	0x2
 819 002a 7D       		.byte	0x7d
 820 002b 00       		.sleb128 0
 821 002c 02000000 		.4byte	.LCFI0
 822 0030 4C000000 		.4byte	.LFE64
 823 0034 0200     		.2byte	0x2
 824 0036 7D       		.byte	0x7d
 825 0037 10       		.sleb128 16
 826 0038 00000000 		.4byte	0x0
 827 003c 00000000 		.4byte	0x0
 828              	.LLST2:
 829 0040 00000000 		.4byte	.LVL2
 830 0044 08000000 		.4byte	.LVL3
 831 0048 0100     		.2byte	0x1
 832 004a 50       		.byte	0x50
 833 004b 08000000 		.4byte	.LVL3
 834 004f 4C000000 		.4byte	.LFE64
 835 0053 0100     		.2byte	0x1
 836 0055 54       		.byte	0x54
 837 0056 00000000 		.4byte	0x0
 838 005a 00000000 		.4byte	0x0
 839              	.LLST3:
 840 005e 00000000 		.4byte	.LVL2
 841 0062 08000000 		.4byte	.LVL3
 842 0066 0100     		.2byte	0x1
 843 0068 51       		.byte	0x51
 844 0069 08000000 		.4byte	.LVL3
 845 006d 4C000000 		.4byte	.LFE64
 846 0071 0100     		.2byte	0x1
 847 0073 55       		.byte	0x55
 848 0074 00000000 		.4byte	0x0
 849 0078 00000000 		.4byte	0x0
 850              	.LLST4:
 851 007c 0E000000 		.4byte	.LVL5
 852 0080 11000000 		.4byte	.LVL6-1
ARM GAS  /tmp/cctqM4r3.s 			page 17


 853 0084 0100     		.2byte	0x1
 854 0086 53       		.byte	0x53
 855 0087 00000000 		.4byte	0x0
 856 008b 00000000 		.4byte	0x0
 857              	.LLST5:
 858 008f 38000000 		.4byte	.LVL8
 859 0093 3A000000 		.4byte	.LVL9
 860 0097 0100     		.2byte	0x1
 861 0099 53       		.byte	0x53
 862 009a 00000000 		.4byte	0x0
 863 009e 00000000 		.4byte	0x0
 864              	.LLST6:
 865 00a2 00000000 		.4byte	.LFB65
 866 00a6 02000000 		.4byte	.LCFI1
 867 00aa 0200     		.2byte	0x2
 868 00ac 7D       		.byte	0x7d
 869 00ad 00       		.sleb128 0
 870 00ae 02000000 		.4byte	.LCFI1
 871 00b2 48000000 		.4byte	.LFE65
 872 00b6 0200     		.2byte	0x2
 873 00b8 7D       		.byte	0x7d
 874 00b9 08       		.sleb128 8
 875 00ba 00000000 		.4byte	0x0
 876 00be 00000000 		.4byte	0x0
 877              	.LLST7:
 878 00c2 00000000 		.4byte	.LVL10
 879 00c6 06000000 		.4byte	.LVL11
 880 00ca 0100     		.2byte	0x1
 881 00cc 50       		.byte	0x50
 882 00cd 06000000 		.4byte	.LVL11
 883 00d1 48000000 		.4byte	.LFE65
 884 00d5 0100     		.2byte	0x1
 885 00d7 54       		.byte	0x54
 886 00d8 00000000 		.4byte	0x0
 887 00dc 00000000 		.4byte	0x0
 888              	.LLST8:
 889 00e0 0C000000 		.4byte	.LVL13
 890 00e4 0F000000 		.4byte	.LVL14-1
 891 00e8 0100     		.2byte	0x1
 892 00ea 53       		.byte	0x53
 893 00eb 00000000 		.4byte	0x0
 894 00ef 00000000 		.4byte	0x0
 895              	.LLST9:
 896 00f3 34000000 		.4byte	.LVL16
 897 00f7 36000000 		.4byte	.LVL17
 898 00fb 0100     		.2byte	0x1
 899 00fd 53       		.byte	0x53
 900 00fe 00000000 		.4byte	0x0
 901 0102 00000000 		.4byte	0x0
 902              	.LLST10:
 903 0106 00000000 		.4byte	.LFB67
 904 010a 04000000 		.4byte	.LCFI2
 905 010e 0200     		.2byte	0x2
 906 0110 7D       		.byte	0x7d
 907 0111 00       		.sleb128 0
 908 0112 04000000 		.4byte	.LCFI2
 909 0116 58000000 		.4byte	.LFE67
ARM GAS  /tmp/cctqM4r3.s 			page 18


 910 011a 0200     		.2byte	0x2
 911 011c 7D       		.byte	0x7d
 912 011d 18       		.sleb128 24
 913 011e 00000000 		.4byte	0x0
 914 0122 00000000 		.4byte	0x0
 915              	.LLST11:
 916 0126 00000000 		.4byte	.LVL18
 917 012a 0F000000 		.4byte	.LVL19-1
 918 012e 0100     		.2byte	0x1
 919 0130 50       		.byte	0x50
 920 0131 0F000000 		.4byte	.LVL19-1
 921 0135 58000000 		.4byte	.LFE67
 922 0139 0100     		.2byte	0x1
 923 013b 54       		.byte	0x54
 924 013c 00000000 		.4byte	0x0
 925 0140 00000000 		.4byte	0x0
 926              	.LLST12:
 927 0144 00000000 		.4byte	.LVL18
 928 0148 0F000000 		.4byte	.LVL19-1
 929 014c 0100     		.2byte	0x1
 930 014e 51       		.byte	0x51
 931 014f 0F000000 		.4byte	.LVL19-1
 932 0153 58000000 		.4byte	.LFE67
 933 0157 0100     		.2byte	0x1
 934 0159 55       		.byte	0x55
 935 015a 00000000 		.4byte	0x0
 936 015e 00000000 		.4byte	0x0
 937              	.LLST13:
 938 0162 00000000 		.4byte	.LVL18
 939 0166 0F000000 		.4byte	.LVL19-1
 940 016a 0100     		.2byte	0x1
 941 016c 52       		.byte	0x52
 942 016d 0F000000 		.4byte	.LVL19-1
 943 0171 58000000 		.4byte	.LFE67
 944 0175 0100     		.2byte	0x1
 945 0177 56       		.byte	0x56
 946 0178 00000000 		.4byte	0x0
 947 017c 00000000 		.4byte	0x0
 948              	.LLST14:
 949 0180 00000000 		.4byte	.LVL18
 950 0184 0F000000 		.4byte	.LVL19-1
 951 0188 0100     		.2byte	0x1
 952 018a 53       		.byte	0x53
 953 018b 0F000000 		.4byte	.LVL19-1
 954 018f 58000000 		.4byte	.LFE67
 955 0193 0100     		.2byte	0x1
 956 0195 57       		.byte	0x57
 957 0196 00000000 		.4byte	0x0
 958 019a 00000000 		.4byte	0x0
 959              	.LLST15:
 960 019e 00000000 		.4byte	.LFB66
 961 01a2 02000000 		.4byte	.LCFI3
 962 01a6 0200     		.2byte	0x2
 963 01a8 7D       		.byte	0x7d
 964 01a9 00       		.sleb128 0
 965 01aa 02000000 		.4byte	.LCFI3
 966 01ae 2C000000 		.4byte	.LFE66
ARM GAS  /tmp/cctqM4r3.s 			page 19


 967 01b2 0200     		.2byte	0x2
 968 01b4 7D       		.byte	0x7d
 969 01b5 18       		.sleb128 24
 970 01b6 00000000 		.4byte	0x0
 971 01ba 00000000 		.4byte	0x0
 972              	.LLST16:
 973 01be 00000000 		.4byte	.LVL20
 974 01c2 13000000 		.4byte	.LVL23-1
 975 01c6 0100     		.2byte	0x1
 976 01c8 50       		.byte	0x50
 977 01c9 13000000 		.4byte	.LVL23-1
 978 01cd 2C000000 		.4byte	.LFE66
 979 01d1 0100     		.2byte	0x1
 980 01d3 57       		.byte	0x57
 981 01d4 00000000 		.4byte	0x0
 982 01d8 00000000 		.4byte	0x0
 983              	.LLST17:
 984 01dc 00000000 		.4byte	.LVL20
 985 01e0 13000000 		.4byte	.LVL23-1
 986 01e4 0100     		.2byte	0x1
 987 01e6 51       		.byte	0x51
 988 01e7 13000000 		.4byte	.LVL23-1
 989 01eb 2C000000 		.4byte	.LFE66
 990 01ef 0100     		.2byte	0x1
 991 01f1 56       		.byte	0x56
 992 01f2 00000000 		.4byte	0x0
 993 01f6 00000000 		.4byte	0x0
 994              	.LLST18:
 995 01fa 00000000 		.4byte	.LVL20
 996 01fe 13000000 		.4byte	.LVL23-1
 997 0202 0100     		.2byte	0x1
 998 0204 52       		.byte	0x52
 999 0205 13000000 		.4byte	.LVL23-1
 1000 0209 2C000000 		.4byte	.LFE66
 1001 020d 0100     		.2byte	0x1
 1002 020f 55       		.byte	0x55
 1003 0210 00000000 		.4byte	0x0
 1004 0214 00000000 		.4byte	0x0
 1005              	.LLST19:
 1006 0218 00000000 		.4byte	.LVL20
 1007 021c 0C000000 		.4byte	.LVL21
 1008 0220 0100     		.2byte	0x1
 1009 0222 53       		.byte	0x53
 1010 0223 0C000000 		.4byte	.LVL21
 1011 0227 2C000000 		.4byte	.LFE66
 1012 022b 0100     		.2byte	0x1
 1013 022d 54       		.byte	0x54
 1014 022e 00000000 		.4byte	0x0
 1015 0232 00000000 		.4byte	0x0
 1016              	.LLST20:
 1017 0236 10000000 		.4byte	.LVL22
 1018 023a 13000000 		.4byte	.LVL23-1
 1019 023e 0100     		.2byte	0x1
 1020 0240 53       		.byte	0x53
 1021 0241 00000000 		.4byte	0x0
 1022 0245 00000000 		.4byte	0x0
 1023              	.LLST21:
ARM GAS  /tmp/cctqM4r3.s 			page 20


 1024 0249 2A000000 		.4byte	.LVL25
 1025 024d 2C000000 		.4byte	.LFE66
 1026 0251 0100     		.2byte	0x1
 1027 0253 53       		.byte	0x53
 1028 0254 00000000 		.4byte	0x0
 1029 0258 00000000 		.4byte	0x0
 1030              	.LLST22:
 1031 025c 00000000 		.4byte	.LFB68
 1032 0260 02000000 		.4byte	.LCFI4
 1033 0264 0200     		.2byte	0x2
 1034 0266 7D       		.byte	0x7d
 1035 0267 00       		.sleb128 0
 1036 0268 02000000 		.4byte	.LCFI4
 1037 026c 60000000 		.4byte	.LFE68
 1038 0270 0200     		.2byte	0x2
 1039 0272 7D       		.byte	0x7d
 1040 0273 08       		.sleb128 8
 1041 0274 00000000 		.4byte	0x0
 1042 0278 00000000 		.4byte	0x0
 1043              	.LLST23:
 1044 027c 00000000 		.4byte	.LVL26
 1045 0280 06000000 		.4byte	.LVL27
 1046 0284 0100     		.2byte	0x1
 1047 0286 50       		.byte	0x50
 1048 0287 06000000 		.4byte	.LVL27
 1049 028b 60000000 		.4byte	.LFE68
 1050 028f 0100     		.2byte	0x1
 1051 0291 54       		.byte	0x54
 1052 0292 00000000 		.4byte	0x0
 1053 0296 00000000 		.4byte	0x0
 1054              	.LLST24:
 1055 029a 0C000000 		.4byte	.LVL29
 1056 029e 0F000000 		.4byte	.LVL30-1
 1057 02a2 0100     		.2byte	0x1
 1058 02a4 53       		.byte	0x53
 1059 02a5 00000000 		.4byte	0x0
 1060 02a9 00000000 		.4byte	0x0
 1061              	.LLST25:
 1062 02ad 38000000 		.4byte	.LVL31
 1063 02b1 41000000 		.4byte	.LVL32-1
 1064 02b5 0200     		.2byte	0x2
 1065 02b7 74       		.byte	0x74
 1066 02b8 14       		.sleb128 20
 1067 02b9 00000000 		.4byte	0x0
 1068 02bd 00000000 		.4byte	0x0
 1069              	.LLST26:
 1070 02c1 4C000000 		.4byte	.LVL34
 1071 02c5 4E000000 		.4byte	.LVL35
 1072 02c9 0100     		.2byte	0x1
 1073 02cb 53       		.byte	0x53
 1074 02cc 00000000 		.4byte	0x0
 1075 02d0 00000000 		.4byte	0x0
 1076              	.LLST27:
 1077 02d4 00000000 		.4byte	.LFB69
 1078 02d8 02000000 		.4byte	.LCFI5
 1079 02dc 0200     		.2byte	0x2
 1080 02de 7D       		.byte	0x7d
ARM GAS  /tmp/cctqM4r3.s 			page 21


 1081 02df 00       		.sleb128 0
 1082 02e0 02000000 		.4byte	.LCFI5
 1083 02e4 5C000000 		.4byte	.LFE69
 1084 02e8 0200     		.2byte	0x2
 1085 02ea 7D       		.byte	0x7d
 1086 02eb 08       		.sleb128 8
 1087 02ec 00000000 		.4byte	0x0
 1088 02f0 00000000 		.4byte	0x0
 1089              	.LLST28:
 1090 02f4 00000000 		.4byte	.LVL36
 1091 02f8 07000000 		.4byte	.LVL37-1
 1092 02fc 0100     		.2byte	0x1
 1093 02fe 50       		.byte	0x50
 1094 02ff 07000000 		.4byte	.LVL37-1
 1095 0303 5C000000 		.4byte	.LFE69
 1096 0307 0100     		.2byte	0x1
 1097 0309 54       		.byte	0x54
 1098 030a 00000000 		.4byte	0x0
 1099 030e 00000000 		.4byte	0x0
 1100              	.LLST29:
 1101 0312 2C000000 		.4byte	.LVL38
 1102 0316 3D000000 		.4byte	.LVL39-1
 1103 031a 0200     		.2byte	0x2
 1104 031c 74       		.byte	0x74
 1105 031d 14       		.sleb128 20
 1106 031e 00000000 		.4byte	0x0
 1107 0322 00000000 		.4byte	0x0
 1108              	.LLST30:
 1109 0326 00000000 		.4byte	.LFB70
 1110 032a 04000000 		.4byte	.LCFI6
 1111 032e 0200     		.2byte	0x2
 1112 0330 7D       		.byte	0x7d
 1113 0331 00       		.sleb128 0
 1114 0332 04000000 		.4byte	.LCFI6
 1115 0336 54000000 		.4byte	.LFE70
 1116 033a 0200     		.2byte	0x2
 1117 033c 7D       		.byte	0x7d
 1118 033d 18       		.sleb128 24
 1119 033e 00000000 		.4byte	0x0
 1120 0342 00000000 		.4byte	0x0
 1121              	.LLST31:
 1122 0346 00000000 		.4byte	.LVL40
 1123 034a 15000000 		.4byte	.LVL43-1
 1124 034e 0100     		.2byte	0x1
 1125 0350 50       		.byte	0x50
 1126 0351 15000000 		.4byte	.LVL43-1
 1127 0355 3C000000 		.4byte	.LVL44
 1128 0359 0100     		.2byte	0x1
 1129 035b 54       		.byte	0x54
 1130 035c 00000000 		.4byte	0x0
 1131 0360 00000000 		.4byte	0x0
 1132              	.LLST32:
 1133 0364 00000000 		.4byte	.LVL40
 1134 0368 15000000 		.4byte	.LVL43-1
 1135 036c 0100     		.2byte	0x1
 1136 036e 51       		.byte	0x51
 1137 036f 15000000 		.4byte	.LVL43-1
ARM GAS  /tmp/cctqM4r3.s 			page 22


 1138 0373 54000000 		.4byte	.LFE70
 1139 0377 0100     		.2byte	0x1
 1140 0379 58       		.byte	0x58
 1141 037a 00000000 		.4byte	0x0
 1142 037e 00000000 		.4byte	0x0
 1143              	.LLST33:
 1144 0382 00000000 		.4byte	.LVL40
 1145 0386 15000000 		.4byte	.LVL43-1
 1146 038a 0100     		.2byte	0x1
 1147 038c 52       		.byte	0x52
 1148 038d 15000000 		.4byte	.LVL43-1
 1149 0391 54000000 		.4byte	.LFE70
 1150 0395 0100     		.2byte	0x1
 1151 0397 57       		.byte	0x57
 1152 0398 00000000 		.4byte	0x0
 1153 039c 00000000 		.4byte	0x0
 1154              	.LLST34:
 1155 03a0 00000000 		.4byte	.LVL40
 1156 03a4 0E000000 		.4byte	.LVL41
 1157 03a8 0100     		.2byte	0x1
 1158 03aa 53       		.byte	0x53
 1159 03ab 0E000000 		.4byte	.LVL41
 1160 03af 54000000 		.4byte	.LFE70
 1161 03b3 0100     		.2byte	0x1
 1162 03b5 56       		.byte	0x56
 1163 03b6 00000000 		.4byte	0x0
 1164 03ba 00000000 		.4byte	0x0
 1165              	.LLST35:
 1166 03be 3C000000 		.4byte	.LVL44
 1167 03c2 3F000000 		.4byte	.LVL45-1
 1168 03c6 0500     		.2byte	0x5
 1169 03c8 75       		.byte	0x75
 1170 03c9 1C       		.sleb128 28
 1171 03ca 06       		.byte	0x6
 1172 03cb 23       		.byte	0x23
 1173 03cc 28       		.uleb128 0x28
 1174 03cd 3F000000 		.4byte	.LVL45-1
 1175 03d1 54000000 		.4byte	.LFE70
 1176 03d5 0100     		.2byte	0x1
 1177 03d7 54       		.byte	0x54
 1178 03d8 00000000 		.4byte	0x0
 1179 03dc 00000000 		.4byte	0x0
 1180              	.LLST36:
 1181 03e0 12000000 		.4byte	.LVL42
 1182 03e4 15000000 		.4byte	.LVL43-1
 1183 03e8 0100     		.2byte	0x1
 1184 03ea 53       		.byte	0x53
 1185 03eb 00000000 		.4byte	0x0
 1186 03ef 00000000 		.4byte	0x0
 1187              	.LLST37:
 1188 03f3 46000000 		.4byte	.LVL47
 1189 03f7 54000000 		.4byte	.LFE70
 1190 03fb 0100     		.2byte	0x1
 1191 03fd 53       		.byte	0x53
 1192 03fe 00000000 		.4byte	0x0
 1193 0402 00000000 		.4byte	0x0
 1194              	.LLST38:
ARM GAS  /tmp/cctqM4r3.s 			page 23


 1195 0406 00000000 		.4byte	.LFB71
 1196 040a 02000000 		.4byte	.LCFI7
 1197 040e 0200     		.2byte	0x2
 1198 0410 7D       		.byte	0x7d
 1199 0411 00       		.sleb128 0
 1200 0412 02000000 		.4byte	.LCFI7
 1201 0416 20000000 		.4byte	.LFE71
 1202 041a 0200     		.2byte	0x2
 1203 041c 7D       		.byte	0x7d
 1204 041d 08       		.sleb128 8
 1205 041e 00000000 		.4byte	0x0
 1206 0422 00000000 		.4byte	0x0
 1207              	.LLST39:
 1208 0426 00000000 		.4byte	.LVL48
 1209 042a 06000000 		.4byte	.LVL49
 1210 042e 0100     		.2byte	0x1
 1211 0430 50       		.byte	0x50
 1212 0431 06000000 		.4byte	.LVL49
 1213 0435 20000000 		.4byte	.LFE71
 1214 0439 0100     		.2byte	0x1
 1215 043b 54       		.byte	0x54
 1216 043c 00000000 		.4byte	0x0
 1217 0440 00000000 		.4byte	0x0
 1218              	.LLST40:
 1219 0444 00000000 		.4byte	.LFB72
 1220 0448 02000000 		.4byte	.LCFI8
 1221 044c 0200     		.2byte	0x2
 1222 044e 7D       		.byte	0x7d
 1223 044f 00       		.sleb128 0
 1224 0450 02000000 		.4byte	.LCFI8
 1225 0454 18000000 		.4byte	.LFE72
 1226 0458 0200     		.2byte	0x2
 1227 045a 7D       		.byte	0x7d
 1228 045b 08       		.sleb128 8
 1229 045c 00000000 		.4byte	0x0
 1230 0460 00000000 		.4byte	0x0
 1231              	.LLST41:
 1232 0464 00000000 		.4byte	.LVL50
 1233 0468 04000000 		.4byte	.LVL51
 1234 046c 0100     		.2byte	0x1
 1235 046e 50       		.byte	0x50
 1236 046f 0C000000 		.4byte	.LVL52
 1237 0473 0E000000 		.4byte	.LVL53
 1238 0477 0100     		.2byte	0x1
 1239 0479 50       		.byte	0x50
 1240 047a 00000000 		.4byte	0x0
 1241 047e 00000000 		.4byte	0x0
 1242              		.file 2 "/home/z80/programs/code-sourcery/2011.03-42/bin/../lib/gcc/arm-none-eabi/4.5.2/include/st
 1243              		.file 3 "/home/z80/programs/code-sourcery/2011.03-42/bin/../lib/gcc/arm-none-eabi/4.5.2/../../../.
 1244              		.file 4 "../chibios_2.4.x/os/ports/GCC/ARMCMx/chtypes.h"
 1245              		.file 5 "../chibios_2.4.x/os/kernel/include/chlists.h"
 1246              		.file 6 "../chibios_2.4.x/os/kernel/include/chthreads.h"
 1247              		.file 7 "../chibios_2.4.x/os/ports/GCC/ARMCMx/chcore_v7m.h"
 1248              		.file 8 "../chibios_2.4.x/os/kernel/include/chschd.h"
 1249              		.file 9 "../chibios_2.4.x/os/kernel/include/chmtx.h"
 1250              		.file 10 "../chibios_2.4.x/os/hal/platforms/STM32F1xx/stm32f10x.h"
 1251              		.file 11 "../chibios_2.4.x/os/hal/platforms/STM32F1xx/stm32_dma.h"
ARM GAS  /tmp/cctqM4r3.s 			page 24


 1252              		.file 12 "../chibios_2.4.x/os/hal/include/adc.h"
 1253              		.file 13 "../chibios_2.4.x/os/hal/platforms/STM32F1xx/adc_lld.h"
 1254              		.file 14 "../chibios_2.4.x/os/ports/common/ARMCMx/CMSIS/include/core_cm3.h"
 1255              		.section	.debug_info
 1256 0000 8F0C0000 		.4byte	0xc8f
 1257 0004 0200     		.2byte	0x2
 1258 0006 00000000 		.4byte	.Ldebug_abbrev0
 1259 000a 04       		.byte	0x4
 1260 000b 01       		.uleb128 0x1
 1261 000c 19020000 		.4byte	.LASF136
 1262 0010 01       		.byte	0x1
 1263 0011 7C030000 		.4byte	.LASF137
 1264 0015 52020000 		.4byte	.LASF138
 1265 0019 00000000 		.4byte	0x0
 1266 001d 00000000 		.4byte	0x0
 1267 0021 18000000 		.4byte	.Ldebug_ranges0+0x18
 1268 0025 00000000 		.4byte	.Ldebug_line0
 1269 0029 02       		.uleb128 0x2
 1270 002a 04       		.byte	0x4
 1271 002b 05       		.byte	0x5
 1272 002c 696E7400 		.ascii	"int\000"
 1273 0030 03       		.uleb128 0x3
 1274 0031 00000000 		.4byte	.LASF2
 1275 0035 02       		.byte	0x2
 1276 0036 D3       		.byte	0xd3
 1277 0037 3B000000 		.4byte	0x3b
 1278 003b 04       		.uleb128 0x4
 1279 003c 04       		.byte	0x4
 1280 003d 07       		.byte	0x7
 1281 003e 9B010000 		.4byte	.LASF0
 1282 0042 04       		.uleb128 0x4
 1283 0043 01       		.byte	0x1
 1284 0044 06       		.byte	0x6
 1285 0045 77000000 		.4byte	.LASF1
 1286 0049 03       		.uleb128 0x3
 1287 004a AE040000 		.4byte	.LASF3
 1288 004e 03       		.byte	0x3
 1289 004f 2A       		.byte	0x2a
 1290 0050 54000000 		.4byte	0x54
 1291 0054 04       		.uleb128 0x4
 1292 0055 01       		.byte	0x1
 1293 0056 08       		.byte	0x8
 1294 0057 6E030000 		.4byte	.LASF4
 1295 005b 04       		.uleb128 0x4
 1296 005c 02       		.byte	0x2
 1297 005d 05       		.byte	0x5
 1298 005e A8030000 		.4byte	.LASF5
 1299 0062 03       		.uleb128 0x3
 1300 0063 F2000000 		.4byte	.LASF6
 1301 0067 03       		.byte	0x3
 1302 0068 36       		.byte	0x36
 1303 0069 6D000000 		.4byte	0x6d
 1304 006d 04       		.uleb128 0x4
 1305 006e 02       		.byte	0x2
 1306 006f 07       		.byte	0x7
 1307 0070 F0010000 		.4byte	.LASF7
 1308 0074 03       		.uleb128 0x3
ARM GAS  /tmp/cctqM4r3.s 			page 25


 1309 0075 66030000 		.4byte	.LASF8
 1310 0079 03       		.byte	0x3
 1311 007a 4F       		.byte	0x4f
 1312 007b 7F000000 		.4byte	0x7f
 1313 007f 04       		.uleb128 0x4
 1314 0080 04       		.byte	0x4
 1315 0081 05       		.byte	0x5
 1316 0082 B3000000 		.4byte	.LASF9
 1317 0086 03       		.uleb128 0x3
 1318 0087 FE030000 		.4byte	.LASF10
 1319 008b 03       		.byte	0x3
 1320 008c 50       		.byte	0x50
 1321 008d 91000000 		.4byte	0x91
 1322 0091 04       		.uleb128 0x4
 1323 0092 04       		.byte	0x4
 1324 0093 07       		.byte	0x7
 1325 0094 1B040000 		.4byte	.LASF11
 1326 0098 04       		.uleb128 0x4
 1327 0099 08       		.byte	0x8
 1328 009a 05       		.byte	0x5
 1329 009b 69000000 		.4byte	.LASF12
 1330 009f 03       		.uleb128 0x3
 1331 00a0 D2020000 		.4byte	.LASF13
 1332 00a4 03       		.byte	0x3
 1333 00a5 78       		.byte	0x78
 1334 00a6 AA000000 		.4byte	0xaa
 1335 00aa 04       		.uleb128 0x4
 1336 00ab 08       		.byte	0x8
 1337 00ac 07       		.byte	0x7
 1338 00ad 29000000 		.4byte	.LASF14
 1339 00b1 03       		.uleb128 0x3
 1340 00b2 83000000 		.4byte	.LASF15
 1341 00b6 04       		.byte	0x4
 1342 00b7 2E       		.byte	0x2e
 1343 00b8 74000000 		.4byte	0x74
 1344 00bc 03       		.uleb128 0x3
 1345 00bd 25020000 		.4byte	.LASF16
 1346 00c1 04       		.byte	0x4
 1347 00c2 2F       		.byte	0x2f
 1348 00c3 49000000 		.4byte	0x49
 1349 00c7 03       		.uleb128 0x3
 1350 00c8 E2000000 		.4byte	.LASF17
 1351 00cc 04       		.byte	0x4
 1352 00cd 30       		.byte	0x30
 1353 00ce 49000000 		.4byte	0x49
 1354 00d2 03       		.uleb128 0x3
 1355 00d3 58030000 		.4byte	.LASF18
 1356 00d7 04       		.byte	0x4
 1357 00d8 32       		.byte	0x32
 1358 00d9 86000000 		.4byte	0x86
 1359 00dd 03       		.uleb128 0x3
 1360 00de 13020000 		.4byte	.LASF19
 1361 00e2 04       		.byte	0x4
 1362 00e3 33       		.byte	0x33
 1363 00e4 74000000 		.4byte	0x74
 1364 00e8 03       		.uleb128 0x3
 1365 00e9 46020000 		.4byte	.LASF20
ARM GAS  /tmp/cctqM4r3.s 			page 26


 1366 00ed 04       		.byte	0x4
 1367 00ee 35       		.byte	0x35
 1368 00ef 86000000 		.4byte	0x86
 1369 00f3 03       		.uleb128 0x3
 1370 00f4 48040000 		.4byte	.LASF21
 1371 00f8 04       		.byte	0x4
 1372 00f9 36       		.byte	0x36
 1373 00fa 86000000 		.4byte	0x86
 1374 00fe 03       		.uleb128 0x3
 1375 00ff 8A010000 		.4byte	.LASF22
 1376 0103 04       		.byte	0x4
 1377 0104 37       		.byte	0x37
 1378 0105 74000000 		.4byte	0x74
 1379 0109 03       		.uleb128 0x3
 1380 010a 6D010000 		.4byte	.LASF23
 1381 010e 05       		.byte	0x5
 1382 010f 2A       		.byte	0x2a
 1383 0110 14010000 		.4byte	0x114
 1384 0114 05       		.uleb128 0x5
 1385 0115 6D010000 		.4byte	.LASF23
 1386 0119 48       		.byte	0x48
 1387 011a 06       		.byte	0x6
 1388 011b 5E       		.byte	0x5e
 1389 011c 1D020000 		.4byte	0x21d
 1390 0120 06       		.uleb128 0x6
 1391 0121 D1030000 		.4byte	.LASF24
 1392 0125 06       		.byte	0x6
 1393 0126 5F       		.byte	0x5f
 1394 0127 42020000 		.4byte	0x242
 1395 012b 02       		.byte	0x2
 1396 012c 23       		.byte	0x23
 1397 012d 00       		.uleb128 0x0
 1398 012e 06       		.uleb128 0x6
 1399 012f 3E030000 		.4byte	.LASF25
 1400 0133 06       		.byte	0x6
 1401 0134 61       		.byte	0x61
 1402 0135 42020000 		.4byte	0x242
 1403 0139 02       		.byte	0x2
 1404 013a 23       		.byte	0x23
 1405 013b 04       		.uleb128 0x4
 1406 013c 06       		.uleb128 0x6
 1407 013d 5D000000 		.4byte	.LASF26
 1408 0141 06       		.byte	0x6
 1409 0142 63       		.byte	0x63
 1410 0143 D2000000 		.4byte	0xd2
 1411 0147 02       		.byte	0x2
 1412 0148 23       		.byte	0x23
 1413 0149 08       		.uleb128 0x8
 1414 014a 06       		.uleb128 0x6
 1415 014b 56050000 		.4byte	.LASF27
 1416 014f 06       		.byte	0x6
 1417 0150 64       		.byte	0x64
 1418 0151 1A030000 		.4byte	0x31a
 1419 0155 02       		.byte	0x2
 1420 0156 23       		.byte	0x23
 1421 0157 0C       		.uleb128 0xc
 1422 0158 06       		.uleb128 0x6
ARM GAS  /tmp/cctqM4r3.s 			page 27


 1423 0159 0E010000 		.4byte	.LASF28
 1424 015d 06       		.byte	0x6
 1425 015e 66       		.byte	0x66
 1426 015f 42020000 		.4byte	0x242
 1427 0163 02       		.byte	0x2
 1428 0164 23       		.byte	0x23
 1429 0165 10       		.uleb128 0x10
 1430 0166 06       		.uleb128 0x6
 1431 0167 DB020000 		.4byte	.LASF29
 1432 016b 06       		.byte	0x6
 1433 016c 67       		.byte	0x67
 1434 016d 42020000 		.4byte	0x242
 1435 0171 02       		.byte	0x2
 1436 0172 23       		.byte	0x23
 1437 0173 14       		.uleb128 0x14
 1438 0174 06       		.uleb128 0x6
 1439 0175 04050000 		.4byte	.LASF30
 1440 0179 06       		.byte	0x6
 1441 017a 6E       		.byte	0x6e
 1442 017b 3A040000 		.4byte	0x43a
 1443 017f 02       		.byte	0x2
 1444 0180 23       		.byte	0x23
 1445 0181 18       		.uleb128 0x18
 1446 0182 06       		.uleb128 0x6
 1447 0183 90010000 		.4byte	.LASF31
 1448 0187 06       		.byte	0x6
 1449 0188 74       		.byte	0x74
 1450 0189 4C040000 		.4byte	0x44c
 1451 018d 02       		.byte	0x2
 1452 018e 23       		.byte	0x23
 1453 018f 1C       		.uleb128 0x1c
 1454 0190 06       		.uleb128 0x6
 1455 0191 B2030000 		.4byte	.LASF32
 1456 0195 06       		.byte	0x6
 1457 0196 79       		.byte	0x79
 1458 0197 C7000000 		.4byte	0xc7
 1459 019b 02       		.byte	0x2
 1460 019c 23       		.byte	0x23
 1461 019d 20       		.uleb128 0x20
 1462 019e 06       		.uleb128 0x6
 1463 019f D8030000 		.4byte	.LASF33
 1464 01a3 06       		.byte	0x6
 1465 01a4 7D       		.byte	0x7d
 1466 01a5 BC000000 		.4byte	0xbc
 1467 01a9 02       		.byte	0x2
 1468 01aa 23       		.byte	0x23
 1469 01ab 21       		.uleb128 0x21
 1470 01ac 06       		.uleb128 0x6
 1471 01ad FB000000 		.4byte	.LASF34
 1472 01b1 06       		.byte	0x6
 1473 01b2 89       		.byte	0x89
 1474 01b3 42030000 		.4byte	0x342
 1475 01b7 02       		.byte	0x2
 1476 01b8 23       		.byte	0x23
 1477 01b9 24       		.uleb128 0x24
 1478 01ba 07       		.uleb128 0x7
 1479 01bb 705F7500 		.ascii	"p_u\000"
ARM GAS  /tmp/cctqM4r3.s 			page 28


 1480 01bf 06       		.byte	0x6
 1481 01c0 AE       		.byte	0xae
 1482 01c1 05040000 		.4byte	0x405
 1483 01c5 02       		.byte	0x2
 1484 01c6 23       		.byte	0x23
 1485 01c7 28       		.uleb128 0x28
 1486 01c8 06       		.uleb128 0x6
 1487 01c9 5C050000 		.4byte	.LASF35
 1488 01cd 06       		.byte	0x6
 1489 01ce B3       		.byte	0xb3
 1490 01cf 6A020000 		.4byte	0x26a
 1491 01d3 02       		.byte	0x2
 1492 01d4 23       		.byte	0x23
 1493 01d5 2C       		.uleb128 0x2c
 1494 01d6 06       		.uleb128 0x6
 1495 01d7 BB010000 		.4byte	.LASF36
 1496 01db 06       		.byte	0x6
 1497 01dc B9       		.byte	0xb9
 1498 01dd 48020000 		.4byte	0x248
 1499 01e1 02       		.byte	0x2
 1500 01e2 23       		.byte	0x23
 1501 01e3 30       		.uleb128 0x30
 1502 01e4 06       		.uleb128 0x6
 1503 01e5 1E050000 		.4byte	.LASF37
 1504 01e9 06       		.byte	0x6
 1505 01ea BD       		.byte	0xbd
 1506 01eb DD000000 		.4byte	0xdd
 1507 01ef 02       		.byte	0x2
 1508 01f0 23       		.byte	0x23
 1509 01f1 38       		.uleb128 0x38
 1510 01f2 06       		.uleb128 0x6
 1511 01f3 EE030000 		.4byte	.LASF38
 1512 01f7 06       		.byte	0x6
 1513 01f8 C3       		.byte	0xc3
 1514 01f9 E8000000 		.4byte	0xe8
 1515 01fd 02       		.byte	0x2
 1516 01fe 23       		.byte	0x23
 1517 01ff 3C       		.uleb128 0x3c
 1518 0200 06       		.uleb128 0x6
 1519 0201 9E030000 		.4byte	.LASF39
 1520 0205 06       		.byte	0x6
 1521 0206 CA       		.byte	0xca
 1522 0207 52040000 		.4byte	0x452
 1523 020b 02       		.byte	0x2
 1524 020c 23       		.byte	0x23
 1525 020d 40       		.uleb128 0x40
 1526 020e 06       		.uleb128 0x6
 1527 020f 52040000 		.4byte	.LASF40
 1528 0213 06       		.byte	0x6
 1529 0214 CE       		.byte	0xce
 1530 0215 D2000000 		.4byte	0xd2
 1531 0219 02       		.byte	0x2
 1532 021a 23       		.byte	0x23
 1533 021b 44       		.uleb128 0x44
 1534 021c 00       		.byte	0x0
 1535 021d 08       		.uleb128 0x8
 1536 021e 08       		.byte	0x8
ARM GAS  /tmp/cctqM4r3.s 			page 29


 1537 021f 05       		.byte	0x5
 1538 0220 61       		.byte	0x61
 1539 0221 42020000 		.4byte	0x242
 1540 0225 06       		.uleb128 0x6
 1541 0226 D1030000 		.4byte	.LASF24
 1542 022a 05       		.byte	0x5
 1543 022b 62       		.byte	0x62
 1544 022c 42020000 		.4byte	0x242
 1545 0230 02       		.byte	0x2
 1546 0231 23       		.byte	0x23
 1547 0232 00       		.uleb128 0x0
 1548 0233 06       		.uleb128 0x6
 1549 0234 3E030000 		.4byte	.LASF25
 1550 0238 05       		.byte	0x5
 1551 0239 64       		.byte	0x64
 1552 023a 42020000 		.4byte	0x242
 1553 023e 02       		.byte	0x2
 1554 023f 23       		.byte	0x23
 1555 0240 04       		.uleb128 0x4
 1556 0241 00       		.byte	0x0
 1557 0242 09       		.uleb128 0x9
 1558 0243 04       		.byte	0x4
 1559 0244 09010000 		.4byte	0x109
 1560 0248 03       		.uleb128 0x3
 1561 0249 E9020000 		.4byte	.LASF41
 1562 024d 05       		.byte	0x5
 1563 024e 66       		.byte	0x66
 1564 024f 1D020000 		.4byte	0x21d
 1565 0253 08       		.uleb128 0x8
 1566 0254 04       		.byte	0x4
 1567 0255 05       		.byte	0x5
 1568 0256 6B       		.byte	0x6b
 1569 0257 6A020000 		.4byte	0x26a
 1570 025b 06       		.uleb128 0x6
 1571 025c D1030000 		.4byte	.LASF24
 1572 0260 05       		.byte	0x5
 1573 0261 6D       		.byte	0x6d
 1574 0262 42020000 		.4byte	0x242
 1575 0266 02       		.byte	0x2
 1576 0267 23       		.byte	0x23
 1577 0268 00       		.uleb128 0x0
 1578 0269 00       		.byte	0x0
 1579 026a 03       		.uleb128 0x3
 1580 026b 3A020000 		.4byte	.LASF42
 1581 026f 05       		.byte	0x5
 1582 0270 70       		.byte	0x70
 1583 0271 53020000 		.4byte	0x253
 1584 0275 03       		.uleb128 0x3
 1585 0276 54010000 		.4byte	.LASF43
 1586 027a 07       		.byte	0x7
 1587 027b D7       		.byte	0xd7
 1588 027c 80020000 		.4byte	0x280
 1589 0280 0A       		.uleb128 0xa
 1590 0281 04       		.byte	0x4
 1591 0282 03       		.uleb128 0x3
 1592 0283 91020000 		.4byte	.LASF44
 1593 0287 07       		.byte	0x7
ARM GAS  /tmp/cctqM4r3.s 			page 30


 1594 0288 DD       		.byte	0xdd
 1595 0289 9F000000 		.4byte	0x9f
 1596 028d 05       		.uleb128 0x5
 1597 028e 78040000 		.4byte	.LASF45
 1598 0292 24       		.byte	0x24
 1599 0293 07       		.byte	0x7
 1600 0294 FE       		.byte	0xfe
 1601 0295 1A030000 		.4byte	0x31a
 1602 0299 0B       		.uleb128 0xb
 1603 029a 723400   		.ascii	"r4\000"
 1604 029d 07       		.byte	0x7
 1605 029e 1101     		.2byte	0x111
 1606 02a0 75020000 		.4byte	0x275
 1607 02a4 02       		.byte	0x2
 1608 02a5 23       		.byte	0x23
 1609 02a6 00       		.uleb128 0x0
 1610 02a7 0B       		.uleb128 0xb
 1611 02a8 723500   		.ascii	"r5\000"
 1612 02ab 07       		.byte	0x7
 1613 02ac 1201     		.2byte	0x112
 1614 02ae 75020000 		.4byte	0x275
 1615 02b2 02       		.byte	0x2
 1616 02b3 23       		.byte	0x23
 1617 02b4 04       		.uleb128 0x4
 1618 02b5 0B       		.uleb128 0xb
 1619 02b6 723600   		.ascii	"r6\000"
 1620 02b9 07       		.byte	0x7
 1621 02ba 1301     		.2byte	0x113
 1622 02bc 75020000 		.4byte	0x275
 1623 02c0 02       		.byte	0x2
 1624 02c1 23       		.byte	0x23
 1625 02c2 08       		.uleb128 0x8
 1626 02c3 0B       		.uleb128 0xb
 1627 02c4 723700   		.ascii	"r7\000"
 1628 02c7 07       		.byte	0x7
 1629 02c8 1401     		.2byte	0x114
 1630 02ca 75020000 		.4byte	0x275
 1631 02ce 02       		.byte	0x2
 1632 02cf 23       		.byte	0x23
 1633 02d0 0C       		.uleb128 0xc
 1634 02d1 0B       		.uleb128 0xb
 1635 02d2 723800   		.ascii	"r8\000"
 1636 02d5 07       		.byte	0x7
 1637 02d6 1501     		.2byte	0x115
 1638 02d8 75020000 		.4byte	0x275
 1639 02dc 02       		.byte	0x2
 1640 02dd 23       		.byte	0x23
 1641 02de 10       		.uleb128 0x10
 1642 02df 0B       		.uleb128 0xb
 1643 02e0 723900   		.ascii	"r9\000"
 1644 02e3 07       		.byte	0x7
 1645 02e4 1601     		.2byte	0x116
 1646 02e6 75020000 		.4byte	0x275
 1647 02ea 02       		.byte	0x2
 1648 02eb 23       		.byte	0x23
 1649 02ec 14       		.uleb128 0x14
 1650 02ed 0B       		.uleb128 0xb
ARM GAS  /tmp/cctqM4r3.s 			page 31


 1651 02ee 72313000 		.ascii	"r10\000"
 1652 02f2 07       		.byte	0x7
 1653 02f3 1701     		.2byte	0x117
 1654 02f5 75020000 		.4byte	0x275
 1655 02f9 02       		.byte	0x2
 1656 02fa 23       		.byte	0x23
 1657 02fb 18       		.uleb128 0x18
 1658 02fc 0B       		.uleb128 0xb
 1659 02fd 72313100 		.ascii	"r11\000"
 1660 0301 07       		.byte	0x7
 1661 0302 1801     		.2byte	0x118
 1662 0304 75020000 		.4byte	0x275
 1663 0308 02       		.byte	0x2
 1664 0309 23       		.byte	0x23
 1665 030a 1C       		.uleb128 0x1c
 1666 030b 0B       		.uleb128 0xb
 1667 030c 6C7200   		.ascii	"lr\000"
 1668 030f 07       		.byte	0x7
 1669 0310 1901     		.2byte	0x119
 1670 0312 75020000 		.4byte	0x275
 1671 0316 02       		.byte	0x2
 1672 0317 23       		.byte	0x23
 1673 0318 20       		.uleb128 0x20
 1674 0319 00       		.byte	0x0
 1675 031a 0C       		.uleb128 0xc
 1676 031b 5D040000 		.4byte	.LASF46
 1677 031f 04       		.byte	0x4
 1678 0320 07       		.byte	0x7
 1679 0321 2301     		.2byte	0x123
 1680 0323 37030000 		.4byte	0x337
 1681 0327 0B       		.uleb128 0xb
 1682 0328 72313300 		.ascii	"r13\000"
 1683 032c 07       		.byte	0x7
 1684 032d 2401     		.2byte	0x124
 1685 032f 37030000 		.4byte	0x337
 1686 0333 02       		.byte	0x2
 1687 0334 23       		.byte	0x23
 1688 0335 00       		.uleb128 0x0
 1689 0336 00       		.byte	0x0
 1690 0337 09       		.uleb128 0x9
 1691 0338 04       		.byte	0x4
 1692 0339 8D020000 		.4byte	0x28d
 1693 033d 0D       		.uleb128 0xd
 1694 033e 86000000 		.4byte	0x86
 1695 0342 0D       		.uleb128 0xd
 1696 0343 F3000000 		.4byte	0xf3
 1697 0347 08       		.uleb128 0x8
 1698 0348 20       		.byte	0x20
 1699 0349 08       		.byte	0x8
 1700 034a 5E       		.byte	0x5e
 1701 034b B2030000 		.4byte	0x3b2
 1702 034f 06       		.uleb128 0x6
 1703 0350 C1020000 		.4byte	.LASF47
 1704 0354 08       		.byte	0x8
 1705 0355 5F       		.byte	0x5f
 1706 0356 48020000 		.4byte	0x248
 1707 035a 02       		.byte	0x2
ARM GAS  /tmp/cctqM4r3.s 			page 32


 1708 035b 23       		.byte	0x23
 1709 035c 00       		.uleb128 0x0
 1710 035d 06       		.uleb128 0x6
 1711 035e C3030000 		.4byte	.LASF48
 1712 0362 08       		.byte	0x8
 1713 0363 60       		.byte	0x60
 1714 0364 D2000000 		.4byte	0xd2
 1715 0368 02       		.byte	0x2
 1716 0369 23       		.byte	0x23
 1717 036a 08       		.uleb128 0x8
 1718 036b 06       		.uleb128 0x6
 1719 036c E3020000 		.4byte	.LASF49
 1720 0370 08       		.byte	0x8
 1721 0371 62       		.byte	0x62
 1722 0372 1A030000 		.4byte	0x31a
 1723 0376 02       		.byte	0x2
 1724 0377 23       		.byte	0x23
 1725 0378 0C       		.uleb128 0xc
 1726 0379 06       		.uleb128 0x6
 1727 037a 42010000 		.4byte	.LASF50
 1728 037e 08       		.byte	0x8
 1729 037f 65       		.byte	0x65
 1730 0380 42020000 		.4byte	0x242
 1731 0384 02       		.byte	0x2
 1732 0385 23       		.byte	0x23
 1733 0386 10       		.uleb128 0x10
 1734 0387 06       		.uleb128 0x6
 1735 0388 13030000 		.4byte	.LASF51
 1736 038c 08       		.byte	0x8
 1737 038d 66       		.byte	0x66
 1738 038e 42020000 		.4byte	0x242
 1739 0392 02       		.byte	0x2
 1740 0393 23       		.byte	0x23
 1741 0394 14       		.uleb128 0x14
 1742 0395 06       		.uleb128 0x6
 1743 0396 24050000 		.4byte	.LASF52
 1744 039a 08       		.byte	0x8
 1745 039b 6A       		.byte	0x6a
 1746 039c FE000000 		.4byte	0xfe
 1747 03a0 02       		.byte	0x2
 1748 03a1 23       		.byte	0x23
 1749 03a2 18       		.uleb128 0x18
 1750 03a3 06       		.uleb128 0x6
 1751 03a4 09030000 		.4byte	.LASF53
 1752 03a8 08       		.byte	0x8
 1753 03a9 6C       		.byte	0x6c
 1754 03aa 42020000 		.4byte	0x242
 1755 03ae 02       		.byte	0x2
 1756 03af 23       		.byte	0x23
 1757 03b0 1C       		.uleb128 0x1c
 1758 03b1 00       		.byte	0x0
 1759 03b2 03       		.uleb128 0x3
 1760 03b3 92040000 		.4byte	.LASF54
 1761 03b7 08       		.byte	0x8
 1762 03b8 6E       		.byte	0x6e
 1763 03b9 47030000 		.4byte	0x347
 1764 03bd 05       		.uleb128 0x5
ARM GAS  /tmp/cctqM4r3.s 			page 33


 1765 03be BB020000 		.4byte	.LASF55
 1766 03c2 10       		.byte	0x10
 1767 03c3 09       		.byte	0x9
 1768 03c4 2C       		.byte	0x2c
 1769 03c5 F4030000 		.4byte	0x3f4
 1770 03c9 06       		.uleb128 0x6
 1771 03ca 8A000000 		.4byte	.LASF56
 1772 03ce 09       		.byte	0x9
 1773 03cf 2D       		.byte	0x2d
 1774 03d0 48020000 		.4byte	0x248
 1775 03d4 02       		.byte	0x2
 1776 03d5 23       		.byte	0x23
 1777 03d6 00       		.uleb128 0x0
 1778 03d7 06       		.uleb128 0x6
 1779 03d8 40050000 		.4byte	.LASF57
 1780 03dc 09       		.byte	0x9
 1781 03dd 2F       		.byte	0x2f
 1782 03de 42020000 		.4byte	0x242
 1783 03e2 02       		.byte	0x2
 1784 03e3 23       		.byte	0x23
 1785 03e4 08       		.uleb128 0x8
 1786 03e5 06       		.uleb128 0x6
 1787 03e6 02030000 		.4byte	.LASF58
 1788 03ea 09       		.byte	0x9
 1789 03eb 31       		.byte	0x31
 1790 03ec F4030000 		.4byte	0x3f4
 1791 03f0 02       		.byte	0x2
 1792 03f1 23       		.byte	0x23
 1793 03f2 0C       		.uleb128 0xc
 1794 03f3 00       		.byte	0x0
 1795 03f4 09       		.uleb128 0x9
 1796 03f5 04       		.byte	0x4
 1797 03f6 BD030000 		.4byte	0x3bd
 1798 03fa 03       		.uleb128 0x3
 1799 03fb BB020000 		.4byte	.LASF55
 1800 03ff 09       		.byte	0x9
 1801 0400 33       		.byte	0x33
 1802 0401 BD030000 		.4byte	0x3bd
 1803 0405 0E       		.uleb128 0xe
 1804 0406 04       		.byte	0x4
 1805 0407 06       		.byte	0x6
 1806 0408 90       		.byte	0x90
 1807 0409 3A040000 		.4byte	0x43a
 1808 040d 0F       		.uleb128 0xf
 1809 040e 07000000 		.4byte	.LASF59
 1810 0412 06       		.byte	0x6
 1811 0413 97       		.byte	0x97
 1812 0414 DD000000 		.4byte	0xdd
 1813 0418 0F       		.uleb128 0xf
 1814 0419 40000000 		.4byte	.LASF60
 1815 041d 06       		.byte	0x6
 1816 041e 9E       		.byte	0x9e
 1817 041f DD000000 		.4byte	0xdd
 1818 0423 0F       		.uleb128 0xf
 1819 0424 F0040000 		.4byte	.LASF61
 1820 0428 06       		.byte	0x6
 1821 0429 A5       		.byte	0xa5
ARM GAS  /tmp/cctqM4r3.s 			page 34


 1822 042a 80020000 		.4byte	0x280
 1823 042e 0F       		.uleb128 0xf
 1824 042f CA030000 		.4byte	.LASF62
 1825 0433 06       		.byte	0x6
 1826 0434 AC       		.byte	0xac
 1827 0435 E8000000 		.4byte	0xe8
 1828 0439 00       		.byte	0x0
 1829 043a 09       		.uleb128 0x9
 1830 043b 04       		.byte	0x4
 1831 043c 40040000 		.4byte	0x440
 1832 0440 10       		.uleb128 0x10
 1833 0441 45040000 		.4byte	0x445
 1834 0445 04       		.uleb128 0x4
 1835 0446 01       		.byte	0x1
 1836 0447 08       		.byte	0x8
 1837 0448 2D040000 		.4byte	.LASF63
 1838 044c 09       		.uleb128 0x9
 1839 044d 04       		.byte	0x4
 1840 044e 82020000 		.4byte	0x282
 1841 0452 09       		.uleb128 0x9
 1842 0453 04       		.byte	0x4
 1843 0454 FA030000 		.4byte	0x3fa
 1844 0458 0D       		.uleb128 0xd
 1845 0459 74000000 		.4byte	0x74
 1846 045d 11       		.uleb128 0x11
 1847 045e 50       		.byte	0x50
 1848 045f 0A       		.byte	0xa
 1849 0460 2D02     		.2byte	0x22d
 1850 0462 91050000 		.4byte	0x591
 1851 0466 0B       		.uleb128 0xb
 1852 0467 535200   		.ascii	"SR\000"
 1853 046a 0A       		.byte	0xa
 1854 046b 2F02     		.2byte	0x22f
 1855 046d 3D030000 		.4byte	0x33d
 1856 0471 02       		.byte	0x2
 1857 0472 23       		.byte	0x23
 1858 0473 00       		.uleb128 0x0
 1859 0474 0B       		.uleb128 0xb
 1860 0475 43523100 		.ascii	"CR1\000"
 1861 0479 0A       		.byte	0xa
 1862 047a 3002     		.2byte	0x230
 1863 047c 3D030000 		.4byte	0x33d
 1864 0480 02       		.byte	0x2
 1865 0481 23       		.byte	0x23
 1866 0482 04       		.uleb128 0x4
 1867 0483 0B       		.uleb128 0xb
 1868 0484 43523200 		.ascii	"CR2\000"
 1869 0488 0A       		.byte	0xa
 1870 0489 3102     		.2byte	0x231
 1871 048b 3D030000 		.4byte	0x33d
 1872 048f 02       		.byte	0x2
 1873 0490 23       		.byte	0x23
 1874 0491 08       		.uleb128 0x8
 1875 0492 12       		.uleb128 0x12
 1876 0493 F6020000 		.4byte	.LASF64
 1877 0497 0A       		.byte	0xa
 1878 0498 3202     		.2byte	0x232
ARM GAS  /tmp/cctqM4r3.s 			page 35


 1879 049a 3D030000 		.4byte	0x33d
 1880 049e 02       		.byte	0x2
 1881 049f 23       		.byte	0x23
 1882 04a0 0C       		.uleb128 0xc
 1883 04a1 12       		.uleb128 0x12
 1884 04a2 FC020000 		.4byte	.LASF65
 1885 04a6 0A       		.byte	0xa
 1886 04a7 3302     		.2byte	0x233
 1887 04a9 3D030000 		.4byte	0x33d
 1888 04ad 02       		.byte	0x2
 1889 04ae 23       		.byte	0x23
 1890 04af 10       		.uleb128 0x10
 1891 04b0 12       		.uleb128 0x12
 1892 04b1 A1020000 		.4byte	.LASF66
 1893 04b5 0A       		.byte	0xa
 1894 04b6 3402     		.2byte	0x234
 1895 04b8 3D030000 		.4byte	0x33d
 1896 04bc 02       		.byte	0x2
 1897 04bd 23       		.byte	0x23
 1898 04be 14       		.uleb128 0x14
 1899 04bf 12       		.uleb128 0x12
 1900 04c0 A7020000 		.4byte	.LASF67
 1901 04c4 0A       		.byte	0xa
 1902 04c5 3502     		.2byte	0x235
 1903 04c7 3D030000 		.4byte	0x33d
 1904 04cb 02       		.byte	0x2
 1905 04cc 23       		.byte	0x23
 1906 04cd 18       		.uleb128 0x18
 1907 04ce 12       		.uleb128 0x12
 1908 04cf AD020000 		.4byte	.LASF68
 1909 04d3 0A       		.byte	0xa
 1910 04d4 3602     		.2byte	0x236
 1911 04d6 3D030000 		.4byte	0x33d
 1912 04da 02       		.byte	0x2
 1913 04db 23       		.byte	0x23
 1914 04dc 1C       		.uleb128 0x1c
 1915 04dd 12       		.uleb128 0x12
 1916 04de E0030000 		.4byte	.LASF69
 1917 04e2 0A       		.byte	0xa
 1918 04e3 3702     		.2byte	0x237
 1919 04e5 3D030000 		.4byte	0x33d
 1920 04e9 02       		.byte	0x2
 1921 04ea 23       		.byte	0x23
 1922 04eb 20       		.uleb128 0x20
 1923 04ec 0B       		.uleb128 0xb
 1924 04ed 48545200 		.ascii	"HTR\000"
 1925 04f1 0A       		.byte	0xa
 1926 04f2 3802     		.2byte	0x238
 1927 04f4 3D030000 		.4byte	0x33d
 1928 04f8 02       		.byte	0x2
 1929 04f9 23       		.byte	0x23
 1930 04fa 24       		.uleb128 0x24
 1931 04fb 0B       		.uleb128 0xb
 1932 04fc 4C545200 		.ascii	"LTR\000"
 1933 0500 0A       		.byte	0xa
 1934 0501 3902     		.2byte	0x239
 1935 0503 3D030000 		.4byte	0x33d
ARM GAS  /tmp/cctqM4r3.s 			page 36


 1936 0507 02       		.byte	0x2
 1937 0508 23       		.byte	0x23
 1938 0509 28       		.uleb128 0x28
 1939 050a 12       		.uleb128 0x12
 1940 050b 1B030000 		.4byte	.LASF70
 1941 050f 0A       		.byte	0xa
 1942 0510 3A02     		.2byte	0x23a
 1943 0512 3D030000 		.4byte	0x33d
 1944 0516 02       		.byte	0x2
 1945 0517 23       		.byte	0x23
 1946 0518 2C       		.uleb128 0x2c
 1947 0519 12       		.uleb128 0x12
 1948 051a 20030000 		.4byte	.LASF71
 1949 051e 0A       		.byte	0xa
 1950 051f 3B02     		.2byte	0x23b
 1951 0521 3D030000 		.4byte	0x33d
 1952 0525 02       		.byte	0x2
 1953 0526 23       		.byte	0x23
 1954 0527 30       		.uleb128 0x30
 1955 0528 12       		.uleb128 0x12
 1956 0529 25030000 		.4byte	.LASF72
 1957 052d 0A       		.byte	0xa
 1958 052e 3C02     		.2byte	0x23c
 1959 0530 3D030000 		.4byte	0x33d
 1960 0534 02       		.byte	0x2
 1961 0535 23       		.byte	0x23
 1962 0536 34       		.uleb128 0x34
 1963 0537 12       		.uleb128 0x12
 1964 0538 64000000 		.4byte	.LASF73
 1965 053c 0A       		.byte	0xa
 1966 053d 3D02     		.2byte	0x23d
 1967 053f 3D030000 		.4byte	0x33d
 1968 0543 02       		.byte	0x2
 1969 0544 23       		.byte	0x23
 1970 0545 38       		.uleb128 0x38
 1971 0546 12       		.uleb128 0x12
 1972 0547 DC040000 		.4byte	.LASF74
 1973 054b 0A       		.byte	0xa
 1974 054c 3E02     		.2byte	0x23e
 1975 054e 3D030000 		.4byte	0x33d
 1976 0552 02       		.byte	0x2
 1977 0553 23       		.byte	0x23
 1978 0554 3C       		.uleb128 0x3c
 1979 0555 12       		.uleb128 0x12
 1980 0556 E1040000 		.4byte	.LASF75
 1981 055a 0A       		.byte	0xa
 1982 055b 3F02     		.2byte	0x23f
 1983 055d 3D030000 		.4byte	0x33d
 1984 0561 02       		.byte	0x2
 1985 0562 23       		.byte	0x23
 1986 0563 40       		.uleb128 0x40
 1987 0564 12       		.uleb128 0x12
 1988 0565 E6040000 		.4byte	.LASF76
 1989 0569 0A       		.byte	0xa
 1990 056a 4002     		.2byte	0x240
 1991 056c 3D030000 		.4byte	0x33d
 1992 0570 02       		.byte	0x2
ARM GAS  /tmp/cctqM4r3.s 			page 37


 1993 0571 23       		.byte	0x23
 1994 0572 44       		.uleb128 0x44
 1995 0573 12       		.uleb128 0x12
 1996 0574 EB040000 		.4byte	.LASF77
 1997 0578 0A       		.byte	0xa
 1998 0579 4102     		.2byte	0x241
 1999 057b 3D030000 		.4byte	0x33d
 2000 057f 02       		.byte	0x2
 2001 0580 23       		.byte	0x23
 2002 0581 48       		.uleb128 0x48
 2003 0582 0B       		.uleb128 0xb
 2004 0583 445200   		.ascii	"DR\000"
 2005 0586 0A       		.byte	0xa
 2006 0587 4202     		.2byte	0x242
 2007 0589 3D030000 		.4byte	0x33d
 2008 058d 02       		.byte	0x2
 2009 058e 23       		.byte	0x23
 2010 058f 4C       		.uleb128 0x4c
 2011 0590 00       		.byte	0x0
 2012 0591 13       		.uleb128 0x13
 2013 0592 02010000 		.4byte	.LASF78
 2014 0596 0A       		.byte	0xa
 2015 0597 4302     		.2byte	0x243
 2016 0599 5D040000 		.4byte	0x45d
 2017 059d 11       		.uleb128 0x11
 2018 059e 10       		.byte	0x10
 2019 059f 0A       		.byte	0xa
 2020 05a0 2D03     		.2byte	0x32d
 2021 05a2 E3050000 		.4byte	0x5e3
 2022 05a6 0B       		.uleb128 0xb
 2023 05a7 43435200 		.ascii	"CCR\000"
 2024 05ab 0A       		.byte	0xa
 2025 05ac 2F03     		.2byte	0x32f
 2026 05ae 3D030000 		.4byte	0x33d
 2027 05b2 02       		.byte	0x2
 2028 05b3 23       		.byte	0x23
 2029 05b4 00       		.uleb128 0x0
 2030 05b5 12       		.uleb128 0x12
 2031 05b6 9C040000 		.4byte	.LASF79
 2032 05ba 0A       		.byte	0xa
 2033 05bb 3003     		.2byte	0x330
 2034 05bd 3D030000 		.4byte	0x33d
 2035 05c1 02       		.byte	0x2
 2036 05c2 23       		.byte	0x23
 2037 05c3 04       		.uleb128 0x4
 2038 05c4 12       		.uleb128 0x12
 2039 05c5 B6010000 		.4byte	.LASF80
 2040 05c9 0A       		.byte	0xa
 2041 05ca 3103     		.2byte	0x331
 2042 05cc 3D030000 		.4byte	0x33d
 2043 05d0 02       		.byte	0x2
 2044 05d1 23       		.byte	0x23
 2045 05d2 08       		.uleb128 0x8
 2046 05d3 12       		.uleb128 0x12
 2047 05d4 8C020000 		.4byte	.LASF81
 2048 05d8 0A       		.byte	0xa
 2049 05d9 3203     		.2byte	0x332
ARM GAS  /tmp/cctqM4r3.s 			page 38


 2050 05db 3D030000 		.4byte	0x33d
 2051 05df 02       		.byte	0x2
 2052 05e0 23       		.byte	0x23
 2053 05e1 0C       		.uleb128 0xc
 2054 05e2 00       		.byte	0x0
 2055 05e3 13       		.uleb128 0x13
 2056 05e4 D5010000 		.4byte	.LASF82
 2057 05e8 0A       		.byte	0xa
 2058 05e9 3303     		.2byte	0x333
 2059 05eb 9D050000 		.4byte	0x59d
 2060 05ef 08       		.uleb128 0x8
 2061 05f0 0C       		.byte	0xc
 2062 05f1 0B       		.byte	0xb
 2063 05f2 C2       		.byte	0xc2
 2064 05f3 3E060000 		.4byte	0x63e
 2065 05f7 06       		.uleb128 0x6
 2066 05f8 E6030000 		.4byte	.LASF83
 2067 05fc 0B       		.byte	0xb
 2068 05fd C3       		.byte	0xc3
 2069 05fe 3E060000 		.4byte	0x63e
 2070 0602 02       		.byte	0x2
 2071 0603 23       		.byte	0x23
 2072 0604 00       		.uleb128 0x0
 2073 0605 06       		.uleb128 0x6
 2074 0606 F9030000 		.4byte	.LASF84
 2075 060a 0B       		.byte	0xb
 2076 060b C4       		.byte	0xc4
 2077 060c 44060000 		.4byte	0x644
 2078 0610 02       		.byte	0x2
 2079 0611 23       		.byte	0x23
 2080 0612 04       		.uleb128 0x4
 2081 0613 06       		.uleb128 0x6
 2082 0614 E9010000 		.4byte	.LASF85
 2083 0618 0B       		.byte	0xb
 2084 0619 C5       		.byte	0xc5
 2085 061a 49000000 		.4byte	0x49
 2086 061e 02       		.byte	0x2
 2087 061f 23       		.byte	0x23
 2088 0620 08       		.uleb128 0x8
 2089 0621 06       		.uleb128 0x6
 2090 0622 5D010000 		.4byte	.LASF86
 2091 0626 0B       		.byte	0xb
 2092 0627 C7       		.byte	0xc7
 2093 0628 49000000 		.4byte	0x49
 2094 062c 02       		.byte	0x2
 2095 062d 23       		.byte	0x23
 2096 062e 09       		.uleb128 0x9
 2097 062f 06       		.uleb128 0x6
 2098 0630 49000000 		.4byte	.LASF87
 2099 0634 0B       		.byte	0xb
 2100 0635 C8       		.byte	0xc8
 2101 0636 49000000 		.4byte	0x49
 2102 063a 02       		.byte	0x2
 2103 063b 23       		.byte	0x23
 2104 063c 0A       		.uleb128 0xa
 2105 063d 00       		.byte	0x0
 2106 063e 09       		.uleb128 0x9
ARM GAS  /tmp/cctqM4r3.s 			page 39


 2107 063f 04       		.byte	0x4
 2108 0640 E3050000 		.4byte	0x5e3
 2109 0644 09       		.uleb128 0x9
 2110 0645 04       		.byte	0x4
 2111 0646 3D030000 		.4byte	0x33d
 2112 064a 03       		.uleb128 0x3
 2113 064b 45030000 		.4byte	.LASF88
 2114 064f 0B       		.byte	0xb
 2115 0650 C9       		.byte	0xc9
 2116 0651 EF050000 		.4byte	0x5ef
 2117 0655 14       		.uleb128 0x14
 2118 0656 01       		.byte	0x1
 2119 0657 0C       		.byte	0xc
 2120 0658 55       		.byte	0x55
 2121 0659 82060000 		.4byte	0x682
 2122 065d 15       		.uleb128 0x15
 2123 065e 74010000 		.4byte	.LASF89
 2124 0662 00       		.sleb128 0
 2125 0663 15       		.uleb128 0x15
 2126 0664 C9020000 		.4byte	.LASF90
 2127 0668 01       		.sleb128 1
 2128 0669 15       		.uleb128 0x15
 2129 066a 03020000 		.4byte	.LASF91
 2130 066e 02       		.sleb128 2
 2131 066f 15       		.uleb128 0x15
 2132 0670 7F010000 		.4byte	.LASF92
 2133 0674 03       		.sleb128 3
 2134 0675 15       		.uleb128 0x15
 2135 0676 F7040000 		.4byte	.LASF93
 2136 067a 04       		.sleb128 4
 2137 067b 15       		.uleb128 0x15
 2138 067c 7F040000 		.4byte	.LASF94
 2139 0680 05       		.sleb128 5
 2140 0681 00       		.byte	0x0
 2141 0682 03       		.uleb128 0x3
 2142 0683 16000000 		.4byte	.LASF95
 2143 0687 0C       		.byte	0xc
 2144 0688 5C       		.byte	0x5c
 2145 0689 55060000 		.4byte	0x655
 2146 068d 03       		.uleb128 0x3
 2147 068e 36010000 		.4byte	.LASF96
 2148 0692 0D       		.byte	0xd
 2149 0693 92       		.byte	0x92
 2150 0694 62000000 		.4byte	0x62
 2151 0698 03       		.uleb128 0x3
 2152 0699 0B050000 		.4byte	.LASF97
 2153 069d 0D       		.byte	0xd
 2154 069e 97       		.byte	0x97
 2155 069f 62000000 		.4byte	0x62
 2156 06a3 14       		.uleb128 0x14
 2157 06a4 01       		.byte	0x1
 2158 06a5 0D       		.byte	0xd
 2159 06a6 9E       		.byte	0x9e
 2160 06a7 B2060000 		.4byte	0x6b2
 2161 06ab 15       		.uleb128 0x15
 2162 06ac BC000000 		.4byte	.LASF98
 2163 06b0 00       		.sleb128 0
ARM GAS  /tmp/cctqM4r3.s 			page 40


 2164 06b1 00       		.byte	0x0
 2165 06b2 03       		.uleb128 0x3
 2166 06b3 92000000 		.4byte	.LASF99
 2167 06b7 0D       		.byte	0xd
 2168 06b8 A0       		.byte	0xa0
 2169 06b9 A3060000 		.4byte	0x6a3
 2170 06bd 03       		.uleb128 0x3
 2171 06be C6010000 		.4byte	.LASF100
 2172 06c2 0D       		.byte	0xd
 2173 06c3 A5       		.byte	0xa5
 2174 06c4 C8060000 		.4byte	0x6c8
 2175 06c8 0C       		.uleb128 0xc
 2176 06c9 C6010000 		.4byte	.LASF100
 2177 06cd 34       		.byte	0x34
 2178 06ce 0D       		.byte	0xd
 2179 06cf 0901     		.2byte	0x109
 2180 06d1 6C070000 		.4byte	0x76c
 2181 06d5 12       		.uleb128 0x12
 2182 06d6 A4000000 		.4byte	.LASF101
 2183 06da 0D       		.byte	0xd
 2184 06db 0D01     		.2byte	0x10d
 2185 06dd 82060000 		.4byte	0x682
 2186 06e1 02       		.byte	0x2
 2187 06e2 23       		.byte	0x23
 2188 06e3 00       		.uleb128 0x0
 2189 06e4 12       		.uleb128 0x12
 2190 06e5 32040000 		.4byte	.LASF102
 2191 06e9 0D       		.byte	0xd
 2192 06ea 1101     		.2byte	0x111
 2193 06ec 94080000 		.4byte	0x894
 2194 06f0 02       		.byte	0x2
 2195 06f1 23       		.byte	0x23
 2196 06f2 04       		.uleb128 0x4
 2197 06f3 12       		.uleb128 0x12
 2198 06f4 B3020000 		.4byte	.LASF103
 2199 06f8 0D       		.byte	0xd
 2200 06f9 1501     		.2byte	0x115
 2201 06fb 99070000 		.4byte	0x799
 2202 06ff 02       		.byte	0x2
 2203 0700 23       		.byte	0x23
 2204 0701 08       		.uleb128 0x8
 2205 0702 12       		.uleb128 0x12
 2206 0703 0D020000 		.4byte	.LASF104
 2207 0707 0D       		.byte	0xd
 2208 0708 1901     		.2byte	0x119
 2209 070a 30000000 		.4byte	0x30
 2210 070e 02       		.byte	0x2
 2211 070f 23       		.byte	0x23
 2212 0710 0C       		.uleb128 0xc
 2213 0711 12       		.uleb128 0x12
 2214 0712 9C020000 		.4byte	.LASF105
 2215 0716 0D       		.byte	0xd
 2216 0717 1D01     		.2byte	0x11d
 2217 0719 9F080000 		.4byte	0x89f
 2218 071d 02       		.byte	0x2
 2219 071e 23       		.byte	0x23
 2220 071f 10       		.uleb128 0x10
ARM GAS  /tmp/cctqM4r3.s 			page 41


 2221 0720 12       		.uleb128 0x12
 2222 0721 EB000000 		.4byte	.LASF106
 2223 0725 0D       		.byte	0xd
 2224 0726 2201     		.2byte	0x122
 2225 0728 42020000 		.4byte	0x242
 2226 072c 02       		.byte	0x2
 2227 072d 23       		.byte	0x23
 2228 072e 14       		.uleb128 0x14
 2229 072f 12       		.uleb128 0x12
 2230 0730 60030000 		.4byte	.LASF107
 2231 0734 0D       		.byte	0xd
 2232 0735 2901     		.2byte	0x129
 2233 0737 FA030000 		.4byte	0x3fa
 2234 073b 02       		.byte	0x2
 2235 073c 23       		.byte	0x23
 2236 073d 18       		.uleb128 0x18
 2237 073e 0B       		.uleb128 0xb
 2238 073f 61646300 		.ascii	"adc\000"
 2239 0743 0D       		.byte	0xd
 2240 0744 3501     		.2byte	0x135
 2241 0746 AA080000 		.4byte	0x8aa
 2242 074a 02       		.byte	0x2
 2243 074b 23       		.byte	0x23
 2244 074c 28       		.uleb128 0x28
 2245 074d 12       		.uleb128 0x12
 2246 074e 9D000000 		.4byte	.LASF108
 2247 0752 0D       		.byte	0xd
 2248 0753 3901     		.2byte	0x139
 2249 0755 B0080000 		.4byte	0x8b0
 2250 0759 02       		.byte	0x2
 2251 075a 23       		.byte	0x23
 2252 075b 2C       		.uleb128 0x2c
 2253 075c 12       		.uleb128 0x12
 2254 075d 0E000000 		.4byte	.LASF109
 2255 0761 0D       		.byte	0xd
 2256 0762 3D01     		.2byte	0x13d
 2257 0764 86000000 		.4byte	0x86
 2258 0768 02       		.byte	0x2
 2259 0769 23       		.byte	0x23
 2260 076a 30       		.uleb128 0x30
 2261 076b 00       		.byte	0x0
 2262 076c 03       		.uleb128 0x3
 2263 076d 1D010000 		.4byte	.LASF110
 2264 0771 0D       		.byte	0xd
 2265 0772 AF       		.byte	0xaf
 2266 0773 77070000 		.4byte	0x777
 2267 0777 09       		.uleb128 0x9
 2268 0778 04       		.byte	0x4
 2269 0779 7D070000 		.4byte	0x77d
 2270 077d 16       		.uleb128 0x16
 2271 077e 01       		.byte	0x1
 2272 077f 93070000 		.4byte	0x793
 2273 0783 17       		.uleb128 0x17
 2274 0784 93070000 		.4byte	0x793
 2275 0788 17       		.uleb128 0x17
 2276 0789 99070000 		.4byte	0x799
 2277 078d 17       		.uleb128 0x17
ARM GAS  /tmp/cctqM4r3.s 			page 42


 2278 078e 30000000 		.4byte	0x30
 2279 0792 00       		.byte	0x0
 2280 0793 09       		.uleb128 0x9
 2281 0794 04       		.byte	0x4
 2282 0795 BD060000 		.4byte	0x6bd
 2283 0799 09       		.uleb128 0x9
 2284 079a 04       		.byte	0x4
 2285 079b 8D060000 		.4byte	0x68d
 2286 079f 03       		.uleb128 0x3
 2287 07a0 CF000000 		.4byte	.LASF111
 2288 07a4 0D       		.byte	0xd
 2289 07a5 B8       		.byte	0xb8
 2290 07a6 AA070000 		.4byte	0x7aa
 2291 07aa 09       		.uleb128 0x9
 2292 07ab 04       		.byte	0x4
 2293 07ac B0070000 		.4byte	0x7b0
 2294 07b0 16       		.uleb128 0x16
 2295 07b1 01       		.byte	0x1
 2296 07b2 C1070000 		.4byte	0x7c1
 2297 07b6 17       		.uleb128 0x17
 2298 07b7 93070000 		.4byte	0x793
 2299 07bb 17       		.uleb128 0x17
 2300 07bc B2060000 		.4byte	0x6b2
 2301 07c0 00       		.byte	0x0
 2302 07c1 08       		.uleb128 0x8
 2303 07c2 2C       		.byte	0x2c
 2304 07c3 0D       		.byte	0xd
 2305 07c4 C2       		.byte	0xc2
 2306 07c5 64080000 		.4byte	0x864
 2307 07c9 06       		.uleb128 0x6
 2308 07ca AA000000 		.4byte	.LASF112
 2309 07ce 0D       		.byte	0xd
 2310 07cf C6       		.byte	0xc6
 2311 07d0 B1000000 		.4byte	0xb1
 2312 07d4 02       		.byte	0x2
 2313 07d5 23       		.byte	0x23
 2314 07d6 00       		.uleb128 0x0
 2315 07d7 06       		.uleb128 0x6
 2316 07d8 2D020000 		.4byte	.LASF113
 2317 07dc 0D       		.byte	0xd
 2318 07dd CA       		.byte	0xca
 2319 07de 98060000 		.4byte	0x698
 2320 07e2 02       		.byte	0x2
 2321 07e3 23       		.byte	0x23
 2322 07e4 04       		.uleb128 0x4
 2323 07e5 06       		.uleb128 0x6
 2324 07e6 16010000 		.4byte	.LASF114
 2325 07ea 0D       		.byte	0xd
 2326 07eb CE       		.byte	0xce
 2327 07ec 6C070000 		.4byte	0x76c
 2328 07f0 02       		.byte	0x2
 2329 07f1 23       		.byte	0x23
 2330 07f2 08       		.uleb128 0x8
 2331 07f3 06       		.uleb128 0x6
 2332 07f4 BA030000 		.4byte	.LASF115
 2333 07f8 0D       		.byte	0xd
 2334 07f9 D2       		.byte	0xd2
ARM GAS  /tmp/cctqM4r3.s 			page 43


 2335 07fa 9F070000 		.4byte	0x79f
 2336 07fe 02       		.byte	0x2
 2337 07ff 23       		.byte	0x23
 2338 0800 0C       		.uleb128 0xc
 2339 0801 07       		.uleb128 0x7
 2340 0802 63723100 		.ascii	"cr1\000"
 2341 0806 0D       		.byte	0xd
 2342 0807 D9       		.byte	0xd9
 2343 0808 86000000 		.4byte	0x86
 2344 080c 02       		.byte	0x2
 2345 080d 23       		.byte	0x23
 2346 080e 10       		.uleb128 0x10
 2347 080f 07       		.uleb128 0x7
 2348 0810 63723200 		.ascii	"cr2\000"
 2349 0814 0D       		.byte	0xd
 2350 0815 E0       		.byte	0xe0
 2351 0816 86000000 		.4byte	0x86
 2352 081a 02       		.byte	0x2
 2353 081b 23       		.byte	0x23
 2354 081c 14       		.uleb128 0x14
 2355 081d 06       		.uleb128 0x6
 2356 081e 15040000 		.4byte	.LASF116
 2357 0822 0D       		.byte	0xd
 2358 0823 E6       		.byte	0xe6
 2359 0824 86000000 		.4byte	0x86
 2360 0828 02       		.byte	0x2
 2361 0829 23       		.byte	0x23
 2362 082a 18       		.uleb128 0x18
 2363 082b 06       		.uleb128 0x6
 2364 082c A2040000 		.4byte	.LASF117
 2365 0830 0D       		.byte	0xd
 2366 0831 EC       		.byte	0xec
 2367 0832 86000000 		.4byte	0x86
 2368 0836 02       		.byte	0x2
 2369 0837 23       		.byte	0x23
 2370 0838 1C       		.uleb128 0x1c
 2371 0839 06       		.uleb128 0x6
 2372 083a 39040000 		.4byte	.LASF118
 2373 083e 0D       		.byte	0xd
 2374 083f F1       		.byte	0xf1
 2375 0840 86000000 		.4byte	0x86
 2376 0844 02       		.byte	0x2
 2377 0845 23       		.byte	0x23
 2378 0846 20       		.uleb128 0x20
 2379 0847 06       		.uleb128 0x6
 2380 0848 3E040000 		.4byte	.LASF119
 2381 084c 0D       		.byte	0xd
 2382 084d F6       		.byte	0xf6
 2383 084e 86000000 		.4byte	0x86
 2384 0852 02       		.byte	0x2
 2385 0853 23       		.byte	0x23
 2386 0854 24       		.uleb128 0x24
 2387 0855 06       		.uleb128 0x6
 2388 0856 43040000 		.4byte	.LASF120
 2389 085a 0D       		.byte	0xd
 2390 085b FB       		.byte	0xfb
 2391 085c 86000000 		.4byte	0x86
ARM GAS  /tmp/cctqM4r3.s 			page 44


 2392 0860 02       		.byte	0x2
 2393 0861 23       		.byte	0x23
 2394 0862 28       		.uleb128 0x28
 2395 0863 00       		.byte	0x0
 2396 0864 03       		.uleb128 0x3
 2397 0865 C9040000 		.4byte	.LASF121
 2398 0869 0D       		.byte	0xd
 2399 086a FC       		.byte	0xfc
 2400 086b C1070000 		.4byte	0x7c1
 2401 086f 11       		.uleb128 0x11
 2402 0870 04       		.byte	0x4
 2403 0871 0D       		.byte	0xd
 2404 0872 0201     		.2byte	0x102
 2405 0874 88080000 		.4byte	0x888
 2406 0878 12       		.uleb128 0x12
 2407 0879 67010000 		.4byte	.LASF122
 2408 087d 0D       		.byte	0xd
 2409 087e 0301     		.2byte	0x103
 2410 0880 86000000 		.4byte	0x86
 2411 0884 02       		.byte	0x2
 2412 0885 23       		.byte	0x23
 2413 0886 00       		.uleb128 0x0
 2414 0887 00       		.byte	0x0
 2415 0888 13       		.uleb128 0x13
 2416 0889 4A010000 		.4byte	.LASF123
 2417 088d 0D       		.byte	0xd
 2418 088e 0401     		.2byte	0x104
 2419 0890 6F080000 		.4byte	0x86f
 2420 0894 09       		.uleb128 0x9
 2421 0895 04       		.byte	0x4
 2422 0896 9A080000 		.4byte	0x89a
 2423 089a 10       		.uleb128 0x10
 2424 089b 88080000 		.4byte	0x888
 2425 089f 09       		.uleb128 0x9
 2426 08a0 04       		.byte	0x4
 2427 08a1 A5080000 		.4byte	0x8a5
 2428 08a5 10       		.uleb128 0x10
 2429 08a6 64080000 		.4byte	0x864
 2430 08aa 09       		.uleb128 0x9
 2431 08ab 04       		.byte	0x4
 2432 08ac 91050000 		.4byte	0x591
 2433 08b0 09       		.uleb128 0x9
 2434 08b1 04       		.byte	0x4
 2435 08b2 B6080000 		.4byte	0x8b6
 2436 08b6 10       		.uleb128 0x10
 2437 08b7 4A060000 		.4byte	0x64a
 2438 08bb 18       		.uleb128 0x18
 2439 08bc 01       		.byte	0x1
 2440 08bd 84020000 		.4byte	.LASF139
 2441 08c1 01       		.byte	0x1
 2442 08c2 44       		.byte	0x44
 2443 08c3 01       		.byte	0x1
 2444 08c4 00000000 		.4byte	.LFB62
 2445 08c8 04000000 		.4byte	.LFE62
 2446 08cc 02       		.byte	0x2
 2447 08cd 7D       		.byte	0x7d
 2448 08ce 00       		.sleb128 0
ARM GAS  /tmp/cctqM4r3.s 			page 45


 2449 08cf 19       		.uleb128 0x19
 2450 08d0 01       		.byte	0x1
 2451 08d1 A8010000 		.4byte	.LASF124
 2452 08d5 01       		.byte	0x1
 2453 08d6 50       		.byte	0x50
 2454 08d7 01       		.byte	0x1
 2455 08d8 00000000 		.4byte	.LFB63
 2456 08dc 16000000 		.4byte	.LFE63
 2457 08e0 02       		.byte	0x2
 2458 08e1 7D       		.byte	0x7d
 2459 08e2 00       		.sleb128 0
 2460 08e3 F7080000 		.4byte	0x8f7
 2461 08e7 1A       		.uleb128 0x1a
 2462 08e8 D0010000 		.4byte	.LASF126
 2463 08ec 01       		.byte	0x1
 2464 08ed 50       		.byte	0x50
 2465 08ee 93070000 		.4byte	0x793
 2466 08f2 00000000 		.4byte	.LLST0
 2467 08f6 00       		.byte	0x0
 2468 08f7 1B       		.uleb128 0x1b
 2469 08f8 01       		.byte	0x1
 2470 08f9 89040000 		.4byte	.LASF125
 2471 08fd 01       		.byte	0x1
 2472 08fe 6F       		.byte	0x6f
 2473 08ff 01       		.byte	0x1
 2474 0900 00000000 		.4byte	.LFB64
 2475 0904 4C000000 		.4byte	.LFE64
 2476 0908 20000000 		.4byte	.LLST1
 2477 090c 65090000 		.4byte	0x965
 2478 0910 1A       		.uleb128 0x1a
 2479 0911 D0010000 		.4byte	.LASF126
 2480 0915 01       		.byte	0x1
 2481 0916 6F       		.byte	0x6f
 2482 0917 93070000 		.4byte	0x793
 2483 091b 40000000 		.4byte	.LLST2
 2484 091f 1A       		.uleb128 0x1a
 2485 0920 32040000 		.4byte	.LASF102
 2486 0924 01       		.byte	0x1
 2487 0925 6F       		.byte	0x6f
 2488 0926 94080000 		.4byte	0x894
 2489 092a 5E000000 		.4byte	.LLST3
 2490 092e 1C       		.uleb128 0x1c
 2491 092f 08000000 		.4byte	.LBB2
 2492 0933 0E000000 		.4byte	.LBE2
 2493 0937 4B090000 		.4byte	0x94b
 2494 093b 1D       		.uleb128 0x1d
 2495 093c 746D7000 		.ascii	"tmp\000"
 2496 0940 01       		.byte	0x1
 2497 0941 73       		.byte	0x73
 2498 0942 86000000 		.4byte	0x86
 2499 0946 7C000000 		.4byte	.LLST4
 2500 094a 00       		.byte	0x0
 2501 094b 1E       		.uleb128 0x1e
 2502 094c 32000000 		.4byte	.LBB3
 2503 0950 38000000 		.4byte	.LBE3
 2504 0954 1D       		.uleb128 0x1d
 2505 0955 746D7000 		.ascii	"tmp\000"
ARM GAS  /tmp/cctqM4r3.s 			page 46


 2506 0959 01       		.byte	0x1
 2507 095a 79       		.byte	0x79
 2508 095b 86000000 		.4byte	0x86
 2509 095f 8F000000 		.4byte	.LLST5
 2510 0963 00       		.byte	0x0
 2511 0964 00       		.byte	0x0
 2512 0965 1B       		.uleb128 0x1b
 2513 0966 01       		.byte	0x1
 2514 0967 21000000 		.4byte	.LASF127
 2515 096b 01       		.byte	0x1
 2516 096c 83       		.byte	0x83
 2517 096d 01       		.byte	0x1
 2518 096e 00000000 		.4byte	.LFB65
 2519 0972 48000000 		.4byte	.LFE65
 2520 0976 A2000000 		.4byte	.LLST6
 2521 097a C4090000 		.4byte	0x9c4
 2522 097e 1A       		.uleb128 0x1a
 2523 097f D0010000 		.4byte	.LASF126
 2524 0983 01       		.byte	0x1
 2525 0984 83       		.byte	0x83
 2526 0985 93070000 		.4byte	0x793
 2527 0989 C2000000 		.4byte	.LLST7
 2528 098d 1C       		.uleb128 0x1c
 2529 098e 06000000 		.4byte	.LBB4
 2530 0992 0C000000 		.4byte	.LBE4
 2531 0996 AA090000 		.4byte	0x9aa
 2532 099a 1D       		.uleb128 0x1d
 2533 099b 746D7000 		.ascii	"tmp\000"
 2534 099f 01       		.byte	0x1
 2535 09a0 87       		.byte	0x87
 2536 09a1 86000000 		.4byte	0x86
 2537 09a5 E0000000 		.4byte	.LLST8
 2538 09a9 00       		.byte	0x0
 2539 09aa 1E       		.uleb128 0x1e
 2540 09ab 2E000000 		.4byte	.LBB5
 2541 09af 34000000 		.4byte	.LBE5
 2542 09b3 1D       		.uleb128 0x1d
 2543 09b4 746D7000 		.ascii	"tmp\000"
 2544 09b8 01       		.byte	0x1
 2545 09b9 8C       		.byte	0x8c
 2546 09ba 86000000 		.4byte	0x86
 2547 09be F3000000 		.4byte	.LLST9
 2548 09c2 00       		.byte	0x0
 2549 09c3 00       		.byte	0x0
 2550 09c4 1B       		.uleb128 0x1b
 2551 09c5 01       		.byte	0x1
 2552 09c6 2A030000 		.4byte	.LASF128
 2553 09ca 01       		.byte	0x1
 2554 09cb BB       		.byte	0xbb
 2555 09cc 01       		.byte	0x1
 2556 09cd 00000000 		.4byte	.LFB67
 2557 09d1 58000000 		.4byte	.LFE67
 2558 09d5 06010000 		.4byte	.LLST10
 2559 09d9 1A0A0000 		.4byte	0xa1a
 2560 09dd 1A       		.uleb128 0x1a
 2561 09de D0010000 		.4byte	.LASF126
 2562 09e2 01       		.byte	0x1
ARM GAS  /tmp/cctqM4r3.s 			page 47


 2563 09e3 BB       		.byte	0xbb
 2564 09e4 93070000 		.4byte	0x793
 2565 09e8 26010000 		.4byte	.LLST11
 2566 09ec 1A       		.uleb128 0x1a
 2567 09ed 9C020000 		.4byte	.LASF105
 2568 09f1 01       		.byte	0x1
 2569 09f2 BC       		.byte	0xbc
 2570 09f3 9F080000 		.4byte	0x89f
 2571 09f7 44010000 		.4byte	.LLST12
 2572 09fb 1A       		.uleb128 0x1a
 2573 09fc B3020000 		.4byte	.LASF103
 2574 0a00 01       		.byte	0x1
 2575 0a01 BD       		.byte	0xbd
 2576 0a02 99070000 		.4byte	0x799
 2577 0a06 62010000 		.4byte	.LLST13
 2578 0a0a 1A       		.uleb128 0x1a
 2579 0a0b 0D020000 		.4byte	.LASF104
 2580 0a0f 01       		.byte	0x1
 2581 0a10 BE       		.byte	0xbe
 2582 0a11 30000000 		.4byte	0x30
 2583 0a15 80010000 		.4byte	.LLST14
 2584 0a19 00       		.byte	0x0
 2585 0a1a 1B       		.uleb128 0x1b
 2586 0a1b 01       		.byte	0x1
 2587 0a1c 65040000 		.4byte	.LASF129
 2588 0a20 01       		.byte	0x1
 2589 0a21 9F       		.byte	0x9f
 2590 0a22 01       		.byte	0x1
 2591 0a23 00000000 		.4byte	.LFB66
 2592 0a27 2C000000 		.4byte	.LFE66
 2593 0a2b 9E010000 		.4byte	.LLST15
 2594 0a2f A60A0000 		.4byte	0xaa6
 2595 0a33 1A       		.uleb128 0x1a
 2596 0a34 D0010000 		.4byte	.LASF126
 2597 0a38 01       		.byte	0x1
 2598 0a39 9F       		.byte	0x9f
 2599 0a3a 93070000 		.4byte	0x793
 2600 0a3e BE010000 		.4byte	.LLST16
 2601 0a42 1A       		.uleb128 0x1a
 2602 0a43 9C020000 		.4byte	.LASF105
 2603 0a47 01       		.byte	0x1
 2604 0a48 A0       		.byte	0xa0
 2605 0a49 9F080000 		.4byte	0x89f
 2606 0a4d DC010000 		.4byte	.LLST17
 2607 0a51 1A       		.uleb128 0x1a
 2608 0a52 B3020000 		.4byte	.LASF103
 2609 0a56 01       		.byte	0x1
 2610 0a57 A1       		.byte	0xa1
 2611 0a58 99070000 		.4byte	0x799
 2612 0a5c FA010000 		.4byte	.LLST18
 2613 0a60 1A       		.uleb128 0x1a
 2614 0a61 0D020000 		.4byte	.LASF104
 2615 0a65 01       		.byte	0x1
 2616 0a66 A2       		.byte	0xa2
 2617 0a67 30000000 		.4byte	0x30
 2618 0a6b 18020000 		.4byte	.LLST19
 2619 0a6f 1C       		.uleb128 0x1c
ARM GAS  /tmp/cctqM4r3.s 			page 48


 2620 0a70 0A000000 		.4byte	.LBB6
 2621 0a74 10000000 		.4byte	.LBE6
 2622 0a78 8C0A0000 		.4byte	0xa8c
 2623 0a7c 1D       		.uleb128 0x1d
 2624 0a7d 746D7000 		.ascii	"tmp\000"
 2625 0a81 01       		.byte	0x1
 2626 0a82 A4       		.byte	0xa4
 2627 0a83 86000000 		.4byte	0x86
 2628 0a87 36020000 		.4byte	.LLST20
 2629 0a8b 00       		.byte	0x0
 2630 0a8c 1E       		.uleb128 0x1e
 2631 0a8d 24000000 		.4byte	.LBB7
 2632 0a91 2A000000 		.4byte	.LBE7
 2633 0a95 1D       		.uleb128 0x1d
 2634 0a96 746D7000 		.ascii	"tmp\000"
 2635 0a9a 01       		.byte	0x1
 2636 0a9b A6       		.byte	0xa6
 2637 0a9c 86000000 		.4byte	0x86
 2638 0aa0 49020000 		.4byte	.LLST21
 2639 0aa4 00       		.byte	0x0
 2640 0aa5 00       		.byte	0x0
 2641 0aa6 1B       		.uleb128 0x1b
 2642 0aa7 01       		.byte	0x1
 2643 0aa8 2E050000 		.4byte	.LASF130
 2644 0aac 01       		.byte	0x1
 2645 0aad DA       		.byte	0xda
 2646 0aae 01       		.byte	0x1
 2647 0aaf 00000000 		.4byte	.LFB68
 2648 0ab3 60000000 		.4byte	.LFE68
 2649 0ab7 5C020000 		.4byte	.LLST22
 2650 0abb 210B0000 		.4byte	0xb21
 2651 0abf 1A       		.uleb128 0x1a
 2652 0ac0 D0010000 		.4byte	.LASF126
 2653 0ac4 01       		.byte	0x1
 2654 0ac5 DA       		.byte	0xda
 2655 0ac6 93070000 		.4byte	0x793
 2656 0aca 7C020000 		.4byte	.LLST23
 2657 0ace 1C       		.uleb128 0x1c
 2658 0acf 06000000 		.4byte	.LBB8
 2659 0ad3 0C000000 		.4byte	.LBE8
 2660 0ad7 EB0A0000 		.4byte	0xaeb
 2661 0adb 1D       		.uleb128 0x1d
 2662 0adc 746D7000 		.ascii	"tmp\000"
 2663 0ae0 01       		.byte	0x1
 2664 0ae1 DE       		.byte	0xde
 2665 0ae2 86000000 		.4byte	0x86
 2666 0ae6 9A020000 		.4byte	.LLST24
 2667 0aea 00       		.byte	0x0
 2668 0aeb 1C       		.uleb128 0x1c
 2669 0aec 38000000 		.4byte	.LBB9
 2670 0af0 42000000 		.4byte	.LBE9
 2671 0af4 070B0000 		.4byte	0xb07
 2672 0af8 1D       		.uleb128 0x1d
 2673 0af9 747000   		.ascii	"tp\000"
 2674 0afc 01       		.byte	0x1
 2675 0afd E6       		.byte	0xe6
 2676 0afe 42020000 		.4byte	0x242
ARM GAS  /tmp/cctqM4r3.s 			page 49


 2677 0b02 AD020000 		.4byte	.LLST25
 2678 0b06 00       		.byte	0x0
 2679 0b07 1E       		.uleb128 0x1e
 2680 0b08 46000000 		.4byte	.LBB10
 2681 0b0c 4C000000 		.4byte	.LBE10
 2682 0b10 1D       		.uleb128 0x1d
 2683 0b11 746D7000 		.ascii	"tmp\000"
 2684 0b15 01       		.byte	0x1
 2685 0b16 E8       		.byte	0xe8
 2686 0b17 86000000 		.4byte	0x86
 2687 0b1b C1020000 		.4byte	.LLST26
 2688 0b1f 00       		.byte	0x0
 2689 0b20 00       		.byte	0x0
 2690 0b21 1B       		.uleb128 0x1b
 2691 0b22 01       		.byte	0x1
 2692 0b23 B6040000 		.4byte	.LASF131
 2693 0b27 01       		.byte	0x1
 2694 0b28 F5       		.byte	0xf5
 2695 0b29 01       		.byte	0x1
 2696 0b2a 00000000 		.4byte	.LFB69
 2697 0b2e 5C000000 		.4byte	.LFE69
 2698 0b32 D4020000 		.4byte	.LLST27
 2699 0b36 5F0B0000 		.4byte	0xb5f
 2700 0b3a 1A       		.uleb128 0x1a
 2701 0b3b D0010000 		.4byte	.LASF126
 2702 0b3f 01       		.byte	0x1
 2703 0b40 F5       		.byte	0xf5
 2704 0b41 93070000 		.4byte	0x793
 2705 0b45 F4020000 		.4byte	.LLST28
 2706 0b49 1F       		.uleb128 0x1f
 2707 0b4a 00000000 		.4byte	.Ldebug_ranges0+0x0
 2708 0b4e 20       		.uleb128 0x20
 2709 0b4f 747000   		.ascii	"tp\000"
 2710 0b52 01       		.byte	0x1
 2711 0b53 0201     		.2byte	0x102
 2712 0b55 42020000 		.4byte	0x242
 2713 0b59 12030000 		.4byte	.LLST29
 2714 0b5d 00       		.byte	0x0
 2715 0b5e 00       		.byte	0x0
 2716 0b5f 21       		.uleb128 0x21
 2717 0b60 01       		.byte	0x1
 2718 0b61 2B010000 		.4byte	.LASF140
 2719 0b65 01       		.byte	0x1
 2720 0b66 1E01     		.2byte	0x11e
 2721 0b68 01       		.byte	0x1
 2722 0b69 DD000000 		.4byte	0xdd
 2723 0b6d 00000000 		.4byte	.LFB70
 2724 0b71 54000000 		.4byte	.LFE70
 2725 0b75 26030000 		.4byte	.LLST30
 2726 0b79 060C0000 		.4byte	0xc06
 2727 0b7d 22       		.uleb128 0x22
 2728 0b7e D0010000 		.4byte	.LASF126
 2729 0b82 01       		.byte	0x1
 2730 0b83 1E01     		.2byte	0x11e
 2731 0b85 93070000 		.4byte	0x793
 2732 0b89 46030000 		.4byte	.LLST31
 2733 0b8d 22       		.uleb128 0x22
ARM GAS  /tmp/cctqM4r3.s 			page 50


 2734 0b8e 9C020000 		.4byte	.LASF105
 2735 0b92 01       		.byte	0x1
 2736 0b93 1F01     		.2byte	0x11f
 2737 0b95 9F080000 		.4byte	0x89f
 2738 0b99 64030000 		.4byte	.LLST32
 2739 0b9d 22       		.uleb128 0x22
 2740 0b9e B3020000 		.4byte	.LASF103
 2741 0ba2 01       		.byte	0x1
 2742 0ba3 2001     		.2byte	0x120
 2743 0ba5 99070000 		.4byte	0x799
 2744 0ba9 82030000 		.4byte	.LLST33
 2745 0bad 22       		.uleb128 0x22
 2746 0bae 0D020000 		.4byte	.LASF104
 2747 0bb2 01       		.byte	0x1
 2748 0bb3 2101     		.2byte	0x121
 2749 0bb5 30000000 		.4byte	0x30
 2750 0bb9 A0030000 		.4byte	.LLST34
 2751 0bbd 20       		.uleb128 0x20
 2752 0bbe 6D736700 		.ascii	"msg\000"
 2753 0bc2 01       		.byte	0x1
 2754 0bc3 2201     		.2byte	0x122
 2755 0bc5 DD000000 		.4byte	0xdd
 2756 0bc9 BE030000 		.4byte	.LLST35
 2757 0bcd 1C       		.uleb128 0x1c
 2758 0bce 0C000000 		.4byte	.LBB13
 2759 0bd2 12000000 		.4byte	.LBE13
 2760 0bd6 EB0B0000 		.4byte	0xbeb
 2761 0bda 20       		.uleb128 0x20
 2762 0bdb 746D7000 		.ascii	"tmp\000"
 2763 0bdf 01       		.byte	0x1
 2764 0be0 2401     		.2byte	0x124
 2765 0be2 86000000 		.4byte	0x86
 2766 0be6 E0030000 		.4byte	.LLST36
 2767 0bea 00       		.byte	0x0
 2768 0beb 1E       		.uleb128 0x1e
 2769 0bec 40000000 		.4byte	.LBB14
 2770 0bf0 46000000 		.4byte	.LBE14
 2771 0bf4 20       		.uleb128 0x20
 2772 0bf5 746D7000 		.ascii	"tmp\000"
 2773 0bf9 01       		.byte	0x1
 2774 0bfa 2A01     		.2byte	0x12a
 2775 0bfc 86000000 		.4byte	0x86
 2776 0c00 F3030000 		.4byte	.LLST37
 2777 0c04 00       		.byte	0x0
 2778 0c05 00       		.byte	0x0
 2779 0c06 23       		.uleb128 0x23
 2780 0c07 01       		.byte	0x1
 2781 0c08 48050000 		.4byte	.LASF132
 2782 0c0c 01       		.byte	0x1
 2783 0c0d 3B01     		.2byte	0x13b
 2784 0c0f 01       		.byte	0x1
 2785 0c10 00000000 		.4byte	.LFB71
 2786 0c14 20000000 		.4byte	.LFE71
 2787 0c18 06040000 		.4byte	.LLST38
 2788 0c1c 310C0000 		.4byte	0xc31
 2789 0c20 22       		.uleb128 0x22
 2790 0c21 D0010000 		.4byte	.LASF126
ARM GAS  /tmp/cctqM4r3.s 			page 51


 2791 0c25 01       		.byte	0x1
 2792 0c26 3B01     		.2byte	0x13b
 2793 0c28 93070000 		.4byte	0x793
 2794 0c2c 26040000 		.4byte	.LLST39
 2795 0c30 00       		.byte	0x0
 2796 0c31 23       		.uleb128 0x23
 2797 0c32 01       		.byte	0x1
 2798 0c33 07040000 		.4byte	.LASF133
 2799 0c37 01       		.byte	0x1
 2800 0c38 4F01     		.2byte	0x14f
 2801 0c3a 01       		.byte	0x1
 2802 0c3b 00000000 		.4byte	.LFB72
 2803 0c3f 18000000 		.4byte	.LFE72
 2804 0c43 44040000 		.4byte	.LLST40
 2805 0c47 5C0C0000 		.4byte	0xc5c
 2806 0c4b 22       		.uleb128 0x22
 2807 0c4c D0010000 		.4byte	.LASF126
 2808 0c50 01       		.byte	0x1
 2809 0c51 4F01     		.2byte	0x14f
 2810 0c53 93070000 		.4byte	0x793
 2811 0c57 64040000 		.4byte	.LLST41
 2812 0c5b 00       		.byte	0x0
 2813 0c5c 24       		.uleb128 0x24
 2814 0c5d A8040000 		.4byte	.LASF134
 2815 0c61 08       		.byte	0x8
 2816 0c62 72       		.byte	0x72
 2817 0c63 B2030000 		.4byte	0x3b2
 2818 0c67 01       		.byte	0x1
 2819 0c68 01       		.byte	0x1
 2820 0c69 25       		.uleb128 0x25
 2821 0c6a 50000000 		.4byte	.LASF135
 2822 0c6e 0E       		.byte	0xe
 2823 0c6f 9404     		.2byte	0x494
 2824 0c71 58040000 		.4byte	0x458
 2825 0c75 01       		.byte	0x1
 2826 0c76 01       		.byte	0x1
 2827 0c77 24       		.uleb128 0x24
 2828 0c78 A8040000 		.4byte	.LASF134
 2829 0c7c 08       		.byte	0x8
 2830 0c7d 72       		.byte	0x72
 2831 0c7e B2030000 		.4byte	0x3b2
 2832 0c82 01       		.byte	0x1
 2833 0c83 01       		.byte	0x1
 2834 0c84 25       		.uleb128 0x25
 2835 0c85 50000000 		.4byte	.LASF135
 2836 0c89 0E       		.byte	0xe
 2837 0c8a 9404     		.2byte	0x494
 2838 0c8c 58040000 		.4byte	0x458
 2839 0c90 01       		.byte	0x1
 2840 0c91 01       		.byte	0x1
 2841 0c92 00       		.byte	0x0
 2842              		.section	.debug_abbrev
 2843 0000 01       		.uleb128 0x1
 2844 0001 11       		.uleb128 0x11
 2845 0002 01       		.byte	0x1
 2846 0003 25       		.uleb128 0x25
 2847 0004 0E       		.uleb128 0xe
ARM GAS  /tmp/cctqM4r3.s 			page 52


 2848 0005 13       		.uleb128 0x13
 2849 0006 0B       		.uleb128 0xb
 2850 0007 03       		.uleb128 0x3
 2851 0008 0E       		.uleb128 0xe
 2852 0009 1B       		.uleb128 0x1b
 2853 000a 0E       		.uleb128 0xe
 2854 000b 11       		.uleb128 0x11
 2855 000c 01       		.uleb128 0x1
 2856 000d 52       		.uleb128 0x52
 2857 000e 01       		.uleb128 0x1
 2858 000f 55       		.uleb128 0x55
 2859 0010 06       		.uleb128 0x6
 2860 0011 10       		.uleb128 0x10
 2861 0012 06       		.uleb128 0x6
 2862 0013 00       		.byte	0x0
 2863 0014 00       		.byte	0x0
 2864 0015 02       		.uleb128 0x2
 2865 0016 24       		.uleb128 0x24
 2866 0017 00       		.byte	0x0
 2867 0018 0B       		.uleb128 0xb
 2868 0019 0B       		.uleb128 0xb
 2869 001a 3E       		.uleb128 0x3e
 2870 001b 0B       		.uleb128 0xb
 2871 001c 03       		.uleb128 0x3
 2872 001d 08       		.uleb128 0x8
 2873 001e 00       		.byte	0x0
 2874 001f 00       		.byte	0x0
 2875 0020 03       		.uleb128 0x3
 2876 0021 16       		.uleb128 0x16
 2877 0022 00       		.byte	0x0
 2878 0023 03       		.uleb128 0x3
 2879 0024 0E       		.uleb128 0xe
 2880 0025 3A       		.uleb128 0x3a
 2881 0026 0B       		.uleb128 0xb
 2882 0027 3B       		.uleb128 0x3b
 2883 0028 0B       		.uleb128 0xb
 2884 0029 49       		.uleb128 0x49
 2885 002a 13       		.uleb128 0x13
 2886 002b 00       		.byte	0x0
 2887 002c 00       		.byte	0x0
 2888 002d 04       		.uleb128 0x4
 2889 002e 24       		.uleb128 0x24
 2890 002f 00       		.byte	0x0
 2891 0030 0B       		.uleb128 0xb
 2892 0031 0B       		.uleb128 0xb
 2893 0032 3E       		.uleb128 0x3e
 2894 0033 0B       		.uleb128 0xb
 2895 0034 03       		.uleb128 0x3
 2896 0035 0E       		.uleb128 0xe
 2897 0036 00       		.byte	0x0
 2898 0037 00       		.byte	0x0
 2899 0038 05       		.uleb128 0x5
 2900 0039 13       		.uleb128 0x13
 2901 003a 01       		.byte	0x1
 2902 003b 03       		.uleb128 0x3
 2903 003c 0E       		.uleb128 0xe
 2904 003d 0B       		.uleb128 0xb
ARM GAS  /tmp/cctqM4r3.s 			page 53


 2905 003e 0B       		.uleb128 0xb
 2906 003f 3A       		.uleb128 0x3a
 2907 0040 0B       		.uleb128 0xb
 2908 0041 3B       		.uleb128 0x3b
 2909 0042 0B       		.uleb128 0xb
 2910 0043 01       		.uleb128 0x1
 2911 0044 13       		.uleb128 0x13
 2912 0045 00       		.byte	0x0
 2913 0046 00       		.byte	0x0
 2914 0047 06       		.uleb128 0x6
 2915 0048 0D       		.uleb128 0xd
 2916 0049 00       		.byte	0x0
 2917 004a 03       		.uleb128 0x3
 2918 004b 0E       		.uleb128 0xe
 2919 004c 3A       		.uleb128 0x3a
 2920 004d 0B       		.uleb128 0xb
 2921 004e 3B       		.uleb128 0x3b
 2922 004f 0B       		.uleb128 0xb
 2923 0050 49       		.uleb128 0x49
 2924 0051 13       		.uleb128 0x13
 2925 0052 38       		.uleb128 0x38
 2926 0053 0A       		.uleb128 0xa
 2927 0054 00       		.byte	0x0
 2928 0055 00       		.byte	0x0
 2929 0056 07       		.uleb128 0x7
 2930 0057 0D       		.uleb128 0xd
 2931 0058 00       		.byte	0x0
 2932 0059 03       		.uleb128 0x3
 2933 005a 08       		.uleb128 0x8
 2934 005b 3A       		.uleb128 0x3a
 2935 005c 0B       		.uleb128 0xb
 2936 005d 3B       		.uleb128 0x3b
 2937 005e 0B       		.uleb128 0xb
 2938 005f 49       		.uleb128 0x49
 2939 0060 13       		.uleb128 0x13
 2940 0061 38       		.uleb128 0x38
 2941 0062 0A       		.uleb128 0xa
 2942 0063 00       		.byte	0x0
 2943 0064 00       		.byte	0x0
 2944 0065 08       		.uleb128 0x8
 2945 0066 13       		.uleb128 0x13
 2946 0067 01       		.byte	0x1
 2947 0068 0B       		.uleb128 0xb
 2948 0069 0B       		.uleb128 0xb
 2949 006a 3A       		.uleb128 0x3a
 2950 006b 0B       		.uleb128 0xb
 2951 006c 3B       		.uleb128 0x3b
 2952 006d 0B       		.uleb128 0xb
 2953 006e 01       		.uleb128 0x1
 2954 006f 13       		.uleb128 0x13
 2955 0070 00       		.byte	0x0
 2956 0071 00       		.byte	0x0
 2957 0072 09       		.uleb128 0x9
 2958 0073 0F       		.uleb128 0xf
 2959 0074 00       		.byte	0x0
 2960 0075 0B       		.uleb128 0xb
 2961 0076 0B       		.uleb128 0xb
ARM GAS  /tmp/cctqM4r3.s 			page 54


 2962 0077 49       		.uleb128 0x49
 2963 0078 13       		.uleb128 0x13
 2964 0079 00       		.byte	0x0
 2965 007a 00       		.byte	0x0
 2966 007b 0A       		.uleb128 0xa
 2967 007c 0F       		.uleb128 0xf
 2968 007d 00       		.byte	0x0
 2969 007e 0B       		.uleb128 0xb
 2970 007f 0B       		.uleb128 0xb
 2971 0080 00       		.byte	0x0
 2972 0081 00       		.byte	0x0
 2973 0082 0B       		.uleb128 0xb
 2974 0083 0D       		.uleb128 0xd
 2975 0084 00       		.byte	0x0
 2976 0085 03       		.uleb128 0x3
 2977 0086 08       		.uleb128 0x8
 2978 0087 3A       		.uleb128 0x3a
 2979 0088 0B       		.uleb128 0xb
 2980 0089 3B       		.uleb128 0x3b
 2981 008a 05       		.uleb128 0x5
 2982 008b 49       		.uleb128 0x49
 2983 008c 13       		.uleb128 0x13
 2984 008d 38       		.uleb128 0x38
 2985 008e 0A       		.uleb128 0xa
 2986 008f 00       		.byte	0x0
 2987 0090 00       		.byte	0x0
 2988 0091 0C       		.uleb128 0xc
 2989 0092 13       		.uleb128 0x13
 2990 0093 01       		.byte	0x1
 2991 0094 03       		.uleb128 0x3
 2992 0095 0E       		.uleb128 0xe
 2993 0096 0B       		.uleb128 0xb
 2994 0097 0B       		.uleb128 0xb
 2995 0098 3A       		.uleb128 0x3a
 2996 0099 0B       		.uleb128 0xb
 2997 009a 3B       		.uleb128 0x3b
 2998 009b 05       		.uleb128 0x5
 2999 009c 01       		.uleb128 0x1
 3000 009d 13       		.uleb128 0x13
 3001 009e 00       		.byte	0x0
 3002 009f 00       		.byte	0x0
 3003 00a0 0D       		.uleb128 0xd
 3004 00a1 35       		.uleb128 0x35
 3005 00a2 00       		.byte	0x0
 3006 00a3 49       		.uleb128 0x49
 3007 00a4 13       		.uleb128 0x13
 3008 00a5 00       		.byte	0x0
 3009 00a6 00       		.byte	0x0
 3010 00a7 0E       		.uleb128 0xe
 3011 00a8 17       		.uleb128 0x17
 3012 00a9 01       		.byte	0x1
 3013 00aa 0B       		.uleb128 0xb
 3014 00ab 0B       		.uleb128 0xb
 3015 00ac 3A       		.uleb128 0x3a
 3016 00ad 0B       		.uleb128 0xb
 3017 00ae 3B       		.uleb128 0x3b
 3018 00af 0B       		.uleb128 0xb
ARM GAS  /tmp/cctqM4r3.s 			page 55


 3019 00b0 01       		.uleb128 0x1
 3020 00b1 13       		.uleb128 0x13
 3021 00b2 00       		.byte	0x0
 3022 00b3 00       		.byte	0x0
 3023 00b4 0F       		.uleb128 0xf
 3024 00b5 0D       		.uleb128 0xd
 3025 00b6 00       		.byte	0x0
 3026 00b7 03       		.uleb128 0x3
 3027 00b8 0E       		.uleb128 0xe
 3028 00b9 3A       		.uleb128 0x3a
 3029 00ba 0B       		.uleb128 0xb
 3030 00bb 3B       		.uleb128 0x3b
 3031 00bc 0B       		.uleb128 0xb
 3032 00bd 49       		.uleb128 0x49
 3033 00be 13       		.uleb128 0x13
 3034 00bf 00       		.byte	0x0
 3035 00c0 00       		.byte	0x0
 3036 00c1 10       		.uleb128 0x10
 3037 00c2 26       		.uleb128 0x26
 3038 00c3 00       		.byte	0x0
 3039 00c4 49       		.uleb128 0x49
 3040 00c5 13       		.uleb128 0x13
 3041 00c6 00       		.byte	0x0
 3042 00c7 00       		.byte	0x0
 3043 00c8 11       		.uleb128 0x11
 3044 00c9 13       		.uleb128 0x13
 3045 00ca 01       		.byte	0x1
 3046 00cb 0B       		.uleb128 0xb
 3047 00cc 0B       		.uleb128 0xb
 3048 00cd 3A       		.uleb128 0x3a
 3049 00ce 0B       		.uleb128 0xb
 3050 00cf 3B       		.uleb128 0x3b
 3051 00d0 05       		.uleb128 0x5
 3052 00d1 01       		.uleb128 0x1
 3053 00d2 13       		.uleb128 0x13
 3054 00d3 00       		.byte	0x0
 3055 00d4 00       		.byte	0x0
 3056 00d5 12       		.uleb128 0x12
 3057 00d6 0D       		.uleb128 0xd
 3058 00d7 00       		.byte	0x0
 3059 00d8 03       		.uleb128 0x3
 3060 00d9 0E       		.uleb128 0xe
 3061 00da 3A       		.uleb128 0x3a
 3062 00db 0B       		.uleb128 0xb
 3063 00dc 3B       		.uleb128 0x3b
 3064 00dd 05       		.uleb128 0x5
 3065 00de 49       		.uleb128 0x49
 3066 00df 13       		.uleb128 0x13
 3067 00e0 38       		.uleb128 0x38
 3068 00e1 0A       		.uleb128 0xa
 3069 00e2 00       		.byte	0x0
 3070 00e3 00       		.byte	0x0
 3071 00e4 13       		.uleb128 0x13
 3072 00e5 16       		.uleb128 0x16
 3073 00e6 00       		.byte	0x0
 3074 00e7 03       		.uleb128 0x3
 3075 00e8 0E       		.uleb128 0xe
ARM GAS  /tmp/cctqM4r3.s 			page 56


 3076 00e9 3A       		.uleb128 0x3a
 3077 00ea 0B       		.uleb128 0xb
 3078 00eb 3B       		.uleb128 0x3b
 3079 00ec 05       		.uleb128 0x5
 3080 00ed 49       		.uleb128 0x49
 3081 00ee 13       		.uleb128 0x13
 3082 00ef 00       		.byte	0x0
 3083 00f0 00       		.byte	0x0
 3084 00f1 14       		.uleb128 0x14
 3085 00f2 04       		.uleb128 0x4
 3086 00f3 01       		.byte	0x1
 3087 00f4 0B       		.uleb128 0xb
 3088 00f5 0B       		.uleb128 0xb
 3089 00f6 3A       		.uleb128 0x3a
 3090 00f7 0B       		.uleb128 0xb
 3091 00f8 3B       		.uleb128 0x3b
 3092 00f9 0B       		.uleb128 0xb
 3093 00fa 01       		.uleb128 0x1
 3094 00fb 13       		.uleb128 0x13
 3095 00fc 00       		.byte	0x0
 3096 00fd 00       		.byte	0x0
 3097 00fe 15       		.uleb128 0x15
 3098 00ff 28       		.uleb128 0x28
 3099 0100 00       		.byte	0x0
 3100 0101 03       		.uleb128 0x3
 3101 0102 0E       		.uleb128 0xe
 3102 0103 1C       		.uleb128 0x1c
 3103 0104 0D       		.uleb128 0xd
 3104 0105 00       		.byte	0x0
 3105 0106 00       		.byte	0x0
 3106 0107 16       		.uleb128 0x16
 3107 0108 15       		.uleb128 0x15
 3108 0109 01       		.byte	0x1
 3109 010a 27       		.uleb128 0x27
 3110 010b 0C       		.uleb128 0xc
 3111 010c 01       		.uleb128 0x1
 3112 010d 13       		.uleb128 0x13
 3113 010e 00       		.byte	0x0
 3114 010f 00       		.byte	0x0
 3115 0110 17       		.uleb128 0x17
 3116 0111 05       		.uleb128 0x5
 3117 0112 00       		.byte	0x0
 3118 0113 49       		.uleb128 0x49
 3119 0114 13       		.uleb128 0x13
 3120 0115 00       		.byte	0x0
 3121 0116 00       		.byte	0x0
 3122 0117 18       		.uleb128 0x18
 3123 0118 2E       		.uleb128 0x2e
 3124 0119 00       		.byte	0x0
 3125 011a 3F       		.uleb128 0x3f
 3126 011b 0C       		.uleb128 0xc
 3127 011c 03       		.uleb128 0x3
 3128 011d 0E       		.uleb128 0xe
 3129 011e 3A       		.uleb128 0x3a
 3130 011f 0B       		.uleb128 0xb
 3131 0120 3B       		.uleb128 0x3b
 3132 0121 0B       		.uleb128 0xb
ARM GAS  /tmp/cctqM4r3.s 			page 57


 3133 0122 27       		.uleb128 0x27
 3134 0123 0C       		.uleb128 0xc
 3135 0124 11       		.uleb128 0x11
 3136 0125 01       		.uleb128 0x1
 3137 0126 12       		.uleb128 0x12
 3138 0127 01       		.uleb128 0x1
 3139 0128 40       		.uleb128 0x40
 3140 0129 0A       		.uleb128 0xa
 3141 012a 00       		.byte	0x0
 3142 012b 00       		.byte	0x0
 3143 012c 19       		.uleb128 0x19
 3144 012d 2E       		.uleb128 0x2e
 3145 012e 01       		.byte	0x1
 3146 012f 3F       		.uleb128 0x3f
 3147 0130 0C       		.uleb128 0xc
 3148 0131 03       		.uleb128 0x3
 3149 0132 0E       		.uleb128 0xe
 3150 0133 3A       		.uleb128 0x3a
 3151 0134 0B       		.uleb128 0xb
 3152 0135 3B       		.uleb128 0x3b
 3153 0136 0B       		.uleb128 0xb
 3154 0137 27       		.uleb128 0x27
 3155 0138 0C       		.uleb128 0xc
 3156 0139 11       		.uleb128 0x11
 3157 013a 01       		.uleb128 0x1
 3158 013b 12       		.uleb128 0x12
 3159 013c 01       		.uleb128 0x1
 3160 013d 40       		.uleb128 0x40
 3161 013e 0A       		.uleb128 0xa
 3162 013f 01       		.uleb128 0x1
 3163 0140 13       		.uleb128 0x13
 3164 0141 00       		.byte	0x0
 3165 0142 00       		.byte	0x0
 3166 0143 1A       		.uleb128 0x1a
 3167 0144 05       		.uleb128 0x5
 3168 0145 00       		.byte	0x0
 3169 0146 03       		.uleb128 0x3
 3170 0147 0E       		.uleb128 0xe
 3171 0148 3A       		.uleb128 0x3a
 3172 0149 0B       		.uleb128 0xb
 3173 014a 3B       		.uleb128 0x3b
 3174 014b 0B       		.uleb128 0xb
 3175 014c 49       		.uleb128 0x49
 3176 014d 13       		.uleb128 0x13
 3177 014e 02       		.uleb128 0x2
 3178 014f 06       		.uleb128 0x6
 3179 0150 00       		.byte	0x0
 3180 0151 00       		.byte	0x0
 3181 0152 1B       		.uleb128 0x1b
 3182 0153 2E       		.uleb128 0x2e
 3183 0154 01       		.byte	0x1
 3184 0155 3F       		.uleb128 0x3f
 3185 0156 0C       		.uleb128 0xc
 3186 0157 03       		.uleb128 0x3
 3187 0158 0E       		.uleb128 0xe
 3188 0159 3A       		.uleb128 0x3a
 3189 015a 0B       		.uleb128 0xb
ARM GAS  /tmp/cctqM4r3.s 			page 58


 3190 015b 3B       		.uleb128 0x3b
 3191 015c 0B       		.uleb128 0xb
 3192 015d 27       		.uleb128 0x27
 3193 015e 0C       		.uleb128 0xc
 3194 015f 11       		.uleb128 0x11
 3195 0160 01       		.uleb128 0x1
 3196 0161 12       		.uleb128 0x12
 3197 0162 01       		.uleb128 0x1
 3198 0163 40       		.uleb128 0x40
 3199 0164 06       		.uleb128 0x6
 3200 0165 01       		.uleb128 0x1
 3201 0166 13       		.uleb128 0x13
 3202 0167 00       		.byte	0x0
 3203 0168 00       		.byte	0x0
 3204 0169 1C       		.uleb128 0x1c
 3205 016a 0B       		.uleb128 0xb
 3206 016b 01       		.byte	0x1
 3207 016c 11       		.uleb128 0x11
 3208 016d 01       		.uleb128 0x1
 3209 016e 12       		.uleb128 0x12
 3210 016f 01       		.uleb128 0x1
 3211 0170 01       		.uleb128 0x1
 3212 0171 13       		.uleb128 0x13
 3213 0172 00       		.byte	0x0
 3214 0173 00       		.byte	0x0
 3215 0174 1D       		.uleb128 0x1d
 3216 0175 34       		.uleb128 0x34
 3217 0176 00       		.byte	0x0
 3218 0177 03       		.uleb128 0x3
 3219 0178 08       		.uleb128 0x8
 3220 0179 3A       		.uleb128 0x3a
 3221 017a 0B       		.uleb128 0xb
 3222 017b 3B       		.uleb128 0x3b
 3223 017c 0B       		.uleb128 0xb
 3224 017d 49       		.uleb128 0x49
 3225 017e 13       		.uleb128 0x13
 3226 017f 02       		.uleb128 0x2
 3227 0180 06       		.uleb128 0x6
 3228 0181 00       		.byte	0x0
 3229 0182 00       		.byte	0x0
 3230 0183 1E       		.uleb128 0x1e
 3231 0184 0B       		.uleb128 0xb
 3232 0185 01       		.byte	0x1
 3233 0186 11       		.uleb128 0x11
 3234 0187 01       		.uleb128 0x1
 3235 0188 12       		.uleb128 0x12
 3236 0189 01       		.uleb128 0x1
 3237 018a 00       		.byte	0x0
 3238 018b 00       		.byte	0x0
 3239 018c 1F       		.uleb128 0x1f
 3240 018d 0B       		.uleb128 0xb
 3241 018e 01       		.byte	0x1
 3242 018f 55       		.uleb128 0x55
 3243 0190 06       		.uleb128 0x6
 3244 0191 00       		.byte	0x0
 3245 0192 00       		.byte	0x0
 3246 0193 20       		.uleb128 0x20
ARM GAS  /tmp/cctqM4r3.s 			page 59


 3247 0194 34       		.uleb128 0x34
 3248 0195 00       		.byte	0x0
 3249 0196 03       		.uleb128 0x3
 3250 0197 08       		.uleb128 0x8
 3251 0198 3A       		.uleb128 0x3a
 3252 0199 0B       		.uleb128 0xb
 3253 019a 3B       		.uleb128 0x3b
 3254 019b 05       		.uleb128 0x5
 3255 019c 49       		.uleb128 0x49
 3256 019d 13       		.uleb128 0x13
 3257 019e 02       		.uleb128 0x2
 3258 019f 06       		.uleb128 0x6
 3259 01a0 00       		.byte	0x0
 3260 01a1 00       		.byte	0x0
 3261 01a2 21       		.uleb128 0x21
 3262 01a3 2E       		.uleb128 0x2e
 3263 01a4 01       		.byte	0x1
 3264 01a5 3F       		.uleb128 0x3f
 3265 01a6 0C       		.uleb128 0xc
 3266 01a7 03       		.uleb128 0x3
 3267 01a8 0E       		.uleb128 0xe
 3268 01a9 3A       		.uleb128 0x3a
 3269 01aa 0B       		.uleb128 0xb
 3270 01ab 3B       		.uleb128 0x3b
 3271 01ac 05       		.uleb128 0x5
 3272 01ad 27       		.uleb128 0x27
 3273 01ae 0C       		.uleb128 0xc
 3274 01af 49       		.uleb128 0x49
 3275 01b0 13       		.uleb128 0x13
 3276 01b1 11       		.uleb128 0x11
 3277 01b2 01       		.uleb128 0x1
 3278 01b3 12       		.uleb128 0x12
 3279 01b4 01       		.uleb128 0x1
 3280 01b5 40       		.uleb128 0x40
 3281 01b6 06       		.uleb128 0x6
 3282 01b7 01       		.uleb128 0x1
 3283 01b8 13       		.uleb128 0x13
 3284 01b9 00       		.byte	0x0
 3285 01ba 00       		.byte	0x0
 3286 01bb 22       		.uleb128 0x22
 3287 01bc 05       		.uleb128 0x5
 3288 01bd 00       		.byte	0x0
 3289 01be 03       		.uleb128 0x3
 3290 01bf 0E       		.uleb128 0xe
 3291 01c0 3A       		.uleb128 0x3a
 3292 01c1 0B       		.uleb128 0xb
 3293 01c2 3B       		.uleb128 0x3b
 3294 01c3 05       		.uleb128 0x5
 3295 01c4 49       		.uleb128 0x49
 3296 01c5 13       		.uleb128 0x13
 3297 01c6 02       		.uleb128 0x2
 3298 01c7 06       		.uleb128 0x6
 3299 01c8 00       		.byte	0x0
 3300 01c9 00       		.byte	0x0
 3301 01ca 23       		.uleb128 0x23
 3302 01cb 2E       		.uleb128 0x2e
 3303 01cc 01       		.byte	0x1
ARM GAS  /tmp/cctqM4r3.s 			page 60


 3304 01cd 3F       		.uleb128 0x3f
 3305 01ce 0C       		.uleb128 0xc
 3306 01cf 03       		.uleb128 0x3
 3307 01d0 0E       		.uleb128 0xe
 3308 01d1 3A       		.uleb128 0x3a
 3309 01d2 0B       		.uleb128 0xb
 3310 01d3 3B       		.uleb128 0x3b
 3311 01d4 05       		.uleb128 0x5
 3312 01d5 27       		.uleb128 0x27
 3313 01d6 0C       		.uleb128 0xc
 3314 01d7 11       		.uleb128 0x11
 3315 01d8 01       		.uleb128 0x1
 3316 01d9 12       		.uleb128 0x12
 3317 01da 01       		.uleb128 0x1
 3318 01db 40       		.uleb128 0x40
 3319 01dc 06       		.uleb128 0x6
 3320 01dd 01       		.uleb128 0x1
 3321 01de 13       		.uleb128 0x13
 3322 01df 00       		.byte	0x0
 3323 01e0 00       		.byte	0x0
 3324 01e1 24       		.uleb128 0x24
 3325 01e2 34       		.uleb128 0x34
 3326 01e3 00       		.byte	0x0
 3327 01e4 03       		.uleb128 0x3
 3328 01e5 0E       		.uleb128 0xe
 3329 01e6 3A       		.uleb128 0x3a
 3330 01e7 0B       		.uleb128 0xb
 3331 01e8 3B       		.uleb128 0x3b
 3332 01e9 0B       		.uleb128 0xb
 3333 01ea 49       		.uleb128 0x49
 3334 01eb 13       		.uleb128 0x13
 3335 01ec 3F       		.uleb128 0x3f
 3336 01ed 0C       		.uleb128 0xc
 3337 01ee 3C       		.uleb128 0x3c
 3338 01ef 0C       		.uleb128 0xc
 3339 01f0 00       		.byte	0x0
 3340 01f1 00       		.byte	0x0
 3341 01f2 25       		.uleb128 0x25
 3342 01f3 34       		.uleb128 0x34
 3343 01f4 00       		.byte	0x0
 3344 01f5 03       		.uleb128 0x3
 3345 01f6 0E       		.uleb128 0xe
 3346 01f7 3A       		.uleb128 0x3a
 3347 01f8 0B       		.uleb128 0xb
 3348 01f9 3B       		.uleb128 0x3b
 3349 01fa 05       		.uleb128 0x5
 3350 01fb 49       		.uleb128 0x49
 3351 01fc 13       		.uleb128 0x13
 3352 01fd 3F       		.uleb128 0x3f
 3353 01fe 0C       		.uleb128 0xc
 3354 01ff 3C       		.uleb128 0x3c
 3355 0200 0C       		.uleb128 0xc
 3356 0201 00       		.byte	0x0
 3357 0202 00       		.byte	0x0
 3358 0203 00       		.byte	0x0
 3359              		.section	.debug_pubnames,"",%progbits
 3360 0000 D4000000 		.4byte	0xd4
ARM GAS  /tmp/cctqM4r3.s 			page 61


 3361 0004 0200     		.2byte	0x2
 3362 0006 00000000 		.4byte	.Ldebug_info0
 3363 000a 930C0000 		.4byte	0xc93
 3364 000e BB080000 		.4byte	0x8bb
 3365 0012 61646349 		.ascii	"adcInit\000"
 3365      6E697400 
 3366 001a CF080000 		.4byte	0x8cf
 3367 001e 6164634F 		.ascii	"adcObjectInit\000"
 3367      626A6563 
 3367      74496E69 
 3367      7400
 3368 002c F7080000 		.4byte	0x8f7
 3369 0030 61646353 		.ascii	"adcStart\000"
 3369      74617274 
 3369      00
 3370 0039 65090000 		.4byte	0x965
 3371 003d 61646353 		.ascii	"adcStop\000"
 3371      746F7000 
 3372 0045 C4090000 		.4byte	0x9c4
 3373 0049 61646353 		.ascii	"adcStartConversionI\000"
 3373      74617274 
 3373      436F6E76 
 3373      65727369 
 3373      6F6E4900 
 3374 005d 1A0A0000 		.4byte	0xa1a
 3375 0061 61646353 		.ascii	"adcStartConversion\000"
 3375      74617274 
 3375      436F6E76 
 3375      65727369 
 3375      6F6E00
 3376 0074 A60A0000 		.4byte	0xaa6
 3377 0078 61646353 		.ascii	"adcStopConversion\000"
 3377      746F7043 
 3377      6F6E7665 
 3377      7273696F 
 3377      6E00
 3378 008a 210B0000 		.4byte	0xb21
 3379 008e 61646353 		.ascii	"adcStopConversionI\000"
 3379      746F7043 
 3379      6F6E7665 
 3379      7273696F 
 3379      6E4900
 3380 00a1 5F0B0000 		.4byte	0xb5f
 3381 00a5 61646343 		.ascii	"adcConvert\000"
 3381      6F6E7665 
 3381      727400
 3382 00b0 060C0000 		.4byte	0xc06
 3383 00b4 61646341 		.ascii	"adcAcquireBus\000"
 3383      63717569 
 3383      72654275 
 3383      7300
 3384 00c2 310C0000 		.4byte	0xc31
 3385 00c6 61646352 		.ascii	"adcReleaseBus\000"
 3385      656C6561 
 3385      73654275 
 3385      7300
 3386 00d4 00000000 		.4byte	0x0
ARM GAS  /tmp/cctqM4r3.s 			page 62


 3387              		.section	.debug_pubtypes,"",%progbits
 3388 0000 34020000 		.4byte	0x234
 3389 0004 0200     		.2byte	0x2
 3390 0006 00000000 		.4byte	.Ldebug_info0
 3391 000a 930C0000 		.4byte	0xc93
 3392 000e 30000000 		.4byte	0x30
 3393 0012 73697A65 		.ascii	"size_t\000"
 3393      5F7400
 3394 0019 49000000 		.4byte	0x49
 3395 001d 75696E74 		.ascii	"uint8_t\000"
 3395      385F7400 
 3396 0025 62000000 		.4byte	0x62
 3397 0029 75696E74 		.ascii	"uint16_t\000"
 3397      31365F74 
 3397      00
 3398 0032 74000000 		.4byte	0x74
 3399 0036 696E7433 		.ascii	"int32_t\000"
 3399      325F7400 
 3400 003e 86000000 		.4byte	0x86
 3401 0042 75696E74 		.ascii	"uint32_t\000"
 3401      33325F74 
 3401      00
 3402 004b 9F000000 		.4byte	0x9f
 3403 004f 75696E74 		.ascii	"uint64_t\000"
 3403      36345F74 
 3403      00
 3404 0058 B1000000 		.4byte	0xb1
 3405 005c 626F6F6C 		.ascii	"bool_t\000"
 3405      5F7400
 3406 0063 BC000000 		.4byte	0xbc
 3407 0067 746D6F64 		.ascii	"tmode_t\000"
 3407      655F7400 
 3408 006f C7000000 		.4byte	0xc7
 3409 0073 74737461 		.ascii	"tstate_t\000"
 3409      74655F74 
 3409      00
 3410 007c D2000000 		.4byte	0xd2
 3411 0080 74707269 		.ascii	"tprio_t\000"
 3411      6F5F7400 
 3412 0088 DD000000 		.4byte	0xdd
 3413 008c 6D73675F 		.ascii	"msg_t\000"
 3413      7400
 3414 0092 E8000000 		.4byte	0xe8
 3415 0096 6576656E 		.ascii	"eventmask_t\000"
 3415      746D6173 
 3415      6B5F7400 
 3416 00a2 F3000000 		.4byte	0xf3
 3417 00a6 73797374 		.ascii	"systime_t\000"
 3417      696D655F 
 3417      7400
 3418 00b0 FE000000 		.4byte	0xfe
 3419 00b4 636E745F 		.ascii	"cnt_t\000"
 3419      7400
 3420 00ba 09010000 		.4byte	0x109
 3421 00be 54687265 		.ascii	"Thread\000"
 3421      616400
 3422 00c5 48020000 		.4byte	0x248
ARM GAS  /tmp/cctqM4r3.s 			page 63


 3423 00c9 54687265 		.ascii	"ThreadsQueue\000"
 3423      61647351 
 3423      75657565 
 3423      00
 3424 00d6 6A020000 		.4byte	0x26a
 3425 00da 54687265 		.ascii	"ThreadsList\000"
 3425      6164734C 
 3425      69737400 
 3426 00e6 75020000 		.4byte	0x275
 3427 00ea 72656761 		.ascii	"regarm_t\000"
 3427      726D5F74 
 3427      00
 3428 00f3 82020000 		.4byte	0x282
 3429 00f7 73746B61 		.ascii	"stkalign_t\000"
 3429      6C69676E 
 3429      5F7400
 3430 0102 8D020000 		.4byte	0x28d
 3431 0106 696E7463 		.ascii	"intctx\000"
 3431      747800
 3432 010d 1A030000 		.4byte	0x31a
 3433 0111 636F6E74 		.ascii	"context\000"
 3433      65787400 
 3434 0119 B2030000 		.4byte	0x3b2
 3435 011d 52656164 		.ascii	"ReadyList\000"
 3435      794C6973 
 3435      7400
 3436 0127 BD030000 		.4byte	0x3bd
 3437 012b 4D757465 		.ascii	"Mutex\000"
 3437      7800
 3438 0131 FA030000 		.4byte	0x3fa
 3439 0135 4D757465 		.ascii	"Mutex\000"
 3439      7800
 3440 013b 14010000 		.4byte	0x114
 3441 013f 54687265 		.ascii	"Thread\000"
 3441      616400
 3442 0146 91050000 		.4byte	0x591
 3443 014a 4144435F 		.ascii	"ADC_TypeDef\000"
 3443      54797065 
 3443      44656600 
 3444 0156 E3050000 		.4byte	0x5e3
 3445 015a 444D415F 		.ascii	"DMA_Channel_TypeDef\000"
 3445      4368616E 
 3445      6E656C5F 
 3445      54797065 
 3445      44656600 
 3446 016e 4A060000 		.4byte	0x64a
 3447 0172 73746D33 		.ascii	"stm32_dma_stream_t\000"
 3447      325F646D 
 3447      615F7374 
 3447      7265616D 
 3447      5F7400
 3448 0185 82060000 		.4byte	0x682
 3449 0189 61646373 		.ascii	"adcstate_t\000"
 3449      74617465 
 3449      5F7400
 3450 0194 8D060000 		.4byte	0x68d
 3451 0198 61646373 		.ascii	"adcsample_t\000"
ARM GAS  /tmp/cctqM4r3.s 			page 64


 3451      616D706C 
 3451      655F7400 
 3452 01a4 98060000 		.4byte	0x698
 3453 01a8 6164635F 		.ascii	"adc_channels_num_t\000"
 3453      6368616E 
 3453      6E656C73 
 3453      5F6E756D 
 3453      5F7400
 3454 01bb B2060000 		.4byte	0x6b2
 3455 01bf 61646365 		.ascii	"adcerror_t\000"
 3455      72726F72 
 3455      5F7400
 3456 01ca BD060000 		.4byte	0x6bd
 3457 01ce 41444344 		.ascii	"ADCDriver\000"
 3457      72697665 
 3457      7200
 3458 01d8 6C070000 		.4byte	0x76c
 3459 01dc 61646363 		.ascii	"adccallback_t\000"
 3459      616C6C62 
 3459      61636B5F 
 3459      7400
 3460 01ea 9F070000 		.4byte	0x79f
 3461 01ee 61646365 		.ascii	"adcerrorcallback_t\000"
 3461      72726F72 
 3461      63616C6C 
 3461      6261636B 
 3461      5F7400
 3462 0201 64080000 		.4byte	0x864
 3463 0205 41444343 		.ascii	"ADCConversionGroup\000"
 3463      6F6E7665 
 3463      7273696F 
 3463      6E47726F 
 3463      757000
 3464 0218 88080000 		.4byte	0x888
 3465 021c 41444343 		.ascii	"ADCConfig\000"
 3465      6F6E6669 
 3465      6700
 3466 0226 C8060000 		.4byte	0x6c8
 3467 022a 41444344 		.ascii	"ADCDriver\000"
 3467      72697665 
 3467      7200
 3468 0234 00000000 		.4byte	0x0
 3469              		.section	.debug_aranges,"",%progbits
 3470 0000 6C000000 		.4byte	0x6c
 3471 0004 0200     		.2byte	0x2
 3472 0006 00000000 		.4byte	.Ldebug_info0
 3473 000a 04       		.byte	0x4
 3474 000b 00       		.byte	0x0
 3475 000c 0000     		.2byte	0x0
 3476 000e 0000     		.2byte	0x0
 3477 0010 00000000 		.4byte	.LFB62
 3478 0014 04000000 		.4byte	.LFE62-.LFB62
 3479 0018 00000000 		.4byte	.LFB63
 3480 001c 16000000 		.4byte	.LFE63-.LFB63
 3481 0020 00000000 		.4byte	.LFB64
 3482 0024 4C000000 		.4byte	.LFE64-.LFB64
 3483 0028 00000000 		.4byte	.LFB65
ARM GAS  /tmp/cctqM4r3.s 			page 65


 3484 002c 48000000 		.4byte	.LFE65-.LFB65
 3485 0030 00000000 		.4byte	.LFB67
 3486 0034 58000000 		.4byte	.LFE67-.LFB67
 3487 0038 00000000 		.4byte	.LFB66
 3488 003c 2C000000 		.4byte	.LFE66-.LFB66
 3489 0040 00000000 		.4byte	.LFB68
 3490 0044 60000000 		.4byte	.LFE68-.LFB68
 3491 0048 00000000 		.4byte	.LFB69
 3492 004c 5C000000 		.4byte	.LFE69-.LFB69
 3493 0050 00000000 		.4byte	.LFB70
 3494 0054 54000000 		.4byte	.LFE70-.LFB70
 3495 0058 00000000 		.4byte	.LFB71
 3496 005c 20000000 		.4byte	.LFE71-.LFB71
 3497 0060 00000000 		.4byte	.LFB72
 3498 0064 18000000 		.4byte	.LFE72-.LFB72
 3499 0068 00000000 		.4byte	0x0
 3500 006c 00000000 		.4byte	0x0
 3501              		.section	.debug_ranges,"",%progbits
 3502              	.Ldebug_ranges0:
 3503 0000 2C000000 		.4byte	.LBB11
 3504 0004 36000000 		.4byte	.LBE11
 3505 0008 3A000000 		.4byte	.LBB12
 3506 000c 40000000 		.4byte	.LBE12
 3507 0010 00000000 		.4byte	0x0
 3508 0014 00000000 		.4byte	0x0
 3509 0018 00000000 		.4byte	.LFB62
 3510 001c 04000000 		.4byte	.LFE62
 3511 0020 00000000 		.4byte	.LFB63
 3512 0024 16000000 		.4byte	.LFE63
 3513 0028 00000000 		.4byte	.LFB64
 3514 002c 4C000000 		.4byte	.LFE64
 3515 0030 00000000 		.4byte	.LFB65
 3516 0034 48000000 		.4byte	.LFE65
 3517 0038 00000000 		.4byte	.LFB67
 3518 003c 58000000 		.4byte	.LFE67
 3519 0040 00000000 		.4byte	.LFB66
 3520 0044 2C000000 		.4byte	.LFE66
 3521 0048 00000000 		.4byte	.LFB68
 3522 004c 60000000 		.4byte	.LFE68
 3523 0050 00000000 		.4byte	.LFB69
 3524 0054 5C000000 		.4byte	.LFE69
 3525 0058 00000000 		.4byte	.LFB70
 3526 005c 54000000 		.4byte	.LFE70
 3527 0060 00000000 		.4byte	.LFB71
 3528 0064 20000000 		.4byte	.LFE71
 3529 0068 00000000 		.4byte	.LFB72
 3530 006c 18000000 		.4byte	.LFE72
 3531 0070 00000000 		.4byte	0x0
 3532 0074 00000000 		.4byte	0x0
 3533              		.section	.debug_str,"MS",%progbits,1
 3534              	.LASF2:
 3535 0000 73697A65 		.ascii	"size_t\000"
 3535      5F7400
 3536              	.LASF59:
 3537 0007 7264796D 		.ascii	"rdymsg\000"
 3537      736700
 3538              	.LASF109:
ARM GAS  /tmp/cctqM4r3.s 			page 66


 3539 000e 646D616D 		.ascii	"dmamode\000"
 3539      6F646500 
 3540              	.LASF95:
 3541 0016 61646373 		.ascii	"adcstate_t\000"
 3541      74617465 
 3541      5F7400
 3542              	.LASF127:
 3543 0021 61646353 		.ascii	"adcStop\000"
 3543      746F7000 
 3544              	.LASF14:
 3545 0029 6C6F6E67 		.ascii	"long long unsigned int\000"
 3545      206C6F6E 
 3545      6720756E 
 3545      7369676E 
 3545      65642069 
 3546              	.LASF60:
 3547 0040 65786974 		.ascii	"exitcode\000"
 3547      636F6465 
 3547      00
 3548              	.LASF87:
 3549 0049 76656374 		.ascii	"vector\000"
 3549      6F7200
 3550              	.LASF135:
 3551 0050 49544D5F 		.ascii	"ITM_RxBuffer\000"
 3551      52784275 
 3551      66666572 
 3551      00
 3552              	.LASF26:
 3553 005d 705F7072 		.ascii	"p_prio\000"
 3553      696F00
 3554              	.LASF73:
 3555 0064 4A535152 		.ascii	"JSQR\000"
 3555      00
 3556              	.LASF12:
 3557 0069 6C6F6E67 		.ascii	"long long int\000"
 3557      206C6F6E 
 3557      6720696E 
 3557      7400
 3558              	.LASF1:
 3559 0077 7369676E 		.ascii	"signed char\000"
 3559      65642063 
 3559      68617200 
 3560              	.LASF15:
 3561 0083 626F6F6C 		.ascii	"bool_t\000"
 3561      5F7400
 3562              	.LASF56:
 3563 008a 6D5F7175 		.ascii	"m_queue\000"
 3563      65756500 
 3564              	.LASF99:
 3565 0092 61646365 		.ascii	"adcerror_t\000"
 3565      72726F72 
 3565      5F7400
 3566              	.LASF108:
 3567 009d 646D6173 		.ascii	"dmastp\000"
 3567      747000
 3568              	.LASF101:
 3569 00a4 73746174 		.ascii	"state\000"
ARM GAS  /tmp/cctqM4r3.s 			page 67


 3569      6500
 3570              	.LASF112:
 3571 00aa 63697263 		.ascii	"circular\000"
 3571      756C6172 
 3571      00
 3572              	.LASF9:
 3573 00b3 6C6F6E67 		.ascii	"long int\000"
 3573      20696E74 
 3573      00
 3574              	.LASF98:
 3575 00bc 4144435F 		.ascii	"ADC_ERR_DMAFAILURE\000"
 3575      4552525F 
 3575      444D4146 
 3575      41494C55 
 3575      524500
 3576              	.LASF111:
 3577 00cf 61646365 		.ascii	"adcerrorcallback_t\000"
 3577      72726F72 
 3577      63616C6C 
 3577      6261636B 
 3577      5F7400
 3578              	.LASF17:
 3579 00e2 74737461 		.ascii	"tstate_t\000"
 3579      74655F74 
 3579      00
 3580              	.LASF106:
 3581 00eb 74687265 		.ascii	"thread\000"
 3581      616400
 3582              	.LASF6:
 3583 00f2 75696E74 		.ascii	"uint16_t\000"
 3583      31365F74 
 3583      00
 3584              	.LASF34:
 3585 00fb 705F7469 		.ascii	"p_time\000"
 3585      6D6500
 3586              	.LASF78:
 3587 0102 4144435F 		.ascii	"ADC_TypeDef\000"
 3587      54797065 
 3587      44656600 
 3588              	.LASF28:
 3589 010e 705F6E65 		.ascii	"p_newer\000"
 3589      77657200 
 3590              	.LASF114:
 3591 0116 656E645F 		.ascii	"end_cb\000"
 3591      636200
 3592              	.LASF110:
 3593 011d 61646363 		.ascii	"adccallback_t\000"
 3593      616C6C62 
 3593      61636B5F 
 3593      7400
 3594              	.LASF140:
 3595 012b 61646343 		.ascii	"adcConvert\000"
 3595      6F6E7665 
 3595      727400
 3596              	.LASF96:
 3597 0136 61646373 		.ascii	"adcsample_t\000"
 3597      616D706C 
ARM GAS  /tmp/cctqM4r3.s 			page 68


 3597      655F7400 
 3598              	.LASF50:
 3599 0142 725F6E65 		.ascii	"r_newer\000"
 3599      77657200 
 3600              	.LASF123:
 3601 014a 41444343 		.ascii	"ADCConfig\000"
 3601      6F6E6669 
 3601      6700
 3602              	.LASF43:
 3603 0154 72656761 		.ascii	"regarm_t\000"
 3603      726D5F74 
 3603      00
 3604              	.LASF86:
 3605 015d 73656C66 		.ascii	"selfindex\000"
 3605      696E6465 
 3605      7800
 3606              	.LASF122:
 3607 0167 64756D6D 		.ascii	"dummy\000"
 3607      7900
 3608              	.LASF23:
 3609 016d 54687265 		.ascii	"Thread\000"
 3609      616400
 3610              	.LASF89:
 3611 0174 4144435F 		.ascii	"ADC_UNINIT\000"
 3611      554E494E 
 3611      495400
 3612              	.LASF92:
 3613 017f 4144435F 		.ascii	"ADC_ACTIVE\000"
 3613      41435449 
 3613      564500
 3614              	.LASF22:
 3615 018a 636E745F 		.ascii	"cnt_t\000"
 3615      7400
 3616              	.LASF31:
 3617 0190 705F7374 		.ascii	"p_stklimit\000"
 3617      6B6C696D 
 3617      697400
 3618              	.LASF0:
 3619 019b 756E7369 		.ascii	"unsigned int\000"
 3619      676E6564 
 3619      20696E74 
 3619      00
 3620              	.LASF124:
 3621 01a8 6164634F 		.ascii	"adcObjectInit\000"
 3621      626A6563 
 3621      74496E69 
 3621      7400
 3622              	.LASF80:
 3623 01b6 43504152 		.ascii	"CPAR\000"
 3623      00
 3624              	.LASF36:
 3625 01bb 705F6D73 		.ascii	"p_msgqueue\000"
 3625      67717565 
 3625      756500
 3626              	.LASF100:
 3627 01c6 41444344 		.ascii	"ADCDriver\000"
 3627      72697665 
ARM GAS  /tmp/cctqM4r3.s 			page 69


 3627      7200
 3628              	.LASF126:
 3629 01d0 61646370 		.ascii	"adcp\000"
 3629      00
 3630              	.LASF82:
 3631 01d5 444D415F 		.ascii	"DMA_Channel_TypeDef\000"
 3631      4368616E 
 3631      6E656C5F 
 3631      54797065 
 3631      44656600 
 3632              	.LASF85:
 3633 01e9 69736869 		.ascii	"ishift\000"
 3633      667400
 3634              	.LASF7:
 3635 01f0 73686F72 		.ascii	"short unsigned int\000"
 3635      7420756E 
 3635      7369676E 
 3635      65642069 
 3635      6E7400
 3636              	.LASF91:
 3637 0203 4144435F 		.ascii	"ADC_READY\000"
 3637      52454144 
 3637      5900
 3638              	.LASF104:
 3639 020d 64657074 		.ascii	"depth\000"
 3639      6800
 3640              	.LASF19:
 3641 0213 6D73675F 		.ascii	"msg_t\000"
 3641      7400
 3642              	.LASF136:
 3643 0219 474E5520 		.ascii	"GNU C 4.5.2\000"
 3643      4320342E 
 3643      352E3200 
 3644              	.LASF16:
 3645 0225 746D6F64 		.ascii	"tmode_t\000"
 3645      655F7400 
 3646              	.LASF113:
 3647 022d 6E756D5F 		.ascii	"num_channels\000"
 3647      6368616E 
 3647      6E656C73 
 3647      00
 3648              	.LASF42:
 3649 023a 54687265 		.ascii	"ThreadsList\000"
 3649      6164734C 
 3649      69737400 
 3650              	.LASF20:
 3651 0246 6576656E 		.ascii	"eventmask_t\000"
 3651      746D6173 
 3651      6B5F7400 
 3652              	.LASF138:
 3653 0252 2F686F6D 		.ascii	"/home/z80/projects/voltamper.git/firmware/voltamp\000"
 3653      652F7A38 
 3653      302F7072 
 3653      6F6A6563 
 3653      74732F76 
 3654              	.LASF139:
 3655 0284 61646349 		.ascii	"adcInit\000"
ARM GAS  /tmp/cctqM4r3.s 			page 70


 3655      6E697400 
 3656              	.LASF81:
 3657 028c 434D4152 		.ascii	"CMAR\000"
 3657      00
 3658              	.LASF44:
 3659 0291 73746B61 		.ascii	"stkalign_t\000"
 3659      6C69676E 
 3659      5F7400
 3660              	.LASF105:
 3661 029c 67727070 		.ascii	"grpp\000"
 3661      00
 3662              	.LASF66:
 3663 02a1 4A4F4652 		.ascii	"JOFR1\000"
 3663      3100
 3664              	.LASF67:
 3665 02a7 4A4F4652 		.ascii	"JOFR2\000"
 3665      3200
 3666              	.LASF68:
 3667 02ad 4A4F4652 		.ascii	"JOFR3\000"
 3667      3300
 3668              	.LASF103:
 3669 02b3 73616D70 		.ascii	"samples\000"
 3669      6C657300 
 3670              	.LASF55:
 3671 02bb 4D757465 		.ascii	"Mutex\000"
 3671      7800
 3672              	.LASF47:
 3673 02c1 725F7175 		.ascii	"r_queue\000"
 3673      65756500 
 3674              	.LASF90:
 3675 02c9 4144435F 		.ascii	"ADC_STOP\000"
 3675      53544F50 
 3675      00
 3676              	.LASF13:
 3677 02d2 75696E74 		.ascii	"uint64_t\000"
 3677      36345F74 
 3677      00
 3678              	.LASF29:
 3679 02db 705F6F6C 		.ascii	"p_older\000"
 3679      64657200 
 3680              	.LASF49:
 3681 02e3 725F6374 		.ascii	"r_ctx\000"
 3681      7800
 3682              	.LASF41:
 3683 02e9 54687265 		.ascii	"ThreadsQueue\000"
 3683      61647351 
 3683      75657565 
 3683      00
 3684              	.LASF64:
 3685 02f6 534D5052 		.ascii	"SMPR1\000"
 3685      3100
 3686              	.LASF65:
 3687 02fc 534D5052 		.ascii	"SMPR2\000"
 3687      3200
 3688              	.LASF58:
 3689 0302 6D5F6E65 		.ascii	"m_next\000"
 3689      787400
ARM GAS  /tmp/cctqM4r3.s 			page 71


 3690              	.LASF53:
 3691 0309 725F6375 		.ascii	"r_current\000"
 3691      7272656E 
 3691      7400
 3692              	.LASF51:
 3693 0313 725F6F6C 		.ascii	"r_older\000"
 3693      64657200 
 3694              	.LASF70:
 3695 031b 53515231 		.ascii	"SQR1\000"
 3695      00
 3696              	.LASF71:
 3697 0320 53515232 		.ascii	"SQR2\000"
 3697      00
 3698              	.LASF72:
 3699 0325 53515233 		.ascii	"SQR3\000"
 3699      00
 3700              	.LASF128:
 3701 032a 61646353 		.ascii	"adcStartConversionI\000"
 3701      74617274 
 3701      436F6E76 
 3701      65727369 
 3701      6F6E4900 
 3702              	.LASF25:
 3703 033e 705F7072 		.ascii	"p_prev\000"
 3703      657600
 3704              	.LASF88:
 3705 0345 73746D33 		.ascii	"stm32_dma_stream_t\000"
 3705      325F646D 
 3705      615F7374 
 3705      7265616D 
 3705      5F7400
 3706              	.LASF18:
 3707 0358 74707269 		.ascii	"tprio_t\000"
 3707      6F5F7400 
 3708              	.LASF107:
 3709 0360 6D757465 		.ascii	"mutex\000"
 3709      7800
 3710              	.LASF8:
 3711 0366 696E7433 		.ascii	"int32_t\000"
 3711      325F7400 
 3712              	.LASF4:
 3713 036e 756E7369 		.ascii	"unsigned char\000"
 3713      676E6564 
 3713      20636861 
 3713      7200
 3714              	.LASF137:
 3715 037c 2E2E2F63 		.ascii	"../chibios_2.4.x/os/hal/src/adc.c\000"
 3715      68696269 
 3715      6F735F32 
 3715      2E342E78 
 3715      2F6F732F 
 3716              	.LASF39:
 3717 039e 705F6D74 		.ascii	"p_mtxlist\000"
 3717      786C6973 
 3717      7400
 3718              	.LASF5:
 3719 03a8 73686F72 		.ascii	"short int\000"
ARM GAS  /tmp/cctqM4r3.s 			page 72


 3719      7420696E 
 3719      7400
 3720              	.LASF32:
 3721 03b2 705F7374 		.ascii	"p_state\000"
 3721      61746500 
 3722              	.LASF115:
 3723 03ba 6572726F 		.ascii	"error_cb\000"
 3723      725F6362 
 3723      00
 3724              	.LASF48:
 3725 03c3 725F7072 		.ascii	"r_prio\000"
 3725      696F00
 3726              	.LASF62:
 3727 03ca 65776D61 		.ascii	"ewmask\000"
 3727      736B00
 3728              	.LASF24:
 3729 03d1 705F6E65 		.ascii	"p_next\000"
 3729      787400
 3730              	.LASF33:
 3731 03d8 705F666C 		.ascii	"p_flags\000"
 3731      61677300 
 3732              	.LASF69:
 3733 03e0 4A4F4652 		.ascii	"JOFR4\000"
 3733      3400
 3734              	.LASF83:
 3735 03e6 6368616E 		.ascii	"channel\000"
 3735      6E656C00 
 3736              	.LASF38:
 3737 03ee 705F6570 		.ascii	"p_epending\000"
 3737      656E6469 
 3737      6E6700
 3738              	.LASF84:
 3739 03f9 69666372 		.ascii	"ifcr\000"
 3739      00
 3740              	.LASF10:
 3741 03fe 75696E74 		.ascii	"uint32_t\000"
 3741      33325F74 
 3741      00
 3742              	.LASF133:
 3743 0407 61646352 		.ascii	"adcReleaseBus\000"
 3743      656C6561 
 3743      73654275 
 3743      7300
 3744              	.LASF116:
 3745 0415 736D7072 		.ascii	"smpr1\000"
 3745      3100
 3746              	.LASF11:
 3747 041b 6C6F6E67 		.ascii	"long unsigned int\000"
 3747      20756E73 
 3747      69676E65 
 3747      6420696E 
 3747      7400
 3748              	.LASF63:
 3749 042d 63686172 		.ascii	"char\000"
 3749      00
 3750              	.LASF102:
 3751 0432 636F6E66 		.ascii	"config\000"
ARM GAS  /tmp/cctqM4r3.s 			page 73


 3751      696700
 3752              	.LASF118:
 3753 0439 73717231 		.ascii	"sqr1\000"
 3753      00
 3754              	.LASF119:
 3755 043e 73717232 		.ascii	"sqr2\000"
 3755      00
 3756              	.LASF120:
 3757 0443 73717233 		.ascii	"sqr3\000"
 3757      00
 3758              	.LASF21:
 3759 0448 73797374 		.ascii	"systime_t\000"
 3759      696D655F 
 3759      7400
 3760              	.LASF40:
 3761 0452 705F7265 		.ascii	"p_realprio\000"
 3761      616C7072 
 3761      696F00
 3762              	.LASF46:
 3763 045d 636F6E74 		.ascii	"context\000"
 3763      65787400 
 3764              	.LASF129:
 3765 0465 61646353 		.ascii	"adcStartConversion\000"
 3765      74617274 
 3765      436F6E76 
 3765      65727369 
 3765      6F6E00
 3766              	.LASF45:
 3767 0478 696E7463 		.ascii	"intctx\000"
 3767      747800
 3768              	.LASF94:
 3769 047f 4144435F 		.ascii	"ADC_ERROR\000"
 3769      4552524F 
 3769      5200
 3770              	.LASF125:
 3771 0489 61646353 		.ascii	"adcStart\000"
 3771      74617274 
 3771      00
 3772              	.LASF54:
 3773 0492 52656164 		.ascii	"ReadyList\000"
 3773      794C6973 
 3773      7400
 3774              	.LASF79:
 3775 049c 434E4454 		.ascii	"CNDTR\000"
 3775      5200
 3776              	.LASF117:
 3777 04a2 736D7072 		.ascii	"smpr2\000"
 3777      3200
 3778              	.LASF134:
 3779 04a8 726C6973 		.ascii	"rlist\000"
 3779      7400
 3780              	.LASF3:
 3781 04ae 75696E74 		.ascii	"uint8_t\000"
 3781      385F7400 
 3782              	.LASF131:
 3783 04b6 61646353 		.ascii	"adcStopConversionI\000"
 3783      746F7043 
ARM GAS  /tmp/cctqM4r3.s 			page 74


 3783      6F6E7665 
 3783      7273696F 
 3783      6E4900
 3784              	.LASF121:
 3785 04c9 41444343 		.ascii	"ADCConversionGroup\000"
 3785      6F6E7665 
 3785      7273696F 
 3785      6E47726F 
 3785      757000
 3786              	.LASF74:
 3787 04dc 4A445231 		.ascii	"JDR1\000"
 3787      00
 3788              	.LASF75:
 3789 04e1 4A445232 		.ascii	"JDR2\000"
 3789      00
 3790              	.LASF76:
 3791 04e6 4A445233 		.ascii	"JDR3\000"
 3791      00
 3792              	.LASF77:
 3793 04eb 4A445234 		.ascii	"JDR4\000"
 3793      00
 3794              	.LASF61:
 3795 04f0 77746F62 		.ascii	"wtobjp\000"
 3795      6A7000
 3796              	.LASF93:
 3797 04f7 4144435F 		.ascii	"ADC_COMPLETE\000"
 3797      434F4D50 
 3797      4C455445 
 3797      00
 3798              	.LASF30:
 3799 0504 705F6E61 		.ascii	"p_name\000"
 3799      6D6500
 3800              	.LASF97:
 3801 050b 6164635F 		.ascii	"adc_channels_num_t\000"
 3801      6368616E 
 3801      6E656C73 
 3801      5F6E756D 
 3801      5F7400
 3802              	.LASF37:
 3803 051e 705F6D73 		.ascii	"p_msg\000"
 3803      6700
 3804              	.LASF52:
 3805 0524 725F7072 		.ascii	"r_preempt\000"
 3805      65656D70 
 3805      7400
 3806              	.LASF130:
 3807 052e 61646353 		.ascii	"adcStopConversion\000"
 3807      746F7043 
 3807      6F6E7665 
 3807      7273696F 
 3807      6E00
 3808              	.LASF57:
 3809 0540 6D5F6F77 		.ascii	"m_owner\000"
 3809      6E657200 
 3810              	.LASF132:
 3811 0548 61646341 		.ascii	"adcAcquireBus\000"
 3811      63717569 
ARM GAS  /tmp/cctqM4r3.s 			page 75


 3811      72654275 
 3811      7300
 3812              	.LASF27:
 3813 0556 705F6374 		.ascii	"p_ctx\000"
 3813      7800
 3814              	.LASF35:
 3815 055c 705F7761 		.ascii	"p_waiting\000"
 3815      6974696E 
 3815      6700
 3816              		.ident	"GCC: (Sourcery G++ Lite 2011.03-42) 4.5.2"
ARM GAS  /tmp/cctqM4r3.s 			page 76


DEFINED SYMBOLS
                            *ABS*:00000000 adc.c
     /tmp/cctqM4r3.s:24     .text.adcInit:00000000 $t
     /tmp/cctqM4r3.s:30     .text.adcInit:00000000 adcInit
     /tmp/cctqM4r3.s:45     .text.adcObjectInit:00000000 $t
     /tmp/cctqM4r3.s:51     .text.adcObjectInit:00000000 adcObjectInit
     /tmp/cctqM4r3.s:84     .text.adcStart:00000000 $t
     /tmp/cctqM4r3.s:90     .text.adcStart:00000000 adcStart
     /tmp/cctqM4r3.s:165    .text.adcStart:00000044 $d
     /tmp/cctqM4r3.s:171    .text.adcStop:00000000 $t
     /tmp/cctqM4r3.s:177    .text.adcStop:00000000 adcStop
     /tmp/cctqM4r3.s:244    .text.adcStop:00000040 $d
     /tmp/cctqM4r3.s:250    .text.adcStartConversionI:00000000 $t
     /tmp/cctqM4r3.s:256    .text.adcStartConversionI:00000000 adcStartConversionI
     /tmp/cctqM4r3.s:331    .text.adcStartConversionI:00000050 $d
     /tmp/cctqM4r3.s:337    .text.adcStartConversion:00000000 $t
     /tmp/cctqM4r3.s:343    .text.adcStartConversion:00000000 adcStartConversion
     /tmp/cctqM4r3.s:399    .text.adcStopConversion:00000000 $t
     /tmp/cctqM4r3.s:405    .text.adcStopConversion:00000000 adcStopConversion
     /tmp/cctqM4r3.s:494    .text.adcStopConversion:00000058 $d
     /tmp/cctqM4r3.s:500    .text.adcStopConversionI:00000000 $t
     /tmp/cctqM4r3.s:506    .text.adcStopConversionI:00000000 adcStopConversionI
     /tmp/cctqM4r3.s:583    .text.adcStopConversionI:00000054 $d
     /tmp/cctqM4r3.s:589    .text.adcConvert:00000000 $t
     /tmp/cctqM4r3.s:595    .text.adcConvert:00000000 adcConvert
     /tmp/cctqM4r3.s:673    .text.adcConvert:0000004c $d
     /tmp/cctqM4r3.s:679    .text.adcAcquireBus:00000000 $t
     /tmp/cctqM4r3.s:685    .text.adcAcquireBus:00000000 adcAcquireBus
     /tmp/cctqM4r3.s:716    .text.adcAcquireBus:0000001c $d
     /tmp/cctqM4r3.s:721    .text.adcReleaseBus:00000000 $t
     /tmp/cctqM4r3.s:727    .text.adcReleaseBus:00000000 adcReleaseBus
     /tmp/cctqM4r3.s:757    .text.adcReleaseBus:00000014 $d
     /tmp/cctqM4r3.s:762    .rodata.str1.4:00000000 $d
                     .debug_frame:00000010 $d
     /tmp/cctqM4r3.s:170    .text.adcStart:0000004c $t
     /tmp/cctqM4r3.s:249    .text.adcStop:00000048 $t
     /tmp/cctqM4r3.s:336    .text.adcStartConversionI:00000058 $t
     /tmp/cctqM4r3.s:588    .text.adcStopConversionI:0000005c $t
     /tmp/cctqM4r3.s:678    .text.adcConvert:00000054 $t
     /tmp/cctqM4r3.s:761    .text.adcReleaseBus:00000018 $t

UNDEFINED SYMBOLS
adc_lld_init
chMtxInit
dbg_check_lock
chDbgPanic
adc_lld_start
dbg_check_unlock
adc_lld_stop
chDbgCheckClassI
adc_lld_start_conversion
adc_lld_stop_conversion
chSchWakeupS
chSchReadyI
chSchGoSleepS
rlist
chMtxLock
ARM GAS  /tmp/cctqM4r3.s 			page 77


chMtxUnlock
