ARM GAS  /tmp/ccaOL8bX.s 			page 1


   1              		.syntax unified
   2              		.cpu cortex-m3
   3              		.fpu softvfp
   4              		.eabi_attribute 20, 1
   5              		.eabi_attribute 21, 1
   6              		.eabi_attribute 23, 3
   7              		.eabi_attribute 24, 1
   8              		.eabi_attribute 25, 1
   9              		.eabi_attribute 26, 1
  10              		.eabi_attribute 30, 6
  11              		.eabi_attribute 18, 4
  12              		.thumb
  13              		.file	"adc.c"
  20 0000 12040000 		.text
  20      02007402 
  20      00000201 
  20      FB0E0D00 
  20      01010101 
  21              	.Ltext0:
  22              		.cfi_sections	.debug_frame
  23              		.section	.text.adcInit,"ax",%progbits
  24              		.align	2
  25              		.p2align 4,,15
  26              		.global	adcInit
  27              		.thumb
  28              		.thumb_func
  29              		.type	adcInit, %function
  30              	adcInit:
  31              	.LFB62:
  32              		.file 1 "../chibios_2.4.x/os/hal/src/adc.c"
  33              		.loc 1 68 0
  34              		.cfi_startproc
  35              		@ args = 0, pretend = 0, frame = 0
  36              		@ frame_needed = 0, uses_anonymous_args = 0
  37 0000 08B5     		push	{r3, lr}
  38              	.LCFI0:
  39              		.cfi_def_cfa_offset 8
  40              		.loc 1 70 0
  41              		.cfi_offset 14, -4
  42              		.cfi_offset 3, -8
  43 0002 FFF7FEFF 		bl	adc_lld_init
  44              		.loc 1 71 0
  45 0006 08BD     		pop	{r3, pc}
  46              		.cfi_endproc
  47              	.LFE62:
  48              		.size	adcInit, .-adcInit
  49 0008 AFF30080 		.section	.text.adcObjectInit,"ax",%progbits
  49      AFF30080 
  50              		.align	2
  51              		.p2align 4,,15
  52              		.global	adcObjectInit
ARM GAS  /tmp/ccaOL8bX.s 			page 2


  53              		.thumb
  54              		.thumb_func
  55              		.type	adcObjectInit, %function
  56              	adcObjectInit:
  57              	.LFB63:
  58              		.loc 1 80 0
  59              		.cfi_startproc
  60              		@ args = 0, pretend = 0, frame = 8
  61              		@ frame_needed = 0, uses_anonymous_args = 0
  62 0000 00B5     		push	{lr}
  63              	.LCFI1:
  64              		.cfi_def_cfa_offset 4
  65 0002 83B0     		sub	sp, sp, #12
  66              	.LCFI2:
  67              		.cfi_def_cfa_offset 16
  68 0004 0190     		str	r0, [sp, #4]
  69              		.loc 1 82 0
  70 0006 019B     		ldr	r3, [sp, #4]
  71 0008 4FF00102 		mov	r2, #1
  72 000c 1A70     		strb	r2, [r3, #0]
  73              		.loc 1 83 0
  74 000e 019B     		ldr	r3, [sp, #4]
  75 0010 4FF00002 		mov	r2, #0
  76 0014 5A60     		str	r2, [r3, #4]
  77              		.loc 1 84 0
  78 0016 019B     		ldr	r3, [sp, #4]
  79 0018 4FF00002 		mov	r2, #0
  80 001c 9A60     		str	r2, [r3, #8]
  81              		.loc 1 85 0
  82 001e 019B     		ldr	r3, [sp, #4]
  83 0020 4FF00002 		mov	r2, #0
  84 0024 DA60     		str	r2, [r3, #12]
  85              		.loc 1 86 0
  86 0026 019B     		ldr	r3, [sp, #4]
  87 0028 4FF00002 		mov	r2, #0
  88 002c 1A61     		str	r2, [r3, #16]
  89              		.loc 1 88 0
  90 002e 019B     		ldr	r3, [sp, #4]
  91 0030 4FF00002 		mov	r2, #0
  92 0034 5A61     		str	r2, [r3, #20]
  93              		.loc 1 92 0
  94 0036 019B     		ldr	r3, [sp, #4]
  95 0038 03F11803 		add	r3, r3, #24
  96 003c 1846     		mov	r0, r3
  97              		.cfi_offset 14, -4
  98 003e FFF7FEFF 		bl	chMtxInit
  99              		.loc 1 100 0
 100 0042 03B0     		add	sp, sp, #12
 101 0044 00BD     		pop	{pc}
 102              		.cfi_endproc
 103              	.LFE63:
 104              		.size	adcObjectInit, .-adcObjectInit
 105 0046 00BFAFF3 		.section	.rodata
 105      0080AFF3 
 105      0080
 106              		.align	2
 107              	.LC0:
ARM GAS  /tmp/ccaOL8bX.s 			page 3


 108 0000 22616463 		.ascii	"\"adcStart\"()\000"
 108      53746172 
 108      74222829 
 108      00
 109 000d 000000   		.align	2
 110              	.LC1:
 111 0010 61646353 		.ascii	"adcStart(), #1\000"
 111      74617274 
 111      28292C20 
 111      233100
 112              		.section	.text.adcStart,"ax",%progbits
 113              		.align	2
 114              		.p2align 4,,15
 115              		.global	adcStart
 116              		.thumb
 117              		.thumb_func
 118              		.type	adcStart, %function
 119              	adcStart:
 120              	.LFB64:
 121              		.loc 1 111 0
 122              		.cfi_startproc
 123              		@ args = 0, pretend = 0, frame = 8
 124              		@ frame_needed = 0, uses_anonymous_args = 0
 125 0000 00B5     		push	{lr}
 126              	.LCFI3:
 127              		.cfi_def_cfa_offset 4
 128 0002 83B0     		sub	sp, sp, #12
 129              	.LCFI4:
 130              		.cfi_def_cfa_offset 16
 131 0004 0190     		str	r0, [sp, #4]
 132 0006 0091     		str	r1, [sp, #0]
 133              		.loc 1 113 0
 134 0008 019B     		ldr	r3, [sp, #4]
 135 000a 002B     		cmp	r3, #0
 136 000c 02D1     		bne	.L4
 137              		.cfi_offset 14, -4
 138              		.loc 1 113 0 is_stmt 0 discriminator 1
 139 000e 1348     		ldr	r0, .L6
 140 0010 FFF7FEFF 		bl	chDbgPanic
 141              	.L4:
 142              	.LBB2:
 143              		.loc 1 115 0 is_stmt 1
 144 0014 4FF02003 		mov	r3, #32
 145              	@ 115 "../chibios_2.4.x/os/hal/src/adc.c" 1
 146 0018 83F31188 		msr     BASEPRI, r3
 147              	@ 0 "" 2
 148              		.thumb
 149              	.LBE2:
 150 001c FFF7FEFF 		bl	dbg_check_lock
 151              		.loc 1 116 0
 152 0020 019B     		ldr	r3, [sp, #4]
 153 0022 1B78     		ldrb	r3, [r3, #0]	@ zero_extendqisi2
 154 0024 012B     		cmp	r3, #1
 155 0026 06D0     		beq	.L5
 156              		.loc 1 116 0 is_stmt 0 discriminator 1
 157 0028 019B     		ldr	r3, [sp, #4]
 158 002a 1B78     		ldrb	r3, [r3, #0]	@ zero_extendqisi2
ARM GAS  /tmp/ccaOL8bX.s 			page 4


 159 002c 022B     		cmp	r3, #2
 160 002e 02D0     		beq	.L5
 161              		.loc 1 116 0 discriminator 2
 162 0030 0B48     		ldr	r0, .L6+4
 163 0032 FFF7FEFF 		bl	chDbgPanic
 164              	.L5:
 165              		.loc 1 118 0 is_stmt 1
 166 0036 019B     		ldr	r3, [sp, #4]
 167 0038 009A     		ldr	r2, [sp, #0]
 168 003a 5A60     		str	r2, [r3, #4]
 169              		.loc 1 119 0
 170 003c 0198     		ldr	r0, [sp, #4]
 171 003e FFF7FEFF 		bl	adc_lld_start
 172              		.loc 1 120 0
 173 0042 019B     		ldr	r3, [sp, #4]
 174 0044 4FF00202 		mov	r2, #2
 175 0048 1A70     		strb	r2, [r3, #0]
 176              		.loc 1 121 0
 177 004a FFF7FEFF 		bl	dbg_check_unlock
 178              	.LBB3:
 179 004e 4FF00003 		mov	r3, #0
 180              	@ 121 "../chibios_2.4.x/os/hal/src/adc.c" 1
 181 0052 83F31188 		msr     BASEPRI, r3
 182              	@ 0 "" 2
 183              		.thumb
 184              	.LBE3:
 185              		.loc 1 122 0
 186 0056 03B0     		add	sp, sp, #12
 187 0058 00BD     		pop	{pc}
 188              	.L7:
 189 005a 00BF     		.align	2
 190              	.L6:
 191 005c 00000000 		.word	.LC0
 192 0060 10000000 		.word	.LC1
 193              		.cfi_endproc
 194              	.LFE64:
 195              		.size	adcStart, .-adcStart
 196 0064 AFF30080 		.section	.rodata
 196      AFF30080 
 196      AFF30080 
 197 001f 00       		.align	2
 198              	.LC2:
 199 0020 22616463 		.ascii	"\"adcStop\"()\000"
 199      53746F70 
 199      22282900 
 200              		.align	2
 201              	.LC3:
 202 002c 61646353 		.ascii	"adcStop(), #1\000"
 202      746F7028 
 202      292C2023 
 202      3100
 203              		.section	.text.adcStop,"ax",%progbits
 204              		.align	2
 205              		.p2align 4,,15
 206              		.global	adcStop
 207              		.thumb
 208              		.thumb_func
ARM GAS  /tmp/ccaOL8bX.s 			page 5


 209              		.type	adcStop, %function
 210              	adcStop:
 211              	.LFB65:
 212              		.loc 1 131 0
 213              		.cfi_startproc
 214              		@ args = 0, pretend = 0, frame = 8
 215              		@ frame_needed = 0, uses_anonymous_args = 0
 216 0000 00B5     		push	{lr}
 217              	.LCFI5:
 218              		.cfi_def_cfa_offset 4
 219 0002 83B0     		sub	sp, sp, #12
 220              	.LCFI6:
 221              		.cfi_def_cfa_offset 16
 222 0004 0190     		str	r0, [sp, #4]
 223              		.loc 1 133 0
 224 0006 019B     		ldr	r3, [sp, #4]
 225 0008 002B     		cmp	r3, #0
 226 000a 02D1     		bne	.L9
 227              		.cfi_offset 14, -4
 228              		.loc 1 133 0 is_stmt 0 discriminator 1
 229 000c 1148     		ldr	r0, .L11
 230 000e FFF7FEFF 		bl	chDbgPanic
 231              	.L9:
 232              	.LBB4:
 233              		.loc 1 135 0 is_stmt 1
 234 0012 4FF02003 		mov	r3, #32
 235              	@ 135 "../chibios_2.4.x/os/hal/src/adc.c" 1
 236 0016 83F31188 		msr     BASEPRI, r3
 237              	@ 0 "" 2
 238              		.thumb
 239              	.LBE4:
 240 001a FFF7FEFF 		bl	dbg_check_lock
 241              		.loc 1 136 0
 242 001e 019B     		ldr	r3, [sp, #4]
 243 0020 1B78     		ldrb	r3, [r3, #0]	@ zero_extendqisi2
 244 0022 012B     		cmp	r3, #1
 245 0024 06D0     		beq	.L10
 246              		.loc 1 136 0 is_stmt 0 discriminator 1
 247 0026 019B     		ldr	r3, [sp, #4]
 248 0028 1B78     		ldrb	r3, [r3, #0]	@ zero_extendqisi2
 249 002a 022B     		cmp	r3, #2
 250 002c 02D0     		beq	.L10
 251              		.loc 1 136 0 discriminator 2
 252 002e 0A48     		ldr	r0, .L11+4
 253 0030 FFF7FEFF 		bl	chDbgPanic
 254              	.L10:
 255              		.loc 1 138 0 is_stmt 1
 256 0034 0198     		ldr	r0, [sp, #4]
 257 0036 FFF7FEFF 		bl	adc_lld_stop
 258              		.loc 1 139 0
 259 003a 019B     		ldr	r3, [sp, #4]
 260 003c 4FF00102 		mov	r2, #1
 261 0040 1A70     		strb	r2, [r3, #0]
 262              		.loc 1 140 0
 263 0042 FFF7FEFF 		bl	dbg_check_unlock
 264              	.LBB5:
 265 0046 4FF00003 		mov	r3, #0
ARM GAS  /tmp/ccaOL8bX.s 			page 6


 266              	@ 140 "../chibios_2.4.x/os/hal/src/adc.c" 1
 267 004a 83F31188 		msr     BASEPRI, r3
 268              	@ 0 "" 2
 269              		.thumb
 270              	.LBE5:
 271              		.loc 1 141 0
 272 004e 03B0     		add	sp, sp, #12
 273 0050 00BD     		pop	{pc}
 274              	.L12:
 275 0052 00BF     		.align	2
 276              	.L11:
 277 0054 20000000 		.word	.LC2
 278 0058 2C000000 		.word	.LC3
 279              		.cfi_endproc
 280              	.LFE65:
 281              		.size	adcStop, .-adcStop
 282 005c AFF30080 		.section	.text.adcStartConversion,"ax",%progbits
 283              		.align	2
 284              		.p2align 4,,15
 285              		.global	adcStartConversion
 286              		.thumb
 287              		.thumb_func
 288              		.type	adcStartConversion, %function
 289              	adcStartConversion:
 290              	.LFB66:
 291              		.loc 1 162 0
 292              		.cfi_startproc
 293              		@ args = 0, pretend = 0, frame = 16
 294              		@ frame_needed = 0, uses_anonymous_args = 0
 295 0000 00B5     		push	{lr}
 296              	.LCFI7:
 297              		.cfi_def_cfa_offset 4
 298 0002 85B0     		sub	sp, sp, #20
 299              	.LCFI8:
 300              		.cfi_def_cfa_offset 24
 301 0004 0390     		str	r0, [sp, #12]
 302 0006 0291     		str	r1, [sp, #8]
 303 0008 0192     		str	r2, [sp, #4]
 304 000a 0093     		str	r3, [sp, #0]
 305              	.LBB6:
 306              		.loc 1 164 0
 307 000c 4FF02003 		mov	r3, #32
 308              	@ 164 "../chibios_2.4.x/os/hal/src/adc.c" 1
 309 0010 83F31188 		msr     BASEPRI, r3
 310              	@ 0 "" 2
 311              		.thumb
 312              	.LBE6:
 313              		.cfi_offset 14, -4
 314 0014 FFF7FEFF 		bl	dbg_check_lock
 315              		.loc 1 165 0
 316 0018 0398     		ldr	r0, [sp, #12]
 317 001a 0299     		ldr	r1, [sp, #8]
 318 001c 019A     		ldr	r2, [sp, #4]
 319 001e 009B     		ldr	r3, [sp, #0]
 320 0020 FFF7FEFF 		bl	adcStartConversionI
 321              		.loc 1 166 0
 322 0024 FFF7FEFF 		bl	dbg_check_unlock
ARM GAS  /tmp/ccaOL8bX.s 			page 7


 323              	.LBB7:
 324 0028 4FF00003 		mov	r3, #0
 325              	@ 166 "../chibios_2.4.x/os/hal/src/adc.c" 1
 326 002c 83F31188 		msr     BASEPRI, r3
 327              	@ 0 "" 2
 328              		.thumb
 329              	.LBE7:
 330              		.loc 1 167 0
 331 0030 05B0     		add	sp, sp, #20
 332 0032 00BD     		pop	{pc}
 333              		.cfi_endproc
 334              	.LFE66:
 335              		.size	adcStartConversion, .-adcStartConversion
 336 0034 AFF30080 		.section	.rodata
 336      AFF30080 
 336      AFF30080 
 337 003a 0000     		.align	2
 338              	.LC4:
 339 003c 22616463 		.ascii	"\"adcStartConversionI\"()\000"
 339      53746172 
 339      74436F6E 
 339      76657273 
 339      696F6E49 
 340              		.align	2
 341              	.LC5:
 342 0054 61646353 		.ascii	"adcStartConversionI(), #1\000"
 342      74617274 
 342      436F6E76 
 342      65727369 
 342      6F6E4928 
 343              		.section	.text.adcStartConversionI,"ax",%progbits
 344              		.align	2
 345              		.p2align 4,,15
 346              		.global	adcStartConversionI
 347              		.thumb
 348              		.thumb_func
 349              		.type	adcStartConversionI, %function
 350              	adcStartConversionI:
 351              	.LFB67:
 352              		.loc 1 190 0
 353              		.cfi_startproc
 354              		@ args = 0, pretend = 0, frame = 16
 355              		@ frame_needed = 0, uses_anonymous_args = 0
 356 0000 00B5     		push	{lr}
 357              	.LCFI9:
 358              		.cfi_def_cfa_offset 4
 359 0002 85B0     		sub	sp, sp, #20
 360              	.LCFI10:
 361              		.cfi_def_cfa_offset 24
 362 0004 0390     		str	r0, [sp, #12]
 363 0006 0291     		str	r1, [sp, #8]
 364 0008 0192     		str	r2, [sp, #4]
 365 000a 0093     		str	r3, [sp, #0]
 366              		.loc 1 192 0
 367              		.cfi_offset 14, -4
 368 000c FFF7FEFF 		bl	chDbgCheckClassI
 369              		.loc 1 193 0
ARM GAS  /tmp/ccaOL8bX.s 			page 8


 370 0010 039B     		ldr	r3, [sp, #12]
 371 0012 002B     		cmp	r3, #0
 372 0014 0ED0     		beq	.L15
 373              		.loc 1 193 0 is_stmt 0 discriminator 2
 374 0016 029B     		ldr	r3, [sp, #8]
 375 0018 002B     		cmp	r3, #0
 376 001a 0BD0     		beq	.L15
 377              		.loc 1 193 0 discriminator 3
 378 001c 019B     		ldr	r3, [sp, #4]
 379 001e 002B     		cmp	r3, #0
 380 0020 08D0     		beq	.L15
 381              		.loc 1 193 0 discriminator 4
 382 0022 009B     		ldr	r3, [sp, #0]
 383 0024 012B     		cmp	r3, #1
 384 0026 08D0     		beq	.L16
 385              		.loc 1 193 0 discriminator 5
 386 0028 009B     		ldr	r3, [sp, #0]
 387 002a 03F00103 		and	r3, r3, #1
 388 002e DBB2     		uxtb	r3, r3
 389 0030 002B     		cmp	r3, #0
 390 0032 02D0     		beq	.L16
 391              	.L15:
 392              		.loc 1 193 0 discriminator 1
 393 0034 1148     		ldr	r0, .L18
 394 0036 FFF7FEFF 		bl	chDbgPanic
 395              	.L16:
 396              		.loc 1 196 0 is_stmt 1
 397 003a 039B     		ldr	r3, [sp, #12]
 398 003c 1B78     		ldrb	r3, [r3, #0]	@ zero_extendqisi2
 399 003e 022B     		cmp	r3, #2
 400 0040 0AD0     		beq	.L17
 401              		.loc 1 196 0 is_stmt 0 discriminator 1
 402 0042 039B     		ldr	r3, [sp, #12]
 403 0044 1B78     		ldrb	r3, [r3, #0]	@ zero_extendqisi2
 404 0046 042B     		cmp	r3, #4
 405 0048 06D0     		beq	.L17
 406              		.loc 1 196 0 discriminator 2
 407 004a 039B     		ldr	r3, [sp, #12]
 408 004c 1B78     		ldrb	r3, [r3, #0]	@ zero_extendqisi2
 409 004e 052B     		cmp	r3, #5
 410 0050 02D0     		beq	.L17
 411              		.loc 1 196 0 discriminator 3
 412 0052 0B48     		ldr	r0, .L18+4
 413 0054 FFF7FEFF 		bl	chDbgPanic
 414              	.L17:
 415              		.loc 1 201 0 is_stmt 1
 416 0058 039B     		ldr	r3, [sp, #12]
 417 005a 019A     		ldr	r2, [sp, #4]
 418 005c 9A60     		str	r2, [r3, #8]
 419              		.loc 1 202 0
 420 005e 039B     		ldr	r3, [sp, #12]
 421 0060 009A     		ldr	r2, [sp, #0]
 422 0062 DA60     		str	r2, [r3, #12]
 423              		.loc 1 203 0
 424 0064 039B     		ldr	r3, [sp, #12]
 425 0066 029A     		ldr	r2, [sp, #8]
 426 0068 1A61     		str	r2, [r3, #16]
ARM GAS  /tmp/ccaOL8bX.s 			page 9


 427              		.loc 1 204 0
 428 006a 039B     		ldr	r3, [sp, #12]
 429 006c 4FF00302 		mov	r2, #3
 430 0070 1A70     		strb	r2, [r3, #0]
 431              		.loc 1 205 0
 432 0072 0398     		ldr	r0, [sp, #12]
 433 0074 FFF7FEFF 		bl	adc_lld_start_conversion
 434              		.loc 1 206 0
 435 0078 05B0     		add	sp, sp, #20
 436 007a 00BD     		pop	{pc}
 437              	.L19:
 438              		.align	2
 439              	.L18:
 440 007c 3C000000 		.word	.LC4
 441 0080 54000000 		.word	.LC5
 442              		.cfi_endproc
 443              	.LFE67:
 444              		.size	adcStartConversionI, .-adcStartConversionI
 445 0084 AFF30080 		.section	.rodata
 445      AFF30080 
 445      AFF30080 
 446 006e 0000     		.align	2
 447              	.LC6:
 448 0070 22616463 		.ascii	"\"adcStopConversion\"()\000"
 448      53746F70 
 448      436F6E76 
 448      65727369 
 448      6F6E2228 
 449 0086 0000     		.align	2
 450              	.LC7:
 451 0088 61646353 		.ascii	"adcStopConversion(), #1\000"
 451      746F7043 
 451      6F6E7665 
 451      7273696F 
 451      6E28292C 
 452              		.section	.text.adcStopConversion,"ax",%progbits
 453              		.align	2
 454              		.p2align 4,,15
 455              		.global	adcStopConversion
 456              		.thumb
 457              		.thumb_func
 458              		.type	adcStopConversion, %function
 459              	adcStopConversion:
 460              	.LFB68:
 461              		.loc 1 218 0
 462              		.cfi_startproc
 463              		@ args = 0, pretend = 0, frame = 16
 464              		@ frame_needed = 0, uses_anonymous_args = 0
 465 0000 00B5     		push	{lr}
 466              	.LCFI11:
 467              		.cfi_def_cfa_offset 4
 468 0002 85B0     		sub	sp, sp, #20
 469              	.LCFI12:
 470              		.cfi_def_cfa_offset 24
 471 0004 0190     		str	r0, [sp, #4]
 472              		.loc 1 220 0
 473 0006 019B     		ldr	r3, [sp, #4]
ARM GAS  /tmp/ccaOL8bX.s 			page 10


 474 0008 002B     		cmp	r3, #0
 475 000a 02D1     		bne	.L21
 476              		.cfi_offset 14, -4
 477              		.loc 1 220 0 is_stmt 0 discriminator 1
 478 000c 1D48     		ldr	r0, .L24
 479 000e FFF7FEFF 		bl	chDbgPanic
 480              	.L21:
 481              	.LBB8:
 482              		.loc 1 222 0 is_stmt 1
 483 0012 4FF02003 		mov	r3, #32
 484              	@ 222 "../chibios_2.4.x/os/hal/src/adc.c" 1
 485 0016 83F31188 		msr     BASEPRI, r3
 486              	@ 0 "" 2
 487              		.thumb
 488              	.LBE8:
 489 001a FFF7FEFF 		bl	dbg_check_lock
 490              		.loc 1 223 0
 491 001e 019B     		ldr	r3, [sp, #4]
 492 0020 1B78     		ldrb	r3, [r3, #0]	@ zero_extendqisi2
 493 0022 022B     		cmp	r3, #2
 494 0024 06D0     		beq	.L22
 495              		.loc 1 223 0 is_stmt 0 discriminator 1
 496 0026 019B     		ldr	r3, [sp, #4]
 497 0028 1B78     		ldrb	r3, [r3, #0]	@ zero_extendqisi2
 498 002a 032B     		cmp	r3, #3
 499 002c 02D0     		beq	.L22
 500              		.loc 1 223 0 discriminator 2
 501 002e 1648     		ldr	r0, .L24+4
 502 0030 FFF7FEFF 		bl	chDbgPanic
 503              	.L22:
 504              		.loc 1 226 0 is_stmt 1
 505 0034 019B     		ldr	r3, [sp, #4]
 506 0036 1B78     		ldrb	r3, [r3, #0]	@ zero_extendqisi2
 507 0038 022B     		cmp	r3, #2
 508 003a 1AD0     		beq	.L23
 509              		.loc 1 227 0
 510 003c 0198     		ldr	r0, [sp, #4]
 511 003e FFF7FEFF 		bl	adc_lld_stop_conversion
 512              		.loc 1 228 0
 513 0042 019B     		ldr	r3, [sp, #4]
 514 0044 4FF00002 		mov	r2, #0
 515 0048 1A61     		str	r2, [r3, #16]
 516              		.loc 1 229 0
 517 004a 019B     		ldr	r3, [sp, #4]
 518 004c 4FF00202 		mov	r2, #2
 519 0050 1A70     		strb	r2, [r3, #0]
 520              		.loc 1 230 0
 521 0052 019B     		ldr	r3, [sp, #4]
 522 0054 5B69     		ldr	r3, [r3, #20]
 523 0056 002B     		cmp	r3, #0
 524 0058 0BD0     		beq	.L23
 525              	.LBB9:
 526              		.loc 1 230 0 is_stmt 0 discriminator 1
 527 005a 019B     		ldr	r3, [sp, #4]
 528 005c 5B69     		ldr	r3, [r3, #20]
 529 005e 0393     		str	r3, [sp, #12]
 530 0060 019B     		ldr	r3, [sp, #4]
ARM GAS  /tmp/ccaOL8bX.s 			page 11


 531 0062 4FF00002 		mov	r2, #0
 532 0066 5A61     		str	r2, [r3, #20]
 533 0068 0398     		ldr	r0, [sp, #12]
 534 006a 6FF00101 		mvn	r1, #1
 535 006e FFF7FEFF 		bl	chSchWakeupS
 536              	.L23:
 537              	.LBE9:
 538              		.loc 1 232 0 is_stmt 1
 539 0072 FFF7FEFF 		bl	dbg_check_unlock
 540              	.LBB10:
 541 0076 4FF00003 		mov	r3, #0
 542              	@ 232 "../chibios_2.4.x/os/hal/src/adc.c" 1
 543 007a 83F31188 		msr     BASEPRI, r3
 544              	@ 0 "" 2
 545              		.thumb
 546              	.LBE10:
 547              		.loc 1 233 0
 548 007e 05B0     		add	sp, sp, #20
 549 0080 00BD     		pop	{pc}
 550              	.L25:
 551 0082 00BF     		.align	2
 552              	.L24:
 553 0084 70000000 		.word	.LC6
 554 0088 88000000 		.word	.LC7
 555              		.cfi_endproc
 556              	.LFE68:
 557              		.size	adcStopConversion, .-adcStopConversion
 558 008c AFF30080 		.section	.rodata
 559              		.align	2
 560              	.LC8:
 561 00a0 22616463 		.ascii	"\"adcStopConversionI\"()\000"
 561      53746F70 
 561      436F6E76 
 561      65727369 
 561      6F6E4922 
 562 00b7 00       		.align	2
 563              	.LC9:
 564 00b8 61646353 		.ascii	"adcStopConversionI(), #1\000"
 564      746F7043 
 564      6F6E7665 
 564      7273696F 
 564      6E492829 
 565              		.section	.text.adcStopConversionI,"ax",%progbits
 566              		.align	2
 567              		.p2align 4,,15
 568              		.global	adcStopConversionI
 569              		.thumb
 570              		.thumb_func
 571              		.type	adcStopConversionI, %function
 572              	adcStopConversionI:
 573              	.LFB69:
 574              		.loc 1 245 0
 575              		.cfi_startproc
 576              		@ args = 0, pretend = 0, frame = 16
 577              		@ frame_needed = 0, uses_anonymous_args = 0
 578 0000 00B5     		push	{lr}
 579              	.LCFI13:
ARM GAS  /tmp/ccaOL8bX.s 			page 12


 580              		.cfi_def_cfa_offset 4
 581 0002 85B0     		sub	sp, sp, #20
 582              	.LCFI14:
 583              		.cfi_def_cfa_offset 24
 584 0004 0190     		str	r0, [sp, #4]
 585              		.loc 1 247 0
 586              		.cfi_offset 14, -4
 587 0006 FFF7FEFF 		bl	chDbgCheckClassI
 588              		.loc 1 248 0
 589 000a 019B     		ldr	r3, [sp, #4]
 590 000c 002B     		cmp	r3, #0
 591 000e 02D1     		bne	.L27
 592              		.loc 1 248 0 is_stmt 0 discriminator 1
 593 0010 1A48     		ldr	r0, .L30
 594 0012 FFF7FEFF 		bl	chDbgPanic
 595              	.L27:
 596              		.loc 1 249 0 is_stmt 1
 597 0016 019B     		ldr	r3, [sp, #4]
 598 0018 1B78     		ldrb	r3, [r3, #0]	@ zero_extendqisi2
 599 001a 022B     		cmp	r3, #2
 600 001c 0AD0     		beq	.L28
 601              		.loc 1 249 0 is_stmt 0 discriminator 1
 602 001e 019B     		ldr	r3, [sp, #4]
 603 0020 1B78     		ldrb	r3, [r3, #0]	@ zero_extendqisi2
 604 0022 032B     		cmp	r3, #3
 605 0024 06D0     		beq	.L28
 606              		.loc 1 249 0 discriminator 2
 607 0026 019B     		ldr	r3, [sp, #4]
 608 0028 1B78     		ldrb	r3, [r3, #0]	@ zero_extendqisi2
 609 002a 042B     		cmp	r3, #4
 610 002c 02D0     		beq	.L28
 611              		.loc 1 249 0 discriminator 3
 612 002e 1448     		ldr	r0, .L30+4
 613 0030 FFF7FEFF 		bl	chDbgPanic
 614              	.L28:
 615              		.loc 1 254 0 is_stmt 1
 616 0034 019B     		ldr	r3, [sp, #4]
 617 0036 1B78     		ldrb	r3, [r3, #0]	@ zero_extendqisi2
 618 0038 022B     		cmp	r3, #2
 619 003a 1CD0     		beq	.L26
 620              		.loc 1 255 0
 621 003c 0198     		ldr	r0, [sp, #4]
 622 003e FFF7FEFF 		bl	adc_lld_stop_conversion
 623              		.loc 1 256 0
 624 0042 019B     		ldr	r3, [sp, #4]
 625 0044 4FF00002 		mov	r2, #0
 626 0048 1A61     		str	r2, [r3, #16]
 627              		.loc 1 257 0
 628 004a 019B     		ldr	r3, [sp, #4]
 629 004c 4FF00202 		mov	r2, #2
 630 0050 1A70     		strb	r2, [r3, #0]
 631              		.loc 1 258 0
 632 0052 019B     		ldr	r3, [sp, #4]
 633 0054 5B69     		ldr	r3, [r3, #20]
 634 0056 002B     		cmp	r3, #0
 635 0058 0DD0     		beq	.L26
 636              	.LBB11:
ARM GAS  /tmp/ccaOL8bX.s 			page 13


 637              		.loc 1 258 0 is_stmt 0 discriminator 1
 638 005a 019B     		ldr	r3, [sp, #4]
 639 005c 5B69     		ldr	r3, [r3, #20]
 640 005e 0393     		str	r3, [sp, #12]
 641 0060 019B     		ldr	r3, [sp, #4]
 642 0062 4FF00002 		mov	r2, #0
 643 0066 5A61     		str	r2, [r3, #20]
 644 0068 039B     		ldr	r3, [sp, #12]
 645 006a 6FF00102 		mvn	r2, #1
 646 006e 9A62     		str	r2, [r3, #40]
 647 0070 0398     		ldr	r0, [sp, #12]
 648 0072 FFF7FEFF 		bl	chSchReadyI
 649              	.L26:
 650              	.LBE11:
 651              		.loc 1 260 0 is_stmt 1
 652 0076 05B0     		add	sp, sp, #20
 653 0078 00BD     		pop	{pc}
 654              	.L31:
 655 007a 00BF     		.align	2
 656              	.L30:
 657 007c A0000000 		.word	.LC8
 658 0080 B8000000 		.word	.LC9
 659              		.cfi_endproc
 660              	.LFE69:
 661              		.size	adcStopConversionI, .-adcStopConversionI
 662 0084 AFF30080 		.section	.rodata
 662      AFF30080 
 662      AFF30080 
 663 00d1 000000   		.align	2
 664              	.LC10:
 665 00d4 61646343 		.ascii	"adcConvert(), #1\000"
 665      6F6E7665 
 665      72742829 
 665      2C202331 
 665      00
 666              		.section	.text.adcConvert,"ax",%progbits
 667              		.align	2
 668              		.p2align 4,,15
 669              		.global	adcConvert
 670              		.thumb
 671              		.thumb_func
 672              		.type	adcConvert, %function
 673              	adcConvert:
 674              	.LFB70:
 675              		.loc 1 289 0
 676              		.cfi_startproc
 677              		@ args = 0, pretend = 0, frame = 24
 678              		@ frame_needed = 0, uses_anonymous_args = 0
 679 0000 00B5     		push	{lr}
 680              	.LCFI15:
 681              		.cfi_def_cfa_offset 4
 682 0002 87B0     		sub	sp, sp, #28
 683              	.LCFI16:
 684              		.cfi_def_cfa_offset 32
 685 0004 0390     		str	r0, [sp, #12]
 686 0006 0291     		str	r1, [sp, #8]
 687 0008 0192     		str	r2, [sp, #4]
ARM GAS  /tmp/ccaOL8bX.s 			page 14


 688 000a 0093     		str	r3, [sp, #0]
 689              	.LBB12:
 690              		.loc 1 292 0
 691 000c 4FF02003 		mov	r3, #32
 692              	@ 292 "../chibios_2.4.x/os/hal/src/adc.c" 1
 693 0010 83F31188 		msr     BASEPRI, r3
 694              	@ 0 "" 2
 695              		.thumb
 696              	.LBE12:
 697              		.cfi_offset 14, -4
 698 0014 FFF7FEFF 		bl	dbg_check_lock
 699              		.loc 1 293 0
 700 0018 039B     		ldr	r3, [sp, #12]
 701 001a 5B69     		ldr	r3, [r3, #20]
 702 001c 002B     		cmp	r3, #0
 703 001e 02D0     		beq	.L33
 704              		.loc 1 293 0 is_stmt 0 discriminator 1
 705 0020 0F48     		ldr	r0, .L34
 706 0022 FFF7FEFF 		bl	chDbgPanic
 707              	.L33:
 708              		.loc 1 294 0 is_stmt 1
 709 0026 0398     		ldr	r0, [sp, #12]
 710 0028 0299     		ldr	r1, [sp, #8]
 711 002a 019A     		ldr	r2, [sp, #4]
 712 002c 009B     		ldr	r3, [sp, #0]
 713 002e FFF7FEFF 		bl	adcStartConversionI
 714              		.loc 1 295 0
 715 0032 0C4B     		ldr	r3, .L34+4
 716 0034 DA69     		ldr	r2, [r3, #28]
 717 0036 039B     		ldr	r3, [sp, #12]
 718 0038 5A61     		str	r2, [r3, #20]
 719              		.loc 1 296 0
 720 003a 4FF00200 		mov	r0, #2
 721 003e FFF7FEFF 		bl	chSchGoSleepS
 722              		.loc 1 297 0
 723 0042 084B     		ldr	r3, .L34+4
 724 0044 DB69     		ldr	r3, [r3, #28]
 725 0046 9B6A     		ldr	r3, [r3, #40]
 726 0048 0593     		str	r3, [sp, #20]
 727              		.loc 1 298 0
 728 004a FFF7FEFF 		bl	dbg_check_unlock
 729              	.LBB13:
 730 004e 4FF00003 		mov	r3, #0
 731              	@ 298 "../chibios_2.4.x/os/hal/src/adc.c" 1
 732 0052 83F31188 		msr     BASEPRI, r3
 733              	@ 0 "" 2
 734              		.thumb
 735              	.LBE13:
 736              		.loc 1 299 0
 737 0056 059B     		ldr	r3, [sp, #20]
 738              		.loc 1 300 0
 739 0058 1846     		mov	r0, r3
 740 005a 07B0     		add	sp, sp, #28
 741 005c 00BD     		pop	{pc}
 742              	.L35:
 743 005e 00BF     		.align	2
 744              	.L34:
ARM GAS  /tmp/ccaOL8bX.s 			page 15


 745 0060 D4000000 		.word	.LC10
 746 0064 00000000 		.word	rlist
 747              		.cfi_endproc
 748              	.LFE70:
 749              		.size	adcConvert, .-adcConvert
 750 0068 AFF30080 		.section	.rodata
 750      AFF30080 
 751 00e5 000000   		.align	2
 752              	.LC11:
 753 00e8 22616463 		.ascii	"\"adcAcquireBus\"()\000"
 753      41637175 
 753      69726542 
 753      75732228 
 753      2900
 754              		.section	.text.adcAcquireBus,"ax",%progbits
 755              		.align	2
 756              		.p2align 4,,15
 757              		.global	adcAcquireBus
 758              		.thumb
 759              		.thumb_func
 760              		.type	adcAcquireBus, %function
 761              	adcAcquireBus:
 762              	.LFB71:
 763              		.loc 1 315 0
 764              		.cfi_startproc
 765              		@ args = 0, pretend = 0, frame = 8
 766              		@ frame_needed = 0, uses_anonymous_args = 0
 767 0000 00B5     		push	{lr}
 768              	.LCFI17:
 769              		.cfi_def_cfa_offset 4
 770 0002 83B0     		sub	sp, sp, #12
 771              	.LCFI18:
 772              		.cfi_def_cfa_offset 16
 773 0004 0190     		str	r0, [sp, #4]
 774              		.loc 1 317 0
 775 0006 019B     		ldr	r3, [sp, #4]
 776 0008 002B     		cmp	r3, #0
 777 000a 02D1     		bne	.L37
 778              		.cfi_offset 14, -4
 779              		.loc 1 317 0 is_stmt 0 discriminator 1
 780 000c 0548     		ldr	r0, .L38
 781 000e FFF7FEFF 		bl	chDbgPanic
 782              	.L37:
 783              		.loc 1 320 0 is_stmt 1
 784 0012 019B     		ldr	r3, [sp, #4]
 785 0014 03F11803 		add	r3, r3, #24
 786 0018 1846     		mov	r0, r3
 787 001a FFF7FEFF 		bl	chMtxLock
 788              		.loc 1 324 0
 789 001e 03B0     		add	sp, sp, #12
 790 0020 00BD     		pop	{pc}
 791              	.L39:
 792 0022 00BF     		.align	2
 793              	.L38:
 794 0024 E8000000 		.word	.LC11
 795              		.cfi_endproc
 796              	.LFE71:
ARM GAS  /tmp/ccaOL8bX.s 			page 16


 797              		.size	adcAcquireBus, .-adcAcquireBus
 798 0028 AFF30080 		.section	.rodata
 798      AFF30080 
 799 00fa 0000     		.align	2
 800              	.LC12:
 801 00fc 22616463 		.ascii	"\"adcReleaseBus\"()\000"
 801      52656C65 
 801      61736542 
 801      75732228 
 801      2900
 802 010e 0000     		.section	.text.adcReleaseBus,"ax",%progbits
 803              		.align	2
 804              		.p2align 4,,15
 805              		.global	adcReleaseBus
 806              		.thumb
 807              		.thumb_func
 808              		.type	adcReleaseBus, %function
 809              	adcReleaseBus:
 810              	.LFB72:
 811              		.loc 1 335 0
 812              		.cfi_startproc
 813              		@ args = 0, pretend = 0, frame = 8
 814              		@ frame_needed = 0, uses_anonymous_args = 0
 815 0000 00B5     		push	{lr}
 816              	.LCFI19:
 817              		.cfi_def_cfa_offset 4
 818 0002 83B0     		sub	sp, sp, #12
 819              	.LCFI20:
 820              		.cfi_def_cfa_offset 16
 821 0004 0190     		str	r0, [sp, #4]
 822              		.loc 1 337 0
 823 0006 019B     		ldr	r3, [sp, #4]
 824 0008 002B     		cmp	r3, #0
 825 000a 02D1     		bne	.L41
 826              		.cfi_offset 14, -4
 827              		.loc 1 337 0 is_stmt 0 discriminator 1
 828 000c 0348     		ldr	r0, .L42
 829 000e FFF7FEFF 		bl	chDbgPanic
 830              	.L41:
 831              		.loc 1 341 0 is_stmt 1
 832 0012 FFF7FEFF 		bl	chMtxUnlock
 833              		.loc 1 345 0
 834 0016 03B0     		add	sp, sp, #12
 835 0018 00BD     		pop	{pc}
 836              	.L43:
 837 001a 00BF     		.align	2
 838              	.L42:
 839 001c FC000000 		.word	.LC12
 840              		.cfi_endproc
 841              	.LFE72:
 842              		.size	adcReleaseBus, .-adcReleaseBus
 843              		.text
 844              	.Letext0: