ARM GAS  /tmp/ccvEXzkv.s 			page 1


   1              		.syntax unified
   2              		.cpu cortex-m3
   3              		.fpu softvfp
   4              		.eabi_attribute 20, 1
   5              		.eabi_attribute 21, 1
   6              		.eabi_attribute 23, 3
   7              		.eabi_attribute 24, 1
   8              		.eabi_attribute 25, 1
   9              		.eabi_attribute 26, 1
  10              		.eabi_attribute 30, 2
  11              		.eabi_attribute 18, 4
  12              		.thumb
  13              		.file	"adc_lld.c"
  20 0000 D1030000 		.text
  20      02005002 
  20      00000201 
  20      FB0E0D00 
  20      01010101 
  21              	.Ltext0:
  22              		.cfi_sections	.debug_frame
  23              		.section	.text.adc_lld_serve_rx_interrupt,"ax",%progbits
  24              		.align	2
  25              		.p2align 4,,15
  26              		.thumb
  27              		.thumb_func
  28              		.type	adc_lld_serve_rx_interrupt, %function
  29              	adc_lld_serve_rx_interrupt:
  30              	.LFB62:
  31              		.file 1 "../chibios_2.4.x/os/hal/platforms/STM32F1xx/adc_lld.c"
  32              		.loc 1 64 0
  33              		.cfi_startproc
  34              		@ args = 0, pretend = 0, frame = 0
  35              		@ frame_needed = 0, uses_anonymous_args = 0
  36              	.LVL0:
  37              		.loc 1 67 0
  38 0000 11F0080F 		tst	r1, #8
  39              		.loc 1 64 0
  40 0004 F8B5     		push	{r3, r4, r5, r6, r7, lr}
  41              	.LCFI0:
  42              		.cfi_def_cfa_offset 24
  43              		.loc 1 64 0
  44 0006 0D46     		mov	r5, r1
  45              		.cfi_offset 14, -4
  46              		.cfi_offset 7, -8
  47              		.cfi_offset 6, -12
  48              		.cfi_offset 5, -16
  49              		.cfi_offset 4, -20
  50              		.cfi_offset 3, -24
  51 0008 0446     		mov	r4, r0
  52              		.loc 1 67 0
  53 000a 2CD0     		beq	.L2
ARM GAS  /tmp/ccvEXzkv.s 			page 2


  54              	.LVL1:
  55              	.LBB14:
  56              	.LBB16:
  57              		.loc 1 233 0
  58 000c C36A     		ldr	r3, [r0, #44]
  59              	.LBE16:
  60              	.LBE14:
  61              		.loc 1 70 0
  62 000e 0169     		ldr	r1, [r0, #16]
  63              	.LVL2:
  64              	.LBB18:
  65              	.LBB15:
  66              		.loc 1 233 0
  67 0010 1A68     		ldr	r2, [r3, #0]
  68 0012 5D68     		ldr	r5, [r3, #4]
  69              	.LVL3:
  70 0014 1668     		ldr	r6, [r2, #0]
  71 0016 26F00106 		bic	r6, r6, #1
  72 001a 1660     		str	r6, [r2, #0]
  73 001c 1B7A     		ldrb	r3, [r3, #8]	@ zero_extendqisi2
  74 001e 0F26     		movs	r6, #15
  75 0020 9E40     		lsls	r6, r6, r3
  76              		.loc 1 234 0
  77 0022 826A     		ldr	r2, [r0, #40]
  78              	.LBE15:
  79              	.LBE18:
  80              		.loc 1 70 0
  81 0024 CB68     		ldr	r3, [r1, #12]
  82              	.LBB19:
  83              	.LBB17:
  84              		.loc 1 234 0
  85 0026 0021     		movs	r1, #0
  86              		.loc 1 233 0
  87 0028 2E60     		str	r6, [r5, #0]
  88              		.loc 1 234 0
  89 002a 9160     		str	r1, [r2, #8]
  90              	.LBE17:
  91              	.LBE19:
  92              		.loc 1 70 0
  93 002c 2BB1     		cbz	r3, .L3
  94              		.loc 1 70 0 is_stmt 0 discriminator 1
  95 002e 0525     		movs	r5, #5
  96 0030 0570     		strb	r5, [r0, #0]
  97 0032 9847     		blx	r3
  98              	.LVL4:
  99 0034 2078     		ldrb	r0, [r4, #0]	@ zero_extendqisi2
 100 0036 0528     		cmp	r0, #5
 101 0038 6ED0     		beq	.L15
 102              	.L3:
 103              		.loc 1 70 0 discriminator 2
 104 003a 0025     		movs	r5, #0
 105 003c 2561     		str	r5, [r4, #16]
 106              	.LBB20:
 107 003e 2023     		movs	r3, #32
 108              	.LVL5:
 109              	@ 70 "../chibios_2.4.x/os/hal/platforms/STM32F1xx/adc_lld.c" 1
 110 0040 83F31188 		msr     BASEPRI, r3
ARM GAS  /tmp/ccvEXzkv.s 			page 3


 111              	@ 0 "" 2
 112              	.LVL6:
 113              		.thumb
 114              	.LBE20:
 115 0044 FFF7FEFF 		bl	dbg_check_lock_from_isr
 116              	.LVL7:
 117 0048 6369     		ldr	r3, [r4, #20]
 118 004a 33B1     		cbz	r3, .L4
 119              	.LVL8:
 120              	.LBB21:
 121              		.loc 1 70 0 discriminator 4
 122 004c 4FF0FF32 		mov	r2, #-1
 123 0050 6561     		str	r5, [r4, #20]
 124 0052 1846     		mov	r0, r3
 125 0054 9A62     		str	r2, [r3, #40]
 126 0056 FFF7FEFF 		bl	chSchReadyI
 127              	.LVL9:
 128              	.L4:
 129              	.LBE21:
 130              		.loc 1 70 0 discriminator 5
 131 005a FFF7FEFF 		bl	dbg_check_unlock_from_isr
 132              	.LBB22:
 133 005e 0023     		movs	r3, #0
 134              	.LVL10:
 135              	@ 70 "../chibios_2.4.x/os/hal/platforms/STM32F1xx/adc_lld.c" 1
 136 0060 83F31188 		msr     BASEPRI, r3
 137              	@ 0 "" 2
 138              	.LVL11:
 139              		.thumb
 140 0064 F8BD     		pop	{r3, r4, r5, r6, r7, pc}
 141              	.LVL12:
 142              	.L2:
 143              	.LBE22:
 144              		.loc 1 73 0 is_stmt 1
 145 0066 11F0040F 		tst	r1, #4
 146 006a 06D0     		beq	.L6
 147              		.loc 1 75 0
 148 006c 0369     		ldr	r3, [r0, #16]
 149 006e 9B68     		ldr	r3, [r3, #8]
 150 0070 1BB1     		cbz	r3, .L6
 151              		.loc 1 75 0 is_stmt 0 discriminator 1
 152 0072 C268     		ldr	r2, [r0, #12]
 153 0074 8168     		ldr	r1, [r0, #8]
 154              	.LVL13:
 155 0076 5208     		lsrs	r2, r2, #1
 156 0078 9847     		blx	r3
 157              	.L6:
 158              		.loc 1 77 0 is_stmt 1
 159 007a 15F0020F 		tst	r5, #2
 160 007e 39D0     		beq	.L1
 161              		.loc 1 79 0
 162 0080 2169     		ldr	r1, [r4, #16]
 163 0082 0A68     		ldr	r2, [r1, #0]
 164 0084 002A     		cmp	r2, #0
 165 0086 36D1     		bne	.L16
 166              	.LVL14:
 167              	.LBB23:
ARM GAS  /tmp/ccvEXzkv.s 			page 4


 168              	.LBB24:
 169              		.loc 1 233 0
 170 0088 E36A     		ldr	r3, [r4, #44]
 171              		.loc 1 234 0
 172 008a A56A     		ldr	r5, [r4, #40]
 173              	.LVL15:
 174              		.loc 1 233 0
 175 008c 1868     		ldr	r0, [r3, #0]
 176 008e 5E68     		ldr	r6, [r3, #4]
 177 0090 0768     		ldr	r7, [r0, #0]
 178 0092 27F00107 		bic	r7, r7, #1
 179 0096 0760     		str	r7, [r0, #0]
 180 0098 187A     		ldrb	r0, [r3, #8]	@ zero_extendqisi2
 181 009a 0F27     		movs	r7, #15
 182 009c 17FA00F0 		lsls	r0, r7, r0
 183              	.LBE24:
 184              	.LBE23:
 185              		.loc 1 79 0
 186 00a0 8B68     		ldr	r3, [r1, #8]
 187              	.LBB26:
 188              	.LBB25:
 189              		.loc 1 233 0
 190 00a2 3060     		str	r0, [r6, #0]
 191              		.loc 1 234 0
 192 00a4 AA60     		str	r2, [r5, #8]
 193              	.LBE25:
 194              	.LBE26:
 195              		.loc 1 79 0
 196 00a6 002B     		cmp	r3, #0
 197 00a8 39D0     		beq	.L9
 198              		.loc 1 79 0 is_stmt 0 discriminator 6
 199 00aa E268     		ldr	r2, [r4, #12]
 200 00ac 0425     		movs	r5, #4
 201 00ae 012A     		cmp	r2, #1
 202 00b0 2570     		strb	r5, [r4, #0]
 203 00b2 3BD9     		bls	.L10
 204              	.LBB27:
 205              		.loc 1 79 0 discriminator 8
 206 00b4 B1F804C0 		ldrh	ip, [r1, #4]
 207 00b8 5208     		lsrs	r2, r2, #1
 208              	.LVL16:
 209 00ba 0CFB02FE 		mul	lr, ip, r2
 210 00be A168     		ldr	r1, [r4, #8]
 211 00c0 2046     		mov	r0, r4
 212 00c2 01EB4E01 		add	r1, r1, lr, lsl #1
 213 00c6 9847     		blx	r3
 214              	.LVL17:
 215              	.L11:
 216              	.LBE27:
 217              		.loc 1 79 0 discriminator 10
 218 00c8 2278     		ldrb	r2, [r4, #0]	@ zero_extendqisi2
 219 00ca 042A     		cmp	r2, #4
 220 00cc 27D0     		beq	.L9
 221              	.L12:
 222              		.loc 1 79 0 discriminator 12
 223 00ce 0025     		movs	r5, #0
 224 00d0 2561     		str	r5, [r4, #16]
ARM GAS  /tmp/ccvEXzkv.s 			page 5


 225              	.LBB28:
 226 00d2 2023     		movs	r3, #32
 227              	.LVL18:
 228              	@ 79 "../chibios_2.4.x/os/hal/platforms/STM32F1xx/adc_lld.c" 1
 229 00d4 83F31188 		msr     BASEPRI, r3
 230              	@ 0 "" 2
 231              	.LVL19:
 232              		.thumb
 233              	.LBE28:
 234 00d8 FFF7FEFF 		bl	dbg_check_lock_from_isr
 235              	.LVL20:
 236 00dc 6369     		ldr	r3, [r4, #20]
 237 00de 23B1     		cbz	r3, .L13
 238              	.LVL21:
 239              	.LBB29:
 240              		.loc 1 79 0 discriminator 13
 241 00e0 6561     		str	r5, [r4, #20]
 242 00e2 1846     		mov	r0, r3
 243 00e4 9D62     		str	r5, [r3, #40]
 244 00e6 FFF7FEFF 		bl	chSchReadyI
 245              	.LVL22:
 246              	.L13:
 247              	.LBE29:
 248              		.loc 1 79 0 discriminator 14
 249 00ea FFF7FEFF 		bl	dbg_check_unlock_from_isr
 250              	.LBB30:
 251 00ee 0023     		movs	r3, #0
 252              	.LVL23:
 253              	@ 79 "../chibios_2.4.x/os/hal/platforms/STM32F1xx/adc_lld.c" 1
 254 00f0 83F31188 		msr     BASEPRI, r3
 255              	@ 0 "" 2
 256              	.LVL24:
 257              		.thumb
 258              	.L1:
 259 00f4 F8BD     		pop	{r3, r4, r5, r6, r7, pc}
 260              	.LVL25:
 261              	.L16:
 262              	.LBE30:
 263              		.loc 1 79 0 discriminator 1
 264 00f6 8B68     		ldr	r3, [r1, #8]
 265 00f8 002B     		cmp	r3, #0
 266 00fa FBD0     		beq	.L1
 267              		.loc 1 79 0 discriminator 3
 268 00fc E268     		ldr	r2, [r4, #12]
 269 00fe 012A     		cmp	r2, #1
 270 0100 10D9     		bls	.L8
 271              	.LBB31:
 272              		.loc 1 79 0 discriminator 4
 273 0102 B1F804C0 		ldrh	ip, [r1, #4]
 274 0106 5208     		lsrs	r2, r2, #1
 275              	.LVL26:
 276 0108 0CFB02F5 		mul	r5, ip, r2
 277              	.LVL27:
 278 010c A168     		ldr	r1, [r4, #8]
 279 010e 2046     		mov	r0, r4
 280 0110 01EB4501 		add	r1, r1, r5, lsl #1
 281 0114 9847     		blx	r3
ARM GAS  /tmp/ccvEXzkv.s 			page 6


 282              	.LVL28:
 283 0116 F8BD     		pop	{r3, r4, r5, r6, r7, pc}
 284              	.LVL29:
 285              	.L15:
 286              	.LBE31:
 287              		.loc 1 70 0 is_stmt 1 discriminator 3
 288 0118 0221     		movs	r1, #2
 289 011a 2170     		strb	r1, [r4, #0]
 290 011c 8DE7     		b	.L3
 291              	.LVL30:
 292              	.L9:
 293              		.loc 1 79 0 discriminator 7
 294 011e 0223     		movs	r3, #2
 295 0120 2370     		strb	r3, [r4, #0]
 296 0122 D4E7     		b	.L12
 297              	.LVL31:
 298              	.L8:
 299              		.loc 1 79 0 is_stmt 0 discriminator 5
 300 0124 2046     		mov	r0, r4
 301 0126 A168     		ldr	r1, [r4, #8]
 302 0128 9847     		blx	r3
 303 012a F8BD     		pop	{r3, r4, r5, r6, r7, pc}
 304              	.LVL32:
 305              	.L10:
 306              		.loc 1 79 0 discriminator 9
 307 012c 2046     		mov	r0, r4
 308 012e A168     		ldr	r1, [r4, #8]
 309 0130 9847     		blx	r3
 310 0132 C9E7     		b	.L11
 311              		.cfi_endproc
 312              	.LFE62:
 313              		.size	adc_lld_serve_rx_interrupt, .-adc_lld_serve_rx_interrupt
 314 0134 AFF30080 		.section	.text.adc_lld_init,"ax",%progbits
 314      AFF30080 
 314      AFF30080 
 315              		.align	2
 316              		.p2align 4,,15
 317              		.global	adc_lld_init
 318              		.thumb
 319              		.thumb_func
 320              		.type	adc_lld_init, %function
 321              	adc_lld_init:
 322              	.LFB63:
 323              		.loc 1 97 0 is_stmt 1
 324              		.cfi_startproc
 325              		@ args = 0, pretend = 0, frame = 0
 326              		@ frame_needed = 0, uses_anonymous_args = 0
 327 0000 10B5     		push	{r4, lr}
 328              	.LCFI1:
 329              		.cfi_def_cfa_offset 8
 330              		.loc 1 101 0
 331 0002 144C     		ldr	r4, .L22
 332              		.cfi_offset 14, -4
 333              		.cfi_offset 4, -8
 334 0004 2046     		mov	r0, r4
 335 0006 FFF7FEFF 		bl	adcObjectInit
 336              		.loc 1 110 0
ARM GAS  /tmp/ccvEXzkv.s 			page 7


 337 000a 134B     		ldr	r3, .L22+4
 338              		.loc 1 102 0
 339 000c 1349     		ldr	r1, .L22+8
 340              		.loc 1 110 0
 341 000e 9869     		ldr	r0, [r3, #24]
 342 0010 40F40072 		orr	r2, r0, #512
 343 0014 9A61     		str	r2, [r3, #24]
 344              		.loc 1 103 0
 345 0016 124B     		ldr	r3, .L22+12
 346              		.loc 1 111 0
 347 0018 0020     		movs	r0, #0
 348              		.loc 1 102 0
 349 001a A162     		str	r1, [r4, #40]
 350              		.loc 1 112 0
 351 001c 0122     		movs	r2, #1
 352              		.loc 1 111 0
 353 001e 4860     		str	r0, [r1, #4]
 354              		.loc 1 103 0
 355 0020 E362     		str	r3, [r4, #44]
 356              		.loc 1 104 0
 357 0022 42F28A50 		movw	r0, #9610
 358              		.loc 1 115 0
 359 0026 0923     		movs	r3, #9
 360              		.loc 1 112 0
 361 0028 8A60     		str	r2, [r1, #8]
 362              		.loc 1 104 0
 363 002a 2063     		str	r0, [r4, #48]
 364              		.loc 1 115 0
 365 002c 8B60     		str	r3, [r1, #8]
 366              	.L18:
 367              		.loc 1 116 0 discriminator 1
 368 002e 8B68     		ldr	r3, [r1, #8]
 369 0030 0A4A     		ldr	r2, .L22+8
 370 0032 13F0080F 		tst	r3, #8
 371 0036 FAD1     		bne	.L18
 372              		.loc 1 120 0
 373 0038 0521     		movs	r1, #5
 374 003a 9160     		str	r1, [r2, #8]
 375              	.L19:
 376              		.loc 1 121 0 discriminator 1
 377 003c 9068     		ldr	r0, [r2, #8]
 378 003e 10F00403 		ands	r3, r0, #4
 379 0042 FBD1     		bne	.L19
 380              		.loc 1 125 0
 381 0044 0548     		ldr	r0, .L22+8
 382              		.loc 1 126 0
 383 0046 044A     		ldr	r2, .L22+4
 384              		.loc 1 125 0
 385 0048 8360     		str	r3, [r0, #8]
 386              		.loc 1 126 0
 387 004a 9169     		ldr	r1, [r2, #24]
 388 004c 21F40073 		bic	r3, r1, #512
 389 0050 9361     		str	r3, [r2, #24]
 390              		.loc 1 128 0
 391 0052 10BD     		pop	{r4, pc}
 392              	.L23:
 393              		.align	2
ARM GAS  /tmp/ccvEXzkv.s 			page 8


 394              	.L22:
 395 0054 00000000 		.word	.LANCHOR0
 396 0058 00100240 		.word	1073876992
 397 005c 00240140 		.word	1073816576
 398 0060 00000000 		.word	_stm32_dma_streams
 399              		.cfi_endproc
 400              	.LFE63:
 401              		.size	adc_lld_init, .-adc_lld_init
 402 0064 AFF30080 		.section	.text.adc_lld_start,"ax",%progbits
 402      AFF30080 
 402      AFF30080 
 403              		.align	2
 404              		.p2align 4,,15
 405              		.global	adc_lld_start
 406              		.thumb
 407              		.thumb_func
 408              		.type	adc_lld_start, %function
 409              	adc_lld_start:
 410              	.LFB64:
 411              		.loc 1 137 0
 412              		.cfi_startproc
 413              		@ args = 0, pretend = 0, frame = 0
 414              		@ frame_needed = 0, uses_anonymous_args = 0
 415              	.LVL33:
 416 0000 38B5     		push	{r3, r4, r5, lr}
 417              	.LCFI2:
 418              		.cfi_def_cfa_offset 16
 419              		.loc 1 140 0
 420 0002 0378     		ldrb	r3, [r0, #0]	@ zero_extendqisi2
 421              		.cfi_offset 14, -4
 422              		.cfi_offset 5, -8
 423              		.cfi_offset 4, -12
 424              		.cfi_offset 3, -16
 425              		.loc 1 137 0
 426 0004 0446     		mov	r4, r0
 427              		.loc 1 140 0
 428 0006 012B     		cmp	r3, #1
 429 0008 00D0     		beq	.L28
 430 000a 38BD     		pop	{r3, r4, r5, pc}
 431              	.L28:
 432              		.loc 1 142 0
 433 000c 0E4D     		ldr	r5, .L31
 434 000e A842     		cmp	r0, r5
 435 0010 04D0     		beq	.L29
 436              	.LVL34:
 437              	.L26:
 438              		.loc 1 156 0
 439 0012 A36A     		ldr	r3, [r4, #40]
 440 0014 0021     		movs	r1, #0
 441 0016 5960     		str	r1, [r3, #4]
 442              		.loc 1 157 0
 443 0018 9960     		str	r1, [r3, #8]
 444 001a 38BD     		pop	{r3, r4, r5, pc}
 445              	.L29:
 446              	.LBB32:
 447              		.loc 1 144 0
 448 001c C06A     		ldr	r0, [r0, #44]
ARM GAS  /tmp/ccvEXzkv.s 			page 9


 449 001e 0521     		movs	r1, #5
 450 0020 0A4A     		ldr	r2, .L31+4
 451 0022 2346     		mov	r3, r4
 452 0024 FFF7FEFF 		bl	dmaStreamAllocate
 453              	.LVL35:
 454              		.loc 1 148 0
 455 0028 48B9     		cbnz	r0, .L30
 456              	.LVL36:
 457              	.L27:
 458              		.loc 1 149 0
 459 002a E86A     		ldr	r0, [r5, #44]
 460 002c 084B     		ldr	r3, .L31+8
 461 002e 0268     		ldr	r2, [r0, #0]
 462              		.loc 1 150 0
 463 0030 0848     		ldr	r0, .L31+12
 464              		.loc 1 149 0
 465 0032 9360     		str	r3, [r2, #8]
 466              		.loc 1 150 0
 467 0034 8169     		ldr	r1, [r0, #24]
 468 0036 41F40072 		orr	r2, r1, #512
 469 003a 8261     		str	r2, [r0, #24]
 470 003c E9E7     		b	.L26
 471              	.LVL37:
 472              	.L30:
 473              		.loc 1 148 0 discriminator 1
 474 003e 0648     		ldr	r0, .L31+16
 475              	.LVL38:
 476 0040 FFF7FEFF 		bl	chDbgPanic
 477 0044 F1E7     		b	.L27
 478              	.L32:
 479 0046 00BF     		.align	2
 480              	.L31:
 481 0048 00000000 		.word	.LANCHOR0
 482 004c 00000000 		.word	adc_lld_serve_rx_interrupt
 483 0050 4C240140 		.word	1073816652
 484 0054 00100240 		.word	1073876992
 485 0058 00000000 		.word	.LC0
 486              	.LBE32:
 487              		.cfi_endproc
 488              	.LFE64:
 489              		.size	adc_lld_start, .-adc_lld_start
 490 005c AFF30080 		.section	.text.adc_lld_stop,"ax",%progbits
 491              		.align	2
 492              		.p2align 4,,15
 493              		.global	adc_lld_stop
 494              		.thumb
 495              		.thumb_func
 496              		.type	adc_lld_stop, %function
 497              	adc_lld_stop:
 498              	.LFB65:
 499              		.loc 1 168 0
 500              		.cfi_startproc
 501              		@ args = 0, pretend = 0, frame = 0
 502              		@ frame_needed = 0, uses_anonymous_args = 0
 503              	.LVL39:
 504 0000 08B5     		push	{r3, lr}
 505              	.LCFI3:
ARM GAS  /tmp/ccvEXzkv.s 			page 10


 506              		.cfi_def_cfa_offset 8
 507              		.loc 1 171 0
 508 0002 0378     		ldrb	r3, [r0, #0]	@ zero_extendqisi2
 509              		.cfi_offset 14, -4
 510              		.cfi_offset 3, -8
 511 0004 022B     		cmp	r3, #2
 512 0006 00D0     		beq	.L35
 513              	.LVL40:
 514              	.L33:
 515 0008 08BD     		pop	{r3, pc}
 516              	.LVL41:
 517              	.L35:
 518              		.loc 1 173 0
 519 000a 0849     		ldr	r1, .L36
 520 000c 8842     		cmp	r0, r1
 521 000e FBD1     		bne	.L33
 522              		.loc 1 174 0
 523 0010 074A     		ldr	r2, .L36+4
 524 0012 0021     		movs	r1, #0
 525              		.loc 1 176 0
 526 0014 C06A     		ldr	r0, [r0, #44]
 527              	.LVL42:
 528              		.loc 1 174 0
 529 0016 5160     		str	r1, [r2, #4]
 530              		.loc 1 175 0
 531 0018 9160     		str	r1, [r2, #8]
 532              		.loc 1 176 0
 533 001a FFF7FEFF 		bl	dmaStreamRelease
 534              		.loc 1 177 0
 535 001e 0548     		ldr	r0, .L36+8
 536 0020 8369     		ldr	r3, [r0, #24]
 537 0022 23F40072 		bic	r2, r3, #512
 538 0026 8261     		str	r2, [r0, #24]
 539 0028 EEE7     		b	.L33
 540              	.L37:
 541 002a 00BF     		.align	2
 542              	.L36:
 543 002c 00000000 		.word	.LANCHOR0
 544 0030 00240140 		.word	1073816576
 545 0034 00100240 		.word	1073876992
 546              		.cfi_endproc
 547              	.LFE65:
 548              		.size	adc_lld_stop, .-adc_lld_stop
 549 0038 AFF30080 		.section	.text.adc_lld_start_conversion,"ax",%progbits
 549      AFF30080 
 550              		.align	2
 551              		.p2align 4,,15
 552              		.global	adc_lld_start_conversion
 553              		.thumb
 554              		.thumb_func
 555              		.type	adc_lld_start_conversion, %function
 556              	adc_lld_start_conversion:
 557              	.LFB66:
 558              		.loc 1 190 0
 559              		.cfi_startproc
 560              		@ args = 0, pretend = 0, frame = 0
 561              		@ frame_needed = 0, uses_anonymous_args = 0
ARM GAS  /tmp/ccvEXzkv.s 			page 11


 562              		@ link register save eliminated.
 563              	.LVL43:
 564              		.loc 1 192 0
 565 0000 0369     		ldr	r3, [r0, #16]
 566              	.LVL44:
 567              		.loc 1 190 0
 568 0002 2DE9F003 		push	{r4, r5, r6, r7, r8, r9}
 569              	.LCFI4:
 570              		.cfi_def_cfa_offset 24
 571              		.loc 1 196 0
 572 0006 1968     		ldr	r1, [r3, #0]
 573              		.loc 1 195 0
 574 0008 026B     		ldr	r2, [r0, #48]
 575              	.LVL45:
 576              		.loc 1 196 0
 577 000a 09B1     		cbz	r1, .L39
 578              		.cfi_offset 9, -4
 579              		.cfi_offset 8, -8
 580              		.cfi_offset 7, -12
 581              		.cfi_offset 6, -16
 582              		.cfi_offset 5, -20
 583              		.cfi_offset 4, -24
 584              	.LVL46:
 585              		.loc 1 197 0
 586 000c 42F02002 		orr	r2, r2, #32
 587              	.LVL47:
 588              	.L39:
 589              		.loc 1 198 0
 590 0010 C168     		ldr	r1, [r0, #12]
 591              		.loc 1 202 0
 592 0012 9E88     		ldrh	r6, [r3, #4]
 593              		.loc 1 198 0
 594 0014 0129     		cmp	r1, #1
 595              		.loc 1 206 0
 596 0016 C56A     		ldr	r5, [r0, #44]
 597              		.loc 1 202 0
 598 0018 88BF     		it	hi
 599 001a 4E43     		mulhi	r6, r1, r6
 600              		.loc 1 206 0
 601 001c 8468     		ldr	r4, [r0, #8]
 602 001e 2968     		ldr	r1, [r5, #0]
 603              		.loc 1 201 0
 604 0020 88BF     		it	hi
 605 0022 42F00402 		orrhi	r2, r2, #4
 606              	.LVL48:
 607              		.loc 1 213 0
 608 0026 D3F81480 		ldr	r8, [r3, #20]
 609              		.loc 1 206 0
 610 002a CC60     		str	r4, [r1, #12]
 611              		.loc 1 207 0
 612 002c 4E60     		str	r6, [r1, #4]
 613              		.loc 1 208 0
 614 002e 0A60     		str	r2, [r1, #0]
 615              		.loc 1 212 0
 616 0030 1F69     		ldr	r7, [r3, #16]
 617              		.loc 1 209 0
 618 0032 D1F800C0 		ldr	ip, [r1, #0]
ARM GAS  /tmp/ccvEXzkv.s 			page 12


 619              		.loc 1 212 0
 620 0036 826A     		ldr	r2, [r0, #40]
 621              	.LVL49:
 622              		.loc 1 214 0
 623 0038 D3F81890 		ldr	r9, [r3, #24]
 624              		.loc 1 215 0
 625 003c DE69     		ldr	r6, [r3, #28]
 626              	.LVL50:
 627              		.loc 1 216 0
 628 003e 1D6A     		ldr	r5, [r3, #32]
 629              		.loc 1 217 0
 630 0040 5C6A     		ldr	r4, [r3, #36]
 631              		.loc 1 218 0
 632 0042 986A     		ldr	r0, [r3, #40]
 633              	.LVL51:
 634              		.loc 1 213 0
 635 0044 48F48073 		orr	r3, r8, #256
 636              	.LVL52:
 637 0048 43F00303 		orr	r3, r3, #3
 638              		.loc 1 209 0
 639 004c 4CF0010C 		orr	ip, ip, #1
 640              		.loc 1 212 0
 641 0050 47F48077 		orr	r7, r7, #256
 642              		.loc 1 209 0
 643 0054 C1F800C0 		str	ip, [r1, #0]
 644              		.loc 1 212 0
 645 0058 5760     		str	r7, [r2, #4]
 646              		.loc 1 213 0
 647 005a 9360     		str	r3, [r2, #8]
 648              		.loc 1 214 0
 649 005c C2F80C90 		str	r9, [r2, #12]
 650              		.loc 1 215 0
 651 0060 1661     		str	r6, [r2, #16]
 652              		.loc 1 216 0
 653 0062 D562     		str	r5, [r2, #44]
 654              		.loc 1 217 0
 655 0064 1463     		str	r4, [r2, #48]
 656              		.loc 1 218 0
 657 0066 5063     		str	r0, [r2, #52]
 658              		.loc 1 221 0
 659 0068 9360     		str	r3, [r2, #8]
 660              		.loc 1 222 0
 661 006a BDE8F003 		pop	{r4, r5, r6, r7, r8, r9}
 662 006e 7047     		bx	lr
 663              		.cfi_endproc
 664              	.LFE66:
 665              		.size	adc_lld_start_conversion, .-adc_lld_start_conversion
 666              		.section	.text.adc_lld_stop_conversion,"ax",%progbits
 667              		.align	2
 668              		.p2align 4,,15
 669              		.global	adc_lld_stop_conversion
 670              		.thumb
 671              		.thumb_func
 672              		.type	adc_lld_stop_conversion, %function
 673              	adc_lld_stop_conversion:
 674              	.LFB67:
 675              		.loc 1 231 0
ARM GAS  /tmp/ccvEXzkv.s 			page 13


 676              		.cfi_startproc
 677              		@ args = 0, pretend = 0, frame = 0
 678              		@ frame_needed = 0, uses_anonymous_args = 0
 679              		@ link register save eliminated.
 680              	.LVL53:
 681              		.loc 1 233 0
 682 0000 C36A     		ldr	r3, [r0, #44]
 683              		.loc 1 231 0
 684 0002 30B4     		push	{r4, r5}
 685              	.LCFI5:
 686              		.cfi_def_cfa_offset 8
 687              		.loc 1 233 0
 688 0004 1A68     		ldr	r2, [r3, #0]
 689              		.loc 1 234 0
 690 0006 816A     		ldr	r1, [r0, #40]
 691              		.loc 1 233 0
 692 0008 1568     		ldr	r5, [r2, #0]
 693              		.cfi_offset 5, -4
 694              		.cfi_offset 4, -8
 695 000a 5C68     		ldr	r4, [r3, #4]
 696 000c 25F00100 		bic	r0, r5, #1
 697              	.LVL54:
 698 0010 1060     		str	r0, [r2, #0]
 699 0012 1B7A     		ldrb	r3, [r3, #8]	@ zero_extendqisi2
 700 0014 0F22     		movs	r2, #15
 701 0016 12FA03F0 		lsls	r0, r2, r3
 702              		.loc 1 234 0
 703 001a 0023     		movs	r3, #0
 704              		.loc 1 233 0
 705 001c 2060     		str	r0, [r4, #0]
 706              		.loc 1 234 0
 707 001e 8B60     		str	r3, [r1, #8]
 708              		.loc 1 235 0
 709 0020 30BC     		pop	{r4, r5}
 710 0022 7047     		bx	lr
 711              		.cfi_endproc
 712              	.LFE67:
 713              		.size	adc_lld_stop_conversion, .-adc_lld_stop_conversion
 714              		.global	ADCD1
 715 0024 AFF30080 		.section	.bss.ADCD1,"aw",%nobits
 715      AFF30080 
 715      AFF30080 
 716              		.align	2
 717              		.set	.LANCHOR0,. + 0
 718              		.type	ADCD1, %object
 719              		.size	ADCD1, 52
 720              	ADCD1:
 721 0000 00000000 		.space	52
 721      00000000 
 721      00000000 
 721      00000000 
 721      00000000 
 722              		.section	.rodata.str1.4,"aMS",%progbits,1
 723              		.align	2
 724              	.LC0:
 725 0000 6164635F 		.ascii	"adc_lld_start(), #1\000"
 725      6C6C645F 
ARM GAS  /tmp/ccvEXzkv.s 			page 14


 725      73746172 
 725      7428292C 
 725      20233100 
 726              		.text
 727              	.Letext0: