ARM GAS  C:\Users\z80\AppData\Local\Temp\ccosK0bj.s 			page 1


   1              		.syntax unified
   2              		.cpu cortex-m3
   3              		.fpu softvfp
   4              		.eabi_attribute 20, 1
   5              		.eabi_attribute 21, 1
   6              		.eabi_attribute 23, 3
   7              		.eabi_attribute 24, 1
   8              		.eabi_attribute 25, 1
   9              		.eabi_attribute 26, 1
  10              		.eabi_attribute 30, 6
  11              		.eabi_attribute 18, 4
  12              		.thumb
  13              		.file	"adc_lld.c"
  14              		.section	.debug_abbrev,"",%progbits
  15              	.Ldebug_abbrev0:
  16              		.section	.debug_info,"",%progbits
  17              	.Ldebug_info0:
  18              		.section	.debug_line,"",%progbits
  19              	.Ldebug_line0:
  20 0000 27030000 		.text
  20      02000302 
  20      00000201 
  20      FB0E0D00 
  20      01010101 
  21              	.Ltext0:
  22              		.cfi_sections	.debug_frame
  23              		.global	ADCD1
  24              		.section	.bss.ADCD1,"aw",%nobits
  25              		.align	2
  26              		.type	ADCD1, %object
  27              		.size	ADCD1, 52
  28              	ADCD1:
  29 0000 00000000 		.space	52
  29      00000000 
  29      00000000 
  29      00000000 
  29      00000000 
  30              		.section	.text.adc_lld_serve_rx_interrupt,"ax",%progbits
  31              		.align	2
  32              		.p2align 4,,15
  33              		.thumb
  34              		.thumb_func
  35              		.type	adc_lld_serve_rx_interrupt, %function
  36              	adc_lld_serve_rx_interrupt:
  37              	.LFB62:
  38              		.file 1 "../chibios_2.4.x/os/hal/platforms/STM32F1xx/adc_lld.c"
  39              		.loc 1 64 0
  40              		.cfi_startproc
  41              		@ args = 0, pretend = 0, frame = 32
  42              		@ frame_needed = 0, uses_anonymous_args = 0
  43 0000 00B5     		push	{lr}
  44              	.LCFI0:
  45              		.cfi_def_cfa_offset 4
  46 0002 89B0     		sub	sp, sp, #36
  47              	.LCFI1:
  48              		.cfi_def_cfa_offset 40
  49 0004 0190     		str	r0, [sp, #4]
ARM GAS  C:\Users\z80\AppData\Local\Temp\ccosK0bj.s 			page 2


  50 0006 0091     		str	r1, [sp, #0]
  51              		.loc 1 67 0
  52 0008 009B     		ldr	r3, [sp, #0]
  53 000a 03F00803 		and	r3, r3, #8
  54 000e 002B     		cmp	r3, #0
  55 0010 3DD0     		beq	.L2
  56              		.cfi_offset 14, -4
  57              		.loc 1 70 0
  58 0012 0198     		ldr	r0, [sp, #4]
  59 0014 FFF7FEFF 		bl	adc_lld_stop_conversion
  60 0018 019B     		ldr	r3, [sp, #4]
  61 001a 1B69     		ldr	r3, [r3, #16]
  62 001c DB68     		ldr	r3, [r3, #12]
  63 001e 002B     		cmp	r3, #0
  64 0020 12D0     		beq	.L3
  65              		.loc 1 70 0 is_stmt 0 discriminator 1
  66 0022 019B     		ldr	r3, [sp, #4]
  67 0024 4FF00502 		mov	r2, #5
  68 0028 1A70     		strb	r2, [r3, #0]
  69 002a 019B     		ldr	r3, [sp, #4]
  70 002c 1B69     		ldr	r3, [r3, #16]
  71 002e DB68     		ldr	r3, [r3, #12]
  72 0030 0198     		ldr	r0, [sp, #4]
  73 0032 4FF00001 		mov	r1, #0
  74 0036 9847     		blx	r3
  75 0038 019B     		ldr	r3, [sp, #4]
  76 003a 1B78     		ldrb	r3, [r3, #0]	@ zero_extendqisi2
  77 003c 052B     		cmp	r3, #5
  78 003e 03D1     		bne	.L3
  79              		.loc 1 70 0 discriminator 3
  80 0040 019B     		ldr	r3, [sp, #4]
  81 0042 4FF00202 		mov	r2, #2
  82 0046 1A70     		strb	r2, [r3, #0]
  83              	.L3:
  84              		.loc 1 70 0 discriminator 2
  85 0048 019B     		ldr	r3, [sp, #4]
  86 004a 4FF00002 		mov	r2, #0
  87 004e 1A61     		str	r2, [r3, #16]
  88              	.LBB2:
  89 0050 4FF02003 		mov	r3, #32
  90              	@ 70 "../chibios_2.4.x/os/hal/platforms/STM32F1xx/adc_lld.c" 1
  91 0054 83F31188 		msr     BASEPRI, r3
  92              	@ 0 "" 2
  93              		.thumb
  94              	.LBE2:
  95 0058 FFF7FEFF 		bl	dbg_check_lock_from_isr
  96 005c 019B     		ldr	r3, [sp, #4]
  97 005e 5B69     		ldr	r3, [r3, #20]
  98 0060 002B     		cmp	r3, #0
  99 0062 0DD0     		beq	.L4
 100              	.LBB3:
 101              		.loc 1 70 0 discriminator 4
 102 0064 019B     		ldr	r3, [sp, #4]
 103 0066 5B69     		ldr	r3, [r3, #20]
 104 0068 0793     		str	r3, [sp, #28]
 105 006a 019B     		ldr	r3, [sp, #4]
 106 006c 4FF00002 		mov	r2, #0
ARM GAS  C:\Users\z80\AppData\Local\Temp\ccosK0bj.s 			page 3


 107 0070 5A61     		str	r2, [r3, #20]
 108 0072 079B     		ldr	r3, [sp, #28]
 109 0074 4FF0FF32 		mov	r2, #-1
 110 0078 9A62     		str	r2, [r3, #40]
 111 007a 0798     		ldr	r0, [sp, #28]
 112 007c FFF7FEFF 		bl	chSchReadyI
 113              	.L4:
 114              	.LBE3:
 115              		.loc 1 70 0 discriminator 5
 116 0080 FFF7FEFF 		bl	dbg_check_unlock_from_isr
 117              	.LBB4:
 118 0084 4FF00003 		mov	r3, #0
 119              	@ 70 "../chibios_2.4.x/os/hal/platforms/STM32F1xx/adc_lld.c" 1
 120 0088 83F31188 		msr     BASEPRI, r3
 121              	@ 0 "" 2
 122              		.thumb
 123 008c AFE0     		b	.L1
 124              	.L2:
 125              	.LBE4:
 126              		.loc 1 73 0 is_stmt 1
 127 008e 009B     		ldr	r3, [sp, #0]
 128 0090 03F00403 		and	r3, r3, #4
 129 0094 002B     		cmp	r3, #0
 130 0096 0FD0     		beq	.L6
 131              		.loc 1 75 0
 132 0098 019B     		ldr	r3, [sp, #4]
 133 009a 1B69     		ldr	r3, [r3, #16]
 134 009c 9B68     		ldr	r3, [r3, #8]
 135 009e 002B     		cmp	r3, #0
 136 00a0 0AD0     		beq	.L6
 137              		.loc 1 75 0 is_stmt 0 discriminator 1
 138 00a2 019B     		ldr	r3, [sp, #4]
 139 00a4 1B69     		ldr	r3, [r3, #16]
 140 00a6 9B68     		ldr	r3, [r3, #8]
 141 00a8 019A     		ldr	r2, [sp, #4]
 142 00aa 9168     		ldr	r1, [r2, #8]
 143 00ac 019A     		ldr	r2, [sp, #4]
 144 00ae D268     		ldr	r2, [r2, #12]
 145 00b0 4FEA5202 		lsr	r2, r2, #1
 146 00b4 0198     		ldr	r0, [sp, #4]
 147 00b6 9847     		blx	r3
 148              	.L6:
 149              		.loc 1 77 0 is_stmt 1
 150 00b8 009B     		ldr	r3, [sp, #0]
 151 00ba 03F00203 		and	r3, r3, #2
 152 00be 002B     		cmp	r3, #0
 153 00c0 00F09580 		beq	.L1
 154              		.loc 1 79 0
 155 00c4 019B     		ldr	r3, [sp, #4]
 156 00c6 1B69     		ldr	r3, [r3, #16]
 157 00c8 1B68     		ldr	r3, [r3, #0]
 158 00ca 002B     		cmp	r3, #0
 159 00cc 2DD0     		beq	.L7
 160              		.loc 1 79 0 is_stmt 0 discriminator 1
 161 00ce 019B     		ldr	r3, [sp, #4]
 162 00d0 1B69     		ldr	r3, [r3, #16]
 163 00d2 9B68     		ldr	r3, [r3, #8]
ARM GAS  C:\Users\z80\AppData\Local\Temp\ccosK0bj.s 			page 4


 164 00d4 002B     		cmp	r3, #0
 165 00d6 00F08A80 		beq	.L1
 166              		.loc 1 79 0 discriminator 3
 167 00da 019B     		ldr	r3, [sp, #4]
 168 00dc DB68     		ldr	r3, [r3, #12]
 169 00de 012B     		cmp	r3, #1
 170 00e0 19D9     		bls	.L9
 171              	.LBB5:
 172              		.loc 1 79 0 discriminator 4
 173 00e2 019B     		ldr	r3, [sp, #4]
 174 00e4 DB68     		ldr	r3, [r3, #12]
 175 00e6 4FEA5303 		lsr	r3, r3, #1
 176 00ea 0693     		str	r3, [sp, #24]
 177 00ec 019B     		ldr	r3, [sp, #4]
 178 00ee 1B69     		ldr	r3, [r3, #16]
 179 00f0 9B88     		ldrh	r3, [r3, #4]
 180 00f2 069A     		ldr	r2, [sp, #24]
 181 00f4 02FB03F3 		mul	r3, r2, r3
 182 00f8 0593     		str	r3, [sp, #20]
 183 00fa 019B     		ldr	r3, [sp, #4]
 184 00fc 1B69     		ldr	r3, [r3, #16]
 185 00fe 9B68     		ldr	r3, [r3, #8]
 186 0100 019A     		ldr	r2, [sp, #4]
 187 0102 9168     		ldr	r1, [r2, #8]
 188 0104 059A     		ldr	r2, [sp, #20]
 189 0106 4FEA4202 		lsl	r2, r2, #1
 190 010a 0A44     		add	r2, r1, r2
 191 010c 0198     		ldr	r0, [sp, #4]
 192 010e 1146     		mov	r1, r2
 193 0110 069A     		ldr	r2, [sp, #24]
 194 0112 9847     		blx	r3
 195              	.LBE5:
 196 0114 6BE0     		b	.L1
 197              	.L9:
 198              		.loc 1 79 0 discriminator 5
 199 0116 019B     		ldr	r3, [sp, #4]
 200 0118 1B69     		ldr	r3, [r3, #16]
 201 011a 9B68     		ldr	r3, [r3, #8]
 202 011c 019A     		ldr	r2, [sp, #4]
 203 011e 9168     		ldr	r1, [r2, #8]
 204 0120 019A     		ldr	r2, [sp, #4]
 205 0122 D268     		ldr	r2, [r2, #12]
 206 0124 0198     		ldr	r0, [sp, #4]
 207 0126 9847     		blx	r3
 208 0128 61E0     		b	.L1
 209              	.L7:
 210              		.loc 1 79 0 discriminator 2
 211 012a 0198     		ldr	r0, [sp, #4]
 212 012c FFF7FEFF 		bl	adc_lld_stop_conversion
 213 0130 019B     		ldr	r3, [sp, #4]
 214 0132 1B69     		ldr	r3, [r3, #16]
 215 0134 9B68     		ldr	r3, [r3, #8]
 216 0136 002B     		cmp	r3, #0
 217 0138 33D0     		beq	.L10
 218              		.loc 1 79 0 discriminator 6
 219 013a 019B     		ldr	r3, [sp, #4]
 220 013c 4FF00402 		mov	r2, #4
ARM GAS  C:\Users\z80\AppData\Local\Temp\ccosK0bj.s 			page 5


 221 0140 1A70     		strb	r2, [r3, #0]
 222 0142 019B     		ldr	r3, [sp, #4]
 223 0144 DB68     		ldr	r3, [r3, #12]
 224 0146 012B     		cmp	r3, #1
 225 0148 19D9     		bls	.L11
 226              	.LBB6:
 227              		.loc 1 79 0 discriminator 8
 228 014a 019B     		ldr	r3, [sp, #4]
 229 014c DB68     		ldr	r3, [r3, #12]
 230 014e 4FEA5303 		lsr	r3, r3, #1
 231 0152 0493     		str	r3, [sp, #16]
 232 0154 019B     		ldr	r3, [sp, #4]
 233 0156 1B69     		ldr	r3, [r3, #16]
 234 0158 9B88     		ldrh	r3, [r3, #4]
 235 015a 049A     		ldr	r2, [sp, #16]
 236 015c 02FB03F3 		mul	r3, r2, r3
 237 0160 0393     		str	r3, [sp, #12]
 238 0162 019B     		ldr	r3, [sp, #4]
 239 0164 1B69     		ldr	r3, [r3, #16]
 240 0166 9B68     		ldr	r3, [r3, #8]
 241 0168 019A     		ldr	r2, [sp, #4]
 242 016a 9168     		ldr	r1, [r2, #8]
 243 016c 039A     		ldr	r2, [sp, #12]
 244 016e 4FEA4202 		lsl	r2, r2, #1
 245 0172 0A44     		add	r2, r1, r2
 246 0174 0198     		ldr	r0, [sp, #4]
 247 0176 1146     		mov	r1, r2
 248 0178 049A     		ldr	r2, [sp, #16]
 249 017a 9847     		blx	r3
 250 017c 08E0     		b	.L12
 251              	.L11:
 252              	.LBE6:
 253              		.loc 1 79 0 discriminator 9
 254 017e 019B     		ldr	r3, [sp, #4]
 255 0180 1B69     		ldr	r3, [r3, #16]
 256 0182 9B68     		ldr	r3, [r3, #8]
 257 0184 019A     		ldr	r2, [sp, #4]
 258 0186 9168     		ldr	r1, [r2, #8]
 259 0188 019A     		ldr	r2, [sp, #4]
 260 018a D268     		ldr	r2, [r2, #12]
 261 018c 0198     		ldr	r0, [sp, #4]
 262 018e 9847     		blx	r3
 263              	.L12:
 264              		.loc 1 79 0 discriminator 10
 265 0190 019B     		ldr	r3, [sp, #4]
 266 0192 1B78     		ldrb	r3, [r3, #0]	@ zero_extendqisi2
 267 0194 042B     		cmp	r3, #4
 268 0196 08D1     		bne	.L14
 269              		.loc 1 79 0 discriminator 11
 270 0198 019B     		ldr	r3, [sp, #4]
 271 019a 4FF00202 		mov	r2, #2
 272 019e 1A70     		strb	r2, [r3, #0]
 273 01a0 03E0     		b	.L14
 274              	.L10:
 275              		.loc 1 79 0 discriminator 7
 276 01a2 019B     		ldr	r3, [sp, #4]
 277 01a4 4FF00202 		mov	r2, #2
ARM GAS  C:\Users\z80\AppData\Local\Temp\ccosK0bj.s 			page 6


 278 01a8 1A70     		strb	r2, [r3, #0]
 279              	.L14:
 280              		.loc 1 79 0 discriminator 12
 281 01aa 019B     		ldr	r3, [sp, #4]
 282 01ac 4FF00002 		mov	r2, #0
 283 01b0 1A61     		str	r2, [r3, #16]
 284              	.LBB7:
 285 01b2 4FF02003 		mov	r3, #32
 286              	@ 79 "../chibios_2.4.x/os/hal/platforms/STM32F1xx/adc_lld.c" 1
 287 01b6 83F31188 		msr     BASEPRI, r3
 288              	@ 0 "" 2
 289              		.thumb
 290              	.LBE7:
 291 01ba FFF7FEFF 		bl	dbg_check_lock_from_isr
 292 01be 019B     		ldr	r3, [sp, #4]
 293 01c0 5B69     		ldr	r3, [r3, #20]
 294 01c2 002B     		cmp	r3, #0
 295 01c4 0DD0     		beq	.L15
 296              	.LBB8:
 297              		.loc 1 79 0 discriminator 13
 298 01c6 019B     		ldr	r3, [sp, #4]
 299 01c8 5B69     		ldr	r3, [r3, #20]
 300 01ca 0293     		str	r3, [sp, #8]
 301 01cc 019B     		ldr	r3, [sp, #4]
 302 01ce 4FF00002 		mov	r2, #0
 303 01d2 5A61     		str	r2, [r3, #20]
 304 01d4 029B     		ldr	r3, [sp, #8]
 305 01d6 4FF00002 		mov	r2, #0
 306 01da 9A62     		str	r2, [r3, #40]
 307 01dc 0298     		ldr	r0, [sp, #8]
 308 01de FFF7FEFF 		bl	chSchReadyI
 309              	.L15:
 310              	.LBE8:
 311              		.loc 1 79 0 discriminator 14
 312 01e2 FFF7FEFF 		bl	dbg_check_unlock_from_isr
 313              	.LBB9:
 314 01e6 4FF00003 		mov	r3, #0
 315              	@ 79 "../chibios_2.4.x/os/hal/platforms/STM32F1xx/adc_lld.c" 1
 316 01ea 83F31188 		msr     BASEPRI, r3
 317              	@ 0 "" 2
 318              		.thumb
 319              	.L1:
 320              	.LBE9:
 321              		.loc 1 82 0 is_stmt 1
 322 01ee 09B0     		add	sp, sp, #36
 323 01f0 00BD     		pop	{pc}
 324              		.cfi_endproc
 325              	.LFE62:
 326              		.size	adc_lld_serve_rx_interrupt, .-adc_lld_serve_rx_interrupt
 327 01f2 00BFAFF3 		.section	.text.adc_lld_init,"ax",%progbits
 327      0080AFF3 
 327      0080AFF3 
 327      0080
 328              		.align	2
 329              		.p2align 4,,15
 330              		.global	adc_lld_init
 331              		.thumb
ARM GAS  C:\Users\z80\AppData\Local\Temp\ccosK0bj.s 			page 7


 332              		.thumb_func
 333              		.type	adc_lld_init, %function
 334              	adc_lld_init:
 335              	.LFB63:
 336              		.loc 1 97 0
 337              		.cfi_startproc
 338              		@ args = 0, pretend = 0, frame = 0
 339              		@ frame_needed = 0, uses_anonymous_args = 0
 340 0000 08B5     		push	{r3, lr}
 341              	.LCFI2:
 342              		.cfi_def_cfa_offset 8
 343              		.loc 1 101 0
 344 0002 40F20000 		movw	r0, #:lower16:ADCD1
 345 0006 C0F20000 		movt	r0, #:upper16:ADCD1
 346              		.cfi_offset 14, -4
 347              		.cfi_offset 3, -8
 348 000a FFF7FEFF 		bl	adcObjectInit
 349              		.loc 1 102 0
 350 000e 40F20003 		movw	r3, #:lower16:ADCD1
 351 0012 C0F20003 		movt	r3, #:upper16:ADCD1
 352 0016 4FF41052 		mov	r2, #9216
 353 001a C4F20102 		movt	r2, 16385
 354 001e 9A62     		str	r2, [r3, #40]
 355              		.loc 1 103 0
 356 0020 40F20003 		movw	r3, #:lower16:ADCD1
 357 0024 C0F20003 		movt	r3, #:upper16:ADCD1
 358 0028 40F20002 		movw	r2, #:lower16:_stm32_dma_streams
 359 002c C0F20002 		movt	r2, #:upper16:_stm32_dma_streams
 360 0030 DA62     		str	r2, [r3, #44]
 361              		.loc 1 104 0
 362 0032 40F20003 		movw	r3, #:lower16:ADCD1
 363 0036 C0F20003 		movt	r3, #:upper16:ADCD1
 364 003a 42F28A52 		movw	r2, #9610
 365 003e 1A63     		str	r2, [r3, #48]
 366              		.loc 1 110 0
 367 0040 4FF48053 		mov	r3, #4096
 368 0044 C4F20203 		movt	r3, 16386
 369 0048 4FF48052 		mov	r2, #4096
 370 004c C4F20202 		movt	r2, 16386
 371 0050 9269     		ldr	r2, [r2, #24]
 372 0052 42F40072 		orr	r2, r2, #512
 373 0056 9A61     		str	r2, [r3, #24]
 374              		.loc 1 111 0
 375 0058 4FF41053 		mov	r3, #9216
 376 005c C4F20103 		movt	r3, 16385
 377 0060 4FF00002 		mov	r2, #0
 378 0064 5A60     		str	r2, [r3, #4]
 379              		.loc 1 112 0
 380 0066 4FF41053 		mov	r3, #9216
 381 006a C4F20103 		movt	r3, 16385
 382 006e 4FF00102 		mov	r2, #1
 383 0072 9A60     		str	r2, [r3, #8]
 384              		.loc 1 115 0
 385 0074 4FF41053 		mov	r3, #9216
 386 0078 C4F20103 		movt	r3, 16385
 387 007c 4FF00902 		mov	r2, #9
 388 0080 9A60     		str	r2, [r3, #8]
ARM GAS  C:\Users\z80\AppData\Local\Temp\ccosK0bj.s 			page 8


 389              		.loc 1 116 0
 390 0082 00BF     		nop
 391              	.L17:
 392              		.loc 1 116 0 is_stmt 0 discriminator 1
 393 0084 4FF41053 		mov	r3, #9216
 394 0088 C4F20103 		movt	r3, 16385
 395 008c 9B68     		ldr	r3, [r3, #8]
 396 008e 03F00803 		and	r3, r3, #8
 397 0092 002B     		cmp	r3, #0
 398 0094 F6D1     		bne	.L17
 399              		.loc 1 120 0 is_stmt 1
 400 0096 4FF41053 		mov	r3, #9216
 401 009a C4F20103 		movt	r3, 16385
 402 009e 4FF00502 		mov	r2, #5
 403 00a2 9A60     		str	r2, [r3, #8]
 404              		.loc 1 121 0
 405 00a4 00BF     		nop
 406              	.L18:
 407              		.loc 1 121 0 is_stmt 0 discriminator 1
 408 00a6 4FF41053 		mov	r3, #9216
 409 00aa C4F20103 		movt	r3, 16385
 410 00ae 9B68     		ldr	r3, [r3, #8]
 411 00b0 03F00403 		and	r3, r3, #4
 412 00b4 002B     		cmp	r3, #0
 413 00b6 F6D1     		bne	.L18
 414              		.loc 1 125 0 is_stmt 1
 415 00b8 4FF41053 		mov	r3, #9216
 416 00bc C4F20103 		movt	r3, 16385
 417 00c0 4FF00002 		mov	r2, #0
 418 00c4 9A60     		str	r2, [r3, #8]
 419              		.loc 1 126 0
 420 00c6 4FF48053 		mov	r3, #4096
 421 00ca C4F20203 		movt	r3, 16386
 422 00ce 4FF48052 		mov	r2, #4096
 423 00d2 C4F20202 		movt	r2, 16386
 424 00d6 9269     		ldr	r2, [r2, #24]
 425 00d8 22F40072 		bic	r2, r2, #512
 426 00dc 9A61     		str	r2, [r3, #24]
 427              		.loc 1 128 0
 428 00de 08BD     		pop	{r3, pc}
 429              		.cfi_endproc
 430              	.LFE63:
 431              		.size	adc_lld_init, .-adc_lld_init
 432              		.section	.rodata
 433              		.align	2
 434              	.LC0:
 435 0000 6164635F 		.ascii	"adc_lld_start(), #1\000"
 435      6C6C645F 
 435      73746172 
 435      7428292C 
 435      20233100 
 436              		.section	.text.adc_lld_start,"ax",%progbits
 437              		.align	2
 438              		.p2align 4,,15
 439              		.global	adc_lld_start
 440              		.thumb
 441              		.thumb_func
ARM GAS  C:\Users\z80\AppData\Local\Temp\ccosK0bj.s 			page 9


 442              		.type	adc_lld_start, %function
 443              	adc_lld_start:
 444              	.LFB64:
 445              		.loc 1 137 0
 446              		.cfi_startproc
 447              		@ args = 0, pretend = 0, frame = 16
 448              		@ frame_needed = 0, uses_anonymous_args = 0
 449 0000 00B5     		push	{lr}
 450              	.LCFI3:
 451              		.cfi_def_cfa_offset 4
 452 0002 85B0     		sub	sp, sp, #20
 453              	.LCFI4:
 454              		.cfi_def_cfa_offset 24
 455 0004 0190     		str	r0, [sp, #4]
 456              		.loc 1 140 0
 457 0006 019B     		ldr	r3, [sp, #4]
 458 0008 1B78     		ldrb	r3, [r3, #0]	@ zero_extendqisi2
 459 000a 012B     		cmp	r3, #1
 460 000c 3CD1     		bne	.L19
 461              		.cfi_offset 14, -4
 462              		.loc 1 142 0
 463 000e 019A     		ldr	r2, [sp, #4]
 464 0010 40F20003 		movw	r3, #:lower16:ADCD1
 465 0014 C0F20003 		movt	r3, #:upper16:ADCD1
 466 0018 9A42     		cmp	r2, r3
 467 001a 2BD1     		bne	.L21
 468              	.LBB10:
 469              		.loc 1 144 0
 470 001c 019B     		ldr	r3, [sp, #4]
 471 001e DA6A     		ldr	r2, [r3, #44]
 472 0020 40F20003 		movw	r3, #:lower16:adc_lld_serve_rx_interrupt
 473 0024 C0F20003 		movt	r3, #:upper16:adc_lld_serve_rx_interrupt
 474 0028 1046     		mov	r0, r2
 475 002a 4FF00501 		mov	r1, #5
 476 002e 1A46     		mov	r2, r3
 477 0030 019B     		ldr	r3, [sp, #4]
 478 0032 FFF7FEFF 		bl	dmaStreamAllocate
 479 0036 0346     		mov	r3, r0
 480 0038 0393     		str	r3, [sp, #12]
 481              		.loc 1 148 0
 482 003a 039B     		ldr	r3, [sp, #12]
 483 003c 002B     		cmp	r3, #0
 484 003e 05D0     		beq	.L22
 485              		.loc 1 148 0 is_stmt 0 discriminator 1
 486 0040 40F20000 		movw	r0, #:lower16:.LC0
 487 0044 C0F20000 		movt	r0, #:upper16:.LC0
 488 0048 FFF7FEFF 		bl	chDbgPanic
 489              	.L22:
 490              		.loc 1 149 0 is_stmt 1
 491 004c 019B     		ldr	r3, [sp, #4]
 492 004e DB6A     		ldr	r3, [r3, #44]
 493 0050 1A68     		ldr	r2, [r3, #0]
 494 0052 42F24C43 		movw	r3, #9292
 495 0056 C4F20103 		movt	r3, 16385
 496 005a 9360     		str	r3, [r2, #8]
 497              		.loc 1 150 0
 498 005c 4FF48053 		mov	r3, #4096
ARM GAS  C:\Users\z80\AppData\Local\Temp\ccosK0bj.s 			page 10


 499 0060 C4F20203 		movt	r3, 16386
 500 0064 4FF48052 		mov	r2, #4096
 501 0068 C4F20202 		movt	r2, 16386
 502 006c 9269     		ldr	r2, [r2, #24]
 503 006e 42F40072 		orr	r2, r2, #512
 504 0072 9A61     		str	r2, [r3, #24]
 505              	.L21:
 506              	.LBE10:
 507              		.loc 1 156 0
 508 0074 019B     		ldr	r3, [sp, #4]
 509 0076 9B6A     		ldr	r3, [r3, #40]
 510 0078 4FF00002 		mov	r2, #0
 511 007c 5A60     		str	r2, [r3, #4]
 512              		.loc 1 157 0
 513 007e 019B     		ldr	r3, [sp, #4]
 514 0080 9B6A     		ldr	r3, [r3, #40]
 515 0082 4FF00002 		mov	r2, #0
 516 0086 9A60     		str	r2, [r3, #8]
 517              	.L19:
 518              		.loc 1 159 0
 519 0088 05B0     		add	sp, sp, #20
 520 008a 00BD     		pop	{pc}
 521              		.cfi_endproc
 522              	.LFE64:
 523              		.size	adc_lld_start, .-adc_lld_start
 524 008c AFF30080 		.section	.text.adc_lld_stop,"ax",%progbits
 525              		.align	2
 526              		.p2align 4,,15
 527              		.global	adc_lld_stop
 528              		.thumb
 529              		.thumb_func
 530              		.type	adc_lld_stop, %function
 531              	adc_lld_stop:
 532              	.LFB65:
 533              		.loc 1 168 0
 534              		.cfi_startproc
 535              		@ args = 0, pretend = 0, frame = 8
 536              		@ frame_needed = 0, uses_anonymous_args = 0
 537 0000 00B5     		push	{lr}
 538              	.LCFI5:
 539              		.cfi_def_cfa_offset 4
 540 0002 83B0     		sub	sp, sp, #12
 541              	.LCFI6:
 542              		.cfi_def_cfa_offset 16
 543 0004 0190     		str	r0, [sp, #4]
 544              		.loc 1 171 0
 545 0006 019B     		ldr	r3, [sp, #4]
 546 0008 1B78     		ldrb	r3, [r3, #0]	@ zero_extendqisi2
 547 000a 022B     		cmp	r3, #2
 548 000c 25D1     		bne	.L23
 549              		.cfi_offset 14, -4
 550              		.loc 1 173 0
 551 000e 019A     		ldr	r2, [sp, #4]
 552 0010 40F20003 		movw	r3, #:lower16:ADCD1
 553 0014 C0F20003 		movt	r3, #:upper16:ADCD1
 554 0018 9A42     		cmp	r2, r3
 555 001a 1ED1     		bne	.L23
ARM GAS  C:\Users\z80\AppData\Local\Temp\ccosK0bj.s 			page 11


 556              		.loc 1 174 0
 557 001c 4FF41053 		mov	r3, #9216
 558 0020 C4F20103 		movt	r3, 16385
 559 0024 4FF00002 		mov	r2, #0
 560 0028 5A60     		str	r2, [r3, #4]
 561              		.loc 1 175 0
 562 002a 4FF41053 		mov	r3, #9216
 563 002e C4F20103 		movt	r3, 16385
 564 0032 4FF00002 		mov	r2, #0
 565 0036 9A60     		str	r2, [r3, #8]
 566              		.loc 1 176 0
 567 0038 019B     		ldr	r3, [sp, #4]
 568 003a DB6A     		ldr	r3, [r3, #44]
 569 003c 1846     		mov	r0, r3
 570 003e FFF7FEFF 		bl	dmaStreamRelease
 571              		.loc 1 177 0
 572 0042 4FF48053 		mov	r3, #4096
 573 0046 C4F20203 		movt	r3, 16386
 574 004a 4FF48052 		mov	r2, #4096
 575 004e C4F20202 		movt	r2, 16386
 576 0052 9269     		ldr	r2, [r2, #24]
 577 0054 22F40072 		bic	r2, r2, #512
 578 0058 9A61     		str	r2, [r3, #24]
 579              	.L23:
 580              		.loc 1 181 0
 581 005a 03B0     		add	sp, sp, #12
 582 005c 00BD     		pop	{pc}
 583              		.cfi_endproc
 584              	.LFE65:
 585              		.size	adc_lld_stop, .-adc_lld_stop
 586 005e 00BF     		.section	.text.adc_lld_start_conversion,"ax",%progbits
 587              		.align	2
 588              		.p2align 4,,15
 589              		.global	adc_lld_start_conversion
 590              		.thumb
 591              		.thumb_func
 592              		.type	adc_lld_start_conversion, %function
 593              	adc_lld_start_conversion:
 594              	.LFB66:
 595              		.loc 1 190 0
 596              		.cfi_startproc
 597              		@ args = 0, pretend = 0, frame = 24
 598              		@ frame_needed = 0, uses_anonymous_args = 0
 599              		@ link register save eliminated.
 600 0000 86B0     		sub	sp, sp, #24
 601              	.LCFI7:
 602              		.cfi_def_cfa_offset 24
 603 0002 0190     		str	r0, [sp, #4]
 604              		.loc 1 192 0
 605 0004 019B     		ldr	r3, [sp, #4]
 606 0006 1B69     		ldr	r3, [r3, #16]
 607 0008 0393     		str	r3, [sp, #12]
 608              		.loc 1 195 0
 609 000a 019B     		ldr	r3, [sp, #4]
 610 000c 1B6B     		ldr	r3, [r3, #48]
 611 000e 0593     		str	r3, [sp, #20]
 612              		.loc 1 196 0
ARM GAS  C:\Users\z80\AppData\Local\Temp\ccosK0bj.s 			page 12


 613 0010 039B     		ldr	r3, [sp, #12]
 614 0012 1B68     		ldr	r3, [r3, #0]
 615 0014 002B     		cmp	r3, #0
 616 0016 03D0     		beq	.L26
 617              		.loc 1 197 0
 618 0018 059B     		ldr	r3, [sp, #20]
 619 001a 43F02003 		orr	r3, r3, #32
 620 001e 0593     		str	r3, [sp, #20]
 621              	.L26:
 622              		.loc 1 198 0
 623 0020 019B     		ldr	r3, [sp, #4]
 624 0022 DB68     		ldr	r3, [r3, #12]
 625 0024 012B     		cmp	r3, #1
 626 0026 0BD9     		bls	.L27
 627              		.loc 1 201 0
 628 0028 059B     		ldr	r3, [sp, #20]
 629 002a 43F00403 		orr	r3, r3, #4
 630 002e 0593     		str	r3, [sp, #20]
 631              		.loc 1 202 0
 632 0030 039B     		ldr	r3, [sp, #12]
 633 0032 9B88     		ldrh	r3, [r3, #4]
 634 0034 019A     		ldr	r2, [sp, #4]
 635 0036 D268     		ldr	r2, [r2, #12]
 636 0038 02FB03F3 		mul	r3, r2, r3
 637 003c 0493     		str	r3, [sp, #16]
 638 003e 02E0     		b	.L28
 639              	.L27:
 640              		.loc 1 205 0
 641 0040 039B     		ldr	r3, [sp, #12]
 642 0042 9B88     		ldrh	r3, [r3, #4]
 643 0044 0493     		str	r3, [sp, #16]
 644              	.L28:
 645              		.loc 1 206 0
 646 0046 019B     		ldr	r3, [sp, #4]
 647 0048 DB6A     		ldr	r3, [r3, #44]
 648 004a 1B68     		ldr	r3, [r3, #0]
 649 004c 019A     		ldr	r2, [sp, #4]
 650 004e 9268     		ldr	r2, [r2, #8]
 651 0050 DA60     		str	r2, [r3, #12]
 652              		.loc 1 207 0
 653 0052 019B     		ldr	r3, [sp, #4]
 654 0054 DB6A     		ldr	r3, [r3, #44]
 655 0056 1B68     		ldr	r3, [r3, #0]
 656 0058 049A     		ldr	r2, [sp, #16]
 657 005a 5A60     		str	r2, [r3, #4]
 658              		.loc 1 208 0
 659 005c 019B     		ldr	r3, [sp, #4]
 660 005e DB6A     		ldr	r3, [r3, #44]
 661 0060 1B68     		ldr	r3, [r3, #0]
 662 0062 059A     		ldr	r2, [sp, #20]
 663 0064 1A60     		str	r2, [r3, #0]
 664              		.loc 1 209 0
 665 0066 019B     		ldr	r3, [sp, #4]
 666 0068 DB6A     		ldr	r3, [r3, #44]
 667 006a 1B68     		ldr	r3, [r3, #0]
 668 006c 019A     		ldr	r2, [sp, #4]
 669 006e D26A     		ldr	r2, [r2, #44]
ARM GAS  C:\Users\z80\AppData\Local\Temp\ccosK0bj.s 			page 13


 670 0070 1268     		ldr	r2, [r2, #0]
 671 0072 1268     		ldr	r2, [r2, #0]
 672 0074 42F00102 		orr	r2, r2, #1
 673 0078 1A60     		str	r2, [r3, #0]
 674              		.loc 1 212 0
 675 007a 019B     		ldr	r3, [sp, #4]
 676 007c 9B6A     		ldr	r3, [r3, #40]
 677 007e 039A     		ldr	r2, [sp, #12]
 678 0080 1269     		ldr	r2, [r2, #16]
 679 0082 42F48072 		orr	r2, r2, #256
 680 0086 5A60     		str	r2, [r3, #4]
 681              		.loc 1 213 0
 682 0088 019B     		ldr	r3, [sp, #4]
 683 008a 9A6A     		ldr	r2, [r3, #40]
 684 008c 039B     		ldr	r3, [sp, #12]
 685 008e 5B69     		ldr	r3, [r3, #20]
 686 0090 43F48073 		orr	r3, r3, #256
 687 0094 43F00303 		orr	r3, r3, #3
 688 0098 9360     		str	r3, [r2, #8]
 689              		.loc 1 214 0
 690 009a 019B     		ldr	r3, [sp, #4]
 691 009c 9B6A     		ldr	r3, [r3, #40]
 692 009e 039A     		ldr	r2, [sp, #12]
 693 00a0 9269     		ldr	r2, [r2, #24]
 694 00a2 DA60     		str	r2, [r3, #12]
 695              		.loc 1 215 0
 696 00a4 019B     		ldr	r3, [sp, #4]
 697 00a6 9B6A     		ldr	r3, [r3, #40]
 698 00a8 039A     		ldr	r2, [sp, #12]
 699 00aa D269     		ldr	r2, [r2, #28]
 700 00ac 1A61     		str	r2, [r3, #16]
 701              		.loc 1 216 0
 702 00ae 019B     		ldr	r3, [sp, #4]
 703 00b0 9B6A     		ldr	r3, [r3, #40]
 704 00b2 039A     		ldr	r2, [sp, #12]
 705 00b4 126A     		ldr	r2, [r2, #32]
 706 00b6 DA62     		str	r2, [r3, #44]
 707              		.loc 1 217 0
 708 00b8 019B     		ldr	r3, [sp, #4]
 709 00ba 9B6A     		ldr	r3, [r3, #40]
 710 00bc 039A     		ldr	r2, [sp, #12]
 711 00be 526A     		ldr	r2, [r2, #36]
 712 00c0 1A63     		str	r2, [r3, #48]
 713              		.loc 1 218 0
 714 00c2 019B     		ldr	r3, [sp, #4]
 715 00c4 9B6A     		ldr	r3, [r3, #40]
 716 00c6 039A     		ldr	r2, [sp, #12]
 717 00c8 926A     		ldr	r2, [r2, #40]
 718 00ca 5A63     		str	r2, [r3, #52]
 719              		.loc 1 221 0
 720 00cc 019B     		ldr	r3, [sp, #4]
 721 00ce 9A6A     		ldr	r2, [r3, #40]
 722 00d0 039B     		ldr	r3, [sp, #12]
 723 00d2 5B69     		ldr	r3, [r3, #20]
 724 00d4 43F48073 		orr	r3, r3, #256
 725 00d8 43F00303 		orr	r3, r3, #3
 726 00dc 9360     		str	r3, [r2, #8]
ARM GAS  C:\Users\z80\AppData\Local\Temp\ccosK0bj.s 			page 14


 727              		.loc 1 222 0
 728 00de 06B0     		add	sp, sp, #24
 729 00e0 7047     		bx	lr
 730              		.cfi_endproc
 731              	.LFE66:
 732              		.size	adc_lld_start_conversion, .-adc_lld_start_conversion
 733 00e2 00BFAFF3 		.section	.text.adc_lld_stop_conversion,"ax",%progbits
 733      0080AFF3 
 733      0080AFF3 
 733      0080
 734              		.align	2
 735              		.p2align 4,,15
 736              		.global	adc_lld_stop_conversion
 737              		.thumb
 738              		.thumb_func
 739              		.type	adc_lld_stop_conversion, %function
 740              	adc_lld_stop_conversion:
 741              	.LFB67:
 742              		.loc 1 231 0
 743              		.cfi_startproc
 744              		@ args = 0, pretend = 0, frame = 8
 745              		@ frame_needed = 0, uses_anonymous_args = 0
 746              		@ link register save eliminated.
 747 0000 82B0     		sub	sp, sp, #8
 748              	.LCFI8:
 749              		.cfi_def_cfa_offset 8
 750 0002 0190     		str	r0, [sp, #4]
 751              		.loc 1 233 0
 752 0004 019B     		ldr	r3, [sp, #4]
 753 0006 DB6A     		ldr	r3, [r3, #44]
 754 0008 1B68     		ldr	r3, [r3, #0]
 755 000a 019A     		ldr	r2, [sp, #4]
 756 000c D26A     		ldr	r2, [r2, #44]
 757 000e 1268     		ldr	r2, [r2, #0]
 758 0010 1268     		ldr	r2, [r2, #0]
 759 0012 22F00102 		bic	r2, r2, #1
 760 0016 1A60     		str	r2, [r3, #0]
 761 0018 019B     		ldr	r3, [sp, #4]
 762 001a DB6A     		ldr	r3, [r3, #44]
 763 001c 5B68     		ldr	r3, [r3, #4]
 764 001e 019A     		ldr	r2, [sp, #4]
 765 0020 D26A     		ldr	r2, [r2, #44]
 766 0022 127A     		ldrb	r2, [r2, #8]	@ zero_extendqisi2
 767 0024 4FF00F01 		mov	r1, #15
 768 0028 01FA02F2 		lsl	r2, r1, r2
 769 002c 1A60     		str	r2, [r3, #0]
 770              		.loc 1 234 0
 771 002e 019B     		ldr	r3, [sp, #4]
 772 0030 9B6A     		ldr	r3, [r3, #40]
 773 0032 4FF00002 		mov	r2, #0
 774 0036 9A60     		str	r2, [r3, #8]
 775              		.loc 1 235 0
 776 0038 02B0     		add	sp, sp, #8
 777 003a 7047     		bx	lr
 778              		.cfi_endproc
 779              	.LFE67:
 780              		.size	adc_lld_stop_conversion, .-adc_lld_stop_conversion
ARM GAS  C:\Users\z80\AppData\Local\Temp\ccosK0bj.s 			page 15


 781 003c AFF30080 		.text
 782              	.Letext0:
 783              		.section	.debug_loc,"",%progbits
 784              	.Ldebug_loc0:
 785              	.LLST0:
 786 0000 00000000 		.4byte	.LFB62
 787 0004 02000000 		.4byte	.LCFI0
 788 0008 0200     		.2byte	0x2
 789 000a 7D       		.byte	0x7d
 790 000b 00       		.sleb128 0
 791 000c 02000000 		.4byte	.LCFI0
 792 0010 04000000 		.4byte	.LCFI1
 793 0014 0200     		.2byte	0x2
 794 0016 7D       		.byte	0x7d
 795 0017 04       		.sleb128 4
 796 0018 04000000 		.4byte	.LCFI1
 797 001c F2010000 		.4byte	.LFE62
 798 0020 0200     		.2byte	0x2
 799 0022 7D       		.byte	0x7d
 800 0023 28       		.sleb128 40
 801 0024 00000000 		.4byte	0x0
 802 0028 00000000 		.4byte	0x0
 803              	.LLST1:
 804 002c 00000000 		.4byte	.LFB63
 805 0030 02000000 		.4byte	.LCFI2
 806 0034 0200     		.2byte	0x2
 807 0036 7D       		.byte	0x7d
 808 0037 00       		.sleb128 0
 809 0038 02000000 		.4byte	.LCFI2
 810 003c E0000000 		.4byte	.LFE63
 811 0040 0200     		.2byte	0x2
 812 0042 7D       		.byte	0x7d
 813 0043 08       		.sleb128 8
 814 0044 00000000 		.4byte	0x0
 815 0048 00000000 		.4byte	0x0
 816              	.LLST2:
 817 004c 00000000 		.4byte	.LFB64
 818 0050 02000000 		.4byte	.LCFI3
 819 0054 0200     		.2byte	0x2
 820 0056 7D       		.byte	0x7d
 821 0057 00       		.sleb128 0
 822 0058 02000000 		.4byte	.LCFI3
 823 005c 04000000 		.4byte	.LCFI4
 824 0060 0200     		.2byte	0x2
 825 0062 7D       		.byte	0x7d
 826 0063 04       		.sleb128 4
 827 0064 04000000 		.4byte	.LCFI4
 828 0068 8C000000 		.4byte	.LFE64
 829 006c 0200     		.2byte	0x2
 830 006e 7D       		.byte	0x7d
 831 006f 18       		.sleb128 24
 832 0070 00000000 		.4byte	0x0
 833 0074 00000000 		.4byte	0x0
 834              	.LLST3:
 835 0078 00000000 		.4byte	.LFB65
 836 007c 02000000 		.4byte	.LCFI5
 837 0080 0200     		.2byte	0x2
ARM GAS  C:\Users\z80\AppData\Local\Temp\ccosK0bj.s 			page 16


 838 0082 7D       		.byte	0x7d
 839 0083 00       		.sleb128 0
 840 0084 02000000 		.4byte	.LCFI5
 841 0088 04000000 		.4byte	.LCFI6
 842 008c 0200     		.2byte	0x2
 843 008e 7D       		.byte	0x7d
 844 008f 04       		.sleb128 4
 845 0090 04000000 		.4byte	.LCFI6
 846 0094 5E000000 		.4byte	.LFE65
 847 0098 0200     		.2byte	0x2
 848 009a 7D       		.byte	0x7d
 849 009b 10       		.sleb128 16
 850 009c 00000000 		.4byte	0x0
 851 00a0 00000000 		.4byte	0x0
 852              	.LLST4:
 853 00a4 00000000 		.4byte	.LFB66
 854 00a8 02000000 		.4byte	.LCFI7
 855 00ac 0200     		.2byte	0x2
 856 00ae 7D       		.byte	0x7d
 857 00af 00       		.sleb128 0
 858 00b0 02000000 		.4byte	.LCFI7
 859 00b4 E2000000 		.4byte	.LFE66
 860 00b8 0200     		.2byte	0x2
 861 00ba 7D       		.byte	0x7d
 862 00bb 18       		.sleb128 24
 863 00bc 00000000 		.4byte	0x0
 864 00c0 00000000 		.4byte	0x0
 865              	.LLST5:
 866 00c4 00000000 		.4byte	.LFB67
 867 00c8 02000000 		.4byte	.LCFI8
 868 00cc 0200     		.2byte	0x2
 869 00ce 7D       		.byte	0x7d
 870 00cf 00       		.sleb128 0
 871 00d0 02000000 		.4byte	.LCFI8
 872 00d4 3C000000 		.4byte	.LFE67
 873 00d8 0200     		.2byte	0x2
 874 00da 7D       		.byte	0x7d
 875 00db 08       		.sleb128 8
 876 00dc 00000000 		.4byte	0x0
 877 00e0 00000000 		.4byte	0x0
 878              		.file 2 "c:\\programs\\yagarto\\bin\\../lib/gcc/arm-none-eabi/4.5.0/include/stddef.h"
 879              		.file 3 "c:/programs/yagarto/lib/gcc/../../arm-none-eabi/sys-include/stdint.h"
 880              		.file 4 "../chibios_2.4.x/os/ports/GCC/ARMCMx/chtypes.h"
 881              		.file 5 "../chibios_2.4.x/os/kernel/include/chlists.h"
 882              		.file 6 "../chibios_2.4.x/os/kernel/include/chthreads.h"
 883              		.file 7 "../chibios_2.4.x/os/ports/GCC/ARMCMx/chcore_v7m.h"
 884              		.file 8 "../chibios_2.4.x/os/kernel/include/chmtx.h"
 885              		.file 9 "../chibios_2.4.x/os/hal/platforms/STM32F1xx/stm32f10x.h"
 886              		.file 10 "../chibios_2.4.x/os/hal/platforms/STM32F1xx/stm32_dma.h"
 887              		.file 11 "../chibios_2.4.x/os/hal/include/adc.h"
 888              		.file 12 "../chibios_2.4.x/os/hal/platforms/STM32F1xx/adc_lld.h"
 889              		.file 13 "../chibios_2.4.x/os/ports/common/ARMCMx/CMSIS/include/core_cm3.h"
 890              		.section	.debug_info
 891 0000 930B0000 		.4byte	0xb93
 892 0004 0200     		.2byte	0x2
 893 0006 00000000 		.4byte	.Ldebug_abbrev0
 894 000a 04       		.byte	0x4
ARM GAS  C:\Users\z80\AppData\Local\Temp\ccosK0bj.s 			page 17


 895 000b 01       		.uleb128 0x1
 896 000c 11050000 		.4byte	.LASF136
 897 0010 01       		.byte	0x1
 898 0011 BE020000 		.4byte	.LASF137
 899 0015 34030000 		.4byte	.LASF138
 900 0019 00000000 		.4byte	0x0
 901 001d 00000000 		.4byte	0x0
 902 0021 00000000 		.4byte	.Ldebug_ranges0+0x0
 903 0025 00000000 		.4byte	.Ldebug_line0
 904 0029 02       		.uleb128 0x2
 905 002a 04       		.byte	0x4
 906 002b 05       		.byte	0x5
 907 002c 696E7400 		.ascii	"int\000"
 908 0030 03       		.uleb128 0x3
 909 0031 00000000 		.4byte	.LASF2
 910 0035 02       		.byte	0x2
 911 0036 D3       		.byte	0xd3
 912 0037 3B000000 		.4byte	0x3b
 913 003b 04       		.uleb128 0x4
 914 003c 04       		.byte	0x4
 915 003d 07       		.byte	0x7
 916 003e BA010000 		.4byte	.LASF0
 917 0042 04       		.uleb128 0x4
 918 0043 01       		.byte	0x1
 919 0044 06       		.byte	0x6
 920 0045 9A000000 		.4byte	.LASF1
 921 0049 03       		.uleb128 0x3
 922 004a DC040000 		.4byte	.LASF3
 923 004e 03       		.byte	0x3
 924 004f 2A       		.byte	0x2a
 925 0050 54000000 		.4byte	0x54
 926 0054 04       		.uleb128 0x4
 927 0055 01       		.byte	0x1
 928 0056 08       		.byte	0x8
 929 0057 A7030000 		.4byte	.LASF4
 930 005b 04       		.uleb128 0x4
 931 005c 02       		.byte	0x2
 932 005d 05       		.byte	0x5
 933 005e 79020000 		.4byte	.LASF5
 934 0062 03       		.uleb128 0x3
 935 0063 36010000 		.4byte	.LASF6
 936 0067 03       		.byte	0x3
 937 0068 36       		.byte	0x36
 938 0069 6D000000 		.4byte	0x6d
 939 006d 04       		.uleb128 0x4
 940 006e 02       		.byte	0x2
 941 006f 07       		.byte	0x7
 942 0070 23020000 		.4byte	.LASF7
 943 0074 03       		.uleb128 0x3
 944 0075 9F030000 		.4byte	.LASF8
 945 0079 03       		.byte	0x3
 946 007a 4F       		.byte	0x4f
 947 007b 7F000000 		.4byte	0x7f
 948 007f 04       		.uleb128 0x4
 949 0080 04       		.byte	0x4
 950 0081 05       		.byte	0x5
 951 0082 DE000000 		.4byte	.LASF9
ARM GAS  C:\Users\z80\AppData\Local\Temp\ccosK0bj.s 			page 18


 952 0086 03       		.uleb128 0x3
 953 0087 36040000 		.4byte	.LASF10
 954 008b 03       		.byte	0x3
 955 008c 50       		.byte	0x50
 956 008d 91000000 		.4byte	0x91
 957 0091 04       		.uleb128 0x4
 958 0092 04       		.byte	0x4
 959 0093 07       		.byte	0x7
 960 0094 55040000 		.4byte	.LASF11
 961 0098 04       		.uleb128 0x4
 962 0099 08       		.byte	0x8
 963 009a 05       		.byte	0x5
 964 009b 8C000000 		.4byte	.LASF12
 965 009f 03       		.uleb128 0x3
 966 00a0 0A030000 		.4byte	.LASF13
 967 00a4 03       		.byte	0x3
 968 00a5 78       		.byte	0x78
 969 00a6 AA000000 		.4byte	0xaa
 970 00aa 04       		.uleb128 0x4
 971 00ab 08       		.byte	0x8
 972 00ac 07       		.byte	0x7
 973 00ad 35000000 		.4byte	.LASF14
 974 00b1 03       		.uleb128 0x3
 975 00b2 AE000000 		.4byte	.LASF15
 976 00b6 04       		.byte	0x4
 977 00b7 2E       		.byte	0x2e
 978 00b8 74000000 		.4byte	0x74
 979 00bc 03       		.uleb128 0x3
 980 00bd 4C020000 		.4byte	.LASF16
 981 00c1 04       		.byte	0x4
 982 00c2 2F       		.byte	0x2f
 983 00c3 49000000 		.4byte	0x49
 984 00c7 03       		.uleb128 0x3
 985 00c8 26010000 		.4byte	.LASF17
 986 00cc 04       		.byte	0x4
 987 00cd 30       		.byte	0x30
 988 00ce 49000000 		.4byte	0x49
 989 00d2 03       		.uleb128 0x3
 990 00d3 91030000 		.4byte	.LASF18
 991 00d7 04       		.byte	0x4
 992 00d8 32       		.byte	0x32
 993 00d9 86000000 		.4byte	0x86
 994 00dd 03       		.uleb128 0x3
 995 00de 46020000 		.4byte	.LASF19
 996 00e2 04       		.byte	0x4
 997 00e3 33       		.byte	0x33
 998 00e4 74000000 		.4byte	0x74
 999 00e8 03       		.uleb128 0x3
 1000 00e9 6D020000 		.4byte	.LASF20
 1001 00ed 04       		.byte	0x4
 1002 00ee 35       		.byte	0x35
 1003 00ef 86000000 		.4byte	0x86
 1004 00f3 03       		.uleb128 0x3
 1005 00f4 8D040000 		.4byte	.LASF21
 1006 00f8 04       		.byte	0x4
 1007 00f9 36       		.byte	0x36
 1008 00fa 86000000 		.4byte	0x86
ARM GAS  C:\Users\z80\AppData\Local\Temp\ccosK0bj.s 			page 19


 1009 00fe 03       		.uleb128 0x3
 1010 00ff 94010000 		.4byte	.LASF22
 1011 0103 05       		.byte	0x5
 1012 0104 2A       		.byte	0x2a
 1013 0105 09010000 		.4byte	0x109
 1014 0109 05       		.uleb128 0x5
 1015 010a 94010000 		.4byte	.LASF22
 1016 010e 48       		.byte	0x48
 1017 010f 06       		.byte	0x6
 1018 0110 5E       		.byte	0x5e
 1019 0111 12020000 		.4byte	0x212
 1020 0115 06       		.uleb128 0x6
 1021 0116 FA020000 		.4byte	.LASF23
 1022 011a 06       		.byte	0x6
 1023 011b 5F       		.byte	0x5f
 1024 011c 37020000 		.4byte	0x237
 1025 0120 02       		.byte	0x2
 1026 0121 23       		.byte	0x23
 1027 0122 00       		.uleb128 0x0
 1028 0123 06       		.uleb128 0x6
 1029 0124 77030000 		.4byte	.LASF24
 1030 0128 06       		.byte	0x6
 1031 0129 61       		.byte	0x61
 1032 012a 37020000 		.4byte	0x237
 1033 012e 02       		.byte	0x2
 1034 012f 23       		.byte	0x23
 1035 0130 04       		.uleb128 0x4
 1036 0131 06       		.uleb128 0x6
 1037 0132 80000000 		.4byte	.LASF25
 1038 0136 06       		.byte	0x6
 1039 0137 63       		.byte	0x63
 1040 0138 D2000000 		.4byte	0xd2
 1041 013c 02       		.byte	0x2
 1042 013d 23       		.byte	0x23
 1043 013e 08       		.uleb128 0x8
 1044 013f 06       		.uleb128 0x6
 1045 0140 69050000 		.4byte	.LASF26
 1046 0144 06       		.byte	0x6
 1047 0145 64       		.byte	0x64
 1048 0146 0F030000 		.4byte	0x30f
 1049 014a 02       		.byte	0x2
 1050 014b 23       		.byte	0x23
 1051 014c 0C       		.uleb128 0xc
 1052 014d 06       		.uleb128 0x6
 1053 014e 52010000 		.4byte	.LASF27
 1054 0152 06       		.byte	0x6
 1055 0153 66       		.byte	0x66
 1056 0154 37020000 		.4byte	0x237
 1057 0158 02       		.byte	0x2
 1058 0159 23       		.byte	0x23
 1059 015a 10       		.uleb128 0x10
 1060 015b 06       		.uleb128 0x6
 1061 015c 13030000 		.4byte	.LASF28
 1062 0160 06       		.byte	0x6
 1063 0161 67       		.byte	0x67
 1064 0162 37020000 		.4byte	0x237
 1065 0166 02       		.byte	0x2
ARM GAS  C:\Users\z80\AppData\Local\Temp\ccosK0bj.s 			page 20


 1066 0167 23       		.byte	0x23
 1067 0168 14       		.uleb128 0x14
 1068 0169 06       		.uleb128 0x6
 1069 016a 31050000 		.4byte	.LASF29
 1070 016e 06       		.byte	0x6
 1071 016f 6E       		.byte	0x6e
 1072 0170 BC030000 		.4byte	0x3bc
 1073 0174 02       		.byte	0x2
 1074 0175 23       		.byte	0x23
 1075 0176 18       		.uleb128 0x18
 1076 0177 06       		.uleb128 0x6
 1077 0178 AF010000 		.4byte	.LASF30
 1078 017c 06       		.byte	0x6
 1079 017d 74       		.byte	0x74
 1080 017e CE030000 		.4byte	0x3ce
 1081 0182 02       		.byte	0x2
 1082 0183 23       		.byte	0x23
 1083 0184 1C       		.uleb128 0x1c
 1084 0185 06       		.uleb128 0x6
 1085 0186 A6000000 		.4byte	.LASF31
 1086 018a 06       		.byte	0x6
 1087 018b 79       		.byte	0x79
 1088 018c C7000000 		.4byte	0xc7
 1089 0190 02       		.byte	0x2
 1090 0191 23       		.byte	0x23
 1091 0192 20       		.uleb128 0x20
 1092 0193 06       		.uleb128 0x6
 1093 0194 02040000 		.4byte	.LASF32
 1094 0198 06       		.byte	0x6
 1095 0199 7D       		.byte	0x7d
 1096 019a BC000000 		.4byte	0xbc
 1097 019e 02       		.byte	0x2
 1098 019f 23       		.byte	0x23
 1099 01a0 21       		.uleb128 0x21
 1100 01a1 06       		.uleb128 0x6
 1101 01a2 3F010000 		.4byte	.LASF33
 1102 01a6 06       		.byte	0x6
 1103 01a7 89       		.byte	0x89
 1104 01a8 3A030000 		.4byte	0x33a
 1105 01ac 02       		.byte	0x2
 1106 01ad 23       		.byte	0x23
 1107 01ae 24       		.uleb128 0x24
 1108 01af 07       		.uleb128 0x7
 1109 01b0 705F7500 		.ascii	"p_u\000"
 1110 01b4 06       		.byte	0x6
 1111 01b5 AE       		.byte	0xae
 1112 01b6 87030000 		.4byte	0x387
 1113 01ba 02       		.byte	0x2
 1114 01bb 23       		.byte	0x23
 1115 01bc 28       		.uleb128 0x28
 1116 01bd 06       		.uleb128 0x6
 1117 01be 6F050000 		.4byte	.LASF34
 1118 01c2 06       		.byte	0x6
 1119 01c3 B3       		.byte	0xb3
 1120 01c4 5F020000 		.4byte	0x25f
 1121 01c8 02       		.byte	0x2
 1122 01c9 23       		.byte	0x23
ARM GAS  C:\Users\z80\AppData\Local\Temp\ccosK0bj.s 			page 21


 1123 01ca 2C       		.uleb128 0x2c
 1124 01cb 06       		.uleb128 0x6
 1125 01cc E2010000 		.4byte	.LASF35
 1126 01d0 06       		.byte	0x6
 1127 01d1 B9       		.byte	0xb9
 1128 01d2 3D020000 		.4byte	0x23d
 1129 01d6 02       		.byte	0x2
 1130 01d7 23       		.byte	0x23
 1131 01d8 30       		.uleb128 0x30
 1132 01d9 06       		.uleb128 0x6
 1133 01da 50050000 		.4byte	.LASF36
 1134 01de 06       		.byte	0x6
 1135 01df BD       		.byte	0xbd
 1136 01e0 DD000000 		.4byte	0xdd
 1137 01e4 02       		.byte	0x2
 1138 01e5 23       		.byte	0x23
 1139 01e6 38       		.uleb128 0x38
 1140 01e7 06       		.uleb128 0x6
 1141 01e8 26040000 		.4byte	.LASF37
 1142 01ec 06       		.byte	0x6
 1143 01ed C3       		.byte	0xc3
 1144 01ee E8000000 		.4byte	0xe8
 1145 01f2 02       		.byte	0x2
 1146 01f3 23       		.byte	0x23
 1147 01f4 3C       		.uleb128 0x3c
 1148 01f5 06       		.uleb128 0x6
 1149 01f6 D0030000 		.4byte	.LASF38
 1150 01fa 06       		.byte	0x6
 1151 01fb CA       		.byte	0xca
 1152 01fc D4030000 		.4byte	0x3d4
 1153 0200 02       		.byte	0x2
 1154 0201 23       		.byte	0x23
 1155 0202 40       		.uleb128 0x40
 1156 0203 06       		.uleb128 0x6
 1157 0204 97040000 		.4byte	.LASF39
 1158 0208 06       		.byte	0x6
 1159 0209 CE       		.byte	0xce
 1160 020a D2000000 		.4byte	0xd2
 1161 020e 02       		.byte	0x2
 1162 020f 23       		.byte	0x23
 1163 0210 44       		.uleb128 0x44
 1164 0211 00       		.byte	0x0
 1165 0212 08       		.uleb128 0x8
 1166 0213 08       		.byte	0x8
 1167 0214 05       		.byte	0x5
 1168 0215 61       		.byte	0x61
 1169 0216 37020000 		.4byte	0x237
 1170 021a 06       		.uleb128 0x6
 1171 021b FA020000 		.4byte	.LASF23
 1172 021f 05       		.byte	0x5
 1173 0220 62       		.byte	0x62
 1174 0221 37020000 		.4byte	0x237
 1175 0225 02       		.byte	0x2
 1176 0226 23       		.byte	0x23
 1177 0227 00       		.uleb128 0x0
 1178 0228 06       		.uleb128 0x6
 1179 0229 77030000 		.4byte	.LASF24
ARM GAS  C:\Users\z80\AppData\Local\Temp\ccosK0bj.s 			page 22


 1180 022d 05       		.byte	0x5
 1181 022e 64       		.byte	0x64
 1182 022f 37020000 		.4byte	0x237
 1183 0233 02       		.byte	0x2
 1184 0234 23       		.byte	0x23
 1185 0235 04       		.uleb128 0x4
 1186 0236 00       		.byte	0x0
 1187 0237 09       		.uleb128 0x9
 1188 0238 04       		.byte	0x4
 1189 0239 FE000000 		.4byte	0xfe
 1190 023d 03       		.uleb128 0x3
 1191 023e 1B030000 		.4byte	.LASF40
 1192 0242 05       		.byte	0x5
 1193 0243 66       		.byte	0x66
 1194 0244 12020000 		.4byte	0x212
 1195 0248 08       		.uleb128 0x8
 1196 0249 04       		.byte	0x4
 1197 024a 05       		.byte	0x5
 1198 024b 6B       		.byte	0x6b
 1199 024c 5F020000 		.4byte	0x25f
 1200 0250 06       		.uleb128 0x6
 1201 0251 FA020000 		.4byte	.LASF23
 1202 0255 05       		.byte	0x5
 1203 0256 6D       		.byte	0x6d
 1204 0257 37020000 		.4byte	0x237
 1205 025b 02       		.byte	0x2
 1206 025c 23       		.byte	0x23
 1207 025d 00       		.uleb128 0x0
 1208 025e 00       		.byte	0x0
 1209 025f 03       		.uleb128 0x3
 1210 0260 61020000 		.4byte	.LASF41
 1211 0264 05       		.byte	0x5
 1212 0265 70       		.byte	0x70
 1213 0266 48020000 		.4byte	0x248
 1214 026a 03       		.uleb128 0x3
 1215 026b 7B010000 		.4byte	.LASF42
 1216 026f 07       		.byte	0x7
 1217 0270 D7       		.byte	0xd7
 1218 0271 75020000 		.4byte	0x275
 1219 0275 0A       		.uleb128 0xa
 1220 0276 04       		.byte	0x4
 1221 0277 03       		.uleb128 0x3
 1222 0278 8D020000 		.4byte	.LASF43
 1223 027c 07       		.byte	0x7
 1224 027d DD       		.byte	0xdd
 1225 027e 9F000000 		.4byte	0x9f
 1226 0282 05       		.uleb128 0x5
 1227 0283 B2040000 		.4byte	.LASF44
 1228 0287 24       		.byte	0x24
 1229 0288 07       		.byte	0x7
 1230 0289 FE       		.byte	0xfe
 1231 028a 0F030000 		.4byte	0x30f
 1232 028e 0B       		.uleb128 0xb
 1233 028f 723400   		.ascii	"r4\000"
 1234 0292 07       		.byte	0x7
 1235 0293 1101     		.2byte	0x111
 1236 0295 6A020000 		.4byte	0x26a
ARM GAS  C:\Users\z80\AppData\Local\Temp\ccosK0bj.s 			page 23


 1237 0299 02       		.byte	0x2
 1238 029a 23       		.byte	0x23
 1239 029b 00       		.uleb128 0x0
 1240 029c 0B       		.uleb128 0xb
 1241 029d 723500   		.ascii	"r5\000"
 1242 02a0 07       		.byte	0x7
 1243 02a1 1201     		.2byte	0x112
 1244 02a3 6A020000 		.4byte	0x26a
 1245 02a7 02       		.byte	0x2
 1246 02a8 23       		.byte	0x23
 1247 02a9 04       		.uleb128 0x4
 1248 02aa 0B       		.uleb128 0xb
 1249 02ab 723600   		.ascii	"r6\000"
 1250 02ae 07       		.byte	0x7
 1251 02af 1301     		.2byte	0x113
 1252 02b1 6A020000 		.4byte	0x26a
 1253 02b5 02       		.byte	0x2
 1254 02b6 23       		.byte	0x23
 1255 02b7 08       		.uleb128 0x8
 1256 02b8 0B       		.uleb128 0xb
 1257 02b9 723700   		.ascii	"r7\000"
 1258 02bc 07       		.byte	0x7
 1259 02bd 1401     		.2byte	0x114
 1260 02bf 6A020000 		.4byte	0x26a
 1261 02c3 02       		.byte	0x2
 1262 02c4 23       		.byte	0x23
 1263 02c5 0C       		.uleb128 0xc
 1264 02c6 0B       		.uleb128 0xb
 1265 02c7 723800   		.ascii	"r8\000"
 1266 02ca 07       		.byte	0x7
 1267 02cb 1501     		.2byte	0x115
 1268 02cd 6A020000 		.4byte	0x26a
 1269 02d1 02       		.byte	0x2
 1270 02d2 23       		.byte	0x23
 1271 02d3 10       		.uleb128 0x10
 1272 02d4 0B       		.uleb128 0xb
 1273 02d5 723900   		.ascii	"r9\000"
 1274 02d8 07       		.byte	0x7
 1275 02d9 1601     		.2byte	0x116
 1276 02db 6A020000 		.4byte	0x26a
 1277 02df 02       		.byte	0x2
 1278 02e0 23       		.byte	0x23
 1279 02e1 14       		.uleb128 0x14
 1280 02e2 0B       		.uleb128 0xb
 1281 02e3 72313000 		.ascii	"r10\000"
 1282 02e7 07       		.byte	0x7
 1283 02e8 1701     		.2byte	0x117
 1284 02ea 6A020000 		.4byte	0x26a
 1285 02ee 02       		.byte	0x2
 1286 02ef 23       		.byte	0x23
 1287 02f0 18       		.uleb128 0x18
 1288 02f1 0B       		.uleb128 0xb
 1289 02f2 72313100 		.ascii	"r11\000"
 1290 02f6 07       		.byte	0x7
 1291 02f7 1801     		.2byte	0x118
 1292 02f9 6A020000 		.4byte	0x26a
 1293 02fd 02       		.byte	0x2
ARM GAS  C:\Users\z80\AppData\Local\Temp\ccosK0bj.s 			page 24


 1294 02fe 23       		.byte	0x23
 1295 02ff 1C       		.uleb128 0x1c
 1296 0300 0B       		.uleb128 0xb
 1297 0301 6C7200   		.ascii	"lr\000"
 1298 0304 07       		.byte	0x7
 1299 0305 1901     		.2byte	0x119
 1300 0307 6A020000 		.4byte	0x26a
 1301 030b 02       		.byte	0x2
 1302 030c 23       		.byte	0x23
 1303 030d 20       		.uleb128 0x20
 1304 030e 00       		.byte	0x0
 1305 030f 0C       		.uleb128 0xc
 1306 0310 AA040000 		.4byte	.LASF45
 1307 0314 04       		.byte	0x4
 1308 0315 07       		.byte	0x7
 1309 0316 2301     		.2byte	0x123
 1310 0318 2C030000 		.4byte	0x32c
 1311 031c 0B       		.uleb128 0xb
 1312 031d 72313300 		.ascii	"r13\000"
 1313 0321 07       		.byte	0x7
 1314 0322 2401     		.2byte	0x124
 1315 0324 2C030000 		.4byte	0x32c
 1316 0328 02       		.byte	0x2
 1317 0329 23       		.byte	0x23
 1318 032a 00       		.uleb128 0x0
 1319 032b 00       		.byte	0x0
 1320 032c 09       		.uleb128 0x9
 1321 032d 04       		.byte	0x4
 1322 032e 82020000 		.4byte	0x282
 1323 0332 0D       		.uleb128 0xd
 1324 0333 86000000 		.4byte	0x86
 1325 0337 0E       		.uleb128 0xe
 1326 0338 04       		.byte	0x4
 1327 0339 07       		.byte	0x7
 1328 033a 0D       		.uleb128 0xd
 1329 033b F3000000 		.4byte	0xf3
 1330 033f 05       		.uleb128 0x5
 1331 0340 F4020000 		.4byte	.LASF46
 1332 0344 10       		.byte	0x10
 1333 0345 08       		.byte	0x8
 1334 0346 2C       		.byte	0x2c
 1335 0347 76030000 		.4byte	0x376
 1336 034b 06       		.uleb128 0x6
 1337 034c B5000000 		.4byte	.LASF47
 1338 0350 08       		.byte	0x8
 1339 0351 2D       		.byte	0x2d
 1340 0352 3D020000 		.4byte	0x23d
 1341 0356 02       		.byte	0x2
 1342 0357 23       		.byte	0x23
 1343 0358 00       		.uleb128 0x0
 1344 0359 06       		.uleb128 0x6
 1345 035a 56050000 		.4byte	.LASF48
 1346 035e 08       		.byte	0x8
 1347 035f 2F       		.byte	0x2f
 1348 0360 37020000 		.4byte	0x237
 1349 0364 02       		.byte	0x2
 1350 0365 23       		.byte	0x23
ARM GAS  C:\Users\z80\AppData\Local\Temp\ccosK0bj.s 			page 25


 1351 0366 08       		.uleb128 0x8
 1352 0367 06       		.uleb128 0x6
 1353 0368 C7010000 		.4byte	.LASF49
 1354 036c 08       		.byte	0x8
 1355 036d 31       		.byte	0x31
 1356 036e 76030000 		.4byte	0x376
 1357 0372 02       		.byte	0x2
 1358 0373 23       		.byte	0x23
 1359 0374 0C       		.uleb128 0xc
 1360 0375 00       		.byte	0x0
 1361 0376 09       		.uleb128 0x9
 1362 0377 04       		.byte	0x4
 1363 0378 3F030000 		.4byte	0x33f
 1364 037c 03       		.uleb128 0x3
 1365 037d F4020000 		.4byte	.LASF46
 1366 0381 08       		.byte	0x8
 1367 0382 33       		.byte	0x33
 1368 0383 3F030000 		.4byte	0x33f
 1369 0387 0F       		.uleb128 0xf
 1370 0388 04       		.byte	0x4
 1371 0389 06       		.byte	0x6
 1372 038a 90       		.byte	0x90
 1373 038b BC030000 		.4byte	0x3bc
 1374 038f 10       		.uleb128 0x10
 1375 0390 07000000 		.4byte	.LASF50
 1376 0394 06       		.byte	0x6
 1377 0395 97       		.byte	0x97
 1378 0396 DD000000 		.4byte	0xdd
 1379 039a 10       		.uleb128 0x10
 1380 039b 4C000000 		.4byte	.LASF51
 1381 039f 06       		.byte	0x6
 1382 03a0 9E       		.byte	0x9e
 1383 03a1 DD000000 		.4byte	0xdd
 1384 03a5 10       		.uleb128 0x10
 1385 03a6 1D050000 		.4byte	.LASF52
 1386 03aa 06       		.byte	0x6
 1387 03ab A5       		.byte	0xa5
 1388 03ac 75020000 		.4byte	0x275
 1389 03b0 10       		.uleb128 0x10
 1390 03b1 FB030000 		.4byte	.LASF53
 1391 03b5 06       		.byte	0x6
 1392 03b6 AC       		.byte	0xac
 1393 03b7 E8000000 		.4byte	0xe8
 1394 03bb 00       		.byte	0x0
 1395 03bc 09       		.uleb128 0x9
 1396 03bd 04       		.byte	0x4
 1397 03be C2030000 		.4byte	0x3c2
 1398 03c2 11       		.uleb128 0x11
 1399 03c3 C7030000 		.4byte	0x3c7
 1400 03c7 04       		.uleb128 0x4
 1401 03c8 01       		.byte	0x1
 1402 03c9 08       		.byte	0x8
 1403 03ca 6D040000 		.4byte	.LASF54
 1404 03ce 09       		.uleb128 0x9
 1405 03cf 04       		.byte	0x4
 1406 03d0 77020000 		.4byte	0x277
 1407 03d4 09       		.uleb128 0x9
ARM GAS  C:\Users\z80\AppData\Local\Temp\ccosK0bj.s 			page 26


 1408 03d5 04       		.byte	0x4
 1409 03d6 7C030000 		.4byte	0x37c
 1410 03da 0D       		.uleb128 0xd
 1411 03db 74000000 		.4byte	0x74
 1412 03df 12       		.uleb128 0x12
 1413 03e0 50       		.byte	0x50
 1414 03e1 09       		.byte	0x9
 1415 03e2 2D02     		.2byte	0x22d
 1416 03e4 13050000 		.4byte	0x513
 1417 03e8 0B       		.uleb128 0xb
 1418 03e9 535200   		.ascii	"SR\000"
 1419 03ec 09       		.byte	0x9
 1420 03ed 2F02     		.2byte	0x22f
 1421 03ef 32030000 		.4byte	0x332
 1422 03f3 02       		.byte	0x2
 1423 03f4 23       		.byte	0x23
 1424 03f5 00       		.uleb128 0x0
 1425 03f6 0B       		.uleb128 0xb
 1426 03f7 43523100 		.ascii	"CR1\000"
 1427 03fb 09       		.byte	0x9
 1428 03fc 3002     		.2byte	0x230
 1429 03fe 32030000 		.4byte	0x332
 1430 0402 02       		.byte	0x2
 1431 0403 23       		.byte	0x23
 1432 0404 04       		.uleb128 0x4
 1433 0405 0B       		.uleb128 0xb
 1434 0406 43523200 		.ascii	"CR2\000"
 1435 040a 09       		.byte	0x9
 1436 040b 3102     		.2byte	0x231
 1437 040d 32030000 		.4byte	0x332
 1438 0411 02       		.byte	0x2
 1439 0412 23       		.byte	0x23
 1440 0413 08       		.uleb128 0x8
 1441 0414 13       		.uleb128 0x13
 1442 0415 28030000 		.4byte	.LASF55
 1443 0419 09       		.byte	0x9
 1444 041a 3202     		.2byte	0x232
 1445 041c 32030000 		.4byte	0x332
 1446 0420 02       		.byte	0x2
 1447 0421 23       		.byte	0x23
 1448 0422 0C       		.uleb128 0xc
 1449 0423 13       		.uleb128 0x13
 1450 0424 2E030000 		.4byte	.LASF56
 1451 0428 09       		.byte	0x9
 1452 0429 3302     		.2byte	0x233
 1453 042b 32030000 		.4byte	0x332
 1454 042f 02       		.byte	0x2
 1455 0430 23       		.byte	0x23
 1456 0431 10       		.uleb128 0x10
 1457 0432 13       		.uleb128 0x13
 1458 0433 9D020000 		.4byte	.LASF57
 1459 0437 09       		.byte	0x9
 1460 0438 3402     		.2byte	0x234
 1461 043a 32030000 		.4byte	0x332
 1462 043e 02       		.byte	0x2
 1463 043f 23       		.byte	0x23
 1464 0440 14       		.uleb128 0x14
ARM GAS  C:\Users\z80\AppData\Local\Temp\ccosK0bj.s 			page 27


 1465 0441 13       		.uleb128 0x13
 1466 0442 A3020000 		.4byte	.LASF58
 1467 0446 09       		.byte	0x9
 1468 0447 3502     		.2byte	0x235
 1469 0449 32030000 		.4byte	0x332
 1470 044d 02       		.byte	0x2
 1471 044e 23       		.byte	0x23
 1472 044f 18       		.uleb128 0x18
 1473 0450 13       		.uleb128 0x13
 1474 0451 0A040000 		.4byte	.LASF59
 1475 0455 09       		.byte	0x9
 1476 0456 3602     		.2byte	0x236
 1477 0458 32030000 		.4byte	0x332
 1478 045c 02       		.byte	0x2
 1479 045d 23       		.byte	0x23
 1480 045e 1C       		.uleb128 0x1c
 1481 045f 13       		.uleb128 0x13
 1482 0460 10040000 		.4byte	.LASF60
 1483 0464 09       		.byte	0x9
 1484 0465 3702     		.2byte	0x237
 1485 0467 32030000 		.4byte	0x332
 1486 046b 02       		.byte	0x2
 1487 046c 23       		.byte	0x23
 1488 046d 20       		.uleb128 0x20
 1489 046e 0B       		.uleb128 0xb
 1490 046f 48545200 		.ascii	"HTR\000"
 1491 0473 09       		.byte	0x9
 1492 0474 3802     		.2byte	0x238
 1493 0476 32030000 		.4byte	0x332
 1494 047a 02       		.byte	0x2
 1495 047b 23       		.byte	0x23
 1496 047c 24       		.uleb128 0x24
 1497 047d 0B       		.uleb128 0xb
 1498 047e 4C545200 		.ascii	"LTR\000"
 1499 0482 09       		.byte	0x9
 1500 0483 3902     		.2byte	0x239
 1501 0485 32030000 		.4byte	0x332
 1502 0489 02       		.byte	0x2
 1503 048a 23       		.byte	0x23
 1504 048b 28       		.uleb128 0x28
 1505 048c 13       		.uleb128 0x13
 1506 048d 68030000 		.4byte	.LASF61
 1507 0491 09       		.byte	0x9
 1508 0492 3A02     		.2byte	0x23a
 1509 0494 32030000 		.4byte	0x332
 1510 0498 02       		.byte	0x2
 1511 0499 23       		.byte	0x23
 1512 049a 2C       		.uleb128 0x2c
 1513 049b 13       		.uleb128 0x13
 1514 049c 6D030000 		.4byte	.LASF62
 1515 04a0 09       		.byte	0x9
 1516 04a1 3B02     		.2byte	0x23b
 1517 04a3 32030000 		.4byte	0x332
 1518 04a7 02       		.byte	0x2
 1519 04a8 23       		.byte	0x23
 1520 04a9 30       		.uleb128 0x30
 1521 04aa 13       		.uleb128 0x13
ARM GAS  C:\Users\z80\AppData\Local\Temp\ccosK0bj.s 			page 28


 1522 04ab 72030000 		.4byte	.LASF63
 1523 04af 09       		.byte	0x9
 1524 04b0 3C02     		.2byte	0x23c
 1525 04b2 32030000 		.4byte	0x332
 1526 04b6 02       		.byte	0x2
 1527 04b7 23       		.byte	0x23
 1528 04b8 34       		.uleb128 0x34
 1529 04b9 13       		.uleb128 0x13
 1530 04ba 87000000 		.4byte	.LASF64
 1531 04be 09       		.byte	0x9
 1532 04bf 3D02     		.2byte	0x23d
 1533 04c1 32030000 		.4byte	0x332
 1534 04c5 02       		.byte	0x2
 1535 04c6 23       		.byte	0x23
 1536 04c7 38       		.uleb128 0x38
 1537 04c8 13       		.uleb128 0x13
 1538 04c9 FD040000 		.4byte	.LASF65
 1539 04cd 09       		.byte	0x9
 1540 04ce 3E02     		.2byte	0x23e
 1541 04d0 32030000 		.4byte	0x332
 1542 04d4 02       		.byte	0x2
 1543 04d5 23       		.byte	0x23
 1544 04d6 3C       		.uleb128 0x3c
 1545 04d7 13       		.uleb128 0x13
 1546 04d8 02050000 		.4byte	.LASF66
 1547 04dc 09       		.byte	0x9
 1548 04dd 3F02     		.2byte	0x23f
 1549 04df 32030000 		.4byte	0x332
 1550 04e3 02       		.byte	0x2
 1551 04e4 23       		.byte	0x23
 1552 04e5 40       		.uleb128 0x40
 1553 04e6 13       		.uleb128 0x13
 1554 04e7 07050000 		.4byte	.LASF67
 1555 04eb 09       		.byte	0x9
 1556 04ec 4002     		.2byte	0x240
 1557 04ee 32030000 		.4byte	0x332
 1558 04f2 02       		.byte	0x2
 1559 04f3 23       		.byte	0x23
 1560 04f4 44       		.uleb128 0x44
 1561 04f5 13       		.uleb128 0x13
 1562 04f6 0C050000 		.4byte	.LASF68
 1563 04fa 09       		.byte	0x9
 1564 04fb 4102     		.2byte	0x241
 1565 04fd 32030000 		.4byte	0x332
 1566 0501 02       		.byte	0x2
 1567 0502 23       		.byte	0x23
 1568 0503 48       		.uleb128 0x48
 1569 0504 0B       		.uleb128 0xb
 1570 0505 445200   		.ascii	"DR\000"
 1571 0508 09       		.byte	0x9
 1572 0509 4202     		.2byte	0x242
 1573 050b 32030000 		.4byte	0x332
 1574 050f 02       		.byte	0x2
 1575 0510 23       		.byte	0x23
 1576 0511 4C       		.uleb128 0x4c
 1577 0512 00       		.byte	0x0
 1578 0513 14       		.uleb128 0x14
ARM GAS  C:\Users\z80\AppData\Local\Temp\ccosK0bj.s 			page 29


 1579 0514 46010000 		.4byte	.LASF69
 1580 0518 09       		.byte	0x9
 1581 0519 4302     		.2byte	0x243
 1582 051b DF030000 		.4byte	0x3df
 1583 051f 12       		.uleb128 0x12
 1584 0520 10       		.byte	0x10
 1585 0521 09       		.byte	0x9
 1586 0522 2D03     		.2byte	0x32d
 1587 0524 65050000 		.4byte	0x565
 1588 0528 0B       		.uleb128 0xb
 1589 0529 43435200 		.ascii	"CCR\000"
 1590 052d 09       		.byte	0x9
 1591 052e 2F03     		.2byte	0x32f
 1592 0530 32030000 		.4byte	0x332
 1593 0534 02       		.byte	0x2
 1594 0535 23       		.byte	0x23
 1595 0536 00       		.uleb128 0x0
 1596 0537 13       		.uleb128 0x13
 1597 0538 D1040000 		.4byte	.LASF70
 1598 053c 09       		.byte	0x9
 1599 053d 3003     		.2byte	0x330
 1600 053f 32030000 		.4byte	0x332
 1601 0543 02       		.byte	0x2
 1602 0544 23       		.byte	0x23
 1603 0545 04       		.uleb128 0x4
 1604 0546 13       		.uleb128 0x13
 1605 0547 CE010000 		.4byte	.LASF71
 1606 054b 09       		.byte	0x9
 1607 054c 3103     		.2byte	0x331
 1608 054e 32030000 		.4byte	0x332
 1609 0552 02       		.byte	0x2
 1610 0553 23       		.byte	0x23
 1611 0554 08       		.uleb128 0x8
 1612 0555 13       		.uleb128 0x13
 1613 0556 88020000 		.4byte	.LASF72
 1614 055a 09       		.byte	0x9
 1615 055b 3203     		.2byte	0x332
 1616 055d 32030000 		.4byte	0x332
 1617 0561 02       		.byte	0x2
 1618 0562 23       		.byte	0x23
 1619 0563 0C       		.uleb128 0xc
 1620 0564 00       		.byte	0x0
 1621 0565 14       		.uleb128 0x14
 1622 0566 08020000 		.4byte	.LASF73
 1623 056a 09       		.byte	0x9
 1624 056b 3303     		.2byte	0x333
 1625 056d 1F050000 		.4byte	0x51f
 1626 0571 12       		.uleb128 0x12
 1627 0572 28       		.byte	0x28
 1628 0573 09       		.byte	0x9
 1629 0574 4304     		.2byte	0x443
 1630 0576 10060000 		.4byte	0x610
 1631 057a 0B       		.uleb128 0xb
 1632 057b 435200   		.ascii	"CR\000"
 1633 057e 09       		.byte	0x9
 1634 057f 4504     		.2byte	0x445
 1635 0581 32030000 		.4byte	0x332
ARM GAS  C:\Users\z80\AppData\Local\Temp\ccosK0bj.s 			page 30


 1636 0585 02       		.byte	0x2
 1637 0586 23       		.byte	0x23
 1638 0587 00       		.uleb128 0x0
 1639 0588 13       		.uleb128 0x13
 1640 0589 4B050000 		.4byte	.LASF74
 1641 058d 09       		.byte	0x9
 1642 058e 4604     		.2byte	0x446
 1643 0590 32030000 		.4byte	0x332
 1644 0594 02       		.byte	0x2
 1645 0595 23       		.byte	0x23
 1646 0596 04       		.uleb128 0x4
 1647 0597 0B       		.uleb128 0xb
 1648 0598 43495200 		.ascii	"CIR\000"
 1649 059c 09       		.byte	0x9
 1650 059d 4704     		.2byte	0x447
 1651 059f 32030000 		.4byte	0x332
 1652 05a3 02       		.byte	0x2
 1653 05a4 23       		.byte	0x23
 1654 05a5 08       		.uleb128 0x8
 1655 05a6 13       		.uleb128 0x13
 1656 05a7 9B010000 		.4byte	.LASF75
 1657 05ab 09       		.byte	0x9
 1658 05ac 4804     		.2byte	0x448
 1659 05ae 32030000 		.4byte	0x332
 1660 05b2 02       		.byte	0x2
 1661 05b3 23       		.byte	0x23
 1662 05b4 0C       		.uleb128 0xc
 1663 05b5 13       		.uleb128 0x13
 1664 05b6 5F030000 		.4byte	.LASF76
 1665 05ba 09       		.byte	0x9
 1666 05bb 4904     		.2byte	0x449
 1667 05bd 32030000 		.4byte	0x332
 1668 05c1 02       		.byte	0x2
 1669 05c2 23       		.byte	0x23
 1670 05c3 10       		.uleb128 0x10
 1671 05c4 13       		.uleb128 0x13
 1672 05c5 79050000 		.4byte	.LASF77
 1673 05c9 09       		.byte	0x9
 1674 05ca 4A04     		.2byte	0x44a
 1675 05cc 32030000 		.4byte	0x332
 1676 05d0 02       		.byte	0x2
 1677 05d1 23       		.byte	0x23
 1678 05d2 14       		.uleb128 0x14
 1679 05d3 13       		.uleb128 0x13
 1680 05d4 16040000 		.4byte	.LASF78
 1681 05d8 09       		.byte	0x9
 1682 05d9 4B04     		.2byte	0x44b
 1683 05db 32030000 		.4byte	0x332
 1684 05df 02       		.byte	0x2
 1685 05e0 23       		.byte	0x23
 1686 05e1 18       		.uleb128 0x18
 1687 05e2 13       		.uleb128 0x13
 1688 05e3 A2040000 		.4byte	.LASF79
 1689 05e7 09       		.byte	0x9
 1690 05e8 4C04     		.2byte	0x44c
 1691 05ea 32030000 		.4byte	0x332
 1692 05ee 02       		.byte	0x2
ARM GAS  C:\Users\z80\AppData\Local\Temp\ccosK0bj.s 			page 31


 1693 05ef 23       		.byte	0x23
 1694 05f0 1C       		.uleb128 0x1c
 1695 05f1 13       		.uleb128 0x13
 1696 05f2 D7040000 		.4byte	.LASF80
 1697 05f6 09       		.byte	0x9
 1698 05f7 4D04     		.2byte	0x44d
 1699 05f9 32030000 		.4byte	0x332
 1700 05fd 02       		.byte	0x2
 1701 05fe 23       		.byte	0x23
 1702 05ff 20       		.uleb128 0x20
 1703 0600 0B       		.uleb128 0xb
 1704 0601 43535200 		.ascii	"CSR\000"
 1705 0605 09       		.byte	0x9
 1706 0606 4E04     		.2byte	0x44e
 1707 0608 32030000 		.4byte	0x332
 1708 060c 02       		.byte	0x2
 1709 060d 23       		.byte	0x23
 1710 060e 24       		.uleb128 0x24
 1711 060f 00       		.byte	0x0
 1712 0610 14       		.uleb128 0x14
 1713 0611 F7010000 		.4byte	.LASF81
 1714 0615 09       		.byte	0x9
 1715 0616 5904     		.2byte	0x459
 1716 0618 71050000 		.4byte	0x571
 1717 061c 08       		.uleb128 0x8
 1718 061d 0C       		.byte	0xc
 1719 061e 0A       		.byte	0xa
 1720 061f C2       		.byte	0xc2
 1721 0620 6B060000 		.4byte	0x66b
 1722 0624 06       		.uleb128 0x6
 1723 0625 1E040000 		.4byte	.LASF82
 1724 0629 0A       		.byte	0xa
 1725 062a C3       		.byte	0xc3
 1726 062b 6B060000 		.4byte	0x66b
 1727 062f 02       		.byte	0x2
 1728 0630 23       		.byte	0x23
 1729 0631 00       		.uleb128 0x0
 1730 0632 06       		.uleb128 0x6
 1731 0633 31040000 		.4byte	.LASF83
 1732 0637 0A       		.byte	0xa
 1733 0638 C4       		.byte	0xc4
 1734 0639 71060000 		.4byte	0x671
 1735 063d 02       		.byte	0x2
 1736 063e 23       		.byte	0x23
 1737 063f 04       		.uleb128 0x4
 1738 0640 06       		.uleb128 0x6
 1739 0641 1C020000 		.4byte	.LASF84
 1740 0645 0A       		.byte	0xa
 1741 0646 C5       		.byte	0xc5
 1742 0647 49000000 		.4byte	0x49
 1743 064b 02       		.byte	0x2
 1744 064c 23       		.byte	0x23
 1745 064d 08       		.uleb128 0x8
 1746 064e 06       		.uleb128 0x6
 1747 064f 84010000 		.4byte	.LASF85
 1748 0653 0A       		.byte	0xa
 1749 0654 C7       		.byte	0xc7
ARM GAS  C:\Users\z80\AppData\Local\Temp\ccosK0bj.s 			page 32


 1750 0655 49000000 		.4byte	0x49
 1751 0659 02       		.byte	0x2
 1752 065a 23       		.byte	0x23
 1753 065b 09       		.uleb128 0x9
 1754 065c 06       		.uleb128 0x6
 1755 065d 21000000 		.4byte	.LASF86
 1756 0661 0A       		.byte	0xa
 1757 0662 C8       		.byte	0xc8
 1758 0663 49000000 		.4byte	0x49
 1759 0667 02       		.byte	0x2
 1760 0668 23       		.byte	0x23
 1761 0669 0A       		.uleb128 0xa
 1762 066a 00       		.byte	0x0
 1763 066b 09       		.uleb128 0x9
 1764 066c 04       		.byte	0x4
 1765 066d 65050000 		.4byte	0x565
 1766 0671 09       		.uleb128 0x9
 1767 0672 04       		.byte	0x4
 1768 0673 32030000 		.4byte	0x332
 1769 0677 03       		.uleb128 0x3
 1770 0678 7E030000 		.4byte	.LASF87
 1771 067c 0A       		.byte	0xa
 1772 067d C9       		.byte	0xc9
 1773 067e 1C060000 		.4byte	0x61c
 1774 0682 03       		.uleb128 0x3
 1775 0683 D3010000 		.4byte	.LASF88
 1776 0687 0A       		.byte	0xa
 1777 0688 D2       		.byte	0xd2
 1778 0689 8D060000 		.4byte	0x68d
 1779 068d 09       		.uleb128 0x9
 1780 068e 04       		.byte	0x4
 1781 068f 93060000 		.4byte	0x693
 1782 0693 15       		.uleb128 0x15
 1783 0694 01       		.byte	0x1
 1784 0695 A4060000 		.4byte	0x6a4
 1785 0699 16       		.uleb128 0x16
 1786 069a 75020000 		.4byte	0x275
 1787 069e 16       		.uleb128 0x16
 1788 069f 86000000 		.4byte	0x86
 1789 06a3 00       		.byte	0x0
 1790 06a4 17       		.uleb128 0x17
 1791 06a5 01       		.byte	0x1
 1792 06a6 0B       		.byte	0xb
 1793 06a7 55       		.byte	0x55
 1794 06a8 D1060000 		.4byte	0x6d1
 1795 06ac 18       		.uleb128 0x18
 1796 06ad 55000000 		.4byte	.LASF89
 1797 06b1 00       		.sleb128 0
 1798 06b2 18       		.uleb128 0x18
 1799 06b3 01030000 		.4byte	.LASF90
 1800 06b7 01       		.sleb128 1
 1801 06b8 18       		.uleb128 0x18
 1802 06b9 36020000 		.4byte	.LASF91
 1803 06bd 02       		.sleb128 2
 1804 06be 18       		.uleb128 0x18
 1805 06bf A4010000 		.4byte	.LASF92
 1806 06c3 03       		.sleb128 3
ARM GAS  C:\Users\z80\AppData\Local\Temp\ccosK0bj.s 			page 33


 1807 06c4 18       		.uleb128 0x18
 1808 06c5 24050000 		.4byte	.LASF93
 1809 06c9 04       		.sleb128 4
 1810 06ca 18       		.uleb128 0x18
 1811 06cb C7040000 		.4byte	.LASF94
 1812 06cf 05       		.sleb128 5
 1813 06d0 00       		.byte	0x0
 1814 06d1 03       		.uleb128 0x3
 1815 06d2 16000000 		.4byte	.LASF95
 1816 06d6 0B       		.byte	0xb
 1817 06d7 5C       		.byte	0x5c
 1818 06d8 A4060000 		.4byte	0x6a4
 1819 06dc 03       		.uleb128 0x3
 1820 06dd 6F010000 		.4byte	.LASF96
 1821 06e1 0C       		.byte	0xc
 1822 06e2 92       		.byte	0x92
 1823 06e3 62000000 		.4byte	0x62
 1824 06e7 03       		.uleb128 0x3
 1825 06e8 38050000 		.4byte	.LASF97
 1826 06ec 0C       		.byte	0xc
 1827 06ed 97       		.byte	0x97
 1828 06ee 62000000 		.4byte	0x62
 1829 06f2 17       		.uleb128 0x17
 1830 06f3 01       		.byte	0x1
 1831 06f4 0C       		.byte	0xc
 1832 06f5 9E       		.byte	0x9e
 1833 06f6 01070000 		.4byte	0x701
 1834 06fa 18       		.uleb128 0x18
 1835 06fb E7000000 		.4byte	.LASF98
 1836 06ff 00       		.sleb128 0
 1837 0700 00       		.byte	0x0
 1838 0701 03       		.uleb128 0x3
 1839 0702 BD000000 		.4byte	.LASF99
 1840 0706 0C       		.byte	0xc
 1841 0707 A0       		.byte	0xa0
 1842 0708 F2060000 		.4byte	0x6f2
 1843 070c 03       		.uleb128 0x3
 1844 070d ED010000 		.4byte	.LASF100
 1845 0711 0C       		.byte	0xc
 1846 0712 A5       		.byte	0xa5
 1847 0713 17070000 		.4byte	0x717
 1848 0717 0C       		.uleb128 0xc
 1849 0718 ED010000 		.4byte	.LASF100
 1850 071c 34       		.byte	0x34
 1851 071d 0C       		.byte	0xc
 1852 071e 0901     		.2byte	0x109
 1853 0720 BB070000 		.4byte	0x7bb
 1854 0724 13       		.uleb128 0x13
 1855 0725 CF000000 		.4byte	.LASF101
 1856 0729 0C       		.byte	0xc
 1857 072a 0D01     		.2byte	0x10d
 1858 072c D1060000 		.4byte	0x6d1
 1859 0730 02       		.byte	0x2
 1860 0731 23       		.byte	0x23
 1861 0732 00       		.uleb128 0x0
 1862 0733 13       		.uleb128 0x13
 1863 0734 77040000 		.4byte	.LASF102
ARM GAS  C:\Users\z80\AppData\Local\Temp\ccosK0bj.s 			page 34


 1864 0738 0C       		.byte	0xc
 1865 0739 1101     		.2byte	0x111
 1866 073b E3080000 		.4byte	0x8e3
 1867 073f 02       		.byte	0x2
 1868 0740 23       		.byte	0x23
 1869 0741 04       		.uleb128 0x4
 1870 0742 13       		.uleb128 0x13
 1871 0743 B6020000 		.4byte	.LASF103
 1872 0747 0C       		.byte	0xc
 1873 0748 1501     		.2byte	0x115
 1874 074a E8070000 		.4byte	0x7e8
 1875 074e 02       		.byte	0x2
 1876 074f 23       		.byte	0x23
 1877 0750 08       		.uleb128 0x8
 1878 0751 13       		.uleb128 0x13
 1879 0752 40020000 		.4byte	.LASF104
 1880 0756 0C       		.byte	0xc
 1881 0757 1901     		.2byte	0x119
 1882 0759 30000000 		.4byte	0x30
 1883 075d 02       		.byte	0x2
 1884 075e 23       		.byte	0x23
 1885 075f 0C       		.uleb128 0xc
 1886 0760 13       		.uleb128 0x13
 1887 0761 98020000 		.4byte	.LASF105
 1888 0765 0C       		.byte	0xc
 1889 0766 1D01     		.2byte	0x11d
 1890 0768 EE080000 		.4byte	0x8ee
 1891 076c 02       		.byte	0x2
 1892 076d 23       		.byte	0x23
 1893 076e 10       		.uleb128 0x10
 1894 076f 13       		.uleb128 0x13
 1895 0770 2F010000 		.4byte	.LASF106
 1896 0774 0C       		.byte	0xc
 1897 0775 2201     		.2byte	0x122
 1898 0777 37020000 		.4byte	0x237
 1899 077b 02       		.byte	0x2
 1900 077c 23       		.byte	0x23
 1901 077d 14       		.uleb128 0x14
 1902 077e 13       		.uleb128 0x13
 1903 077f 99030000 		.4byte	.LASF107
 1904 0783 0C       		.byte	0xc
 1905 0784 2901     		.2byte	0x129
 1906 0786 7C030000 		.4byte	0x37c
 1907 078a 02       		.byte	0x2
 1908 078b 23       		.byte	0x23
 1909 078c 18       		.uleb128 0x18
 1910 078d 0B       		.uleb128 0xb
 1911 078e 61646300 		.ascii	"adc\000"
 1912 0792 0C       		.byte	0xc
 1913 0793 3501     		.2byte	0x135
 1914 0795 F9080000 		.4byte	0x8f9
 1915 0799 02       		.byte	0x2
 1916 079a 23       		.byte	0x23
 1917 079b 28       		.uleb128 0x28
 1918 079c 13       		.uleb128 0x13
 1919 079d C8000000 		.4byte	.LASF108
 1920 07a1 0C       		.byte	0xc
ARM GAS  C:\Users\z80\AppData\Local\Temp\ccosK0bj.s 			page 35


 1921 07a2 3901     		.2byte	0x139
 1922 07a4 FF080000 		.4byte	0x8ff
 1923 07a8 02       		.byte	0x2
 1924 07a9 23       		.byte	0x23
 1925 07aa 2C       		.uleb128 0x2c
 1926 07ab 13       		.uleb128 0x13
 1927 07ac 0E000000 		.4byte	.LASF109
 1928 07b0 0C       		.byte	0xc
 1929 07b1 3D01     		.2byte	0x13d
 1930 07b3 86000000 		.4byte	0x86
 1931 07b7 02       		.byte	0x2
 1932 07b8 23       		.byte	0x23
 1933 07b9 30       		.uleb128 0x30
 1934 07ba 00       		.byte	0x0
 1935 07bb 03       		.uleb128 0x3
 1936 07bc 61010000 		.4byte	.LASF110
 1937 07c0 0C       		.byte	0xc
 1938 07c1 AF       		.byte	0xaf
 1939 07c2 C6070000 		.4byte	0x7c6
 1940 07c6 09       		.uleb128 0x9
 1941 07c7 04       		.byte	0x4
 1942 07c8 CC070000 		.4byte	0x7cc
 1943 07cc 15       		.uleb128 0x15
 1944 07cd 01       		.byte	0x1
 1945 07ce E2070000 		.4byte	0x7e2
 1946 07d2 16       		.uleb128 0x16
 1947 07d3 E2070000 		.4byte	0x7e2
 1948 07d7 16       		.uleb128 0x16
 1949 07d8 E8070000 		.4byte	0x7e8
 1950 07dc 16       		.uleb128 0x16
 1951 07dd 30000000 		.4byte	0x30
 1952 07e1 00       		.byte	0x0
 1953 07e2 09       		.uleb128 0x9
 1954 07e3 04       		.byte	0x4
 1955 07e4 0C070000 		.4byte	0x70c
 1956 07e8 09       		.uleb128 0x9
 1957 07e9 04       		.byte	0x4
 1958 07ea DC060000 		.4byte	0x6dc
 1959 07ee 03       		.uleb128 0x3
 1960 07ef 13010000 		.4byte	.LASF111
 1961 07f3 0C       		.byte	0xc
 1962 07f4 B8       		.byte	0xb8
 1963 07f5 F9070000 		.4byte	0x7f9
 1964 07f9 09       		.uleb128 0x9
 1965 07fa 04       		.byte	0x4
 1966 07fb FF070000 		.4byte	0x7ff
 1967 07ff 15       		.uleb128 0x15
 1968 0800 01       		.byte	0x1
 1969 0801 10080000 		.4byte	0x810
 1970 0805 16       		.uleb128 0x16
 1971 0806 E2070000 		.4byte	0x7e2
 1972 080a 16       		.uleb128 0x16
 1973 080b 01070000 		.4byte	0x701
 1974 080f 00       		.byte	0x0
 1975 0810 08       		.uleb128 0x8
 1976 0811 2C       		.byte	0x2c
 1977 0812 0C       		.byte	0xc
ARM GAS  C:\Users\z80\AppData\Local\Temp\ccosK0bj.s 			page 36


 1978 0813 C2       		.byte	0xc2
 1979 0814 B3080000 		.4byte	0x8b3
 1980 0818 06       		.uleb128 0x6
 1981 0819 D5000000 		.4byte	.LASF112
 1982 081d 0C       		.byte	0xc
 1983 081e C6       		.byte	0xc6
 1984 081f B1000000 		.4byte	0xb1
 1985 0823 02       		.byte	0x2
 1986 0824 23       		.byte	0x23
 1987 0825 00       		.uleb128 0x0
 1988 0826 06       		.uleb128 0x6
 1989 0827 54020000 		.4byte	.LASF113
 1990 082b 0C       		.byte	0xc
 1991 082c CA       		.byte	0xca
 1992 082d E7060000 		.4byte	0x6e7
 1993 0831 02       		.byte	0x2
 1994 0832 23       		.byte	0x23
 1995 0833 04       		.uleb128 0x4
 1996 0834 06       		.uleb128 0x6
 1997 0835 5A010000 		.4byte	.LASF114
 1998 0839 0C       		.byte	0xc
 1999 083a CE       		.byte	0xce
 2000 083b BB070000 		.4byte	0x7bb
 2001 083f 02       		.byte	0x2
 2002 0840 23       		.byte	0x23
 2003 0841 08       		.uleb128 0x8
 2004 0842 06       		.uleb128 0x6
 2005 0843 F2030000 		.4byte	.LASF115
 2006 0847 0C       		.byte	0xc
 2007 0848 D2       		.byte	0xd2
 2008 0849 EE070000 		.4byte	0x7ee
 2009 084d 02       		.byte	0x2
 2010 084e 23       		.byte	0x23
 2011 084f 0C       		.uleb128 0xc
 2012 0850 07       		.uleb128 0x7
 2013 0851 63723100 		.ascii	"cr1\000"
 2014 0855 0C       		.byte	0xc
 2015 0856 D9       		.byte	0xd9
 2016 0857 86000000 		.4byte	0x86
 2017 085b 02       		.byte	0x2
 2018 085c 23       		.byte	0x23
 2019 085d 10       		.uleb128 0x10
 2020 085e 07       		.uleb128 0x7
 2021 085f 63723200 		.ascii	"cr2\000"
 2022 0863 0C       		.byte	0xc
 2023 0864 E0       		.byte	0xe0
 2024 0865 86000000 		.4byte	0x86
 2025 0869 02       		.byte	0x2
 2026 086a 23       		.byte	0x23
 2027 086b 14       		.uleb128 0x14
 2028 086c 06       		.uleb128 0x6
 2029 086d 4F040000 		.4byte	.LASF116
 2030 0871 0C       		.byte	0xc
 2031 0872 E6       		.byte	0xe6
 2032 0873 86000000 		.4byte	0x86
 2033 0877 02       		.byte	0x2
 2034 0878 23       		.byte	0x23
ARM GAS  C:\Users\z80\AppData\Local\Temp\ccosK0bj.s 			page 37


 2035 0879 18       		.uleb128 0x18
 2036 087a 06       		.uleb128 0x6
 2037 087b 67040000 		.4byte	.LASF117
 2038 087f 0C       		.byte	0xc
 2039 0880 EC       		.byte	0xec
 2040 0881 86000000 		.4byte	0x86
 2041 0885 02       		.byte	0x2
 2042 0886 23       		.byte	0x23
 2043 0887 1C       		.uleb128 0x1c
 2044 0888 06       		.uleb128 0x6
 2045 0889 7E040000 		.4byte	.LASF118
 2046 088d 0C       		.byte	0xc
 2047 088e F1       		.byte	0xf1
 2048 088f 86000000 		.4byte	0x86
 2049 0893 02       		.byte	0x2
 2050 0894 23       		.byte	0x23
 2051 0895 20       		.uleb128 0x20
 2052 0896 06       		.uleb128 0x6
 2053 0897 83040000 		.4byte	.LASF119
 2054 089b 0C       		.byte	0xc
 2055 089c F6       		.byte	0xf6
 2056 089d 86000000 		.4byte	0x86
 2057 08a1 02       		.byte	0x2
 2058 08a2 23       		.byte	0x23
 2059 08a3 24       		.uleb128 0x24
 2060 08a4 06       		.uleb128 0x6
 2061 08a5 88040000 		.4byte	.LASF120
 2062 08a9 0C       		.byte	0xc
 2063 08aa FB       		.byte	0xfb
 2064 08ab 86000000 		.4byte	0x86
 2065 08af 02       		.byte	0x2
 2066 08b0 23       		.byte	0x23
 2067 08b1 28       		.uleb128 0x28
 2068 08b2 00       		.byte	0x0
 2069 08b3 03       		.uleb128 0x3
 2070 08b4 E4040000 		.4byte	.LASF121
 2071 08b8 0C       		.byte	0xc
 2072 08b9 FC       		.byte	0xfc
 2073 08ba 10080000 		.4byte	0x810
 2074 08be 12       		.uleb128 0x12
 2075 08bf 04       		.byte	0x4
 2076 08c0 0C       		.byte	0xc
 2077 08c1 0201     		.2byte	0x102
 2078 08c3 D7080000 		.4byte	0x8d7
 2079 08c7 13       		.uleb128 0x13
 2080 08c8 8E010000 		.4byte	.LASF122
 2081 08cc 0C       		.byte	0xc
 2082 08cd 0301     		.2byte	0x103
 2083 08cf 86000000 		.4byte	0x86
 2084 08d3 02       		.byte	0x2
 2085 08d4 23       		.byte	0x23
 2086 08d5 00       		.uleb128 0x0
 2087 08d6 00       		.byte	0x0
 2088 08d7 14       		.uleb128 0x14
 2089 08d8 45040000 		.4byte	.LASF123
 2090 08dc 0C       		.byte	0xc
 2091 08dd 0401     		.2byte	0x104
ARM GAS  C:\Users\z80\AppData\Local\Temp\ccosK0bj.s 			page 38


 2092 08df BE080000 		.4byte	0x8be
 2093 08e3 09       		.uleb128 0x9
 2094 08e4 04       		.byte	0x4
 2095 08e5 E9080000 		.4byte	0x8e9
 2096 08e9 11       		.uleb128 0x11
 2097 08ea D7080000 		.4byte	0x8d7
 2098 08ee 09       		.uleb128 0x9
 2099 08ef 04       		.byte	0x4
 2100 08f0 F4080000 		.4byte	0x8f4
 2101 08f4 11       		.uleb128 0x11
 2102 08f5 B3080000 		.4byte	0x8b3
 2103 08f9 09       		.uleb128 0x9
 2104 08fa 04       		.byte	0x4
 2105 08fb 13050000 		.4byte	0x513
 2106 08ff 09       		.uleb128 0x9
 2107 0900 04       		.byte	0x4
 2108 0901 05090000 		.4byte	0x905
 2109 0905 11       		.uleb128 0x11
 2110 0906 77060000 		.4byte	0x677
 2111 090a 19       		.uleb128 0x19
 2112 090b B5030000 		.4byte	.LASF139
 2113 090f 01       		.byte	0x1
 2114 0910 40       		.byte	0x40
 2115 0911 01       		.byte	0x1
 2116 0912 00000000 		.4byte	.LFB62
 2117 0916 F2010000 		.4byte	.LFE62
 2118 091a 00000000 		.4byte	.LLST0
 2119 091e 310A0000 		.4byte	0xa31
 2120 0922 1A       		.uleb128 0x1a
 2121 0923 03020000 		.4byte	.LASF124
 2122 0927 01       		.byte	0x1
 2123 0928 40       		.byte	0x40
 2124 0929 E2070000 		.4byte	0x7e2
 2125 092d 02       		.byte	0x2
 2126 092e 91       		.byte	0x91
 2127 092f 5C       		.sleb128 -36
 2128 0930 1A       		.uleb128 0x1a
 2129 0931 F7040000 		.4byte	.LASF125
 2130 0935 01       		.byte	0x1
 2131 0936 40       		.byte	0x40
 2132 0937 86000000 		.4byte	0x86
 2133 093b 02       		.byte	0x2
 2134 093c 91       		.byte	0x91
 2135 093d 58       		.sleb128 -40
 2136 093e 1B       		.uleb128 0x1b
 2137 093f 50000000 		.4byte	.LBB2
 2138 0943 58000000 		.4byte	.LBE2
 2139 0947 59090000 		.4byte	0x959
 2140 094b 1C       		.uleb128 0x1c
 2141 094c 746D7000 		.ascii	"tmp\000"
 2142 0950 01       		.byte	0x1
 2143 0951 46       		.byte	0x46
 2144 0952 86000000 		.4byte	0x86
 2145 0956 01       		.byte	0x1
 2146 0957 53       		.byte	0x53
 2147 0958 00       		.byte	0x0
 2148 0959 1B       		.uleb128 0x1b
ARM GAS  C:\Users\z80\AppData\Local\Temp\ccosK0bj.s 			page 39


 2149 095a 64000000 		.4byte	.LBB3
 2150 095e 80000000 		.4byte	.LBE3
 2151 0962 74090000 		.4byte	0x974
 2152 0966 1C       		.uleb128 0x1c
 2153 0967 747000   		.ascii	"tp\000"
 2154 096a 01       		.byte	0x1
 2155 096b 46       		.byte	0x46
 2156 096c 37020000 		.4byte	0x237
 2157 0970 02       		.byte	0x2
 2158 0971 91       		.byte	0x91
 2159 0972 74       		.sleb128 -12
 2160 0973 00       		.byte	0x0
 2161 0974 1B       		.uleb128 0x1b
 2162 0975 84000000 		.4byte	.LBB4
 2163 0979 8E000000 		.4byte	.LBE4
 2164 097d 8F090000 		.4byte	0x98f
 2165 0981 1C       		.uleb128 0x1c
 2166 0982 746D7000 		.ascii	"tmp\000"
 2167 0986 01       		.byte	0x1
 2168 0987 46       		.byte	0x46
 2169 0988 86000000 		.4byte	0x86
 2170 098c 01       		.byte	0x1
 2171 098d 53       		.byte	0x53
 2172 098e 00       		.byte	0x0
 2173 098f 1B       		.uleb128 0x1b
 2174 0990 E2000000 		.4byte	.LBB5
 2175 0994 14010000 		.4byte	.LBE5
 2176 0998 B9090000 		.4byte	0x9b9
 2177 099c 1D       		.uleb128 0x1d
 2178 099d 83020000 		.4byte	.LASF126
 2179 09a1 01       		.byte	0x1
 2180 09a2 4F       		.byte	0x4f
 2181 09a3 30000000 		.4byte	0x30
 2182 09a7 02       		.byte	0x2
 2183 09a8 91       		.byte	0x91
 2184 09a9 70       		.sleb128 -16
 2185 09aa 1D       		.uleb128 0x1d
 2186 09ab 5E050000 		.4byte	.LASF127
 2187 09af 01       		.byte	0x1
 2188 09b0 4F       		.byte	0x4f
 2189 09b1 30000000 		.4byte	0x30
 2190 09b5 02       		.byte	0x2
 2191 09b6 91       		.byte	0x91
 2192 09b7 6C       		.sleb128 -20
 2193 09b8 00       		.byte	0x0
 2194 09b9 1B       		.uleb128 0x1b
 2195 09ba 4A010000 		.4byte	.LBB6
 2196 09be 7E010000 		.4byte	.LBE6
 2197 09c2 E3090000 		.4byte	0x9e3
 2198 09c6 1D       		.uleb128 0x1d
 2199 09c7 83020000 		.4byte	.LASF126
 2200 09cb 01       		.byte	0x1
 2201 09cc 4F       		.byte	0x4f
 2202 09cd 30000000 		.4byte	0x30
 2203 09d1 02       		.byte	0x2
 2204 09d2 91       		.byte	0x91
 2205 09d3 68       		.sleb128 -24
ARM GAS  C:\Users\z80\AppData\Local\Temp\ccosK0bj.s 			page 40


 2206 09d4 1D       		.uleb128 0x1d
 2207 09d5 5E050000 		.4byte	.LASF127
 2208 09d9 01       		.byte	0x1
 2209 09da 4F       		.byte	0x4f
 2210 09db 30000000 		.4byte	0x30
 2211 09df 02       		.byte	0x2
 2212 09e0 91       		.byte	0x91
 2213 09e1 64       		.sleb128 -28
 2214 09e2 00       		.byte	0x0
 2215 09e3 1B       		.uleb128 0x1b
 2216 09e4 B2010000 		.4byte	.LBB7
 2217 09e8 BA010000 		.4byte	.LBE7
 2218 09ec FE090000 		.4byte	0x9fe
 2219 09f0 1C       		.uleb128 0x1c
 2220 09f1 746D7000 		.ascii	"tmp\000"
 2221 09f5 01       		.byte	0x1
 2222 09f6 4F       		.byte	0x4f
 2223 09f7 86000000 		.4byte	0x86
 2224 09fb 01       		.byte	0x1
 2225 09fc 53       		.byte	0x53
 2226 09fd 00       		.byte	0x0
 2227 09fe 1B       		.uleb128 0x1b
 2228 09ff C6010000 		.4byte	.LBB8
 2229 0a03 E2010000 		.4byte	.LBE8
 2230 0a07 190A0000 		.4byte	0xa19
 2231 0a0b 1C       		.uleb128 0x1c
 2232 0a0c 747000   		.ascii	"tp\000"
 2233 0a0f 01       		.byte	0x1
 2234 0a10 4F       		.byte	0x4f
 2235 0a11 37020000 		.4byte	0x237
 2236 0a15 02       		.byte	0x2
 2237 0a16 91       		.byte	0x91
 2238 0a17 60       		.sleb128 -32
 2239 0a18 00       		.byte	0x0
 2240 0a19 1E       		.uleb128 0x1e
 2241 0a1a E6010000 		.4byte	.LBB9
 2242 0a1e EE010000 		.4byte	.LBE9
 2243 0a22 1C       		.uleb128 0x1c
 2244 0a23 746D7000 		.ascii	"tmp\000"
 2245 0a27 01       		.byte	0x1
 2246 0a28 4F       		.byte	0x4f
 2247 0a29 86000000 		.4byte	0x86
 2248 0a2d 01       		.byte	0x1
 2249 0a2e 53       		.byte	0x53
 2250 0a2f 00       		.byte	0x0
 2251 0a30 00       		.byte	0x0
 2252 0a31 1F       		.uleb128 0x1f
 2253 0a32 01       		.byte	0x1
 2254 0a33 A9020000 		.4byte	.LASF140
 2255 0a37 01       		.byte	0x1
 2256 0a38 61       		.byte	0x61
 2257 0a39 01       		.byte	0x1
 2258 0a3a 00000000 		.4byte	.LFB63
 2259 0a3e E0000000 		.4byte	.LFE63
 2260 0a42 2C000000 		.4byte	.LLST1
 2261 0a46 20       		.uleb128 0x20
 2262 0a47 01       		.byte	0x1
ARM GAS  C:\Users\z80\AppData\Local\Temp\ccosK0bj.s 			page 41


 2263 0a48 B9040000 		.4byte	.LASF128
 2264 0a4c 01       		.byte	0x1
 2265 0a4d 89       		.byte	0x89
 2266 0a4e 01       		.byte	0x1
 2267 0a4f 00000000 		.4byte	.LFB64
 2268 0a53 8C000000 		.4byte	.LFE64
 2269 0a57 4C000000 		.4byte	.LLST2
 2270 0a5b 840A0000 		.4byte	0xa84
 2271 0a5f 1A       		.uleb128 0x1a
 2272 0a60 03020000 		.4byte	.LASF124
 2273 0a64 01       		.byte	0x1
 2274 0a65 89       		.byte	0x89
 2275 0a66 E2070000 		.4byte	0x7e2
 2276 0a6a 02       		.byte	0x2
 2277 0a6b 91       		.byte	0x91
 2278 0a6c 6C       		.sleb128 -20
 2279 0a6d 1E       		.uleb128 0x1e
 2280 0a6e 1C000000 		.4byte	.LBB10
 2281 0a72 74000000 		.4byte	.LBE10
 2282 0a76 1C       		.uleb128 0x1c
 2283 0a77 6200     		.ascii	"b\000"
 2284 0a79 01       		.byte	0x1
 2285 0a7a 8F       		.byte	0x8f
 2286 0a7b B1000000 		.4byte	0xb1
 2287 0a7f 02       		.byte	0x2
 2288 0a80 91       		.byte	0x91
 2289 0a81 74       		.sleb128 -12
 2290 0a82 00       		.byte	0x0
 2291 0a83 00       		.byte	0x0
 2292 0a84 20       		.uleb128 0x20
 2293 0a85 01       		.byte	0x1
 2294 0a86 28000000 		.4byte	.LASF129
 2295 0a8a 01       		.byte	0x1
 2296 0a8b A8       		.byte	0xa8
 2297 0a8c 01       		.byte	0x1
 2298 0a8d 00000000 		.4byte	.LFB65
 2299 0a91 5E000000 		.4byte	.LFE65
 2300 0a95 78000000 		.4byte	.LLST3
 2301 0a99 AC0A0000 		.4byte	0xaac
 2302 0a9d 1A       		.uleb128 0x1a
 2303 0a9e 03020000 		.4byte	.LASF124
 2304 0aa2 01       		.byte	0x1
 2305 0aa3 A8       		.byte	0xa8
 2306 0aa4 E2070000 		.4byte	0x7e2
 2307 0aa8 02       		.byte	0x2
 2308 0aa9 91       		.byte	0x91
 2309 0aaa 74       		.sleb128 -12
 2310 0aab 00       		.byte	0x0
 2311 0aac 20       		.uleb128 0x20
 2312 0aad 01       		.byte	0x1
 2313 0aae FA000000 		.4byte	.LASF130
 2314 0ab2 01       		.byte	0x1
 2315 0ab3 BE       		.byte	0xbe
 2316 0ab4 01       		.byte	0x1
 2317 0ab5 00000000 		.4byte	.LFB66
 2318 0ab9 E2000000 		.4byte	.LFE66
 2319 0abd A4000000 		.4byte	.LLST4
ARM GAS  C:\Users\z80\AppData\Local\Temp\ccosK0bj.s 			page 42


 2320 0ac1 FC0A0000 		.4byte	0xafc
 2321 0ac5 1A       		.uleb128 0x1a
 2322 0ac6 03020000 		.4byte	.LASF124
 2323 0aca 01       		.byte	0x1
 2324 0acb BE       		.byte	0xbe
 2325 0acc E2070000 		.4byte	0x7e2
 2326 0ad0 02       		.byte	0x2
 2327 0ad1 91       		.byte	0x91
 2328 0ad2 6C       		.sleb128 -20
 2329 0ad3 1D       		.uleb128 0x1d
 2330 0ad4 72040000 		.4byte	.LASF131
 2331 0ad8 01       		.byte	0x1
 2332 0ad9 BF       		.byte	0xbf
 2333 0ada 86000000 		.4byte	0x86
 2334 0ade 02       		.byte	0x2
 2335 0adf 91       		.byte	0x91
 2336 0ae0 7C       		.sleb128 -4
 2337 0ae1 1C       		.uleb128 0x1c
 2338 0ae2 6E00     		.ascii	"n\000"
 2339 0ae4 01       		.byte	0x1
 2340 0ae5 BF       		.byte	0xbf
 2341 0ae6 86000000 		.4byte	0x86
 2342 0aea 02       		.byte	0x2
 2343 0aeb 91       		.byte	0x91
 2344 0aec 78       		.sleb128 -8
 2345 0aed 1D       		.uleb128 0x1d
 2346 0aee 98020000 		.4byte	.LASF105
 2347 0af2 01       		.byte	0x1
 2348 0af3 C0       		.byte	0xc0
 2349 0af4 EE080000 		.4byte	0x8ee
 2350 0af8 02       		.byte	0x2
 2351 0af9 91       		.byte	0x91
 2352 0afa 74       		.sleb128 -12
 2353 0afb 00       		.byte	0x0
 2354 0afc 20       		.uleb128 0x20
 2355 0afd 01       		.byte	0x1
 2356 0afe DA030000 		.4byte	.LASF132
 2357 0b02 01       		.byte	0x1
 2358 0b03 E7       		.byte	0xe7
 2359 0b04 01       		.byte	0x1
 2360 0b05 00000000 		.4byte	.LFB67
 2361 0b09 3C000000 		.4byte	.LFE67
 2362 0b0d C4000000 		.4byte	.LLST5
 2363 0b11 240B0000 		.4byte	0xb24
 2364 0b15 1A       		.uleb128 0x1a
 2365 0b16 03020000 		.4byte	.LASF124
 2366 0b1a 01       		.byte	0x1
 2367 0b1b E7       		.byte	0xe7
 2368 0b1c E2070000 		.4byte	0x7e2
 2369 0b20 02       		.byte	0x2
 2370 0b21 91       		.byte	0x91
 2371 0b22 7C       		.sleb128 -4
 2372 0b23 00       		.byte	0x0
 2373 0b24 21       		.uleb128 0x21
 2374 0b25 73000000 		.4byte	.LASF133
 2375 0b29 0D       		.byte	0xd
 2376 0b2a 9404     		.2byte	0x494
ARM GAS  C:\Users\z80\AppData\Local\Temp\ccosK0bj.s 			page 43


 2377 0b2c DA030000 		.4byte	0x3da
 2378 0b30 01       		.byte	0x1
 2379 0b31 01       		.byte	0x1
 2380 0b32 22       		.uleb128 0x22
 2381 0b33 77060000 		.4byte	0x677
 2382 0b37 420B0000 		.4byte	0xb42
 2383 0b3b 23       		.uleb128 0x23
 2384 0b3c 37030000 		.4byte	0x337
 2385 0b40 06       		.byte	0x6
 2386 0b41 00       		.byte	0x0
 2387 0b42 21       		.uleb128 0x21
 2388 0b43 60000000 		.4byte	.LASF134
 2389 0b47 0A       		.byte	0xa
 2390 0b48 8201     		.2byte	0x182
 2391 0b4a 500B0000 		.4byte	0xb50
 2392 0b4e 01       		.byte	0x1
 2393 0b4f 01       		.byte	0x1
 2394 0b50 11       		.uleb128 0x11
 2395 0b51 320B0000 		.4byte	0xb32
 2396 0b55 21       		.uleb128 0x21
 2397 0b56 3F040000 		.4byte	.LASF135
 2398 0b5a 0C       		.byte	0xc
 2399 0b5b 8101     		.2byte	0x181
 2400 0b5d 0C070000 		.4byte	0x70c
 2401 0b61 01       		.byte	0x1
 2402 0b62 01       		.byte	0x1
 2403 0b63 21       		.uleb128 0x21
 2404 0b64 73000000 		.4byte	.LASF133
 2405 0b68 0D       		.byte	0xd
 2406 0b69 9404     		.2byte	0x494
 2407 0b6b DA030000 		.4byte	0x3da
 2408 0b6f 01       		.byte	0x1
 2409 0b70 01       		.byte	0x1
 2410 0b71 21       		.uleb128 0x21
 2411 0b72 60000000 		.4byte	.LASF134
 2412 0b76 0A       		.byte	0xa
 2413 0b77 8201     		.2byte	0x182
 2414 0b79 7F0B0000 		.4byte	0xb7f
 2415 0b7d 01       		.byte	0x1
 2416 0b7e 01       		.byte	0x1
 2417 0b7f 11       		.uleb128 0x11
 2418 0b80 320B0000 		.4byte	0xb32
 2419 0b84 24       		.uleb128 0x24
 2420 0b85 3F040000 		.4byte	.LASF135
 2421 0b89 01       		.byte	0x1
 2422 0b8a 2F       		.byte	0x2f
 2423 0b8b 0C070000 		.4byte	0x70c
 2424 0b8f 01       		.byte	0x1
 2425 0b90 05       		.byte	0x5
 2426 0b91 03       		.byte	0x3
 2427 0b92 00000000 		.4byte	ADCD1
 2428 0b96 00       		.byte	0x0
 2429              		.section	.debug_abbrev
 2430 0000 01       		.uleb128 0x1
 2431 0001 11       		.uleb128 0x11
 2432 0002 01       		.byte	0x1
 2433 0003 25       		.uleb128 0x25
ARM GAS  C:\Users\z80\AppData\Local\Temp\ccosK0bj.s 			page 44


 2434 0004 0E       		.uleb128 0xe
 2435 0005 13       		.uleb128 0x13
 2436 0006 0B       		.uleb128 0xb
 2437 0007 03       		.uleb128 0x3
 2438 0008 0E       		.uleb128 0xe
 2439 0009 1B       		.uleb128 0x1b
 2440 000a 0E       		.uleb128 0xe
 2441 000b 11       		.uleb128 0x11
 2442 000c 01       		.uleb128 0x1
 2443 000d 52       		.uleb128 0x52
 2444 000e 01       		.uleb128 0x1
 2445 000f 55       		.uleb128 0x55
 2446 0010 06       		.uleb128 0x6
 2447 0011 10       		.uleb128 0x10
 2448 0012 06       		.uleb128 0x6
 2449 0013 00       		.byte	0x0
 2450 0014 00       		.byte	0x0
 2451 0015 02       		.uleb128 0x2
 2452 0016 24       		.uleb128 0x24
 2453 0017 00       		.byte	0x0
 2454 0018 0B       		.uleb128 0xb
 2455 0019 0B       		.uleb128 0xb
 2456 001a 3E       		.uleb128 0x3e
 2457 001b 0B       		.uleb128 0xb
 2458 001c 03       		.uleb128 0x3
 2459 001d 08       		.uleb128 0x8
 2460 001e 00       		.byte	0x0
 2461 001f 00       		.byte	0x0
 2462 0020 03       		.uleb128 0x3
 2463 0021 16       		.uleb128 0x16
 2464 0022 00       		.byte	0x0
 2465 0023 03       		.uleb128 0x3
 2466 0024 0E       		.uleb128 0xe
 2467 0025 3A       		.uleb128 0x3a
 2468 0026 0B       		.uleb128 0xb
 2469 0027 3B       		.uleb128 0x3b
 2470 0028 0B       		.uleb128 0xb
 2471 0029 49       		.uleb128 0x49
 2472 002a 13       		.uleb128 0x13
 2473 002b 00       		.byte	0x0
 2474 002c 00       		.byte	0x0
 2475 002d 04       		.uleb128 0x4
 2476 002e 24       		.uleb128 0x24
 2477 002f 00       		.byte	0x0
 2478 0030 0B       		.uleb128 0xb
 2479 0031 0B       		.uleb128 0xb
 2480 0032 3E       		.uleb128 0x3e
 2481 0033 0B       		.uleb128 0xb
 2482 0034 03       		.uleb128 0x3
 2483 0035 0E       		.uleb128 0xe
 2484 0036 00       		.byte	0x0
 2485 0037 00       		.byte	0x0
 2486 0038 05       		.uleb128 0x5
 2487 0039 13       		.uleb128 0x13
 2488 003a 01       		.byte	0x1
 2489 003b 03       		.uleb128 0x3
 2490 003c 0E       		.uleb128 0xe
ARM GAS  C:\Users\z80\AppData\Local\Temp\ccosK0bj.s 			page 45


 2491 003d 0B       		.uleb128 0xb
 2492 003e 0B       		.uleb128 0xb
 2493 003f 3A       		.uleb128 0x3a
 2494 0040 0B       		.uleb128 0xb
 2495 0041 3B       		.uleb128 0x3b
 2496 0042 0B       		.uleb128 0xb
 2497 0043 01       		.uleb128 0x1
 2498 0044 13       		.uleb128 0x13
 2499 0045 00       		.byte	0x0
 2500 0046 00       		.byte	0x0
 2501 0047 06       		.uleb128 0x6
 2502 0048 0D       		.uleb128 0xd
 2503 0049 00       		.byte	0x0
 2504 004a 03       		.uleb128 0x3
 2505 004b 0E       		.uleb128 0xe
 2506 004c 3A       		.uleb128 0x3a
 2507 004d 0B       		.uleb128 0xb
 2508 004e 3B       		.uleb128 0x3b
 2509 004f 0B       		.uleb128 0xb
 2510 0050 49       		.uleb128 0x49
 2511 0051 13       		.uleb128 0x13
 2512 0052 38       		.uleb128 0x38
 2513 0053 0A       		.uleb128 0xa
 2514 0054 00       		.byte	0x0
 2515 0055 00       		.byte	0x0
 2516 0056 07       		.uleb128 0x7
 2517 0057 0D       		.uleb128 0xd
 2518 0058 00       		.byte	0x0
 2519 0059 03       		.uleb128 0x3
 2520 005a 08       		.uleb128 0x8
 2521 005b 3A       		.uleb128 0x3a
 2522 005c 0B       		.uleb128 0xb
 2523 005d 3B       		.uleb128 0x3b
 2524 005e 0B       		.uleb128 0xb
 2525 005f 49       		.uleb128 0x49
 2526 0060 13       		.uleb128 0x13
 2527 0061 38       		.uleb128 0x38
 2528 0062 0A       		.uleb128 0xa
 2529 0063 00       		.byte	0x0
 2530 0064 00       		.byte	0x0
 2531 0065 08       		.uleb128 0x8
 2532 0066 13       		.uleb128 0x13
 2533 0067 01       		.byte	0x1
 2534 0068 0B       		.uleb128 0xb
 2535 0069 0B       		.uleb128 0xb
 2536 006a 3A       		.uleb128 0x3a
 2537 006b 0B       		.uleb128 0xb
 2538 006c 3B       		.uleb128 0x3b
 2539 006d 0B       		.uleb128 0xb
 2540 006e 01       		.uleb128 0x1
 2541 006f 13       		.uleb128 0x13
 2542 0070 00       		.byte	0x0
 2543 0071 00       		.byte	0x0
 2544 0072 09       		.uleb128 0x9
 2545 0073 0F       		.uleb128 0xf
 2546 0074 00       		.byte	0x0
 2547 0075 0B       		.uleb128 0xb
ARM GAS  C:\Users\z80\AppData\Local\Temp\ccosK0bj.s 			page 46


 2548 0076 0B       		.uleb128 0xb
 2549 0077 49       		.uleb128 0x49
 2550 0078 13       		.uleb128 0x13
 2551 0079 00       		.byte	0x0
 2552 007a 00       		.byte	0x0
 2553 007b 0A       		.uleb128 0xa
 2554 007c 0F       		.uleb128 0xf
 2555 007d 00       		.byte	0x0
 2556 007e 0B       		.uleb128 0xb
 2557 007f 0B       		.uleb128 0xb
 2558 0080 00       		.byte	0x0
 2559 0081 00       		.byte	0x0
 2560 0082 0B       		.uleb128 0xb
 2561 0083 0D       		.uleb128 0xd
 2562 0084 00       		.byte	0x0
 2563 0085 03       		.uleb128 0x3
 2564 0086 08       		.uleb128 0x8
 2565 0087 3A       		.uleb128 0x3a
 2566 0088 0B       		.uleb128 0xb
 2567 0089 3B       		.uleb128 0x3b
 2568 008a 05       		.uleb128 0x5
 2569 008b 49       		.uleb128 0x49
 2570 008c 13       		.uleb128 0x13
 2571 008d 38       		.uleb128 0x38
 2572 008e 0A       		.uleb128 0xa
 2573 008f 00       		.byte	0x0
 2574 0090 00       		.byte	0x0
 2575 0091 0C       		.uleb128 0xc
 2576 0092 13       		.uleb128 0x13
 2577 0093 01       		.byte	0x1
 2578 0094 03       		.uleb128 0x3
 2579 0095 0E       		.uleb128 0xe
 2580 0096 0B       		.uleb128 0xb
 2581 0097 0B       		.uleb128 0xb
 2582 0098 3A       		.uleb128 0x3a
 2583 0099 0B       		.uleb128 0xb
 2584 009a 3B       		.uleb128 0x3b
 2585 009b 05       		.uleb128 0x5
 2586 009c 01       		.uleb128 0x1
 2587 009d 13       		.uleb128 0x13
 2588 009e 00       		.byte	0x0
 2589 009f 00       		.byte	0x0
 2590 00a0 0D       		.uleb128 0xd
 2591 00a1 35       		.uleb128 0x35
 2592 00a2 00       		.byte	0x0
 2593 00a3 49       		.uleb128 0x49
 2594 00a4 13       		.uleb128 0x13
 2595 00a5 00       		.byte	0x0
 2596 00a6 00       		.byte	0x0
 2597 00a7 0E       		.uleb128 0xe
 2598 00a8 24       		.uleb128 0x24
 2599 00a9 00       		.byte	0x0
 2600 00aa 0B       		.uleb128 0xb
 2601 00ab 0B       		.uleb128 0xb
 2602 00ac 3E       		.uleb128 0x3e
 2603 00ad 0B       		.uleb128 0xb
 2604 00ae 00       		.byte	0x0
ARM GAS  C:\Users\z80\AppData\Local\Temp\ccosK0bj.s 			page 47


 2605 00af 00       		.byte	0x0
 2606 00b0 0F       		.uleb128 0xf
 2607 00b1 17       		.uleb128 0x17
 2608 00b2 01       		.byte	0x1
 2609 00b3 0B       		.uleb128 0xb
 2610 00b4 0B       		.uleb128 0xb
 2611 00b5 3A       		.uleb128 0x3a
 2612 00b6 0B       		.uleb128 0xb
 2613 00b7 3B       		.uleb128 0x3b
 2614 00b8 0B       		.uleb128 0xb
 2615 00b9 01       		.uleb128 0x1
 2616 00ba 13       		.uleb128 0x13
 2617 00bb 00       		.byte	0x0
 2618 00bc 00       		.byte	0x0
 2619 00bd 10       		.uleb128 0x10
 2620 00be 0D       		.uleb128 0xd
 2621 00bf 00       		.byte	0x0
 2622 00c0 03       		.uleb128 0x3
 2623 00c1 0E       		.uleb128 0xe
 2624 00c2 3A       		.uleb128 0x3a
 2625 00c3 0B       		.uleb128 0xb
 2626 00c4 3B       		.uleb128 0x3b
 2627 00c5 0B       		.uleb128 0xb
 2628 00c6 49       		.uleb128 0x49
 2629 00c7 13       		.uleb128 0x13
 2630 00c8 00       		.byte	0x0
 2631 00c9 00       		.byte	0x0
 2632 00ca 11       		.uleb128 0x11
 2633 00cb 26       		.uleb128 0x26
 2634 00cc 00       		.byte	0x0
 2635 00cd 49       		.uleb128 0x49
 2636 00ce 13       		.uleb128 0x13
 2637 00cf 00       		.byte	0x0
 2638 00d0 00       		.byte	0x0
 2639 00d1 12       		.uleb128 0x12
 2640 00d2 13       		.uleb128 0x13
 2641 00d3 01       		.byte	0x1
 2642 00d4 0B       		.uleb128 0xb
 2643 00d5 0B       		.uleb128 0xb
 2644 00d6 3A       		.uleb128 0x3a
 2645 00d7 0B       		.uleb128 0xb
 2646 00d8 3B       		.uleb128 0x3b
 2647 00d9 05       		.uleb128 0x5
 2648 00da 01       		.uleb128 0x1
 2649 00db 13       		.uleb128 0x13
 2650 00dc 00       		.byte	0x0
 2651 00dd 00       		.byte	0x0
 2652 00de 13       		.uleb128 0x13
 2653 00df 0D       		.uleb128 0xd
 2654 00e0 00       		.byte	0x0
 2655 00e1 03       		.uleb128 0x3
 2656 00e2 0E       		.uleb128 0xe
 2657 00e3 3A       		.uleb128 0x3a
 2658 00e4 0B       		.uleb128 0xb
 2659 00e5 3B       		.uleb128 0x3b
 2660 00e6 05       		.uleb128 0x5
 2661 00e7 49       		.uleb128 0x49
ARM GAS  C:\Users\z80\AppData\Local\Temp\ccosK0bj.s 			page 48


 2662 00e8 13       		.uleb128 0x13
 2663 00e9 38       		.uleb128 0x38
 2664 00ea 0A       		.uleb128 0xa
 2665 00eb 00       		.byte	0x0
 2666 00ec 00       		.byte	0x0
 2667 00ed 14       		.uleb128 0x14
 2668 00ee 16       		.uleb128 0x16
 2669 00ef 00       		.byte	0x0
 2670 00f0 03       		.uleb128 0x3
 2671 00f1 0E       		.uleb128 0xe
 2672 00f2 3A       		.uleb128 0x3a
 2673 00f3 0B       		.uleb128 0xb
 2674 00f4 3B       		.uleb128 0x3b
 2675 00f5 05       		.uleb128 0x5
 2676 00f6 49       		.uleb128 0x49
 2677 00f7 13       		.uleb128 0x13
 2678 00f8 00       		.byte	0x0
 2679 00f9 00       		.byte	0x0
 2680 00fa 15       		.uleb128 0x15
 2681 00fb 15       		.uleb128 0x15
 2682 00fc 01       		.byte	0x1
 2683 00fd 27       		.uleb128 0x27
 2684 00fe 0C       		.uleb128 0xc
 2685 00ff 01       		.uleb128 0x1
 2686 0100 13       		.uleb128 0x13
 2687 0101 00       		.byte	0x0
 2688 0102 00       		.byte	0x0
 2689 0103 16       		.uleb128 0x16
 2690 0104 05       		.uleb128 0x5
 2691 0105 00       		.byte	0x0
 2692 0106 49       		.uleb128 0x49
 2693 0107 13       		.uleb128 0x13
 2694 0108 00       		.byte	0x0
 2695 0109 00       		.byte	0x0
 2696 010a 17       		.uleb128 0x17
 2697 010b 04       		.uleb128 0x4
 2698 010c 01       		.byte	0x1
 2699 010d 0B       		.uleb128 0xb
 2700 010e 0B       		.uleb128 0xb
 2701 010f 3A       		.uleb128 0x3a
 2702 0110 0B       		.uleb128 0xb
 2703 0111 3B       		.uleb128 0x3b
 2704 0112 0B       		.uleb128 0xb
 2705 0113 01       		.uleb128 0x1
 2706 0114 13       		.uleb128 0x13
 2707 0115 00       		.byte	0x0
 2708 0116 00       		.byte	0x0
 2709 0117 18       		.uleb128 0x18
 2710 0118 28       		.uleb128 0x28
 2711 0119 00       		.byte	0x0
 2712 011a 03       		.uleb128 0x3
 2713 011b 0E       		.uleb128 0xe
 2714 011c 1C       		.uleb128 0x1c
 2715 011d 0D       		.uleb128 0xd
 2716 011e 00       		.byte	0x0
 2717 011f 00       		.byte	0x0
 2718 0120 19       		.uleb128 0x19
ARM GAS  C:\Users\z80\AppData\Local\Temp\ccosK0bj.s 			page 49


 2719 0121 2E       		.uleb128 0x2e
 2720 0122 01       		.byte	0x1
 2721 0123 03       		.uleb128 0x3
 2722 0124 0E       		.uleb128 0xe
 2723 0125 3A       		.uleb128 0x3a
 2724 0126 0B       		.uleb128 0xb
 2725 0127 3B       		.uleb128 0x3b
 2726 0128 0B       		.uleb128 0xb
 2727 0129 27       		.uleb128 0x27
 2728 012a 0C       		.uleb128 0xc
 2729 012b 11       		.uleb128 0x11
 2730 012c 01       		.uleb128 0x1
 2731 012d 12       		.uleb128 0x12
 2732 012e 01       		.uleb128 0x1
 2733 012f 40       		.uleb128 0x40
 2734 0130 06       		.uleb128 0x6
 2735 0131 01       		.uleb128 0x1
 2736 0132 13       		.uleb128 0x13
 2737 0133 00       		.byte	0x0
 2738 0134 00       		.byte	0x0
 2739 0135 1A       		.uleb128 0x1a
 2740 0136 05       		.uleb128 0x5
 2741 0137 00       		.byte	0x0
 2742 0138 03       		.uleb128 0x3
 2743 0139 0E       		.uleb128 0xe
 2744 013a 3A       		.uleb128 0x3a
 2745 013b 0B       		.uleb128 0xb
 2746 013c 3B       		.uleb128 0x3b
 2747 013d 0B       		.uleb128 0xb
 2748 013e 49       		.uleb128 0x49
 2749 013f 13       		.uleb128 0x13
 2750 0140 02       		.uleb128 0x2
 2751 0141 0A       		.uleb128 0xa
 2752 0142 00       		.byte	0x0
 2753 0143 00       		.byte	0x0
 2754 0144 1B       		.uleb128 0x1b
 2755 0145 0B       		.uleb128 0xb
 2756 0146 01       		.byte	0x1
 2757 0147 11       		.uleb128 0x11
 2758 0148 01       		.uleb128 0x1
 2759 0149 12       		.uleb128 0x12
 2760 014a 01       		.uleb128 0x1
 2761 014b 01       		.uleb128 0x1
 2762 014c 13       		.uleb128 0x13
 2763 014d 00       		.byte	0x0
 2764 014e 00       		.byte	0x0
 2765 014f 1C       		.uleb128 0x1c
 2766 0150 34       		.uleb128 0x34
 2767 0151 00       		.byte	0x0
 2768 0152 03       		.uleb128 0x3
 2769 0153 08       		.uleb128 0x8
 2770 0154 3A       		.uleb128 0x3a
 2771 0155 0B       		.uleb128 0xb
 2772 0156 3B       		.uleb128 0x3b
 2773 0157 0B       		.uleb128 0xb
 2774 0158 49       		.uleb128 0x49
 2775 0159 13       		.uleb128 0x13
ARM GAS  C:\Users\z80\AppData\Local\Temp\ccosK0bj.s 			page 50


 2776 015a 02       		.uleb128 0x2
 2777 015b 0A       		.uleb128 0xa
 2778 015c 00       		.byte	0x0
 2779 015d 00       		.byte	0x0
 2780 015e 1D       		.uleb128 0x1d
 2781 015f 34       		.uleb128 0x34
 2782 0160 00       		.byte	0x0
 2783 0161 03       		.uleb128 0x3
 2784 0162 0E       		.uleb128 0xe
 2785 0163 3A       		.uleb128 0x3a
 2786 0164 0B       		.uleb128 0xb
 2787 0165 3B       		.uleb128 0x3b
 2788 0166 0B       		.uleb128 0xb
 2789 0167 49       		.uleb128 0x49
 2790 0168 13       		.uleb128 0x13
 2791 0169 02       		.uleb128 0x2
 2792 016a 0A       		.uleb128 0xa
 2793 016b 00       		.byte	0x0
 2794 016c 00       		.byte	0x0
 2795 016d 1E       		.uleb128 0x1e
 2796 016e 0B       		.uleb128 0xb
 2797 016f 01       		.byte	0x1
 2798 0170 11       		.uleb128 0x11
 2799 0171 01       		.uleb128 0x1
 2800 0172 12       		.uleb128 0x12
 2801 0173 01       		.uleb128 0x1
 2802 0174 00       		.byte	0x0
 2803 0175 00       		.byte	0x0
 2804 0176 1F       		.uleb128 0x1f
 2805 0177 2E       		.uleb128 0x2e
 2806 0178 00       		.byte	0x0
 2807 0179 3F       		.uleb128 0x3f
 2808 017a 0C       		.uleb128 0xc
 2809 017b 03       		.uleb128 0x3
 2810 017c 0E       		.uleb128 0xe
 2811 017d 3A       		.uleb128 0x3a
 2812 017e 0B       		.uleb128 0xb
 2813 017f 3B       		.uleb128 0x3b
 2814 0180 0B       		.uleb128 0xb
 2815 0181 27       		.uleb128 0x27
 2816 0182 0C       		.uleb128 0xc
 2817 0183 11       		.uleb128 0x11
 2818 0184 01       		.uleb128 0x1
 2819 0185 12       		.uleb128 0x12
 2820 0186 01       		.uleb128 0x1
 2821 0187 40       		.uleb128 0x40
 2822 0188 06       		.uleb128 0x6
 2823 0189 00       		.byte	0x0
 2824 018a 00       		.byte	0x0
 2825 018b 20       		.uleb128 0x20
 2826 018c 2E       		.uleb128 0x2e
 2827 018d 01       		.byte	0x1
 2828 018e 3F       		.uleb128 0x3f
 2829 018f 0C       		.uleb128 0xc
 2830 0190 03       		.uleb128 0x3
 2831 0191 0E       		.uleb128 0xe
 2832 0192 3A       		.uleb128 0x3a
ARM GAS  C:\Users\z80\AppData\Local\Temp\ccosK0bj.s 			page 51


 2833 0193 0B       		.uleb128 0xb
 2834 0194 3B       		.uleb128 0x3b
 2835 0195 0B       		.uleb128 0xb
 2836 0196 27       		.uleb128 0x27
 2837 0197 0C       		.uleb128 0xc
 2838 0198 11       		.uleb128 0x11
 2839 0199 01       		.uleb128 0x1
 2840 019a 12       		.uleb128 0x12
 2841 019b 01       		.uleb128 0x1
 2842 019c 40       		.uleb128 0x40
 2843 019d 06       		.uleb128 0x6
 2844 019e 01       		.uleb128 0x1
 2845 019f 13       		.uleb128 0x13
 2846 01a0 00       		.byte	0x0
 2847 01a1 00       		.byte	0x0
 2848 01a2 21       		.uleb128 0x21
 2849 01a3 34       		.uleb128 0x34
 2850 01a4 00       		.byte	0x0
 2851 01a5 03       		.uleb128 0x3
 2852 01a6 0E       		.uleb128 0xe
 2853 01a7 3A       		.uleb128 0x3a
 2854 01a8 0B       		.uleb128 0xb
 2855 01a9 3B       		.uleb128 0x3b
 2856 01aa 05       		.uleb128 0x5
 2857 01ab 49       		.uleb128 0x49
 2858 01ac 13       		.uleb128 0x13
 2859 01ad 3F       		.uleb128 0x3f
 2860 01ae 0C       		.uleb128 0xc
 2861 01af 3C       		.uleb128 0x3c
 2862 01b0 0C       		.uleb128 0xc
 2863 01b1 00       		.byte	0x0
 2864 01b2 00       		.byte	0x0
 2865 01b3 22       		.uleb128 0x22
 2866 01b4 01       		.uleb128 0x1
 2867 01b5 01       		.byte	0x1
 2868 01b6 49       		.uleb128 0x49
 2869 01b7 13       		.uleb128 0x13
 2870 01b8 01       		.uleb128 0x1
 2871 01b9 13       		.uleb128 0x13
 2872 01ba 00       		.byte	0x0
 2873 01bb 00       		.byte	0x0
 2874 01bc 23       		.uleb128 0x23
 2875 01bd 21       		.uleb128 0x21
 2876 01be 00       		.byte	0x0
 2877 01bf 49       		.uleb128 0x49
 2878 01c0 13       		.uleb128 0x13
 2879 01c1 2F       		.uleb128 0x2f
 2880 01c2 0B       		.uleb128 0xb
 2881 01c3 00       		.byte	0x0
 2882 01c4 00       		.byte	0x0
 2883 01c5 24       		.uleb128 0x24
 2884 01c6 34       		.uleb128 0x34
 2885 01c7 00       		.byte	0x0
 2886 01c8 03       		.uleb128 0x3
 2887 01c9 0E       		.uleb128 0xe
 2888 01ca 3A       		.uleb128 0x3a
 2889 01cb 0B       		.uleb128 0xb
ARM GAS  C:\Users\z80\AppData\Local\Temp\ccosK0bj.s 			page 52


 2890 01cc 3B       		.uleb128 0x3b
 2891 01cd 0B       		.uleb128 0xb
 2892 01ce 49       		.uleb128 0x49
 2893 01cf 13       		.uleb128 0x13
 2894 01d0 3F       		.uleb128 0x3f
 2895 01d1 0C       		.uleb128 0xc
 2896 01d2 02       		.uleb128 0x2
 2897 01d3 0A       		.uleb128 0xa
 2898 01d4 00       		.byte	0x0
 2899 01d5 00       		.byte	0x0
 2900 01d6 00       		.byte	0x0
 2901              		.section	.debug_pubnames,"",%progbits
 2902 0000 85000000 		.4byte	0x85
 2903 0004 0200     		.2byte	0x2
 2904 0006 00000000 		.4byte	.Ldebug_info0
 2905 000a 970B0000 		.4byte	0xb97
 2906 000e 310A0000 		.4byte	0xa31
 2907 0012 6164635F 		.ascii	"adc_lld_init\000"
 2907      6C6C645F 
 2907      696E6974 
 2907      00
 2908 001f 460A0000 		.4byte	0xa46
 2909 0023 6164635F 		.ascii	"adc_lld_start\000"
 2909      6C6C645F 
 2909      73746172 
 2909      7400
 2910 0031 840A0000 		.4byte	0xa84
 2911 0035 6164635F 		.ascii	"adc_lld_stop\000"
 2911      6C6C645F 
 2911      73746F70 
 2911      00
 2912 0042 AC0A0000 		.4byte	0xaac
 2913 0046 6164635F 		.ascii	"adc_lld_start_conversion\000"
 2913      6C6C645F 
 2913      73746172 
 2913      745F636F 
 2913      6E766572 
 2914 005f FC0A0000 		.4byte	0xafc
 2915 0063 6164635F 		.ascii	"adc_lld_stop_conversion\000"
 2915      6C6C645F 
 2915      73746F70 
 2915      5F636F6E 
 2915      76657273 
 2916 007b 840B0000 		.4byte	0xb84
 2917 007f 41444344 		.ascii	"ADCD1\000"
 2917      3100
 2918 0085 00000000 		.4byte	0x0
 2919              		.section	.debug_pubtypes,"",%progbits
 2920 0000 3F020000 		.4byte	0x23f
 2921 0004 0200     		.2byte	0x2
 2922 0006 00000000 		.4byte	.Ldebug_info0
 2923 000a 970B0000 		.4byte	0xb97
 2924 000e 30000000 		.4byte	0x30
 2925 0012 73697A65 		.ascii	"size_t\000"
 2925      5F7400
 2926 0019 49000000 		.4byte	0x49
 2927 001d 75696E74 		.ascii	"uint8_t\000"
ARM GAS  C:\Users\z80\AppData\Local\Temp\ccosK0bj.s 			page 53


 2927      385F7400 
 2928 0025 62000000 		.4byte	0x62
 2929 0029 75696E74 		.ascii	"uint16_t\000"
 2929      31365F74 
 2929      00
 2930 0032 74000000 		.4byte	0x74
 2931 0036 696E7433 		.ascii	"int32_t\000"
 2931      325F7400 
 2932 003e 86000000 		.4byte	0x86
 2933 0042 75696E74 		.ascii	"uint32_t\000"
 2933      33325F74 
 2933      00
 2934 004b 9F000000 		.4byte	0x9f
 2935 004f 75696E74 		.ascii	"uint64_t\000"
 2935      36345F74 
 2935      00
 2936 0058 B1000000 		.4byte	0xb1
 2937 005c 626F6F6C 		.ascii	"bool_t\000"
 2937      5F7400
 2938 0063 BC000000 		.4byte	0xbc
 2939 0067 746D6F64 		.ascii	"tmode_t\000"
 2939      655F7400 
 2940 006f C7000000 		.4byte	0xc7
 2941 0073 74737461 		.ascii	"tstate_t\000"
 2941      74655F74 
 2941      00
 2942 007c D2000000 		.4byte	0xd2
 2943 0080 74707269 		.ascii	"tprio_t\000"
 2943      6F5F7400 
 2944 0088 DD000000 		.4byte	0xdd
 2945 008c 6D73675F 		.ascii	"msg_t\000"
 2945      7400
 2946 0092 E8000000 		.4byte	0xe8
 2947 0096 6576656E 		.ascii	"eventmask_t\000"
 2947      746D6173 
 2947      6B5F7400 
 2948 00a2 F3000000 		.4byte	0xf3
 2949 00a6 73797374 		.ascii	"systime_t\000"
 2949      696D655F 
 2949      7400
 2950 00b0 FE000000 		.4byte	0xfe
 2951 00b4 54687265 		.ascii	"Thread\000"
 2951      616400
 2952 00bb 3D020000 		.4byte	0x23d
 2953 00bf 54687265 		.ascii	"ThreadsQueue\000"
 2953      61647351 
 2953      75657565 
 2953      00
 2954 00cc 5F020000 		.4byte	0x25f
 2955 00d0 54687265 		.ascii	"ThreadsList\000"
 2955      6164734C 
 2955      69737400 
 2956 00dc 6A020000 		.4byte	0x26a
 2957 00e0 72656761 		.ascii	"regarm_t\000"
 2957      726D5F74 
 2957      00
 2958 00e9 77020000 		.4byte	0x277
ARM GAS  C:\Users\z80\AppData\Local\Temp\ccosK0bj.s 			page 54


 2959 00ed 73746B61 		.ascii	"stkalign_t\000"
 2959      6C69676E 
 2959      5F7400
 2960 00f8 82020000 		.4byte	0x282
 2961 00fc 696E7463 		.ascii	"intctx\000"
 2961      747800
 2962 0103 0F030000 		.4byte	0x30f
 2963 0107 636F6E74 		.ascii	"context\000"
 2963      65787400 
 2964 010f 3F030000 		.4byte	0x33f
 2965 0113 4D757465 		.ascii	"Mutex\000"
 2965      7800
 2966 0119 7C030000 		.4byte	0x37c
 2967 011d 4D757465 		.ascii	"Mutex\000"
 2967      7800
 2968 0123 09010000 		.4byte	0x109
 2969 0127 54687265 		.ascii	"Thread\000"
 2969      616400
 2970 012e 13050000 		.4byte	0x513
 2971 0132 4144435F 		.ascii	"ADC_TypeDef\000"
 2971      54797065 
 2971      44656600 
 2972 013e 65050000 		.4byte	0x565
 2973 0142 444D415F 		.ascii	"DMA_Channel_TypeDef\000"
 2973      4368616E 
 2973      6E656C5F 
 2973      54797065 
 2973      44656600 
 2974 0156 10060000 		.4byte	0x610
 2975 015a 5243435F 		.ascii	"RCC_TypeDef\000"
 2975      54797065 
 2975      44656600 
 2976 0166 77060000 		.4byte	0x677
 2977 016a 73746D33 		.ascii	"stm32_dma_stream_t\000"
 2977      325F646D 
 2977      615F7374 
 2977      7265616D 
 2977      5F7400
 2978 017d 82060000 		.4byte	0x682
 2979 0181 73746D33 		.ascii	"stm32_dmaisr_t\000"
 2979      325F646D 
 2979      61697372 
 2979      5F7400
 2980 0190 D1060000 		.4byte	0x6d1
 2981 0194 61646373 		.ascii	"adcstate_t\000"
 2981      74617465 
 2981      5F7400
 2982 019f DC060000 		.4byte	0x6dc
 2983 01a3 61646373 		.ascii	"adcsample_t\000"
 2983      616D706C 
 2983      655F7400 
 2984 01af E7060000 		.4byte	0x6e7
 2985 01b3 6164635F 		.ascii	"adc_channels_num_t\000"
 2985      6368616E 
 2985      6E656C73 
 2985      5F6E756D 
 2985      5F7400
ARM GAS  C:\Users\z80\AppData\Local\Temp\ccosK0bj.s 			page 55


 2986 01c6 01070000 		.4byte	0x701
 2987 01ca 61646365 		.ascii	"adcerror_t\000"
 2987      72726F72 
 2987      5F7400
 2988 01d5 0C070000 		.4byte	0x70c
 2989 01d9 41444344 		.ascii	"ADCDriver\000"
 2989      72697665 
 2989      7200
 2990 01e3 BB070000 		.4byte	0x7bb
 2991 01e7 61646363 		.ascii	"adccallback_t\000"
 2991      616C6C62 
 2991      61636B5F 
 2991      7400
 2992 01f5 EE070000 		.4byte	0x7ee
 2993 01f9 61646365 		.ascii	"adcerrorcallback_t\000"
 2993      72726F72 
 2993      63616C6C 
 2993      6261636B 
 2993      5F7400
 2994 020c B3080000 		.4byte	0x8b3
 2995 0210 41444343 		.ascii	"ADCConversionGroup\000"
 2995      6F6E7665 
 2995      7273696F 
 2995      6E47726F 
 2995      757000
 2996 0223 D7080000 		.4byte	0x8d7
 2997 0227 41444343 		.ascii	"ADCConfig\000"
 2997      6F6E6669 
 2997      6700
 2998 0231 17070000 		.4byte	0x717
 2999 0235 41444344 		.ascii	"ADCDriver\000"
 2999      72697665 
 2999      7200
 3000 023f 00000000 		.4byte	0x0
 3001              		.section	.debug_aranges,"",%progbits
 3002 0000 44000000 		.4byte	0x44
 3003 0004 0200     		.2byte	0x2
 3004 0006 00000000 		.4byte	.Ldebug_info0
 3005 000a 04       		.byte	0x4
 3006 000b 00       		.byte	0x0
 3007 000c 0000     		.2byte	0x0
 3008 000e 0000     		.2byte	0x0
 3009 0010 00000000 		.4byte	.LFB62
 3010 0014 F2010000 		.4byte	.LFE62-.LFB62
 3011 0018 00000000 		.4byte	.LFB63
 3012 001c E0000000 		.4byte	.LFE63-.LFB63
 3013 0020 00000000 		.4byte	.LFB64
 3014 0024 8C000000 		.4byte	.LFE64-.LFB64
 3015 0028 00000000 		.4byte	.LFB65
 3016 002c 5E000000 		.4byte	.LFE65-.LFB65
 3017 0030 00000000 		.4byte	.LFB66
 3018 0034 E2000000 		.4byte	.LFE66-.LFB66
 3019 0038 00000000 		.4byte	.LFB67
 3020 003c 3C000000 		.4byte	.LFE67-.LFB67
 3021 0040 00000000 		.4byte	0x0
 3022 0044 00000000 		.4byte	0x0
 3023              		.section	.debug_ranges,"",%progbits
ARM GAS  C:\Users\z80\AppData\Local\Temp\ccosK0bj.s 			page 56


 3024              	.Ldebug_ranges0:
 3025 0000 00000000 		.4byte	.LFB62
 3026 0004 F2010000 		.4byte	.LFE62
 3027 0008 00000000 		.4byte	.LFB63
 3028 000c E0000000 		.4byte	.LFE63
 3029 0010 00000000 		.4byte	.LFB64
 3030 0014 8C000000 		.4byte	.LFE64
 3031 0018 00000000 		.4byte	.LFB65
 3032 001c 5E000000 		.4byte	.LFE65
 3033 0020 00000000 		.4byte	.LFB66
 3034 0024 E2000000 		.4byte	.LFE66
 3035 0028 00000000 		.4byte	.LFB67
 3036 002c 3C000000 		.4byte	.LFE67
 3037 0030 00000000 		.4byte	0x0
 3038 0034 00000000 		.4byte	0x0
 3039              		.section	.debug_str,"MS",%progbits,1
 3040              	.LASF2:
 3041 0000 73697A65 		.ascii	"size_t\000"
 3041      5F7400
 3042              	.LASF50:
 3043 0007 7264796D 		.ascii	"rdymsg\000"
 3043      736700
 3044              	.LASF109:
 3045 000e 646D616D 		.ascii	"dmamode\000"
 3045      6F646500 
 3046              	.LASF95:
 3047 0016 61646373 		.ascii	"adcstate_t\000"
 3047      74617465 
 3047      5F7400
 3048              	.LASF86:
 3049 0021 76656374 		.ascii	"vector\000"
 3049      6F7200
 3050              	.LASF129:
 3051 0028 6164635F 		.ascii	"adc_lld_stop\000"
 3051      6C6C645F 
 3051      73746F70 
 3051      00
 3052              	.LASF14:
 3053 0035 6C6F6E67 		.ascii	"long long unsigned int\000"
 3053      206C6F6E 
 3053      6720756E 
 3053      7369676E 
 3053      65642069 
 3054              	.LASF51:
 3055 004c 65786974 		.ascii	"exitcode\000"
 3055      636F6465 
 3055      00
 3056              	.LASF89:
 3057 0055 4144435F 		.ascii	"ADC_UNINIT\000"
 3057      554E494E 
 3057      495400
 3058              	.LASF134:
 3059 0060 5F73746D 		.ascii	"_stm32_dma_streams\000"
 3059      33325F64 
 3059      6D615F73 
 3059      74726561 
 3059      6D7300
ARM GAS  C:\Users\z80\AppData\Local\Temp\ccosK0bj.s 			page 57


 3060              	.LASF133:
 3061 0073 49544D5F 		.ascii	"ITM_RxBuffer\000"
 3061      52784275 
 3061      66666572 
 3061      00
 3062              	.LASF25:
 3063 0080 705F7072 		.ascii	"p_prio\000"
 3063      696F00
 3064              	.LASF64:
 3065 0087 4A535152 		.ascii	"JSQR\000"
 3065      00
 3066              	.LASF12:
 3067 008c 6C6F6E67 		.ascii	"long long int\000"
 3067      206C6F6E 
 3067      6720696E 
 3067      7400
 3068              	.LASF1:
 3069 009a 7369676E 		.ascii	"signed char\000"
 3069      65642063 
 3069      68617200 
 3070              	.LASF31:
 3071 00a6 705F7374 		.ascii	"p_state\000"
 3071      61746500 
 3072              	.LASF15:
 3073 00ae 626F6F6C 		.ascii	"bool_t\000"
 3073      5F7400
 3074              	.LASF47:
 3075 00b5 6D5F7175 		.ascii	"m_queue\000"
 3075      65756500 
 3076              	.LASF99:
 3077 00bd 61646365 		.ascii	"adcerror_t\000"
 3077      72726F72 
 3077      5F7400
 3078              	.LASF108:
 3079 00c8 646D6173 		.ascii	"dmastp\000"
 3079      747000
 3080              	.LASF101:
 3081 00cf 73746174 		.ascii	"state\000"
 3081      6500
 3082              	.LASF112:
 3083 00d5 63697263 		.ascii	"circular\000"
 3083      756C6172 
 3083      00
 3084              	.LASF9:
 3085 00de 6C6F6E67 		.ascii	"long int\000"
 3085      20696E74 
 3085      00
 3086              	.LASF98:
 3087 00e7 4144435F 		.ascii	"ADC_ERR_DMAFAILURE\000"
 3087      4552525F 
 3087      444D4146 
 3087      41494C55 
 3087      524500
 3088              	.LASF130:
 3089 00fa 6164635F 		.ascii	"adc_lld_start_conversion\000"
 3089      6C6C645F 
 3089      73746172 
ARM GAS  C:\Users\z80\AppData\Local\Temp\ccosK0bj.s 			page 58


 3089      745F636F 
 3089      6E766572 
 3090              	.LASF111:
 3091 0113 61646365 		.ascii	"adcerrorcallback_t\000"
 3091      72726F72 
 3091      63616C6C 
 3091      6261636B 
 3091      5F7400
 3092              	.LASF17:
 3093 0126 74737461 		.ascii	"tstate_t\000"
 3093      74655F74 
 3093      00
 3094              	.LASF106:
 3095 012f 74687265 		.ascii	"thread\000"
 3095      616400
 3096              	.LASF6:
 3097 0136 75696E74 		.ascii	"uint16_t\000"
 3097      31365F74 
 3097      00
 3098              	.LASF33:
 3099 013f 705F7469 		.ascii	"p_time\000"
 3099      6D6500
 3100              	.LASF69:
 3101 0146 4144435F 		.ascii	"ADC_TypeDef\000"
 3101      54797065 
 3101      44656600 
 3102              	.LASF27:
 3103 0152 705F6E65 		.ascii	"p_newer\000"
 3103      77657200 
 3104              	.LASF114:
 3105 015a 656E645F 		.ascii	"end_cb\000"
 3105      636200
 3106              	.LASF110:
 3107 0161 61646363 		.ascii	"adccallback_t\000"
 3107      616C6C62 
 3107      61636B5F 
 3107      7400
 3108              	.LASF96:
 3109 016f 61646373 		.ascii	"adcsample_t\000"
 3109      616D706C 
 3109      655F7400 
 3110              	.LASF42:
 3111 017b 72656761 		.ascii	"regarm_t\000"
 3111      726D5F74 
 3111      00
 3112              	.LASF85:
 3113 0184 73656C66 		.ascii	"selfindex\000"
 3113      696E6465 
 3113      7800
 3114              	.LASF122:
 3115 018e 64756D6D 		.ascii	"dummy\000"
 3115      7900
 3116              	.LASF22:
 3117 0194 54687265 		.ascii	"Thread\000"
 3117      616400
 3118              	.LASF75:
 3119 019b 41504232 		.ascii	"APB2RSTR\000"
ARM GAS  C:\Users\z80\AppData\Local\Temp\ccosK0bj.s 			page 59


 3119      52535452 
 3119      00
 3120              	.LASF92:
 3121 01a4 4144435F 		.ascii	"ADC_ACTIVE\000"
 3121      41435449 
 3121      564500
 3122              	.LASF30:
 3123 01af 705F7374 		.ascii	"p_stklimit\000"
 3123      6B6C696D 
 3123      697400
 3124              	.LASF0:
 3125 01ba 756E7369 		.ascii	"unsigned int\000"
 3125      676E6564 
 3125      20696E74 
 3125      00
 3126              	.LASF49:
 3127 01c7 6D5F6E65 		.ascii	"m_next\000"
 3127      787400
 3128              	.LASF71:
 3129 01ce 43504152 		.ascii	"CPAR\000"
 3129      00
 3130              	.LASF88:
 3131 01d3 73746D33 		.ascii	"stm32_dmaisr_t\000"
 3131      325F646D 
 3131      61697372 
 3131      5F7400
 3132              	.LASF35:
 3133 01e2 705F6D73 		.ascii	"p_msgqueue\000"
 3133      67717565 
 3133      756500
 3134              	.LASF100:
 3135 01ed 41444344 		.ascii	"ADCDriver\000"
 3135      72697665 
 3135      7200
 3136              	.LASF81:
 3137 01f7 5243435F 		.ascii	"RCC_TypeDef\000"
 3137      54797065 
 3137      44656600 
 3138              	.LASF124:
 3139 0203 61646370 		.ascii	"adcp\000"
 3139      00
 3140              	.LASF73:
 3141 0208 444D415F 		.ascii	"DMA_Channel_TypeDef\000"
 3141      4368616E 
 3141      6E656C5F 
 3141      54797065 
 3141      44656600 
 3142              	.LASF84:
 3143 021c 69736869 		.ascii	"ishift\000"
 3143      667400
 3144              	.LASF7:
 3145 0223 73686F72 		.ascii	"short unsigned int\000"
 3145      7420756E 
 3145      7369676E 
 3145      65642069 
 3145      6E7400
 3146              	.LASF91:
ARM GAS  C:\Users\z80\AppData\Local\Temp\ccosK0bj.s 			page 60


 3147 0236 4144435F 		.ascii	"ADC_READY\000"
 3147      52454144 
 3147      5900
 3148              	.LASF104:
 3149 0240 64657074 		.ascii	"depth\000"
 3149      6800
 3150              	.LASF19:
 3151 0246 6D73675F 		.ascii	"msg_t\000"
 3151      7400
 3152              	.LASF16:
 3153 024c 746D6F64 		.ascii	"tmode_t\000"
 3153      655F7400 
 3154              	.LASF113:
 3155 0254 6E756D5F 		.ascii	"num_channels\000"
 3155      6368616E 
 3155      6E656C73 
 3155      00
 3156              	.LASF41:
 3157 0261 54687265 		.ascii	"ThreadsList\000"
 3157      6164734C 
 3157      69737400 
 3158              	.LASF20:
 3159 026d 6576656E 		.ascii	"eventmask_t\000"
 3159      746D6173 
 3159      6B5F7400 
 3160              	.LASF5:
 3161 0279 73686F72 		.ascii	"short int\000"
 3161      7420696E 
 3161      7400
 3162              	.LASF126:
 3163 0283 68616C66 		.ascii	"half\000"
 3163      00
 3164              	.LASF72:
 3165 0288 434D4152 		.ascii	"CMAR\000"
 3165      00
 3166              	.LASF43:
 3167 028d 73746B61 		.ascii	"stkalign_t\000"
 3167      6C69676E 
 3167      5F7400
 3168              	.LASF105:
 3169 0298 67727070 		.ascii	"grpp\000"
 3169      00
 3170              	.LASF57:
 3171 029d 4A4F4652 		.ascii	"JOFR1\000"
 3171      3100
 3172              	.LASF58:
 3173 02a3 4A4F4652 		.ascii	"JOFR2\000"
 3173      3200
 3174              	.LASF140:
 3175 02a9 6164635F 		.ascii	"adc_lld_init\000"
 3175      6C6C645F 
 3175      696E6974 
 3175      00
 3176              	.LASF103:
 3177 02b6 73616D70 		.ascii	"samples\000"
 3177      6C657300 
 3178              	.LASF137:
ARM GAS  C:\Users\z80\AppData\Local\Temp\ccosK0bj.s 			page 61


 3179 02be 2E2E2F63 		.ascii	"../chibios_2.4.x/os/hal/platforms/STM32F1xx/adc_lld"
 3179      68696269 
 3179      6F735F32 
 3179      2E342E78 
 3179      2F6F732F 
 3180 02f1 2E6300   		.ascii	".c\000"
 3181              	.LASF46:
 3182 02f4 4D757465 		.ascii	"Mutex\000"
 3182      7800
 3183              	.LASF23:
 3184 02fa 705F6E65 		.ascii	"p_next\000"
 3184      787400
 3185              	.LASF90:
 3186 0301 4144435F 		.ascii	"ADC_STOP\000"
 3186      53544F50 
 3186      00
 3187              	.LASF13:
 3188 030a 75696E74 		.ascii	"uint64_t\000"
 3188      36345F74 
 3188      00
 3189              	.LASF28:
 3190 0313 705F6F6C 		.ascii	"p_older\000"
 3190      64657200 
 3191              	.LASF40:
 3192 031b 54687265 		.ascii	"ThreadsQueue\000"
 3192      61647351 
 3192      75657565 
 3192      00
 3193              	.LASF55:
 3194 0328 534D5052 		.ascii	"SMPR1\000"
 3194      3100
 3195              	.LASF56:
 3196 032e 534D5052 		.ascii	"SMPR2\000"
 3196      3200
 3197              	.LASF138:
 3198 0334 433A5C70 		.ascii	"C:\\projects\\voltamper.git\\firmware\\voltamp\000"
 3198      726F6A65 
 3198      6374735C 
 3198      766F6C74 
 3198      616D7065 
 3199              	.LASF76:
 3200 035f 41504231 		.ascii	"APB1RSTR\000"
 3200      52535452 
 3200      00
 3201              	.LASF61:
 3202 0368 53515231 		.ascii	"SQR1\000"
 3202      00
 3203              	.LASF62:
 3204 036d 53515232 		.ascii	"SQR2\000"
 3204      00
 3205              	.LASF63:
 3206 0372 53515233 		.ascii	"SQR3\000"
 3206      00
 3207              	.LASF24:
 3208 0377 705F7072 		.ascii	"p_prev\000"
 3208      657600
 3209              	.LASF87:
ARM GAS  C:\Users\z80\AppData\Local\Temp\ccosK0bj.s 			page 62


 3210 037e 73746D33 		.ascii	"stm32_dma_stream_t\000"
 3210      325F646D 
 3210      615F7374 
 3210      7265616D 
 3210      5F7400
 3211              	.LASF18:
 3212 0391 74707269 		.ascii	"tprio_t\000"
 3212      6F5F7400 
 3213              	.LASF107:
 3214 0399 6D757465 		.ascii	"mutex\000"
 3214      7800
 3215              	.LASF8:
 3216 039f 696E7433 		.ascii	"int32_t\000"
 3216      325F7400 
 3217              	.LASF4:
 3218 03a7 756E7369 		.ascii	"unsigned char\000"
 3218      676E6564 
 3218      20636861 
 3218      7200
 3219              	.LASF139:
 3220 03b5 6164635F 		.ascii	"adc_lld_serve_rx_interrupt\000"
 3220      6C6C645F 
 3220      73657276 
 3220      655F7278 
 3220      5F696E74 
 3221              	.LASF38:
 3222 03d0 705F6D74 		.ascii	"p_mtxlist\000"
 3222      786C6973 
 3222      7400
 3223              	.LASF132:
 3224 03da 6164635F 		.ascii	"adc_lld_stop_conversion\000"
 3224      6C6C645F 
 3224      73746F70 
 3224      5F636F6E 
 3224      76657273 
 3225              	.LASF115:
 3226 03f2 6572726F 		.ascii	"error_cb\000"
 3226      725F6362 
 3226      00
 3227              	.LASF53:
 3228 03fb 65776D61 		.ascii	"ewmask\000"
 3228      736B00
 3229              	.LASF32:
 3230 0402 705F666C 		.ascii	"p_flags\000"
 3230      61677300 
 3231              	.LASF59:
 3232 040a 4A4F4652 		.ascii	"JOFR3\000"
 3232      3300
 3233              	.LASF60:
 3234 0410 4A4F4652 		.ascii	"JOFR4\000"
 3234      3400
 3235              	.LASF78:
 3236 0416 41504232 		.ascii	"APB2ENR\000"
 3236      454E5200 
 3237              	.LASF82:
 3238 041e 6368616E 		.ascii	"channel\000"
 3238      6E656C00 
ARM GAS  C:\Users\z80\AppData\Local\Temp\ccosK0bj.s 			page 63


 3239              	.LASF37:
 3240 0426 705F6570 		.ascii	"p_epending\000"
 3240      656E6469 
 3240      6E6700
 3241              	.LASF83:
 3242 0431 69666372 		.ascii	"ifcr\000"
 3242      00
 3243              	.LASF10:
 3244 0436 75696E74 		.ascii	"uint32_t\000"
 3244      33325F74 
 3244      00
 3245              	.LASF135:
 3246 043f 41444344 		.ascii	"ADCD1\000"
 3246      3100
 3247              	.LASF123:
 3248 0445 41444343 		.ascii	"ADCConfig\000"
 3248      6F6E6669 
 3248      6700
 3249              	.LASF116:
 3250 044f 736D7072 		.ascii	"smpr1\000"
 3250      3100
 3251              	.LASF11:
 3252 0455 6C6F6E67 		.ascii	"long unsigned int\000"
 3252      20756E73 
 3252      69676E65 
 3252      6420696E 
 3252      7400
 3253              	.LASF117:
 3254 0467 736D7072 		.ascii	"smpr2\000"
 3254      3200
 3255              	.LASF54:
 3256 046d 63686172 		.ascii	"char\000"
 3256      00
 3257              	.LASF131:
 3258 0472 6D6F6465 		.ascii	"mode\000"
 3258      00
 3259              	.LASF102:
 3260 0477 636F6E66 		.ascii	"config\000"
 3260      696700
 3261              	.LASF118:
 3262 047e 73717231 		.ascii	"sqr1\000"
 3262      00
 3263              	.LASF119:
 3264 0483 73717232 		.ascii	"sqr2\000"
 3264      00
 3265              	.LASF120:
 3266 0488 73717233 		.ascii	"sqr3\000"
 3266      00
 3267              	.LASF21:
 3268 048d 73797374 		.ascii	"systime_t\000"
 3268      696D655F 
 3268      7400
 3269              	.LASF39:
 3270 0497 705F7265 		.ascii	"p_realprio\000"
 3270      616C7072 
 3270      696F00
 3271              	.LASF79:
ARM GAS  C:\Users\z80\AppData\Local\Temp\ccosK0bj.s 			page 64


 3272 04a2 41504231 		.ascii	"APB1ENR\000"
 3272      454E5200 
 3273              	.LASF45:
 3274 04aa 636F6E74 		.ascii	"context\000"
 3274      65787400 
 3275              	.LASF44:
 3276 04b2 696E7463 		.ascii	"intctx\000"
 3276      747800
 3277              	.LASF128:
 3278 04b9 6164635F 		.ascii	"adc_lld_start\000"
 3278      6C6C645F 
 3278      73746172 
 3278      7400
 3279              	.LASF94:
 3280 04c7 4144435F 		.ascii	"ADC_ERROR\000"
 3280      4552524F 
 3280      5200
 3281              	.LASF70:
 3282 04d1 434E4454 		.ascii	"CNDTR\000"
 3282      5200
 3283              	.LASF80:
 3284 04d7 42444352 		.ascii	"BDCR\000"
 3284      00
 3285              	.LASF3:
 3286 04dc 75696E74 		.ascii	"uint8_t\000"
 3286      385F7400 
 3287              	.LASF121:
 3288 04e4 41444343 		.ascii	"ADCConversionGroup\000"
 3288      6F6E7665 
 3288      7273696F 
 3288      6E47726F 
 3288      757000
 3289              	.LASF125:
 3290 04f7 666C6167 		.ascii	"flags\000"
 3290      7300
 3291              	.LASF65:
 3292 04fd 4A445231 		.ascii	"JDR1\000"
 3292      00
 3293              	.LASF66:
 3294 0502 4A445232 		.ascii	"JDR2\000"
 3294      00
 3295              	.LASF67:
 3296 0507 4A445233 		.ascii	"JDR3\000"
 3296      00
 3297              	.LASF68:
 3298 050c 4A445234 		.ascii	"JDR4\000"
 3298      00
 3299              	.LASF136:
 3300 0511 474E5520 		.ascii	"GNU C 4.5.0\000"
 3300      4320342E 
 3300      352E3000 
 3301              	.LASF52:
 3302 051d 77746F62 		.ascii	"wtobjp\000"
 3302      6A7000
 3303              	.LASF93:
 3304 0524 4144435F 		.ascii	"ADC_COMPLETE\000"
 3304      434F4D50 
ARM GAS  C:\Users\z80\AppData\Local\Temp\ccosK0bj.s 			page 65


 3304      4C455445 
 3304      00
 3305              	.LASF29:
 3306 0531 705F6E61 		.ascii	"p_name\000"
 3306      6D6500
 3307              	.LASF97:
 3308 0538 6164635F 		.ascii	"adc_channels_num_t\000"
 3308      6368616E 
 3308      6E656C73 
 3308      5F6E756D 
 3308      5F7400
 3309              	.LASF74:
 3310 054b 43464752 		.ascii	"CFGR\000"
 3310      00
 3311              	.LASF36:
 3312 0550 705F6D73 		.ascii	"p_msg\000"
 3312      6700
 3313              	.LASF48:
 3314 0556 6D5F6F77 		.ascii	"m_owner\000"
 3314      6E657200 
 3315              	.LASF127:
 3316 055e 68616C66 		.ascii	"half_index\000"
 3316      5F696E64 
 3316      657800
 3317              	.LASF26:
 3318 0569 705F6374 		.ascii	"p_ctx\000"
 3318      7800
 3319              	.LASF34:
 3320 056f 705F7761 		.ascii	"p_waiting\000"
 3320      6974696E 
 3320      6700
 3321              	.LASF77:
 3322 0579 41484245 		.ascii	"AHBENR\000"
 3322      4E5200
 3323              		.ident	"GCC: (GNU) 4.5.0"
ARM GAS  C:\Users\z80\AppData\Local\Temp\ccosK0bj.s 			page 66


DEFINED SYMBOLS
                            *ABS*:00000000 adc_lld.c
C:\Users\z80\AppData\Local\Temp\ccosK0bj.s:28     .bss.ADCD1:00000000 ADCD1
C:\Users\z80\AppData\Local\Temp\ccosK0bj.s:25     .bss.ADCD1:00000000 $d
C:\Users\z80\AppData\Local\Temp\ccosK0bj.s:31     .text.adc_lld_serve_rx_interrupt:00000000 $t
C:\Users\z80\AppData\Local\Temp\ccosK0bj.s:36     .text.adc_lld_serve_rx_interrupt:00000000 adc_lld_serve_rx_interrupt
C:\Users\z80\AppData\Local\Temp\ccosK0bj.s:740    .text.adc_lld_stop_conversion:00000000 adc_lld_stop_conversion
C:\Users\z80\AppData\Local\Temp\ccosK0bj.s:328    .text.adc_lld_init:00000000 $t
C:\Users\z80\AppData\Local\Temp\ccosK0bj.s:334    .text.adc_lld_init:00000000 adc_lld_init
C:\Users\z80\AppData\Local\Temp\ccosK0bj.s:433    .rodata:00000000 $d
C:\Users\z80\AppData\Local\Temp\ccosK0bj.s:434    .rodata:00000000 .LC0
C:\Users\z80\AppData\Local\Temp\ccosK0bj.s:437    .text.adc_lld_start:00000000 $t
C:\Users\z80\AppData\Local\Temp\ccosK0bj.s:443    .text.adc_lld_start:00000000 adc_lld_start
C:\Users\z80\AppData\Local\Temp\ccosK0bj.s:525    .text.adc_lld_stop:00000000 $t
C:\Users\z80\AppData\Local\Temp\ccosK0bj.s:531    .text.adc_lld_stop:00000000 adc_lld_stop
C:\Users\z80\AppData\Local\Temp\ccosK0bj.s:587    .text.adc_lld_start_conversion:00000000 $t
C:\Users\z80\AppData\Local\Temp\ccosK0bj.s:593    .text.adc_lld_start_conversion:00000000 adc_lld_start_conversion
C:\Users\z80\AppData\Local\Temp\ccosK0bj.s:734    .text.adc_lld_stop_conversion:00000000 $t
                     .debug_frame:00000010 $d

UNDEFINED SYMBOLS
dbg_check_lock_from_isr
chSchReadyI
dbg_check_unlock_from_isr
adcObjectInit
_stm32_dma_streams
dmaStreamAllocate
chDbgPanic
dmaStreamRelease
