ARM GAS  /tmp/ccsY7C6C.s 			page 1


   1              		.syntax unified
   2              		.cpu cortex-m3
   3              		.fpu softvfp
   4              		.eabi_attribute 20, 1
   5              		.eabi_attribute 21, 1
   6              		.eabi_attribute 23, 3
   7              		.eabi_attribute 24, 1
   8              		.eabi_attribute 25, 1
   9              		.eabi_attribute 26, 1
  10              		.eabi_attribute 30, 6
  11              		.eabi_attribute 18, 4
  12              		.thumb
  13              		.file	"adc_ctrl.c"
  20 0000 46050000 		.text
  20      0200AA02 
  20      00000201 
  20      FB0E0D00 
  20      01010101 
  21              	.Ltext0:
  22              		.cfi_sections	.debug_frame
  23              		.global	fbEn
  24              		.section	.bss.fbEn,"aw",%nobits
  25              		.align	2
  26              		.type	fbEn, %object
  27              		.size	fbEn, 4
  28              	fbEn:
  29 0000 00000000 		.space	4
  30              		.global	fbEnPrev
  31              		.section	.bss.fbEnPrev,"aw",%nobits
  32              		.align	2
  33              		.type	fbEnPrev, %object
  34              		.size	fbEnPrev, 4
  35              	fbEnPrev:
  36 0000 00000000 		.space	4
  37              		.global	fbGainNum
  38              		.section	.data.fbGainNum,"aw",%progbits
  39              		.align	2
  40              		.type	fbGainNum, %object
  41              		.size	fbGainNum, 4
  42              	fbGainNum:
  43 0000 01000000 		.word	1
  44              		.global	fbGainDen
  45              		.section	.data.fbGainDen,"aw",%progbits
  46              		.align	2
  47              		.type	fbGainDen, %object
  48              		.size	fbGainDen, 4
  49              	fbGainDen:
  50 0000 01000000 		.word	1
  51              		.global	fbInIndex
  52              		.section	.data.fbInIndex,"aw",%progbits
  53              		.align	2
ARM GAS  /tmp/ccsY7C6C.s 			page 2


  54              		.type	fbInIndex, %object
  55              		.size	fbInIndex, 4
  56              	fbInIndex:
  57 0000 02000000 		.word	2
  58              		.global	fbSetpoint
  59              		.section	.data.fbSetpoint,"aw",%progbits
  60              		.align	2
  61              		.type	fbSetpoint, %object
  62              		.size	fbSetpoint, 4
  63              	fbSetpoint:
  64 0000 FF070000 		.word	2047
  65              		.global	dacHigh
  66              		.section	.data.dacHigh,"aw",%progbits
  67              		.align	2
  68              		.type	dacHigh, %object
  69              		.size	dacHigh, 4
  70              	dacHigh:
  71 0000 FF070000 		.word	2047
  72              		.global	dacLow
  73              		.section	.data.dacLow,"aw",%progbits
  74              		.align	2
  75              		.type	dacLow, %object
  76              		.size	dacLow, 4
  77              	dacLow:
  78 0000 FF070000 		.word	2047
  79              		.global	eaux_queue
  80              		.section	.bss.eaux_queue,"aw",%nobits
  81              		.align	2
  82              		.type	eaux_queue, %object
  83              		.size	eaux_queue, 32
  84              	eaux_queue:
  85 0000 00000000 		.space	32
  85      00000000 
  85      00000000 
  85      00000000 
  85      00000000 
  86              		.global	eref_queue
  87              		.section	.bss.eref_queue,"aw",%nobits
  88              		.align	2
  89              		.type	eref_queue, %object
  90              		.size	eref_queue, 32
  91              	eref_queue:
  92 0000 00000000 		.space	32
  92      00000000 
  92      00000000 
  92      00000000 
  92      00000000 
  93              		.global	iaux_queue
  94              		.section	.bss.iaux_queue,"aw",%nobits
  95              		.align	2
  96              		.type	iaux_queue, %object
  97              		.size	iaux_queue, 32
  98              	iaux_queue:
  99 0000 00000000 		.space	32
  99      00000000 
  99      00000000 
  99      00000000 
ARM GAS  /tmp/ccsY7C6C.s 			page 3


  99      00000000 
 100              		.global	eaux_queue_buffer
 101              		.section	.bss.eaux_queue_buffer,"aw",%nobits
 102              		.align	2
 103              		.type	eaux_queue_buffer, %object
 104              		.size	eaux_queue_buffer, 384
 105              	eaux_queue_buffer:
 106 0000 00000000 		.space	384
 106      00000000 
 106      00000000 
 106      00000000 
 106      00000000 
 107              		.global	eref_queue_buffer
 108              		.section	.bss.eref_queue_buffer,"aw",%nobits
 109              		.align	2
 110              		.type	eref_queue_buffer, %object
 111              		.size	eref_queue_buffer, 384
 112              	eref_queue_buffer:
 113 0000 00000000 		.space	384
 113      00000000 
 113      00000000 
 113      00000000 
 113      00000000 
 114              		.global	iaux_queue_buffer
 115              		.section	.bss.iaux_queue_buffer,"aw",%nobits
 116              		.align	2
 117              		.type	iaux_queue_buffer, %object
 118              		.size	iaux_queue_buffer, 384
 119              	iaux_queue_buffer:
 120 0000 00000000 		.space	384
 120      00000000 
 120      00000000 
 120      00000000 
 120      00000000 
 121              		.global	command_queue
 122              		.section	.bss.command_queue,"aw",%nobits
 123              		.align	2
 124              		.type	command_queue, %object
 125              		.size	command_queue, 32
 126              	command_queue:
 127 0000 00000000 		.space	32
 127      00000000 
 127      00000000 
 127      00000000 
 127      00000000 
 128              		.global	command_queue_buffer
 129              		.section	.bss.command_queue_buffer,"aw",%nobits
 130              		.align	2
 131              		.type	command_queue_buffer, %object
 132              		.size	command_queue_buffer, 4
 133              	command_queue_buffer:
 134 0000 00000000 		.space	4
 135              		.global	oscPeriod
 136              		.section	.data.oscPeriod,"aw",%progbits
 137              		.align	2
 138              		.type	oscPeriod, %object
 139              		.size	oscPeriod, 4
ARM GAS  /tmp/ccsY7C6C.s 			page 4


 140              	oscPeriod:
 141 0000 10270000 		.word	10000
 142              		.global	oscTime
 143              		.section	.bss.oscTime,"aw",%nobits
 144              		.align	2
 145              		.type	oscTime, %object
 146              		.size	oscTime, 4
 147              	oscTime:
 148 0000 00000000 		.space	4
 149              		.global	oscEnabled
 150              		.section	.bss.oscEnabled,"aw",%nobits
 151              		.type	oscEnabled, %object
 152              		.size	oscEnabled, 1
 153              	oscEnabled:
 154 0000 00       		.space	1
 155              		.global	oscAutostart
 156              		.section	.data.oscAutostart,"aw",%progbits
 157              		.type	oscAutostart, %object
 158              		.size	oscAutostart, 1
 159              	oscAutostart:
 160 0000 01       		.byte	1
 161              		.global	mode
 162              		.section	.bss.mode,"aw",%nobits
 163              		.type	mode, %object
 164              		.size	mode, 1
 165              	mode:
 166 0000 00       		.space	1
 167              		.section	.text.convAdcReadyCb,"ax",%progbits
 168              		.align	2
 169              		.p2align 4,,15
 170              		.thumb
 171              		.thumb_func
 172              		.type	convAdcReadyCb, %function
 173              	convAdcReadyCb:
 174              	.LFB62:
 175              		.file 1 "./src/adc_ctrl.c"
 176              		.loc 1 65 0
 177              		.cfi_startproc
 178              		@ args = 0, pretend = 0, frame = 32
 179              		@ frame_needed = 0, uses_anonymous_args = 0
 180 0000 00B5     		push	{lr}
 181              	.LCFI0:
 182              		.cfi_def_cfa_offset 4
 183 0002 89B0     		sub	sp, sp, #36
 184              	.LCFI1:
 185              		.cfi_def_cfa_offset 40
 186 0004 0390     		str	r0, [sp, #12]
 187 0006 0291     		str	r1, [sp, #8]
 188 0008 0192     		str	r2, [sp, #4]
 189              		.loc 1 72 0
 190 000a 294B     		ldr	r3, .L6
 191 000c 1B78     		ldrb	r3, [r3, #0]	@ zero_extendqisi2
 192 000e 1846     		mov	r0, r3
 193              		.cfi_offset 14, -4
 194 0010 FFF7FEFF 		bl	modeProcess
 195              	.LBB2:
 196              		.loc 1 75 0
ARM GAS  /tmp/ccsY7C6C.s 			page 5


 197 0014 4FF02003 		mov	r3, #32
 198              	@ 75 "./src/adc_ctrl.c" 1
 199 0018 83F31188 		msr     BASEPRI, r3
 200              	@ 0 "" 2
 201              		.thumb
 202              	.LBE2:
 203 001c FFF7FEFF 		bl	dbg_check_lock_from_isr
 204              		.loc 1 76 0
 205 0020 244B     		ldr	r3, .L6+4
 206 0022 1B78     		ldrb	r3, [r3, #0]
 207 0024 8DF81F30 		strb	r3, [sp, #31]
 208              		.loc 1 77 0
 209 0028 234B     		ldr	r3, .L6+8
 210 002a 1B78     		ldrb	r3, [r3, #0]
 211 002c 8DF81E30 		strb	r3, [sp, #30]
 212              		.loc 1 78 0
 213 0030 FFF7FEFF 		bl	dbg_check_unlock_from_isr
 214              	.LBB3:
 215 0034 4FF00003 		mov	r3, #0
 216              	@ 78 "./src/adc_ctrl.c" 1
 217 0038 83F31188 		msr     BASEPRI, r3
 218              	@ 0 "" 2
 219              		.thumb
 220              	.LBE3:
 221              		.loc 1 79 0
 222 003c 9DF81F30 		ldrb	r3, [sp, #31]	@ zero_extendqisi2
 223 0040 002B     		cmp	r3, #0
 224 0042 03D0     		beq	.L2
 225              		.loc 1 80 0
 226 0044 0298     		ldr	r0, [sp, #8]
 227 0046 FFF7FEFF 		bl	processOsc
 228 004a 05E0     		b	.L3
 229              	.L2:
 230              		.loc 1 83 0
 231 004c 9DF81E30 		ldrb	r3, [sp, #30]	@ zero_extendqisi2
 232 0050 002B     		cmp	r3, #0
 233 0052 01D0     		beq	.L3
 234              		.loc 1 84 0
 235 0054 FFF7FEFF 		bl	enableOsc
 236              	.L3:
 237              	.LBB4:
 238              		.loc 1 88 0
 239 0058 4FF02003 		mov	r3, #32
 240              	@ 88 "./src/adc_ctrl.c" 1
 241 005c 83F31188 		msr     BASEPRI, r3
 242              	@ 0 "" 2
 243              		.thumb
 244              	.LBE4:
 245 0060 FFF7FEFF 		bl	dbg_check_lock_from_isr
 246              		.loc 1 90 0
 247 0064 1548     		ldr	r0, .L6+12
 248 0066 FFF7FEFF 		bl	chOQGetI
 249 006a 0690     		str	r0, [sp, #24]
 250              		.loc 1 91 0
 251 006c 069B     		ldr	r3, [sp, #24]
 252 006e 13F1030F 		cmn	r3, #3
 253 0072 0CBF     		ite	eq
ARM GAS  /tmp/ccsY7C6C.s 			page 6


 254 0074 0023     		moveq	r3, #0
 255 0076 0123     		movne	r3, #1
 256 0078 8DF81730 		strb	r3, [sp, #23]
 257              		.loc 1 92 0
 258 007c 9DF81730 		ldrb	r3, [sp, #23]	@ zero_extendqisi2
 259 0080 002B     		cmp	r3, #0
 260 0082 03D0     		beq	.L4
 261              		.loc 1 94 0
 262 0084 069B     		ldr	r3, [sp, #24]
 263 0086 DAB2     		uxtb	r2, r3
 264 0088 094B     		ldr	r3, .L6
 265 008a 1A70     		strb	r2, [r3, #0]
 266              	.L4:
 267              		.loc 1 95 0
 268 008c FFF7FEFF 		bl	dbg_check_unlock_from_isr
 269              	.LBB5:
 270 0090 4FF00003 		mov	r3, #0
 271              	@ 95 "./src/adc_ctrl.c" 1
 272 0094 83F31188 		msr     BASEPRI, r3
 273              	@ 0 "" 2
 274              		.thumb
 275              	.LBE5:
 276              		.loc 1 98 0
 277 0098 9DF81730 		ldrb	r3, [sp, #23]	@ zero_extendqisi2
 278 009c 002B     		cmp	r3, #0
 279 009e 04D0     		beq	.L1
 280              		.loc 1 99 0
 281 00a0 034B     		ldr	r3, .L6
 282 00a2 1B78     		ldrb	r3, [r3, #0]	@ zero_extendqisi2
 283 00a4 1846     		mov	r0, r3
 284 00a6 FFF7FEFF 		bl	modeInit
 285              	.L1:
 286              		.loc 1 100 0
 287 00aa 09B0     		add	sp, sp, #36
 288 00ac 00BD     		pop	{pc}
 289              	.L7:
 290 00ae 00BF     		.align	2
 291              	.L6:
 292 00b0 00000000 		.word	mode
 293 00b4 00000000 		.word	oscEnabled
 294 00b8 00000000 		.word	oscAutostart
 295 00bc 00000000 		.word	command_queue
 296              		.cfi_endproc
 297              	.LFE62:
 298              		.size	convAdcReadyCb, .-convAdcReadyCb
 299              		.section	.bss.adcSamples,"aw",%nobits
 300              		.align	2
 301              		.type	adcSamples, %object
 302              		.size	adcSamples, 12
 303              	adcSamples:
 304 0000 00000000 		.space	12
 304      00000000 
 304      00000000 
 305              		.section	.rodata.adcGroup,"a",%progbits
 306              		.align	2
 307              		.type	adcGroup, %object
 308              		.size	adcGroup, 44
ARM GAS  /tmp/ccsY7C6C.s 			page 7


 309              	adcGroup:
 310 0000 01000000 		.word	1
 311 0004 0300     		.short	3
 312 0006 0000     		.space	2
 313 0008 00000000 		.word	convAdcReadyCb
 314 000c 00000000 		.word	0
 315 0010 00000000 		.word	0
 316 0014 00000000 		.word	0
 317 0018 FF010000 		.word	511
 318 001c 00000000 		.word	0
 319 0020 00002000 		.word	2097152
 320 0024 00000000 		.word	0
 321 0028 6A310000 		.word	12650
 322              		.section	.text.initAdc,"ax",%progbits
 323              		.align	2
 324              		.p2align 4,,15
 325              		.global	initAdc
 326              		.thumb
 327              		.thumb_func
 328              		.type	initAdc, %function
 329              	initAdc:
 330              	.LFB63:
 331              		.loc 1 141 0
 332              		.cfi_startproc
 333              		@ args = 0, pretend = 0, frame = 0
 334              		@ frame_needed = 0, uses_anonymous_args = 0
 335 0000 08B5     		push	{r3, lr}
 336              	.LCFI2:
 337              		.cfi_def_cfa_offset 8
 338              		.loc 1 143 0
 339 0002 1A48     		ldr	r0, .L9
 340 0004 1A49     		ldr	r1, .L9+4
 341 0006 4FF00402 		mov	r2, #4
 342 000a 4FF00003 		mov	r3, #0
 343              		.cfi_offset 14, -4
 344              		.cfi_offset 3, -8
 345 000e FFF7FEFF 		bl	chOQInit
 346              		.loc 1 145 0
 347 0012 1848     		ldr	r0, .L9+8
 348 0014 1849     		ldr	r1, .L9+12
 349 0016 4FF4C072 		mov	r2, #384
 350 001a 4FF00003 		mov	r3, #0
 351 001e FFF7FEFF 		bl	chIQInit
 352              		.loc 1 146 0
 353 0022 1648     		ldr	r0, .L9+16
 354 0024 1649     		ldr	r1, .L9+20
 355 0026 4FF4C072 		mov	r2, #384
 356 002a 4FF00003 		mov	r3, #0
 357 002e FFF7FEFF 		bl	chIQInit
 358              		.loc 1 147 0
 359 0032 1448     		ldr	r0, .L9+24
 360 0034 1449     		ldr	r1, .L9+28
 361 0036 4FF4C072 		mov	r2, #384
 362 003a 4FF00003 		mov	r3, #0
 363 003e FFF7FEFF 		bl	chIQInit
 364              		.loc 1 149 0
 365 0042 1248     		ldr	r0, .L9+32
ARM GAS  /tmp/ccsY7C6C.s 			page 8


 366 0044 4FF4E051 		mov	r1, #7168
 367 0048 4FF00502 		mov	r2, #5
 368 004c FFF7FEFF 		bl	_pal_lld_setgroupmode
 369              		.loc 1 155 0
 370 0050 0F48     		ldr	r0, .L9+36
 371 0052 4FF00001 		mov	r1, #0
 372 0056 FFF7FEFF 		bl	adcStart
 373              		.loc 1 156 0
 374 005a 0D48     		ldr	r0, .L9+36
 375 005c 0D49     		ldr	r1, .L9+40
 376 005e 0E4A     		ldr	r2, .L9+44
 377 0060 4FF00203 		mov	r3, #2
 378 0064 FFF7FEFF 		bl	adcStartConversion
 379              		.loc 1 157 0
 380 0068 08BD     		pop	{r3, pc}
 381              	.L10:
 382 006a 00BF     		.align	2
 383              	.L9:
 384 006c 00000000 		.word	command_queue
 385 0070 00000000 		.word	command_queue_buffer
 386 0074 00000000 		.word	eaux_queue
 387 0078 00000000 		.word	eaux_queue_buffer
 388 007c 00000000 		.word	eref_queue
 389 0080 00000000 		.word	eref_queue_buffer
 390 0084 00000000 		.word	iaux_queue
 391 0088 00000000 		.word	iaux_queue_buffer
 392 008c 00100140 		.word	1073811456
 393 0090 00000000 		.word	ADCD1
 394 0094 00000000 		.word	adcGroup
 395 0098 00000000 		.word	adcSamples
 396              		.cfi_endproc
 397              	.LFE63:
 398              		.size	initAdc, .-initAdc
 399 009c AFF30080 		.section	.text.setOscPeriod,"ax",%progbits
 400              		.align	2
 401              		.p2align 4,,15
 402              		.global	setOscPeriod
 403              		.thumb
 404              		.thumb_func
 405              		.type	setOscPeriod, %function
 406              	setOscPeriod:
 407              	.LFB64:
 408              		.loc 1 161 0
 409              		.cfi_startproc
 410              		@ args = 0, pretend = 0, frame = 8
 411              		@ frame_needed = 0, uses_anonymous_args = 0
 412 0000 00B5     		push	{lr}
 413              	.LCFI3:
 414              		.cfi_def_cfa_offset 4
 415 0002 83B0     		sub	sp, sp, #12
 416              	.LCFI4:
 417              		.cfi_def_cfa_offset 16
 418 0004 0190     		str	r0, [sp, #4]
 419              	.LBB6:
 420              		.loc 1 162 0
 421 0006 4FF02003 		mov	r3, #32
 422              	@ 162 "./src/adc_ctrl.c" 1
ARM GAS  /tmp/ccsY7C6C.s 			page 9


 423 000a 83F31188 		msr     BASEPRI, r3
 424              	@ 0 "" 2
 425              		.thumb
 426              	.LBE6:
 427              		.cfi_offset 14, -4
 428 000e FFF7FEFF 		bl	dbg_check_lock
 429              		.loc 1 163 0
 430 0012 019A     		ldr	r2, [sp, #4]
 431 0014 044B     		ldr	r3, .L12
 432 0016 1A60     		str	r2, [r3, #0]
 433              		.loc 1 164 0
 434 0018 FFF7FEFF 		bl	dbg_check_unlock
 435              	.LBB7:
 436 001c 4FF00003 		mov	r3, #0
 437              	@ 164 "./src/adc_ctrl.c" 1
 438 0020 83F31188 		msr     BASEPRI, r3
 439              	@ 0 "" 2
 440              		.thumb
 441              	.LBE7:
 442              		.loc 1 165 0
 443 0024 03B0     		add	sp, sp, #12
 444 0026 00BD     		pop	{pc}
 445              	.L13:
 446              		.align	2
 447              	.L12:
 448 0028 00000000 		.word	oscPeriod
 449              		.cfi_endproc
 450              	.LFE64:
 451              		.size	setOscPeriod, .-setOscPeriod
 452 002c AFF30080 		.section	.text.setAutostartOsc,"ax",%progbits
 453              		.align	2
 454              		.p2align 4,,15
 455              		.global	setAutostartOsc
 456              		.thumb
 457              		.thumb_func
 458              		.type	setAutostartOsc, %function
 459              	setAutostartOsc:
 460              	.LFB65:
 461              		.loc 1 168 0
 462              		.cfi_startproc
 463              		@ args = 0, pretend = 0, frame = 8
 464              		@ frame_needed = 0, uses_anonymous_args = 0
 465 0000 00B5     		push	{lr}
 466              	.LCFI5:
 467              		.cfi_def_cfa_offset 4
 468 0002 83B0     		sub	sp, sp, #12
 469              	.LCFI6:
 470              		.cfi_def_cfa_offset 16
 471 0004 0346     		mov	r3, r0
 472 0006 8DF80730 		strb	r3, [sp, #7]
 473              	.LBB8:
 474              		.loc 1 169 0
 475 000a 4FF02003 		mov	r3, #32
 476              	@ 169 "./src/adc_ctrl.c" 1
 477 000e 83F31188 		msr     BASEPRI, r3
 478              	@ 0 "" 2
 479              		.thumb
ARM GAS  /tmp/ccsY7C6C.s 			page 10


 480              	.LBE8:
 481              		.cfi_offset 14, -4
 482 0012 FFF7FEFF 		bl	dbg_check_lock
 483              		.loc 1 170 0
 484 0016 064B     		ldr	r3, .L15
 485 0018 9DF80720 		ldrb	r2, [sp, #7]
 486 001c 1A70     		strb	r2, [r3, #0]
 487              		.loc 1 171 0
 488 001e FFF7FEFF 		bl	dbg_check_unlock
 489              	.LBB9:
 490 0022 4FF00003 		mov	r3, #0
 491              	@ 171 "./src/adc_ctrl.c" 1
 492 0026 83F31188 		msr     BASEPRI, r3
 493              	@ 0 "" 2
 494              		.thumb
 495              	.LBE9:
 496              		.loc 1 172 0
 497 002a 03B0     		add	sp, sp, #12
 498 002c 00BD     		pop	{pc}
 499              	.L16:
 500 002e 00BF     		.align	2
 501              	.L15:
 502 0030 00000000 		.word	oscAutostart
 503              		.cfi_endproc
 504              	.LFE65:
 505              		.size	setAutostartOsc, .-setAutostartOsc
 506 0034 AFF30080 		.section	.text.setFbSetpoint,"ax",%progbits
 506      AFF30080 
 506      AFF30080 
 507              		.align	2
 508              		.p2align 4,,15
 509              		.global	setFbSetpoint
 510              		.thumb
 511              		.thumb_func
 512              		.type	setFbSetpoint, %function
 513              	setFbSetpoint:
 514              	.LFB66:
 515              		.loc 1 175 0
 516              		.cfi_startproc
 517              		@ args = 0, pretend = 0, frame = 8
 518              		@ frame_needed = 0, uses_anonymous_args = 0
 519              		@ link register save eliminated.
 520 0000 82B0     		sub	sp, sp, #8
 521              	.LCFI7:
 522              		.cfi_def_cfa_offset 8
 523 0002 0190     		str	r0, [sp, #4]
 524              		.loc 1 177 0
 525 0004 02B0     		add	sp, sp, #8
 526 0006 7047     		bx	lr
 527              		.cfi_endproc
 528              	.LFE66:
 529              		.size	setFbSetpoint, .-setFbSetpoint
 530 0008 AFF30080 		.section	.text.setFbInput,"ax",%progbits
 530      AFF30080 
 531              		.align	2
 532              		.p2align 4,,15
 533              		.global	setFbInput
ARM GAS  /tmp/ccsY7C6C.s 			page 11


 534              		.thumb
 535              		.thumb_func
 536              		.type	setFbInput, %function
 537              	setFbInput:
 538              	.LFB67:
 539              		.loc 1 180 0
 540              		.cfi_startproc
 541              		@ args = 0, pretend = 0, frame = 8
 542              		@ frame_needed = 0, uses_anonymous_args = 0
 543              		@ link register save eliminated.
 544 0000 82B0     		sub	sp, sp, #8
 545              	.LCFI8:
 546              		.cfi_def_cfa_offset 8
 547 0002 0190     		str	r0, [sp, #4]
 548              		.loc 1 182 0
 549 0004 02B0     		add	sp, sp, #8
 550 0006 7047     		bx	lr
 551              		.cfi_endproc
 552              	.LFE67:
 553              		.size	setFbInput, .-setFbInput
 554 0008 AFF30080 		.section	.text.setFbGain,"ax",%progbits
 554      AFF30080 
 555              		.align	2
 556              		.p2align 4,,15
 557              		.global	setFbGain
 558              		.thumb
 559              		.thumb_func
 560              		.type	setFbGain, %function
 561              	setFbGain:
 562              	.LFB68:
 563              		.loc 1 185 0
 564              		.cfi_startproc
 565              		@ args = 0, pretend = 0, frame = 8
 566              		@ frame_needed = 0, uses_anonymous_args = 0
 567              		@ link register save eliminated.
 568 0000 82B0     		sub	sp, sp, #8
 569              	.LCFI9:
 570              		.cfi_def_cfa_offset 8
 571 0002 0190     		str	r0, [sp, #4]
 572 0004 0091     		str	r1, [sp, #0]
 573              		.loc 1 188 0
 574 0006 02B0     		add	sp, sp, #8
 575 0008 7047     		bx	lr
 576              		.cfi_endproc
 577              	.LFE68:
 578              		.size	setFbGain, .-setFbGain
 579 000a 00BFAFF3 		.section	.text.setFbEn,"ax",%progbits
 579      0080
 580              		.align	2
 581              		.p2align 4,,15
 582              		.global	setFbEn
 583              		.thumb
 584              		.thumb_func
 585              		.type	setFbEn, %function
 586              	setFbEn:
 587              	.LFB69:
 588              		.loc 1 191 0
ARM GAS  /tmp/ccsY7C6C.s 			page 12


 589              		.cfi_startproc
 590              		@ args = 0, pretend = 0, frame = 8
 591              		@ frame_needed = 0, uses_anonymous_args = 0
 592              		@ link register save eliminated.
 593 0000 82B0     		sub	sp, sp, #8
 594              	.LCFI10:
 595              		.cfi_def_cfa_offset 8
 596 0002 0190     		str	r0, [sp, #4]
 597              		.loc 1 193 0
 598 0004 02B0     		add	sp, sp, #8
 599 0006 7047     		bx	lr
 600              		.cfi_endproc
 601              	.LFE69:
 602              		.size	setFbEn, .-setFbEn
 603 0008 AFF30080 		.section	.text.commandQueue,"ax",%progbits
 603      AFF30080 
 604              		.align	2
 605              		.p2align 4,,15
 606              		.global	commandQueue
 607              		.thumb
 608              		.thumb_func
 609              		.type	commandQueue, %function
 610              	commandQueue:
 611              	.LFB70:
 612              		.loc 1 196 0
 613              		.cfi_startproc
 614              		@ args = 0, pretend = 0, frame = 0
 615              		@ frame_needed = 0, uses_anonymous_args = 0
 616              		@ link register save eliminated.
 617              		.loc 1 197 0
 618 0000 014B     		ldr	r3, .L22
 619              		.loc 1 198 0
 620 0002 1846     		mov	r0, r3
 621 0004 7047     		bx	lr
 622              	.L23:
 623 0006 00BF     		.align	2
 624              	.L22:
 625 0008 00000000 		.word	command_queue
 626              		.cfi_endproc
 627              	.LFE70:
 628              		.size	commandQueue, .-commandQueue
 629 000c AFF30080 		.section	.text.eauxQueue,"ax",%progbits
 630              		.align	2
 631              		.p2align 4,,15
 632              		.global	eauxQueue
 633              		.thumb
 634              		.thumb_func
 635              		.type	eauxQueue, %function
 636              	eauxQueue:
 637              	.LFB71:
 638              		.loc 1 201 0
 639              		.cfi_startproc
 640              		@ args = 0, pretend = 0, frame = 0
 641              		@ frame_needed = 0, uses_anonymous_args = 0
 642              		@ link register save eliminated.
 643              		.loc 1 202 0
 644 0000 014B     		ldr	r3, .L25
ARM GAS  /tmp/ccsY7C6C.s 			page 13


 645              		.loc 1 203 0
 646 0002 1846     		mov	r0, r3
 647 0004 7047     		bx	lr
 648              	.L26:
 649 0006 00BF     		.align	2
 650              	.L25:
 651 0008 00000000 		.word	eaux_queue
 652              		.cfi_endproc
 653              	.LFE71:
 654              		.size	eauxQueue, .-eauxQueue
 655 000c AFF30080 		.section	.text.erefQueue,"ax",%progbits
 656              		.align	2
 657              		.p2align 4,,15
 658              		.global	erefQueue
 659              		.thumb
 660              		.thumb_func
 661              		.type	erefQueue, %function
 662              	erefQueue:
 663              	.LFB72:
 664              		.loc 1 206 0
 665              		.cfi_startproc
 666              		@ args = 0, pretend = 0, frame = 0
 667              		@ frame_needed = 0, uses_anonymous_args = 0
 668              		@ link register save eliminated.
 669              		.loc 1 207 0
 670 0000 014B     		ldr	r3, .L28
 671              		.loc 1 208 0
 672 0002 1846     		mov	r0, r3
 673 0004 7047     		bx	lr
 674              	.L29:
 675 0006 00BF     		.align	2
 676              	.L28:
 677 0008 00000000 		.word	eref_queue
 678              		.cfi_endproc
 679              	.LFE72:
 680              		.size	erefQueue, .-erefQueue
 681 000c AFF30080 		.section	.text.iauxQueue,"ax",%progbits
 682              		.align	2
 683              		.p2align 4,,15
 684              		.global	iauxQueue
 685              		.thumb
 686              		.thumb_func
 687              		.type	iauxQueue, %function
 688              	iauxQueue:
 689              	.LFB73:
 690              		.loc 1 211 0
 691              		.cfi_startproc
 692              		@ args = 0, pretend = 0, frame = 0
 693              		@ frame_needed = 0, uses_anonymous_args = 0
 694              		@ link register save eliminated.
 695              		.loc 1 212 0
 696 0000 014B     		ldr	r3, .L31
 697              		.loc 1 213 0
 698 0002 1846     		mov	r0, r3
 699 0004 7047     		bx	lr
 700              	.L32:
 701 0006 00BF     		.align	2
ARM GAS  /tmp/ccsY7C6C.s 			page 14


 702              	.L31:
 703 0008 00000000 		.word	iaux_queue
 704              		.cfi_endproc
 705              	.LFE73:
 706              		.size	iauxQueue, .-iauxQueue
 707 000c AFF30080 		.section	.text.modeProcess,"ax",%progbits
 708              		.align	2
 709              		.p2align 4,,15
 710              		.global	modeProcess
 711              		.thumb
 712              		.thumb_func
 713              		.type	modeProcess, %function
 714              	modeProcess:
 715              	.LFB74:
 716              		.loc 1 216 0
 717              		.cfi_startproc
 718              		@ args = 0, pretend = 0, frame = 8
 719              		@ frame_needed = 0, uses_anonymous_args = 0
 720 0000 00B5     		push	{lr}
 721              	.LCFI11:
 722              		.cfi_def_cfa_offset 4
 723 0002 83B0     		sub	sp, sp, #12
 724              	.LCFI12:
 725              		.cfi_def_cfa_offset 16
 726 0004 0190     		str	r0, [sp, #4]
 727              		.loc 1 217 0
 728 0006 019B     		ldr	r3, [sp, #4]
 729 0008 042B     		cmp	r3, #4
 730 000a 1CD8     		bhi	.L33
 731 000c 01A2     		adr	r2, .L40
 732 000e 52F823F0 		ldr	pc, [r2, r3, lsl #2]
 733              		.cfi_offset 14, -4
 734 0012 00BF     		.align	2
 735              	.L40:
 736 0014 29000000 		.word	.L35+1
 737 0018 2F000000 		.word	.L36+1
 738 001c 35000000 		.word	.L37+1
 739 0020 3B000000 		.word	.L38+1
 740 0024 41000000 		.word	.L39+1
 741              	.L35:
 742              		.loc 1 220 0
 743 0028 FFF7FEFF 		bl	processDac
 744              		.loc 1 221 0
 745 002c 0BE0     		b	.L33
 746              	.L36:
 747              		.loc 1 223 0
 748 002e FFF7FEFF 		bl	processOnePulse
 749              		.loc 1 224 0
 750 0032 08E0     		b	.L33
 751              	.L37:
 752              		.loc 1 226 0
 753 0034 FFF7FEFF 		bl	processMeandr
 754              		.loc 1 227 0
 755 0038 05E0     		b	.L33
 756              	.L38:
 757              		.loc 1 229 0
 758 003a FFF7FEFF 		bl	processSweep
ARM GAS  /tmp/ccsY7C6C.s 			page 15


 759              		.loc 1 230 0
 760 003e 02E0     		b	.L33
 761              	.L39:
 762              		.loc 1 232 0
 763 0040 FFF7FEFF 		bl	processFb
 764              		.loc 1 233 0
 765 0044 00BF     		nop
 766              	.L33:
 767              		.loc 1 235 0
 768 0046 03B0     		add	sp, sp, #12
 769 0048 00BD     		pop	{pc}
 770              		.cfi_endproc
 771              	.LFE74:
 772              		.size	modeProcess, .-modeProcess
 773 004a 00BFAFF3 		.section	.text.modeInit,"ax",%progbits
 773      0080
 774              		.align	2
 775              		.p2align 4,,15
 776              		.global	modeInit
 777              		.thumb
 778              		.thumb_func
 779              		.type	modeInit, %function
 780              	modeInit:
 781              	.LFB75:
 782              		.loc 1 238 0
 783              		.cfi_startproc
 784              		@ args = 0, pretend = 0, frame = 8
 785              		@ frame_needed = 0, uses_anonymous_args = 0
 786 0000 00B5     		push	{lr}
 787              	.LCFI13:
 788              		.cfi_def_cfa_offset 4
 789 0002 83B0     		sub	sp, sp, #12
 790              	.LCFI14:
 791              		.cfi_def_cfa_offset 16
 792 0004 0190     		str	r0, [sp, #4]
 793              		.loc 1 239 0
 794 0006 019B     		ldr	r3, [sp, #4]
 795 0008 042B     		cmp	r3, #4
 796 000a 1CD8     		bhi	.L41
 797 000c 01A2     		adr	r2, .L48
 798 000e 52F823F0 		ldr	pc, [r2, r3, lsl #2]
 799              		.cfi_offset 14, -4
 800 0012 00BF     		.align	2
 801              	.L48:
 802 0014 29000000 		.word	.L43+1
 803 0018 2F000000 		.word	.L44+1
 804 001c 35000000 		.word	.L45+1
 805 0020 3B000000 		.word	.L46+1
 806 0024 41000000 		.word	.L47+1
 807              	.L43:
 808              		.loc 1 242 0
 809 0028 FFF7FEFF 		bl	initDac
 810              		.loc 1 243 0
 811 002c 0BE0     		b	.L41
 812              	.L44:
 813              		.loc 1 245 0
 814 002e FFF7FEFF 		bl	initOnePulse
ARM GAS  /tmp/ccsY7C6C.s 			page 16


 815              		.loc 1 246 0
 816 0032 08E0     		b	.L41
 817              	.L45:
 818              		.loc 1 248 0
 819 0034 FFF7FEFF 		bl	initMeandr
 820              		.loc 1 249 0
 821 0038 05E0     		b	.L41
 822              	.L46:
 823              		.loc 1 251 0
 824 003a FFF7FEFF 		bl	initSweep
 825              		.loc 1 252 0
 826 003e 02E0     		b	.L41
 827              	.L47:
 828              		.loc 1 254 0
 829 0040 FFF7FEFF 		bl	initFb
 830              		.loc 1 255 0
 831 0044 00BF     		nop
 832              	.L41:
 833              		.loc 1 257 0
 834 0046 03B0     		add	sp, sp, #12
 835 0048 00BD     		pop	{pc}
 836              		.cfi_endproc
 837              	.LFE75:
 838              		.size	modeInit, .-modeInit
 839 004a 00BFAFF3 		.section	.text.initDac,"ax",%progbits
 839      0080
 840              		.align	2
 841              		.p2align 4,,15
 842              		.thumb
 843              		.thumb_func
 844              		.type	initDac, %function
 845              	initDac:
 846              	.LFB76:
 847              		.loc 1 260 0
 848              		.cfi_startproc
 849              		@ args = 0, pretend = 0, frame = 8
 850              		@ frame_needed = 0, uses_anonymous_args = 0
 851 0000 00B5     		push	{lr}
 852              	.LCFI15:
 853              		.cfi_def_cfa_offset 4
 854 0002 83B0     		sub	sp, sp, #12
 855              	.LCFI16:
 856              		.cfi_def_cfa_offset 16
 857              		.loc 1 261 0
 858              		.cfi_offset 14, -4
 859 0004 FFF7FEFF 		bl	funcArgs
 860 0008 0190     		str	r0, [sp, #4]
 861              		.loc 1 262 0
 862 000a 019B     		ldr	r3, [sp, #4]
 863 000c 1B78     		ldrb	r3, [r3, #0]	@ zero_extendqisi2
 864 000e 1A46     		mov	r2, r3
 865 0010 019B     		ldr	r3, [sp, #4]
 866 0012 03F10103 		add	r3, r3, #1
 867 0016 1B78     		ldrb	r3, [r3, #0]	@ zero_extendqisi2
 868 0018 4FEA0323 		lsl	r3, r3, #8
 869 001c D218     		adds	r2, r2, r3
 870 001e 094B     		ldr	r3, .L50
ARM GAS  /tmp/ccsY7C6C.s 			page 17


 871 0020 1A60     		str	r2, [r3, #0]
 872              		.loc 1 263 0
 873 0022 019B     		ldr	r3, [sp, #4]
 874 0024 03F10203 		add	r3, r3, #2
 875 0028 1B78     		ldrb	r3, [r3, #0]	@ zero_extendqisi2
 876 002a 1A46     		mov	r2, r3
 877 002c 019B     		ldr	r3, [sp, #4]
 878 002e 03F10303 		add	r3, r3, #3
 879 0032 1B78     		ldrb	r3, [r3, #0]	@ zero_extendqisi2
 880 0034 4FEA0323 		lsl	r3, r3, #8
 881 0038 D218     		adds	r2, r2, r3
 882 003a 034B     		ldr	r3, .L50+4
 883 003c 1A60     		str	r2, [r3, #0]
 884              		.loc 1 264 0
 885 003e 03B0     		add	sp, sp, #12
 886 0040 00BD     		pop	{pc}
 887              	.L51:
 888 0042 00BF     		.align	2
 889              	.L50:
 890 0044 00000000 		.word	dacLow
 891 0048 00000000 		.word	dacHigh
 892              		.cfi_endproc
 893              	.LFE76:
 894              		.size	initDac, .-initDac
 895 004c AFF30080 		.section	.text.processDac,"ax",%progbits
 896              		.align	2
 897              		.p2align 4,,15
 898              		.thumb
 899              		.thumb_func
 900              		.type	processDac, %function
 901              	processDac:
 902              	.LFB77:
 903              		.loc 1 267 0
 904              		.cfi_startproc
 905              		@ args = 0, pretend = 0, frame = 8
 906              		@ frame_needed = 0, uses_anonymous_args = 0
 907 0000 00B5     		push	{lr}
 908              	.LCFI17:
 909              		.cfi_def_cfa_offset 4
 910 0002 83B0     		sub	sp, sp, #12
 911              	.LCFI18:
 912              		.cfi_def_cfa_offset 16
 913              		.loc 1 269 0
 914 0004 074B     		ldr	r3, .L53
 915 0006 1B68     		ldr	r3, [r3, #0]
 916 0008 9BB2     		uxth	r3, r3
 917 000a ADF80430 		strh	r3, [sp, #4]	@ movhi
 918              		.loc 1 270 0
 919 000e 064B     		ldr	r3, .L53+4
 920 0010 1B68     		ldr	r3, [r3, #0]
 921 0012 9BB2     		uxth	r3, r3
 922 0014 ADF80630 		strh	r3, [sp, #6]	@ movhi
 923              		.loc 1 271 0
 924 0018 01AB     		add	r3, sp, #4
 925 001a 1846     		mov	r0, r3
 926              		.cfi_offset 14, -4
 927 001c FFF7FEFF 		bl	dacSet
ARM GAS  /tmp/ccsY7C6C.s 			page 18


 928              		.loc 1 272 0
 929 0020 03B0     		add	sp, sp, #12
 930 0022 00BD     		pop	{pc}
 931              	.L54:
 932              		.align	2
 933              	.L53:
 934 0024 00000000 		.word	dacLow
 935 0028 00000000 		.word	dacHigh
 936              		.cfi_endproc
 937              	.LFE77:
 938              		.size	processDac, .-processDac
 939              		.global	pulsePeriod
 940 002c AFF30080 		.section	.data.pulsePeriod,"aw",%progbits
 941              		.align	2
 942              		.type	pulsePeriod, %object
 943              		.size	pulsePeriod, 4
 944              	pulsePeriod:
 945 0000 E8030000 		.word	1000
 946              		.global	pulseTime
 947              		.section	.bss.pulseTime,"aw",%nobits
 948              		.align	2
 949              		.type	pulseTime, %object
 950              		.size	pulseTime, 4
 951              	pulseTime:
 952 0000 00000000 		.space	4
 953              		.global	pulseDac
 954              		.section	.bss.pulseDac,"aw",%nobits
 955              		.align	2
 956              		.type	pulseDac, %object
 957              		.size	pulseDac, 4
 958              	pulseDac:
 959 0000 00000000 		.space	4
 960              		.global	pulseDacSave
 961              		.section	.bss.pulseDacSave,"aw",%nobits
 962              		.align	2
 963              		.type	pulseDacSave, %object
 964              		.size	pulseDacSave, 4
 965              	pulseDacSave:
 966 0000 00000000 		.space	4
 967              		.section	.text.initOnePulse,"ax",%progbits
 968              		.align	2
 969              		.p2align 4,,15
 970              		.thumb
 971              		.thumb_func
 972              		.type	initOnePulse, %function
 973              	initOnePulse:
 974              	.LFB78:
 975              		.loc 1 279 0
 976              		.cfi_startproc
 977              		@ args = 0, pretend = 0, frame = 8
 978              		@ frame_needed = 0, uses_anonymous_args = 0
 979 0000 00B5     		push	{lr}
 980              	.LCFI19:
 981              		.cfi_def_cfa_offset 4
 982 0002 83B0     		sub	sp, sp, #12
 983              	.LCFI20:
 984              		.cfi_def_cfa_offset 16
ARM GAS  /tmp/ccsY7C6C.s 			page 19


 985              		.loc 1 280 0
 986              		.cfi_offset 14, -4
 987 0004 FFF7FEFF 		bl	funcArgs
 988 0008 0190     		str	r0, [sp, #4]
 989              		.loc 1 281 0
 990 000a 019B     		ldr	r3, [sp, #4]
 991 000c 1B78     		ldrb	r3, [r3, #0]	@ zero_extendqisi2
 992 000e 1A46     		mov	r2, r3
 993 0010 019B     		ldr	r3, [sp, #4]
 994 0012 03F10103 		add	r3, r3, #1
 995 0016 1B78     		ldrb	r3, [r3, #0]	@ zero_extendqisi2
 996 0018 4FEA0323 		lsl	r3, r3, #8
 997 001c 9BB2     		uxth	r3, r3
 998 001e D318     		adds	r3, r2, r3
 999 0020 9AB2     		uxth	r2, r3
 1000 0022 254B     		ldr	r3, .L56
 1001 0024 1A80     		strh	r2, [r3, #0]	@ movhi
 1002              		.loc 1 282 0
 1003 0026 019B     		ldr	r3, [sp, #4]
 1004 0028 03F10203 		add	r3, r3, #2
 1005 002c 1B78     		ldrb	r3, [r3, #0]	@ zero_extendqisi2
 1006 002e 1A46     		mov	r2, r3
 1007 0030 019B     		ldr	r3, [sp, #4]
 1008 0032 03F10303 		add	r3, r3, #3
 1009 0036 1B78     		ldrb	r3, [r3, #0]	@ zero_extendqisi2
 1010 0038 4FEA0323 		lsl	r3, r3, #8
 1011 003c 9BB2     		uxth	r3, r3
 1012 003e D318     		adds	r3, r2, r3
 1013 0040 9AB2     		uxth	r2, r3
 1014 0042 1D4B     		ldr	r3, .L56
 1015 0044 5A80     		strh	r2, [r3, #2]	@ movhi
 1016              		.loc 1 283 0
 1017 0046 1C48     		ldr	r0, .L56
 1018 0048 FFF7FEFF 		bl	dacSet
 1019              		.loc 1 285 0
 1020 004c 1B4B     		ldr	r3, .L56+4
 1021 004e 1B68     		ldr	r3, [r3, #0]
 1022 0050 9AB2     		uxth	r2, r3
 1023 0052 1B4B     		ldr	r3, .L56+8
 1024 0054 1A80     		strh	r2, [r3, #0]	@ movhi
 1025              		.loc 1 286 0
 1026 0056 1B4B     		ldr	r3, .L56+12
 1027 0058 1B68     		ldr	r3, [r3, #0]
 1028 005a 9AB2     		uxth	r2, r3
 1029 005c 184B     		ldr	r3, .L56+8
 1030 005e 5A80     		strh	r2, [r3, #2]	@ movhi
 1031              		.loc 1 288 0
 1032 0060 154B     		ldr	r3, .L56
 1033 0062 1B88     		ldrh	r3, [r3, #0]
 1034 0064 1A46     		mov	r2, r3
 1035 0066 154B     		ldr	r3, .L56+4
 1036 0068 1A60     		str	r2, [r3, #0]
 1037              		.loc 1 289 0
 1038 006a 134B     		ldr	r3, .L56
 1039 006c 5B88     		ldrh	r3, [r3, #2]
 1040 006e 1A46     		mov	r2, r3
 1041 0070 144B     		ldr	r3, .L56+12
ARM GAS  /tmp/ccsY7C6C.s 			page 20


 1042 0072 1A60     		str	r2, [r3, #0]
 1043              		.loc 1 291 0
 1044 0074 019B     		ldr	r3, [sp, #4]
 1045 0076 03F10403 		add	r3, r3, #4
 1046 007a 1B78     		ldrb	r3, [r3, #0]	@ zero_extendqisi2
 1047 007c 1A46     		mov	r2, r3
 1048              		.loc 1 292 0
 1049 007e 019B     		ldr	r3, [sp, #4]
 1050 0080 03F10503 		add	r3, r3, #5
 1051 0084 1B78     		ldrb	r3, [r3, #0]	@ zero_extendqisi2
 1052 0086 4FEA0323 		lsl	r3, r3, #8
 1053              		.loc 1 291 0
 1054 008a D218     		adds	r2, r2, r3
 1055              		.loc 1 293 0
 1056 008c 019B     		ldr	r3, [sp, #4]
 1057 008e 03F10603 		add	r3, r3, #6
 1058 0092 1B78     		ldrb	r3, [r3, #0]	@ zero_extendqisi2
 1059 0094 4FEA0343 		lsl	r3, r3, #16
 1060              		.loc 1 292 0
 1061 0098 D218     		adds	r2, r2, r3
 1062              		.loc 1 294 0
 1063 009a 019B     		ldr	r3, [sp, #4]
 1064 009c 03F10703 		add	r3, r3, #7
 1065 00a0 1B78     		ldrb	r3, [r3, #0]	@ zero_extendqisi2
 1066 00a2 4FEA0363 		lsl	r3, r3, #24
 1067              		.loc 1 293 0
 1068 00a6 D218     		adds	r2, r2, r3
 1069              		.loc 1 291 0
 1070 00a8 074B     		ldr	r3, .L56+16
 1071 00aa 1A60     		str	r2, [r3, #0]
 1072              		.loc 1 295 0
 1073 00ac 074B     		ldr	r3, .L56+20
 1074 00ae 4FF00002 		mov	r2, #0
 1075 00b2 1A60     		str	r2, [r3, #0]
 1076              		.loc 1 296 0
 1077 00b4 03B0     		add	sp, sp, #12
 1078 00b6 00BD     		pop	{pc}
 1079              	.L57:
 1080              		.align	2
 1081              	.L56:
 1082 00b8 00000000 		.word	pulseDac
 1083 00bc 00000000 		.word	dacLow
 1084 00c0 00000000 		.word	pulseDacSave
 1085 00c4 00000000 		.word	dacHigh
 1086 00c8 00000000 		.word	pulsePeriod
 1087 00cc 00000000 		.word	pulseTime
 1088              		.cfi_endproc
 1089              	.LFE78:
 1090              		.size	initOnePulse, .-initOnePulse
 1091              		.section	.text.processOnePulse,"ax",%progbits
 1092              		.align	2
 1093              		.p2align 4,,15
 1094              		.thumb
 1095              		.thumb_func
 1096              		.type	processOnePulse, %function
 1097              	processOnePulse:
 1098              	.LFB79:
ARM GAS  /tmp/ccsY7C6C.s 			page 21


 1099              		.loc 1 299 0
 1100              		.cfi_startproc
 1101              		@ args = 0, pretend = 0, frame = 0
 1102              		@ frame_needed = 0, uses_anonymous_args = 0
 1103 0000 08B5     		push	{r3, lr}
 1104              	.LCFI21:
 1105              		.cfi_def_cfa_offset 8
 1106              		.loc 1 300 0
 1107 0002 104B     		ldr	r3, .L60
 1108              		.cfi_offset 14, -4
 1109              		.cfi_offset 3, -8
 1110 0004 1B68     		ldr	r3, [r3, #0]
 1111 0006 03F10102 		add	r2, r3, #1
 1112 000a 0E4B     		ldr	r3, .L60
 1113 000c 1A60     		str	r2, [r3, #0]
 1114              		.loc 1 301 0
 1115 000e 0D4B     		ldr	r3, .L60
 1116 0010 1A68     		ldr	r2, [r3, #0]
 1117 0012 0D4B     		ldr	r3, .L60+4
 1118 0014 1B68     		ldr	r3, [r3, #0]
 1119 0016 9A42     		cmp	r2, r3
 1120 0018 10D3     		bcc	.L59
 1121              		.loc 1 303 0
 1122 001a 0C48     		ldr	r0, .L60+8
 1123 001c FFF7FEFF 		bl	dacSet
 1124              		.loc 1 304 0
 1125 0020 0A4B     		ldr	r3, .L60+8
 1126 0022 1B88     		ldrh	r3, [r3, #0]
 1127 0024 1A46     		mov	r2, r3
 1128 0026 0A4B     		ldr	r3, .L60+12
 1129 0028 1A60     		str	r2, [r3, #0]
 1130              		.loc 1 305 0
 1131 002a 084B     		ldr	r3, .L60+8
 1132 002c 5B88     		ldrh	r3, [r3, #2]
 1133 002e 1A46     		mov	r2, r3
 1134 0030 084B     		ldr	r3, .L60+16
 1135 0032 1A60     		str	r2, [r3, #0]
 1136              		.loc 1 306 0
 1137 0034 084B     		ldr	r3, .L60+20
 1138 0036 4FF00002 		mov	r2, #0
 1139 003a 1A70     		strb	r2, [r3, #0]
 1140              	.L59:
 1141              		.loc 1 308 0
 1142 003c FFF7FEFF 		bl	enableOsc
 1143              		.loc 1 309 0
 1144 0040 08BD     		pop	{r3, pc}
 1145              	.L61:
 1146 0042 00BF     		.align	2
 1147              	.L60:
 1148 0044 00000000 		.word	pulseTime
 1149 0048 00000000 		.word	pulsePeriod
 1150 004c 00000000 		.word	pulseDacSave
 1151 0050 00000000 		.word	dacLow
 1152 0054 00000000 		.word	dacHigh
 1153 0058 00000000 		.word	mode
 1154              		.cfi_endproc
 1155              	.LFE79:
ARM GAS  /tmp/ccsY7C6C.s 			page 22


 1156              		.size	processOnePulse, .-processOnePulse
 1157              		.global	meanderPeriod1
 1158 005c AFF30080 		.section	.data.meanderPeriod1,"aw",%progbits
 1159              		.align	2
 1160              		.type	meanderPeriod1, %object
 1161              		.size	meanderPeriod1, 4
 1162              	meanderPeriod1:
 1163 0000 E8030000 		.word	1000
 1164              		.global	meanderPeriod2
 1165              		.section	.data.meanderPeriod2,"aw",%progbits
 1166              		.align	2
 1167              		.type	meanderPeriod2, %object
 1168              		.size	meanderPeriod2, 4
 1169              	meanderPeriod2:
 1170 0000 D0070000 		.word	2000
 1171              		.global	meanderTime
 1172              		.section	.bss.meanderTime,"aw",%nobits
 1173              		.align	2
 1174              		.type	meanderTime, %object
 1175              		.size	meanderTime, 4
 1176              	meanderTime:
 1177 0000 00000000 		.space	4
 1178              		.global	meanderDac1
 1179              		.section	.bss.meanderDac1,"aw",%nobits
 1180              		.align	2
 1181              		.type	meanderDac1, %object
 1182              		.size	meanderDac1, 4
 1183              	meanderDac1:
 1184 0000 00000000 		.space	4
 1185              		.global	meanderDac2
 1186              		.section	.bss.meanderDac2,"aw",%nobits
 1187              		.align	2
 1188              		.type	meanderDac2, %object
 1189              		.size	meanderDac2, 4
 1190              	meanderDac2:
 1191 0000 00000000 		.space	4
 1192              		.section	.text.initMeandr,"ax",%progbits
 1193              		.align	2
 1194              		.p2align 4,,15
 1195              		.thumb
 1196              		.thumb_func
 1197              		.type	initMeandr, %function
 1198              	initMeandr:
 1199              	.LFB80:
 1200              		.loc 1 318 0
 1201              		.cfi_startproc
 1202              		@ args = 0, pretend = 0, frame = 8
 1203              		@ frame_needed = 0, uses_anonymous_args = 0
 1204 0000 00B5     		push	{lr}
 1205              	.LCFI22:
 1206              		.cfi_def_cfa_offset 4
 1207 0002 83B0     		sub	sp, sp, #12
 1208              	.LCFI23:
 1209              		.cfi_def_cfa_offset 16
 1210              		.loc 1 319 0
 1211              		.cfi_offset 14, -4
 1212 0004 FFF7FEFF 		bl	funcArgs
ARM GAS  /tmp/ccsY7C6C.s 			page 23


 1213 0008 0190     		str	r0, [sp, #4]
 1214              		.loc 1 321 0
 1215 000a 019B     		ldr	r3, [sp, #4]
 1216 000c 1B78     		ldrb	r3, [r3, #0]	@ zero_extendqisi2
 1217 000e 1A46     		mov	r2, r3
 1218 0010 019B     		ldr	r3, [sp, #4]
 1219 0012 03F10103 		add	r3, r3, #1
 1220 0016 1B78     		ldrb	r3, [r3, #0]	@ zero_extendqisi2
 1221 0018 4FEA0323 		lsl	r3, r3, #8
 1222 001c 9BB2     		uxth	r3, r3
 1223 001e D318     		adds	r3, r2, r3
 1224 0020 9AB2     		uxth	r2, r3
 1225 0022 3C4B     		ldr	r3, .L63
 1226 0024 1A80     		strh	r2, [r3, #0]	@ movhi
 1227              		.loc 1 322 0
 1228 0026 019B     		ldr	r3, [sp, #4]
 1229 0028 03F10203 		add	r3, r3, #2
 1230 002c 1B78     		ldrb	r3, [r3, #0]	@ zero_extendqisi2
 1231 002e 1A46     		mov	r2, r3
 1232 0030 019B     		ldr	r3, [sp, #4]
 1233 0032 03F10303 		add	r3, r3, #3
 1234 0036 1B78     		ldrb	r3, [r3, #0]	@ zero_extendqisi2
 1235 0038 4FEA0323 		lsl	r3, r3, #8
 1236 003c 9BB2     		uxth	r3, r3
 1237 003e D318     		adds	r3, r2, r3
 1238 0040 9AB2     		uxth	r2, r3
 1239 0042 344B     		ldr	r3, .L63
 1240 0044 5A80     		strh	r2, [r3, #2]	@ movhi
 1241              		.loc 1 323 0
 1242 0046 019B     		ldr	r3, [sp, #4]
 1243 0048 03F10403 		add	r3, r3, #4
 1244 004c 1B78     		ldrb	r3, [r3, #0]	@ zero_extendqisi2
 1245 004e 1A46     		mov	r2, r3
 1246              		.loc 1 324 0
 1247 0050 019B     		ldr	r3, [sp, #4]
 1248 0052 03F10503 		add	r3, r3, #5
 1249 0056 1B78     		ldrb	r3, [r3, #0]	@ zero_extendqisi2
 1250 0058 4FEA0323 		lsl	r3, r3, #8
 1251              		.loc 1 323 0
 1252 005c D218     		adds	r2, r2, r3
 1253              		.loc 1 325 0
 1254 005e 019B     		ldr	r3, [sp, #4]
 1255 0060 03F10603 		add	r3, r3, #6
 1256 0064 1B78     		ldrb	r3, [r3, #0]	@ zero_extendqisi2
 1257 0066 4FEA0343 		lsl	r3, r3, #16
 1258              		.loc 1 324 0
 1259 006a D218     		adds	r2, r2, r3
 1260              		.loc 1 326 0
 1261 006c 019B     		ldr	r3, [sp, #4]
 1262 006e 03F10703 		add	r3, r3, #7
 1263 0072 1B78     		ldrb	r3, [r3, #0]	@ zero_extendqisi2
 1264 0074 4FEA0363 		lsl	r3, r3, #24
 1265              		.loc 1 325 0
 1266 0078 D218     		adds	r2, r2, r3
 1267              		.loc 1 323 0
 1268 007a 274B     		ldr	r3, .L63+4
 1269 007c 1A60     		str	r2, [r3, #0]
ARM GAS  /tmp/ccsY7C6C.s 			page 24


 1270              		.loc 1 328 0
 1271 007e 019B     		ldr	r3, [sp, #4]
 1272 0080 03F10803 		add	r3, r3, #8
 1273 0084 1B78     		ldrb	r3, [r3, #0]	@ zero_extendqisi2
 1274 0086 1A46     		mov	r2, r3
 1275 0088 019B     		ldr	r3, [sp, #4]
 1276 008a 03F10903 		add	r3, r3, #9
 1277 008e 1B78     		ldrb	r3, [r3, #0]	@ zero_extendqisi2
 1278 0090 4FEA0323 		lsl	r3, r3, #8
 1279 0094 9BB2     		uxth	r3, r3
 1280 0096 D318     		adds	r3, r2, r3
 1281 0098 9AB2     		uxth	r2, r3
 1282 009a 204B     		ldr	r3, .L63+8
 1283 009c 1A80     		strh	r2, [r3, #0]	@ movhi
 1284              		.loc 1 329 0
 1285 009e 019B     		ldr	r3, [sp, #4]
 1286 00a0 03F10A03 		add	r3, r3, #10
 1287 00a4 1B78     		ldrb	r3, [r3, #0]	@ zero_extendqisi2
 1288 00a6 1A46     		mov	r2, r3
 1289 00a8 019B     		ldr	r3, [sp, #4]
 1290 00aa 03F10B03 		add	r3, r3, #11
 1291 00ae 1B78     		ldrb	r3, [r3, #0]	@ zero_extendqisi2
 1292 00b0 4FEA0323 		lsl	r3, r3, #8
 1293 00b4 9BB2     		uxth	r3, r3
 1294 00b6 D318     		adds	r3, r2, r3
 1295 00b8 9AB2     		uxth	r2, r3
 1296 00ba 184B     		ldr	r3, .L63+8
 1297 00bc 5A80     		strh	r2, [r3, #2]	@ movhi
 1298              		.loc 1 330 0
 1299 00be 019B     		ldr	r3, [sp, #4]
 1300 00c0 03F10C03 		add	r3, r3, #12
 1301 00c4 1B78     		ldrb	r3, [r3, #0]	@ zero_extendqisi2
 1302 00c6 1A46     		mov	r2, r3
 1303              		.loc 1 331 0
 1304 00c8 019B     		ldr	r3, [sp, #4]
 1305 00ca 03F10D03 		add	r3, r3, #13
 1306 00ce 1B78     		ldrb	r3, [r3, #0]	@ zero_extendqisi2
 1307 00d0 4FEA0323 		lsl	r3, r3, #8
 1308              		.loc 1 330 0
 1309 00d4 D218     		adds	r2, r2, r3
 1310              		.loc 1 332 0
 1311 00d6 019B     		ldr	r3, [sp, #4]
 1312 00d8 03F10E03 		add	r3, r3, #14
 1313 00dc 1B78     		ldrb	r3, [r3, #0]	@ zero_extendqisi2
 1314 00de 4FEA0343 		lsl	r3, r3, #16
 1315              		.loc 1 331 0
 1316 00e2 D218     		adds	r2, r2, r3
 1317              		.loc 1 333 0
 1318 00e4 019B     		ldr	r3, [sp, #4]
 1319 00e6 03F10F03 		add	r3, r3, #15
 1320 00ea 1B78     		ldrb	r3, [r3, #0]	@ zero_extendqisi2
 1321 00ec 4FEA0363 		lsl	r3, r3, #24
 1322              		.loc 1 332 0
 1323 00f0 D218     		adds	r2, r2, r3
 1324              		.loc 1 330 0
 1325 00f2 0B4B     		ldr	r3, .L63+12
 1326 00f4 1A60     		str	r2, [r3, #0]
ARM GAS  /tmp/ccsY7C6C.s 			page 25


 1327              		.loc 1 334 0
 1328 00f6 0A4B     		ldr	r3, .L63+12
 1329 00f8 1A68     		ldr	r2, [r3, #0]
 1330 00fa 074B     		ldr	r3, .L63+4
 1331 00fc 1B68     		ldr	r3, [r3, #0]
 1332 00fe D218     		adds	r2, r2, r3
 1333 0100 074B     		ldr	r3, .L63+12
 1334 0102 1A60     		str	r2, [r3, #0]
 1335              		.loc 1 335 0
 1336 0104 064B     		ldr	r3, .L63+12
 1337 0106 1A68     		ldr	r2, [r3, #0]
 1338 0108 064B     		ldr	r3, .L63+16
 1339 010a 1A60     		str	r2, [r3, #0]
 1340              		.loc 1 338 0
 1341 010c FFF7FEFF 		bl	enableOsc
 1342              		.loc 1 339 0
 1343 0110 03B0     		add	sp, sp, #12
 1344 0112 00BD     		pop	{pc}
 1345              	.L64:
 1346              		.align	2
 1347              	.L63:
 1348 0114 00000000 		.word	meanderDac1
 1349 0118 00000000 		.word	meanderPeriod1
 1350 011c 00000000 		.word	meanderDac2
 1351 0120 00000000 		.word	meanderPeriod2
 1352 0124 00000000 		.word	meanderTime
 1353              		.cfi_endproc
 1354              	.LFE80:
 1355              		.size	initMeandr, .-initMeandr
 1356 0128 AFF30080 		.section	.text.processMeandr,"ax",%progbits
 1356      AFF30080 
 1357              		.align	2
 1358              		.p2align 4,,15
 1359              		.thumb
 1360              		.thumb_func
 1361              		.type	processMeandr, %function
 1362              	processMeandr:
 1363              	.LFB81:
 1364              		.loc 1 342 0
 1365              		.cfi_startproc
 1366              		@ args = 0, pretend = 0, frame = 0
 1367              		@ frame_needed = 0, uses_anonymous_args = 0
 1368 0000 08B5     		push	{r3, lr}
 1369              	.LCFI24:
 1370              		.cfi_def_cfa_offset 8
 1371              		.loc 1 343 0
 1372 0002 114B     		ldr	r3, .L68
 1373              		.cfi_offset 14, -4
 1374              		.cfi_offset 3, -8
 1375 0004 1B68     		ldr	r3, [r3, #0]
 1376 0006 03F10102 		add	r2, r3, #1
 1377 000a 0F4B     		ldr	r3, .L68
 1378 000c 1A60     		str	r2, [r3, #0]
 1379              		.loc 1 344 0
 1380 000e 0E4B     		ldr	r3, .L68
 1381 0010 1A68     		ldr	r2, [r3, #0]
 1382 0012 0E4B     		ldr	r3, .L68+4
ARM GAS  /tmp/ccsY7C6C.s 			page 26


 1383 0014 1B68     		ldr	r3, [r3, #0]
 1384 0016 9A42     		cmp	r2, r3
 1385 0018 03D1     		bne	.L66
 1386              		.loc 1 347 0
 1387 001a 0D48     		ldr	r0, .L68+8
 1388 001c FFF7FEFF 		bl	dacSet
 1389 0020 11E0     		b	.L65
 1390              	.L66:
 1391              		.loc 1 349 0
 1392 0022 094B     		ldr	r3, .L68
 1393 0024 1A68     		ldr	r2, [r3, #0]
 1394 0026 0B4B     		ldr	r3, .L68+12
 1395 0028 1B68     		ldr	r3, [r3, #0]
 1396 002a 9A42     		cmp	r2, r3
 1397 002c 0BD3     		bcc	.L65
 1398              		.loc 1 351 0
 1399 002e 0A48     		ldr	r0, .L68+16
 1400 0030 FFF7FEFF 		bl	dacSet
 1401              		.loc 1 352 0
 1402 0034 044B     		ldr	r3, .L68
 1403 0036 1A68     		ldr	r2, [r3, #0]
 1404 0038 064B     		ldr	r3, .L68+12
 1405 003a 1B68     		ldr	r3, [r3, #0]
 1406 003c D21A     		subs	r2, r2, r3
 1407 003e 024B     		ldr	r3, .L68
 1408 0040 1A60     		str	r2, [r3, #0]
 1409              		.loc 1 355 0
 1410 0042 FFF7FEFF 		bl	enableOsc
 1411              	.L65:
 1412              		.loc 1 357 0
 1413 0046 08BD     		pop	{r3, pc}
 1414              	.L69:
 1415              		.align	2
 1416              	.L68:
 1417 0048 00000000 		.word	meanderTime
 1418 004c 00000000 		.word	meanderPeriod1
 1419 0050 00000000 		.word	meanderDac2
 1420 0054 00000000 		.word	meanderPeriod2
 1421 0058 00000000 		.word	meanderDac1
 1422              		.cfi_endproc
 1423              	.LFE81:
 1424              		.size	processMeandr, .-processMeandr
 1425              		.global	sweepPeriod
 1426 005c AFF30080 		.section	.data.sweepPeriod,"aw",%progbits
 1427              		.align	2
 1428              		.type	sweepPeriod, %object
 1429              		.size	sweepPeriod, 4
 1430              	sweepPeriod:
 1431 0000 E8030000 		.word	1000
 1432              		.global	sweepPeriodInvf
 1433              		.section	.data.sweepPeriodInvf,"aw",%progbits
 1434              		.align	2
 1435              		.type	sweepPeriodInvf, %object
 1436              		.size	sweepPeriodInvf, 4
 1437              	sweepPeriodInvf:
 1438 0000 6F12833A 		.word	981668463
 1439              		.global	sweepTime
ARM GAS  /tmp/ccsY7C6C.s 			page 27


 1440              		.section	.bss.sweepTime,"aw",%nobits
 1441              		.align	2
 1442              		.type	sweepTime, %object
 1443              		.size	sweepTime, 4
 1444              	sweepTime:
 1445 0000 00000000 		.space	4
 1446              		.global	sweepDac1
 1447              		.section	.bss.sweepDac1,"aw",%nobits
 1448              		.align	2
 1449              		.type	sweepDac1, %object
 1450              		.size	sweepDac1, 4
 1451              	sweepDac1:
 1452 0000 00000000 		.space	4
 1453              		.global	sweepDac2
 1454              		.section	.bss.sweepDac2,"aw",%nobits
 1455              		.align	2
 1456              		.type	sweepDac2, %object
 1457              		.size	sweepDac2, 4
 1458              	sweepDac2:
 1459 0000 00000000 		.space	4
 1460              		.global	sweepSpeed
 1461              		.section	.data.sweepSpeed,"aw",%progbits
 1462              		.type	sweepSpeed, %object
 1463              		.size	sweepSpeed, 1
 1464              	sweepSpeed:
 1465 0000 01       		.byte	1
 1466              		.global	dDacf1
 1467              		.section	.bss.dDacf1,"aw",%nobits
 1468              		.align	2
 1469              		.type	dDacf1, %object
 1470              		.size	dDacf1, 4
 1471              	dDacf1:
 1472 0000 00000000 		.space	4
 1473              		.global	dDacf2
 1474              		.section	.bss.dDacf2,"aw",%nobits
 1475              		.align	2
 1476              		.type	dDacf2, %object
 1477              		.size	dDacf2, 4
 1478              	dDacf2:
 1479 0000 00000000 		.space	4
 1480              		.global	__aeabi_i2f
 1481              		.global	__aeabi_fdiv
 1482              		.section	.text.initSweep,"ax",%progbits
 1483              		.align	2
 1484              		.p2align 4,,15
 1485              		.thumb
 1486              		.thumb_func
 1487              		.type	initSweep, %function
 1488              	initSweep:
 1489              	.LFB82:
 1490              		.loc 1 368 0
 1491              		.cfi_startproc
 1492              		@ args = 0, pretend = 0, frame = 8
 1493              		@ frame_needed = 0, uses_anonymous_args = 0
 1494 0000 00B5     		push	{lr}
 1495              	.LCFI25:
 1496              		.cfi_def_cfa_offset 4
ARM GAS  /tmp/ccsY7C6C.s 			page 28


 1497 0002 83B0     		sub	sp, sp, #12
 1498              	.LCFI26:
 1499              		.cfi_def_cfa_offset 16
 1500              		.loc 1 369 0
 1501              		.cfi_offset 14, -4
 1502 0004 FFF7FEFF 		bl	funcArgs
 1503 0008 0190     		str	r0, [sp, #4]
 1504              		.loc 1 371 0
 1505 000a 019B     		ldr	r3, [sp, #4]
 1506 000c 1B78     		ldrb	r3, [r3, #0]	@ zero_extendqisi2
 1507 000e 1A46     		mov	r2, r3
 1508 0010 019B     		ldr	r3, [sp, #4]
 1509 0012 03F10103 		add	r3, r3, #1
 1510 0016 1B78     		ldrb	r3, [r3, #0]	@ zero_extendqisi2
 1511 0018 4FEA0323 		lsl	r3, r3, #8
 1512 001c 9BB2     		uxth	r3, r3
 1513 001e D318     		adds	r3, r2, r3
 1514 0020 9AB2     		uxth	r2, r3
 1515 0022 404B     		ldr	r3, .L71
 1516 0024 1A80     		strh	r2, [r3, #0]	@ movhi
 1517              		.loc 1 372 0
 1518 0026 019B     		ldr	r3, [sp, #4]
 1519 0028 03F10203 		add	r3, r3, #2
 1520 002c 1B78     		ldrb	r3, [r3, #0]	@ zero_extendqisi2
 1521 002e 1A46     		mov	r2, r3
 1522 0030 019B     		ldr	r3, [sp, #4]
 1523 0032 03F10303 		add	r3, r3, #3
 1524 0036 1B78     		ldrb	r3, [r3, #0]	@ zero_extendqisi2
 1525 0038 4FEA0323 		lsl	r3, r3, #8
 1526 003c 9BB2     		uxth	r3, r3
 1527 003e D318     		adds	r3, r2, r3
 1528 0040 9AB2     		uxth	r2, r3
 1529 0042 384B     		ldr	r3, .L71
 1530 0044 5A80     		strh	r2, [r3, #2]	@ movhi
 1531              		.loc 1 373 0
 1532 0046 019B     		ldr	r3, [sp, #4]
 1533 0048 03F10403 		add	r3, r3, #4
 1534 004c 1B78     		ldrb	r3, [r3, #0]	@ zero_extendqisi2
 1535 004e 1A46     		mov	r2, r3
 1536 0050 019B     		ldr	r3, [sp, #4]
 1537 0052 03F10503 		add	r3, r3, #5
 1538 0056 1B78     		ldrb	r3, [r3, #0]	@ zero_extendqisi2
 1539 0058 4FEA0323 		lsl	r3, r3, #8
 1540 005c 9BB2     		uxth	r3, r3
 1541 005e D318     		adds	r3, r2, r3
 1542 0060 9AB2     		uxth	r2, r3
 1543 0062 314B     		ldr	r3, .L71+4
 1544 0064 1A80     		strh	r2, [r3, #0]	@ movhi
 1545              		.loc 1 374 0
 1546 0066 019B     		ldr	r3, [sp, #4]
 1547 0068 03F10603 		add	r3, r3, #6
 1548 006c 1B78     		ldrb	r3, [r3, #0]	@ zero_extendqisi2
 1549 006e 1A46     		mov	r2, r3
 1550 0070 019B     		ldr	r3, [sp, #4]
 1551 0072 03F10703 		add	r3, r3, #7
 1552 0076 1B78     		ldrb	r3, [r3, #0]	@ zero_extendqisi2
 1553 0078 4FEA0323 		lsl	r3, r3, #8
ARM GAS  /tmp/ccsY7C6C.s 			page 29


 1554 007c 9BB2     		uxth	r3, r3
 1555 007e D318     		adds	r3, r2, r3
 1556 0080 9AB2     		uxth	r2, r3
 1557 0082 294B     		ldr	r3, .L71+4
 1558 0084 5A80     		strh	r2, [r3, #2]	@ movhi
 1559              		.loc 1 375 0
 1560 0086 019B     		ldr	r3, [sp, #4]
 1561 0088 03F10803 		add	r3, r3, #8
 1562 008c 1B78     		ldrb	r3, [r3, #0]	@ zero_extendqisi2
 1563 008e 1A46     		mov	r2, r3
 1564              		.loc 1 376 0
 1565 0090 019B     		ldr	r3, [sp, #4]
 1566 0092 03F10903 		add	r3, r3, #9
 1567 0096 1B78     		ldrb	r3, [r3, #0]	@ zero_extendqisi2
 1568 0098 4FEA0323 		lsl	r3, r3, #8
 1569              		.loc 1 375 0
 1570 009c D218     		adds	r2, r2, r3
 1571              		.loc 1 377 0
 1572 009e 019B     		ldr	r3, [sp, #4]
 1573 00a0 03F10A03 		add	r3, r3, #10
 1574 00a4 1B78     		ldrb	r3, [r3, #0]	@ zero_extendqisi2
 1575 00a6 4FEA0343 		lsl	r3, r3, #16
 1576              		.loc 1 376 0
 1577 00aa D218     		adds	r2, r2, r3
 1578              		.loc 1 378 0
 1579 00ac 019B     		ldr	r3, [sp, #4]
 1580 00ae 03F10B03 		add	r3, r3, #11
 1581 00b2 1B78     		ldrb	r3, [r3, #0]	@ zero_extendqisi2
 1582 00b4 4FEA0363 		lsl	r3, r3, #24
 1583              		.loc 1 377 0
 1584 00b8 D318     		adds	r3, r2, r3
 1585              		.loc 1 375 0
 1586 00ba 1A46     		mov	r2, r3
 1587 00bc 1B4B     		ldr	r3, .L71+8
 1588 00be 1A60     		str	r2, [r3, #0]
 1589              		.loc 1 379 0
 1590 00c0 1A4B     		ldr	r3, .L71+8
 1591 00c2 1B68     		ldr	r3, [r3, #0]
 1592 00c4 1846     		mov	r0, r3
 1593 00c6 FFF7FEFF 		bl	__aeabi_i2f
 1594 00ca 0346     		mov	r3, r0
 1595 00cc 1D48     		ldr	r0, .L71+32	@ float
 1596 00ce 1946     		mov	r1, r3
 1597 00d0 FFF7FEFF 		bl	__aeabi_fdiv
 1598 00d4 0346     		mov	r3, r0
 1599 00d6 1A46     		mov	r2, r3
 1600 00d8 154B     		ldr	r3, .L71+12
 1601 00da 1A60     		str	r2, [r3, #0]	@ float
 1602              		.loc 1 380 0
 1603 00dc 124B     		ldr	r3, .L71+4
 1604 00de 1B88     		ldrh	r3, [r3, #0]
 1605 00e0 1A46     		mov	r2, r3
 1606 00e2 104B     		ldr	r3, .L71
 1607 00e4 1B88     		ldrh	r3, [r3, #0]
 1608 00e6 D31A     		subs	r3, r2, r3
 1609 00e8 1846     		mov	r0, r3
 1610 00ea FFF7FEFF 		bl	__aeabi_i2f
ARM GAS  /tmp/ccsY7C6C.s 			page 30


 1611 00ee 0246     		mov	r2, r0
 1612 00f0 104B     		ldr	r3, .L71+16
 1613 00f2 1A60     		str	r2, [r3, #0]	@ float
 1614              		.loc 1 381 0
 1615 00f4 0C4B     		ldr	r3, .L71+4
 1616 00f6 5B88     		ldrh	r3, [r3, #2]
 1617 00f8 1A46     		mov	r2, r3
 1618 00fa 0A4B     		ldr	r3, .L71
 1619 00fc 5B88     		ldrh	r3, [r3, #2]
 1620 00fe D31A     		subs	r3, r2, r3
 1621 0100 1846     		mov	r0, r3
 1622 0102 FFF7FEFF 		bl	__aeabi_i2f
 1623 0106 0246     		mov	r2, r0
 1624 0108 0B4B     		ldr	r3, .L71+20
 1625 010a 1A60     		str	r2, [r3, #0]	@ float
 1626              		.loc 1 382 0
 1627 010c 0B4B     		ldr	r3, .L71+24
 1628 010e 4FF00002 		mov	r2, #0
 1629 0112 1A60     		str	r2, [r3, #0]
 1630              		.loc 1 383 0
 1631 0114 0A4B     		ldr	r3, .L71+28
 1632 0116 4FF00102 		mov	r2, #1
 1633 011a 1A70     		strb	r2, [r3, #0]
 1634              		.loc 1 386 0
 1635 011c FFF7FEFF 		bl	enableOsc
 1636              		.loc 1 387 0
 1637 0120 03B0     		add	sp, sp, #12
 1638 0122 00BD     		pop	{pc}
 1639              	.L72:
 1640              		.align	2
 1641              	.L71:
 1642 0124 00000000 		.word	sweepDac1
 1643 0128 00000000 		.word	sweepDac2
 1644 012c 00000000 		.word	sweepPeriod
 1645 0130 00000000 		.word	sweepPeriodInvf
 1646 0134 00000000 		.word	dDacf1
 1647 0138 00000000 		.word	dDacf2
 1648 013c 00000000 		.word	sweepTime
 1649 0140 00000000 		.word	sweepSpeed
 1650 0144 0000803F 		.word	1065353216
 1651              		.cfi_endproc
 1652              	.LFE82:
 1653              		.size	initSweep, .-initSweep
 1654              		.global	__aeabi_fmul
 1655              		.global	__aeabi_f2iz
 1656 0148 AFF30080 		.section	.text.processSweep,"ax",%progbits
 1656      AFF30080 
 1657              		.align	2
 1658              		.p2align 4,,15
 1659              		.thumb
 1660              		.thumb_func
 1661              		.type	processSweep, %function
 1662              	processSweep:
 1663              	.LFB83:
 1664              		.loc 1 390 0
 1665              		.cfi_startproc
 1666              		@ args = 0, pretend = 0, frame = 24
ARM GAS  /tmp/ccsY7C6C.s 			page 31


 1667              		@ frame_needed = 0, uses_anonymous_args = 0
 1668 0000 00B5     		push	{lr}
 1669              	.LCFI27:
 1670              		.cfi_def_cfa_offset 4
 1671 0002 87B0     		sub	sp, sp, #28
 1672              	.LCFI28:
 1673              		.cfi_def_cfa_offset 32
 1674              		.loc 1 391 0
 1675 0004 3D4B     		ldr	r3, .L79
 1676 0006 1B78     		ldrb	r3, [r3, #0]	@ zero_extendqisi2
 1677 0008 5AB2     		sxtb	r2, r3
 1678 000a 3D4B     		ldr	r3, .L79+4
 1679 000c 1B68     		ldr	r3, [r3, #0]
 1680 000e D218     		adds	r2, r2, r3
 1681 0010 3B4B     		ldr	r3, .L79+4
 1682 0012 1A60     		str	r2, [r3, #0]
 1683              		.loc 1 393 0
 1684 0014 3A4B     		ldr	r3, .L79+4
 1685 0016 1A68     		ldr	r2, [r3, #0]
 1686 0018 3A4B     		ldr	r3, .L79+8
 1687 001a 1B68     		ldr	r3, [r3, #0]
 1688 001c 9A42     		cmp	r2, r3
 1689 001e B4BF     		ite	lt
 1690 0020 0023     		movlt	r3, #0
 1691 0022 0123     		movge	r3, #1
 1692 0024 8DF81330 		strb	r3, [sp, #19]
 1693              		.loc 1 394 0
 1694 0028 354B     		ldr	r3, .L79+4
 1695 002a 1B68     		ldr	r3, [r3, #0]
 1696 002c 002B     		cmp	r3, #0
 1697 002e CCBF     		ite	gt
 1698 0030 0023     		movgt	r3, #0
 1699 0032 0123     		movle	r3, #1
 1700 0034 8DF81230 		strb	r3, [sp, #18]
 1701              		.loc 1 397 0
 1702 0038 9DF81330 		ldrb	r3, [sp, #19]	@ zero_extendqisi2
 1703 003c 002B     		cmp	r3, #0
 1704 003e 03D0     		beq	.L74
 1705              		.cfi_offset 14, -4
 1706              		.loc 1 398 0
 1707 0040 304B     		ldr	r3, .L79+8
 1708 0042 1B68     		ldr	r3, [r3, #0]
 1709 0044 0593     		str	r3, [sp, #20]
 1710 0046 0CE0     		b	.L75
 1711              	.L74:
 1712              		.loc 1 399 0
 1713 0048 9DF81230 		ldrb	r3, [sp, #18]	@ zero_extendqisi2
 1714 004c 002B     		cmp	r3, #0
 1715 004e 05D0     		beq	.L76
 1716              		.loc 1 401 0
 1717 0050 4FF00003 		mov	r3, #0
 1718 0054 0593     		str	r3, [sp, #20]
 1719              		.loc 1 404 0
 1720 0056 FFF7FEFF 		bl	enableOsc
 1721 005a 02E0     		b	.L75
 1722              	.L76:
 1723              		.loc 1 407 0
ARM GAS  /tmp/ccsY7C6C.s 			page 32


 1724 005c 284B     		ldr	r3, .L79+4
 1725 005e 1B68     		ldr	r3, [r3, #0]
 1726 0060 0593     		str	r3, [sp, #20]
 1727              	.L75:
 1728              		.loc 1 408 0
 1729 0062 9DF81330 		ldrb	r3, [sp, #19]	@ zero_extendqisi2
 1730 0066 002B     		cmp	r3, #0
 1731 0068 03D1     		bne	.L77
 1732              		.loc 1 408 0 is_stmt 0 discriminator 1
 1733 006a 9DF81230 		ldrb	r3, [sp, #18]	@ zero_extendqisi2
 1734 006e 002B     		cmp	r3, #0
 1735 0070 08D0     		beq	.L78
 1736              	.L77:
 1737              		.loc 1 409 0 is_stmt 1
 1738 0072 224B     		ldr	r3, .L79
 1739 0074 1B78     		ldrb	r3, [r3, #0]	@ zero_extendqisi2
 1740 0076 DBB2     		uxtb	r3, r3
 1741 0078 C3F10003 		rsb	r3, r3, #0
 1742 007c DBB2     		uxtb	r3, r3
 1743 007e DAB2     		uxtb	r2, r3
 1744 0080 1E4B     		ldr	r3, .L79
 1745 0082 1A70     		strb	r2, [r3, #0]
 1746              	.L78:
 1747              		.loc 1 413 0
 1748 0084 0598     		ldr	r0, [sp, #20]
 1749 0086 FFF7FEFF 		bl	__aeabi_i2f
 1750 008a 0246     		mov	r2, r0
 1751 008c 1E4B     		ldr	r3, .L79+12
 1752 008e 1B68     		ldr	r3, [r3, #0]	@ float
 1753 0090 1046     		mov	r0, r2
 1754 0092 1946     		mov	r1, r3
 1755 0094 FFF7FEFF 		bl	__aeabi_fmul
 1756 0098 0346     		mov	r3, r0
 1757 009a 0393     		str	r3, [sp, #12]	@ float
 1758              		.loc 1 415 0
 1759 009c 1B4B     		ldr	r3, .L79+16
 1760 009e 1B88     		ldrh	r3, [r3, #0]
 1761 00a0 0293     		str	r3, [sp, #8]
 1762              		.loc 1 416 0
 1763 00a2 1B4B     		ldr	r3, .L79+20
 1764 00a4 1B68     		ldr	r3, [r3, #0]	@ float
 1765 00a6 1846     		mov	r0, r3
 1766 00a8 0399     		ldr	r1, [sp, #12]	@ float
 1767 00aa FFF7FEFF 		bl	__aeabi_fmul
 1768 00ae 0346     		mov	r3, r0
 1769 00b0 1846     		mov	r0, r3
 1770 00b2 FFF7FEFF 		bl	__aeabi_f2iz
 1771 00b6 0246     		mov	r2, r0
 1772 00b8 029B     		ldr	r3, [sp, #8]
 1773 00ba D318     		adds	r3, r2, r3
 1774 00bc 0193     		str	r3, [sp, #4]
 1775              		.loc 1 417 0
 1776 00be 019B     		ldr	r3, [sp, #4]
 1777 00c0 9BB2     		uxth	r3, r3
 1778 00c2 ADF80030 		strh	r3, [sp, #0]	@ movhi
 1779              		.loc 1 419 0
 1780 00c6 114B     		ldr	r3, .L79+16
ARM GAS  /tmp/ccsY7C6C.s 			page 33


 1781 00c8 5B88     		ldrh	r3, [r3, #2]
 1782 00ca 0293     		str	r3, [sp, #8]
 1783              		.loc 1 420 0
 1784 00cc 114B     		ldr	r3, .L79+24
 1785 00ce 1B68     		ldr	r3, [r3, #0]	@ float
 1786 00d0 1846     		mov	r0, r3
 1787 00d2 0399     		ldr	r1, [sp, #12]	@ float
 1788 00d4 FFF7FEFF 		bl	__aeabi_fmul
 1789 00d8 0346     		mov	r3, r0
 1790 00da 1846     		mov	r0, r3
 1791 00dc FFF7FEFF 		bl	__aeabi_f2iz
 1792 00e0 0246     		mov	r2, r0
 1793 00e2 029B     		ldr	r3, [sp, #8]
 1794 00e4 D318     		adds	r3, r2, r3
 1795 00e6 0193     		str	r3, [sp, #4]
 1796              		.loc 1 421 0
 1797 00e8 019B     		ldr	r3, [sp, #4]
 1798 00ea 9BB2     		uxth	r3, r3
 1799 00ec ADF80230 		strh	r3, [sp, #2]	@ movhi
 1800              		.loc 1 423 0
 1801 00f0 6B46     		mov	r3, sp
 1802 00f2 1846     		mov	r0, r3
 1803 00f4 FFF7FEFF 		bl	dacSet
 1804              		.loc 1 424 0
 1805 00f8 07B0     		add	sp, sp, #28
 1806 00fa 00BD     		pop	{pc}
 1807              	.L80:
 1808              		.align	2
 1809              	.L79:
 1810 00fc 00000000 		.word	sweepSpeed
 1811 0100 00000000 		.word	sweepTime
 1812 0104 00000000 		.word	sweepPeriod
 1813 0108 00000000 		.word	sweepPeriodInvf
 1814 010c 00000000 		.word	sweepDac1
 1815 0110 00000000 		.word	dDacf1
 1816 0114 00000000 		.word	dDacf2
 1817              		.cfi_endproc
 1818              	.LFE83:
 1819              		.size	processSweep, .-processSweep
 1820 0118 AFF30080 		.section	.text.initFb,"ax",%progbits
 1820      AFF30080 
 1821              		.align	2
 1822              		.p2align 4,,15
 1823              		.thumb
 1824              		.thumb_func
 1825              		.type	initFb, %function
 1826              	initFb:
 1827              	.LFB84:
 1828              		.loc 1 427 0
 1829              		.cfi_startproc
 1830              		@ args = 0, pretend = 0, frame = 0
 1831              		@ frame_needed = 0, uses_anonymous_args = 0
 1832              		@ link register save eliminated.
 1833              		.loc 1 429 0
 1834 0000 7047     		bx	lr
 1835              		.cfi_endproc
 1836              	.LFE84:
ARM GAS  /tmp/ccsY7C6C.s 			page 34


 1837              		.size	initFb, .-initFb
 1838 0002 00BFAFF3 		.section	.text.processFb,"ax",%progbits
 1838      0080AFF3 
 1838      0080AFF3 
 1838      0080
 1839              		.align	2
 1840              		.p2align 4,,15
 1841              		.thumb
 1842              		.thumb_func
 1843              		.type	processFb, %function
 1844              	processFb:
 1845              	.LFB85:
 1846              		.loc 1 432 0
 1847              		.cfi_startproc
 1848              		@ args = 0, pretend = 0, frame = 0
 1849              		@ frame_needed = 0, uses_anonymous_args = 0
 1850              		@ link register save eliminated.
 1851              		.loc 1 434 0
 1852 0000 7047     		bx	lr
 1853              		.cfi_endproc
 1854              	.LFE85:
 1855              		.size	processFb, .-processFb
 1856 0002 00BFAFF3 		.section	.data.filtered,"aw",%progbits
 1856      0080AFF3 
 1856      0080AFF3 
 1856      0080
 1857              		.align	2
 1858              		.type	filtered, %object
 1859              		.size	filtered, 12
 1860              	filtered:
 1861 0000 FF070000 		.word	2047
 1862 0004 FF070000 		.word	2047
 1863 0008 FF070000 		.word	2047
 1864              		.section	.text.processOsc,"ax",%progbits
 1865              		.align	2
 1866              		.p2align 4,,15
 1867              		.thumb
 1868              		.thumb_func
 1869              		.type	processOsc, %function
 1870              	processOsc:
 1871              	.LFB86:
 1872              		.loc 1 439 0
 1873              		.cfi_startproc
 1874              		@ args = 0, pretend = 0, frame = 24
 1875              		@ frame_needed = 0, uses_anonymous_args = 0
 1876 0000 00B5     		push	{lr}
 1877              	.LCFI29:
 1878              		.cfi_def_cfa_offset 4
 1879 0002 87B0     		sub	sp, sp, #28
 1880              	.LCFI30:
 1881              		.cfi_def_cfa_offset 32
 1882 0004 0190     		str	r0, [sp, #4]
 1883              		.loc 1 440 0
 1884 0006 844B     		ldr	r3, .L87
 1885 0008 1B68     		ldr	r3, [r3, #0]
 1886 000a 03F10102 		add	r2, r3, #1
 1887 000e 824B     		ldr	r3, .L87
ARM GAS  /tmp/ccsY7C6C.s 			page 35


 1888 0010 1A60     		str	r2, [r3, #0]
 1889              		.loc 1 442 0
 1890 0012 824B     		ldr	r3, .L87+4
 1891 0014 1B68     		ldr	r3, [r3, #0]
 1892 0016 4FEAA303 		asr	r3, r3, #2
 1893 001a 0593     		str	r3, [sp, #20]
 1894              		.loc 1 443 0
 1895 001c 059A     		ldr	r2, [sp, #20]
 1896 001e 47F6FF73 		movw	r3, #32767
 1897 0022 9A42     		cmp	r2, r3
 1898 0024 B8BF     		it	lt
 1899 0026 1346     		movlt	r3, r2
 1900 0028 0493     		str	r3, [sp, #16]
 1901              		.loc 1 444 0
 1902 002a 049B     		ldr	r3, [sp, #16]
 1903 002c 012B     		cmp	r3, #1
 1904 002e B8BF     		it	lt
 1905 0030 0123     		movlt	r3, #1
 1906 0032 0493     		str	r3, [sp, #16]
 1907              		.loc 1 445 0
 1908 0034 7A4B     		ldr	r3, .L87+8
 1909 0036 1B68     		ldr	r3, [r3, #0]
 1910 0038 4FEA4303 		lsl	r3, r3, #1
 1911 003c 03F10103 		add	r3, r3, #1
 1912 0040 049A     		ldr	r2, [sp, #16]
 1913 0042 02F1FF32 		add	r2, r2, #-1
 1914 0046 02FB03F2 		mul	r2, r2, r3
 1915 004a 019B     		ldr	r3, [sp, #4]
 1916 004c 1B88     		ldrh	r3, [r3, #0]
 1917 004e 4FEA4313 		lsl	r3, r3, #5
 1918 0052 D318     		adds	r3, r2, r3
 1919 0054 03F10102 		add	r2, r3, #1
 1920 0058 049B     		ldr	r3, [sp, #16]
 1921 005a B2FBF3F2 		udiv	r2, r2, r3
 1922 005e 704B     		ldr	r3, .L87+8
 1923 0060 1A60     		str	r2, [r3, #0]
 1924              		.loc 1 446 0
 1925 0062 6F4B     		ldr	r3, .L87+8
 1926 0064 1B68     		ldr	r3, [r3, #0]
 1927 0066 4FEA5302 		lsr	r2, r3, #1
 1928 006a 6D4B     		ldr	r3, .L87+8
 1929 006c 1A60     		str	r2, [r3, #0]
 1930              		.loc 1 447 0
 1931 006e 6C4B     		ldr	r3, .L87+8
 1932 0070 5B68     		ldr	r3, [r3, #4]
 1933 0072 4FEA4303 		lsl	r3, r3, #1
 1934 0076 03F10103 		add	r3, r3, #1
 1935 007a 049A     		ldr	r2, [sp, #16]
 1936 007c 02F1FF32 		add	r2, r2, #-1
 1937 0080 02FB03F2 		mul	r2, r2, r3
 1938 0084 019B     		ldr	r3, [sp, #4]
 1939 0086 03F10203 		add	r3, r3, #2
 1940 008a 1B88     		ldrh	r3, [r3, #0]
 1941 008c 4FEA4313 		lsl	r3, r3, #5
 1942 0090 D318     		adds	r3, r2, r3
 1943 0092 03F10102 		add	r2, r3, #1
 1944 0096 049B     		ldr	r3, [sp, #16]
ARM GAS  /tmp/ccsY7C6C.s 			page 36


 1945 0098 B2FBF3F2 		udiv	r2, r2, r3
 1946 009c 604B     		ldr	r3, .L87+8
 1947 009e 5A60     		str	r2, [r3, #4]
 1948              		.loc 1 448 0
 1949 00a0 5F4B     		ldr	r3, .L87+8
 1950 00a2 5B68     		ldr	r3, [r3, #4]
 1951 00a4 4FEA5302 		lsr	r2, r3, #1
 1952 00a8 5D4B     		ldr	r3, .L87+8
 1953 00aa 5A60     		str	r2, [r3, #4]
 1954              		.loc 1 449 0
 1955 00ac 5C4B     		ldr	r3, .L87+8
 1956 00ae 9B68     		ldr	r3, [r3, #8]
 1957 00b0 4FEA4303 		lsl	r3, r3, #1
 1958 00b4 03F10103 		add	r3, r3, #1
 1959 00b8 049A     		ldr	r2, [sp, #16]
 1960 00ba 02F1FF32 		add	r2, r2, #-1
 1961 00be 02FB03F2 		mul	r2, r2, r3
 1962 00c2 019B     		ldr	r3, [sp, #4]
 1963 00c4 03F10403 		add	r3, r3, #4
 1964 00c8 1B88     		ldrh	r3, [r3, #0]
 1965 00ca 4FEA4313 		lsl	r3, r3, #5
 1966 00ce D318     		adds	r3, r2, r3
 1967 00d0 03F10102 		add	r2, r3, #1
 1968 00d4 049B     		ldr	r3, [sp, #16]
 1969 00d6 B2FBF3F2 		udiv	r2, r2, r3
 1970 00da 514B     		ldr	r3, .L87+8
 1971 00dc 9A60     		str	r2, [r3, #8]
 1972              		.loc 1 450 0
 1973 00de 504B     		ldr	r3, .L87+8
 1974 00e0 9B68     		ldr	r3, [r3, #8]
 1975 00e2 4FEA5302 		lsr	r2, r3, #1
 1976 00e6 4E4B     		ldr	r3, .L87+8
 1977 00e8 9A60     		str	r2, [r3, #8]
 1978              		.loc 1 452 0
 1979 00ea 4B4B     		ldr	r3, .L87
 1980 00ec 1A68     		ldr	r2, [r3, #0]
 1981 00ee 4B4B     		ldr	r3, .L87+4
 1982 00f0 1B68     		ldr	r3, [r3, #0]
 1983 00f2 9A42     		cmp	r2, r3
 1984 00f4 C0F28D80 		blt	.L83
 1985              		.cfi_offset 14, -4
 1986              	.LBB10:
 1987              		.loc 1 454 0
 1988 00f8 474B     		ldr	r3, .L87
 1989 00fa 1A68     		ldr	r2, [r3, #0]
 1990 00fc 474B     		ldr	r3, .L87+4
 1991 00fe 1B68     		ldr	r3, [r3, #0]
 1992 0100 D21A     		subs	r2, r2, r3
 1993 0102 454B     		ldr	r3, .L87
 1994 0104 1A60     		str	r2, [r3, #0]
 1995              	.LBB11:
 1996              		.loc 1 455 0
 1997 0106 4FF02003 		mov	r3, #32
 1998              	@ 455 "./src/adc_ctrl.c" 1
 1999 010a 83F31188 		msr     BASEPRI, r3
 2000              	@ 0 "" 2
 2001              		.thumb
ARM GAS  /tmp/ccsY7C6C.s 			page 37


 2002              	.LBE11:
 2003 010e FFF7FEFF 		bl	dbg_check_lock_from_isr
 2004              		.loc 1 459 0
 2005 0112 444B     		ldr	r3, .L87+12
 2006 0114 1B69     		ldr	r3, [r3, #16]
 2007 0116 1A46     		mov	r2, r3
 2008 0118 424B     		ldr	r3, .L87+12
 2009 011a DB68     		ldr	r3, [r3, #12]
 2010 011c D31A     		subs	r3, r2, r3
 2011 011e 1A46     		mov	r2, r3
 2012 0120 404B     		ldr	r3, .L87+12
 2013 0122 9B68     		ldr	r3, [r3, #8]
 2014 0124 D31A     		subs	r3, r2, r3
 2015 0126 012B     		cmp	r3, #1
 2016 0128 69D9     		bls	.L85
 2017              		.loc 1 460 0 discriminator 1
 2018 012a 3F4B     		ldr	r3, .L87+16
 2019 012c 1B69     		ldr	r3, [r3, #16]
 2020 012e 1A46     		mov	r2, r3
 2021 0130 3D4B     		ldr	r3, .L87+16
 2022 0132 DB68     		ldr	r3, [r3, #12]
 2023 0134 D31A     		subs	r3, r2, r3
 2024 0136 1A46     		mov	r2, r3
 2025 0138 3B4B     		ldr	r3, .L87+16
 2026 013a 9B68     		ldr	r3, [r3, #8]
 2027 013c D31A     		subs	r3, r2, r3
 2028              		.loc 1 459 0 discriminator 1
 2029 013e 012B     		cmp	r3, #1
 2030 0140 5DD9     		bls	.L85
 2031              		.loc 1 461 0
 2032 0142 3A4B     		ldr	r3, .L87+20
 2033 0144 1B69     		ldr	r3, [r3, #16]
 2034 0146 1A46     		mov	r2, r3
 2035 0148 384B     		ldr	r3, .L87+20
 2036 014a DB68     		ldr	r3, [r3, #12]
 2037 014c D31A     		subs	r3, r2, r3
 2038 014e 1A46     		mov	r2, r3
 2039 0150 364B     		ldr	r3, .L87+20
 2040 0152 9B68     		ldr	r3, [r3, #8]
 2041 0154 D31A     		subs	r3, r2, r3
 2042              		.loc 1 460 0
 2043 0156 012B     		cmp	r3, #1
 2044 0158 51D9     		bls	.L85
 2045              		.loc 1 463 0
 2046 015a 314B     		ldr	r3, .L87+8
 2047 015c 1B68     		ldr	r3, [r3, #0]
 2048 015e ADF80E30 		strh	r3, [sp, #14]	@ movhi
 2049              		.loc 1 464 0
 2050 0162 BDF80E30 		ldrh	r3, [sp, #14]	@ movhi
 2051 0166 8DF80D30 		strb	r3, [sp, #13]
 2052              		.loc 1 465 0
 2053 016a BDF80E30 		ldrh	r3, [sp, #14]
 2054 016e 4FEA1323 		lsr	r3, r3, #8
 2055 0172 9BB2     		uxth	r3, r3
 2056 0174 8DF80C30 		strb	r3, [sp, #12]
 2057              		.loc 1 466 0
 2058 0178 9DF80D30 		ldrb	r3, [sp, #13]	@ zero_extendqisi2
ARM GAS  /tmp/ccsY7C6C.s 			page 38


 2059 017c 2948     		ldr	r0, .L87+12
 2060 017e 1946     		mov	r1, r3
 2061 0180 FFF7FEFF 		bl	chIQPutI
 2062              		.loc 1 467 0
 2063 0184 9DF80C30 		ldrb	r3, [sp, #12]	@ zero_extendqisi2
 2064 0188 2648     		ldr	r0, .L87+12
 2065 018a 1946     		mov	r1, r3
 2066 018c FFF7FEFF 		bl	chIQPutI
 2067              		.loc 1 469 0
 2068 0190 234B     		ldr	r3, .L87+8
 2069 0192 5B68     		ldr	r3, [r3, #4]
 2070 0194 ADF80E30 		strh	r3, [sp, #14]	@ movhi
 2071              		.loc 1 470 0
 2072 0198 BDF80E30 		ldrh	r3, [sp, #14]	@ movhi
 2073 019c 8DF80D30 		strb	r3, [sp, #13]
 2074              		.loc 1 471 0
 2075 01a0 BDF80E30 		ldrh	r3, [sp, #14]
 2076 01a4 4FEA1323 		lsr	r3, r3, #8
 2077 01a8 9BB2     		uxth	r3, r3
 2078 01aa 8DF80C30 		strb	r3, [sp, #12]
 2079              		.loc 1 472 0
 2080 01ae 9DF80D30 		ldrb	r3, [sp, #13]	@ zero_extendqisi2
 2081 01b2 1D48     		ldr	r0, .L87+16
 2082 01b4 1946     		mov	r1, r3
 2083 01b6 FFF7FEFF 		bl	chIQPutI
 2084              		.loc 1 473 0
 2085 01ba 9DF80C30 		ldrb	r3, [sp, #12]	@ zero_extendqisi2
 2086 01be 1A48     		ldr	r0, .L87+16
 2087 01c0 1946     		mov	r1, r3
 2088 01c2 FFF7FEFF 		bl	chIQPutI
 2089              		.loc 1 475 0
 2090 01c6 164B     		ldr	r3, .L87+8
 2091 01c8 9B68     		ldr	r3, [r3, #8]
 2092 01ca ADF80E30 		strh	r3, [sp, #14]	@ movhi
 2093              		.loc 1 476 0
 2094 01ce BDF80E30 		ldrh	r3, [sp, #14]	@ movhi
 2095 01d2 8DF80D30 		strb	r3, [sp, #13]
 2096              		.loc 1 477 0
 2097 01d6 BDF80E30 		ldrh	r3, [sp, #14]
 2098 01da 4FEA1323 		lsr	r3, r3, #8
 2099 01de 9BB2     		uxth	r3, r3
 2100 01e0 8DF80C30 		strb	r3, [sp, #12]
 2101              		.loc 1 478 0
 2102 01e4 9DF80D30 		ldrb	r3, [sp, #13]	@ zero_extendqisi2
 2103 01e8 1048     		ldr	r0, .L87+20
 2104 01ea 1946     		mov	r1, r3
 2105 01ec FFF7FEFF 		bl	chIQPutI
 2106              		.loc 1 479 0
 2107 01f0 9DF80C30 		ldrb	r3, [sp, #12]	@ zero_extendqisi2
 2108 01f4 0D48     		ldr	r0, .L87+20
 2109 01f6 1946     		mov	r1, r3
 2110 01f8 FFF7FEFF 		bl	chIQPutI
 2111 01fc 03E0     		b	.L86
 2112              	.L85:
 2113              		.loc 1 482 0
 2114 01fe 0C4B     		ldr	r3, .L87+24
 2115 0200 4FF00002 		mov	r2, #0
ARM GAS  /tmp/ccsY7C6C.s 			page 39


 2116 0204 1A70     		strb	r2, [r3, #0]
 2117              	.L86:
 2118              		.loc 1 483 0
 2119 0206 FFF7FEFF 		bl	dbg_check_unlock_from_isr
 2120              	.LBB12:
 2121 020a 4FF00003 		mov	r3, #0
 2122              	@ 483 "./src/adc_ctrl.c" 1
 2123 020e 83F31188 		msr     BASEPRI, r3
 2124              	@ 0 "" 2
 2125              		.thumb
 2126              	.L83:
 2127              	.LBE12:
 2128              	.LBE10:
 2129              		.loc 1 485 0
 2130 0212 07B0     		add	sp, sp, #28
 2131 0214 00BD     		pop	{pc}
 2132              	.L88:
 2133 0216 00BF     		.align	2
 2134              	.L87:
 2135 0218 00000000 		.word	oscTime
 2136 021c 00000000 		.word	oscPeriod
 2137 0220 00000000 		.word	filtered
 2138 0224 00000000 		.word	eaux_queue
 2139 0228 00000000 		.word	eref_queue
 2140 022c 00000000 		.word	iaux_queue
 2141 0230 00000000 		.word	oscEnabled
 2142              		.cfi_endproc
 2143              	.LFE86:
 2144              		.size	processOsc, .-processOsc
 2145 0234 AFF30080 		.section	.text.enableOsc,"ax",%progbits
 2145      AFF30080 
 2145      AFF30080 
 2146              		.align	2
 2147              		.p2align 4,,15
 2148              		.thumb
 2149              		.thumb_func
 2150              		.type	enableOsc, %function
 2151              	enableOsc:
 2152              	.LFB87:
 2153              		.loc 1 488 0
 2154              		.cfi_startproc
 2155              		@ args = 0, pretend = 0, frame = 8
 2156              		@ frame_needed = 0, uses_anonymous_args = 0
 2157 0000 00B5     		push	{lr}
 2158              	.LCFI31:
 2159              		.cfi_def_cfa_offset 4
 2160 0002 83B0     		sub	sp, sp, #12
 2161              	.LCFI32:
 2162              		.cfi_def_cfa_offset 16
 2163              	.LBB13:
 2164              		.loc 1 489 0
 2165 0004 4FF02003 		mov	r3, #32
 2166              	@ 489 "./src/adc_ctrl.c" 1
 2167 0008 83F31188 		msr     BASEPRI, r3
 2168              	@ 0 "" 2
 2169              		.thumb
 2170              	.LBE13:
ARM GAS  /tmp/ccsY7C6C.s 			page 40


 2171              		.cfi_offset 14, -4
 2172 000c FFF7FEFF 		bl	dbg_check_lock_from_isr
 2173              		.loc 1 490 0
 2174 0010 0D4B     		ldr	r3, .L91
 2175 0012 1B78     		ldrb	r3, [r3, #0]	@ zero_extendqisi2
 2176 0014 002B     		cmp	r3, #0
 2177 0016 0FD1     		bne	.L90
 2178              	.LBB14:
 2179              		.loc 1 492 0
 2180 0018 0C4B     		ldr	r3, .L91+4
 2181 001a 9A68     		ldr	r2, [r3, #8]
 2182              		.loc 1 493 0
 2183 001c 0C4B     		ldr	r3, .L91+8
 2184 001e 9B68     		ldr	r3, [r3, #8]
 2185              		.loc 1 492 0
 2186 0020 D218     		adds	r2, r2, r3
 2187              		.loc 1 494 0
 2188 0022 0C4B     		ldr	r3, .L91+12
 2189 0024 9B68     		ldr	r3, [r3, #8]
 2190              		.loc 1 493 0
 2191 0026 D318     		adds	r3, r2, r3
 2192              		.loc 1 492 0
 2193 0028 0193     		str	r3, [sp, #4]
 2194              		.loc 1 495 0
 2195 002a 019B     		ldr	r3, [sp, #4]
 2196 002c 002B     		cmp	r3, #0
 2197 002e 03DA     		bge	.L90
 2198              		.loc 1 496 0
 2199 0030 054B     		ldr	r3, .L91
 2200 0032 4FF00102 		mov	r2, #1
 2201 0036 1A70     		strb	r2, [r3, #0]
 2202              	.L90:
 2203              	.LBE14:
 2204              		.loc 1 498 0
 2205 0038 FFF7FEFF 		bl	dbg_check_unlock_from_isr
 2206              	.LBB15:
 2207 003c 4FF00003 		mov	r3, #0
 2208              	@ 498 "./src/adc_ctrl.c" 1
 2209 0040 83F31188 		msr     BASEPRI, r3
 2210              	@ 0 "" 2
 2211              		.thumb
 2212              	.LBE15:
 2213              		.loc 1 499 0
 2214 0044 03B0     		add	sp, sp, #12
 2215 0046 00BD     		pop	{pc}
 2216              	.L92:
 2217              		.align	2
 2218              	.L91:
 2219 0048 00000000 		.word	oscEnabled
 2220 004c 00000000 		.word	eaux_queue
 2221 0050 00000000 		.word	eref_queue
 2222 0054 00000000 		.word	iaux_queue
 2223              		.cfi_endproc
 2224              	.LFE87:
 2225              		.size	enableOsc, .-enableOsc
 2226 0058 AFF30080 		.text
 2226      AFF30080 
ARM GAS  /tmp/ccsY7C6C.s 			page 41


 2227              	.Letext0: