ARM GAS  C:\Users\z80\AppData\Local\Temp\ccJfsMfL.s 			page 1


   1              		.syntax unified
   2              		.cpu cortex-m3
   3              		.fpu softvfp
   4              		.eabi_attribute 20, 1
   5              		.eabi_attribute 21, 1
   6              		.eabi_attribute 23, 3
   7              		.eabi_attribute 24, 1
   8              		.eabi_attribute 25, 1
   9              		.eabi_attribute 26, 1
  10              		.eabi_attribute 30, 6
  11              		.eabi_attribute 18, 4
  12              		.thumb
  13              		.file	"adc_ctrl.c"
  14              		.section	.debug_abbrev,"",%progbits
  15              	.Ldebug_abbrev0:
  16              		.section	.debug_info,"",%progbits
  17              	.Ldebug_info0:
  18              		.section	.debug_line,"",%progbits
  19              	.Ldebug_line0:
  20 0000 8D050000 		.text
  20      02005D02 
  20      00000201 
  20      FB0E0D00 
  20      01010101 
  21              	.Ltext0:
  22              		.cfi_sections	.debug_frame
  23              		.global	fbEn
  24              		.section	.bss.fbEn,"aw",%nobits
  25              		.align	2
  26              		.type	fbEn, %object
  27              		.size	fbEn, 4
  28              	fbEn:
  29 0000 00000000 		.space	4
  30              		.global	fbEnPrev
  31              		.section	.bss.fbEnPrev,"aw",%nobits
  32              		.align	2
  33              		.type	fbEnPrev, %object
  34              		.size	fbEnPrev, 4
  35              	fbEnPrev:
  36 0000 00000000 		.space	4
  37              		.global	fbGainNum
  38              		.section	.data.fbGainNum,"aw",%progbits
  39              		.align	2
  40              		.type	fbGainNum, %object
  41              		.size	fbGainNum, 4
  42              	fbGainNum:
  43 0000 01000000 		.word	1
  44              		.global	fbGainDen
  45              		.section	.data.fbGainDen,"aw",%progbits
  46              		.align	2
  47              		.type	fbGainDen, %object
  48              		.size	fbGainDen, 4
  49              	fbGainDen:
  50 0000 01000000 		.word	1
  51              		.global	fbInIndex
  52              		.section	.data.fbInIndex,"aw",%progbits
  53              		.align	2
ARM GAS  C:\Users\z80\AppData\Local\Temp\ccJfsMfL.s 			page 2


  54              		.type	fbInIndex, %object
  55              		.size	fbInIndex, 4
  56              	fbInIndex:
  57 0000 02000000 		.word	2
  58              		.global	fbSetpoint
  59              		.section	.data.fbSetpoint,"aw",%progbits
  60              		.align	2
  61              		.type	fbSetpoint, %object
  62              		.size	fbSetpoint, 4
  63              	fbSetpoint:
  64 0000 FF070000 		.word	2047
  65              		.global	dacHigh
  66              		.section	.data.dacHigh,"aw",%progbits
  67              		.align	2
  68              		.type	dacHigh, %object
  69              		.size	dacHigh, 4
  70              	dacHigh:
  71 0000 FF070000 		.word	2047
  72              		.global	dacLow
  73              		.section	.data.dacLow,"aw",%progbits
  74              		.align	2
  75              		.type	dacLow, %object
  76              		.size	dacLow, 4
  77              	dacLow:
  78 0000 FF070000 		.word	2047
  79              		.global	eaux_queue
  80              		.section	.bss.eaux_queue,"aw",%nobits
  81              		.align	2
  82              		.type	eaux_queue, %object
  83              		.size	eaux_queue, 32
  84              	eaux_queue:
  85 0000 00000000 		.space	32
  85      00000000 
  85      00000000 
  85      00000000 
  85      00000000 
  86              		.global	eref_queue
  87              		.section	.bss.eref_queue,"aw",%nobits
  88              		.align	2
  89              		.type	eref_queue, %object
  90              		.size	eref_queue, 32
  91              	eref_queue:
  92 0000 00000000 		.space	32
  92      00000000 
  92      00000000 
  92      00000000 
  92      00000000 
  93              		.global	iaux_queue
  94              		.section	.bss.iaux_queue,"aw",%nobits
  95              		.align	2
  96              		.type	iaux_queue, %object
  97              		.size	iaux_queue, 32
  98              	iaux_queue:
  99 0000 00000000 		.space	32
  99      00000000 
  99      00000000 
  99      00000000 
ARM GAS  C:\Users\z80\AppData\Local\Temp\ccJfsMfL.s 			page 3


  99      00000000 
 100              		.global	eaux_queue_buffer
 101              		.section	.bss.eaux_queue_buffer,"aw",%nobits
 102              		.align	2
 103              		.type	eaux_queue_buffer, %object
 104              		.size	eaux_queue_buffer, 256
 105              	eaux_queue_buffer:
 106 0000 00000000 		.space	256
 106      00000000 
 106      00000000 
 106      00000000 
 106      00000000 
 107              		.global	eref_queue_buffer
 108              		.section	.bss.eref_queue_buffer,"aw",%nobits
 109              		.align	2
 110              		.type	eref_queue_buffer, %object
 111              		.size	eref_queue_buffer, 256
 112              	eref_queue_buffer:
 113 0000 00000000 		.space	256
 113      00000000 
 113      00000000 
 113      00000000 
 113      00000000 
 114              		.global	iaux_queue_buffer
 115              		.section	.bss.iaux_queue_buffer,"aw",%nobits
 116              		.align	2
 117              		.type	iaux_queue_buffer, %object
 118              		.size	iaux_queue_buffer, 256
 119              	iaux_queue_buffer:
 120 0000 00000000 		.space	256
 120      00000000 
 120      00000000 
 120      00000000 
 120      00000000 
 121              		.global	command_queue
 122              		.section	.bss.command_queue,"aw",%nobits
 123              		.align	2
 124              		.type	command_queue, %object
 125              		.size	command_queue, 32
 126              	command_queue:
 127 0000 00000000 		.space	32
 127      00000000 
 127      00000000 
 127      00000000 
 127      00000000 
 128              		.global	command_queue_buffer
 129              		.section	.bss.command_queue_buffer,"aw",%nobits
 130              		.align	2
 131              		.type	command_queue_buffer, %object
 132              		.size	command_queue_buffer, 4
 133              	command_queue_buffer:
 134 0000 00000000 		.space	4
 135              		.global	oscPeriod
 136              		.section	.data.oscPeriod,"aw",%progbits
 137              		.align	2
 138              		.type	oscPeriod, %object
 139              		.size	oscPeriod, 4
ARM GAS  C:\Users\z80\AppData\Local\Temp\ccJfsMfL.s 			page 4


 140              	oscPeriod:
 141 0000 10270000 		.word	10000
 142              		.global	oscTime
 143              		.section	.bss.oscTime,"aw",%nobits
 144              		.align	2
 145              		.type	oscTime, %object
 146              		.size	oscTime, 4
 147              	oscTime:
 148 0000 00000000 		.space	4
 149              		.global	bufferPeriod
 150              		.section	.data.bufferPeriod,"aw",%progbits
 151              		.align	2
 152              		.type	bufferPeriod, %object
 153              		.size	bufferPeriod, 4
 154              	bufferPeriod:
 155 0000 10270000 		.word	10000
 156              		.global	bufferTime
 157              		.section	.bss.bufferTime,"aw",%nobits
 158              		.align	2
 159              		.type	bufferTime, %object
 160              		.size	bufferTime, 4
 161              	bufferTime:
 162 0000 00000000 		.space	4
 163              		.global	bufferMask
 164              		.section	.data.bufferMask,"aw",%progbits
 165              		.type	bufferMask, %object
 166              		.size	bufferMask, 1
 167              	bufferMask:
 168 0000 01       		.byte	1
 169              		.global	bufferEnabled
 170              		.section	.bss.bufferEnabled,"aw",%nobits
 171              		.type	bufferEnabled, %object
 172              		.size	bufferEnabled, 1
 173              	bufferEnabled:
 174 0000 00       		.space	1
 175              		.global	bufferStoreData
 176              		.section	.bss.bufferStoreData,"aw",%nobits
 177              		.type	bufferStoreData, %object
 178              		.size	bufferStoreData, 1
 179              	bufferStoreData:
 180 0000 00       		.space	1
 181              		.global	buffer_queue
 182              		.section	.bss.buffer_queue,"aw",%nobits
 183              		.align	2
 184              		.type	buffer_queue, %object
 185              		.size	buffer_queue, 32
 186              	buffer_queue:
 187 0000 00000000 		.space	32
 187      00000000 
 187      00000000 
 187      00000000 
 187      00000000 
 188              		.global	buffer_queue_buffer
 189              		.section	.bss.buffer_queue_buffer,"aw",%nobits
 190              		.align	2
 191              		.type	buffer_queue_buffer, %object
 192              		.size	buffer_queue_buffer, 384
ARM GAS  C:\Users\z80\AppData\Local\Temp\ccJfsMfL.s 			page 5


 193              	buffer_queue_buffer:
 194 0000 00000000 		.space	384
 194      00000000 
 194      00000000 
 194      00000000 
 194      00000000 
 195              		.global	mode
 196              		.section	.bss.mode,"aw",%nobits
 197              		.type	mode, %object
 198              		.size	mode, 1
 199              	mode:
 200 0000 00       		.space	1
 201              		.section	.text.convAdcReadyCb,"ax",%progbits
 202              		.align	2
 203              		.p2align 4,,15
 204              		.thumb
 205              		.thumb_func
 206              		.type	convAdcReadyCb, %function
 207              	convAdcReadyCb:
 208              	.LFB62:
 209              		.file 1 "./src/adc_ctrl.c"
 210              		.loc 1 77 0
 211              		.cfi_startproc
 212              		@ args = 0, pretend = 0, frame = 24
 213              		@ frame_needed = 0, uses_anonymous_args = 0
 214 0000 00B5     		push	{lr}
 215              	.LCFI0:
 216              		.cfi_def_cfa_offset 4
 217 0002 87B0     		sub	sp, sp, #28
 218              	.LCFI1:
 219              		.cfi_def_cfa_offset 32
 220 0004 0390     		str	r0, [sp, #12]
 221 0006 0291     		str	r1, [sp, #8]
 222 0008 0192     		str	r2, [sp, #4]
 223              		.loc 1 84 0
 224 000a 40F20003 		movw	r3, #:lower16:mode
 225 000e C0F20003 		movt	r3, #:upper16:mode
 226 0012 1B78     		ldrb	r3, [r3, #0]	@ zero_extendqisi2
 227 0014 1846     		mov	r0, r3
 228              		.cfi_offset 14, -4
 229 0016 FFF7FEFF 		bl	modeProcess
 230              		.loc 1 87 0
 231 001a 0298     		ldr	r0, [sp, #8]
 232 001c FFF7FEFF 		bl	processOsc
 233              		.loc 1 90 0
 234 0020 0298     		ldr	r0, [sp, #8]
 235 0022 FFF7FEFF 		bl	processBufferI
 236              	.LBB2:
 237              		.loc 1 93 0
 238 0026 4FF02003 		mov	r3, #32
 239              	@ 93 "./src/adc_ctrl.c" 1
 240 002a 83F31188 		msr     BASEPRI, r3
 241              	@ 0 "" 2
 242              		.thumb
 243              	.LBE2:
 244 002e FFF7FEFF 		bl	dbg_check_lock_from_isr
 245              		.loc 1 95 0
ARM GAS  C:\Users\z80\AppData\Local\Temp\ccJfsMfL.s 			page 6


 246 0032 40F20000 		movw	r0, #:lower16:command_queue
 247 0036 C0F20000 		movt	r0, #:upper16:command_queue
 248 003a FFF7FEFF 		bl	chOQGetI
 249 003e 0346     		mov	r3, r0
 250 0040 0593     		str	r3, [sp, #20]
 251              		.loc 1 96 0
 252 0042 059B     		ldr	r3, [sp, #20]
 253 0044 13F1030F 		cmn	r3, #3
 254 0048 0CBF     		ite	eq
 255 004a 0023     		moveq	r3, #0
 256 004c 0123     		movne	r3, #1
 257 004e 8DF81330 		strb	r3, [sp, #19]
 258              		.loc 1 97 0
 259 0052 9DF81330 		ldrb	r3, [sp, #19]	@ zero_extendqisi2
 260 0056 002B     		cmp	r3, #0
 261 0058 06D0     		beq	.L2
 262              		.loc 1 99 0
 263 005a 059B     		ldr	r3, [sp, #20]
 264 005c DAB2     		uxtb	r2, r3
 265 005e 40F20003 		movw	r3, #:lower16:mode
 266 0062 C0F20003 		movt	r3, #:upper16:mode
 267 0066 1A70     		strb	r2, [r3, #0]
 268              	.L2:
 269              		.loc 1 100 0
 270 0068 FFF7FEFF 		bl	dbg_check_unlock_from_isr
 271              	.LBB3:
 272 006c 4FF00003 		mov	r3, #0
 273              	@ 100 "./src/adc_ctrl.c" 1
 274 0070 83F31188 		msr     BASEPRI, r3
 275              	@ 0 "" 2
 276              		.thumb
 277              	.LBE3:
 278              		.loc 1 103 0
 279 0074 9DF81330 		ldrb	r3, [sp, #19]	@ zero_extendqisi2
 280 0078 002B     		cmp	r3, #0
 281 007a 07D0     		beq	.L1
 282              		.loc 1 104 0
 283 007c 40F20003 		movw	r3, #:lower16:mode
 284 0080 C0F20003 		movt	r3, #:upper16:mode
 285 0084 1B78     		ldrb	r3, [r3, #0]	@ zero_extendqisi2
 286 0086 1846     		mov	r0, r3
 287 0088 FFF7FEFF 		bl	modeInit
 288              	.L1:
 289              		.loc 1 105 0
 290 008c 07B0     		add	sp, sp, #28
 291 008e 00BD     		pop	{pc}
 292              		.cfi_endproc
 293              	.LFE62:
 294              		.size	convAdcReadyCb, .-convAdcReadyCb
 295              		.section	.bss.adcSamples,"aw",%nobits
 296              		.align	2
 297              		.type	adcSamples, %object
 298              		.size	adcSamples, 12
 299              	adcSamples:
 300 0000 00000000 		.space	12
 300      00000000 
 300      00000000 
ARM GAS  C:\Users\z80\AppData\Local\Temp\ccJfsMfL.s 			page 7


 301              		.section	.rodata.adcGroup,"a",%progbits
 302              		.align	2
 303              		.type	adcGroup, %object
 304              		.size	adcGroup, 44
 305              	adcGroup:
 306 0000 01000000 		.word	1
 307 0004 0300     		.short	3
 308 0006 0000     		.space	2
 309 0008 00000000 		.word	convAdcReadyCb
 310 000c 00000000 		.word	0
 311 0010 00000000 		.word	0
 312 0014 00000000 		.word	0
 313 0018 FF010000 		.word	511
 314 001c 00000000 		.word	0
 315 0020 00002000 		.word	2097152
 316 0024 00000000 		.word	0
 317 0028 6A310000 		.word	12650
 318              		.section	.text.initAdc,"ax",%progbits
 319              		.align	2
 320              		.p2align 4,,15
 321              		.global	initAdc
 322              		.thumb
 323              		.thumb_func
 324              		.type	initAdc, %function
 325              	initAdc:
 326              	.LFB63:
 327              		.loc 1 146 0
 328              		.cfi_startproc
 329              		@ args = 0, pretend = 0, frame = 0
 330              		@ frame_needed = 0, uses_anonymous_args = 0
 331 0000 08B5     		push	{r3, lr}
 332              	.LCFI2:
 333              		.cfi_def_cfa_offset 8
 334              		.loc 1 148 0
 335 0002 40F20000 		movw	r0, #:lower16:command_queue
 336 0006 C0F20000 		movt	r0, #:upper16:command_queue
 337 000a 40F20001 		movw	r1, #:lower16:command_queue_buffer
 338 000e C0F20001 		movt	r1, #:upper16:command_queue_buffer
 339 0012 4FF00402 		mov	r2, #4
 340 0016 4FF00003 		mov	r3, #0
 341              		.cfi_offset 14, -4
 342              		.cfi_offset 3, -8
 343 001a FFF7FEFF 		bl	chOQInit
 344              		.loc 1 150 0
 345 001e 40F20000 		movw	r0, #:lower16:eaux_queue
 346 0022 C0F20000 		movt	r0, #:upper16:eaux_queue
 347 0026 40F20001 		movw	r1, #:lower16:eaux_queue_buffer
 348 002a C0F20001 		movt	r1, #:upper16:eaux_queue_buffer
 349 002e 4FF48072 		mov	r2, #256
 350 0032 4FF00003 		mov	r3, #0
 351 0036 FFF7FEFF 		bl	chIQInit
 352              		.loc 1 151 0
 353 003a 40F20000 		movw	r0, #:lower16:eref_queue
 354 003e C0F20000 		movt	r0, #:upper16:eref_queue
 355 0042 40F20001 		movw	r1, #:lower16:eref_queue_buffer
 356 0046 C0F20001 		movt	r1, #:upper16:eref_queue_buffer
 357 004a 4FF48072 		mov	r2, #256
ARM GAS  C:\Users\z80\AppData\Local\Temp\ccJfsMfL.s 			page 8


 358 004e 4FF00003 		mov	r3, #0
 359 0052 FFF7FEFF 		bl	chIQInit
 360              		.loc 1 152 0
 361 0056 40F20000 		movw	r0, #:lower16:iaux_queue
 362 005a C0F20000 		movt	r0, #:upper16:iaux_queue
 363 005e 40F20001 		movw	r1, #:lower16:iaux_queue_buffer
 364 0062 C0F20001 		movt	r1, #:upper16:iaux_queue_buffer
 365 0066 4FF48072 		mov	r2, #256
 366 006a 4FF00003 		mov	r3, #0
 367 006e FFF7FEFF 		bl	chIQInit
 368              		.loc 1 154 0
 369 0072 40F20000 		movw	r0, #:lower16:buffer_queue
 370 0076 C0F20000 		movt	r0, #:upper16:buffer_queue
 371 007a 40F20001 		movw	r1, #:lower16:buffer_queue_buffer
 372 007e C0F20001 		movt	r1, #:upper16:buffer_queue_buffer
 373 0082 4FF4C072 		mov	r2, #384
 374 0086 4FF00003 		mov	r3, #0
 375 008a FFF7FEFF 		bl	chIQInit
 376              		.loc 1 156 0
 377 008e 4FF48050 		mov	r0, #4096
 378 0092 C4F20100 		movt	r0, 16385
 379 0096 4FF4E051 		mov	r1, #7168
 380 009a 4FF00502 		mov	r2, #5
 381 009e FFF7FEFF 		bl	_pal_lld_setgroupmode
 382              		.loc 1 162 0
 383 00a2 40F20000 		movw	r0, #:lower16:ADCD1
 384 00a6 C0F20000 		movt	r0, #:upper16:ADCD1
 385 00aa 4FF00001 		mov	r1, #0
 386 00ae FFF7FEFF 		bl	adcStart
 387              		.loc 1 163 0
 388 00b2 40F20000 		movw	r0, #:lower16:ADCD1
 389 00b6 C0F20000 		movt	r0, #:upper16:ADCD1
 390 00ba 40F20001 		movw	r1, #:lower16:adcGroup
 391 00be C0F20001 		movt	r1, #:upper16:adcGroup
 392 00c2 40F20002 		movw	r2, #:lower16:adcSamples
 393 00c6 C0F20002 		movt	r2, #:upper16:adcSamples
 394 00ca 4FF00203 		mov	r3, #2
 395 00ce FFF7FEFF 		bl	adcStartConversion
 396              		.loc 1 164 0
 397 00d2 08BD     		pop	{r3, pc}
 398              		.cfi_endproc
 399              	.LFE63:
 400              		.size	initAdc, .-initAdc
 401 00d4 AFF30080 		.section	.text.setOscPeriod,"ax",%progbits
 401      AFF30080 
 401      AFF30080 
 402              		.align	2
 403              		.p2align 4,,15
 404              		.global	setOscPeriod
 405              		.thumb
 406              		.thumb_func
 407              		.type	setOscPeriod, %function
 408              	setOscPeriod:
 409              	.LFB64:
 410              		.loc 1 168 0
 411              		.cfi_startproc
 412              		@ args = 0, pretend = 0, frame = 8
ARM GAS  C:\Users\z80\AppData\Local\Temp\ccJfsMfL.s 			page 9


 413              		@ frame_needed = 0, uses_anonymous_args = 0
 414              		@ link register save eliminated.
 415 0000 82B0     		sub	sp, sp, #8
 416              	.LCFI3:
 417              		.cfi_def_cfa_offset 8
 418 0002 0190     		str	r0, [sp, #4]
 419              		.loc 1 169 0
 420 0004 019A     		ldr	r2, [sp, #4]
 421 0006 40F20003 		movw	r3, #:lower16:oscPeriod
 422 000a C0F20003 		movt	r3, #:upper16:oscPeriod
 423 000e 1A60     		str	r2, [r3, #0]
 424              		.loc 1 170 0
 425 0010 02B0     		add	sp, sp, #8
 426 0012 7047     		bx	lr
 427              		.cfi_endproc
 428              	.LFE64:
 429              		.size	setOscPeriod, .-setOscPeriod
 430 0014 AFF30080 		.section	.text.setBufferPeriod,"ax",%progbits
 430      AFF30080 
 430      AFF30080 
 431              		.align	2
 432              		.p2align 4,,15
 433              		.global	setBufferPeriod
 434              		.thumb
 435              		.thumb_func
 436              		.type	setBufferPeriod, %function
 437              	setBufferPeriod:
 438              	.LFB65:
 439              		.loc 1 173 0
 440              		.cfi_startproc
 441              		@ args = 0, pretend = 0, frame = 8
 442              		@ frame_needed = 0, uses_anonymous_args = 0
 443              		@ link register save eliminated.
 444 0000 82B0     		sub	sp, sp, #8
 445              	.LCFI4:
 446              		.cfi_def_cfa_offset 8
 447 0002 0190     		str	r0, [sp, #4]
 448              		.loc 1 174 0
 449 0004 019A     		ldr	r2, [sp, #4]
 450 0006 40F20003 		movw	r3, #:lower16:bufferPeriod
 451 000a C0F20003 		movt	r3, #:upper16:bufferPeriod
 452 000e 1A60     		str	r2, [r3, #0]
 453              		.loc 1 175 0
 454 0010 02B0     		add	sp, sp, #8
 455 0012 7047     		bx	lr
 456              		.cfi_endproc
 457              	.LFE65:
 458              		.size	setBufferPeriod, .-setBufferPeriod
 459 0014 AFF30080 		.section	.text.setBufferSigMask,"ax",%progbits
 459      AFF30080 
 459      AFF30080 
 460              		.align	2
 461              		.p2align 4,,15
 462              		.global	setBufferSigMask
 463              		.thumb
 464              		.thumb_func
 465              		.type	setBufferSigMask, %function
ARM GAS  C:\Users\z80\AppData\Local\Temp\ccJfsMfL.s 			page 10


 466              	setBufferSigMask:
 467              	.LFB66:
 468              		.loc 1 178 0
 469              		.cfi_startproc
 470              		@ args = 0, pretend = 0, frame = 8
 471              		@ frame_needed = 0, uses_anonymous_args = 0
 472              		@ link register save eliminated.
 473 0000 82B0     		sub	sp, sp, #8
 474              	.LCFI5:
 475              		.cfi_def_cfa_offset 8
 476 0002 0346     		mov	r3, r0
 477 0004 8DF80730 		strb	r3, [sp, #7]
 478              		.loc 1 179 0
 479 0008 40F20003 		movw	r3, #:lower16:bufferMask
 480 000c C0F20003 		movt	r3, #:upper16:bufferMask
 481 0010 9DF80720 		ldrb	r2, [sp, #7]
 482 0014 1A70     		strb	r2, [r3, #0]
 483              		.loc 1 180 0
 484 0016 02B0     		add	sp, sp, #8
 485 0018 7047     		bx	lr
 486              		.cfi_endproc
 487              	.LFE66:
 488              		.size	setBufferSigMask, .-setBufferSigMask
 489 001a 00BFAFF3 		.section	.text.setFbSetpoint,"ax",%progbits
 489      0080
 490              		.align	2
 491              		.p2align 4,,15
 492              		.global	setFbSetpoint
 493              		.thumb
 494              		.thumb_func
 495              		.type	setFbSetpoint, %function
 496              	setFbSetpoint:
 497              	.LFB67:
 498              		.loc 1 183 0
 499              		.cfi_startproc
 500              		@ args = 0, pretend = 0, frame = 8
 501              		@ frame_needed = 0, uses_anonymous_args = 0
 502              		@ link register save eliminated.
 503 0000 82B0     		sub	sp, sp, #8
 504              	.LCFI6:
 505              		.cfi_def_cfa_offset 8
 506 0002 0190     		str	r0, [sp, #4]
 507              		.loc 1 185 0
 508 0004 02B0     		add	sp, sp, #8
 509 0006 7047     		bx	lr
 510              		.cfi_endproc
 511              	.LFE67:
 512              		.size	setFbSetpoint, .-setFbSetpoint
 513 0008 AFF30080 		.section	.text.setFbInput,"ax",%progbits
 513      AFF30080 
 514              		.align	2
 515              		.p2align 4,,15
 516              		.global	setFbInput
 517              		.thumb
 518              		.thumb_func
 519              		.type	setFbInput, %function
 520              	setFbInput:
ARM GAS  C:\Users\z80\AppData\Local\Temp\ccJfsMfL.s 			page 11


 521              	.LFB68:
 522              		.loc 1 188 0
 523              		.cfi_startproc
 524              		@ args = 0, pretend = 0, frame = 8
 525              		@ frame_needed = 0, uses_anonymous_args = 0
 526              		@ link register save eliminated.
 527 0000 82B0     		sub	sp, sp, #8
 528              	.LCFI7:
 529              		.cfi_def_cfa_offset 8
 530 0002 0190     		str	r0, [sp, #4]
 531              		.loc 1 190 0
 532 0004 02B0     		add	sp, sp, #8
 533 0006 7047     		bx	lr
 534              		.cfi_endproc
 535              	.LFE68:
 536              		.size	setFbInput, .-setFbInput
 537 0008 AFF30080 		.section	.text.setFbGain,"ax",%progbits
 537      AFF30080 
 538              		.align	2
 539              		.p2align 4,,15
 540              		.global	setFbGain
 541              		.thumb
 542              		.thumb_func
 543              		.type	setFbGain, %function
 544              	setFbGain:
 545              	.LFB69:
 546              		.loc 1 193 0
 547              		.cfi_startproc
 548              		@ args = 0, pretend = 0, frame = 8
 549              		@ frame_needed = 0, uses_anonymous_args = 0
 550              		@ link register save eliminated.
 551 0000 82B0     		sub	sp, sp, #8
 552              	.LCFI8:
 553              		.cfi_def_cfa_offset 8
 554 0002 0190     		str	r0, [sp, #4]
 555 0004 0091     		str	r1, [sp, #0]
 556              		.loc 1 196 0
 557 0006 02B0     		add	sp, sp, #8
 558 0008 7047     		bx	lr
 559              		.cfi_endproc
 560              	.LFE69:
 561              		.size	setFbGain, .-setFbGain
 562 000a 00BFAFF3 		.section	.text.setFbEn,"ax",%progbits
 562      0080
 563              		.align	2
 564              		.p2align 4,,15
 565              		.global	setFbEn
 566              		.thumb
 567              		.thumb_func
 568              		.type	setFbEn, %function
 569              	setFbEn:
 570              	.LFB70:
 571              		.loc 1 199 0
 572              		.cfi_startproc
 573              		@ args = 0, pretend = 0, frame = 8
 574              		@ frame_needed = 0, uses_anonymous_args = 0
 575              		@ link register save eliminated.
ARM GAS  C:\Users\z80\AppData\Local\Temp\ccJfsMfL.s 			page 12


 576 0000 82B0     		sub	sp, sp, #8
 577              	.LCFI9:
 578              		.cfi_def_cfa_offset 8
 579 0002 0190     		str	r0, [sp, #4]
 580              		.loc 1 201 0
 581 0004 02B0     		add	sp, sp, #8
 582 0006 7047     		bx	lr
 583              		.cfi_endproc
 584              	.LFE70:
 585              		.size	setFbEn, .-setFbEn
 586 0008 AFF30080 		.section	.text.commandQueue,"ax",%progbits
 586      AFF30080 
 587              		.align	2
 588              		.p2align 4,,15
 589              		.global	commandQueue
 590              		.thumb
 591              		.thumb_func
 592              		.type	commandQueue, %function
 593              	commandQueue:
 594              	.LFB71:
 595              		.loc 1 204 0
 596              		.cfi_startproc
 597              		@ args = 0, pretend = 0, frame = 0
 598              		@ frame_needed = 0, uses_anonymous_args = 0
 599              		@ link register save eliminated.
 600              		.loc 1 205 0
 601 0000 40F20003 		movw	r3, #:lower16:command_queue
 602 0004 C0F20003 		movt	r3, #:upper16:command_queue
 603              		.loc 1 206 0
 604 0008 1846     		mov	r0, r3
 605 000a 7047     		bx	lr
 606              		.cfi_endproc
 607              	.LFE71:
 608              		.size	commandQueue, .-commandQueue
 609 000c AFF30080 		.section	.text.eauxQueue,"ax",%progbits
 610              		.align	2
 611              		.p2align 4,,15
 612              		.global	eauxQueue
 613              		.thumb
 614              		.thumb_func
 615              		.type	eauxQueue, %function
 616              	eauxQueue:
 617              	.LFB72:
 618              		.loc 1 209 0
 619              		.cfi_startproc
 620              		@ args = 0, pretend = 0, frame = 0
 621              		@ frame_needed = 0, uses_anonymous_args = 0
 622              		@ link register save eliminated.
 623              		.loc 1 210 0
 624 0000 40F20003 		movw	r3, #:lower16:eaux_queue
 625 0004 C0F20003 		movt	r3, #:upper16:eaux_queue
 626              		.loc 1 211 0
 627 0008 1846     		mov	r0, r3
 628 000a 7047     		bx	lr
 629              		.cfi_endproc
 630              	.LFE72:
 631              		.size	eauxQueue, .-eauxQueue
ARM GAS  C:\Users\z80\AppData\Local\Temp\ccJfsMfL.s 			page 13


 632 000c AFF30080 		.section	.text.erefQueue,"ax",%progbits
 633              		.align	2
 634              		.p2align 4,,15
 635              		.global	erefQueue
 636              		.thumb
 637              		.thumb_func
 638              		.type	erefQueue, %function
 639              	erefQueue:
 640              	.LFB73:
 641              		.loc 1 214 0
 642              		.cfi_startproc
 643              		@ args = 0, pretend = 0, frame = 0
 644              		@ frame_needed = 0, uses_anonymous_args = 0
 645              		@ link register save eliminated.
 646              		.loc 1 215 0
 647 0000 40F20003 		movw	r3, #:lower16:eref_queue
 648 0004 C0F20003 		movt	r3, #:upper16:eref_queue
 649              		.loc 1 216 0
 650 0008 1846     		mov	r0, r3
 651 000a 7047     		bx	lr
 652              		.cfi_endproc
 653              	.LFE73:
 654              		.size	erefQueue, .-erefQueue
 655 000c AFF30080 		.section	.text.iauxQueue,"ax",%progbits
 656              		.align	2
 657              		.p2align 4,,15
 658              		.global	iauxQueue
 659              		.thumb
 660              		.thumb_func
 661              		.type	iauxQueue, %function
 662              	iauxQueue:
 663              	.LFB74:
 664              		.loc 1 219 0
 665              		.cfi_startproc
 666              		@ args = 0, pretend = 0, frame = 0
 667              		@ frame_needed = 0, uses_anonymous_args = 0
 668              		@ link register save eliminated.
 669              		.loc 1 220 0
 670 0000 40F20003 		movw	r3, #:lower16:iaux_queue
 671 0004 C0F20003 		movt	r3, #:upper16:iaux_queue
 672              		.loc 1 221 0
 673 0008 1846     		mov	r0, r3
 674 000a 7047     		bx	lr
 675              		.cfi_endproc
 676              	.LFE74:
 677              		.size	iauxQueue, .-iauxQueue
 678 000c AFF30080 		.section	.text.bufferQueue,"ax",%progbits
 679              		.align	2
 680              		.p2align 4,,15
 681              		.global	bufferQueue
 682              		.thumb
 683              		.thumb_func
 684              		.type	bufferQueue, %function
 685              	bufferQueue:
 686              	.LFB75:
 687              		.loc 1 224 0
 688              		.cfi_startproc
ARM GAS  C:\Users\z80\AppData\Local\Temp\ccJfsMfL.s 			page 14


 689              		@ args = 0, pretend = 0, frame = 0
 690              		@ frame_needed = 0, uses_anonymous_args = 0
 691              		@ link register save eliminated.
 692              		.loc 1 225 0
 693 0000 40F20003 		movw	r3, #:lower16:buffer_queue
 694 0004 C0F20003 		movt	r3, #:upper16:buffer_queue
 695              		.loc 1 226 0
 696 0008 1846     		mov	r0, r3
 697 000a 7047     		bx	lr
 698              		.cfi_endproc
 699              	.LFE75:
 700              		.size	bufferQueue, .-bufferQueue
 701 000c AFF30080 		.section	.text.modeProcess,"ax",%progbits
 702              		.align	2
 703              		.p2align 4,,15
 704              		.global	modeProcess
 705              		.thumb
 706              		.thumb_func
 707              		.type	modeProcess, %function
 708              	modeProcess:
 709              	.LFB76:
 710              		.loc 1 229 0
 711              		.cfi_startproc
 712              		@ args = 0, pretend = 0, frame = 8
 713              		@ frame_needed = 0, uses_anonymous_args = 0
 714 0000 00B5     		push	{lr}
 715              	.LCFI10:
 716              		.cfi_def_cfa_offset 4
 717 0002 83B0     		sub	sp, sp, #12
 718              	.LCFI11:
 719              		.cfi_def_cfa_offset 16
 720 0004 0190     		str	r0, [sp, #4]
 721              		.loc 1 230 0
 722 0006 019B     		ldr	r3, [sp, #4]
 723 0008 042B     		cmp	r3, #4
 724 000a 1CD8     		bhi	.L17
 725 000c 01A2     		adr	r2, .L24
 726 000e 52F823F0 		ldr	pc, [r2, r3, lsl #2]
 727              		.cfi_offset 14, -4
 728 0012 00BF     		.align	2
 729              	.L24:
 730 0014 29000000 		.word	.L19+1
 731 0018 2F000000 		.word	.L20+1
 732 001c 35000000 		.word	.L21+1
 733 0020 3B000000 		.word	.L22+1
 734 0024 41000000 		.word	.L23+1
 735              	.L19:
 736              		.loc 1 233 0
 737 0028 FFF7FEFF 		bl	processDac
 738              		.loc 1 234 0
 739 002c 0BE0     		b	.L17
 740              	.L20:
 741              		.loc 1 236 0
 742 002e FFF7FEFF 		bl	processOnePulse
 743              		.loc 1 237 0
 744 0032 08E0     		b	.L17
 745              	.L21:
ARM GAS  C:\Users\z80\AppData\Local\Temp\ccJfsMfL.s 			page 15


 746              		.loc 1 239 0
 747 0034 FFF7FEFF 		bl	processMeandr
 748              		.loc 1 240 0
 749 0038 05E0     		b	.L17
 750              	.L22:
 751              		.loc 1 242 0
 752 003a FFF7FEFF 		bl	processSweep
 753              		.loc 1 243 0
 754 003e 02E0     		b	.L17
 755              	.L23:
 756              		.loc 1 245 0
 757 0040 FFF7FEFF 		bl	processFb
 758              		.loc 1 246 0
 759 0044 00BF     		nop
 760              	.L17:
 761              		.loc 1 248 0
 762 0046 03B0     		add	sp, sp, #12
 763 0048 00BD     		pop	{pc}
 764              		.cfi_endproc
 765              	.LFE76:
 766              		.size	modeProcess, .-modeProcess
 767 004a 00BFAFF3 		.section	.text.modeInit,"ax",%progbits
 767      0080
 768              		.align	2
 769              		.p2align 4,,15
 770              		.global	modeInit
 771              		.thumb
 772              		.thumb_func
 773              		.type	modeInit, %function
 774              	modeInit:
 775              	.LFB77:
 776              		.loc 1 251 0
 777              		.cfi_startproc
 778              		@ args = 0, pretend = 0, frame = 8
 779              		@ frame_needed = 0, uses_anonymous_args = 0
 780 0000 00B5     		push	{lr}
 781              	.LCFI12:
 782              		.cfi_def_cfa_offset 4
 783 0002 83B0     		sub	sp, sp, #12
 784              	.LCFI13:
 785              		.cfi_def_cfa_offset 16
 786 0004 0190     		str	r0, [sp, #4]
 787              		.loc 1 252 0
 788 0006 019B     		ldr	r3, [sp, #4]
 789 0008 042B     		cmp	r3, #4
 790 000a 1CD8     		bhi	.L25
 791 000c 01A2     		adr	r2, .L32
 792 000e 52F823F0 		ldr	pc, [r2, r3, lsl #2]
 793              		.cfi_offset 14, -4
 794 0012 00BF     		.align	2
 795              	.L32:
 796 0014 29000000 		.word	.L27+1
 797 0018 2F000000 		.word	.L28+1
 798 001c 35000000 		.word	.L29+1
 799 0020 3B000000 		.word	.L30+1
 800 0024 41000000 		.word	.L31+1
 801              	.L27:
ARM GAS  C:\Users\z80\AppData\Local\Temp\ccJfsMfL.s 			page 16


 802              		.loc 1 255 0
 803 0028 FFF7FEFF 		bl	initDac
 804              		.loc 1 256 0
 805 002c 0BE0     		b	.L25
 806              	.L28:
 807              		.loc 1 258 0
 808 002e FFF7FEFF 		bl	initOnePulse
 809              		.loc 1 259 0
 810 0032 08E0     		b	.L25
 811              	.L29:
 812              		.loc 1 261 0
 813 0034 FFF7FEFF 		bl	initMeandr
 814              		.loc 1 262 0
 815 0038 05E0     		b	.L25
 816              	.L30:
 817              		.loc 1 264 0
 818 003a FFF7FEFF 		bl	initSweep
 819              		.loc 1 265 0
 820 003e 02E0     		b	.L25
 821              	.L31:
 822              		.loc 1 267 0
 823 0040 FFF7FEFF 		bl	initFb
 824              		.loc 1 268 0
 825 0044 00BF     		nop
 826              	.L25:
 827              		.loc 1 270 0
 828 0046 03B0     		add	sp, sp, #12
 829 0048 00BD     		pop	{pc}
 830              		.cfi_endproc
 831              	.LFE77:
 832              		.size	modeInit, .-modeInit
 833 004a 00BFAFF3 		.section	.text.initDac,"ax",%progbits
 833      0080
 834              		.align	2
 835              		.p2align 4,,15
 836              		.thumb
 837              		.thumb_func
 838              		.type	initDac, %function
 839              	initDac:
 840              	.LFB78:
 841              		.loc 1 273 0
 842              		.cfi_startproc
 843              		@ args = 0, pretend = 0, frame = 8
 844              		@ frame_needed = 0, uses_anonymous_args = 0
 845 0000 00B5     		push	{lr}
 846              	.LCFI14:
 847              		.cfi_def_cfa_offset 4
 848 0002 83B0     		sub	sp, sp, #12
 849              	.LCFI15:
 850              		.cfi_def_cfa_offset 16
 851              		.loc 1 274 0
 852              		.cfi_offset 14, -4
 853 0004 FFF7FEFF 		bl	funcArgs
 854 0008 0346     		mov	r3, r0
 855 000a 0193     		str	r3, [sp, #4]
 856              		.loc 1 275 0
 857 000c 019B     		ldr	r3, [sp, #4]
ARM GAS  C:\Users\z80\AppData\Local\Temp\ccJfsMfL.s 			page 17


 858 000e 1B78     		ldrb	r3, [r3, #0]	@ zero_extendqisi2
 859 0010 1A46     		mov	r2, r3
 860 0012 019B     		ldr	r3, [sp, #4]
 861 0014 03F10103 		add	r3, r3, #1
 862 0018 1B78     		ldrb	r3, [r3, #0]	@ zero_extendqisi2
 863 001a 4FEA0323 		lsl	r3, r3, #8
 864 001e 1A44     		add	r2, r2, r3
 865 0020 40F20003 		movw	r3, #:lower16:dacLow
 866 0024 C0F20003 		movt	r3, #:upper16:dacLow
 867 0028 1A60     		str	r2, [r3, #0]
 868              		.loc 1 276 0
 869 002a 019B     		ldr	r3, [sp, #4]
 870 002c 03F10203 		add	r3, r3, #2
 871 0030 1B78     		ldrb	r3, [r3, #0]	@ zero_extendqisi2
 872 0032 1A46     		mov	r2, r3
 873 0034 019B     		ldr	r3, [sp, #4]
 874 0036 03F10303 		add	r3, r3, #3
 875 003a 1B78     		ldrb	r3, [r3, #0]	@ zero_extendqisi2
 876 003c 4FEA0323 		lsl	r3, r3, #8
 877 0040 1A44     		add	r2, r2, r3
 878 0042 40F20003 		movw	r3, #:lower16:dacHigh
 879 0046 C0F20003 		movt	r3, #:upper16:dacHigh
 880 004a 1A60     		str	r2, [r3, #0]
 881              		.loc 1 277 0
 882 004c 03B0     		add	sp, sp, #12
 883 004e 00BD     		pop	{pc}
 884              		.cfi_endproc
 885              	.LFE78:
 886              		.size	initDac, .-initDac
 887              		.section	.text.processDac,"ax",%progbits
 888              		.align	2
 889              		.p2align 4,,15
 890              		.thumb
 891              		.thumb_func
 892              		.type	processDac, %function
 893              	processDac:
 894              	.LFB79:
 895              		.loc 1 280 0
 896              		.cfi_startproc
 897              		@ args = 0, pretend = 0, frame = 8
 898              		@ frame_needed = 0, uses_anonymous_args = 0
 899 0000 00B5     		push	{lr}
 900              	.LCFI16:
 901              		.cfi_def_cfa_offset 4
 902 0002 83B0     		sub	sp, sp, #12
 903              	.LCFI17:
 904              		.cfi_def_cfa_offset 16
 905              		.loc 1 282 0
 906 0004 40F20003 		movw	r3, #:lower16:dacLow
 907 0008 C0F20003 		movt	r3, #:upper16:dacLow
 908 000c 1B68     		ldr	r3, [r3, #0]
 909 000e 9BB2     		uxth	r3, r3
 910 0010 ADF80430 		strh	r3, [sp, #4]	@ movhi
 911              		.loc 1 283 0
 912 0014 40F20003 		movw	r3, #:lower16:dacHigh
 913 0018 C0F20003 		movt	r3, #:upper16:dacHigh
 914 001c 1B68     		ldr	r3, [r3, #0]
ARM GAS  C:\Users\z80\AppData\Local\Temp\ccJfsMfL.s 			page 18


 915 001e 9BB2     		uxth	r3, r3
 916 0020 ADF80630 		strh	r3, [sp, #6]	@ movhi
 917              		.loc 1 284 0
 918 0024 01AB     		add	r3, sp, #4
 919 0026 1846     		mov	r0, r3
 920              		.cfi_offset 14, -4
 921 0028 FFF7FEFF 		bl	dacSet
 922              		.loc 1 285 0
 923 002c 03B0     		add	sp, sp, #12
 924 002e 00BD     		pop	{pc}
 925              		.cfi_endproc
 926              	.LFE79:
 927              		.size	processDac, .-processDac
 928              		.global	pulsePeriod
 929              		.section	.data.pulsePeriod,"aw",%progbits
 930              		.align	2
 931              		.type	pulsePeriod, %object
 932              		.size	pulsePeriod, 4
 933              	pulsePeriod:
 934 0000 E8030000 		.word	1000
 935              		.global	pulseTime
 936              		.section	.bss.pulseTime,"aw",%nobits
 937              		.align	2
 938              		.type	pulseTime, %object
 939              		.size	pulseTime, 4
 940              	pulseTime:
 941 0000 00000000 		.space	4
 942              		.global	pulseDac
 943              		.section	.bss.pulseDac,"aw",%nobits
 944              		.align	2
 945              		.type	pulseDac, %object
 946              		.size	pulseDac, 4
 947              	pulseDac:
 948 0000 00000000 		.space	4
 949              		.global	pulseDacSave
 950              		.section	.bss.pulseDacSave,"aw",%nobits
 951              		.align	2
 952              		.type	pulseDacSave, %object
 953              		.size	pulseDacSave, 4
 954              	pulseDacSave:
 955 0000 00000000 		.space	4
 956              		.section	.text.initOnePulse,"ax",%progbits
 957              		.align	2
 958              		.p2align 4,,15
 959              		.thumb
 960              		.thumb_func
 961              		.type	initOnePulse, %function
 962              	initOnePulse:
 963              	.LFB80:
 964              		.loc 1 292 0
 965              		.cfi_startproc
 966              		@ args = 0, pretend = 0, frame = 8
 967              		@ frame_needed = 0, uses_anonymous_args = 0
 968 0000 00B5     		push	{lr}
 969              	.LCFI18:
 970              		.cfi_def_cfa_offset 4
 971 0002 83B0     		sub	sp, sp, #12
ARM GAS  C:\Users\z80\AppData\Local\Temp\ccJfsMfL.s 			page 19


 972              	.LCFI19:
 973              		.cfi_def_cfa_offset 16
 974              		.loc 1 293 0
 975              		.cfi_offset 14, -4
 976 0004 FFF7FEFF 		bl	funcArgs
 977 0008 0346     		mov	r3, r0
 978 000a 0193     		str	r3, [sp, #4]
 979              		.loc 1 294 0
 980 000c 019B     		ldr	r3, [sp, #4]
 981 000e 1B78     		ldrb	r3, [r3, #0]	@ zero_extendqisi2
 982 0010 1A46     		mov	r2, r3
 983 0012 019B     		ldr	r3, [sp, #4]
 984 0014 03F10103 		add	r3, r3, #1
 985 0018 1B78     		ldrb	r3, [r3, #0]	@ zero_extendqisi2
 986 001a 4FEA0323 		lsl	r3, r3, #8
 987 001e 9BB2     		uxth	r3, r3
 988 0020 1344     		add	r3, r2, r3
 989 0022 9AB2     		uxth	r2, r3
 990 0024 40F20003 		movw	r3, #:lower16:pulseDac
 991 0028 C0F20003 		movt	r3, #:upper16:pulseDac
 992 002c 1A80     		strh	r2, [r3, #0]	@ movhi
 993              		.loc 1 295 0
 994 002e 019B     		ldr	r3, [sp, #4]
 995 0030 03F10203 		add	r3, r3, #2
 996 0034 1B78     		ldrb	r3, [r3, #0]	@ zero_extendqisi2
 997 0036 1A46     		mov	r2, r3
 998 0038 019B     		ldr	r3, [sp, #4]
 999 003a 03F10303 		add	r3, r3, #3
 1000 003e 1B78     		ldrb	r3, [r3, #0]	@ zero_extendqisi2
 1001 0040 4FEA0323 		lsl	r3, r3, #8
 1002 0044 9BB2     		uxth	r3, r3
 1003 0046 1344     		add	r3, r2, r3
 1004 0048 9AB2     		uxth	r2, r3
 1005 004a 40F20003 		movw	r3, #:lower16:pulseDac
 1006 004e C0F20003 		movt	r3, #:upper16:pulseDac
 1007 0052 5A80     		strh	r2, [r3, #2]	@ movhi
 1008              		.loc 1 296 0
 1009 0054 40F20000 		movw	r0, #:lower16:pulseDac
 1010 0058 C0F20000 		movt	r0, #:upper16:pulseDac
 1011 005c FFF7FEFF 		bl	dacSet
 1012              		.loc 1 298 0
 1013 0060 40F20003 		movw	r3, #:lower16:dacLow
 1014 0064 C0F20003 		movt	r3, #:upper16:dacLow
 1015 0068 1B68     		ldr	r3, [r3, #0]
 1016 006a 9AB2     		uxth	r2, r3
 1017 006c 40F20003 		movw	r3, #:lower16:pulseDacSave
 1018 0070 C0F20003 		movt	r3, #:upper16:pulseDacSave
 1019 0074 1A80     		strh	r2, [r3, #0]	@ movhi
 1020              		.loc 1 299 0
 1021 0076 40F20003 		movw	r3, #:lower16:dacHigh
 1022 007a C0F20003 		movt	r3, #:upper16:dacHigh
 1023 007e 1B68     		ldr	r3, [r3, #0]
 1024 0080 9AB2     		uxth	r2, r3
 1025 0082 40F20003 		movw	r3, #:lower16:pulseDacSave
 1026 0086 C0F20003 		movt	r3, #:upper16:pulseDacSave
 1027 008a 5A80     		strh	r2, [r3, #2]	@ movhi
 1028              		.loc 1 301 0
ARM GAS  C:\Users\z80\AppData\Local\Temp\ccJfsMfL.s 			page 20


 1029 008c 40F20003 		movw	r3, #:lower16:pulseDac
 1030 0090 C0F20003 		movt	r3, #:upper16:pulseDac
 1031 0094 1B88     		ldrh	r3, [r3, #0]
 1032 0096 1A46     		mov	r2, r3
 1033 0098 40F20003 		movw	r3, #:lower16:dacLow
 1034 009c C0F20003 		movt	r3, #:upper16:dacLow
 1035 00a0 1A60     		str	r2, [r3, #0]
 1036              		.loc 1 302 0
 1037 00a2 40F20003 		movw	r3, #:lower16:pulseDac
 1038 00a6 C0F20003 		movt	r3, #:upper16:pulseDac
 1039 00aa 5B88     		ldrh	r3, [r3, #2]
 1040 00ac 1A46     		mov	r2, r3
 1041 00ae 40F20003 		movw	r3, #:lower16:dacHigh
 1042 00b2 C0F20003 		movt	r3, #:upper16:dacHigh
 1043 00b6 1A60     		str	r2, [r3, #0]
 1044              		.loc 1 304 0
 1045 00b8 019B     		ldr	r3, [sp, #4]
 1046 00ba 03F10403 		add	r3, r3, #4
 1047 00be 1B78     		ldrb	r3, [r3, #0]	@ zero_extendqisi2
 1048 00c0 1A46     		mov	r2, r3
 1049              		.loc 1 305 0
 1050 00c2 019B     		ldr	r3, [sp, #4]
 1051 00c4 03F10503 		add	r3, r3, #5
 1052 00c8 1B78     		ldrb	r3, [r3, #0]	@ zero_extendqisi2
 1053 00ca 4FEA0323 		lsl	r3, r3, #8
 1054              		.loc 1 304 0
 1055 00ce 1A44     		add	r2, r2, r3
 1056              		.loc 1 306 0
 1057 00d0 019B     		ldr	r3, [sp, #4]
 1058 00d2 03F10603 		add	r3, r3, #6
 1059 00d6 1B78     		ldrb	r3, [r3, #0]	@ zero_extendqisi2
 1060 00d8 4FEA0343 		lsl	r3, r3, #16
 1061              		.loc 1 305 0
 1062 00dc 1A44     		add	r2, r2, r3
 1063              		.loc 1 307 0
 1064 00de 019B     		ldr	r3, [sp, #4]
 1065 00e0 03F10703 		add	r3, r3, #7
 1066 00e4 1B78     		ldrb	r3, [r3, #0]	@ zero_extendqisi2
 1067 00e6 4FEA0363 		lsl	r3, r3, #24
 1068              		.loc 1 306 0
 1069 00ea 1A44     		add	r2, r2, r3
 1070              		.loc 1 304 0
 1071 00ec 40F20003 		movw	r3, #:lower16:pulsePeriod
 1072 00f0 C0F20003 		movt	r3, #:upper16:pulsePeriod
 1073 00f4 1A60     		str	r2, [r3, #0]
 1074              		.loc 1 308 0
 1075 00f6 40F20003 		movw	r3, #:lower16:pulseTime
 1076 00fa C0F20003 		movt	r3, #:upper16:pulseTime
 1077 00fe 4FF00002 		mov	r2, #0
 1078 0102 1A60     		str	r2, [r3, #0]
 1079              		.loc 1 311 0
 1080 0104 FFF7FEFF 		bl	startBufferI
 1081              		.loc 1 312 0
 1082 0108 03B0     		add	sp, sp, #12
 1083 010a 00BD     		pop	{pc}
 1084              		.cfi_endproc
 1085              	.LFE80:
ARM GAS  C:\Users\z80\AppData\Local\Temp\ccJfsMfL.s 			page 21


 1086              		.size	initOnePulse, .-initOnePulse
 1087 010c AFF30080 		.section	.text.processOnePulse,"ax",%progbits
 1088              		.align	2
 1089              		.p2align 4,,15
 1090              		.thumb
 1091              		.thumb_func
 1092              		.type	processOnePulse, %function
 1093              	processOnePulse:
 1094              	.LFB81:
 1095              		.loc 1 315 0
 1096              		.cfi_startproc
 1097              		@ args = 0, pretend = 0, frame = 0
 1098              		@ frame_needed = 0, uses_anonymous_args = 0
 1099 0000 08B5     		push	{r3, lr}
 1100              	.LCFI20:
 1101              		.cfi_def_cfa_offset 8
 1102              		.loc 1 316 0
 1103 0002 40F20003 		movw	r3, #:lower16:pulseTime
 1104              		.cfi_offset 14, -4
 1105              		.cfi_offset 3, -8
 1106 0006 C0F20003 		movt	r3, #:upper16:pulseTime
 1107 000a 1B68     		ldr	r3, [r3, #0]
 1108 000c 03F10102 		add	r2, r3, #1
 1109 0010 40F20003 		movw	r3, #:lower16:pulseTime
 1110 0014 C0F20003 		movt	r3, #:upper16:pulseTime
 1111 0018 1A60     		str	r2, [r3, #0]
 1112              		.loc 1 317 0
 1113 001a 40F20003 		movw	r3, #:lower16:pulseTime
 1114 001e C0F20003 		movt	r3, #:upper16:pulseTime
 1115 0022 1A68     		ldr	r2, [r3, #0]
 1116 0024 40F20003 		movw	r3, #:lower16:pulsePeriod
 1117 0028 C0F20003 		movt	r3, #:upper16:pulsePeriod
 1118 002c 1B68     		ldr	r3, [r3, #0]
 1119 002e 9A42     		cmp	r2, r3
 1120 0030 22D3     		bcc	.L36
 1121              		.loc 1 319 0
 1122 0032 40F20000 		movw	r0, #:lower16:pulseDacSave
 1123 0036 C0F20000 		movt	r0, #:upper16:pulseDacSave
 1124 003a FFF7FEFF 		bl	dacSet
 1125              		.loc 1 320 0
 1126 003e 40F20003 		movw	r3, #:lower16:pulseDacSave
 1127 0042 C0F20003 		movt	r3, #:upper16:pulseDacSave
 1128 0046 1B88     		ldrh	r3, [r3, #0]
 1129 0048 1A46     		mov	r2, r3
 1130 004a 40F20003 		movw	r3, #:lower16:dacLow
 1131 004e C0F20003 		movt	r3, #:upper16:dacLow
 1132 0052 1A60     		str	r2, [r3, #0]
 1133              		.loc 1 321 0
 1134 0054 40F20003 		movw	r3, #:lower16:pulseDacSave
 1135 0058 C0F20003 		movt	r3, #:upper16:pulseDacSave
 1136 005c 5B88     		ldrh	r3, [r3, #2]
 1137 005e 1A46     		mov	r2, r3
 1138 0060 40F20003 		movw	r3, #:lower16:dacHigh
 1139 0064 C0F20003 		movt	r3, #:upper16:dacHigh
 1140 0068 1A60     		str	r2, [r3, #0]
 1141              		.loc 1 322 0
 1142 006a 40F20003 		movw	r3, #:lower16:mode
ARM GAS  C:\Users\z80\AppData\Local\Temp\ccJfsMfL.s 			page 22


 1143 006e C0F20003 		movt	r3, #:upper16:mode
 1144 0072 4FF00002 		mov	r2, #0
 1145 0076 1A70     		strb	r2, [r3, #0]
 1146              	.L36:
 1147              		.loc 1 324 0
 1148 0078 08BD     		pop	{r3, pc}
 1149              		.cfi_endproc
 1150              	.LFE81:
 1151              		.size	processOnePulse, .-processOnePulse
 1152              		.global	meanderPeriod1
 1153 007a 00BFAFF3 		.section	.data.meanderPeriod1,"aw",%progbits
 1153      0080
 1154              		.align	2
 1155              		.type	meanderPeriod1, %object
 1156              		.size	meanderPeriod1, 4
 1157              	meanderPeriod1:
 1158 0000 E8030000 		.word	1000
 1159              		.global	meanderPeriod2
 1160              		.section	.data.meanderPeriod2,"aw",%progbits
 1161              		.align	2
 1162              		.type	meanderPeriod2, %object
 1163              		.size	meanderPeriod2, 4
 1164              	meanderPeriod2:
 1165 0000 D0070000 		.word	2000
 1166              		.global	meanderTime
 1167              		.section	.bss.meanderTime,"aw",%nobits
 1168              		.align	2
 1169              		.type	meanderTime, %object
 1170              		.size	meanderTime, 4
 1171              	meanderTime:
 1172 0000 00000000 		.space	4
 1173              		.global	meanderDac1
 1174              		.section	.bss.meanderDac1,"aw",%nobits
 1175              		.align	2
 1176              		.type	meanderDac1, %object
 1177              		.size	meanderDac1, 4
 1178              	meanderDac1:
 1179 0000 00000000 		.space	4
 1180              		.global	meanderDac2
 1181              		.section	.bss.meanderDac2,"aw",%nobits
 1182              		.align	2
 1183              		.type	meanderDac2, %object
 1184              		.size	meanderDac2, 4
 1185              	meanderDac2:
 1186 0000 00000000 		.space	4
 1187              		.section	.text.initMeandr,"ax",%progbits
 1188              		.align	2
 1189              		.p2align 4,,15
 1190              		.thumb
 1191              		.thumb_func
 1192              		.type	initMeandr, %function
 1193              	initMeandr:
 1194              	.LFB82:
 1195              		.loc 1 333 0
 1196              		.cfi_startproc
 1197              		@ args = 0, pretend = 0, frame = 8
 1198              		@ frame_needed = 0, uses_anonymous_args = 0
ARM GAS  C:\Users\z80\AppData\Local\Temp\ccJfsMfL.s 			page 23


 1199 0000 00B5     		push	{lr}
 1200              	.LCFI21:
 1201              		.cfi_def_cfa_offset 4
 1202 0002 83B0     		sub	sp, sp, #12
 1203              	.LCFI22:
 1204              		.cfi_def_cfa_offset 16
 1205              		.loc 1 334 0
 1206              		.cfi_offset 14, -4
 1207 0004 FFF7FEFF 		bl	funcArgs
 1208 0008 0346     		mov	r3, r0
 1209 000a 0193     		str	r3, [sp, #4]
 1210              		.loc 1 336 0
 1211 000c 019B     		ldr	r3, [sp, #4]
 1212 000e 1B78     		ldrb	r3, [r3, #0]	@ zero_extendqisi2
 1213 0010 1A46     		mov	r2, r3
 1214 0012 019B     		ldr	r3, [sp, #4]
 1215 0014 03F10103 		add	r3, r3, #1
 1216 0018 1B78     		ldrb	r3, [r3, #0]	@ zero_extendqisi2
 1217 001a 4FEA0323 		lsl	r3, r3, #8
 1218 001e 9BB2     		uxth	r3, r3
 1219 0020 1344     		add	r3, r2, r3
 1220 0022 9AB2     		uxth	r2, r3
 1221 0024 40F20003 		movw	r3, #:lower16:meanderDac1
 1222 0028 C0F20003 		movt	r3, #:upper16:meanderDac1
 1223 002c 1A80     		strh	r2, [r3, #0]	@ movhi
 1224              		.loc 1 337 0
 1225 002e 019B     		ldr	r3, [sp, #4]
 1226 0030 03F10203 		add	r3, r3, #2
 1227 0034 1B78     		ldrb	r3, [r3, #0]	@ zero_extendqisi2
 1228 0036 1A46     		mov	r2, r3
 1229 0038 019B     		ldr	r3, [sp, #4]
 1230 003a 03F10303 		add	r3, r3, #3
 1231 003e 1B78     		ldrb	r3, [r3, #0]	@ zero_extendqisi2
 1232 0040 4FEA0323 		lsl	r3, r3, #8
 1233 0044 9BB2     		uxth	r3, r3
 1234 0046 1344     		add	r3, r2, r3
 1235 0048 9AB2     		uxth	r2, r3
 1236 004a 40F20003 		movw	r3, #:lower16:meanderDac1
 1237 004e C0F20003 		movt	r3, #:upper16:meanderDac1
 1238 0052 5A80     		strh	r2, [r3, #2]	@ movhi
 1239              		.loc 1 338 0
 1240 0054 019B     		ldr	r3, [sp, #4]
 1241 0056 03F10403 		add	r3, r3, #4
 1242 005a 1B78     		ldrb	r3, [r3, #0]	@ zero_extendqisi2
 1243 005c 1A46     		mov	r2, r3
 1244              		.loc 1 339 0
 1245 005e 019B     		ldr	r3, [sp, #4]
 1246 0060 03F10503 		add	r3, r3, #5
 1247 0064 1B78     		ldrb	r3, [r3, #0]	@ zero_extendqisi2
 1248 0066 4FEA0323 		lsl	r3, r3, #8
 1249              		.loc 1 338 0
 1250 006a 1A44     		add	r2, r2, r3
 1251              		.loc 1 340 0
 1252 006c 019B     		ldr	r3, [sp, #4]
 1253 006e 03F10603 		add	r3, r3, #6
 1254 0072 1B78     		ldrb	r3, [r3, #0]	@ zero_extendqisi2
 1255 0074 4FEA0343 		lsl	r3, r3, #16
ARM GAS  C:\Users\z80\AppData\Local\Temp\ccJfsMfL.s 			page 24


 1256              		.loc 1 339 0
 1257 0078 1A44     		add	r2, r2, r3
 1258              		.loc 1 341 0
 1259 007a 019B     		ldr	r3, [sp, #4]
 1260 007c 03F10703 		add	r3, r3, #7
 1261 0080 1B78     		ldrb	r3, [r3, #0]	@ zero_extendqisi2
 1262 0082 4FEA0363 		lsl	r3, r3, #24
 1263              		.loc 1 340 0
 1264 0086 1A44     		add	r2, r2, r3
 1265              		.loc 1 338 0
 1266 0088 40F20003 		movw	r3, #:lower16:meanderPeriod1
 1267 008c C0F20003 		movt	r3, #:upper16:meanderPeriod1
 1268 0090 1A60     		str	r2, [r3, #0]
 1269              		.loc 1 343 0
 1270 0092 019B     		ldr	r3, [sp, #4]
 1271 0094 03F10803 		add	r3, r3, #8
 1272 0098 1B78     		ldrb	r3, [r3, #0]	@ zero_extendqisi2
 1273 009a 1A46     		mov	r2, r3
 1274 009c 019B     		ldr	r3, [sp, #4]
 1275 009e 03F10903 		add	r3, r3, #9
 1276 00a2 1B78     		ldrb	r3, [r3, #0]	@ zero_extendqisi2
 1277 00a4 4FEA0323 		lsl	r3, r3, #8
 1278 00a8 9BB2     		uxth	r3, r3
 1279 00aa 1344     		add	r3, r2, r3
 1280 00ac 9AB2     		uxth	r2, r3
 1281 00ae 40F20003 		movw	r3, #:lower16:meanderDac2
 1282 00b2 C0F20003 		movt	r3, #:upper16:meanderDac2
 1283 00b6 1A80     		strh	r2, [r3, #0]	@ movhi
 1284              		.loc 1 344 0
 1285 00b8 019B     		ldr	r3, [sp, #4]
 1286 00ba 03F10A03 		add	r3, r3, #10
 1287 00be 1B78     		ldrb	r3, [r3, #0]	@ zero_extendqisi2
 1288 00c0 1A46     		mov	r2, r3
 1289 00c2 019B     		ldr	r3, [sp, #4]
 1290 00c4 03F10B03 		add	r3, r3, #11
 1291 00c8 1B78     		ldrb	r3, [r3, #0]	@ zero_extendqisi2
 1292 00ca 4FEA0323 		lsl	r3, r3, #8
 1293 00ce 9BB2     		uxth	r3, r3
 1294 00d0 1344     		add	r3, r2, r3
 1295 00d2 9AB2     		uxth	r2, r3
 1296 00d4 40F20003 		movw	r3, #:lower16:meanderDac2
 1297 00d8 C0F20003 		movt	r3, #:upper16:meanderDac2
 1298 00dc 5A80     		strh	r2, [r3, #2]	@ movhi
 1299              		.loc 1 345 0
 1300 00de 019B     		ldr	r3, [sp, #4]
 1301 00e0 03F10C03 		add	r3, r3, #12
 1302 00e4 1B78     		ldrb	r3, [r3, #0]	@ zero_extendqisi2
 1303 00e6 1A46     		mov	r2, r3
 1304              		.loc 1 346 0
 1305 00e8 019B     		ldr	r3, [sp, #4]
 1306 00ea 03F10D03 		add	r3, r3, #13
 1307 00ee 1B78     		ldrb	r3, [r3, #0]	@ zero_extendqisi2
 1308 00f0 4FEA0323 		lsl	r3, r3, #8
 1309              		.loc 1 345 0
 1310 00f4 1A44     		add	r2, r2, r3
 1311              		.loc 1 347 0
 1312 00f6 019B     		ldr	r3, [sp, #4]
ARM GAS  C:\Users\z80\AppData\Local\Temp\ccJfsMfL.s 			page 25


 1313 00f8 03F10E03 		add	r3, r3, #14
 1314 00fc 1B78     		ldrb	r3, [r3, #0]	@ zero_extendqisi2
 1315 00fe 4FEA0343 		lsl	r3, r3, #16
 1316              		.loc 1 346 0
 1317 0102 1A44     		add	r2, r2, r3
 1318              		.loc 1 348 0
 1319 0104 019B     		ldr	r3, [sp, #4]
 1320 0106 03F10F03 		add	r3, r3, #15
 1321 010a 1B78     		ldrb	r3, [r3, #0]	@ zero_extendqisi2
 1322 010c 4FEA0363 		lsl	r3, r3, #24
 1323              		.loc 1 347 0
 1324 0110 1A44     		add	r2, r2, r3
 1325              		.loc 1 345 0
 1326 0112 40F20003 		movw	r3, #:lower16:meanderPeriod2
 1327 0116 C0F20003 		movt	r3, #:upper16:meanderPeriod2
 1328 011a 1A60     		str	r2, [r3, #0]
 1329              		.loc 1 349 0
 1330 011c 40F20003 		movw	r3, #:lower16:meanderPeriod2
 1331 0120 C0F20003 		movt	r3, #:upper16:meanderPeriod2
 1332 0124 1A68     		ldr	r2, [r3, #0]
 1333 0126 40F20003 		movw	r3, #:lower16:meanderPeriod1
 1334 012a C0F20003 		movt	r3, #:upper16:meanderPeriod1
 1335 012e 1B68     		ldr	r3, [r3, #0]
 1336 0130 1A44     		add	r2, r2, r3
 1337 0132 40F20003 		movw	r3, #:lower16:meanderPeriod2
 1338 0136 C0F20003 		movt	r3, #:upper16:meanderPeriod2
 1339 013a 1A60     		str	r2, [r3, #0]
 1340              		.loc 1 350 0
 1341 013c 40F20003 		movw	r3, #:lower16:meanderPeriod2
 1342 0140 C0F20003 		movt	r3, #:upper16:meanderPeriod2
 1343 0144 1A68     		ldr	r2, [r3, #0]
 1344 0146 40F20003 		movw	r3, #:lower16:meanderTime
 1345 014a C0F20003 		movt	r3, #:upper16:meanderTime
 1346 014e 1A60     		str	r2, [r3, #0]
 1347              		.loc 1 353 0
 1348 0150 FFF7FEFF 		bl	startBufferI
 1349              		.loc 1 354 0
 1350 0154 03B0     		add	sp, sp, #12
 1351 0156 00BD     		pop	{pc}
 1352              		.cfi_endproc
 1353              	.LFE82:
 1354              		.size	initMeandr, .-initMeandr
 1355 0158 AFF30080 		.section	.text.processMeandr,"ax",%progbits
 1355      AFF30080 
 1356              		.align	2
 1357              		.p2align 4,,15
 1358              		.thumb
 1359              		.thumb_func
 1360              		.type	processMeandr, %function
 1361              	processMeandr:
 1362              	.LFB83:
 1363              		.loc 1 357 0
 1364              		.cfi_startproc
 1365              		@ args = 0, pretend = 0, frame = 0
 1366              		@ frame_needed = 0, uses_anonymous_args = 0
 1367 0000 08B5     		push	{r3, lr}
 1368              	.LCFI23:
ARM GAS  C:\Users\z80\AppData\Local\Temp\ccJfsMfL.s 			page 26


 1369              		.cfi_def_cfa_offset 8
 1370              		.loc 1 358 0
 1371 0002 40F20003 		movw	r3, #:lower16:meanderTime
 1372              		.cfi_offset 14, -4
 1373              		.cfi_offset 3, -8
 1374 0006 C0F20003 		movt	r3, #:upper16:meanderTime
 1375 000a 1B68     		ldr	r3, [r3, #0]
 1376 000c 03F10102 		add	r2, r3, #1
 1377 0010 40F20003 		movw	r3, #:lower16:meanderTime
 1378 0014 C0F20003 		movt	r3, #:upper16:meanderTime
 1379 0018 1A60     		str	r2, [r3, #0]
 1380              		.loc 1 359 0
 1381 001a 40F20003 		movw	r3, #:lower16:meanderTime
 1382 001e C0F20003 		movt	r3, #:upper16:meanderTime
 1383 0022 1A68     		ldr	r2, [r3, #0]
 1384 0024 40F20003 		movw	r3, #:lower16:meanderPeriod1
 1385 0028 C0F20003 		movt	r3, #:upper16:meanderPeriod1
 1386 002c 1B68     		ldr	r3, [r3, #0]
 1387 002e 9A42     		cmp	r2, r3
 1388 0030 06D1     		bne	.L40
 1389              		.loc 1 362 0
 1390 0032 40F20000 		movw	r0, #:lower16:meanderDac2
 1391 0036 C0F20000 		movt	r0, #:upper16:meanderDac2
 1392 003a FFF7FEFF 		bl	dacSet
 1393 003e 24E0     		b	.L39
 1394              	.L40:
 1395              		.loc 1 364 0
 1396 0040 40F20003 		movw	r3, #:lower16:meanderTime
 1397 0044 C0F20003 		movt	r3, #:upper16:meanderTime
 1398 0048 1A68     		ldr	r2, [r3, #0]
 1399 004a 40F20003 		movw	r3, #:lower16:meanderPeriod2
 1400 004e C0F20003 		movt	r3, #:upper16:meanderPeriod2
 1401 0052 1B68     		ldr	r3, [r3, #0]
 1402 0054 9A42     		cmp	r2, r3
 1403 0056 18D3     		bcc	.L39
 1404              		.loc 1 366 0
 1405 0058 40F20000 		movw	r0, #:lower16:meanderDac1
 1406 005c C0F20000 		movt	r0, #:upper16:meanderDac1
 1407 0060 FFF7FEFF 		bl	dacSet
 1408              		.loc 1 367 0
 1409 0064 40F20003 		movw	r3, #:lower16:meanderTime
 1410 0068 C0F20003 		movt	r3, #:upper16:meanderTime
 1411 006c 1A68     		ldr	r2, [r3, #0]
 1412 006e 40F20003 		movw	r3, #:lower16:meanderPeriod2
 1413 0072 C0F20003 		movt	r3, #:upper16:meanderPeriod2
 1414 0076 1B68     		ldr	r3, [r3, #0]
 1415 0078 C3EB0202 		rsb	r2, r3, r2
 1416 007c 40F20003 		movw	r3, #:lower16:meanderTime
 1417 0080 C0F20003 		movt	r3, #:upper16:meanderTime
 1418 0084 1A60     		str	r2, [r3, #0]
 1419              		.loc 1 370 0
 1420 0086 FFF7FEFF 		bl	startBufferI
 1421              	.L39:
 1422              		.loc 1 372 0
 1423 008a 08BD     		pop	{r3, pc}
 1424              		.cfi_endproc
 1425              	.LFE83:
ARM GAS  C:\Users\z80\AppData\Local\Temp\ccJfsMfL.s 			page 27


 1426              		.size	processMeandr, .-processMeandr
 1427              		.global	sweepPeriod
 1428 008c AFF30080 		.section	.data.sweepPeriod,"aw",%progbits
 1429              		.align	2
 1430              		.type	sweepPeriod, %object
 1431              		.size	sweepPeriod, 4
 1432              	sweepPeriod:
 1433 0000 E8030000 		.word	1000
 1434              		.global	sweepPeriodInvf
 1435              		.section	.data.sweepPeriodInvf,"aw",%progbits
 1436              		.align	2
 1437              		.type	sweepPeriodInvf, %object
 1438              		.size	sweepPeriodInvf, 4
 1439              	sweepPeriodInvf:
 1440 0000 6F12833A 		.word	981668463
 1441              		.global	sweepTime
 1442              		.section	.bss.sweepTime,"aw",%nobits
 1443              		.align	2
 1444              		.type	sweepTime, %object
 1445              		.size	sweepTime, 4
 1446              	sweepTime:
 1447 0000 00000000 		.space	4
 1448              		.global	sweepDac1
 1449              		.section	.bss.sweepDac1,"aw",%nobits
 1450              		.align	2
 1451              		.type	sweepDac1, %object
 1452              		.size	sweepDac1, 4
 1453              	sweepDac1:
 1454 0000 00000000 		.space	4
 1455              		.global	sweepDac2
 1456              		.section	.bss.sweepDac2,"aw",%nobits
 1457              		.align	2
 1458              		.type	sweepDac2, %object
 1459              		.size	sweepDac2, 4
 1460              	sweepDac2:
 1461 0000 00000000 		.space	4
 1462              		.global	sweepSpeed
 1463              		.section	.data.sweepSpeed,"aw",%progbits
 1464              		.type	sweepSpeed, %object
 1465              		.size	sweepSpeed, 1
 1466              	sweepSpeed:
 1467 0000 01       		.byte	1
 1468              		.global	dDacf1
 1469              		.section	.bss.dDacf1,"aw",%nobits
 1470              		.align	2
 1471              		.type	dDacf1, %object
 1472              		.size	dDacf1, 4
 1473              	dDacf1:
 1474 0000 00000000 		.space	4
 1475              		.global	dDacf2
 1476              		.section	.bss.dDacf2,"aw",%nobits
 1477              		.align	2
 1478              		.type	dDacf2, %object
 1479              		.size	dDacf2, 4
 1480              	dDacf2:
 1481 0000 00000000 		.space	4
 1482              		.global	__aeabi_i2f
ARM GAS  C:\Users\z80\AppData\Local\Temp\ccJfsMfL.s 			page 28


 1483              		.global	__aeabi_fdiv
 1484              		.section	.text.initSweep,"ax",%progbits
 1485              		.align	2
 1486              		.p2align 4,,15
 1487              		.thumb
 1488              		.thumb_func
 1489              		.type	initSweep, %function
 1490              	initSweep:
 1491              	.LFB84:
 1492              		.loc 1 383 0
 1493              		.cfi_startproc
 1494              		@ args = 0, pretend = 0, frame = 8
 1495              		@ frame_needed = 0, uses_anonymous_args = 0
 1496 0000 00B5     		push	{lr}
 1497              	.LCFI24:
 1498              		.cfi_def_cfa_offset 4
 1499 0002 83B0     		sub	sp, sp, #12
 1500              	.LCFI25:
 1501              		.cfi_def_cfa_offset 16
 1502              		.loc 1 384 0
 1503              		.cfi_offset 14, -4
 1504 0004 FFF7FEFF 		bl	funcArgs
 1505 0008 0346     		mov	r3, r0
 1506 000a 0193     		str	r3, [sp, #4]
 1507              		.loc 1 386 0
 1508 000c 019B     		ldr	r3, [sp, #4]
 1509 000e 1B78     		ldrb	r3, [r3, #0]	@ zero_extendqisi2
 1510 0010 1A46     		mov	r2, r3
 1511 0012 019B     		ldr	r3, [sp, #4]
 1512 0014 03F10103 		add	r3, r3, #1
 1513 0018 1B78     		ldrb	r3, [r3, #0]	@ zero_extendqisi2
 1514 001a 4FEA0323 		lsl	r3, r3, #8
 1515 001e 9BB2     		uxth	r3, r3
 1516 0020 1344     		add	r3, r2, r3
 1517 0022 9AB2     		uxth	r2, r3
 1518 0024 40F20003 		movw	r3, #:lower16:sweepDac1
 1519 0028 C0F20003 		movt	r3, #:upper16:sweepDac1
 1520 002c 1A80     		strh	r2, [r3, #0]	@ movhi
 1521              		.loc 1 387 0
 1522 002e 019B     		ldr	r3, [sp, #4]
 1523 0030 03F10203 		add	r3, r3, #2
 1524 0034 1B78     		ldrb	r3, [r3, #0]	@ zero_extendqisi2
 1525 0036 1A46     		mov	r2, r3
 1526 0038 019B     		ldr	r3, [sp, #4]
 1527 003a 03F10303 		add	r3, r3, #3
 1528 003e 1B78     		ldrb	r3, [r3, #0]	@ zero_extendqisi2
 1529 0040 4FEA0323 		lsl	r3, r3, #8
 1530 0044 9BB2     		uxth	r3, r3
 1531 0046 1344     		add	r3, r2, r3
 1532 0048 9AB2     		uxth	r2, r3
 1533 004a 40F20003 		movw	r3, #:lower16:sweepDac1
 1534 004e C0F20003 		movt	r3, #:upper16:sweepDac1
 1535 0052 5A80     		strh	r2, [r3, #2]	@ movhi
 1536              		.loc 1 388 0
 1537 0054 019B     		ldr	r3, [sp, #4]
 1538 0056 03F10403 		add	r3, r3, #4
 1539 005a 1B78     		ldrb	r3, [r3, #0]	@ zero_extendqisi2
ARM GAS  C:\Users\z80\AppData\Local\Temp\ccJfsMfL.s 			page 29


 1540 005c 1A46     		mov	r2, r3
 1541 005e 019B     		ldr	r3, [sp, #4]
 1542 0060 03F10503 		add	r3, r3, #5
 1543 0064 1B78     		ldrb	r3, [r3, #0]	@ zero_extendqisi2
 1544 0066 4FEA0323 		lsl	r3, r3, #8
 1545 006a 9BB2     		uxth	r3, r3
 1546 006c 1344     		add	r3, r2, r3
 1547 006e 9AB2     		uxth	r2, r3
 1548 0070 40F20003 		movw	r3, #:lower16:sweepDac2
 1549 0074 C0F20003 		movt	r3, #:upper16:sweepDac2
 1550 0078 1A80     		strh	r2, [r3, #0]	@ movhi
 1551              		.loc 1 389 0
 1552 007a 019B     		ldr	r3, [sp, #4]
 1553 007c 03F10603 		add	r3, r3, #6
 1554 0080 1B78     		ldrb	r3, [r3, #0]	@ zero_extendqisi2
 1555 0082 1A46     		mov	r2, r3
 1556 0084 019B     		ldr	r3, [sp, #4]
 1557 0086 03F10703 		add	r3, r3, #7
 1558 008a 1B78     		ldrb	r3, [r3, #0]	@ zero_extendqisi2
 1559 008c 4FEA0323 		lsl	r3, r3, #8
 1560 0090 9BB2     		uxth	r3, r3
 1561 0092 1344     		add	r3, r2, r3
 1562 0094 9AB2     		uxth	r2, r3
 1563 0096 40F20003 		movw	r3, #:lower16:sweepDac2
 1564 009a C0F20003 		movt	r3, #:upper16:sweepDac2
 1565 009e 5A80     		strh	r2, [r3, #2]	@ movhi
 1566              		.loc 1 390 0
 1567 00a0 019B     		ldr	r3, [sp, #4]
 1568 00a2 03F10803 		add	r3, r3, #8
 1569 00a6 1B78     		ldrb	r3, [r3, #0]	@ zero_extendqisi2
 1570 00a8 1A46     		mov	r2, r3
 1571              		.loc 1 391 0
 1572 00aa 019B     		ldr	r3, [sp, #4]
 1573 00ac 03F10903 		add	r3, r3, #9
 1574 00b0 1B78     		ldrb	r3, [r3, #0]	@ zero_extendqisi2
 1575 00b2 4FEA0323 		lsl	r3, r3, #8
 1576              		.loc 1 390 0
 1577 00b6 1A44     		add	r2, r2, r3
 1578              		.loc 1 392 0
 1579 00b8 019B     		ldr	r3, [sp, #4]
 1580 00ba 03F10A03 		add	r3, r3, #10
 1581 00be 1B78     		ldrb	r3, [r3, #0]	@ zero_extendqisi2
 1582 00c0 4FEA0343 		lsl	r3, r3, #16
 1583              		.loc 1 391 0
 1584 00c4 1A44     		add	r2, r2, r3
 1585              		.loc 1 393 0
 1586 00c6 019B     		ldr	r3, [sp, #4]
 1587 00c8 03F10B03 		add	r3, r3, #11
 1588 00cc 1B78     		ldrb	r3, [r3, #0]	@ zero_extendqisi2
 1589 00ce 4FEA0363 		lsl	r3, r3, #24
 1590              		.loc 1 392 0
 1591 00d2 1344     		add	r3, r2, r3
 1592              		.loc 1 390 0
 1593 00d4 1A46     		mov	r2, r3
 1594 00d6 40F20003 		movw	r3, #:lower16:sweepPeriod
 1595 00da C0F20003 		movt	r3, #:upper16:sweepPeriod
 1596 00de 1A60     		str	r2, [r3, #0]
ARM GAS  C:\Users\z80\AppData\Local\Temp\ccJfsMfL.s 			page 30


 1597              		.loc 1 394 0
 1598 00e0 40F20003 		movw	r3, #:lower16:sweepPeriod
 1599 00e4 C0F20003 		movt	r3, #:upper16:sweepPeriod
 1600 00e8 1B68     		ldr	r3, [r3, #0]
 1601 00ea 1846     		mov	r0, r3
 1602 00ec FFF7FEFF 		bl	__aeabi_i2f
 1603 00f0 0346     		mov	r3, r0
 1604 00f2 2448     		ldr	r0, .L43	@ float
 1605 00f4 1946     		mov	r1, r3
 1606 00f6 FFF7FEFF 		bl	__aeabi_fdiv
 1607 00fa 0346     		mov	r3, r0
 1608 00fc 1A46     		mov	r2, r3
 1609 00fe 40F20003 		movw	r3, #:lower16:sweepPeriodInvf
 1610 0102 C0F20003 		movt	r3, #:upper16:sweepPeriodInvf
 1611 0106 1A60     		str	r2, [r3, #0]	@ float
 1612              		.loc 1 395 0
 1613 0108 40F20003 		movw	r3, #:lower16:sweepDac2
 1614 010c C0F20003 		movt	r3, #:upper16:sweepDac2
 1615 0110 1B88     		ldrh	r3, [r3, #0]
 1616 0112 1A46     		mov	r2, r3
 1617 0114 40F20003 		movw	r3, #:lower16:sweepDac1
 1618 0118 C0F20003 		movt	r3, #:upper16:sweepDac1
 1619 011c 1B88     		ldrh	r3, [r3, #0]
 1620 011e C3EB0203 		rsb	r3, r3, r2
 1621 0122 1846     		mov	r0, r3
 1622 0124 FFF7FEFF 		bl	__aeabi_i2f
 1623 0128 0246     		mov	r2, r0
 1624 012a 40F20003 		movw	r3, #:lower16:dDacf1
 1625 012e C0F20003 		movt	r3, #:upper16:dDacf1
 1626 0132 1A60     		str	r2, [r3, #0]	@ float
 1627              		.loc 1 396 0
 1628 0134 40F20003 		movw	r3, #:lower16:sweepDac2
 1629 0138 C0F20003 		movt	r3, #:upper16:sweepDac2
 1630 013c 5B88     		ldrh	r3, [r3, #2]
 1631 013e 1A46     		mov	r2, r3
 1632 0140 40F20003 		movw	r3, #:lower16:sweepDac1
 1633 0144 C0F20003 		movt	r3, #:upper16:sweepDac1
 1634 0148 5B88     		ldrh	r3, [r3, #2]
 1635 014a C3EB0203 		rsb	r3, r3, r2
 1636 014e 1846     		mov	r0, r3
 1637 0150 FFF7FEFF 		bl	__aeabi_i2f
 1638 0154 0246     		mov	r2, r0
 1639 0156 40F20003 		movw	r3, #:lower16:dDacf2
 1640 015a C0F20003 		movt	r3, #:upper16:dDacf2
 1641 015e 1A60     		str	r2, [r3, #0]	@ float
 1642              		.loc 1 397 0
 1643 0160 40F20003 		movw	r3, #:lower16:sweepTime
 1644 0164 C0F20003 		movt	r3, #:upper16:sweepTime
 1645 0168 4FF00002 		mov	r2, #0
 1646 016c 1A60     		str	r2, [r3, #0]
 1647              		.loc 1 398 0
 1648 016e 40F20003 		movw	r3, #:lower16:sweepSpeed
 1649 0172 C0F20003 		movt	r3, #:upper16:sweepSpeed
 1650 0176 4FF00102 		mov	r2, #1
 1651 017a 1A70     		strb	r2, [r3, #0]
 1652              		.loc 1 401 0
 1653 017c FFF7FEFF 		bl	startBufferI
ARM GAS  C:\Users\z80\AppData\Local\Temp\ccJfsMfL.s 			page 31


 1654              		.loc 1 402 0
 1655 0180 03B0     		add	sp, sp, #12
 1656 0182 00BD     		pop	{pc}
 1657              	.L44:
 1658              		.align	2
 1659              	.L43:
 1660 0184 0000803F 		.word	1065353216
 1661              		.cfi_endproc
 1662              	.LFE84:
 1663              		.size	initSweep, .-initSweep
 1664              		.global	__aeabi_fmul
 1665              		.global	__aeabi_f2iz
 1666 0188 AFF30080 		.section	.text.processSweep,"ax",%progbits
 1666      AFF30080 
 1667              		.align	2
 1668              		.p2align 4,,15
 1669              		.thumb
 1670              		.thumb_func
 1671              		.type	processSweep, %function
 1672              	processSweep:
 1673              	.LFB85:
 1674              		.loc 1 405 0
 1675              		.cfi_startproc
 1676              		@ args = 0, pretend = 0, frame = 24
 1677              		@ frame_needed = 0, uses_anonymous_args = 0
 1678 0000 00B5     		push	{lr}
 1679              	.LCFI26:
 1680              		.cfi_def_cfa_offset 4
 1681 0002 87B0     		sub	sp, sp, #28
 1682              	.LCFI27:
 1683              		.cfi_def_cfa_offset 32
 1684              		.loc 1 406 0
 1685 0004 40F20003 		movw	r3, #:lower16:sweepSpeed
 1686 0008 C0F20003 		movt	r3, #:upper16:sweepSpeed
 1687 000c 1B78     		ldrb	r3, [r3, #0]	@ zero_extendqisi2
 1688 000e 5AB2     		sxtb	r2, r3
 1689 0010 40F20003 		movw	r3, #:lower16:sweepTime
 1690 0014 C0F20003 		movt	r3, #:upper16:sweepTime
 1691 0018 1B68     		ldr	r3, [r3, #0]
 1692 001a 1A44     		add	r2, r2, r3
 1693 001c 40F20003 		movw	r3, #:lower16:sweepTime
 1694 0020 C0F20003 		movt	r3, #:upper16:sweepTime
 1695 0024 1A60     		str	r2, [r3, #0]
 1696              		.loc 1 408 0
 1697 0026 40F20003 		movw	r3, #:lower16:sweepTime
 1698 002a C0F20003 		movt	r3, #:upper16:sweepTime
 1699 002e 1A68     		ldr	r2, [r3, #0]
 1700 0030 40F20003 		movw	r3, #:lower16:sweepPeriod
 1701 0034 C0F20003 		movt	r3, #:upper16:sweepPeriod
 1702 0038 1B68     		ldr	r3, [r3, #0]
 1703 003a 9A42     		cmp	r2, r3
 1704 003c B4BF     		ite	lt
 1705 003e 0023     		movlt	r3, #0
 1706 0040 0123     		movge	r3, #1
 1707 0042 8DF81330 		strb	r3, [sp, #19]
 1708              		.loc 1 409 0
 1709 0046 40F20003 		movw	r3, #:lower16:sweepTime
ARM GAS  C:\Users\z80\AppData\Local\Temp\ccJfsMfL.s 			page 32


 1710 004a C0F20003 		movt	r3, #:upper16:sweepTime
 1711 004e 1B68     		ldr	r3, [r3, #0]
 1712 0050 002B     		cmp	r3, #0
 1713 0052 CCBF     		ite	gt
 1714 0054 0023     		movgt	r3, #0
 1715 0056 0123     		movle	r3, #1
 1716 0058 8DF81230 		strb	r3, [sp, #18]
 1717              		.loc 1 412 0
 1718 005c 9DF81330 		ldrb	r3, [sp, #19]	@ zero_extendqisi2
 1719 0060 002B     		cmp	r3, #0
 1720 0062 06D0     		beq	.L46
 1721              		.cfi_offset 14, -4
 1722              		.loc 1 413 0
 1723 0064 40F20003 		movw	r3, #:lower16:sweepPeriod
 1724 0068 C0F20003 		movt	r3, #:upper16:sweepPeriod
 1725 006c 1B68     		ldr	r3, [r3, #0]
 1726 006e 0593     		str	r3, [sp, #20]
 1727 0070 0FE0     		b	.L47
 1728              	.L46:
 1729              		.loc 1 414 0
 1730 0072 9DF81230 		ldrb	r3, [sp, #18]	@ zero_extendqisi2
 1731 0076 002B     		cmp	r3, #0
 1732 0078 05D0     		beq	.L48
 1733              		.loc 1 416 0
 1734 007a 4FF00003 		mov	r3, #0
 1735 007e 0593     		str	r3, [sp, #20]
 1736              		.loc 1 419 0
 1737 0080 FFF7FEFF 		bl	startBufferI
 1738 0084 05E0     		b	.L47
 1739              	.L48:
 1740              		.loc 1 423 0
 1741 0086 40F20003 		movw	r3, #:lower16:sweepTime
 1742 008a C0F20003 		movt	r3, #:upper16:sweepTime
 1743 008e 1B68     		ldr	r3, [r3, #0]
 1744 0090 0593     		str	r3, [sp, #20]
 1745              	.L47:
 1746              		.loc 1 424 0
 1747 0092 9DF81330 		ldrb	r3, [sp, #19]	@ zero_extendqisi2
 1748 0096 002B     		cmp	r3, #0
 1749 0098 03D1     		bne	.L49
 1750              		.loc 1 424 0 is_stmt 0 discriminator 1
 1751 009a 9DF81230 		ldrb	r3, [sp, #18]	@ zero_extendqisi2
 1752 009e 002B     		cmp	r3, #0
 1753 00a0 0CD0     		beq	.L50
 1754              	.L49:
 1755              		.loc 1 425 0 is_stmt 1
 1756 00a2 40F20003 		movw	r3, #:lower16:sweepSpeed
 1757 00a6 C0F20003 		movt	r3, #:upper16:sweepSpeed
 1758 00aa 1B78     		ldrb	r3, [r3, #0]	@ zero_extendqisi2
 1759 00ac C3F10003 		rsb	r3, r3, #0
 1760 00b0 DAB2     		uxtb	r2, r3
 1761 00b2 40F20003 		movw	r3, #:lower16:sweepSpeed
 1762 00b6 C0F20003 		movt	r3, #:upper16:sweepSpeed
 1763 00ba 1A70     		strb	r2, [r3, #0]
 1764              	.L50:
 1765              		.loc 1 429 0
 1766 00bc 0598     		ldr	r0, [sp, #20]
ARM GAS  C:\Users\z80\AppData\Local\Temp\ccJfsMfL.s 			page 33


 1767 00be FFF7FEFF 		bl	__aeabi_i2f
 1768 00c2 0246     		mov	r2, r0
 1769 00c4 40F20003 		movw	r3, #:lower16:sweepPeriodInvf
 1770 00c8 C0F20003 		movt	r3, #:upper16:sweepPeriodInvf
 1771 00cc 1B68     		ldr	r3, [r3, #0]	@ float
 1772 00ce 1046     		mov	r0, r2
 1773 00d0 1946     		mov	r1, r3
 1774 00d2 FFF7FEFF 		bl	__aeabi_fmul
 1775 00d6 0346     		mov	r3, r0
 1776 00d8 0393     		str	r3, [sp, #12]	@ float
 1777              		.loc 1 431 0
 1778 00da 40F20003 		movw	r3, #:lower16:sweepDac1
 1779 00de C0F20003 		movt	r3, #:upper16:sweepDac1
 1780 00e2 1B88     		ldrh	r3, [r3, #0]
 1781 00e4 0293     		str	r3, [sp, #8]
 1782              		.loc 1 432 0
 1783 00e6 40F20003 		movw	r3, #:lower16:dDacf1
 1784 00ea C0F20003 		movt	r3, #:upper16:dDacf1
 1785 00ee 1B68     		ldr	r3, [r3, #0]	@ float
 1786 00f0 1846     		mov	r0, r3
 1787 00f2 0399     		ldr	r1, [sp, #12]	@ float
 1788 00f4 FFF7FEFF 		bl	__aeabi_fmul
 1789 00f8 0346     		mov	r3, r0
 1790 00fa 1846     		mov	r0, r3
 1791 00fc FFF7FEFF 		bl	__aeabi_f2iz
 1792 0100 0246     		mov	r2, r0
 1793 0102 029B     		ldr	r3, [sp, #8]
 1794 0104 1344     		add	r3, r2, r3
 1795 0106 0193     		str	r3, [sp, #4]
 1796              		.loc 1 433 0
 1797 0108 019B     		ldr	r3, [sp, #4]
 1798 010a 9BB2     		uxth	r3, r3
 1799 010c ADF80030 		strh	r3, [sp, #0]	@ movhi
 1800              		.loc 1 435 0
 1801 0110 40F20003 		movw	r3, #:lower16:sweepDac1
 1802 0114 C0F20003 		movt	r3, #:upper16:sweepDac1
 1803 0118 5B88     		ldrh	r3, [r3, #2]
 1804 011a 0293     		str	r3, [sp, #8]
 1805              		.loc 1 436 0
 1806 011c 40F20003 		movw	r3, #:lower16:dDacf2
 1807 0120 C0F20003 		movt	r3, #:upper16:dDacf2
 1808 0124 1B68     		ldr	r3, [r3, #0]	@ float
 1809 0126 1846     		mov	r0, r3
 1810 0128 0399     		ldr	r1, [sp, #12]	@ float
 1811 012a FFF7FEFF 		bl	__aeabi_fmul
 1812 012e 0346     		mov	r3, r0
 1813 0130 1846     		mov	r0, r3
 1814 0132 FFF7FEFF 		bl	__aeabi_f2iz
 1815 0136 0246     		mov	r2, r0
 1816 0138 029B     		ldr	r3, [sp, #8]
 1817 013a 1344     		add	r3, r2, r3
 1818 013c 0193     		str	r3, [sp, #4]
 1819              		.loc 1 437 0
 1820 013e 019B     		ldr	r3, [sp, #4]
 1821 0140 9BB2     		uxth	r3, r3
 1822 0142 ADF80230 		strh	r3, [sp, #2]	@ movhi
 1823              		.loc 1 439 0
ARM GAS  C:\Users\z80\AppData\Local\Temp\ccJfsMfL.s 			page 34


 1824 0146 6B46     		mov	r3, sp
 1825 0148 1846     		mov	r0, r3
 1826 014a FFF7FEFF 		bl	dacSet
 1827              		.loc 1 440 0
 1828 014e 07B0     		add	sp, sp, #28
 1829 0150 00BD     		pop	{pc}
 1830              		.cfi_endproc
 1831              	.LFE85:
 1832              		.size	processSweep, .-processSweep
 1833 0152 00BFAFF3 		.section	.text.initFb,"ax",%progbits
 1833      0080AFF3 
 1833      0080AFF3 
 1833      0080
 1834              		.align	2
 1835              		.p2align 4,,15
 1836              		.thumb
 1837              		.thumb_func
 1838              		.type	initFb, %function
 1839              	initFb:
 1840              	.LFB86:
 1841              		.loc 1 443 0
 1842              		.cfi_startproc
 1843              		@ args = 0, pretend = 0, frame = 0
 1844              		@ frame_needed = 0, uses_anonymous_args = 0
 1845              		@ link register save eliminated.
 1846              		.loc 1 445 0
 1847 0000 7047     		bx	lr
 1848              		.cfi_endproc
 1849              	.LFE86:
 1850              		.size	initFb, .-initFb
 1851 0002 00BFAFF3 		.section	.text.processFb,"ax",%progbits
 1851      0080AFF3 
 1851      0080AFF3 
 1851      0080
 1852              		.align	2
 1853              		.p2align 4,,15
 1854              		.thumb
 1855              		.thumb_func
 1856              		.type	processFb, %function
 1857              	processFb:
 1858              	.LFB87:
 1859              		.loc 1 448 0
 1860              		.cfi_startproc
 1861              		@ args = 0, pretend = 0, frame = 0
 1862              		@ frame_needed = 0, uses_anonymous_args = 0
 1863              		@ link register save eliminated.
 1864              		.loc 1 450 0
 1865 0000 7047     		bx	lr
 1866              		.cfi_endproc
 1867              	.LFE87:
 1868              		.size	processFb, .-processFb
 1869 0002 00BFAFF3 		.section	.data.filtered,"aw",%progbits
 1869      0080AFF3 
 1869      0080AFF3 
 1869      0080
 1870              		.align	2
 1871              		.type	filtered, %object
ARM GAS  C:\Users\z80\AppData\Local\Temp\ccJfsMfL.s 			page 35


 1872              		.size	filtered, 12
 1873              	filtered:
 1874 0000 FF070000 		.word	2047
 1875 0004 FF070000 		.word	2047
 1876 0008 FF070000 		.word	2047
 1877              		.section	.text.processOsc,"ax",%progbits
 1878              		.align	2
 1879              		.p2align 4,,15
 1880              		.thumb
 1881              		.thumb_func
 1882              		.type	processOsc, %function
 1883              	processOsc:
 1884              	.LFB88:
 1885              		.loc 1 455 0
 1886              		.cfi_startproc
 1887              		@ args = 0, pretend = 0, frame = 24
 1888              		@ frame_needed = 0, uses_anonymous_args = 0
 1889 0000 00B5     		push	{lr}
 1890              	.LCFI28:
 1891              		.cfi_def_cfa_offset 4
 1892 0002 87B0     		sub	sp, sp, #28
 1893              	.LCFI29:
 1894              		.cfi_def_cfa_offset 32
 1895 0004 0190     		str	r0, [sp, #4]
 1896              		.loc 1 456 0
 1897 0006 40F20003 		movw	r3, #:lower16:oscTime
 1898 000a C0F20003 		movt	r3, #:upper16:oscTime
 1899 000e 1B68     		ldr	r3, [r3, #0]
 1900 0010 03F10102 		add	r2, r3, #1
 1901 0014 40F20003 		movw	r3, #:lower16:oscTime
 1902 0018 C0F20003 		movt	r3, #:upper16:oscTime
 1903 001c 1A60     		str	r2, [r3, #0]
 1904              		.loc 1 458 0
 1905 001e 40F20003 		movw	r3, #:lower16:oscPeriod
 1906 0022 C0F20003 		movt	r3, #:upper16:oscPeriod
 1907 0026 1B68     		ldr	r3, [r3, #0]
 1908 0028 4FEAA303 		asr	r3, r3, #2
 1909 002c 0593     		str	r3, [sp, #20]
 1910              		.loc 1 459 0
 1911 002e 059A     		ldr	r2, [sp, #20]
 1912 0030 47F6FF73 		movw	r3, #32767
 1913 0034 9A42     		cmp	r2, r3
 1914 0036 B8BF     		it	lt
 1915 0038 1346     		movlt	r3, r2
 1916 003a 0493     		str	r3, [sp, #16]
 1917              		.loc 1 460 0
 1918 003c 049B     		ldr	r3, [sp, #16]
 1919 003e 012B     		cmp	r3, #1
 1920 0040 B8BF     		it	lt
 1921 0042 0123     		movlt	r3, #1
 1922 0044 0493     		str	r3, [sp, #16]
 1923              		.loc 1 461 0
 1924 0046 40F20003 		movw	r3, #:lower16:filtered
 1925 004a C0F20003 		movt	r3, #:upper16:filtered
 1926 004e 1B68     		ldr	r3, [r3, #0]
 1927 0050 4FEA4303 		lsl	r3, r3, #1
 1928 0054 03F10103 		add	r3, r3, #1
ARM GAS  C:\Users\z80\AppData\Local\Temp\ccJfsMfL.s 			page 36


 1929 0058 049A     		ldr	r2, [sp, #16]
 1930 005a 02F1FF32 		add	r2, r2, #-1
 1931 005e 02FB03F2 		mul	r2, r2, r3
 1932 0062 019B     		ldr	r3, [sp, #4]
 1933 0064 1B88     		ldrh	r3, [r3, #0]
 1934 0066 4FEA4313 		lsl	r3, r3, #5
 1935 006a 1344     		add	r3, r2, r3
 1936 006c 03F10102 		add	r2, r3, #1
 1937 0070 049B     		ldr	r3, [sp, #16]
 1938 0072 B2FBF3F2 		udiv	r2, r2, r3
 1939 0076 40F20003 		movw	r3, #:lower16:filtered
 1940 007a C0F20003 		movt	r3, #:upper16:filtered
 1941 007e 1A60     		str	r2, [r3, #0]
 1942              		.loc 1 462 0
 1943 0080 40F20003 		movw	r3, #:lower16:filtered
 1944 0084 C0F20003 		movt	r3, #:upper16:filtered
 1945 0088 1B68     		ldr	r3, [r3, #0]
 1946 008a 4FEA5302 		lsr	r2, r3, #1
 1947 008e 40F20003 		movw	r3, #:lower16:filtered
 1948 0092 C0F20003 		movt	r3, #:upper16:filtered
 1949 0096 1A60     		str	r2, [r3, #0]
 1950              		.loc 1 463 0
 1951 0098 40F20003 		movw	r3, #:lower16:filtered
 1952 009c C0F20003 		movt	r3, #:upper16:filtered
 1953 00a0 5B68     		ldr	r3, [r3, #4]
 1954 00a2 4FEA4303 		lsl	r3, r3, #1
 1955 00a6 03F10103 		add	r3, r3, #1
 1956 00aa 049A     		ldr	r2, [sp, #16]
 1957 00ac 02F1FF32 		add	r2, r2, #-1
 1958 00b0 02FB03F2 		mul	r2, r2, r3
 1959 00b4 019B     		ldr	r3, [sp, #4]
 1960 00b6 03F10203 		add	r3, r3, #2
 1961 00ba 1B88     		ldrh	r3, [r3, #0]
 1962 00bc 4FEA4313 		lsl	r3, r3, #5
 1963 00c0 1344     		add	r3, r2, r3
 1964 00c2 03F10102 		add	r2, r3, #1
 1965 00c6 049B     		ldr	r3, [sp, #16]
 1966 00c8 B2FBF3F2 		udiv	r2, r2, r3
 1967 00cc 40F20003 		movw	r3, #:lower16:filtered
 1968 00d0 C0F20003 		movt	r3, #:upper16:filtered
 1969 00d4 5A60     		str	r2, [r3, #4]
 1970              		.loc 1 464 0
 1971 00d6 40F20003 		movw	r3, #:lower16:filtered
 1972 00da C0F20003 		movt	r3, #:upper16:filtered
 1973 00de 5B68     		ldr	r3, [r3, #4]
 1974 00e0 4FEA5302 		lsr	r2, r3, #1
 1975 00e4 40F20003 		movw	r3, #:lower16:filtered
 1976 00e8 C0F20003 		movt	r3, #:upper16:filtered
 1977 00ec 5A60     		str	r2, [r3, #4]
 1978              		.loc 1 465 0
 1979 00ee 40F20003 		movw	r3, #:lower16:filtered
 1980 00f2 C0F20003 		movt	r3, #:upper16:filtered
 1981 00f6 9B68     		ldr	r3, [r3, #8]
 1982 00f8 4FEA4303 		lsl	r3, r3, #1
 1983 00fc 03F10103 		add	r3, r3, #1
 1984 0100 049A     		ldr	r2, [sp, #16]
 1985 0102 02F1FF32 		add	r2, r2, #-1
ARM GAS  C:\Users\z80\AppData\Local\Temp\ccJfsMfL.s 			page 37


 1986 0106 02FB03F2 		mul	r2, r2, r3
 1987 010a 019B     		ldr	r3, [sp, #4]
 1988 010c 03F10403 		add	r3, r3, #4
 1989 0110 1B88     		ldrh	r3, [r3, #0]
 1990 0112 4FEA4313 		lsl	r3, r3, #5
 1991 0116 1344     		add	r3, r2, r3
 1992 0118 03F10102 		add	r2, r3, #1
 1993 011c 049B     		ldr	r3, [sp, #16]
 1994 011e B2FBF3F2 		udiv	r2, r2, r3
 1995 0122 40F20003 		movw	r3, #:lower16:filtered
 1996 0126 C0F20003 		movt	r3, #:upper16:filtered
 1997 012a 9A60     		str	r2, [r3, #8]
 1998              		.loc 1 466 0
 1999 012c 40F20003 		movw	r3, #:lower16:filtered
 2000 0130 C0F20003 		movt	r3, #:upper16:filtered
 2001 0134 9B68     		ldr	r3, [r3, #8]
 2002 0136 4FEA5302 		lsr	r2, r3, #1
 2003 013a 40F20003 		movw	r3, #:lower16:filtered
 2004 013e C0F20003 		movt	r3, #:upper16:filtered
 2005 0142 9A60     		str	r2, [r3, #8]
 2006              		.loc 1 468 0
 2007 0144 40F20003 		movw	r3, #:lower16:oscTime
 2008 0148 C0F20003 		movt	r3, #:upper16:oscTime
 2009 014c 1A68     		ldr	r2, [r3, #0]
 2010 014e 40F20003 		movw	r3, #:lower16:oscPeriod
 2011 0152 C0F20003 		movt	r3, #:upper16:oscPeriod
 2012 0156 1B68     		ldr	r3, [r3, #0]
 2013 0158 9A42     		cmp	r2, r3
 2014 015a C0F2D080 		blt	.L53
 2015              		.cfi_offset 14, -4
 2016              	.LBB4:
 2017              		.loc 1 470 0
 2018 015e 40F20003 		movw	r3, #:lower16:oscTime
 2019 0162 C0F20003 		movt	r3, #:upper16:oscTime
 2020 0166 1A68     		ldr	r2, [r3, #0]
 2021 0168 40F20003 		movw	r3, #:lower16:oscPeriod
 2022 016c C0F20003 		movt	r3, #:upper16:oscPeriod
 2023 0170 1B68     		ldr	r3, [r3, #0]
 2024 0172 C3EB0202 		rsb	r2, r3, r2
 2025 0176 40F20003 		movw	r3, #:lower16:oscTime
 2026 017a C0F20003 		movt	r3, #:upper16:oscTime
 2027 017e 1A60     		str	r2, [r3, #0]
 2028              	.LBB5:
 2029              		.loc 1 471 0
 2030 0180 4FF02003 		mov	r3, #32
 2031              	@ 471 "./src/adc_ctrl.c" 1
 2032 0184 83F31188 		msr     BASEPRI, r3
 2033              	@ 0 "" 2
 2034              		.thumb
 2035              	.LBE5:
 2036 0188 FFF7FEFF 		bl	dbg_check_lock_from_isr
 2037              		.loc 1 475 0
 2038 018c 40F20003 		movw	r3, #:lower16:eaux_queue
 2039 0190 C0F20003 		movt	r3, #:upper16:eaux_queue
 2040 0194 1B69     		ldr	r3, [r3, #16]
 2041 0196 1A46     		mov	r2, r3
 2042 0198 40F20003 		movw	r3, #:lower16:eaux_queue
ARM GAS  C:\Users\z80\AppData\Local\Temp\ccJfsMfL.s 			page 38


 2043 019c C0F20003 		movt	r3, #:upper16:eaux_queue
 2044 01a0 DB68     		ldr	r3, [r3, #12]
 2045 01a2 C3EB0203 		rsb	r3, r3, r2
 2046 01a6 1A46     		mov	r2, r3
 2047 01a8 40F20003 		movw	r3, #:lower16:eaux_queue
 2048 01ac C0F20003 		movt	r3, #:upper16:eaux_queue
 2049 01b0 9B68     		ldr	r3, [r3, #8]
 2050 01b2 C3EB0203 		rsb	r3, r3, r2
 2051 01b6 012B     		cmp	r3, #1
 2052 01b8 40F29B80 		bls	.L55
 2053              		.loc 1 476 0 discriminator 1
 2054 01bc 40F20003 		movw	r3, #:lower16:eref_queue
 2055 01c0 C0F20003 		movt	r3, #:upper16:eref_queue
 2056 01c4 1B69     		ldr	r3, [r3, #16]
 2057 01c6 1A46     		mov	r2, r3
 2058 01c8 40F20003 		movw	r3, #:lower16:eref_queue
 2059 01cc C0F20003 		movt	r3, #:upper16:eref_queue
 2060 01d0 DB68     		ldr	r3, [r3, #12]
 2061 01d2 C3EB0203 		rsb	r3, r3, r2
 2062 01d6 1A46     		mov	r2, r3
 2063 01d8 40F20003 		movw	r3, #:lower16:eref_queue
 2064 01dc C0F20003 		movt	r3, #:upper16:eref_queue
 2065 01e0 9B68     		ldr	r3, [r3, #8]
 2066 01e2 C3EB0203 		rsb	r3, r3, r2
 2067              		.loc 1 475 0 discriminator 1
 2068 01e6 012B     		cmp	r3, #1
 2069 01e8 40F28380 		bls	.L55
 2070              		.loc 1 477 0
 2071 01ec 40F20003 		movw	r3, #:lower16:iaux_queue
 2072 01f0 C0F20003 		movt	r3, #:upper16:iaux_queue
 2073 01f4 1B69     		ldr	r3, [r3, #16]
 2074 01f6 1A46     		mov	r2, r3
 2075 01f8 40F20003 		movw	r3, #:lower16:iaux_queue
 2076 01fc C0F20003 		movt	r3, #:upper16:iaux_queue
 2077 0200 DB68     		ldr	r3, [r3, #12]
 2078 0202 C3EB0203 		rsb	r3, r3, r2
 2079 0206 1A46     		mov	r2, r3
 2080 0208 40F20003 		movw	r3, #:lower16:iaux_queue
 2081 020c C0F20003 		movt	r3, #:upper16:iaux_queue
 2082 0210 9B68     		ldr	r3, [r3, #8]
 2083 0212 C3EB0203 		rsb	r3, r3, r2
 2084              		.loc 1 476 0
 2085 0216 012B     		cmp	r3, #1
 2086 0218 6BD9     		bls	.L55
 2087              		.loc 1 479 0
 2088 021a 40F20003 		movw	r3, #:lower16:filtered
 2089 021e C0F20003 		movt	r3, #:upper16:filtered
 2090 0222 1B68     		ldr	r3, [r3, #0]
 2091 0224 ADF80E30 		strh	r3, [sp, #14]	@ movhi
 2092              		.loc 1 480 0
 2093 0228 BDF80E30 		ldrh	r3, [sp, #14]	@ movhi
 2094 022c 8DF80D30 		strb	r3, [sp, #13]
 2095              		.loc 1 481 0
 2096 0230 BDF80E30 		ldrh	r3, [sp, #14]
 2097 0234 4FEA1323 		lsr	r3, r3, #8
 2098 0238 9BB2     		uxth	r3, r3
 2099 023a 8DF80C30 		strb	r3, [sp, #12]
ARM GAS  C:\Users\z80\AppData\Local\Temp\ccJfsMfL.s 			page 39


 2100              		.loc 1 482 0
 2101 023e 9DF80D30 		ldrb	r3, [sp, #13]	@ zero_extendqisi2
 2102 0242 40F20000 		movw	r0, #:lower16:eaux_queue
 2103 0246 C0F20000 		movt	r0, #:upper16:eaux_queue
 2104 024a 1946     		mov	r1, r3
 2105 024c FFF7FEFF 		bl	chIQPutI
 2106              		.loc 1 483 0
 2107 0250 9DF80C30 		ldrb	r3, [sp, #12]	@ zero_extendqisi2
 2108 0254 40F20000 		movw	r0, #:lower16:eaux_queue
 2109 0258 C0F20000 		movt	r0, #:upper16:eaux_queue
 2110 025c 1946     		mov	r1, r3
 2111 025e FFF7FEFF 		bl	chIQPutI
 2112              		.loc 1 485 0
 2113 0262 40F20003 		movw	r3, #:lower16:filtered
 2114 0266 C0F20003 		movt	r3, #:upper16:filtered
 2115 026a 5B68     		ldr	r3, [r3, #4]
 2116 026c ADF80E30 		strh	r3, [sp, #14]	@ movhi
 2117              		.loc 1 486 0
 2118 0270 BDF80E30 		ldrh	r3, [sp, #14]	@ movhi
 2119 0274 8DF80D30 		strb	r3, [sp, #13]
 2120              		.loc 1 487 0
 2121 0278 BDF80E30 		ldrh	r3, [sp, #14]
 2122 027c 4FEA1323 		lsr	r3, r3, #8
 2123 0280 9BB2     		uxth	r3, r3
 2124 0282 8DF80C30 		strb	r3, [sp, #12]
 2125              		.loc 1 488 0
 2126 0286 9DF80D30 		ldrb	r3, [sp, #13]	@ zero_extendqisi2
 2127 028a 40F20000 		movw	r0, #:lower16:eref_queue
 2128 028e C0F20000 		movt	r0, #:upper16:eref_queue
 2129 0292 1946     		mov	r1, r3
 2130 0294 FFF7FEFF 		bl	chIQPutI
 2131              		.loc 1 489 0
 2132 0298 9DF80C30 		ldrb	r3, [sp, #12]	@ zero_extendqisi2
 2133 029c 40F20000 		movw	r0, #:lower16:eref_queue
 2134 02a0 C0F20000 		movt	r0, #:upper16:eref_queue
 2135 02a4 1946     		mov	r1, r3
 2136 02a6 FFF7FEFF 		bl	chIQPutI
 2137              		.loc 1 491 0
 2138 02aa 40F20003 		movw	r3, #:lower16:filtered
 2139 02ae C0F20003 		movt	r3, #:upper16:filtered
 2140 02b2 9B68     		ldr	r3, [r3, #8]
 2141 02b4 ADF80E30 		strh	r3, [sp, #14]	@ movhi
 2142              		.loc 1 492 0
 2143 02b8 BDF80E30 		ldrh	r3, [sp, #14]	@ movhi
 2144 02bc 8DF80D30 		strb	r3, [sp, #13]
 2145              		.loc 1 493 0
 2146 02c0 BDF80E30 		ldrh	r3, [sp, #14]
 2147 02c4 4FEA1323 		lsr	r3, r3, #8
 2148 02c8 9BB2     		uxth	r3, r3
 2149 02ca 8DF80C30 		strb	r3, [sp, #12]
 2150              		.loc 1 494 0
 2151 02ce 9DF80D30 		ldrb	r3, [sp, #13]	@ zero_extendqisi2
 2152 02d2 40F20000 		movw	r0, #:lower16:iaux_queue
 2153 02d6 C0F20000 		movt	r0, #:upper16:iaux_queue
 2154 02da 1946     		mov	r1, r3
 2155 02dc FFF7FEFF 		bl	chIQPutI
 2156              		.loc 1 495 0
ARM GAS  C:\Users\z80\AppData\Local\Temp\ccJfsMfL.s 			page 40


 2157 02e0 9DF80C30 		ldrb	r3, [sp, #12]	@ zero_extendqisi2
 2158 02e4 40F20000 		movw	r0, #:lower16:iaux_queue
 2159 02e8 C0F20000 		movt	r0, #:upper16:iaux_queue
 2160 02ec 1946     		mov	r1, r3
 2161 02ee FFF7FEFF 		bl	chIQPutI
 2162              	.L55:
 2163              		.loc 1 497 0
 2164 02f2 FFF7FEFF 		bl	dbg_check_unlock_from_isr
 2165              	.LBB6:
 2166 02f6 4FF00003 		mov	r3, #0
 2167              	@ 497 "./src/adc_ctrl.c" 1
 2168 02fa 83F31188 		msr     BASEPRI, r3
 2169              	@ 0 "" 2
 2170              		.thumb
 2171              	.L53:
 2172              	.LBE6:
 2173              	.LBE4:
 2174              		.loc 1 499 0
 2175 02fe 07B0     		add	sp, sp, #28
 2176 0300 00BD     		pop	{pc}
 2177              		.cfi_endproc
 2178              	.LFE88:
 2179              		.size	processOsc, .-processOsc
 2180 0302 00BFAFF3 		.section	.text.processBufferI,"ax",%progbits
 2180      0080AFF3 
 2180      0080AFF3 
 2180      0080
 2181              		.align	2
 2182              		.p2align 4,,15
 2183              		.thumb
 2184              		.thumb_func
 2185              		.type	processBufferI, %function
 2186              	processBufferI:
 2187              	.LFB89:
 2188              		.loc 1 502 0
 2189              		.cfi_startproc
 2190              		@ args = 0, pretend = 0, frame = 24
 2191              		@ frame_needed = 0, uses_anonymous_args = 0
 2192 0000 00B5     		push	{lr}
 2193              	.LCFI30:
 2194              		.cfi_def_cfa_offset 4
 2195 0002 87B0     		sub	sp, sp, #28
 2196              	.LCFI31:
 2197              		.cfi_def_cfa_offset 32
 2198 0004 0190     		str	r0, [sp, #4]
 2199              		.loc 1 503 0
 2200 0006 40F20003 		movw	r3, #:lower16:bufferEnabled
 2201 000a C0F20003 		movt	r3, #:upper16:bufferEnabled
 2202 000e 1B78     		ldrb	r3, [r3, #0]	@ zero_extendqisi2
 2203 0010 002B     		cmp	r3, #0
 2204 0012 00F0FF80 		beq	.L68
 2205              		.cfi_offset 14, -4
 2206              	.L57:
 2207              	.LBB7:
 2208              		.loc 1 506 0
 2209 0016 4FF02003 		mov	r3, #32
 2210              	@ 506 "./src/adc_ctrl.c" 1
ARM GAS  C:\Users\z80\AppData\Local\Temp\ccJfsMfL.s 			page 41


 2211 001a 83F31188 		msr     BASEPRI, r3
 2212              	@ 0 "" 2
 2213              		.thumb
 2214              	.LBE7:
 2215 001e FFF7FEFF 		bl	dbg_check_lock_from_isr
 2216              		.loc 1 507 0
 2217 0022 40F20003 		movw	r3, #:lower16:bufferMask
 2218 0026 C0F20003 		movt	r3, #:upper16:bufferMask
 2219 002a 1B78     		ldrb	r3, [r3, #0]
 2220 002c 8DF81730 		strb	r3, [sp, #23]
 2221              		.loc 1 508 0
 2222 0030 FFF7FEFF 		bl	dbg_check_unlock_from_isr
 2223              	.LBB8:
 2224 0034 4FF00003 		mov	r3, #0
 2225              	@ 508 "./src/adc_ctrl.c" 1
 2226 0038 83F31188 		msr     BASEPRI, r3
 2227              	@ 0 "" 2
 2228              		.thumb
 2229              	.LBE8:
 2230              		.loc 1 510 0
 2231 003c 9DF81730 		ldrb	r3, [sp, #23]	@ zero_extendqisi2
 2232 0040 03F00103 		and	r3, r3, #1
 2233 0044 DBB2     		uxtb	r3, r3
 2234 0046 002B     		cmp	r3, #0
 2235 0048 02D0     		beq	.L59
 2236              		.loc 1 510 0 is_stmt 0 discriminator 1
 2237 004a 4FF00203 		mov	r3, #2
 2238 004e 01E0     		b	.L60
 2239              	.L59:
 2240              		.loc 1 510 0 discriminator 2
 2241 0050 4FF00003 		mov	r3, #0
 2242              	.L60:
 2243              		.loc 1 510 0 discriminator 3
 2244 0054 9DF81720 		ldrb	r2, [sp, #23]	@ zero_extendqisi2
 2245 0058 02F00202 		and	r2, r2, #2
 2246 005c 1A44     		add	r2, r3, r2
 2247 005e 9DF81730 		ldrb	r3, [sp, #23]	@ zero_extendqisi2
 2248 0062 03F00403 		and	r3, r3, #4
 2249 0066 002B     		cmp	r3, #0
 2250 0068 02D0     		beq	.L61
 2251              		.loc 1 510 0 discriminator 1
 2252 006a 4FF00203 		mov	r3, #2
 2253 006e 01E0     		b	.L62
 2254              	.L61:
 2255              		.loc 1 510 0 discriminator 2
 2256 0070 4FF00003 		mov	r3, #0
 2257              	.L62:
 2258              		.loc 1 510 0 discriminator 3
 2259 0074 1344     		add	r3, r2, r3
 2260 0076 0493     		str	r3, [sp, #16]
 2261              	.LBB9:
 2262              		.loc 1 511 0 is_stmt 1 discriminator 3
 2263 0078 4FF02003 		mov	r3, #32
 2264              	@ 511 "./src/adc_ctrl.c" 1
 2265 007c 83F31188 		msr     BASEPRI, r3
 2266              	@ 0 "" 2
 2267              		.thumb
ARM GAS  C:\Users\z80\AppData\Local\Temp\ccJfsMfL.s 			page 42


 2268              	.LBE9:
 2269 0080 FFF7FEFF 		bl	dbg_check_lock_from_isr
 2270              		.loc 1 512 0 discriminator 3
 2271 0084 40F20003 		movw	r3, #:lower16:eaux_queue
 2272 0088 C0F20003 		movt	r3, #:upper16:eaux_queue
 2273 008c 1B69     		ldr	r3, [r3, #16]
 2274 008e 1A46     		mov	r2, r3
 2275 0090 40F20003 		movw	r3, #:lower16:eaux_queue
 2276 0094 C0F20003 		movt	r3, #:upper16:eaux_queue
 2277 0098 DB68     		ldr	r3, [r3, #12]
 2278 009a C3EB0203 		rsb	r3, r3, r2
 2279 009e 1A46     		mov	r2, r3
 2280 00a0 40F20003 		movw	r3, #:lower16:eaux_queue
 2281 00a4 C0F20003 		movt	r3, #:upper16:eaux_queue
 2282 00a8 9B68     		ldr	r3, [r3, #8]
 2283 00aa C3EB0203 		rsb	r3, r3, r2
 2284 00ae 0393     		str	r3, [sp, #12]
 2285              		.loc 1 513 0 discriminator 3
 2286 00b0 FFF7FEFF 		bl	dbg_check_unlock_from_isr
 2287              	.LBB10:
 2288 00b4 4FF00003 		mov	r3, #0
 2289              	@ 513 "./src/adc_ctrl.c" 1
 2290 00b8 83F31188 		msr     BASEPRI, r3
 2291              	@ 0 "" 2
 2292              		.thumb
 2293              	.LBE10:
 2294              		.loc 1 514 0 discriminator 3
 2295 00bc 039A     		ldr	r2, [sp, #12]
 2296 00be 049B     		ldr	r3, [sp, #16]
 2297 00c0 9A42     		cmp	r2, r3
 2298 00c2 07DA     		bge	.L63
 2299              		.loc 1 516 0
 2300 00c4 40F20003 		movw	r3, #:lower16:bufferEnabled
 2301 00c8 C0F20003 		movt	r3, #:upper16:bufferEnabled
 2302 00cc 4FF00002 		mov	r2, #0
 2303 00d0 1A70     		strb	r2, [r3, #0]
 2304              		.loc 1 517 0
 2305 00d2 A2E0     		b	.L56
 2306              	.L63:
 2307              		.loc 1 521 0
 2308 00d4 40F20003 		movw	r3, #:lower16:bufferTime
 2309 00d8 C0F20003 		movt	r3, #:upper16:bufferTime
 2310 00dc 1B68     		ldr	r3, [r3, #0]
 2311 00de 03F10102 		add	r2, r3, #1
 2312 00e2 40F20003 		movw	r3, #:lower16:bufferTime
 2313 00e6 C0F20003 		movt	r3, #:upper16:bufferTime
 2314 00ea 1A60     		str	r2, [r3, #0]
 2315              		.loc 1 522 0
 2316 00ec 40F20003 		movw	r3, #:lower16:bufferTime
 2317 00f0 C0F20003 		movt	r3, #:upper16:bufferTime
 2318 00f4 1A68     		ldr	r2, [r3, #0]
 2319 00f6 40F20003 		movw	r3, #:lower16:bufferPeriod
 2320 00fa C0F20003 		movt	r3, #:upper16:bufferPeriod
 2321 00fe 1B68     		ldr	r3, [r3, #0]
 2322 0100 9A42     		cmp	r2, r3
 2323 0102 C0F28980 		blt	.L69
 2324              	.L64:
ARM GAS  C:\Users\z80\AppData\Local\Temp\ccJfsMfL.s 			page 43


 2325              	.LBB11:
 2326              		.loc 1 529 0
 2327 0106 4FF02003 		mov	r3, #32
 2328              	@ 529 "./src/adc_ctrl.c" 1
 2329 010a 83F31188 		msr     BASEPRI, r3
 2330              	@ 0 "" 2
 2331              		.thumb
 2332              	.LBE11:
 2333 010e FFF7FEFF 		bl	dbg_check_lock_from_isr
 2334              		.loc 1 530 0
 2335 0112 9DF81730 		ldrb	r3, [sp, #23]	@ zero_extendqisi2
 2336 0116 03F00103 		and	r3, r3, #1
 2337 011a DBB2     		uxtb	r3, r3
 2338 011c 002B     		cmp	r3, #0
 2339 011e 20D0     		beq	.L65
 2340              		.loc 1 532 0
 2341 0120 019B     		ldr	r3, [sp, #4]
 2342 0122 1B88     		ldrh	r3, [r3, #0]	@ movhi
 2343 0124 ADF80A30 		strh	r3, [sp, #10]	@ movhi
 2344              		.loc 1 533 0
 2345 0128 BDF80A30 		ldrh	r3, [sp, #10]	@ movhi
 2346 012c 8DF80930 		strb	r3, [sp, #9]
 2347              		.loc 1 534 0
 2348 0130 BDF80A30 		ldrh	r3, [sp, #10]
 2349 0134 4FEA1323 		lsr	r3, r3, #8
 2350 0138 9BB2     		uxth	r3, r3
 2351 013a 8DF80830 		strb	r3, [sp, #8]
 2352              		.loc 1 535 0
 2353 013e 9DF80930 		ldrb	r3, [sp, #9]	@ zero_extendqisi2
 2354 0142 40F20000 		movw	r0, #:lower16:eaux_queue
 2355 0146 C0F20000 		movt	r0, #:upper16:eaux_queue
 2356 014a 1946     		mov	r1, r3
 2357 014c FFF7FEFF 		bl	chIQPutI
 2358              		.loc 1 536 0
 2359 0150 9DF80830 		ldrb	r3, [sp, #8]	@ zero_extendqisi2
 2360 0154 40F20000 		movw	r0, #:lower16:eaux_queue
 2361 0158 C0F20000 		movt	r0, #:upper16:eaux_queue
 2362 015c 1946     		mov	r1, r3
 2363 015e FFF7FEFF 		bl	chIQPutI
 2364              	.L65:
 2365              		.loc 1 539 0
 2366 0162 9DF81730 		ldrb	r3, [sp, #23]	@ zero_extendqisi2
 2367 0166 03F00203 		and	r3, r3, #2
 2368 016a 002B     		cmp	r3, #0
 2369 016c 22D0     		beq	.L66
 2370              		.loc 1 541 0
 2371 016e 019B     		ldr	r3, [sp, #4]
 2372 0170 03F10203 		add	r3, r3, #2
 2373 0174 1B88     		ldrh	r3, [r3, #0]	@ movhi
 2374 0176 ADF80A30 		strh	r3, [sp, #10]	@ movhi
 2375              		.loc 1 542 0
 2376 017a BDF80A30 		ldrh	r3, [sp, #10]	@ movhi
 2377 017e 8DF80930 		strb	r3, [sp, #9]
 2378              		.loc 1 543 0
 2379 0182 BDF80A30 		ldrh	r3, [sp, #10]
 2380 0186 4FEA1323 		lsr	r3, r3, #8
 2381 018a 9BB2     		uxth	r3, r3
ARM GAS  C:\Users\z80\AppData\Local\Temp\ccJfsMfL.s 			page 44


 2382 018c 8DF80830 		strb	r3, [sp, #8]
 2383              		.loc 1 544 0
 2384 0190 9DF80930 		ldrb	r3, [sp, #9]	@ zero_extendqisi2
 2385 0194 40F20000 		movw	r0, #:lower16:eaux_queue
 2386 0198 C0F20000 		movt	r0, #:upper16:eaux_queue
 2387 019c 1946     		mov	r1, r3
 2388 019e FFF7FEFF 		bl	chIQPutI
 2389              		.loc 1 545 0
 2390 01a2 9DF80830 		ldrb	r3, [sp, #8]	@ zero_extendqisi2
 2391 01a6 40F20000 		movw	r0, #:lower16:eaux_queue
 2392 01aa C0F20000 		movt	r0, #:upper16:eaux_queue
 2393 01ae 1946     		mov	r1, r3
 2394 01b0 FFF7FEFF 		bl	chIQPutI
 2395              	.L66:
 2396              		.loc 1 549 0
 2397 01b4 9DF81730 		ldrb	r3, [sp, #23]	@ zero_extendqisi2
 2398 01b8 03F00403 		and	r3, r3, #4
 2399 01bc 002B     		cmp	r3, #0
 2400 01be 22D0     		beq	.L67
 2401              		.loc 1 551 0
 2402 01c0 019B     		ldr	r3, [sp, #4]
 2403 01c2 03F10403 		add	r3, r3, #4
 2404 01c6 1B88     		ldrh	r3, [r3, #0]	@ movhi
 2405 01c8 ADF80A30 		strh	r3, [sp, #10]	@ movhi
 2406              		.loc 1 552 0
 2407 01cc BDF80A30 		ldrh	r3, [sp, #10]	@ movhi
 2408 01d0 8DF80930 		strb	r3, [sp, #9]
 2409              		.loc 1 553 0
 2410 01d4 BDF80A30 		ldrh	r3, [sp, #10]
 2411 01d8 4FEA1323 		lsr	r3, r3, #8
 2412 01dc 9BB2     		uxth	r3, r3
 2413 01de 8DF80830 		strb	r3, [sp, #8]
 2414              		.loc 1 554 0
 2415 01e2 9DF80930 		ldrb	r3, [sp, #9]	@ zero_extendqisi2
 2416 01e6 40F20000 		movw	r0, #:lower16:eaux_queue
 2417 01ea C0F20000 		movt	r0, #:upper16:eaux_queue
 2418 01ee 1946     		mov	r1, r3
 2419 01f0 FFF7FEFF 		bl	chIQPutI
 2420              		.loc 1 555 0
 2421 01f4 9DF80830 		ldrb	r3, [sp, #8]	@ zero_extendqisi2
 2422 01f8 40F20000 		movw	r0, #:lower16:eaux_queue
 2423 01fc C0F20000 		movt	r0, #:upper16:eaux_queue
 2424 0200 1946     		mov	r1, r3
 2425 0202 FFF7FEFF 		bl	chIQPutI
 2426              	.L67:
 2427              		.loc 1 558 0
 2428 0206 FFF7FEFF 		bl	dbg_check_unlock_from_isr
 2429              	.LBB12:
 2430 020a 4FF00003 		mov	r3, #0
 2431              	@ 558 "./src/adc_ctrl.c" 1
 2432 020e 83F31188 		msr     BASEPRI, r3
 2433              	@ 0 "" 2
 2434              		.thumb
 2435 0212 02E0     		b	.L56
 2436              	.L68:
 2437              	.LBE12:
 2438              		.loc 1 504 0
ARM GAS  C:\Users\z80\AppData\Local\Temp\ccJfsMfL.s 			page 45


 2439 0214 00BF     		nop
 2440 0216 00E0     		b	.L56
 2441              	.L69:
 2442              		.loc 1 523 0
 2443 0218 00BF     		nop
 2444              	.L56:
 2445              		.loc 1 559 0
 2446 021a 07B0     		add	sp, sp, #28
 2447 021c 00BD     		pop	{pc}
 2448              		.cfi_endproc
 2449              	.LFE89:
 2450              		.size	processBufferI, .-processBufferI
 2451 021e 00BF     		.section	.text.startBufferI,"ax",%progbits
 2452              		.align	2
 2453              		.p2align 4,,15
 2454              		.thumb
 2455              		.thumb_func
 2456              		.type	startBufferI, %function
 2457              	startBufferI:
 2458              	.LFB90:
 2459              		.loc 1 562 0
 2460              		.cfi_startproc
 2461              		@ args = 0, pretend = 0, frame = 0
 2462              		@ frame_needed = 0, uses_anonymous_args = 0
 2463              		@ link register save eliminated.
 2464              		.loc 1 563 0
 2465 0000 40F20003 		movw	r3, #:lower16:buffer_queue
 2466 0004 C0F20003 		movt	r3, #:upper16:buffer_queue
 2467 0008 9B68     		ldr	r3, [r3, #8]
 2468 000a 002B     		cmp	r3, #0
 2469 000c 14BF     		ite	ne
 2470 000e 0023     		movne	r3, #0
 2471 0010 0123     		moveq	r3, #1
 2472 0012 DAB2     		uxtb	r2, r3
 2473 0014 40F20003 		movw	r3, #:lower16:bufferEnabled
 2474 0018 C0F20003 		movt	r3, #:upper16:bufferEnabled
 2475 001c 1A70     		strb	r2, [r3, #0]
 2476              		.loc 1 564 0
 2477 001e 40F20003 		movw	r3, #:lower16:bufferEnabled
 2478 0022 C0F20003 		movt	r3, #:upper16:bufferEnabled
 2479 0026 1B78     		ldrb	r3, [r3, #0]	@ zero_extendqisi2
 2480 0028 002B     		cmp	r3, #0
 2481 002a 06D0     		beq	.L70
 2482              		.loc 1 566 0
 2483 002c 40F20003 		movw	r3, #:lower16:bufferTime
 2484 0030 C0F20003 		movt	r3, #:upper16:bufferTime
 2485 0034 4FF00002 		mov	r2, #0
 2486 0038 1A60     		str	r2, [r3, #0]
 2487              	.L70:
 2488              		.loc 1 567 0
 2489 003a 7047     		bx	lr
 2490              		.cfi_endproc
 2491              	.LFE90:
 2492              		.size	startBufferI, .-startBufferI
 2493 003c AFF30080 		.text
 2494              	.Letext0:
 2495              		.section	.debug_loc,"",%progbits
ARM GAS  C:\Users\z80\AppData\Local\Temp\ccJfsMfL.s 			page 46


 2496              	.Ldebug_loc0:
 2497              	.LLST0:
 2498 0000 00000000 		.4byte	.LFB62
 2499 0004 02000000 		.4byte	.LCFI0
 2500 0008 0200     		.2byte	0x2
 2501 000a 7D       		.byte	0x7d
 2502 000b 00       		.sleb128 0
 2503 000c 02000000 		.4byte	.LCFI0
 2504 0010 04000000 		.4byte	.LCFI1
 2505 0014 0200     		.2byte	0x2
 2506 0016 7D       		.byte	0x7d
 2507 0017 04       		.sleb128 4
 2508 0018 04000000 		.4byte	.LCFI1
 2509 001c 90000000 		.4byte	.LFE62
 2510 0020 0200     		.2byte	0x2
 2511 0022 7D       		.byte	0x7d
 2512 0023 20       		.sleb128 32
 2513 0024 00000000 		.4byte	0x0
 2514 0028 00000000 		.4byte	0x0
 2515              	.LLST1:
 2516 002c 00000000 		.4byte	.LFB63
 2517 0030 02000000 		.4byte	.LCFI2
 2518 0034 0200     		.2byte	0x2
 2519 0036 7D       		.byte	0x7d
 2520 0037 00       		.sleb128 0
 2521 0038 02000000 		.4byte	.LCFI2
 2522 003c D4000000 		.4byte	.LFE63
 2523 0040 0200     		.2byte	0x2
 2524 0042 7D       		.byte	0x7d
 2525 0043 08       		.sleb128 8
 2526 0044 00000000 		.4byte	0x0
 2527 0048 00000000 		.4byte	0x0
 2528              	.LLST2:
 2529 004c 00000000 		.4byte	.LFB64
 2530 0050 02000000 		.4byte	.LCFI3
 2531 0054 0200     		.2byte	0x2
 2532 0056 7D       		.byte	0x7d
 2533 0057 00       		.sleb128 0
 2534 0058 02000000 		.4byte	.LCFI3
 2535 005c 14000000 		.4byte	.LFE64
 2536 0060 0200     		.2byte	0x2
 2537 0062 7D       		.byte	0x7d
 2538 0063 08       		.sleb128 8
 2539 0064 00000000 		.4byte	0x0
 2540 0068 00000000 		.4byte	0x0
 2541              	.LLST3:
 2542 006c 00000000 		.4byte	.LFB65
 2543 0070 02000000 		.4byte	.LCFI4
 2544 0074 0200     		.2byte	0x2
 2545 0076 7D       		.byte	0x7d
 2546 0077 00       		.sleb128 0
 2547 0078 02000000 		.4byte	.LCFI4
 2548 007c 14000000 		.4byte	.LFE65
 2549 0080 0200     		.2byte	0x2
 2550 0082 7D       		.byte	0x7d
 2551 0083 08       		.sleb128 8
 2552 0084 00000000 		.4byte	0x0
ARM GAS  C:\Users\z80\AppData\Local\Temp\ccJfsMfL.s 			page 47


 2553 0088 00000000 		.4byte	0x0
 2554              	.LLST4:
 2555 008c 00000000 		.4byte	.LFB66
 2556 0090 02000000 		.4byte	.LCFI5
 2557 0094 0200     		.2byte	0x2
 2558 0096 7D       		.byte	0x7d
 2559 0097 00       		.sleb128 0
 2560 0098 02000000 		.4byte	.LCFI5
 2561 009c 1A000000 		.4byte	.LFE66
 2562 00a0 0200     		.2byte	0x2
 2563 00a2 7D       		.byte	0x7d
 2564 00a3 08       		.sleb128 8
 2565 00a4 00000000 		.4byte	0x0
 2566 00a8 00000000 		.4byte	0x0
 2567              	.LLST5:
 2568 00ac 00000000 		.4byte	.LFB67
 2569 00b0 02000000 		.4byte	.LCFI6
 2570 00b4 0200     		.2byte	0x2
 2571 00b6 7D       		.byte	0x7d
 2572 00b7 00       		.sleb128 0
 2573 00b8 02000000 		.4byte	.LCFI6
 2574 00bc 08000000 		.4byte	.LFE67
 2575 00c0 0200     		.2byte	0x2
 2576 00c2 7D       		.byte	0x7d
 2577 00c3 08       		.sleb128 8
 2578 00c4 00000000 		.4byte	0x0
 2579 00c8 00000000 		.4byte	0x0
 2580              	.LLST6:
 2581 00cc 00000000 		.4byte	.LFB68
 2582 00d0 02000000 		.4byte	.LCFI7
 2583 00d4 0200     		.2byte	0x2
 2584 00d6 7D       		.byte	0x7d
 2585 00d7 00       		.sleb128 0
 2586 00d8 02000000 		.4byte	.LCFI7
 2587 00dc 08000000 		.4byte	.LFE68
 2588 00e0 0200     		.2byte	0x2
 2589 00e2 7D       		.byte	0x7d
 2590 00e3 08       		.sleb128 8
 2591 00e4 00000000 		.4byte	0x0
 2592 00e8 00000000 		.4byte	0x0
 2593              	.LLST7:
 2594 00ec 00000000 		.4byte	.LFB69
 2595 00f0 02000000 		.4byte	.LCFI8
 2596 00f4 0200     		.2byte	0x2
 2597 00f6 7D       		.byte	0x7d
 2598 00f7 00       		.sleb128 0
 2599 00f8 02000000 		.4byte	.LCFI8
 2600 00fc 0A000000 		.4byte	.LFE69
 2601 0100 0200     		.2byte	0x2
 2602 0102 7D       		.byte	0x7d
 2603 0103 08       		.sleb128 8
 2604 0104 00000000 		.4byte	0x0
 2605 0108 00000000 		.4byte	0x0
 2606              	.LLST8:
 2607 010c 00000000 		.4byte	.LFB70
 2608 0110 02000000 		.4byte	.LCFI9
 2609 0114 0200     		.2byte	0x2
ARM GAS  C:\Users\z80\AppData\Local\Temp\ccJfsMfL.s 			page 48


 2610 0116 7D       		.byte	0x7d
 2611 0117 00       		.sleb128 0
 2612 0118 02000000 		.4byte	.LCFI9
 2613 011c 08000000 		.4byte	.LFE70
 2614 0120 0200     		.2byte	0x2
 2615 0122 7D       		.byte	0x7d
 2616 0123 08       		.sleb128 8
 2617 0124 00000000 		.4byte	0x0
 2618 0128 00000000 		.4byte	0x0
 2619              	.LLST9:
 2620 012c 00000000 		.4byte	.LFB76
 2621 0130 02000000 		.4byte	.LCFI10
 2622 0134 0200     		.2byte	0x2
 2623 0136 7D       		.byte	0x7d
 2624 0137 00       		.sleb128 0
 2625 0138 02000000 		.4byte	.LCFI10
 2626 013c 04000000 		.4byte	.LCFI11
 2627 0140 0200     		.2byte	0x2
 2628 0142 7D       		.byte	0x7d
 2629 0143 04       		.sleb128 4
 2630 0144 04000000 		.4byte	.LCFI11
 2631 0148 4A000000 		.4byte	.LFE76
 2632 014c 0200     		.2byte	0x2
 2633 014e 7D       		.byte	0x7d
 2634 014f 10       		.sleb128 16
 2635 0150 00000000 		.4byte	0x0
 2636 0154 00000000 		.4byte	0x0
 2637              	.LLST10:
 2638 0158 00000000 		.4byte	.LFB77
 2639 015c 02000000 		.4byte	.LCFI12
 2640 0160 0200     		.2byte	0x2
 2641 0162 7D       		.byte	0x7d
 2642 0163 00       		.sleb128 0
 2643 0164 02000000 		.4byte	.LCFI12
 2644 0168 04000000 		.4byte	.LCFI13
 2645 016c 0200     		.2byte	0x2
 2646 016e 7D       		.byte	0x7d
 2647 016f 04       		.sleb128 4
 2648 0170 04000000 		.4byte	.LCFI13
 2649 0174 4A000000 		.4byte	.LFE77
 2650 0178 0200     		.2byte	0x2
 2651 017a 7D       		.byte	0x7d
 2652 017b 10       		.sleb128 16
 2653 017c 00000000 		.4byte	0x0
 2654 0180 00000000 		.4byte	0x0
 2655              	.LLST11:
 2656 0184 00000000 		.4byte	.LFB78
 2657 0188 02000000 		.4byte	.LCFI14
 2658 018c 0200     		.2byte	0x2
 2659 018e 7D       		.byte	0x7d
 2660 018f 00       		.sleb128 0
 2661 0190 02000000 		.4byte	.LCFI14
 2662 0194 04000000 		.4byte	.LCFI15
 2663 0198 0200     		.2byte	0x2
 2664 019a 7D       		.byte	0x7d
 2665 019b 04       		.sleb128 4
 2666 019c 04000000 		.4byte	.LCFI15
ARM GAS  C:\Users\z80\AppData\Local\Temp\ccJfsMfL.s 			page 49


 2667 01a0 50000000 		.4byte	.LFE78
 2668 01a4 0200     		.2byte	0x2
 2669 01a6 7D       		.byte	0x7d
 2670 01a7 10       		.sleb128 16
 2671 01a8 00000000 		.4byte	0x0
 2672 01ac 00000000 		.4byte	0x0
 2673              	.LLST12:
 2674 01b0 00000000 		.4byte	.LFB79
 2675 01b4 02000000 		.4byte	.LCFI16
 2676 01b8 0200     		.2byte	0x2
 2677 01ba 7D       		.byte	0x7d
 2678 01bb 00       		.sleb128 0
 2679 01bc 02000000 		.4byte	.LCFI16
 2680 01c0 04000000 		.4byte	.LCFI17
 2681 01c4 0200     		.2byte	0x2
 2682 01c6 7D       		.byte	0x7d
 2683 01c7 04       		.sleb128 4
 2684 01c8 04000000 		.4byte	.LCFI17
 2685 01cc 30000000 		.4byte	.LFE79
 2686 01d0 0200     		.2byte	0x2
 2687 01d2 7D       		.byte	0x7d
 2688 01d3 10       		.sleb128 16
 2689 01d4 00000000 		.4byte	0x0
 2690 01d8 00000000 		.4byte	0x0
 2691              	.LLST13:
 2692 01dc 00000000 		.4byte	.LFB80
 2693 01e0 02000000 		.4byte	.LCFI18
 2694 01e4 0200     		.2byte	0x2
 2695 01e6 7D       		.byte	0x7d
 2696 01e7 00       		.sleb128 0
 2697 01e8 02000000 		.4byte	.LCFI18
 2698 01ec 04000000 		.4byte	.LCFI19
 2699 01f0 0200     		.2byte	0x2
 2700 01f2 7D       		.byte	0x7d
 2701 01f3 04       		.sleb128 4
 2702 01f4 04000000 		.4byte	.LCFI19
 2703 01f8 0C010000 		.4byte	.LFE80
 2704 01fc 0200     		.2byte	0x2
 2705 01fe 7D       		.byte	0x7d
 2706 01ff 10       		.sleb128 16
 2707 0200 00000000 		.4byte	0x0
 2708 0204 00000000 		.4byte	0x0
 2709              	.LLST14:
 2710 0208 00000000 		.4byte	.LFB81
 2711 020c 02000000 		.4byte	.LCFI20
 2712 0210 0200     		.2byte	0x2
 2713 0212 7D       		.byte	0x7d
 2714 0213 00       		.sleb128 0
 2715 0214 02000000 		.4byte	.LCFI20
 2716 0218 7A000000 		.4byte	.LFE81
 2717 021c 0200     		.2byte	0x2
 2718 021e 7D       		.byte	0x7d
 2719 021f 08       		.sleb128 8
 2720 0220 00000000 		.4byte	0x0
 2721 0224 00000000 		.4byte	0x0
 2722              	.LLST15:
 2723 0228 00000000 		.4byte	.LFB82
ARM GAS  C:\Users\z80\AppData\Local\Temp\ccJfsMfL.s 			page 50


 2724 022c 02000000 		.4byte	.LCFI21
 2725 0230 0200     		.2byte	0x2
 2726 0232 7D       		.byte	0x7d
 2727 0233 00       		.sleb128 0
 2728 0234 02000000 		.4byte	.LCFI21
 2729 0238 04000000 		.4byte	.LCFI22
 2730 023c 0200     		.2byte	0x2
 2731 023e 7D       		.byte	0x7d
 2732 023f 04       		.sleb128 4
 2733 0240 04000000 		.4byte	.LCFI22
 2734 0244 58010000 		.4byte	.LFE82
 2735 0248 0200     		.2byte	0x2
 2736 024a 7D       		.byte	0x7d
 2737 024b 10       		.sleb128 16
 2738 024c 00000000 		.4byte	0x0
 2739 0250 00000000 		.4byte	0x0
 2740              	.LLST16:
 2741 0254 00000000 		.4byte	.LFB83
 2742 0258 02000000 		.4byte	.LCFI23
 2743 025c 0200     		.2byte	0x2
 2744 025e 7D       		.byte	0x7d
 2745 025f 00       		.sleb128 0
 2746 0260 02000000 		.4byte	.LCFI23
 2747 0264 8C000000 		.4byte	.LFE83
 2748 0268 0200     		.2byte	0x2
 2749 026a 7D       		.byte	0x7d
 2750 026b 08       		.sleb128 8
 2751 026c 00000000 		.4byte	0x0
 2752 0270 00000000 		.4byte	0x0
 2753              	.LLST17:
 2754 0274 00000000 		.4byte	.LFB84
 2755 0278 02000000 		.4byte	.LCFI24
 2756 027c 0200     		.2byte	0x2
 2757 027e 7D       		.byte	0x7d
 2758 027f 00       		.sleb128 0
 2759 0280 02000000 		.4byte	.LCFI24
 2760 0284 04000000 		.4byte	.LCFI25
 2761 0288 0200     		.2byte	0x2
 2762 028a 7D       		.byte	0x7d
 2763 028b 04       		.sleb128 4
 2764 028c 04000000 		.4byte	.LCFI25
 2765 0290 88010000 		.4byte	.LFE84
 2766 0294 0200     		.2byte	0x2
 2767 0296 7D       		.byte	0x7d
 2768 0297 10       		.sleb128 16
 2769 0298 00000000 		.4byte	0x0
 2770 029c 00000000 		.4byte	0x0
 2771              	.LLST18:
 2772 02a0 00000000 		.4byte	.LFB85
 2773 02a4 02000000 		.4byte	.LCFI26
 2774 02a8 0200     		.2byte	0x2
 2775 02aa 7D       		.byte	0x7d
 2776 02ab 00       		.sleb128 0
 2777 02ac 02000000 		.4byte	.LCFI26
 2778 02b0 04000000 		.4byte	.LCFI27
 2779 02b4 0200     		.2byte	0x2
 2780 02b6 7D       		.byte	0x7d
ARM GAS  C:\Users\z80\AppData\Local\Temp\ccJfsMfL.s 			page 51


 2781 02b7 04       		.sleb128 4
 2782 02b8 04000000 		.4byte	.LCFI27
 2783 02bc 52010000 		.4byte	.LFE85
 2784 02c0 0200     		.2byte	0x2
 2785 02c2 7D       		.byte	0x7d
 2786 02c3 20       		.sleb128 32
 2787 02c4 00000000 		.4byte	0x0
 2788 02c8 00000000 		.4byte	0x0
 2789              	.LLST19:
 2790 02cc 00000000 		.4byte	.LFB88
 2791 02d0 02000000 		.4byte	.LCFI28
 2792 02d4 0200     		.2byte	0x2
 2793 02d6 7D       		.byte	0x7d
 2794 02d7 00       		.sleb128 0
 2795 02d8 02000000 		.4byte	.LCFI28
 2796 02dc 04000000 		.4byte	.LCFI29
 2797 02e0 0200     		.2byte	0x2
 2798 02e2 7D       		.byte	0x7d
 2799 02e3 04       		.sleb128 4
 2800 02e4 04000000 		.4byte	.LCFI29
 2801 02e8 02030000 		.4byte	.LFE88
 2802 02ec 0200     		.2byte	0x2
 2803 02ee 7D       		.byte	0x7d
 2804 02ef 20       		.sleb128 32
 2805 02f0 00000000 		.4byte	0x0
 2806 02f4 00000000 		.4byte	0x0
 2807              	.LLST20:
 2808 02f8 00000000 		.4byte	.LFB89
 2809 02fc 02000000 		.4byte	.LCFI30
 2810 0300 0200     		.2byte	0x2
 2811 0302 7D       		.byte	0x7d
 2812 0303 00       		.sleb128 0
 2813 0304 02000000 		.4byte	.LCFI30
 2814 0308 04000000 		.4byte	.LCFI31
 2815 030c 0200     		.2byte	0x2
 2816 030e 7D       		.byte	0x7d
 2817 030f 04       		.sleb128 4
 2818 0310 04000000 		.4byte	.LCFI31
 2819 0314 1E020000 		.4byte	.LFE89
 2820 0318 0200     		.2byte	0x2
 2821 031a 7D       		.byte	0x7d
 2822 031b 20       		.sleb128 32
 2823 031c 00000000 		.4byte	0x0
 2824 0320 00000000 		.4byte	0x0
 2825              		.file 2 "c:\\programs\\yagarto\\bin\\../lib/gcc/arm-none-eabi/4.5.0/include/stddef.h"
 2826              		.file 3 "c:/programs/yagarto/lib/gcc/../../arm-none-eabi/sys-include/stdint.h"
 2827              		.file 4 "../chibios_2.4.x/os/ports/GCC/ARMCMx/chtypes.h"
 2828              		.file 5 "../chibios_2.4.x/os/kernel/include/chlists.h"
 2829              		.file 6 "../chibios_2.4.x/os/kernel/include/chthreads.h"
 2830              		.file 7 "../chibios_2.4.x/os/ports/GCC/ARMCMx/chcore_v7m.h"
 2831              		.file 8 "../chibios_2.4.x/os/kernel/include/chmtx.h"
 2832              		.file 9 "../chibios_2.4.x/os/kernel/include/chqueues.h"
 2833              		.file 10 "../chibios_2.4.x/os/hal/platforms/STM32F1xx/stm32f10x.h"
 2834              		.file 11 "../chibios_2.4.x/os/hal/platforms/STM32F1xx/stm32_dma.h"
 2835              		.file 12 "../chibios_2.4.x/os/hal/platforms/STM32/GPIOv1/pal_lld.h"
 2836              		.file 13 "../chibios_2.4.x/os/hal/include/adc.h"
 2837              		.file 14 "../chibios_2.4.x/os/hal/platforms/STM32F1xx/adc_lld.h"
ARM GAS  C:\Users\z80\AppData\Local\Temp\ccJfsMfL.s 			page 52


 2838              		.file 15 "./src/dac.h"
 2839              		.file 16 "../chibios_2.4.x/os/ports/common/ARMCMx/CMSIS/include/core_cm3.h"
 2840              		.section	.debug_info
 2841 0000 9E150000 		.4byte	0x159e
 2842 0004 0200     		.2byte	0x2
 2843 0006 00000000 		.4byte	.Ldebug_abbrev0
 2844 000a 04       		.byte	0x4
 2845 000b 01       		.uleb128 0x1
 2846 000c 81060000 		.4byte	.LASF228
 2847 0010 01       		.byte	0x1
 2848 0011 60030000 		.4byte	.LASF229
 2849 0015 85030000 		.4byte	.LASF230
 2850 0019 00000000 		.4byte	0x0
 2851 001d 00000000 		.4byte	0x0
 2852 0021 00000000 		.4byte	.Ldebug_ranges0+0x0
 2853 0025 00000000 		.4byte	.Ldebug_line0
 2854 0029 02       		.uleb128 0x2
 2855 002a 04       		.byte	0x4
 2856 002b 05       		.byte	0x5
 2857 002c 696E7400 		.ascii	"int\000"
 2858 0030 03       		.uleb128 0x3
 2859 0031 07000000 		.4byte	.LASF1
 2860 0035 02       		.byte	0x2
 2861 0036 D3       		.byte	0xd3
 2862 0037 3B000000 		.4byte	0x3b
 2863 003b 04       		.uleb128 0x4
 2864 003c 04       		.byte	0x4
 2865 003d 07       		.byte	0x7
 2866 003e 92050000 		.4byte	.LASF0
 2867 0042 03       		.uleb128 0x3
 2868 0043 00000000 		.4byte	.LASF2
 2869 0047 03       		.byte	0x3
 2870 0048 29       		.byte	0x29
 2871 0049 4D000000 		.4byte	0x4d
 2872 004d 04       		.uleb128 0x4
 2873 004e 01       		.byte	0x1
 2874 004f 06       		.byte	0x6
 2875 0050 7C010000 		.4byte	.LASF3
 2876 0054 03       		.uleb128 0x3
 2877 0055 8F010000 		.4byte	.LASF4
 2878 0059 03       		.byte	0x3
 2879 005a 2A       		.byte	0x2a
 2880 005b 5F000000 		.4byte	0x5f
 2881 005f 04       		.uleb128 0x4
 2882 0060 01       		.byte	0x1
 2883 0061 08       		.byte	0x8
 2884 0062 C6010000 		.4byte	.LASF5
 2885 0066 04       		.uleb128 0x4
 2886 0067 02       		.byte	0x2
 2887 0068 05       		.byte	0x5
 2888 0069 35070000 		.4byte	.LASF6
 2889 006d 03       		.uleb128 0x3
 2890 006e AC060000 		.4byte	.LASF7
 2891 0072 03       		.byte	0x3
 2892 0073 36       		.byte	0x36
 2893 0074 78000000 		.4byte	0x78
 2894 0078 04       		.uleb128 0x4
ARM GAS  C:\Users\z80\AppData\Local\Temp\ccJfsMfL.s 			page 53


 2895 0079 02       		.byte	0x2
 2896 007a 07       		.byte	0x7
 2897 007b 6A080000 		.4byte	.LASF8
 2898 007f 03       		.uleb128 0x3
 2899 0080 72000000 		.4byte	.LASF9
 2900 0084 03       		.byte	0x3
 2901 0085 4F       		.byte	0x4f
 2902 0086 8A000000 		.4byte	0x8a
 2903 008a 04       		.uleb128 0x4
 2904 008b 04       		.byte	0x4
 2905 008c 05       		.byte	0x5
 2906 008d 11010000 		.4byte	.LASF10
 2907 0091 03       		.uleb128 0x3
 2908 0092 1B080000 		.4byte	.LASF11
 2909 0096 03       		.byte	0x3
 2910 0097 50       		.byte	0x50
 2911 0098 9C000000 		.4byte	0x9c
 2912 009c 04       		.uleb128 0x4
 2913 009d 04       		.byte	0x4
 2914 009e 07       		.byte	0x7
 2915 009f C7030000 		.4byte	.LASF12
 2916 00a3 04       		.uleb128 0x4
 2917 00a4 08       		.byte	0x8
 2918 00a5 05       		.byte	0x5
 2919 00a6 A7040000 		.4byte	.LASF13
 2920 00aa 03       		.uleb128 0x3
 2921 00ab 3F070000 		.4byte	.LASF14
 2922 00af 03       		.byte	0x3
 2923 00b0 78       		.byte	0x78
 2924 00b1 B5000000 		.4byte	0xb5
 2925 00b5 04       		.uleb128 0x4
 2926 00b6 08       		.byte	0x8
 2927 00b7 07       		.byte	0x7
 2928 00b8 8D060000 		.4byte	.LASF15
 2929 00bc 03       		.uleb128 0x3
 2930 00bd 76070000 		.4byte	.LASF16
 2931 00c1 04       		.byte	0x4
 2932 00c2 2E       		.byte	0x2e
 2933 00c3 7F000000 		.4byte	0x7f
 2934 00c7 03       		.uleb128 0x3
 2935 00c8 05070000 		.4byte	.LASF17
 2936 00cc 04       		.byte	0x4
 2937 00cd 2F       		.byte	0x2f
 2938 00ce 54000000 		.4byte	0x54
 2939 00d2 03       		.uleb128 0x3
 2940 00d3 3F010000 		.4byte	.LASF18
 2941 00d7 04       		.byte	0x4
 2942 00d8 30       		.byte	0x30
 2943 00d9 54000000 		.4byte	0x54
 2944 00dd 03       		.uleb128 0x3
 2945 00de 2D000000 		.4byte	.LASF19
 2946 00e2 04       		.byte	0x4
 2947 00e3 32       		.byte	0x32
 2948 00e4 91000000 		.4byte	0x91
 2949 00e8 03       		.uleb128 0x3
 2950 00e9 B5060000 		.4byte	.LASF20
 2951 00ed 04       		.byte	0x4
ARM GAS  C:\Users\z80\AppData\Local\Temp\ccJfsMfL.s 			page 54


 2952 00ee 33       		.byte	0x33
 2953 00ef 7F000000 		.4byte	0x7f
 2954 00f3 03       		.uleb128 0x3
 2955 00f4 A6010000 		.4byte	.LASF21
 2956 00f8 04       		.byte	0x4
 2957 00f9 35       		.byte	0x35
 2958 00fa 91000000 		.4byte	0x91
 2959 00fe 03       		.uleb128 0x3
 2960 00ff 1D000000 		.4byte	.LASF22
 2961 0103 04       		.byte	0x4
 2962 0104 36       		.byte	0x36
 2963 0105 91000000 		.4byte	0x91
 2964 0109 03       		.uleb128 0x3
 2965 010a AB070000 		.4byte	.LASF23
 2966 010e 05       		.byte	0x5
 2967 010f 2A       		.byte	0x2a
 2968 0110 14010000 		.4byte	0x114
 2969 0114 05       		.uleb128 0x5
 2970 0115 AB070000 		.4byte	.LASF23
 2971 0119 48       		.byte	0x48
 2972 011a 06       		.byte	0x6
 2973 011b 5E       		.byte	0x5e
 2974 011c 1D020000 		.4byte	0x21d
 2975 0120 06       		.uleb128 0x6
 2976 0121 1A010000 		.4byte	.LASF24
 2977 0125 06       		.byte	0x6
 2978 0126 5F       		.byte	0x5f
 2979 0127 42020000 		.4byte	0x242
 2980 012b 02       		.byte	0x2
 2981 012c 23       		.byte	0x23
 2982 012d 00       		.uleb128 0x0
 2983 012e 06       		.uleb128 0x6
 2984 012f 2F010000 		.4byte	.LASF25
 2985 0133 06       		.byte	0x6
 2986 0134 61       		.byte	0x61
 2987 0135 42020000 		.4byte	0x242
 2988 0139 02       		.byte	0x2
 2989 013a 23       		.byte	0x23
 2990 013b 04       		.uleb128 0x4
 2991 013c 06       		.uleb128 0x6
 2992 013d 54020000 		.4byte	.LASF26
 2993 0141 06       		.byte	0x6
 2994 0142 63       		.byte	0x63
 2995 0143 DD000000 		.4byte	0xdd
 2996 0147 02       		.byte	0x2
 2997 0148 23       		.byte	0x23
 2998 0149 08       		.uleb128 0x8
 2999 014a 06       		.uleb128 0x6
 3000 014b 27000000 		.4byte	.LASF27
 3001 014f 06       		.byte	0x6
 3002 0150 64       		.byte	0x64
 3003 0151 1A030000 		.4byte	0x31a
 3004 0155 02       		.byte	0x2
 3005 0156 23       		.byte	0x23
 3006 0157 0C       		.uleb128 0xc
 3007 0158 06       		.uleb128 0x6
 3008 0159 09010000 		.4byte	.LASF28
ARM GAS  C:\Users\z80\AppData\Local\Temp\ccJfsMfL.s 			page 55


 3009 015d 06       		.byte	0x6
 3010 015e 66       		.byte	0x66
 3011 015f 42020000 		.4byte	0x242
 3012 0163 02       		.byte	0x2
 3013 0164 23       		.byte	0x23
 3014 0165 10       		.uleb128 0x10
 3015 0166 06       		.uleb128 0x6
 3016 0167 A4060000 		.4byte	.LASF29
 3017 016b 06       		.byte	0x6
 3018 016c 67       		.byte	0x67
 3019 016d 42020000 		.4byte	0x242
 3020 0171 02       		.byte	0x2
 3021 0172 23       		.byte	0x23
 3022 0173 14       		.uleb128 0x14
 3023 0174 06       		.uleb128 0x6
 3024 0175 BD080000 		.4byte	.LASF30
 3025 0179 06       		.byte	0x6
 3026 017a 6E       		.byte	0x6e
 3027 017b C7030000 		.4byte	0x3c7
 3028 017f 02       		.byte	0x2
 3029 0180 23       		.byte	0x23
 3030 0181 18       		.uleb128 0x18
 3031 0182 06       		.uleb128 0x6
 3032 0183 9E080000 		.4byte	.LASF31
 3033 0187 06       		.byte	0x6
 3034 0188 74       		.byte	0x74
 3035 0189 D9030000 		.4byte	0x3d9
 3036 018d 02       		.byte	0x2
 3037 018e 23       		.byte	0x23
 3038 018f 1C       		.uleb128 0x1c
 3039 0190 06       		.uleb128 0x6
 3040 0191 E7080000 		.4byte	.LASF32
 3041 0195 06       		.byte	0x6
 3042 0196 79       		.byte	0x79
 3043 0197 D2000000 		.4byte	0xd2
 3044 019b 02       		.byte	0x2
 3045 019c 23       		.byte	0x23
 3046 019d 20       		.uleb128 0x20
 3047 019e 06       		.uleb128 0x6
 3048 019f 6F050000 		.4byte	.LASF33
 3049 01a3 06       		.byte	0x6
 3050 01a4 7D       		.byte	0x7d
 3051 01a5 C7000000 		.4byte	0xc7
 3052 01a9 02       		.byte	0x2
 3053 01aa 23       		.byte	0x23
 3054 01ab 21       		.uleb128 0x21
 3055 01ac 06       		.uleb128 0x6
 3056 01ad 07060000 		.4byte	.LASF34
 3057 01b1 06       		.byte	0x6
 3058 01b2 89       		.byte	0x89
 3059 01b3 45030000 		.4byte	0x345
 3060 01b7 02       		.byte	0x2
 3061 01b8 23       		.byte	0x23
 3062 01b9 24       		.uleb128 0x24
 3063 01ba 07       		.uleb128 0x7
 3064 01bb 705F7500 		.ascii	"p_u\000"
 3065 01bf 06       		.byte	0x6
ARM GAS  C:\Users\z80\AppData\Local\Temp\ccJfsMfL.s 			page 56


 3066 01c0 AE       		.byte	0xae
 3067 01c1 92030000 		.4byte	0x392
 3068 01c5 02       		.byte	0x2
 3069 01c6 23       		.byte	0x23
 3070 01c7 28       		.uleb128 0x28
 3071 01c8 06       		.uleb128 0x6
 3072 01c9 65050000 		.4byte	.LASF35
 3073 01cd 06       		.byte	0x6
 3074 01ce B3       		.byte	0xb3
 3075 01cf 6A020000 		.4byte	0x26a
 3076 01d3 02       		.byte	0x2
 3077 01d4 23       		.byte	0x23
 3078 01d5 2C       		.uleb128 0x2c
 3079 01d6 06       		.uleb128 0x6
 3080 01d7 52000000 		.4byte	.LASF36
 3081 01db 06       		.byte	0x6
 3082 01dc B9       		.byte	0xb9
 3083 01dd 48020000 		.4byte	0x248
 3084 01e1 02       		.byte	0x2
 3085 01e2 23       		.byte	0x23
 3086 01e3 30       		.uleb128 0x30
 3087 01e4 06       		.uleb128 0x6
 3088 01e5 CB080000 		.4byte	.LASF37
 3089 01e9 06       		.byte	0x6
 3090 01ea BD       		.byte	0xbd
 3091 01eb E8000000 		.4byte	0xe8
 3092 01ef 02       		.byte	0x2
 3093 01f0 23       		.byte	0x23
 3094 01f1 38       		.uleb128 0x38
 3095 01f2 06       		.uleb128 0x6
 3096 01f3 55030000 		.4byte	.LASF38
 3097 01f7 06       		.byte	0x6
 3098 01f8 C3       		.byte	0xc3
 3099 01f9 F3000000 		.4byte	0xf3
 3100 01fd 02       		.byte	0x2
 3101 01fe 23       		.byte	0x23
 3102 01ff 3C       		.uleb128 0x3c
 3103 0200 06       		.uleb128 0x6
 3104 0201 64010000 		.4byte	.LASF39
 3105 0205 06       		.byte	0x6
 3106 0206 CA       		.byte	0xca
 3107 0207 DF030000 		.4byte	0x3df
 3108 020b 02       		.byte	0x2
 3109 020c 23       		.byte	0x23
 3110 020d 40       		.uleb128 0x40
 3111 020e 06       		.uleb128 0x6
 3112 020f 27060000 		.4byte	.LASF40
 3113 0213 06       		.byte	0x6
 3114 0214 CE       		.byte	0xce
 3115 0215 DD000000 		.4byte	0xdd
 3116 0219 02       		.byte	0x2
 3117 021a 23       		.byte	0x23
 3118 021b 44       		.uleb128 0x44
 3119 021c 00       		.byte	0x0
 3120 021d 08       		.uleb128 0x8
 3121 021e 08       		.byte	0x8
 3122 021f 05       		.byte	0x5
ARM GAS  C:\Users\z80\AppData\Local\Temp\ccJfsMfL.s 			page 57


 3123 0220 61       		.byte	0x61
 3124 0221 42020000 		.4byte	0x242
 3125 0225 06       		.uleb128 0x6
 3126 0226 1A010000 		.4byte	.LASF24
 3127 022a 05       		.byte	0x5
 3128 022b 62       		.byte	0x62
 3129 022c 42020000 		.4byte	0x242
 3130 0230 02       		.byte	0x2
 3131 0231 23       		.byte	0x23
 3132 0232 00       		.uleb128 0x0
 3133 0233 06       		.uleb128 0x6
 3134 0234 2F010000 		.4byte	.LASF25
 3135 0238 05       		.byte	0x5
 3136 0239 64       		.byte	0x64
 3137 023a 42020000 		.4byte	0x242
 3138 023e 02       		.byte	0x2
 3139 023f 23       		.byte	0x23
 3140 0240 04       		.uleb128 0x4
 3141 0241 00       		.byte	0x0
 3142 0242 09       		.uleb128 0x9
 3143 0243 04       		.byte	0x4
 3144 0244 09010000 		.4byte	0x109
 3145 0248 03       		.uleb128 0x3
 3146 0249 3E080000 		.4byte	.LASF41
 3147 024d 05       		.byte	0x5
 3148 024e 66       		.byte	0x66
 3149 024f 1D020000 		.4byte	0x21d
 3150 0253 08       		.uleb128 0x8
 3151 0254 04       		.byte	0x4
 3152 0255 05       		.byte	0x5
 3153 0256 6B       		.byte	0x6b
 3154 0257 6A020000 		.4byte	0x26a
 3155 025b 06       		.uleb128 0x6
 3156 025c 1A010000 		.4byte	.LASF24
 3157 0260 05       		.byte	0x5
 3158 0261 6D       		.byte	0x6d
 3159 0262 42020000 		.4byte	0x242
 3160 0266 02       		.byte	0x2
 3161 0267 23       		.byte	0x23
 3162 0268 00       		.uleb128 0x0
 3163 0269 00       		.byte	0x0
 3164 026a 03       		.uleb128 0x3
 3165 026b DB050000 		.4byte	.LASF42
 3166 026f 05       		.byte	0x5
 3167 0270 70       		.byte	0x70
 3168 0271 53020000 		.4byte	0x253
 3169 0275 03       		.uleb128 0x3
 3170 0276 6E010000 		.4byte	.LASF43
 3171 027a 07       		.byte	0x7
 3172 027b D7       		.byte	0xd7
 3173 027c 80020000 		.4byte	0x280
 3174 0280 0A       		.uleb128 0xa
 3175 0281 04       		.byte	0x4
 3176 0282 03       		.uleb128 0x3
 3177 0283 8A020000 		.4byte	.LASF44
 3178 0287 07       		.byte	0x7
 3179 0288 DD       		.byte	0xdd
ARM GAS  C:\Users\z80\AppData\Local\Temp\ccJfsMfL.s 			page 58


 3180 0289 AA000000 		.4byte	0xaa
 3181 028d 05       		.uleb128 0x5
 3182 028e 4E030000 		.4byte	.LASF45
 3183 0292 24       		.byte	0x24
 3184 0293 07       		.byte	0x7
 3185 0294 FE       		.byte	0xfe
 3186 0295 1A030000 		.4byte	0x31a
 3187 0299 0B       		.uleb128 0xb
 3188 029a 723400   		.ascii	"r4\000"
 3189 029d 07       		.byte	0x7
 3190 029e 1101     		.2byte	0x111
 3191 02a0 75020000 		.4byte	0x275
 3192 02a4 02       		.byte	0x2
 3193 02a5 23       		.byte	0x23
 3194 02a6 00       		.uleb128 0x0
 3195 02a7 0B       		.uleb128 0xb
 3196 02a8 723500   		.ascii	"r5\000"
 3197 02ab 07       		.byte	0x7
 3198 02ac 1201     		.2byte	0x112
 3199 02ae 75020000 		.4byte	0x275
 3200 02b2 02       		.byte	0x2
 3201 02b3 23       		.byte	0x23
 3202 02b4 04       		.uleb128 0x4
 3203 02b5 0B       		.uleb128 0xb
 3204 02b6 723600   		.ascii	"r6\000"
 3205 02b9 07       		.byte	0x7
 3206 02ba 1301     		.2byte	0x113
 3207 02bc 75020000 		.4byte	0x275
 3208 02c0 02       		.byte	0x2
 3209 02c1 23       		.byte	0x23
 3210 02c2 08       		.uleb128 0x8
 3211 02c3 0B       		.uleb128 0xb
 3212 02c4 723700   		.ascii	"r7\000"
 3213 02c7 07       		.byte	0x7
 3214 02c8 1401     		.2byte	0x114
 3215 02ca 75020000 		.4byte	0x275
 3216 02ce 02       		.byte	0x2
 3217 02cf 23       		.byte	0x23
 3218 02d0 0C       		.uleb128 0xc
 3219 02d1 0B       		.uleb128 0xb
 3220 02d2 723800   		.ascii	"r8\000"
 3221 02d5 07       		.byte	0x7
 3222 02d6 1501     		.2byte	0x115
 3223 02d8 75020000 		.4byte	0x275
 3224 02dc 02       		.byte	0x2
 3225 02dd 23       		.byte	0x23
 3226 02de 10       		.uleb128 0x10
 3227 02df 0B       		.uleb128 0xb
 3228 02e0 723900   		.ascii	"r9\000"
 3229 02e3 07       		.byte	0x7
 3230 02e4 1601     		.2byte	0x116
 3231 02e6 75020000 		.4byte	0x275
 3232 02ea 02       		.byte	0x2
 3233 02eb 23       		.byte	0x23
 3234 02ec 14       		.uleb128 0x14
 3235 02ed 0B       		.uleb128 0xb
 3236 02ee 72313000 		.ascii	"r10\000"
ARM GAS  C:\Users\z80\AppData\Local\Temp\ccJfsMfL.s 			page 59


 3237 02f2 07       		.byte	0x7
 3238 02f3 1701     		.2byte	0x117
 3239 02f5 75020000 		.4byte	0x275
 3240 02f9 02       		.byte	0x2
 3241 02fa 23       		.byte	0x23
 3242 02fb 18       		.uleb128 0x18
 3243 02fc 0B       		.uleb128 0xb
 3244 02fd 72313100 		.ascii	"r11\000"
 3245 0301 07       		.byte	0x7
 3246 0302 1801     		.2byte	0x118
 3247 0304 75020000 		.4byte	0x275
 3248 0308 02       		.byte	0x2
 3249 0309 23       		.byte	0x23
 3250 030a 1C       		.uleb128 0x1c
 3251 030b 0B       		.uleb128 0xb
 3252 030c 6C7200   		.ascii	"lr\000"
 3253 030f 07       		.byte	0x7
 3254 0310 1901     		.2byte	0x119
 3255 0312 75020000 		.4byte	0x275
 3256 0316 02       		.byte	0x2
 3257 0317 23       		.byte	0x23
 3258 0318 20       		.uleb128 0x20
 3259 0319 00       		.byte	0x0
 3260 031a 0C       		.uleb128 0xc
 3261 031b BE010000 		.4byte	.LASF46
 3262 031f 04       		.byte	0x4
 3263 0320 07       		.byte	0x7
 3264 0321 2301     		.2byte	0x123
 3265 0323 37030000 		.4byte	0x337
 3266 0327 0B       		.uleb128 0xb
 3267 0328 72313300 		.ascii	"r13\000"
 3268 032c 07       		.byte	0x7
 3269 032d 2401     		.2byte	0x124
 3270 032f 37030000 		.4byte	0x337
 3271 0333 02       		.byte	0x2
 3272 0334 23       		.byte	0x23
 3273 0335 00       		.uleb128 0x0
 3274 0336 00       		.byte	0x0
 3275 0337 09       		.uleb128 0x9
 3276 0338 04       		.byte	0x4
 3277 0339 8D020000 		.4byte	0x28d
 3278 033d 0D       		.uleb128 0xd
 3279 033e 91000000 		.4byte	0x91
 3280 0342 0E       		.uleb128 0xe
 3281 0343 04       		.byte	0x4
 3282 0344 07       		.byte	0x7
 3283 0345 0D       		.uleb128 0xd
 3284 0346 FE000000 		.4byte	0xfe
 3285 034a 05       		.uleb128 0x5
 3286 034b A1040000 		.4byte	.LASF47
 3287 034f 10       		.byte	0x10
 3288 0350 08       		.byte	0x8
 3289 0351 2C       		.byte	0x2c
 3290 0352 81030000 		.4byte	0x381
 3291 0356 06       		.uleb128 0x6
 3292 0357 C2040000 		.4byte	.LASF48
 3293 035b 08       		.byte	0x8
ARM GAS  C:\Users\z80\AppData\Local\Temp\ccJfsMfL.s 			page 60


 3294 035c 2D       		.byte	0x2d
 3295 035d 48020000 		.4byte	0x248
 3296 0361 02       		.byte	0x2
 3297 0362 23       		.byte	0x23
 3298 0363 00       		.uleb128 0x0
 3299 0364 06       		.uleb128 0x6
 3300 0365 CE000000 		.4byte	.LASF49
 3301 0369 08       		.byte	0x8
 3302 036a 2F       		.byte	0x2f
 3303 036b 42020000 		.4byte	0x242
 3304 036f 02       		.byte	0x2
 3305 0370 23       		.byte	0x23
 3306 0371 08       		.uleb128 0x8
 3307 0372 06       		.uleb128 0x6
 3308 0373 C4080000 		.4byte	.LASF50
 3309 0377 08       		.byte	0x8
 3310 0378 31       		.byte	0x31
 3311 0379 81030000 		.4byte	0x381
 3312 037d 02       		.byte	0x2
 3313 037e 23       		.byte	0x23
 3314 037f 0C       		.uleb128 0xc
 3315 0380 00       		.byte	0x0
 3316 0381 09       		.uleb128 0x9
 3317 0382 04       		.byte	0x4
 3318 0383 4A030000 		.4byte	0x34a
 3319 0387 03       		.uleb128 0x3
 3320 0388 A1040000 		.4byte	.LASF47
 3321 038c 08       		.byte	0x8
 3322 038d 33       		.byte	0x33
 3323 038e 4A030000 		.4byte	0x34a
 3324 0392 0F       		.uleb128 0xf
 3325 0393 04       		.byte	0x4
 3326 0394 06       		.byte	0x6
 3327 0395 90       		.byte	0x90
 3328 0396 C7030000 		.4byte	0x3c7
 3329 039a 10       		.uleb128 0x10
 3330 039b 63080000 		.4byte	.LASF51
 3331 039f 06       		.byte	0x6
 3332 03a0 97       		.byte	0x97
 3333 03a1 E8000000 		.4byte	0xe8
 3334 03a5 10       		.uleb128 0x10
 3335 03a6 E2000000 		.4byte	.LASF52
 3336 03aa 06       		.byte	0x6
 3337 03ab 9E       		.byte	0x9e
 3338 03ac E8000000 		.4byte	0xe8
 3339 03b0 10       		.uleb128 0x10
 3340 03b1 79020000 		.4byte	.LASF53
 3341 03b5 06       		.byte	0x6
 3342 03b6 A5       		.byte	0xa5
 3343 03b7 80020000 		.4byte	0x280
 3344 03bb 10       		.uleb128 0x10
 3345 03bc 88010000 		.4byte	.LASF54
 3346 03c0 06       		.byte	0x6
 3347 03c1 AC       		.byte	0xac
 3348 03c2 F3000000 		.4byte	0xf3
 3349 03c6 00       		.byte	0x0
 3350 03c7 09       		.uleb128 0x9
ARM GAS  C:\Users\z80\AppData\Local\Temp\ccJfsMfL.s 			page 61


 3351 03c8 04       		.byte	0x4
 3352 03c9 CD030000 		.4byte	0x3cd
 3353 03cd 11       		.uleb128 0x11
 3354 03ce D2030000 		.4byte	0x3d2
 3355 03d2 04       		.uleb128 0x4
 3356 03d3 01       		.byte	0x1
 3357 03d4 08       		.byte	0x8
 3358 03d5 48020000 		.4byte	.LASF55
 3359 03d9 09       		.uleb128 0x9
 3360 03da 04       		.byte	0x4
 3361 03db 82020000 		.4byte	0x282
 3362 03df 09       		.uleb128 0x9
 3363 03e0 04       		.byte	0x4
 3364 03e1 87030000 		.4byte	0x387
 3365 03e5 03       		.uleb128 0x3
 3366 03e6 61020000 		.4byte	.LASF56
 3367 03ea 09       		.byte	0x9
 3368 03eb 37       		.byte	0x37
 3369 03ec F0030000 		.4byte	0x3f0
 3370 03f0 05       		.uleb128 0x5
 3371 03f1 61020000 		.4byte	.LASF56
 3372 03f5 20       		.byte	0x20
 3373 03f6 09       		.byte	0x9
 3374 03f7 45       		.byte	0x45
 3375 03f8 5F040000 		.4byte	0x45f
 3376 03fc 06       		.uleb128 0x6
 3377 03fd FB060000 		.4byte	.LASF57
 3378 0401 09       		.byte	0x9
 3379 0402 46       		.byte	0x46
 3380 0403 48020000 		.4byte	0x248
 3381 0407 02       		.byte	0x2
 3382 0408 23       		.byte	0x23
 3383 0409 00       		.uleb128 0x0
 3384 040a 06       		.uleb128 0x6
 3385 040b B0030000 		.4byte	.LASF58
 3386 040f 09       		.byte	0x9
 3387 0410 47       		.byte	0x47
 3388 0411 30000000 		.4byte	0x30
 3389 0415 02       		.byte	0x2
 3390 0416 23       		.byte	0x23
 3391 0417 08       		.uleb128 0x8
 3392 0418 06       		.uleb128 0x6
 3393 0419 F7000000 		.4byte	.LASF59
 3394 041d 09       		.byte	0x9
 3395 041e 48       		.byte	0x48
 3396 041f 82040000 		.4byte	0x482
 3397 0423 02       		.byte	0x2
 3398 0424 23       		.byte	0x23
 3399 0425 0C       		.uleb128 0xc
 3400 0426 06       		.uleb128 0x6
 3401 0427 EB000000 		.4byte	.LASF60
 3402 042b 09       		.byte	0x9
 3403 042c 49       		.byte	0x49
 3404 042d 82040000 		.4byte	0x482
 3405 0431 02       		.byte	0x2
 3406 0432 23       		.byte	0x23
 3407 0433 10       		.uleb128 0x10
ARM GAS  C:\Users\z80\AppData\Local\Temp\ccJfsMfL.s 			page 62


 3408 0434 06       		.uleb128 0x6
 3409 0435 15040000 		.4byte	.LASF61
 3410 0439 09       		.byte	0x9
 3411 043a 4B       		.byte	0x4b
 3412 043b 82040000 		.4byte	0x482
 3413 043f 02       		.byte	0x2
 3414 0440 23       		.byte	0x23
 3415 0441 14       		.uleb128 0x14
 3416 0442 06       		.uleb128 0x6
 3417 0443 21010000 		.4byte	.LASF62
 3418 0447 09       		.byte	0x9
 3419 0448 4C       		.byte	0x4c
 3420 0449 82040000 		.4byte	0x482
 3421 044d 02       		.byte	0x2
 3422 044e 23       		.byte	0x23
 3423 044f 18       		.uleb128 0x18
 3424 0450 06       		.uleb128 0x6
 3425 0451 00010000 		.4byte	.LASF63
 3426 0455 09       		.byte	0x9
 3427 0456 4D       		.byte	0x4d
 3428 0457 5F040000 		.4byte	0x45f
 3429 045b 02       		.byte	0x2
 3430 045c 23       		.byte	0x23
 3431 045d 1C       		.uleb128 0x1c
 3432 045e 00       		.byte	0x0
 3433 045f 03       		.uleb128 0x3
 3434 0460 5B050000 		.4byte	.LASF64
 3435 0464 09       		.byte	0x9
 3436 0465 3A       		.byte	0x3a
 3437 0466 6A040000 		.4byte	0x46a
 3438 046a 09       		.uleb128 0x9
 3439 046b 04       		.byte	0x4
 3440 046c 70040000 		.4byte	0x470
 3441 0470 12       		.uleb128 0x12
 3442 0471 01       		.byte	0x1
 3443 0472 7C040000 		.4byte	0x47c
 3444 0476 13       		.uleb128 0x13
 3445 0477 7C040000 		.4byte	0x47c
 3446 047b 00       		.byte	0x0
 3447 047c 09       		.uleb128 0x9
 3448 047d 04       		.byte	0x4
 3449 047e E5030000 		.4byte	0x3e5
 3450 0482 09       		.uleb128 0x9
 3451 0483 04       		.byte	0x4
 3452 0484 54000000 		.4byte	0x54
 3453 0488 03       		.uleb128 0x3
 3454 0489 87080000 		.4byte	.LASF65
 3455 048d 09       		.byte	0x9
 3456 048e 76       		.byte	0x76
 3457 048f E5030000 		.4byte	0x3e5
 3458 0493 03       		.uleb128 0x3
 3459 0494 95020000 		.4byte	.LASF66
 3460 0498 09       		.byte	0x9
 3461 0499 E6       		.byte	0xe6
 3462 049a E5030000 		.4byte	0x3e5
 3463 049e 0D       		.uleb128 0xd
 3464 049f 7F000000 		.4byte	0x7f
ARM GAS  C:\Users\z80\AppData\Local\Temp\ccJfsMfL.s 			page 63


 3465 04a3 14       		.uleb128 0x14
 3466 04a4 50       		.byte	0x50
 3467 04a5 0A       		.byte	0xa
 3468 04a6 2D02     		.2byte	0x22d
 3469 04a8 D7050000 		.4byte	0x5d7
 3470 04ac 0B       		.uleb128 0xb
 3471 04ad 535200   		.ascii	"SR\000"
 3472 04b0 0A       		.byte	0xa
 3473 04b1 2F02     		.2byte	0x22f
 3474 04b3 3D030000 		.4byte	0x33d
 3475 04b7 02       		.byte	0x2
 3476 04b8 23       		.byte	0x23
 3477 04b9 00       		.uleb128 0x0
 3478 04ba 0B       		.uleb128 0xb
 3479 04bb 43523100 		.ascii	"CR1\000"
 3480 04bf 0A       		.byte	0xa
 3481 04c0 3002     		.2byte	0x230
 3482 04c2 3D030000 		.4byte	0x33d
 3483 04c6 02       		.byte	0x2
 3484 04c7 23       		.byte	0x23
 3485 04c8 04       		.uleb128 0x4
 3486 04c9 0B       		.uleb128 0xb
 3487 04ca 43523200 		.ascii	"CR2\000"
 3488 04ce 0A       		.byte	0xa
 3489 04cf 3102     		.2byte	0x231
 3490 04d1 3D030000 		.4byte	0x33d
 3491 04d5 02       		.byte	0x2
 3492 04d6 23       		.byte	0x23
 3493 04d7 08       		.uleb128 0x8
 3494 04d8 15       		.uleb128 0x15
 3495 04d9 F6030000 		.4byte	.LASF67
 3496 04dd 0A       		.byte	0xa
 3497 04de 3202     		.2byte	0x232
 3498 04e0 3D030000 		.4byte	0x33d
 3499 04e4 02       		.byte	0x2
 3500 04e5 23       		.byte	0x23
 3501 04e6 0C       		.uleb128 0xc
 3502 04e7 15       		.uleb128 0x15
 3503 04e8 FC030000 		.4byte	.LASF68
 3504 04ec 0A       		.byte	0xa
 3505 04ed 3302     		.2byte	0x233
 3506 04ef 3D030000 		.4byte	0x33d
 3507 04f3 02       		.byte	0x2
 3508 04f4 23       		.byte	0x23
 3509 04f5 10       		.uleb128 0x10
 3510 04f6 15       		.uleb128 0x15
 3511 04f7 5E070000 		.4byte	.LASF69
 3512 04fb 0A       		.byte	0xa
 3513 04fc 3402     		.2byte	0x234
 3514 04fe 3D030000 		.4byte	0x33d
 3515 0502 02       		.byte	0x2
 3516 0503 23       		.byte	0x23
 3517 0504 14       		.uleb128 0x14
 3518 0505 15       		.uleb128 0x15
 3519 0506 64070000 		.4byte	.LASF70
 3520 050a 0A       		.byte	0xa
 3521 050b 3502     		.2byte	0x235
ARM GAS  C:\Users\z80\AppData\Local\Temp\ccJfsMfL.s 			page 64


 3522 050d 3D030000 		.4byte	0x33d
 3523 0511 02       		.byte	0x2
 3524 0512 23       		.byte	0x23
 3525 0513 18       		.uleb128 0x18
 3526 0514 15       		.uleb128 0x15
 3527 0515 6A070000 		.4byte	.LASF71
 3528 0519 0A       		.byte	0xa
 3529 051a 3602     		.2byte	0x236
 3530 051c 3D030000 		.4byte	0x33d
 3531 0520 02       		.byte	0x2
 3532 0521 23       		.byte	0x23
 3533 0522 1C       		.uleb128 0x1c
 3534 0523 15       		.uleb128 0x15
 3535 0524 70070000 		.4byte	.LASF72
 3536 0528 0A       		.byte	0xa
 3537 0529 3702     		.2byte	0x237
 3538 052b 3D030000 		.4byte	0x33d
 3539 052f 02       		.byte	0x2
 3540 0530 23       		.byte	0x23
 3541 0531 20       		.uleb128 0x20
 3542 0532 0B       		.uleb128 0xb
 3543 0533 48545200 		.ascii	"HTR\000"
 3544 0537 0A       		.byte	0xa
 3545 0538 3802     		.2byte	0x238
 3546 053a 3D030000 		.4byte	0x33d
 3547 053e 02       		.byte	0x2
 3548 053f 23       		.byte	0x23
 3549 0540 24       		.uleb128 0x24
 3550 0541 0B       		.uleb128 0xb
 3551 0542 4C545200 		.ascii	"LTR\000"
 3552 0546 0A       		.byte	0xa
 3553 0547 3902     		.2byte	0x239
 3554 0549 3D030000 		.4byte	0x33d
 3555 054d 02       		.byte	0x2
 3556 054e 23       		.byte	0x23
 3557 054f 28       		.uleb128 0x28
 3558 0550 15       		.uleb128 0x15
 3559 0551 43000000 		.4byte	.LASF73
 3560 0555 0A       		.byte	0xa
 3561 0556 3A02     		.2byte	0x23a
 3562 0558 3D030000 		.4byte	0x33d
 3563 055c 02       		.byte	0x2
 3564 055d 23       		.byte	0x23
 3565 055e 2C       		.uleb128 0x2c
 3566 055f 15       		.uleb128 0x15
 3567 0560 48000000 		.4byte	.LASF74
 3568 0564 0A       		.byte	0xa
 3569 0565 3B02     		.2byte	0x23b
 3570 0567 3D030000 		.4byte	0x33d
 3571 056b 02       		.byte	0x2
 3572 056c 23       		.byte	0x23
 3573 056d 30       		.uleb128 0x30
 3574 056e 15       		.uleb128 0x15
 3575 056f 4D000000 		.4byte	.LASF75
 3576 0573 0A       		.byte	0xa
 3577 0574 3C02     		.2byte	0x23c
 3578 0576 3D030000 		.4byte	0x33d
ARM GAS  C:\Users\z80\AppData\Local\Temp\ccJfsMfL.s 			page 65


 3579 057a 02       		.byte	0x2
 3580 057b 23       		.byte	0x23
 3581 057c 34       		.uleb128 0x34
 3582 057d 15       		.uleb128 0x15
 3583 057e CB070000 		.4byte	.LASF76
 3584 0582 0A       		.byte	0xa
 3585 0583 3D02     		.2byte	0x23d
 3586 0585 3D030000 		.4byte	0x33d
 3587 0589 02       		.byte	0x2
 3588 058a 23       		.byte	0x23
 3589 058b 38       		.uleb128 0x38
 3590 058c 15       		.uleb128 0x15
 3591 058d 9C070000 		.4byte	.LASF77
 3592 0591 0A       		.byte	0xa
 3593 0592 3E02     		.2byte	0x23e
 3594 0594 3D030000 		.4byte	0x33d
 3595 0598 02       		.byte	0x2
 3596 0599 23       		.byte	0x23
 3597 059a 3C       		.uleb128 0x3c
 3598 059b 15       		.uleb128 0x15
 3599 059c A1070000 		.4byte	.LASF78
 3600 05a0 0A       		.byte	0xa
 3601 05a1 3F02     		.2byte	0x23f
 3602 05a3 3D030000 		.4byte	0x33d
 3603 05a7 02       		.byte	0x2
 3604 05a8 23       		.byte	0x23
 3605 05a9 40       		.uleb128 0x40
 3606 05aa 15       		.uleb128 0x15
 3607 05ab A6070000 		.4byte	.LASF79
 3608 05af 0A       		.byte	0xa
 3609 05b0 4002     		.2byte	0x240
 3610 05b2 3D030000 		.4byte	0x33d
 3611 05b6 02       		.byte	0x2
 3612 05b7 23       		.byte	0x23
 3613 05b8 44       		.uleb128 0x44
 3614 05b9 15       		.uleb128 0x15
 3615 05ba D6000000 		.4byte	.LASF80
 3616 05be 0A       		.byte	0xa
 3617 05bf 4102     		.2byte	0x241
 3618 05c1 3D030000 		.4byte	0x33d
 3619 05c5 02       		.byte	0x2
 3620 05c6 23       		.byte	0x23
 3621 05c7 48       		.uleb128 0x48
 3622 05c8 0B       		.uleb128 0xb
 3623 05c9 445200   		.ascii	"DR\000"
 3624 05cc 0A       		.byte	0xa
 3625 05cd 4202     		.2byte	0x242
 3626 05cf 3D030000 		.4byte	0x33d
 3627 05d3 02       		.byte	0x2
 3628 05d4 23       		.byte	0x23
 3629 05d5 4C       		.uleb128 0x4c
 3630 05d6 00       		.byte	0x0
 3631 05d7 16       		.uleb128 0x16
 3632 05d8 1F030000 		.4byte	.LASF81
 3633 05dc 0A       		.byte	0xa
 3634 05dd 4302     		.2byte	0x243
 3635 05df A3040000 		.4byte	0x4a3
ARM GAS  C:\Users\z80\AppData\Local\Temp\ccJfsMfL.s 			page 66


 3636 05e3 14       		.uleb128 0x14
 3637 05e4 10       		.byte	0x10
 3638 05e5 0A       		.byte	0xa
 3639 05e6 2D03     		.2byte	0x32d
 3640 05e8 29060000 		.4byte	0x629
 3641 05ec 0B       		.uleb128 0xb
 3642 05ed 43435200 		.ascii	"CCR\000"
 3643 05f1 0A       		.byte	0xa
 3644 05f2 2F03     		.2byte	0x32f
 3645 05f4 3D030000 		.4byte	0x33d
 3646 05f8 02       		.byte	0x2
 3647 05f9 23       		.byte	0x23
 3648 05fa 00       		.uleb128 0x0
 3649 05fb 15       		.uleb128 0x15
 3650 05fc B5000000 		.4byte	.LASF82
 3651 0600 0A       		.byte	0xa
 3652 0601 3003     		.2byte	0x330
 3653 0603 3D030000 		.4byte	0x33d
 3654 0607 02       		.byte	0x2
 3655 0608 23       		.byte	0x23
 3656 0609 04       		.uleb128 0x4
 3657 060a 15       		.uleb128 0x15
 3658 060b 77010000 		.4byte	.LASF83
 3659 060f 0A       		.byte	0xa
 3660 0610 3103     		.2byte	0x331
 3661 0612 3D030000 		.4byte	0x33d
 3662 0616 02       		.byte	0x2
 3663 0617 23       		.byte	0x23
 3664 0618 08       		.uleb128 0x8
 3665 0619 15       		.uleb128 0x15
 3666 061a D6050000 		.4byte	.LASF84
 3667 061e 0A       		.byte	0xa
 3668 061f 3203     		.2byte	0x332
 3669 0621 3D030000 		.4byte	0x33d
 3670 0625 02       		.byte	0x2
 3671 0626 23       		.byte	0x23
 3672 0627 0C       		.uleb128 0xc
 3673 0628 00       		.byte	0x0
 3674 0629 16       		.uleb128 0x16
 3675 062a 42060000 		.4byte	.LASF85
 3676 062e 0A       		.byte	0xa
 3677 062f 3303     		.2byte	0x333
 3678 0631 E3050000 		.4byte	0x5e3
 3679 0635 14       		.uleb128 0x14
 3680 0636 1C       		.byte	0x1c
 3681 0637 0A       		.byte	0xa
 3682 0638 F803     		.2byte	0x3f8
 3683 063a A8060000 		.4byte	0x6a8
 3684 063e 0B       		.uleb128 0xb
 3685 063f 43524C00 		.ascii	"CRL\000"
 3686 0643 0A       		.byte	0xa
 3687 0644 FA03     		.2byte	0x3fa
 3688 0646 3D030000 		.4byte	0x33d
 3689 064a 02       		.byte	0x2
 3690 064b 23       		.byte	0x23
 3691 064c 00       		.uleb128 0x0
 3692 064d 0B       		.uleb128 0xb
ARM GAS  C:\Users\z80\AppData\Local\Temp\ccJfsMfL.s 			page 67


 3693 064e 43524800 		.ascii	"CRH\000"
 3694 0652 0A       		.byte	0xa
 3695 0653 FB03     		.2byte	0x3fb
 3696 0655 3D030000 		.4byte	0x33d
 3697 0659 02       		.byte	0x2
 3698 065a 23       		.byte	0x23
 3699 065b 04       		.uleb128 0x4
 3700 065c 0B       		.uleb128 0xb
 3701 065d 49445200 		.ascii	"IDR\000"
 3702 0661 0A       		.byte	0xa
 3703 0662 FC03     		.2byte	0x3fc
 3704 0664 3D030000 		.4byte	0x33d
 3705 0668 02       		.byte	0x2
 3706 0669 23       		.byte	0x23
 3707 066a 08       		.uleb128 0x8
 3708 066b 0B       		.uleb128 0xb
 3709 066c 4F445200 		.ascii	"ODR\000"
 3710 0670 0A       		.byte	0xa
 3711 0671 FD03     		.2byte	0x3fd
 3712 0673 3D030000 		.4byte	0x33d
 3713 0677 02       		.byte	0x2
 3714 0678 23       		.byte	0x23
 3715 0679 0C       		.uleb128 0xc
 3716 067a 15       		.uleb128 0x15
 3717 067b 8F070000 		.4byte	.LASF86
 3718 067f 0A       		.byte	0xa
 3719 0680 FE03     		.2byte	0x3fe
 3720 0682 3D030000 		.4byte	0x33d
 3721 0686 02       		.byte	0x2
 3722 0687 23       		.byte	0x23
 3723 0688 10       		.uleb128 0x10
 3724 0689 0B       		.uleb128 0xb
 3725 068a 42525200 		.ascii	"BRR\000"
 3726 068e 0A       		.byte	0xa
 3727 068f FF03     		.2byte	0x3ff
 3728 0691 3D030000 		.4byte	0x33d
 3729 0695 02       		.byte	0x2
 3730 0696 23       		.byte	0x23
 3731 0697 14       		.uleb128 0x14
 3732 0698 15       		.uleb128 0x15
 3733 0699 1D040000 		.4byte	.LASF87
 3734 069d 0A       		.byte	0xa
 3735 069e 0004     		.2byte	0x400
 3736 06a0 3D030000 		.4byte	0x33d
 3737 06a4 02       		.byte	0x2
 3738 06a5 23       		.byte	0x23
 3739 06a6 18       		.uleb128 0x18
 3740 06a7 00       		.byte	0x0
 3741 06a8 16       		.uleb128 0x16
 3742 06a9 D0070000 		.4byte	.LASF88
 3743 06ad 0A       		.byte	0xa
 3744 06ae 0104     		.2byte	0x401
 3745 06b0 35060000 		.4byte	0x635
 3746 06b4 08       		.uleb128 0x8
 3747 06b5 0C       		.byte	0xc
 3748 06b6 0B       		.byte	0xb
 3749 06b7 C2       		.byte	0xc2
ARM GAS  C:\Users\z80\AppData\Local\Temp\ccJfsMfL.s 			page 68


 3750 06b8 03070000 		.4byte	0x703
 3751 06bc 06       		.uleb128 0x6
 3752 06bd E5030000 		.4byte	.LASF89
 3753 06c1 0B       		.byte	0xb
 3754 06c2 C3       		.byte	0xc3
 3755 06c3 03070000 		.4byte	0x703
 3756 06c7 02       		.byte	0x2
 3757 06c8 23       		.byte	0x23
 3758 06c9 00       		.uleb128 0x0
 3759 06ca 06       		.uleb128 0x6
 3760 06cb B8080000 		.4byte	.LASF90
 3761 06cf 0B       		.byte	0xb
 3762 06d0 C4       		.byte	0xc4
 3763 06d1 09070000 		.4byte	0x709
 3764 06d5 02       		.byte	0x2
 3765 06d6 23       		.byte	0x23
 3766 06d7 04       		.uleb128 0x4
 3767 06d8 06       		.uleb128 0x6
 3768 06d9 4D020000 		.4byte	.LASF91
 3769 06dd 0B       		.byte	0xb
 3770 06de C5       		.byte	0xc5
 3771 06df 54000000 		.4byte	0x54
 3772 06e3 02       		.byte	0x2
 3773 06e4 23       		.byte	0x23
 3774 06e5 08       		.uleb128 0x8
 3775 06e6 06       		.uleb128 0x6
 3776 06e7 88050000 		.4byte	.LASF92
 3777 06eb 0B       		.byte	0xb
 3778 06ec C7       		.byte	0xc7
 3779 06ed 54000000 		.4byte	0x54
 3780 06f1 02       		.byte	0x2
 3781 06f2 23       		.byte	0x23
 3782 06f3 09       		.uleb128 0x9
 3783 06f4 06       		.uleb128 0x6
 3784 06f5 D5060000 		.4byte	.LASF93
 3785 06f9 0B       		.byte	0xb
 3786 06fa C8       		.byte	0xc8
 3787 06fb 54000000 		.4byte	0x54
 3788 06ff 02       		.byte	0x2
 3789 0700 23       		.byte	0x23
 3790 0701 0A       		.uleb128 0xa
 3791 0702 00       		.byte	0x0
 3792 0703 09       		.uleb128 0x9
 3793 0704 04       		.byte	0x4
 3794 0705 29060000 		.4byte	0x629
 3795 0709 09       		.uleb128 0x9
 3796 070a 04       		.byte	0x4
 3797 070b 3D030000 		.4byte	0x33d
 3798 070f 03       		.uleb128 0x3
 3799 0710 02040000 		.4byte	.LASF94
 3800 0714 0B       		.byte	0xb
 3801 0715 C9       		.byte	0xc9
 3802 0716 B4060000 		.4byte	0x6b4
 3803 071a 03       		.uleb128 0x3
 3804 071b E0020000 		.4byte	.LASF95
 3805 071f 0C       		.byte	0xc
 3806 0720 78       		.byte	0x78
ARM GAS  C:\Users\z80\AppData\Local\Temp\ccJfsMfL.s 			page 69


 3807 0721 91000000 		.4byte	0x91
 3808 0725 17       		.uleb128 0x17
 3809 0726 01       		.byte	0x1
 3810 0727 0D       		.byte	0xd
 3811 0728 55       		.byte	0x55
 3812 0729 52070000 		.4byte	0x752
 3813 072d 18       		.uleb128 0x18
 3814 072e DF010000 		.4byte	.LASF96
 3815 0732 00       		.sleb128 0
 3816 0733 18       		.uleb128 0x18
 3817 0734 13070000 		.4byte	.LASF97
 3818 0738 01       		.sleb128 1
 3819 0739 18       		.uleb128 0x18
 3820 073a FE010000 		.4byte	.LASF98
 3821 073e 02       		.sleb128 2
 3822 073f 18       		.uleb128 0x18
 3823 0740 37060000 		.4byte	.LASF99
 3824 0744 03       		.sleb128 3
 3825 0745 18       		.uleb128 0x18
 3826 0746 4F040000 		.4byte	.LASF100
 3827 074a 04       		.sleb128 4
 3828 074b 18       		.uleb128 0x18
 3829 074c 80020000 		.4byte	.LASF101
 3830 0750 05       		.sleb128 5
 3831 0751 00       		.byte	0x0
 3832 0752 03       		.uleb128 0x3
 3833 0753 7A000000 		.4byte	.LASF102
 3834 0757 0D       		.byte	0xd
 3835 0758 5C       		.byte	0x5c
 3836 0759 25070000 		.4byte	0x725
 3837 075d 03       		.uleb128 0x3
 3838 075e 29020000 		.4byte	.LASF103
 3839 0762 0E       		.byte	0xe
 3840 0763 92       		.byte	0x92
 3841 0764 6D000000 		.4byte	0x6d
 3842 0768 03       		.uleb128 0x3
 3843 0769 9F050000 		.4byte	.LASF104
 3844 076d 0E       		.byte	0xe
 3845 076e 97       		.byte	0x97
 3846 076f 6D000000 		.4byte	0x6d
 3847 0773 17       		.uleb128 0x17
 3848 0774 01       		.byte	0x1
 3849 0775 0E       		.byte	0xe
 3850 0776 9E       		.byte	0x9e
 3851 0777 82070000 		.4byte	0x782
 3852 077b 18       		.uleb128 0x18
 3853 077c C2020000 		.4byte	.LASF105
 3854 0780 00       		.sleb128 0
 3855 0781 00       		.byte	0x0
 3856 0782 03       		.uleb128 0x3
 3857 0783 D4010000 		.4byte	.LASF106
 3858 0787 0E       		.byte	0xe
 3859 0788 A0       		.byte	0xa0
 3860 0789 73070000 		.4byte	0x773
 3861 078d 03       		.uleb128 0x3
 3862 078e CB060000 		.4byte	.LASF107
 3863 0792 0E       		.byte	0xe
ARM GAS  C:\Users\z80\AppData\Local\Temp\ccJfsMfL.s 			page 70


 3864 0793 A5       		.byte	0xa5
 3865 0794 98070000 		.4byte	0x798
 3866 0798 0C       		.uleb128 0xc
 3867 0799 CB060000 		.4byte	.LASF107
 3868 079d 34       		.byte	0x34
 3869 079e 0E       		.byte	0xe
 3870 079f 0901     		.2byte	0x109
 3871 07a1 3C080000 		.4byte	0x83c
 3872 07a5 15       		.uleb128 0x15
 3873 07a6 AF000000 		.4byte	.LASF108
 3874 07aa 0E       		.byte	0xe
 3875 07ab 0D01     		.2byte	0x10d
 3876 07ad 52070000 		.4byte	0x752
 3877 07b1 02       		.byte	0x2
 3878 07b2 23       		.byte	0x23
 3879 07b3 00       		.uleb128 0x0
 3880 07b4 15       		.uleb128 0x15
 3881 07b5 A8000000 		.4byte	.LASF109
 3882 07b9 0E       		.byte	0xe
 3883 07ba 1101     		.2byte	0x111
 3884 07bc 64090000 		.4byte	0x964
 3885 07c0 02       		.byte	0x2
 3886 07c1 23       		.byte	0x23
 3887 07c2 04       		.uleb128 0x4
 3888 07c3 15       		.uleb128 0x15
 3889 07c4 0B030000 		.4byte	.LASF110
 3890 07c8 0E       		.byte	0xe
 3891 07c9 1501     		.2byte	0x115
 3892 07cb 69080000 		.4byte	0x869
 3893 07cf 02       		.byte	0x2
 3894 07d0 23       		.byte	0x23
 3895 07d1 08       		.uleb128 0x8
 3896 07d2 15       		.uleb128 0x15
 3897 07d3 17050000 		.4byte	.LASF111
 3898 07d7 0E       		.byte	0xe
 3899 07d8 1901     		.2byte	0x119
 3900 07da 30000000 		.4byte	0x30
 3901 07de 02       		.byte	0x2
 3902 07df 23       		.byte	0x23
 3903 07e0 0C       		.uleb128 0xc
 3904 07e1 15       		.uleb128 0x15
 3905 07e2 1C070000 		.4byte	.LASF112
 3906 07e6 0E       		.byte	0xe
 3907 07e7 1D01     		.2byte	0x11d
 3908 07e9 6F090000 		.4byte	0x96f
 3909 07ed 02       		.byte	0x2
 3910 07ee 23       		.byte	0x23
 3911 07ef 10       		.uleb128 0x10
 3912 07f0 15       		.uleb128 0x15
 3913 07f1 21070000 		.4byte	.LASF113
 3914 07f5 0E       		.byte	0xe
 3915 07f6 2201     		.2byte	0x122
 3916 07f8 42020000 		.4byte	0x242
 3917 07fc 02       		.byte	0x2
 3918 07fd 23       		.byte	0x23
 3919 07fe 14       		.uleb128 0x14
 3920 07ff 15       		.uleb128 0x15
ARM GAS  C:\Users\z80\AppData\Local\Temp\ccJfsMfL.s 			page 71


 3921 0800 2D050000 		.4byte	.LASF114
 3922 0804 0E       		.byte	0xe
 3923 0805 2901     		.2byte	0x129
 3924 0807 87030000 		.4byte	0x387
 3925 080b 02       		.byte	0x2
 3926 080c 23       		.byte	0x23
 3927 080d 18       		.uleb128 0x18
 3928 080e 0B       		.uleb128 0xb
 3929 080f 61646300 		.ascii	"adc\000"
 3930 0813 0E       		.byte	0xe
 3931 0814 3501     		.2byte	0x135
 3932 0816 7A090000 		.4byte	0x97a
 3933 081a 02       		.byte	0x2
 3934 081b 23       		.byte	0x23
 3935 081c 28       		.uleb128 0x28
 3936 081d 15       		.uleb128 0x15
 3937 081e D9030000 		.4byte	.LASF115
 3938 0822 0E       		.byte	0xe
 3939 0823 3901     		.2byte	0x139
 3940 0825 80090000 		.4byte	0x980
 3941 0829 02       		.byte	0x2
 3942 082a 23       		.byte	0x23
 3943 082b 2C       		.uleb128 0x2c
 3944 082c 15       		.uleb128 0x15
 3945 082d 53050000 		.4byte	.LASF116
 3946 0831 0E       		.byte	0xe
 3947 0832 3D01     		.2byte	0x13d
 3948 0834 91000000 		.4byte	0x91
 3949 0838 02       		.byte	0x2
 3950 0839 23       		.byte	0x23
 3951 083a 30       		.uleb128 0x30
 3952 083b 00       		.byte	0x0
 3953 083c 03       		.uleb128 0x3
 3954 083d 35000000 		.4byte	.LASF117
 3955 0841 0E       		.byte	0xe
 3956 0842 AF       		.byte	0xaf
 3957 0843 47080000 		.4byte	0x847
 3958 0847 09       		.uleb128 0x9
 3959 0848 04       		.byte	0x4
 3960 0849 4D080000 		.4byte	0x84d
 3961 084d 12       		.uleb128 0x12
 3962 084e 01       		.byte	0x1
 3963 084f 63080000 		.4byte	0x863
 3964 0853 13       		.uleb128 0x13
 3965 0854 63080000 		.4byte	0x863
 3966 0858 13       		.uleb128 0x13
 3967 0859 69080000 		.4byte	0x869
 3968 085d 13       		.uleb128 0x13
 3969 085e 30000000 		.4byte	0x30
 3970 0862 00       		.byte	0x0
 3971 0863 09       		.uleb128 0x9
 3972 0864 04       		.byte	0x4
 3973 0865 8D070000 		.4byte	0x78d
 3974 0869 09       		.uleb128 0x9
 3975 086a 04       		.byte	0x4
 3976 086b 5D070000 		.4byte	0x75d
 3977 086f 03       		.uleb128 0x3
ARM GAS  C:\Users\z80\AppData\Local\Temp\ccJfsMfL.s 			page 72


 3978 0870 F0040000 		.4byte	.LASF118
 3979 0874 0E       		.byte	0xe
 3980 0875 B8       		.byte	0xb8
 3981 0876 7A080000 		.4byte	0x87a
 3982 087a 09       		.uleb128 0x9
 3983 087b 04       		.byte	0x4
 3984 087c 80080000 		.4byte	0x880
 3985 0880 12       		.uleb128 0x12
 3986 0881 01       		.byte	0x1
 3987 0882 91080000 		.4byte	0x891
 3988 0886 13       		.uleb128 0x13
 3989 0887 63080000 		.4byte	0x863
 3990 088b 13       		.uleb128 0x13
 3991 088c 82070000 		.4byte	0x782
 3992 0890 00       		.byte	0x0
 3993 0891 08       		.uleb128 0x8
 3994 0892 2C       		.byte	0x2c
 3995 0893 0E       		.byte	0xe
 3996 0894 C2       		.byte	0xc2
 3997 0895 34090000 		.4byte	0x934
 3998 0899 06       		.uleb128 0x6
 3999 089a B9020000 		.4byte	.LASF119
 4000 089e 0E       		.byte	0xe
 4001 089f C6       		.byte	0xc6
 4002 08a0 BC000000 		.4byte	0xbc
 4003 08a4 02       		.byte	0x2
 4004 08a5 23       		.byte	0x23
 4005 08a6 00       		.uleb128 0x0
 4006 08a7 06       		.uleb128 0x6
 4007 08a8 BD050000 		.4byte	.LASF120
 4008 08ac 0E       		.byte	0xe
 4009 08ad CA       		.byte	0xca
 4010 08ae 68070000 		.4byte	0x768
 4011 08b2 02       		.byte	0x2
 4012 08b3 23       		.byte	0x23
 4013 08b4 04       		.uleb128 0x4
 4014 08b5 06       		.uleb128 0x6
 4015 08b6 DB000000 		.4byte	.LASF121
 4016 08ba 0E       		.byte	0xe
 4017 08bb CE       		.byte	0xce
 4018 08bc 3C080000 		.4byte	0x83c
 4019 08c0 02       		.byte	0x2
 4020 08c1 23       		.byte	0x23
 4021 08c2 08       		.uleb128 0x8
 4022 08c3 06       		.uleb128 0x6
 4023 08c4 C5000000 		.4byte	.LASF122
 4024 08c8 0E       		.byte	0xe
 4025 08c9 D2       		.byte	0xd2
 4026 08ca 6F080000 		.4byte	0x86f
 4027 08ce 02       		.byte	0x2
 4028 08cf 23       		.byte	0x23
 4029 08d0 0C       		.uleb128 0xc
 4030 08d1 07       		.uleb128 0x7
 4031 08d2 63723100 		.ascii	"cr1\000"
 4032 08d6 0E       		.byte	0xe
 4033 08d7 D9       		.byte	0xd9
 4034 08d8 91000000 		.4byte	0x91
ARM GAS  C:\Users\z80\AppData\Local\Temp\ccJfsMfL.s 			page 73


 4035 08dc 02       		.byte	0x2
 4036 08dd 23       		.byte	0x23
 4037 08de 10       		.uleb128 0x10
 4038 08df 07       		.uleb128 0x7
 4039 08e0 63723200 		.ascii	"cr2\000"
 4040 08e4 0E       		.byte	0xe
 4041 08e5 E0       		.byte	0xe0
 4042 08e6 91000000 		.4byte	0x91
 4043 08ea 02       		.byte	0x2
 4044 08eb 23       		.byte	0x23
 4045 08ec 14       		.uleb128 0x14
 4046 08ed 06       		.uleb128 0x6
 4047 08ee 5C040000 		.4byte	.LASF123
 4048 08f2 0E       		.byte	0xe
 4049 08f3 E6       		.byte	0xe6
 4050 08f4 91000000 		.4byte	0x91
 4051 08f8 02       		.byte	0x2
 4052 08f9 23       		.byte	0x23
 4053 08fa 18       		.uleb128 0x18
 4054 08fb 06       		.uleb128 0x6
 4055 08fc 62040000 		.4byte	.LASF124
 4056 0900 0E       		.byte	0xe
 4057 0901 EC       		.byte	0xec
 4058 0902 91000000 		.4byte	0x91
 4059 0906 02       		.byte	0x2
 4060 0907 23       		.byte	0x23
 4061 0908 1C       		.uleb128 0x1c
 4062 0909 06       		.uleb128 0x6
 4063 090a 0E000000 		.4byte	.LASF125
 4064 090e 0E       		.byte	0xe
 4065 090f F1       		.byte	0xf1
 4066 0910 91000000 		.4byte	0x91
 4067 0914 02       		.byte	0x2
 4068 0915 23       		.byte	0x23
 4069 0916 20       		.uleb128 0x20
 4070 0917 06       		.uleb128 0x6
 4071 0918 13000000 		.4byte	.LASF126
 4072 091c 0E       		.byte	0xe
 4073 091d F6       		.byte	0xf6
 4074 091e 91000000 		.4byte	0x91
 4075 0922 02       		.byte	0x2
 4076 0923 23       		.byte	0x23
 4077 0924 24       		.uleb128 0x24
 4078 0925 06       		.uleb128 0x6
 4079 0926 18000000 		.4byte	.LASF127
 4080 092a 0E       		.byte	0xe
 4081 092b FB       		.byte	0xfb
 4082 092c 91000000 		.4byte	0x91
 4083 0930 02       		.byte	0x2
 4084 0931 23       		.byte	0x23
 4085 0932 28       		.uleb128 0x28
 4086 0933 00       		.byte	0x0
 4087 0934 03       		.uleb128 0x3
 4088 0935 3C040000 		.4byte	.LASF128
 4089 0939 0E       		.byte	0xe
 4090 093a FC       		.byte	0xfc
 4091 093b 91080000 		.4byte	0x891
ARM GAS  C:\Users\z80\AppData\Local\Temp\ccJfsMfL.s 			page 74


 4092 093f 14       		.uleb128 0x14
 4093 0940 04       		.byte	0x4
 4094 0941 0E       		.byte	0xe
 4095 0942 0201     		.2byte	0x102
 4096 0944 58090000 		.4byte	0x958
 4097 0948 15       		.uleb128 0x15
 4098 0949 0D070000 		.4byte	.LASF129
 4099 094d 0E       		.byte	0xe
 4100 094e 0301     		.2byte	0x103
 4101 0950 91000000 		.4byte	0x91
 4102 0954 02       		.byte	0x2
 4103 0955 23       		.byte	0x23
 4104 0956 00       		.uleb128 0x0
 4105 0957 00       		.byte	0x0
 4106 0958 16       		.uleb128 0x16
 4107 0959 DD080000 		.4byte	.LASF130
 4108 095d 0E       		.byte	0xe
 4109 095e 0401     		.2byte	0x104
 4110 0960 3F090000 		.4byte	0x93f
 4111 0964 09       		.uleb128 0x9
 4112 0965 04       		.byte	0x4
 4113 0966 6A090000 		.4byte	0x96a
 4114 096a 11       		.uleb128 0x11
 4115 096b 58090000 		.4byte	0x958
 4116 096f 09       		.uleb128 0x9
 4117 0970 04       		.byte	0x4
 4118 0971 75090000 		.4byte	0x975
 4119 0975 11       		.uleb128 0x11
 4120 0976 34090000 		.4byte	0x934
 4121 097a 09       		.uleb128 0x9
 4122 097b 04       		.byte	0x4
 4123 097c D7050000 		.4byte	0x5d7
 4124 0980 09       		.uleb128 0x9
 4125 0981 04       		.byte	0x4
 4126 0982 86090000 		.4byte	0x986
 4127 0986 11       		.uleb128 0x11
 4128 0987 0F070000 		.4byte	0x70f
 4129 098b 08       		.uleb128 0x8
 4130 098c 04       		.byte	0x4
 4131 098d 0F       		.byte	0xf
 4132 098e 07       		.byte	0x7
 4133 098f B0090000 		.4byte	0x9b0
 4134 0993 06       		.uleb128 0x6
 4135 0994 7B030000 		.4byte	.LASF131
 4136 0998 0F       		.byte	0xf
 4137 0999 09       		.byte	0x9
 4138 099a 6D000000 		.4byte	0x6d
 4139 099e 02       		.byte	0x2
 4140 099f 23       		.byte	0x23
 4141 09a0 00       		.uleb128 0x0
 4142 09a1 06       		.uleb128 0x6
 4143 09a2 80030000 		.4byte	.LASF132
 4144 09a6 0F       		.byte	0xf
 4145 09a7 0A       		.byte	0xa
 4146 09a8 6D000000 		.4byte	0x6d
 4147 09ac 02       		.byte	0x2
 4148 09ad 23       		.byte	0x23
ARM GAS  C:\Users\z80\AppData\Local\Temp\ccJfsMfL.s 			page 75


 4149 09ae 02       		.uleb128 0x2
 4150 09af 00       		.byte	0x0
 4151 09b0 03       		.uleb128 0x3
 4152 09b1 97010000 		.4byte	.LASF133
 4153 09b5 0F       		.byte	0xf
 4154 09b6 0B       		.byte	0xb
 4155 09b7 8B090000 		.4byte	0x98b
 4156 09bb 19       		.uleb128 0x19
 4157 09bc A9080000 		.4byte	.LASF153
 4158 09c0 01       		.byte	0x1
 4159 09c1 4C       		.byte	0x4c
 4160 09c2 01       		.byte	0x1
 4161 09c3 00000000 		.4byte	.LFB62
 4162 09c7 90000000 		.4byte	.LFE62
 4163 09cb 00000000 		.4byte	.LLST0
 4164 09cf 4A0A0000 		.4byte	0xa4a
 4165 09d3 1A       		.uleb128 0x1a
 4166 09d4 EB040000 		.4byte	.LASF134
 4167 09d8 01       		.byte	0x1
 4168 09d9 4C       		.byte	0x4c
 4169 09da 63080000 		.4byte	0x863
 4170 09de 02       		.byte	0x2
 4171 09df 91       		.byte	0x91
 4172 09e0 6C       		.sleb128 -20
 4173 09e1 1A       		.uleb128 0x1a
 4174 09e2 2B030000 		.4byte	.LASF135
 4175 09e6 01       		.byte	0x1
 4176 09e7 4C       		.byte	0x4c
 4177 09e8 69080000 		.4byte	0x869
 4178 09ec 02       		.byte	0x2
 4179 09ed 91       		.byte	0x91
 4180 09ee 68       		.sleb128 -24
 4181 09ef 1B       		.uleb128 0x1b
 4182 09f0 6E00     		.ascii	"n\000"
 4183 09f2 01       		.byte	0x1
 4184 09f3 4C       		.byte	0x4c
 4185 09f4 30000000 		.4byte	0x30
 4186 09f8 02       		.byte	0x2
 4187 09f9 91       		.byte	0x91
 4188 09fa 64       		.sleb128 -28
 4189 09fb 1C       		.uleb128 0x1c
 4190 09fc 6D736700 		.ascii	"msg\000"
 4191 0a00 01       		.byte	0x1
 4192 0a01 5E       		.byte	0x5e
 4193 0a02 E8000000 		.4byte	0xe8
 4194 0a06 02       		.byte	0x2
 4195 0a07 91       		.byte	0x91
 4196 0a08 74       		.sleb128 -12
 4197 0a09 1D       		.uleb128 0x1d
 4198 0a0a 9E010000 		.4byte	.LASF136
 4199 0a0e 01       		.byte	0x1
 4200 0a0f 60       		.byte	0x60
 4201 0a10 54000000 		.4byte	0x54
 4202 0a14 02       		.byte	0x2
 4203 0a15 91       		.byte	0x91
 4204 0a16 73       		.sleb128 -13
 4205 0a17 1E       		.uleb128 0x1e
ARM GAS  C:\Users\z80\AppData\Local\Temp\ccJfsMfL.s 			page 76


 4206 0a18 26000000 		.4byte	.LBB2
 4207 0a1c 2E000000 		.4byte	.LBE2
 4208 0a20 320A0000 		.4byte	0xa32
 4209 0a24 1C       		.uleb128 0x1c
 4210 0a25 746D7000 		.ascii	"tmp\000"
 4211 0a29 01       		.byte	0x1
 4212 0a2a 5D       		.byte	0x5d
 4213 0a2b 91000000 		.4byte	0x91
 4214 0a2f 01       		.byte	0x1
 4215 0a30 53       		.byte	0x53
 4216 0a31 00       		.byte	0x0
 4217 0a32 1F       		.uleb128 0x1f
 4218 0a33 6C000000 		.4byte	.LBB3
 4219 0a37 74000000 		.4byte	.LBE3
 4220 0a3b 1C       		.uleb128 0x1c
 4221 0a3c 746D7000 		.ascii	"tmp\000"
 4222 0a40 01       		.byte	0x1
 4223 0a41 64       		.byte	0x64
 4224 0a42 91000000 		.4byte	0x91
 4225 0a46 01       		.byte	0x1
 4226 0a47 53       		.byte	0x53
 4227 0a48 00       		.byte	0x0
 4228 0a49 00       		.byte	0x0
 4229 0a4a 20       		.uleb128 0x20
 4230 0a4b 01       		.byte	0x1
 4231 0a4c E6060000 		.4byte	.LASF231
 4232 0a50 01       		.byte	0x1
 4233 0a51 91       		.byte	0x91
 4234 0a52 01       		.byte	0x1
 4235 0a53 00000000 		.4byte	.LFB63
 4236 0a57 D4000000 		.4byte	.LFE63
 4237 0a5b 2C000000 		.4byte	.LLST1
 4238 0a5f 21       		.uleb128 0x21
 4239 0a60 01       		.byte	0x1
 4240 0a61 28070000 		.4byte	.LASF137
 4241 0a65 01       		.byte	0x1
 4242 0a66 A7       		.byte	0xa7
 4243 0a67 01       		.byte	0x1
 4244 0a68 00000000 		.4byte	.LFB64
 4245 0a6c 14000000 		.4byte	.LFE64
 4246 0a70 4C000000 		.4byte	.LLST2
 4247 0a74 850A0000 		.4byte	0xa85
 4248 0a78 1B       		.uleb128 0x1b
 4249 0a79 7400     		.ascii	"t\000"
 4250 0a7b 01       		.byte	0x1
 4251 0a7c A7       		.byte	0xa7
 4252 0a7d 91000000 		.4byte	0x91
 4253 0a81 02       		.byte	0x2
 4254 0a82 91       		.byte	0x91
 4255 0a83 7C       		.sleb128 -4
 4256 0a84 00       		.byte	0x0
 4257 0a85 21       		.uleb128 0x21
 4258 0a86 01       		.byte	0x1
 4259 0a87 E7050000 		.4byte	.LASF138
 4260 0a8b 01       		.byte	0x1
 4261 0a8c AC       		.byte	0xac
 4262 0a8d 01       		.byte	0x1
ARM GAS  C:\Users\z80\AppData\Local\Temp\ccJfsMfL.s 			page 77


 4263 0a8e 00000000 		.4byte	.LFB65
 4264 0a92 14000000 		.4byte	.LFE65
 4265 0a96 6C000000 		.4byte	.LLST3
 4266 0a9a AB0A0000 		.4byte	0xaab
 4267 0a9e 1B       		.uleb128 0x1b
 4268 0a9f 7400     		.ascii	"t\000"
 4269 0aa1 01       		.byte	0x1
 4270 0aa2 AC       		.byte	0xac
 4271 0aa3 91000000 		.4byte	0x91
 4272 0aa7 02       		.byte	0x2
 4273 0aa8 91       		.byte	0x91
 4274 0aa9 7C       		.sleb128 -4
 4275 0aaa 00       		.byte	0x0
 4276 0aab 21       		.uleb128 0x21
 4277 0aac 01       		.byte	0x1
 4278 0aad 77050000 		.4byte	.LASF139
 4279 0ab1 01       		.byte	0x1
 4280 0ab2 B1       		.byte	0xb1
 4281 0ab3 01       		.byte	0x1
 4282 0ab4 00000000 		.4byte	.LFB66
 4283 0ab8 1A000000 		.4byte	.LFE66
 4284 0abc 8C000000 		.4byte	.LLST4
 4285 0ac0 D30A0000 		.4byte	0xad3
 4286 0ac4 1A       		.uleb128 0x1a
 4287 0ac5 1D050000 		.4byte	.LASF140
 4288 0ac9 01       		.byte	0x1
 4289 0aca B1       		.byte	0xb1
 4290 0acb 54000000 		.4byte	0x54
 4291 0acf 02       		.byte	0x2
 4292 0ad0 91       		.byte	0x91
 4293 0ad1 7F       		.sleb128 -1
 4294 0ad2 00       		.byte	0x0
 4295 0ad3 21       		.uleb128 0x21
 4296 0ad4 01       		.byte	0x1
 4297 0ad5 55080000 		.4byte	.LASF141
 4298 0ad9 01       		.byte	0x1
 4299 0ada B6       		.byte	0xb6
 4300 0adb 01       		.byte	0x1
 4301 0adc 00000000 		.4byte	.LFB67
 4302 0ae0 08000000 		.4byte	.LFE67
 4303 0ae4 AC000000 		.4byte	.LLST5
 4304 0ae8 FA0A0000 		.4byte	0xafa
 4305 0aec 1B       		.uleb128 0x1b
 4306 0aed 737000   		.ascii	"sp\000"
 4307 0af0 01       		.byte	0x1
 4308 0af1 B6       		.byte	0xb6
 4309 0af2 29000000 		.4byte	0x29
 4310 0af6 02       		.byte	0x2
 4311 0af7 91       		.byte	0x91
 4312 0af8 7C       		.sleb128 -4
 4313 0af9 00       		.byte	0x0
 4314 0afa 21       		.uleb128 0x21
 4315 0afb 01       		.byte	0x1
 4316 0afc 48050000 		.4byte	.LASF142
 4317 0b00 01       		.byte	0x1
 4318 0b01 BB       		.byte	0xbb
 4319 0b02 01       		.byte	0x1
ARM GAS  C:\Users\z80\AppData\Local\Temp\ccJfsMfL.s 			page 78


 4320 0b03 00000000 		.4byte	.LFB68
 4321 0b07 08000000 		.4byte	.LFE68
 4322 0b0b CC000000 		.4byte	.LLST6
 4323 0b0f 220B0000 		.4byte	0xb22
 4324 0b13 1B       		.uleb128 0x1b
 4325 0b14 696E6400 		.ascii	"ind\000"
 4326 0b18 01       		.byte	0x1
 4327 0b19 BB       		.byte	0xbb
 4328 0b1a 29000000 		.4byte	0x29
 4329 0b1e 02       		.byte	0x2
 4330 0b1f 91       		.byte	0x91
 4331 0b20 7C       		.sleb128 -4
 4332 0b21 00       		.byte	0x0
 4333 0b22 21       		.uleb128 0x21
 4334 0b23 01       		.byte	0x1
 4335 0b24 EA010000 		.4byte	.LASF143
 4336 0b28 01       		.byte	0x1
 4337 0b29 C0       		.byte	0xc0
 4338 0b2a 01       		.byte	0x1
 4339 0b2b 00000000 		.4byte	.LFB69
 4340 0b2f 0A000000 		.4byte	.LFE69
 4341 0b33 EC000000 		.4byte	.LLST7
 4342 0b37 580B0000 		.4byte	0xb58
 4343 0b3b 1B       		.uleb128 0x1b
 4344 0b3c 6E756D00 		.ascii	"num\000"
 4345 0b40 01       		.byte	0x1
 4346 0b41 C0       		.byte	0xc0
 4347 0b42 29000000 		.4byte	0x29
 4348 0b46 02       		.byte	0x2
 4349 0b47 91       		.byte	0x91
 4350 0b48 7C       		.sleb128 -4
 4351 0b49 1B       		.uleb128 0x1b
 4352 0b4a 64656E00 		.ascii	"den\000"
 4353 0b4e 01       		.byte	0x1
 4354 0b4f C0       		.byte	0xc0
 4355 0b50 29000000 		.4byte	0x29
 4356 0b54 02       		.byte	0x2
 4357 0b55 91       		.byte	0x91
 4358 0b56 78       		.sleb128 -8
 4359 0b57 00       		.byte	0x0
 4360 0b58 21       		.uleb128 0x21
 4361 0b59 01       		.byte	0x1
 4362 0b5a EE060000 		.4byte	.LASF144
 4363 0b5e 01       		.byte	0x1
 4364 0b5f C6       		.byte	0xc6
 4365 0b60 01       		.byte	0x1
 4366 0b61 00000000 		.4byte	.LFB70
 4367 0b65 08000000 		.4byte	.LFE70
 4368 0b69 0C010000 		.4byte	.LLST8
 4369 0b6d 7F0B0000 		.4byte	0xb7f
 4370 0b71 1B       		.uleb128 0x1b
 4371 0b72 656E00   		.ascii	"en\000"
 4372 0b75 01       		.byte	0x1
 4373 0b76 C6       		.byte	0xc6
 4374 0b77 29000000 		.4byte	0x29
 4375 0b7b 02       		.byte	0x2
 4376 0b7c 91       		.byte	0x91
ARM GAS  C:\Users\z80\AppData\Local\Temp\ccJfsMfL.s 			page 79


 4377 0b7d 7C       		.sleb128 -4
 4378 0b7e 00       		.byte	0x0
 4379 0b7f 22       		.uleb128 0x22
 4380 0b80 01       		.byte	0x1
 4381 0b81 00080000 		.4byte	.LASF145
 4382 0b85 01       		.byte	0x1
 4383 0b86 CB       		.byte	0xcb
 4384 0b87 01       		.byte	0x1
 4385 0b88 970B0000 		.4byte	0xb97
 4386 0b8c 00000000 		.4byte	.LFB71
 4387 0b90 0C000000 		.4byte	.LFE71
 4388 0b94 02       		.byte	0x2
 4389 0b95 7D       		.byte	0x7d
 4390 0b96 00       		.sleb128 0
 4391 0b97 09       		.uleb128 0x9
 4392 0b98 04       		.byte	0x4
 4393 0b99 93040000 		.4byte	0x493
 4394 0b9d 22       		.uleb128 0x22
 4395 0b9e 01       		.byte	0x1
 4396 0b9f 32030000 		.4byte	.LASF146
 4397 0ba3 01       		.byte	0x1
 4398 0ba4 D0       		.byte	0xd0
 4399 0ba5 01       		.byte	0x1
 4400 0ba6 B50B0000 		.4byte	0xbb5
 4401 0baa 00000000 		.4byte	.LFB72
 4402 0bae 0C000000 		.4byte	.LFE72
 4403 0bb2 02       		.byte	0x2
 4404 0bb3 7D       		.byte	0x7d
 4405 0bb4 00       		.sleb128 0
 4406 0bb5 09       		.uleb128 0x9
 4407 0bb6 04       		.byte	0x4
 4408 0bb7 88040000 		.4byte	0x488
 4409 0bbb 22       		.uleb128 0x22
 4410 0bbc 01       		.byte	0x1
 4411 0bbd 63060000 		.4byte	.LASF147
 4412 0bc1 01       		.byte	0x1
 4413 0bc2 D5       		.byte	0xd5
 4414 0bc3 01       		.byte	0x1
 4415 0bc4 B50B0000 		.4byte	0xbb5
 4416 0bc8 00000000 		.4byte	.LFB73
 4417 0bcc 0C000000 		.4byte	.LFE73
 4418 0bd0 02       		.byte	0x2
 4419 0bd1 7D       		.byte	0x7d
 4420 0bd2 00       		.sleb128 0
 4421 0bd3 22       		.uleb128 0x22
 4422 0bd4 01       		.byte	0x1
 4423 0bd5 F4010000 		.4byte	.LASF148
 4424 0bd9 01       		.byte	0x1
 4425 0bda DA       		.byte	0xda
 4426 0bdb 01       		.byte	0x1
 4427 0bdc B50B0000 		.4byte	0xbb5
 4428 0be0 00000000 		.4byte	.LFB74
 4429 0be4 0C000000 		.4byte	.LFE74
 4430 0be8 02       		.byte	0x2
 4431 0be9 7D       		.byte	0x7d
 4432 0bea 00       		.sleb128 0
 4433 0beb 22       		.uleb128 0x22
ARM GAS  C:\Users\z80\AppData\Local\Temp\ccJfsMfL.s 			page 80


 4434 0bec 01       		.byte	0x1
 4435 0bed CA050000 		.4byte	.LASF149
 4436 0bf1 01       		.byte	0x1
 4437 0bf2 DF       		.byte	0xdf
 4438 0bf3 01       		.byte	0x1
 4439 0bf4 B50B0000 		.4byte	0xbb5
 4440 0bf8 00000000 		.4byte	.LFB75
 4441 0bfc 0C000000 		.4byte	.LFE75
 4442 0c00 02       		.byte	0x2
 4443 0c01 7D       		.byte	0x7d
 4444 0c02 00       		.sleb128 0
 4445 0c03 21       		.uleb128 0x21
 4446 0c04 01       		.byte	0x1
 4447 0c05 48010000 		.4byte	.LASF150
 4448 0c09 01       		.byte	0x1
 4449 0c0a E4       		.byte	0xe4
 4450 0c0b 01       		.byte	0x1
 4451 0c0c 00000000 		.4byte	.LFB76
 4452 0c10 4A000000 		.4byte	.LFE76
 4453 0c14 2C010000 		.4byte	.LLST9
 4454 0c18 2B0C0000 		.4byte	0xc2b
 4455 0c1c 1A       		.uleb128 0x1a
 4456 0c1d 48070000 		.4byte	.LASF151
 4457 0c21 01       		.byte	0x1
 4458 0c22 E4       		.byte	0xe4
 4459 0c23 29000000 		.4byte	0x29
 4460 0c27 02       		.byte	0x2
 4461 0c28 91       		.byte	0x91
 4462 0c29 74       		.sleb128 -12
 4463 0c2a 00       		.byte	0x0
 4464 0c2b 21       		.uleb128 0x21
 4465 0c2c 01       		.byte	0x1
 4466 0c2d 03050000 		.4byte	.LASF152
 4467 0c31 01       		.byte	0x1
 4468 0c32 FA       		.byte	0xfa
 4469 0c33 01       		.byte	0x1
 4470 0c34 00000000 		.4byte	.LFB77
 4471 0c38 4A000000 		.4byte	.LFE77
 4472 0c3c 58010000 		.4byte	.LLST10
 4473 0c40 530C0000 		.4byte	0xc53
 4474 0c44 1A       		.uleb128 0x1a
 4475 0c45 48070000 		.4byte	.LASF151
 4476 0c49 01       		.byte	0x1
 4477 0c4a FA       		.byte	0xfa
 4478 0c4b 29000000 		.4byte	0x29
 4479 0c4f 02       		.byte	0x2
 4480 0c50 91       		.byte	0x91
 4481 0c51 74       		.sleb128 -12
 4482 0c52 00       		.byte	0x0
 4483 0c53 23       		.uleb128 0x23
 4484 0c54 21020000 		.4byte	.LASF154
 4485 0c58 01       		.byte	0x1
 4486 0c59 1001     		.2byte	0x110
 4487 0c5b 01       		.byte	0x1
 4488 0c5c 00000000 		.4byte	.LFB78
 4489 0c60 50000000 		.4byte	.LFE78
 4490 0c64 84010000 		.4byte	.LLST11
ARM GAS  C:\Users\z80\AppData\Local\Temp\ccJfsMfL.s 			page 81


 4491 0c68 7C0C0000 		.4byte	0xc7c
 4492 0c6c 24       		.uleb128 0x24
 4493 0c6d 68040000 		.4byte	.LASF155
 4494 0c71 01       		.byte	0x1
 4495 0c72 1201     		.2byte	0x112
 4496 0c74 82040000 		.4byte	0x482
 4497 0c78 02       		.byte	0x2
 4498 0c79 91       		.byte	0x91
 4499 0c7a 74       		.sleb128 -12
 4500 0c7b 00       		.byte	0x0
 4501 0c7c 23       		.uleb128 0x23
 4502 0c7d 0C050000 		.4byte	.LASF156
 4503 0c81 01       		.byte	0x1
 4504 0c82 1701     		.2byte	0x117
 4505 0c84 01       		.byte	0x1
 4506 0c85 00000000 		.4byte	.LFB79
 4507 0c89 30000000 		.4byte	.LFE79
 4508 0c8d B0010000 		.4byte	.LLST12
 4509 0c91 A50C0000 		.4byte	0xca5
 4510 0c95 24       		.uleb128 0x24
 4511 0c96 E0030000 		.4byte	.LASF157
 4512 0c9a 01       		.byte	0x1
 4513 0c9b 1901     		.2byte	0x119
 4514 0c9d B0090000 		.4byte	0x9b0
 4515 0ca1 02       		.byte	0x2
 4516 0ca2 91       		.byte	0x91
 4517 0ca3 74       		.sleb128 -12
 4518 0ca4 00       		.byte	0x0
 4519 0ca5 23       		.uleb128 0x23
 4520 0ca6 2F040000 		.4byte	.LASF158
 4521 0caa 01       		.byte	0x1
 4522 0cab 2301     		.2byte	0x123
 4523 0cad 01       		.byte	0x1
 4524 0cae 00000000 		.4byte	.LFB80
 4525 0cb2 0C010000 		.4byte	.LFE80
 4526 0cb6 DC010000 		.4byte	.LLST13
 4527 0cba CE0C0000 		.4byte	0xcce
 4528 0cbe 24       		.uleb128 0x24
 4529 0cbf 68040000 		.4byte	.LASF155
 4530 0cc3 01       		.byte	0x1
 4531 0cc4 2501     		.2byte	0x125
 4532 0cc6 82040000 		.4byte	0x482
 4533 0cca 02       		.byte	0x2
 4534 0ccb 91       		.byte	0x91
 4535 0ccc 74       		.sleb128 -12
 4536 0ccd 00       		.byte	0x0
 4537 0cce 25       		.uleb128 0x25
 4538 0ccf 86040000 		.4byte	.LASF160
 4539 0cd3 01       		.byte	0x1
 4540 0cd4 3A01     		.2byte	0x13a
 4541 0cd6 01       		.byte	0x1
 4542 0cd7 00000000 		.4byte	.LFB81
 4543 0cdb 7A000000 		.4byte	.LFE81
 4544 0cdf 08020000 		.4byte	.LLST14
 4545 0ce3 23       		.uleb128 0x23
 4546 0ce4 33050000 		.4byte	.LASF159
 4547 0ce8 01       		.byte	0x1
ARM GAS  C:\Users\z80\AppData\Local\Temp\ccJfsMfL.s 			page 82


 4548 0ce9 4C01     		.2byte	0x14c
 4549 0ceb 01       		.byte	0x1
 4550 0cec 00000000 		.4byte	.LFB82
 4551 0cf0 58010000 		.4byte	.LFE82
 4552 0cf4 28020000 		.4byte	.LLST15
 4553 0cf8 0C0D0000 		.4byte	0xd0c
 4554 0cfc 24       		.uleb128 0x24
 4555 0cfd 68040000 		.4byte	.LASF155
 4556 0d01 01       		.byte	0x1
 4557 0d02 4E01     		.2byte	0x14e
 4558 0d04 82040000 		.4byte	0x482
 4559 0d08 02       		.byte	0x2
 4560 0d09 91       		.byte	0x91
 4561 0d0a 74       		.sleb128 -12
 4562 0d0b 00       		.byte	0x0
 4563 0d0c 25       		.uleb128 0x25
 4564 0d0d AB020000 		.4byte	.LASF161
 4565 0d11 01       		.byte	0x1
 4566 0d12 6401     		.2byte	0x164
 4567 0d14 01       		.byte	0x1
 4568 0d15 00000000 		.4byte	.LFB83
 4569 0d19 8C000000 		.4byte	.LFE83
 4570 0d1d 54020000 		.4byte	.LLST16
 4571 0d21 23       		.uleb128 0x23
 4572 0d22 A1020000 		.4byte	.LASF162
 4573 0d26 01       		.byte	0x1
 4574 0d27 7E01     		.2byte	0x17e
 4575 0d29 01       		.byte	0x1
 4576 0d2a 00000000 		.4byte	.LFB84
 4577 0d2e 88010000 		.4byte	.LFE84
 4578 0d32 74020000 		.4byte	.LLST17
 4579 0d36 4A0D0000 		.4byte	0xd4a
 4580 0d3a 24       		.uleb128 0x24
 4581 0d3b 68040000 		.4byte	.LASF155
 4582 0d3f 01       		.byte	0x1
 4583 0d40 8001     		.2byte	0x180
 4584 0d42 82040000 		.4byte	0x482
 4585 0d46 02       		.byte	0x2
 4586 0d47 91       		.byte	0x91
 4587 0d48 74       		.sleb128 -12
 4588 0d49 00       		.byte	0x0
 4589 0d4a 23       		.uleb128 0x23
 4590 0d4b 85000000 		.4byte	.LASF163
 4591 0d4f 01       		.byte	0x1
 4592 0d50 9401     		.2byte	0x194
 4593 0d52 01       		.byte	0x1
 4594 0d53 00000000 		.4byte	.LFB85
 4595 0d57 52010000 		.4byte	.LFE85
 4596 0d5b A0020000 		.4byte	.LLST18
 4597 0d5f CD0D0000 		.4byte	0xdcd
 4598 0d63 24       		.uleb128 0x24
 4599 0d64 D3040000 		.4byte	.LASF164
 4600 0d68 01       		.byte	0x1
 4601 0d69 9701     		.2byte	0x197
 4602 0d6b 54000000 		.4byte	0x54
 4603 0d6f 02       		.byte	0x2
 4604 0d70 91       		.byte	0x91
ARM GAS  C:\Users\z80\AppData\Local\Temp\ccJfsMfL.s 			page 83


 4605 0d71 73       		.sleb128 -13
 4606 0d72 24       		.uleb128 0x24
 4607 0d73 3E050000 		.4byte	.LASF165
 4608 0d77 01       		.byte	0x1
 4609 0d78 9701     		.2byte	0x197
 4610 0d7a 54000000 		.4byte	0x54
 4611 0d7e 02       		.byte	0x2
 4612 0d7f 91       		.byte	0x91
 4613 0d80 72       		.sleb128 -14
 4614 0d81 24       		.uleb128 0x24
 4615 0d82 F6060000 		.4byte	.LASF166
 4616 0d86 01       		.byte	0x1
 4617 0d87 9B01     		.2byte	0x19b
 4618 0d89 7F000000 		.4byte	0x7f
 4619 0d8d 02       		.byte	0x2
 4620 0d8e 91       		.byte	0x91
 4621 0d8f 74       		.sleb128 -12
 4622 0d90 24       		.uleb128 0x24
 4623 0d91 08020000 		.4byte	.LASF167
 4624 0d95 01       		.byte	0x1
 4625 0d96 AB01     		.2byte	0x1ab
 4626 0d98 29000000 		.4byte	0x29
 4627 0d9c 02       		.byte	0x2
 4628 0d9d 91       		.byte	0x91
 4629 0d9e 68       		.sleb128 -24
 4630 0d9f 26       		.uleb128 0x26
 4631 0da0 64616300 		.ascii	"dac\000"
 4632 0da4 01       		.byte	0x1
 4633 0da5 AB01     		.2byte	0x1ab
 4634 0da7 29000000 		.4byte	0x29
 4635 0dab 02       		.byte	0x2
 4636 0dac 91       		.byte	0x91
 4637 0dad 64       		.sleb128 -28
 4638 0dae 24       		.uleb128 0x24
 4639 0daf 36010000 		.4byte	.LASF168
 4640 0db3 01       		.byte	0x1
 4641 0db4 AC01     		.2byte	0x1ac
 4642 0db6 B0090000 		.4byte	0x9b0
 4643 0dba 02       		.byte	0x2
 4644 0dbb 91       		.byte	0x91
 4645 0dbc 60       		.sleb128 -32
 4646 0dbd 24       		.uleb128 0x24
 4647 0dbe 5B020000 		.4byte	.LASF169
 4648 0dc2 01       		.byte	0x1
 4649 0dc3 AD01     		.2byte	0x1ad
 4650 0dc5 CD0D0000 		.4byte	0xdcd
 4651 0dc9 02       		.byte	0x2
 4652 0dca 91       		.byte	0x91
 4653 0dcb 6C       		.sleb128 -20
 4654 0dcc 00       		.byte	0x0
 4655 0dcd 04       		.uleb128 0x4
 4656 0dce 04       		.byte	0x4
 4657 0dcf 04       		.byte	0x4
 4658 0dd0 29010000 		.4byte	.LASF170
 4659 0dd4 27       		.uleb128 0x27
 4660 0dd5 C4060000 		.4byte	.LASF171
 4661 0dd9 01       		.byte	0x1
ARM GAS  C:\Users\z80\AppData\Local\Temp\ccJfsMfL.s 			page 84


 4662 0dda BA01     		.2byte	0x1ba
 4663 0ddc 01       		.byte	0x1
 4664 0ddd 00000000 		.4byte	.LFB86
 4665 0de1 02000000 		.4byte	.LFE86
 4666 0de5 02       		.byte	0x2
 4667 0de6 7D       		.byte	0x7d
 4668 0de7 00       		.sleb128 0
 4669 0de8 27       		.uleb128 0x27
 4670 0de9 7D080000 		.4byte	.LASF172
 4671 0ded 01       		.byte	0x1
 4672 0dee BF01     		.2byte	0x1bf
 4673 0df0 01       		.byte	0x1
 4674 0df1 00000000 		.4byte	.LFB87
 4675 0df5 02000000 		.4byte	.LFE87
 4676 0df9 02       		.byte	0x2
 4677 0dfa 7D       		.byte	0x7d
 4678 0dfb 00       		.sleb128 0
 4679 0dfc 23       		.uleb128 0x23
 4680 0dfd D5020000 		.4byte	.LASF173
 4681 0e01 01       		.byte	0x1
 4682 0e02 C601     		.2byte	0x1c6
 4683 0e04 01       		.byte	0x1
 4684 0e05 00000000 		.4byte	.LFB88
 4685 0e09 02030000 		.4byte	.LFE88
 4686 0e0d CC020000 		.4byte	.LLST19
 4687 0e11 AE0E0000 		.4byte	0xeae
 4688 0e15 28       		.uleb128 0x28
 4689 0e16 2B030000 		.4byte	.LASF135
 4690 0e1a 01       		.byte	0x1
 4691 0e1b C601     		.2byte	0x1c6
 4692 0e1d 69080000 		.4byte	0x869
 4693 0e21 02       		.byte	0x2
 4694 0e22 91       		.byte	0x91
 4695 0e23 64       		.sleb128 -28
 4696 0e24 24       		.uleb128 0x24
 4697 0e25 0E060000 		.4byte	.LASF174
 4698 0e29 01       		.byte	0x1
 4699 0e2a CA01     		.2byte	0x1ca
 4700 0e2c 29000000 		.4byte	0x29
 4701 0e30 02       		.byte	0x2
 4702 0e31 91       		.byte	0x91
 4703 0e32 74       		.sleb128 -12
 4704 0e33 24       		.uleb128 0x24
 4705 0e34 F1000000 		.4byte	.LASF175
 4706 0e38 01       		.byte	0x1
 4707 0e39 CB01     		.2byte	0x1cb
 4708 0e3b 29000000 		.4byte	0x29
 4709 0e3f 02       		.byte	0x2
 4710 0e40 91       		.byte	0x91
 4711 0e41 70       		.sleb128 -16
 4712 0e42 1F       		.uleb128 0x1f
 4713 0e43 5E010000 		.4byte	.LBB4
 4714 0e47 FE020000 		.4byte	.LBE4
 4715 0e4b 26       		.uleb128 0x26
 4716 0e4c 76313600 		.ascii	"v16\000"
 4717 0e50 01       		.byte	0x1
 4718 0e51 D801     		.2byte	0x1d8
ARM GAS  C:\Users\z80\AppData\Local\Temp\ccJfsMfL.s 			page 85


 4719 0e53 6D000000 		.4byte	0x6d
 4720 0e57 02       		.byte	0x2
 4721 0e58 91       		.byte	0x91
 4722 0e59 6E       		.sleb128 -18
 4723 0e5a 24       		.uleb128 0x24
 4724 0e5b 32060000 		.4byte	.LASF176
 4725 0e5f 01       		.byte	0x1
 4726 0e60 D901     		.2byte	0x1d9
 4727 0e62 54000000 		.4byte	0x54
 4728 0e66 02       		.byte	0x2
 4729 0e67 91       		.byte	0x91
 4730 0e68 6D       		.sleb128 -19
 4731 0e69 24       		.uleb128 0x24
 4732 0e6a 58070000 		.4byte	.LASF177
 4733 0e6e 01       		.byte	0x1
 4734 0e6f D901     		.2byte	0x1d9
 4735 0e71 54000000 		.4byte	0x54
 4736 0e75 02       		.byte	0x2
 4737 0e76 91       		.byte	0x91
 4738 0e77 6C       		.sleb128 -20
 4739 0e78 1E       		.uleb128 0x1e
 4740 0e79 80010000 		.4byte	.LBB5
 4741 0e7d 88010000 		.4byte	.LBE5
 4742 0e81 940E0000 		.4byte	0xe94
 4743 0e85 26       		.uleb128 0x26
 4744 0e86 746D7000 		.ascii	"tmp\000"
 4745 0e8a 01       		.byte	0x1
 4746 0e8b D701     		.2byte	0x1d7
 4747 0e8d 91000000 		.4byte	0x91
 4748 0e91 01       		.byte	0x1
 4749 0e92 53       		.byte	0x53
 4750 0e93 00       		.byte	0x0
 4751 0e94 1F       		.uleb128 0x1f
 4752 0e95 F6020000 		.4byte	.LBB6
 4753 0e99 FE020000 		.4byte	.LBE6
 4754 0e9d 26       		.uleb128 0x26
 4755 0e9e 746D7000 		.ascii	"tmp\000"
 4756 0ea2 01       		.byte	0x1
 4757 0ea3 F101     		.2byte	0x1f1
 4758 0ea5 91000000 		.4byte	0x91
 4759 0ea9 01       		.byte	0x1
 4760 0eaa 53       		.byte	0x53
 4761 0eab 00       		.byte	0x0
 4762 0eac 00       		.byte	0x0
 4763 0ead 00       		.byte	0x0
 4764 0eae 23       		.uleb128 0x23
 4765 0eaf DC040000 		.4byte	.LASF178
 4766 0eb3 01       		.byte	0x1
 4767 0eb4 F501     		.2byte	0x1f5
 4768 0eb6 01       		.byte	0x1
 4769 0eb7 00000000 		.4byte	.LFB89
 4770 0ebb 1E020000 		.4byte	.LFE89
 4771 0ebf F8020000 		.4byte	.LLST20
 4772 0ec3 D40F0000 		.4byte	0xfd4
 4773 0ec7 28       		.uleb128 0x28
 4774 0ec8 2B030000 		.4byte	.LASF135
 4775 0ecc 01       		.byte	0x1
ARM GAS  C:\Users\z80\AppData\Local\Temp\ccJfsMfL.s 			page 86


 4776 0ecd F501     		.2byte	0x1f5
 4777 0ecf 69080000 		.4byte	0x869
 4778 0ed3 02       		.byte	0x2
 4779 0ed4 91       		.byte	0x91
 4780 0ed5 64       		.sleb128 -28
 4781 0ed6 24       		.uleb128 0x24
 4782 0ed7 1D050000 		.4byte	.LASF140
 4783 0edb 01       		.byte	0x1
 4784 0edc FB01     		.2byte	0x1fb
 4785 0ede 54000000 		.4byte	0x54
 4786 0ee2 02       		.byte	0x2
 4787 0ee3 91       		.byte	0x91
 4788 0ee4 77       		.sleb128 -9
 4789 0ee5 26       		.uleb128 0x26
 4790 0ee6 737A00   		.ascii	"sz\000"
 4791 0ee9 01       		.byte	0x1
 4792 0eea FE01     		.2byte	0x1fe
 4793 0eec 29000000 		.4byte	0x29
 4794 0ef0 02       		.byte	0x2
 4795 0ef1 91       		.byte	0x91
 4796 0ef2 70       		.sleb128 -16
 4797 0ef3 24       		.uleb128 0x24
 4798 0ef4 94070000 		.4byte	.LASF179
 4799 0ef8 01       		.byte	0x1
 4800 0ef9 0002     		.2byte	0x200
 4801 0efb 29000000 		.4byte	0x29
 4802 0eff 02       		.byte	0x2
 4803 0f00 91       		.byte	0x91
 4804 0f01 6C       		.sleb128 -20
 4805 0f02 26       		.uleb128 0x26
 4806 0f03 76313600 		.ascii	"v16\000"
 4807 0f07 01       		.byte	0x1
 4808 0f08 0D02     		.2byte	0x20d
 4809 0f0a 6D000000 		.4byte	0x6d
 4810 0f0e 02       		.byte	0x2
 4811 0f0f 91       		.byte	0x91
 4812 0f10 6A       		.sleb128 -22
 4813 0f11 24       		.uleb128 0x24
 4814 0f12 32060000 		.4byte	.LASF176
 4815 0f16 01       		.byte	0x1
 4816 0f17 0E02     		.2byte	0x20e
 4817 0f19 54000000 		.4byte	0x54
 4818 0f1d 02       		.byte	0x2
 4819 0f1e 91       		.byte	0x91
 4820 0f1f 69       		.sleb128 -23
 4821 0f20 24       		.uleb128 0x24
 4822 0f21 58070000 		.4byte	.LASF177
 4823 0f25 01       		.byte	0x1
 4824 0f26 0E02     		.2byte	0x20e
 4825 0f28 54000000 		.4byte	0x54
 4826 0f2c 02       		.byte	0x2
 4827 0f2d 91       		.byte	0x91
 4828 0f2e 68       		.sleb128 -24
 4829 0f2f 1E       		.uleb128 0x1e
 4830 0f30 16000000 		.4byte	.LBB7
 4831 0f34 1E000000 		.4byte	.LBE7
 4832 0f38 4B0F0000 		.4byte	0xf4b
ARM GAS  C:\Users\z80\AppData\Local\Temp\ccJfsMfL.s 			page 87


 4833 0f3c 26       		.uleb128 0x26
 4834 0f3d 746D7000 		.ascii	"tmp\000"
 4835 0f41 01       		.byte	0x1
 4836 0f42 FA01     		.2byte	0x1fa
 4837 0f44 91000000 		.4byte	0x91
 4838 0f48 01       		.byte	0x1
 4839 0f49 53       		.byte	0x53
 4840 0f4a 00       		.byte	0x0
 4841 0f4b 1E       		.uleb128 0x1e
 4842 0f4c 34000000 		.4byte	.LBB8
 4843 0f50 3C000000 		.4byte	.LBE8
 4844 0f54 670F0000 		.4byte	0xf67
 4845 0f58 26       		.uleb128 0x26
 4846 0f59 746D7000 		.ascii	"tmp\000"
 4847 0f5d 01       		.byte	0x1
 4848 0f5e FC01     		.2byte	0x1fc
 4849 0f60 91000000 		.4byte	0x91
 4850 0f64 01       		.byte	0x1
 4851 0f65 53       		.byte	0x53
 4852 0f66 00       		.byte	0x0
 4853 0f67 1E       		.uleb128 0x1e
 4854 0f68 78000000 		.4byte	.LBB9
 4855 0f6c 80000000 		.4byte	.LBE9
 4856 0f70 830F0000 		.4byte	0xf83
 4857 0f74 26       		.uleb128 0x26
 4858 0f75 746D7000 		.ascii	"tmp\000"
 4859 0f79 01       		.byte	0x1
 4860 0f7a FF01     		.2byte	0x1ff
 4861 0f7c 91000000 		.4byte	0x91
 4862 0f80 01       		.byte	0x1
 4863 0f81 53       		.byte	0x53
 4864 0f82 00       		.byte	0x0
 4865 0f83 1E       		.uleb128 0x1e
 4866 0f84 B4000000 		.4byte	.LBB10
 4867 0f88 BC000000 		.4byte	.LBE10
 4868 0f8c 9F0F0000 		.4byte	0xf9f
 4869 0f90 26       		.uleb128 0x26
 4870 0f91 746D7000 		.ascii	"tmp\000"
 4871 0f95 01       		.byte	0x1
 4872 0f96 0102     		.2byte	0x201
 4873 0f98 91000000 		.4byte	0x91
 4874 0f9c 01       		.byte	0x1
 4875 0f9d 53       		.byte	0x53
 4876 0f9e 00       		.byte	0x0
 4877 0f9f 1E       		.uleb128 0x1e
 4878 0fa0 06010000 		.4byte	.LBB11
 4879 0fa4 0E010000 		.4byte	.LBE11
 4880 0fa8 BB0F0000 		.4byte	0xfbb
 4881 0fac 26       		.uleb128 0x26
 4882 0fad 746D7000 		.ascii	"tmp\000"
 4883 0fb1 01       		.byte	0x1
 4884 0fb2 1102     		.2byte	0x211
 4885 0fb4 91000000 		.4byte	0x91
 4886 0fb8 01       		.byte	0x1
 4887 0fb9 53       		.byte	0x53
 4888 0fba 00       		.byte	0x0
 4889 0fbb 1F       		.uleb128 0x1f
ARM GAS  C:\Users\z80\AppData\Local\Temp\ccJfsMfL.s 			page 88


 4890 0fbc 0A020000 		.4byte	.LBB12
 4891 0fc0 14020000 		.4byte	.LBE12
 4892 0fc4 26       		.uleb128 0x26
 4893 0fc5 746D7000 		.ascii	"tmp\000"
 4894 0fc9 01       		.byte	0x1
 4895 0fca 2E02     		.2byte	0x22e
 4896 0fcc 91000000 		.4byte	0x91
 4897 0fd0 01       		.byte	0x1
 4898 0fd1 53       		.byte	0x53
 4899 0fd2 00       		.byte	0x0
 4900 0fd3 00       		.byte	0x0
 4901 0fd4 27       		.uleb128 0x27
 4902 0fd5 56060000 		.4byte	.LASF180
 4903 0fd9 01       		.byte	0x1
 4904 0fda 3102     		.2byte	0x231
 4905 0fdc 01       		.byte	0x1
 4906 0fdd 00000000 		.4byte	.LFB90
 4907 0fe1 3C000000 		.4byte	.LFE90
 4908 0fe5 02       		.byte	0x2
 4909 0fe6 7D       		.byte	0x7d
 4910 0fe7 00       		.sleb128 0
 4911 0fe8 29       		.uleb128 0x29
 4912 0fe9 DD070000 		.4byte	.LASF181
 4913 0fed 10       		.byte	0x10
 4914 0fee 9404     		.2byte	0x494
 4915 0ff0 9E040000 		.4byte	0x49e
 4916 0ff4 01       		.byte	0x1
 4917 0ff5 01       		.byte	0x1
 4918 0ff6 29       		.uleb128 0x29
 4919 0ff7 F7050000 		.4byte	.LASF182
 4920 0ffb 0E       		.byte	0xe
 4921 0ffc 8101     		.2byte	0x181
 4922 0ffe 8D070000 		.4byte	0x78d
 4923 1002 01       		.byte	0x1
 4924 1003 01       		.byte	0x1
 4925 1004 2A       		.uleb128 0x2a
 4926 1005 A0000000 		.4byte	.LASF183
 4927 1009 01       		.byte	0x1
 4928 100a 17       		.byte	0x17
 4929 100b 29000000 		.4byte	0x29
 4930 100f 01       		.byte	0x1
 4931 1010 01       		.byte	0x1
 4932 1011 2A       		.uleb128 0x2a
 4933 1012 41020000 		.4byte	.LASF184
 4934 1016 01       		.byte	0x1
 4935 1017 18       		.byte	0x18
 4936 1018 29000000 		.4byte	0x29
 4937 101c 01       		.byte	0x1
 4938 101d 01       		.byte	0x1
 4939 101e 2A       		.uleb128 0x2a
 4940 101f EA070000 		.4byte	.LASF185
 4941 1023 01       		.byte	0x1
 4942 1024 1B       		.byte	0x1b
 4943 1025 88040000 		.4byte	0x488
 4944 1029 01       		.byte	0x1
 4945 102a 01       		.byte	0x1
 4946 102b 2A       		.uleb128 0x2a
ARM GAS  C:\Users\z80\AppData\Local\Temp\ccJfsMfL.s 			page 89


 4947 102c B2050000 		.4byte	.LASF186
 4948 1030 01       		.byte	0x1
 4949 1031 1B       		.byte	0x1b
 4950 1032 88040000 		.4byte	0x488
 4951 1036 01       		.byte	0x1
 4952 1037 01       		.byte	0x1
 4953 1038 2A       		.uleb128 0x2a
 4954 1039 4D070000 		.4byte	.LASF187
 4955 103d 01       		.byte	0x1
 4956 103e 1B       		.byte	0x1b
 4957 103f 88040000 		.4byte	0x488
 4958 1043 01       		.byte	0x1
 4959 1044 01       		.byte	0x1
 4960 1045 2B       		.uleb128 0x2b
 4961 1046 54000000 		.4byte	0x54
 4962 104a 55100000 		.4byte	0x1055
 4963 104e 2C       		.uleb128 0x2c
 4964 104f 42030000 		.4byte	0x342
 4965 1053 FF       		.byte	0xff
 4966 1054 00       		.byte	0x0
 4967 1055 2A       		.uleb128 0x2a
 4968 1056 3C030000 		.4byte	.LASF188
 4969 105a 01       		.byte	0x1
 4970 105b 1C       		.byte	0x1c
 4971 105c 45100000 		.4byte	0x1045
 4972 1060 01       		.byte	0x1
 4973 1061 01       		.byte	0x1
 4974 1062 2A       		.uleb128 0x2a
 4975 1063 2C080000 		.4byte	.LASF189
 4976 1067 01       		.byte	0x1
 4977 1068 1D       		.byte	0x1d
 4978 1069 45100000 		.4byte	0x1045
 4979 106d 01       		.byte	0x1
 4980 106e 01       		.byte	0x1
 4981 106f 2A       		.uleb128 0x2a
 4982 1070 7D070000 		.4byte	.LASF190
 4983 1074 01       		.byte	0x1
 4984 1075 1E       		.byte	0x1e
 4985 1076 45100000 		.4byte	0x1045
 4986 107a 01       		.byte	0x1
 4987 107b 01       		.byte	0x1
 4988 107c 2A       		.uleb128 0x2a
 4989 107d 78040000 		.4byte	.LASF191
 4990 1081 01       		.byte	0x1
 4991 1082 21       		.byte	0x21
 4992 1083 93040000 		.4byte	0x493
 4993 1087 01       		.byte	0x1
 4994 1088 01       		.byte	0x1
 4995 1089 2B       		.uleb128 0x2b
 4996 108a 54000000 		.4byte	0x54
 4997 108e 99100000 		.4byte	0x1099
 4998 1092 2C       		.uleb128 0x2c
 4999 1093 42030000 		.4byte	0x342
 5000 1097 03       		.byte	0x3
 5001 1098 00       		.byte	0x0
 5002 1099 2A       		.uleb128 0x2a
 5003 109a 5D000000 		.4byte	.LASF192
ARM GAS  C:\Users\z80\AppData\Local\Temp\ccJfsMfL.s 			page 90


 5004 109e 01       		.byte	0x1
 5005 109f 22       		.byte	0x22
 5006 10a0 89100000 		.4byte	0x1089
 5007 10a4 01       		.byte	0x1
 5008 10a5 01       		.byte	0x1
 5009 10a6 2A       		.uleb128 0x2a
 5010 10a7 FD050000 		.4byte	.LASF193
 5011 10ab 01       		.byte	0x1
 5012 10ac 24       		.byte	0x24
 5013 10ad 29000000 		.4byte	0x29
 5014 10b1 01       		.byte	0x1
 5015 10b2 01       		.byte	0x1
 5016 10b3 2A       		.uleb128 0x2a
 5017 10b4 24080000 		.4byte	.LASF194
 5018 10b8 01       		.byte	0x1
 5019 10b9 25       		.byte	0x25
 5020 10ba 29000000 		.4byte	0x29
 5021 10be 01       		.byte	0x1
 5022 10bf 01       		.byte	0x1
 5023 10c0 2A       		.uleb128 0x2a
 5024 10c1 B5040000 		.4byte	.LASF195
 5025 10c5 01       		.byte	0x1
 5026 10c6 28       		.byte	0x28
 5027 10c7 29000000 		.4byte	0x29
 5028 10cb 01       		.byte	0x1
 5029 10cc 01       		.byte	0x1
 5030 10cd 2A       		.uleb128 0x2a
 5031 10ce 96040000 		.4byte	.LASF196
 5032 10d2 01       		.byte	0x1
 5033 10d3 29       		.byte	0x29
 5034 10d4 29000000 		.4byte	0x29
 5035 10d8 01       		.byte	0x1
 5036 10d9 01       		.byte	0x1
 5037 10da 2A       		.uleb128 0x2a
 5038 10db 22050000 		.4byte	.LASF197
 5039 10df 01       		.byte	0x1
 5040 10e0 2A       		.byte	0x2a
 5041 10e1 54000000 		.4byte	0x54
 5042 10e5 01       		.byte	0x1
 5043 10e6 01       		.byte	0x1
 5044 10e7 2A       		.uleb128 0x2a
 5045 10e8 0D080000 		.4byte	.LASF198
 5046 10ec 01       		.byte	0x1
 5047 10ed 2B       		.byte	0x2b
 5048 10ee 54000000 		.4byte	0x54
 5049 10f2 01       		.byte	0x1
 5050 10f3 01       		.byte	0x1
 5051 10f4 2A       		.uleb128 0x2a
 5052 10f5 BA030000 		.4byte	.LASF199
 5053 10f9 01       		.byte	0x1
 5054 10fa 2F       		.byte	0x2f
 5055 10fb 88040000 		.4byte	0x488
 5056 10ff 01       		.byte	0x1
 5057 1100 01       		.byte	0x1
 5058 1101 2B       		.uleb128 0x2b
 5059 1102 54000000 		.4byte	0x54
 5060 1106 12110000 		.4byte	0x1112
ARM GAS  C:\Users\z80\AppData\Local\Temp\ccJfsMfL.s 			page 91


 5061 110a 2D       		.uleb128 0x2d
 5062 110b 42030000 		.4byte	0x342
 5063 110f 7F01     		.2byte	0x17f
 5064 1111 00       		.byte	0x0
 5065 1112 2A       		.uleb128 0x2a
 5066 1113 0D020000 		.4byte	.LASF200
 5067 1117 01       		.byte	0x1
 5068 1118 30       		.byte	0x30
 5069 1119 01110000 		.4byte	0x1101
 5070 111d 01       		.byte	0x1
 5071 111e 01       		.byte	0x1
 5072 111f 2A       		.uleb128 0x2a
 5073 1120 48070000 		.4byte	.LASF151
 5074 1124 01       		.byte	0x1
 5075 1125 4A       		.byte	0x4a
 5076 1126 54000000 		.4byte	0x54
 5077 112a 01       		.byte	0x1
 5078 112b 01       		.byte	0x1
 5079 112c 2B       		.uleb128 0x2b
 5080 112d 5D070000 		.4byte	0x75d
 5081 1131 3C110000 		.4byte	0x113c
 5082 1135 2C       		.uleb128 0x2c
 5083 1136 42030000 		.4byte	0x342
 5084 113a 05       		.byte	0x5
 5085 113b 00       		.byte	0x0
 5086 113c 1D       		.uleb128 0x1d
 5087 113d F5070000 		.4byte	.LASF201
 5088 1141 01       		.byte	0x1
 5089 1142 6D       		.byte	0x6d
 5090 1143 2C110000 		.4byte	0x112c
 5091 1147 05       		.byte	0x5
 5092 1148 03       		.byte	0x3
 5093 1149 00000000 		.4byte	adcSamples
 5094 114d 1D       		.uleb128 0x1d
 5095 114e BB060000 		.4byte	.LASF202
 5096 1152 01       		.byte	0x1
 5097 1153 7C       		.byte	0x7c
 5098 1154 75090000 		.4byte	0x975
 5099 1158 05       		.byte	0x5
 5100 1159 03       		.byte	0x3
 5101 115a 00000000 		.4byte	adcGroup
 5102 115e 29       		.uleb128 0x29
 5103 115f 13030000 		.4byte	.LASF203
 5104 1163 01       		.byte	0x1
 5105 1164 1F01     		.2byte	0x11f
 5106 1166 91000000 		.4byte	0x91
 5107 116a 01       		.byte	0x1
 5108 116b 01       		.byte	0x1
 5109 116c 29       		.uleb128 0x29
 5110 116d 71030000 		.4byte	.LASF204
 5111 1171 01       		.byte	0x1
 5112 1172 2001     		.2byte	0x120
 5113 1174 91000000 		.4byte	0x91
 5114 1178 01       		.byte	0x1
 5115 1179 01       		.byte	0x1
 5116 117a 29       		.uleb128 0x29
 5117 117b C2070000 		.4byte	.LASF205
ARM GAS  C:\Users\z80\AppData\Local\Temp\ccJfsMfL.s 			page 92


 5118 117f 01       		.byte	0x1
 5119 1180 2101     		.2byte	0x121
 5120 1182 B0090000 		.4byte	0x9b0
 5121 1186 01       		.byte	0x1
 5122 1187 01       		.byte	0x1
 5123 1188 29       		.uleb128 0x29
 5124 1189 22040000 		.4byte	.LASF206
 5125 118d 01       		.byte	0x1
 5126 118e 2101     		.2byte	0x121
 5127 1190 B0090000 		.4byte	0x9b0
 5128 1194 01       		.byte	0x1
 5129 1195 01       		.byte	0x1
 5130 1196 29       		.uleb128 0x29
 5131 1197 ED020000 		.4byte	.LASF207
 5132 119b 01       		.byte	0x1
 5133 119c 4601     		.2byte	0x146
 5134 119e 91000000 		.4byte	0x91
 5135 11a2 01       		.byte	0x1
 5136 11a3 01       		.byte	0x1
 5137 11a4 29       		.uleb128 0x29
 5138 11a5 FC020000 		.4byte	.LASF208
 5139 11a9 01       		.byte	0x1
 5140 11aa 4701     		.2byte	0x147
 5141 11ac 91000000 		.4byte	0x91
 5142 11b0 01       		.byte	0x1
 5143 11b1 01       		.byte	0x1
 5144 11b2 29       		.uleb128 0x29
 5145 11b3 35020000 		.4byte	.LASF209
 5146 11b7 01       		.byte	0x1
 5147 11b8 4801     		.2byte	0x148
 5148 11ba 91000000 		.4byte	0x91
 5149 11be 01       		.byte	0x1
 5150 11bf 01       		.byte	0x1
 5151 11c0 29       		.uleb128 0x29
 5152 11c1 B2010000 		.4byte	.LASF210
 5153 11c5 01       		.byte	0x1
 5154 11c6 4901     		.2byte	0x149
 5155 11c8 B0090000 		.4byte	0x9b0
 5156 11cc 01       		.byte	0x1
 5157 11cd 01       		.byte	0x1
 5158 11ce 29       		.uleb128 0x29
 5159 11cf 92080000 		.4byte	.LASF211
 5160 11d3 01       		.byte	0x1
 5161 11d4 4A01     		.2byte	0x14a
 5162 11d6 B0090000 		.4byte	0x9b0
 5163 11da 01       		.byte	0x1
 5164 11db 01       		.byte	0x1
 5165 11dc 29       		.uleb128 0x29
 5166 11dd D1080000 		.4byte	.LASF212
 5167 11e1 01       		.byte	0x1
 5168 11e2 7601     		.2byte	0x176
 5169 11e4 7F000000 		.4byte	0x7f
 5170 11e8 01       		.byte	0x1
 5171 11e9 01       		.byte	0x1
 5172 11ea 29       		.uleb128 0x29
 5173 11eb 54010000 		.4byte	.LASF213
 5174 11ef 01       		.byte	0x1
ARM GAS  C:\Users\z80\AppData\Local\Temp\ccJfsMfL.s 			page 93


 5175 11f0 7701     		.2byte	0x177
 5176 11f2 CD0D0000 		.4byte	0xdcd
 5177 11f6 01       		.byte	0x1
 5178 11f7 01       		.byte	0x1
 5179 11f8 29       		.uleb128 0x29
 5180 11f9 DC060000 		.4byte	.LASF214
 5181 11fd 01       		.byte	0x1
 5182 11fe 7801     		.2byte	0x178
 5183 1200 7F000000 		.4byte	0x7f
 5184 1204 01       		.byte	0x1
 5185 1205 01       		.byte	0x1
 5186 1206 29       		.uleb128 0x29
 5187 1207 6D060000 		.4byte	.LASF215
 5188 120b 01       		.byte	0x1
 5189 120c 7901     		.2byte	0x179
 5190 120e B0090000 		.4byte	0x9b0
 5191 1212 01       		.byte	0x1
 5192 1213 01       		.byte	0x1
 5193 1214 29       		.uleb128 0x29
 5194 1215 77060000 		.4byte	.LASF216
 5195 1219 01       		.byte	0x1
 5196 121a 7A01     		.2byte	0x17a
 5197 121c B0090000 		.4byte	0x9b0
 5198 1220 01       		.byte	0x1
 5199 1221 01       		.byte	0x1
 5200 1222 29       		.uleb128 0x29
 5201 1223 6D040000 		.4byte	.LASF217
 5202 1227 01       		.byte	0x1
 5203 1228 7B01     		.2byte	0x17b
 5204 122a 42000000 		.4byte	0x42
 5205 122e 01       		.byte	0x1
 5206 122f 01       		.byte	0x1
 5207 1230 29       		.uleb128 0x29
 5208 1231 92000000 		.4byte	.LASF218
 5209 1235 01       		.byte	0x1
 5210 1236 7C01     		.2byte	0x17c
 5211 1238 CD0D0000 		.4byte	0xdcd
 5212 123c 01       		.byte	0x1
 5213 123d 01       		.byte	0x1
 5214 123e 29       		.uleb128 0x29
 5215 123f 99000000 		.4byte	.LASF219
 5216 1243 01       		.byte	0x1
 5217 1244 7C01     		.2byte	0x17c
 5218 1246 CD0D0000 		.4byte	0xdcd
 5219 124a 01       		.byte	0x1
 5220 124b 01       		.byte	0x1
 5221 124c 2B       		.uleb128 0x2b
 5222 124d 91000000 		.4byte	0x91
 5223 1251 5C120000 		.4byte	0x125c
 5224 1255 2C       		.uleb128 0x2c
 5225 1256 42030000 		.4byte	0x342
 5226 125a 02       		.byte	0x2
 5227 125b 00       		.byte	0x0
 5228 125c 24       		.uleb128 0x24
 5229 125d CA040000 		.4byte	.LASF220
 5230 1261 01       		.byte	0x1
 5231 1262 C401     		.2byte	0x1c4
ARM GAS  C:\Users\z80\AppData\Local\Temp\ccJfsMfL.s 			page 94


 5232 1264 4C120000 		.4byte	0x124c
 5233 1268 05       		.byte	0x5
 5234 1269 03       		.byte	0x3
 5235 126a 00000000 		.4byte	filtered
 5236 126e 29       		.uleb128 0x29
 5237 126f DD070000 		.4byte	.LASF181
 5238 1273 10       		.byte	0x10
 5239 1274 9404     		.2byte	0x494
 5240 1276 9E040000 		.4byte	0x49e
 5241 127a 01       		.byte	0x1
 5242 127b 01       		.byte	0x1
 5243 127c 29       		.uleb128 0x29
 5244 127d F7050000 		.4byte	.LASF182
 5245 1281 0E       		.byte	0xe
 5246 1282 8101     		.2byte	0x181
 5247 1284 8D070000 		.4byte	0x78d
 5248 1288 01       		.byte	0x1
 5249 1289 01       		.byte	0x1
 5250 128a 2E       		.uleb128 0x2e
 5251 128b 22060000 		.4byte	.LASF221
 5252 128f 01       		.byte	0x1
 5253 1290 11       		.byte	0x11
 5254 1291 29000000 		.4byte	0x29
 5255 1295 01       		.byte	0x1
 5256 1296 05       		.byte	0x5
 5257 1297 03       		.byte	0x3
 5258 1298 00000000 		.4byte	fbEn
 5259 129c 2E       		.uleb128 0x2e
 5260 129d ED030000 		.4byte	.LASF222
 5261 12a1 01       		.byte	0x1
 5262 12a2 12       		.byte	0x12
 5263 12a3 29000000 		.4byte	0x29
 5264 12a7 01       		.byte	0x1
 5265 12a8 05       		.byte	0x5
 5266 12a9 03       		.byte	0x3
 5267 12aa 00000000 		.4byte	fbEnPrev
 5268 12ae 2E       		.uleb128 0x2e
 5269 12af 18060000 		.4byte	.LASF223
 5270 12b3 01       		.byte	0x1
 5271 12b4 13       		.byte	0x13
 5272 12b5 29000000 		.4byte	0x29
 5273 12b9 01       		.byte	0x1
 5274 12ba 05       		.byte	0x5
 5275 12bb 03       		.byte	0x3
 5276 12bc 00000000 		.4byte	fbGainNum
 5277 12c0 2E       		.uleb128 0x2e
 5278 12c1 BB000000 		.4byte	.LASF224
 5279 12c5 01       		.byte	0x1
 5280 12c6 14       		.byte	0x14
 5281 12c7 29000000 		.4byte	0x29
 5282 12cb 01       		.byte	0x1
 5283 12cc 05       		.byte	0x5
 5284 12cd 03       		.byte	0x3
 5285 12ce 00000000 		.4byte	fbGainDen
 5286 12d2 2E       		.uleb128 0x2e
 5287 12d3 4B080000 		.4byte	.LASF225
 5288 12d7 01       		.byte	0x1
ARM GAS  C:\Users\z80\AppData\Local\Temp\ccJfsMfL.s 			page 95


 5289 12d8 15       		.byte	0x15
 5290 12d9 29000000 		.4byte	0x29
 5291 12dd 01       		.byte	0x1
 5292 12de 05       		.byte	0x5
 5293 12df 03       		.byte	0x3
 5294 12e0 00000000 		.4byte	fbInIndex
 5295 12e4 2E       		.uleb128 0x2e
 5296 12e5 6E020000 		.4byte	.LASF226
 5297 12e9 01       		.byte	0x1
 5298 12ea 16       		.byte	0x16
 5299 12eb 29000000 		.4byte	0x29
 5300 12ef 01       		.byte	0x1
 5301 12f0 05       		.byte	0x5
 5302 12f1 03       		.byte	0x3
 5303 12f2 00000000 		.4byte	fbSetpoint
 5304 12f6 2E       		.uleb128 0x2e
 5305 12f7 A0000000 		.4byte	.LASF183
 5306 12fb 01       		.byte	0x1
 5307 12fc 17       		.byte	0x17
 5308 12fd 29000000 		.4byte	0x29
 5309 1301 01       		.byte	0x1
 5310 1302 05       		.byte	0x5
 5311 1303 03       		.byte	0x3
 5312 1304 00000000 		.4byte	dacHigh
 5313 1308 2E       		.uleb128 0x2e
 5314 1309 41020000 		.4byte	.LASF184
 5315 130d 01       		.byte	0x1
 5316 130e 18       		.byte	0x18
 5317 130f 29000000 		.4byte	0x29
 5318 1313 01       		.byte	0x1
 5319 1314 05       		.byte	0x5
 5320 1315 03       		.byte	0x3
 5321 1316 00000000 		.4byte	dacLow
 5322 131a 2E       		.uleb128 0x2e
 5323 131b EA070000 		.4byte	.LASF185
 5324 131f 01       		.byte	0x1
 5325 1320 1B       		.byte	0x1b
 5326 1321 88040000 		.4byte	0x488
 5327 1325 01       		.byte	0x1
 5328 1326 05       		.byte	0x5
 5329 1327 03       		.byte	0x3
 5330 1328 00000000 		.4byte	eaux_queue
 5331 132c 2E       		.uleb128 0x2e
 5332 132d B2050000 		.4byte	.LASF186
 5333 1331 01       		.byte	0x1
 5334 1332 1B       		.byte	0x1b
 5335 1333 88040000 		.4byte	0x488
 5336 1337 01       		.byte	0x1
 5337 1338 05       		.byte	0x5
 5338 1339 03       		.byte	0x3
 5339 133a 00000000 		.4byte	eref_queue
 5340 133e 2E       		.uleb128 0x2e
 5341 133f 4D070000 		.4byte	.LASF187
 5342 1343 01       		.byte	0x1
 5343 1344 1B       		.byte	0x1b
 5344 1345 88040000 		.4byte	0x488
 5345 1349 01       		.byte	0x1
ARM GAS  C:\Users\z80\AppData\Local\Temp\ccJfsMfL.s 			page 96


 5346 134a 05       		.byte	0x5
 5347 134b 03       		.byte	0x3
 5348 134c 00000000 		.4byte	iaux_queue
 5349 1350 2E       		.uleb128 0x2e
 5350 1351 3C030000 		.4byte	.LASF188
 5351 1355 01       		.byte	0x1
 5352 1356 1C       		.byte	0x1c
 5353 1357 45100000 		.4byte	0x1045
 5354 135b 01       		.byte	0x1
 5355 135c 05       		.byte	0x5
 5356 135d 03       		.byte	0x3
 5357 135e 00000000 		.4byte	eaux_queue_buffer
 5358 1362 2E       		.uleb128 0x2e
 5359 1363 2C080000 		.4byte	.LASF189
 5360 1367 01       		.byte	0x1
 5361 1368 1D       		.byte	0x1d
 5362 1369 45100000 		.4byte	0x1045
 5363 136d 01       		.byte	0x1
 5364 136e 05       		.byte	0x5
 5365 136f 03       		.byte	0x3
 5366 1370 00000000 		.4byte	eref_queue_buffer
 5367 1374 2E       		.uleb128 0x2e
 5368 1375 7D070000 		.4byte	.LASF190
 5369 1379 01       		.byte	0x1
 5370 137a 1E       		.byte	0x1e
 5371 137b 45100000 		.4byte	0x1045
 5372 137f 01       		.byte	0x1
 5373 1380 05       		.byte	0x5
 5374 1381 03       		.byte	0x3
 5375 1382 00000000 		.4byte	iaux_queue_buffer
 5376 1386 2E       		.uleb128 0x2e
 5377 1387 78040000 		.4byte	.LASF191
 5378 138b 01       		.byte	0x1
 5379 138c 21       		.byte	0x21
 5380 138d 93040000 		.4byte	0x493
 5381 1391 01       		.byte	0x1
 5382 1392 05       		.byte	0x5
 5383 1393 03       		.byte	0x3
 5384 1394 00000000 		.4byte	command_queue
 5385 1398 2E       		.uleb128 0x2e
 5386 1399 5D000000 		.4byte	.LASF192
 5387 139d 01       		.byte	0x1
 5388 139e 22       		.byte	0x22
 5389 139f 89100000 		.4byte	0x1089
 5390 13a3 01       		.byte	0x1
 5391 13a4 05       		.byte	0x5
 5392 13a5 03       		.byte	0x3
 5393 13a6 00000000 		.4byte	command_queue_buffer
 5394 13aa 2E       		.uleb128 0x2e
 5395 13ab FD050000 		.4byte	.LASF193
 5396 13af 01       		.byte	0x1
 5397 13b0 24       		.byte	0x24
 5398 13b1 29000000 		.4byte	0x29
 5399 13b5 01       		.byte	0x1
 5400 13b6 05       		.byte	0x5
 5401 13b7 03       		.byte	0x3
 5402 13b8 00000000 		.4byte	oscPeriod
ARM GAS  C:\Users\z80\AppData\Local\Temp\ccJfsMfL.s 			page 97


 5403 13bc 2E       		.uleb128 0x2e
 5404 13bd 24080000 		.4byte	.LASF194
 5405 13c1 01       		.byte	0x1
 5406 13c2 25       		.byte	0x25
 5407 13c3 29000000 		.4byte	0x29
 5408 13c7 01       		.byte	0x1
 5409 13c8 05       		.byte	0x5
 5410 13c9 03       		.byte	0x3
 5411 13ca 00000000 		.4byte	oscTime
 5412 13ce 2E       		.uleb128 0x2e
 5413 13cf B5040000 		.4byte	.LASF195
 5414 13d3 01       		.byte	0x1
 5415 13d4 28       		.byte	0x28
 5416 13d5 29000000 		.4byte	0x29
 5417 13d9 01       		.byte	0x1
 5418 13da 05       		.byte	0x5
 5419 13db 03       		.byte	0x3
 5420 13dc 00000000 		.4byte	bufferPeriod
 5421 13e0 2E       		.uleb128 0x2e
 5422 13e1 96040000 		.4byte	.LASF196
 5423 13e5 01       		.byte	0x1
 5424 13e6 29       		.byte	0x29
 5425 13e7 29000000 		.4byte	0x29
 5426 13eb 01       		.byte	0x1
 5427 13ec 05       		.byte	0x5
 5428 13ed 03       		.byte	0x3
 5429 13ee 00000000 		.4byte	bufferTime
 5430 13f2 2E       		.uleb128 0x2e
 5431 13f3 22050000 		.4byte	.LASF197
 5432 13f7 01       		.byte	0x1
 5433 13f8 2A       		.byte	0x2a
 5434 13f9 54000000 		.4byte	0x54
 5435 13fd 01       		.byte	0x1
 5436 13fe 05       		.byte	0x5
 5437 13ff 03       		.byte	0x3
 5438 1400 00000000 		.4byte	bufferMask
 5439 1404 2E       		.uleb128 0x2e
 5440 1405 0D080000 		.4byte	.LASF198
 5441 1409 01       		.byte	0x1
 5442 140a 2B       		.byte	0x2b
 5443 140b 54000000 		.4byte	0x54
 5444 140f 01       		.byte	0x1
 5445 1410 05       		.byte	0x5
 5446 1411 03       		.byte	0x3
 5447 1412 00000000 		.4byte	bufferEnabled
 5448 1416 2E       		.uleb128 0x2e
 5449 1417 B2070000 		.4byte	.LASF227
 5450 141b 01       		.byte	0x1
 5451 141c 2C       		.byte	0x2c
 5452 141d 54000000 		.4byte	0x54
 5453 1421 01       		.byte	0x1
 5454 1422 05       		.byte	0x5
 5455 1423 03       		.byte	0x3
 5456 1424 00000000 		.4byte	bufferStoreData
 5457 1428 2E       		.uleb128 0x2e
 5458 1429 BA030000 		.4byte	.LASF199
 5459 142d 01       		.byte	0x1
ARM GAS  C:\Users\z80\AppData\Local\Temp\ccJfsMfL.s 			page 98


 5460 142e 2F       		.byte	0x2f
 5461 142f 88040000 		.4byte	0x488
 5462 1433 01       		.byte	0x1
 5463 1434 05       		.byte	0x5
 5464 1435 03       		.byte	0x3
 5465 1436 00000000 		.4byte	buffer_queue
 5466 143a 2E       		.uleb128 0x2e
 5467 143b 0D020000 		.4byte	.LASF200
 5468 143f 01       		.byte	0x1
 5469 1440 30       		.byte	0x30
 5470 1441 01110000 		.4byte	0x1101
 5471 1445 01       		.byte	0x1
 5472 1446 05       		.byte	0x5
 5473 1447 03       		.byte	0x3
 5474 1448 00000000 		.4byte	buffer_queue_buffer
 5475 144c 2E       		.uleb128 0x2e
 5476 144d 48070000 		.4byte	.LASF151
 5477 1451 01       		.byte	0x1
 5478 1452 4A       		.byte	0x4a
 5479 1453 54000000 		.4byte	0x54
 5480 1457 01       		.byte	0x1
 5481 1458 05       		.byte	0x5
 5482 1459 03       		.byte	0x3
 5483 145a 00000000 		.4byte	mode
 5484 145e 2F       		.uleb128 0x2f
 5485 145f 13030000 		.4byte	.LASF203
 5486 1463 01       		.byte	0x1
 5487 1464 1F01     		.2byte	0x11f
 5488 1466 91000000 		.4byte	0x91
 5489 146a 01       		.byte	0x1
 5490 146b 05       		.byte	0x5
 5491 146c 03       		.byte	0x3
 5492 146d 00000000 		.4byte	pulsePeriod
 5493 1471 2F       		.uleb128 0x2f
 5494 1472 71030000 		.4byte	.LASF204
 5495 1476 01       		.byte	0x1
 5496 1477 2001     		.2byte	0x120
 5497 1479 91000000 		.4byte	0x91
 5498 147d 01       		.byte	0x1
 5499 147e 05       		.byte	0x5
 5500 147f 03       		.byte	0x3
 5501 1480 00000000 		.4byte	pulseTime
 5502 1484 2F       		.uleb128 0x2f
 5503 1485 C2070000 		.4byte	.LASF205
 5504 1489 01       		.byte	0x1
 5505 148a 2101     		.2byte	0x121
 5506 148c B0090000 		.4byte	0x9b0
 5507 1490 01       		.byte	0x1
 5508 1491 05       		.byte	0x5
 5509 1492 03       		.byte	0x3
 5510 1493 00000000 		.4byte	pulseDac
 5511 1497 2F       		.uleb128 0x2f
 5512 1498 22040000 		.4byte	.LASF206
 5513 149c 01       		.byte	0x1
 5514 149d 2101     		.2byte	0x121
 5515 149f B0090000 		.4byte	0x9b0
 5516 14a3 01       		.byte	0x1
ARM GAS  C:\Users\z80\AppData\Local\Temp\ccJfsMfL.s 			page 99


 5517 14a4 05       		.byte	0x5
 5518 14a5 03       		.byte	0x3
 5519 14a6 00000000 		.4byte	pulseDacSave
 5520 14aa 2F       		.uleb128 0x2f
 5521 14ab ED020000 		.4byte	.LASF207
 5522 14af 01       		.byte	0x1
 5523 14b0 4601     		.2byte	0x146
 5524 14b2 91000000 		.4byte	0x91
 5525 14b6 01       		.byte	0x1
 5526 14b7 05       		.byte	0x5
 5527 14b8 03       		.byte	0x3
 5528 14b9 00000000 		.4byte	meanderPeriod1
 5529 14bd 2F       		.uleb128 0x2f
 5530 14be FC020000 		.4byte	.LASF208
 5531 14c2 01       		.byte	0x1
 5532 14c3 4701     		.2byte	0x147
 5533 14c5 91000000 		.4byte	0x91
 5534 14c9 01       		.byte	0x1
 5535 14ca 05       		.byte	0x5
 5536 14cb 03       		.byte	0x3
 5537 14cc 00000000 		.4byte	meanderPeriod2
 5538 14d0 2F       		.uleb128 0x2f
 5539 14d1 35020000 		.4byte	.LASF209
 5540 14d5 01       		.byte	0x1
 5541 14d6 4801     		.2byte	0x148
 5542 14d8 91000000 		.4byte	0x91
 5543 14dc 01       		.byte	0x1
 5544 14dd 05       		.byte	0x5
 5545 14de 03       		.byte	0x3
 5546 14df 00000000 		.4byte	meanderTime
 5547 14e3 2F       		.uleb128 0x2f
 5548 14e4 B2010000 		.4byte	.LASF210
 5549 14e8 01       		.byte	0x1
 5550 14e9 4901     		.2byte	0x149
 5551 14eb B0090000 		.4byte	0x9b0
 5552 14ef 01       		.byte	0x1
 5553 14f0 05       		.byte	0x5
 5554 14f1 03       		.byte	0x3
 5555 14f2 00000000 		.4byte	meanderDac1
 5556 14f6 2F       		.uleb128 0x2f
 5557 14f7 92080000 		.4byte	.LASF211
 5558 14fb 01       		.byte	0x1
 5559 14fc 4A01     		.2byte	0x14a
 5560 14fe B0090000 		.4byte	0x9b0
 5561 1502 01       		.byte	0x1
 5562 1503 05       		.byte	0x5
 5563 1504 03       		.byte	0x3
 5564 1505 00000000 		.4byte	meanderDac2
 5565 1509 2F       		.uleb128 0x2f
 5566 150a D1080000 		.4byte	.LASF212
 5567 150e 01       		.byte	0x1
 5568 150f 7601     		.2byte	0x176
 5569 1511 7F000000 		.4byte	0x7f
 5570 1515 01       		.byte	0x1
 5571 1516 05       		.byte	0x5
 5572 1517 03       		.byte	0x3
 5573 1518 00000000 		.4byte	sweepPeriod
ARM GAS  C:\Users\z80\AppData\Local\Temp\ccJfsMfL.s 			page 100


 5574 151c 2F       		.uleb128 0x2f
 5575 151d 54010000 		.4byte	.LASF213
 5576 1521 01       		.byte	0x1
 5577 1522 7701     		.2byte	0x177
 5578 1524 CD0D0000 		.4byte	0xdcd
 5579 1528 01       		.byte	0x1
 5580 1529 05       		.byte	0x5
 5581 152a 03       		.byte	0x3
 5582 152b 00000000 		.4byte	sweepPeriodInvf
 5583 152f 2F       		.uleb128 0x2f
 5584 1530 DC060000 		.4byte	.LASF214
 5585 1534 01       		.byte	0x1
 5586 1535 7801     		.2byte	0x178
 5587 1537 7F000000 		.4byte	0x7f
 5588 153b 01       		.byte	0x1
 5589 153c 05       		.byte	0x5
 5590 153d 03       		.byte	0x3
 5591 153e 00000000 		.4byte	sweepTime
 5592 1542 2F       		.uleb128 0x2f
 5593 1543 6D060000 		.4byte	.LASF215
 5594 1547 01       		.byte	0x1
 5595 1548 7901     		.2byte	0x179
 5596 154a B0090000 		.4byte	0x9b0
 5597 154e 01       		.byte	0x1
 5598 154f 05       		.byte	0x5
 5599 1550 03       		.byte	0x3
 5600 1551 00000000 		.4byte	sweepDac1
 5601 1555 2F       		.uleb128 0x2f
 5602 1556 77060000 		.4byte	.LASF216
 5603 155a 01       		.byte	0x1
 5604 155b 7A01     		.2byte	0x17a
 5605 155d B0090000 		.4byte	0x9b0
 5606 1561 01       		.byte	0x1
 5607 1562 05       		.byte	0x5
 5608 1563 03       		.byte	0x3
 5609 1564 00000000 		.4byte	sweepDac2
 5610 1568 2F       		.uleb128 0x2f
 5611 1569 6D040000 		.4byte	.LASF217
 5612 156d 01       		.byte	0x1
 5613 156e 7B01     		.2byte	0x17b
 5614 1570 42000000 		.4byte	0x42
 5615 1574 01       		.byte	0x1
 5616 1575 05       		.byte	0x5
 5617 1576 03       		.byte	0x3
 5618 1577 00000000 		.4byte	sweepSpeed
 5619 157b 2F       		.uleb128 0x2f
 5620 157c 92000000 		.4byte	.LASF218
 5621 1580 01       		.byte	0x1
 5622 1581 7C01     		.2byte	0x17c
 5623 1583 CD0D0000 		.4byte	0xdcd
 5624 1587 01       		.byte	0x1
 5625 1588 05       		.byte	0x5
 5626 1589 03       		.byte	0x3
 5627 158a 00000000 		.4byte	dDacf1
 5628 158e 2F       		.uleb128 0x2f
 5629 158f 99000000 		.4byte	.LASF219
 5630 1593 01       		.byte	0x1
ARM GAS  C:\Users\z80\AppData\Local\Temp\ccJfsMfL.s 			page 101


 5631 1594 7C01     		.2byte	0x17c
 5632 1596 CD0D0000 		.4byte	0xdcd
 5633 159a 01       		.byte	0x1
 5634 159b 05       		.byte	0x5
 5635 159c 03       		.byte	0x3
 5636 159d 00000000 		.4byte	dDacf2
 5637 15a1 00       		.byte	0x0
 5638              		.section	.debug_abbrev
 5639 0000 01       		.uleb128 0x1
 5640 0001 11       		.uleb128 0x11
 5641 0002 01       		.byte	0x1
 5642 0003 25       		.uleb128 0x25
 5643 0004 0E       		.uleb128 0xe
 5644 0005 13       		.uleb128 0x13
 5645 0006 0B       		.uleb128 0xb
 5646 0007 03       		.uleb128 0x3
 5647 0008 0E       		.uleb128 0xe
 5648 0009 1B       		.uleb128 0x1b
 5649 000a 0E       		.uleb128 0xe
 5650 000b 11       		.uleb128 0x11
 5651 000c 01       		.uleb128 0x1
 5652 000d 52       		.uleb128 0x52
 5653 000e 01       		.uleb128 0x1
 5654 000f 55       		.uleb128 0x55
 5655 0010 06       		.uleb128 0x6
 5656 0011 10       		.uleb128 0x10
 5657 0012 06       		.uleb128 0x6
 5658 0013 00       		.byte	0x0
 5659 0014 00       		.byte	0x0
 5660 0015 02       		.uleb128 0x2
 5661 0016 24       		.uleb128 0x24
 5662 0017 00       		.byte	0x0
 5663 0018 0B       		.uleb128 0xb
 5664 0019 0B       		.uleb128 0xb
 5665 001a 3E       		.uleb128 0x3e
 5666 001b 0B       		.uleb128 0xb
 5667 001c 03       		.uleb128 0x3
 5668 001d 08       		.uleb128 0x8
 5669 001e 00       		.byte	0x0
 5670 001f 00       		.byte	0x0
 5671 0020 03       		.uleb128 0x3
 5672 0021 16       		.uleb128 0x16
 5673 0022 00       		.byte	0x0
 5674 0023 03       		.uleb128 0x3
 5675 0024 0E       		.uleb128 0xe
 5676 0025 3A       		.uleb128 0x3a
 5677 0026 0B       		.uleb128 0xb
 5678 0027 3B       		.uleb128 0x3b
 5679 0028 0B       		.uleb128 0xb
 5680 0029 49       		.uleb128 0x49
 5681 002a 13       		.uleb128 0x13
 5682 002b 00       		.byte	0x0
 5683 002c 00       		.byte	0x0
 5684 002d 04       		.uleb128 0x4
 5685 002e 24       		.uleb128 0x24
 5686 002f 00       		.byte	0x0
 5687 0030 0B       		.uleb128 0xb
ARM GAS  C:\Users\z80\AppData\Local\Temp\ccJfsMfL.s 			page 102


 5688 0031 0B       		.uleb128 0xb
 5689 0032 3E       		.uleb128 0x3e
 5690 0033 0B       		.uleb128 0xb
 5691 0034 03       		.uleb128 0x3
 5692 0035 0E       		.uleb128 0xe
 5693 0036 00       		.byte	0x0
 5694 0037 00       		.byte	0x0
 5695 0038 05       		.uleb128 0x5
 5696 0039 13       		.uleb128 0x13
 5697 003a 01       		.byte	0x1
 5698 003b 03       		.uleb128 0x3
 5699 003c 0E       		.uleb128 0xe
 5700 003d 0B       		.uleb128 0xb
 5701 003e 0B       		.uleb128 0xb
 5702 003f 3A       		.uleb128 0x3a
 5703 0040 0B       		.uleb128 0xb
 5704 0041 3B       		.uleb128 0x3b
 5705 0042 0B       		.uleb128 0xb
 5706 0043 01       		.uleb128 0x1
 5707 0044 13       		.uleb128 0x13
 5708 0045 00       		.byte	0x0
 5709 0046 00       		.byte	0x0
 5710 0047 06       		.uleb128 0x6
 5711 0048 0D       		.uleb128 0xd
 5712 0049 00       		.byte	0x0
 5713 004a 03       		.uleb128 0x3
 5714 004b 0E       		.uleb128 0xe
 5715 004c 3A       		.uleb128 0x3a
 5716 004d 0B       		.uleb128 0xb
 5717 004e 3B       		.uleb128 0x3b
 5718 004f 0B       		.uleb128 0xb
 5719 0050 49       		.uleb128 0x49
 5720 0051 13       		.uleb128 0x13
 5721 0052 38       		.uleb128 0x38
 5722 0053 0A       		.uleb128 0xa
 5723 0054 00       		.byte	0x0
 5724 0055 00       		.byte	0x0
 5725 0056 07       		.uleb128 0x7
 5726 0057 0D       		.uleb128 0xd
 5727 0058 00       		.byte	0x0
 5728 0059 03       		.uleb128 0x3
 5729 005a 08       		.uleb128 0x8
 5730 005b 3A       		.uleb128 0x3a
 5731 005c 0B       		.uleb128 0xb
 5732 005d 3B       		.uleb128 0x3b
 5733 005e 0B       		.uleb128 0xb
 5734 005f 49       		.uleb128 0x49
 5735 0060 13       		.uleb128 0x13
 5736 0061 38       		.uleb128 0x38
 5737 0062 0A       		.uleb128 0xa
 5738 0063 00       		.byte	0x0
 5739 0064 00       		.byte	0x0
 5740 0065 08       		.uleb128 0x8
 5741 0066 13       		.uleb128 0x13
 5742 0067 01       		.byte	0x1
 5743 0068 0B       		.uleb128 0xb
 5744 0069 0B       		.uleb128 0xb
ARM GAS  C:\Users\z80\AppData\Local\Temp\ccJfsMfL.s 			page 103


 5745 006a 3A       		.uleb128 0x3a
 5746 006b 0B       		.uleb128 0xb
 5747 006c 3B       		.uleb128 0x3b
 5748 006d 0B       		.uleb128 0xb
 5749 006e 01       		.uleb128 0x1
 5750 006f 13       		.uleb128 0x13
 5751 0070 00       		.byte	0x0
 5752 0071 00       		.byte	0x0
 5753 0072 09       		.uleb128 0x9
 5754 0073 0F       		.uleb128 0xf
 5755 0074 00       		.byte	0x0
 5756 0075 0B       		.uleb128 0xb
 5757 0076 0B       		.uleb128 0xb
 5758 0077 49       		.uleb128 0x49
 5759 0078 13       		.uleb128 0x13
 5760 0079 00       		.byte	0x0
 5761 007a 00       		.byte	0x0
 5762 007b 0A       		.uleb128 0xa
 5763 007c 0F       		.uleb128 0xf
 5764 007d 00       		.byte	0x0
 5765 007e 0B       		.uleb128 0xb
 5766 007f 0B       		.uleb128 0xb
 5767 0080 00       		.byte	0x0
 5768 0081 00       		.byte	0x0
 5769 0082 0B       		.uleb128 0xb
 5770 0083 0D       		.uleb128 0xd
 5771 0084 00       		.byte	0x0
 5772 0085 03       		.uleb128 0x3
 5773 0086 08       		.uleb128 0x8
 5774 0087 3A       		.uleb128 0x3a
 5775 0088 0B       		.uleb128 0xb
 5776 0089 3B       		.uleb128 0x3b
 5777 008a 05       		.uleb128 0x5
 5778 008b 49       		.uleb128 0x49
 5779 008c 13       		.uleb128 0x13
 5780 008d 38       		.uleb128 0x38
 5781 008e 0A       		.uleb128 0xa
 5782 008f 00       		.byte	0x0
 5783 0090 00       		.byte	0x0
 5784 0091 0C       		.uleb128 0xc
 5785 0092 13       		.uleb128 0x13
 5786 0093 01       		.byte	0x1
 5787 0094 03       		.uleb128 0x3
 5788 0095 0E       		.uleb128 0xe
 5789 0096 0B       		.uleb128 0xb
 5790 0097 0B       		.uleb128 0xb
 5791 0098 3A       		.uleb128 0x3a
 5792 0099 0B       		.uleb128 0xb
 5793 009a 3B       		.uleb128 0x3b
 5794 009b 05       		.uleb128 0x5
 5795 009c 01       		.uleb128 0x1
 5796 009d 13       		.uleb128 0x13
 5797 009e 00       		.byte	0x0
 5798 009f 00       		.byte	0x0
 5799 00a0 0D       		.uleb128 0xd
 5800 00a1 35       		.uleb128 0x35
 5801 00a2 00       		.byte	0x0
ARM GAS  C:\Users\z80\AppData\Local\Temp\ccJfsMfL.s 			page 104


 5802 00a3 49       		.uleb128 0x49
 5803 00a4 13       		.uleb128 0x13
 5804 00a5 00       		.byte	0x0
 5805 00a6 00       		.byte	0x0
 5806 00a7 0E       		.uleb128 0xe
 5807 00a8 24       		.uleb128 0x24
 5808 00a9 00       		.byte	0x0
 5809 00aa 0B       		.uleb128 0xb
 5810 00ab 0B       		.uleb128 0xb
 5811 00ac 3E       		.uleb128 0x3e
 5812 00ad 0B       		.uleb128 0xb
 5813 00ae 00       		.byte	0x0
 5814 00af 00       		.byte	0x0
 5815 00b0 0F       		.uleb128 0xf
 5816 00b1 17       		.uleb128 0x17
 5817 00b2 01       		.byte	0x1
 5818 00b3 0B       		.uleb128 0xb
 5819 00b4 0B       		.uleb128 0xb
 5820 00b5 3A       		.uleb128 0x3a
 5821 00b6 0B       		.uleb128 0xb
 5822 00b7 3B       		.uleb128 0x3b
 5823 00b8 0B       		.uleb128 0xb
 5824 00b9 01       		.uleb128 0x1
 5825 00ba 13       		.uleb128 0x13
 5826 00bb 00       		.byte	0x0
 5827 00bc 00       		.byte	0x0
 5828 00bd 10       		.uleb128 0x10
 5829 00be 0D       		.uleb128 0xd
 5830 00bf 00       		.byte	0x0
 5831 00c0 03       		.uleb128 0x3
 5832 00c1 0E       		.uleb128 0xe
 5833 00c2 3A       		.uleb128 0x3a
 5834 00c3 0B       		.uleb128 0xb
 5835 00c4 3B       		.uleb128 0x3b
 5836 00c5 0B       		.uleb128 0xb
 5837 00c6 49       		.uleb128 0x49
 5838 00c7 13       		.uleb128 0x13
 5839 00c8 00       		.byte	0x0
 5840 00c9 00       		.byte	0x0
 5841 00ca 11       		.uleb128 0x11
 5842 00cb 26       		.uleb128 0x26
 5843 00cc 00       		.byte	0x0
 5844 00cd 49       		.uleb128 0x49
 5845 00ce 13       		.uleb128 0x13
 5846 00cf 00       		.byte	0x0
 5847 00d0 00       		.byte	0x0
 5848 00d1 12       		.uleb128 0x12
 5849 00d2 15       		.uleb128 0x15
 5850 00d3 01       		.byte	0x1
 5851 00d4 27       		.uleb128 0x27
 5852 00d5 0C       		.uleb128 0xc
 5853 00d6 01       		.uleb128 0x1
 5854 00d7 13       		.uleb128 0x13
 5855 00d8 00       		.byte	0x0
 5856 00d9 00       		.byte	0x0
 5857 00da 13       		.uleb128 0x13
 5858 00db 05       		.uleb128 0x5
ARM GAS  C:\Users\z80\AppData\Local\Temp\ccJfsMfL.s 			page 105


 5859 00dc 00       		.byte	0x0
 5860 00dd 49       		.uleb128 0x49
 5861 00de 13       		.uleb128 0x13
 5862 00df 00       		.byte	0x0
 5863 00e0 00       		.byte	0x0
 5864 00e1 14       		.uleb128 0x14
 5865 00e2 13       		.uleb128 0x13
 5866 00e3 01       		.byte	0x1
 5867 00e4 0B       		.uleb128 0xb
 5868 00e5 0B       		.uleb128 0xb
 5869 00e6 3A       		.uleb128 0x3a
 5870 00e7 0B       		.uleb128 0xb
 5871 00e8 3B       		.uleb128 0x3b
 5872 00e9 05       		.uleb128 0x5
 5873 00ea 01       		.uleb128 0x1
 5874 00eb 13       		.uleb128 0x13
 5875 00ec 00       		.byte	0x0
 5876 00ed 00       		.byte	0x0
 5877 00ee 15       		.uleb128 0x15
 5878 00ef 0D       		.uleb128 0xd
 5879 00f0 00       		.byte	0x0
 5880 00f1 03       		.uleb128 0x3
 5881 00f2 0E       		.uleb128 0xe
 5882 00f3 3A       		.uleb128 0x3a
 5883 00f4 0B       		.uleb128 0xb
 5884 00f5 3B       		.uleb128 0x3b
 5885 00f6 05       		.uleb128 0x5
 5886 00f7 49       		.uleb128 0x49
 5887 00f8 13       		.uleb128 0x13
 5888 00f9 38       		.uleb128 0x38
 5889 00fa 0A       		.uleb128 0xa
 5890 00fb 00       		.byte	0x0
 5891 00fc 00       		.byte	0x0
 5892 00fd 16       		.uleb128 0x16
 5893 00fe 16       		.uleb128 0x16
 5894 00ff 00       		.byte	0x0
 5895 0100 03       		.uleb128 0x3
 5896 0101 0E       		.uleb128 0xe
 5897 0102 3A       		.uleb128 0x3a
 5898 0103 0B       		.uleb128 0xb
 5899 0104 3B       		.uleb128 0x3b
 5900 0105 05       		.uleb128 0x5
 5901 0106 49       		.uleb128 0x49
 5902 0107 13       		.uleb128 0x13
 5903 0108 00       		.byte	0x0
 5904 0109 00       		.byte	0x0
 5905 010a 17       		.uleb128 0x17
 5906 010b 04       		.uleb128 0x4
 5907 010c 01       		.byte	0x1
 5908 010d 0B       		.uleb128 0xb
 5909 010e 0B       		.uleb128 0xb
 5910 010f 3A       		.uleb128 0x3a
 5911 0110 0B       		.uleb128 0xb
 5912 0111 3B       		.uleb128 0x3b
 5913 0112 0B       		.uleb128 0xb
 5914 0113 01       		.uleb128 0x1
 5915 0114 13       		.uleb128 0x13
ARM GAS  C:\Users\z80\AppData\Local\Temp\ccJfsMfL.s 			page 106


 5916 0115 00       		.byte	0x0
 5917 0116 00       		.byte	0x0
 5918 0117 18       		.uleb128 0x18
 5919 0118 28       		.uleb128 0x28
 5920 0119 00       		.byte	0x0
 5921 011a 03       		.uleb128 0x3
 5922 011b 0E       		.uleb128 0xe
 5923 011c 1C       		.uleb128 0x1c
 5924 011d 0D       		.uleb128 0xd
 5925 011e 00       		.byte	0x0
 5926 011f 00       		.byte	0x0
 5927 0120 19       		.uleb128 0x19
 5928 0121 2E       		.uleb128 0x2e
 5929 0122 01       		.byte	0x1
 5930 0123 03       		.uleb128 0x3
 5931 0124 0E       		.uleb128 0xe
 5932 0125 3A       		.uleb128 0x3a
 5933 0126 0B       		.uleb128 0xb
 5934 0127 3B       		.uleb128 0x3b
 5935 0128 0B       		.uleb128 0xb
 5936 0129 27       		.uleb128 0x27
 5937 012a 0C       		.uleb128 0xc
 5938 012b 11       		.uleb128 0x11
 5939 012c 01       		.uleb128 0x1
 5940 012d 12       		.uleb128 0x12
 5941 012e 01       		.uleb128 0x1
 5942 012f 40       		.uleb128 0x40
 5943 0130 06       		.uleb128 0x6
 5944 0131 01       		.uleb128 0x1
 5945 0132 13       		.uleb128 0x13
 5946 0133 00       		.byte	0x0
 5947 0134 00       		.byte	0x0
 5948 0135 1A       		.uleb128 0x1a
 5949 0136 05       		.uleb128 0x5
 5950 0137 00       		.byte	0x0
 5951 0138 03       		.uleb128 0x3
 5952 0139 0E       		.uleb128 0xe
 5953 013a 3A       		.uleb128 0x3a
 5954 013b 0B       		.uleb128 0xb
 5955 013c 3B       		.uleb128 0x3b
 5956 013d 0B       		.uleb128 0xb
 5957 013e 49       		.uleb128 0x49
 5958 013f 13       		.uleb128 0x13
 5959 0140 02       		.uleb128 0x2
 5960 0141 0A       		.uleb128 0xa
 5961 0142 00       		.byte	0x0
 5962 0143 00       		.byte	0x0
 5963 0144 1B       		.uleb128 0x1b
 5964 0145 05       		.uleb128 0x5
 5965 0146 00       		.byte	0x0
 5966 0147 03       		.uleb128 0x3
 5967 0148 08       		.uleb128 0x8
 5968 0149 3A       		.uleb128 0x3a
 5969 014a 0B       		.uleb128 0xb
 5970 014b 3B       		.uleb128 0x3b
 5971 014c 0B       		.uleb128 0xb
 5972 014d 49       		.uleb128 0x49
ARM GAS  C:\Users\z80\AppData\Local\Temp\ccJfsMfL.s 			page 107


 5973 014e 13       		.uleb128 0x13
 5974 014f 02       		.uleb128 0x2
 5975 0150 0A       		.uleb128 0xa
 5976 0151 00       		.byte	0x0
 5977 0152 00       		.byte	0x0
 5978 0153 1C       		.uleb128 0x1c
 5979 0154 34       		.uleb128 0x34
 5980 0155 00       		.byte	0x0
 5981 0156 03       		.uleb128 0x3
 5982 0157 08       		.uleb128 0x8
 5983 0158 3A       		.uleb128 0x3a
 5984 0159 0B       		.uleb128 0xb
 5985 015a 3B       		.uleb128 0x3b
 5986 015b 0B       		.uleb128 0xb
 5987 015c 49       		.uleb128 0x49
 5988 015d 13       		.uleb128 0x13
 5989 015e 02       		.uleb128 0x2
 5990 015f 0A       		.uleb128 0xa
 5991 0160 00       		.byte	0x0
 5992 0161 00       		.byte	0x0
 5993 0162 1D       		.uleb128 0x1d
 5994 0163 34       		.uleb128 0x34
 5995 0164 00       		.byte	0x0
 5996 0165 03       		.uleb128 0x3
 5997 0166 0E       		.uleb128 0xe
 5998 0167 3A       		.uleb128 0x3a
 5999 0168 0B       		.uleb128 0xb
 6000 0169 3B       		.uleb128 0x3b
 6001 016a 0B       		.uleb128 0xb
 6002 016b 49       		.uleb128 0x49
 6003 016c 13       		.uleb128 0x13
 6004 016d 02       		.uleb128 0x2
 6005 016e 0A       		.uleb128 0xa
 6006 016f 00       		.byte	0x0
 6007 0170 00       		.byte	0x0
 6008 0171 1E       		.uleb128 0x1e
 6009 0172 0B       		.uleb128 0xb
 6010 0173 01       		.byte	0x1
 6011 0174 11       		.uleb128 0x11
 6012 0175 01       		.uleb128 0x1
 6013 0176 12       		.uleb128 0x12
 6014 0177 01       		.uleb128 0x1
 6015 0178 01       		.uleb128 0x1
 6016 0179 13       		.uleb128 0x13
 6017 017a 00       		.byte	0x0
 6018 017b 00       		.byte	0x0
 6019 017c 1F       		.uleb128 0x1f
 6020 017d 0B       		.uleb128 0xb
 6021 017e 01       		.byte	0x1
 6022 017f 11       		.uleb128 0x11
 6023 0180 01       		.uleb128 0x1
 6024 0181 12       		.uleb128 0x12
 6025 0182 01       		.uleb128 0x1
 6026 0183 00       		.byte	0x0
 6027 0184 00       		.byte	0x0
 6028 0185 20       		.uleb128 0x20
 6029 0186 2E       		.uleb128 0x2e
ARM GAS  C:\Users\z80\AppData\Local\Temp\ccJfsMfL.s 			page 108


 6030 0187 00       		.byte	0x0
 6031 0188 3F       		.uleb128 0x3f
 6032 0189 0C       		.uleb128 0xc
 6033 018a 03       		.uleb128 0x3
 6034 018b 0E       		.uleb128 0xe
 6035 018c 3A       		.uleb128 0x3a
 6036 018d 0B       		.uleb128 0xb
 6037 018e 3B       		.uleb128 0x3b
 6038 018f 0B       		.uleb128 0xb
 6039 0190 27       		.uleb128 0x27
 6040 0191 0C       		.uleb128 0xc
 6041 0192 11       		.uleb128 0x11
 6042 0193 01       		.uleb128 0x1
 6043 0194 12       		.uleb128 0x12
 6044 0195 01       		.uleb128 0x1
 6045 0196 40       		.uleb128 0x40
 6046 0197 06       		.uleb128 0x6
 6047 0198 00       		.byte	0x0
 6048 0199 00       		.byte	0x0
 6049 019a 21       		.uleb128 0x21
 6050 019b 2E       		.uleb128 0x2e
 6051 019c 01       		.byte	0x1
 6052 019d 3F       		.uleb128 0x3f
 6053 019e 0C       		.uleb128 0xc
 6054 019f 03       		.uleb128 0x3
 6055 01a0 0E       		.uleb128 0xe
 6056 01a1 3A       		.uleb128 0x3a
 6057 01a2 0B       		.uleb128 0xb
 6058 01a3 3B       		.uleb128 0x3b
 6059 01a4 0B       		.uleb128 0xb
 6060 01a5 27       		.uleb128 0x27
 6061 01a6 0C       		.uleb128 0xc
 6062 01a7 11       		.uleb128 0x11
 6063 01a8 01       		.uleb128 0x1
 6064 01a9 12       		.uleb128 0x12
 6065 01aa 01       		.uleb128 0x1
 6066 01ab 40       		.uleb128 0x40
 6067 01ac 06       		.uleb128 0x6
 6068 01ad 01       		.uleb128 0x1
 6069 01ae 13       		.uleb128 0x13
 6070 01af 00       		.byte	0x0
 6071 01b0 00       		.byte	0x0
 6072 01b1 22       		.uleb128 0x22
 6073 01b2 2E       		.uleb128 0x2e
 6074 01b3 00       		.byte	0x0
 6075 01b4 3F       		.uleb128 0x3f
 6076 01b5 0C       		.uleb128 0xc
 6077 01b6 03       		.uleb128 0x3
 6078 01b7 0E       		.uleb128 0xe
 6079 01b8 3A       		.uleb128 0x3a
 6080 01b9 0B       		.uleb128 0xb
 6081 01ba 3B       		.uleb128 0x3b
 6082 01bb 0B       		.uleb128 0xb
 6083 01bc 27       		.uleb128 0x27
 6084 01bd 0C       		.uleb128 0xc
 6085 01be 49       		.uleb128 0x49
 6086 01bf 13       		.uleb128 0x13
ARM GAS  C:\Users\z80\AppData\Local\Temp\ccJfsMfL.s 			page 109


 6087 01c0 11       		.uleb128 0x11
 6088 01c1 01       		.uleb128 0x1
 6089 01c2 12       		.uleb128 0x12
 6090 01c3 01       		.uleb128 0x1
 6091 01c4 40       		.uleb128 0x40
 6092 01c5 0A       		.uleb128 0xa
 6093 01c6 00       		.byte	0x0
 6094 01c7 00       		.byte	0x0
 6095 01c8 23       		.uleb128 0x23
 6096 01c9 2E       		.uleb128 0x2e
 6097 01ca 01       		.byte	0x1
 6098 01cb 03       		.uleb128 0x3
 6099 01cc 0E       		.uleb128 0xe
 6100 01cd 3A       		.uleb128 0x3a
 6101 01ce 0B       		.uleb128 0xb
 6102 01cf 3B       		.uleb128 0x3b
 6103 01d0 05       		.uleb128 0x5
 6104 01d1 27       		.uleb128 0x27
 6105 01d2 0C       		.uleb128 0xc
 6106 01d3 11       		.uleb128 0x11
 6107 01d4 01       		.uleb128 0x1
 6108 01d5 12       		.uleb128 0x12
 6109 01d6 01       		.uleb128 0x1
 6110 01d7 40       		.uleb128 0x40
 6111 01d8 06       		.uleb128 0x6
 6112 01d9 01       		.uleb128 0x1
 6113 01da 13       		.uleb128 0x13
 6114 01db 00       		.byte	0x0
 6115 01dc 00       		.byte	0x0
 6116 01dd 24       		.uleb128 0x24
 6117 01de 34       		.uleb128 0x34
 6118 01df 00       		.byte	0x0
 6119 01e0 03       		.uleb128 0x3
 6120 01e1 0E       		.uleb128 0xe
 6121 01e2 3A       		.uleb128 0x3a
 6122 01e3 0B       		.uleb128 0xb
 6123 01e4 3B       		.uleb128 0x3b
 6124 01e5 05       		.uleb128 0x5
 6125 01e6 49       		.uleb128 0x49
 6126 01e7 13       		.uleb128 0x13
 6127 01e8 02       		.uleb128 0x2
 6128 01e9 0A       		.uleb128 0xa
 6129 01ea 00       		.byte	0x0
 6130 01eb 00       		.byte	0x0
 6131 01ec 25       		.uleb128 0x25
 6132 01ed 2E       		.uleb128 0x2e
 6133 01ee 00       		.byte	0x0
 6134 01ef 03       		.uleb128 0x3
 6135 01f0 0E       		.uleb128 0xe
 6136 01f1 3A       		.uleb128 0x3a
 6137 01f2 0B       		.uleb128 0xb
 6138 01f3 3B       		.uleb128 0x3b
 6139 01f4 05       		.uleb128 0x5
 6140 01f5 27       		.uleb128 0x27
 6141 01f6 0C       		.uleb128 0xc
 6142 01f7 11       		.uleb128 0x11
 6143 01f8 01       		.uleb128 0x1
ARM GAS  C:\Users\z80\AppData\Local\Temp\ccJfsMfL.s 			page 110


 6144 01f9 12       		.uleb128 0x12
 6145 01fa 01       		.uleb128 0x1
 6146 01fb 40       		.uleb128 0x40
 6147 01fc 06       		.uleb128 0x6
 6148 01fd 00       		.byte	0x0
 6149 01fe 00       		.byte	0x0
 6150 01ff 26       		.uleb128 0x26
 6151 0200 34       		.uleb128 0x34
 6152 0201 00       		.byte	0x0
 6153 0202 03       		.uleb128 0x3
 6154 0203 08       		.uleb128 0x8
 6155 0204 3A       		.uleb128 0x3a
 6156 0205 0B       		.uleb128 0xb
 6157 0206 3B       		.uleb128 0x3b
 6158 0207 05       		.uleb128 0x5
 6159 0208 49       		.uleb128 0x49
 6160 0209 13       		.uleb128 0x13
 6161 020a 02       		.uleb128 0x2
 6162 020b 0A       		.uleb128 0xa
 6163 020c 00       		.byte	0x0
 6164 020d 00       		.byte	0x0
 6165 020e 27       		.uleb128 0x27
 6166 020f 2E       		.uleb128 0x2e
 6167 0210 00       		.byte	0x0
 6168 0211 03       		.uleb128 0x3
 6169 0212 0E       		.uleb128 0xe
 6170 0213 3A       		.uleb128 0x3a
 6171 0214 0B       		.uleb128 0xb
 6172 0215 3B       		.uleb128 0x3b
 6173 0216 05       		.uleb128 0x5
 6174 0217 27       		.uleb128 0x27
 6175 0218 0C       		.uleb128 0xc
 6176 0219 11       		.uleb128 0x11
 6177 021a 01       		.uleb128 0x1
 6178 021b 12       		.uleb128 0x12
 6179 021c 01       		.uleb128 0x1
 6180 021d 40       		.uleb128 0x40
 6181 021e 0A       		.uleb128 0xa
 6182 021f 00       		.byte	0x0
 6183 0220 00       		.byte	0x0
 6184 0221 28       		.uleb128 0x28
 6185 0222 05       		.uleb128 0x5
 6186 0223 00       		.byte	0x0
 6187 0224 03       		.uleb128 0x3
 6188 0225 0E       		.uleb128 0xe
 6189 0226 3A       		.uleb128 0x3a
 6190 0227 0B       		.uleb128 0xb
 6191 0228 3B       		.uleb128 0x3b
 6192 0229 05       		.uleb128 0x5
 6193 022a 49       		.uleb128 0x49
 6194 022b 13       		.uleb128 0x13
 6195 022c 02       		.uleb128 0x2
 6196 022d 0A       		.uleb128 0xa
 6197 022e 00       		.byte	0x0
 6198 022f 00       		.byte	0x0
 6199 0230 29       		.uleb128 0x29
 6200 0231 34       		.uleb128 0x34
ARM GAS  C:\Users\z80\AppData\Local\Temp\ccJfsMfL.s 			page 111


 6201 0232 00       		.byte	0x0
 6202 0233 03       		.uleb128 0x3
 6203 0234 0E       		.uleb128 0xe
 6204 0235 3A       		.uleb128 0x3a
 6205 0236 0B       		.uleb128 0xb
 6206 0237 3B       		.uleb128 0x3b
 6207 0238 05       		.uleb128 0x5
 6208 0239 49       		.uleb128 0x49
 6209 023a 13       		.uleb128 0x13
 6210 023b 3F       		.uleb128 0x3f
 6211 023c 0C       		.uleb128 0xc
 6212 023d 3C       		.uleb128 0x3c
 6213 023e 0C       		.uleb128 0xc
 6214 023f 00       		.byte	0x0
 6215 0240 00       		.byte	0x0
 6216 0241 2A       		.uleb128 0x2a
 6217 0242 34       		.uleb128 0x34
 6218 0243 00       		.byte	0x0
 6219 0244 03       		.uleb128 0x3
 6220 0245 0E       		.uleb128 0xe
 6221 0246 3A       		.uleb128 0x3a
 6222 0247 0B       		.uleb128 0xb
 6223 0248 3B       		.uleb128 0x3b
 6224 0249 0B       		.uleb128 0xb
 6225 024a 49       		.uleb128 0x49
 6226 024b 13       		.uleb128 0x13
 6227 024c 3F       		.uleb128 0x3f
 6228 024d 0C       		.uleb128 0xc
 6229 024e 3C       		.uleb128 0x3c
 6230 024f 0C       		.uleb128 0xc
 6231 0250 00       		.byte	0x0
 6232 0251 00       		.byte	0x0
 6233 0252 2B       		.uleb128 0x2b
 6234 0253 01       		.uleb128 0x1
 6235 0254 01       		.byte	0x1
 6236 0255 49       		.uleb128 0x49
 6237 0256 13       		.uleb128 0x13
 6238 0257 01       		.uleb128 0x1
 6239 0258 13       		.uleb128 0x13
 6240 0259 00       		.byte	0x0
 6241 025a 00       		.byte	0x0
 6242 025b 2C       		.uleb128 0x2c
 6243 025c 21       		.uleb128 0x21
 6244 025d 00       		.byte	0x0
 6245 025e 49       		.uleb128 0x49
 6246 025f 13       		.uleb128 0x13
 6247 0260 2F       		.uleb128 0x2f
 6248 0261 0B       		.uleb128 0xb
 6249 0262 00       		.byte	0x0
 6250 0263 00       		.byte	0x0
 6251 0264 2D       		.uleb128 0x2d
 6252 0265 21       		.uleb128 0x21
 6253 0266 00       		.byte	0x0
 6254 0267 49       		.uleb128 0x49
 6255 0268 13       		.uleb128 0x13
 6256 0269 2F       		.uleb128 0x2f
 6257 026a 05       		.uleb128 0x5
ARM GAS  C:\Users\z80\AppData\Local\Temp\ccJfsMfL.s 			page 112


 6258 026b 00       		.byte	0x0
 6259 026c 00       		.byte	0x0
 6260 026d 2E       		.uleb128 0x2e
 6261 026e 34       		.uleb128 0x34
 6262 026f 00       		.byte	0x0
 6263 0270 03       		.uleb128 0x3
 6264 0271 0E       		.uleb128 0xe
 6265 0272 3A       		.uleb128 0x3a
 6266 0273 0B       		.uleb128 0xb
 6267 0274 3B       		.uleb128 0x3b
 6268 0275 0B       		.uleb128 0xb
 6269 0276 49       		.uleb128 0x49
 6270 0277 13       		.uleb128 0x13
 6271 0278 3F       		.uleb128 0x3f
 6272 0279 0C       		.uleb128 0xc
 6273 027a 02       		.uleb128 0x2
 6274 027b 0A       		.uleb128 0xa
 6275 027c 00       		.byte	0x0
 6276 027d 00       		.byte	0x0
 6277 027e 2F       		.uleb128 0x2f
 6278 027f 34       		.uleb128 0x34
 6279 0280 00       		.byte	0x0
 6280 0281 03       		.uleb128 0x3
 6281 0282 0E       		.uleb128 0xe
 6282 0283 3A       		.uleb128 0x3a
 6283 0284 0B       		.uleb128 0xb
 6284 0285 3B       		.uleb128 0x3b
 6285 0286 05       		.uleb128 0x5
 6286 0287 49       		.uleb128 0x49
 6287 0288 13       		.uleb128 0x13
 6288 0289 3F       		.uleb128 0x3f
 6289 028a 0C       		.uleb128 0xc
 6290 028b 02       		.uleb128 0x2
 6291 028c 0A       		.uleb128 0xa
 6292 028d 00       		.byte	0x0
 6293 028e 00       		.byte	0x0
 6294 028f 00       		.byte	0x0
 6295              		.section	.debug_pubnames,"",%progbits
 6296 0000 9D030000 		.4byte	0x39d
 6297 0004 0200     		.2byte	0x2
 6298 0006 00000000 		.4byte	.Ldebug_info0
 6299 000a A2150000 		.4byte	0x15a2
 6300 000e 4A0A0000 		.4byte	0xa4a
 6301 0012 696E6974 		.ascii	"initAdc\000"
 6301      41646300 
 6302 001a 5F0A0000 		.4byte	0xa5f
 6303 001e 7365744F 		.ascii	"setOscPeriod\000"
 6303      73635065 
 6303      72696F64 
 6303      00
 6304 002b 850A0000 		.4byte	0xa85
 6305 002f 73657442 		.ascii	"setBufferPeriod\000"
 6305      75666665 
 6305      72506572 
 6305      696F6400 
 6306 003f AB0A0000 		.4byte	0xaab
 6307 0043 73657442 		.ascii	"setBufferSigMask\000"
ARM GAS  C:\Users\z80\AppData\Local\Temp\ccJfsMfL.s 			page 113


 6307      75666665 
 6307      72536967 
 6307      4D61736B 
 6307      00
 6308 0054 D30A0000 		.4byte	0xad3
 6309 0058 73657446 		.ascii	"setFbSetpoint\000"
 6309      62536574 
 6309      706F696E 
 6309      7400
 6310 0066 FA0A0000 		.4byte	0xafa
 6311 006a 73657446 		.ascii	"setFbInput\000"
 6311      62496E70 
 6311      757400
 6312 0075 220B0000 		.4byte	0xb22
 6313 0079 73657446 		.ascii	"setFbGain\000"
 6313      62476169 
 6313      6E00
 6314 0083 580B0000 		.4byte	0xb58
 6315 0087 73657446 		.ascii	"setFbEn\000"
 6315      62456E00 
 6316 008f 7F0B0000 		.4byte	0xb7f
 6317 0093 636F6D6D 		.ascii	"commandQueue\000"
 6317      616E6451 
 6317      75657565 
 6317      00
 6318 00a0 9D0B0000 		.4byte	0xb9d
 6319 00a4 65617578 		.ascii	"eauxQueue\000"
 6319      51756575 
 6319      6500
 6320 00ae BB0B0000 		.4byte	0xbbb
 6321 00b2 65726566 		.ascii	"erefQueue\000"
 6321      51756575 
 6321      6500
 6322 00bc D30B0000 		.4byte	0xbd3
 6323 00c0 69617578 		.ascii	"iauxQueue\000"
 6323      51756575 
 6323      6500
 6324 00ca EB0B0000 		.4byte	0xbeb
 6325 00ce 62756666 		.ascii	"bufferQueue\000"
 6325      65725175 
 6325      65756500 
 6326 00da 030C0000 		.4byte	0xc03
 6327 00de 6D6F6465 		.ascii	"modeProcess\000"
 6327      50726F63 
 6327      65737300 
 6328 00ea 2B0C0000 		.4byte	0xc2b
 6329 00ee 6D6F6465 		.ascii	"modeInit\000"
 6329      496E6974 
 6329      00
 6330 00f7 8A120000 		.4byte	0x128a
 6331 00fb 6662456E 		.ascii	"fbEn\000"
 6331      00
 6332 0100 9C120000 		.4byte	0x129c
 6333 0104 6662456E 		.ascii	"fbEnPrev\000"
 6333      50726576 
 6333      00
 6334 010d AE120000 		.4byte	0x12ae
ARM GAS  C:\Users\z80\AppData\Local\Temp\ccJfsMfL.s 			page 114


 6335 0111 66624761 		.ascii	"fbGainNum\000"
 6335      696E4E75 
 6335      6D00
 6336 011b C0120000 		.4byte	0x12c0
 6337 011f 66624761 		.ascii	"fbGainDen\000"
 6337      696E4465 
 6337      6E00
 6338 0129 D2120000 		.4byte	0x12d2
 6339 012d 6662496E 		.ascii	"fbInIndex\000"
 6339      496E6465 
 6339      7800
 6340 0137 E4120000 		.4byte	0x12e4
 6341 013b 66625365 		.ascii	"fbSetpoint\000"
 6341      74706F69 
 6341      6E7400
 6342 0146 F6120000 		.4byte	0x12f6
 6343 014a 64616348 		.ascii	"dacHigh\000"
 6343      69676800 
 6344 0152 08130000 		.4byte	0x1308
 6345 0156 6461634C 		.ascii	"dacLow\000"
 6345      6F7700
 6346 015d 1A130000 		.4byte	0x131a
 6347 0161 65617578 		.ascii	"eaux_queue\000"
 6347      5F717565 
 6347      756500
 6348 016c 2C130000 		.4byte	0x132c
 6349 0170 65726566 		.ascii	"eref_queue\000"
 6349      5F717565 
 6349      756500
 6350 017b 3E130000 		.4byte	0x133e
 6351 017f 69617578 		.ascii	"iaux_queue\000"
 6351      5F717565 
 6351      756500
 6352 018a 50130000 		.4byte	0x1350
 6353 018e 65617578 		.ascii	"eaux_queue_buffer\000"
 6353      5F717565 
 6353      75655F62 
 6353      75666665 
 6353      7200
 6354 01a0 62130000 		.4byte	0x1362
 6355 01a4 65726566 		.ascii	"eref_queue_buffer\000"
 6355      5F717565 
 6355      75655F62 
 6355      75666665 
 6355      7200
 6356 01b6 74130000 		.4byte	0x1374
 6357 01ba 69617578 		.ascii	"iaux_queue_buffer\000"
 6357      5F717565 
 6357      75655F62 
 6357      75666665 
 6357      7200
 6358 01cc 86130000 		.4byte	0x1386
 6359 01d0 636F6D6D 		.ascii	"command_queue\000"
 6359      616E645F 
 6359      71756575 
 6359      6500
 6360 01de 98130000 		.4byte	0x1398
ARM GAS  C:\Users\z80\AppData\Local\Temp\ccJfsMfL.s 			page 115


 6361 01e2 636F6D6D 		.ascii	"command_queue_buffer\000"
 6361      616E645F 
 6361      71756575 
 6361      655F6275 
 6361      66666572 
 6362 01f7 AA130000 		.4byte	0x13aa
 6363 01fb 6F736350 		.ascii	"oscPeriod\000"
 6363      6572696F 
 6363      6400
 6364 0205 BC130000 		.4byte	0x13bc
 6365 0209 6F736354 		.ascii	"oscTime\000"
 6365      696D6500 
 6366 0211 CE130000 		.4byte	0x13ce
 6367 0215 62756666 		.ascii	"bufferPeriod\000"
 6367      65725065 
 6367      72696F64 
 6367      00
 6368 0222 E0130000 		.4byte	0x13e0
 6369 0226 62756666 		.ascii	"bufferTime\000"
 6369      65725469 
 6369      6D6500
 6370 0231 F2130000 		.4byte	0x13f2
 6371 0235 62756666 		.ascii	"bufferMask\000"
 6371      65724D61 
 6371      736B00
 6372 0240 04140000 		.4byte	0x1404
 6373 0244 62756666 		.ascii	"bufferEnabled\000"
 6373      6572456E 
 6373      61626C65 
 6373      6400
 6374 0252 16140000 		.4byte	0x1416
 6375 0256 62756666 		.ascii	"bufferStoreData\000"
 6375      65725374 
 6375      6F726544 
 6375      61746100 
 6376 0266 28140000 		.4byte	0x1428
 6377 026a 62756666 		.ascii	"buffer_queue\000"
 6377      65725F71 
 6377      75657565 
 6377      00
 6378 0277 3A140000 		.4byte	0x143a
 6379 027b 62756666 		.ascii	"buffer_queue_buffer\000"
 6379      65725F71 
 6379      75657565 
 6379      5F627566 
 6379      66657200 
 6380 028f 4C140000 		.4byte	0x144c
 6381 0293 6D6F6465 		.ascii	"mode\000"
 6381      00
 6382 0298 5E140000 		.4byte	0x145e
 6383 029c 70756C73 		.ascii	"pulsePeriod\000"
 6383      65506572 
 6383      696F6400 
 6384 02a8 71140000 		.4byte	0x1471
 6385 02ac 70756C73 		.ascii	"pulseTime\000"
 6385      6554696D 
 6385      6500
ARM GAS  C:\Users\z80\AppData\Local\Temp\ccJfsMfL.s 			page 116


 6386 02b6 84140000 		.4byte	0x1484
 6387 02ba 70756C73 		.ascii	"pulseDac\000"
 6387      65446163 
 6387      00
 6388 02c3 97140000 		.4byte	0x1497
 6389 02c7 70756C73 		.ascii	"pulseDacSave\000"
 6389      65446163 
 6389      53617665 
 6389      00
 6390 02d4 AA140000 		.4byte	0x14aa
 6391 02d8 6D65616E 		.ascii	"meanderPeriod1\000"
 6391      64657250 
 6391      6572696F 
 6391      643100
 6392 02e7 BD140000 		.4byte	0x14bd
 6393 02eb 6D65616E 		.ascii	"meanderPeriod2\000"
 6393      64657250 
 6393      6572696F 
 6393      643200
 6394 02fa D0140000 		.4byte	0x14d0
 6395 02fe 6D65616E 		.ascii	"meanderTime\000"
 6395      64657254 
 6395      696D6500 
 6396 030a E3140000 		.4byte	0x14e3
 6397 030e 6D65616E 		.ascii	"meanderDac1\000"
 6397      64657244 
 6397      61633100 
 6398 031a F6140000 		.4byte	0x14f6
 6399 031e 6D65616E 		.ascii	"meanderDac2\000"
 6399      64657244 
 6399      61633200 
 6400 032a 09150000 		.4byte	0x1509
 6401 032e 73776565 		.ascii	"sweepPeriod\000"
 6401      70506572 
 6401      696F6400 
 6402 033a 1C150000 		.4byte	0x151c
 6403 033e 73776565 		.ascii	"sweepPeriodInvf\000"
 6403      70506572 
 6403      696F6449 
 6403      6E766600 
 6404 034e 2F150000 		.4byte	0x152f
 6405 0352 73776565 		.ascii	"sweepTime\000"
 6405      7054696D 
 6405      6500
 6406 035c 42150000 		.4byte	0x1542
 6407 0360 73776565 		.ascii	"sweepDac1\000"
 6407      70446163 
 6407      3100
 6408 036a 55150000 		.4byte	0x1555
 6409 036e 73776565 		.ascii	"sweepDac2\000"
 6409      70446163 
 6409      3200
 6410 0378 68150000 		.4byte	0x1568
 6411 037c 73776565 		.ascii	"sweepSpeed\000"
 6411      70537065 
 6411      656400
 6412 0387 7B150000 		.4byte	0x157b
ARM GAS  C:\Users\z80\AppData\Local\Temp\ccJfsMfL.s 			page 117


 6413 038b 64446163 		.ascii	"dDacf1\000"
 6413      663100
 6414 0392 8E150000 		.4byte	0x158e
 6415 0396 64446163 		.ascii	"dDacf2\000"
 6415      663200
 6416 039d 00000000 		.4byte	0x0
 6417              		.section	.debug_pubtypes,"",%progbits
 6418 0000 A3020000 		.4byte	0x2a3
 6419 0004 0200     		.2byte	0x2
 6420 0006 00000000 		.4byte	.Ldebug_info0
 6421 000a A2150000 		.4byte	0x15a2
 6422 000e 30000000 		.4byte	0x30
 6423 0012 73697A65 		.ascii	"size_t\000"
 6423      5F7400
 6424 0019 42000000 		.4byte	0x42
 6425 001d 696E7438 		.ascii	"int8_t\000"
 6425      5F7400
 6426 0024 54000000 		.4byte	0x54
 6427 0028 75696E74 		.ascii	"uint8_t\000"
 6427      385F7400 
 6428 0030 6D000000 		.4byte	0x6d
 6429 0034 75696E74 		.ascii	"uint16_t\000"
 6429      31365F74 
 6429      00
 6430 003d 7F000000 		.4byte	0x7f
 6431 0041 696E7433 		.ascii	"int32_t\000"
 6431      325F7400 
 6432 0049 91000000 		.4byte	0x91
 6433 004d 75696E74 		.ascii	"uint32_t\000"
 6433      33325F74 
 6433      00
 6434 0056 AA000000 		.4byte	0xaa
 6435 005a 75696E74 		.ascii	"uint64_t\000"
 6435      36345F74 
 6435      00
 6436 0063 BC000000 		.4byte	0xbc
 6437 0067 626F6F6C 		.ascii	"bool_t\000"
 6437      5F7400
 6438 006e C7000000 		.4byte	0xc7
 6439 0072 746D6F64 		.ascii	"tmode_t\000"
 6439      655F7400 
 6440 007a D2000000 		.4byte	0xd2
 6441 007e 74737461 		.ascii	"tstate_t\000"
 6441      74655F74 
 6441      00
 6442 0087 DD000000 		.4byte	0xdd
 6443 008b 74707269 		.ascii	"tprio_t\000"
 6443      6F5F7400 
 6444 0093 E8000000 		.4byte	0xe8
 6445 0097 6D73675F 		.ascii	"msg_t\000"
 6445      7400
 6446 009d F3000000 		.4byte	0xf3
 6447 00a1 6576656E 		.ascii	"eventmask_t\000"
 6447      746D6173 
 6447      6B5F7400 
 6448 00ad FE000000 		.4byte	0xfe
 6449 00b1 73797374 		.ascii	"systime_t\000"
ARM GAS  C:\Users\z80\AppData\Local\Temp\ccJfsMfL.s 			page 118


 6449      696D655F 
 6449      7400
 6450 00bb 09010000 		.4byte	0x109
 6451 00bf 54687265 		.ascii	"Thread\000"
 6451      616400
 6452 00c6 48020000 		.4byte	0x248
 6453 00ca 54687265 		.ascii	"ThreadsQueue\000"
 6453      61647351 
 6453      75657565 
 6453      00
 6454 00d7 6A020000 		.4byte	0x26a
 6455 00db 54687265 		.ascii	"ThreadsList\000"
 6455      6164734C 
 6455      69737400 
 6456 00e7 75020000 		.4byte	0x275
 6457 00eb 72656761 		.ascii	"regarm_t\000"
 6457      726D5F74 
 6457      00
 6458 00f4 82020000 		.4byte	0x282
 6459 00f8 73746B61 		.ascii	"stkalign_t\000"
 6459      6C69676E 
 6459      5F7400
 6460 0103 8D020000 		.4byte	0x28d
 6461 0107 696E7463 		.ascii	"intctx\000"
 6461      747800
 6462 010e 1A030000 		.4byte	0x31a
 6463 0112 636F6E74 		.ascii	"context\000"
 6463      65787400 
 6464 011a 4A030000 		.4byte	0x34a
 6465 011e 4D757465 		.ascii	"Mutex\000"
 6465      7800
 6466 0124 87030000 		.4byte	0x387
 6467 0128 4D757465 		.ascii	"Mutex\000"
 6467      7800
 6468 012e 14010000 		.4byte	0x114
 6469 0132 54687265 		.ascii	"Thread\000"
 6469      616400
 6470 0139 E5030000 		.4byte	0x3e5
 6471 013d 47656E65 		.ascii	"GenericQueue\000"
 6471      72696351 
 6471      75657565 
 6471      00
 6472 014a 5F040000 		.4byte	0x45f
 6473 014e 716E6F74 		.ascii	"qnotify_t\000"
 6473      6966795F 
 6473      7400
 6474 0158 F0030000 		.4byte	0x3f0
 6475 015c 47656E65 		.ascii	"GenericQueue\000"
 6475      72696351 
 6475      75657565 
 6475      00
 6476 0169 88040000 		.4byte	0x488
 6477 016d 496E7075 		.ascii	"InputQueue\000"
 6477      74517565 
 6477      756500
 6478 0178 93040000 		.4byte	0x493
 6479 017c 4F757470 		.ascii	"OutputQueue\000"
ARM GAS  C:\Users\z80\AppData\Local\Temp\ccJfsMfL.s 			page 119


 6479      75745175 
 6479      65756500 
 6480 0188 D7050000 		.4byte	0x5d7
 6481 018c 4144435F 		.ascii	"ADC_TypeDef\000"
 6481      54797065 
 6481      44656600 
 6482 0198 29060000 		.4byte	0x629
 6483 019c 444D415F 		.ascii	"DMA_Channel_TypeDef\000"
 6483      4368616E 
 6483      6E656C5F 
 6483      54797065 
 6483      44656600 
 6484 01b0 A8060000 		.4byte	0x6a8
 6485 01b4 4750494F 		.ascii	"GPIO_TypeDef\000"
 6485      5F547970 
 6485      65446566 
 6485      00
 6486 01c1 0F070000 		.4byte	0x70f
 6487 01c5 73746D33 		.ascii	"stm32_dma_stream_t\000"
 6487      325F646D 
 6487      615F7374 
 6487      7265616D 
 6487      5F7400
 6488 01d8 1A070000 		.4byte	0x71a
 6489 01dc 696F706F 		.ascii	"ioportmask_t\000"
 6489      72746D61 
 6489      736B5F74 
 6489      00
 6490 01e9 52070000 		.4byte	0x752
 6491 01ed 61646373 		.ascii	"adcstate_t\000"
 6491      74617465 
 6491      5F7400
 6492 01f8 5D070000 		.4byte	0x75d
 6493 01fc 61646373 		.ascii	"adcsample_t\000"
 6493      616D706C 
 6493      655F7400 
 6494 0208 68070000 		.4byte	0x768
 6495 020c 6164635F 		.ascii	"adc_channels_num_t\000"
 6495      6368616E 
 6495      6E656C73 
 6495      5F6E756D 
 6495      5F7400
 6496 021f 82070000 		.4byte	0x782
 6497 0223 61646365 		.ascii	"adcerror_t\000"
 6497      72726F72 
 6497      5F7400
 6498 022e 8D070000 		.4byte	0x78d
 6499 0232 41444344 		.ascii	"ADCDriver\000"
 6499      72697665 
 6499      7200
 6500 023c 3C080000 		.4byte	0x83c
 6501 0240 61646363 		.ascii	"adccallback_t\000"
 6501      616C6C62 
 6501      61636B5F 
 6501      7400
 6502 024e 6F080000 		.4byte	0x86f
 6503 0252 61646365 		.ascii	"adcerrorcallback_t\000"
ARM GAS  C:\Users\z80\AppData\Local\Temp\ccJfsMfL.s 			page 120


 6503      72726F72 
 6503      63616C6C 
 6503      6261636B 
 6503      5F7400
 6504 0265 34090000 		.4byte	0x934
 6505 0269 41444343 		.ascii	"ADCConversionGroup\000"
 6505      6F6E7665 
 6505      7273696F 
 6505      6E47726F 
 6505      757000
 6506 027c 58090000 		.4byte	0x958
 6507 0280 41444343 		.ascii	"ADCConfig\000"
 6507      6F6E6669 
 6507      6700
 6508 028a 98070000 		.4byte	0x798
 6509 028e 41444344 		.ascii	"ADCDriver\000"
 6509      72697665 
 6509      7200
 6510 0298 B0090000 		.4byte	0x9b0
 6511 029c 44616343 		.ascii	"DacCfg\000"
 6511      666700
 6512 02a3 00000000 		.4byte	0x0
 6513              		.section	.debug_aranges,"",%progbits
 6514 0000 FC000000 		.4byte	0xfc
 6515 0004 0200     		.2byte	0x2
 6516 0006 00000000 		.4byte	.Ldebug_info0
 6517 000a 04       		.byte	0x4
 6518 000b 00       		.byte	0x0
 6519 000c 0000     		.2byte	0x0
 6520 000e 0000     		.2byte	0x0
 6521 0010 00000000 		.4byte	.LFB62
 6522 0014 90000000 		.4byte	.LFE62-.LFB62
 6523 0018 00000000 		.4byte	.LFB63
 6524 001c D4000000 		.4byte	.LFE63-.LFB63
 6525 0020 00000000 		.4byte	.LFB64
 6526 0024 14000000 		.4byte	.LFE64-.LFB64
 6527 0028 00000000 		.4byte	.LFB65
 6528 002c 14000000 		.4byte	.LFE65-.LFB65
 6529 0030 00000000 		.4byte	.LFB66
 6530 0034 1A000000 		.4byte	.LFE66-.LFB66
 6531 0038 00000000 		.4byte	.LFB67
 6532 003c 08000000 		.4byte	.LFE67-.LFB67
 6533 0040 00000000 		.4byte	.LFB68
 6534 0044 08000000 		.4byte	.LFE68-.LFB68
 6535 0048 00000000 		.4byte	.LFB69
 6536 004c 0A000000 		.4byte	.LFE69-.LFB69
 6537 0050 00000000 		.4byte	.LFB70
 6538 0054 08000000 		.4byte	.LFE70-.LFB70
 6539 0058 00000000 		.4byte	.LFB71
 6540 005c 0C000000 		.4byte	.LFE71-.LFB71
 6541 0060 00000000 		.4byte	.LFB72
 6542 0064 0C000000 		.4byte	.LFE72-.LFB72
 6543 0068 00000000 		.4byte	.LFB73
 6544 006c 0C000000 		.4byte	.LFE73-.LFB73
 6545 0070 00000000 		.4byte	.LFB74
 6546 0074 0C000000 		.4byte	.LFE74-.LFB74
 6547 0078 00000000 		.4byte	.LFB75
ARM GAS  C:\Users\z80\AppData\Local\Temp\ccJfsMfL.s 			page 121


 6548 007c 0C000000 		.4byte	.LFE75-.LFB75
 6549 0080 00000000 		.4byte	.LFB76
 6550 0084 4A000000 		.4byte	.LFE76-.LFB76
 6551 0088 00000000 		.4byte	.LFB77
 6552 008c 4A000000 		.4byte	.LFE77-.LFB77
 6553 0090 00000000 		.4byte	.LFB78
 6554 0094 50000000 		.4byte	.LFE78-.LFB78
 6555 0098 00000000 		.4byte	.LFB79
 6556 009c 30000000 		.4byte	.LFE79-.LFB79
 6557 00a0 00000000 		.4byte	.LFB80
 6558 00a4 0C010000 		.4byte	.LFE80-.LFB80
 6559 00a8 00000000 		.4byte	.LFB81
 6560 00ac 7A000000 		.4byte	.LFE81-.LFB81
 6561 00b0 00000000 		.4byte	.LFB82
 6562 00b4 58010000 		.4byte	.LFE82-.LFB82
 6563 00b8 00000000 		.4byte	.LFB83
 6564 00bc 8C000000 		.4byte	.LFE83-.LFB83
 6565 00c0 00000000 		.4byte	.LFB84
 6566 00c4 88010000 		.4byte	.LFE84-.LFB84
 6567 00c8 00000000 		.4byte	.LFB85
 6568 00cc 52010000 		.4byte	.LFE85-.LFB85
 6569 00d0 00000000 		.4byte	.LFB86
 6570 00d4 02000000 		.4byte	.LFE86-.LFB86
 6571 00d8 00000000 		.4byte	.LFB87
 6572 00dc 02000000 		.4byte	.LFE87-.LFB87
 6573 00e0 00000000 		.4byte	.LFB88
 6574 00e4 02030000 		.4byte	.LFE88-.LFB88
 6575 00e8 00000000 		.4byte	.LFB89
 6576 00ec 1E020000 		.4byte	.LFE89-.LFB89
 6577 00f0 00000000 		.4byte	.LFB90
 6578 00f4 3C000000 		.4byte	.LFE90-.LFB90
 6579 00f8 00000000 		.4byte	0x0
 6580 00fc 00000000 		.4byte	0x0
 6581              		.section	.debug_ranges,"",%progbits
 6582              	.Ldebug_ranges0:
 6583 0000 00000000 		.4byte	.LFB62
 6584 0004 90000000 		.4byte	.LFE62
 6585 0008 00000000 		.4byte	.LFB63
 6586 000c D4000000 		.4byte	.LFE63
 6587 0010 00000000 		.4byte	.LFB64
 6588 0014 14000000 		.4byte	.LFE64
 6589 0018 00000000 		.4byte	.LFB65
 6590 001c 14000000 		.4byte	.LFE65
 6591 0020 00000000 		.4byte	.LFB66
 6592 0024 1A000000 		.4byte	.LFE66
 6593 0028 00000000 		.4byte	.LFB67
 6594 002c 08000000 		.4byte	.LFE67
 6595 0030 00000000 		.4byte	.LFB68
 6596 0034 08000000 		.4byte	.LFE68
 6597 0038 00000000 		.4byte	.LFB69
 6598 003c 0A000000 		.4byte	.LFE69
 6599 0040 00000000 		.4byte	.LFB70
 6600 0044 08000000 		.4byte	.LFE70
 6601 0048 00000000 		.4byte	.LFB71
 6602 004c 0C000000 		.4byte	.LFE71
 6603 0050 00000000 		.4byte	.LFB72
 6604 0054 0C000000 		.4byte	.LFE72
ARM GAS  C:\Users\z80\AppData\Local\Temp\ccJfsMfL.s 			page 122


 6605 0058 00000000 		.4byte	.LFB73
 6606 005c 0C000000 		.4byte	.LFE73
 6607 0060 00000000 		.4byte	.LFB74
 6608 0064 0C000000 		.4byte	.LFE74
 6609 0068 00000000 		.4byte	.LFB75
 6610 006c 0C000000 		.4byte	.LFE75
 6611 0070 00000000 		.4byte	.LFB76
 6612 0074 4A000000 		.4byte	.LFE76
 6613 0078 00000000 		.4byte	.LFB77
 6614 007c 4A000000 		.4byte	.LFE77
 6615 0080 00000000 		.4byte	.LFB78
 6616 0084 50000000 		.4byte	.LFE78
 6617 0088 00000000 		.4byte	.LFB79
 6618 008c 30000000 		.4byte	.LFE79
 6619 0090 00000000 		.4byte	.LFB80
 6620 0094 0C010000 		.4byte	.LFE80
 6621 0098 00000000 		.4byte	.LFB81
 6622 009c 7A000000 		.4byte	.LFE81
 6623 00a0 00000000 		.4byte	.LFB82
 6624 00a4 58010000 		.4byte	.LFE82
 6625 00a8 00000000 		.4byte	.LFB83
 6626 00ac 8C000000 		.4byte	.LFE83
 6627 00b0 00000000 		.4byte	.LFB84
 6628 00b4 88010000 		.4byte	.LFE84
 6629 00b8 00000000 		.4byte	.LFB85
 6630 00bc 52010000 		.4byte	.LFE85
 6631 00c0 00000000 		.4byte	.LFB86
 6632 00c4 02000000 		.4byte	.LFE86
 6633 00c8 00000000 		.4byte	.LFB87
 6634 00cc 02000000 		.4byte	.LFE87
 6635 00d0 00000000 		.4byte	.LFB88
 6636 00d4 02030000 		.4byte	.LFE88
 6637 00d8 00000000 		.4byte	.LFB89
 6638 00dc 1E020000 		.4byte	.LFE89
 6639 00e0 00000000 		.4byte	.LFB90
 6640 00e4 3C000000 		.4byte	.LFE90
 6641 00e8 00000000 		.4byte	0x0
 6642 00ec 00000000 		.4byte	0x0
 6643              		.section	.debug_str,"MS",%progbits,1
 6644              	.LASF2:
 6645 0000 696E7438 		.ascii	"int8_t\000"
 6645      5F7400
 6646              	.LASF1:
 6647 0007 73697A65 		.ascii	"size_t\000"
 6647      5F7400
 6648              	.LASF125:
 6649 000e 73717231 		.ascii	"sqr1\000"
 6649      00
 6650              	.LASF126:
 6651 0013 73717232 		.ascii	"sqr2\000"
 6651      00
 6652              	.LASF127:
 6653 0018 73717233 		.ascii	"sqr3\000"
 6653      00
 6654              	.LASF22:
 6655 001d 73797374 		.ascii	"systime_t\000"
 6655      696D655F 
ARM GAS  C:\Users\z80\AppData\Local\Temp\ccJfsMfL.s 			page 123


 6655      7400
 6656              	.LASF27:
 6657 0027 705F6374 		.ascii	"p_ctx\000"
 6657      7800
 6658              	.LASF19:
 6659 002d 74707269 		.ascii	"tprio_t\000"
 6659      6F5F7400 
 6660              	.LASF117:
 6661 0035 61646363 		.ascii	"adccallback_t\000"
 6661      616C6C62 
 6661      61636B5F 
 6661      7400
 6662              	.LASF73:
 6663 0043 53515231 		.ascii	"SQR1\000"
 6663      00
 6664              	.LASF74:
 6665 0048 53515232 		.ascii	"SQR2\000"
 6665      00
 6666              	.LASF75:
 6667 004d 53515233 		.ascii	"SQR3\000"
 6667      00
 6668              	.LASF36:
 6669 0052 705F6D73 		.ascii	"p_msgqueue\000"
 6669      67717565 
 6669      756500
 6670              	.LASF192:
 6671 005d 636F6D6D 		.ascii	"command_queue_buffer\000"
 6671      616E645F 
 6671      71756575 
 6671      655F6275 
 6671      66666572 
 6672              	.LASF9:
 6673 0072 696E7433 		.ascii	"int32_t\000"
 6673      325F7400 
 6674              	.LASF102:
 6675 007a 61646373 		.ascii	"adcstate_t\000"
 6675      74617465 
 6675      5F7400
 6676              	.LASF163:
 6677 0085 70726F63 		.ascii	"processSweep\000"
 6677      65737353 
 6677      77656570 
 6677      00
 6678              	.LASF218:
 6679 0092 64446163 		.ascii	"dDacf1\000"
 6679      663100
 6680              	.LASF219:
 6681 0099 64446163 		.ascii	"dDacf2\000"
 6681      663200
 6682              	.LASF183:
 6683 00a0 64616348 		.ascii	"dacHigh\000"
 6683      69676800 
 6684              	.LASF109:
 6685 00a8 636F6E66 		.ascii	"config\000"
 6685      696700
 6686              	.LASF108:
 6687 00af 73746174 		.ascii	"state\000"
ARM GAS  C:\Users\z80\AppData\Local\Temp\ccJfsMfL.s 			page 124


 6687      6500
 6688              	.LASF82:
 6689 00b5 434E4454 		.ascii	"CNDTR\000"
 6689      5200
 6690              	.LASF224:
 6691 00bb 66624761 		.ascii	"fbGainDen\000"
 6691      696E4465 
 6691      6E00
 6692              	.LASF122:
 6693 00c5 6572726F 		.ascii	"error_cb\000"
 6693      725F6362 
 6693      00
 6694              	.LASF49:
 6695 00ce 6D5F6F77 		.ascii	"m_owner\000"
 6695      6E657200 
 6696              	.LASF80:
 6697 00d6 4A445234 		.ascii	"JDR4\000"
 6697      00
 6698              	.LASF121:
 6699 00db 656E645F 		.ascii	"end_cb\000"
 6699      636200
 6700              	.LASF52:
 6701 00e2 65786974 		.ascii	"exitcode\000"
 6701      636F6465 
 6701      00
 6702              	.LASF60:
 6703 00eb 715F746F 		.ascii	"q_top\000"
 6703      7000
 6704              	.LASF175:
 6705 00f1 616C7068 		.ascii	"alpha\000"
 6705      6100
 6706              	.LASF59:
 6707 00f7 715F6275 		.ascii	"q_buffer\000"
 6707      66666572 
 6707      00
 6708              	.LASF63:
 6709 0100 715F6E6F 		.ascii	"q_notify\000"
 6709      74696679 
 6709      00
 6710              	.LASF28:
 6711 0109 705F6E65 		.ascii	"p_newer\000"
 6711      77657200 
 6712              	.LASF10:
 6713 0111 6C6F6E67 		.ascii	"long int\000"
 6713      20696E74 
 6713      00
 6714              	.LASF24:
 6715 011a 705F6E65 		.ascii	"p_next\000"
 6715      787400
 6716              	.LASF62:
 6717 0121 715F7264 		.ascii	"q_rdptr\000"
 6717      70747200 
 6718              	.LASF170:
 6719 0129 666C6F61 		.ascii	"float\000"
 6719      7400
 6720              	.LASF25:
 6721 012f 705F7072 		.ascii	"p_prev\000"
ARM GAS  C:\Users\z80\AppData\Local\Temp\ccJfsMfL.s 			page 125


 6721      657600
 6722              	.LASF168:
 6723 0136 77726974 		.ascii	"writeDac\000"
 6723      65446163 
 6723      00
 6724              	.LASF18:
 6725 013f 74737461 		.ascii	"tstate_t\000"
 6725      74655F74 
 6725      00
 6726              	.LASF150:
 6727 0148 6D6F6465 		.ascii	"modeProcess\000"
 6727      50726F63 
 6727      65737300 
 6728              	.LASF213:
 6729 0154 73776565 		.ascii	"sweepPeriodInvf\000"
 6729      70506572 
 6729      696F6449 
 6729      6E766600 
 6730              	.LASF39:
 6731 0164 705F6D74 		.ascii	"p_mtxlist\000"
 6731      786C6973 
 6731      7400
 6732              	.LASF43:
 6733 016e 72656761 		.ascii	"regarm_t\000"
 6733      726D5F74 
 6733      00
 6734              	.LASF83:
 6735 0177 43504152 		.ascii	"CPAR\000"
 6735      00
 6736              	.LASF3:
 6737 017c 7369676E 		.ascii	"signed char\000"
 6737      65642063 
 6737      68617200 
 6738              	.LASF54:
 6739 0188 65776D61 		.ascii	"ewmask\000"
 6739      736B00
 6740              	.LASF4:
 6741 018f 75696E74 		.ascii	"uint8_t\000"
 6741      385F7400 
 6742              	.LASF133:
 6743 0197 44616343 		.ascii	"DacCfg\000"
 6743      666700
 6744              	.LASF136:
 6745 019e 6E65774D 		.ascii	"newMode\000"
 6745      6F646500 
 6746              	.LASF21:
 6747 01a6 6576656E 		.ascii	"eventmask_t\000"
 6747      746D6173 
 6747      6B5F7400 
 6748              	.LASF210:
 6749 01b2 6D65616E 		.ascii	"meanderDac1\000"
 6749      64657244 
 6749      61633100 
 6750              	.LASF46:
 6751 01be 636F6E74 		.ascii	"context\000"
 6751      65787400 
 6752              	.LASF5:
ARM GAS  C:\Users\z80\AppData\Local\Temp\ccJfsMfL.s 			page 126


 6753 01c6 756E7369 		.ascii	"unsigned char\000"
 6753      676E6564 
 6753      20636861 
 6753      7200
 6754              	.LASF106:
 6755 01d4 61646365 		.ascii	"adcerror_t\000"
 6755      72726F72 
 6755      5F7400
 6756              	.LASF96:
 6757 01df 4144435F 		.ascii	"ADC_UNINIT\000"
 6757      554E494E 
 6757      495400
 6758              	.LASF143:
 6759 01ea 73657446 		.ascii	"setFbGain\000"
 6759      62476169 
 6759      6E00
 6760              	.LASF148:
 6761 01f4 69617578 		.ascii	"iauxQueue\000"
 6761      51756575 
 6761      6500
 6762              	.LASF98:
 6763 01fe 4144435F 		.ascii	"ADC_READY\000"
 6763      52454144 
 6763      5900
 6764              	.LASF167:
 6765 0208 66726F6D 		.ascii	"from\000"
 6765      00
 6766              	.LASF200:
 6767 020d 62756666 		.ascii	"buffer_queue_buffer\000"
 6767      65725F71 
 6767      75657565 
 6767      5F627566 
 6767      66657200 
 6768              	.LASF154:
 6769 0221 696E6974 		.ascii	"initDac\000"
 6769      44616300 
 6770              	.LASF103:
 6771 0229 61646373 		.ascii	"adcsample_t\000"
 6771      616D706C 
 6771      655F7400 
 6772              	.LASF209:
 6773 0235 6D65616E 		.ascii	"meanderTime\000"
 6773      64657254 
 6773      696D6500 
 6774              	.LASF184:
 6775 0241 6461634C 		.ascii	"dacLow\000"
 6775      6F7700
 6776              	.LASF55:
 6777 0248 63686172 		.ascii	"char\000"
 6777      00
 6778              	.LASF91:
 6779 024d 69736869 		.ascii	"ishift\000"
 6779      667400
 6780              	.LASF26:
 6781 0254 705F7072 		.ascii	"p_prio\000"
 6781      696F00
 6782              	.LASF169:
ARM GAS  C:\Users\z80\AppData\Local\Temp\ccJfsMfL.s 			page 127


 6783 025b 74696D65 		.ascii	"timef\000"
 6783      6600
 6784              	.LASF56:
 6785 0261 47656E65 		.ascii	"GenericQueue\000"
 6785      72696351 
 6785      75657565 
 6785      00
 6786              	.LASF226:
 6787 026e 66625365 		.ascii	"fbSetpoint\000"
 6787      74706F69 
 6787      6E7400
 6788              	.LASF53:
 6789 0279 77746F62 		.ascii	"wtobjp\000"
 6789      6A7000
 6790              	.LASF101:
 6791 0280 4144435F 		.ascii	"ADC_ERROR\000"
 6791      4552524F 
 6791      5200
 6792              	.LASF44:
 6793 028a 73746B61 		.ascii	"stkalign_t\000"
 6793      6C69676E 
 6793      5F7400
 6794              	.LASF66:
 6795 0295 4F757470 		.ascii	"OutputQueue\000"
 6795      75745175 
 6795      65756500 
 6796              	.LASF162:
 6797 02a1 696E6974 		.ascii	"initSweep\000"
 6797      53776565 
 6797      7000
 6798              	.LASF161:
 6799 02ab 70726F63 		.ascii	"processMeandr\000"
 6799      6573734D 
 6799      65616E64 
 6799      7200
 6800              	.LASF119:
 6801 02b9 63697263 		.ascii	"circular\000"
 6801      756C6172 
 6801      00
 6802              	.LASF105:
 6803 02c2 4144435F 		.ascii	"ADC_ERR_DMAFAILURE\000"
 6803      4552525F 
 6803      444D4146 
 6803      41494C55 
 6803      524500
 6804              	.LASF173:
 6805 02d5 70726F63 		.ascii	"processOsc\000"
 6805      6573734F 
 6805      736300
 6806              	.LASF95:
 6807 02e0 696F706F 		.ascii	"ioportmask_t\000"
 6807      72746D61 
 6807      736B5F74 
 6807      00
 6808              	.LASF207:
 6809 02ed 6D65616E 		.ascii	"meanderPeriod1\000"
 6809      64657250 
ARM GAS  C:\Users\z80\AppData\Local\Temp\ccJfsMfL.s 			page 128


 6809      6572696F 
 6809      643100
 6810              	.LASF208:
 6811 02fc 6D65616E 		.ascii	"meanderPeriod2\000"
 6811      64657250 
 6811      6572696F 
 6811      643200
 6812              	.LASF110:
 6813 030b 73616D70 		.ascii	"samples\000"
 6813      6C657300 
 6814              	.LASF203:
 6815 0313 70756C73 		.ascii	"pulsePeriod\000"
 6815      65506572 
 6815      696F6400 
 6816              	.LASF81:
 6817 031f 4144435F 		.ascii	"ADC_TypeDef\000"
 6817      54797065 
 6817      44656600 
 6818              	.LASF135:
 6819 032b 62756666 		.ascii	"buffer\000"
 6819      657200
 6820              	.LASF146:
 6821 0332 65617578 		.ascii	"eauxQueue\000"
 6821      51756575 
 6821      6500
 6822              	.LASF188:
 6823 033c 65617578 		.ascii	"eaux_queue_buffer\000"
 6823      5F717565 
 6823      75655F62 
 6823      75666665 
 6823      7200
 6824              	.LASF45:
 6825 034e 696E7463 		.ascii	"intctx\000"
 6825      747800
 6826              	.LASF38:
 6827 0355 705F6570 		.ascii	"p_epending\000"
 6827      656E6469 
 6827      6E6700
 6828              	.LASF229:
 6829 0360 2E2F7372 		.ascii	"./src/adc_ctrl.c\000"
 6829      632F6164 
 6829      635F6374 
 6829      726C2E63 
 6829      00
 6830              	.LASF204:
 6831 0371 70756C73 		.ascii	"pulseTime\000"
 6831      6554696D 
 6831      6500
 6832              	.LASF131:
 6833 037b 64616331 		.ascii	"dac1\000"
 6833      00
 6834              	.LASF132:
 6835 0380 64616332 		.ascii	"dac2\000"
 6835      00
 6836              	.LASF230:
 6837 0385 433A5C70 		.ascii	"C:\\projects\\voltamper.git\\firmware\\voltamp\000"
 6837      726F6A65 
ARM GAS  C:\Users\z80\AppData\Local\Temp\ccJfsMfL.s 			page 129


 6837      6374735C 
 6837      766F6C74 
 6837      616D7065 
 6838              	.LASF58:
 6839 03b0 715F636F 		.ascii	"q_counter\000"
 6839      756E7465 
 6839      7200
 6840              	.LASF199:
 6841 03ba 62756666 		.ascii	"buffer_queue\000"
 6841      65725F71 
 6841      75657565 
 6841      00
 6842              	.LASF12:
 6843 03c7 6C6F6E67 		.ascii	"long unsigned int\000"
 6843      20756E73 
 6843      69676E65 
 6843      6420696E 
 6843      7400
 6844              	.LASF115:
 6845 03d9 646D6173 		.ascii	"dmastp\000"
 6845      747000
 6846              	.LASF157:
 6847 03e0 64616373 		.ascii	"dacs\000"
 6847      00
 6848              	.LASF89:
 6849 03e5 6368616E 		.ascii	"channel\000"
 6849      6E656C00 
 6850              	.LASF222:
 6851 03ed 6662456E 		.ascii	"fbEnPrev\000"
 6851      50726576 
 6851      00
 6852              	.LASF67:
 6853 03f6 534D5052 		.ascii	"SMPR1\000"
 6853      3100
 6854              	.LASF68:
 6855 03fc 534D5052 		.ascii	"SMPR2\000"
 6855      3200
 6856              	.LASF94:
 6857 0402 73746D33 		.ascii	"stm32_dma_stream_t\000"
 6857      325F646D 
 6857      615F7374 
 6857      7265616D 
 6857      5F7400
 6858              	.LASF61:
 6859 0415 715F7772 		.ascii	"q_wrptr\000"
 6859      70747200 
 6860              	.LASF87:
 6861 041d 4C434B52 		.ascii	"LCKR\000"
 6861      00
 6862              	.LASF206:
 6863 0422 70756C73 		.ascii	"pulseDacSave\000"
 6863      65446163 
 6863      53617665 
 6863      00
 6864              	.LASF158:
 6865 042f 696E6974 		.ascii	"initOnePulse\000"
 6865      4F6E6550 
ARM GAS  C:\Users\z80\AppData\Local\Temp\ccJfsMfL.s 			page 130


 6865      756C7365 
 6865      00
 6866              	.LASF128:
 6867 043c 41444343 		.ascii	"ADCConversionGroup\000"
 6867      6F6E7665 
 6867      7273696F 
 6867      6E47726F 
 6867      757000
 6868              	.LASF100:
 6869 044f 4144435F 		.ascii	"ADC_COMPLETE\000"
 6869      434F4D50 
 6869      4C455445 
 6869      00
 6870              	.LASF123:
 6871 045c 736D7072 		.ascii	"smpr1\000"
 6871      3100
 6872              	.LASF124:
 6873 0462 736D7072 		.ascii	"smpr2\000"
 6873      3200
 6874              	.LASF155:
 6875 0468 61726773 		.ascii	"args\000"
 6875      00
 6876              	.LASF217:
 6877 046d 73776565 		.ascii	"sweepSpeed\000"
 6877      70537065 
 6877      656400
 6878              	.LASF191:
 6879 0478 636F6D6D 		.ascii	"command_queue\000"
 6879      616E645F 
 6879      71756575 
 6879      6500
 6880              	.LASF160:
 6881 0486 70726F63 		.ascii	"processOnePulse\000"
 6881      6573734F 
 6881      6E655075 
 6881      6C736500 
 6882              	.LASF196:
 6883 0496 62756666 		.ascii	"bufferTime\000"
 6883      65725469 
 6883      6D6500
 6884              	.LASF47:
 6885 04a1 4D757465 		.ascii	"Mutex\000"
 6885      7800
 6886              	.LASF13:
 6887 04a7 6C6F6E67 		.ascii	"long long int\000"
 6887      206C6F6E 
 6887      6720696E 
 6887      7400
 6888              	.LASF195:
 6889 04b5 62756666 		.ascii	"bufferPeriod\000"
 6889      65725065 
 6889      72696F64 
 6889      00
 6890              	.LASF48:
 6891 04c2 6D5F7175 		.ascii	"m_queue\000"
 6891      65756500 
 6892              	.LASF220:
ARM GAS  C:\Users\z80\AppData\Local\Temp\ccJfsMfL.s 			page 131


 6893 04ca 66696C74 		.ascii	"filtered\000"
 6893      65726564 
 6893      00
 6894              	.LASF164:
 6895 04d3 6F766572 		.ascii	"overflow\000"
 6895      666C6F77 
 6895      00
 6896              	.LASF178:
 6897 04dc 70726F63 		.ascii	"processBufferI\000"
 6897      65737342 
 6897      75666665 
 6897      724900
 6898              	.LASF134:
 6899 04eb 61646370 		.ascii	"adcp\000"
 6899      00
 6900              	.LASF118:
 6901 04f0 61646365 		.ascii	"adcerrorcallback_t\000"
 6901      72726F72 
 6901      63616C6C 
 6901      6261636B 
 6901      5F7400
 6902              	.LASF152:
 6903 0503 6D6F6465 		.ascii	"modeInit\000"
 6903      496E6974 
 6903      00
 6904              	.LASF156:
 6905 050c 70726F63 		.ascii	"processDac\000"
 6905      65737344 
 6905      616300
 6906              	.LASF111:
 6907 0517 64657074 		.ascii	"depth\000"
 6907      6800
 6908              	.LASF140:
 6909 051d 6D61736B 		.ascii	"mask\000"
 6909      00
 6910              	.LASF197:
 6911 0522 62756666 		.ascii	"bufferMask\000"
 6911      65724D61 
 6911      736B00
 6912              	.LASF114:
 6913 052d 6D757465 		.ascii	"mutex\000"
 6913      7800
 6914              	.LASF159:
 6915 0533 696E6974 		.ascii	"initMeandr\000"
 6915      4D65616E 
 6915      647200
 6916              	.LASF165:
 6917 053e 756E6465 		.ascii	"underflow\000"
 6917      72666C6F 
 6917      7700
 6918              	.LASF142:
 6919 0548 73657446 		.ascii	"setFbInput\000"
 6919      62496E70 
 6919      757400
 6920              	.LASF116:
 6921 0553 646D616D 		.ascii	"dmamode\000"
 6921      6F646500 
ARM GAS  C:\Users\z80\AppData\Local\Temp\ccJfsMfL.s 			page 132


 6922              	.LASF64:
 6923 055b 716E6F74 		.ascii	"qnotify_t\000"
 6923      6966795F 
 6923      7400
 6924              	.LASF35:
 6925 0565 705F7761 		.ascii	"p_waiting\000"
 6925      6974696E 
 6925      6700
 6926              	.LASF33:
 6927 056f 705F666C 		.ascii	"p_flags\000"
 6927      61677300 
 6928              	.LASF139:
 6929 0577 73657442 		.ascii	"setBufferSigMask\000"
 6929      75666665 
 6929      72536967 
 6929      4D61736B 
 6929      00
 6930              	.LASF92:
 6931 0588 73656C66 		.ascii	"selfindex\000"
 6931      696E6465 
 6931      7800
 6932              	.LASF0:
 6933 0592 756E7369 		.ascii	"unsigned int\000"
 6933      676E6564 
 6933      20696E74 
 6933      00
 6934              	.LASF104:
 6935 059f 6164635F 		.ascii	"adc_channels_num_t\000"
 6935      6368616E 
 6935      6E656C73 
 6935      5F6E756D 
 6935      5F7400
 6936              	.LASF186:
 6937 05b2 65726566 		.ascii	"eref_queue\000"
 6937      5F717565 
 6937      756500
 6938              	.LASF120:
 6939 05bd 6E756D5F 		.ascii	"num_channels\000"
 6939      6368616E 
 6939      6E656C73 
 6939      00
 6940              	.LASF149:
 6941 05ca 62756666 		.ascii	"bufferQueue\000"
 6941      65725175 
 6941      65756500 
 6942              	.LASF84:
 6943 05d6 434D4152 		.ascii	"CMAR\000"
 6943      00
 6944              	.LASF42:
 6945 05db 54687265 		.ascii	"ThreadsList\000"
 6945      6164734C 
 6945      69737400 
 6946              	.LASF138:
 6947 05e7 73657442 		.ascii	"setBufferPeriod\000"
 6947      75666665 
 6947      72506572 
 6947      696F6400 
ARM GAS  C:\Users\z80\AppData\Local\Temp\ccJfsMfL.s 			page 133


 6948              	.LASF182:
 6949 05f7 41444344 		.ascii	"ADCD1\000"
 6949      3100
 6950              	.LASF193:
 6951 05fd 6F736350 		.ascii	"oscPeriod\000"
 6951      6572696F 
 6951      6400
 6952              	.LASF34:
 6953 0607 705F7469 		.ascii	"p_time\000"
 6953      6D6500
 6954              	.LASF174:
 6955 060e 74696D65 		.ascii	"timeConst\000"
 6955      436F6E73 
 6955      7400
 6956              	.LASF223:
 6957 0618 66624761 		.ascii	"fbGainNum\000"
 6957      696E4E75 
 6957      6D00
 6958              	.LASF221:
 6959 0622 6662456E 		.ascii	"fbEn\000"
 6959      00
 6960              	.LASF40:
 6961 0627 705F7265 		.ascii	"p_realprio\000"
 6961      616C7072 
 6961      696F00
 6962              	.LASF176:
 6963 0632 764C6F77 		.ascii	"vLow\000"
 6963      00
 6964              	.LASF99:
 6965 0637 4144435F 		.ascii	"ADC_ACTIVE\000"
 6965      41435449 
 6965      564500
 6966              	.LASF85:
 6967 0642 444D415F 		.ascii	"DMA_Channel_TypeDef\000"
 6967      4368616E 
 6967      6E656C5F 
 6967      54797065 
 6967      44656600 
 6968              	.LASF180:
 6969 0656 73746172 		.ascii	"startBufferI\000"
 6969      74427566 
 6969      66657249 
 6969      00
 6970              	.LASF147:
 6971 0663 65726566 		.ascii	"erefQueue\000"
 6971      51756575 
 6971      6500
 6972              	.LASF215:
 6973 066d 73776565 		.ascii	"sweepDac1\000"
 6973      70446163 
 6973      3100
 6974              	.LASF216:
 6975 0677 73776565 		.ascii	"sweepDac2\000"
 6975      70446163 
 6975      3200
 6976              	.LASF228:
 6977 0681 474E5520 		.ascii	"GNU C 4.5.0\000"
ARM GAS  C:\Users\z80\AppData\Local\Temp\ccJfsMfL.s 			page 134


 6977      4320342E 
 6977      352E3000 
 6978              	.LASF15:
 6979 068d 6C6F6E67 		.ascii	"long long unsigned int\000"
 6979      206C6F6E 
 6979      6720756E 
 6979      7369676E 
 6979      65642069 
 6980              	.LASF29:
 6981 06a4 705F6F6C 		.ascii	"p_older\000"
 6981      64657200 
 6982              	.LASF7:
 6983 06ac 75696E74 		.ascii	"uint16_t\000"
 6983      31365F74 
 6983      00
 6984              	.LASF20:
 6985 06b5 6D73675F 		.ascii	"msg_t\000"
 6985      7400
 6986              	.LASF202:
 6987 06bb 61646347 		.ascii	"adcGroup\000"
 6987      726F7570 
 6987      00
 6988              	.LASF171:
 6989 06c4 696E6974 		.ascii	"initFb\000"
 6989      466200
 6990              	.LASF107:
 6991 06cb 41444344 		.ascii	"ADCDriver\000"
 6991      72697665 
 6991      7200
 6992              	.LASF93:
 6993 06d5 76656374 		.ascii	"vector\000"
 6993      6F7200
 6994              	.LASF214:
 6995 06dc 73776565 		.ascii	"sweepTime\000"
 6995      7054696D 
 6995      6500
 6996              	.LASF231:
 6997 06e6 696E6974 		.ascii	"initAdc\000"
 6997      41646300 
 6998              	.LASF144:
 6999 06ee 73657446 		.ascii	"setFbEn\000"
 6999      62456E00 
 7000              	.LASF166:
 7001 06f6 74696D65 		.ascii	"time\000"
 7001      00
 7002              	.LASF57:
 7003 06fb 715F7761 		.ascii	"q_waiting\000"
 7003      6974696E 
 7003      6700
 7004              	.LASF17:
 7005 0705 746D6F64 		.ascii	"tmode_t\000"
 7005      655F7400 
 7006              	.LASF129:
 7007 070d 64756D6D 		.ascii	"dummy\000"
 7007      7900
 7008              	.LASF97:
 7009 0713 4144435F 		.ascii	"ADC_STOP\000"
ARM GAS  C:\Users\z80\AppData\Local\Temp\ccJfsMfL.s 			page 135


 7009      53544F50 
 7009      00
 7010              	.LASF112:
 7011 071c 67727070 		.ascii	"grpp\000"
 7011      00
 7012              	.LASF113:
 7013 0721 74687265 		.ascii	"thread\000"
 7013      616400
 7014              	.LASF137:
 7015 0728 7365744F 		.ascii	"setOscPeriod\000"
 7015      73635065 
 7015      72696F64 
 7015      00
 7016              	.LASF6:
 7017 0735 73686F72 		.ascii	"short int\000"
 7017      7420696E 
 7017      7400
 7018              	.LASF14:
 7019 073f 75696E74 		.ascii	"uint64_t\000"
 7019      36345F74 
 7019      00
 7020              	.LASF151:
 7021 0748 6D6F6465 		.ascii	"mode\000"
 7021      00
 7022              	.LASF187:
 7023 074d 69617578 		.ascii	"iaux_queue\000"
 7023      5F717565 
 7023      756500
 7024              	.LASF177:
 7025 0758 76486967 		.ascii	"vHigh\000"
 7025      6800
 7026              	.LASF69:
 7027 075e 4A4F4652 		.ascii	"JOFR1\000"
 7027      3100
 7028              	.LASF70:
 7029 0764 4A4F4652 		.ascii	"JOFR2\000"
 7029      3200
 7030              	.LASF71:
 7031 076a 4A4F4652 		.ascii	"JOFR3\000"
 7031      3300
 7032              	.LASF72:
 7033 0770 4A4F4652 		.ascii	"JOFR4\000"
 7033      3400
 7034              	.LASF16:
 7035 0776 626F6F6C 		.ascii	"bool_t\000"
 7035      5F7400
 7036              	.LASF190:
 7037 077d 69617578 		.ascii	"iaux_queue_buffer\000"
 7037      5F717565 
 7037      75655F62 
 7037      75666665 
 7037      7200
 7038              	.LASF86:
 7039 078f 42535252 		.ascii	"BSRR\000"
 7039      00
 7040              	.LASF179:
 7041 0794 656D7074 		.ascii	"emptySz\000"
ARM GAS  C:\Users\z80\AppData\Local\Temp\ccJfsMfL.s 			page 136


 7041      79537A00 
 7042              	.LASF77:
 7043 079c 4A445231 		.ascii	"JDR1\000"
 7043      00
 7044              	.LASF78:
 7045 07a1 4A445232 		.ascii	"JDR2\000"
 7045      00
 7046              	.LASF79:
 7047 07a6 4A445233 		.ascii	"JDR3\000"
 7047      00
 7048              	.LASF23:
 7049 07ab 54687265 		.ascii	"Thread\000"
 7049      616400
 7050              	.LASF227:
 7051 07b2 62756666 		.ascii	"bufferStoreData\000"
 7051      65725374 
 7051      6F726544 
 7051      61746100 
 7052              	.LASF205:
 7053 07c2 70756C73 		.ascii	"pulseDac\000"
 7053      65446163 
 7053      00
 7054              	.LASF76:
 7055 07cb 4A535152 		.ascii	"JSQR\000"
 7055      00
 7056              	.LASF88:
 7057 07d0 4750494F 		.ascii	"GPIO_TypeDef\000"
 7057      5F547970 
 7057      65446566 
 7057      00
 7058              	.LASF181:
 7059 07dd 49544D5F 		.ascii	"ITM_RxBuffer\000"
 7059      52784275 
 7059      66666572 
 7059      00
 7060              	.LASF185:
 7061 07ea 65617578 		.ascii	"eaux_queue\000"
 7061      5F717565 
 7061      756500
 7062              	.LASF201:
 7063 07f5 61646353 		.ascii	"adcSamples\000"
 7063      616D706C 
 7063      657300
 7064              	.LASF145:
 7065 0800 636F6D6D 		.ascii	"commandQueue\000"
 7065      616E6451 
 7065      75657565 
 7065      00
 7066              	.LASF198:
 7067 080d 62756666 		.ascii	"bufferEnabled\000"
 7067      6572456E 
 7067      61626C65 
 7067      6400
 7068              	.LASF11:
 7069 081b 75696E74 		.ascii	"uint32_t\000"
 7069      33325F74 
 7069      00
ARM GAS  C:\Users\z80\AppData\Local\Temp\ccJfsMfL.s 			page 137


 7070              	.LASF194:
 7071 0824 6F736354 		.ascii	"oscTime\000"
 7071      696D6500 
 7072              	.LASF189:
 7073 082c 65726566 		.ascii	"eref_queue_buffer\000"
 7073      5F717565 
 7073      75655F62 
 7073      75666665 
 7073      7200
 7074              	.LASF41:
 7075 083e 54687265 		.ascii	"ThreadsQueue\000"
 7075      61647351 
 7075      75657565 
 7075      00
 7076              	.LASF225:
 7077 084b 6662496E 		.ascii	"fbInIndex\000"
 7077      496E6465 
 7077      7800
 7078              	.LASF141:
 7079 0855 73657446 		.ascii	"setFbSetpoint\000"
 7079      62536574 
 7079      706F696E 
 7079      7400
 7080              	.LASF51:
 7081 0863 7264796D 		.ascii	"rdymsg\000"
 7081      736700
 7082              	.LASF8:
 7083 086a 73686F72 		.ascii	"short unsigned int\000"
 7083      7420756E 
 7083      7369676E 
 7083      65642069 
 7083      6E7400
 7084              	.LASF172:
 7085 087d 70726F63 		.ascii	"processFb\000"
 7085      65737346 
 7085      6200
 7086              	.LASF65:
 7087 0887 496E7075 		.ascii	"InputQueue\000"
 7087      74517565 
 7087      756500
 7088              	.LASF211:
 7089 0892 6D65616E 		.ascii	"meanderDac2\000"
 7089      64657244 
 7089      61633200 
 7090              	.LASF31:
 7091 089e 705F7374 		.ascii	"p_stklimit\000"
 7091      6B6C696D 
 7091      697400
 7092              	.LASF153:
 7093 08a9 636F6E76 		.ascii	"convAdcReadyCb\000"
 7093      41646352 
 7093      65616479 
 7093      436200
 7094              	.LASF90:
 7095 08b8 69666372 		.ascii	"ifcr\000"
 7095      00
 7096              	.LASF30:
ARM GAS  C:\Users\z80\AppData\Local\Temp\ccJfsMfL.s 			page 138


 7097 08bd 705F6E61 		.ascii	"p_name\000"
 7097      6D6500
 7098              	.LASF50:
 7099 08c4 6D5F6E65 		.ascii	"m_next\000"
 7099      787400
 7100              	.LASF37:
 7101 08cb 705F6D73 		.ascii	"p_msg\000"
 7101      6700
 7102              	.LASF212:
 7103 08d1 73776565 		.ascii	"sweepPeriod\000"
 7103      70506572 
 7103      696F6400 
 7104              	.LASF130:
 7105 08dd 41444343 		.ascii	"ADCConfig\000"
 7105      6F6E6669 
 7105      6700
 7106              	.LASF32:
 7107 08e7 705F7374 		.ascii	"p_state\000"
 7107      61746500 
 7108              		.ident	"GCC: (GNU) 4.5.0"
ARM GAS  C:\Users\z80\AppData\Local\Temp\ccJfsMfL.s 			page 139


DEFINED SYMBOLS
                            *ABS*:00000000 adc_ctrl.c
C:\Users\z80\AppData\Local\Temp\ccJfsMfL.s:28     .bss.fbEn:00000000 fbEn
C:\Users\z80\AppData\Local\Temp\ccJfsMfL.s:25     .bss.fbEn:00000000 $d
C:\Users\z80\AppData\Local\Temp\ccJfsMfL.s:35     .bss.fbEnPrev:00000000 fbEnPrev
C:\Users\z80\AppData\Local\Temp\ccJfsMfL.s:32     .bss.fbEnPrev:00000000 $d
C:\Users\z80\AppData\Local\Temp\ccJfsMfL.s:42     .data.fbGainNum:00000000 fbGainNum
C:\Users\z80\AppData\Local\Temp\ccJfsMfL.s:39     .data.fbGainNum:00000000 $d
C:\Users\z80\AppData\Local\Temp\ccJfsMfL.s:49     .data.fbGainDen:00000000 fbGainDen
C:\Users\z80\AppData\Local\Temp\ccJfsMfL.s:46     .data.fbGainDen:00000000 $d
C:\Users\z80\AppData\Local\Temp\ccJfsMfL.s:56     .data.fbInIndex:00000000 fbInIndex
C:\Users\z80\AppData\Local\Temp\ccJfsMfL.s:53     .data.fbInIndex:00000000 $d
C:\Users\z80\AppData\Local\Temp\ccJfsMfL.s:63     .data.fbSetpoint:00000000 fbSetpoint
C:\Users\z80\AppData\Local\Temp\ccJfsMfL.s:60     .data.fbSetpoint:00000000 $d
C:\Users\z80\AppData\Local\Temp\ccJfsMfL.s:70     .data.dacHigh:00000000 dacHigh
C:\Users\z80\AppData\Local\Temp\ccJfsMfL.s:67     .data.dacHigh:00000000 $d
C:\Users\z80\AppData\Local\Temp\ccJfsMfL.s:77     .data.dacLow:00000000 dacLow
C:\Users\z80\AppData\Local\Temp\ccJfsMfL.s:74     .data.dacLow:00000000 $d
C:\Users\z80\AppData\Local\Temp\ccJfsMfL.s:84     .bss.eaux_queue:00000000 eaux_queue
C:\Users\z80\AppData\Local\Temp\ccJfsMfL.s:81     .bss.eaux_queue:00000000 $d
C:\Users\z80\AppData\Local\Temp\ccJfsMfL.s:91     .bss.eref_queue:00000000 eref_queue
C:\Users\z80\AppData\Local\Temp\ccJfsMfL.s:88     .bss.eref_queue:00000000 $d
C:\Users\z80\AppData\Local\Temp\ccJfsMfL.s:98     .bss.iaux_queue:00000000 iaux_queue
C:\Users\z80\AppData\Local\Temp\ccJfsMfL.s:95     .bss.iaux_queue:00000000 $d
C:\Users\z80\AppData\Local\Temp\ccJfsMfL.s:105    .bss.eaux_queue_buffer:00000000 eaux_queue_buffer
C:\Users\z80\AppData\Local\Temp\ccJfsMfL.s:102    .bss.eaux_queue_buffer:00000000 $d
C:\Users\z80\AppData\Local\Temp\ccJfsMfL.s:112    .bss.eref_queue_buffer:00000000 eref_queue_buffer
C:\Users\z80\AppData\Local\Temp\ccJfsMfL.s:109    .bss.eref_queue_buffer:00000000 $d
C:\Users\z80\AppData\Local\Temp\ccJfsMfL.s:119    .bss.iaux_queue_buffer:00000000 iaux_queue_buffer
C:\Users\z80\AppData\Local\Temp\ccJfsMfL.s:116    .bss.iaux_queue_buffer:00000000 $d
C:\Users\z80\AppData\Local\Temp\ccJfsMfL.s:126    .bss.command_queue:00000000 command_queue
C:\Users\z80\AppData\Local\Temp\ccJfsMfL.s:123    .bss.command_queue:00000000 $d
C:\Users\z80\AppData\Local\Temp\ccJfsMfL.s:133    .bss.command_queue_buffer:00000000 command_queue_buffer
C:\Users\z80\AppData\Local\Temp\ccJfsMfL.s:130    .bss.command_queue_buffer:00000000 $d
C:\Users\z80\AppData\Local\Temp\ccJfsMfL.s:140    .data.oscPeriod:00000000 oscPeriod
C:\Users\z80\AppData\Local\Temp\ccJfsMfL.s:137    .data.oscPeriod:00000000 $d
C:\Users\z80\AppData\Local\Temp\ccJfsMfL.s:147    .bss.oscTime:00000000 oscTime
C:\Users\z80\AppData\Local\Temp\ccJfsMfL.s:144    .bss.oscTime:00000000 $d
C:\Users\z80\AppData\Local\Temp\ccJfsMfL.s:154    .data.bufferPeriod:00000000 bufferPeriod
C:\Users\z80\AppData\Local\Temp\ccJfsMfL.s:151    .data.bufferPeriod:00000000 $d
C:\Users\z80\AppData\Local\Temp\ccJfsMfL.s:161    .bss.bufferTime:00000000 bufferTime
C:\Users\z80\AppData\Local\Temp\ccJfsMfL.s:158    .bss.bufferTime:00000000 $d
C:\Users\z80\AppData\Local\Temp\ccJfsMfL.s:167    .data.bufferMask:00000000 bufferMask
C:\Users\z80\AppData\Local\Temp\ccJfsMfL.s:173    .bss.bufferEnabled:00000000 bufferEnabled
C:\Users\z80\AppData\Local\Temp\ccJfsMfL.s:174    .bss.bufferEnabled:00000000 $d
C:\Users\z80\AppData\Local\Temp\ccJfsMfL.s:179    .bss.bufferStoreData:00000000 bufferStoreData
C:\Users\z80\AppData\Local\Temp\ccJfsMfL.s:180    .bss.bufferStoreData:00000000 $d
C:\Users\z80\AppData\Local\Temp\ccJfsMfL.s:186    .bss.buffer_queue:00000000 buffer_queue
C:\Users\z80\AppData\Local\Temp\ccJfsMfL.s:183    .bss.buffer_queue:00000000 $d
C:\Users\z80\AppData\Local\Temp\ccJfsMfL.s:193    .bss.buffer_queue_buffer:00000000 buffer_queue_buffer
C:\Users\z80\AppData\Local\Temp\ccJfsMfL.s:190    .bss.buffer_queue_buffer:00000000 $d
C:\Users\z80\AppData\Local\Temp\ccJfsMfL.s:199    .bss.mode:00000000 mode
C:\Users\z80\AppData\Local\Temp\ccJfsMfL.s:200    .bss.mode:00000000 $d
C:\Users\z80\AppData\Local\Temp\ccJfsMfL.s:202    .text.convAdcReadyCb:00000000 $t
C:\Users\z80\AppData\Local\Temp\ccJfsMfL.s:207    .text.convAdcReadyCb:00000000 convAdcReadyCb
C:\Users\z80\AppData\Local\Temp\ccJfsMfL.s:708    .text.modeProcess:00000000 modeProcess
C:\Users\z80\AppData\Local\Temp\ccJfsMfL.s:1883   .text.processOsc:00000000 processOsc
ARM GAS  C:\Users\z80\AppData\Local\Temp\ccJfsMfL.s 			page 140


C:\Users\z80\AppData\Local\Temp\ccJfsMfL.s:2186   .text.processBufferI:00000000 processBufferI
C:\Users\z80\AppData\Local\Temp\ccJfsMfL.s:774    .text.modeInit:00000000 modeInit
C:\Users\z80\AppData\Local\Temp\ccJfsMfL.s:296    .bss.adcSamples:00000000 $d
C:\Users\z80\AppData\Local\Temp\ccJfsMfL.s:299    .bss.adcSamples:00000000 adcSamples
C:\Users\z80\AppData\Local\Temp\ccJfsMfL.s:302    .rodata.adcGroup:00000000 $d
C:\Users\z80\AppData\Local\Temp\ccJfsMfL.s:305    .rodata.adcGroup:00000000 adcGroup
C:\Users\z80\AppData\Local\Temp\ccJfsMfL.s:319    .text.initAdc:00000000 $t
C:\Users\z80\AppData\Local\Temp\ccJfsMfL.s:325    .text.initAdc:00000000 initAdc
C:\Users\z80\AppData\Local\Temp\ccJfsMfL.s:402    .text.setOscPeriod:00000000 $t
C:\Users\z80\AppData\Local\Temp\ccJfsMfL.s:408    .text.setOscPeriod:00000000 setOscPeriod
C:\Users\z80\AppData\Local\Temp\ccJfsMfL.s:431    .text.setBufferPeriod:00000000 $t
C:\Users\z80\AppData\Local\Temp\ccJfsMfL.s:437    .text.setBufferPeriod:00000000 setBufferPeriod
C:\Users\z80\AppData\Local\Temp\ccJfsMfL.s:460    .text.setBufferSigMask:00000000 $t
C:\Users\z80\AppData\Local\Temp\ccJfsMfL.s:466    .text.setBufferSigMask:00000000 setBufferSigMask
C:\Users\z80\AppData\Local\Temp\ccJfsMfL.s:490    .text.setFbSetpoint:00000000 $t
C:\Users\z80\AppData\Local\Temp\ccJfsMfL.s:496    .text.setFbSetpoint:00000000 setFbSetpoint
C:\Users\z80\AppData\Local\Temp\ccJfsMfL.s:514    .text.setFbInput:00000000 $t
C:\Users\z80\AppData\Local\Temp\ccJfsMfL.s:520    .text.setFbInput:00000000 setFbInput
C:\Users\z80\AppData\Local\Temp\ccJfsMfL.s:538    .text.setFbGain:00000000 $t
C:\Users\z80\AppData\Local\Temp\ccJfsMfL.s:544    .text.setFbGain:00000000 setFbGain
C:\Users\z80\AppData\Local\Temp\ccJfsMfL.s:563    .text.setFbEn:00000000 $t
C:\Users\z80\AppData\Local\Temp\ccJfsMfL.s:569    .text.setFbEn:00000000 setFbEn
C:\Users\z80\AppData\Local\Temp\ccJfsMfL.s:587    .text.commandQueue:00000000 $t
C:\Users\z80\AppData\Local\Temp\ccJfsMfL.s:593    .text.commandQueue:00000000 commandQueue
C:\Users\z80\AppData\Local\Temp\ccJfsMfL.s:610    .text.eauxQueue:00000000 $t
C:\Users\z80\AppData\Local\Temp\ccJfsMfL.s:616    .text.eauxQueue:00000000 eauxQueue
C:\Users\z80\AppData\Local\Temp\ccJfsMfL.s:633    .text.erefQueue:00000000 $t
C:\Users\z80\AppData\Local\Temp\ccJfsMfL.s:639    .text.erefQueue:00000000 erefQueue
C:\Users\z80\AppData\Local\Temp\ccJfsMfL.s:656    .text.iauxQueue:00000000 $t
C:\Users\z80\AppData\Local\Temp\ccJfsMfL.s:662    .text.iauxQueue:00000000 iauxQueue
C:\Users\z80\AppData\Local\Temp\ccJfsMfL.s:679    .text.bufferQueue:00000000 $t
C:\Users\z80\AppData\Local\Temp\ccJfsMfL.s:685    .text.bufferQueue:00000000 bufferQueue
C:\Users\z80\AppData\Local\Temp\ccJfsMfL.s:702    .text.modeProcess:00000000 $t
C:\Users\z80\AppData\Local\Temp\ccJfsMfL.s:730    .text.modeProcess:00000014 $d
C:\Users\z80\AppData\Local\Temp\ccJfsMfL.s:893    .text.processDac:00000000 processDac
C:\Users\z80\AppData\Local\Temp\ccJfsMfL.s:737    .text.modeProcess:00000028 $t
C:\Users\z80\AppData\Local\Temp\ccJfsMfL.s:1093   .text.processOnePulse:00000000 processOnePulse
C:\Users\z80\AppData\Local\Temp\ccJfsMfL.s:1361   .text.processMeandr:00000000 processMeandr
C:\Users\z80\AppData\Local\Temp\ccJfsMfL.s:1672   .text.processSweep:00000000 processSweep
C:\Users\z80\AppData\Local\Temp\ccJfsMfL.s:1857   .text.processFb:00000000 processFb
C:\Users\z80\AppData\Local\Temp\ccJfsMfL.s:768    .text.modeInit:00000000 $t
C:\Users\z80\AppData\Local\Temp\ccJfsMfL.s:796    .text.modeInit:00000014 $d
C:\Users\z80\AppData\Local\Temp\ccJfsMfL.s:839    .text.initDac:00000000 initDac
C:\Users\z80\AppData\Local\Temp\ccJfsMfL.s:803    .text.modeInit:00000028 $t
C:\Users\z80\AppData\Local\Temp\ccJfsMfL.s:962    .text.initOnePulse:00000000 initOnePulse
C:\Users\z80\AppData\Local\Temp\ccJfsMfL.s:1193   .text.initMeandr:00000000 initMeandr
C:\Users\z80\AppData\Local\Temp\ccJfsMfL.s:1490   .text.initSweep:00000000 initSweep
C:\Users\z80\AppData\Local\Temp\ccJfsMfL.s:1839   .text.initFb:00000000 initFb
C:\Users\z80\AppData\Local\Temp\ccJfsMfL.s:834    .text.initDac:00000000 $t
C:\Users\z80\AppData\Local\Temp\ccJfsMfL.s:888    .text.processDac:00000000 $t
C:\Users\z80\AppData\Local\Temp\ccJfsMfL.s:933    .data.pulsePeriod:00000000 pulsePeriod
C:\Users\z80\AppData\Local\Temp\ccJfsMfL.s:930    .data.pulsePeriod:00000000 $d
C:\Users\z80\AppData\Local\Temp\ccJfsMfL.s:940    .bss.pulseTime:00000000 pulseTime
C:\Users\z80\AppData\Local\Temp\ccJfsMfL.s:937    .bss.pulseTime:00000000 $d
C:\Users\z80\AppData\Local\Temp\ccJfsMfL.s:947    .bss.pulseDac:00000000 pulseDac
C:\Users\z80\AppData\Local\Temp\ccJfsMfL.s:944    .bss.pulseDac:00000000 $d
C:\Users\z80\AppData\Local\Temp\ccJfsMfL.s:954    .bss.pulseDacSave:00000000 pulseDacSave
ARM GAS  C:\Users\z80\AppData\Local\Temp\ccJfsMfL.s 			page 141


C:\Users\z80\AppData\Local\Temp\ccJfsMfL.s:951    .bss.pulseDacSave:00000000 $d
C:\Users\z80\AppData\Local\Temp\ccJfsMfL.s:957    .text.initOnePulse:00000000 $t
C:\Users\z80\AppData\Local\Temp\ccJfsMfL.s:2457   .text.startBufferI:00000000 startBufferI
C:\Users\z80\AppData\Local\Temp\ccJfsMfL.s:1088   .text.processOnePulse:00000000 $t
C:\Users\z80\AppData\Local\Temp\ccJfsMfL.s:1157   .data.meanderPeriod1:00000000 meanderPeriod1
C:\Users\z80\AppData\Local\Temp\ccJfsMfL.s:1154   .data.meanderPeriod1:00000000 $d
C:\Users\z80\AppData\Local\Temp\ccJfsMfL.s:1164   .data.meanderPeriod2:00000000 meanderPeriod2
C:\Users\z80\AppData\Local\Temp\ccJfsMfL.s:1161   .data.meanderPeriod2:00000000 $d
C:\Users\z80\AppData\Local\Temp\ccJfsMfL.s:1171   .bss.meanderTime:00000000 meanderTime
C:\Users\z80\AppData\Local\Temp\ccJfsMfL.s:1168   .bss.meanderTime:00000000 $d
C:\Users\z80\AppData\Local\Temp\ccJfsMfL.s:1178   .bss.meanderDac1:00000000 meanderDac1
C:\Users\z80\AppData\Local\Temp\ccJfsMfL.s:1175   .bss.meanderDac1:00000000 $d
C:\Users\z80\AppData\Local\Temp\ccJfsMfL.s:1185   .bss.meanderDac2:00000000 meanderDac2
C:\Users\z80\AppData\Local\Temp\ccJfsMfL.s:1182   .bss.meanderDac2:00000000 $d
C:\Users\z80\AppData\Local\Temp\ccJfsMfL.s:1188   .text.initMeandr:00000000 $t
C:\Users\z80\AppData\Local\Temp\ccJfsMfL.s:1356   .text.processMeandr:00000000 $t
C:\Users\z80\AppData\Local\Temp\ccJfsMfL.s:1432   .data.sweepPeriod:00000000 sweepPeriod
C:\Users\z80\AppData\Local\Temp\ccJfsMfL.s:1429   .data.sweepPeriod:00000000 $d
C:\Users\z80\AppData\Local\Temp\ccJfsMfL.s:1439   .data.sweepPeriodInvf:00000000 sweepPeriodInvf
C:\Users\z80\AppData\Local\Temp\ccJfsMfL.s:1436   .data.sweepPeriodInvf:00000000 $d
C:\Users\z80\AppData\Local\Temp\ccJfsMfL.s:1446   .bss.sweepTime:00000000 sweepTime
C:\Users\z80\AppData\Local\Temp\ccJfsMfL.s:1443   .bss.sweepTime:00000000 $d
C:\Users\z80\AppData\Local\Temp\ccJfsMfL.s:1453   .bss.sweepDac1:00000000 sweepDac1
C:\Users\z80\AppData\Local\Temp\ccJfsMfL.s:1450   .bss.sweepDac1:00000000 $d
C:\Users\z80\AppData\Local\Temp\ccJfsMfL.s:1460   .bss.sweepDac2:00000000 sweepDac2
C:\Users\z80\AppData\Local\Temp\ccJfsMfL.s:1457   .bss.sweepDac2:00000000 $d
C:\Users\z80\AppData\Local\Temp\ccJfsMfL.s:1466   .data.sweepSpeed:00000000 sweepSpeed
C:\Users\z80\AppData\Local\Temp\ccJfsMfL.s:1473   .bss.dDacf1:00000000 dDacf1
C:\Users\z80\AppData\Local\Temp\ccJfsMfL.s:1470   .bss.dDacf1:00000000 $d
C:\Users\z80\AppData\Local\Temp\ccJfsMfL.s:1480   .bss.dDacf2:00000000 dDacf2
C:\Users\z80\AppData\Local\Temp\ccJfsMfL.s:1477   .bss.dDacf2:00000000 $d
C:\Users\z80\AppData\Local\Temp\ccJfsMfL.s:1485   .text.initSweep:00000000 $t
C:\Users\z80\AppData\Local\Temp\ccJfsMfL.s:1660   .text.initSweep:00000184 $d
C:\Users\z80\AppData\Local\Temp\ccJfsMfL.s:1667   .text.processSweep:00000000 $t
C:\Users\z80\AppData\Local\Temp\ccJfsMfL.s:1834   .text.initFb:00000000 $t
C:\Users\z80\AppData\Local\Temp\ccJfsMfL.s:1852   .text.processFb:00000000 $t
C:\Users\z80\AppData\Local\Temp\ccJfsMfL.s:1870   .data.filtered:00000000 $d
C:\Users\z80\AppData\Local\Temp\ccJfsMfL.s:1873   .data.filtered:00000000 filtered
C:\Users\z80\AppData\Local\Temp\ccJfsMfL.s:1878   .text.processOsc:00000000 $t
C:\Users\z80\AppData\Local\Temp\ccJfsMfL.s:2181   .text.processBufferI:00000000 $t
C:\Users\z80\AppData\Local\Temp\ccJfsMfL.s:2452   .text.startBufferI:00000000 $t
                     .debug_frame:00000010 $d
C:\Users\z80\AppData\Local\Temp\ccJfsMfL.s:1666   .text.initSweep:00000188 $t

UNDEFINED SYMBOLS
dbg_check_lock_from_isr
chOQGetI
dbg_check_unlock_from_isr
chOQInit
chIQInit
_pal_lld_setgroupmode
ADCD1
adcStart
adcStartConversion
funcArgs
dacSet
__aeabi_i2f
ARM GAS  C:\Users\z80\AppData\Local\Temp\ccJfsMfL.s 			page 142


__aeabi_fdiv
__aeabi_fmul
__aeabi_f2iz
chIQPutI
