ARM GAS  C:\Users\z80\AppData\Local\Temp\ccFIHkx7.s 			page 1


   1              		.syntax unified
   2              		.cpu cortex-m3
   3              		.fpu softvfp
   4              		.eabi_attribute 20, 1
   5              		.eabi_attribute 21, 1
   6              		.eabi_attribute 23, 3
   7              		.eabi_attribute 24, 1
   8              		.eabi_attribute 25, 1
   9              		.eabi_attribute 26, 1
  10              		.eabi_attribute 30, 2
  11              		.eabi_attribute 18, 4
  12              		.thumb
  13              		.file	"adc_lld.c"
  14              		.section	.debug_abbrev,"",%progbits
  15              	.Ldebug_abbrev0:
  16              		.section	.debug_info,"",%progbits
  17              	.Ldebug_info0:
  18              		.section	.debug_line,"",%progbits
  19              	.Ldebug_line0:
  20 0000 8B030000 		.text
  20      02000302 
  20      00000201 
  20      FB0E0D00 
  20      01010101 
  21              	.Ltext0:
  22              		.cfi_sections	.debug_frame
  23              		.section	.text.adc_lld_serve_rx_interrupt,"ax",%progbits
  24              		.align	2
  25              		.p2align 4,,15
  26              		.thumb
  27              		.thumb_func
  28              		.type	adc_lld_serve_rx_interrupt, %function
  29              	adc_lld_serve_rx_interrupt:
  30              	.LFB62:
  31              		.file 1 "../chibios_2.4.x/os/hal/platforms/STM32F1xx/adc_lld.c"
  32              		.loc 1 64 0
  33              		.cfi_startproc
  34              		@ args = 0, pretend = 0, frame = 0
  35              		@ frame_needed = 0, uses_anonymous_args = 0
  36              	.LVL0:
  37              		.loc 1 67 0
  38 0000 11F0080F 		tst	r1, #8
  39              		.loc 1 64 0
  40 0004 70B5     		push	{r4, r5, r6, lr}
  41              	.LCFI0:
  42              		.cfi_def_cfa_offset 16
  43              		.loc 1 64 0
  44 0006 0D46     		mov	r5, r1
  45              		.cfi_offset 14, -4
  46              		.cfi_offset 6, -8
  47              		.cfi_offset 5, -12
  48              		.cfi_offset 4, -16
  49 0008 0446     		mov	r4, r0
  50              		.loc 1 67 0
  51 000a 30D0     		beq	.L2
  52              	.LVL1:
  53              	.LBB14:
ARM GAS  C:\Users\z80\AppData\Local\Temp\ccFIHkx7.s 			page 2


  54              	.LBB16:
  55              		.loc 1 233 0
  56 000c C36A     		ldr	r3, [r0, #44]
  57 000e 4FF00F0E 		mov	lr, #15
  58 0012 197A     		ldrb	r1, [r3, #8]	@ zero_extendqisi2
  59              	.LVL2:
  60 0014 1A68     		ldr	r2, [r3, #0]
  61 0016 0EFA01FE 		lsl	lr, lr, r1
  62              	.LBE16:
  63              	.LBE14:
  64              		.loc 1 70 0
  65 001a 0169     		ldr	r1, [r0, #16]
  66              	.LBB18:
  67              	.LBB15:
  68              		.loc 1 233 0
  69 001c 1568     		ldr	r5, [r2, #0]
  70              	.LVL3:
  71 001e D3F804C0 		ldr	ip, [r3, #4]
  72              		.loc 1 234 0
  73 0022 806A     		ldr	r0, [r0, #40]
  74              	.LVL4:
  75              	.LBE15:
  76              	.LBE18:
  77              		.loc 1 70 0
  78 0024 CB68     		ldr	r3, [r1, #12]
  79              	.LBB19:
  80              	.LBB17:
  81              		.loc 1 233 0
  82 0026 25F00105 		bic	r5, r5, #1
  83              		.loc 1 234 0
  84 002a 0021     		movs	r1, #0
  85              		.loc 1 233 0
  86 002c 1560     		str	r5, [r2, #0]
  87 002e CCF800E0 		str	lr, [ip, #0]
  88              		.loc 1 234 0
  89 0032 8160     		str	r1, [r0, #8]
  90              	.LBE17:
  91              	.LBE19:
  92              		.loc 1 70 0
  93 0034 33B1     		cbz	r3, .L3
  94              		.loc 1 70 0 is_stmt 0 discriminator 1
  95 0036 0522     		movs	r2, #5
  96 0038 2270     		strb	r2, [r4, #0]
  97 003a 2046     		mov	r0, r4
  98 003c 9847     		blx	r3
  99 003e 2378     		ldrb	r3, [r4, #0]	@ zero_extendqisi2
 100 0040 052B     		cmp	r3, #5
 101 0042 6FD0     		beq	.L15
 102              	.L3:
 103              		.loc 1 70 0 discriminator 2
 104 0044 0025     		movs	r5, #0
 105 0046 2561     		str	r5, [r4, #16]
 106              	.LBB20:
 107 0048 2023     		movs	r3, #32
 108              	.LVL5:
 109              	@ 70 "../chibios_2.4.x/os/hal/platforms/STM32F1xx/adc_lld.c" 1
 110 004a 83F31188 		msr     BASEPRI, r3
ARM GAS  C:\Users\z80\AppData\Local\Temp\ccFIHkx7.s 			page 3


 111              	@ 0 "" 2
 112              	.LVL6:
 113              		.thumb
 114              	.LBE20:
 115 004e FFF7FEFF 		bl	dbg_check_lock_from_isr
 116              	.LVL7:
 117 0052 6069     		ldr	r0, [r4, #20]
 118 0054 28B1     		cbz	r0, .L4
 119              	.LVL8:
 120              	.LBB21:
 121              		.loc 1 70 0 discriminator 4
 122 0056 4FF0FF33 		mov	r3, #-1
 123 005a 6561     		str	r5, [r4, #20]
 124 005c 8362     		str	r3, [r0, #40]
 125 005e FFF7FEFF 		bl	chSchReadyI
 126              	.LVL9:
 127              	.L4:
 128              	.LBE21:
 129              		.loc 1 70 0 discriminator 5
 130 0062 FFF7FEFF 		bl	dbg_check_unlock_from_isr
 131              	.LBB22:
 132 0066 0023     		movs	r3, #0
 133              	.LVL10:
 134              	@ 70 "../chibios_2.4.x/os/hal/platforms/STM32F1xx/adc_lld.c" 1
 135 0068 83F31188 		msr     BASEPRI, r3
 136              	@ 0 "" 2
 137              	.LVL11:
 138              		.thumb
 139              	.L1:
 140              	.LBE22:
 141              		.loc 1 82 0 is_stmt 1
 142 006c 70BD     		pop	{r4, r5, r6, pc}
 143              	.LVL12:
 144              	.L2:
 145              		.loc 1 73 0
 146 006e 11F0040F 		tst	r1, #4
 147 0072 06D0     		beq	.L6
 148              		.loc 1 75 0
 149 0074 0369     		ldr	r3, [r0, #16]
 150 0076 9B68     		ldr	r3, [r3, #8]
 151 0078 1BB1     		cbz	r3, .L6
 152              		.loc 1 75 0 is_stmt 0 discriminator 1
 153 007a C268     		ldr	r2, [r0, #12]
 154 007c 8168     		ldr	r1, [r0, #8]
 155              	.LVL13:
 156 007e 5208     		lsrs	r2, r2, #1
 157 0080 9847     		blx	r3
 158              	.L6:
 159              		.loc 1 77 0 is_stmt 1
 160 0082 15F0020F 		tst	r5, #2
 161 0086 F1D0     		beq	.L1
 162              		.loc 1 79 0
 163 0088 2169     		ldr	r1, [r4, #16]
 164 008a 0A68     		ldr	r2, [r1, #0]
 165 008c 002A     		cmp	r2, #0
 166 008e 39D1     		bne	.L16
 167              	.LVL14:
ARM GAS  C:\Users\z80\AppData\Local\Temp\ccFIHkx7.s 			page 4


 168              	.LBB23:
 169              	.LBB24:
 170              		.loc 1 233 0
 171 0090 E36A     		ldr	r3, [r4, #44]
 172 0092 0F25     		movs	r5, #15
 173              	.LVL15:
 174 0094 93F808C0 		ldrb	ip, [r3, #8]	@ zero_extendqisi2
 175 0098 1868     		ldr	r0, [r3, #0]
 176 009a 05FA0CF5 		lsl	r5, r5, ip
 177 009e 0668     		ldr	r6, [r0, #0]
 178 00a0 D3F804E0 		ldr	lr, [r3, #4]
 179              		.loc 1 234 0
 180 00a4 D4F828C0 		ldr	ip, [r4, #40]
 181              	.LBE24:
 182              	.LBE23:
 183              		.loc 1 79 0
 184 00a8 8B68     		ldr	r3, [r1, #8]
 185              	.LBB26:
 186              	.LBB25:
 187              		.loc 1 233 0
 188 00aa 26F00106 		bic	r6, r6, #1
 189 00ae 0660     		str	r6, [r0, #0]
 190 00b0 CEF80050 		str	r5, [lr, #0]
 191              		.loc 1 234 0
 192 00b4 CCF80820 		str	r2, [ip, #8]
 193              	.LBE25:
 194              	.LBE26:
 195              		.loc 1 79 0
 196 00b8 002B     		cmp	r3, #0
 197 00ba 36D0     		beq	.L9
 198              		.loc 1 79 0 is_stmt 0 discriminator 6
 199 00bc E268     		ldr	r2, [r4, #12]
 200 00be 0420     		movs	r0, #4
 201 00c0 012A     		cmp	r2, #1
 202 00c2 2070     		strb	r0, [r4, #0]
 203 00c4 38D9     		bls	.L10
 204              	.LBB27:
 205              		.loc 1 79 0 discriminator 8
 206 00c6 8988     		ldrh	r1, [r1, #4]
 207 00c8 5208     		lsrs	r2, r2, #1
 208              	.LVL16:
 209 00ca 01FB02F1 		mul	r1, r1, r2
 210 00ce A068     		ldr	r0, [r4, #8]
 211 00d0 00EB4101 		add	r1, r0, r1, lsl #1
 212 00d4 2046     		mov	r0, r4
 213 00d6 9847     		blx	r3
 214              	.LVL17:
 215              	.L11:
 216              	.LBE27:
 217              		.loc 1 79 0 discriminator 10
 218 00d8 2378     		ldrb	r3, [r4, #0]	@ zero_extendqisi2
 219 00da 042B     		cmp	r3, #4
 220 00dc 25D0     		beq	.L9
 221              	.L12:
 222              		.loc 1 79 0 discriminator 12
 223 00de 0025     		movs	r5, #0
 224 00e0 2561     		str	r5, [r4, #16]
ARM GAS  C:\Users\z80\AppData\Local\Temp\ccFIHkx7.s 			page 5


 225              	.LBB28:
 226 00e2 2023     		movs	r3, #32
 227              	.LVL18:
 228              	@ 79 "../chibios_2.4.x/os/hal/platforms/STM32F1xx/adc_lld.c" 1
 229 00e4 83F31188 		msr     BASEPRI, r3
 230              	@ 0 "" 2
 231              	.LVL19:
 232              		.thumb
 233              	.LBE28:
 234 00e8 FFF7FEFF 		bl	dbg_check_lock_from_isr
 235              	.LVL20:
 236 00ec 6069     		ldr	r0, [r4, #20]
 237 00ee 18B1     		cbz	r0, .L13
 238              	.LVL21:
 239              	.LBB29:
 240              		.loc 1 79 0 discriminator 13
 241 00f0 6561     		str	r5, [r4, #20]
 242 00f2 8562     		str	r5, [r0, #40]
 243 00f4 FFF7FEFF 		bl	chSchReadyI
 244              	.LVL22:
 245              	.L13:
 246              	.LBE29:
 247              		.loc 1 79 0 discriminator 14
 248 00f8 FFF7FEFF 		bl	dbg_check_unlock_from_isr
 249              	.LBB30:
 250 00fc 0023     		movs	r3, #0
 251              	@ 79 "../chibios_2.4.x/os/hal/platforms/STM32F1xx/adc_lld.c" 1
 252 00fe 83F31188 		msr     BASEPRI, r3
 253              	@ 0 "" 2
 254              	.LVL23:
 255              		.thumb
 256 0102 B3E7     		b	.L1
 257              	.LVL24:
 258              	.L16:
 259              	.LBE30:
 260              		.loc 1 79 0 discriminator 1
 261 0104 8B68     		ldr	r3, [r1, #8]
 262 0106 002B     		cmp	r3, #0
 263 0108 B0D0     		beq	.L1
 264              		.loc 1 79 0 discriminator 3
 265 010a E268     		ldr	r2, [r4, #12]
 266 010c 012A     		cmp	r2, #1
 267 010e 0FD9     		bls	.L8
 268              	.LBB31:
 269              		.loc 1 79 0 discriminator 4
 270 0110 8988     		ldrh	r1, [r1, #4]
 271 0112 5208     		lsrs	r2, r2, #1
 272              	.LVL25:
 273 0114 01FB02F1 		mul	r1, r1, r2
 274 0118 A068     		ldr	r0, [r4, #8]
 275 011a 00EB4101 		add	r1, r0, r1, lsl #1
 276 011e 2046     		mov	r0, r4
 277 0120 9847     		blx	r3
 278              	.LVL26:
 279 0122 A3E7     		b	.L1
 280              	.LVL27:
 281              	.L15:
ARM GAS  C:\Users\z80\AppData\Local\Temp\ccFIHkx7.s 			page 6


 282              	.LBE31:
 283              		.loc 1 70 0 is_stmt 1 discriminator 3
 284 0124 0223     		movs	r3, #2
 285 0126 2370     		strb	r3, [r4, #0]
 286 0128 8CE7     		b	.L3
 287              	.LVL28:
 288              	.L9:
 289              		.loc 1 79 0 discriminator 7
 290 012a 0223     		movs	r3, #2
 291 012c 2370     		strb	r3, [r4, #0]
 292 012e D6E7     		b	.L12
 293              	.LVL29:
 294              	.L8:
 295              		.loc 1 79 0 is_stmt 0 discriminator 5
 296 0130 A168     		ldr	r1, [r4, #8]
 297 0132 2046     		mov	r0, r4
 298 0134 9847     		blx	r3
 299 0136 99E7     		b	.L1
 300              	.LVL30:
 301              	.L10:
 302              		.loc 1 79 0 discriminator 9
 303 0138 A168     		ldr	r1, [r4, #8]
 304 013a 2046     		mov	r0, r4
 305 013c 9847     		blx	r3
 306 013e CBE7     		b	.L11
 307              		.cfi_endproc
 308              	.LFE62:
 309              		.size	adc_lld_serve_rx_interrupt, .-adc_lld_serve_rx_interrupt
 310              		.section	.text.adc_lld_init,"ax",%progbits
 311              		.align	2
 312              		.p2align 4,,15
 313              		.global	adc_lld_init
 314              		.thumb
 315              		.thumb_func
 316              		.type	adc_lld_init, %function
 317              	adc_lld_init:
 318              	.LFB63:
 319              		.loc 1 97 0 is_stmt 1
 320              		.cfi_startproc
 321              		@ args = 0, pretend = 0, frame = 0
 322              		@ frame_needed = 0, uses_anonymous_args = 0
 323 0000 10B5     		push	{r4, lr}
 324              	.LCFI1:
 325              		.cfi_def_cfa_offset 8
 326              		.loc 1 101 0
 327 0002 1D4C     		ldr	r4, .L22
 328              		.cfi_offset 14, -4
 329              		.cfi_offset 4, -8
 330 0004 2046     		mov	r0, r4
 331 0006 FFF7FEFF 		bl	adcObjectInit
 332              		.loc 1 104 0
 333 000a 42F28A53 		movw	r3, #9610
 334              		.loc 1 110 0
 335 000e 4FF48052 		mov	r2, #4096
 336              		.loc 1 104 0
 337 0012 2363     		str	r3, [r4, #48]
 338              		.loc 1 110 0
ARM GAS  C:\Users\z80\AppData\Local\Temp\ccFIHkx7.s 			page 7


 339 0014 C4F20202 		movt	r2, 16386
 340 0018 9069     		ldr	r0, [r2, #24]
 341              		.loc 1 103 0
 342 001a 1849     		ldr	r1, .L22+4
 343              		.loc 1 102 0
 344 001c 4FF41053 		mov	r3, #9216
 345 0020 C4F20103 		movt	r3, 16385
 346              		.loc 1 110 0
 347 0024 40F40070 		orr	r0, r0, #512
 348              		.loc 1 103 0
 349 0028 E162     		str	r1, [r4, #44]
 350              		.loc 1 102 0
 351 002a A362     		str	r3, [r4, #40]
 352              		.loc 1 110 0
 353 002c 9061     		str	r0, [r2, #24]
 354              		.loc 1 111 0
 355 002e 0022     		movs	r2, #0
 356 0030 5A60     		str	r2, [r3, #4]
 357              		.loc 1 112 0
 358 0032 0122     		movs	r2, #1
 359 0034 9A60     		str	r2, [r3, #8]
 360              		.loc 1 115 0
 361 0036 0922     		movs	r2, #9
 362              		.loc 1 116 0
 363 0038 1946     		mov	r1, r3
 364              		.loc 1 115 0
 365 003a 9A60     		str	r2, [r3, #8]
 366              	.L18:
 367              		.loc 1 116 0 discriminator 1
 368 003c 8A68     		ldr	r2, [r1, #8]
 369 003e 4FF41053 		mov	r3, #9216
 370 0042 12F0080F 		tst	r2, #8
 371 0046 C4F20103 		movt	r3, 16385
 372 004a F7D1     		bne	.L18
 373              		.loc 1 120 0
 374 004c 0522     		movs	r2, #5
 375 004e 9A60     		str	r2, [r3, #8]
 376              		.loc 1 121 0
 377 0050 1946     		mov	r1, r3
 378              	.L19:
 379              		.loc 1 121 0 is_stmt 0 discriminator 1
 380 0052 8B68     		ldr	r3, [r1, #8]
 381 0054 4FF41052 		mov	r2, #9216
 382 0058 13F00403 		ands	r3, r3, #4
 383 005c C4F20102 		movt	r2, 16385
 384 0060 F7D1     		bne	.L19
 385              		.loc 1 126 0 is_stmt 1
 386 0062 4FF48051 		mov	r1, #4096
 387              		.loc 1 125 0
 388 0066 9360     		str	r3, [r2, #8]
 389              		.loc 1 126 0
 390 0068 C4F20201 		movt	r1, 16386
 391 006c 8B69     		ldr	r3, [r1, #24]
 392 006e 23F40073 		bic	r3, r3, #512
 393 0072 8B61     		str	r3, [r1, #24]
 394              		.loc 1 128 0
 395 0074 10BD     		pop	{r4, pc}
ARM GAS  C:\Users\z80\AppData\Local\Temp\ccFIHkx7.s 			page 8


 396              	.L23:
 397 0076 00BF     		.align	2
 398              	.L22:
 399 0078 00000000 		.word	.LANCHOR0
 400 007c 00000000 		.word	_stm32_dma_streams
 401              		.cfi_endproc
 402              	.LFE63:
 403              		.size	adc_lld_init, .-adc_lld_init
 404              		.section	.text.adc_lld_start,"ax",%progbits
 405              		.align	2
 406              		.p2align 4,,15
 407              		.global	adc_lld_start
 408              		.thumb
 409              		.thumb_func
 410              		.type	adc_lld_start, %function
 411              	adc_lld_start:
 412              	.LFB64:
 413              		.loc 1 137 0
 414              		.cfi_startproc
 415              		@ args = 0, pretend = 0, frame = 0
 416              		@ frame_needed = 0, uses_anonymous_args = 0
 417              	.LVL31:
 418 0000 38B5     		push	{r3, r4, r5, lr}
 419              	.LCFI2:
 420              		.cfi_def_cfa_offset 16
 421              		.loc 1 140 0
 422 0002 0378     		ldrb	r3, [r0, #0]	@ zero_extendqisi2
 423              		.cfi_offset 14, -4
 424              		.cfi_offset 5, -8
 425              		.cfi_offset 4, -12
 426              		.cfi_offset 3, -16
 427              		.loc 1 137 0
 428 0004 0446     		mov	r4, r0
 429              		.loc 1 140 0
 430 0006 012B     		cmp	r3, #1
 431 0008 00D0     		beq	.L28
 432              	.LVL32:
 433              	.L24:
 434              		.loc 1 159 0
 435 000a 38BD     		pop	{r3, r4, r5, pc}
 436              	.L28:
 437              		.loc 1 142 0
 438 000c 114D     		ldr	r5, .L31
 439 000e A842     		cmp	r0, r5
 440 0010 04D0     		beq	.L29
 441              	.L26:
 442              		.loc 1 156 0
 443 0012 A36A     		ldr	r3, [r4, #40]
 444 0014 0022     		movs	r2, #0
 445 0016 5A60     		str	r2, [r3, #4]
 446              		.loc 1 157 0
 447 0018 9A60     		str	r2, [r3, #8]
 448 001a F6E7     		b	.L24
 449              	.L29:
 450              	.LBB32:
 451              		.loc 1 144 0
 452 001c C06A     		ldr	r0, [r0, #44]
ARM GAS  C:\Users\z80\AppData\Local\Temp\ccFIHkx7.s 			page 9


 453 001e 0521     		movs	r1, #5
 454 0020 0D4A     		ldr	r2, .L31+4
 455 0022 2346     		mov	r3, r4
 456 0024 FFF7FEFF 		bl	dmaStreamAllocate
 457              	.LVL33:
 458              		.loc 1 148 0
 459 0028 78B9     		cbnz	r0, .L30
 460              	.LVL34:
 461              	.L27:
 462              		.loc 1 149 0
 463 002a EB6A     		ldr	r3, [r5, #44]
 464 002c 42F24C42 		movw	r2, #9292
 465 0030 1968     		ldr	r1, [r3, #0]
 466 0032 C4F20102 		movt	r2, 16385
 467              		.loc 1 150 0
 468 0036 4FF48053 		mov	r3, #4096
 469              		.loc 1 149 0
 470 003a 8A60     		str	r2, [r1, #8]
 471              		.loc 1 150 0
 472 003c C4F20203 		movt	r3, 16386
 473 0040 9A69     		ldr	r2, [r3, #24]
 474 0042 42F40072 		orr	r2, r2, #512
 475 0046 9A61     		str	r2, [r3, #24]
 476 0048 E3E7     		b	.L26
 477              	.LVL35:
 478              	.L30:
 479              		.loc 1 148 0 discriminator 1
 480 004a 0448     		ldr	r0, .L31+8
 481              	.LVL36:
 482 004c FFF7FEFF 		bl	chDbgPanic
 483 0050 EBE7     		b	.L27
 484              	.L32:
 485 0052 00BF     		.align	2
 486              	.L31:
 487 0054 00000000 		.word	.LANCHOR0
 488 0058 00000000 		.word	adc_lld_serve_rx_interrupt
 489 005c 00000000 		.word	.LC0
 490              	.LBE32:
 491              		.cfi_endproc
 492              	.LFE64:
 493              		.size	adc_lld_start, .-adc_lld_start
 494              		.section	.text.adc_lld_stop,"ax",%progbits
 495              		.align	2
 496              		.p2align 4,,15
 497              		.global	adc_lld_stop
 498              		.thumb
 499              		.thumb_func
 500              		.type	adc_lld_stop, %function
 501              	adc_lld_stop:
 502              	.LFB65:
 503              		.loc 1 168 0
 504              		.cfi_startproc
 505              		@ args = 0, pretend = 0, frame = 0
 506              		@ frame_needed = 0, uses_anonymous_args = 0
 507              	.LVL37:
 508 0000 08B5     		push	{r3, lr}
 509              	.LCFI3:
ARM GAS  C:\Users\z80\AppData\Local\Temp\ccFIHkx7.s 			page 10


 510              		.cfi_def_cfa_offset 8
 511              		.loc 1 171 0
 512 0002 0378     		ldrb	r3, [r0, #0]	@ zero_extendqisi2
 513              		.cfi_offset 14, -4
 514              		.cfi_offset 3, -8
 515 0004 022B     		cmp	r3, #2
 516 0006 00D0     		beq	.L35
 517              	.LVL38:
 518              	.L33:
 519              		.loc 1 181 0
 520 0008 08BD     		pop	{r3, pc}
 521              	.LVL39:
 522              	.L35:
 523              		.loc 1 173 0
 524 000a 0B4B     		ldr	r3, .L36
 525 000c 9842     		cmp	r0, r3
 526 000e FBD1     		bne	.L33
 527              		.loc 1 174 0
 528 0010 4FF41053 		mov	r3, #9216
 529 0014 C4F20103 		movt	r3, 16385
 530 0018 0022     		movs	r2, #0
 531              		.loc 1 176 0
 532 001a C06A     		ldr	r0, [r0, #44]
 533              	.LVL40:
 534              		.loc 1 174 0
 535 001c 5A60     		str	r2, [r3, #4]
 536              		.loc 1 175 0
 537 001e 9A60     		str	r2, [r3, #8]
 538              		.loc 1 176 0
 539 0020 FFF7FEFF 		bl	dmaStreamRelease
 540              		.loc 1 177 0
 541 0024 4FF48053 		mov	r3, #4096
 542 0028 C4F20203 		movt	r3, 16386
 543 002c 9A69     		ldr	r2, [r3, #24]
 544 002e 22F40072 		bic	r2, r2, #512
 545 0032 9A61     		str	r2, [r3, #24]
 546 0034 E8E7     		b	.L33
 547              	.L37:
 548 0036 00BF     		.align	2
 549              	.L36:
 550 0038 00000000 		.word	.LANCHOR0
 551              		.cfi_endproc
 552              	.LFE65:
 553              		.size	adc_lld_stop, .-adc_lld_stop
 554 003c AFF30080 		.section	.text.adc_lld_start_conversion,"ax",%progbits
 555              		.align	2
 556              		.p2align 4,,15
 557              		.global	adc_lld_start_conversion
 558              		.thumb
 559              		.thumb_func
 560              		.type	adc_lld_start_conversion, %function
 561              	adc_lld_start_conversion:
 562              	.LFB66:
 563              		.loc 1 190 0
 564              		.cfi_startproc
 565              		@ args = 0, pretend = 0, frame = 0
 566              		@ frame_needed = 0, uses_anonymous_args = 0
ARM GAS  C:\Users\z80\AppData\Local\Temp\ccFIHkx7.s 			page 11


 567              		@ link register save eliminated.
 568              	.LVL41:
 569              		.loc 1 192 0
 570 0000 0369     		ldr	r3, [r0, #16]
 571              	.LVL42:
 572              		.loc 1 190 0
 573 0002 2DE9F005 		push	{r4, r5, r6, r7, r8, sl}
 574              	.LCFI4:
 575              		.cfi_def_cfa_offset 24
 576              		.loc 1 196 0
 577 0006 1968     		ldr	r1, [r3, #0]
 578              		.loc 1 195 0
 579 0008 026B     		ldr	r2, [r0, #48]
 580              	.LVL43:
 581              		.loc 1 196 0
 582 000a 09B1     		cbz	r1, .L39
 583              		.cfi_offset 10, -4
 584              		.cfi_offset 8, -8
 585              		.cfi_offset 7, -12
 586              		.cfi_offset 6, -16
 587              		.cfi_offset 5, -20
 588              		.cfi_offset 4, -24
 589              		.loc 1 197 0
 590 000c 42F02002 		orr	r2, r2, #32
 591              	.LVL44:
 592              	.L39:
 593              		.loc 1 198 0
 594 0010 C168     		ldr	r1, [r0, #12]
 595              		.loc 1 206 0
 596 0012 C46A     		ldr	r4, [r0, #44]
 597              		.loc 1 198 0
 598 0014 0129     		cmp	r1, #1
 599              		.loc 1 202 0
 600 0016 8ABF     		itet	hi
 601 0018 9D88     		ldrhhi	r5, [r3, #4]
 602              		.loc 1 205 0
 603 001a 9D88     		ldrhls	r5, [r3, #4]
 604              		.loc 1 202 0
 605 001c 4D43     		mulhi	r5, r1, r5
 606              		.loc 1 206 0
 607 001e D0F808C0 		ldr	ip, [r0, #8]
 608 0022 2168     		ldr	r1, [r4, #0]
 609              		.loc 1 201 0
 610 0024 88BF     		it	hi
 611 0026 42F00402 		orrhi	r2, r2, #4
 612              	.LVL45:
 613              		.loc 1 213 0
 614 002a D3F81480 		ldr	r8, [r3, #20]
 615              		.loc 1 206 0
 616 002e C1F80CC0 		str	ip, [r1, #12]
 617              		.loc 1 207 0
 618 0032 4D60     		str	r5, [r1, #4]
 619              		.loc 1 208 0
 620 0034 0A60     		str	r2, [r1, #0]
 621              		.loc 1 212 0
 622 0036 1E69     		ldr	r6, [r3, #16]
 623              		.loc 1 209 0
ARM GAS  C:\Users\z80\AppData\Local\Temp\ccFIHkx7.s 			page 12


 624 0038 0F68     		ldr	r7, [r1, #0]
 625              		.loc 1 212 0
 626 003a 826A     		ldr	r2, [r0, #40]
 627              	.LVL46:
 628              		.loc 1 214 0
 629 003c D3F818A0 		ldr	sl, [r3, #24]
 630              		.loc 1 215 0
 631 0040 DD69     		ldr	r5, [r3, #28]
 632              	.LVL47:
 633              		.loc 1 216 0
 634 0042 1C6A     		ldr	r4, [r3, #32]
 635              		.loc 1 217 0
 636 0044 D3F824C0 		ldr	ip, [r3, #36]
 637              		.loc 1 218 0
 638 0048 986A     		ldr	r0, [r3, #40]
 639              	.LVL48:
 640              		.loc 1 213 0
 641 004a 48F48073 		orr	r3, r8, #256
 642              	.LVL49:
 643 004e 43F00303 		orr	r3, r3, #3
 644              		.loc 1 209 0
 645 0052 47F00107 		orr	r7, r7, #1
 646              		.loc 1 212 0
 647 0056 46F48076 		orr	r6, r6, #256
 648              		.loc 1 209 0
 649 005a 0F60     		str	r7, [r1, #0]
 650              		.loc 1 212 0
 651 005c 5660     		str	r6, [r2, #4]
 652              		.loc 1 213 0
 653 005e 9360     		str	r3, [r2, #8]
 654              		.loc 1 214 0
 655 0060 C2F80CA0 		str	sl, [r2, #12]
 656              		.loc 1 215 0
 657 0064 1561     		str	r5, [r2, #16]
 658              		.loc 1 216 0
 659 0066 D462     		str	r4, [r2, #44]
 660              		.loc 1 217 0
 661 0068 C2F830C0 		str	ip, [r2, #48]
 662              		.loc 1 218 0
 663 006c 5063     		str	r0, [r2, #52]
 664              		.loc 1 221 0
 665 006e 9360     		str	r3, [r2, #8]
 666              		.loc 1 222 0
 667 0070 BDE8F005 		pop	{r4, r5, r6, r7, r8, sl}
 668 0074 7047     		bx	lr
 669              		.cfi_endproc
 670              	.LFE66:
 671              		.size	adc_lld_start_conversion, .-adc_lld_start_conversion
 672 0076 00BFAFF3 		.section	.text.adc_lld_stop_conversion,"ax",%progbits
 672      0080AFF3 
 672      0080
 673              		.align	2
 674              		.p2align 4,,15
 675              		.global	adc_lld_stop_conversion
 676              		.thumb
 677              		.thumb_func
 678              		.type	adc_lld_stop_conversion, %function
ARM GAS  C:\Users\z80\AppData\Local\Temp\ccFIHkx7.s 			page 13


 679              	adc_lld_stop_conversion:
 680              	.LFB67:
 681              		.loc 1 231 0
 682              		.cfi_startproc
 683              		@ args = 0, pretend = 0, frame = 0
 684              		@ frame_needed = 0, uses_anonymous_args = 0
 685              		@ link register save eliminated.
 686              	.LVL50:
 687 0000 10B4     		push	{r4}
 688              	.LCFI5:
 689              		.cfi_def_cfa_offset 4
 690              		.loc 1 233 0
 691 0002 C36A     		ldr	r3, [r0, #44]
 692 0004 4FF00F0C 		mov	ip, #15
 693 0008 197A     		ldrb	r1, [r3, #8]	@ zero_extendqisi2
 694 000a 1A68     		ldr	r2, [r3, #0]
 695 000c 0CFA01FC 		lsl	ip, ip, r1
 696 0010 1468     		ldr	r4, [r2, #0]
 697              		.cfi_offset 4, -4
 698 0012 5968     		ldr	r1, [r3, #4]
 699              		.loc 1 234 0
 700 0014 836A     		ldr	r3, [r0, #40]
 701              		.loc 1 233 0
 702 0016 24F00100 		bic	r0, r4, #1
 703              	.LVL51:
 704 001a 1060     		str	r0, [r2, #0]
 705              		.loc 1 234 0
 706 001c 0022     		movs	r2, #0
 707              		.loc 1 233 0
 708 001e C1F800C0 		str	ip, [r1, #0]
 709              		.loc 1 234 0
 710 0022 9A60     		str	r2, [r3, #8]
 711              		.loc 1 235 0
 712 0024 10BC     		pop	{r4}
 713 0026 7047     		bx	lr
 714              		.cfi_endproc
 715              	.LFE67:
 716              		.size	adc_lld_stop_conversion, .-adc_lld_stop_conversion
 717              		.global	ADCD1
 718 0028 AFF30080 		.section	.bss.ADCD1,"aw",%nobits
 718      AFF30080 
 719              		.align	2
 720              		.set	.LANCHOR0,. + 0
 721              		.type	ADCD1, %object
 722              		.size	ADCD1, 52
 723              	ADCD1:
 724 0000 00000000 		.space	52
 724      00000000 
 724      00000000 
 724      00000000 
 724      00000000 
 725              		.section	.rodata.str1.4,"aMS",%progbits,1
 726              		.align	2
 727              	.LC0:
 728 0000 6164635F 		.ascii	"adc_lld_start(), #1\000"
 728      6C6C645F 
 728      73746172 
ARM GAS  C:\Users\z80\AppData\Local\Temp\ccFIHkx7.s 			page 14


 728      7428292C 
 728      20233100 
 729              		.text
 730              	.Letext0:
 731              		.section	.debug_loc,"",%progbits
 732              	.Ldebug_loc0:
 733              	.LLST0:
 734 0000 00000000 		.4byte	.LFB62
 735 0004 06000000 		.4byte	.LCFI0
 736 0008 0200     		.2byte	0x2
 737 000a 7D       		.byte	0x7d
 738 000b 00       		.sleb128 0
 739 000c 06000000 		.4byte	.LCFI0
 740 0010 40010000 		.4byte	.LFE62
 741 0014 0200     		.2byte	0x2
 742 0016 7D       		.byte	0x7d
 743 0017 10       		.sleb128 16
 744 0018 00000000 		.4byte	0x0
 745 001c 00000000 		.4byte	0x0
 746              	.LLST1:
 747 0020 00000000 		.4byte	.LVL0
 748 0024 24000000 		.4byte	.LVL4
 749 0028 0100     		.2byte	0x1
 750 002a 50       		.byte	0x50
 751 002b 24000000 		.4byte	.LVL4
 752 002f 40010000 		.4byte	.LFE62
 753 0033 0100     		.2byte	0x1
 754 0035 54       		.byte	0x54
 755 0036 00000000 		.4byte	0x0
 756 003a 00000000 		.4byte	0x0
 757              	.LLST2:
 758 003e 00000000 		.4byte	.LVL0
 759 0042 14000000 		.4byte	.LVL2
 760 0046 0100     		.2byte	0x1
 761 0048 51       		.byte	0x51
 762 0049 14000000 		.4byte	.LVL2
 763 004d 1E000000 		.4byte	.LVL3
 764 0051 0100     		.2byte	0x1
 765 0053 55       		.byte	0x55
 766 0054 6E000000 		.4byte	.LVL12
 767 0058 7E000000 		.4byte	.LVL13
 768 005c 0100     		.2byte	0x1
 769 005e 51       		.byte	0x51
 770 005f 7E000000 		.4byte	.LVL13
 771 0063 94000000 		.4byte	.LVL15
 772 0067 0100     		.2byte	0x1
 773 0069 55       		.byte	0x55
 774 006a 04010000 		.4byte	.LVL24
 775 006e 24010000 		.4byte	.LVL27
 776 0072 0100     		.2byte	0x1
 777 0074 55       		.byte	0x55
 778 0075 30010000 		.4byte	.LVL29
 779 0079 38010000 		.4byte	.LVL30
 780 007d 0100     		.2byte	0x1
 781 007f 55       		.byte	0x55
 782 0080 00000000 		.4byte	0x0
 783 0084 00000000 		.4byte	0x0
ARM GAS  C:\Users\z80\AppData\Local\Temp\ccFIHkx7.s 			page 15


 784              	.LLST3:
 785 0088 0C000000 		.4byte	.LVL1
 786 008c 24000000 		.4byte	.LVL4
 787 0090 0100     		.2byte	0x1
 788 0092 50       		.byte	0x50
 789 0093 24000000 		.4byte	.LVL4
 790 0097 6C000000 		.4byte	.LVL11
 791 009b 0100     		.2byte	0x1
 792 009d 54       		.byte	0x54
 793 009e 24010000 		.4byte	.LVL27
 794 00a2 2A010000 		.4byte	.LVL28
 795 00a6 0100     		.2byte	0x1
 796 00a8 54       		.byte	0x54
 797 00a9 00000000 		.4byte	0x0
 798 00ad 00000000 		.4byte	0x0
 799              	.LLST4:
 800 00b1 4E000000 		.4byte	.LVL6
 801 00b5 51000000 		.4byte	.LVL7-1
 802 00b9 0100     		.2byte	0x1
 803 00bb 53       		.byte	0x53
 804 00bc 00000000 		.4byte	0x0
 805 00c0 00000000 		.4byte	0x0
 806              	.LLST5:
 807 00c4 56000000 		.4byte	.LVL8
 808 00c8 61000000 		.4byte	.LVL9-1
 809 00cc 0200     		.2byte	0x2
 810 00ce 74       		.byte	0x74
 811 00cf 14       		.sleb128 20
 812 00d0 00000000 		.4byte	0x0
 813 00d4 00000000 		.4byte	0x0
 814              	.LLST6:
 815 00d8 6C000000 		.4byte	.LVL11
 816 00dc 6E000000 		.4byte	.LVL12
 817 00e0 0100     		.2byte	0x1
 818 00e2 53       		.byte	0x53
 819 00e3 00000000 		.4byte	0x0
 820 00e7 00000000 		.4byte	0x0
 821              	.LLST7:
 822 00eb 90000000 		.4byte	.LVL14
 823 00ef 04010000 		.4byte	.LVL24
 824 00f3 0100     		.2byte	0x1
 825 00f5 54       		.byte	0x54
 826 00f6 2A010000 		.4byte	.LVL28
 827 00fa 30010000 		.4byte	.LVL29
 828 00fe 0100     		.2byte	0x1
 829 0100 54       		.byte	0x54
 830 0101 38010000 		.4byte	.LVL30
 831 0105 40010000 		.4byte	.LFE62
 832 0109 0100     		.2byte	0x1
 833 010b 54       		.byte	0x54
 834 010c 00000000 		.4byte	0x0
 835 0110 00000000 		.4byte	0x0
 836              	.LLST8:
 837 0114 CA000000 		.4byte	.LVL16
 838 0118 D7000000 		.4byte	.LVL17-1
 839 011c 0100     		.2byte	0x1
 840 011e 52       		.byte	0x52
ARM GAS  C:\Users\z80\AppData\Local\Temp\ccFIHkx7.s 			page 16


 841 011f 00000000 		.4byte	0x0
 842 0123 00000000 		.4byte	0x0
 843              	.LLST9:
 844 0127 E8000000 		.4byte	.LVL19
 845 012b EB000000 		.4byte	.LVL20-1
 846 012f 0100     		.2byte	0x1
 847 0131 53       		.byte	0x53
 848 0132 00000000 		.4byte	0x0
 849 0136 00000000 		.4byte	0x0
 850              	.LLST10:
 851 013a F0000000 		.4byte	.LVL21
 852 013e F7000000 		.4byte	.LVL22-1
 853 0142 0200     		.2byte	0x2
 854 0144 74       		.byte	0x74
 855 0145 14       		.sleb128 20
 856 0146 00000000 		.4byte	0x0
 857 014a 00000000 		.4byte	0x0
 858              	.LLST11:
 859 014e 6C000000 		.4byte	.LVL11
 860 0152 6E000000 		.4byte	.LVL12
 861 0156 0100     		.2byte	0x1
 862 0158 53       		.byte	0x53
 863 0159 02010000 		.4byte	.LVL23
 864 015d 04010000 		.4byte	.LVL24
 865 0161 0100     		.2byte	0x1
 866 0163 53       		.byte	0x53
 867 0164 00000000 		.4byte	0x0
 868 0168 00000000 		.4byte	0x0
 869              	.LLST12:
 870 016c 14010000 		.4byte	.LVL25
 871 0170 21010000 		.4byte	.LVL26-1
 872 0174 0100     		.2byte	0x1
 873 0176 52       		.byte	0x52
 874 0177 00000000 		.4byte	0x0
 875 017b 00000000 		.4byte	0x0
 876              	.LLST13:
 877 017f 00000000 		.4byte	.LFB63
 878 0183 02000000 		.4byte	.LCFI1
 879 0187 0200     		.2byte	0x2
 880 0189 7D       		.byte	0x7d
 881 018a 00       		.sleb128 0
 882 018b 02000000 		.4byte	.LCFI1
 883 018f 80000000 		.4byte	.LFE63
 884 0193 0200     		.2byte	0x2
 885 0195 7D       		.byte	0x7d
 886 0196 08       		.sleb128 8
 887 0197 00000000 		.4byte	0x0
 888 019b 00000000 		.4byte	0x0
 889              	.LLST14:
 890 019f 00000000 		.4byte	.LFB64
 891 01a3 02000000 		.4byte	.LCFI2
 892 01a7 0200     		.2byte	0x2
 893 01a9 7D       		.byte	0x7d
 894 01aa 00       		.sleb128 0
 895 01ab 02000000 		.4byte	.LCFI2
 896 01af 60000000 		.4byte	.LFE64
 897 01b3 0200     		.2byte	0x2
ARM GAS  C:\Users\z80\AppData\Local\Temp\ccFIHkx7.s 			page 17


 898 01b5 7D       		.byte	0x7d
 899 01b6 10       		.sleb128 16
 900 01b7 00000000 		.4byte	0x0
 901 01bb 00000000 		.4byte	0x0
 902              	.LLST15:
 903 01bf 00000000 		.4byte	.LVL31
 904 01c3 0A000000 		.4byte	.LVL32
 905 01c7 0100     		.2byte	0x1
 906 01c9 50       		.byte	0x50
 907 01ca 0A000000 		.4byte	.LVL32
 908 01ce 60000000 		.4byte	.LFE64
 909 01d2 0100     		.2byte	0x1
 910 01d4 54       		.byte	0x54
 911 01d5 00000000 		.4byte	0x0
 912 01d9 00000000 		.4byte	0x0
 913              	.LLST16:
 914 01dd 28000000 		.4byte	.LVL33
 915 01e1 2A000000 		.4byte	.LVL34
 916 01e5 0100     		.2byte	0x1
 917 01e7 50       		.byte	0x50
 918 01e8 4A000000 		.4byte	.LVL35
 919 01ec 4C000000 		.4byte	.LVL36
 920 01f0 0100     		.2byte	0x1
 921 01f2 50       		.byte	0x50
 922 01f3 00000000 		.4byte	0x0
 923 01f7 00000000 		.4byte	0x0
 924              	.LLST17:
 925 01fb 00000000 		.4byte	.LFB65
 926 01ff 02000000 		.4byte	.LCFI3
 927 0203 0200     		.2byte	0x2
 928 0205 7D       		.byte	0x7d
 929 0206 00       		.sleb128 0
 930 0207 02000000 		.4byte	.LCFI3
 931 020b 3C000000 		.4byte	.LFE65
 932 020f 0200     		.2byte	0x2
 933 0211 7D       		.byte	0x7d
 934 0212 08       		.sleb128 8
 935 0213 00000000 		.4byte	0x0
 936 0217 00000000 		.4byte	0x0
 937              	.LLST18:
 938 021b 00000000 		.4byte	.LVL37
 939 021f 08000000 		.4byte	.LVL38
 940 0223 0100     		.2byte	0x1
 941 0225 50       		.byte	0x50
 942 0226 0A000000 		.4byte	.LVL39
 943 022a 1C000000 		.4byte	.LVL40
 944 022e 0100     		.2byte	0x1
 945 0230 50       		.byte	0x50
 946 0231 00000000 		.4byte	0x0
 947 0235 00000000 		.4byte	0x0
 948              	.LLST19:
 949 0239 00000000 		.4byte	.LFB66
 950 023d 06000000 		.4byte	.LCFI4
 951 0241 0200     		.2byte	0x2
 952 0243 7D       		.byte	0x7d
 953 0244 00       		.sleb128 0
 954 0245 06000000 		.4byte	.LCFI4
ARM GAS  C:\Users\z80\AppData\Local\Temp\ccFIHkx7.s 			page 18


 955 0249 76000000 		.4byte	.LFE66
 956 024d 0200     		.2byte	0x2
 957 024f 7D       		.byte	0x7d
 958 0250 18       		.sleb128 24
 959 0251 00000000 		.4byte	0x0
 960 0255 00000000 		.4byte	0x0
 961              	.LLST20:
 962 0259 00000000 		.4byte	.LVL41
 963 025d 4A000000 		.4byte	.LVL48
 964 0261 0100     		.2byte	0x1
 965 0263 50       		.byte	0x50
 966 0264 00000000 		.4byte	0x0
 967 0268 00000000 		.4byte	0x0
 968              	.LLST21:
 969 026c 0A000000 		.4byte	.LVL43
 970 0270 10000000 		.4byte	.LVL44
 971 0274 0200     		.2byte	0x2
 972 0276 70       		.byte	0x70
 973 0277 30       		.sleb128 48
 974 0278 10000000 		.4byte	.LVL44
 975 027c 2A000000 		.4byte	.LVL45
 976 0280 0100     		.2byte	0x1
 977 0282 52       		.byte	0x52
 978 0283 2A000000 		.4byte	.LVL45
 979 0287 3C000000 		.4byte	.LVL46
 980 028b 0100     		.2byte	0x1
 981 028d 52       		.byte	0x52
 982 028e 3C000000 		.4byte	.LVL46
 983 0292 4A000000 		.4byte	.LVL48
 984 0296 0400     		.2byte	0x4
 985 0298 70       		.byte	0x70
 986 0299 2C       		.sleb128 44
 987 029a 06       		.byte	0x6
 988 029b 06       		.byte	0x6
 989 029c 4A000000 		.4byte	.LVL48
 990 02a0 76000000 		.4byte	.LFE66
 991 02a4 0200     		.2byte	0x2
 992 02a6 71       		.byte	0x71
 993 02a7 00       		.sleb128 0
 994 02a8 00000000 		.4byte	0x0
 995 02ac 00000000 		.4byte	0x0
 996              	.LLST22:
 997 02b0 2A000000 		.4byte	.LVL45
 998 02b4 42000000 		.4byte	.LVL47
 999 02b8 0100     		.2byte	0x1
 1000 02ba 55       		.byte	0x55
 1001 02bb 4A000000 		.4byte	.LVL48
 1002 02bf 76000000 		.4byte	.LFE66
 1003 02c3 0200     		.2byte	0x2
 1004 02c5 71       		.byte	0x71
 1005 02c6 04       		.sleb128 4
 1006 02c7 00000000 		.4byte	0x0
 1007 02cb 00000000 		.4byte	0x0
 1008              	.LLST23:
 1009 02cf 02000000 		.4byte	.LVL42
 1010 02d3 4A000000 		.4byte	.LVL48
 1011 02d7 0200     		.2byte	0x2
ARM GAS  C:\Users\z80\AppData\Local\Temp\ccFIHkx7.s 			page 19


 1012 02d9 70       		.byte	0x70
 1013 02da 10       		.sleb128 16
 1014 02db 4A000000 		.4byte	.LVL48
 1015 02df 4E000000 		.4byte	.LVL49
 1016 02e3 0100     		.2byte	0x1
 1017 02e5 53       		.byte	0x53
 1018 02e6 00000000 		.4byte	0x0
 1019 02ea 00000000 		.4byte	0x0
 1020              	.LLST24:
 1021 02ee 00000000 		.4byte	.LFB67
 1022 02f2 02000000 		.4byte	.LCFI5
 1023 02f6 0200     		.2byte	0x2
 1024 02f8 7D       		.byte	0x7d
 1025 02f9 00       		.sleb128 0
 1026 02fa 02000000 		.4byte	.LCFI5
 1027 02fe 28000000 		.4byte	.LFE67
 1028 0302 0200     		.2byte	0x2
 1029 0304 7D       		.byte	0x7d
 1030 0305 04       		.sleb128 4
 1031 0306 00000000 		.4byte	0x0
 1032 030a 00000000 		.4byte	0x0
 1033              	.LLST25:
 1034 030e 00000000 		.4byte	.LVL50
 1035 0312 1A000000 		.4byte	.LVL51
 1036 0316 0100     		.2byte	0x1
 1037 0318 50       		.byte	0x50
 1038 0319 00000000 		.4byte	0x0
 1039 031d 00000000 		.4byte	0x0
 1040              		.file 2 "c:\\programs\\yagarto\\bin\\../lib/gcc/arm-none-eabi/4.5.0/include/stddef.h"
 1041              		.file 3 "c:/programs/yagarto/lib/gcc/../../arm-none-eabi/sys-include/stdint.h"
 1042              		.file 4 "../chibios_2.4.x/os/ports/GCC/ARMCMx/chtypes.h"
 1043              		.file 5 "../chibios_2.4.x/os/kernel/include/chlists.h"
 1044              		.file 6 "../chibios_2.4.x/os/kernel/include/chthreads.h"
 1045              		.file 7 "../chibios_2.4.x/os/ports/GCC/ARMCMx/chcore_v7m.h"
 1046              		.file 8 "../chibios_2.4.x/os/kernel/include/chmtx.h"
 1047              		.file 9 "../chibios_2.4.x/os/hal/platforms/STM32F1xx/stm32f10x.h"
 1048              		.file 10 "../chibios_2.4.x/os/hal/platforms/STM32F1xx/stm32_dma.h"
 1049              		.file 11 "../chibios_2.4.x/os/hal/include/adc.h"
 1050              		.file 12 "../chibios_2.4.x/os/hal/platforms/STM32F1xx/adc_lld.h"
 1051              		.file 13 "../chibios_2.4.x/os/ports/common/ARMCMx/CMSIS/include/core_cm3.h"
 1052              		.section	.debug_info
 1053 0000 ED0B0000 		.4byte	0xbed
 1054 0004 0200     		.2byte	0x2
 1055 0006 00000000 		.4byte	.Ldebug_abbrev0
 1056 000a 04       		.byte	0x4
 1057 000b 01       		.uleb128 0x1
 1058 000c 11050000 		.4byte	.LASF135
 1059 0010 01       		.byte	0x1
 1060 0011 BE020000 		.4byte	.LASF136
 1061 0015 34030000 		.4byte	.LASF137
 1062 0019 00000000 		.4byte	0x0
 1063 001d 00000000 		.4byte	0x0
 1064 0021 38000000 		.4byte	.Ldebug_ranges0+0x38
 1065 0025 00000000 		.4byte	.Ldebug_line0
 1066 0029 02       		.uleb128 0x2
 1067 002a 04       		.byte	0x4
 1068 002b 05       		.byte	0x5
ARM GAS  C:\Users\z80\AppData\Local\Temp\ccFIHkx7.s 			page 20


 1069 002c 696E7400 		.ascii	"int\000"
 1070 0030 03       		.uleb128 0x3
 1071 0031 00000000 		.4byte	.LASF2
 1072 0035 02       		.byte	0x2
 1073 0036 D3       		.byte	0xd3
 1074 0037 3B000000 		.4byte	0x3b
 1075 003b 04       		.uleb128 0x4
 1076 003c 04       		.byte	0x4
 1077 003d 07       		.byte	0x7
 1078 003e BA010000 		.4byte	.LASF0
 1079 0042 04       		.uleb128 0x4
 1080 0043 01       		.byte	0x1
 1081 0044 06       		.byte	0x6
 1082 0045 9A000000 		.4byte	.LASF1
 1083 0049 03       		.uleb128 0x3
 1084 004a DC040000 		.4byte	.LASF3
 1085 004e 03       		.byte	0x3
 1086 004f 2A       		.byte	0x2a
 1087 0050 54000000 		.4byte	0x54
 1088 0054 04       		.uleb128 0x4
 1089 0055 01       		.byte	0x1
 1090 0056 08       		.byte	0x8
 1091 0057 A7030000 		.4byte	.LASF4
 1092 005b 04       		.uleb128 0x4
 1093 005c 02       		.byte	0x2
 1094 005d 05       		.byte	0x5
 1095 005e 79020000 		.4byte	.LASF5
 1096 0062 03       		.uleb128 0x3
 1097 0063 36010000 		.4byte	.LASF6
 1098 0067 03       		.byte	0x3
 1099 0068 36       		.byte	0x36
 1100 0069 6D000000 		.4byte	0x6d
 1101 006d 04       		.uleb128 0x4
 1102 006e 02       		.byte	0x2
 1103 006f 07       		.byte	0x7
 1104 0070 23020000 		.4byte	.LASF7
 1105 0074 03       		.uleb128 0x3
 1106 0075 9F030000 		.4byte	.LASF8
 1107 0079 03       		.byte	0x3
 1108 007a 4F       		.byte	0x4f
 1109 007b 7F000000 		.4byte	0x7f
 1110 007f 04       		.uleb128 0x4
 1111 0080 04       		.byte	0x4
 1112 0081 05       		.byte	0x5
 1113 0082 DE000000 		.4byte	.LASF9
 1114 0086 03       		.uleb128 0x3
 1115 0087 36040000 		.4byte	.LASF10
 1116 008b 03       		.byte	0x3
 1117 008c 50       		.byte	0x50
 1118 008d 91000000 		.4byte	0x91
 1119 0091 04       		.uleb128 0x4
 1120 0092 04       		.byte	0x4
 1121 0093 07       		.byte	0x7
 1122 0094 55040000 		.4byte	.LASF11
 1123 0098 04       		.uleb128 0x4
 1124 0099 08       		.byte	0x8
 1125 009a 05       		.byte	0x5
ARM GAS  C:\Users\z80\AppData\Local\Temp\ccFIHkx7.s 			page 21


 1126 009b 8C000000 		.4byte	.LASF12
 1127 009f 03       		.uleb128 0x3
 1128 00a0 0A030000 		.4byte	.LASF13
 1129 00a4 03       		.byte	0x3
 1130 00a5 78       		.byte	0x78
 1131 00a6 AA000000 		.4byte	0xaa
 1132 00aa 04       		.uleb128 0x4
 1133 00ab 08       		.byte	0x8
 1134 00ac 07       		.byte	0x7
 1135 00ad 35000000 		.4byte	.LASF14
 1136 00b1 03       		.uleb128 0x3
 1137 00b2 AE000000 		.4byte	.LASF15
 1138 00b6 04       		.byte	0x4
 1139 00b7 2E       		.byte	0x2e
 1140 00b8 74000000 		.4byte	0x74
 1141 00bc 03       		.uleb128 0x3
 1142 00bd 4C020000 		.4byte	.LASF16
 1143 00c1 04       		.byte	0x4
 1144 00c2 2F       		.byte	0x2f
 1145 00c3 49000000 		.4byte	0x49
 1146 00c7 03       		.uleb128 0x3
 1147 00c8 26010000 		.4byte	.LASF17
 1148 00cc 04       		.byte	0x4
 1149 00cd 30       		.byte	0x30
 1150 00ce 49000000 		.4byte	0x49
 1151 00d2 03       		.uleb128 0x3
 1152 00d3 91030000 		.4byte	.LASF18
 1153 00d7 04       		.byte	0x4
 1154 00d8 32       		.byte	0x32
 1155 00d9 86000000 		.4byte	0x86
 1156 00dd 03       		.uleb128 0x3
 1157 00de 46020000 		.4byte	.LASF19
 1158 00e2 04       		.byte	0x4
 1159 00e3 33       		.byte	0x33
 1160 00e4 74000000 		.4byte	0x74
 1161 00e8 03       		.uleb128 0x3
 1162 00e9 6D020000 		.4byte	.LASF20
 1163 00ed 04       		.byte	0x4
 1164 00ee 35       		.byte	0x35
 1165 00ef 86000000 		.4byte	0x86
 1166 00f3 03       		.uleb128 0x3
 1167 00f4 8D040000 		.4byte	.LASF21
 1168 00f8 04       		.byte	0x4
 1169 00f9 36       		.byte	0x36
 1170 00fa 86000000 		.4byte	0x86
 1171 00fe 03       		.uleb128 0x3
 1172 00ff 94010000 		.4byte	.LASF22
 1173 0103 05       		.byte	0x5
 1174 0104 2A       		.byte	0x2a
 1175 0105 09010000 		.4byte	0x109
 1176 0109 05       		.uleb128 0x5
 1177 010a 94010000 		.4byte	.LASF22
 1178 010e 48       		.byte	0x48
 1179 010f 06       		.byte	0x6
 1180 0110 5E       		.byte	0x5e
 1181 0111 12020000 		.4byte	0x212
 1182 0115 06       		.uleb128 0x6
ARM GAS  C:\Users\z80\AppData\Local\Temp\ccFIHkx7.s 			page 22


 1183 0116 FA020000 		.4byte	.LASF23
 1184 011a 06       		.byte	0x6
 1185 011b 5F       		.byte	0x5f
 1186 011c 37020000 		.4byte	0x237
 1187 0120 02       		.byte	0x2
 1188 0121 23       		.byte	0x23
 1189 0122 00       		.uleb128 0x0
 1190 0123 06       		.uleb128 0x6
 1191 0124 77030000 		.4byte	.LASF24
 1192 0128 06       		.byte	0x6
 1193 0129 61       		.byte	0x61
 1194 012a 37020000 		.4byte	0x237
 1195 012e 02       		.byte	0x2
 1196 012f 23       		.byte	0x23
 1197 0130 04       		.uleb128 0x4
 1198 0131 06       		.uleb128 0x6
 1199 0132 80000000 		.4byte	.LASF25
 1200 0136 06       		.byte	0x6
 1201 0137 63       		.byte	0x63
 1202 0138 D2000000 		.4byte	0xd2
 1203 013c 02       		.byte	0x2
 1204 013d 23       		.byte	0x23
 1205 013e 08       		.uleb128 0x8
 1206 013f 06       		.uleb128 0x6
 1207 0140 69050000 		.4byte	.LASF26
 1208 0144 06       		.byte	0x6
 1209 0145 64       		.byte	0x64
 1210 0146 0F030000 		.4byte	0x30f
 1211 014a 02       		.byte	0x2
 1212 014b 23       		.byte	0x23
 1213 014c 0C       		.uleb128 0xc
 1214 014d 06       		.uleb128 0x6
 1215 014e 52010000 		.4byte	.LASF27
 1216 0152 06       		.byte	0x6
 1217 0153 66       		.byte	0x66
 1218 0154 37020000 		.4byte	0x237
 1219 0158 02       		.byte	0x2
 1220 0159 23       		.byte	0x23
 1221 015a 10       		.uleb128 0x10
 1222 015b 06       		.uleb128 0x6
 1223 015c 13030000 		.4byte	.LASF28
 1224 0160 06       		.byte	0x6
 1225 0161 67       		.byte	0x67
 1226 0162 37020000 		.4byte	0x237
 1227 0166 02       		.byte	0x2
 1228 0167 23       		.byte	0x23
 1229 0168 14       		.uleb128 0x14
 1230 0169 06       		.uleb128 0x6
 1231 016a 31050000 		.4byte	.LASF29
 1232 016e 06       		.byte	0x6
 1233 016f 6E       		.byte	0x6e
 1234 0170 BC030000 		.4byte	0x3bc
 1235 0174 02       		.byte	0x2
 1236 0175 23       		.byte	0x23
 1237 0176 18       		.uleb128 0x18
 1238 0177 06       		.uleb128 0x6
 1239 0178 AF010000 		.4byte	.LASF30
ARM GAS  C:\Users\z80\AppData\Local\Temp\ccFIHkx7.s 			page 23


 1240 017c 06       		.byte	0x6
 1241 017d 74       		.byte	0x74
 1242 017e CE030000 		.4byte	0x3ce
 1243 0182 02       		.byte	0x2
 1244 0183 23       		.byte	0x23
 1245 0184 1C       		.uleb128 0x1c
 1246 0185 06       		.uleb128 0x6
 1247 0186 A6000000 		.4byte	.LASF31
 1248 018a 06       		.byte	0x6
 1249 018b 79       		.byte	0x79
 1250 018c C7000000 		.4byte	0xc7
 1251 0190 02       		.byte	0x2
 1252 0191 23       		.byte	0x23
 1253 0192 20       		.uleb128 0x20
 1254 0193 06       		.uleb128 0x6
 1255 0194 02040000 		.4byte	.LASF32
 1256 0198 06       		.byte	0x6
 1257 0199 7D       		.byte	0x7d
 1258 019a BC000000 		.4byte	0xbc
 1259 019e 02       		.byte	0x2
 1260 019f 23       		.byte	0x23
 1261 01a0 21       		.uleb128 0x21
 1262 01a1 06       		.uleb128 0x6
 1263 01a2 3F010000 		.4byte	.LASF33
 1264 01a6 06       		.byte	0x6
 1265 01a7 89       		.byte	0x89
 1266 01a8 3A030000 		.4byte	0x33a
 1267 01ac 02       		.byte	0x2
 1268 01ad 23       		.byte	0x23
 1269 01ae 24       		.uleb128 0x24
 1270 01af 07       		.uleb128 0x7
 1271 01b0 705F7500 		.ascii	"p_u\000"
 1272 01b4 06       		.byte	0x6
 1273 01b5 AE       		.byte	0xae
 1274 01b6 87030000 		.4byte	0x387
 1275 01ba 02       		.byte	0x2
 1276 01bb 23       		.byte	0x23
 1277 01bc 28       		.uleb128 0x28
 1278 01bd 06       		.uleb128 0x6
 1279 01be 6F050000 		.4byte	.LASF34
 1280 01c2 06       		.byte	0x6
 1281 01c3 B3       		.byte	0xb3
 1282 01c4 5F020000 		.4byte	0x25f
 1283 01c8 02       		.byte	0x2
 1284 01c9 23       		.byte	0x23
 1285 01ca 2C       		.uleb128 0x2c
 1286 01cb 06       		.uleb128 0x6
 1287 01cc E2010000 		.4byte	.LASF35
 1288 01d0 06       		.byte	0x6
 1289 01d1 B9       		.byte	0xb9
 1290 01d2 3D020000 		.4byte	0x23d
 1291 01d6 02       		.byte	0x2
 1292 01d7 23       		.byte	0x23
 1293 01d8 30       		.uleb128 0x30
 1294 01d9 06       		.uleb128 0x6
 1295 01da 50050000 		.4byte	.LASF36
 1296 01de 06       		.byte	0x6
ARM GAS  C:\Users\z80\AppData\Local\Temp\ccFIHkx7.s 			page 24


 1297 01df BD       		.byte	0xbd
 1298 01e0 DD000000 		.4byte	0xdd
 1299 01e4 02       		.byte	0x2
 1300 01e5 23       		.byte	0x23
 1301 01e6 38       		.uleb128 0x38
 1302 01e7 06       		.uleb128 0x6
 1303 01e8 26040000 		.4byte	.LASF37
 1304 01ec 06       		.byte	0x6
 1305 01ed C3       		.byte	0xc3
 1306 01ee E8000000 		.4byte	0xe8
 1307 01f2 02       		.byte	0x2
 1308 01f3 23       		.byte	0x23
 1309 01f4 3C       		.uleb128 0x3c
 1310 01f5 06       		.uleb128 0x6
 1311 01f6 D0030000 		.4byte	.LASF38
 1312 01fa 06       		.byte	0x6
 1313 01fb CA       		.byte	0xca
 1314 01fc D4030000 		.4byte	0x3d4
 1315 0200 02       		.byte	0x2
 1316 0201 23       		.byte	0x23
 1317 0202 40       		.uleb128 0x40
 1318 0203 06       		.uleb128 0x6
 1319 0204 97040000 		.4byte	.LASF39
 1320 0208 06       		.byte	0x6
 1321 0209 CE       		.byte	0xce
 1322 020a D2000000 		.4byte	0xd2
 1323 020e 02       		.byte	0x2
 1324 020f 23       		.byte	0x23
 1325 0210 44       		.uleb128 0x44
 1326 0211 00       		.byte	0x0
 1327 0212 08       		.uleb128 0x8
 1328 0213 08       		.byte	0x8
 1329 0214 05       		.byte	0x5
 1330 0215 61       		.byte	0x61
 1331 0216 37020000 		.4byte	0x237
 1332 021a 06       		.uleb128 0x6
 1333 021b FA020000 		.4byte	.LASF23
 1334 021f 05       		.byte	0x5
 1335 0220 62       		.byte	0x62
 1336 0221 37020000 		.4byte	0x237
 1337 0225 02       		.byte	0x2
 1338 0226 23       		.byte	0x23
 1339 0227 00       		.uleb128 0x0
 1340 0228 06       		.uleb128 0x6
 1341 0229 77030000 		.4byte	.LASF24
 1342 022d 05       		.byte	0x5
 1343 022e 64       		.byte	0x64
 1344 022f 37020000 		.4byte	0x237
 1345 0233 02       		.byte	0x2
 1346 0234 23       		.byte	0x23
 1347 0235 04       		.uleb128 0x4
 1348 0236 00       		.byte	0x0
 1349 0237 09       		.uleb128 0x9
 1350 0238 04       		.byte	0x4
 1351 0239 FE000000 		.4byte	0xfe
 1352 023d 03       		.uleb128 0x3
 1353 023e 1B030000 		.4byte	.LASF40
ARM GAS  C:\Users\z80\AppData\Local\Temp\ccFIHkx7.s 			page 25


 1354 0242 05       		.byte	0x5
 1355 0243 66       		.byte	0x66
 1356 0244 12020000 		.4byte	0x212
 1357 0248 08       		.uleb128 0x8
 1358 0249 04       		.byte	0x4
 1359 024a 05       		.byte	0x5
 1360 024b 6B       		.byte	0x6b
 1361 024c 5F020000 		.4byte	0x25f
 1362 0250 06       		.uleb128 0x6
 1363 0251 FA020000 		.4byte	.LASF23
 1364 0255 05       		.byte	0x5
 1365 0256 6D       		.byte	0x6d
 1366 0257 37020000 		.4byte	0x237
 1367 025b 02       		.byte	0x2
 1368 025c 23       		.byte	0x23
 1369 025d 00       		.uleb128 0x0
 1370 025e 00       		.byte	0x0
 1371 025f 03       		.uleb128 0x3
 1372 0260 61020000 		.4byte	.LASF41
 1373 0264 05       		.byte	0x5
 1374 0265 70       		.byte	0x70
 1375 0266 48020000 		.4byte	0x248
 1376 026a 03       		.uleb128 0x3
 1377 026b 7B010000 		.4byte	.LASF42
 1378 026f 07       		.byte	0x7
 1379 0270 D7       		.byte	0xd7
 1380 0271 75020000 		.4byte	0x275
 1381 0275 0A       		.uleb128 0xa
 1382 0276 04       		.byte	0x4
 1383 0277 03       		.uleb128 0x3
 1384 0278 8D020000 		.4byte	.LASF43
 1385 027c 07       		.byte	0x7
 1386 027d DD       		.byte	0xdd
 1387 027e 9F000000 		.4byte	0x9f
 1388 0282 05       		.uleb128 0x5
 1389 0283 B2040000 		.4byte	.LASF44
 1390 0287 24       		.byte	0x24
 1391 0288 07       		.byte	0x7
 1392 0289 FE       		.byte	0xfe
 1393 028a 0F030000 		.4byte	0x30f
 1394 028e 0B       		.uleb128 0xb
 1395 028f 723400   		.ascii	"r4\000"
 1396 0292 07       		.byte	0x7
 1397 0293 1101     		.2byte	0x111
 1398 0295 6A020000 		.4byte	0x26a
 1399 0299 02       		.byte	0x2
 1400 029a 23       		.byte	0x23
 1401 029b 00       		.uleb128 0x0
 1402 029c 0B       		.uleb128 0xb
 1403 029d 723500   		.ascii	"r5\000"
 1404 02a0 07       		.byte	0x7
 1405 02a1 1201     		.2byte	0x112
 1406 02a3 6A020000 		.4byte	0x26a
 1407 02a7 02       		.byte	0x2
 1408 02a8 23       		.byte	0x23
 1409 02a9 04       		.uleb128 0x4
 1410 02aa 0B       		.uleb128 0xb
ARM GAS  C:\Users\z80\AppData\Local\Temp\ccFIHkx7.s 			page 26


 1411 02ab 723600   		.ascii	"r6\000"
 1412 02ae 07       		.byte	0x7
 1413 02af 1301     		.2byte	0x113
 1414 02b1 6A020000 		.4byte	0x26a
 1415 02b5 02       		.byte	0x2
 1416 02b6 23       		.byte	0x23
 1417 02b7 08       		.uleb128 0x8
 1418 02b8 0B       		.uleb128 0xb
 1419 02b9 723700   		.ascii	"r7\000"
 1420 02bc 07       		.byte	0x7
 1421 02bd 1401     		.2byte	0x114
 1422 02bf 6A020000 		.4byte	0x26a
 1423 02c3 02       		.byte	0x2
 1424 02c4 23       		.byte	0x23
 1425 02c5 0C       		.uleb128 0xc
 1426 02c6 0B       		.uleb128 0xb
 1427 02c7 723800   		.ascii	"r8\000"
 1428 02ca 07       		.byte	0x7
 1429 02cb 1501     		.2byte	0x115
 1430 02cd 6A020000 		.4byte	0x26a
 1431 02d1 02       		.byte	0x2
 1432 02d2 23       		.byte	0x23
 1433 02d3 10       		.uleb128 0x10
 1434 02d4 0B       		.uleb128 0xb
 1435 02d5 723900   		.ascii	"r9\000"
 1436 02d8 07       		.byte	0x7
 1437 02d9 1601     		.2byte	0x116
 1438 02db 6A020000 		.4byte	0x26a
 1439 02df 02       		.byte	0x2
 1440 02e0 23       		.byte	0x23
 1441 02e1 14       		.uleb128 0x14
 1442 02e2 0B       		.uleb128 0xb
 1443 02e3 72313000 		.ascii	"r10\000"
 1444 02e7 07       		.byte	0x7
 1445 02e8 1701     		.2byte	0x117
 1446 02ea 6A020000 		.4byte	0x26a
 1447 02ee 02       		.byte	0x2
 1448 02ef 23       		.byte	0x23
 1449 02f0 18       		.uleb128 0x18
 1450 02f1 0B       		.uleb128 0xb
 1451 02f2 72313100 		.ascii	"r11\000"
 1452 02f6 07       		.byte	0x7
 1453 02f7 1801     		.2byte	0x118
 1454 02f9 6A020000 		.4byte	0x26a
 1455 02fd 02       		.byte	0x2
 1456 02fe 23       		.byte	0x23
 1457 02ff 1C       		.uleb128 0x1c
 1458 0300 0B       		.uleb128 0xb
 1459 0301 6C7200   		.ascii	"lr\000"
 1460 0304 07       		.byte	0x7
 1461 0305 1901     		.2byte	0x119
 1462 0307 6A020000 		.4byte	0x26a
 1463 030b 02       		.byte	0x2
 1464 030c 23       		.byte	0x23
 1465 030d 20       		.uleb128 0x20
 1466 030e 00       		.byte	0x0
 1467 030f 0C       		.uleb128 0xc
ARM GAS  C:\Users\z80\AppData\Local\Temp\ccFIHkx7.s 			page 27


 1468 0310 AA040000 		.4byte	.LASF45
 1469 0314 04       		.byte	0x4
 1470 0315 07       		.byte	0x7
 1471 0316 2301     		.2byte	0x123
 1472 0318 2C030000 		.4byte	0x32c
 1473 031c 0B       		.uleb128 0xb
 1474 031d 72313300 		.ascii	"r13\000"
 1475 0321 07       		.byte	0x7
 1476 0322 2401     		.2byte	0x124
 1477 0324 2C030000 		.4byte	0x32c
 1478 0328 02       		.byte	0x2
 1479 0329 23       		.byte	0x23
 1480 032a 00       		.uleb128 0x0
 1481 032b 00       		.byte	0x0
 1482 032c 09       		.uleb128 0x9
 1483 032d 04       		.byte	0x4
 1484 032e 82020000 		.4byte	0x282
 1485 0332 0D       		.uleb128 0xd
 1486 0333 86000000 		.4byte	0x86
 1487 0337 0E       		.uleb128 0xe
 1488 0338 04       		.byte	0x4
 1489 0339 07       		.byte	0x7
 1490 033a 0D       		.uleb128 0xd
 1491 033b F3000000 		.4byte	0xf3
 1492 033f 05       		.uleb128 0x5
 1493 0340 F4020000 		.4byte	.LASF46
 1494 0344 10       		.byte	0x10
 1495 0345 08       		.byte	0x8
 1496 0346 2C       		.byte	0x2c
 1497 0347 76030000 		.4byte	0x376
 1498 034b 06       		.uleb128 0x6
 1499 034c B5000000 		.4byte	.LASF47
 1500 0350 08       		.byte	0x8
 1501 0351 2D       		.byte	0x2d
 1502 0352 3D020000 		.4byte	0x23d
 1503 0356 02       		.byte	0x2
 1504 0357 23       		.byte	0x23
 1505 0358 00       		.uleb128 0x0
 1506 0359 06       		.uleb128 0x6
 1507 035a 56050000 		.4byte	.LASF48
 1508 035e 08       		.byte	0x8
 1509 035f 2F       		.byte	0x2f
 1510 0360 37020000 		.4byte	0x237
 1511 0364 02       		.byte	0x2
 1512 0365 23       		.byte	0x23
 1513 0366 08       		.uleb128 0x8
 1514 0367 06       		.uleb128 0x6
 1515 0368 C7010000 		.4byte	.LASF49
 1516 036c 08       		.byte	0x8
 1517 036d 31       		.byte	0x31
 1518 036e 76030000 		.4byte	0x376
 1519 0372 02       		.byte	0x2
 1520 0373 23       		.byte	0x23
 1521 0374 0C       		.uleb128 0xc
 1522 0375 00       		.byte	0x0
 1523 0376 09       		.uleb128 0x9
 1524 0377 04       		.byte	0x4
ARM GAS  C:\Users\z80\AppData\Local\Temp\ccFIHkx7.s 			page 28


 1525 0378 3F030000 		.4byte	0x33f
 1526 037c 03       		.uleb128 0x3
 1527 037d F4020000 		.4byte	.LASF46
 1528 0381 08       		.byte	0x8
 1529 0382 33       		.byte	0x33
 1530 0383 3F030000 		.4byte	0x33f
 1531 0387 0F       		.uleb128 0xf
 1532 0388 04       		.byte	0x4
 1533 0389 06       		.byte	0x6
 1534 038a 90       		.byte	0x90
 1535 038b BC030000 		.4byte	0x3bc
 1536 038f 10       		.uleb128 0x10
 1537 0390 07000000 		.4byte	.LASF50
 1538 0394 06       		.byte	0x6
 1539 0395 97       		.byte	0x97
 1540 0396 DD000000 		.4byte	0xdd
 1541 039a 10       		.uleb128 0x10
 1542 039b 4C000000 		.4byte	.LASF51
 1543 039f 06       		.byte	0x6
 1544 03a0 9E       		.byte	0x9e
 1545 03a1 DD000000 		.4byte	0xdd
 1546 03a5 10       		.uleb128 0x10
 1547 03a6 1D050000 		.4byte	.LASF52
 1548 03aa 06       		.byte	0x6
 1549 03ab A5       		.byte	0xa5
 1550 03ac 75020000 		.4byte	0x275
 1551 03b0 10       		.uleb128 0x10
 1552 03b1 FB030000 		.4byte	.LASF53
 1553 03b5 06       		.byte	0x6
 1554 03b6 AC       		.byte	0xac
 1555 03b7 E8000000 		.4byte	0xe8
 1556 03bb 00       		.byte	0x0
 1557 03bc 09       		.uleb128 0x9
 1558 03bd 04       		.byte	0x4
 1559 03be C2030000 		.4byte	0x3c2
 1560 03c2 11       		.uleb128 0x11
 1561 03c3 C7030000 		.4byte	0x3c7
 1562 03c7 04       		.uleb128 0x4
 1563 03c8 01       		.byte	0x1
 1564 03c9 08       		.byte	0x8
 1565 03ca 6D040000 		.4byte	.LASF54
 1566 03ce 09       		.uleb128 0x9
 1567 03cf 04       		.byte	0x4
 1568 03d0 77020000 		.4byte	0x277
 1569 03d4 09       		.uleb128 0x9
 1570 03d5 04       		.byte	0x4
 1571 03d6 7C030000 		.4byte	0x37c
 1572 03da 0D       		.uleb128 0xd
 1573 03db 74000000 		.4byte	0x74
 1574 03df 12       		.uleb128 0x12
 1575 03e0 50       		.byte	0x50
 1576 03e1 09       		.byte	0x9
 1577 03e2 2D02     		.2byte	0x22d
 1578 03e4 13050000 		.4byte	0x513
 1579 03e8 0B       		.uleb128 0xb
 1580 03e9 535200   		.ascii	"SR\000"
 1581 03ec 09       		.byte	0x9
ARM GAS  C:\Users\z80\AppData\Local\Temp\ccFIHkx7.s 			page 29


 1582 03ed 2F02     		.2byte	0x22f
 1583 03ef 32030000 		.4byte	0x332
 1584 03f3 02       		.byte	0x2
 1585 03f4 23       		.byte	0x23
 1586 03f5 00       		.uleb128 0x0
 1587 03f6 0B       		.uleb128 0xb
 1588 03f7 43523100 		.ascii	"CR1\000"
 1589 03fb 09       		.byte	0x9
 1590 03fc 3002     		.2byte	0x230
 1591 03fe 32030000 		.4byte	0x332
 1592 0402 02       		.byte	0x2
 1593 0403 23       		.byte	0x23
 1594 0404 04       		.uleb128 0x4
 1595 0405 0B       		.uleb128 0xb
 1596 0406 43523200 		.ascii	"CR2\000"
 1597 040a 09       		.byte	0x9
 1598 040b 3102     		.2byte	0x231
 1599 040d 32030000 		.4byte	0x332
 1600 0411 02       		.byte	0x2
 1601 0412 23       		.byte	0x23
 1602 0413 08       		.uleb128 0x8
 1603 0414 13       		.uleb128 0x13
 1604 0415 28030000 		.4byte	.LASF55
 1605 0419 09       		.byte	0x9
 1606 041a 3202     		.2byte	0x232
 1607 041c 32030000 		.4byte	0x332
 1608 0420 02       		.byte	0x2
 1609 0421 23       		.byte	0x23
 1610 0422 0C       		.uleb128 0xc
 1611 0423 13       		.uleb128 0x13
 1612 0424 2E030000 		.4byte	.LASF56
 1613 0428 09       		.byte	0x9
 1614 0429 3302     		.2byte	0x233
 1615 042b 32030000 		.4byte	0x332
 1616 042f 02       		.byte	0x2
 1617 0430 23       		.byte	0x23
 1618 0431 10       		.uleb128 0x10
 1619 0432 13       		.uleb128 0x13
 1620 0433 9D020000 		.4byte	.LASF57
 1621 0437 09       		.byte	0x9
 1622 0438 3402     		.2byte	0x234
 1623 043a 32030000 		.4byte	0x332
 1624 043e 02       		.byte	0x2
 1625 043f 23       		.byte	0x23
 1626 0440 14       		.uleb128 0x14
 1627 0441 13       		.uleb128 0x13
 1628 0442 A3020000 		.4byte	.LASF58
 1629 0446 09       		.byte	0x9
 1630 0447 3502     		.2byte	0x235
 1631 0449 32030000 		.4byte	0x332
 1632 044d 02       		.byte	0x2
 1633 044e 23       		.byte	0x23
 1634 044f 18       		.uleb128 0x18
 1635 0450 13       		.uleb128 0x13
 1636 0451 0A040000 		.4byte	.LASF59
 1637 0455 09       		.byte	0x9
 1638 0456 3602     		.2byte	0x236
ARM GAS  C:\Users\z80\AppData\Local\Temp\ccFIHkx7.s 			page 30


 1639 0458 32030000 		.4byte	0x332
 1640 045c 02       		.byte	0x2
 1641 045d 23       		.byte	0x23
 1642 045e 1C       		.uleb128 0x1c
 1643 045f 13       		.uleb128 0x13
 1644 0460 10040000 		.4byte	.LASF60
 1645 0464 09       		.byte	0x9
 1646 0465 3702     		.2byte	0x237
 1647 0467 32030000 		.4byte	0x332
 1648 046b 02       		.byte	0x2
 1649 046c 23       		.byte	0x23
 1650 046d 20       		.uleb128 0x20
 1651 046e 0B       		.uleb128 0xb
 1652 046f 48545200 		.ascii	"HTR\000"
 1653 0473 09       		.byte	0x9
 1654 0474 3802     		.2byte	0x238
 1655 0476 32030000 		.4byte	0x332
 1656 047a 02       		.byte	0x2
 1657 047b 23       		.byte	0x23
 1658 047c 24       		.uleb128 0x24
 1659 047d 0B       		.uleb128 0xb
 1660 047e 4C545200 		.ascii	"LTR\000"
 1661 0482 09       		.byte	0x9
 1662 0483 3902     		.2byte	0x239
 1663 0485 32030000 		.4byte	0x332
 1664 0489 02       		.byte	0x2
 1665 048a 23       		.byte	0x23
 1666 048b 28       		.uleb128 0x28
 1667 048c 13       		.uleb128 0x13
 1668 048d 68030000 		.4byte	.LASF61
 1669 0491 09       		.byte	0x9
 1670 0492 3A02     		.2byte	0x23a
 1671 0494 32030000 		.4byte	0x332
 1672 0498 02       		.byte	0x2
 1673 0499 23       		.byte	0x23
 1674 049a 2C       		.uleb128 0x2c
 1675 049b 13       		.uleb128 0x13
 1676 049c 6D030000 		.4byte	.LASF62
 1677 04a0 09       		.byte	0x9
 1678 04a1 3B02     		.2byte	0x23b
 1679 04a3 32030000 		.4byte	0x332
 1680 04a7 02       		.byte	0x2
 1681 04a8 23       		.byte	0x23
 1682 04a9 30       		.uleb128 0x30
 1683 04aa 13       		.uleb128 0x13
 1684 04ab 72030000 		.4byte	.LASF63
 1685 04af 09       		.byte	0x9
 1686 04b0 3C02     		.2byte	0x23c
 1687 04b2 32030000 		.4byte	0x332
 1688 04b6 02       		.byte	0x2
 1689 04b7 23       		.byte	0x23
 1690 04b8 34       		.uleb128 0x34
 1691 04b9 13       		.uleb128 0x13
 1692 04ba 87000000 		.4byte	.LASF64
 1693 04be 09       		.byte	0x9
 1694 04bf 3D02     		.2byte	0x23d
 1695 04c1 32030000 		.4byte	0x332
ARM GAS  C:\Users\z80\AppData\Local\Temp\ccFIHkx7.s 			page 31


 1696 04c5 02       		.byte	0x2
 1697 04c6 23       		.byte	0x23
 1698 04c7 38       		.uleb128 0x38
 1699 04c8 13       		.uleb128 0x13
 1700 04c9 FD040000 		.4byte	.LASF65
 1701 04cd 09       		.byte	0x9
 1702 04ce 3E02     		.2byte	0x23e
 1703 04d0 32030000 		.4byte	0x332
 1704 04d4 02       		.byte	0x2
 1705 04d5 23       		.byte	0x23
 1706 04d6 3C       		.uleb128 0x3c
 1707 04d7 13       		.uleb128 0x13
 1708 04d8 02050000 		.4byte	.LASF66
 1709 04dc 09       		.byte	0x9
 1710 04dd 3F02     		.2byte	0x23f
 1711 04df 32030000 		.4byte	0x332
 1712 04e3 02       		.byte	0x2
 1713 04e4 23       		.byte	0x23
 1714 04e5 40       		.uleb128 0x40
 1715 04e6 13       		.uleb128 0x13
 1716 04e7 07050000 		.4byte	.LASF67
 1717 04eb 09       		.byte	0x9
 1718 04ec 4002     		.2byte	0x240
 1719 04ee 32030000 		.4byte	0x332
 1720 04f2 02       		.byte	0x2
 1721 04f3 23       		.byte	0x23
 1722 04f4 44       		.uleb128 0x44
 1723 04f5 13       		.uleb128 0x13
 1724 04f6 0C050000 		.4byte	.LASF68
 1725 04fa 09       		.byte	0x9
 1726 04fb 4102     		.2byte	0x241
 1727 04fd 32030000 		.4byte	0x332
 1728 0501 02       		.byte	0x2
 1729 0502 23       		.byte	0x23
 1730 0503 48       		.uleb128 0x48
 1731 0504 0B       		.uleb128 0xb
 1732 0505 445200   		.ascii	"DR\000"
 1733 0508 09       		.byte	0x9
 1734 0509 4202     		.2byte	0x242
 1735 050b 32030000 		.4byte	0x332
 1736 050f 02       		.byte	0x2
 1737 0510 23       		.byte	0x23
 1738 0511 4C       		.uleb128 0x4c
 1739 0512 00       		.byte	0x0
 1740 0513 14       		.uleb128 0x14
 1741 0514 46010000 		.4byte	.LASF69
 1742 0518 09       		.byte	0x9
 1743 0519 4302     		.2byte	0x243
 1744 051b DF030000 		.4byte	0x3df
 1745 051f 12       		.uleb128 0x12
 1746 0520 10       		.byte	0x10
 1747 0521 09       		.byte	0x9
 1748 0522 2D03     		.2byte	0x32d
 1749 0524 65050000 		.4byte	0x565
 1750 0528 0B       		.uleb128 0xb
 1751 0529 43435200 		.ascii	"CCR\000"
 1752 052d 09       		.byte	0x9
ARM GAS  C:\Users\z80\AppData\Local\Temp\ccFIHkx7.s 			page 32


 1753 052e 2F03     		.2byte	0x32f
 1754 0530 32030000 		.4byte	0x332
 1755 0534 02       		.byte	0x2
 1756 0535 23       		.byte	0x23
 1757 0536 00       		.uleb128 0x0
 1758 0537 13       		.uleb128 0x13
 1759 0538 D1040000 		.4byte	.LASF70
 1760 053c 09       		.byte	0x9
 1761 053d 3003     		.2byte	0x330
 1762 053f 32030000 		.4byte	0x332
 1763 0543 02       		.byte	0x2
 1764 0544 23       		.byte	0x23
 1765 0545 04       		.uleb128 0x4
 1766 0546 13       		.uleb128 0x13
 1767 0547 CE010000 		.4byte	.LASF71
 1768 054b 09       		.byte	0x9
 1769 054c 3103     		.2byte	0x331
 1770 054e 32030000 		.4byte	0x332
 1771 0552 02       		.byte	0x2
 1772 0553 23       		.byte	0x23
 1773 0554 08       		.uleb128 0x8
 1774 0555 13       		.uleb128 0x13
 1775 0556 88020000 		.4byte	.LASF72
 1776 055a 09       		.byte	0x9
 1777 055b 3203     		.2byte	0x332
 1778 055d 32030000 		.4byte	0x332
 1779 0561 02       		.byte	0x2
 1780 0562 23       		.byte	0x23
 1781 0563 0C       		.uleb128 0xc
 1782 0564 00       		.byte	0x0
 1783 0565 14       		.uleb128 0x14
 1784 0566 08020000 		.4byte	.LASF73
 1785 056a 09       		.byte	0x9
 1786 056b 3303     		.2byte	0x333
 1787 056d 1F050000 		.4byte	0x51f
 1788 0571 12       		.uleb128 0x12
 1789 0572 28       		.byte	0x28
 1790 0573 09       		.byte	0x9
 1791 0574 4304     		.2byte	0x443
 1792 0576 10060000 		.4byte	0x610
 1793 057a 0B       		.uleb128 0xb
 1794 057b 435200   		.ascii	"CR\000"
 1795 057e 09       		.byte	0x9
 1796 057f 4504     		.2byte	0x445
 1797 0581 32030000 		.4byte	0x332
 1798 0585 02       		.byte	0x2
 1799 0586 23       		.byte	0x23
 1800 0587 00       		.uleb128 0x0
 1801 0588 13       		.uleb128 0x13
 1802 0589 4B050000 		.4byte	.LASF74
 1803 058d 09       		.byte	0x9
 1804 058e 4604     		.2byte	0x446
 1805 0590 32030000 		.4byte	0x332
 1806 0594 02       		.byte	0x2
 1807 0595 23       		.byte	0x23
 1808 0596 04       		.uleb128 0x4
 1809 0597 0B       		.uleb128 0xb
ARM GAS  C:\Users\z80\AppData\Local\Temp\ccFIHkx7.s 			page 33


 1810 0598 43495200 		.ascii	"CIR\000"
 1811 059c 09       		.byte	0x9
 1812 059d 4704     		.2byte	0x447
 1813 059f 32030000 		.4byte	0x332
 1814 05a3 02       		.byte	0x2
 1815 05a4 23       		.byte	0x23
 1816 05a5 08       		.uleb128 0x8
 1817 05a6 13       		.uleb128 0x13
 1818 05a7 9B010000 		.4byte	.LASF75
 1819 05ab 09       		.byte	0x9
 1820 05ac 4804     		.2byte	0x448
 1821 05ae 32030000 		.4byte	0x332
 1822 05b2 02       		.byte	0x2
 1823 05b3 23       		.byte	0x23
 1824 05b4 0C       		.uleb128 0xc
 1825 05b5 13       		.uleb128 0x13
 1826 05b6 5F030000 		.4byte	.LASF76
 1827 05ba 09       		.byte	0x9
 1828 05bb 4904     		.2byte	0x449
 1829 05bd 32030000 		.4byte	0x332
 1830 05c1 02       		.byte	0x2
 1831 05c2 23       		.byte	0x23
 1832 05c3 10       		.uleb128 0x10
 1833 05c4 13       		.uleb128 0x13
 1834 05c5 79050000 		.4byte	.LASF77
 1835 05c9 09       		.byte	0x9
 1836 05ca 4A04     		.2byte	0x44a
 1837 05cc 32030000 		.4byte	0x332
 1838 05d0 02       		.byte	0x2
 1839 05d1 23       		.byte	0x23
 1840 05d2 14       		.uleb128 0x14
 1841 05d3 13       		.uleb128 0x13
 1842 05d4 16040000 		.4byte	.LASF78
 1843 05d8 09       		.byte	0x9
 1844 05d9 4B04     		.2byte	0x44b
 1845 05db 32030000 		.4byte	0x332
 1846 05df 02       		.byte	0x2
 1847 05e0 23       		.byte	0x23
 1848 05e1 18       		.uleb128 0x18
 1849 05e2 13       		.uleb128 0x13
 1850 05e3 A2040000 		.4byte	.LASF79
 1851 05e7 09       		.byte	0x9
 1852 05e8 4C04     		.2byte	0x44c
 1853 05ea 32030000 		.4byte	0x332
 1854 05ee 02       		.byte	0x2
 1855 05ef 23       		.byte	0x23
 1856 05f0 1C       		.uleb128 0x1c
 1857 05f1 13       		.uleb128 0x13
 1858 05f2 D7040000 		.4byte	.LASF80
 1859 05f6 09       		.byte	0x9
 1860 05f7 4D04     		.2byte	0x44d
 1861 05f9 32030000 		.4byte	0x332
 1862 05fd 02       		.byte	0x2
 1863 05fe 23       		.byte	0x23
 1864 05ff 20       		.uleb128 0x20
 1865 0600 0B       		.uleb128 0xb
 1866 0601 43535200 		.ascii	"CSR\000"
ARM GAS  C:\Users\z80\AppData\Local\Temp\ccFIHkx7.s 			page 34


 1867 0605 09       		.byte	0x9
 1868 0606 4E04     		.2byte	0x44e
 1869 0608 32030000 		.4byte	0x332
 1870 060c 02       		.byte	0x2
 1871 060d 23       		.byte	0x23
 1872 060e 24       		.uleb128 0x24
 1873 060f 00       		.byte	0x0
 1874 0610 14       		.uleb128 0x14
 1875 0611 F7010000 		.4byte	.LASF81
 1876 0615 09       		.byte	0x9
 1877 0616 5904     		.2byte	0x459
 1878 0618 71050000 		.4byte	0x571
 1879 061c 08       		.uleb128 0x8
 1880 061d 0C       		.byte	0xc
 1881 061e 0A       		.byte	0xa
 1882 061f C2       		.byte	0xc2
 1883 0620 6B060000 		.4byte	0x66b
 1884 0624 06       		.uleb128 0x6
 1885 0625 1E040000 		.4byte	.LASF82
 1886 0629 0A       		.byte	0xa
 1887 062a C3       		.byte	0xc3
 1888 062b 6B060000 		.4byte	0x66b
 1889 062f 02       		.byte	0x2
 1890 0630 23       		.byte	0x23
 1891 0631 00       		.uleb128 0x0
 1892 0632 06       		.uleb128 0x6
 1893 0633 31040000 		.4byte	.LASF83
 1894 0637 0A       		.byte	0xa
 1895 0638 C4       		.byte	0xc4
 1896 0639 71060000 		.4byte	0x671
 1897 063d 02       		.byte	0x2
 1898 063e 23       		.byte	0x23
 1899 063f 04       		.uleb128 0x4
 1900 0640 06       		.uleb128 0x6
 1901 0641 1C020000 		.4byte	.LASF84
 1902 0645 0A       		.byte	0xa
 1903 0646 C5       		.byte	0xc5
 1904 0647 49000000 		.4byte	0x49
 1905 064b 02       		.byte	0x2
 1906 064c 23       		.byte	0x23
 1907 064d 08       		.uleb128 0x8
 1908 064e 06       		.uleb128 0x6
 1909 064f 84010000 		.4byte	.LASF85
 1910 0653 0A       		.byte	0xa
 1911 0654 C7       		.byte	0xc7
 1912 0655 49000000 		.4byte	0x49
 1913 0659 02       		.byte	0x2
 1914 065a 23       		.byte	0x23
 1915 065b 09       		.uleb128 0x9
 1916 065c 06       		.uleb128 0x6
 1917 065d 21000000 		.4byte	.LASF86
 1918 0661 0A       		.byte	0xa
 1919 0662 C8       		.byte	0xc8
 1920 0663 49000000 		.4byte	0x49
 1921 0667 02       		.byte	0x2
 1922 0668 23       		.byte	0x23
 1923 0669 0A       		.uleb128 0xa
ARM GAS  C:\Users\z80\AppData\Local\Temp\ccFIHkx7.s 			page 35


 1924 066a 00       		.byte	0x0
 1925 066b 09       		.uleb128 0x9
 1926 066c 04       		.byte	0x4
 1927 066d 65050000 		.4byte	0x565
 1928 0671 09       		.uleb128 0x9
 1929 0672 04       		.byte	0x4
 1930 0673 32030000 		.4byte	0x332
 1931 0677 03       		.uleb128 0x3
 1932 0678 7E030000 		.4byte	.LASF87
 1933 067c 0A       		.byte	0xa
 1934 067d C9       		.byte	0xc9
 1935 067e 1C060000 		.4byte	0x61c
 1936 0682 03       		.uleb128 0x3
 1937 0683 D3010000 		.4byte	.LASF88
 1938 0687 0A       		.byte	0xa
 1939 0688 D2       		.byte	0xd2
 1940 0689 8D060000 		.4byte	0x68d
 1941 068d 09       		.uleb128 0x9
 1942 068e 04       		.byte	0x4
 1943 068f 93060000 		.4byte	0x693
 1944 0693 15       		.uleb128 0x15
 1945 0694 01       		.byte	0x1
 1946 0695 A4060000 		.4byte	0x6a4
 1947 0699 16       		.uleb128 0x16
 1948 069a 75020000 		.4byte	0x275
 1949 069e 16       		.uleb128 0x16
 1950 069f 86000000 		.4byte	0x86
 1951 06a3 00       		.byte	0x0
 1952 06a4 17       		.uleb128 0x17
 1953 06a5 01       		.byte	0x1
 1954 06a6 0B       		.byte	0xb
 1955 06a7 55       		.byte	0x55
 1956 06a8 D1060000 		.4byte	0x6d1
 1957 06ac 18       		.uleb128 0x18
 1958 06ad 55000000 		.4byte	.LASF89
 1959 06b1 00       		.sleb128 0
 1960 06b2 18       		.uleb128 0x18
 1961 06b3 01030000 		.4byte	.LASF90
 1962 06b7 01       		.sleb128 1
 1963 06b8 18       		.uleb128 0x18
 1964 06b9 36020000 		.4byte	.LASF91
 1965 06bd 02       		.sleb128 2
 1966 06be 18       		.uleb128 0x18
 1967 06bf A4010000 		.4byte	.LASF92
 1968 06c3 03       		.sleb128 3
 1969 06c4 18       		.uleb128 0x18
 1970 06c5 24050000 		.4byte	.LASF93
 1971 06c9 04       		.sleb128 4
 1972 06ca 18       		.uleb128 0x18
 1973 06cb C7040000 		.4byte	.LASF94
 1974 06cf 05       		.sleb128 5
 1975 06d0 00       		.byte	0x0
 1976 06d1 03       		.uleb128 0x3
 1977 06d2 16000000 		.4byte	.LASF95
 1978 06d6 0B       		.byte	0xb
 1979 06d7 5C       		.byte	0x5c
 1980 06d8 A4060000 		.4byte	0x6a4
ARM GAS  C:\Users\z80\AppData\Local\Temp\ccFIHkx7.s 			page 36


 1981 06dc 03       		.uleb128 0x3
 1982 06dd 6F010000 		.4byte	.LASF96
 1983 06e1 0C       		.byte	0xc
 1984 06e2 92       		.byte	0x92
 1985 06e3 62000000 		.4byte	0x62
 1986 06e7 03       		.uleb128 0x3
 1987 06e8 38050000 		.4byte	.LASF97
 1988 06ec 0C       		.byte	0xc
 1989 06ed 97       		.byte	0x97
 1990 06ee 62000000 		.4byte	0x62
 1991 06f2 17       		.uleb128 0x17
 1992 06f3 01       		.byte	0x1
 1993 06f4 0C       		.byte	0xc
 1994 06f5 9E       		.byte	0x9e
 1995 06f6 01070000 		.4byte	0x701
 1996 06fa 18       		.uleb128 0x18
 1997 06fb E7000000 		.4byte	.LASF98
 1998 06ff 00       		.sleb128 0
 1999 0700 00       		.byte	0x0
 2000 0701 03       		.uleb128 0x3
 2001 0702 BD000000 		.4byte	.LASF99
 2002 0706 0C       		.byte	0xc
 2003 0707 A0       		.byte	0xa0
 2004 0708 F2060000 		.4byte	0x6f2
 2005 070c 03       		.uleb128 0x3
 2006 070d ED010000 		.4byte	.LASF100
 2007 0711 0C       		.byte	0xc
 2008 0712 A5       		.byte	0xa5
 2009 0713 17070000 		.4byte	0x717
 2010 0717 0C       		.uleb128 0xc
 2011 0718 ED010000 		.4byte	.LASF100
 2012 071c 34       		.byte	0x34
 2013 071d 0C       		.byte	0xc
 2014 071e 0901     		.2byte	0x109
 2015 0720 BB070000 		.4byte	0x7bb
 2016 0724 13       		.uleb128 0x13
 2017 0725 CF000000 		.4byte	.LASF101
 2018 0729 0C       		.byte	0xc
 2019 072a 0D01     		.2byte	0x10d
 2020 072c D1060000 		.4byte	0x6d1
 2021 0730 02       		.byte	0x2
 2022 0731 23       		.byte	0x23
 2023 0732 00       		.uleb128 0x0
 2024 0733 13       		.uleb128 0x13
 2025 0734 77040000 		.4byte	.LASF102
 2026 0738 0C       		.byte	0xc
 2027 0739 1101     		.2byte	0x111
 2028 073b E3080000 		.4byte	0x8e3
 2029 073f 02       		.byte	0x2
 2030 0740 23       		.byte	0x23
 2031 0741 04       		.uleb128 0x4
 2032 0742 13       		.uleb128 0x13
 2033 0743 B6020000 		.4byte	.LASF103
 2034 0747 0C       		.byte	0xc
 2035 0748 1501     		.2byte	0x115
 2036 074a E8070000 		.4byte	0x7e8
 2037 074e 02       		.byte	0x2
ARM GAS  C:\Users\z80\AppData\Local\Temp\ccFIHkx7.s 			page 37


 2038 074f 23       		.byte	0x23
 2039 0750 08       		.uleb128 0x8
 2040 0751 13       		.uleb128 0x13
 2041 0752 40020000 		.4byte	.LASF104
 2042 0756 0C       		.byte	0xc
 2043 0757 1901     		.2byte	0x119
 2044 0759 30000000 		.4byte	0x30
 2045 075d 02       		.byte	0x2
 2046 075e 23       		.byte	0x23
 2047 075f 0C       		.uleb128 0xc
 2048 0760 13       		.uleb128 0x13
 2049 0761 98020000 		.4byte	.LASF105
 2050 0765 0C       		.byte	0xc
 2051 0766 1D01     		.2byte	0x11d
 2052 0768 EE080000 		.4byte	0x8ee
 2053 076c 02       		.byte	0x2
 2054 076d 23       		.byte	0x23
 2055 076e 10       		.uleb128 0x10
 2056 076f 13       		.uleb128 0x13
 2057 0770 2F010000 		.4byte	.LASF106
 2058 0774 0C       		.byte	0xc
 2059 0775 2201     		.2byte	0x122
 2060 0777 37020000 		.4byte	0x237
 2061 077b 02       		.byte	0x2
 2062 077c 23       		.byte	0x23
 2063 077d 14       		.uleb128 0x14
 2064 077e 13       		.uleb128 0x13
 2065 077f 99030000 		.4byte	.LASF107
 2066 0783 0C       		.byte	0xc
 2067 0784 2901     		.2byte	0x129
 2068 0786 7C030000 		.4byte	0x37c
 2069 078a 02       		.byte	0x2
 2070 078b 23       		.byte	0x23
 2071 078c 18       		.uleb128 0x18
 2072 078d 0B       		.uleb128 0xb
 2073 078e 61646300 		.ascii	"adc\000"
 2074 0792 0C       		.byte	0xc
 2075 0793 3501     		.2byte	0x135
 2076 0795 F9080000 		.4byte	0x8f9
 2077 0799 02       		.byte	0x2
 2078 079a 23       		.byte	0x23
 2079 079b 28       		.uleb128 0x28
 2080 079c 13       		.uleb128 0x13
 2081 079d C8000000 		.4byte	.LASF108
 2082 07a1 0C       		.byte	0xc
 2083 07a2 3901     		.2byte	0x139
 2084 07a4 FF080000 		.4byte	0x8ff
 2085 07a8 02       		.byte	0x2
 2086 07a9 23       		.byte	0x23
 2087 07aa 2C       		.uleb128 0x2c
 2088 07ab 13       		.uleb128 0x13
 2089 07ac 0E000000 		.4byte	.LASF109
 2090 07b0 0C       		.byte	0xc
 2091 07b1 3D01     		.2byte	0x13d
 2092 07b3 86000000 		.4byte	0x86
 2093 07b7 02       		.byte	0x2
 2094 07b8 23       		.byte	0x23
ARM GAS  C:\Users\z80\AppData\Local\Temp\ccFIHkx7.s 			page 38


 2095 07b9 30       		.uleb128 0x30
 2096 07ba 00       		.byte	0x0
 2097 07bb 03       		.uleb128 0x3
 2098 07bc 61010000 		.4byte	.LASF110
 2099 07c0 0C       		.byte	0xc
 2100 07c1 AF       		.byte	0xaf
 2101 07c2 C6070000 		.4byte	0x7c6
 2102 07c6 09       		.uleb128 0x9
 2103 07c7 04       		.byte	0x4
 2104 07c8 CC070000 		.4byte	0x7cc
 2105 07cc 15       		.uleb128 0x15
 2106 07cd 01       		.byte	0x1
 2107 07ce E2070000 		.4byte	0x7e2
 2108 07d2 16       		.uleb128 0x16
 2109 07d3 E2070000 		.4byte	0x7e2
 2110 07d7 16       		.uleb128 0x16
 2111 07d8 E8070000 		.4byte	0x7e8
 2112 07dc 16       		.uleb128 0x16
 2113 07dd 30000000 		.4byte	0x30
 2114 07e1 00       		.byte	0x0
 2115 07e2 09       		.uleb128 0x9
 2116 07e3 04       		.byte	0x4
 2117 07e4 0C070000 		.4byte	0x70c
 2118 07e8 09       		.uleb128 0x9
 2119 07e9 04       		.byte	0x4
 2120 07ea DC060000 		.4byte	0x6dc
 2121 07ee 03       		.uleb128 0x3
 2122 07ef 13010000 		.4byte	.LASF111
 2123 07f3 0C       		.byte	0xc
 2124 07f4 B8       		.byte	0xb8
 2125 07f5 F9070000 		.4byte	0x7f9
 2126 07f9 09       		.uleb128 0x9
 2127 07fa 04       		.byte	0x4
 2128 07fb FF070000 		.4byte	0x7ff
 2129 07ff 15       		.uleb128 0x15
 2130 0800 01       		.byte	0x1
 2131 0801 10080000 		.4byte	0x810
 2132 0805 16       		.uleb128 0x16
 2133 0806 E2070000 		.4byte	0x7e2
 2134 080a 16       		.uleb128 0x16
 2135 080b 01070000 		.4byte	0x701
 2136 080f 00       		.byte	0x0
 2137 0810 08       		.uleb128 0x8
 2138 0811 2C       		.byte	0x2c
 2139 0812 0C       		.byte	0xc
 2140 0813 C2       		.byte	0xc2
 2141 0814 B3080000 		.4byte	0x8b3
 2142 0818 06       		.uleb128 0x6
 2143 0819 D5000000 		.4byte	.LASF112
 2144 081d 0C       		.byte	0xc
 2145 081e C6       		.byte	0xc6
 2146 081f B1000000 		.4byte	0xb1
 2147 0823 02       		.byte	0x2
 2148 0824 23       		.byte	0x23
 2149 0825 00       		.uleb128 0x0
 2150 0826 06       		.uleb128 0x6
 2151 0827 54020000 		.4byte	.LASF113
ARM GAS  C:\Users\z80\AppData\Local\Temp\ccFIHkx7.s 			page 39


 2152 082b 0C       		.byte	0xc
 2153 082c CA       		.byte	0xca
 2154 082d E7060000 		.4byte	0x6e7
 2155 0831 02       		.byte	0x2
 2156 0832 23       		.byte	0x23
 2157 0833 04       		.uleb128 0x4
 2158 0834 06       		.uleb128 0x6
 2159 0835 5A010000 		.4byte	.LASF114
 2160 0839 0C       		.byte	0xc
 2161 083a CE       		.byte	0xce
 2162 083b BB070000 		.4byte	0x7bb
 2163 083f 02       		.byte	0x2
 2164 0840 23       		.byte	0x23
 2165 0841 08       		.uleb128 0x8
 2166 0842 06       		.uleb128 0x6
 2167 0843 F2030000 		.4byte	.LASF115
 2168 0847 0C       		.byte	0xc
 2169 0848 D2       		.byte	0xd2
 2170 0849 EE070000 		.4byte	0x7ee
 2171 084d 02       		.byte	0x2
 2172 084e 23       		.byte	0x23
 2173 084f 0C       		.uleb128 0xc
 2174 0850 07       		.uleb128 0x7
 2175 0851 63723100 		.ascii	"cr1\000"
 2176 0855 0C       		.byte	0xc
 2177 0856 D9       		.byte	0xd9
 2178 0857 86000000 		.4byte	0x86
 2179 085b 02       		.byte	0x2
 2180 085c 23       		.byte	0x23
 2181 085d 10       		.uleb128 0x10
 2182 085e 07       		.uleb128 0x7
 2183 085f 63723200 		.ascii	"cr2\000"
 2184 0863 0C       		.byte	0xc
 2185 0864 E0       		.byte	0xe0
 2186 0865 86000000 		.4byte	0x86
 2187 0869 02       		.byte	0x2
 2188 086a 23       		.byte	0x23
 2189 086b 14       		.uleb128 0x14
 2190 086c 06       		.uleb128 0x6
 2191 086d 4F040000 		.4byte	.LASF116
 2192 0871 0C       		.byte	0xc
 2193 0872 E6       		.byte	0xe6
 2194 0873 86000000 		.4byte	0x86
 2195 0877 02       		.byte	0x2
 2196 0878 23       		.byte	0x23
 2197 0879 18       		.uleb128 0x18
 2198 087a 06       		.uleb128 0x6
 2199 087b 67040000 		.4byte	.LASF117
 2200 087f 0C       		.byte	0xc
 2201 0880 EC       		.byte	0xec
 2202 0881 86000000 		.4byte	0x86
 2203 0885 02       		.byte	0x2
 2204 0886 23       		.byte	0x23
 2205 0887 1C       		.uleb128 0x1c
 2206 0888 06       		.uleb128 0x6
 2207 0889 7E040000 		.4byte	.LASF118
 2208 088d 0C       		.byte	0xc
ARM GAS  C:\Users\z80\AppData\Local\Temp\ccFIHkx7.s 			page 40


 2209 088e F1       		.byte	0xf1
 2210 088f 86000000 		.4byte	0x86
 2211 0893 02       		.byte	0x2
 2212 0894 23       		.byte	0x23
 2213 0895 20       		.uleb128 0x20
 2214 0896 06       		.uleb128 0x6
 2215 0897 83040000 		.4byte	.LASF119
 2216 089b 0C       		.byte	0xc
 2217 089c F6       		.byte	0xf6
 2218 089d 86000000 		.4byte	0x86
 2219 08a1 02       		.byte	0x2
 2220 08a2 23       		.byte	0x23
 2221 08a3 24       		.uleb128 0x24
 2222 08a4 06       		.uleb128 0x6
 2223 08a5 88040000 		.4byte	.LASF120
 2224 08a9 0C       		.byte	0xc
 2225 08aa FB       		.byte	0xfb
 2226 08ab 86000000 		.4byte	0x86
 2227 08af 02       		.byte	0x2
 2228 08b0 23       		.byte	0x23
 2229 08b1 28       		.uleb128 0x28
 2230 08b2 00       		.byte	0x0
 2231 08b3 03       		.uleb128 0x3
 2232 08b4 E4040000 		.4byte	.LASF121
 2233 08b8 0C       		.byte	0xc
 2234 08b9 FC       		.byte	0xfc
 2235 08ba 10080000 		.4byte	0x810
 2236 08be 12       		.uleb128 0x12
 2237 08bf 04       		.byte	0x4
 2238 08c0 0C       		.byte	0xc
 2239 08c1 0201     		.2byte	0x102
 2240 08c3 D7080000 		.4byte	0x8d7
 2241 08c7 13       		.uleb128 0x13
 2242 08c8 8E010000 		.4byte	.LASF122
 2243 08cc 0C       		.byte	0xc
 2244 08cd 0301     		.2byte	0x103
 2245 08cf 86000000 		.4byte	0x86
 2246 08d3 02       		.byte	0x2
 2247 08d4 23       		.byte	0x23
 2248 08d5 00       		.uleb128 0x0
 2249 08d6 00       		.byte	0x0
 2250 08d7 14       		.uleb128 0x14
 2251 08d8 45040000 		.4byte	.LASF123
 2252 08dc 0C       		.byte	0xc
 2253 08dd 0401     		.2byte	0x104
 2254 08df BE080000 		.4byte	0x8be
 2255 08e3 09       		.uleb128 0x9
 2256 08e4 04       		.byte	0x4
 2257 08e5 E9080000 		.4byte	0x8e9
 2258 08e9 11       		.uleb128 0x11
 2259 08ea D7080000 		.4byte	0x8d7
 2260 08ee 09       		.uleb128 0x9
 2261 08ef 04       		.byte	0x4
 2262 08f0 F4080000 		.4byte	0x8f4
 2263 08f4 11       		.uleb128 0x11
 2264 08f5 B3080000 		.4byte	0x8b3
 2265 08f9 09       		.uleb128 0x9
ARM GAS  C:\Users\z80\AppData\Local\Temp\ccFIHkx7.s 			page 41


 2266 08fa 04       		.byte	0x4
 2267 08fb 13050000 		.4byte	0x513
 2268 08ff 09       		.uleb128 0x9
 2269 0900 04       		.byte	0x4
 2270 0901 05090000 		.4byte	0x905
 2271 0905 11       		.uleb128 0x11
 2272 0906 77060000 		.4byte	0x677
 2273 090a 19       		.uleb128 0x19
 2274 090b 01       		.byte	0x1
 2275 090c DA030000 		.4byte	.LASF138
 2276 0910 01       		.byte	0x1
 2277 0911 E7       		.byte	0xe7
 2278 0912 01       		.byte	0x1
 2279 0913 01       		.byte	0x1
 2280 0914 24090000 		.4byte	0x924
 2281 0918 1A       		.uleb128 0x1a
 2282 0919 03020000 		.4byte	.LASF124
 2283 091d 01       		.byte	0x1
 2284 091e E7       		.byte	0xe7
 2285 091f E2070000 		.4byte	0x7e2
 2286 0923 00       		.byte	0x0
 2287 0924 1B       		.uleb128 0x1b
 2288 0925 B5030000 		.4byte	.LASF139
 2289 0929 01       		.byte	0x1
 2290 092a 40       		.byte	0x40
 2291 092b 01       		.byte	0x1
 2292 092c 00000000 		.4byte	.LFB62
 2293 0930 40010000 		.4byte	.LFE62
 2294 0934 00000000 		.4byte	.LLST0
 2295 0938 8D0A0000 		.4byte	0xa8d
 2296 093c 1C       		.uleb128 0x1c
 2297 093d 03020000 		.4byte	.LASF124
 2298 0941 01       		.byte	0x1
 2299 0942 40       		.byte	0x40
 2300 0943 E2070000 		.4byte	0x7e2
 2301 0947 20000000 		.4byte	.LLST1
 2302 094b 1C       		.uleb128 0x1c
 2303 094c F7040000 		.4byte	.LASF125
 2304 0950 01       		.byte	0x1
 2305 0951 40       		.byte	0x40
 2306 0952 86000000 		.4byte	0x86
 2307 0956 3E000000 		.4byte	.LLST2
 2308 095a 1D       		.uleb128 0x1d
 2309 095b 0A090000 		.4byte	0x90a
 2310 095f 0C000000 		.4byte	.LBB14
 2311 0963 00000000 		.4byte	.Ldebug_ranges0+0x0
 2312 0967 01       		.byte	0x1
 2313 0968 46       		.byte	0x46
 2314 0969 77090000 		.4byte	0x977
 2315 096d 1E       		.uleb128 0x1e
 2316 096e 18090000 		.4byte	0x918
 2317 0972 88000000 		.4byte	.LLST3
 2318 0976 00       		.byte	0x0
 2319 0977 1F       		.uleb128 0x1f
 2320 0978 48000000 		.4byte	.LBB20
 2321 097c 4E000000 		.4byte	.LBE20
 2322 0980 94090000 		.4byte	0x994
ARM GAS  C:\Users\z80\AppData\Local\Temp\ccFIHkx7.s 			page 42


 2323 0984 20       		.uleb128 0x20
 2324 0985 746D7000 		.ascii	"tmp\000"
 2325 0989 01       		.byte	0x1
 2326 098a 46       		.byte	0x46
 2327 098b 86000000 		.4byte	0x86
 2328 098f B1000000 		.4byte	.LLST4
 2329 0993 00       		.byte	0x0
 2330 0994 1F       		.uleb128 0x1f
 2331 0995 56000000 		.4byte	.LBB21
 2332 0999 62000000 		.4byte	.LBE21
 2333 099d B0090000 		.4byte	0x9b0
 2334 09a1 20       		.uleb128 0x20
 2335 09a2 747000   		.ascii	"tp\000"
 2336 09a5 01       		.byte	0x1
 2337 09a6 46       		.byte	0x46
 2338 09a7 37020000 		.4byte	0x237
 2339 09ab C4000000 		.4byte	.LLST5
 2340 09af 00       		.byte	0x0
 2341 09b0 1F       		.uleb128 0x1f
 2342 09b1 66000000 		.4byte	.LBB22
 2343 09b5 6C000000 		.4byte	.LBE22
 2344 09b9 CD090000 		.4byte	0x9cd
 2345 09bd 20       		.uleb128 0x20
 2346 09be 746D7000 		.ascii	"tmp\000"
 2347 09c2 01       		.byte	0x1
 2348 09c3 46       		.byte	0x46
 2349 09c4 86000000 		.4byte	0x86
 2350 09c8 D8000000 		.4byte	.LLST6
 2351 09cc 00       		.byte	0x0
 2352 09cd 1D       		.uleb128 0x1d
 2353 09ce 0A090000 		.4byte	0x90a
 2354 09d2 90000000 		.4byte	.LBB23
 2355 09d6 20000000 		.4byte	.Ldebug_ranges0+0x20
 2356 09da 01       		.byte	0x1
 2357 09db 4F       		.byte	0x4f
 2358 09dc EA090000 		.4byte	0x9ea
 2359 09e0 1E       		.uleb128 0x1e
 2360 09e1 18090000 		.4byte	0x918
 2361 09e5 EB000000 		.4byte	.LLST7
 2362 09e9 00       		.byte	0x0
 2363 09ea 1F       		.uleb128 0x1f
 2364 09eb C6000000 		.4byte	.LBB27
 2365 09ef D8000000 		.4byte	.LBE27
 2366 09f3 120A0000 		.4byte	0xa12
 2367 09f7 21       		.uleb128 0x21
 2368 09f8 83020000 		.4byte	.LASF126
 2369 09fc 01       		.byte	0x1
 2370 09fd 4F       		.byte	0x4f
 2371 09fe 30000000 		.4byte	0x30
 2372 0a02 14010000 		.4byte	.LLST8
 2373 0a06 22       		.uleb128 0x22
 2374 0a07 5E050000 		.4byte	.LASF127
 2375 0a0b 01       		.byte	0x1
 2376 0a0c 4F       		.byte	0x4f
 2377 0a0d 30000000 		.4byte	0x30
 2378 0a11 00       		.byte	0x0
 2379 0a12 1F       		.uleb128 0x1f
ARM GAS  C:\Users\z80\AppData\Local\Temp\ccFIHkx7.s 			page 43


 2380 0a13 E2000000 		.4byte	.LBB28
 2381 0a17 E8000000 		.4byte	.LBE28
 2382 0a1b 2F0A0000 		.4byte	0xa2f
 2383 0a1f 20       		.uleb128 0x20
 2384 0a20 746D7000 		.ascii	"tmp\000"
 2385 0a24 01       		.byte	0x1
 2386 0a25 4F       		.byte	0x4f
 2387 0a26 86000000 		.4byte	0x86
 2388 0a2a 27010000 		.4byte	.LLST9
 2389 0a2e 00       		.byte	0x0
 2390 0a2f 1F       		.uleb128 0x1f
 2391 0a30 F0000000 		.4byte	.LBB29
 2392 0a34 F8000000 		.4byte	.LBE29
 2393 0a38 4B0A0000 		.4byte	0xa4b
 2394 0a3c 20       		.uleb128 0x20
 2395 0a3d 747000   		.ascii	"tp\000"
 2396 0a40 01       		.byte	0x1
 2397 0a41 4F       		.byte	0x4f
 2398 0a42 37020000 		.4byte	0x237
 2399 0a46 3A010000 		.4byte	.LLST10
 2400 0a4a 00       		.byte	0x0
 2401 0a4b 1F       		.uleb128 0x1f
 2402 0a4c FC000000 		.4byte	.LBB30
 2403 0a50 04010000 		.4byte	.LBE30
 2404 0a54 680A0000 		.4byte	0xa68
 2405 0a58 20       		.uleb128 0x20
 2406 0a59 746D7000 		.ascii	"tmp\000"
 2407 0a5d 01       		.byte	0x1
 2408 0a5e 4F       		.byte	0x4f
 2409 0a5f 86000000 		.4byte	0x86
 2410 0a63 4E010000 		.4byte	.LLST11
 2411 0a67 00       		.byte	0x0
 2412 0a68 23       		.uleb128 0x23
 2413 0a69 10010000 		.4byte	.LBB31
 2414 0a6d 24010000 		.4byte	.LBE31
 2415 0a71 21       		.uleb128 0x21
 2416 0a72 83020000 		.4byte	.LASF126
 2417 0a76 01       		.byte	0x1
 2418 0a77 4F       		.byte	0x4f
 2419 0a78 30000000 		.4byte	0x30
 2420 0a7c 6C010000 		.4byte	.LLST12
 2421 0a80 22       		.uleb128 0x22
 2422 0a81 5E050000 		.4byte	.LASF127
 2423 0a85 01       		.byte	0x1
 2424 0a86 4F       		.byte	0x4f
 2425 0a87 30000000 		.4byte	0x30
 2426 0a8b 00       		.byte	0x0
 2427 0a8c 00       		.byte	0x0
 2428 0a8d 24       		.uleb128 0x24
 2429 0a8e 01       		.byte	0x1
 2430 0a8f A9020000 		.4byte	.LASF140
 2431 0a93 01       		.byte	0x1
 2432 0a94 61       		.byte	0x61
 2433 0a95 01       		.byte	0x1
 2434 0a96 00000000 		.4byte	.LFB63
 2435 0a9a 80000000 		.4byte	.LFE63
 2436 0a9e 7F010000 		.4byte	.LLST13
ARM GAS  C:\Users\z80\AppData\Local\Temp\ccFIHkx7.s 			page 44


 2437 0aa2 25       		.uleb128 0x25
 2438 0aa3 01       		.byte	0x1
 2439 0aa4 B9040000 		.4byte	.LASF128
 2440 0aa8 01       		.byte	0x1
 2441 0aa9 89       		.byte	0x89
 2442 0aaa 01       		.byte	0x1
 2443 0aab 00000000 		.4byte	.LFB64
 2444 0aaf 60000000 		.4byte	.LFE64
 2445 0ab3 9F010000 		.4byte	.LLST14
 2446 0ab7 E20A0000 		.4byte	0xae2
 2447 0abb 1C       		.uleb128 0x1c
 2448 0abc 03020000 		.4byte	.LASF124
 2449 0ac0 01       		.byte	0x1
 2450 0ac1 89       		.byte	0x89
 2451 0ac2 E2070000 		.4byte	0x7e2
 2452 0ac6 BF010000 		.4byte	.LLST15
 2453 0aca 23       		.uleb128 0x23
 2454 0acb 1C000000 		.4byte	.LBB32
 2455 0acf 60000000 		.4byte	.LBE32
 2456 0ad3 20       		.uleb128 0x20
 2457 0ad4 6200     		.ascii	"b\000"
 2458 0ad6 01       		.byte	0x1
 2459 0ad7 8F       		.byte	0x8f
 2460 0ad8 B1000000 		.4byte	0xb1
 2461 0adc DD010000 		.4byte	.LLST16
 2462 0ae0 00       		.byte	0x0
 2463 0ae1 00       		.byte	0x0
 2464 0ae2 25       		.uleb128 0x25
 2465 0ae3 01       		.byte	0x1
 2466 0ae4 28000000 		.4byte	.LASF129
 2467 0ae8 01       		.byte	0x1
 2468 0ae9 A8       		.byte	0xa8
 2469 0aea 01       		.byte	0x1
 2470 0aeb 00000000 		.4byte	.LFB65
 2471 0aef 3C000000 		.4byte	.LFE65
 2472 0af3 FB010000 		.4byte	.LLST17
 2473 0af7 0B0B0000 		.4byte	0xb0b
 2474 0afb 1C       		.uleb128 0x1c
 2475 0afc 03020000 		.4byte	.LASF124
 2476 0b00 01       		.byte	0x1
 2477 0b01 A8       		.byte	0xa8
 2478 0b02 E2070000 		.4byte	0x7e2
 2479 0b06 1B020000 		.4byte	.LLST18
 2480 0b0a 00       		.byte	0x0
 2481 0b0b 25       		.uleb128 0x25
 2482 0b0c 01       		.byte	0x1
 2483 0b0d FA000000 		.4byte	.LASF130
 2484 0b11 01       		.byte	0x1
 2485 0b12 BE       		.byte	0xbe
 2486 0b13 01       		.byte	0x1
 2487 0b14 00000000 		.4byte	.LFB66
 2488 0b18 76000000 		.4byte	.LFE66
 2489 0b1c 39020000 		.4byte	.LLST19
 2490 0b20 5F0B0000 		.4byte	0xb5f
 2491 0b24 1C       		.uleb128 0x1c
 2492 0b25 03020000 		.4byte	.LASF124
 2493 0b29 01       		.byte	0x1
ARM GAS  C:\Users\z80\AppData\Local\Temp\ccFIHkx7.s 			page 45


 2494 0b2a BE       		.byte	0xbe
 2495 0b2b E2070000 		.4byte	0x7e2
 2496 0b2f 59020000 		.4byte	.LLST20
 2497 0b33 21       		.uleb128 0x21
 2498 0b34 72040000 		.4byte	.LASF131
 2499 0b38 01       		.byte	0x1
 2500 0b39 BF       		.byte	0xbf
 2501 0b3a 86000000 		.4byte	0x86
 2502 0b3e 6C020000 		.4byte	.LLST21
 2503 0b42 20       		.uleb128 0x20
 2504 0b43 6E00     		.ascii	"n\000"
 2505 0b45 01       		.byte	0x1
 2506 0b46 BF       		.byte	0xbf
 2507 0b47 86000000 		.4byte	0x86
 2508 0b4b B0020000 		.4byte	.LLST22
 2509 0b4f 21       		.uleb128 0x21
 2510 0b50 98020000 		.4byte	.LASF105
 2511 0b54 01       		.byte	0x1
 2512 0b55 C0       		.byte	0xc0
 2513 0b56 EE080000 		.4byte	0x8ee
 2514 0b5a CF020000 		.4byte	.LLST23
 2515 0b5e 00       		.byte	0x0
 2516 0b5f 26       		.uleb128 0x26
 2517 0b60 0A090000 		.4byte	0x90a
 2518 0b64 00000000 		.4byte	.LFB67
 2519 0b68 28000000 		.4byte	.LFE67
 2520 0b6c EE020000 		.4byte	.LLST24
 2521 0b70 7E0B0000 		.4byte	0xb7e
 2522 0b74 1E       		.uleb128 0x1e
 2523 0b75 18090000 		.4byte	0x918
 2524 0b79 0E030000 		.4byte	.LLST25
 2525 0b7d 00       		.byte	0x0
 2526 0b7e 27       		.uleb128 0x27
 2527 0b7f 73000000 		.4byte	.LASF132
 2528 0b83 0D       		.byte	0xd
 2529 0b84 9404     		.2byte	0x494
 2530 0b86 DA030000 		.4byte	0x3da
 2531 0b8a 01       		.byte	0x1
 2532 0b8b 01       		.byte	0x1
 2533 0b8c 28       		.uleb128 0x28
 2534 0b8d 77060000 		.4byte	0x677
 2535 0b91 9C0B0000 		.4byte	0xb9c
 2536 0b95 29       		.uleb128 0x29
 2537 0b96 37030000 		.4byte	0x337
 2538 0b9a 06       		.byte	0x6
 2539 0b9b 00       		.byte	0x0
 2540 0b9c 27       		.uleb128 0x27
 2541 0b9d 60000000 		.4byte	.LASF133
 2542 0ba1 0A       		.byte	0xa
 2543 0ba2 8201     		.2byte	0x182
 2544 0ba4 AA0B0000 		.4byte	0xbaa
 2545 0ba8 01       		.byte	0x1
 2546 0ba9 01       		.byte	0x1
 2547 0baa 11       		.uleb128 0x11
 2548 0bab 8C0B0000 		.4byte	0xb8c
 2549 0baf 27       		.uleb128 0x27
 2550 0bb0 3F040000 		.4byte	.LASF134
ARM GAS  C:\Users\z80\AppData\Local\Temp\ccFIHkx7.s 			page 46


 2551 0bb4 0C       		.byte	0xc
 2552 0bb5 8101     		.2byte	0x181
 2553 0bb7 0C070000 		.4byte	0x70c
 2554 0bbb 01       		.byte	0x1
 2555 0bbc 01       		.byte	0x1
 2556 0bbd 27       		.uleb128 0x27
 2557 0bbe 73000000 		.4byte	.LASF132
 2558 0bc2 0D       		.byte	0xd
 2559 0bc3 9404     		.2byte	0x494
 2560 0bc5 DA030000 		.4byte	0x3da
 2561 0bc9 01       		.byte	0x1
 2562 0bca 01       		.byte	0x1
 2563 0bcb 27       		.uleb128 0x27
 2564 0bcc 60000000 		.4byte	.LASF133
 2565 0bd0 0A       		.byte	0xa
 2566 0bd1 8201     		.2byte	0x182
 2567 0bd3 D90B0000 		.4byte	0xbd9
 2568 0bd7 01       		.byte	0x1
 2569 0bd8 01       		.byte	0x1
 2570 0bd9 11       		.uleb128 0x11
 2571 0bda 8C0B0000 		.4byte	0xb8c
 2572 0bde 2A       		.uleb128 0x2a
 2573 0bdf 3F040000 		.4byte	.LASF134
 2574 0be3 01       		.byte	0x1
 2575 0be4 2F       		.byte	0x2f
 2576 0be5 0C070000 		.4byte	0x70c
 2577 0be9 01       		.byte	0x1
 2578 0bea 05       		.byte	0x5
 2579 0beb 03       		.byte	0x3
 2580 0bec 00000000 		.4byte	ADCD1
 2581 0bf0 00       		.byte	0x0
 2582              		.section	.debug_abbrev
 2583 0000 01       		.uleb128 0x1
 2584 0001 11       		.uleb128 0x11
 2585 0002 01       		.byte	0x1
 2586 0003 25       		.uleb128 0x25
 2587 0004 0E       		.uleb128 0xe
 2588 0005 13       		.uleb128 0x13
 2589 0006 0B       		.uleb128 0xb
 2590 0007 03       		.uleb128 0x3
 2591 0008 0E       		.uleb128 0xe
 2592 0009 1B       		.uleb128 0x1b
 2593 000a 0E       		.uleb128 0xe
 2594 000b 11       		.uleb128 0x11
 2595 000c 01       		.uleb128 0x1
 2596 000d 52       		.uleb128 0x52
 2597 000e 01       		.uleb128 0x1
 2598 000f 55       		.uleb128 0x55
 2599 0010 06       		.uleb128 0x6
 2600 0011 10       		.uleb128 0x10
 2601 0012 06       		.uleb128 0x6
 2602 0013 00       		.byte	0x0
 2603 0014 00       		.byte	0x0
 2604 0015 02       		.uleb128 0x2
 2605 0016 24       		.uleb128 0x24
 2606 0017 00       		.byte	0x0
 2607 0018 0B       		.uleb128 0xb
ARM GAS  C:\Users\z80\AppData\Local\Temp\ccFIHkx7.s 			page 47


 2608 0019 0B       		.uleb128 0xb
 2609 001a 3E       		.uleb128 0x3e
 2610 001b 0B       		.uleb128 0xb
 2611 001c 03       		.uleb128 0x3
 2612 001d 08       		.uleb128 0x8
 2613 001e 00       		.byte	0x0
 2614 001f 00       		.byte	0x0
 2615 0020 03       		.uleb128 0x3
 2616 0021 16       		.uleb128 0x16
 2617 0022 00       		.byte	0x0
 2618 0023 03       		.uleb128 0x3
 2619 0024 0E       		.uleb128 0xe
 2620 0025 3A       		.uleb128 0x3a
 2621 0026 0B       		.uleb128 0xb
 2622 0027 3B       		.uleb128 0x3b
 2623 0028 0B       		.uleb128 0xb
 2624 0029 49       		.uleb128 0x49
 2625 002a 13       		.uleb128 0x13
 2626 002b 00       		.byte	0x0
 2627 002c 00       		.byte	0x0
 2628 002d 04       		.uleb128 0x4
 2629 002e 24       		.uleb128 0x24
 2630 002f 00       		.byte	0x0
 2631 0030 0B       		.uleb128 0xb
 2632 0031 0B       		.uleb128 0xb
 2633 0032 3E       		.uleb128 0x3e
 2634 0033 0B       		.uleb128 0xb
 2635 0034 03       		.uleb128 0x3
 2636 0035 0E       		.uleb128 0xe
 2637 0036 00       		.byte	0x0
 2638 0037 00       		.byte	0x0
 2639 0038 05       		.uleb128 0x5
 2640 0039 13       		.uleb128 0x13
 2641 003a 01       		.byte	0x1
 2642 003b 03       		.uleb128 0x3
 2643 003c 0E       		.uleb128 0xe
 2644 003d 0B       		.uleb128 0xb
 2645 003e 0B       		.uleb128 0xb
 2646 003f 3A       		.uleb128 0x3a
 2647 0040 0B       		.uleb128 0xb
 2648 0041 3B       		.uleb128 0x3b
 2649 0042 0B       		.uleb128 0xb
 2650 0043 01       		.uleb128 0x1
 2651 0044 13       		.uleb128 0x13
 2652 0045 00       		.byte	0x0
 2653 0046 00       		.byte	0x0
 2654 0047 06       		.uleb128 0x6
 2655 0048 0D       		.uleb128 0xd
 2656 0049 00       		.byte	0x0
 2657 004a 03       		.uleb128 0x3
 2658 004b 0E       		.uleb128 0xe
 2659 004c 3A       		.uleb128 0x3a
 2660 004d 0B       		.uleb128 0xb
 2661 004e 3B       		.uleb128 0x3b
 2662 004f 0B       		.uleb128 0xb
 2663 0050 49       		.uleb128 0x49
 2664 0051 13       		.uleb128 0x13
ARM GAS  C:\Users\z80\AppData\Local\Temp\ccFIHkx7.s 			page 48


 2665 0052 38       		.uleb128 0x38
 2666 0053 0A       		.uleb128 0xa
 2667 0054 00       		.byte	0x0
 2668 0055 00       		.byte	0x0
 2669 0056 07       		.uleb128 0x7
 2670 0057 0D       		.uleb128 0xd
 2671 0058 00       		.byte	0x0
 2672 0059 03       		.uleb128 0x3
 2673 005a 08       		.uleb128 0x8
 2674 005b 3A       		.uleb128 0x3a
 2675 005c 0B       		.uleb128 0xb
 2676 005d 3B       		.uleb128 0x3b
 2677 005e 0B       		.uleb128 0xb
 2678 005f 49       		.uleb128 0x49
 2679 0060 13       		.uleb128 0x13
 2680 0061 38       		.uleb128 0x38
 2681 0062 0A       		.uleb128 0xa
 2682 0063 00       		.byte	0x0
 2683 0064 00       		.byte	0x0
 2684 0065 08       		.uleb128 0x8
 2685 0066 13       		.uleb128 0x13
 2686 0067 01       		.byte	0x1
 2687 0068 0B       		.uleb128 0xb
 2688 0069 0B       		.uleb128 0xb
 2689 006a 3A       		.uleb128 0x3a
 2690 006b 0B       		.uleb128 0xb
 2691 006c 3B       		.uleb128 0x3b
 2692 006d 0B       		.uleb128 0xb
 2693 006e 01       		.uleb128 0x1
 2694 006f 13       		.uleb128 0x13
 2695 0070 00       		.byte	0x0
 2696 0071 00       		.byte	0x0
 2697 0072 09       		.uleb128 0x9
 2698 0073 0F       		.uleb128 0xf
 2699 0074 00       		.byte	0x0
 2700 0075 0B       		.uleb128 0xb
 2701 0076 0B       		.uleb128 0xb
 2702 0077 49       		.uleb128 0x49
 2703 0078 13       		.uleb128 0x13
 2704 0079 00       		.byte	0x0
 2705 007a 00       		.byte	0x0
 2706 007b 0A       		.uleb128 0xa
 2707 007c 0F       		.uleb128 0xf
 2708 007d 00       		.byte	0x0
 2709 007e 0B       		.uleb128 0xb
 2710 007f 0B       		.uleb128 0xb
 2711 0080 00       		.byte	0x0
 2712 0081 00       		.byte	0x0
 2713 0082 0B       		.uleb128 0xb
 2714 0083 0D       		.uleb128 0xd
 2715 0084 00       		.byte	0x0
 2716 0085 03       		.uleb128 0x3
 2717 0086 08       		.uleb128 0x8
 2718 0087 3A       		.uleb128 0x3a
 2719 0088 0B       		.uleb128 0xb
 2720 0089 3B       		.uleb128 0x3b
 2721 008a 05       		.uleb128 0x5
ARM GAS  C:\Users\z80\AppData\Local\Temp\ccFIHkx7.s 			page 49


 2722 008b 49       		.uleb128 0x49
 2723 008c 13       		.uleb128 0x13
 2724 008d 38       		.uleb128 0x38
 2725 008e 0A       		.uleb128 0xa
 2726 008f 00       		.byte	0x0
 2727 0090 00       		.byte	0x0
 2728 0091 0C       		.uleb128 0xc
 2729 0092 13       		.uleb128 0x13
 2730 0093 01       		.byte	0x1
 2731 0094 03       		.uleb128 0x3
 2732 0095 0E       		.uleb128 0xe
 2733 0096 0B       		.uleb128 0xb
 2734 0097 0B       		.uleb128 0xb
 2735 0098 3A       		.uleb128 0x3a
 2736 0099 0B       		.uleb128 0xb
 2737 009a 3B       		.uleb128 0x3b
 2738 009b 05       		.uleb128 0x5
 2739 009c 01       		.uleb128 0x1
 2740 009d 13       		.uleb128 0x13
 2741 009e 00       		.byte	0x0
 2742 009f 00       		.byte	0x0
 2743 00a0 0D       		.uleb128 0xd
 2744 00a1 35       		.uleb128 0x35
 2745 00a2 00       		.byte	0x0
 2746 00a3 49       		.uleb128 0x49
 2747 00a4 13       		.uleb128 0x13
 2748 00a5 00       		.byte	0x0
 2749 00a6 00       		.byte	0x0
 2750 00a7 0E       		.uleb128 0xe
 2751 00a8 24       		.uleb128 0x24
 2752 00a9 00       		.byte	0x0
 2753 00aa 0B       		.uleb128 0xb
 2754 00ab 0B       		.uleb128 0xb
 2755 00ac 3E       		.uleb128 0x3e
 2756 00ad 0B       		.uleb128 0xb
 2757 00ae 00       		.byte	0x0
 2758 00af 00       		.byte	0x0
 2759 00b0 0F       		.uleb128 0xf
 2760 00b1 17       		.uleb128 0x17
 2761 00b2 01       		.byte	0x1
 2762 00b3 0B       		.uleb128 0xb
 2763 00b4 0B       		.uleb128 0xb
 2764 00b5 3A       		.uleb128 0x3a
 2765 00b6 0B       		.uleb128 0xb
 2766 00b7 3B       		.uleb128 0x3b
 2767 00b8 0B       		.uleb128 0xb
 2768 00b9 01       		.uleb128 0x1
 2769 00ba 13       		.uleb128 0x13
 2770 00bb 00       		.byte	0x0
 2771 00bc 00       		.byte	0x0
 2772 00bd 10       		.uleb128 0x10
 2773 00be 0D       		.uleb128 0xd
 2774 00bf 00       		.byte	0x0
 2775 00c0 03       		.uleb128 0x3
 2776 00c1 0E       		.uleb128 0xe
 2777 00c2 3A       		.uleb128 0x3a
 2778 00c3 0B       		.uleb128 0xb
ARM GAS  C:\Users\z80\AppData\Local\Temp\ccFIHkx7.s 			page 50


 2779 00c4 3B       		.uleb128 0x3b
 2780 00c5 0B       		.uleb128 0xb
 2781 00c6 49       		.uleb128 0x49
 2782 00c7 13       		.uleb128 0x13
 2783 00c8 00       		.byte	0x0
 2784 00c9 00       		.byte	0x0
 2785 00ca 11       		.uleb128 0x11
 2786 00cb 26       		.uleb128 0x26
 2787 00cc 00       		.byte	0x0
 2788 00cd 49       		.uleb128 0x49
 2789 00ce 13       		.uleb128 0x13
 2790 00cf 00       		.byte	0x0
 2791 00d0 00       		.byte	0x0
 2792 00d1 12       		.uleb128 0x12
 2793 00d2 13       		.uleb128 0x13
 2794 00d3 01       		.byte	0x1
 2795 00d4 0B       		.uleb128 0xb
 2796 00d5 0B       		.uleb128 0xb
 2797 00d6 3A       		.uleb128 0x3a
 2798 00d7 0B       		.uleb128 0xb
 2799 00d8 3B       		.uleb128 0x3b
 2800 00d9 05       		.uleb128 0x5
 2801 00da 01       		.uleb128 0x1
 2802 00db 13       		.uleb128 0x13
 2803 00dc 00       		.byte	0x0
 2804 00dd 00       		.byte	0x0
 2805 00de 13       		.uleb128 0x13
 2806 00df 0D       		.uleb128 0xd
 2807 00e0 00       		.byte	0x0
 2808 00e1 03       		.uleb128 0x3
 2809 00e2 0E       		.uleb128 0xe
 2810 00e3 3A       		.uleb128 0x3a
 2811 00e4 0B       		.uleb128 0xb
 2812 00e5 3B       		.uleb128 0x3b
 2813 00e6 05       		.uleb128 0x5
 2814 00e7 49       		.uleb128 0x49
 2815 00e8 13       		.uleb128 0x13
 2816 00e9 38       		.uleb128 0x38
 2817 00ea 0A       		.uleb128 0xa
 2818 00eb 00       		.byte	0x0
 2819 00ec 00       		.byte	0x0
 2820 00ed 14       		.uleb128 0x14
 2821 00ee 16       		.uleb128 0x16
 2822 00ef 00       		.byte	0x0
 2823 00f0 03       		.uleb128 0x3
 2824 00f1 0E       		.uleb128 0xe
 2825 00f2 3A       		.uleb128 0x3a
 2826 00f3 0B       		.uleb128 0xb
 2827 00f4 3B       		.uleb128 0x3b
 2828 00f5 05       		.uleb128 0x5
 2829 00f6 49       		.uleb128 0x49
 2830 00f7 13       		.uleb128 0x13
 2831 00f8 00       		.byte	0x0
 2832 00f9 00       		.byte	0x0
 2833 00fa 15       		.uleb128 0x15
 2834 00fb 15       		.uleb128 0x15
 2835 00fc 01       		.byte	0x1
ARM GAS  C:\Users\z80\AppData\Local\Temp\ccFIHkx7.s 			page 51


 2836 00fd 27       		.uleb128 0x27
 2837 00fe 0C       		.uleb128 0xc
 2838 00ff 01       		.uleb128 0x1
 2839 0100 13       		.uleb128 0x13
 2840 0101 00       		.byte	0x0
 2841 0102 00       		.byte	0x0
 2842 0103 16       		.uleb128 0x16
 2843 0104 05       		.uleb128 0x5
 2844 0105 00       		.byte	0x0
 2845 0106 49       		.uleb128 0x49
 2846 0107 13       		.uleb128 0x13
 2847 0108 00       		.byte	0x0
 2848 0109 00       		.byte	0x0
 2849 010a 17       		.uleb128 0x17
 2850 010b 04       		.uleb128 0x4
 2851 010c 01       		.byte	0x1
 2852 010d 0B       		.uleb128 0xb
 2853 010e 0B       		.uleb128 0xb
 2854 010f 3A       		.uleb128 0x3a
 2855 0110 0B       		.uleb128 0xb
 2856 0111 3B       		.uleb128 0x3b
 2857 0112 0B       		.uleb128 0xb
 2858 0113 01       		.uleb128 0x1
 2859 0114 13       		.uleb128 0x13
 2860 0115 00       		.byte	0x0
 2861 0116 00       		.byte	0x0
 2862 0117 18       		.uleb128 0x18
 2863 0118 28       		.uleb128 0x28
 2864 0119 00       		.byte	0x0
 2865 011a 03       		.uleb128 0x3
 2866 011b 0E       		.uleb128 0xe
 2867 011c 1C       		.uleb128 0x1c
 2868 011d 0D       		.uleb128 0xd
 2869 011e 00       		.byte	0x0
 2870 011f 00       		.byte	0x0
 2871 0120 19       		.uleb128 0x19
 2872 0121 2E       		.uleb128 0x2e
 2873 0122 01       		.byte	0x1
 2874 0123 3F       		.uleb128 0x3f
 2875 0124 0C       		.uleb128 0xc
 2876 0125 03       		.uleb128 0x3
 2877 0126 0E       		.uleb128 0xe
 2878 0127 3A       		.uleb128 0x3a
 2879 0128 0B       		.uleb128 0xb
 2880 0129 3B       		.uleb128 0x3b
 2881 012a 0B       		.uleb128 0xb
 2882 012b 27       		.uleb128 0x27
 2883 012c 0C       		.uleb128 0xc
 2884 012d 20       		.uleb128 0x20
 2885 012e 0B       		.uleb128 0xb
 2886 012f 01       		.uleb128 0x1
 2887 0130 13       		.uleb128 0x13
 2888 0131 00       		.byte	0x0
 2889 0132 00       		.byte	0x0
 2890 0133 1A       		.uleb128 0x1a
 2891 0134 05       		.uleb128 0x5
 2892 0135 00       		.byte	0x0
ARM GAS  C:\Users\z80\AppData\Local\Temp\ccFIHkx7.s 			page 52


 2893 0136 03       		.uleb128 0x3
 2894 0137 0E       		.uleb128 0xe
 2895 0138 3A       		.uleb128 0x3a
 2896 0139 0B       		.uleb128 0xb
 2897 013a 3B       		.uleb128 0x3b
 2898 013b 0B       		.uleb128 0xb
 2899 013c 49       		.uleb128 0x49
 2900 013d 13       		.uleb128 0x13
 2901 013e 00       		.byte	0x0
 2902 013f 00       		.byte	0x0
 2903 0140 1B       		.uleb128 0x1b
 2904 0141 2E       		.uleb128 0x2e
 2905 0142 01       		.byte	0x1
 2906 0143 03       		.uleb128 0x3
 2907 0144 0E       		.uleb128 0xe
 2908 0145 3A       		.uleb128 0x3a
 2909 0146 0B       		.uleb128 0xb
 2910 0147 3B       		.uleb128 0x3b
 2911 0148 0B       		.uleb128 0xb
 2912 0149 27       		.uleb128 0x27
 2913 014a 0C       		.uleb128 0xc
 2914 014b 11       		.uleb128 0x11
 2915 014c 01       		.uleb128 0x1
 2916 014d 12       		.uleb128 0x12
 2917 014e 01       		.uleb128 0x1
 2918 014f 40       		.uleb128 0x40
 2919 0150 06       		.uleb128 0x6
 2920 0151 01       		.uleb128 0x1
 2921 0152 13       		.uleb128 0x13
 2922 0153 00       		.byte	0x0
 2923 0154 00       		.byte	0x0
 2924 0155 1C       		.uleb128 0x1c
 2925 0156 05       		.uleb128 0x5
 2926 0157 00       		.byte	0x0
 2927 0158 03       		.uleb128 0x3
 2928 0159 0E       		.uleb128 0xe
 2929 015a 3A       		.uleb128 0x3a
 2930 015b 0B       		.uleb128 0xb
 2931 015c 3B       		.uleb128 0x3b
 2932 015d 0B       		.uleb128 0xb
 2933 015e 49       		.uleb128 0x49
 2934 015f 13       		.uleb128 0x13
 2935 0160 02       		.uleb128 0x2
 2936 0161 06       		.uleb128 0x6
 2937 0162 00       		.byte	0x0
 2938 0163 00       		.byte	0x0
 2939 0164 1D       		.uleb128 0x1d
 2940 0165 1D       		.uleb128 0x1d
 2941 0166 01       		.byte	0x1
 2942 0167 31       		.uleb128 0x31
 2943 0168 13       		.uleb128 0x13
 2944 0169 52       		.uleb128 0x52
 2945 016a 01       		.uleb128 0x1
 2946 016b 55       		.uleb128 0x55
 2947 016c 06       		.uleb128 0x6
 2948 016d 58       		.uleb128 0x58
 2949 016e 0B       		.uleb128 0xb
ARM GAS  C:\Users\z80\AppData\Local\Temp\ccFIHkx7.s 			page 53


 2950 016f 59       		.uleb128 0x59
 2951 0170 0B       		.uleb128 0xb
 2952 0171 01       		.uleb128 0x1
 2953 0172 13       		.uleb128 0x13
 2954 0173 00       		.byte	0x0
 2955 0174 00       		.byte	0x0
 2956 0175 1E       		.uleb128 0x1e
 2957 0176 05       		.uleb128 0x5
 2958 0177 00       		.byte	0x0
 2959 0178 31       		.uleb128 0x31
 2960 0179 13       		.uleb128 0x13
 2961 017a 02       		.uleb128 0x2
 2962 017b 06       		.uleb128 0x6
 2963 017c 00       		.byte	0x0
 2964 017d 00       		.byte	0x0
 2965 017e 1F       		.uleb128 0x1f
 2966 017f 0B       		.uleb128 0xb
 2967 0180 01       		.byte	0x1
 2968 0181 11       		.uleb128 0x11
 2969 0182 01       		.uleb128 0x1
 2970 0183 12       		.uleb128 0x12
 2971 0184 01       		.uleb128 0x1
 2972 0185 01       		.uleb128 0x1
 2973 0186 13       		.uleb128 0x13
 2974 0187 00       		.byte	0x0
 2975 0188 00       		.byte	0x0
 2976 0189 20       		.uleb128 0x20
 2977 018a 34       		.uleb128 0x34
 2978 018b 00       		.byte	0x0
 2979 018c 03       		.uleb128 0x3
 2980 018d 08       		.uleb128 0x8
 2981 018e 3A       		.uleb128 0x3a
 2982 018f 0B       		.uleb128 0xb
 2983 0190 3B       		.uleb128 0x3b
 2984 0191 0B       		.uleb128 0xb
 2985 0192 49       		.uleb128 0x49
 2986 0193 13       		.uleb128 0x13
 2987 0194 02       		.uleb128 0x2
 2988 0195 06       		.uleb128 0x6
 2989 0196 00       		.byte	0x0
 2990 0197 00       		.byte	0x0
 2991 0198 21       		.uleb128 0x21
 2992 0199 34       		.uleb128 0x34
 2993 019a 00       		.byte	0x0
 2994 019b 03       		.uleb128 0x3
 2995 019c 0E       		.uleb128 0xe
 2996 019d 3A       		.uleb128 0x3a
 2997 019e 0B       		.uleb128 0xb
 2998 019f 3B       		.uleb128 0x3b
 2999 01a0 0B       		.uleb128 0xb
 3000 01a1 49       		.uleb128 0x49
 3001 01a2 13       		.uleb128 0x13
 3002 01a3 02       		.uleb128 0x2
 3003 01a4 06       		.uleb128 0x6
 3004 01a5 00       		.byte	0x0
 3005 01a6 00       		.byte	0x0
 3006 01a7 22       		.uleb128 0x22
ARM GAS  C:\Users\z80\AppData\Local\Temp\ccFIHkx7.s 			page 54


 3007 01a8 34       		.uleb128 0x34
 3008 01a9 00       		.byte	0x0
 3009 01aa 03       		.uleb128 0x3
 3010 01ab 0E       		.uleb128 0xe
 3011 01ac 3A       		.uleb128 0x3a
 3012 01ad 0B       		.uleb128 0xb
 3013 01ae 3B       		.uleb128 0x3b
 3014 01af 0B       		.uleb128 0xb
 3015 01b0 49       		.uleb128 0x49
 3016 01b1 13       		.uleb128 0x13
 3017 01b2 00       		.byte	0x0
 3018 01b3 00       		.byte	0x0
 3019 01b4 23       		.uleb128 0x23
 3020 01b5 0B       		.uleb128 0xb
 3021 01b6 01       		.byte	0x1
 3022 01b7 11       		.uleb128 0x11
 3023 01b8 01       		.uleb128 0x1
 3024 01b9 12       		.uleb128 0x12
 3025 01ba 01       		.uleb128 0x1
 3026 01bb 00       		.byte	0x0
 3027 01bc 00       		.byte	0x0
 3028 01bd 24       		.uleb128 0x24
 3029 01be 2E       		.uleb128 0x2e
 3030 01bf 00       		.byte	0x0
 3031 01c0 3F       		.uleb128 0x3f
 3032 01c1 0C       		.uleb128 0xc
 3033 01c2 03       		.uleb128 0x3
 3034 01c3 0E       		.uleb128 0xe
 3035 01c4 3A       		.uleb128 0x3a
 3036 01c5 0B       		.uleb128 0xb
 3037 01c6 3B       		.uleb128 0x3b
 3038 01c7 0B       		.uleb128 0xb
 3039 01c8 27       		.uleb128 0x27
 3040 01c9 0C       		.uleb128 0xc
 3041 01ca 11       		.uleb128 0x11
 3042 01cb 01       		.uleb128 0x1
 3043 01cc 12       		.uleb128 0x12
 3044 01cd 01       		.uleb128 0x1
 3045 01ce 40       		.uleb128 0x40
 3046 01cf 06       		.uleb128 0x6
 3047 01d0 00       		.byte	0x0
 3048 01d1 00       		.byte	0x0
 3049 01d2 25       		.uleb128 0x25
 3050 01d3 2E       		.uleb128 0x2e
 3051 01d4 01       		.byte	0x1
 3052 01d5 3F       		.uleb128 0x3f
 3053 01d6 0C       		.uleb128 0xc
 3054 01d7 03       		.uleb128 0x3
 3055 01d8 0E       		.uleb128 0xe
 3056 01d9 3A       		.uleb128 0x3a
 3057 01da 0B       		.uleb128 0xb
 3058 01db 3B       		.uleb128 0x3b
 3059 01dc 0B       		.uleb128 0xb
 3060 01dd 27       		.uleb128 0x27
 3061 01de 0C       		.uleb128 0xc
 3062 01df 11       		.uleb128 0x11
 3063 01e0 01       		.uleb128 0x1
ARM GAS  C:\Users\z80\AppData\Local\Temp\ccFIHkx7.s 			page 55


 3064 01e1 12       		.uleb128 0x12
 3065 01e2 01       		.uleb128 0x1
 3066 01e3 40       		.uleb128 0x40
 3067 01e4 06       		.uleb128 0x6
 3068 01e5 01       		.uleb128 0x1
 3069 01e6 13       		.uleb128 0x13
 3070 01e7 00       		.byte	0x0
 3071 01e8 00       		.byte	0x0
 3072 01e9 26       		.uleb128 0x26
 3073 01ea 2E       		.uleb128 0x2e
 3074 01eb 01       		.byte	0x1
 3075 01ec 31       		.uleb128 0x31
 3076 01ed 13       		.uleb128 0x13
 3077 01ee 11       		.uleb128 0x11
 3078 01ef 01       		.uleb128 0x1
 3079 01f0 12       		.uleb128 0x12
 3080 01f1 01       		.uleb128 0x1
 3081 01f2 40       		.uleb128 0x40
 3082 01f3 06       		.uleb128 0x6
 3083 01f4 01       		.uleb128 0x1
 3084 01f5 13       		.uleb128 0x13
 3085 01f6 00       		.byte	0x0
 3086 01f7 00       		.byte	0x0
 3087 01f8 27       		.uleb128 0x27
 3088 01f9 34       		.uleb128 0x34
 3089 01fa 00       		.byte	0x0
 3090 01fb 03       		.uleb128 0x3
 3091 01fc 0E       		.uleb128 0xe
 3092 01fd 3A       		.uleb128 0x3a
 3093 01fe 0B       		.uleb128 0xb
 3094 01ff 3B       		.uleb128 0x3b
 3095 0200 05       		.uleb128 0x5
 3096 0201 49       		.uleb128 0x49
 3097 0202 13       		.uleb128 0x13
 3098 0203 3F       		.uleb128 0x3f
 3099 0204 0C       		.uleb128 0xc
 3100 0205 3C       		.uleb128 0x3c
 3101 0206 0C       		.uleb128 0xc
 3102 0207 00       		.byte	0x0
 3103 0208 00       		.byte	0x0
 3104 0209 28       		.uleb128 0x28
 3105 020a 01       		.uleb128 0x1
 3106 020b 01       		.byte	0x1
 3107 020c 49       		.uleb128 0x49
 3108 020d 13       		.uleb128 0x13
 3109 020e 01       		.uleb128 0x1
 3110 020f 13       		.uleb128 0x13
 3111 0210 00       		.byte	0x0
 3112 0211 00       		.byte	0x0
 3113 0212 29       		.uleb128 0x29
 3114 0213 21       		.uleb128 0x21
 3115 0214 00       		.byte	0x0
 3116 0215 49       		.uleb128 0x49
 3117 0216 13       		.uleb128 0x13
 3118 0217 2F       		.uleb128 0x2f
 3119 0218 0B       		.uleb128 0xb
 3120 0219 00       		.byte	0x0
ARM GAS  C:\Users\z80\AppData\Local\Temp\ccFIHkx7.s 			page 56


 3121 021a 00       		.byte	0x0
 3122 021b 2A       		.uleb128 0x2a
 3123 021c 34       		.uleb128 0x34
 3124 021d 00       		.byte	0x0
 3125 021e 03       		.uleb128 0x3
 3126 021f 0E       		.uleb128 0xe
 3127 0220 3A       		.uleb128 0x3a
 3128 0221 0B       		.uleb128 0xb
 3129 0222 3B       		.uleb128 0x3b
 3130 0223 0B       		.uleb128 0xb
 3131 0224 49       		.uleb128 0x49
 3132 0225 13       		.uleb128 0x13
 3133 0226 3F       		.uleb128 0x3f
 3134 0227 0C       		.uleb128 0xc
 3135 0228 02       		.uleb128 0x2
 3136 0229 0A       		.uleb128 0xa
 3137 022a 00       		.byte	0x0
 3138 022b 00       		.byte	0x0
 3139 022c 00       		.byte	0x0
 3140              		.section	.debug_pubnames,"",%progbits
 3141 0000 85000000 		.4byte	0x85
 3142 0004 0200     		.2byte	0x2
 3143 0006 00000000 		.4byte	.Ldebug_info0
 3144 000a F10B0000 		.4byte	0xbf1
 3145 000e 8D0A0000 		.4byte	0xa8d
 3146 0012 6164635F 		.ascii	"adc_lld_init\000"
 3146      6C6C645F 
 3146      696E6974 
 3146      00
 3147 001f A20A0000 		.4byte	0xaa2
 3148 0023 6164635F 		.ascii	"adc_lld_start\000"
 3148      6C6C645F 
 3148      73746172 
 3148      7400
 3149 0031 E20A0000 		.4byte	0xae2
 3150 0035 6164635F 		.ascii	"adc_lld_stop\000"
 3150      6C6C645F 
 3150      73746F70 
 3150      00
 3151 0042 0B0B0000 		.4byte	0xb0b
 3152 0046 6164635F 		.ascii	"adc_lld_start_conversion\000"
 3152      6C6C645F 
 3152      73746172 
 3152      745F636F 
 3152      6E766572 
 3153 005f 5F0B0000 		.4byte	0xb5f
 3154 0063 6164635F 		.ascii	"adc_lld_stop_conversion\000"
 3154      6C6C645F 
 3154      73746F70 
 3154      5F636F6E 
 3154      76657273 
 3155 007b DE0B0000 		.4byte	0xbde
 3156 007f 41444344 		.ascii	"ADCD1\000"
 3156      3100
 3157 0085 00000000 		.4byte	0x0
 3158              		.section	.debug_pubtypes,"",%progbits
 3159 0000 3F020000 		.4byte	0x23f
ARM GAS  C:\Users\z80\AppData\Local\Temp\ccFIHkx7.s 			page 57


 3160 0004 0200     		.2byte	0x2
 3161 0006 00000000 		.4byte	.Ldebug_info0
 3162 000a F10B0000 		.4byte	0xbf1
 3163 000e 30000000 		.4byte	0x30
 3164 0012 73697A65 		.ascii	"size_t\000"
 3164      5F7400
 3165 0019 49000000 		.4byte	0x49
 3166 001d 75696E74 		.ascii	"uint8_t\000"
 3166      385F7400 
 3167 0025 62000000 		.4byte	0x62
 3168 0029 75696E74 		.ascii	"uint16_t\000"
 3168      31365F74 
 3168      00
 3169 0032 74000000 		.4byte	0x74
 3170 0036 696E7433 		.ascii	"int32_t\000"
 3170      325F7400 
 3171 003e 86000000 		.4byte	0x86
 3172 0042 75696E74 		.ascii	"uint32_t\000"
 3172      33325F74 
 3172      00
 3173 004b 9F000000 		.4byte	0x9f
 3174 004f 75696E74 		.ascii	"uint64_t\000"
 3174      36345F74 
 3174      00
 3175 0058 B1000000 		.4byte	0xb1
 3176 005c 626F6F6C 		.ascii	"bool_t\000"
 3176      5F7400
 3177 0063 BC000000 		.4byte	0xbc
 3178 0067 746D6F64 		.ascii	"tmode_t\000"
 3178      655F7400 
 3179 006f C7000000 		.4byte	0xc7
 3180 0073 74737461 		.ascii	"tstate_t\000"
 3180      74655F74 
 3180      00
 3181 007c D2000000 		.4byte	0xd2
 3182 0080 74707269 		.ascii	"tprio_t\000"
 3182      6F5F7400 
 3183 0088 DD000000 		.4byte	0xdd
 3184 008c 6D73675F 		.ascii	"msg_t\000"
 3184      7400
 3185 0092 E8000000 		.4byte	0xe8
 3186 0096 6576656E 		.ascii	"eventmask_t\000"
 3186      746D6173 
 3186      6B5F7400 
 3187 00a2 F3000000 		.4byte	0xf3
 3188 00a6 73797374 		.ascii	"systime_t\000"
 3188      696D655F 
 3188      7400
 3189 00b0 FE000000 		.4byte	0xfe
 3190 00b4 54687265 		.ascii	"Thread\000"
 3190      616400
 3191 00bb 3D020000 		.4byte	0x23d
 3192 00bf 54687265 		.ascii	"ThreadsQueue\000"
 3192      61647351 
 3192      75657565 
 3192      00
 3193 00cc 5F020000 		.4byte	0x25f
ARM GAS  C:\Users\z80\AppData\Local\Temp\ccFIHkx7.s 			page 58


 3194 00d0 54687265 		.ascii	"ThreadsList\000"
 3194      6164734C 
 3194      69737400 
 3195 00dc 6A020000 		.4byte	0x26a
 3196 00e0 72656761 		.ascii	"regarm_t\000"
 3196      726D5F74 
 3196      00
 3197 00e9 77020000 		.4byte	0x277
 3198 00ed 73746B61 		.ascii	"stkalign_t\000"
 3198      6C69676E 
 3198      5F7400
 3199 00f8 82020000 		.4byte	0x282
 3200 00fc 696E7463 		.ascii	"intctx\000"
 3200      747800
 3201 0103 0F030000 		.4byte	0x30f
 3202 0107 636F6E74 		.ascii	"context\000"
 3202      65787400 
 3203 010f 3F030000 		.4byte	0x33f
 3204 0113 4D757465 		.ascii	"Mutex\000"
 3204      7800
 3205 0119 7C030000 		.4byte	0x37c
 3206 011d 4D757465 		.ascii	"Mutex\000"
 3206      7800
 3207 0123 09010000 		.4byte	0x109
 3208 0127 54687265 		.ascii	"Thread\000"
 3208      616400
 3209 012e 13050000 		.4byte	0x513
 3210 0132 4144435F 		.ascii	"ADC_TypeDef\000"
 3210      54797065 
 3210      44656600 
 3211 013e 65050000 		.4byte	0x565
 3212 0142 444D415F 		.ascii	"DMA_Channel_TypeDef\000"
 3212      4368616E 
 3212      6E656C5F 
 3212      54797065 
 3212      44656600 
 3213 0156 10060000 		.4byte	0x610
 3214 015a 5243435F 		.ascii	"RCC_TypeDef\000"
 3214      54797065 
 3214      44656600 
 3215 0166 77060000 		.4byte	0x677
 3216 016a 73746D33 		.ascii	"stm32_dma_stream_t\000"
 3216      325F646D 
 3216      615F7374 
 3216      7265616D 
 3216      5F7400
 3217 017d 82060000 		.4byte	0x682
 3218 0181 73746D33 		.ascii	"stm32_dmaisr_t\000"
 3218      325F646D 
 3218      61697372 
 3218      5F7400
 3219 0190 D1060000 		.4byte	0x6d1
 3220 0194 61646373 		.ascii	"adcstate_t\000"
 3220      74617465 
 3220      5F7400
 3221 019f DC060000 		.4byte	0x6dc
 3222 01a3 61646373 		.ascii	"adcsample_t\000"
ARM GAS  C:\Users\z80\AppData\Local\Temp\ccFIHkx7.s 			page 59


 3222      616D706C 
 3222      655F7400 
 3223 01af E7060000 		.4byte	0x6e7
 3224 01b3 6164635F 		.ascii	"adc_channels_num_t\000"
 3224      6368616E 
 3224      6E656C73 
 3224      5F6E756D 
 3224      5F7400
 3225 01c6 01070000 		.4byte	0x701
 3226 01ca 61646365 		.ascii	"adcerror_t\000"
 3226      72726F72 
 3226      5F7400
 3227 01d5 0C070000 		.4byte	0x70c
 3228 01d9 41444344 		.ascii	"ADCDriver\000"
 3228      72697665 
 3228      7200
 3229 01e3 BB070000 		.4byte	0x7bb
 3230 01e7 61646363 		.ascii	"adccallback_t\000"
 3230      616C6C62 
 3230      61636B5F 
 3230      7400
 3231 01f5 EE070000 		.4byte	0x7ee
 3232 01f9 61646365 		.ascii	"adcerrorcallback_t\000"
 3232      72726F72 
 3232      63616C6C 
 3232      6261636B 
 3232      5F7400
 3233 020c B3080000 		.4byte	0x8b3
 3234 0210 41444343 		.ascii	"ADCConversionGroup\000"
 3234      6F6E7665 
 3234      7273696F 
 3234      6E47726F 
 3234      757000
 3235 0223 D7080000 		.4byte	0x8d7
 3236 0227 41444343 		.ascii	"ADCConfig\000"
 3236      6F6E6669 
 3236      6700
 3237 0231 17070000 		.4byte	0x717
 3238 0235 41444344 		.ascii	"ADCDriver\000"
 3238      72697665 
 3238      7200
 3239 023f 00000000 		.4byte	0x0
 3240              		.section	.debug_aranges,"",%progbits
 3241 0000 44000000 		.4byte	0x44
 3242 0004 0200     		.2byte	0x2
 3243 0006 00000000 		.4byte	.Ldebug_info0
 3244 000a 04       		.byte	0x4
 3245 000b 00       		.byte	0x0
 3246 000c 0000     		.2byte	0x0
 3247 000e 0000     		.2byte	0x0
 3248 0010 00000000 		.4byte	.LFB62
 3249 0014 40010000 		.4byte	.LFE62-.LFB62
 3250 0018 00000000 		.4byte	.LFB63
 3251 001c 80000000 		.4byte	.LFE63-.LFB63
 3252 0020 00000000 		.4byte	.LFB64
 3253 0024 60000000 		.4byte	.LFE64-.LFB64
 3254 0028 00000000 		.4byte	.LFB65
ARM GAS  C:\Users\z80\AppData\Local\Temp\ccFIHkx7.s 			page 60


 3255 002c 3C000000 		.4byte	.LFE65-.LFB65
 3256 0030 00000000 		.4byte	.LFB66
 3257 0034 76000000 		.4byte	.LFE66-.LFB66
 3258 0038 00000000 		.4byte	.LFB67
 3259 003c 28000000 		.4byte	.LFE67-.LFB67
 3260 0040 00000000 		.4byte	0x0
 3261 0044 00000000 		.4byte	0x0
 3262              		.section	.debug_ranges,"",%progbits
 3263              	.Ldebug_ranges0:
 3264 0000 0C000000 		.4byte	.LBB14
 3265 0004 1A000000 		.4byte	.LBE14
 3266 0008 26000000 		.4byte	.LBB19
 3267 000c 34000000 		.4byte	.LBE19
 3268 0010 1C000000 		.4byte	.LBB18
 3269 0014 24000000 		.4byte	.LBE18
 3270 0018 00000000 		.4byte	0x0
 3271 001c 00000000 		.4byte	0x0
 3272 0020 90000000 		.4byte	.LBB23
 3273 0024 A8000000 		.4byte	.LBE23
 3274 0028 AA000000 		.4byte	.LBB26
 3275 002c B8000000 		.4byte	.LBE26
 3276 0030 00000000 		.4byte	0x0
 3277 0034 00000000 		.4byte	0x0
 3278 0038 00000000 		.4byte	.LFB62
 3279 003c 40010000 		.4byte	.LFE62
 3280 0040 00000000 		.4byte	.LFB63
 3281 0044 80000000 		.4byte	.LFE63
 3282 0048 00000000 		.4byte	.LFB64
 3283 004c 60000000 		.4byte	.LFE64
 3284 0050 00000000 		.4byte	.LFB65
 3285 0054 3C000000 		.4byte	.LFE65
 3286 0058 00000000 		.4byte	.LFB66
 3287 005c 76000000 		.4byte	.LFE66
 3288 0060 00000000 		.4byte	.LFB67
 3289 0064 28000000 		.4byte	.LFE67
 3290 0068 00000000 		.4byte	0x0
 3291 006c 00000000 		.4byte	0x0
 3292              		.section	.debug_str,"MS",%progbits,1
 3293              	.LASF2:
 3294 0000 73697A65 		.ascii	"size_t\000"
 3294      5F7400
 3295              	.LASF50:
 3296 0007 7264796D 		.ascii	"rdymsg\000"
 3296      736700
 3297              	.LASF109:
 3298 000e 646D616D 		.ascii	"dmamode\000"
 3298      6F646500 
 3299              	.LASF95:
 3300 0016 61646373 		.ascii	"adcstate_t\000"
 3300      74617465 
 3300      5F7400
 3301              	.LASF86:
 3302 0021 76656374 		.ascii	"vector\000"
 3302      6F7200
 3303              	.LASF129:
 3304 0028 6164635F 		.ascii	"adc_lld_stop\000"
 3304      6C6C645F 
ARM GAS  C:\Users\z80\AppData\Local\Temp\ccFIHkx7.s 			page 61


 3304      73746F70 
 3304      00
 3305              	.LASF14:
 3306 0035 6C6F6E67 		.ascii	"long long unsigned int\000"
 3306      206C6F6E 
 3306      6720756E 
 3306      7369676E 
 3306      65642069 
 3307              	.LASF51:
 3308 004c 65786974 		.ascii	"exitcode\000"
 3308      636F6465 
 3308      00
 3309              	.LASF89:
 3310 0055 4144435F 		.ascii	"ADC_UNINIT\000"
 3310      554E494E 
 3310      495400
 3311              	.LASF133:
 3312 0060 5F73746D 		.ascii	"_stm32_dma_streams\000"
 3312      33325F64 
 3312      6D615F73 
 3312      74726561 
 3312      6D7300
 3313              	.LASF132:
 3314 0073 49544D5F 		.ascii	"ITM_RxBuffer\000"
 3314      52784275 
 3314      66666572 
 3314      00
 3315              	.LASF25:
 3316 0080 705F7072 		.ascii	"p_prio\000"
 3316      696F00
 3317              	.LASF64:
 3318 0087 4A535152 		.ascii	"JSQR\000"
 3318      00
 3319              	.LASF12:
 3320 008c 6C6F6E67 		.ascii	"long long int\000"
 3320      206C6F6E 
 3320      6720696E 
 3320      7400
 3321              	.LASF1:
 3322 009a 7369676E 		.ascii	"signed char\000"
 3322      65642063 
 3322      68617200 
 3323              	.LASF31:
 3324 00a6 705F7374 		.ascii	"p_state\000"
 3324      61746500 
 3325              	.LASF15:
 3326 00ae 626F6F6C 		.ascii	"bool_t\000"
 3326      5F7400
 3327              	.LASF47:
 3328 00b5 6D5F7175 		.ascii	"m_queue\000"
 3328      65756500 
 3329              	.LASF99:
 3330 00bd 61646365 		.ascii	"adcerror_t\000"
 3330      72726F72 
 3330      5F7400
 3331              	.LASF108:
 3332 00c8 646D6173 		.ascii	"dmastp\000"
ARM GAS  C:\Users\z80\AppData\Local\Temp\ccFIHkx7.s 			page 62


 3332      747000
 3333              	.LASF101:
 3334 00cf 73746174 		.ascii	"state\000"
 3334      6500
 3335              	.LASF112:
 3336 00d5 63697263 		.ascii	"circular\000"
 3336      756C6172 
 3336      00
 3337              	.LASF9:
 3338 00de 6C6F6E67 		.ascii	"long int\000"
 3338      20696E74 
 3338      00
 3339              	.LASF98:
 3340 00e7 4144435F 		.ascii	"ADC_ERR_DMAFAILURE\000"
 3340      4552525F 
 3340      444D4146 
 3340      41494C55 
 3340      524500
 3341              	.LASF130:
 3342 00fa 6164635F 		.ascii	"adc_lld_start_conversion\000"
 3342      6C6C645F 
 3342      73746172 
 3342      745F636F 
 3342      6E766572 
 3343              	.LASF111:
 3344 0113 61646365 		.ascii	"adcerrorcallback_t\000"
 3344      72726F72 
 3344      63616C6C 
 3344      6261636B 
 3344      5F7400
 3345              	.LASF17:
 3346 0126 74737461 		.ascii	"tstate_t\000"
 3346      74655F74 
 3346      00
 3347              	.LASF106:
 3348 012f 74687265 		.ascii	"thread\000"
 3348      616400
 3349              	.LASF6:
 3350 0136 75696E74 		.ascii	"uint16_t\000"
 3350      31365F74 
 3350      00
 3351              	.LASF33:
 3352 013f 705F7469 		.ascii	"p_time\000"
 3352      6D6500
 3353              	.LASF69:
 3354 0146 4144435F 		.ascii	"ADC_TypeDef\000"
 3354      54797065 
 3354      44656600 
 3355              	.LASF27:
 3356 0152 705F6E65 		.ascii	"p_newer\000"
 3356      77657200 
 3357              	.LASF114:
 3358 015a 656E645F 		.ascii	"end_cb\000"
 3358      636200
 3359              	.LASF110:
 3360 0161 61646363 		.ascii	"adccallback_t\000"
 3360      616C6C62 
ARM GAS  C:\Users\z80\AppData\Local\Temp\ccFIHkx7.s 			page 63


 3360      61636B5F 
 3360      7400
 3361              	.LASF96:
 3362 016f 61646373 		.ascii	"adcsample_t\000"
 3362      616D706C 
 3362      655F7400 
 3363              	.LASF42:
 3364 017b 72656761 		.ascii	"regarm_t\000"
 3364      726D5F74 
 3364      00
 3365              	.LASF85:
 3366 0184 73656C66 		.ascii	"selfindex\000"
 3366      696E6465 
 3366      7800
 3367              	.LASF122:
 3368 018e 64756D6D 		.ascii	"dummy\000"
 3368      7900
 3369              	.LASF22:
 3370 0194 54687265 		.ascii	"Thread\000"
 3370      616400
 3371              	.LASF75:
 3372 019b 41504232 		.ascii	"APB2RSTR\000"
 3372      52535452 
 3372      00
 3373              	.LASF92:
 3374 01a4 4144435F 		.ascii	"ADC_ACTIVE\000"
 3374      41435449 
 3374      564500
 3375              	.LASF30:
 3376 01af 705F7374 		.ascii	"p_stklimit\000"
 3376      6B6C696D 
 3376      697400
 3377              	.LASF0:
 3378 01ba 756E7369 		.ascii	"unsigned int\000"
 3378      676E6564 
 3378      20696E74 
 3378      00
 3379              	.LASF49:
 3380 01c7 6D5F6E65 		.ascii	"m_next\000"
 3380      787400
 3381              	.LASF71:
 3382 01ce 43504152 		.ascii	"CPAR\000"
 3382      00
 3383              	.LASF88:
 3384 01d3 73746D33 		.ascii	"stm32_dmaisr_t\000"
 3384      325F646D 
 3384      61697372 
 3384      5F7400
 3385              	.LASF35:
 3386 01e2 705F6D73 		.ascii	"p_msgqueue\000"
 3386      67717565 
 3386      756500
 3387              	.LASF100:
 3388 01ed 41444344 		.ascii	"ADCDriver\000"
 3388      72697665 
 3388      7200
 3389              	.LASF81:
ARM GAS  C:\Users\z80\AppData\Local\Temp\ccFIHkx7.s 			page 64


 3390 01f7 5243435F 		.ascii	"RCC_TypeDef\000"
 3390      54797065 
 3390      44656600 
 3391              	.LASF124:
 3392 0203 61646370 		.ascii	"adcp\000"
 3392      00
 3393              	.LASF73:
 3394 0208 444D415F 		.ascii	"DMA_Channel_TypeDef\000"
 3394      4368616E 
 3394      6E656C5F 
 3394      54797065 
 3394      44656600 
 3395              	.LASF84:
 3396 021c 69736869 		.ascii	"ishift\000"
 3396      667400
 3397              	.LASF7:
 3398 0223 73686F72 		.ascii	"short unsigned int\000"
 3398      7420756E 
 3398      7369676E 
 3398      65642069 
 3398      6E7400
 3399              	.LASF91:
 3400 0236 4144435F 		.ascii	"ADC_READY\000"
 3400      52454144 
 3400      5900
 3401              	.LASF104:
 3402 0240 64657074 		.ascii	"depth\000"
 3402      6800
 3403              	.LASF19:
 3404 0246 6D73675F 		.ascii	"msg_t\000"
 3404      7400
 3405              	.LASF16:
 3406 024c 746D6F64 		.ascii	"tmode_t\000"
 3406      655F7400 
 3407              	.LASF113:
 3408 0254 6E756D5F 		.ascii	"num_channels\000"
 3408      6368616E 
 3408      6E656C73 
 3408      00
 3409              	.LASF41:
 3410 0261 54687265 		.ascii	"ThreadsList\000"
 3410      6164734C 
 3410      69737400 
 3411              	.LASF20:
 3412 026d 6576656E 		.ascii	"eventmask_t\000"
 3412      746D6173 
 3412      6B5F7400 
 3413              	.LASF5:
 3414 0279 73686F72 		.ascii	"short int\000"
 3414      7420696E 
 3414      7400
 3415              	.LASF126:
 3416 0283 68616C66 		.ascii	"half\000"
 3416      00
 3417              	.LASF72:
 3418 0288 434D4152 		.ascii	"CMAR\000"
 3418      00
ARM GAS  C:\Users\z80\AppData\Local\Temp\ccFIHkx7.s 			page 65


 3419              	.LASF43:
 3420 028d 73746B61 		.ascii	"stkalign_t\000"
 3420      6C69676E 
 3420      5F7400
 3421              	.LASF105:
 3422 0298 67727070 		.ascii	"grpp\000"
 3422      00
 3423              	.LASF57:
 3424 029d 4A4F4652 		.ascii	"JOFR1\000"
 3424      3100
 3425              	.LASF58:
 3426 02a3 4A4F4652 		.ascii	"JOFR2\000"
 3426      3200
 3427              	.LASF140:
 3428 02a9 6164635F 		.ascii	"adc_lld_init\000"
 3428      6C6C645F 
 3428      696E6974 
 3428      00
 3429              	.LASF103:
 3430 02b6 73616D70 		.ascii	"samples\000"
 3430      6C657300 
 3431              	.LASF136:
 3432 02be 2E2E2F63 		.ascii	"../chibios_2.4.x/os/hal/platforms/STM32F1xx/adc_lld"
 3432      68696269 
 3432      6F735F32 
 3432      2E342E78 
 3432      2F6F732F 
 3433 02f1 2E6300   		.ascii	".c\000"
 3434              	.LASF46:
 3435 02f4 4D757465 		.ascii	"Mutex\000"
 3435      7800
 3436              	.LASF23:
 3437 02fa 705F6E65 		.ascii	"p_next\000"
 3437      787400
 3438              	.LASF90:
 3439 0301 4144435F 		.ascii	"ADC_STOP\000"
 3439      53544F50 
 3439      00
 3440              	.LASF13:
 3441 030a 75696E74 		.ascii	"uint64_t\000"
 3441      36345F74 
 3441      00
 3442              	.LASF28:
 3443 0313 705F6F6C 		.ascii	"p_older\000"
 3443      64657200 
 3444              	.LASF40:
 3445 031b 54687265 		.ascii	"ThreadsQueue\000"
 3445      61647351 
 3445      75657565 
 3445      00
 3446              	.LASF55:
 3447 0328 534D5052 		.ascii	"SMPR1\000"
 3447      3100
 3448              	.LASF56:
 3449 032e 534D5052 		.ascii	"SMPR2\000"
 3449      3200
 3450              	.LASF137:
ARM GAS  C:\Users\z80\AppData\Local\Temp\ccFIHkx7.s 			page 66


 3451 0334 433A5C70 		.ascii	"C:\\projects\\voltamper.git\\firmware\\voltamp\000"
 3451      726F6A65 
 3451      6374735C 
 3451      766F6C74 
 3451      616D7065 
 3452              	.LASF76:
 3453 035f 41504231 		.ascii	"APB1RSTR\000"
 3453      52535452 
 3453      00
 3454              	.LASF61:
 3455 0368 53515231 		.ascii	"SQR1\000"
 3455      00
 3456              	.LASF62:
 3457 036d 53515232 		.ascii	"SQR2\000"
 3457      00
 3458              	.LASF63:
 3459 0372 53515233 		.ascii	"SQR3\000"
 3459      00
 3460              	.LASF24:
 3461 0377 705F7072 		.ascii	"p_prev\000"
 3461      657600
 3462              	.LASF87:
 3463 037e 73746D33 		.ascii	"stm32_dma_stream_t\000"
 3463      325F646D 
 3463      615F7374 
 3463      7265616D 
 3463      5F7400
 3464              	.LASF18:
 3465 0391 74707269 		.ascii	"tprio_t\000"
 3465      6F5F7400 
 3466              	.LASF107:
 3467 0399 6D757465 		.ascii	"mutex\000"
 3467      7800
 3468              	.LASF8:
 3469 039f 696E7433 		.ascii	"int32_t\000"
 3469      325F7400 
 3470              	.LASF4:
 3471 03a7 756E7369 		.ascii	"unsigned char\000"
 3471      676E6564 
 3471      20636861 
 3471      7200
 3472              	.LASF139:
 3473 03b5 6164635F 		.ascii	"adc_lld_serve_rx_interrupt\000"
 3473      6C6C645F 
 3473      73657276 
 3473      655F7278 
 3473      5F696E74 
 3474              	.LASF38:
 3475 03d0 705F6D74 		.ascii	"p_mtxlist\000"
 3475      786C6973 
 3475      7400
 3476              	.LASF138:
 3477 03da 6164635F 		.ascii	"adc_lld_stop_conversion\000"
 3477      6C6C645F 
 3477      73746F70 
 3477      5F636F6E 
 3477      76657273 
ARM GAS  C:\Users\z80\AppData\Local\Temp\ccFIHkx7.s 			page 67


 3478              	.LASF115:
 3479 03f2 6572726F 		.ascii	"error_cb\000"
 3479      725F6362 
 3479      00
 3480              	.LASF53:
 3481 03fb 65776D61 		.ascii	"ewmask\000"
 3481      736B00
 3482              	.LASF32:
 3483 0402 705F666C 		.ascii	"p_flags\000"
 3483      61677300 
 3484              	.LASF59:
 3485 040a 4A4F4652 		.ascii	"JOFR3\000"
 3485      3300
 3486              	.LASF60:
 3487 0410 4A4F4652 		.ascii	"JOFR4\000"
 3487      3400
 3488              	.LASF78:
 3489 0416 41504232 		.ascii	"APB2ENR\000"
 3489      454E5200 
 3490              	.LASF82:
 3491 041e 6368616E 		.ascii	"channel\000"
 3491      6E656C00 
 3492              	.LASF37:
 3493 0426 705F6570 		.ascii	"p_epending\000"
 3493      656E6469 
 3493      6E6700
 3494              	.LASF83:
 3495 0431 69666372 		.ascii	"ifcr\000"
 3495      00
 3496              	.LASF10:
 3497 0436 75696E74 		.ascii	"uint32_t\000"
 3497      33325F74 
 3497      00
 3498              	.LASF134:
 3499 043f 41444344 		.ascii	"ADCD1\000"
 3499      3100
 3500              	.LASF123:
 3501 0445 41444343 		.ascii	"ADCConfig\000"
 3501      6F6E6669 
 3501      6700
 3502              	.LASF116:
 3503 044f 736D7072 		.ascii	"smpr1\000"
 3503      3100
 3504              	.LASF11:
 3505 0455 6C6F6E67 		.ascii	"long unsigned int\000"
 3505      20756E73 
 3505      69676E65 
 3505      6420696E 
 3505      7400
 3506              	.LASF117:
 3507 0467 736D7072 		.ascii	"smpr2\000"
 3507      3200
 3508              	.LASF54:
 3509 046d 63686172 		.ascii	"char\000"
 3509      00
 3510              	.LASF131:
 3511 0472 6D6F6465 		.ascii	"mode\000"
ARM GAS  C:\Users\z80\AppData\Local\Temp\ccFIHkx7.s 			page 68


 3511      00
 3512              	.LASF102:
 3513 0477 636F6E66 		.ascii	"config\000"
 3513      696700
 3514              	.LASF118:
 3515 047e 73717231 		.ascii	"sqr1\000"
 3515      00
 3516              	.LASF119:
 3517 0483 73717232 		.ascii	"sqr2\000"
 3517      00
 3518              	.LASF120:
 3519 0488 73717233 		.ascii	"sqr3\000"
 3519      00
 3520              	.LASF21:
 3521 048d 73797374 		.ascii	"systime_t\000"
 3521      696D655F 
 3521      7400
 3522              	.LASF39:
 3523 0497 705F7265 		.ascii	"p_realprio\000"
 3523      616C7072 
 3523      696F00
 3524              	.LASF79:
 3525 04a2 41504231 		.ascii	"APB1ENR\000"
 3525      454E5200 
 3526              	.LASF45:
 3527 04aa 636F6E74 		.ascii	"context\000"
 3527      65787400 
 3528              	.LASF44:
 3529 04b2 696E7463 		.ascii	"intctx\000"
 3529      747800
 3530              	.LASF128:
 3531 04b9 6164635F 		.ascii	"adc_lld_start\000"
 3531      6C6C645F 
 3531      73746172 
 3531      7400
 3532              	.LASF94:
 3533 04c7 4144435F 		.ascii	"ADC_ERROR\000"
 3533      4552524F 
 3533      5200
 3534              	.LASF70:
 3535 04d1 434E4454 		.ascii	"CNDTR\000"
 3535      5200
 3536              	.LASF80:
 3537 04d7 42444352 		.ascii	"BDCR\000"
 3537      00
 3538              	.LASF3:
 3539 04dc 75696E74 		.ascii	"uint8_t\000"
 3539      385F7400 
 3540              	.LASF121:
 3541 04e4 41444343 		.ascii	"ADCConversionGroup\000"
 3541      6F6E7665 
 3541      7273696F 
 3541      6E47726F 
 3541      757000
 3542              	.LASF125:
 3543 04f7 666C6167 		.ascii	"flags\000"
 3543      7300
ARM GAS  C:\Users\z80\AppData\Local\Temp\ccFIHkx7.s 			page 69


 3544              	.LASF65:
 3545 04fd 4A445231 		.ascii	"JDR1\000"
 3545      00
 3546              	.LASF66:
 3547 0502 4A445232 		.ascii	"JDR2\000"
 3547      00
 3548              	.LASF67:
 3549 0507 4A445233 		.ascii	"JDR3\000"
 3549      00
 3550              	.LASF68:
 3551 050c 4A445234 		.ascii	"JDR4\000"
 3551      00
 3552              	.LASF135:
 3553 0511 474E5520 		.ascii	"GNU C 4.5.0\000"
 3553      4320342E 
 3553      352E3000 
 3554              	.LASF52:
 3555 051d 77746F62 		.ascii	"wtobjp\000"
 3555      6A7000
 3556              	.LASF93:
 3557 0524 4144435F 		.ascii	"ADC_COMPLETE\000"
 3557      434F4D50 
 3557      4C455445 
 3557      00
 3558              	.LASF29:
 3559 0531 705F6E61 		.ascii	"p_name\000"
 3559      6D6500
 3560              	.LASF97:
 3561 0538 6164635F 		.ascii	"adc_channels_num_t\000"
 3561      6368616E 
 3561      6E656C73 
 3561      5F6E756D 
 3561      5F7400
 3562              	.LASF74:
 3563 054b 43464752 		.ascii	"CFGR\000"
 3563      00
 3564              	.LASF36:
 3565 0550 705F6D73 		.ascii	"p_msg\000"
 3565      6700
 3566              	.LASF48:
 3567 0556 6D5F6F77 		.ascii	"m_owner\000"
 3567      6E657200 
 3568              	.LASF127:
 3569 055e 68616C66 		.ascii	"half_index\000"
 3569      5F696E64 
 3569      657800
 3570              	.LASF26:
 3571 0569 705F6374 		.ascii	"p_ctx\000"
 3571      7800
 3572              	.LASF34:
 3573 056f 705F7761 		.ascii	"p_waiting\000"
 3573      6974696E 
 3573      6700
 3574              	.LASF77:
 3575 0579 41484245 		.ascii	"AHBENR\000"
 3575      4E5200
 3576              		.ident	"GCC: (GNU) 4.5.0"
ARM GAS  C:\Users\z80\AppData\Local\Temp\ccFIHkx7.s 			page 70


ARM GAS  C:\Users\z80\AppData\Local\Temp\ccFIHkx7.s 			page 71


DEFINED SYMBOLS
                            *ABS*:00000000 adc_lld.c
C:\Users\z80\AppData\Local\Temp\ccFIHkx7.s:24     .text.adc_lld_serve_rx_interrupt:00000000 $t
C:\Users\z80\AppData\Local\Temp\ccFIHkx7.s:29     .text.adc_lld_serve_rx_interrupt:00000000 adc_lld_serve_rx_interrupt
C:\Users\z80\AppData\Local\Temp\ccFIHkx7.s:311    .text.adc_lld_init:00000000 $t
C:\Users\z80\AppData\Local\Temp\ccFIHkx7.s:317    .text.adc_lld_init:00000000 adc_lld_init
C:\Users\z80\AppData\Local\Temp\ccFIHkx7.s:399    .text.adc_lld_init:00000078 $d
C:\Users\z80\AppData\Local\Temp\ccFIHkx7.s:405    .text.adc_lld_start:00000000 $t
C:\Users\z80\AppData\Local\Temp\ccFIHkx7.s:411    .text.adc_lld_start:00000000 adc_lld_start
C:\Users\z80\AppData\Local\Temp\ccFIHkx7.s:487    .text.adc_lld_start:00000054 $d
C:\Users\z80\AppData\Local\Temp\ccFIHkx7.s:495    .text.adc_lld_stop:00000000 $t
C:\Users\z80\AppData\Local\Temp\ccFIHkx7.s:501    .text.adc_lld_stop:00000000 adc_lld_stop
C:\Users\z80\AppData\Local\Temp\ccFIHkx7.s:550    .text.adc_lld_stop:00000038 $d
C:\Users\z80\AppData\Local\Temp\ccFIHkx7.s:555    .text.adc_lld_start_conversion:00000000 $t
C:\Users\z80\AppData\Local\Temp\ccFIHkx7.s:561    .text.adc_lld_start_conversion:00000000 adc_lld_start_conversion
C:\Users\z80\AppData\Local\Temp\ccFIHkx7.s:673    .text.adc_lld_stop_conversion:00000000 $t
C:\Users\z80\AppData\Local\Temp\ccFIHkx7.s:679    .text.adc_lld_stop_conversion:00000000 adc_lld_stop_conversion
C:\Users\z80\AppData\Local\Temp\ccFIHkx7.s:723    .bss.ADCD1:00000000 ADCD1
C:\Users\z80\AppData\Local\Temp\ccFIHkx7.s:719    .bss.ADCD1:00000000 $d
C:\Users\z80\AppData\Local\Temp\ccFIHkx7.s:726    .rodata.str1.4:00000000 $d
                     .debug_frame:00000010 $d
C:\Users\z80\AppData\Local\Temp\ccFIHkx7.s:554    .text.adc_lld_stop:0000003c $t

UNDEFINED SYMBOLS
dbg_check_lock_from_isr
chSchReadyI
dbg_check_unlock_from_isr
adcObjectInit
_stm32_dma_streams
dmaStreamAllocate
chDbgPanic
dmaStreamRelease
