ARM GAS  C:\Users\z80\AppData\Local\Temp\ccf0mrsJ.s 			page 1


   1              		.syntax unified
   2              		.cpu cortex-m3
   3              		.fpu softvfp
   4              		.eabi_attribute 20, 1
   5              		.eabi_attribute 21, 1
   6              		.eabi_attribute 23, 3
   7              		.eabi_attribute 24, 1
   8              		.eabi_attribute 25, 1
   9              		.eabi_attribute 26, 1
  10              		.eabi_attribute 30, 2
  11              		.eabi_attribute 18, 4
  12              		.thumb
  13              		.file	"base64.c"
  14              		.section	.debug_abbrev,"",%progbits
  15              	.Ldebug_abbrev0:
  16              		.section	.debug_info,"",%progbits
  17              	.Ldebug_info0:
  18              		.section	.debug_line,"",%progbits
  19              	.Ldebug_line0:
  20 0000 44010000 		.text
  20      0200B800 
  20      00000201 
  20      FB0E0D00 
  20      01010101 
  21              	.Ltext0:
  22              		.cfi_sections	.debug_frame
  23              		.section	.text.base64encode,"ax",%progbits
  24              		.align	2
  25              		.p2align 4,,15
  26              		.global	base64encode
  27              		.thumb
  28              		.thumb_func
  29              		.type	base64encode, %function
  30              	base64encode:
  31              	.LFB0:
  32              		.file 1 "./src/base64.c"
  33              		.loc 1 5 0
  34              		.cfi_startproc
  35              		@ args = 0, pretend = 0, frame = 72
  36              		@ frame_needed = 0, uses_anonymous_args = 0
  37              	.LVL0:
  38 0000 2DE9F045 		push	{r4, r5, r6, r7, r8, sl, lr}
  39              	.LCFI0:
  40              		.cfi_def_cfa_offset 28
  41 0004 93B0     		sub	sp, sp, #76
  42              	.LCFI1:
  43              		.cfi_def_cfa_offset 104
  44              		.loc 1 5 0
  45 0006 0C46     		mov	r4, r1
  46              		.cfi_offset 14, -4
  47              		.cfi_offset 10, -8
  48              		.cfi_offset 8, -12
  49              		.cfi_offset 7, -16
  50              		.cfi_offset 6, -20
  51              		.cfi_offset 5, -24
  52              		.cfi_offset 4, -28
  53 0008 1546     		mov	r5, r2
ARM GAS  C:\Users\z80\AppData\Local\Temp\ccf0mrsJ.s 			page 2


  54 000a 0646     		mov	r6, r0
  55              		.loc 1 6 0
  56 000c 3D49     		ldr	r1, .L26
  57              	.LVL1:
  58 000e 01A8     		add	r0, sp, #4
  59              	.LVL2:
  60 0010 4122     		movs	r2, #65
  61              	.LVL3:
  62              		.loc 1 5 0
  63 0012 1F46     		mov	r7, r3
  64              		.loc 1 6 0
  65 0014 FFF7FEFF 		bl	memcpy
  66              	.LVL4:
  67              		.loc 1 15 0
  68 0018 002C     		cmp	r4, #0
  69 001a 70D0     		beq	.L12
  70 001c 4FF0000C 		mov	ip, #0
  71 0020 0220     		movs	r0, #2
  72 0022 0121     		movs	r1, #1
  73 0024 6346     		mov	r3, ip
  74 0026 38E0     		b	.L8
  75              	.LVL5:
  76              	.L25:
  77              		.loc 1 37 0
  78 0028 0DF1480A 		add	sl, sp, #72
  79 002c C2F38548 		ubfx	r8, r2, #18, #6
  80 0030 D044     		add	r8, sl, r8
  81 0032 18F844AC 		ldrb	sl, [r8, #-68]	@ zero_extendqisi2
  82 0036 03F10108 		add	r8, r3, #1
  83              	.LVL6:
  84              		.loc 1 38 0
  85 003a 4745     		cmp	r7, r8
  86              		.loc 1 37 0
  87 003c 05F803A0 		strb	sl, [r5, r3]
  88              		.loc 1 38 0
  89 0040 3BD9     		bls	.L19
  90              		.loc 1 39 0
  91 0042 0DF1480A 		add	sl, sp, #72
  92 0046 C2F30533 		ubfx	r3, r2, #12, #6
  93 004a 5344     		add	r3, sl, r3
  94 004c 13F844AC 		ldrb	sl, [r3, #-68]	@ zero_extendqisi2
  95              		.loc 1 45 0
  96 0050 8C42     		cmp	r4, r1
  97              		.loc 1 39 0
  98 0052 08F10103 		add	r3, r8, #1
  99              	.LVL7:
 100 0056 05F808A0 		strb	sl, [r5, r8]
 101              		.loc 1 45 0
 102 005a 0BD9     		bls	.L6
 103              		.loc 1 47 0
 104 005c 9F42     		cmp	r7, r3
 105 005e 2CD9     		bls	.L19
 106              		.loc 1 48 0
 107 0060 C2F38518 		ubfx	r8, r2, #6, #6
 108 0064 0DF1480A 		add	sl, sp, #72
 109 0068 D044     		add	r8, sl, r8
 110 006a 18F8448C 		ldrb	r8, [r8, #-68]	@ zero_extendqisi2
ARM GAS  C:\Users\z80\AppData\Local\Temp\ccf0mrsJ.s 			page 3


 111 006e 05F80380 		strb	r8, [r5, r3]
 112 0072 0133     		adds	r3, r3, #1
 113              	.LVL8:
 114              	.L6:
 115              		.loc 1 55 0
 116 0074 8442     		cmp	r4, r0
 117 0076 0AD9     		bls	.L7
 118              		.loc 1 57 0
 119 0078 BB42     		cmp	r3, r7
 120 007a 1ED2     		bcs	.L19
 121              		.loc 1 58 0
 122 007c 02F03F02 		and	r2, r2, #63
 123              	.LVL9:
 124 0080 0DF14808 		add	r8, sp, #72
 125 0084 4244     		add	r2, r8, r2
 126 0086 12F8442C 		ldrb	r2, [r2, #-68]	@ zero_extendqisi2
 127 008a EA54     		strb	r2, [r5, r3]
 128 008c 0133     		adds	r3, r3, #1
 129              	.LVL10:
 130              	.L7:
 131              		.loc 1 15 0
 132 008e 0CF1030C 		add	ip, ip, #3
 133              	.LVL11:
 134 0092 0331     		adds	r1, r1, #3
 135 0094 0330     		adds	r0, r0, #3
 136 0096 6445     		cmp	r4, ip
 137 0098 13D9     		bls	.L24
 138              	.LVL12:
 139              	.L8:
 140              		.loc 1 18 0
 141 009a 16F80C20 		ldrb	r2, [r6, ip]	@ zero_extendqisi2
 142 009e 1204     		lsls	r2, r2, #16
 143              	.LVL13:
 144              		.loc 1 20 0
 145 00a0 8C42     		cmp	r4, r1
 146              		.loc 1 21 0
 147 00a2 84BF     		itt	hi
 148 00a4 16F80180 		ldrbhi	r8, [r6, r1]	@ zero_extendqisi2
 149 00a8 02EB0822 		addhi	r2, r2, r8, lsl #8
 150              	.LVL14:
 151              		.loc 1 23 0
 152 00ac 8442     		cmp	r4, r0
 153              		.loc 1 24 0
 154 00ae 84BF     		itt	hi
 155 00b0 16F80080 		ldrbhi	r8, [r6, r0]	@ zero_extendqisi2
 156 00b4 4244     		addhi	r2, r2, r8
 157              	.LVL15:
 158              		.loc 1 36 0
 159 00b6 9F42     		cmp	r7, r3
 160 00b8 B6D8     		bhi	.L25
 161              	.LVL16:
 162              	.L19:
 163              		.loc 1 74 0
 164 00ba 0120     		movs	r0, #1
 165              	.L5:
 166              		.loc 1 77 0
 167 00bc 13B0     		add	sp, sp, #76
ARM GAS  C:\Users\z80\AppData\Local\Temp\ccf0mrsJ.s 			page 4


 168 00be BDE8F085 		pop	{r4, r5, r6, r7, r8, sl, pc}
 169              	.LVL17:
 170              	.L24:
 171              		.loc 1 11 0
 172 00c2 4AF6AB20 		movw	r0, #43691
 173 00c6 CAF6AA20 		movt	r0, 43690
 174 00ca A0FB04A0 		umull	sl, r0, r0, r4
 175 00ce 4008     		lsrs	r0, r0, #1
 176 00d0 00EB4000 		add	r0, r0, r0, lsl #1
 177 00d4 201A     		subs	r0, r4, r0
 178              		.loc 1 66 0
 179 00d6 0028     		cmp	r0, #0
 180 00d8 0CDD     		ble	.L2
 181              		.loc 1 68 0 discriminator 1
 182 00da 0228     		cmp	r0, #2
 183 00dc 0ADC     		bgt	.L2
 184              		.loc 1 70 0
 185 00de 9F42     		cmp	r7, r3
 186 00e0 EBD9     		bls	.L19
 187              		.loc 1 71 0
 188 00e2 3D22     		movs	r2, #61
 189 00e4 02E0     		b	.L22
 190              	.LVL18:
 191              	.L11:
 192              		.loc 1 70 0
 193 00e6 9F42     		cmp	r7, r3
 194 00e8 E8D9     		bls	.L5
 195              		.loc 1 68 0
 196 00ea 0220     		movs	r0, #2
 197              	.LVL19:
 198              	.L22:
 199              		.loc 1 71 0
 200 00ec EA54     		strb	r2, [r5, r3]
 201 00ee 0133     		adds	r3, r3, #1
 202              	.LVL20:
 203              		.loc 1 68 0
 204 00f0 0128     		cmp	r0, #1
 205 00f2 F8D0     		beq	.L11
 206              	.LVL21:
 207              	.L2:
 208              		.loc 1 74 0
 209 00f4 BB42     		cmp	r3, r7
 210 00f6 E0D2     		bcs	.L19
 211              		.loc 1 75 0
 212 00f8 0020     		movs	r0, #0
 213 00fa E854     		strb	r0, [r5, r3]
 214              		.loc 1 76 0
 215 00fc DEE7     		b	.L5
 216              	.LVL22:
 217              	.L12:
 218              		.loc 1 8 0
 219 00fe 2346     		mov	r3, r4
 220 0100 F8E7     		b	.L2
 221              	.L27:
 222 0102 00BF     		.align	2
 223              	.L26:
 224 0104 00000000 		.word	.LC0
ARM GAS  C:\Users\z80\AppData\Local\Temp\ccf0mrsJ.s 			page 5


 225              		.cfi_endproc
 226              	.LFE0:
 227              		.size	base64encode, .-base64encode
 228 0108 AFF30080 		.section	.text.base64decode,"ax",%progbits
 228      AFF30080 
 229              		.align	2
 230              		.p2align 4,,15
 231              		.global	base64decode
 232              		.thumb
 233              		.thumb_func
 234              		.type	base64decode, %function
 235              	base64decode:
 236              	.LFB1:
 237              		.loc 1 100 0
 238              		.cfi_startproc
 239              		@ args = 0, pretend = 0, frame = 0
 240              		@ frame_needed = 0, uses_anonymous_args = 0
 241              		@ link register save eliminated.
 242              	.LVL23:
 243              		.loc 1 101 0
 244 0000 4118     		adds	r1, r0, r1
 245              	.LVL24:
 246              		.loc 1 104 0
 247 0002 8842     		cmp	r0, r1
 248              		.loc 1 100 0
 249 0004 F0B4     		push	{r4, r5, r6, r7}
 250              	.LCFI2:
 251              		.cfi_def_cfa_offset 16
 252              		.loc 1 104 0
 253 0006 37D2     		bcs	.L37
 254              		.cfi_offset 7, -4
 255              		.cfi_offset 6, -8
 256              		.cfi_offset 5, -12
 257              		.cfi_offset 4, -16
 258 0008 214D     		ldr	r5, .L44
 259              		.loc 1 102 0
 260 000a 0026     		movs	r6, #0
 261 000c 0124     		movs	r4, #1
 262              	.LVL25:
 263              	.L34:
 264              	.LBB2:
 265              		.loc 1 105 0
 266 000e 10F801CB 		ldrb	ip, [r0], #1	@ zero_extendqisi2
 267 0012 15F80CC0 		ldrb	ip, [r5, ip]	@ zero_extendqisi2
 268              	.LVL26:
 269              		.loc 1 107 0
 270 0016 BCF1410F 		cmp	ip, #65
 271 001a 1CD0     		beq	.L32
 272 001c BCF1420F 		cmp	ip, #66
 273 0020 27D0     		beq	.L41
 274 0022 BCF1400F 		cmp	ip, #64
 275 0026 14D0     		beq	.L31
 276              		.loc 1 114 0
 277 0028 4CEA8414 		orr	r4, ip, r4, lsl #6
 278              	.LVL27:
 279              		.loc 1 117 0
 280 002c 14F0807F 		tst	r4, #16777216
ARM GAS  C:\Users\z80\AppData\Local\Temp\ccf0mrsJ.s 			page 6


 281 0030 0FD0     		beq	.L31
 282              		.loc 1 118 0
 283 0032 D3F800C0 		ldr	ip, [r3, #0]
 284              	.LVL28:
 285 0036 0336     		adds	r6, r6, #3
 286              	.LVL29:
 287 0038 6645     		cmp	r6, ip
 288 003a 1AD8     		bhi	.L41
 289              		.loc 1 119 0
 290 003c 9446     		mov	ip, r2
 291 003e 270C     		lsrs	r7, r4, #16
 292 0040 0CF8017B 		strb	r7, [ip], #1
 293              	.LVL30:
 294              		.loc 1 120 0
 295 0044 270A     		lsrs	r7, r4, #8
 296 0046 5770     		strb	r7, [r2, #1]
 297              		.loc 1 121 0
 298 0048 8CF80140 		strb	r4, [ip, #1]
 299 004c 0CF10202 		add	r2, ip, #2
 300              	.LVL31:
 301              		.loc 1 122 0
 302 0050 0124     		movs	r4, #1
 303              	.LVL32:
 304              	.L31:
 305              	.LBE2:
 306              		.loc 1 104 0 discriminator 1
 307 0052 8142     		cmp	r1, r0
 308 0054 DBD8     		bhi	.L34
 309              	.LVL33:
 310              	.L32:
 311              		.loc 1 127 0
 312 0056 14F4802F 		tst	r4, #262144
 313 005a 0FD0     		beq	.L43
 314              		.loc 1 128 0
 315 005c 1968     		ldr	r1, [r3, #0]
 316              	.LVL34:
 317 005e 0236     		adds	r6, r6, #2
 318              	.LVL35:
 319 0060 8E42     		cmp	r6, r1
 320 0062 06D8     		bhi	.L41
 321              		.loc 1 129 0
 322 0064 A10A     		lsrs	r1, r4, #10
 323              		.loc 1 130 0
 324 0066 A408     		lsrs	r4, r4, #2
 325              		.loc 1 129 0
 326 0068 1170     		strb	r1, [r2, #0]
 327              	.LVL36:
 328              		.loc 1 130 0
 329 006a 5470     		strb	r4, [r2, #1]
 330              	.LVL37:
 331              	.L29:
 332              		.loc 1 137 0
 333 006c 1E60     		str	r6, [r3, #0]
 334              		.loc 1 138 0
 335 006e 0020     		movs	r0, #0
 336 0070 00E0     		b	.L33
 337              	.LVL38:
ARM GAS  C:\Users\z80\AppData\Local\Temp\ccf0mrsJ.s 			page 7


 338              	.L41:
 339              		.loc 1 133 0
 340 0072 0120     		movs	r0, #1
 341              	.LVL39:
 342              	.L33:
 343              		.loc 1 139 0
 344 0074 F0BC     		pop	{r4, r5, r6, r7}
 345 0076 7047     		bx	lr
 346              	.LVL40:
 347              	.L37:
 348              		.loc 1 102 0
 349 0078 0026     		movs	r6, #0
 350 007a F7E7     		b	.L29
 351              	.LVL41:
 352              	.L43:
 353              		.loc 1 132 0
 354 007c 14F4805F 		tst	r4, #4096
 355 0080 F4D0     		beq	.L29
 356              		.loc 1 133 0
 357 0082 1968     		ldr	r1, [r3, #0]
 358              	.LVL42:
 359 0084 0136     		adds	r6, r6, #1
 360              	.LVL43:
 361 0086 8E42     		cmp	r6, r1
 362 0088 F3D8     		bhi	.L41
 363              		.loc 1 134 0
 364 008a 2409     		lsrs	r4, r4, #4
 365 008c 1470     		strb	r4, [r2, #0]
 366              	.LVL44:
 367 008e EDE7     		b	.L29
 368              	.L45:
 369              		.align	2
 370              	.L44:
 371 0090 00000000 		.word	.LANCHOR0
 372              		.cfi_endproc
 373              	.LFE1:
 374              		.size	base64decode, .-base64decode
 375 0094 AFF30080 		.section	.rodata.str1.4,"aMS",%progbits,1
 375      AFF30080 
 375      AFF30080 
 376              		.align	2
 377              	.LC0:
 378 0000 41424344 		.ascii	"ABCDEFGHIJKLMNOPQRSTUVWXYZabcdefghijklmnopqrstuvwxy"
 378      45464748 
 378      494A4B4C 
 378      4D4E4F50 
 378      51525354 
 379 0033 7A303132 		.ascii	"z0123456789+/\000"
 379      33343536 
 379      3738392B 
 379      2F00
 380 0041 000000   		.section	.rodata.d,"a",%progbits
 381              		.align	2
 382              		.set	.LANCHOR0,. + 0
 383              		.type	d, %object
 384              		.size	d, 256
 385              	d:
ARM GAS  C:\Users\z80\AppData\Local\Temp\ccf0mrsJ.s 			page 8


 386 0000 42       		.byte	66
 387 0001 42       		.byte	66
 388 0002 42       		.byte	66
 389 0003 42       		.byte	66
 390 0004 42       		.byte	66
 391 0005 42       		.byte	66
 392 0006 42       		.byte	66
 393 0007 42       		.byte	66
 394 0008 42       		.byte	66
 395 0009 40       		.byte	64
 396 000a 42       		.byte	66
 397 000b 42       		.byte	66
 398 000c 42       		.byte	66
 399 000d 42       		.byte	66
 400 000e 42       		.byte	66
 401 000f 42       		.byte	66
 402 0010 42       		.byte	66
 403 0011 42       		.byte	66
 404 0012 42       		.byte	66
 405 0013 42       		.byte	66
 406 0014 42       		.byte	66
 407 0015 42       		.byte	66
 408 0016 42       		.byte	66
 409 0017 42       		.byte	66
 410 0018 42       		.byte	66
 411 0019 42       		.byte	66
 412 001a 42       		.byte	66
 413 001b 42       		.byte	66
 414 001c 42       		.byte	66
 415 001d 42       		.byte	66
 416 001e 42       		.byte	66
 417 001f 42       		.byte	66
 418 0020 42       		.byte	66
 419 0021 42       		.byte	66
 420 0022 42       		.byte	66
 421 0023 42       		.byte	66
 422 0024 42       		.byte	66
 423 0025 42       		.byte	66
 424 0026 42       		.byte	66
 425 0027 42       		.byte	66
 426 0028 42       		.byte	66
 427 0029 42       		.byte	66
 428 002a 42       		.byte	66
 429 002b 3E       		.byte	62
 430 002c 42       		.byte	66
 431 002d 42       		.byte	66
 432 002e 42       		.byte	66
 433 002f 3F       		.byte	63
 434 0030 34       		.byte	52
 435 0031 35       		.byte	53
 436 0032 36       		.byte	54
 437 0033 37       		.byte	55
 438 0034 38       		.byte	56
 439 0035 39       		.byte	57
 440 0036 3A       		.byte	58
 441 0037 3B       		.byte	59
 442 0038 3C       		.byte	60
ARM GAS  C:\Users\z80\AppData\Local\Temp\ccf0mrsJ.s 			page 9


 443 0039 3D       		.byte	61
 444 003a 42       		.byte	66
 445 003b 42       		.byte	66
 446 003c 42       		.byte	66
 447 003d 41       		.byte	65
 448 003e 42       		.byte	66
 449 003f 42       		.byte	66
 450 0040 42       		.byte	66
 451 0041 00       		.byte	0
 452 0042 01       		.byte	1
 453 0043 02       		.byte	2
 454 0044 03       		.byte	3
 455 0045 04       		.byte	4
 456 0046 05       		.byte	5
 457 0047 06       		.byte	6
 458 0048 07       		.byte	7
 459 0049 08       		.byte	8
 460 004a 09       		.byte	9
 461 004b 0A       		.byte	10
 462 004c 0B       		.byte	11
 463 004d 0C       		.byte	12
 464 004e 0D       		.byte	13
 465 004f 0E       		.byte	14
 466 0050 0F       		.byte	15
 467 0051 10       		.byte	16
 468 0052 11       		.byte	17
 469 0053 12       		.byte	18
 470 0054 13       		.byte	19
 471 0055 14       		.byte	20
 472 0056 15       		.byte	21
 473 0057 16       		.byte	22
 474 0058 17       		.byte	23
 475 0059 18       		.byte	24
 476 005a 19       		.byte	25
 477 005b 42       		.byte	66
 478 005c 42       		.byte	66
 479 005d 42       		.byte	66
 480 005e 42       		.byte	66
 481 005f 42       		.byte	66
 482 0060 42       		.byte	66
 483 0061 1A       		.byte	26
 484 0062 1B       		.byte	27
 485 0063 1C       		.byte	28
 486 0064 1D       		.byte	29
 487 0065 1E       		.byte	30
 488 0066 1F       		.byte	31
 489 0067 20       		.byte	32
 490 0068 21       		.byte	33
 491 0069 22       		.byte	34
 492 006a 23       		.byte	35
 493 006b 24       		.byte	36
 494 006c 25       		.byte	37
 495 006d 26       		.byte	38
 496 006e 27       		.byte	39
 497 006f 28       		.byte	40
 498 0070 29       		.byte	41
 499 0071 2A       		.byte	42
ARM GAS  C:\Users\z80\AppData\Local\Temp\ccf0mrsJ.s 			page 10


 500 0072 2B       		.byte	43
 501 0073 2C       		.byte	44
 502 0074 2D       		.byte	45
 503 0075 2E       		.byte	46
 504 0076 2F       		.byte	47
 505 0077 30       		.byte	48
 506 0078 31       		.byte	49
 507 0079 32       		.byte	50
 508 007a 33       		.byte	51
 509 007b 42       		.byte	66
 510 007c 42       		.byte	66
 511 007d 42       		.byte	66
 512 007e 42       		.byte	66
 513 007f 42       		.byte	66
 514 0080 42       		.byte	66
 515 0081 42       		.byte	66
 516 0082 42       		.byte	66
 517 0083 42       		.byte	66
 518 0084 42       		.byte	66
 519 0085 42       		.byte	66
 520 0086 42       		.byte	66
 521 0087 42       		.byte	66
 522 0088 42       		.byte	66
 523 0089 42       		.byte	66
 524 008a 42       		.byte	66
 525 008b 42       		.byte	66
 526 008c 42       		.byte	66
 527 008d 42       		.byte	66
 528 008e 42       		.byte	66
 529 008f 42       		.byte	66
 530 0090 42       		.byte	66
 531 0091 42       		.byte	66
 532 0092 42       		.byte	66
 533 0093 42       		.byte	66
 534 0094 42       		.byte	66
 535 0095 42       		.byte	66
 536 0096 42       		.byte	66
 537 0097 42       		.byte	66
 538 0098 42       		.byte	66
 539 0099 42       		.byte	66
 540 009a 42       		.byte	66
 541 009b 42       		.byte	66
 542 009c 42       		.byte	66
 543 009d 42       		.byte	66
 544 009e 42       		.byte	66
 545 009f 42       		.byte	66
 546 00a0 42       		.byte	66
 547 00a1 42       		.byte	66
 548 00a2 42       		.byte	66
 549 00a3 42       		.byte	66
 550 00a4 42       		.byte	66
 551 00a5 42       		.byte	66
 552 00a6 42       		.byte	66
 553 00a7 42       		.byte	66
 554 00a8 42       		.byte	66
 555 00a9 42       		.byte	66
 556 00aa 42       		.byte	66
ARM GAS  C:\Users\z80\AppData\Local\Temp\ccf0mrsJ.s 			page 11


 557 00ab 42       		.byte	66
 558 00ac 42       		.byte	66
 559 00ad 42       		.byte	66
 560 00ae 42       		.byte	66
 561 00af 42       		.byte	66
 562 00b0 42       		.byte	66
 563 00b1 42       		.byte	66
 564 00b2 42       		.byte	66
 565 00b3 42       		.byte	66
 566 00b4 42       		.byte	66
 567 00b5 42       		.byte	66
 568 00b6 42       		.byte	66
 569 00b7 42       		.byte	66
 570 00b8 42       		.byte	66
 571 00b9 42       		.byte	66
 572 00ba 42       		.byte	66
 573 00bb 42       		.byte	66
 574 00bc 42       		.byte	66
 575 00bd 42       		.byte	66
 576 00be 42       		.byte	66
 577 00bf 42       		.byte	66
 578 00c0 42       		.byte	66
 579 00c1 42       		.byte	66
 580 00c2 42       		.byte	66
 581 00c3 42       		.byte	66
 582 00c4 42       		.byte	66
 583 00c5 42       		.byte	66
 584 00c6 42       		.byte	66
 585 00c7 42       		.byte	66
 586 00c8 42       		.byte	66
 587 00c9 42       		.byte	66
 588 00ca 42       		.byte	66
 589 00cb 42       		.byte	66
 590 00cc 42       		.byte	66
 591 00cd 42       		.byte	66
 592 00ce 42       		.byte	66
 593 00cf 42       		.byte	66
 594 00d0 42       		.byte	66
 595 00d1 42       		.byte	66
 596 00d2 42       		.byte	66
 597 00d3 42       		.byte	66
 598 00d4 42       		.byte	66
 599 00d5 42       		.byte	66
 600 00d6 42       		.byte	66
 601 00d7 42       		.byte	66
 602 00d8 42       		.byte	66
 603 00d9 42       		.byte	66
 604 00da 42       		.byte	66
 605 00db 42       		.byte	66
 606 00dc 42       		.byte	66
 607 00dd 42       		.byte	66
 608 00de 42       		.byte	66
 609 00df 42       		.byte	66
 610 00e0 42       		.byte	66
 611 00e1 42       		.byte	66
 612 00e2 42       		.byte	66
 613 00e3 42       		.byte	66
ARM GAS  C:\Users\z80\AppData\Local\Temp\ccf0mrsJ.s 			page 12


 614 00e4 42       		.byte	66
 615 00e5 42       		.byte	66
 616 00e6 42       		.byte	66
 617 00e7 42       		.byte	66
 618 00e8 42       		.byte	66
 619 00e9 42       		.byte	66
 620 00ea 42       		.byte	66
 621 00eb 42       		.byte	66
 622 00ec 42       		.byte	66
 623 00ed 42       		.byte	66
 624 00ee 42       		.byte	66
 625 00ef 42       		.byte	66
 626 00f0 42       		.byte	66
 627 00f1 42       		.byte	66
 628 00f2 42       		.byte	66
 629 00f3 42       		.byte	66
 630 00f4 42       		.byte	66
 631 00f5 42       		.byte	66
 632 00f6 42       		.byte	66
 633 00f7 42       		.byte	66
 634 00f8 42       		.byte	66
 635 00f9 42       		.byte	66
 636 00fa 42       		.byte	66
 637 00fb 42       		.byte	66
 638 00fc 42       		.byte	66
 639 00fd 42       		.byte	66
 640 00fe 42       		.byte	66
 641 00ff 42       		.byte	66
 642              		.text
 643              	.Letext0:
 644              		.section	.debug_loc,"",%progbits
 645              	.Ldebug_loc0:
 646              	.LLST0:
 647 0000 00000000 		.4byte	.LFB0
 648 0004 04000000 		.4byte	.LCFI0
 649 0008 0200     		.2byte	0x2
 650 000a 7D       		.byte	0x7d
 651 000b 00       		.sleb128 0
 652 000c 04000000 		.4byte	.LCFI0
 653 0010 06000000 		.4byte	.LCFI1
 654 0014 0200     		.2byte	0x2
 655 0016 7D       		.byte	0x7d
 656 0017 1C       		.sleb128 28
 657 0018 06000000 		.4byte	.LCFI1
 658 001c 08010000 		.4byte	.LFE0
 659 0020 0300     		.2byte	0x3
 660 0022 7D       		.byte	0x7d
 661 0023 E800     		.sleb128 104
 662 0025 00000000 		.4byte	0x0
 663 0029 00000000 		.4byte	0x0
 664              	.LLST1:
 665 002d 00000000 		.4byte	.LVL0
 666 0031 10000000 		.4byte	.LVL2
 667 0035 0100     		.2byte	0x1
 668 0037 50       		.byte	0x50
 669 0038 10000000 		.4byte	.LVL2
 670 003c 08010000 		.4byte	.LFE0
ARM GAS  C:\Users\z80\AppData\Local\Temp\ccf0mrsJ.s 			page 13


 671 0040 0100     		.2byte	0x1
 672 0042 56       		.byte	0x56
 673 0043 00000000 		.4byte	0x0
 674 0047 00000000 		.4byte	0x0
 675              	.LLST2:
 676 004b 00000000 		.4byte	.LVL0
 677 004f 0E000000 		.4byte	.LVL1
 678 0053 0100     		.2byte	0x1
 679 0055 51       		.byte	0x51
 680 0056 0E000000 		.4byte	.LVL1
 681 005a 08010000 		.4byte	.LFE0
 682 005e 0100     		.2byte	0x1
 683 0060 54       		.byte	0x54
 684 0061 00000000 		.4byte	0x0
 685 0065 00000000 		.4byte	0x0
 686              	.LLST3:
 687 0069 00000000 		.4byte	.LVL0
 688 006d 12000000 		.4byte	.LVL3
 689 0071 0100     		.2byte	0x1
 690 0073 52       		.byte	0x52
 691 0074 12000000 		.4byte	.LVL3
 692 0078 08010000 		.4byte	.LFE0
 693 007c 0100     		.2byte	0x1
 694 007e 55       		.byte	0x55
 695 007f 00000000 		.4byte	0x0
 696 0083 00000000 		.4byte	0x0
 697              	.LLST4:
 698 0087 00000000 		.4byte	.LVL0
 699 008b 17000000 		.4byte	.LVL4-1
 700 008f 0100     		.2byte	0x1
 701 0091 53       		.byte	0x53
 702 0092 17000000 		.4byte	.LVL4-1
 703 0096 08010000 		.4byte	.LFE0
 704 009a 0100     		.2byte	0x1
 705 009c 57       		.byte	0x57
 706 009d 00000000 		.4byte	0x0
 707 00a1 00000000 		.4byte	0x0
 708              	.LLST5:
 709 00a5 18000000 		.4byte	.LVL4
 710 00a9 28000000 		.4byte	.LVL5
 711 00ad 0200     		.2byte	0x2
 712 00af 30       		.byte	0x30
 713 00b0 9F       		.byte	0x9f
 714 00b1 3A000000 		.4byte	.LVL6
 715 00b5 56000000 		.4byte	.LVL7
 716 00b9 0100     		.2byte	0x1
 717 00bb 58       		.byte	0x58
 718 00bc 56000000 		.4byte	.LVL7
 719 00c0 74000000 		.4byte	.LVL8
 720 00c4 0100     		.2byte	0x1
 721 00c6 53       		.byte	0x53
 722 00c7 74000000 		.4byte	.LVL8
 723 00cb 8E000000 		.4byte	.LVL10
 724 00cf 0100     		.2byte	0x1
 725 00d1 53       		.byte	0x53
 726 00d2 8E000000 		.4byte	.LVL10
 727 00d6 9A000000 		.4byte	.LVL12
ARM GAS  C:\Users\z80\AppData\Local\Temp\ccf0mrsJ.s 			page 14


 728 00da 0100     		.2byte	0x1
 729 00dc 53       		.byte	0x53
 730 00dd C2000000 		.4byte	.LVL17
 731 00e1 F0000000 		.4byte	.LVL20
 732 00e5 0100     		.2byte	0x1
 733 00e7 53       		.byte	0x53
 734 00e8 F0000000 		.4byte	.LVL20
 735 00ec F4000000 		.4byte	.LVL21
 736 00f0 0100     		.2byte	0x1
 737 00f2 53       		.byte	0x53
 738 00f3 F4000000 		.4byte	.LVL21
 739 00f7 FE000000 		.4byte	.LVL22
 740 00fb 0100     		.2byte	0x1
 741 00fd 53       		.byte	0x53
 742 00fe FE000000 		.4byte	.LVL22
 743 0102 08010000 		.4byte	.LFE0
 744 0106 0200     		.2byte	0x2
 745 0108 30       		.byte	0x30
 746 0109 9F       		.byte	0x9f
 747 010a 00000000 		.4byte	0x0
 748 010e 00000000 		.4byte	0x0
 749              	.LLST6:
 750 0112 18000000 		.4byte	.LVL4
 751 0116 28000000 		.4byte	.LVL5
 752 011a 0200     		.2byte	0x2
 753 011c 30       		.byte	0x30
 754 011d 9F       		.byte	0x9f
 755 011e 92000000 		.4byte	.LVL11
 756 0122 9A000000 		.4byte	.LVL12
 757 0126 0100     		.2byte	0x1
 758 0128 5C       		.byte	0x5c
 759 0129 C2000000 		.4byte	.LVL17
 760 012d F4000000 		.4byte	.LVL21
 761 0131 0100     		.2byte	0x1
 762 0133 5C       		.byte	0x5c
 763 0134 FE000000 		.4byte	.LVL22
 764 0138 08010000 		.4byte	.LFE0
 765 013c 0200     		.2byte	0x2
 766 013e 30       		.byte	0x30
 767 013f 9F       		.byte	0x9f
 768 0140 00000000 		.4byte	0x0
 769 0144 00000000 		.4byte	0x0
 770              	.LLST7:
 771 0148 18000000 		.4byte	.LVL4
 772 014c 28000000 		.4byte	.LVL5
 773 0150 0200     		.2byte	0x2
 774 0152 30       		.byte	0x30
 775 0153 9F       		.byte	0x9f
 776 0154 28000000 		.4byte	.LVL5
 777 0158 80000000 		.4byte	.LVL9
 778 015c 0100     		.2byte	0x1
 779 015e 52       		.byte	0x52
 780 015f A0000000 		.4byte	.LVL13
 781 0163 AC000000 		.4byte	.LVL14
 782 0167 0100     		.2byte	0x1
 783 0169 52       		.byte	0x52
 784 016a AC000000 		.4byte	.LVL14
ARM GAS  C:\Users\z80\AppData\Local\Temp\ccf0mrsJ.s 			page 15


 785 016e B6000000 		.4byte	.LVL15
 786 0172 0100     		.2byte	0x1
 787 0174 52       		.byte	0x52
 788 0175 B6000000 		.4byte	.LVL15
 789 0179 BA000000 		.4byte	.LVL16
 790 017d 0100     		.2byte	0x1
 791 017f 52       		.byte	0x52
 792 0180 FE000000 		.4byte	.LVL22
 793 0184 08010000 		.4byte	.LFE0
 794 0188 0200     		.2byte	0x2
 795 018a 30       		.byte	0x30
 796 018b 9F       		.byte	0x9f
 797 018c 00000000 		.4byte	0x0
 798 0190 00000000 		.4byte	0x0
 799              	.LLST8:
 800 0194 18000000 		.4byte	.LVL4
 801 0198 BA000000 		.4byte	.LVL16
 802 019c 0500     		.2byte	0x5
 803 019e 74       		.byte	0x74
 804 019f 00       		.sleb128 0
 805 01a0 33       		.byte	0x33
 806 01a1 1D       		.byte	0x1d
 807 01a2 9F       		.byte	0x9f
 808 01a3 C2000000 		.4byte	.LVL17
 809 01a7 E6000000 		.4byte	.LVL18
 810 01ab 0500     		.2byte	0x5
 811 01ad 74       		.byte	0x74
 812 01ae 00       		.sleb128 0
 813 01af 33       		.byte	0x33
 814 01b0 1D       		.byte	0x1d
 815 01b1 9F       		.byte	0x9f
 816 01b2 E6000000 		.4byte	.LVL18
 817 01b6 EC000000 		.4byte	.LVL19
 818 01ba 0300     		.2byte	0x3
 819 01bc 70       		.byte	0x70
 820 01bd 01       		.sleb128 1
 821 01be 9F       		.byte	0x9f
 822 01bf F0000000 		.4byte	.LVL20
 823 01c3 F4000000 		.4byte	.LVL21
 824 01c7 0300     		.2byte	0x3
 825 01c9 70       		.byte	0x70
 826 01ca 01       		.sleb128 1
 827 01cb 9F       		.byte	0x9f
 828 01cc FE000000 		.4byte	.LVL22
 829 01d0 08010000 		.4byte	.LFE0
 830 01d4 0500     		.2byte	0x5
 831 01d6 74       		.byte	0x74
 832 01d7 00       		.sleb128 0
 833 01d8 33       		.byte	0x33
 834 01d9 1D       		.byte	0x1d
 835 01da 9F       		.byte	0x9f
 836 01db 00000000 		.4byte	0x0
 837 01df 00000000 		.4byte	0x0
 838              	.LLST9:
 839 01e3 28000000 		.4byte	.LVL5
 840 01e7 80000000 		.4byte	.LVL9
 841 01eb 0800     		.2byte	0x8
ARM GAS  C:\Users\z80\AppData\Local\Temp\ccf0mrsJ.s 			page 16


 842 01ed 72       		.byte	0x72
 843 01ee 00       		.sleb128 0
 844 01ef 42       		.byte	0x42
 845 01f0 25       		.byte	0x25
 846 01f1 08       		.byte	0x8
 847 01f2 3F       		.byte	0x3f
 848 01f3 1A       		.byte	0x1a
 849 01f4 9F       		.byte	0x9f
 850 01f5 B6000000 		.4byte	.LVL15
 851 01f9 BA000000 		.4byte	.LVL16
 852 01fd 0800     		.2byte	0x8
 853 01ff 72       		.byte	0x72
 854 0200 00       		.sleb128 0
 855 0201 42       		.byte	0x42
 856 0202 25       		.byte	0x25
 857 0203 08       		.byte	0x8
 858 0204 3F       		.byte	0x3f
 859 0205 1A       		.byte	0x1a
 860 0206 9F       		.byte	0x9f
 861 0207 00000000 		.4byte	0x0
 862 020b 00000000 		.4byte	0x0
 863              	.LLST10:
 864 020f 28000000 		.4byte	.LVL5
 865 0213 80000000 		.4byte	.LVL9
 866 0217 0800     		.2byte	0x8
 867 0219 72       		.byte	0x72
 868 021a 00       		.sleb128 0
 869 021b 3C       		.byte	0x3c
 870 021c 25       		.byte	0x25
 871 021d 08       		.byte	0x8
 872 021e 3F       		.byte	0x3f
 873 021f 1A       		.byte	0x1a
 874 0220 9F       		.byte	0x9f
 875 0221 B6000000 		.4byte	.LVL15
 876 0225 BA000000 		.4byte	.LVL16
 877 0229 0800     		.2byte	0x8
 878 022b 72       		.byte	0x72
 879 022c 00       		.sleb128 0
 880 022d 3C       		.byte	0x3c
 881 022e 25       		.byte	0x25
 882 022f 08       		.byte	0x8
 883 0230 3F       		.byte	0x3f
 884 0231 1A       		.byte	0x1a
 885 0232 9F       		.byte	0x9f
 886 0233 00000000 		.4byte	0x0
 887 0237 00000000 		.4byte	0x0
 888              	.LLST11:
 889 023b 28000000 		.4byte	.LVL5
 890 023f 80000000 		.4byte	.LVL9
 891 0243 0800     		.2byte	0x8
 892 0245 72       		.byte	0x72
 893 0246 00       		.sleb128 0
 894 0247 36       		.byte	0x36
 895 0248 25       		.byte	0x25
 896 0249 08       		.byte	0x8
 897 024a 3F       		.byte	0x3f
 898 024b 1A       		.byte	0x1a
ARM GAS  C:\Users\z80\AppData\Local\Temp\ccf0mrsJ.s 			page 17


 899 024c 9F       		.byte	0x9f
 900 024d B6000000 		.4byte	.LVL15
 901 0251 BA000000 		.4byte	.LVL16
 902 0255 0800     		.2byte	0x8
 903 0257 72       		.byte	0x72
 904 0258 00       		.sleb128 0
 905 0259 36       		.byte	0x36
 906 025a 25       		.byte	0x25
 907 025b 08       		.byte	0x8
 908 025c 3F       		.byte	0x3f
 909 025d 1A       		.byte	0x1a
 910 025e 9F       		.byte	0x9f
 911 025f 00000000 		.4byte	0x0
 912 0263 00000000 		.4byte	0x0
 913              	.LLST12:
 914 0267 28000000 		.4byte	.LVL5
 915 026b 80000000 		.4byte	.LVL9
 916 026f 0600     		.2byte	0x6
 917 0271 72       		.byte	0x72
 918 0272 00       		.sleb128 0
 919 0273 08       		.byte	0x8
 920 0274 3F       		.byte	0x3f
 921 0275 1A       		.byte	0x1a
 922 0276 9F       		.byte	0x9f
 923 0277 B6000000 		.4byte	.LVL15
 924 027b BA000000 		.4byte	.LVL16
 925 027f 0600     		.2byte	0x6
 926 0281 72       		.byte	0x72
 927 0282 00       		.sleb128 0
 928 0283 08       		.byte	0x8
 929 0284 3F       		.byte	0x3f
 930 0285 1A       		.byte	0x1a
 931 0286 9F       		.byte	0x9f
 932 0287 00000000 		.4byte	0x0
 933 028b 00000000 		.4byte	0x0
 934              	.LLST13:
 935 028f 00000000 		.4byte	.LFB1
 936 0293 06000000 		.4byte	.LCFI2
 937 0297 0200     		.2byte	0x2
 938 0299 7D       		.byte	0x7d
 939 029a 00       		.sleb128 0
 940 029b 06000000 		.4byte	.LCFI2
 941 029f 94000000 		.4byte	.LFE1
 942 02a3 0200     		.2byte	0x2
 943 02a5 7D       		.byte	0x7d
 944 02a6 10       		.sleb128 16
 945 02a7 00000000 		.4byte	0x0
 946 02ab 00000000 		.4byte	0x0
 947              	.LLST14:
 948 02af 00000000 		.4byte	.LVL23
 949 02b3 0E000000 		.4byte	.LVL25
 950 02b7 0100     		.2byte	0x1
 951 02b9 50       		.byte	0x50
 952 02ba 78000000 		.4byte	.LVL40
 953 02be 7C000000 		.4byte	.LVL41
 954 02c2 0100     		.2byte	0x1
 955 02c4 50       		.byte	0x50
ARM GAS  C:\Users\z80\AppData\Local\Temp\ccf0mrsJ.s 			page 18


 956 02c5 00000000 		.4byte	0x0
 957 02c9 00000000 		.4byte	0x0
 958              	.LLST15:
 959 02cd 00000000 		.4byte	.LVL23
 960 02d1 02000000 		.4byte	.LVL24
 961 02d5 0100     		.2byte	0x1
 962 02d7 51       		.byte	0x51
 963 02d8 00000000 		.4byte	0x0
 964 02dc 00000000 		.4byte	0x0
 965              	.LLST16:
 966 02e0 00000000 		.4byte	.LVL23
 967 02e4 44000000 		.4byte	.LVL30
 968 02e8 0100     		.2byte	0x1
 969 02ea 52       		.byte	0x52
 970 02eb 44000000 		.4byte	.LVL30
 971 02ef 50000000 		.4byte	.LVL31
 972 02f3 0300     		.2byte	0x3
 973 02f5 7C       		.byte	0x7c
 974 02f6 01       		.sleb128 1
 975 02f7 9F       		.byte	0x9f
 976 02f8 50000000 		.4byte	.LVL31
 977 02fc 6A000000 		.4byte	.LVL36
 978 0300 0100     		.2byte	0x1
 979 0302 52       		.byte	0x52
 980 0303 6A000000 		.4byte	.LVL36
 981 0307 6C000000 		.4byte	.LVL37
 982 030b 0300     		.2byte	0x3
 983 030d 72       		.byte	0x72
 984 030e 01       		.sleb128 1
 985 030f 9F       		.byte	0x9f
 986 0310 72000000 		.4byte	.LVL38
 987 0314 74000000 		.4byte	.LVL39
 988 0318 0100     		.2byte	0x1
 989 031a 52       		.byte	0x52
 990 031b 78000000 		.4byte	.LVL40
 991 031f 8E000000 		.4byte	.LVL44
 992 0323 0100     		.2byte	0x1
 993 0325 52       		.byte	0x52
 994 0326 00000000 		.4byte	0x0
 995 032a 00000000 		.4byte	0x0
 996              	.LLST17:
 997 032e 02000000 		.4byte	.LVL24
 998 0332 5E000000 		.4byte	.LVL34
 999 0336 0100     		.2byte	0x1
 1000 0338 51       		.byte	0x51
 1001 0339 78000000 		.4byte	.LVL40
 1002 033d 84000000 		.4byte	.LVL42
 1003 0341 0100     		.2byte	0x1
 1004 0343 51       		.byte	0x51
 1005 0344 00000000 		.4byte	0x0
 1006 0348 00000000 		.4byte	0x0
 1007              	.LLST18:
 1008 034c 02000000 		.4byte	.LVL24
 1009 0350 0E000000 		.4byte	.LVL25
 1010 0354 0200     		.2byte	0x2
 1011 0356 31       		.byte	0x31
 1012 0357 9F       		.byte	0x9f
ARM GAS  C:\Users\z80\AppData\Local\Temp\ccf0mrsJ.s 			page 19


 1013 0358 2C000000 		.4byte	.LVL27
 1014 035c 50000000 		.4byte	.LVL31
 1015 0360 0100     		.2byte	0x1
 1016 0362 54       		.byte	0x54
 1017 0363 50000000 		.4byte	.LVL31
 1018 0367 52000000 		.4byte	.LVL32
 1019 036b 0200     		.2byte	0x2
 1020 036d 31       		.byte	0x31
 1021 036e 9F       		.byte	0x9f
 1022 036f 52000000 		.4byte	.LVL32
 1023 0373 56000000 		.4byte	.LVL33
 1024 0377 0100     		.2byte	0x1
 1025 0379 54       		.byte	0x54
 1026 037a 78000000 		.4byte	.LVL40
 1027 037e 7C000000 		.4byte	.LVL41
 1028 0382 0200     		.2byte	0x2
 1029 0384 31       		.byte	0x31
 1030 0385 9F       		.byte	0x9f
 1031 0386 00000000 		.4byte	0x0
 1032 038a 00000000 		.4byte	0x0
 1033              	.LLST19:
 1034 038e 02000000 		.4byte	.LVL24
 1035 0392 0E000000 		.4byte	.LVL25
 1036 0396 0200     		.2byte	0x2
 1037 0398 30       		.byte	0x30
 1038 0399 9F       		.byte	0x9f
 1039 039a 38000000 		.4byte	.LVL29
 1040 039e 52000000 		.4byte	.LVL32
 1041 03a2 0100     		.2byte	0x1
 1042 03a4 56       		.byte	0x56
 1043 03a5 52000000 		.4byte	.LVL32
 1044 03a9 56000000 		.4byte	.LVL33
 1045 03ad 0100     		.2byte	0x1
 1046 03af 56       		.byte	0x56
 1047 03b0 60000000 		.4byte	.LVL35
 1048 03b4 6C000000 		.4byte	.LVL37
 1049 03b8 0100     		.2byte	0x1
 1050 03ba 56       		.byte	0x56
 1051 03bb 6C000000 		.4byte	.LVL37
 1052 03bf 72000000 		.4byte	.LVL38
 1053 03c3 0100     		.2byte	0x1
 1054 03c5 56       		.byte	0x56
 1055 03c6 78000000 		.4byte	.LVL40
 1056 03ca 7C000000 		.4byte	.LVL41
 1057 03ce 0200     		.2byte	0x2
 1058 03d0 30       		.byte	0x30
 1059 03d1 9F       		.byte	0x9f
 1060 03d2 86000000 		.4byte	.LVL43
 1061 03d6 94000000 		.4byte	.LFE1
 1062 03da 0100     		.2byte	0x1
 1063 03dc 56       		.byte	0x56
 1064 03dd 00000000 		.4byte	0x0
 1065 03e1 00000000 		.4byte	0x0
 1066              	.LLST20:
 1067 03e5 16000000 		.4byte	.LVL26
 1068 03e9 36000000 		.4byte	.LVL28
 1069 03ed 0100     		.2byte	0x1
ARM GAS  C:\Users\z80\AppData\Local\Temp\ccf0mrsJ.s 			page 20


 1070 03ef 5C       		.byte	0x5c
 1071 03f0 00000000 		.4byte	0x0
 1072 03f4 00000000 		.4byte	0x0
 1073              		.file 2 "c:/programs/yagarto/lib/gcc/../../arm-none-eabi/sys-include/stdint.h"
 1074              		.file 3 "c:\\programs\\yagarto\\bin\\../lib/gcc/arm-none-eabi/4.5.0/include/stddef.h"
 1075              		.section	.debug_info
 1076 0000 75020000 		.4byte	0x275
 1077 0004 0200     		.2byte	0x2
 1078 0006 00000000 		.4byte	.Ldebug_abbrev0
 1079 000a 04       		.byte	0x4
 1080 000b 01       		.uleb128 0x1
 1081 000c 86000000 		.4byte	.LASF25
 1082 0010 01       		.byte	0x1
 1083 0011 26000000 		.4byte	.LASF26
 1084 0015 FF000000 		.4byte	.LASF27
 1085 0019 00000000 		.4byte	0x0
 1086 001d 00000000 		.4byte	0x0
 1087 0021 00000000 		.4byte	.Ldebug_ranges0+0x0
 1088 0025 00000000 		.4byte	.Ldebug_line0
 1089 0029 02       		.uleb128 0x2
 1090 002a 01       		.byte	0x1
 1091 002b 06       		.byte	0x6
 1092 002c 43010000 		.4byte	.LASF0
 1093 0030 03       		.uleb128 0x3
 1094 0031 B6000000 		.4byte	.LASF5
 1095 0035 02       		.byte	0x2
 1096 0036 2A       		.byte	0x2a
 1097 0037 3B000000 		.4byte	0x3b
 1098 003b 02       		.uleb128 0x2
 1099 003c 01       		.byte	0x1
 1100 003d 08       		.byte	0x8
 1101 003e 46000000 		.4byte	.LASF1
 1102 0042 02       		.uleb128 0x2
 1103 0043 02       		.byte	0x2
 1104 0044 05       		.byte	0x5
 1105 0045 F5000000 		.4byte	.LASF2
 1106 0049 02       		.uleb128 0x2
 1107 004a 02       		.byte	0x2
 1108 004b 07       		.byte	0x7
 1109 004c 6C000000 		.4byte	.LASF3
 1110 0050 02       		.uleb128 0x2
 1111 0051 04       		.byte	0x4
 1112 0052 05       		.byte	0x5
 1113 0053 3A010000 		.4byte	.LASF4
 1114 0057 03       		.uleb128 0x3
 1115 0058 31010000 		.4byte	.LASF6
 1116 005c 02       		.byte	0x2
 1117 005d 50       		.byte	0x50
 1118 005e 62000000 		.4byte	0x62
 1119 0062 02       		.uleb128 0x2
 1120 0063 04       		.byte	0x4
 1121 0064 07       		.byte	0x7
 1122 0065 54000000 		.4byte	.LASF7
 1123 0069 02       		.uleb128 0x2
 1124 006a 08       		.byte	0x8
 1125 006b 05       		.byte	0x5
 1126 006c D6000000 		.4byte	.LASF8
ARM GAS  C:\Users\z80\AppData\Local\Temp\ccf0mrsJ.s 			page 21


 1127 0070 02       		.uleb128 0x2
 1128 0071 08       		.byte	0x8
 1129 0072 07       		.byte	0x7
 1130 0073 9F000000 		.4byte	.LASF9
 1131 0077 04       		.uleb128 0x4
 1132 0078 04       		.byte	0x4
 1133 0079 05       		.byte	0x5
 1134 007a 696E7400 		.ascii	"int\000"
 1135 007e 02       		.uleb128 0x2
 1136 007f 04       		.byte	0x4
 1137 0080 07       		.byte	0x7
 1138 0081 92000000 		.4byte	.LASF10
 1139 0085 05       		.uleb128 0x5
 1140 0086 04       		.byte	0x4
 1141 0087 07       		.byte	0x7
 1142 0088 06       		.uleb128 0x6
 1143 0089 04       		.byte	0x4
 1144 008a 3B000000 		.4byte	0x3b
 1145 008e 06       		.uleb128 0x6
 1146 008f 04       		.byte	0x4
 1147 0090 94000000 		.4byte	0x94
 1148 0094 02       		.uleb128 0x2
 1149 0095 01       		.byte	0x1
 1150 0096 08       		.byte	0x8
 1151 0097 E4000000 		.4byte	.LASF11
 1152 009b 03       		.uleb128 0x3
 1153 009c 7F000000 		.4byte	.LASF12
 1154 00a0 03       		.byte	0x3
 1155 00a1 D3       		.byte	0xd3
 1156 00a2 7E000000 		.4byte	0x7e
 1157 00a6 07       		.uleb128 0x7
 1158 00a7 01       		.byte	0x1
 1159 00a8 10000000 		.4byte	.LASF21
 1160 00ac 01       		.byte	0x1
 1161 00ad 04       		.byte	0x4
 1162 00ae 01       		.byte	0x1
 1163 00af 77000000 		.4byte	0x77
 1164 00b3 00000000 		.4byte	.LFB0
 1165 00b7 08010000 		.4byte	.LFE0
 1166 00bb 00000000 		.4byte	.LLST0
 1167 00bf 8C010000 		.4byte	0x18c
 1168 00c3 08       		.uleb128 0x8
 1169 00c4 1D000000 		.4byte	.LASF13
 1170 00c8 01       		.byte	0x1
 1171 00c9 04       		.byte	0x4
 1172 00ca 8C010000 		.4byte	0x18c
 1173 00ce 2D000000 		.4byte	.LLST1
 1174 00d2 08       		.uleb128 0x8
 1175 00d3 BE000000 		.4byte	.LASF14
 1176 00d7 01       		.byte	0x1
 1177 00d8 04       		.byte	0x4
 1178 00d9 9B000000 		.4byte	0x9b
 1179 00dd 4B000000 		.4byte	.LLST2
 1180 00e1 08       		.uleb128 0x8
 1181 00e2 00000000 		.4byte	.LASF15
 1182 00e6 01       		.byte	0x1
 1183 00e7 04       		.byte	0x4
ARM GAS  C:\Users\z80\AppData\Local\Temp\ccf0mrsJ.s 			page 22


 1184 00e8 8E000000 		.4byte	0x8e
 1185 00ec 69000000 		.4byte	.LLST3
 1186 00f0 08       		.uleb128 0x8
 1187 00f1 4F010000 		.4byte	.LASF16
 1188 00f5 01       		.byte	0x1
 1189 00f6 04       		.byte	0x4
 1190 00f7 9B000000 		.4byte	0x9b
 1191 00fb 87000000 		.4byte	.LLST4
 1192 00ff 09       		.uleb128 0x9
 1193 0100 35000000 		.4byte	.LASF17
 1194 0104 01       		.byte	0x1
 1195 0105 06       		.byte	0x6
 1196 0106 A3010000 		.4byte	0x1a3
 1197 010a 03       		.byte	0x3
 1198 010b 91       		.byte	0x91
 1199 010c 9C7F     		.sleb128 -100
 1200 010e 09       		.uleb128 0x9
 1201 010f 41000000 		.4byte	.LASF18
 1202 0113 01       		.byte	0x1
 1203 0114 07       		.byte	0x7
 1204 0115 A8010000 		.4byte	0x1a8
 1205 0119 01       		.byte	0x1
 1206 011a 56       		.byte	0x56
 1207 011b 0A       		.uleb128 0xa
 1208 011c E9000000 		.4byte	.LASF19
 1209 0120 01       		.byte	0x1
 1210 0121 08       		.byte	0x8
 1211 0122 9B000000 		.4byte	0x9b
 1212 0126 A5000000 		.4byte	.LLST5
 1213 012a 0B       		.uleb128 0xb
 1214 012b 7800     		.ascii	"x\000"
 1215 012d 01       		.byte	0x1
 1216 012e 09       		.byte	0x9
 1217 012f 9B000000 		.4byte	0x9b
 1218 0133 12010000 		.4byte	.LLST6
 1219 0137 0B       		.uleb128 0xb
 1220 0138 6E00     		.ascii	"n\000"
 1221 013a 01       		.byte	0x1
 1222 013b 0A       		.byte	0xa
 1223 013c 57000000 		.4byte	0x57
 1224 0140 48010000 		.4byte	.LLST7
 1225 0144 0A       		.uleb128 0xa
 1226 0145 07000000 		.4byte	.LASF20
 1227 0149 01       		.byte	0x1
 1228 014a 0B       		.byte	0xb
 1229 014b 77000000 		.4byte	0x77
 1230 014f 94010000 		.4byte	.LLST8
 1231 0153 0B       		.uleb128 0xb
 1232 0154 6E3000   		.ascii	"n0\000"
 1233 0157 01       		.byte	0x1
 1234 0158 0C       		.byte	0xc
 1235 0159 30000000 		.4byte	0x30
 1236 015d E3010000 		.4byte	.LLST9
 1237 0161 0B       		.uleb128 0xb
 1238 0162 6E3100   		.ascii	"n1\000"
 1239 0165 01       		.byte	0x1
 1240 0166 0C       		.byte	0xc
ARM GAS  C:\Users\z80\AppData\Local\Temp\ccf0mrsJ.s 			page 23


 1241 0167 30000000 		.4byte	0x30
 1242 016b 0F020000 		.4byte	.LLST10
 1243 016f 0B       		.uleb128 0xb
 1244 0170 6E3200   		.ascii	"n2\000"
 1245 0173 01       		.byte	0x1
 1246 0174 0C       		.byte	0xc
 1247 0175 30000000 		.4byte	0x30
 1248 0179 3B020000 		.4byte	.LLST11
 1249 017d 0B       		.uleb128 0xb
 1250 017e 6E3300   		.ascii	"n3\000"
 1251 0181 01       		.byte	0x1
 1252 0182 0C       		.byte	0xc
 1253 0183 30000000 		.4byte	0x30
 1254 0187 67020000 		.4byte	.LLST12
 1255 018b 00       		.byte	0x0
 1256 018c 06       		.uleb128 0x6
 1257 018d 04       		.byte	0x4
 1258 018e 92010000 		.4byte	0x192
 1259 0192 0C       		.uleb128 0xc
 1260 0193 0D       		.uleb128 0xd
 1261 0194 94000000 		.4byte	0x94
 1262 0198 A3010000 		.4byte	0x1a3
 1263 019c 0E       		.uleb128 0xe
 1264 019d 85000000 		.4byte	0x85
 1265 01a1 40       		.byte	0x40
 1266 01a2 00       		.byte	0x0
 1267 01a3 0F       		.uleb128 0xf
 1268 01a4 93010000 		.4byte	0x193
 1269 01a8 06       		.uleb128 0x6
 1270 01a9 04       		.byte	0x4
 1271 01aa AE010000 		.4byte	0x1ae
 1272 01ae 0F       		.uleb128 0xf
 1273 01af 30000000 		.4byte	0x30
 1274 01b3 07       		.uleb128 0x7
 1275 01b4 01       		.byte	0x1
 1276 01b5 C9000000 		.4byte	.LASF22
 1277 01b9 01       		.byte	0x1
 1278 01ba 64       		.byte	0x64
 1279 01bb 01       		.byte	0x1
 1280 01bc 77000000 		.4byte	0x77
 1281 01c0 00000000 		.4byte	.LFB1
 1282 01c4 94000000 		.4byte	.LFE1
 1283 01c8 8F020000 		.4byte	.LLST13
 1284 01cc 4E020000 		.4byte	0x24e
 1285 01d0 10       		.uleb128 0x10
 1286 01d1 696E00   		.ascii	"in\000"
 1287 01d4 01       		.byte	0x1
 1288 01d5 64       		.byte	0x64
 1289 01d6 8E000000 		.4byte	0x8e
 1290 01da AF020000 		.4byte	.LLST14
 1291 01de 08       		.uleb128 0x8
 1292 01df 66000000 		.4byte	.LASF23
 1293 01e3 01       		.byte	0x1
 1294 01e4 64       		.byte	0x64
 1295 01e5 9B000000 		.4byte	0x9b
 1296 01e9 CD020000 		.4byte	.LLST15
 1297 01ed 10       		.uleb128 0x10
ARM GAS  C:\Users\z80\AppData\Local\Temp\ccf0mrsJ.s 			page 24


 1298 01ee 6F757400 		.ascii	"out\000"
 1299 01f2 01       		.byte	0x1
 1300 01f3 64       		.byte	0x64
 1301 01f4 88000000 		.4byte	0x88
 1302 01f8 E0020000 		.4byte	.LLST16
 1303 01fc 11       		.uleb128 0x11
 1304 01fd 2A010000 		.4byte	.LASF24
 1305 0201 01       		.byte	0x1
 1306 0202 64       		.byte	0x64
 1307 0203 4E020000 		.4byte	0x24e
 1308 0207 01       		.byte	0x1
 1309 0208 53       		.byte	0x53
 1310 0209 0B       		.uleb128 0xb
 1311 020a 656E6400 		.ascii	"end\000"
 1312 020e 01       		.byte	0x1
 1313 020f 65       		.byte	0x65
 1314 0210 8E000000 		.4byte	0x8e
 1315 0214 2E030000 		.4byte	.LLST17
 1316 0218 0B       		.uleb128 0xb
 1317 0219 62756600 		.ascii	"buf\000"
 1318 021d 01       		.byte	0x1
 1319 021e 66       		.byte	0x66
 1320 021f 9B000000 		.4byte	0x9b
 1321 0223 4C030000 		.4byte	.LLST18
 1322 0227 0B       		.uleb128 0xb
 1323 0228 6C656E00 		.ascii	"len\000"
 1324 022c 01       		.byte	0x1
 1325 022d 66       		.byte	0x66
 1326 022e 9B000000 		.4byte	0x9b
 1327 0232 8E030000 		.4byte	.LLST19
 1328 0236 12       		.uleb128 0x12
 1329 0237 0E000000 		.4byte	.LBB2
 1330 023b 52000000 		.4byte	.LBE2
 1331 023f 0B       		.uleb128 0xb
 1332 0240 6300     		.ascii	"c\000"
 1333 0242 01       		.byte	0x1
 1334 0243 69       		.byte	0x69
 1335 0244 3B000000 		.4byte	0x3b
 1336 0248 E5030000 		.4byte	.LLST20
 1337 024c 00       		.byte	0x0
 1338 024d 00       		.byte	0x0
 1339 024e 06       		.uleb128 0x6
 1340 024f 04       		.byte	0x4
 1341 0250 9B000000 		.4byte	0x9b
 1342 0254 0D       		.uleb128 0xd
 1343 0255 3B000000 		.4byte	0x3b
 1344 0259 64020000 		.4byte	0x264
 1345 025d 0E       		.uleb128 0xe
 1346 025e 85000000 		.4byte	0x85
 1347 0262 FF       		.byte	0xff
 1348 0263 00       		.byte	0x0
 1349 0264 13       		.uleb128 0x13
 1350 0265 6400     		.ascii	"d\000"
 1351 0267 01       		.byte	0x1
 1352 0268 56       		.byte	0x56
 1353 0269 73020000 		.4byte	0x273
 1354 026d 05       		.byte	0x5
ARM GAS  C:\Users\z80\AppData\Local\Temp\ccf0mrsJ.s 			page 25


 1355 026e 03       		.byte	0x3
 1356 026f 00000000 		.4byte	d
 1357 0273 0F       		.uleb128 0xf
 1358 0274 54020000 		.4byte	0x254
 1359 0278 00       		.byte	0x0
 1360              		.section	.debug_abbrev
 1361 0000 01       		.uleb128 0x1
 1362 0001 11       		.uleb128 0x11
 1363 0002 01       		.byte	0x1
 1364 0003 25       		.uleb128 0x25
 1365 0004 0E       		.uleb128 0xe
 1366 0005 13       		.uleb128 0x13
 1367 0006 0B       		.uleb128 0xb
 1368 0007 03       		.uleb128 0x3
 1369 0008 0E       		.uleb128 0xe
 1370 0009 1B       		.uleb128 0x1b
 1371 000a 0E       		.uleb128 0xe
 1372 000b 11       		.uleb128 0x11
 1373 000c 01       		.uleb128 0x1
 1374 000d 52       		.uleb128 0x52
 1375 000e 01       		.uleb128 0x1
 1376 000f 55       		.uleb128 0x55
 1377 0010 06       		.uleb128 0x6
 1378 0011 10       		.uleb128 0x10
 1379 0012 06       		.uleb128 0x6
 1380 0013 00       		.byte	0x0
 1381 0014 00       		.byte	0x0
 1382 0015 02       		.uleb128 0x2
 1383 0016 24       		.uleb128 0x24
 1384 0017 00       		.byte	0x0
 1385 0018 0B       		.uleb128 0xb
 1386 0019 0B       		.uleb128 0xb
 1387 001a 3E       		.uleb128 0x3e
 1388 001b 0B       		.uleb128 0xb
 1389 001c 03       		.uleb128 0x3
 1390 001d 0E       		.uleb128 0xe
 1391 001e 00       		.byte	0x0
 1392 001f 00       		.byte	0x0
 1393 0020 03       		.uleb128 0x3
 1394 0021 16       		.uleb128 0x16
 1395 0022 00       		.byte	0x0
 1396 0023 03       		.uleb128 0x3
 1397 0024 0E       		.uleb128 0xe
 1398 0025 3A       		.uleb128 0x3a
 1399 0026 0B       		.uleb128 0xb
 1400 0027 3B       		.uleb128 0x3b
 1401 0028 0B       		.uleb128 0xb
 1402 0029 49       		.uleb128 0x49
 1403 002a 13       		.uleb128 0x13
 1404 002b 00       		.byte	0x0
 1405 002c 00       		.byte	0x0
 1406 002d 04       		.uleb128 0x4
 1407 002e 24       		.uleb128 0x24
 1408 002f 00       		.byte	0x0
 1409 0030 0B       		.uleb128 0xb
 1410 0031 0B       		.uleb128 0xb
 1411 0032 3E       		.uleb128 0x3e
ARM GAS  C:\Users\z80\AppData\Local\Temp\ccf0mrsJ.s 			page 26


 1412 0033 0B       		.uleb128 0xb
 1413 0034 03       		.uleb128 0x3
 1414 0035 08       		.uleb128 0x8
 1415 0036 00       		.byte	0x0
 1416 0037 00       		.byte	0x0
 1417 0038 05       		.uleb128 0x5
 1418 0039 24       		.uleb128 0x24
 1419 003a 00       		.byte	0x0
 1420 003b 0B       		.uleb128 0xb
 1421 003c 0B       		.uleb128 0xb
 1422 003d 3E       		.uleb128 0x3e
 1423 003e 0B       		.uleb128 0xb
 1424 003f 00       		.byte	0x0
 1425 0040 00       		.byte	0x0
 1426 0041 06       		.uleb128 0x6
 1427 0042 0F       		.uleb128 0xf
 1428 0043 00       		.byte	0x0
 1429 0044 0B       		.uleb128 0xb
 1430 0045 0B       		.uleb128 0xb
 1431 0046 49       		.uleb128 0x49
 1432 0047 13       		.uleb128 0x13
 1433 0048 00       		.byte	0x0
 1434 0049 00       		.byte	0x0
 1435 004a 07       		.uleb128 0x7
 1436 004b 2E       		.uleb128 0x2e
 1437 004c 01       		.byte	0x1
 1438 004d 3F       		.uleb128 0x3f
 1439 004e 0C       		.uleb128 0xc
 1440 004f 03       		.uleb128 0x3
 1441 0050 0E       		.uleb128 0xe
 1442 0051 3A       		.uleb128 0x3a
 1443 0052 0B       		.uleb128 0xb
 1444 0053 3B       		.uleb128 0x3b
 1445 0054 0B       		.uleb128 0xb
 1446 0055 27       		.uleb128 0x27
 1447 0056 0C       		.uleb128 0xc
 1448 0057 49       		.uleb128 0x49
 1449 0058 13       		.uleb128 0x13
 1450 0059 11       		.uleb128 0x11
 1451 005a 01       		.uleb128 0x1
 1452 005b 12       		.uleb128 0x12
 1453 005c 01       		.uleb128 0x1
 1454 005d 40       		.uleb128 0x40
 1455 005e 06       		.uleb128 0x6
 1456 005f 01       		.uleb128 0x1
 1457 0060 13       		.uleb128 0x13
 1458 0061 00       		.byte	0x0
 1459 0062 00       		.byte	0x0
 1460 0063 08       		.uleb128 0x8
 1461 0064 05       		.uleb128 0x5
 1462 0065 00       		.byte	0x0
 1463 0066 03       		.uleb128 0x3
 1464 0067 0E       		.uleb128 0xe
 1465 0068 3A       		.uleb128 0x3a
 1466 0069 0B       		.uleb128 0xb
 1467 006a 3B       		.uleb128 0x3b
 1468 006b 0B       		.uleb128 0xb
ARM GAS  C:\Users\z80\AppData\Local\Temp\ccf0mrsJ.s 			page 27


 1469 006c 49       		.uleb128 0x49
 1470 006d 13       		.uleb128 0x13
 1471 006e 02       		.uleb128 0x2
 1472 006f 06       		.uleb128 0x6
 1473 0070 00       		.byte	0x0
 1474 0071 00       		.byte	0x0
 1475 0072 09       		.uleb128 0x9
 1476 0073 34       		.uleb128 0x34
 1477 0074 00       		.byte	0x0
 1478 0075 03       		.uleb128 0x3
 1479 0076 0E       		.uleb128 0xe
 1480 0077 3A       		.uleb128 0x3a
 1481 0078 0B       		.uleb128 0xb
 1482 0079 3B       		.uleb128 0x3b
 1483 007a 0B       		.uleb128 0xb
 1484 007b 49       		.uleb128 0x49
 1485 007c 13       		.uleb128 0x13
 1486 007d 02       		.uleb128 0x2
 1487 007e 0A       		.uleb128 0xa
 1488 007f 00       		.byte	0x0
 1489 0080 00       		.byte	0x0
 1490 0081 0A       		.uleb128 0xa
 1491 0082 34       		.uleb128 0x34
 1492 0083 00       		.byte	0x0
 1493 0084 03       		.uleb128 0x3
 1494 0085 0E       		.uleb128 0xe
 1495 0086 3A       		.uleb128 0x3a
 1496 0087 0B       		.uleb128 0xb
 1497 0088 3B       		.uleb128 0x3b
 1498 0089 0B       		.uleb128 0xb
 1499 008a 49       		.uleb128 0x49
 1500 008b 13       		.uleb128 0x13
 1501 008c 02       		.uleb128 0x2
 1502 008d 06       		.uleb128 0x6
 1503 008e 00       		.byte	0x0
 1504 008f 00       		.byte	0x0
 1505 0090 0B       		.uleb128 0xb
 1506 0091 34       		.uleb128 0x34
 1507 0092 00       		.byte	0x0
 1508 0093 03       		.uleb128 0x3
 1509 0094 08       		.uleb128 0x8
 1510 0095 3A       		.uleb128 0x3a
 1511 0096 0B       		.uleb128 0xb
 1512 0097 3B       		.uleb128 0x3b
 1513 0098 0B       		.uleb128 0xb
 1514 0099 49       		.uleb128 0x49
 1515 009a 13       		.uleb128 0x13
 1516 009b 02       		.uleb128 0x2
 1517 009c 06       		.uleb128 0x6
 1518 009d 00       		.byte	0x0
 1519 009e 00       		.byte	0x0
 1520 009f 0C       		.uleb128 0xc
 1521 00a0 26       		.uleb128 0x26
 1522 00a1 00       		.byte	0x0
 1523 00a2 00       		.byte	0x0
 1524 00a3 00       		.byte	0x0
 1525 00a4 0D       		.uleb128 0xd
ARM GAS  C:\Users\z80\AppData\Local\Temp\ccf0mrsJ.s 			page 28


 1526 00a5 01       		.uleb128 0x1
 1527 00a6 01       		.byte	0x1
 1528 00a7 49       		.uleb128 0x49
 1529 00a8 13       		.uleb128 0x13
 1530 00a9 01       		.uleb128 0x1
 1531 00aa 13       		.uleb128 0x13
 1532 00ab 00       		.byte	0x0
 1533 00ac 00       		.byte	0x0
 1534 00ad 0E       		.uleb128 0xe
 1535 00ae 21       		.uleb128 0x21
 1536 00af 00       		.byte	0x0
 1537 00b0 49       		.uleb128 0x49
 1538 00b1 13       		.uleb128 0x13
 1539 00b2 2F       		.uleb128 0x2f
 1540 00b3 0B       		.uleb128 0xb
 1541 00b4 00       		.byte	0x0
 1542 00b5 00       		.byte	0x0
 1543 00b6 0F       		.uleb128 0xf
 1544 00b7 26       		.uleb128 0x26
 1545 00b8 00       		.byte	0x0
 1546 00b9 49       		.uleb128 0x49
 1547 00ba 13       		.uleb128 0x13
 1548 00bb 00       		.byte	0x0
 1549 00bc 00       		.byte	0x0
 1550 00bd 10       		.uleb128 0x10
 1551 00be 05       		.uleb128 0x5
 1552 00bf 00       		.byte	0x0
 1553 00c0 03       		.uleb128 0x3
 1554 00c1 08       		.uleb128 0x8
 1555 00c2 3A       		.uleb128 0x3a
 1556 00c3 0B       		.uleb128 0xb
 1557 00c4 3B       		.uleb128 0x3b
 1558 00c5 0B       		.uleb128 0xb
 1559 00c6 49       		.uleb128 0x49
 1560 00c7 13       		.uleb128 0x13
 1561 00c8 02       		.uleb128 0x2
 1562 00c9 06       		.uleb128 0x6
 1563 00ca 00       		.byte	0x0
 1564 00cb 00       		.byte	0x0
 1565 00cc 11       		.uleb128 0x11
 1566 00cd 05       		.uleb128 0x5
 1567 00ce 00       		.byte	0x0
 1568 00cf 03       		.uleb128 0x3
 1569 00d0 0E       		.uleb128 0xe
 1570 00d1 3A       		.uleb128 0x3a
 1571 00d2 0B       		.uleb128 0xb
 1572 00d3 3B       		.uleb128 0x3b
 1573 00d4 0B       		.uleb128 0xb
 1574 00d5 49       		.uleb128 0x49
 1575 00d6 13       		.uleb128 0x13
 1576 00d7 02       		.uleb128 0x2
 1577 00d8 0A       		.uleb128 0xa
 1578 00d9 00       		.byte	0x0
 1579 00da 00       		.byte	0x0
 1580 00db 12       		.uleb128 0x12
 1581 00dc 0B       		.uleb128 0xb
 1582 00dd 01       		.byte	0x1
ARM GAS  C:\Users\z80\AppData\Local\Temp\ccf0mrsJ.s 			page 29


 1583 00de 11       		.uleb128 0x11
 1584 00df 01       		.uleb128 0x1
 1585 00e0 12       		.uleb128 0x12
 1586 00e1 01       		.uleb128 0x1
 1587 00e2 00       		.byte	0x0
 1588 00e3 00       		.byte	0x0
 1589 00e4 13       		.uleb128 0x13
 1590 00e5 34       		.uleb128 0x34
 1591 00e6 00       		.byte	0x0
 1592 00e7 03       		.uleb128 0x3
 1593 00e8 08       		.uleb128 0x8
 1594 00e9 3A       		.uleb128 0x3a
 1595 00ea 0B       		.uleb128 0xb
 1596 00eb 3B       		.uleb128 0x3b
 1597 00ec 0B       		.uleb128 0xb
 1598 00ed 49       		.uleb128 0x49
 1599 00ee 13       		.uleb128 0x13
 1600 00ef 02       		.uleb128 0x2
 1601 00f0 0A       		.uleb128 0xa
 1602 00f1 00       		.byte	0x0
 1603 00f2 00       		.byte	0x0
 1604 00f3 00       		.byte	0x0
 1605              		.section	.debug_pubnames,"",%progbits
 1606 0000 30000000 		.4byte	0x30
 1607 0004 0200     		.2byte	0x2
 1608 0006 00000000 		.4byte	.Ldebug_info0
 1609 000a 79020000 		.4byte	0x279
 1610 000e A6000000 		.4byte	0xa6
 1611 0012 62617365 		.ascii	"base64encode\000"
 1611      3634656E 
 1611      636F6465 
 1611      00
 1612 001f B3010000 		.4byte	0x1b3
 1613 0023 62617365 		.ascii	"base64decode\000"
 1613      36346465 
 1613      636F6465 
 1613      00
 1614 0030 00000000 		.4byte	0x0
 1615              		.section	.debug_pubtypes,"",%progbits
 1616 0000 32000000 		.4byte	0x32
 1617 0004 0200     		.2byte	0x2
 1618 0006 00000000 		.4byte	.Ldebug_info0
 1619 000a 79020000 		.4byte	0x279
 1620 000e 30000000 		.4byte	0x30
 1621 0012 75696E74 		.ascii	"uint8_t\000"
 1621      385F7400 
 1622 001a 57000000 		.4byte	0x57
 1623 001e 75696E74 		.ascii	"uint32_t\000"
 1623      33325F74 
 1623      00
 1624 0027 9B000000 		.4byte	0x9b
 1625 002b 73697A65 		.ascii	"size_t\000"
 1625      5F7400
 1626 0032 00000000 		.4byte	0x0
 1627              		.section	.debug_aranges,"",%progbits
 1628 0000 24000000 		.4byte	0x24
 1629 0004 0200     		.2byte	0x2
ARM GAS  C:\Users\z80\AppData\Local\Temp\ccf0mrsJ.s 			page 30


 1630 0006 00000000 		.4byte	.Ldebug_info0
 1631 000a 04       		.byte	0x4
 1632 000b 00       		.byte	0x0
 1633 000c 0000     		.2byte	0x0
 1634 000e 0000     		.2byte	0x0
 1635 0010 00000000 		.4byte	.LFB0
 1636 0014 08010000 		.4byte	.LFE0-.LFB0
 1637 0018 00000000 		.4byte	.LFB1
 1638 001c 94000000 		.4byte	.LFE1-.LFB1
 1639 0020 00000000 		.4byte	0x0
 1640 0024 00000000 		.4byte	0x0
 1641              		.section	.debug_ranges,"",%progbits
 1642              	.Ldebug_ranges0:
 1643 0000 00000000 		.4byte	.LFB0
 1644 0004 08010000 		.4byte	.LFE0
 1645 0008 00000000 		.4byte	.LFB1
 1646 000c 94000000 		.4byte	.LFE1
 1647 0010 00000000 		.4byte	0x0
 1648 0014 00000000 		.4byte	0x0
 1649              		.section	.debug_str,"MS",%progbits,1
 1650              	.LASF15:
 1651 0000 72657375 		.ascii	"result\000"
 1651      6C7400
 1652              	.LASF20:
 1653 0007 70616443 		.ascii	"padCount\000"
 1653      6F756E74 
 1653      00
 1654              	.LASF21:
 1655 0010 62617365 		.ascii	"base64encode\000"
 1655      3634656E 
 1655      636F6465 
 1655      00
 1656              	.LASF13:
 1657 001d 64617461 		.ascii	"data_buf\000"
 1657      5F627566 
 1657      00
 1658              	.LASF26:
 1659 0026 2E2F7372 		.ascii	"./src/base64.c\000"
 1659      632F6261 
 1659      73653634 
 1659      2E6300
 1660              	.LASF17:
 1661 0035 62617365 		.ascii	"base64chars\000"
 1661      36346368 
 1661      61727300 
 1662              	.LASF18:
 1663 0041 64617461 		.ascii	"data\000"
 1663      00
 1664              	.LASF1:
 1665 0046 756E7369 		.ascii	"unsigned char\000"
 1665      676E6564 
 1665      20636861 
 1665      7200
 1666              	.LASF7:
 1667 0054 6C6F6E67 		.ascii	"long unsigned int\000"
 1667      20756E73 
 1667      69676E65 
ARM GAS  C:\Users\z80\AppData\Local\Temp\ccf0mrsJ.s 			page 31


 1667      6420696E 
 1667      7400
 1668              	.LASF23:
 1669 0066 696E4C65 		.ascii	"inLen\000"
 1669      6E00
 1670              	.LASF3:
 1671 006c 73686F72 		.ascii	"short unsigned int\000"
 1671      7420756E 
 1671      7369676E 
 1671      65642069 
 1671      6E7400
 1672              	.LASF12:
 1673 007f 73697A65 		.ascii	"size_t\000"
 1673      5F7400
 1674              	.LASF25:
 1675 0086 474E5520 		.ascii	"GNU C 4.5.0\000"
 1675      4320342E 
 1675      352E3000 
 1676              	.LASF10:
 1677 0092 756E7369 		.ascii	"unsigned int\000"
 1677      676E6564 
 1677      20696E74 
 1677      00
 1678              	.LASF9:
 1679 009f 6C6F6E67 		.ascii	"long long unsigned int\000"
 1679      206C6F6E 
 1679      6720756E 
 1679      7369676E 
 1679      65642069 
 1680              	.LASF5:
 1681 00b6 75696E74 		.ascii	"uint8_t\000"
 1681      385F7400 
 1682              	.LASF14:
 1683 00be 64617461 		.ascii	"dataLength\000"
 1683      4C656E67 
 1683      746800
 1684              	.LASF22:
 1685 00c9 62617365 		.ascii	"base64decode\000"
 1685      36346465 
 1685      636F6465 
 1685      00
 1686              	.LASF8:
 1687 00d6 6C6F6E67 		.ascii	"long long int\000"
 1687      206C6F6E 
 1687      6720696E 
 1687      7400
 1688              	.LASF11:
 1689 00e4 63686172 		.ascii	"char\000"
 1689      00
 1690              	.LASF19:
 1691 00e9 72657375 		.ascii	"resultIndex\000"
 1691      6C74496E 
 1691      64657800 
 1692              	.LASF2:
 1693 00f5 73686F72 		.ascii	"short int\000"
 1693      7420696E 
 1693      7400
ARM GAS  C:\Users\z80\AppData\Local\Temp\ccf0mrsJ.s 			page 32


 1694              	.LASF27:
 1695 00ff 433A5C70 		.ascii	"C:\\projects\\voltamper.git\\firmware\\voltamp\000"
 1695      726F6A65 
 1695      6374735C 
 1695      766F6C74 
 1695      616D7065 
 1696              	.LASF24:
 1697 012a 6F75744C 		.ascii	"outLen\000"
 1697      656E00
 1698              	.LASF6:
 1699 0131 75696E74 		.ascii	"uint32_t\000"
 1699      33325F74 
 1699      00
 1700              	.LASF4:
 1701 013a 6C6F6E67 		.ascii	"long int\000"
 1701      20696E74 
 1701      00
 1702              	.LASF0:
 1703 0143 7369676E 		.ascii	"signed char\000"
 1703      65642063 
 1703      68617200 
 1704              	.LASF16:
 1705 014f 72657375 		.ascii	"resultSize\000"
 1705      6C745369 
 1705      7A6500
 1706              		.ident	"GCC: (GNU) 4.5.0"
ARM GAS  C:\Users\z80\AppData\Local\Temp\ccf0mrsJ.s 			page 33


DEFINED SYMBOLS
                            *ABS*:00000000 base64.c
C:\Users\z80\AppData\Local\Temp\ccf0mrsJ.s:24     .text.base64encode:00000000 $t
C:\Users\z80\AppData\Local\Temp\ccf0mrsJ.s:30     .text.base64encode:00000000 base64encode
C:\Users\z80\AppData\Local\Temp\ccf0mrsJ.s:224    .text.base64encode:00000104 $d
C:\Users\z80\AppData\Local\Temp\ccf0mrsJ.s:229    .text.base64decode:00000000 $t
C:\Users\z80\AppData\Local\Temp\ccf0mrsJ.s:235    .text.base64decode:00000000 base64decode
C:\Users\z80\AppData\Local\Temp\ccf0mrsJ.s:371    .text.base64decode:00000090 $d
C:\Users\z80\AppData\Local\Temp\ccf0mrsJ.s:376    .rodata.str1.4:00000000 $d
C:\Users\z80\AppData\Local\Temp\ccf0mrsJ.s:381    .rodata.d:00000000 $d
C:\Users\z80\AppData\Local\Temp\ccf0mrsJ.s:385    .rodata.d:00000000 d
                     .debug_frame:00000010 $d
C:\Users\z80\AppData\Local\Temp\ccf0mrsJ.s:228    .text.base64encode:00000108 $t
C:\Users\z80\AppData\Local\Temp\ccf0mrsJ.s:375    .text.base64decode:00000094 $t

UNDEFINED SYMBOLS
memcpy
