ARM GAS  /tmp/cc2PY9z6.s 			page 1


   1              		.syntax unified
   2              		.cpu cortex-m3
   3              		.fpu softvfp
   4              		.eabi_attribute 20, 1
   5              		.eabi_attribute 21, 1
   6              		.eabi_attribute 23, 3
   7              		.eabi_attribute 24, 1
   8              		.eabi_attribute 25, 1
   9              		.eabi_attribute 26, 1
  10              		.eabi_attribute 30, 2
  11              		.eabi_attribute 18, 4
  12              		.thumb
  13              		.file	"base64.c"
  20 0000 B4010000 		.text
  20      02000501 
  20      00000201 
  20      FB0E0D00 
  20      01010101 
  21              	.Ltext0:
  22              		.cfi_sections	.debug_frame
  23              		.section	.text.base64encode,"ax",%progbits
  24              		.align	2
  25              		.p2align 4,,15
  26              		.global	base64encode
  27              		.thumb
  28              		.thumb_func
  29              		.type	base64encode, %function
  30              	base64encode:
  31              	.LFB0:
  32              		.file 1 "./src/base64.c"
  33              		.loc 1 5 0
  34              		.cfi_startproc
  35              		@ args = 0, pretend = 0, frame = 72
  36              		@ frame_needed = 0, uses_anonymous_args = 0
  37              	.LVL0:
  38 0000 2DE9F043 		push	{r4, r5, r6, r7, r8, r9, lr}
  39              	.LCFI0:
  40              		.cfi_def_cfa_offset 28
  41 0004 93B0     		sub	sp, sp, #76
  42              	.LCFI1:
  43              		.cfi_def_cfa_offset 104
  44              		.loc 1 5 0
  45 0006 0C46     		mov	r4, r1
  46              		.cfi_offset 14, -4
  47              		.cfi_offset 9, -8
  48              		.cfi_offset 8, -12
  49              		.cfi_offset 7, -16
  50              		.cfi_offset 6, -20
  51              		.cfi_offset 5, -24
  52              		.cfi_offset 4, -28
  53 0008 0646     		mov	r6, r0
ARM GAS  /tmp/cc2PY9z6.s 			page 2


  54 000a 1546     		mov	r5, r2
  55              		.loc 1 6 0
  56 000c 01A8     		add	r0, sp, #4
  57              	.LVL1:
  58 000e 3C49     		ldr	r1, .L24
  59              	.LVL2:
  60 0010 4122     		movs	r2, #65
  61              	.LVL3:
  62              		.loc 1 5 0
  63 0012 1F46     		mov	r7, r3
  64              		.loc 1 6 0
  65 0014 FFF7FEFF 		bl	memcpy
  66              	.LVL4:
  67              		.loc 1 15 0
  68 0018 002C     		cmp	r4, #0
  69 001a 6FD0     		beq	.L11
  70 001c 4FF0000C 		mov	ip, #0
  71 0020 0220     		movs	r0, #2
  72 0022 0121     		movs	r1, #1
  73 0024 6346     		mov	r3, ip
  74 0026 3CE0     		b	.L8
  75              	.LVL5:
  76              	.L23:
  77              		.loc 1 37 0
  78 0028 0DF14808 		add	r8, sp, #72
  79 002c C2F3854E 		ubfx	lr, r2, #18, #6
  80 0030 08EB0E09 		add	r9, r8, lr
  81 0034 19F8449C 		ldrb	r9, [r9, #-68]	@ zero_extendqisi2
  82 0038 03F10108 		add	r8, r3, #1
  83              	.LVL6:
  84              		.loc 1 38 0
  85 003c 4745     		cmp	r7, r8
  86              		.loc 1 37 0
  87 003e 05F80390 		strb	r9, [r5, r3]
  88              		.loc 1 38 0
  89 0042 3FD9     		bls	.L19
  90              		.loc 1 39 0
  91 0044 0DF14809 		add	r9, sp, #72
  92 0048 C2F3053E 		ubfx	lr, r2, #12, #6
  93 004c 09EB0E03 		add	r3, r9, lr
  94 0050 13F8449C 		ldrb	r9, [r3, #-68]	@ zero_extendqisi2
  95              		.loc 1 45 0
  96 0054 8C42     		cmp	r4, r1
  97              		.loc 1 39 0
  98 0056 08F10103 		add	r3, r8, #1
  99              	.LVL7:
 100 005a 05F80890 		strb	r9, [r5, r8]
 101              		.loc 1 45 0
 102 005e 0CD9     		bls	.L6
 103              		.loc 1 47 0
 104 0060 9F42     		cmp	r7, r3
 105 0062 2FD9     		bls	.L19
 106              		.loc 1 48 0
 107 0064 C2F3851E 		ubfx	lr, r2, #6, #6
 108 0068 0DF14809 		add	r9, sp, #72
 109 006c 09EB0E08 		add	r8, r9, lr
 110 0070 18F8448C 		ldrb	r8, [r8, #-68]	@ zero_extendqisi2
ARM GAS  /tmp/cc2PY9z6.s 			page 3


 111 0074 05F80380 		strb	r8, [r5, r3]
 112 0078 0133     		adds	r3, r3, #1
 113              	.LVL8:
 114              	.L6:
 115              		.loc 1 55 0
 116 007a 8442     		cmp	r4, r0
 117 007c 0BD9     		bls	.L7
 118              		.loc 1 57 0
 119 007e BB42     		cmp	r3, r7
 120 0080 20D2     		bcs	.L19
 121              		.loc 1 58 0
 122 0082 02F03F02 		and	r2, r2, #63
 123              	.LVL9:
 124 0086 0DF14808 		add	r8, sp, #72
 125 008a 08EB020E 		add	lr, r8, r2
 126 008e 1EF8442C 		ldrb	r2, [lr, #-68]	@ zero_extendqisi2
 127 0092 EA54     		strb	r2, [r5, r3]
 128 0094 0133     		adds	r3, r3, #1
 129              	.LVL10:
 130              	.L7:
 131              		.loc 1 15 0
 132 0096 0CF1030C 		add	ip, ip, #3
 133              	.LVL11:
 134 009a 0331     		adds	r1, r1, #3
 135 009c 0330     		adds	r0, r0, #3
 136 009e 6445     		cmp	r4, ip
 137 00a0 14D9     		bls	.L22
 138              	.LVL12:
 139              	.L8:
 140              		.loc 1 18 0
 141 00a2 16F80C20 		ldrb	r2, [r6, ip]	@ zero_extendqisi2
 142 00a6 1204     		lsls	r2, r2, #16
 143              	.LVL13:
 144              		.loc 1 20 0
 145 00a8 8C42     		cmp	r4, r1
 146 00aa 04D9     		bls	.L3
 147              		.loc 1 21 0
 148 00ac 16F80180 		ldrb	r8, [r6, r1]	@ zero_extendqisi2
 149 00b0 4FEA0828 		lsl	r8, r8, #8
 150 00b4 4244     		add	r2, r2, r8
 151              	.LVL14:
 152              	.L3:
 153              		.loc 1 23 0
 154 00b6 8442     		cmp	r4, r0
 155              		.loc 1 24 0
 156 00b8 84BF     		itt	hi
 157 00ba 16F80080 		ldrbhi	r8, [r6, r0]	@ zero_extendqisi2
 158 00be 4244     		addhi	r2, r2, r8
 159              	.LVL15:
 160              		.loc 1 36 0
 161 00c0 BB42     		cmp	r3, r7
 162 00c2 B1D3     		bcc	.L23
 163              	.LVL16:
 164              	.L19:
 165              		.loc 1 74 0
 166 00c4 0120     		movs	r0, #1
 167              	.L5:
ARM GAS  /tmp/cc2PY9z6.s 			page 4


 168              		.loc 1 77 0
 169 00c6 13B0     		add	sp, sp, #76
 170 00c8 BDE8F083 		pop	{r4, r5, r6, r7, r8, r9, pc}
 171              	.LVL17:
 172              	.L22:
 173              		.loc 1 11 0
 174 00cc 0D48     		ldr	r0, .L24+4
 175 00ce A0FB0492 		umull	r9, r2, r0, r4
 176 00d2 5108     		lsrs	r1, r2, #1
 177 00d4 01EB4100 		add	r0, r1, r1, lsl #1
 178              		.loc 1 66 0
 179 00d8 201A     		subs	r0, r4, r0
 180 00da 0AD0     		beq	.L2
 181              		.loc 1 70 0 discriminator 1
 182 00dc 9F42     		cmp	r7, r3
 183 00de F1D9     		bls	.L19
 184              		.loc 1 71 0
 185 00e0 3D22     		movs	r2, #61
 186 00e2 EA54     		strb	r2, [r5, r3]
 187 00e4 0133     		adds	r3, r3, #1
 188              	.LVL18:
 189              		.loc 1 68 0
 190 00e6 0128     		cmp	r0, #1
 191 00e8 03D1     		bne	.L2
 192              		.loc 1 70 0
 193 00ea BB42     		cmp	r3, r7
 194 00ec EBD0     		beq	.L5
 195              		.loc 1 71 0
 196 00ee EA54     		strb	r2, [r5, r3]
 197 00f0 0133     		adds	r3, r3, #1
 198              	.LVL19:
 199              	.L2:
 200              		.loc 1 74 0
 201 00f2 BB42     		cmp	r3, r7
 202 00f4 E6D2     		bcs	.L19
 203              		.loc 1 75 0
 204 00f6 0020     		movs	r0, #0
 205 00f8 E854     		strb	r0, [r5, r3]
 206              		.loc 1 76 0
 207 00fa E4E7     		b	.L5
 208              	.LVL20:
 209              	.L11:
 210              		.loc 1 8 0
 211 00fc 2346     		mov	r3, r4
 212 00fe F8E7     		b	.L2
 213              	.L25:
 214              		.align	2
 215              	.L24:
 216 0100 00000000 		.word	.LC0
 217 0104 ABAAAAAA 		.word	-1431655765
 218              		.cfi_endproc
 219              	.LFE0:
 220              		.size	base64encode, .-base64encode
 221 0108 AFF30080 		.section	.text.base64decode,"ax",%progbits
 221      AFF30080 
 222              		.align	2
 223              		.p2align 4,,15
ARM GAS  /tmp/cc2PY9z6.s 			page 5


 224              		.global	base64decode
 225              		.thumb
 226              		.thumb_func
 227              		.type	base64decode, %function
 228              	base64decode:
 229              	.LFB1:
 230              		.loc 1 101 0
 231              		.cfi_startproc
 232              		@ args = 0, pretend = 0, frame = 0
 233              		@ frame_needed = 0, uses_anonymous_args = 0
 234              		@ link register save eliminated.
 235              	.LVL21:
 236              		.loc 1 102 0
 237 0000 4118     		adds	r1, r0, r1
 238              	.LVL22:
 239              		.loc 1 105 0
 240 0002 8842     		cmp	r0, r1
 241              		.loc 1 101 0
 242 0004 F0B4     		push	{r4, r5, r6, r7}
 243              	.LCFI2:
 244              		.cfi_def_cfa_offset 16
 245              		.loc 1 105 0
 246 0006 80F08180 		bcs	.L35
 247              		.cfi_offset 7, -4
 248              		.cfi_offset 6, -8
 249              		.cfi_offset 5, -12
 250              		.cfi_offset 4, -16
 251              	.LBB2:
 252              		.loc 1 107 0
 253 000a 0446     		mov	r4, r0
 254 000c 464F     		ldr	r7, .L53
 255 000e 14F8015B 		ldrb	r5, [r4], #1	@ zero_extendqisi2
 256 0012 C643     		mvns	r6, r0
 257 0014 7D5D     		ldrb	r5, [r7, r5]	@ zero_extendqisi2
 258              	.LVL23:
 259 0016 8819     		adds	r0, r1, r6
 260              	.LBE2:
 261              		.loc 1 103 0
 262 0018 0126     		movs	r6, #1
 263              	.LBB3:
 264              		.loc 1 109 0
 265 001a 412D     		cmp	r5, #65
 266              	.LBE3:
 267              		.loc 1 103 0
 268 001c 4FF0000C 		mov	ip, #0
 269 0020 00EA0600 		and	r0, r0, r6
 270              	.LBB4:
 271              		.loc 1 109 0
 272 0024 5FD0     		beq	.L30
 273 0026 422D     		cmp	r5, #66
 274 0028 65D0     		beq	.L39
 275 002a 402D     		cmp	r5, #64
 276              		.loc 1 117 0
 277 002c 18BF     		it	ne
 278 002e 45F04006 		orrne	r6, r5, #64
 279              	.LVL24:
 280              	.LBE4:
ARM GAS  /tmp/cc2PY9z6.s 			page 6


 281              		.loc 1 105 0
 282 0032 8C42     		cmp	r4, r1
 283 0034 57D0     		beq	.L30
 284 0036 E8B1     		cbz	r0, .L32
 285              	.LBB5:
 286              		.loc 1 107 0
 287 0038 14F8010B 		ldrb	r0, [r4], #1	@ zero_extendqisi2
 288 003c 385C     		ldrb	r0, [r7, r0]	@ zero_extendqisi2
 289              	.LVL25:
 290              		.loc 1 109 0
 291 003e 4128     		cmp	r0, #65
 292 0040 51D0     		beq	.L30
 293 0042 4228     		cmp	r0, #66
 294 0044 57D0     		beq	.L39
 295 0046 4028     		cmp	r0, #64
 296 0048 12D0     		beq	.L46
 297              		.loc 1 117 0
 298 004a 40EA8616 		orr	r6, r0, r6, lsl #6
 299              	.LVL26:
 300              		.loc 1 120 0
 301 004e 16F0807F 		tst	r6, #16777216
 302 0052 0DD0     		beq	.L46
 303              		.loc 1 122 0
 304 0054 1868     		ldr	r0, [r3, #0]
 305 0056 0CF1030C 		add	ip, ip, #3
 306              	.LVL27:
 307 005a 8445     		cmp	ip, r0
 308 005c 4BD8     		bhi	.L39
 309              		.loc 1 123 0
 310 005e 300C     		lsrs	r0, r6, #16
 311 0060 02F8010B 		strb	r0, [r2], #1
 312              	.LVL28:
 313              		.loc 1 124 0
 314 0064 300A     		lsrs	r0, r6, #8
 315 0066 02F8010B 		strb	r0, [r2], #1
 316              		.loc 1 125 0
 317 006a 02F8016B 		strb	r6, [r2], #1
 318              	.LVL29:
 319              		.loc 1 126 0
 320 006e 0126     		movs	r6, #1
 321              	.LVL30:
 322              	.L46:
 323              	.LBE5:
 324              		.loc 1 105 0
 325 0070 8C42     		cmp	r4, r1
 326 0072 38D0     		beq	.L30
 327              	.L32:
 328              	.LBB6:
 329              		.loc 1 107 0
 330 0074 14F8010B 		ldrb	r0, [r4], #1	@ zero_extendqisi2
 331 0078 385C     		ldrb	r0, [r7, r0]	@ zero_extendqisi2
 332              		.loc 1 109 0
 333 007a 4128     		cmp	r0, #65
 334 007c 33D0     		beq	.L30
 335 007e 4228     		cmp	r0, #66
 336 0080 39D0     		beq	.L39
 337 0082 4028     		cmp	r0, #64
ARM GAS  /tmp/cc2PY9z6.s 			page 7


 338 0084 12D0     		beq	.L29
 339              		.loc 1 117 0
 340 0086 40EA8616 		orr	r6, r0, r6, lsl #6
 341              	.LVL31:
 342              		.loc 1 120 0
 343 008a 16F0807F 		tst	r6, #16777216
 344 008e 0DD0     		beq	.L29
 345              		.loc 1 122 0
 346 0090 1868     		ldr	r0, [r3, #0]
 347 0092 0CF1030C 		add	ip, ip, #3
 348              	.LVL32:
 349 0096 8445     		cmp	ip, r0
 350 0098 2DD8     		bhi	.L39
 351              		.loc 1 123 0
 352 009a 1046     		mov	r0, r2
 353 009c 350C     		lsrs	r5, r6, #16
 354 009e 00F8015B 		strb	r5, [r0], #1
 355              	.LVL33:
 356              		.loc 1 124 0
 357 00a2 350A     		lsrs	r5, r6, #8
 358 00a4 5570     		strb	r5, [r2, #1]
 359              		.loc 1 125 0
 360 00a6 4670     		strb	r6, [r0, #1]
 361 00a8 821C     		adds	r2, r0, #2
 362              	.LVL34:
 363              		.loc 1 126 0
 364 00aa 0126     		movs	r6, #1
 365              	.LVL35:
 366              	.L29:
 367              		.loc 1 107 0 discriminator 1
 368 00ac 14F8010B 		ldrb	r0, [r4], #1	@ zero_extendqisi2
 369 00b0 385C     		ldrb	r0, [r7, r0]	@ zero_extendqisi2
 370              		.loc 1 109 0 discriminator 1
 371 00b2 4128     		cmp	r0, #65
 372 00b4 17D0     		beq	.L30
 373              		.loc 1 109 0 is_stmt 0
 374 00b6 4228     		cmp	r0, #66
 375 00b8 1DD0     		beq	.L39
 376 00ba 4028     		cmp	r0, #64
 377 00bc D8D0     		beq	.L46
 378              		.loc 1 117 0 is_stmt 1
 379 00be 40EA8616 		orr	r6, r0, r6, lsl #6
 380              	.LVL36:
 381              		.loc 1 120 0
 382 00c2 16F0807F 		tst	r6, #16777216
 383 00c6 D3D0     		beq	.L46
 384              		.loc 1 122 0
 385 00c8 1868     		ldr	r0, [r3, #0]
 386 00ca 0CF1030C 		add	ip, ip, #3
 387              	.LVL37:
 388 00ce 8445     		cmp	ip, r0
 389 00d0 11D8     		bhi	.L39
 390              		.loc 1 123 0
 391 00d2 1046     		mov	r0, r2
 392 00d4 350C     		lsrs	r5, r6, #16
 393 00d6 00F8015B 		strb	r5, [r0], #1
 394              	.LVL38:
ARM GAS  /tmp/cc2PY9z6.s 			page 8


 395              		.loc 1 124 0
 396 00da 350A     		lsrs	r5, r6, #8
 397 00dc 5570     		strb	r5, [r2, #1]
 398              		.loc 1 125 0
 399 00de 4670     		strb	r6, [r0, #1]
 400 00e0 821C     		adds	r2, r0, #2
 401              	.LVL39:
 402              		.loc 1 126 0
 403 00e2 0126     		movs	r6, #1
 404 00e4 C4E7     		b	.L46
 405              	.LVL40:
 406              	.L30:
 407              	.LBE6:
 408              		.loc 1 131 0
 409 00e6 16F4802F 		tst	r6, #262144
 410 00ea 12D0     		beq	.L51
 411              		.loc 1 133 0
 412 00ec 1968     		ldr	r1, [r3, #0]
 413              	.LVL41:
 414 00ee 0CF1020C 		add	ip, ip, #2
 415              	.LVL42:
 416 00f2 8C45     		cmp	ip, r1
 417 00f4 02D9     		bls	.L52
 418              	.LVL43:
 419              	.L39:
 420              		.loc 1 139 0
 421 00f6 0120     		movs	r0, #1
 422              	.LVL44:
 423              	.L31:
 424              		.loc 1 145 0
 425 00f8 F0BC     		pop	{r4, r5, r6, r7}
 426 00fa 7047     		bx	lr
 427              	.LVL45:
 428              	.L52:
 429              		.loc 1 134 0
 430 00fc B00A     		lsrs	r0, r6, #10
 431              		.loc 1 135 0
 432 00fe B608     		lsrs	r6, r6, #2
 433              		.loc 1 134 0
 434 0100 1070     		strb	r0, [r2, #0]
 435              	.LVL46:
 436              		.loc 1 135 0
 437 0102 5670     		strb	r6, [r2, #1]
 438              	.LVL47:
 439              	.L27:
 440              		.loc 1 143 0
 441 0104 C3F800C0 		str	ip, [r3, #0]
 442              		.loc 1 144 0
 443 0108 0020     		movs	r0, #0
 444 010a F5E7     		b	.L31
 445              	.LVL48:
 446              	.L35:
 447              		.loc 1 103 0
 448 010c 4FF0000C 		mov	ip, #0
 449 0110 F8E7     		b	.L27
 450              	.LVL49:
 451              	.L51:
ARM GAS  /tmp/cc2PY9z6.s 			page 9


 452              		.loc 1 137 0
 453 0112 16F4805F 		tst	r6, #4096
 454 0116 F5D0     		beq	.L27
 455              		.loc 1 139 0
 456 0118 1968     		ldr	r1, [r3, #0]
 457              	.LVL50:
 458 011a 0CF1010C 		add	ip, ip, #1
 459              	.LVL51:
 460 011e 8C45     		cmp	ip, r1
 461 0120 E9D8     		bhi	.L39
 462              		.loc 1 140 0
 463 0122 3609     		lsrs	r6, r6, #4
 464 0124 1670     		strb	r6, [r2, #0]
 465              	.LVL52:
 466 0126 EDE7     		b	.L27
 467              	.L54:
 468              		.align	2
 469              	.L53:
 470 0128 00000000 		.word	.LANCHOR0
 471              		.cfi_endproc
 472              	.LFE1:
 473              		.size	base64decode, .-base64decode
 474 012c AFF30080 		.section	.rodata.str1.4,"aMS",%progbits,1
 475              		.align	2
 476              	.LC0:
 477 0000 41424344 		.ascii	"ABCDEFGHIJKLMNOPQRSTUVWXYZabcdefghijklmnopqrstuvwxy"
 477      45464748 
 477      494A4B4C 
 477      4D4E4F50 
 477      51525354 
 478 0033 7A303132 		.ascii	"z0123456789+/\000"
 478      33343536 
 478      3738392B 
 478      2F00
 479 0041 000000   		.section	.rodata.d,"a",%progbits
 480              		.align	2
 481              		.set	.LANCHOR0,. + 0
 482              		.type	d, %object
 483              		.size	d, 256
 484              	d:
 485 0000 42       		.byte	66
 486 0001 42       		.byte	66
 487 0002 42       		.byte	66
 488 0003 42       		.byte	66
 489 0004 42       		.byte	66
 490 0005 42       		.byte	66
 491 0006 42       		.byte	66
 492 0007 42       		.byte	66
 493 0008 42       		.byte	66
 494 0009 40       		.byte	64
 495 000a 42       		.byte	66
 496 000b 42       		.byte	66
 497 000c 42       		.byte	66
 498 000d 42       		.byte	66
 499 000e 42       		.byte	66
 500 000f 42       		.byte	66
 501 0010 42       		.byte	66
ARM GAS  /tmp/cc2PY9z6.s 			page 10


 502 0011 42       		.byte	66
 503 0012 42       		.byte	66
 504 0013 42       		.byte	66
 505 0014 42       		.byte	66
 506 0015 42       		.byte	66
 507 0016 42       		.byte	66
 508 0017 42       		.byte	66
 509 0018 42       		.byte	66
 510 0019 42       		.byte	66
 511 001a 42       		.byte	66
 512 001b 42       		.byte	66
 513 001c 42       		.byte	66
 514 001d 42       		.byte	66
 515 001e 42       		.byte	66
 516 001f 42       		.byte	66
 517 0020 42       		.byte	66
 518 0021 42       		.byte	66
 519 0022 42       		.byte	66
 520 0023 42       		.byte	66
 521 0024 42       		.byte	66
 522 0025 42       		.byte	66
 523 0026 42       		.byte	66
 524 0027 42       		.byte	66
 525 0028 42       		.byte	66
 526 0029 42       		.byte	66
 527 002a 42       		.byte	66
 528 002b 3E       		.byte	62
 529 002c 42       		.byte	66
 530 002d 42       		.byte	66
 531 002e 42       		.byte	66
 532 002f 3F       		.byte	63
 533 0030 34       		.byte	52
 534 0031 35       		.byte	53
 535 0032 36       		.byte	54
 536 0033 37       		.byte	55
 537 0034 38       		.byte	56
 538 0035 39       		.byte	57
 539 0036 3A       		.byte	58
 540 0037 3B       		.byte	59
 541 0038 3C       		.byte	60
 542 0039 3D       		.byte	61
 543 003a 42       		.byte	66
 544 003b 42       		.byte	66
 545 003c 42       		.byte	66
 546 003d 41       		.byte	65
 547 003e 42       		.byte	66
 548 003f 42       		.byte	66
 549 0040 42       		.byte	66
 550 0041 00       		.byte	0
 551 0042 01       		.byte	1
 552 0043 02       		.byte	2
 553 0044 03       		.byte	3
 554 0045 04       		.byte	4
 555 0046 05       		.byte	5
 556 0047 06       		.byte	6
 557 0048 07       		.byte	7
 558 0049 08       		.byte	8
ARM GAS  /tmp/cc2PY9z6.s 			page 11


 559 004a 09       		.byte	9
 560 004b 0A       		.byte	10
 561 004c 0B       		.byte	11
 562 004d 0C       		.byte	12
 563 004e 0D       		.byte	13
 564 004f 0E       		.byte	14
 565 0050 0F       		.byte	15
 566 0051 10       		.byte	16
 567 0052 11       		.byte	17
 568 0053 12       		.byte	18
 569 0054 13       		.byte	19
 570 0055 14       		.byte	20
 571 0056 15       		.byte	21
 572 0057 16       		.byte	22
 573 0058 17       		.byte	23
 574 0059 18       		.byte	24
 575 005a 19       		.byte	25
 576 005b 42       		.byte	66
 577 005c 42       		.byte	66
 578 005d 42       		.byte	66
 579 005e 42       		.byte	66
 580 005f 42       		.byte	66
 581 0060 42       		.byte	66
 582 0061 1A       		.byte	26
 583 0062 1B       		.byte	27
 584 0063 1C       		.byte	28
 585 0064 1D       		.byte	29
 586 0065 1E       		.byte	30
 587 0066 1F       		.byte	31
 588 0067 20       		.byte	32
 589 0068 21       		.byte	33
 590 0069 22       		.byte	34
 591 006a 23       		.byte	35
 592 006b 24       		.byte	36
 593 006c 25       		.byte	37
 594 006d 26       		.byte	38
 595 006e 27       		.byte	39
 596 006f 28       		.byte	40
 597 0070 29       		.byte	41
 598 0071 2A       		.byte	42
 599 0072 2B       		.byte	43
 600 0073 2C       		.byte	44
 601 0074 2D       		.byte	45
 602 0075 2E       		.byte	46
 603 0076 2F       		.byte	47
 604 0077 30       		.byte	48
 605 0078 31       		.byte	49
 606 0079 32       		.byte	50
 607 007a 33       		.byte	51
 608 007b 42       		.byte	66
 609 007c 42       		.byte	66
 610 007d 42       		.byte	66
 611 007e 42       		.byte	66
 612 007f 42       		.byte	66
 613 0080 42       		.byte	66
 614 0081 42       		.byte	66
 615 0082 42       		.byte	66
ARM GAS  /tmp/cc2PY9z6.s 			page 12


 616 0083 42       		.byte	66
 617 0084 42       		.byte	66
 618 0085 42       		.byte	66
 619 0086 42       		.byte	66
 620 0087 42       		.byte	66
 621 0088 42       		.byte	66
 622 0089 42       		.byte	66
 623 008a 42       		.byte	66
 624 008b 42       		.byte	66
 625 008c 42       		.byte	66
 626 008d 42       		.byte	66
 627 008e 42       		.byte	66
 628 008f 42       		.byte	66
 629 0090 42       		.byte	66
 630 0091 42       		.byte	66
 631 0092 42       		.byte	66
 632 0093 42       		.byte	66
 633 0094 42       		.byte	66
 634 0095 42       		.byte	66
 635 0096 42       		.byte	66
 636 0097 42       		.byte	66
 637 0098 42       		.byte	66
 638 0099 42       		.byte	66
 639 009a 42       		.byte	66
 640 009b 42       		.byte	66
 641 009c 42       		.byte	66
 642 009d 42       		.byte	66
 643 009e 42       		.byte	66
 644 009f 42       		.byte	66
 645 00a0 42       		.byte	66
 646 00a1 42       		.byte	66
 647 00a2 42       		.byte	66
 648 00a3 42       		.byte	66
 649 00a4 42       		.byte	66
 650 00a5 42       		.byte	66
 651 00a6 42       		.byte	66
 652 00a7 42       		.byte	66
 653 00a8 42       		.byte	66
 654 00a9 42       		.byte	66
 655 00aa 42       		.byte	66
 656 00ab 42       		.byte	66
 657 00ac 42       		.byte	66
 658 00ad 42       		.byte	66
 659 00ae 42       		.byte	66
 660 00af 42       		.byte	66
 661 00b0 42       		.byte	66
 662 00b1 42       		.byte	66
 663 00b2 42       		.byte	66
 664 00b3 42       		.byte	66
 665 00b4 42       		.byte	66
 666 00b5 42       		.byte	66
 667 00b6 42       		.byte	66
 668 00b7 42       		.byte	66
 669 00b8 42       		.byte	66
 670 00b9 42       		.byte	66
 671 00ba 42       		.byte	66
 672 00bb 42       		.byte	66
ARM GAS  /tmp/cc2PY9z6.s 			page 13


 673 00bc 42       		.byte	66
 674 00bd 42       		.byte	66
 675 00be 42       		.byte	66
 676 00bf 42       		.byte	66
 677 00c0 42       		.byte	66
 678 00c1 42       		.byte	66
 679 00c2 42       		.byte	66
 680 00c3 42       		.byte	66
 681 00c4 42       		.byte	66
 682 00c5 42       		.byte	66
 683 00c6 42       		.byte	66
 684 00c7 42       		.byte	66
 685 00c8 42       		.byte	66
 686 00c9 42       		.byte	66
 687 00ca 42       		.byte	66
 688 00cb 42       		.byte	66
 689 00cc 42       		.byte	66
 690 00cd 42       		.byte	66
 691 00ce 42       		.byte	66
 692 00cf 42       		.byte	66
 693 00d0 42       		.byte	66
 694 00d1 42       		.byte	66
 695 00d2 42       		.byte	66
 696 00d3 42       		.byte	66
 697 00d4 42       		.byte	66
 698 00d5 42       		.byte	66
 699 00d6 42       		.byte	66
 700 00d7 42       		.byte	66
 701 00d8 42       		.byte	66
 702 00d9 42       		.byte	66
 703 00da 42       		.byte	66
 704 00db 42       		.byte	66
 705 00dc 42       		.byte	66
 706 00dd 42       		.byte	66
 707 00de 42       		.byte	66
 708 00df 42       		.byte	66
 709 00e0 42       		.byte	66
 710 00e1 42       		.byte	66
 711 00e2 42       		.byte	66
 712 00e3 42       		.byte	66
 713 00e4 42       		.byte	66
 714 00e5 42       		.byte	66
 715 00e6 42       		.byte	66
 716 00e7 42       		.byte	66
 717 00e8 42       		.byte	66
 718 00e9 42       		.byte	66
 719 00ea 42       		.byte	66
 720 00eb 42       		.byte	66
 721 00ec 42       		.byte	66
 722 00ed 42       		.byte	66
 723 00ee 42       		.byte	66
 724 00ef 42       		.byte	66
 725 00f0 42       		.byte	66
 726 00f1 42       		.byte	66
 727 00f2 42       		.byte	66
 728 00f3 42       		.byte	66
 729 00f4 42       		.byte	66
ARM GAS  /tmp/cc2PY9z6.s 			page 14


 730 00f5 42       		.byte	66
 731 00f6 42       		.byte	66
 732 00f7 42       		.byte	66
 733 00f8 42       		.byte	66
 734 00f9 42       		.byte	66
 735 00fa 42       		.byte	66
 736 00fb 42       		.byte	66
 737 00fc 42       		.byte	66
 738 00fd 42       		.byte	66
 739 00fe 42       		.byte	66
 740 00ff 42       		.byte	66
 741              		.text
 742              	.Letext0: