ARM GAS  /tmp/cc2PY9z6.s 			page 1


   1              		.syntax unified
   2              		.cpu cortex-m3
   3              		.fpu softvfp
   4              		.eabi_attribute 20, 1
   5              		.eabi_attribute 21, 1
   6              		.eabi_attribute 23, 3
   7              		.eabi_attribute 24, 1
   8              		.eabi_attribute 25, 1
   9              		.eabi_attribute 26, 1
  10              		.eabi_attribute 30, 2
  11              		.eabi_attribute 18, 4
  12              		.thumb
  13              		.file	"base64.c"
  14              		.section	.debug_abbrev,"",%progbits
  15              	.Ldebug_abbrev0:
  16              		.section	.debug_info,"",%progbits
  17              	.Ldebug_info0:
  18              		.section	.debug_line,"",%progbits
  19              	.Ldebug_line0:
  20 0000 B4010000 		.text
  20      02000501 
  20      00000201 
  20      FB0E0D00 
  20      01010101 
  21              	.Ltext0:
  22              		.cfi_sections	.debug_frame
  23              		.section	.text.base64encode,"ax",%progbits
  24              		.align	2
  25              		.p2align 4,,15
  26              		.global	base64encode
  27              		.thumb
  28              		.thumb_func
  29              		.type	base64encode, %function
  30              	base64encode:
  31              	.LFB0:
  32              		.file 1 "./src/base64.c"
  33              		.loc 1 5 0
  34              		.cfi_startproc
  35              		@ args = 0, pretend = 0, frame = 72
  36              		@ frame_needed = 0, uses_anonymous_args = 0
  37              	.LVL0:
  38 0000 2DE9F043 		push	{r4, r5, r6, r7, r8, r9, lr}
  39              	.LCFI0:
  40              		.cfi_def_cfa_offset 28
  41 0004 93B0     		sub	sp, sp, #76
  42              	.LCFI1:
  43              		.cfi_def_cfa_offset 104
  44              		.loc 1 5 0
  45 0006 0C46     		mov	r4, r1
  46              		.cfi_offset 14, -4
  47              		.cfi_offset 9, -8
  48              		.cfi_offset 8, -12
  49              		.cfi_offset 7, -16
  50              		.cfi_offset 6, -20
  51              		.cfi_offset 5, -24
  52              		.cfi_offset 4, -28
  53 0008 0646     		mov	r6, r0
ARM GAS  /tmp/cc2PY9z6.s 			page 2


  54 000a 1546     		mov	r5, r2
  55              		.loc 1 6 0
  56 000c 01A8     		add	r0, sp, #4
  57              	.LVL1:
  58 000e 3C49     		ldr	r1, .L24
  59              	.LVL2:
  60 0010 4122     		movs	r2, #65
  61              	.LVL3:
  62              		.loc 1 5 0
  63 0012 1F46     		mov	r7, r3
  64              		.loc 1 6 0
  65 0014 FFF7FEFF 		bl	memcpy
  66              	.LVL4:
  67              		.loc 1 15 0
  68 0018 002C     		cmp	r4, #0
  69 001a 6FD0     		beq	.L11
  70 001c 4FF0000C 		mov	ip, #0
  71 0020 0220     		movs	r0, #2
  72 0022 0121     		movs	r1, #1
  73 0024 6346     		mov	r3, ip
  74 0026 3CE0     		b	.L8
  75              	.LVL5:
  76              	.L23:
  77              		.loc 1 37 0
  78 0028 0DF14808 		add	r8, sp, #72
  79 002c C2F3854E 		ubfx	lr, r2, #18, #6
  80 0030 08EB0E09 		add	r9, r8, lr
  81 0034 19F8449C 		ldrb	r9, [r9, #-68]	@ zero_extendqisi2
  82 0038 03F10108 		add	r8, r3, #1
  83              	.LVL6:
  84              		.loc 1 38 0
  85 003c 4745     		cmp	r7, r8
  86              		.loc 1 37 0
  87 003e 05F80390 		strb	r9, [r5, r3]
  88              		.loc 1 38 0
  89 0042 3FD9     		bls	.L19
  90              		.loc 1 39 0
  91 0044 0DF14809 		add	r9, sp, #72
  92 0048 C2F3053E 		ubfx	lr, r2, #12, #6
  93 004c 09EB0E03 		add	r3, r9, lr
  94 0050 13F8449C 		ldrb	r9, [r3, #-68]	@ zero_extendqisi2
  95              		.loc 1 45 0
  96 0054 8C42     		cmp	r4, r1
  97              		.loc 1 39 0
  98 0056 08F10103 		add	r3, r8, #1
  99              	.LVL7:
 100 005a 05F80890 		strb	r9, [r5, r8]
 101              		.loc 1 45 0
 102 005e 0CD9     		bls	.L6
 103              		.loc 1 47 0
 104 0060 9F42     		cmp	r7, r3
 105 0062 2FD9     		bls	.L19
 106              		.loc 1 48 0
 107 0064 C2F3851E 		ubfx	lr, r2, #6, #6
 108 0068 0DF14809 		add	r9, sp, #72
 109 006c 09EB0E08 		add	r8, r9, lr
 110 0070 18F8448C 		ldrb	r8, [r8, #-68]	@ zero_extendqisi2
ARM GAS  /tmp/cc2PY9z6.s 			page 3


 111 0074 05F80380 		strb	r8, [r5, r3]
 112 0078 0133     		adds	r3, r3, #1
 113              	.LVL8:
 114              	.L6:
 115              		.loc 1 55 0
 116 007a 8442     		cmp	r4, r0
 117 007c 0BD9     		bls	.L7
 118              		.loc 1 57 0
 119 007e BB42     		cmp	r3, r7
 120 0080 20D2     		bcs	.L19
 121              		.loc 1 58 0
 122 0082 02F03F02 		and	r2, r2, #63
 123              	.LVL9:
 124 0086 0DF14808 		add	r8, sp, #72
 125 008a 08EB020E 		add	lr, r8, r2
 126 008e 1EF8442C 		ldrb	r2, [lr, #-68]	@ zero_extendqisi2
 127 0092 EA54     		strb	r2, [r5, r3]
 128 0094 0133     		adds	r3, r3, #1
 129              	.LVL10:
 130              	.L7:
 131              		.loc 1 15 0
 132 0096 0CF1030C 		add	ip, ip, #3
 133              	.LVL11:
 134 009a 0331     		adds	r1, r1, #3
 135 009c 0330     		adds	r0, r0, #3
 136 009e 6445     		cmp	r4, ip
 137 00a0 14D9     		bls	.L22
 138              	.LVL12:
 139              	.L8:
 140              		.loc 1 18 0
 141 00a2 16F80C20 		ldrb	r2, [r6, ip]	@ zero_extendqisi2
 142 00a6 1204     		lsls	r2, r2, #16
 143              	.LVL13:
 144              		.loc 1 20 0
 145 00a8 8C42     		cmp	r4, r1
 146 00aa 04D9     		bls	.L3
 147              		.loc 1 21 0
 148 00ac 16F80180 		ldrb	r8, [r6, r1]	@ zero_extendqisi2
 149 00b0 4FEA0828 		lsl	r8, r8, #8
 150 00b4 4244     		add	r2, r2, r8
 151              	.LVL14:
 152              	.L3:
 153              		.loc 1 23 0
 154 00b6 8442     		cmp	r4, r0
 155              		.loc 1 24 0
 156 00b8 84BF     		itt	hi
 157 00ba 16F80080 		ldrbhi	r8, [r6, r0]	@ zero_extendqisi2
 158 00be 4244     		addhi	r2, r2, r8
 159              	.LVL15:
 160              		.loc 1 36 0
 161 00c0 BB42     		cmp	r3, r7
 162 00c2 B1D3     		bcc	.L23
 163              	.LVL16:
 164              	.L19:
 165              		.loc 1 74 0
 166 00c4 0120     		movs	r0, #1
 167              	.L5:
ARM GAS  /tmp/cc2PY9z6.s 			page 4


 168              		.loc 1 77 0
 169 00c6 13B0     		add	sp, sp, #76
 170 00c8 BDE8F083 		pop	{r4, r5, r6, r7, r8, r9, pc}
 171              	.LVL17:
 172              	.L22:
 173              		.loc 1 11 0
 174 00cc 0D48     		ldr	r0, .L24+4
 175 00ce A0FB0492 		umull	r9, r2, r0, r4
 176 00d2 5108     		lsrs	r1, r2, #1
 177 00d4 01EB4100 		add	r0, r1, r1, lsl #1
 178              		.loc 1 66 0
 179 00d8 201A     		subs	r0, r4, r0
 180 00da 0AD0     		beq	.L2
 181              		.loc 1 70 0 discriminator 1
 182 00dc 9F42     		cmp	r7, r3
 183 00de F1D9     		bls	.L19
 184              		.loc 1 71 0
 185 00e0 3D22     		movs	r2, #61
 186 00e2 EA54     		strb	r2, [r5, r3]
 187 00e4 0133     		adds	r3, r3, #1
 188              	.LVL18:
 189              		.loc 1 68 0
 190 00e6 0128     		cmp	r0, #1
 191 00e8 03D1     		bne	.L2
 192              		.loc 1 70 0
 193 00ea BB42     		cmp	r3, r7
 194 00ec EBD0     		beq	.L5
 195              		.loc 1 71 0
 196 00ee EA54     		strb	r2, [r5, r3]
 197 00f0 0133     		adds	r3, r3, #1
 198              	.LVL19:
 199              	.L2:
 200              		.loc 1 74 0
 201 00f2 BB42     		cmp	r3, r7
 202 00f4 E6D2     		bcs	.L19
 203              		.loc 1 75 0
 204 00f6 0020     		movs	r0, #0
 205 00f8 E854     		strb	r0, [r5, r3]
 206              		.loc 1 76 0
 207 00fa E4E7     		b	.L5
 208              	.LVL20:
 209              	.L11:
 210              		.loc 1 8 0
 211 00fc 2346     		mov	r3, r4
 212 00fe F8E7     		b	.L2
 213              	.L25:
 214              		.align	2
 215              	.L24:
 216 0100 00000000 		.word	.LC0
 217 0104 ABAAAAAA 		.word	-1431655765
 218              		.cfi_endproc
 219              	.LFE0:
 220              		.size	base64encode, .-base64encode
 221 0108 AFF30080 		.section	.text.base64decode,"ax",%progbits
 221      AFF30080 
 222              		.align	2
 223              		.p2align 4,,15
ARM GAS  /tmp/cc2PY9z6.s 			page 5


 224              		.global	base64decode
 225              		.thumb
 226              		.thumb_func
 227              		.type	base64decode, %function
 228              	base64decode:
 229              	.LFB1:
 230              		.loc 1 101 0
 231              		.cfi_startproc
 232              		@ args = 0, pretend = 0, frame = 0
 233              		@ frame_needed = 0, uses_anonymous_args = 0
 234              		@ link register save eliminated.
 235              	.LVL21:
 236              		.loc 1 102 0
 237 0000 4118     		adds	r1, r0, r1
 238              	.LVL22:
 239              		.loc 1 105 0
 240 0002 8842     		cmp	r0, r1
 241              		.loc 1 101 0
 242 0004 F0B4     		push	{r4, r5, r6, r7}
 243              	.LCFI2:
 244              		.cfi_def_cfa_offset 16
 245              		.loc 1 105 0
 246 0006 80F08180 		bcs	.L35
 247              		.cfi_offset 7, -4
 248              		.cfi_offset 6, -8
 249              		.cfi_offset 5, -12
 250              		.cfi_offset 4, -16
 251              	.LBB2:
 252              		.loc 1 107 0
 253 000a 0446     		mov	r4, r0
 254 000c 464F     		ldr	r7, .L53
 255 000e 14F8015B 		ldrb	r5, [r4], #1	@ zero_extendqisi2
 256 0012 C643     		mvns	r6, r0
 257 0014 7D5D     		ldrb	r5, [r7, r5]	@ zero_extendqisi2
 258              	.LVL23:
 259 0016 8819     		adds	r0, r1, r6
 260              	.LBE2:
 261              		.loc 1 103 0
 262 0018 0126     		movs	r6, #1
 263              	.LBB3:
 264              		.loc 1 109 0
 265 001a 412D     		cmp	r5, #65
 266              	.LBE3:
 267              		.loc 1 103 0
 268 001c 4FF0000C 		mov	ip, #0
 269 0020 00EA0600 		and	r0, r0, r6
 270              	.LBB4:
 271              		.loc 1 109 0
 272 0024 5FD0     		beq	.L30
 273 0026 422D     		cmp	r5, #66
 274 0028 65D0     		beq	.L39
 275 002a 402D     		cmp	r5, #64
 276              		.loc 1 117 0
 277 002c 18BF     		it	ne
 278 002e 45F04006 		orrne	r6, r5, #64
 279              	.LVL24:
 280              	.LBE4:
ARM GAS  /tmp/cc2PY9z6.s 			page 6


 281              		.loc 1 105 0
 282 0032 8C42     		cmp	r4, r1
 283 0034 57D0     		beq	.L30
 284 0036 E8B1     		cbz	r0, .L32
 285              	.LBB5:
 286              		.loc 1 107 0
 287 0038 14F8010B 		ldrb	r0, [r4], #1	@ zero_extendqisi2
 288 003c 385C     		ldrb	r0, [r7, r0]	@ zero_extendqisi2
 289              	.LVL25:
 290              		.loc 1 109 0
 291 003e 4128     		cmp	r0, #65
 292 0040 51D0     		beq	.L30
 293 0042 4228     		cmp	r0, #66
 294 0044 57D0     		beq	.L39
 295 0046 4028     		cmp	r0, #64
 296 0048 12D0     		beq	.L46
 297              		.loc 1 117 0
 298 004a 40EA8616 		orr	r6, r0, r6, lsl #6
 299              	.LVL26:
 300              		.loc 1 120 0
 301 004e 16F0807F 		tst	r6, #16777216
 302 0052 0DD0     		beq	.L46
 303              		.loc 1 122 0
 304 0054 1868     		ldr	r0, [r3, #0]
 305 0056 0CF1030C 		add	ip, ip, #3
 306              	.LVL27:
 307 005a 8445     		cmp	ip, r0
 308 005c 4BD8     		bhi	.L39
 309              		.loc 1 123 0
 310 005e 300C     		lsrs	r0, r6, #16
 311 0060 02F8010B 		strb	r0, [r2], #1
 312              	.LVL28:
 313              		.loc 1 124 0
 314 0064 300A     		lsrs	r0, r6, #8
 315 0066 02F8010B 		strb	r0, [r2], #1
 316              		.loc 1 125 0
 317 006a 02F8016B 		strb	r6, [r2], #1
 318              	.LVL29:
 319              		.loc 1 126 0
 320 006e 0126     		movs	r6, #1
 321              	.LVL30:
 322              	.L46:
 323              	.LBE5:
 324              		.loc 1 105 0
 325 0070 8C42     		cmp	r4, r1
 326 0072 38D0     		beq	.L30
 327              	.L32:
 328              	.LBB6:
 329              		.loc 1 107 0
 330 0074 14F8010B 		ldrb	r0, [r4], #1	@ zero_extendqisi2
 331 0078 385C     		ldrb	r0, [r7, r0]	@ zero_extendqisi2
 332              		.loc 1 109 0
 333 007a 4128     		cmp	r0, #65
 334 007c 33D0     		beq	.L30
 335 007e 4228     		cmp	r0, #66
 336 0080 39D0     		beq	.L39
 337 0082 4028     		cmp	r0, #64
ARM GAS  /tmp/cc2PY9z6.s 			page 7


 338 0084 12D0     		beq	.L29
 339              		.loc 1 117 0
 340 0086 40EA8616 		orr	r6, r0, r6, lsl #6
 341              	.LVL31:
 342              		.loc 1 120 0
 343 008a 16F0807F 		tst	r6, #16777216
 344 008e 0DD0     		beq	.L29
 345              		.loc 1 122 0
 346 0090 1868     		ldr	r0, [r3, #0]
 347 0092 0CF1030C 		add	ip, ip, #3
 348              	.LVL32:
 349 0096 8445     		cmp	ip, r0
 350 0098 2DD8     		bhi	.L39
 351              		.loc 1 123 0
 352 009a 1046     		mov	r0, r2
 353 009c 350C     		lsrs	r5, r6, #16
 354 009e 00F8015B 		strb	r5, [r0], #1
 355              	.LVL33:
 356              		.loc 1 124 0
 357 00a2 350A     		lsrs	r5, r6, #8
 358 00a4 5570     		strb	r5, [r2, #1]
 359              		.loc 1 125 0
 360 00a6 4670     		strb	r6, [r0, #1]
 361 00a8 821C     		adds	r2, r0, #2
 362              	.LVL34:
 363              		.loc 1 126 0
 364 00aa 0126     		movs	r6, #1
 365              	.LVL35:
 366              	.L29:
 367              		.loc 1 107 0 discriminator 1
 368 00ac 14F8010B 		ldrb	r0, [r4], #1	@ zero_extendqisi2
 369 00b0 385C     		ldrb	r0, [r7, r0]	@ zero_extendqisi2
 370              		.loc 1 109 0 discriminator 1
 371 00b2 4128     		cmp	r0, #65
 372 00b4 17D0     		beq	.L30
 373              		.loc 1 109 0 is_stmt 0
 374 00b6 4228     		cmp	r0, #66
 375 00b8 1DD0     		beq	.L39
 376 00ba 4028     		cmp	r0, #64
 377 00bc D8D0     		beq	.L46
 378              		.loc 1 117 0 is_stmt 1
 379 00be 40EA8616 		orr	r6, r0, r6, lsl #6
 380              	.LVL36:
 381              		.loc 1 120 0
 382 00c2 16F0807F 		tst	r6, #16777216
 383 00c6 D3D0     		beq	.L46
 384              		.loc 1 122 0
 385 00c8 1868     		ldr	r0, [r3, #0]
 386 00ca 0CF1030C 		add	ip, ip, #3
 387              	.LVL37:
 388 00ce 8445     		cmp	ip, r0
 389 00d0 11D8     		bhi	.L39
 390              		.loc 1 123 0
 391 00d2 1046     		mov	r0, r2
 392 00d4 350C     		lsrs	r5, r6, #16
 393 00d6 00F8015B 		strb	r5, [r0], #1
 394              	.LVL38:
ARM GAS  /tmp/cc2PY9z6.s 			page 8


 395              		.loc 1 124 0
 396 00da 350A     		lsrs	r5, r6, #8
 397 00dc 5570     		strb	r5, [r2, #1]
 398              		.loc 1 125 0
 399 00de 4670     		strb	r6, [r0, #1]
 400 00e0 821C     		adds	r2, r0, #2
 401              	.LVL39:
 402              		.loc 1 126 0
 403 00e2 0126     		movs	r6, #1
 404 00e4 C4E7     		b	.L46
 405              	.LVL40:
 406              	.L30:
 407              	.LBE6:
 408              		.loc 1 131 0
 409 00e6 16F4802F 		tst	r6, #262144
 410 00ea 12D0     		beq	.L51
 411              		.loc 1 133 0
 412 00ec 1968     		ldr	r1, [r3, #0]
 413              	.LVL41:
 414 00ee 0CF1020C 		add	ip, ip, #2
 415              	.LVL42:
 416 00f2 8C45     		cmp	ip, r1
 417 00f4 02D9     		bls	.L52
 418              	.LVL43:
 419              	.L39:
 420              		.loc 1 139 0
 421 00f6 0120     		movs	r0, #1
 422              	.LVL44:
 423              	.L31:
 424              		.loc 1 145 0
 425 00f8 F0BC     		pop	{r4, r5, r6, r7}
 426 00fa 7047     		bx	lr
 427              	.LVL45:
 428              	.L52:
 429              		.loc 1 134 0
 430 00fc B00A     		lsrs	r0, r6, #10
 431              		.loc 1 135 0
 432 00fe B608     		lsrs	r6, r6, #2
 433              		.loc 1 134 0
 434 0100 1070     		strb	r0, [r2, #0]
 435              	.LVL46:
 436              		.loc 1 135 0
 437 0102 5670     		strb	r6, [r2, #1]
 438              	.LVL47:
 439              	.L27:
 440              		.loc 1 143 0
 441 0104 C3F800C0 		str	ip, [r3, #0]
 442              		.loc 1 144 0
 443 0108 0020     		movs	r0, #0
 444 010a F5E7     		b	.L31
 445              	.LVL48:
 446              	.L35:
 447              		.loc 1 103 0
 448 010c 4FF0000C 		mov	ip, #0
 449 0110 F8E7     		b	.L27
 450              	.LVL49:
 451              	.L51:
ARM GAS  /tmp/cc2PY9z6.s 			page 9


 452              		.loc 1 137 0
 453 0112 16F4805F 		tst	r6, #4096
 454 0116 F5D0     		beq	.L27
 455              		.loc 1 139 0
 456 0118 1968     		ldr	r1, [r3, #0]
 457              	.LVL50:
 458 011a 0CF1010C 		add	ip, ip, #1
 459              	.LVL51:
 460 011e 8C45     		cmp	ip, r1
 461 0120 E9D8     		bhi	.L39
 462              		.loc 1 140 0
 463 0122 3609     		lsrs	r6, r6, #4
 464 0124 1670     		strb	r6, [r2, #0]
 465              	.LVL52:
 466 0126 EDE7     		b	.L27
 467              	.L54:
 468              		.align	2
 469              	.L53:
 470 0128 00000000 		.word	.LANCHOR0
 471              		.cfi_endproc
 472              	.LFE1:
 473              		.size	base64decode, .-base64decode
 474 012c AFF30080 		.section	.rodata.str1.4,"aMS",%progbits,1
 475              		.align	2
 476              	.LC0:
 477 0000 41424344 		.ascii	"ABCDEFGHIJKLMNOPQRSTUVWXYZabcdefghijklmnopqrstuvwxy"
 477      45464748 
 477      494A4B4C 
 477      4D4E4F50 
 477      51525354 
 478 0033 7A303132 		.ascii	"z0123456789+/\000"
 478      33343536 
 478      3738392B 
 478      2F00
 479 0041 000000   		.section	.rodata.d,"a",%progbits
 480              		.align	2
 481              		.set	.LANCHOR0,. + 0
 482              		.type	d, %object
 483              		.size	d, 256
 484              	d:
 485 0000 42       		.byte	66
 486 0001 42       		.byte	66
 487 0002 42       		.byte	66
 488 0003 42       		.byte	66
 489 0004 42       		.byte	66
 490 0005 42       		.byte	66
 491 0006 42       		.byte	66
 492 0007 42       		.byte	66
 493 0008 42       		.byte	66
 494 0009 40       		.byte	64
 495 000a 42       		.byte	66
 496 000b 42       		.byte	66
 497 000c 42       		.byte	66
 498 000d 42       		.byte	66
 499 000e 42       		.byte	66
 500 000f 42       		.byte	66
 501 0010 42       		.byte	66
ARM GAS  /tmp/cc2PY9z6.s 			page 10


 502 0011 42       		.byte	66
 503 0012 42       		.byte	66
 504 0013 42       		.byte	66
 505 0014 42       		.byte	66
 506 0015 42       		.byte	66
 507 0016 42       		.byte	66
 508 0017 42       		.byte	66
 509 0018 42       		.byte	66
 510 0019 42       		.byte	66
 511 001a 42       		.byte	66
 512 001b 42       		.byte	66
 513 001c 42       		.byte	66
 514 001d 42       		.byte	66
 515 001e 42       		.byte	66
 516 001f 42       		.byte	66
 517 0020 42       		.byte	66
 518 0021 42       		.byte	66
 519 0022 42       		.byte	66
 520 0023 42       		.byte	66
 521 0024 42       		.byte	66
 522 0025 42       		.byte	66
 523 0026 42       		.byte	66
 524 0027 42       		.byte	66
 525 0028 42       		.byte	66
 526 0029 42       		.byte	66
 527 002a 42       		.byte	66
 528 002b 3E       		.byte	62
 529 002c 42       		.byte	66
 530 002d 42       		.byte	66
 531 002e 42       		.byte	66
 532 002f 3F       		.byte	63
 533 0030 34       		.byte	52
 534 0031 35       		.byte	53
 535 0032 36       		.byte	54
 536 0033 37       		.byte	55
 537 0034 38       		.byte	56
 538 0035 39       		.byte	57
 539 0036 3A       		.byte	58
 540 0037 3B       		.byte	59
 541 0038 3C       		.byte	60
 542 0039 3D       		.byte	61
 543 003a 42       		.byte	66
 544 003b 42       		.byte	66
 545 003c 42       		.byte	66
 546 003d 41       		.byte	65
 547 003e 42       		.byte	66
 548 003f 42       		.byte	66
 549 0040 42       		.byte	66
 550 0041 00       		.byte	0
 551 0042 01       		.byte	1
 552 0043 02       		.byte	2
 553 0044 03       		.byte	3
 554 0045 04       		.byte	4
 555 0046 05       		.byte	5
 556 0047 06       		.byte	6
 557 0048 07       		.byte	7
 558 0049 08       		.byte	8
ARM GAS  /tmp/cc2PY9z6.s 			page 11


 559 004a 09       		.byte	9
 560 004b 0A       		.byte	10
 561 004c 0B       		.byte	11
 562 004d 0C       		.byte	12
 563 004e 0D       		.byte	13
 564 004f 0E       		.byte	14
 565 0050 0F       		.byte	15
 566 0051 10       		.byte	16
 567 0052 11       		.byte	17
 568 0053 12       		.byte	18
 569 0054 13       		.byte	19
 570 0055 14       		.byte	20
 571 0056 15       		.byte	21
 572 0057 16       		.byte	22
 573 0058 17       		.byte	23
 574 0059 18       		.byte	24
 575 005a 19       		.byte	25
 576 005b 42       		.byte	66
 577 005c 42       		.byte	66
 578 005d 42       		.byte	66
 579 005e 42       		.byte	66
 580 005f 42       		.byte	66
 581 0060 42       		.byte	66
 582 0061 1A       		.byte	26
 583 0062 1B       		.byte	27
 584 0063 1C       		.byte	28
 585 0064 1D       		.byte	29
 586 0065 1E       		.byte	30
 587 0066 1F       		.byte	31
 588 0067 20       		.byte	32
 589 0068 21       		.byte	33
 590 0069 22       		.byte	34
 591 006a 23       		.byte	35
 592 006b 24       		.byte	36
 593 006c 25       		.byte	37
 594 006d 26       		.byte	38
 595 006e 27       		.byte	39
 596 006f 28       		.byte	40
 597 0070 29       		.byte	41
 598 0071 2A       		.byte	42
 599 0072 2B       		.byte	43
 600 0073 2C       		.byte	44
 601 0074 2D       		.byte	45
 602 0075 2E       		.byte	46
 603 0076 2F       		.byte	47
 604 0077 30       		.byte	48
 605 0078 31       		.byte	49
 606 0079 32       		.byte	50
 607 007a 33       		.byte	51
 608 007b 42       		.byte	66
 609 007c 42       		.byte	66
 610 007d 42       		.byte	66
 611 007e 42       		.byte	66
 612 007f 42       		.byte	66
 613 0080 42       		.byte	66
 614 0081 42       		.byte	66
 615 0082 42       		.byte	66
ARM GAS  /tmp/cc2PY9z6.s 			page 12


 616 0083 42       		.byte	66
 617 0084 42       		.byte	66
 618 0085 42       		.byte	66
 619 0086 42       		.byte	66
 620 0087 42       		.byte	66
 621 0088 42       		.byte	66
 622 0089 42       		.byte	66
 623 008a 42       		.byte	66
 624 008b 42       		.byte	66
 625 008c 42       		.byte	66
 626 008d 42       		.byte	66
 627 008e 42       		.byte	66
 628 008f 42       		.byte	66
 629 0090 42       		.byte	66
 630 0091 42       		.byte	66
 631 0092 42       		.byte	66
 632 0093 42       		.byte	66
 633 0094 42       		.byte	66
 634 0095 42       		.byte	66
 635 0096 42       		.byte	66
 636 0097 42       		.byte	66
 637 0098 42       		.byte	66
 638 0099 42       		.byte	66
 639 009a 42       		.byte	66
 640 009b 42       		.byte	66
 641 009c 42       		.byte	66
 642 009d 42       		.byte	66
 643 009e 42       		.byte	66
 644 009f 42       		.byte	66
 645 00a0 42       		.byte	66
 646 00a1 42       		.byte	66
 647 00a2 42       		.byte	66
 648 00a3 42       		.byte	66
 649 00a4 42       		.byte	66
 650 00a5 42       		.byte	66
 651 00a6 42       		.byte	66
 652 00a7 42       		.byte	66
 653 00a8 42       		.byte	66
 654 00a9 42       		.byte	66
 655 00aa 42       		.byte	66
 656 00ab 42       		.byte	66
 657 00ac 42       		.byte	66
 658 00ad 42       		.byte	66
 659 00ae 42       		.byte	66
 660 00af 42       		.byte	66
 661 00b0 42       		.byte	66
 662 00b1 42       		.byte	66
 663 00b2 42       		.byte	66
 664 00b3 42       		.byte	66
 665 00b4 42       		.byte	66
 666 00b5 42       		.byte	66
 667 00b6 42       		.byte	66
 668 00b7 42       		.byte	66
 669 00b8 42       		.byte	66
 670 00b9 42       		.byte	66
 671 00ba 42       		.byte	66
 672 00bb 42       		.byte	66
ARM GAS  /tmp/cc2PY9z6.s 			page 13


 673 00bc 42       		.byte	66
 674 00bd 42       		.byte	66
 675 00be 42       		.byte	66
 676 00bf 42       		.byte	66
 677 00c0 42       		.byte	66
 678 00c1 42       		.byte	66
 679 00c2 42       		.byte	66
 680 00c3 42       		.byte	66
 681 00c4 42       		.byte	66
 682 00c5 42       		.byte	66
 683 00c6 42       		.byte	66
 684 00c7 42       		.byte	66
 685 00c8 42       		.byte	66
 686 00c9 42       		.byte	66
 687 00ca 42       		.byte	66
 688 00cb 42       		.byte	66
 689 00cc 42       		.byte	66
 690 00cd 42       		.byte	66
 691 00ce 42       		.byte	66
 692 00cf 42       		.byte	66
 693 00d0 42       		.byte	66
 694 00d1 42       		.byte	66
 695 00d2 42       		.byte	66
 696 00d3 42       		.byte	66
 697 00d4 42       		.byte	66
 698 00d5 42       		.byte	66
 699 00d6 42       		.byte	66
 700 00d7 42       		.byte	66
 701 00d8 42       		.byte	66
 702 00d9 42       		.byte	66
 703 00da 42       		.byte	66
 704 00db 42       		.byte	66
 705 00dc 42       		.byte	66
 706 00dd 42       		.byte	66
 707 00de 42       		.byte	66
 708 00df 42       		.byte	66
 709 00e0 42       		.byte	66
 710 00e1 42       		.byte	66
 711 00e2 42       		.byte	66
 712 00e3 42       		.byte	66
 713 00e4 42       		.byte	66
 714 00e5 42       		.byte	66
 715 00e6 42       		.byte	66
 716 00e7 42       		.byte	66
 717 00e8 42       		.byte	66
 718 00e9 42       		.byte	66
 719 00ea 42       		.byte	66
 720 00eb 42       		.byte	66
 721 00ec 42       		.byte	66
 722 00ed 42       		.byte	66
 723 00ee 42       		.byte	66
 724 00ef 42       		.byte	66
 725 00f0 42       		.byte	66
 726 00f1 42       		.byte	66
 727 00f2 42       		.byte	66
 728 00f3 42       		.byte	66
 729 00f4 42       		.byte	66
ARM GAS  /tmp/cc2PY9z6.s 			page 14


 730 00f5 42       		.byte	66
 731 00f6 42       		.byte	66
 732 00f7 42       		.byte	66
 733 00f8 42       		.byte	66
 734 00f9 42       		.byte	66
 735 00fa 42       		.byte	66
 736 00fb 42       		.byte	66
 737 00fc 42       		.byte	66
 738 00fd 42       		.byte	66
 739 00fe 42       		.byte	66
 740 00ff 42       		.byte	66
 741              		.text
 742              	.Letext0:
 743              		.section	.debug_loc,"",%progbits
 744              	.Ldebug_loc0:
 745              	.LLST0:
 746 0000 00000000 		.4byte	.LFB0
 747 0004 04000000 		.4byte	.LCFI0
 748 0008 0200     		.2byte	0x2
 749 000a 7D       		.byte	0x7d
 750 000b 00       		.sleb128 0
 751 000c 04000000 		.4byte	.LCFI0
 752 0010 06000000 		.4byte	.LCFI1
 753 0014 0200     		.2byte	0x2
 754 0016 7D       		.byte	0x7d
 755 0017 1C       		.sleb128 28
 756 0018 06000000 		.4byte	.LCFI1
 757 001c 08010000 		.4byte	.LFE0
 758 0020 0300     		.2byte	0x3
 759 0022 7D       		.byte	0x7d
 760 0023 E800     		.sleb128 104
 761 0025 00000000 		.4byte	0x0
 762 0029 00000000 		.4byte	0x0
 763              	.LLST1:
 764 002d 00000000 		.4byte	.LVL0
 765 0031 0E000000 		.4byte	.LVL1
 766 0035 0100     		.2byte	0x1
 767 0037 50       		.byte	0x50
 768 0038 0E000000 		.4byte	.LVL1
 769 003c 08010000 		.4byte	.LFE0
 770 0040 0100     		.2byte	0x1
 771 0042 56       		.byte	0x56
 772 0043 00000000 		.4byte	0x0
 773 0047 00000000 		.4byte	0x0
 774              	.LLST2:
 775 004b 00000000 		.4byte	.LVL0
 776 004f 10000000 		.4byte	.LVL2
 777 0053 0100     		.2byte	0x1
 778 0055 51       		.byte	0x51
 779 0056 10000000 		.4byte	.LVL2
 780 005a 08010000 		.4byte	.LFE0
 781 005e 0100     		.2byte	0x1
 782 0060 54       		.byte	0x54
 783 0061 00000000 		.4byte	0x0
 784 0065 00000000 		.4byte	0x0
 785              	.LLST3:
 786 0069 00000000 		.4byte	.LVL0
ARM GAS  /tmp/cc2PY9z6.s 			page 15


 787 006d 12000000 		.4byte	.LVL3
 788 0071 0100     		.2byte	0x1
 789 0073 52       		.byte	0x52
 790 0074 12000000 		.4byte	.LVL3
 791 0078 08010000 		.4byte	.LFE0
 792 007c 0100     		.2byte	0x1
 793 007e 55       		.byte	0x55
 794 007f 00000000 		.4byte	0x0
 795 0083 00000000 		.4byte	0x0
 796              	.LLST4:
 797 0087 00000000 		.4byte	.LVL0
 798 008b 17000000 		.4byte	.LVL4-1
 799 008f 0100     		.2byte	0x1
 800 0091 53       		.byte	0x53
 801 0092 17000000 		.4byte	.LVL4-1
 802 0096 08010000 		.4byte	.LFE0
 803 009a 0100     		.2byte	0x1
 804 009c 57       		.byte	0x57
 805 009d 00000000 		.4byte	0x0
 806 00a1 00000000 		.4byte	0x0
 807              	.LLST5:
 808 00a5 18000000 		.4byte	.LVL4
 809 00a9 28000000 		.4byte	.LVL5
 810 00ad 0200     		.2byte	0x2
 811 00af 30       		.byte	0x30
 812 00b0 9F       		.byte	0x9f
 813 00b1 3C000000 		.4byte	.LVL6
 814 00b5 5A000000 		.4byte	.LVL7
 815 00b9 0100     		.2byte	0x1
 816 00bb 58       		.byte	0x58
 817 00bc 5A000000 		.4byte	.LVL7
 818 00c0 7A000000 		.4byte	.LVL8
 819 00c4 0100     		.2byte	0x1
 820 00c6 53       		.byte	0x53
 821 00c7 7A000000 		.4byte	.LVL8
 822 00cb 96000000 		.4byte	.LVL10
 823 00cf 0100     		.2byte	0x1
 824 00d1 53       		.byte	0x53
 825 00d2 96000000 		.4byte	.LVL10
 826 00d6 A2000000 		.4byte	.LVL12
 827 00da 0100     		.2byte	0x1
 828 00dc 53       		.byte	0x53
 829 00dd CC000000 		.4byte	.LVL17
 830 00e1 E6000000 		.4byte	.LVL18
 831 00e5 0100     		.2byte	0x1
 832 00e7 53       		.byte	0x53
 833 00e8 E6000000 		.4byte	.LVL18
 834 00ec F2000000 		.4byte	.LVL19
 835 00f0 0100     		.2byte	0x1
 836 00f2 53       		.byte	0x53
 837 00f3 F2000000 		.4byte	.LVL19
 838 00f7 FC000000 		.4byte	.LVL20
 839 00fb 0100     		.2byte	0x1
 840 00fd 53       		.byte	0x53
 841 00fe FC000000 		.4byte	.LVL20
 842 0102 08010000 		.4byte	.LFE0
 843 0106 0200     		.2byte	0x2
ARM GAS  /tmp/cc2PY9z6.s 			page 16


 844 0108 30       		.byte	0x30
 845 0109 9F       		.byte	0x9f
 846 010a 00000000 		.4byte	0x0
 847 010e 00000000 		.4byte	0x0
 848              	.LLST6:
 849 0112 18000000 		.4byte	.LVL4
 850 0116 28000000 		.4byte	.LVL5
 851 011a 0200     		.2byte	0x2
 852 011c 30       		.byte	0x30
 853 011d 9F       		.byte	0x9f
 854 011e 9A000000 		.4byte	.LVL11
 855 0122 A2000000 		.4byte	.LVL12
 856 0126 0100     		.2byte	0x1
 857 0128 5C       		.byte	0x5c
 858 0129 CC000000 		.4byte	.LVL17
 859 012d F2000000 		.4byte	.LVL19
 860 0131 0100     		.2byte	0x1
 861 0133 5C       		.byte	0x5c
 862 0134 FC000000 		.4byte	.LVL20
 863 0138 08010000 		.4byte	.LFE0
 864 013c 0200     		.2byte	0x2
 865 013e 30       		.byte	0x30
 866 013f 9F       		.byte	0x9f
 867 0140 00000000 		.4byte	0x0
 868 0144 00000000 		.4byte	0x0
 869              	.LLST7:
 870 0148 18000000 		.4byte	.LVL4
 871 014c 28000000 		.4byte	.LVL5
 872 0150 0200     		.2byte	0x2
 873 0152 30       		.byte	0x30
 874 0153 9F       		.byte	0x9f
 875 0154 28000000 		.4byte	.LVL5
 876 0158 86000000 		.4byte	.LVL9
 877 015c 0100     		.2byte	0x1
 878 015e 52       		.byte	0x52
 879 015f A8000000 		.4byte	.LVL13
 880 0163 B6000000 		.4byte	.LVL14
 881 0167 0100     		.2byte	0x1
 882 0169 52       		.byte	0x52
 883 016a B6000000 		.4byte	.LVL14
 884 016e C0000000 		.4byte	.LVL15
 885 0172 0100     		.2byte	0x1
 886 0174 52       		.byte	0x52
 887 0175 C0000000 		.4byte	.LVL15
 888 0179 C4000000 		.4byte	.LVL16
 889 017d 0100     		.2byte	0x1
 890 017f 52       		.byte	0x52
 891 0180 FC000000 		.4byte	.LVL20
 892 0184 08010000 		.4byte	.LFE0
 893 0188 0200     		.2byte	0x2
 894 018a 30       		.byte	0x30
 895 018b 9F       		.byte	0x9f
 896 018c 00000000 		.4byte	0x0
 897 0190 00000000 		.4byte	0x0
 898              	.LLST8:
 899 0194 18000000 		.4byte	.LVL4
 900 0198 C4000000 		.4byte	.LVL16
ARM GAS  /tmp/cc2PY9z6.s 			page 17


 901 019c 0500     		.2byte	0x5
 902 019e 74       		.byte	0x74
 903 019f 00       		.sleb128 0
 904 01a0 33       		.byte	0x33
 905 01a1 1D       		.byte	0x1d
 906 01a2 9F       		.byte	0x9f
 907 01a3 CC000000 		.4byte	.LVL17
 908 01a7 E6000000 		.4byte	.LVL18
 909 01ab 0500     		.2byte	0x5
 910 01ad 74       		.byte	0x74
 911 01ae 00       		.sleb128 0
 912 01af 33       		.byte	0x33
 913 01b0 1D       		.byte	0x1d
 914 01b1 9F       		.byte	0x9f
 915 01b2 FC000000 		.4byte	.LVL20
 916 01b6 08010000 		.4byte	.LFE0
 917 01ba 0500     		.2byte	0x5
 918 01bc 74       		.byte	0x74
 919 01bd 00       		.sleb128 0
 920 01be 33       		.byte	0x33
 921 01bf 1D       		.byte	0x1d
 922 01c0 9F       		.byte	0x9f
 923 01c1 00000000 		.4byte	0x0
 924 01c5 00000000 		.4byte	0x0
 925              	.LLST9:
 926 01c9 28000000 		.4byte	.LVL5
 927 01cd 86000000 		.4byte	.LVL9
 928 01d1 0800     		.2byte	0x8
 929 01d3 72       		.byte	0x72
 930 01d4 00       		.sleb128 0
 931 01d5 42       		.byte	0x42
 932 01d6 25       		.byte	0x25
 933 01d7 08       		.byte	0x8
 934 01d8 3F       		.byte	0x3f
 935 01d9 1A       		.byte	0x1a
 936 01da 9F       		.byte	0x9f
 937 01db C0000000 		.4byte	.LVL15
 938 01df C4000000 		.4byte	.LVL16
 939 01e3 0800     		.2byte	0x8
 940 01e5 72       		.byte	0x72
 941 01e6 00       		.sleb128 0
 942 01e7 42       		.byte	0x42
 943 01e8 25       		.byte	0x25
 944 01e9 08       		.byte	0x8
 945 01ea 3F       		.byte	0x3f
 946 01eb 1A       		.byte	0x1a
 947 01ec 9F       		.byte	0x9f
 948 01ed 00000000 		.4byte	0x0
 949 01f1 00000000 		.4byte	0x0
 950              	.LLST10:
 951 01f5 28000000 		.4byte	.LVL5
 952 01f9 86000000 		.4byte	.LVL9
 953 01fd 0800     		.2byte	0x8
 954 01ff 72       		.byte	0x72
 955 0200 00       		.sleb128 0
 956 0201 3C       		.byte	0x3c
 957 0202 25       		.byte	0x25
ARM GAS  /tmp/cc2PY9z6.s 			page 18


 958 0203 08       		.byte	0x8
 959 0204 3F       		.byte	0x3f
 960 0205 1A       		.byte	0x1a
 961 0206 9F       		.byte	0x9f
 962 0207 C0000000 		.4byte	.LVL15
 963 020b C4000000 		.4byte	.LVL16
 964 020f 0800     		.2byte	0x8
 965 0211 72       		.byte	0x72
 966 0212 00       		.sleb128 0
 967 0213 3C       		.byte	0x3c
 968 0214 25       		.byte	0x25
 969 0215 08       		.byte	0x8
 970 0216 3F       		.byte	0x3f
 971 0217 1A       		.byte	0x1a
 972 0218 9F       		.byte	0x9f
 973 0219 00000000 		.4byte	0x0
 974 021d 00000000 		.4byte	0x0
 975              	.LLST11:
 976 0221 28000000 		.4byte	.LVL5
 977 0225 86000000 		.4byte	.LVL9
 978 0229 0800     		.2byte	0x8
 979 022b 72       		.byte	0x72
 980 022c 00       		.sleb128 0
 981 022d 36       		.byte	0x36
 982 022e 25       		.byte	0x25
 983 022f 08       		.byte	0x8
 984 0230 3F       		.byte	0x3f
 985 0231 1A       		.byte	0x1a
 986 0232 9F       		.byte	0x9f
 987 0233 C0000000 		.4byte	.LVL15
 988 0237 C4000000 		.4byte	.LVL16
 989 023b 0800     		.2byte	0x8
 990 023d 72       		.byte	0x72
 991 023e 00       		.sleb128 0
 992 023f 36       		.byte	0x36
 993 0240 25       		.byte	0x25
 994 0241 08       		.byte	0x8
 995 0242 3F       		.byte	0x3f
 996 0243 1A       		.byte	0x1a
 997 0244 9F       		.byte	0x9f
 998 0245 00000000 		.4byte	0x0
 999 0249 00000000 		.4byte	0x0
 1000              	.LLST12:
 1001 024d 28000000 		.4byte	.LVL5
 1002 0251 86000000 		.4byte	.LVL9
 1003 0255 0600     		.2byte	0x6
 1004 0257 72       		.byte	0x72
 1005 0258 00       		.sleb128 0
 1006 0259 08       		.byte	0x8
 1007 025a 3F       		.byte	0x3f
 1008 025b 1A       		.byte	0x1a
 1009 025c 9F       		.byte	0x9f
 1010 025d C0000000 		.4byte	.LVL15
 1011 0261 C4000000 		.4byte	.LVL16
 1012 0265 0600     		.2byte	0x6
 1013 0267 72       		.byte	0x72
 1014 0268 00       		.sleb128 0
ARM GAS  /tmp/cc2PY9z6.s 			page 19


 1015 0269 08       		.byte	0x8
 1016 026a 3F       		.byte	0x3f
 1017 026b 1A       		.byte	0x1a
 1018 026c 9F       		.byte	0x9f
 1019 026d 00000000 		.4byte	0x0
 1020 0271 00000000 		.4byte	0x0
 1021              	.LLST13:
 1022 0275 00000000 		.4byte	.LFB1
 1023 0279 06000000 		.4byte	.LCFI2
 1024 027d 0200     		.2byte	0x2
 1025 027f 7D       		.byte	0x7d
 1026 0280 00       		.sleb128 0
 1027 0281 06000000 		.4byte	.LCFI2
 1028 0285 2C010000 		.4byte	.LFE1
 1029 0289 0200     		.2byte	0x2
 1030 028b 7D       		.byte	0x7d
 1031 028c 10       		.sleb128 16
 1032 028d 00000000 		.4byte	0x0
 1033 0291 00000000 		.4byte	0x0
 1034              	.LLST14:
 1035 0295 00000000 		.4byte	.LVL21
 1036 0299 16000000 		.4byte	.LVL23
 1037 029d 0100     		.2byte	0x1
 1038 029f 50       		.byte	0x50
 1039 02a0 0C010000 		.4byte	.LVL48
 1040 02a4 12010000 		.4byte	.LVL49
 1041 02a8 0100     		.2byte	0x1
 1042 02aa 50       		.byte	0x50
 1043 02ab 00000000 		.4byte	0x0
 1044 02af 00000000 		.4byte	0x0
 1045              	.LLST15:
 1046 02b3 00000000 		.4byte	.LVL21
 1047 02b7 02000000 		.4byte	.LVL22
 1048 02bb 0100     		.2byte	0x1
 1049 02bd 51       		.byte	0x51
 1050 02be 00000000 		.4byte	0x0
 1051 02c2 00000000 		.4byte	0x0
 1052              	.LLST16:
 1053 02c6 00000000 		.4byte	.LVL21
 1054 02ca 64000000 		.4byte	.LVL28
 1055 02ce 0100     		.2byte	0x1
 1056 02d0 52       		.byte	0x52
 1057 02d1 6E000000 		.4byte	.LVL29
 1058 02d5 A2000000 		.4byte	.LVL33
 1059 02d9 0100     		.2byte	0x1
 1060 02db 52       		.byte	0x52
 1061 02dc A2000000 		.4byte	.LVL33
 1062 02e0 AA000000 		.4byte	.LVL34
 1063 02e4 0300     		.2byte	0x3
 1064 02e6 70       		.byte	0x70
 1065 02e7 01       		.sleb128 1
 1066 02e8 9F       		.byte	0x9f
 1067 02e9 AA000000 		.4byte	.LVL34
 1068 02ed DA000000 		.4byte	.LVL38
 1069 02f1 0100     		.2byte	0x1
 1070 02f3 52       		.byte	0x52
 1071 02f4 E2000000 		.4byte	.LVL39
ARM GAS  /tmp/cc2PY9z6.s 			page 20


 1072 02f8 F8000000 		.4byte	.LVL44
 1073 02fc 0100     		.2byte	0x1
 1074 02fe 52       		.byte	0x52
 1075 02ff FC000000 		.4byte	.LVL45
 1076 0303 02010000 		.4byte	.LVL46
 1077 0307 0100     		.2byte	0x1
 1078 0309 52       		.byte	0x52
 1079 030a 02010000 		.4byte	.LVL46
 1080 030e 04010000 		.4byte	.LVL47
 1081 0312 0300     		.2byte	0x3
 1082 0314 72       		.byte	0x72
 1083 0315 01       		.sleb128 1
 1084 0316 9F       		.byte	0x9f
 1085 0317 0C010000 		.4byte	.LVL48
 1086 031b 26010000 		.4byte	.LVL52
 1087 031f 0100     		.2byte	0x1
 1088 0321 52       		.byte	0x52
 1089 0322 00000000 		.4byte	0x0
 1090 0326 00000000 		.4byte	0x0
 1091              	.LLST17:
 1092 032a 02000000 		.4byte	.LVL22
 1093 032e EE000000 		.4byte	.LVL41
 1094 0332 0100     		.2byte	0x1
 1095 0334 51       		.byte	0x51
 1096 0335 0C010000 		.4byte	.LVL48
 1097 0339 1A010000 		.4byte	.LVL50
 1098 033d 0100     		.2byte	0x1
 1099 033f 51       		.byte	0x51
 1100 0340 00000000 		.4byte	0x0
 1101 0344 00000000 		.4byte	0x0
 1102              	.LLST18:
 1103 0348 02000000 		.4byte	.LVL22
 1104 034c 32000000 		.4byte	.LVL24
 1105 0350 0200     		.2byte	0x2
 1106 0352 31       		.byte	0x31
 1107 0353 9F       		.byte	0x9f
 1108 0354 32000000 		.4byte	.LVL24
 1109 0358 4E000000 		.4byte	.LVL26
 1110 035c 0100     		.2byte	0x1
 1111 035e 56       		.byte	0x56
 1112 035f 4E000000 		.4byte	.LVL26
 1113 0363 6E000000 		.4byte	.LVL29
 1114 0367 0100     		.2byte	0x1
 1115 0369 56       		.byte	0x56
 1116 036a 6E000000 		.4byte	.LVL29
 1117 036e 70000000 		.4byte	.LVL30
 1118 0372 0200     		.2byte	0x2
 1119 0374 31       		.byte	0x31
 1120 0375 9F       		.byte	0x9f
 1121 0376 70000000 		.4byte	.LVL30
 1122 037a 8A000000 		.4byte	.LVL31
 1123 037e 0100     		.2byte	0x1
 1124 0380 56       		.byte	0x56
 1125 0381 8A000000 		.4byte	.LVL31
 1126 0385 AA000000 		.4byte	.LVL34
 1127 0389 0100     		.2byte	0x1
 1128 038b 56       		.byte	0x56
ARM GAS  /tmp/cc2PY9z6.s 			page 21


 1129 038c AA000000 		.4byte	.LVL34
 1130 0390 AC000000 		.4byte	.LVL35
 1131 0394 0200     		.2byte	0x2
 1132 0396 31       		.byte	0x31
 1133 0397 9F       		.byte	0x9f
 1134 0398 AC000000 		.4byte	.LVL35
 1135 039c C2000000 		.4byte	.LVL36
 1136 03a0 0100     		.2byte	0x1
 1137 03a2 56       		.byte	0x56
 1138 03a3 C2000000 		.4byte	.LVL36
 1139 03a7 E2000000 		.4byte	.LVL39
 1140 03ab 0100     		.2byte	0x1
 1141 03ad 56       		.byte	0x56
 1142 03ae E2000000 		.4byte	.LVL39
 1143 03b2 E6000000 		.4byte	.LVL40
 1144 03b6 0200     		.2byte	0x2
 1145 03b8 31       		.byte	0x31
 1146 03b9 9F       		.byte	0x9f
 1147 03ba 0C010000 		.4byte	.LVL48
 1148 03be 12010000 		.4byte	.LVL49
 1149 03c2 0200     		.2byte	0x2
 1150 03c4 31       		.byte	0x31
 1151 03c5 9F       		.byte	0x9f
 1152 03c6 00000000 		.4byte	0x0
 1153 03ca 00000000 		.4byte	0x0
 1154              	.LLST19:
 1155 03ce 02000000 		.4byte	.LVL22
 1156 03d2 32000000 		.4byte	.LVL24
 1157 03d6 0200     		.2byte	0x2
 1158 03d8 30       		.byte	0x30
 1159 03d9 9F       		.byte	0x9f
 1160 03da 32000000 		.4byte	.LVL24
 1161 03de 5A000000 		.4byte	.LVL27
 1162 03e2 0100     		.2byte	0x1
 1163 03e4 5C       		.byte	0x5c
 1164 03e5 5A000000 		.4byte	.LVL27
 1165 03e9 96000000 		.4byte	.LVL32
 1166 03ed 0100     		.2byte	0x1
 1167 03ef 5C       		.byte	0x5c
 1168 03f0 96000000 		.4byte	.LVL32
 1169 03f4 CE000000 		.4byte	.LVL37
 1170 03f8 0100     		.2byte	0x1
 1171 03fa 5C       		.byte	0x5c
 1172 03fb CE000000 		.4byte	.LVL37
 1173 03ff E6000000 		.4byte	.LVL40
 1174 0403 0100     		.2byte	0x1
 1175 0405 5C       		.byte	0x5c
 1176 0406 F2000000 		.4byte	.LVL42
 1177 040a F6000000 		.4byte	.LVL43
 1178 040e 0100     		.2byte	0x1
 1179 0410 5C       		.byte	0x5c
 1180 0411 FC000000 		.4byte	.LVL45
 1181 0415 04010000 		.4byte	.LVL47
 1182 0419 0100     		.2byte	0x1
 1183 041b 5C       		.byte	0x5c
 1184 041c 04010000 		.4byte	.LVL47
 1185 0420 0C010000 		.4byte	.LVL48
ARM GAS  /tmp/cc2PY9z6.s 			page 22


 1186 0424 0100     		.2byte	0x1
 1187 0426 5C       		.byte	0x5c
 1188 0427 0C010000 		.4byte	.LVL48
 1189 042b 12010000 		.4byte	.LVL49
 1190 042f 0200     		.2byte	0x2
 1191 0431 30       		.byte	0x30
 1192 0432 9F       		.byte	0x9f
 1193 0433 1E010000 		.4byte	.LVL51
 1194 0437 2C010000 		.4byte	.LFE1
 1195 043b 0100     		.2byte	0x1
 1196 043d 5C       		.byte	0x5c
 1197 043e 00000000 		.4byte	0x0
 1198 0442 00000000 		.4byte	0x0
 1199              	.LLST20:
 1200 0446 16000000 		.4byte	.LVL23
 1201 044a 3E000000 		.4byte	.LVL25
 1202 044e 0100     		.2byte	0x1
 1203 0450 55       		.byte	0x55
 1204 0451 00000000 		.4byte	0x0
 1205 0455 00000000 		.4byte	0x0
 1206              		.file 2 "/home/z80/programs/code-sourcery/2011.03-42/bin/../lib/gcc/arm-none-eabi/4.5.2/../../../.
 1207              		.file 3 "/home/z80/programs/code-sourcery/2011.03-42/bin/../lib/gcc/arm-none-eabi/4.5.2/include/st
 1208              		.section	.debug_info
 1209 0000 6E020000 		.4byte	0x26e
 1210 0004 0200     		.2byte	0x2
 1211 0006 00000000 		.4byte	.Ldebug_abbrev0
 1212 000a 04       		.byte	0x4
 1213 000b 01       		.uleb128 0x1
 1214 000c 07000000 		.4byte	.LASF25
 1215 0010 01       		.byte	0x1
 1216 0011 64000000 		.4byte	.LASF26
 1217 0015 32000000 		.4byte	.LASF27
 1218 0019 00000000 		.4byte	0x0
 1219 001d 00000000 		.4byte	0x0
 1220 0021 30000000 		.4byte	.Ldebug_ranges0+0x30
 1221 0025 00000000 		.4byte	.Ldebug_line0
 1222 0029 02       		.uleb128 0x2
 1223 002a 01       		.byte	0x1
 1224 002b 06       		.byte	0x6
 1225 002c 4A010000 		.4byte	.LASF0
 1226 0030 03       		.uleb128 0x3
 1227 0031 E8000000 		.4byte	.LASF5
 1228 0035 02       		.byte	0x2
 1229 0036 2A       		.byte	0x2a
 1230 0037 3B000000 		.4byte	0x3b
 1231 003b 02       		.uleb128 0x2
 1232 003c 01       		.byte	0x1
 1233 003d 08       		.byte	0x8
 1234 003e 84000000 		.4byte	.LASF1
 1235 0042 02       		.uleb128 0x2
 1236 0043 02       		.byte	0x2
 1237 0044 05       		.byte	0x5
 1238 0045 27010000 		.4byte	.LASF2
 1239 0049 02       		.uleb128 0x2
 1240 004a 02       		.byte	0x2
 1241 004b 07       		.byte	0x7
 1242 004c AA000000 		.4byte	.LASF3
ARM GAS  /tmp/cc2PY9z6.s 			page 23


 1243 0050 02       		.uleb128 0x2
 1244 0051 04       		.byte	0x4
 1245 0052 05       		.byte	0x5
 1246 0053 41010000 		.4byte	.LASF4
 1247 0057 03       		.uleb128 0x3
 1248 0058 38010000 		.4byte	.LASF6
 1249 005c 02       		.byte	0x2
 1250 005d 50       		.byte	0x50
 1251 005e 62000000 		.4byte	0x62
 1252 0062 02       		.uleb128 0x2
 1253 0063 04       		.byte	0x4
 1254 0064 07       		.byte	0x7
 1255 0065 92000000 		.4byte	.LASF7
 1256 0069 02       		.uleb128 0x2
 1257 006a 08       		.byte	0x8
 1258 006b 05       		.byte	0x5
 1259 006c 08010000 		.4byte	.LASF8
 1260 0070 02       		.uleb128 0x2
 1261 0071 08       		.byte	0x8
 1262 0072 07       		.byte	0x7
 1263 0073 D1000000 		.4byte	.LASF9
 1264 0077 04       		.uleb128 0x4
 1265 0078 04       		.byte	0x4
 1266 0079 05       		.byte	0x5
 1267 007a 696E7400 		.ascii	"int\000"
 1268 007e 02       		.uleb128 0x2
 1269 007f 04       		.byte	0x4
 1270 0080 07       		.byte	0x7
 1271 0081 C4000000 		.4byte	.LASF10
 1272 0085 05       		.uleb128 0x5
 1273 0086 04       		.byte	0x4
 1274 0087 3B000000 		.4byte	0x3b
 1275 008b 05       		.uleb128 0x5
 1276 008c 04       		.byte	0x4
 1277 008d 91000000 		.4byte	0x91
 1278 0091 02       		.uleb128 0x2
 1279 0092 01       		.byte	0x1
 1280 0093 08       		.byte	0x8
 1281 0094 16010000 		.4byte	.LASF11
 1282 0098 03       		.uleb128 0x3
 1283 0099 BD000000 		.4byte	.LASF12
 1284 009d 03       		.byte	0x3
 1285 009e D3       		.byte	0xd3
 1286 009f 7E000000 		.4byte	0x7e
 1287 00a3 06       		.uleb128 0x6
 1288 00a4 01       		.byte	0x1
 1289 00a5 1C000000 		.4byte	.LASF21
 1290 00a9 01       		.byte	0x1
 1291 00aa 04       		.byte	0x4
 1292 00ab 01       		.byte	0x1
 1293 00ac 77000000 		.4byte	0x77
 1294 00b0 00000000 		.4byte	.LFB0
 1295 00b4 08010000 		.4byte	.LFE0
 1296 00b8 00000000 		.4byte	.LLST0
 1297 00bc 89010000 		.4byte	0x189
 1298 00c0 07       		.uleb128 0x7
 1299 00c1 29000000 		.4byte	.LASF13
ARM GAS  /tmp/cc2PY9z6.s 			page 24


 1300 00c5 01       		.byte	0x1
 1301 00c6 04       		.byte	0x4
 1302 00c7 89010000 		.4byte	0x189
 1303 00cb 2D000000 		.4byte	.LLST1
 1304 00cf 07       		.uleb128 0x7
 1305 00d0 F0000000 		.4byte	.LASF14
 1306 00d4 01       		.byte	0x1
 1307 00d5 04       		.byte	0x4
 1308 00d6 98000000 		.4byte	0x98
 1309 00da 4B000000 		.4byte	.LLST2
 1310 00de 07       		.uleb128 0x7
 1311 00df 00000000 		.4byte	.LASF15
 1312 00e3 01       		.byte	0x1
 1313 00e4 04       		.byte	0x4
 1314 00e5 8B000000 		.4byte	0x8b
 1315 00e9 69000000 		.4byte	.LLST3
 1316 00ed 07       		.uleb128 0x7
 1317 00ee 56010000 		.4byte	.LASF16
 1318 00f2 01       		.byte	0x1
 1319 00f3 04       		.byte	0x4
 1320 00f4 98000000 		.4byte	0x98
 1321 00f8 87000000 		.4byte	.LLST4
 1322 00fc 08       		.uleb128 0x8
 1323 00fd 73000000 		.4byte	.LASF17
 1324 0101 01       		.byte	0x1
 1325 0102 06       		.byte	0x6
 1326 0103 A0010000 		.4byte	0x1a0
 1327 0107 03       		.byte	0x3
 1328 0108 91       		.byte	0x91
 1329 0109 9C7F     		.sleb128 -100
 1330 010b 08       		.uleb128 0x8
 1331 010c 7F000000 		.4byte	.LASF18
 1332 0110 01       		.byte	0x1
 1333 0111 07       		.byte	0x7
 1334 0112 A5010000 		.4byte	0x1a5
 1335 0116 01       		.byte	0x1
 1336 0117 56       		.byte	0x56
 1337 0118 09       		.uleb128 0x9
 1338 0119 1B010000 		.4byte	.LASF19
 1339 011d 01       		.byte	0x1
 1340 011e 08       		.byte	0x8
 1341 011f 98000000 		.4byte	0x98
 1342 0123 A5000000 		.4byte	.LLST5
 1343 0127 0A       		.uleb128 0xa
 1344 0128 7800     		.ascii	"x\000"
 1345 012a 01       		.byte	0x1
 1346 012b 09       		.byte	0x9
 1347 012c 98000000 		.4byte	0x98
 1348 0130 12010000 		.4byte	.LLST6
 1349 0134 0A       		.uleb128 0xa
 1350 0135 6E00     		.ascii	"n\000"
 1351 0137 01       		.byte	0x1
 1352 0138 0A       		.byte	0xa
 1353 0139 57000000 		.4byte	0x57
 1354 013d 48010000 		.4byte	.LLST7
 1355 0141 09       		.uleb128 0x9
 1356 0142 13000000 		.4byte	.LASF20
ARM GAS  /tmp/cc2PY9z6.s 			page 25


 1357 0146 01       		.byte	0x1
 1358 0147 0B       		.byte	0xb
 1359 0148 77000000 		.4byte	0x77
 1360 014c 94010000 		.4byte	.LLST8
 1361 0150 0A       		.uleb128 0xa
 1362 0151 6E3000   		.ascii	"n0\000"
 1363 0154 01       		.byte	0x1
 1364 0155 0C       		.byte	0xc
 1365 0156 30000000 		.4byte	0x30
 1366 015a C9010000 		.4byte	.LLST9
 1367 015e 0A       		.uleb128 0xa
 1368 015f 6E3100   		.ascii	"n1\000"
 1369 0162 01       		.byte	0x1
 1370 0163 0C       		.byte	0xc
 1371 0164 30000000 		.4byte	0x30
 1372 0168 F5010000 		.4byte	.LLST10
 1373 016c 0A       		.uleb128 0xa
 1374 016d 6E3200   		.ascii	"n2\000"
 1375 0170 01       		.byte	0x1
 1376 0171 0C       		.byte	0xc
 1377 0172 30000000 		.4byte	0x30
 1378 0176 21020000 		.4byte	.LLST11
 1379 017a 0A       		.uleb128 0xa
 1380 017b 6E3300   		.ascii	"n3\000"
 1381 017e 01       		.byte	0x1
 1382 017f 0C       		.byte	0xc
 1383 0180 30000000 		.4byte	0x30
 1384 0184 4D020000 		.4byte	.LLST12
 1385 0188 00       		.byte	0x0
 1386 0189 05       		.uleb128 0x5
 1387 018a 04       		.byte	0x4
 1388 018b 8F010000 		.4byte	0x18f
 1389 018f 0B       		.uleb128 0xb
 1390 0190 0C       		.uleb128 0xc
 1391 0191 91000000 		.4byte	0x91
 1392 0195 A0010000 		.4byte	0x1a0
 1393 0199 0D       		.uleb128 0xd
 1394 019a 7E000000 		.4byte	0x7e
 1395 019e 40       		.byte	0x40
 1396 019f 00       		.byte	0x0
 1397 01a0 0E       		.uleb128 0xe
 1398 01a1 90010000 		.4byte	0x190
 1399 01a5 05       		.uleb128 0x5
 1400 01a6 04       		.byte	0x4
 1401 01a7 AB010000 		.4byte	0x1ab
 1402 01ab 0E       		.uleb128 0xe
 1403 01ac 30000000 		.4byte	0x30
 1404 01b0 06       		.uleb128 0x6
 1405 01b1 01       		.byte	0x1
 1406 01b2 FB000000 		.4byte	.LASF22
 1407 01b6 01       		.byte	0x1
 1408 01b7 64       		.byte	0x64
 1409 01b8 01       		.byte	0x1
 1410 01b9 77000000 		.4byte	0x77
 1411 01bd 00000000 		.4byte	.LFB1
 1412 01c1 2C010000 		.4byte	.LFE1
 1413 01c5 75020000 		.4byte	.LLST13
ARM GAS  /tmp/cc2PY9z6.s 			page 26


 1414 01c9 47020000 		.4byte	0x247
 1415 01cd 0F       		.uleb128 0xf
 1416 01ce 696E00   		.ascii	"in\000"
 1417 01d1 01       		.byte	0x1
 1418 01d2 64       		.byte	0x64
 1419 01d3 8B000000 		.4byte	0x8b
 1420 01d7 95020000 		.4byte	.LLST14
 1421 01db 07       		.uleb128 0x7
 1422 01dc A4000000 		.4byte	.LASF23
 1423 01e0 01       		.byte	0x1
 1424 01e1 64       		.byte	0x64
 1425 01e2 98000000 		.4byte	0x98
 1426 01e6 B3020000 		.4byte	.LLST15
 1427 01ea 0F       		.uleb128 0xf
 1428 01eb 6F757400 		.ascii	"out\000"
 1429 01ef 01       		.byte	0x1
 1430 01f0 64       		.byte	0x64
 1431 01f1 85000000 		.4byte	0x85
 1432 01f5 C6020000 		.4byte	.LLST16
 1433 01f9 10       		.uleb128 0x10
 1434 01fa 31010000 		.4byte	.LASF24
 1435 01fe 01       		.byte	0x1
 1436 01ff 64       		.byte	0x64
 1437 0200 47020000 		.4byte	0x247
 1438 0204 01       		.byte	0x1
 1439 0205 53       		.byte	0x53
 1440 0206 0A       		.uleb128 0xa
 1441 0207 656E6400 		.ascii	"end\000"
 1442 020b 01       		.byte	0x1
 1443 020c 66       		.byte	0x66
 1444 020d 8B000000 		.4byte	0x8b
 1445 0211 2A030000 		.4byte	.LLST17
 1446 0215 0A       		.uleb128 0xa
 1447 0216 62756600 		.ascii	"buf\000"
 1448 021a 01       		.byte	0x1
 1449 021b 67       		.byte	0x67
 1450 021c 98000000 		.4byte	0x98
 1451 0220 48030000 		.4byte	.LLST18
 1452 0224 0A       		.uleb128 0xa
 1453 0225 6C656E00 		.ascii	"len\000"
 1454 0229 01       		.byte	0x1
 1455 022a 67       		.byte	0x67
 1456 022b 98000000 		.4byte	0x98
 1457 022f CE030000 		.4byte	.LLST19
 1458 0233 11       		.uleb128 0x11
 1459 0234 00000000 		.4byte	.Ldebug_ranges0+0x0
 1460 0238 0A       		.uleb128 0xa
 1461 0239 6300     		.ascii	"c\000"
 1462 023b 01       		.byte	0x1
 1463 023c 6B       		.byte	0x6b
 1464 023d 3B000000 		.4byte	0x3b
 1465 0241 46040000 		.4byte	.LLST20
 1466 0245 00       		.byte	0x0
 1467 0246 00       		.byte	0x0
 1468 0247 05       		.uleb128 0x5
 1469 0248 04       		.byte	0x4
 1470 0249 98000000 		.4byte	0x98
ARM GAS  /tmp/cc2PY9z6.s 			page 27


 1471 024d 0C       		.uleb128 0xc
 1472 024e 3B000000 		.4byte	0x3b
 1473 0252 5D020000 		.4byte	0x25d
 1474 0256 0D       		.uleb128 0xd
 1475 0257 7E000000 		.4byte	0x7e
 1476 025b FF       		.byte	0xff
 1477 025c 00       		.byte	0x0
 1478 025d 12       		.uleb128 0x12
 1479 025e 6400     		.ascii	"d\000"
 1480 0260 01       		.byte	0x1
 1481 0261 56       		.byte	0x56
 1482 0262 6C020000 		.4byte	0x26c
 1483 0266 05       		.byte	0x5
 1484 0267 03       		.byte	0x3
 1485 0268 00000000 		.4byte	d
 1486 026c 0E       		.uleb128 0xe
 1487 026d 4D020000 		.4byte	0x24d
 1488 0271 00       		.byte	0x0
 1489              		.section	.debug_abbrev
 1490 0000 01       		.uleb128 0x1
 1491 0001 11       		.uleb128 0x11
 1492 0002 01       		.byte	0x1
 1493 0003 25       		.uleb128 0x25
 1494 0004 0E       		.uleb128 0xe
 1495 0005 13       		.uleb128 0x13
 1496 0006 0B       		.uleb128 0xb
 1497 0007 03       		.uleb128 0x3
 1498 0008 0E       		.uleb128 0xe
 1499 0009 1B       		.uleb128 0x1b
 1500 000a 0E       		.uleb128 0xe
 1501 000b 11       		.uleb128 0x11
 1502 000c 01       		.uleb128 0x1
 1503 000d 52       		.uleb128 0x52
 1504 000e 01       		.uleb128 0x1
 1505 000f 55       		.uleb128 0x55
 1506 0010 06       		.uleb128 0x6
 1507 0011 10       		.uleb128 0x10
 1508 0012 06       		.uleb128 0x6
 1509 0013 00       		.byte	0x0
 1510 0014 00       		.byte	0x0
 1511 0015 02       		.uleb128 0x2
 1512 0016 24       		.uleb128 0x24
 1513 0017 00       		.byte	0x0
 1514 0018 0B       		.uleb128 0xb
 1515 0019 0B       		.uleb128 0xb
 1516 001a 3E       		.uleb128 0x3e
 1517 001b 0B       		.uleb128 0xb
 1518 001c 03       		.uleb128 0x3
 1519 001d 0E       		.uleb128 0xe
 1520 001e 00       		.byte	0x0
 1521 001f 00       		.byte	0x0
 1522 0020 03       		.uleb128 0x3
 1523 0021 16       		.uleb128 0x16
 1524 0022 00       		.byte	0x0
 1525 0023 03       		.uleb128 0x3
 1526 0024 0E       		.uleb128 0xe
 1527 0025 3A       		.uleb128 0x3a
ARM GAS  /tmp/cc2PY9z6.s 			page 28


 1528 0026 0B       		.uleb128 0xb
 1529 0027 3B       		.uleb128 0x3b
 1530 0028 0B       		.uleb128 0xb
 1531 0029 49       		.uleb128 0x49
 1532 002a 13       		.uleb128 0x13
 1533 002b 00       		.byte	0x0
 1534 002c 00       		.byte	0x0
 1535 002d 04       		.uleb128 0x4
 1536 002e 24       		.uleb128 0x24
 1537 002f 00       		.byte	0x0
 1538 0030 0B       		.uleb128 0xb
 1539 0031 0B       		.uleb128 0xb
 1540 0032 3E       		.uleb128 0x3e
 1541 0033 0B       		.uleb128 0xb
 1542 0034 03       		.uleb128 0x3
 1543 0035 08       		.uleb128 0x8
 1544 0036 00       		.byte	0x0
 1545 0037 00       		.byte	0x0
 1546 0038 05       		.uleb128 0x5
 1547 0039 0F       		.uleb128 0xf
 1548 003a 00       		.byte	0x0
 1549 003b 0B       		.uleb128 0xb
 1550 003c 0B       		.uleb128 0xb
 1551 003d 49       		.uleb128 0x49
 1552 003e 13       		.uleb128 0x13
 1553 003f 00       		.byte	0x0
 1554 0040 00       		.byte	0x0
 1555 0041 06       		.uleb128 0x6
 1556 0042 2E       		.uleb128 0x2e
 1557 0043 01       		.byte	0x1
 1558 0044 3F       		.uleb128 0x3f
 1559 0045 0C       		.uleb128 0xc
 1560 0046 03       		.uleb128 0x3
 1561 0047 0E       		.uleb128 0xe
 1562 0048 3A       		.uleb128 0x3a
 1563 0049 0B       		.uleb128 0xb
 1564 004a 3B       		.uleb128 0x3b
 1565 004b 0B       		.uleb128 0xb
 1566 004c 27       		.uleb128 0x27
 1567 004d 0C       		.uleb128 0xc
 1568 004e 49       		.uleb128 0x49
 1569 004f 13       		.uleb128 0x13
 1570 0050 11       		.uleb128 0x11
 1571 0051 01       		.uleb128 0x1
 1572 0052 12       		.uleb128 0x12
 1573 0053 01       		.uleb128 0x1
 1574 0054 40       		.uleb128 0x40
 1575 0055 06       		.uleb128 0x6
 1576 0056 01       		.uleb128 0x1
 1577 0057 13       		.uleb128 0x13
 1578 0058 00       		.byte	0x0
 1579 0059 00       		.byte	0x0
 1580 005a 07       		.uleb128 0x7
 1581 005b 05       		.uleb128 0x5
 1582 005c 00       		.byte	0x0
 1583 005d 03       		.uleb128 0x3
 1584 005e 0E       		.uleb128 0xe
ARM GAS  /tmp/cc2PY9z6.s 			page 29


 1585 005f 3A       		.uleb128 0x3a
 1586 0060 0B       		.uleb128 0xb
 1587 0061 3B       		.uleb128 0x3b
 1588 0062 0B       		.uleb128 0xb
 1589 0063 49       		.uleb128 0x49
 1590 0064 13       		.uleb128 0x13
 1591 0065 02       		.uleb128 0x2
 1592 0066 06       		.uleb128 0x6
 1593 0067 00       		.byte	0x0
 1594 0068 00       		.byte	0x0
 1595 0069 08       		.uleb128 0x8
 1596 006a 34       		.uleb128 0x34
 1597 006b 00       		.byte	0x0
 1598 006c 03       		.uleb128 0x3
 1599 006d 0E       		.uleb128 0xe
 1600 006e 3A       		.uleb128 0x3a
 1601 006f 0B       		.uleb128 0xb
 1602 0070 3B       		.uleb128 0x3b
 1603 0071 0B       		.uleb128 0xb
 1604 0072 49       		.uleb128 0x49
 1605 0073 13       		.uleb128 0x13
 1606 0074 02       		.uleb128 0x2
 1607 0075 0A       		.uleb128 0xa
 1608 0076 00       		.byte	0x0
 1609 0077 00       		.byte	0x0
 1610 0078 09       		.uleb128 0x9
 1611 0079 34       		.uleb128 0x34
 1612 007a 00       		.byte	0x0
 1613 007b 03       		.uleb128 0x3
 1614 007c 0E       		.uleb128 0xe
 1615 007d 3A       		.uleb128 0x3a
 1616 007e 0B       		.uleb128 0xb
 1617 007f 3B       		.uleb128 0x3b
 1618 0080 0B       		.uleb128 0xb
 1619 0081 49       		.uleb128 0x49
 1620 0082 13       		.uleb128 0x13
 1621 0083 02       		.uleb128 0x2
 1622 0084 06       		.uleb128 0x6
 1623 0085 00       		.byte	0x0
 1624 0086 00       		.byte	0x0
 1625 0087 0A       		.uleb128 0xa
 1626 0088 34       		.uleb128 0x34
 1627 0089 00       		.byte	0x0
 1628 008a 03       		.uleb128 0x3
 1629 008b 08       		.uleb128 0x8
 1630 008c 3A       		.uleb128 0x3a
 1631 008d 0B       		.uleb128 0xb
 1632 008e 3B       		.uleb128 0x3b
 1633 008f 0B       		.uleb128 0xb
 1634 0090 49       		.uleb128 0x49
 1635 0091 13       		.uleb128 0x13
 1636 0092 02       		.uleb128 0x2
 1637 0093 06       		.uleb128 0x6
 1638 0094 00       		.byte	0x0
 1639 0095 00       		.byte	0x0
 1640 0096 0B       		.uleb128 0xb
 1641 0097 26       		.uleb128 0x26
ARM GAS  /tmp/cc2PY9z6.s 			page 30


 1642 0098 00       		.byte	0x0
 1643 0099 00       		.byte	0x0
 1644 009a 00       		.byte	0x0
 1645 009b 0C       		.uleb128 0xc
 1646 009c 01       		.uleb128 0x1
 1647 009d 01       		.byte	0x1
 1648 009e 49       		.uleb128 0x49
 1649 009f 13       		.uleb128 0x13
 1650 00a0 01       		.uleb128 0x1
 1651 00a1 13       		.uleb128 0x13
 1652 00a2 00       		.byte	0x0
 1653 00a3 00       		.byte	0x0
 1654 00a4 0D       		.uleb128 0xd
 1655 00a5 21       		.uleb128 0x21
 1656 00a6 00       		.byte	0x0
 1657 00a7 49       		.uleb128 0x49
 1658 00a8 13       		.uleb128 0x13
 1659 00a9 2F       		.uleb128 0x2f
 1660 00aa 0B       		.uleb128 0xb
 1661 00ab 00       		.byte	0x0
 1662 00ac 00       		.byte	0x0
 1663 00ad 0E       		.uleb128 0xe
 1664 00ae 26       		.uleb128 0x26
 1665 00af 00       		.byte	0x0
 1666 00b0 49       		.uleb128 0x49
 1667 00b1 13       		.uleb128 0x13
 1668 00b2 00       		.byte	0x0
 1669 00b3 00       		.byte	0x0
 1670 00b4 0F       		.uleb128 0xf
 1671 00b5 05       		.uleb128 0x5
 1672 00b6 00       		.byte	0x0
 1673 00b7 03       		.uleb128 0x3
 1674 00b8 08       		.uleb128 0x8
 1675 00b9 3A       		.uleb128 0x3a
 1676 00ba 0B       		.uleb128 0xb
 1677 00bb 3B       		.uleb128 0x3b
 1678 00bc 0B       		.uleb128 0xb
 1679 00bd 49       		.uleb128 0x49
 1680 00be 13       		.uleb128 0x13
 1681 00bf 02       		.uleb128 0x2
 1682 00c0 06       		.uleb128 0x6
 1683 00c1 00       		.byte	0x0
 1684 00c2 00       		.byte	0x0
 1685 00c3 10       		.uleb128 0x10
 1686 00c4 05       		.uleb128 0x5
 1687 00c5 00       		.byte	0x0
 1688 00c6 03       		.uleb128 0x3
 1689 00c7 0E       		.uleb128 0xe
 1690 00c8 3A       		.uleb128 0x3a
 1691 00c9 0B       		.uleb128 0xb
 1692 00ca 3B       		.uleb128 0x3b
 1693 00cb 0B       		.uleb128 0xb
 1694 00cc 49       		.uleb128 0x49
 1695 00cd 13       		.uleb128 0x13
 1696 00ce 02       		.uleb128 0x2
 1697 00cf 0A       		.uleb128 0xa
 1698 00d0 00       		.byte	0x0
ARM GAS  /tmp/cc2PY9z6.s 			page 31


 1699 00d1 00       		.byte	0x0
 1700 00d2 11       		.uleb128 0x11
 1701 00d3 0B       		.uleb128 0xb
 1702 00d4 01       		.byte	0x1
 1703 00d5 55       		.uleb128 0x55
 1704 00d6 06       		.uleb128 0x6
 1705 00d7 00       		.byte	0x0
 1706 00d8 00       		.byte	0x0
 1707 00d9 12       		.uleb128 0x12
 1708 00da 34       		.uleb128 0x34
 1709 00db 00       		.byte	0x0
 1710 00dc 03       		.uleb128 0x3
 1711 00dd 08       		.uleb128 0x8
 1712 00de 3A       		.uleb128 0x3a
 1713 00df 0B       		.uleb128 0xb
 1714 00e0 3B       		.uleb128 0x3b
 1715 00e1 0B       		.uleb128 0xb
 1716 00e2 49       		.uleb128 0x49
 1717 00e3 13       		.uleb128 0x13
 1718 00e4 02       		.uleb128 0x2
 1719 00e5 0A       		.uleb128 0xa
 1720 00e6 00       		.byte	0x0
 1721 00e7 00       		.byte	0x0
 1722 00e8 00       		.byte	0x0
 1723              		.section	.debug_pubnames,"",%progbits
 1724 0000 30000000 		.4byte	0x30
 1725 0004 0200     		.2byte	0x2
 1726 0006 00000000 		.4byte	.Ldebug_info0
 1727 000a 72020000 		.4byte	0x272
 1728 000e A3000000 		.4byte	0xa3
 1729 0012 62617365 		.ascii	"base64encode\000"
 1729      3634656E 
 1729      636F6465 
 1729      00
 1730 001f B0010000 		.4byte	0x1b0
 1731 0023 62617365 		.ascii	"base64decode\000"
 1731      36346465 
 1731      636F6465 
 1731      00
 1732 0030 00000000 		.4byte	0x0
 1733              		.section	.debug_pubtypes,"",%progbits
 1734 0000 32000000 		.4byte	0x32
 1735 0004 0200     		.2byte	0x2
 1736 0006 00000000 		.4byte	.Ldebug_info0
 1737 000a 72020000 		.4byte	0x272
 1738 000e 30000000 		.4byte	0x30
 1739 0012 75696E74 		.ascii	"uint8_t\000"
 1739      385F7400 
 1740 001a 57000000 		.4byte	0x57
 1741 001e 75696E74 		.ascii	"uint32_t\000"
 1741      33325F74 
 1741      00
 1742 0027 98000000 		.4byte	0x98
 1743 002b 73697A65 		.ascii	"size_t\000"
 1743      5F7400
 1744 0032 00000000 		.4byte	0x0
 1745              		.section	.debug_aranges,"",%progbits
ARM GAS  /tmp/cc2PY9z6.s 			page 32


 1746 0000 24000000 		.4byte	0x24
 1747 0004 0200     		.2byte	0x2
 1748 0006 00000000 		.4byte	.Ldebug_info0
 1749 000a 04       		.byte	0x4
 1750 000b 00       		.byte	0x0
 1751 000c 0000     		.2byte	0x0
 1752 000e 0000     		.2byte	0x0
 1753 0010 00000000 		.4byte	.LFB0
 1754 0014 08010000 		.4byte	.LFE0-.LFB0
 1755 0018 00000000 		.4byte	.LFB1
 1756 001c 2C010000 		.4byte	.LFE1-.LFB1
 1757 0020 00000000 		.4byte	0x0
 1758 0024 00000000 		.4byte	0x0
 1759              		.section	.debug_ranges,"",%progbits
 1760              	.Ldebug_ranges0:
 1761 0000 0A000000 		.4byte	.LBB2
 1762 0004 18000000 		.4byte	.LBE2
 1763 0008 74000000 		.4byte	.LBB6
 1764 000c E6000000 		.4byte	.LBE6
 1765 0010 38000000 		.4byte	.LBB5
 1766 0014 70000000 		.4byte	.LBE5
 1767 0018 24000000 		.4byte	.LBB4
 1768 001c 32000000 		.4byte	.LBE4
 1769 0020 1A000000 		.4byte	.LBB3
 1770 0024 1C000000 		.4byte	.LBE3
 1771 0028 00000000 		.4byte	0x0
 1772 002c 00000000 		.4byte	0x0
 1773 0030 00000000 		.4byte	.LFB0
 1774 0034 08010000 		.4byte	.LFE0
 1775 0038 00000000 		.4byte	.LFB1
 1776 003c 2C010000 		.4byte	.LFE1
 1777 0040 00000000 		.4byte	0x0
 1778 0044 00000000 		.4byte	0x0
 1779              		.section	.debug_str,"MS",%progbits,1
 1780              	.LASF15:
 1781 0000 72657375 		.ascii	"result\000"
 1781      6C7400
 1782              	.LASF25:
 1783 0007 474E5520 		.ascii	"GNU C 4.5.2\000"
 1783      4320342E 
 1783      352E3200 
 1784              	.LASF20:
 1785 0013 70616443 		.ascii	"padCount\000"
 1785      6F756E74 
 1785      00
 1786              	.LASF21:
 1787 001c 62617365 		.ascii	"base64encode\000"
 1787      3634656E 
 1787      636F6465 
 1787      00
 1788              	.LASF13:
 1789 0029 64617461 		.ascii	"data_buf\000"
 1789      5F627566 
 1789      00
 1790              	.LASF27:
 1791 0032 2F686F6D 		.ascii	"/home/z80/projects/voltamper.git/firmware/voltamp\000"
 1791      652F7A38 
ARM GAS  /tmp/cc2PY9z6.s 			page 33


 1791      302F7072 
 1791      6F6A6563 
 1791      74732F76 
 1792              	.LASF26:
 1793 0064 2E2F7372 		.ascii	"./src/base64.c\000"
 1793      632F6261 
 1793      73653634 
 1793      2E6300
 1794              	.LASF17:
 1795 0073 62617365 		.ascii	"base64chars\000"
 1795      36346368 
 1795      61727300 
 1796              	.LASF18:
 1797 007f 64617461 		.ascii	"data\000"
 1797      00
 1798              	.LASF1:
 1799 0084 756E7369 		.ascii	"unsigned char\000"
 1799      676E6564 
 1799      20636861 
 1799      7200
 1800              	.LASF7:
 1801 0092 6C6F6E67 		.ascii	"long unsigned int\000"
 1801      20756E73 
 1801      69676E65 
 1801      6420696E 
 1801      7400
 1802              	.LASF23:
 1803 00a4 696E4C65 		.ascii	"inLen\000"
 1803      6E00
 1804              	.LASF3:
 1805 00aa 73686F72 		.ascii	"short unsigned int\000"
 1805      7420756E 
 1805      7369676E 
 1805      65642069 
 1805      6E7400
 1806              	.LASF12:
 1807 00bd 73697A65 		.ascii	"size_t\000"
 1807      5F7400
 1808              	.LASF10:
 1809 00c4 756E7369 		.ascii	"unsigned int\000"
 1809      676E6564 
 1809      20696E74 
 1809      00
 1810              	.LASF9:
 1811 00d1 6C6F6E67 		.ascii	"long long unsigned int\000"
 1811      206C6F6E 
 1811      6720756E 
 1811      7369676E 
 1811      65642069 
 1812              	.LASF5:
 1813 00e8 75696E74 		.ascii	"uint8_t\000"
 1813      385F7400 
 1814              	.LASF14:
 1815 00f0 64617461 		.ascii	"dataLength\000"
 1815      4C656E67 
 1815      746800
 1816              	.LASF22:
ARM GAS  /tmp/cc2PY9z6.s 			page 34


 1817 00fb 62617365 		.ascii	"base64decode\000"
 1817      36346465 
 1817      636F6465 
 1817      00
 1818              	.LASF8:
 1819 0108 6C6F6E67 		.ascii	"long long int\000"
 1819      206C6F6E 
 1819      6720696E 
 1819      7400
 1820              	.LASF11:
 1821 0116 63686172 		.ascii	"char\000"
 1821      00
 1822              	.LASF19:
 1823 011b 72657375 		.ascii	"resultIndex\000"
 1823      6C74496E 
 1823      64657800 
 1824              	.LASF2:
 1825 0127 73686F72 		.ascii	"short int\000"
 1825      7420696E 
 1825      7400
 1826              	.LASF24:
 1827 0131 6F75744C 		.ascii	"outLen\000"
 1827      656E00
 1828              	.LASF6:
 1829 0138 75696E74 		.ascii	"uint32_t\000"
 1829      33325F74 
 1829      00
 1830              	.LASF4:
 1831 0141 6C6F6E67 		.ascii	"long int\000"
 1831      20696E74 
 1831      00
 1832              	.LASF0:
 1833 014a 7369676E 		.ascii	"signed char\000"
 1833      65642063 
 1833      68617200 
 1834              	.LASF16:
 1835 0156 72657375 		.ascii	"resultSize\000"
 1835      6C745369 
 1835      7A6500
 1836              		.ident	"GCC: (Sourcery G++ Lite 2011.03-42) 4.5.2"
ARM GAS  /tmp/cc2PY9z6.s 			page 35


DEFINED SYMBOLS
                            *ABS*:00000000 base64.c
     /tmp/cc2PY9z6.s:24     .text.base64encode:00000000 $t
     /tmp/cc2PY9z6.s:30     .text.base64encode:00000000 base64encode
     /tmp/cc2PY9z6.s:216    .text.base64encode:00000100 $d
     /tmp/cc2PY9z6.s:222    .text.base64decode:00000000 $t
     /tmp/cc2PY9z6.s:228    .text.base64decode:00000000 base64decode
     /tmp/cc2PY9z6.s:470    .text.base64decode:00000128 $d
     /tmp/cc2PY9z6.s:475    .rodata.str1.4:00000000 $d
     /tmp/cc2PY9z6.s:480    .rodata.d:00000000 $d
     /tmp/cc2PY9z6.s:484    .rodata.d:00000000 d
                     .debug_frame:00000010 $d
     /tmp/cc2PY9z6.s:221    .text.base64encode:00000108 $t
     /tmp/cc2PY9z6.s:474    .text.base64decode:0000012c $t

UNDEFINED SYMBOLS
memcpy
