ARM GAS  C:\Users\z80\AppData\Local\Temp\ccpYCoir.s 			page 1


   1              		.syntax unified
   2              		.cpu cortex-m3
   3              		.fpu softvfp
   4              		.eabi_attribute 20, 1
   5              		.eabi_attribute 21, 1
   6              		.eabi_attribute 23, 3
   7              		.eabi_attribute 24, 1
   8              		.eabi_attribute 25, 1
   9              		.eabi_attribute 26, 1
  10              		.eabi_attribute 30, 2
  11              		.eabi_attribute 18, 4
  12              		.thumb
  13              		.file	"chcore_v7m.c"
  20 0000 EF010000 		.text
  20      02003501 
  20      00000201 
  20      FB0E0D00 
  20      01010101 
  21              	.Ltext0:
  22              		.cfi_sections	.debug_frame
  23              		.section	.text._port_switch_from_isr,"ax",%progbits
  24              		.align	2
  25              		.p2align 4,,15
  26              		.global	_port_switch_from_isr
  27              		.thumb
  28              		.thumb_func
  29              		.type	_port_switch_from_isr, %function
  30              	_port_switch_from_isr:
  31              	.LFB11:
  32              		.file 1 "../chibios_2.4.x/os/ports/GCC/ARMCMx/chcore_v7m.c"
  33              		.loc 1 207 0
  34              		.cfi_startproc
  35              		@ Naked Function: prologue and epilogue provided by programmer.
  36              		@ args = 0, pretend = 0, frame = 0
  37              		@ frame_needed = 0, uses_anonymous_args = 0
  38              		.loc 1 209 0
  39 0000 FFF7FEFF 		bl	dbg_check_lock
  40              		.loc 1 210 0
  41 0004 FFF7FEFF 		bl	chSchDoReschedule
  42              		.loc 1 211 0
  43 0008 FFF7FEFF 		bl	dbg_check_unlock
  44              		.loc 1 212 0
  45              	@ 212 "../chibios_2.4.x/os/ports/GCC/ARMCMx/chcore_v7m.c" 1
  46              		_port_exit_from_isr:
  47              	@ 0 "" 2
  48              		.loc 1 214 0
  49              	@ 214 "../chibios_2.4.x/os/ports/GCC/ARMCMx/chcore_v7m.c" 1
  50 000c 00DF     		svc     #0
  51              	@ 0 "" 2
  52              		.loc 1 221 0
  53              		.thumb
ARM GAS  C:\Users\z80\AppData\Local\Temp\ccpYCoir.s 			page 2


  54              		.cfi_endproc
  55              	.LFE11:
  56              		.size	_port_switch_from_isr, .-_port_switch_from_isr
  57 000e 00BF     		.section	.text.SVCallVector,"ax",%progbits
  58              		.align	2
  59              		.p2align 4,,15
  60              		.global	SVCallVector
  61              		.thumb
  62              		.thumb_func
  63              		.type	SVCallVector, %function
  64              	SVCallVector:
  65              	.LFB8:
  66              		.loc 1 65 0
  67              		.cfi_startproc
  68              		@ args = 0, pretend = 0, frame = 0
  69              		@ frame_needed = 0, uses_anonymous_args = 0
  70              		@ link register save eliminated.
  71              		.loc 1 69 0
  72              	@ 69 "../chibios_2.4.x/os/ports/GCC/ARMCMx/chcore_v7m.c" 1
  73 0000 EFF30983 		mrs     r3, PSP
  74              	@ 0 "" 2
  75              	.LVL0:
  76              		.loc 1 73 0
  77              		.thumb
  78 0004 2033     		adds	r3, r3, #32
  79              	.LVL1:
  80              		.loc 1 80 0
  81              	@ 80 "../chibios_2.4.x/os/ports/GCC/ARMCMx/chcore_v7m.c" 1
  82 0006 83F30988 		msr     PSP, r3
  83              	@ 0 "" 2
  84              		.thumb
  85              	.LBB2:
  86              		.loc 1 81 0
  87 000a 0023     		movs	r3, #0
  88              	.LVL2:
  89              	@ 81 "../chibios_2.4.x/os/ports/GCC/ARMCMx/chcore_v7m.c" 1
  90 000c 83F31188 		msr     BASEPRI, r3
  91              	@ 0 "" 2
  92              	.LVL3:
  93              		.thumb
  94              	.LBE2:
  95              		.loc 1 82 0
  96 0010 7047     		bx	lr
  97              		.cfi_endproc
  98              	.LFE8:
  99              		.size	SVCallVector, .-SVCallVector
 100 0012 00BFAFF3 		.section	.text._port_init,"ax",%progbits
 100      0080AFF3 
 100      0080AFF3 
 100      0080
 101              		.align	2
 102              		.p2align 4,,15
 103              		.global	_port_init
 104              		.thumb
 105              		.thumb_func
 106              		.type	_port_init, %function
 107              	_port_init:
ARM GAS  C:\Users\z80\AppData\Local\Temp\ccpYCoir.s 			page 3


 108              	.LFB9:
 109              		.loc 1 118 0
 110              		.cfi_startproc
 111              		@ args = 0, pretend = 0, frame = 0
 112              		@ frame_needed = 0, uses_anonymous_args = 0
 113 0000 08B5     		push	{r3, lr}
 114              	.LCFI0:
 115              		.cfi_def_cfa_offset 8
 116              		.loc 1 122 0
 117 0002 0022     		movs	r2, #0
 118              		.loc 1 121 0
 119 0004 4FF46D43 		mov	r3, #60672
 120              		.cfi_offset 14, -4
 121              		.cfi_offset 3, -8
 122 0008 CEF20003 		movt	r3, 57344
 123              		.loc 1 122 0
 124 000c C0F2FA52 		movt	r2, 1530
 125              		.loc 1 121 0
 126 0010 0021     		movs	r1, #0
 127 0012 9960     		str	r1, [r3, #8]
 128              		.loc 1 125 0
 129 0014 0720     		movs	r0, #7
 130              		.loc 1 122 0
 131 0016 DA60     		str	r2, [r3, #12]
 132              		.loc 1 125 0
 133 0018 1021     		movs	r1, #16
 134 001a FFF7FEFF 		bl	nvicSetSystemHandlerPriority
 135              		.loc 1 127 0
 136 001e 0A20     		movs	r0, #10
 137 0020 4FF40071 		mov	r1, #512
 138 0024 FFF7FEFF 		bl	nvicSetSystemHandlerPriority
 139              		.loc 1 129 0
 140 0028 0B20     		movs	r0, #11
 141 002a 8021     		movs	r1, #128
 142 002c FFF7FEFF 		bl	nvicSetSystemHandlerPriority
 143              		.loc 1 131 0
 144 0030 08BD     		pop	{r3, pc}
 145              		.cfi_endproc
 146              	.LFE9:
 147              		.size	_port_init, .-_port_init
 148 0032 00BFAFF3 		.section	.text._port_irq_epilogue,"ax",%progbits
 148      0080AFF3 
 148      0080AFF3 
 148      0080
 149              		.align	2
 150              		.p2align 4,,15
 151              		.global	_port_irq_epilogue
 152              		.thumb
 153              		.thumb_func
 154              		.type	_port_irq_epilogue, %function
 155              	_port_irq_epilogue:
 156              	.LFB10:
 157              		.loc 1 148 0
 158              		.cfi_startproc
 159              		@ args = 0, pretend = 0, frame = 0
 160              		@ frame_needed = 0, uses_anonymous_args = 0
 161              		@ link register save eliminated.
ARM GAS  C:\Users\z80\AppData\Local\Temp\ccpYCoir.s 			page 4


 162              	.LBB3:
 163              		.loc 1 150 0
 164 0000 2023     		movs	r3, #32
 165              	.LVL4:
 166              	@ 150 "../chibios_2.4.x/os/ports/GCC/ARMCMx/chcore_v7m.c" 1
 167 0002 83F31188 		msr     BASEPRI, r3
 168              	@ 0 "" 2
 169              	.LVL5:
 170              		.thumb
 171              	.LBE3:
 172              		.loc 1 151 0
 173 0006 4FF46D43 		mov	r3, #60672
 174              	.LVL6:
 175 000a CEF20003 		movt	r3, 57344
 176 000e 5B68     		ldr	r3, [r3, #4]
 177 0010 13F40063 		ands	r3, r3, #2048
 178 0014 16D0     		beq	.L5
 179              	.LBB4:
 180              		.loc 1 155 0
 181              	@ 155 "../chibios_2.4.x/os/ports/GCC/ARMCMx/chcore_v7m.c" 1
 182 0016 EFF30983 		mrs     r3, PSP
 183              	@ 0 "" 2
 184              	.LVL7:
 185              		.loc 1 159 0
 186              		.thumb
 187 001a 203B     		subs	r3, r3, #32
 188              	.LVL8:
 189              		.loc 1 160 0
 190              	@ 160 "../chibios_2.4.x/os/ports/GCC/ARMCMx/chcore_v7m.c" 1
 191 001c 83F30988 		msr     PSP, r3
 192              	@ 0 "" 2
 193              		.loc 1 165 0
 194              		.thumb
 195 0020 104A     		ldr	r2, .L12
 196              		.loc 1 161 0
 197 0022 4FF08070 		mov	r0, #16777216
 198              		.loc 1 165 0
 199 0026 9169     		ldr	r1, [r2, #24]
 200              		.loc 1 161 0
 201 0028 D861     		str	r0, [r3, #28]
 202              		.loc 1 165 0
 203 002a 71B1     		cbz	r1, .L6
 204              		.loc 1 165 0 is_stmt 0 discriminator 1
 205 002c 1168     		ldr	r1, [r2, #0]
 206 002e D269     		ldr	r2, [r2, #28]
 207 0030 8968     		ldr	r1, [r1, #8]
 208 0032 9268     		ldr	r2, [r2, #8]
 209 0034 9142     		cmp	r1, r2
 210 0036 94BF     		ite	ls
 211 0038 0022     		movls	r2, #0
 212 003a 0122     		movhi	r2, #1
 213 003c 7AB1     		cbz	r2, .L8
 214              	.L11:
 215              		.loc 1 167 0 is_stmt 1
 216 003e 0A4A     		ldr	r2, .L12+4
 217 0040 9A61     		str	r2, [r3, #24]
 218 0042 01E0     		b	.L4
ARM GAS  C:\Users\z80\AppData\Local\Temp\ccpYCoir.s 			page 5


 219              	.LVL9:
 220              	.L5:
 221              	.LBE4:
 222              	.LBB5:
 223              		.loc 1 197 0
 224              	@ 197 "../chibios_2.4.x/os/ports/GCC/ARMCMx/chcore_v7m.c" 1
 225 0044 83F31188 		msr     BASEPRI, r3
 226              	@ 0 "" 2
 227              	.LVL10:
 228              		.thumb
 229              	.L4:
 230              	.LBE5:
 231              		.loc 1 198 0
 232 0048 7047     		bx	lr
 233              	.LVL11:
 234              	.L6:
 235              	.LBB6:
 236              		.loc 1 165 0 discriminator 2
 237 004a 1168     		ldr	r1, [r2, #0]
 238 004c D269     		ldr	r2, [r2, #28]
 239 004e 8968     		ldr	r1, [r1, #8]
 240 0050 9268     		ldr	r2, [r2, #8]
 241 0052 9142     		cmp	r1, r2
 242 0054 34BF     		ite	cc
 243 0056 0022     		movcc	r2, #0
 244 0058 0122     		movcs	r2, #1
 245 005a 002A     		cmp	r2, #0
 246 005c EFD1     		bne	.L11
 247              	.L8:
 248              		.loc 1 176 0
 249 005e 034A     		ldr	r2, .L12+8
 250 0060 9A61     		str	r2, [r3, #24]
 251 0062 F1E7     		b	.L4
 252              	.L13:
 253              		.align	2
 254              	.L12:
 255 0064 00000000 		.word	rlist
 256 0068 00000000 		.word	_port_switch_from_isr
 257 006c 0C000000 		.word	_port_exit_from_isr
 258              	.LBE6:
 259              		.cfi_endproc
 260              	.LFE10:
 261              		.size	_port_irq_epilogue, .-_port_irq_epilogue
 262              		.section	.text.SysTickVector,"ax",%progbits
 263              		.align	2
 264              		.p2align 4,,15
 265              		.global	SysTickVector
 266              		.thumb
 267              		.thumb_func
 268              		.type	SysTickVector, %function
 269              	SysTickVector:
 270              	.LFB7:
 271              		.loc 1 47 0
 272              		.cfi_startproc
 273              		@ args = 0, pretend = 0, frame = 0
 274              		@ frame_needed = 0, uses_anonymous_args = 0
 275 0000 08B5     		push	{r3, lr}
ARM GAS  C:\Users\z80\AppData\Local\Temp\ccpYCoir.s 			page 6


 276              	.LCFI1:
 277              		.cfi_def_cfa_offset 8
 278              		.loc 1 49 0
 279              		.cfi_offset 14, -4
 280              		.cfi_offset 3, -8
 281 0002 FFF7FEFF 		bl	dbg_check_enter_isr
 282              	.LBB7:
 283              		.loc 1 51 0
 284 0006 2023     		movs	r3, #32
 285              	.LVL12:
 286              	@ 51 "../chibios_2.4.x/os/ports/GCC/ARMCMx/chcore_v7m.c" 1
 287 0008 83F31188 		msr     BASEPRI, r3
 288              	@ 0 "" 2
 289              	.LVL13:
 290              		.thumb
 291              	.LBE7:
 292 000c FFF7FEFF 		bl	dbg_check_lock_from_isr
 293              	.LVL14:
 294              		.loc 1 52 0
 295 0010 FFF7FEFF 		bl	chSysTimerHandlerI
 296              		.loc 1 53 0
 297 0014 FFF7FEFF 		bl	dbg_check_unlock_from_isr
 298              	.LBB8:
 299 0018 0023     		movs	r3, #0
 300              	.LVL15:
 301              	@ 53 "../chibios_2.4.x/os/ports/GCC/ARMCMx/chcore_v7m.c" 1
 302 001a 83F31188 		msr     BASEPRI, r3
 303              	@ 0 "" 2
 304              	.LVL16:
 305              		.thumb
 306              	.LBE8:
 307              		.loc 1 55 0
 308 001e FFF7FEFF 		bl	dbg_check_leave_isr
 309              	.LVL17:
 310 0022 FFF7FEFF 		bl	_port_irq_epilogue
 311              		.loc 1 56 0
 312 0026 08BD     		pop	{r3, pc}
 313              		.cfi_endproc
 314              	.LFE7:
 315              		.size	SysTickVector, .-SysTickVector
 316 0028 AFF30080 		.section	.text._port_switch,"ax",%progbits
 316      AFF30080 
 317              		.align	2
 318              		.p2align 4,,15
 319              		.global	_port_switch
 320              		.thumb
 321              		.thumb_func
 322              		.type	_port_switch, %function
 323              	_port_switch:
 324              	.LFB12:
 325              		.loc 1 236 0
 326              		.cfi_startproc
 327              		@ Naked Function: prologue and epilogue provided by programmer.
 328              		@ args = 0, pretend = 0, frame = 0
 329              		@ frame_needed = 0, uses_anonymous_args = 0
 330              	.LVL18:
 331              		.loc 1 238 0
ARM GAS  C:\Users\z80\AppData\Local\Temp\ccpYCoir.s 			page 7


 332              	@ 238 "../chibios_2.4.x/os/ports/GCC/ARMCMx/chcore_v7m.c" 1
 333 0000 2DE9F04F 		push    {r4, r5, r6, r7, r8, r9, r10, r11, lr}
 334              	@ 0 "" 2
 335              		.loc 1 244 0
 336              	@ 244 "../chibios_2.4.x/os/ports/GCC/ARMCMx/chcore_v7m.c" 1
 337 0004 C1F80CD0 		str     sp, [r1, #12]                          
 338 0008 D0F80CD0 		ldr     sp, [r0, #12]
 339              	@ 0 "" 2
 340              		.loc 1 250 0
 341              	@ 250 "../chibios_2.4.x/os/ports/GCC/ARMCMx/chcore_v7m.c" 1
 342 000c BDE8F08F 		pop     {r4, r5, r6, r7, r8, r9, r10, r11, pc}
 343              	@ 0 "" 2
 344              		.loc 1 252 0
 345              		.thumb
 346              		.cfi_endproc
 347              	.LFE12:
 348              		.size	_port_switch, .-_port_switch
 349              		.section	.text._port_thread_start,"ax",%progbits
 350              		.align	2
 351              		.p2align 4,,15
 352              		.global	_port_thread_start
 353              		.thumb
 354              		.thumb_func
 355              		.type	_port_thread_start, %function
 356              	_port_thread_start:
 357              	.LFB13:
 358              		.loc 1 259 0
 359              		.cfi_startproc
 360              		@ args = 0, pretend = 0, frame = 0
 361              		@ frame_needed = 0, uses_anonymous_args = 0
 362 0000 08B5     		push	{r3, lr}
 363              	.LCFI2:
 364              		.cfi_def_cfa_offset 8
 365              		.loc 1 261 0
 366              		.cfi_offset 14, -4
 367              		.cfi_offset 3, -8
 368 0002 FFF7FEFF 		bl	dbg_check_unlock
 369              	.LBB9:
 370 0006 0023     		movs	r3, #0
 371              	.LVL19:
 372              	@ 261 "../chibios_2.4.x/os/ports/GCC/ARMCMx/chcore_v7m.c" 1
 373 0008 83F31188 		msr     BASEPRI, r3
 374              	@ 0 "" 2
 375              	.LVL20:
 376              		.thumb
 377              	.LBE9:
 378              		.loc 1 262 0
 379              	@ 262 "../chibios_2.4.x/os/ports/GCC/ARMCMx/chcore_v7m.c" 1
 380 000c 2846     		mov     r0, r5                                 
 381 000e A047     		blx     r4                                     
 382 0010 FFF7FEFF 		bl      chThdExit
 383              	@ 0 "" 2
 384              		.loc 1 265 0
 385              		.thumb
 386 0014 08BD     		pop	{r3, pc}
 387              		.cfi_endproc
 388              	.LFE13:
ARM GAS  C:\Users\z80\AppData\Local\Temp\ccpYCoir.s 			page 8


 389              		.size	_port_thread_start, .-_port_thread_start
 390 0016 00BFAFF3 		.text
 390      0080AFF3 
 390      0080
 391              	.Letext0: