ARM GAS  /tmp/cc94C5bd.s 			page 1


   1              		.syntax unified
   2              		.cpu cortex-m3
   3              		.fpu softvfp
   4              		.eabi_attribute 20, 1
   5              		.eabi_attribute 21, 1
   6              		.eabi_attribute 23, 3
   7              		.eabi_attribute 24, 1
   8              		.eabi_attribute 25, 1
   9              		.eabi_attribute 26, 1
  10              		.eabi_attribute 30, 6
  11              		.eabi_attribute 18, 4
  12              		.thumb
  13              		.file	"chcond.c"
  20 0000 C7020000 		.text
  20      02006D01 
  20      00000201 
  20      FB0E0D00 
  20      01010101 
  21              	.Ltext0:
  22              		.cfi_sections	.debug_frame
  23              		.section	.text.prio_insert,"ax",%progbits
  24              		.align	2
  25              		.p2align 4,,15
  26              		.thumb
  27              		.thumb_func
  28              		.type	prio_insert, %function
  29              	prio_insert:
  30              	.LFB0:
  31              		.file 1 "../chibios_2.4.x/os/kernel/include/chinline.h"
  32              		.loc 1 41 0
  33              		.cfi_startproc
  34              		@ args = 0, pretend = 0, frame = 16
  35              		@ frame_needed = 0, uses_anonymous_args = 0
  36              		@ link register save eliminated.
  37 0000 84B0     		sub	sp, sp, #16
  38              	.LCFI0:
  39              		.cfi_def_cfa_offset 16
  40 0002 0190     		str	r0, [sp, #4]
  41 0004 0091     		str	r1, [sp, #0]
  42              		.loc 1 43 0
  43 0006 009B     		ldr	r3, [sp, #0]
  44 0008 0393     		str	r3, [sp, #12]
  45              	.L3:
  46              		.loc 1 45 0 discriminator 1
  47 000a 039B     		ldr	r3, [sp, #12]
  48 000c 1B68     		ldr	r3, [r3, #0]
  49 000e 0393     		str	r3, [sp, #12]
  50              		.loc 1 46 0 discriminator 1
  51 0010 009B     		ldr	r3, [sp, #0]
  52 0012 039A     		ldr	r2, [sp, #12]
  53 0014 9A42     		cmp	r2, r3
ARM GAS  /tmp/cc94C5bd.s 			page 2


  54 0016 05D0     		beq	.L2
  55 0018 039B     		ldr	r3, [sp, #12]
  56 001a 9A68     		ldr	r2, [r3, #8]
  57 001c 019B     		ldr	r3, [sp, #4]
  58 001e 9B68     		ldr	r3, [r3, #8]
  59 0020 9A42     		cmp	r2, r3
  60 0022 F2D2     		bcs	.L3
  61              	.L2:
  62              		.loc 1 47 0
  63 0024 019B     		ldr	r3, [sp, #4]
  64 0026 039A     		ldr	r2, [sp, #12]
  65 0028 1A60     		str	r2, [r3, #0]
  66              		.loc 1 48 0
  67 002a 039B     		ldr	r3, [sp, #12]
  68 002c 5A68     		ldr	r2, [r3, #4]
  69 002e 019B     		ldr	r3, [sp, #4]
  70 0030 5A60     		str	r2, [r3, #4]
  71              		.loc 1 49 0
  72 0032 019B     		ldr	r3, [sp, #4]
  73 0034 5B68     		ldr	r3, [r3, #4]
  74 0036 039A     		ldr	r2, [sp, #12]
  75 0038 0199     		ldr	r1, [sp, #4]
  76 003a 5160     		str	r1, [r2, #4]
  77 003c 039A     		ldr	r2, [sp, #12]
  78 003e 5268     		ldr	r2, [r2, #4]
  79 0040 1A60     		str	r2, [r3, #0]
  80              		.loc 1 50 0
  81 0042 04B0     		add	sp, sp, #16
  82 0044 7047     		bx	lr
  83              		.cfi_endproc
  84              	.LFE0:
  85              		.size	prio_insert, .-prio_insert
  86 0046 00BFAFF3 		.section	.text.fifo_remove,"ax",%progbits
  86      0080AFF3 
  86      0080
  87              		.align	2
  88              		.p2align 4,,15
  89              		.thumb
  90              		.thumb_func
  91              		.type	fifo_remove, %function
  92              	fifo_remove:
  93              	.LFB2:
  94              		.loc 1 59 0
  95              		.cfi_startproc
  96              		@ args = 0, pretend = 0, frame = 16
  97              		@ frame_needed = 0, uses_anonymous_args = 0
  98              		@ link register save eliminated.
  99 0000 84B0     		sub	sp, sp, #16
 100              	.LCFI1:
 101              		.cfi_def_cfa_offset 16
 102 0002 0190     		str	r0, [sp, #4]
 103              		.loc 1 60 0
 104 0004 019B     		ldr	r3, [sp, #4]
 105 0006 1B68     		ldr	r3, [r3, #0]
 106 0008 0393     		str	r3, [sp, #12]
 107              		.loc 1 62 0
 108 000a 039B     		ldr	r3, [sp, #12]
ARM GAS  /tmp/cc94C5bd.s 			page 3


 109 000c 1A68     		ldr	r2, [r3, #0]
 110 000e 019B     		ldr	r3, [sp, #4]
 111 0010 1A60     		str	r2, [r3, #0]
 112 0012 019B     		ldr	r3, [sp, #4]
 113 0014 1B68     		ldr	r3, [r3, #0]
 114 0016 019A     		ldr	r2, [sp, #4]
 115 0018 5A60     		str	r2, [r3, #4]
 116              		.loc 1 63 0
 117 001a 039B     		ldr	r3, [sp, #12]
 118              		.loc 1 64 0
 119 001c 1846     		mov	r0, r3
 120 001e 04B0     		add	sp, sp, #16
 121 0020 7047     		bx	lr
 122              		.cfi_endproc
 123              	.LFE2:
 124              		.size	fifo_remove, .-fifo_remove
 125 0022 00BFAFF3 		.section	.rodata
 125      0080AFF3 
 125      0080AFF3 
 125      0080
 126              		.align	2
 127              	.LC0:
 128 0000 22636843 		.ascii	"\"chCondInit\"()\000"
 128      6F6E6449 
 128      6E697422 
 128      282900
 129              		.section	.text.chCondInit,"ax",%progbits
 130              		.align	2
 131              		.p2align 4,,15
 132              		.global	chCondInit
 133              		.thumb
 134              		.thumb_func
 135              		.type	chCondInit, %function
 136              	chCondInit:
 137              	.LFB7:
 138              		.file 2 "../chibios_2.4.x/os/kernel/src/chcond.c"
 139              		.loc 2 59 0
 140              		.cfi_startproc
 141              		@ args = 0, pretend = 0, frame = 8
 142              		@ frame_needed = 0, uses_anonymous_args = 0
 143 0000 00B5     		push	{lr}
 144              	.LCFI2:
 145              		.cfi_def_cfa_offset 4
 146 0002 83B0     		sub	sp, sp, #12
 147              	.LCFI3:
 148              		.cfi_def_cfa_offset 16
 149 0004 0190     		str	r0, [sp, #4]
 150              		.loc 2 61 0
 151 0006 019B     		ldr	r3, [sp, #4]
 152 0008 002B     		cmp	r3, #0
 153 000a 02D1     		bne	.L6
 154              		.cfi_offset 14, -4
 155              		.loc 2 61 0 is_stmt 0 discriminator 1
 156 000c 0648     		ldr	r0, .L7
 157 000e FFF7FEFF 		bl	chDbgPanic
 158              	.L6:
 159              		.loc 2 63 0 is_stmt 1
ARM GAS  /tmp/cc94C5bd.s 			page 4


 160 0012 019B     		ldr	r3, [sp, #4]
 161 0014 1A46     		mov	r2, r3
 162 0016 019B     		ldr	r3, [sp, #4]
 163 0018 5A60     		str	r2, [r3, #4]
 164 001a 019B     		ldr	r3, [sp, #4]
 165 001c 5A68     		ldr	r2, [r3, #4]
 166 001e 019B     		ldr	r3, [sp, #4]
 167 0020 1A60     		str	r2, [r3, #0]
 168              		.loc 2 64 0
 169 0022 03B0     		add	sp, sp, #12
 170 0024 00BD     		pop	{pc}
 171              	.L8:
 172 0026 00BF     		.align	2
 173              	.L7:
 174 0028 00000000 		.word	.LC0
 175              		.cfi_endproc
 176              	.LFE7:
 177              		.size	chCondInit, .-chCondInit
 178 002c AFF30080 		.section	.rodata
 179 000f 00       		.align	2
 180              	.LC1:
 181 0010 22636843 		.ascii	"\"chCondSignal\"()\000"
 181      6F6E6453 
 181      69676E61 
 181      6C222829 
 181      00
 182              		.section	.text.chCondSignal,"ax",%progbits
 183              		.align	2
 184              		.p2align 4,,15
 185              		.global	chCondSignal
 186              		.thumb
 187              		.thumb_func
 188              		.type	chCondSignal, %function
 189              	chCondSignal:
 190              	.LFB8:
 191              		.loc 2 73 0
 192              		.cfi_startproc
 193              		@ args = 0, pretend = 0, frame = 8
 194              		@ frame_needed = 0, uses_anonymous_args = 0
 195 0000 00B5     		push	{lr}
 196              	.LCFI4:
 197              		.cfi_def_cfa_offset 4
 198 0002 83B0     		sub	sp, sp, #12
 199              	.LCFI5:
 200              		.cfi_def_cfa_offset 16
 201 0004 0190     		str	r0, [sp, #4]
 202              		.loc 2 75 0
 203 0006 019B     		ldr	r3, [sp, #4]
 204 0008 002B     		cmp	r3, #0
 205 000a 02D1     		bne	.L10
 206              		.cfi_offset 14, -4
 207              		.loc 2 75 0 is_stmt 0 discriminator 1
 208 000c 0F48     		ldr	r0, .L12
 209 000e FFF7FEFF 		bl	chDbgPanic
 210              	.L10:
 211              	.LBB2:
 212              		.loc 2 77 0 is_stmt 1
ARM GAS  /tmp/cc94C5bd.s 			page 5


 213 0012 4FF02003 		mov	r3, #32
 214              	@ 77 "../chibios_2.4.x/os/kernel/src/chcond.c" 1
 215 0016 83F31188 		msr     BASEPRI, r3
 216              	@ 0 "" 2
 217              		.thumb
 218              	.LBE2:
 219 001a FFF7FEFF 		bl	dbg_check_lock
 220              		.loc 2 78 0
 221 001e 019B     		ldr	r3, [sp, #4]
 222 0020 1A68     		ldr	r2, [r3, #0]
 223 0022 019B     		ldr	r3, [sp, #4]
 224 0024 9A42     		cmp	r2, r3
 225 0026 09D0     		beq	.L11
 226              		.loc 2 79 0
 227 0028 019B     		ldr	r3, [sp, #4]
 228 002a 1846     		mov	r0, r3
 229 002c FFF7FEFF 		bl	fifo_remove
 230 0030 0346     		mov	r3, r0
 231 0032 1846     		mov	r0, r3
 232 0034 4FF00001 		mov	r1, #0
 233 0038 FFF7FEFF 		bl	chSchWakeupS
 234              	.L11:
 235              		.loc 2 80 0
 236 003c FFF7FEFF 		bl	dbg_check_unlock
 237              	.LBB3:
 238 0040 4FF00003 		mov	r3, #0
 239              	@ 80 "../chibios_2.4.x/os/kernel/src/chcond.c" 1
 240 0044 83F31188 		msr     BASEPRI, r3
 241              	@ 0 "" 2
 242              		.thumb
 243              	.LBE3:
 244              		.loc 2 81 0
 245 0048 03B0     		add	sp, sp, #12
 246 004a 00BD     		pop	{pc}
 247              	.L13:
 248              		.align	2
 249              	.L12:
 250 004c 10000000 		.word	.LC1
 251              		.cfi_endproc
 252              	.LFE8:
 253              		.size	chCondSignal, .-chCondSignal
 254              		.section	.rodata
 255 0021 000000   		.align	2
 256              	.LC2:
 257 0024 22636843 		.ascii	"\"chCondSignalI\"()\000"
 257      6F6E6453 
 257      69676E61 
 257      6C492228 
 257      2900
 258              		.section	.text.chCondSignalI,"ax",%progbits
 259              		.align	2
 260              		.p2align 4,,15
 261              		.global	chCondSignalI
 262              		.thumb
 263              		.thumb_func
 264              		.type	chCondSignalI, %function
 265              	chCondSignalI:
ARM GAS  /tmp/cc94C5bd.s 			page 6


 266              	.LFB9:
 267              		.loc 2 94 0
 268              		.cfi_startproc
 269              		@ args = 0, pretend = 0, frame = 8
 270              		@ frame_needed = 0, uses_anonymous_args = 0
 271 0000 00B5     		push	{lr}
 272              	.LCFI6:
 273              		.cfi_def_cfa_offset 4
 274 0002 83B0     		sub	sp, sp, #12
 275              	.LCFI7:
 276              		.cfi_def_cfa_offset 16
 277 0004 0190     		str	r0, [sp, #4]
 278              		.loc 2 96 0
 279              		.cfi_offset 14, -4
 280 0006 FFF7FEFF 		bl	chDbgCheckClassI
 281              		.loc 2 97 0
 282 000a 019B     		ldr	r3, [sp, #4]
 283 000c 002B     		cmp	r3, #0
 284 000e 02D1     		bne	.L15
 285              		.loc 2 97 0 is_stmt 0 discriminator 1
 286 0010 0A48     		ldr	r0, .L17
 287 0012 FFF7FEFF 		bl	chDbgPanic
 288              	.L15:
 289              		.loc 2 99 0 is_stmt 1
 290 0016 019B     		ldr	r3, [sp, #4]
 291 0018 1A68     		ldr	r2, [r3, #0]
 292 001a 019B     		ldr	r3, [sp, #4]
 293 001c 9A42     		cmp	r2, r3
 294 001e 0BD0     		beq	.L14
 295              		.loc 2 100 0
 296 0020 019B     		ldr	r3, [sp, #4]
 297 0022 1846     		mov	r0, r3
 298 0024 FFF7FEFF 		bl	fifo_remove
 299 0028 0346     		mov	r3, r0
 300 002a 1846     		mov	r0, r3
 301 002c FFF7FEFF 		bl	chSchReadyI
 302 0030 0346     		mov	r3, r0
 303 0032 4FF00002 		mov	r2, #0
 304 0036 9A62     		str	r2, [r3, #40]
 305              	.L14:
 306              		.loc 2 101 0
 307 0038 03B0     		add	sp, sp, #12
 308 003a 00BD     		pop	{pc}
 309              	.L18:
 310              		.align	2
 311              	.L17:
 312 003c 24000000 		.word	.LC2
 313              		.cfi_endproc
 314              	.LFE9:
 315              		.size	chCondSignalI, .-chCondSignalI
 316              		.section	.text.chCondBroadcast,"ax",%progbits
 317              		.align	2
 318              		.p2align 4,,15
 319              		.global	chCondBroadcast
 320              		.thumb
 321              		.thumb_func
 322              		.type	chCondBroadcast, %function
ARM GAS  /tmp/cc94C5bd.s 			page 7


 323              	chCondBroadcast:
 324              	.LFB10:
 325              		.loc 2 110 0
 326              		.cfi_startproc
 327              		@ args = 0, pretend = 0, frame = 8
 328              		@ frame_needed = 0, uses_anonymous_args = 0
 329 0000 00B5     		push	{lr}
 330              	.LCFI8:
 331              		.cfi_def_cfa_offset 4
 332 0002 83B0     		sub	sp, sp, #12
 333              	.LCFI9:
 334              		.cfi_def_cfa_offset 16
 335 0004 0190     		str	r0, [sp, #4]
 336              	.LBB4:
 337              		.loc 2 112 0
 338 0006 4FF02003 		mov	r3, #32
 339              	@ 112 "../chibios_2.4.x/os/kernel/src/chcond.c" 1
 340 000a 83F31188 		msr     BASEPRI, r3
 341              	@ 0 "" 2
 342              		.thumb
 343              	.LBE4:
 344              		.cfi_offset 14, -4
 345 000e FFF7FEFF 		bl	dbg_check_lock
 346              		.loc 2 113 0
 347 0012 0198     		ldr	r0, [sp, #4]
 348 0014 FFF7FEFF 		bl	chCondBroadcastI
 349              		.loc 2 114 0
 350 0018 FFF7FEFF 		bl	chSchRescheduleS
 351              		.loc 2 115 0
 352 001c FFF7FEFF 		bl	dbg_check_unlock
 353              	.LBB5:
 354 0020 4FF00003 		mov	r3, #0
 355              	@ 115 "../chibios_2.4.x/os/kernel/src/chcond.c" 1
 356 0024 83F31188 		msr     BASEPRI, r3
 357              	@ 0 "" 2
 358              		.thumb
 359              	.LBE5:
 360              		.loc 2 116 0
 361 0028 03B0     		add	sp, sp, #12
 362 002a 00BD     		pop	{pc}
 363              		.cfi_endproc
 364              	.LFE10:
 365              		.size	chCondBroadcast, .-chCondBroadcast
 366 002c AFF30080 		.section	.rodata
 367 0036 0000     		.align	2
 368              	.LC3:
 369 0038 22636843 		.ascii	"\"chCondBroadcastI\"()\000"
 369      6F6E6442 
 369      726F6164 
 369      63617374 
 369      49222829 
 370              		.section	.text.chCondBroadcastI,"ax",%progbits
 371              		.align	2
 372              		.p2align 4,,15
 373              		.global	chCondBroadcastI
 374              		.thumb
 375              		.thumb_func
ARM GAS  /tmp/cc94C5bd.s 			page 8


 376              		.type	chCondBroadcastI, %function
 377              	chCondBroadcastI:
 378              	.LFB11:
 379              		.loc 2 129 0
 380              		.cfi_startproc
 381              		@ args = 0, pretend = 0, frame = 8
 382              		@ frame_needed = 0, uses_anonymous_args = 0
 383 0000 00B5     		push	{lr}
 384              	.LCFI10:
 385              		.cfi_def_cfa_offset 4
 386 0002 83B0     		sub	sp, sp, #12
 387              	.LCFI11:
 388              		.cfi_def_cfa_offset 16
 389 0004 0190     		str	r0, [sp, #4]
 390              		.loc 2 131 0
 391              		.cfi_offset 14, -4
 392 0006 FFF7FEFF 		bl	chDbgCheckClassI
 393              		.loc 2 132 0
 394 000a 019B     		ldr	r3, [sp, #4]
 395 000c 002B     		cmp	r3, #0
 396 000e 10D1     		bne	.L24
 397              		.loc 2 132 0 is_stmt 0 discriminator 1
 398 0010 0C48     		ldr	r0, .L25
 399 0012 FFF7FEFF 		bl	chDbgPanic
 400              		.loc 2 137 0 is_stmt 1 discriminator 1
 401 0016 0DE0     		b	.L22
 402              	.L23:
 403              		.loc 2 138 0
 404 0018 019B     		ldr	r3, [sp, #4]
 405 001a 1846     		mov	r0, r3
 406 001c FFF7FEFF 		bl	fifo_remove
 407 0020 0346     		mov	r3, r0
 408 0022 1846     		mov	r0, r3
 409 0024 FFF7FEFF 		bl	chSchReadyI
 410 0028 0346     		mov	r3, r0
 411 002a 6FF00102 		mvn	r2, #1
 412 002e 9A62     		str	r2, [r3, #40]
 413 0030 00E0     		b	.L22
 414              	.L24:
 415              		.loc 2 137 0
 416 0032 00BF     		nop
 417              	.L22:
 418              		.loc 2 137 0 is_stmt 0 discriminator 1
 419 0034 019B     		ldr	r3, [sp, #4]
 420 0036 1A68     		ldr	r2, [r3, #0]
 421 0038 019B     		ldr	r3, [sp, #4]
 422 003a 9A42     		cmp	r2, r3
 423 003c ECD1     		bne	.L23
 424              		.loc 2 139 0 is_stmt 1
 425 003e 03B0     		add	sp, sp, #12
 426 0040 00BD     		pop	{pc}
 427              	.L26:
 428 0042 00BF     		.align	2
 429              	.L25:
 430 0044 38000000 		.word	.LC3
 431              		.cfi_endproc
 432              	.LFE11:
ARM GAS  /tmp/cc94C5bd.s 			page 9


 433              		.size	chCondBroadcastI, .-chCondBroadcastI
 434 0048 AFF30080 		.section	.text.chCondWait,"ax",%progbits
 434      AFF30080 
 435              		.align	2
 436              		.p2align 4,,15
 437              		.global	chCondWait
 438              		.thumb
 439              		.thumb_func
 440              		.type	chCondWait, %function
 441              	chCondWait:
 442              	.LFB12:
 443              		.loc 2 158 0
 444              		.cfi_startproc
 445              		@ args = 0, pretend = 0, frame = 16
 446              		@ frame_needed = 0, uses_anonymous_args = 0
 447 0000 00B5     		push	{lr}
 448              	.LCFI12:
 449              		.cfi_def_cfa_offset 4
 450 0002 85B0     		sub	sp, sp, #20
 451              	.LCFI13:
 452              		.cfi_def_cfa_offset 24
 453 0004 0190     		str	r0, [sp, #4]
 454              	.LBB6:
 455              		.loc 2 161 0
 456 0006 4FF02003 		mov	r3, #32
 457              	@ 161 "../chibios_2.4.x/os/kernel/src/chcond.c" 1
 458 000a 83F31188 		msr     BASEPRI, r3
 459              	@ 0 "" 2
 460              		.thumb
 461              	.LBE6:
 462              		.cfi_offset 14, -4
 463 000e FFF7FEFF 		bl	dbg_check_lock
 464              		.loc 2 162 0
 465 0012 0198     		ldr	r0, [sp, #4]
 466 0014 FFF7FEFF 		bl	chCondWaitS
 467 0018 0390     		str	r0, [sp, #12]
 468              		.loc 2 163 0
 469 001a FFF7FEFF 		bl	dbg_check_unlock
 470              	.LBB7:
 471 001e 4FF00003 		mov	r3, #0
 472              	@ 163 "../chibios_2.4.x/os/kernel/src/chcond.c" 1
 473 0022 83F31188 		msr     BASEPRI, r3
 474              	@ 0 "" 2
 475              		.thumb
 476              	.LBE7:
 477              		.loc 2 164 0
 478 0026 039B     		ldr	r3, [sp, #12]
 479              		.loc 2 165 0
 480 0028 1846     		mov	r0, r3
 481 002a 05B0     		add	sp, sp, #20
 482 002c 00BD     		pop	{pc}
 483              		.cfi_endproc
 484              	.LFE12:
 485              		.size	chCondWait, .-chCondWait
 486 002e 00BF     		.section	.rodata
 487 004d 000000   		.align	2
 488              	.LC4:
ARM GAS  /tmp/cc94C5bd.s 			page 10


 489 0050 22636843 		.ascii	"\"chCondWaitS\"()\000"
 489      6F6E6457 
 489      61697453 
 489      22282900 
 490              		.align	2
 491              	.LC5:
 492 0060 6368436F 		.ascii	"chCondWaitS(), #1\000"
 492      6E645761 
 492      69745328 
 492      292C2023 
 492      3100
 493              		.section	.text.chCondWaitS,"ax",%progbits
 494              		.align	2
 495              		.p2align 4,,15
 496              		.global	chCondWaitS
 497              		.thumb
 498              		.thumb_func
 499              		.type	chCondWaitS, %function
 500              	chCondWaitS:
 501              	.LFB13:
 502              		.loc 2 184 0
 503              		.cfi_startproc
 504              		@ args = 0, pretend = 0, frame = 24
 505              		@ frame_needed = 0, uses_anonymous_args = 0
 506 0000 00B5     		push	{lr}
 507              	.LCFI14:
 508              		.cfi_def_cfa_offset 4
 509 0002 87B0     		sub	sp, sp, #28
 510              	.LCFI15:
 511              		.cfi_def_cfa_offset 32
 512 0004 0190     		str	r0, [sp, #4]
 513              		.loc 2 185 0
 514 0006 154B     		ldr	r3, .L31
 515 0008 DB69     		ldr	r3, [r3, #28]
 516 000a 0593     		str	r3, [sp, #20]
 517              		.loc 2 189 0
 518              		.cfi_offset 14, -4
 519 000c FFF7FEFF 		bl	chDbgCheckClassS
 520              		.loc 2 190 0
 521 0010 019B     		ldr	r3, [sp, #4]
 522 0012 002B     		cmp	r3, #0
 523 0014 02D1     		bne	.L29
 524              		.loc 2 190 0 is_stmt 0 discriminator 1
 525 0016 1248     		ldr	r0, .L31+4
 526 0018 FFF7FEFF 		bl	chDbgPanic
 527              	.L29:
 528              		.loc 2 191 0 is_stmt 1
 529 001c 059B     		ldr	r3, [sp, #20]
 530 001e 1B6C     		ldr	r3, [r3, #64]
 531 0020 002B     		cmp	r3, #0
 532 0022 02D1     		bne	.L30
 533              		.loc 2 191 0 is_stmt 0 discriminator 1
 534 0024 0F48     		ldr	r0, .L31+8
 535 0026 FFF7FEFF 		bl	chDbgPanic
 536              	.L30:
 537              		.loc 2 195 0 is_stmt 1
 538 002a FFF7FEFF 		bl	chMtxUnlockS
ARM GAS  /tmp/cc94C5bd.s 			page 11


 539 002e 0490     		str	r0, [sp, #16]
 540              		.loc 2 196 0
 541 0030 059B     		ldr	r3, [sp, #20]
 542 0032 019A     		ldr	r2, [sp, #4]
 543 0034 9A62     		str	r2, [r3, #40]
 544              		.loc 2 197 0
 545 0036 019B     		ldr	r3, [sp, #4]
 546 0038 0598     		ldr	r0, [sp, #20]
 547 003a 1946     		mov	r1, r3
 548 003c FFF7FEFF 		bl	prio_insert
 549              		.loc 2 198 0
 550 0040 4FF00500 		mov	r0, #5
 551 0044 FFF7FEFF 		bl	chSchGoSleepS
 552              		.loc 2 199 0
 553 0048 059B     		ldr	r3, [sp, #20]
 554 004a 9B6A     		ldr	r3, [r3, #40]
 555 004c 0393     		str	r3, [sp, #12]
 556              		.loc 2 200 0
 557 004e 0498     		ldr	r0, [sp, #16]
 558 0050 FFF7FEFF 		bl	chMtxLockS
 559              		.loc 2 201 0
 560 0054 039B     		ldr	r3, [sp, #12]
 561              		.loc 2 202 0
 562 0056 1846     		mov	r0, r3
 563 0058 07B0     		add	sp, sp, #28
 564 005a 00BD     		pop	{pc}
 565              	.L32:
 566              		.align	2
 567              	.L31:
 568 005c 00000000 		.word	rlist
 569 0060 50000000 		.word	.LC4
 570 0064 60000000 		.word	.LC5
 571              		.cfi_endproc
 572              	.LFE13:
 573              		.size	chCondWaitS, .-chCondWaitS
 574 0068 AFF30080 		.section	.text.chCondWaitTimeout,"ax",%progbits
 574      AFF30080 
 575              		.align	2
 576              		.p2align 4,,15
 577              		.global	chCondWaitTimeout
 578              		.thumb
 579              		.thumb_func
 580              		.type	chCondWaitTimeout, %function
 581              	chCondWaitTimeout:
 582              	.LFB14:
 583              		.loc 2 233 0
 584              		.cfi_startproc
 585              		@ args = 0, pretend = 0, frame = 16
 586              		@ frame_needed = 0, uses_anonymous_args = 0
 587 0000 00B5     		push	{lr}
 588              	.LCFI16:
 589              		.cfi_def_cfa_offset 4
 590 0002 85B0     		sub	sp, sp, #20
 591              	.LCFI17:
 592              		.cfi_def_cfa_offset 24
 593 0004 0190     		str	r0, [sp, #4]
 594 0006 0091     		str	r1, [sp, #0]
ARM GAS  /tmp/cc94C5bd.s 			page 12


 595              	.LBB8:
 596              		.loc 2 236 0
 597 0008 4FF02003 		mov	r3, #32
 598              	@ 236 "../chibios_2.4.x/os/kernel/src/chcond.c" 1
 599 000c 83F31188 		msr     BASEPRI, r3
 600              	@ 0 "" 2
 601              		.thumb
 602              	.LBE8:
 603              		.cfi_offset 14, -4
 604 0010 FFF7FEFF 		bl	dbg_check_lock
 605              		.loc 2 237 0
 606 0014 0198     		ldr	r0, [sp, #4]
 607 0016 0099     		ldr	r1, [sp, #0]
 608 0018 FFF7FEFF 		bl	chCondWaitTimeoutS
 609 001c 0390     		str	r0, [sp, #12]
 610              		.loc 2 238 0
 611 001e FFF7FEFF 		bl	dbg_check_unlock
 612              	.LBB9:
 613 0022 4FF00003 		mov	r3, #0
 614              	@ 238 "../chibios_2.4.x/os/kernel/src/chcond.c" 1
 615 0026 83F31188 		msr     BASEPRI, r3
 616              	@ 0 "" 2
 617              		.thumb
 618              	.LBE9:
 619              		.loc 2 239 0
 620 002a 039B     		ldr	r3, [sp, #12]
 621              		.loc 2 240 0
 622 002c 1846     		mov	r0, r3
 623 002e 05B0     		add	sp, sp, #20
 624 0030 00BD     		pop	{pc}
 625              		.cfi_endproc
 626              	.LFE14:
 627              		.size	chCondWaitTimeout, .-chCondWaitTimeout
 628 0032 00BFAFF3 		.section	.rodata
 628      0080AFF3 
 628      0080AFF3 
 628      0080
 629 0072 0000     		.align	2
 630              	.LC6:
 631 0074 22636843 		.ascii	"\"chCondWaitTimeoutS\"()\000"
 631      6F6E6457 
 631      61697454 
 631      696D656F 
 631      75745322 
 632 008b 00       		.align	2
 633              	.LC7:
 634 008c 6368436F 		.ascii	"chCondWaitTimeoutS(), #1\000"
 634      6E645761 
 634      69745469 
 634      6D656F75 
 634      74532829 
 635 00a5 000000   		.section	.text.chCondWaitTimeoutS,"ax",%progbits
 636              		.align	2
 637              		.p2align 4,,15
 638              		.global	chCondWaitTimeoutS
 639              		.thumb
 640              		.thumb_func
ARM GAS  /tmp/cc94C5bd.s 			page 13


 641              		.type	chCondWaitTimeoutS, %function
 642              	chCondWaitTimeoutS:
 643              	.LFB15:
 644              		.loc 2 270 0
 645              		.cfi_startproc
 646              		@ args = 0, pretend = 0, frame = 16
 647              		@ frame_needed = 0, uses_anonymous_args = 0
 648 0000 00B5     		push	{lr}
 649              	.LCFI18:
 650              		.cfi_def_cfa_offset 4
 651 0002 85B0     		sub	sp, sp, #20
 652              	.LCFI19:
 653              		.cfi_def_cfa_offset 24
 654 0004 0190     		str	r0, [sp, #4]
 655 0006 0091     		str	r1, [sp, #0]
 656              		.loc 2 274 0
 657              		.cfi_offset 14, -4
 658 0008 FFF7FEFF 		bl	chDbgCheckClassS
 659              		.loc 2 275 0
 660 000c 019B     		ldr	r3, [sp, #4]
 661 000e 002B     		cmp	r3, #0
 662 0010 02D0     		beq	.L35
 663              		.loc 2 275 0 is_stmt 0 discriminator 2
 664 0012 009B     		ldr	r3, [sp, #0]
 665 0014 002B     		cmp	r3, #0
 666 0016 02D1     		bne	.L36
 667              	.L35:
 668              		.loc 2 275 0 discriminator 1
 669 0018 1448     		ldr	r0, .L39
 670 001a FFF7FEFF 		bl	chDbgPanic
 671              	.L36:
 672              		.loc 2 276 0 is_stmt 1
 673 001e 144B     		ldr	r3, .L39+4
 674 0020 DB69     		ldr	r3, [r3, #28]
 675 0022 1B6C     		ldr	r3, [r3, #64]
 676 0024 002B     		cmp	r3, #0
 677 0026 02D1     		bne	.L37
 678              		.loc 2 276 0 is_stmt 0 discriminator 1
 679 0028 1248     		ldr	r0, .L39+8
 680 002a FFF7FEFF 		bl	chDbgPanic
 681              	.L37:
 682              		.loc 2 280 0 is_stmt 1
 683 002e FFF7FEFF 		bl	chMtxUnlockS
 684 0032 0390     		str	r0, [sp, #12]
 685              		.loc 2 281 0
 686 0034 0E4B     		ldr	r3, .L39+4
 687 0036 DB69     		ldr	r3, [r3, #28]
 688 0038 019A     		ldr	r2, [sp, #4]
 689 003a 9A62     		str	r2, [r3, #40]
 690              		.loc 2 282 0
 691 003c 0C4B     		ldr	r3, .L39+4
 692 003e DA69     		ldr	r2, [r3, #28]
 693 0040 019B     		ldr	r3, [sp, #4]
 694 0042 1046     		mov	r0, r2
 695 0044 1946     		mov	r1, r3
 696 0046 FFF7FEFF 		bl	prio_insert
 697              		.loc 2 283 0
ARM GAS  /tmp/cc94C5bd.s 			page 14


 698 004a 4FF00500 		mov	r0, #5
 699 004e 0099     		ldr	r1, [sp, #0]
 700 0050 FFF7FEFF 		bl	chSchGoSleepTimeoutS
 701 0054 0290     		str	r0, [sp, #8]
 702              		.loc 2 284 0
 703 0056 029B     		ldr	r3, [sp, #8]
 704 0058 B3F1FF3F 		cmp	r3, #-1
 705 005c 02D0     		beq	.L38
 706              		.loc 2 285 0
 707 005e 0398     		ldr	r0, [sp, #12]
 708 0060 FFF7FEFF 		bl	chMtxLockS
 709              	.L38:
 710              		.loc 2 286 0
 711 0064 029B     		ldr	r3, [sp, #8]
 712              		.loc 2 287 0
 713 0066 1846     		mov	r0, r3
 714 0068 05B0     		add	sp, sp, #20
 715 006a 00BD     		pop	{pc}
 716              	.L40:
 717              		.align	2
 718              	.L39:
 719 006c 74000000 		.word	.LC6
 720 0070 00000000 		.word	rlist
 721 0074 8C000000 		.word	.LC7
 722              		.cfi_endproc
 723              	.LFE15:
 724              		.size	chCondWaitTimeoutS, .-chCondWaitTimeoutS
 725 0078 AFF30080 		.text
 725      AFF30080 
 726              	.Letext0: