ARM GAS  /tmp/ccOFofHC.s 			page 1


   1              		.syntax unified
   2              		.cpu cortex-m3
   3              		.fpu softvfp
   4              		.eabi_attribute 20, 1
   5              		.eabi_attribute 21, 1
   6              		.eabi_attribute 23, 3
   7              		.eabi_attribute 24, 1
   8              		.eabi_attribute 25, 1
   9              		.eabi_attribute 26, 1
  10              		.eabi_attribute 30, 6
  11              		.eabi_attribute 18, 4
  12              		.thumb
  13              		.file	"chdebug.c"
  14              		.section	.debug_abbrev,"",%progbits
  15              	.Ldebug_abbrev0:
  16              		.section	.debug_info,"",%progbits
  17              	.Ldebug_info0:
  18              		.section	.debug_line,"",%progbits
  19              	.Ldebug_line0:
  20 0000 D8020000 		.text
  20      02006B01 
  20      00000201 
  20      FB0E0D00 
  20      01010101 
  21              	.Ltext0:
  22              		.cfi_sections	.debug_frame
  23              		.global	dbg_isr_cnt
  24              		.section	.bss.dbg_isr_cnt,"aw",%nobits
  25              		.align	2
  26              		.type	dbg_isr_cnt, %object
  27              		.size	dbg_isr_cnt, 4
  28              	dbg_isr_cnt:
  29 0000 00000000 		.space	4
  30              		.global	dbg_lock_cnt
  31              		.section	.bss.dbg_lock_cnt,"aw",%nobits
  32              		.align	2
  33              		.type	dbg_lock_cnt, %object
  34              		.size	dbg_lock_cnt, 4
  35              	dbg_lock_cnt:
  36 0000 00000000 		.space	4
  37              		.section	.rodata
  38              		.align	2
  39              	.LC0:
  40 0000 53562331 		.ascii	"SV#1\000"
  40      00
  41              		.section	.text.dbg_check_disable,"ax",%progbits
  42              		.align	2
  43              		.p2align 4,,15
  44              		.global	dbg_check_disable
  45              		.thumb
  46              		.thumb_func
  47              		.type	dbg_check_disable, %function
  48              	dbg_check_disable:
  49              	.LFB7:
  50              		.file 1 "../chibios_2.4.x/os/kernel/src/chdebug.c"
  51              		.loc 1 81 0
  52              		.cfi_startproc
ARM GAS  /tmp/ccOFofHC.s 			page 2


  53              		@ args = 0, pretend = 0, frame = 0
  54              		@ frame_needed = 0, uses_anonymous_args = 0
  55 0000 08B5     		push	{r3, lr}
  56              	.LCFI0:
  57              		.cfi_def_cfa_offset 8
  58              		.loc 1 83 0
  59 0002 064B     		ldr	r3, .L4
  60              		.cfi_offset 14, -4
  61              		.cfi_offset 3, -8
  62 0004 1B68     		ldr	r3, [r3, #0]
  63 0006 002B     		cmp	r3, #0
  64 0008 03D1     		bne	.L2
  65              		.loc 1 83 0 is_stmt 0 discriminator 1
  66 000a 054B     		ldr	r3, .L4+4
  67 000c 1B68     		ldr	r3, [r3, #0]
  68 000e 002B     		cmp	r3, #0
  69 0010 02D0     		beq	.L1
  70              	.L2:
  71              		.loc 1 84 0 is_stmt 1
  72 0012 0448     		ldr	r0, .L4+8
  73 0014 FFF7FEFF 		bl	chDbgPanic
  74              	.L1:
  75              		.loc 1 85 0
  76 0018 08BD     		pop	{r3, pc}
  77              	.L5:
  78 001a 00BF     		.align	2
  79              	.L4:
  80 001c 00000000 		.word	dbg_isr_cnt
  81 0020 00000000 		.word	dbg_lock_cnt
  82 0024 00000000 		.word	.LC0
  83              		.cfi_endproc
  84              	.LFE7:
  85              		.size	dbg_check_disable, .-dbg_check_disable
  86 0028 AFF30080 		.section	.rodata
  86      AFF30080 
  87 0005 000000   		.align	2
  88              	.LC1:
  89 0008 53562332 		.ascii	"SV#2\000"
  89      00
  90              		.section	.text.dbg_check_suspend,"ax",%progbits
  91              		.align	2
  92              		.p2align 4,,15
  93              		.global	dbg_check_suspend
  94              		.thumb
  95              		.thumb_func
  96              		.type	dbg_check_suspend, %function
  97              	dbg_check_suspend:
  98              	.LFB8:
  99              		.loc 1 92 0
 100              		.cfi_startproc
 101              		@ args = 0, pretend = 0, frame = 0
 102              		@ frame_needed = 0, uses_anonymous_args = 0
 103 0000 08B5     		push	{r3, lr}
 104              	.LCFI1:
 105              		.cfi_def_cfa_offset 8
 106              		.loc 1 94 0
 107 0002 064B     		ldr	r3, .L9
ARM GAS  /tmp/ccOFofHC.s 			page 3


 108              		.cfi_offset 14, -4
 109              		.cfi_offset 3, -8
 110 0004 1B68     		ldr	r3, [r3, #0]
 111 0006 002B     		cmp	r3, #0
 112 0008 03D1     		bne	.L7
 113              		.loc 1 94 0 is_stmt 0 discriminator 1
 114 000a 054B     		ldr	r3, .L9+4
 115 000c 1B68     		ldr	r3, [r3, #0]
 116 000e 002B     		cmp	r3, #0
 117 0010 02D0     		beq	.L6
 118              	.L7:
 119              		.loc 1 95 0 is_stmt 1
 120 0012 0448     		ldr	r0, .L9+8
 121 0014 FFF7FEFF 		bl	chDbgPanic
 122              	.L6:
 123              		.loc 1 96 0
 124 0018 08BD     		pop	{r3, pc}
 125              	.L10:
 126 001a 00BF     		.align	2
 127              	.L9:
 128 001c 00000000 		.word	dbg_isr_cnt
 129 0020 00000000 		.word	dbg_lock_cnt
 130 0024 08000000 		.word	.LC1
 131              		.cfi_endproc
 132              	.LFE8:
 133              		.size	dbg_check_suspend, .-dbg_check_suspend
 134 0028 AFF30080 		.section	.rodata
 134      AFF30080 
 135 000d 000000   		.align	2
 136              	.LC2:
 137 0010 53562333 		.ascii	"SV#3\000"
 137      00
 138              		.section	.text.dbg_check_enable,"ax",%progbits
 139              		.align	2
 140              		.p2align 4,,15
 141              		.global	dbg_check_enable
 142              		.thumb
 143              		.thumb_func
 144              		.type	dbg_check_enable, %function
 145              	dbg_check_enable:
 146              	.LFB9:
 147              		.loc 1 103 0
 148              		.cfi_startproc
 149              		@ args = 0, pretend = 0, frame = 0
 150              		@ frame_needed = 0, uses_anonymous_args = 0
 151 0000 08B5     		push	{r3, lr}
 152              	.LCFI2:
 153              		.cfi_def_cfa_offset 8
 154              		.loc 1 105 0
 155 0002 064B     		ldr	r3, .L14
 156              		.cfi_offset 14, -4
 157              		.cfi_offset 3, -8
 158 0004 1B68     		ldr	r3, [r3, #0]
 159 0006 002B     		cmp	r3, #0
 160 0008 03D1     		bne	.L12
 161              		.loc 1 105 0 is_stmt 0 discriminator 1
 162 000a 054B     		ldr	r3, .L14+4
ARM GAS  /tmp/ccOFofHC.s 			page 4


 163 000c 1B68     		ldr	r3, [r3, #0]
 164 000e 002B     		cmp	r3, #0
 165 0010 02D0     		beq	.L11
 166              	.L12:
 167              		.loc 1 106 0 is_stmt 1
 168 0012 0448     		ldr	r0, .L14+8
 169 0014 FFF7FEFF 		bl	chDbgPanic
 170              	.L11:
 171              		.loc 1 107 0
 172 0018 08BD     		pop	{r3, pc}
 173              	.L15:
 174 001a 00BF     		.align	2
 175              	.L14:
 176 001c 00000000 		.word	dbg_isr_cnt
 177 0020 00000000 		.word	dbg_lock_cnt
 178 0024 10000000 		.word	.LC2
 179              		.cfi_endproc
 180              	.LFE9:
 181              		.size	dbg_check_enable, .-dbg_check_enable
 182 0028 AFF30080 		.section	.rodata
 182      AFF30080 
 183 0015 000000   		.align	2
 184              	.LC3:
 185 0018 53562334 		.ascii	"SV#4\000"
 185      00
 186              		.section	.text.dbg_check_lock,"ax",%progbits
 187              		.align	2
 188              		.p2align 4,,15
 189              		.global	dbg_check_lock
 190              		.thumb
 191              		.thumb_func
 192              		.type	dbg_check_lock, %function
 193              	dbg_check_lock:
 194              	.LFB10:
 195              		.loc 1 114 0
 196              		.cfi_startproc
 197              		@ args = 0, pretend = 0, frame = 0
 198              		@ frame_needed = 0, uses_anonymous_args = 0
 199 0000 08B5     		push	{r3, lr}
 200              	.LCFI3:
 201              		.cfi_def_cfa_offset 8
 202              		.loc 1 116 0
 203 0002 084B     		ldr	r3, .L19
 204              		.cfi_offset 14, -4
 205              		.cfi_offset 3, -8
 206 0004 1B68     		ldr	r3, [r3, #0]
 207 0006 002B     		cmp	r3, #0
 208 0008 03D1     		bne	.L17
 209              		.loc 1 116 0 is_stmt 0 discriminator 1
 210 000a 074B     		ldr	r3, .L19+4
 211 000c 1B68     		ldr	r3, [r3, #0]
 212 000e 002B     		cmp	r3, #0
 213 0010 02D0     		beq	.L18
 214              	.L17:
 215              		.loc 1 117 0 is_stmt 1
 216 0012 0648     		ldr	r0, .L19+8
 217 0014 FFF7FEFF 		bl	chDbgPanic
ARM GAS  /tmp/ccOFofHC.s 			page 5


 218              	.L18:
 219              		.loc 1 118 0
 220 0018 034B     		ldr	r3, .L19+4
 221 001a 4FF00102 		mov	r2, #1
 222 001e 1A60     		str	r2, [r3, #0]
 223              		.loc 1 119 0
 224 0020 08BD     		pop	{r3, pc}
 225              	.L20:
 226 0022 00BF     		.align	2
 227              	.L19:
 228 0024 00000000 		.word	dbg_isr_cnt
 229 0028 00000000 		.word	dbg_lock_cnt
 230 002c 18000000 		.word	.LC3
 231              		.cfi_endproc
 232              	.LFE10:
 233              		.size	dbg_check_lock, .-dbg_check_lock
 234              		.section	.rodata
 235 001d 000000   		.align	2
 236              	.LC4:
 237 0020 53562335 		.ascii	"SV#5\000"
 237      00
 238              		.section	.text.dbg_check_unlock,"ax",%progbits
 239              		.align	2
 240              		.p2align 4,,15
 241              		.global	dbg_check_unlock
 242              		.thumb
 243              		.thumb_func
 244              		.type	dbg_check_unlock, %function
 245              	dbg_check_unlock:
 246              	.LFB11:
 247              		.loc 1 126 0
 248              		.cfi_startproc
 249              		@ args = 0, pretend = 0, frame = 0
 250              		@ frame_needed = 0, uses_anonymous_args = 0
 251 0000 08B5     		push	{r3, lr}
 252              	.LCFI4:
 253              		.cfi_def_cfa_offset 8
 254              		.loc 1 128 0
 255 0002 084B     		ldr	r3, .L24
 256              		.cfi_offset 14, -4
 257              		.cfi_offset 3, -8
 258 0004 1B68     		ldr	r3, [r3, #0]
 259 0006 002B     		cmp	r3, #0
 260 0008 03D1     		bne	.L22
 261              		.loc 1 128 0 is_stmt 0 discriminator 1
 262 000a 074B     		ldr	r3, .L24+4
 263 000c 1B68     		ldr	r3, [r3, #0]
 264 000e 002B     		cmp	r3, #0
 265 0010 02DC     		bgt	.L23
 266              	.L22:
 267              		.loc 1 129 0 is_stmt 1
 268 0012 0648     		ldr	r0, .L24+8
 269 0014 FFF7FEFF 		bl	chDbgPanic
 270              	.L23:
 271              		.loc 1 130 0
 272 0018 034B     		ldr	r3, .L24+4
 273 001a 4FF00002 		mov	r2, #0
ARM GAS  /tmp/ccOFofHC.s 			page 6


 274 001e 1A60     		str	r2, [r3, #0]
 275              		.loc 1 131 0
 276 0020 08BD     		pop	{r3, pc}
 277              	.L25:
 278 0022 00BF     		.align	2
 279              	.L24:
 280 0024 00000000 		.word	dbg_isr_cnt
 281 0028 00000000 		.word	dbg_lock_cnt
 282 002c 20000000 		.word	.LC4
 283              		.cfi_endproc
 284              	.LFE11:
 285              		.size	dbg_check_unlock, .-dbg_check_unlock
 286              		.section	.rodata
 287 0025 000000   		.align	2
 288              	.LC5:
 289 0028 53562336 		.ascii	"SV#6\000"
 289      00
 290              		.section	.text.dbg_check_lock_from_isr,"ax",%progbits
 291              		.align	2
 292              		.p2align 4,,15
 293              		.global	dbg_check_lock_from_isr
 294              		.thumb
 295              		.thumb_func
 296              		.type	dbg_check_lock_from_isr, %function
 297              	dbg_check_lock_from_isr:
 298              	.LFB12:
 299              		.loc 1 138 0
 300              		.cfi_startproc
 301              		@ args = 0, pretend = 0, frame = 0
 302              		@ frame_needed = 0, uses_anonymous_args = 0
 303 0000 08B5     		push	{r3, lr}
 304              	.LCFI5:
 305              		.cfi_def_cfa_offset 8
 306              		.loc 1 140 0
 307 0002 084B     		ldr	r3, .L29
 308              		.cfi_offset 14, -4
 309              		.cfi_offset 3, -8
 310 0004 1B68     		ldr	r3, [r3, #0]
 311 0006 002B     		cmp	r3, #0
 312 0008 03DD     		ble	.L27
 313              		.loc 1 140 0 is_stmt 0 discriminator 1
 314 000a 074B     		ldr	r3, .L29+4
 315 000c 1B68     		ldr	r3, [r3, #0]
 316 000e 002B     		cmp	r3, #0
 317 0010 02D0     		beq	.L28
 318              	.L27:
 319              		.loc 1 141 0 is_stmt 1
 320 0012 0648     		ldr	r0, .L29+8
 321 0014 FFF7FEFF 		bl	chDbgPanic
 322              	.L28:
 323              		.loc 1 142 0
 324 0018 034B     		ldr	r3, .L29+4
 325 001a 4FF00102 		mov	r2, #1
 326 001e 1A60     		str	r2, [r3, #0]
 327              		.loc 1 143 0
 328 0020 08BD     		pop	{r3, pc}
 329              	.L30:
ARM GAS  /tmp/ccOFofHC.s 			page 7


 330 0022 00BF     		.align	2
 331              	.L29:
 332 0024 00000000 		.word	dbg_isr_cnt
 333 0028 00000000 		.word	dbg_lock_cnt
 334 002c 28000000 		.word	.LC5
 335              		.cfi_endproc
 336              	.LFE12:
 337              		.size	dbg_check_lock_from_isr, .-dbg_check_lock_from_isr
 338              		.section	.rodata
 339 002d 000000   		.align	2
 340              	.LC6:
 341 0030 53562337 		.ascii	"SV#7\000"
 341      00
 342              		.section	.text.dbg_check_unlock_from_isr,"ax",%progbits
 343              		.align	2
 344              		.p2align 4,,15
 345              		.global	dbg_check_unlock_from_isr
 346              		.thumb
 347              		.thumb_func
 348              		.type	dbg_check_unlock_from_isr, %function
 349              	dbg_check_unlock_from_isr:
 350              	.LFB13:
 351              		.loc 1 150 0
 352              		.cfi_startproc
 353              		@ args = 0, pretend = 0, frame = 0
 354              		@ frame_needed = 0, uses_anonymous_args = 0
 355 0000 08B5     		push	{r3, lr}
 356              	.LCFI6:
 357              		.cfi_def_cfa_offset 8
 358              		.loc 1 152 0
 359 0002 084B     		ldr	r3, .L34
 360              		.cfi_offset 14, -4
 361              		.cfi_offset 3, -8
 362 0004 1B68     		ldr	r3, [r3, #0]
 363 0006 002B     		cmp	r3, #0
 364 0008 03DD     		ble	.L32
 365              		.loc 1 152 0 is_stmt 0 discriminator 1
 366 000a 074B     		ldr	r3, .L34+4
 367 000c 1B68     		ldr	r3, [r3, #0]
 368 000e 002B     		cmp	r3, #0
 369 0010 02DC     		bgt	.L33
 370              	.L32:
 371              		.loc 1 153 0 is_stmt 1
 372 0012 0648     		ldr	r0, .L34+8
 373 0014 FFF7FEFF 		bl	chDbgPanic
 374              	.L33:
 375              		.loc 1 154 0
 376 0018 034B     		ldr	r3, .L34+4
 377 001a 4FF00002 		mov	r2, #0
 378 001e 1A60     		str	r2, [r3, #0]
 379              		.loc 1 155 0
 380 0020 08BD     		pop	{r3, pc}
 381              	.L35:
 382 0022 00BF     		.align	2
 383              	.L34:
 384 0024 00000000 		.word	dbg_isr_cnt
 385 0028 00000000 		.word	dbg_lock_cnt
ARM GAS  /tmp/ccOFofHC.s 			page 8


 386 002c 30000000 		.word	.LC6
 387              		.cfi_endproc
 388              	.LFE13:
 389              		.size	dbg_check_unlock_from_isr, .-dbg_check_unlock_from_isr
 390              		.section	.rodata
 391 0035 000000   		.align	2
 392              	.LC7:
 393 0038 53562338 		.ascii	"SV#8\000"
 393      00
 394              		.section	.text.dbg_check_enter_isr,"ax",%progbits
 395              		.align	2
 396              		.p2align 4,,15
 397              		.global	dbg_check_enter_isr
 398              		.thumb
 399              		.thumb_func
 400              		.type	dbg_check_enter_isr, %function
 401              	dbg_check_enter_isr:
 402              	.LFB14:
 403              		.loc 1 162 0
 404              		.cfi_startproc
 405              		@ args = 0, pretend = 0, frame = 0
 406              		@ frame_needed = 0, uses_anonymous_args = 0
 407 0000 08B5     		push	{r3, lr}
 408              	.LCFI7:
 409              		.cfi_def_cfa_offset 8
 410              	.LBB2:
 411              		.loc 1 164 0
 412 0002 4FF02003 		mov	r3, #32
 413              		.cfi_offset 14, -4
 414              		.cfi_offset 3, -8
 415              	@ 164 "../chibios_2.4.x/os/kernel/src/chdebug.c" 1
 416 0006 83F31188 		msr     BASEPRI, r3
 417              	@ 0 "" 2
 418              		.thumb
 419              	.LBE2:
 420              		.loc 1 165 0
 421 000a 0B4B     		ldr	r3, .L39
 422 000c 1B68     		ldr	r3, [r3, #0]
 423 000e 002B     		cmp	r3, #0
 424 0010 03DB     		blt	.L37
 425              		.loc 1 165 0 is_stmt 0 discriminator 1
 426 0012 0A4B     		ldr	r3, .L39+4
 427 0014 1B68     		ldr	r3, [r3, #0]
 428 0016 002B     		cmp	r3, #0
 429 0018 02D0     		beq	.L38
 430              	.L37:
 431              		.loc 1 166 0 is_stmt 1
 432 001a 0948     		ldr	r0, .L39+8
 433 001c FFF7FEFF 		bl	chDbgPanic
 434              	.L38:
 435              		.loc 1 167 0
 436 0020 054B     		ldr	r3, .L39
 437 0022 1B68     		ldr	r3, [r3, #0]
 438 0024 03F10102 		add	r2, r3, #1
 439 0028 034B     		ldr	r3, .L39
 440 002a 1A60     		str	r2, [r3, #0]
 441              	.LBB3:
ARM GAS  /tmp/ccOFofHC.s 			page 9


 442              		.loc 1 168 0
 443 002c 4FF00003 		mov	r3, #0
 444              	@ 168 "../chibios_2.4.x/os/kernel/src/chdebug.c" 1
 445 0030 83F31188 		msr     BASEPRI, r3
 446              	@ 0 "" 2
 447              		.thumb
 448              	.LBE3:
 449              		.loc 1 169 0
 450 0034 08BD     		pop	{r3, pc}
 451              	.L40:
 452 0036 00BF     		.align	2
 453              	.L39:
 454 0038 00000000 		.word	dbg_isr_cnt
 455 003c 00000000 		.word	dbg_lock_cnt
 456 0040 38000000 		.word	.LC7
 457              		.cfi_endproc
 458              	.LFE14:
 459              		.size	dbg_check_enter_isr, .-dbg_check_enter_isr
 460 0044 AFF30080 		.section	.rodata
 460      AFF30080 
 460      AFF30080 
 461 003d 000000   		.align	2
 462              	.LC8:
 463 0040 53562339 		.ascii	"SV#9\000"
 463      00
 464              		.section	.text.dbg_check_leave_isr,"ax",%progbits
 465              		.align	2
 466              		.p2align 4,,15
 467              		.global	dbg_check_leave_isr
 468              		.thumb
 469              		.thumb_func
 470              		.type	dbg_check_leave_isr, %function
 471              	dbg_check_leave_isr:
 472              	.LFB15:
 473              		.loc 1 176 0
 474              		.cfi_startproc
 475              		@ args = 0, pretend = 0, frame = 0
 476              		@ frame_needed = 0, uses_anonymous_args = 0
 477 0000 08B5     		push	{r3, lr}
 478              	.LCFI8:
 479              		.cfi_def_cfa_offset 8
 480              	.LBB4:
 481              		.loc 1 178 0
 482 0002 4FF02003 		mov	r3, #32
 483              		.cfi_offset 14, -4
 484              		.cfi_offset 3, -8
 485              	@ 178 "../chibios_2.4.x/os/kernel/src/chdebug.c" 1
 486 0006 83F31188 		msr     BASEPRI, r3
 487              	@ 0 "" 2
 488              		.thumb
 489              	.LBE4:
 490              		.loc 1 179 0
 491 000a 0B4B     		ldr	r3, .L44
 492 000c 1B68     		ldr	r3, [r3, #0]
 493 000e 002B     		cmp	r3, #0
 494 0010 03DD     		ble	.L42
 495              		.loc 1 179 0 is_stmt 0 discriminator 1
ARM GAS  /tmp/ccOFofHC.s 			page 10


 496 0012 0A4B     		ldr	r3, .L44+4
 497 0014 1B68     		ldr	r3, [r3, #0]
 498 0016 002B     		cmp	r3, #0
 499 0018 02D0     		beq	.L43
 500              	.L42:
 501              		.loc 1 180 0 is_stmt 1
 502 001a 0948     		ldr	r0, .L44+8
 503 001c FFF7FEFF 		bl	chDbgPanic
 504              	.L43:
 505              		.loc 1 181 0
 506 0020 054B     		ldr	r3, .L44
 507 0022 1B68     		ldr	r3, [r3, #0]
 508 0024 03F1FF32 		add	r2, r3, #-1
 509 0028 034B     		ldr	r3, .L44
 510 002a 1A60     		str	r2, [r3, #0]
 511              	.LBB5:
 512              		.loc 1 182 0
 513 002c 4FF00003 		mov	r3, #0
 514              	@ 182 "../chibios_2.4.x/os/kernel/src/chdebug.c" 1
 515 0030 83F31188 		msr     BASEPRI, r3
 516              	@ 0 "" 2
 517              		.thumb
 518              	.LBE5:
 519              		.loc 1 183 0
 520 0034 08BD     		pop	{r3, pc}
 521              	.L45:
 522 0036 00BF     		.align	2
 523              	.L44:
 524 0038 00000000 		.word	dbg_isr_cnt
 525 003c 00000000 		.word	dbg_lock_cnt
 526 0040 40000000 		.word	.LC8
 527              		.cfi_endproc
 528              	.LFE15:
 529              		.size	dbg_check_leave_isr, .-dbg_check_leave_isr
 530 0044 AFF30080 		.section	.rodata
 530      AFF30080 
 530      AFF30080 
 531 0045 000000   		.align	2
 532              	.LC9:
 533 0048 53562331 		.ascii	"SV#10\000"
 533      3000
 534              		.section	.text.chDbgCheckClassI,"ax",%progbits
 535              		.align	2
 536              		.p2align 4,,15
 537              		.global	chDbgCheckClassI
 538              		.thumb
 539              		.thumb_func
 540              		.type	chDbgCheckClassI, %function
 541              	chDbgCheckClassI:
 542              	.LFB16:
 543              		.loc 1 193 0
 544              		.cfi_startproc
 545              		@ args = 0, pretend = 0, frame = 0
 546              		@ frame_needed = 0, uses_anonymous_args = 0
 547 0000 08B5     		push	{r3, lr}
 548              	.LCFI9:
 549              		.cfi_def_cfa_offset 8
ARM GAS  /tmp/ccOFofHC.s 			page 11


 550              		.loc 1 195 0
 551 0002 064B     		ldr	r3, .L49
 552              		.cfi_offset 14, -4
 553              		.cfi_offset 3, -8
 554 0004 1B68     		ldr	r3, [r3, #0]
 555 0006 002B     		cmp	r3, #0
 556 0008 03DB     		blt	.L47
 557              		.loc 1 195 0 is_stmt 0 discriminator 1
 558 000a 054B     		ldr	r3, .L49+4
 559 000c 1B68     		ldr	r3, [r3, #0]
 560 000e 002B     		cmp	r3, #0
 561 0010 02DC     		bgt	.L46
 562              	.L47:
 563              		.loc 1 196 0 is_stmt 1
 564 0012 0448     		ldr	r0, .L49+8
 565 0014 FFF7FEFF 		bl	chDbgPanic
 566              	.L46:
 567              		.loc 1 197 0
 568 0018 08BD     		pop	{r3, pc}
 569              	.L50:
 570 001a 00BF     		.align	2
 571              	.L49:
 572 001c 00000000 		.word	dbg_isr_cnt
 573 0020 00000000 		.word	dbg_lock_cnt
 574 0024 48000000 		.word	.LC9
 575              		.cfi_endproc
 576              	.LFE16:
 577              		.size	chDbgCheckClassI, .-chDbgCheckClassI
 578 0028 AFF30080 		.section	.rodata
 578      AFF30080 
 579 004e 0000     		.align	2
 580              	.LC10:
 581 0050 53562331 		.ascii	"SV#11\000"
 581      3100
 582 0056 0000     		.section	.text.chDbgCheckClassS,"ax",%progbits
 583              		.align	2
 584              		.p2align 4,,15
 585              		.global	chDbgCheckClassS
 586              		.thumb
 587              		.thumb_func
 588              		.type	chDbgCheckClassS, %function
 589              	chDbgCheckClassS:
 590              	.LFB17:
 591              		.loc 1 207 0
 592              		.cfi_startproc
 593              		@ args = 0, pretend = 0, frame = 0
 594              		@ frame_needed = 0, uses_anonymous_args = 0
 595 0000 08B5     		push	{r3, lr}
 596              	.LCFI10:
 597              		.cfi_def_cfa_offset 8
 598              		.loc 1 209 0
 599 0002 064B     		ldr	r3, .L54
 600              		.cfi_offset 14, -4
 601              		.cfi_offset 3, -8
 602 0004 1B68     		ldr	r3, [r3, #0]
 603 0006 002B     		cmp	r3, #0
 604 0008 03D1     		bne	.L52
ARM GAS  /tmp/ccOFofHC.s 			page 12


 605              		.loc 1 209 0 is_stmt 0 discriminator 1
 606 000a 054B     		ldr	r3, .L54+4
 607 000c 1B68     		ldr	r3, [r3, #0]
 608 000e 002B     		cmp	r3, #0
 609 0010 02DC     		bgt	.L51
 610              	.L52:
 611              		.loc 1 210 0 is_stmt 1
 612 0012 0448     		ldr	r0, .L54+8
 613 0014 FFF7FEFF 		bl	chDbgPanic
 614              	.L51:
 615              		.loc 1 211 0
 616 0018 08BD     		pop	{r3, pc}
 617              	.L55:
 618 001a 00BF     		.align	2
 619              	.L54:
 620 001c 00000000 		.word	dbg_isr_cnt
 621 0020 00000000 		.word	dbg_lock_cnt
 622 0024 50000000 		.word	.LC10
 623              		.cfi_endproc
 624              	.LFE17:
 625              		.size	chDbgCheckClassS, .-chDbgCheckClassS
 626              		.global	dbg_trace_buffer
 627 0028 AFF30080 		.section	.bss.dbg_trace_buffer,"aw",%nobits
 627      AFF30080 
 628              		.align	2
 629              		.type	dbg_trace_buffer, %object
 630              		.size	dbg_trace_buffer, 1032
 631              	dbg_trace_buffer:
 632 0000 00000000 		.space	1032
 632      00000000 
 632      00000000 
 632      00000000 
 632      00000000 
 633              		.section	.text._trace_init,"ax",%progbits
 634              		.align	2
 635              		.p2align 4,,15
 636              		.global	_trace_init
 637              		.thumb
 638              		.thumb_func
 639              		.type	_trace_init, %function
 640              	_trace_init:
 641              	.LFB18:
 642              		.loc 1 229 0
 643              		.cfi_startproc
 644              		@ args = 0, pretend = 0, frame = 0
 645              		@ frame_needed = 0, uses_anonymous_args = 0
 646              		@ link register save eliminated.
 647              		.loc 1 231 0
 648 0000 034B     		ldr	r3, .L57
 649 0002 4FF04002 		mov	r2, #64
 650 0006 1A60     		str	r2, [r3, #0]
 651              		.loc 1 232 0
 652 0008 014B     		ldr	r3, .L57
 653 000a 024A     		ldr	r2, .L57+4
 654 000c 5A60     		str	r2, [r3, #4]
 655              		.loc 1 233 0
 656 000e 7047     		bx	lr
ARM GAS  /tmp/ccOFofHC.s 			page 13


 657              	.L58:
 658              		.align	2
 659              	.L57:
 660 0010 00000000 		.word	dbg_trace_buffer
 661 0014 08000000 		.word	dbg_trace_buffer+8
 662              		.cfi_endproc
 663              	.LFE18:
 664              		.size	_trace_init, .-_trace_init
 665 0018 AFF30080 		.section	.text.dbg_trace,"ax",%progbits
 665      AFF30080 
 666              		.align	2
 667              		.p2align 4,,15
 668              		.global	dbg_trace
 669              		.thumb
 670              		.thumb_func
 671              		.type	dbg_trace, %function
 672              	dbg_trace:
 673              	.LFB19:
 674              		.loc 1 242 0
 675              		.cfi_startproc
 676              		@ args = 0, pretend = 0, frame = 8
 677              		@ frame_needed = 0, uses_anonymous_args = 0
 678              		@ link register save eliminated.
 679 0000 82B0     		sub	sp, sp, #8
 680              	.LCFI11:
 681              		.cfi_def_cfa_offset 8
 682 0002 0190     		str	r0, [sp, #4]
 683              		.loc 1 244 0
 684 0004 124B     		ldr	r3, .L61
 685 0006 5B68     		ldr	r3, [r3, #4]
 686 0008 124A     		ldr	r2, .L61+4
 687 000a D268     		ldr	r2, [r2, #12]
 688 000c 1A60     		str	r2, [r3, #0]
 689              		.loc 1 245 0
 690 000e 104B     		ldr	r3, .L61
 691 0010 5B68     		ldr	r3, [r3, #4]
 692 0012 114A     		ldr	r2, .L61+8
 693 0014 D269     		ldr	r2, [r2, #28]
 694 0016 5A60     		str	r2, [r3, #4]
 695              		.loc 1 246 0
 696 0018 0D4B     		ldr	r3, .L61
 697 001a 5B68     		ldr	r3, [r3, #4]
 698 001c 019A     		ldr	r2, [sp, #4]
 699 001e 926A     		ldr	r2, [r2, #40]
 700 0020 9A60     		str	r2, [r3, #8]
 701              		.loc 1 247 0
 702 0022 0B4B     		ldr	r3, .L61
 703 0024 5B68     		ldr	r3, [r3, #4]
 704 0026 019A     		ldr	r2, [sp, #4]
 705 0028 92F82020 		ldrb	r2, [r2, #32]	@ zero_extendqisi2
 706 002c 1A73     		strb	r2, [r3, #12]
 707              		.loc 1 248 0
 708 002e 084B     		ldr	r3, .L61
 709 0030 5B68     		ldr	r3, [r3, #4]
 710 0032 03F11002 		add	r2, r3, #16
 711 0036 064B     		ldr	r3, .L61
 712 0038 5A60     		str	r2, [r3, #4]
ARM GAS  /tmp/ccOFofHC.s 			page 14


 713 003a 054B     		ldr	r3, .L61
 714 003c 5A68     		ldr	r2, [r3, #4]
 715              		.loc 1 249 0
 716 003e 074B     		ldr	r3, .L61+12
 717              		.loc 1 248 0
 718 0040 9A42     		cmp	r2, r3
 719 0042 02D3     		bcc	.L59
 720              		.loc 1 250 0
 721 0044 024B     		ldr	r3, .L61
 722 0046 064A     		ldr	r2, .L61+16
 723 0048 5A60     		str	r2, [r3, #4]
 724              	.L59:
 725              		.loc 1 251 0
 726 004a 02B0     		add	sp, sp, #8
 727 004c 7047     		bx	lr
 728              	.L62:
 729 004e 00BF     		.align	2
 730              	.L61:
 731 0050 00000000 		.word	dbg_trace_buffer
 732 0054 00000000 		.word	vtlist
 733 0058 00000000 		.word	rlist
 734 005c 08040000 		.word	dbg_trace_buffer+1032
 735 0060 08000000 		.word	dbg_trace_buffer+8
 736              		.cfi_endproc
 737              	.LFE19:
 738              		.size	dbg_trace, .-dbg_trace
 739              		.global	dbg_panic_msg
 740 0064 AFF30080 		.section	.bss.dbg_panic_msg,"aw",%nobits
 740      AFF30080 
 740      AFF30080 
 741              		.align	2
 742              		.type	dbg_panic_msg, %object
 743              		.size	dbg_panic_msg, 4
 744              	dbg_panic_msg:
 745 0000 00000000 		.space	4
 746              		.section	.text.chDbgPanic,"ax",%progbits
 747              		.align	2
 748              		.p2align 4,,15
 749              		.global	chDbgPanic
 750              		.thumb
 751              		.thumb_func
 752              		.type	chDbgPanic, %function
 753              	chDbgPanic:
 754              	.LFB20:
 755              		.loc 1 271 0
 756              		.cfi_startproc
 757              		@ args = 0, pretend = 0, frame = 8
 758              		@ frame_needed = 0, uses_anonymous_args = 0
 759 0000 00B5     		push	{lr}
 760              	.LCFI12:
 761              		.cfi_def_cfa_offset 4
 762 0002 83B0     		sub	sp, sp, #12
 763              	.LCFI13:
 764              		.cfi_def_cfa_offset 16
 765 0004 0190     		str	r0, [sp, #4]
 766              		.loc 1 273 0
 767 0006 034B     		ldr	r3, .L64
ARM GAS  /tmp/ccOFofHC.s 			page 15


 768 0008 019A     		ldr	r2, [sp, #4]
 769 000a 1A60     		str	r2, [r3, #0]
 770              		.loc 1 274 0
 771              		.cfi_offset 14, -4
 772 000c FFF7FEFF 		bl	port_halt
 773              		.loc 1 275 0
 774 0010 03B0     		add	sp, sp, #12
 775 0012 00BD     		pop	{pc}
 776              	.L65:
 777              		.align	2
 778              	.L64:
 779 0014 00000000 		.word	dbg_panic_msg
 780              		.cfi_endproc
 781              	.LFE20:
 782              		.size	chDbgPanic, .-chDbgPanic
 783 0018 AFF30080 		.text
 783      AFF30080 
 784              	.Letext0:
 785              		.section	.debug_loc,"",%progbits
 786              	.Ldebug_loc0:
 787              	.LLST0:
 788 0000 00000000 		.4byte	.LFB7
 789 0004 02000000 		.4byte	.LCFI0
 790 0008 0200     		.2byte	0x2
 791 000a 7D       		.byte	0x7d
 792 000b 00       		.sleb128 0
 793 000c 02000000 		.4byte	.LCFI0
 794 0010 28000000 		.4byte	.LFE7
 795 0014 0200     		.2byte	0x2
 796 0016 7D       		.byte	0x7d
 797 0017 08       		.sleb128 8
 798 0018 00000000 		.4byte	0x0
 799 001c 00000000 		.4byte	0x0
 800              	.LLST1:
 801 0020 00000000 		.4byte	.LFB8
 802 0024 02000000 		.4byte	.LCFI1
 803 0028 0200     		.2byte	0x2
 804 002a 7D       		.byte	0x7d
 805 002b 00       		.sleb128 0
 806 002c 02000000 		.4byte	.LCFI1
 807 0030 28000000 		.4byte	.LFE8
 808 0034 0200     		.2byte	0x2
 809 0036 7D       		.byte	0x7d
 810 0037 08       		.sleb128 8
 811 0038 00000000 		.4byte	0x0
 812 003c 00000000 		.4byte	0x0
 813              	.LLST2:
 814 0040 00000000 		.4byte	.LFB9
 815 0044 02000000 		.4byte	.LCFI2
 816 0048 0200     		.2byte	0x2
 817 004a 7D       		.byte	0x7d
 818 004b 00       		.sleb128 0
 819 004c 02000000 		.4byte	.LCFI2
 820 0050 28000000 		.4byte	.LFE9
 821 0054 0200     		.2byte	0x2
 822 0056 7D       		.byte	0x7d
 823 0057 08       		.sleb128 8
ARM GAS  /tmp/ccOFofHC.s 			page 16


 824 0058 00000000 		.4byte	0x0
 825 005c 00000000 		.4byte	0x0
 826              	.LLST3:
 827 0060 00000000 		.4byte	.LFB10
 828 0064 02000000 		.4byte	.LCFI3
 829 0068 0200     		.2byte	0x2
 830 006a 7D       		.byte	0x7d
 831 006b 00       		.sleb128 0
 832 006c 02000000 		.4byte	.LCFI3
 833 0070 30000000 		.4byte	.LFE10
 834 0074 0200     		.2byte	0x2
 835 0076 7D       		.byte	0x7d
 836 0077 08       		.sleb128 8
 837 0078 00000000 		.4byte	0x0
 838 007c 00000000 		.4byte	0x0
 839              	.LLST4:
 840 0080 00000000 		.4byte	.LFB11
 841 0084 02000000 		.4byte	.LCFI4
 842 0088 0200     		.2byte	0x2
 843 008a 7D       		.byte	0x7d
 844 008b 00       		.sleb128 0
 845 008c 02000000 		.4byte	.LCFI4
 846 0090 30000000 		.4byte	.LFE11
 847 0094 0200     		.2byte	0x2
 848 0096 7D       		.byte	0x7d
 849 0097 08       		.sleb128 8
 850 0098 00000000 		.4byte	0x0
 851 009c 00000000 		.4byte	0x0
 852              	.LLST5:
 853 00a0 00000000 		.4byte	.LFB12
 854 00a4 02000000 		.4byte	.LCFI5
 855 00a8 0200     		.2byte	0x2
 856 00aa 7D       		.byte	0x7d
 857 00ab 00       		.sleb128 0
 858 00ac 02000000 		.4byte	.LCFI5
 859 00b0 30000000 		.4byte	.LFE12
 860 00b4 0200     		.2byte	0x2
 861 00b6 7D       		.byte	0x7d
 862 00b7 08       		.sleb128 8
 863 00b8 00000000 		.4byte	0x0
 864 00bc 00000000 		.4byte	0x0
 865              	.LLST6:
 866 00c0 00000000 		.4byte	.LFB13
 867 00c4 02000000 		.4byte	.LCFI6
 868 00c8 0200     		.2byte	0x2
 869 00ca 7D       		.byte	0x7d
 870 00cb 00       		.sleb128 0
 871 00cc 02000000 		.4byte	.LCFI6
 872 00d0 30000000 		.4byte	.LFE13
 873 00d4 0200     		.2byte	0x2
 874 00d6 7D       		.byte	0x7d
 875 00d7 08       		.sleb128 8
 876 00d8 00000000 		.4byte	0x0
 877 00dc 00000000 		.4byte	0x0
 878              	.LLST7:
 879 00e0 00000000 		.4byte	.LFB14
 880 00e4 02000000 		.4byte	.LCFI7
ARM GAS  /tmp/ccOFofHC.s 			page 17


 881 00e8 0200     		.2byte	0x2
 882 00ea 7D       		.byte	0x7d
 883 00eb 00       		.sleb128 0
 884 00ec 02000000 		.4byte	.LCFI7
 885 00f0 44000000 		.4byte	.LFE14
 886 00f4 0200     		.2byte	0x2
 887 00f6 7D       		.byte	0x7d
 888 00f7 08       		.sleb128 8
 889 00f8 00000000 		.4byte	0x0
 890 00fc 00000000 		.4byte	0x0
 891              	.LLST8:
 892 0100 00000000 		.4byte	.LFB15
 893 0104 02000000 		.4byte	.LCFI8
 894 0108 0200     		.2byte	0x2
 895 010a 7D       		.byte	0x7d
 896 010b 00       		.sleb128 0
 897 010c 02000000 		.4byte	.LCFI8
 898 0110 44000000 		.4byte	.LFE15
 899 0114 0200     		.2byte	0x2
 900 0116 7D       		.byte	0x7d
 901 0117 08       		.sleb128 8
 902 0118 00000000 		.4byte	0x0
 903 011c 00000000 		.4byte	0x0
 904              	.LLST9:
 905 0120 00000000 		.4byte	.LFB16
 906 0124 02000000 		.4byte	.LCFI9
 907 0128 0200     		.2byte	0x2
 908 012a 7D       		.byte	0x7d
 909 012b 00       		.sleb128 0
 910 012c 02000000 		.4byte	.LCFI9
 911 0130 28000000 		.4byte	.LFE16
 912 0134 0200     		.2byte	0x2
 913 0136 7D       		.byte	0x7d
 914 0137 08       		.sleb128 8
 915 0138 00000000 		.4byte	0x0
 916 013c 00000000 		.4byte	0x0
 917              	.LLST10:
 918 0140 00000000 		.4byte	.LFB17
 919 0144 02000000 		.4byte	.LCFI10
 920 0148 0200     		.2byte	0x2
 921 014a 7D       		.byte	0x7d
 922 014b 00       		.sleb128 0
 923 014c 02000000 		.4byte	.LCFI10
 924 0150 28000000 		.4byte	.LFE17
 925 0154 0200     		.2byte	0x2
 926 0156 7D       		.byte	0x7d
 927 0157 08       		.sleb128 8
 928 0158 00000000 		.4byte	0x0
 929 015c 00000000 		.4byte	0x0
 930              	.LLST11:
 931 0160 00000000 		.4byte	.LFB19
 932 0164 02000000 		.4byte	.LCFI11
 933 0168 0200     		.2byte	0x2
 934 016a 7D       		.byte	0x7d
 935 016b 00       		.sleb128 0
 936 016c 02000000 		.4byte	.LCFI11
 937 0170 64000000 		.4byte	.LFE19
ARM GAS  /tmp/ccOFofHC.s 			page 18


 938 0174 0200     		.2byte	0x2
 939 0176 7D       		.byte	0x7d
 940 0177 08       		.sleb128 8
 941 0178 00000000 		.4byte	0x0
 942 017c 00000000 		.4byte	0x0
 943              	.LLST12:
 944 0180 00000000 		.4byte	.LFB20
 945 0184 02000000 		.4byte	.LCFI12
 946 0188 0200     		.2byte	0x2
 947 018a 7D       		.byte	0x7d
 948 018b 00       		.sleb128 0
 949 018c 02000000 		.4byte	.LCFI12
 950 0190 04000000 		.4byte	.LCFI13
 951 0194 0200     		.2byte	0x2
 952 0196 7D       		.byte	0x7d
 953 0197 04       		.sleb128 4
 954 0198 04000000 		.4byte	.LCFI13
 955 019c 18000000 		.4byte	.LFE20
 956 01a0 0200     		.2byte	0x2
 957 01a2 7D       		.byte	0x7d
 958 01a3 10       		.sleb128 16
 959 01a4 00000000 		.4byte	0x0
 960 01a8 00000000 		.4byte	0x0
 961              		.file 2 "/home/z80/programs/code-sourcery/2011.03-42/bin/../lib/gcc/arm-none-eabi/4.5.2/../../../.
 962              		.file 3 "../chibios_2.4.x/os/ports/GCC/ARMCMx/chtypes.h"
 963              		.file 4 "../chibios_2.4.x/os/kernel/include/chlists.h"
 964              		.file 5 "../chibios_2.4.x/os/kernel/include/chthreads.h"
 965              		.file 6 "../chibios_2.4.x/os/ports/GCC/ARMCMx/chcore_v7m.h"
 966              		.file 7 "../chibios_2.4.x/os/kernel/include/chvt.h"
 967              		.file 8 "../chibios_2.4.x/os/kernel/include/chschd.h"
 968              		.file 9 "../chibios_2.4.x/os/kernel/include/chmtx.h"
 969              		.file 10 "../chibios_2.4.x/os/kernel/include/chdebug.h"
 970              		.section	.debug_info
 971 0000 0F080000 		.4byte	0x80f
 972 0004 0200     		.2byte	0x2
 973 0006 00000000 		.4byte	.Ldebug_abbrev0
 974 000a 04       		.byte	0x4
 975 000b 01       		.uleb128 0x1
 976 000c 1B040000 		.4byte	.LASF99
 977 0010 01       		.byte	0x1
 978 0011 63000000 		.4byte	.LASF100
 979 0015 A8030000 		.4byte	.LASF101
 980 0019 00000000 		.4byte	0x0
 981 001d 00000000 		.4byte	0x0
 982 0021 00000000 		.4byte	.Ldebug_ranges0+0x0
 983 0025 00000000 		.4byte	.Ldebug_line0
 984 0029 02       		.uleb128 0x2
 985 002a 04       		.byte	0x4
 986 002b 05       		.byte	0x5
 987 002c 696E7400 		.ascii	"int\000"
 988 0030 03       		.uleb128 0x3
 989 0031 04       		.byte	0x4
 990 0032 07       		.byte	0x7
 991 0033 1A010000 		.4byte	.LASF0
 992 0037 03       		.uleb128 0x3
 993 0038 01       		.byte	0x1
 994 0039 06       		.byte	0x6
ARM GAS  /tmp/ccOFofHC.s 			page 19


 995 003a 9A000000 		.4byte	.LASF1
 996 003e 04       		.uleb128 0x4
 997 003f F4030000 		.4byte	.LASF5
 998 0043 02       		.byte	0x2
 999 0044 2A       		.byte	0x2a
 1000 0045 49000000 		.4byte	0x49
 1001 0049 03       		.uleb128 0x3
 1002 004a 01       		.byte	0x1
 1003 004b 08       		.byte	0x8
 1004 004c 9D020000 		.4byte	.LASF2
 1005 0050 03       		.uleb128 0x3
 1006 0051 02       		.byte	0x2
 1007 0052 05       		.byte	0x5
 1008 0053 C3020000 		.4byte	.LASF3
 1009 0057 03       		.uleb128 0x3
 1010 0058 02       		.byte	0x2
 1011 0059 07       		.byte	0x7
 1012 005a 65010000 		.4byte	.LASF4
 1013 005e 04       		.uleb128 0x4
 1014 005f 95020000 		.4byte	.LASF6
 1015 0063 02       		.byte	0x2
 1016 0064 4F       		.byte	0x4f
 1017 0065 69000000 		.4byte	0x69
 1018 0069 03       		.uleb128 0x3
 1019 006a 04       		.byte	0x4
 1020 006b 05       		.byte	0x5
 1021 006c C8000000 		.4byte	.LASF7
 1022 0070 04       		.uleb128 0x4
 1023 0071 04030000 		.4byte	.LASF8
 1024 0075 02       		.byte	0x2
 1025 0076 50       		.byte	0x50
 1026 0077 7B000000 		.4byte	0x7b
 1027 007b 03       		.uleb128 0x3
 1028 007c 04       		.byte	0x4
 1029 007d 07       		.byte	0x7
 1030 007e 39010000 		.4byte	.LASF9
 1031 0082 03       		.uleb128 0x3
 1032 0083 08       		.byte	0x8
 1033 0084 05       		.byte	0x5
 1034 0085 8C000000 		.4byte	.LASF10
 1035 0089 04       		.uleb128 0x4
 1036 008a 18000000 		.4byte	.LASF11
 1037 008e 02       		.byte	0x2
 1038 008f 78       		.byte	0x78
 1039 0090 94000000 		.4byte	0x94
 1040 0094 03       		.uleb128 0x3
 1041 0095 08       		.byte	0x8
 1042 0096 07       		.byte	0x7
 1043 0097 28000000 		.4byte	.LASF12
 1044 009b 04       		.uleb128 0x4
 1045 009c 9B010000 		.4byte	.LASF13
 1046 00a0 03       		.byte	0x3
 1047 00a1 2F       		.byte	0x2f
 1048 00a2 3E000000 		.4byte	0x3e
 1049 00a6 04       		.uleb128 0x4
 1050 00a7 D1000000 		.4byte	.LASF14
 1051 00ab 03       		.byte	0x3
ARM GAS  /tmp/ccOFofHC.s 			page 20


 1052 00ac 30       		.byte	0x30
 1053 00ad 3E000000 		.4byte	0x3e
 1054 00b1 04       		.uleb128 0x4
 1055 00b2 8D020000 		.4byte	.LASF15
 1056 00b6 03       		.byte	0x3
 1057 00b7 32       		.byte	0x32
 1058 00b8 70000000 		.4byte	0x70
 1059 00bc 04       		.uleb128 0x4
 1060 00bd 84010000 		.4byte	.LASF16
 1061 00c1 03       		.byte	0x3
 1062 00c2 33       		.byte	0x33
 1063 00c3 5E000000 		.4byte	0x5e
 1064 00c7 04       		.uleb128 0x4
 1065 00c8 CC010000 		.4byte	.LASF17
 1066 00cc 03       		.byte	0x3
 1067 00cd 35       		.byte	0x35
 1068 00ce 70000000 		.4byte	0x70
 1069 00d2 04       		.uleb128 0x4
 1070 00d3 2E030000 		.4byte	.LASF18
 1071 00d7 03       		.byte	0x3
 1072 00d8 36       		.byte	0x36
 1073 00d9 70000000 		.4byte	0x70
 1074 00dd 04       		.uleb128 0x4
 1075 00de 09010000 		.4byte	.LASF19
 1076 00e2 03       		.byte	0x3
 1077 00e3 37       		.byte	0x37
 1078 00e4 5E000000 		.4byte	0x5e
 1079 00e8 04       		.uleb128 0x4
 1080 00e9 F2020000 		.4byte	.LASF20
 1081 00ed 04       		.byte	0x4
 1082 00ee 2A       		.byte	0x2a
 1083 00ef F3000000 		.4byte	0xf3
 1084 00f3 05       		.uleb128 0x5
 1085 00f4 F2020000 		.4byte	.LASF20
 1086 00f8 48       		.byte	0x48
 1087 00f9 05       		.byte	0x5
 1088 00fa 5E       		.byte	0x5e
 1089 00fb FC010000 		.4byte	0x1fc
 1090 00ff 06       		.uleb128 0x6
 1091 0100 E3020000 		.4byte	.LASF21
 1092 0104 05       		.byte	0x5
 1093 0105 5F       		.byte	0x5f
 1094 0106 21020000 		.4byte	0x221
 1095 010a 02       		.byte	0x2
 1096 010b 23       		.byte	0x23
 1097 010c 00       		.uleb128 0x0
 1098 010d 06       		.uleb128 0x6
 1099 010e 86020000 		.4byte	.LASF22
 1100 0112 05       		.byte	0x5
 1101 0113 61       		.byte	0x61
 1102 0114 21020000 		.4byte	0x221
 1103 0118 02       		.byte	0x2
 1104 0119 23       		.byte	0x23
 1105 011a 04       		.uleb128 0x4
 1106 011b 06       		.uleb128 0x6
 1107 011c 0F020000 		.4byte	.LASF23
 1108 0120 05       		.byte	0x5
ARM GAS  /tmp/ccOFofHC.s 			page 21


 1109 0121 63       		.byte	0x63
 1110 0122 B1000000 		.4byte	0xb1
 1111 0126 02       		.byte	0x2
 1112 0127 23       		.byte	0x23
 1113 0128 08       		.uleb128 0x8
 1114 0129 06       		.uleb128 0x6
 1115 012a 6E040000 		.4byte	.LASF24
 1116 012e 05       		.byte	0x5
 1117 012f 64       		.byte	0x64
 1118 0130 F9020000 		.4byte	0x2f9
 1119 0134 02       		.byte	0x2
 1120 0135 23       		.byte	0x23
 1121 0136 0C       		.uleb128 0xc
 1122 0137 06       		.uleb128 0x6
 1123 0138 E0000000 		.4byte	.LASF25
 1124 013c 05       		.byte	0x5
 1125 013d 66       		.byte	0x66
 1126 013e 21020000 		.4byte	0x221
 1127 0142 02       		.byte	0x2
 1128 0143 23       		.byte	0x23
 1129 0144 10       		.uleb128 0x10
 1130 0145 06       		.uleb128 0x6
 1131 0146 25020000 		.4byte	.LASF26
 1132 014a 05       		.byte	0x5
 1133 014b 67       		.byte	0x67
 1134 014c 21020000 		.4byte	0x221
 1135 0150 02       		.byte	0x2
 1136 0151 23       		.byte	0x23
 1137 0152 14       		.uleb128 0x14
 1138 0153 06       		.uleb128 0x6
 1139 0154 27040000 		.4byte	.LASF27
 1140 0158 05       		.byte	0x5
 1141 0159 6E       		.byte	0x6e
 1142 015a E1040000 		.4byte	0x4e1
 1143 015e 02       		.byte	0x2
 1144 015f 23       		.byte	0x23
 1145 0160 18       		.uleb128 0x18
 1146 0161 06       		.uleb128 0x6
 1147 0162 0F010000 		.4byte	.LASF28
 1148 0166 05       		.byte	0x5
 1149 0167 74       		.byte	0x74
 1150 0168 F3040000 		.4byte	0x4f3
 1151 016c 02       		.byte	0x2
 1152 016d 23       		.byte	0x23
 1153 016e 1C       		.uleb128 0x1c
 1154 016f 06       		.uleb128 0x6
 1155 0170 CD020000 		.4byte	.LASF29
 1156 0174 05       		.byte	0x5
 1157 0175 79       		.byte	0x79
 1158 0176 A6000000 		.4byte	0xa6
 1159 017a 02       		.byte	0x2
 1160 017b 23       		.byte	0x23
 1161 017c 20       		.uleb128 0x20
 1162 017d 06       		.uleb128 0x6
 1163 017e EA020000 		.4byte	.LASF30
 1164 0182 05       		.byte	0x5
 1165 0183 7D       		.byte	0x7d
ARM GAS  /tmp/ccOFofHC.s 			page 22


 1166 0184 9B000000 		.4byte	0x9b
 1167 0188 02       		.byte	0x2
 1168 0189 23       		.byte	0x23
 1169 018a 21       		.uleb128 0x21
 1170 018b 06       		.uleb128 0x6
 1171 018c 59030000 		.4byte	.LASF31
 1172 0190 05       		.byte	0x5
 1173 0191 89       		.byte	0x89
 1174 0192 DE030000 		.4byte	0x3de
 1175 0196 02       		.byte	0x2
 1176 0197 23       		.byte	0x23
 1177 0198 24       		.uleb128 0x24
 1178 0199 07       		.uleb128 0x7
 1179 019a 705F7500 		.ascii	"p_u\000"
 1180 019e 05       		.byte	0x5
 1181 019f AE       		.byte	0xae
 1182 01a0 AC040000 		.4byte	0x4ac
 1183 01a4 02       		.byte	0x2
 1184 01a5 23       		.byte	0x23
 1185 01a6 28       		.uleb128 0x28
 1186 01a7 06       		.uleb128 0x6
 1187 01a8 74040000 		.4byte	.LASF32
 1188 01ac 05       		.byte	0x5
 1189 01ad B3       		.byte	0xb3
 1190 01ae 49020000 		.4byte	0x249
 1191 01b2 02       		.byte	0x2
 1192 01b3 23       		.byte	0x23
 1193 01b4 2C       		.uleb128 0x2c
 1194 01b5 06       		.uleb128 0x6
 1195 01b6 7B030000 		.4byte	.LASF33
 1196 01ba 05       		.byte	0x5
 1197 01bb B9       		.byte	0xb9
 1198 01bc 27020000 		.4byte	0x227
 1199 01c0 02       		.byte	0x2
 1200 01c1 23       		.byte	0x23
 1201 01c2 30       		.uleb128 0x30
 1202 01c3 06       		.uleb128 0x6
 1203 01c4 00000000 		.4byte	.LASF34
 1204 01c8 05       		.byte	0x5
 1205 01c9 BD       		.byte	0xbd
 1206 01ca BC000000 		.4byte	0xbc
 1207 01ce 02       		.byte	0x2
 1208 01cf 23       		.byte	0x23
 1209 01d0 38       		.uleb128 0x38
 1210 01d1 06       		.uleb128 0x6
 1211 01d2 F9020000 		.4byte	.LASF35
 1212 01d6 05       		.byte	0x5
 1213 01d7 C3       		.byte	0xc3
 1214 01d8 C7000000 		.4byte	0xc7
 1215 01dc 02       		.byte	0x2
 1216 01dd 23       		.byte	0x23
 1217 01de 3C       		.uleb128 0x3c
 1218 01df 06       		.uleb128 0x6
 1219 01e0 B9020000 		.4byte	.LASF36
 1220 01e4 05       		.byte	0x5
 1221 01e5 CA       		.byte	0xca
 1222 01e6 F9040000 		.4byte	0x4f9
ARM GAS  /tmp/ccOFofHC.s 			page 23


 1223 01ea 02       		.byte	0x2
 1224 01eb 23       		.byte	0x23
 1225 01ec 40       		.uleb128 0x40
 1226 01ed 06       		.uleb128 0x6
 1227 01ee 38030000 		.4byte	.LASF37
 1228 01f2 05       		.byte	0x5
 1229 01f3 CE       		.byte	0xce
 1230 01f4 B1000000 		.4byte	0xb1
 1231 01f8 02       		.byte	0x2
 1232 01f9 23       		.byte	0x23
 1233 01fa 44       		.uleb128 0x44
 1234 01fb 00       		.byte	0x0
 1235 01fc 08       		.uleb128 0x8
 1236 01fd 08       		.byte	0x8
 1237 01fe 04       		.byte	0x4
 1238 01ff 61       		.byte	0x61
 1239 0200 21020000 		.4byte	0x221
 1240 0204 06       		.uleb128 0x6
 1241 0205 E3020000 		.4byte	.LASF21
 1242 0209 04       		.byte	0x4
 1243 020a 62       		.byte	0x62
 1244 020b 21020000 		.4byte	0x221
 1245 020f 02       		.byte	0x2
 1246 0210 23       		.byte	0x23
 1247 0211 00       		.uleb128 0x0
 1248 0212 06       		.uleb128 0x6
 1249 0213 86020000 		.4byte	.LASF22
 1250 0217 04       		.byte	0x4
 1251 0218 64       		.byte	0x64
 1252 0219 21020000 		.4byte	0x221
 1253 021d 02       		.byte	0x2
 1254 021e 23       		.byte	0x23
 1255 021f 04       		.uleb128 0x4
 1256 0220 00       		.byte	0x0
 1257 0221 09       		.uleb128 0x9
 1258 0222 04       		.byte	0x4
 1259 0223 E8000000 		.4byte	0xe8
 1260 0227 04       		.uleb128 0x4
 1261 0228 33020000 		.4byte	.LASF38
 1262 022c 04       		.byte	0x4
 1263 022d 66       		.byte	0x66
 1264 022e FC010000 		.4byte	0x1fc
 1265 0232 08       		.uleb128 0x8
 1266 0233 04       		.byte	0x4
 1267 0234 04       		.byte	0x4
 1268 0235 6B       		.byte	0x6b
 1269 0236 49020000 		.4byte	0x249
 1270 023a 06       		.uleb128 0x6
 1271 023b E3020000 		.4byte	.LASF21
 1272 023f 04       		.byte	0x4
 1273 0240 6D       		.byte	0x6d
 1274 0241 21020000 		.4byte	0x221
 1275 0245 02       		.byte	0x2
 1276 0246 23       		.byte	0x23
 1277 0247 00       		.uleb128 0x0
 1278 0248 00       		.byte	0x0
 1279 0249 04       		.uleb128 0x4
ARM GAS  /tmp/ccOFofHC.s 			page 24


 1280 024a C0010000 		.4byte	.LASF39
 1281 024e 04       		.byte	0x4
 1282 024f 70       		.byte	0x70
 1283 0250 32020000 		.4byte	0x232
 1284 0254 04       		.uleb128 0x4
 1285 0255 F8000000 		.4byte	.LASF40
 1286 0259 06       		.byte	0x6
 1287 025a D7       		.byte	0xd7
 1288 025b 5F020000 		.4byte	0x25f
 1289 025f 0A       		.uleb128 0xa
 1290 0260 04       		.byte	0x4
 1291 0261 04       		.uleb128 0x4
 1292 0262 DE010000 		.4byte	.LASF41
 1293 0266 06       		.byte	0x6
 1294 0267 DD       		.byte	0xdd
 1295 0268 89000000 		.4byte	0x89
 1296 026c 05       		.uleb128 0x5
 1297 026d 74030000 		.4byte	.LASF42
 1298 0271 24       		.byte	0x24
 1299 0272 06       		.byte	0x6
 1300 0273 FE       		.byte	0xfe
 1301 0274 F9020000 		.4byte	0x2f9
 1302 0278 0B       		.uleb128 0xb
 1303 0279 723400   		.ascii	"r4\000"
 1304 027c 06       		.byte	0x6
 1305 027d 1101     		.2byte	0x111
 1306 027f 54020000 		.4byte	0x254
 1307 0283 02       		.byte	0x2
 1308 0284 23       		.byte	0x23
 1309 0285 00       		.uleb128 0x0
 1310 0286 0B       		.uleb128 0xb
 1311 0287 723500   		.ascii	"r5\000"
 1312 028a 06       		.byte	0x6
 1313 028b 1201     		.2byte	0x112
 1314 028d 54020000 		.4byte	0x254
 1315 0291 02       		.byte	0x2
 1316 0292 23       		.byte	0x23
 1317 0293 04       		.uleb128 0x4
 1318 0294 0B       		.uleb128 0xb
 1319 0295 723600   		.ascii	"r6\000"
 1320 0298 06       		.byte	0x6
 1321 0299 1301     		.2byte	0x113
 1322 029b 54020000 		.4byte	0x254
 1323 029f 02       		.byte	0x2
 1324 02a0 23       		.byte	0x23
 1325 02a1 08       		.uleb128 0x8
 1326 02a2 0B       		.uleb128 0xb
 1327 02a3 723700   		.ascii	"r7\000"
 1328 02a6 06       		.byte	0x6
 1329 02a7 1401     		.2byte	0x114
 1330 02a9 54020000 		.4byte	0x254
 1331 02ad 02       		.byte	0x2
 1332 02ae 23       		.byte	0x23
 1333 02af 0C       		.uleb128 0xc
 1334 02b0 0B       		.uleb128 0xb
 1335 02b1 723800   		.ascii	"r8\000"
 1336 02b4 06       		.byte	0x6
ARM GAS  /tmp/ccOFofHC.s 			page 25


 1337 02b5 1501     		.2byte	0x115
 1338 02b7 54020000 		.4byte	0x254
 1339 02bb 02       		.byte	0x2
 1340 02bc 23       		.byte	0x23
 1341 02bd 10       		.uleb128 0x10
 1342 02be 0B       		.uleb128 0xb
 1343 02bf 723900   		.ascii	"r9\000"
 1344 02c2 06       		.byte	0x6
 1345 02c3 1601     		.2byte	0x116
 1346 02c5 54020000 		.4byte	0x254
 1347 02c9 02       		.byte	0x2
 1348 02ca 23       		.byte	0x23
 1349 02cb 14       		.uleb128 0x14
 1350 02cc 0B       		.uleb128 0xb
 1351 02cd 72313000 		.ascii	"r10\000"
 1352 02d1 06       		.byte	0x6
 1353 02d2 1701     		.2byte	0x117
 1354 02d4 54020000 		.4byte	0x254
 1355 02d8 02       		.byte	0x2
 1356 02d9 23       		.byte	0x23
 1357 02da 18       		.uleb128 0x18
 1358 02db 0B       		.uleb128 0xb
 1359 02dc 72313100 		.ascii	"r11\000"
 1360 02e0 06       		.byte	0x6
 1361 02e1 1801     		.2byte	0x118
 1362 02e3 54020000 		.4byte	0x254
 1363 02e7 02       		.byte	0x2
 1364 02e8 23       		.byte	0x23
 1365 02e9 1C       		.uleb128 0x1c
 1366 02ea 0B       		.uleb128 0xb
 1367 02eb 6C7200   		.ascii	"lr\000"
 1368 02ee 06       		.byte	0x6
 1369 02ef 1901     		.2byte	0x119
 1370 02f1 54020000 		.4byte	0x254
 1371 02f5 02       		.byte	0x2
 1372 02f6 23       		.byte	0x23
 1373 02f7 20       		.uleb128 0x20
 1374 02f8 00       		.byte	0x0
 1375 02f9 0C       		.uleb128 0xc
 1376 02fa 5D010000 		.4byte	.LASF43
 1377 02fe 04       		.byte	0x4
 1378 02ff 06       		.byte	0x6
 1379 0300 2301     		.2byte	0x123
 1380 0302 16030000 		.4byte	0x316
 1381 0306 0B       		.uleb128 0xb
 1382 0307 72313300 		.ascii	"r13\000"
 1383 030b 06       		.byte	0x6
 1384 030c 2401     		.2byte	0x124
 1385 030e 16030000 		.4byte	0x316
 1386 0312 02       		.byte	0x2
 1387 0313 23       		.byte	0x23
 1388 0314 00       		.uleb128 0x0
 1389 0315 00       		.byte	0x0
 1390 0316 09       		.uleb128 0x9
 1391 0317 04       		.byte	0x4
 1392 0318 6C020000 		.4byte	0x26c
 1393 031c 04       		.uleb128 0x4
ARM GAS  /tmp/ccOFofHC.s 			page 26


 1394 031d 43030000 		.4byte	.LASF44
 1395 0321 07       		.byte	0x7
 1396 0322 53       		.byte	0x53
 1397 0323 27030000 		.4byte	0x327
 1398 0327 09       		.uleb128 0x9
 1399 0328 04       		.byte	0x4
 1400 0329 2D030000 		.4byte	0x32d
 1401 032d 0D       		.uleb128 0xd
 1402 032e 01       		.byte	0x1
 1403 032f 39030000 		.4byte	0x339
 1404 0333 0E       		.uleb128 0xe
 1405 0334 5F020000 		.4byte	0x25f
 1406 0338 00       		.byte	0x0
 1407 0339 04       		.uleb128 0x4
 1408 033a 15030000 		.4byte	.LASF45
 1409 033e 07       		.byte	0x7
 1410 033f 58       		.byte	0x58
 1411 0340 44030000 		.4byte	0x344
 1412 0344 05       		.uleb128 0x5
 1413 0345 15030000 		.4byte	.LASF45
 1414 0349 14       		.byte	0x14
 1415 034a 07       		.byte	0x7
 1416 034b 5F       		.byte	0x5f
 1417 034c 97030000 		.4byte	0x397
 1418 0350 06       		.uleb128 0x6
 1419 0351 27010000 		.4byte	.LASF46
 1420 0355 07       		.byte	0x7
 1421 0356 60       		.byte	0x60
 1422 0357 97030000 		.4byte	0x397
 1423 035b 02       		.byte	0x2
 1424 035c 23       		.byte	0x23
 1425 035d 00       		.uleb128 0x0
 1426 035e 06       		.uleb128 0x6
 1427 035f 01010000 		.4byte	.LASF47
 1428 0363 07       		.byte	0x7
 1429 0364 62       		.byte	0x62
 1430 0365 97030000 		.4byte	0x397
 1431 0369 02       		.byte	0x2
 1432 036a 23       		.byte	0x23
 1433 036b 04       		.uleb128 0x4
 1434 036c 06       		.uleb128 0x6
 1435 036d E9010000 		.4byte	.LASF48
 1436 0371 07       		.byte	0x7
 1437 0372 64       		.byte	0x64
 1438 0373 D2000000 		.4byte	0xd2
 1439 0377 02       		.byte	0x2
 1440 0378 23       		.byte	0x23
 1441 0379 08       		.uleb128 0x8
 1442 037a 06       		.uleb128 0x6
 1443 037b F8010000 		.4byte	.LASF49
 1444 037f 07       		.byte	0x7
 1445 0380 65       		.byte	0x65
 1446 0381 1C030000 		.4byte	0x31c
 1447 0385 02       		.byte	0x2
 1448 0386 23       		.byte	0x23
 1449 0387 0C       		.uleb128 0xc
 1450 0388 06       		.uleb128 0x6
ARM GAS  /tmp/ccOFofHC.s 			page 27


 1451 0389 97030000 		.4byte	.LASF50
 1452 038d 07       		.byte	0x7
 1453 038e 67       		.byte	0x67
 1454 038f 5F020000 		.4byte	0x25f
 1455 0393 02       		.byte	0x2
 1456 0394 23       		.byte	0x23
 1457 0395 10       		.uleb128 0x10
 1458 0396 00       		.byte	0x0
 1459 0397 09       		.uleb128 0x9
 1460 0398 04       		.byte	0x4
 1461 0399 39030000 		.4byte	0x339
 1462 039d 08       		.uleb128 0x8
 1463 039e 10       		.byte	0x10
 1464 039f 07       		.byte	0x7
 1465 03a0 71       		.byte	0x71
 1466 03a1 DE030000 		.4byte	0x3de
 1467 03a5 06       		.uleb128 0x6
 1468 03a6 27010000 		.4byte	.LASF46
 1469 03aa 07       		.byte	0x7
 1470 03ab 72       		.byte	0x72
 1471 03ac 97030000 		.4byte	0x397
 1472 03b0 02       		.byte	0x2
 1473 03b1 23       		.byte	0x23
 1474 03b2 00       		.uleb128 0x0
 1475 03b3 06       		.uleb128 0x6
 1476 03b4 01010000 		.4byte	.LASF47
 1477 03b8 07       		.byte	0x7
 1478 03b9 74       		.byte	0x74
 1479 03ba 97030000 		.4byte	0x397
 1480 03be 02       		.byte	0x2
 1481 03bf 23       		.byte	0x23
 1482 03c0 04       		.uleb128 0x4
 1483 03c1 06       		.uleb128 0x6
 1484 03c2 E9010000 		.4byte	.LASF48
 1485 03c6 07       		.byte	0x7
 1486 03c7 76       		.byte	0x76
 1487 03c8 D2000000 		.4byte	0xd2
 1488 03cc 02       		.byte	0x2
 1489 03cd 23       		.byte	0x23
 1490 03ce 08       		.uleb128 0x8
 1491 03cf 06       		.uleb128 0x6
 1492 03d0 2E040000 		.4byte	.LASF51
 1493 03d4 07       		.byte	0x7
 1494 03d5 77       		.byte	0x77
 1495 03d6 DE030000 		.4byte	0x3de
 1496 03da 02       		.byte	0x2
 1497 03db 23       		.byte	0x23
 1498 03dc 0C       		.uleb128 0xc
 1499 03dd 00       		.byte	0x0
 1500 03de 0F       		.uleb128 0xf
 1501 03df D2000000 		.4byte	0xd2
 1502 03e3 04       		.uleb128 0x4
 1503 03e4 39040000 		.4byte	.LASF52
 1504 03e8 07       		.byte	0x7
 1505 03e9 78       		.byte	0x78
 1506 03ea 9D030000 		.4byte	0x39d
 1507 03ee 08       		.uleb128 0x8
ARM GAS  /tmp/ccOFofHC.s 			page 28


 1508 03ef 20       		.byte	0x20
 1509 03f0 08       		.byte	0x8
 1510 03f1 5E       		.byte	0x5e
 1511 03f2 59040000 		.4byte	0x459
 1512 03f6 06       		.uleb128 0x6
 1513 03f7 0D030000 		.4byte	.LASF53
 1514 03fb 08       		.byte	0x8
 1515 03fc 5F       		.byte	0x5f
 1516 03fd 27020000 		.4byte	0x227
 1517 0401 02       		.byte	0x2
 1518 0402 23       		.byte	0x23
 1519 0403 00       		.uleb128 0x0
 1520 0404 06       		.uleb128 0x6
 1521 0405 D5020000 		.4byte	.LASF54
 1522 0409 08       		.byte	0x8
 1523 040a 60       		.byte	0x60
 1524 040b B1000000 		.4byte	0xb1
 1525 040f 02       		.byte	0x2
 1526 0410 23       		.byte	0x23
 1527 0411 08       		.uleb128 0x8
 1528 0412 06       		.uleb128 0x6
 1529 0413 2D020000 		.4byte	.LASF55
 1530 0417 08       		.byte	0x8
 1531 0418 62       		.byte	0x62
 1532 0419 F9020000 		.4byte	0x2f9
 1533 041d 02       		.byte	0x2
 1534 041e 23       		.byte	0x23
 1535 041f 0C       		.uleb128 0xc
 1536 0420 06       		.uleb128 0x6
 1537 0421 F0000000 		.4byte	.LASF56
 1538 0425 08       		.byte	0x8
 1539 0426 65       		.byte	0x65
 1540 0427 21020000 		.4byte	0x221
 1541 042b 02       		.byte	0x2
 1542 042c 23       		.byte	0x23
 1543 042d 10       		.uleb128 0x10
 1544 042e 06       		.uleb128 0x6
 1545 042f 4A020000 		.4byte	.LASF57
 1546 0433 08       		.byte	0x8
 1547 0434 66       		.byte	0x66
 1548 0435 21020000 		.4byte	0x221
 1549 0439 02       		.byte	0x2
 1550 043a 23       		.byte	0x23
 1551 043b 14       		.uleb128 0x14
 1552 043c 06       		.uleb128 0x6
 1553 043d 40040000 		.4byte	.LASF58
 1554 0441 08       		.byte	0x8
 1555 0442 6A       		.byte	0x6a
 1556 0443 DD000000 		.4byte	0xdd
 1557 0447 02       		.byte	0x2
 1558 0448 23       		.byte	0x23
 1559 0449 18       		.uleb128 0x18
 1560 044a 06       		.uleb128 0x6
 1561 044b 40020000 		.4byte	.LASF59
 1562 044f 08       		.byte	0x8
 1563 0450 6C       		.byte	0x6c
 1564 0451 21020000 		.4byte	0x221
ARM GAS  /tmp/ccOFofHC.s 			page 29


 1565 0455 02       		.byte	0x2
 1566 0456 23       		.byte	0x23
 1567 0457 1C       		.uleb128 0x1c
 1568 0458 00       		.byte	0x0
 1569 0459 04       		.uleb128 0x4
 1570 045a 9E030000 		.4byte	.LASF60
 1571 045e 08       		.byte	0x8
 1572 045f 6E       		.byte	0x6e
 1573 0460 EE030000 		.4byte	0x3ee
 1574 0464 05       		.uleb128 0x5
 1575 0465 D8010000 		.4byte	.LASF61
 1576 0469 10       		.byte	0x10
 1577 046a 09       		.byte	0x9
 1578 046b 2C       		.byte	0x2c
 1579 046c 9B040000 		.4byte	0x49b
 1580 0470 06       		.uleb128 0x6
 1581 0471 C0000000 		.4byte	.LASF62
 1582 0475 09       		.byte	0x9
 1583 0476 2D       		.byte	0x2d
 1584 0477 27020000 		.4byte	0x227
 1585 047b 02       		.byte	0x2
 1586 047c 23       		.byte	0x23
 1587 047d 00       		.uleb128 0x0
 1588 047e 06       		.uleb128 0x6
 1589 047f 5C040000 		.4byte	.LASF63
 1590 0483 09       		.byte	0x9
 1591 0484 2F       		.byte	0x2f
 1592 0485 21020000 		.4byte	0x221
 1593 0489 02       		.byte	0x2
 1594 048a 23       		.byte	0x23
 1595 048b 08       		.uleb128 0x8
 1596 048c 06       		.uleb128 0x6
 1597 048d 27030000 		.4byte	.LASF64
 1598 0491 09       		.byte	0x9
 1599 0492 31       		.byte	0x31
 1600 0493 9B040000 		.4byte	0x49b
 1601 0497 02       		.byte	0x2
 1602 0498 23       		.byte	0x23
 1603 0499 0C       		.uleb128 0xc
 1604 049a 00       		.byte	0x0
 1605 049b 09       		.uleb128 0x9
 1606 049c 04       		.byte	0x4
 1607 049d 64040000 		.4byte	0x464
 1608 04a1 04       		.uleb128 0x4
 1609 04a2 D8010000 		.4byte	.LASF61
 1610 04a6 09       		.byte	0x9
 1611 04a7 33       		.byte	0x33
 1612 04a8 64040000 		.4byte	0x464
 1613 04ac 10       		.uleb128 0x10
 1614 04ad 04       		.byte	0x4
 1615 04ae 05       		.byte	0x5
 1616 04af 90       		.byte	0x90
 1617 04b0 E1040000 		.4byte	0x4e1
 1618 04b4 11       		.uleb128 0x11
 1619 04b5 11000000 		.4byte	.LASF65
 1620 04b9 05       		.byte	0x5
 1621 04ba 97       		.byte	0x97
ARM GAS  /tmp/ccOFofHC.s 			page 30


 1622 04bb BC000000 		.4byte	0xbc
 1623 04bf 11       		.uleb128 0x11
 1624 04c0 5A000000 		.4byte	.LASF66
 1625 04c4 05       		.byte	0x5
 1626 04c5 9E       		.byte	0x9e
 1627 04c6 BC000000 		.4byte	0xbc
 1628 04ca 11       		.uleb128 0x11
 1629 04cb 14040000 		.4byte	.LASF67
 1630 04cf 05       		.byte	0x5
 1631 04d0 A5       		.byte	0xa5
 1632 04d1 5F020000 		.4byte	0x25f
 1633 04d5 11       		.uleb128 0x11
 1634 04d6 DC020000 		.4byte	.LASF68
 1635 04da 05       		.byte	0x5
 1636 04db AC       		.byte	0xac
 1637 04dc C7000000 		.4byte	0xc7
 1638 04e0 00       		.byte	0x0
 1639 04e1 09       		.uleb128 0x9
 1640 04e2 04       		.byte	0x4
 1641 04e3 E7040000 		.4byte	0x4e7
 1642 04e7 12       		.uleb128 0x12
 1643 04e8 EC040000 		.4byte	0x4ec
 1644 04ec 03       		.uleb128 0x3
 1645 04ed 01       		.byte	0x1
 1646 04ee 08       		.byte	0x8
 1647 04ef 22030000 		.4byte	.LASF69
 1648 04f3 09       		.uleb128 0x9
 1649 04f4 04       		.byte	0x4
 1650 04f5 61020000 		.4byte	0x261
 1651 04f9 09       		.uleb128 0x9
 1652 04fa 04       		.byte	0x4
 1653 04fb A1040000 		.4byte	0x4a1
 1654 04ff 08       		.uleb128 0x8
 1655 0500 10       		.byte	0x10
 1656 0501 0A       		.byte	0xa
 1657 0502 6C       		.byte	0x6c
 1658 0503 40050000 		.4byte	0x540
 1659 0507 06       		.uleb128 0x6
 1660 0508 74020000 		.4byte	.LASF70
 1661 050c 0A       		.byte	0xa
 1662 050d 6D       		.byte	0x6d
 1663 050e D2000000 		.4byte	0xd2
 1664 0512 02       		.byte	0x2
 1665 0513 23       		.byte	0x23
 1666 0514 00       		.uleb128 0x0
 1667 0515 06       		.uleb128 0x6
 1668 0516 DA000000 		.4byte	.LASF71
 1669 051a 0A       		.byte	0xa
 1670 051b 6E       		.byte	0x6e
 1671 051c 21020000 		.4byte	0x221
 1672 0520 02       		.byte	0x2
 1673 0521 23       		.byte	0x23
 1674 0522 04       		.uleb128 0x4
 1675 0523 06       		.uleb128 0x6
 1676 0524 64040000 		.4byte	.LASF72
 1677 0528 0A       		.byte	0xa
 1678 0529 6F       		.byte	0x6f
ARM GAS  /tmp/ccOFofHC.s 			page 31


 1679 052a 5F020000 		.4byte	0x25f
 1680 052e 02       		.byte	0x2
 1681 052f 23       		.byte	0x23
 1682 0530 08       		.uleb128 0x8
 1683 0531 06       		.uleb128 0x6
 1684 0532 51000000 		.4byte	.LASF73
 1685 0536 0A       		.byte	0xa
 1686 0537 70       		.byte	0x70
 1687 0538 3E000000 		.4byte	0x3e
 1688 053c 02       		.byte	0x2
 1689 053d 23       		.byte	0x23
 1690 053e 0C       		.uleb128 0xc
 1691 053f 00       		.byte	0x0
 1692 0540 04       		.uleb128 0x4
 1693 0541 16020000 		.4byte	.LASF74
 1694 0545 0A       		.byte	0xa
 1695 0546 71       		.byte	0x71
 1696 0547 FF040000 		.4byte	0x4ff
 1697 054b 13       		.uleb128 0x13
 1698 054c 0804     		.2byte	0x408
 1699 054e 0A       		.byte	0xa
 1700 054f 76       		.byte	0x76
 1701 0550 7F050000 		.4byte	0x57f
 1702 0554 06       		.uleb128 0x6
 1703 0555 E8000000 		.4byte	.LASF75
 1704 0559 0A       		.byte	0xa
 1705 055a 77       		.byte	0x77
 1706 055b 30000000 		.4byte	0x30
 1707 055f 02       		.byte	0x2
 1708 0560 23       		.byte	0x23
 1709 0561 00       		.uleb128 0x0
 1710 0562 06       		.uleb128 0x6
 1711 0563 F1010000 		.4byte	.LASF76
 1712 0567 0A       		.byte	0xa
 1713 0568 78       		.byte	0x78
 1714 0569 7F050000 		.4byte	0x57f
 1715 056d 02       		.byte	0x2
 1716 056e 23       		.byte	0x23
 1717 056f 04       		.uleb128 0x4
 1718 0570 06       		.uleb128 0x6
 1719 0571 7C020000 		.4byte	.LASF77
 1720 0575 0A       		.byte	0xa
 1721 0576 7A       		.byte	0x7a
 1722 0577 85050000 		.4byte	0x585
 1723 057b 02       		.byte	0x2
 1724 057c 23       		.byte	0x23
 1725 057d 08       		.uleb128 0x8
 1726 057e 00       		.byte	0x0
 1727 057f 09       		.uleb128 0x9
 1728 0580 04       		.byte	0x4
 1729 0581 40050000 		.4byte	0x540
 1730 0585 14       		.uleb128 0x14
 1731 0586 40050000 		.4byte	0x540
 1732 058a 95050000 		.4byte	0x595
 1733 058e 15       		.uleb128 0x15
 1734 058f 30000000 		.4byte	0x30
 1735 0593 3F       		.byte	0x3f
ARM GAS  /tmp/ccOFofHC.s 			page 32


 1736 0594 00       		.byte	0x0
 1737 0595 04       		.uleb128 0x4
 1738 0596 3F000000 		.4byte	.LASF78
 1739 059a 0A       		.byte	0xa
 1740 059b 7B       		.byte	0x7b
 1741 059c 4B050000 		.4byte	0x54b
 1742 05a0 16       		.uleb128 0x16
 1743 05a1 01       		.byte	0x1
 1744 05a2 4A040000 		.4byte	.LASF79
 1745 05a6 01       		.byte	0x1
 1746 05a7 51       		.byte	0x51
 1747 05a8 01       		.byte	0x1
 1748 05a9 00000000 		.4byte	.LFB7
 1749 05ad 28000000 		.4byte	.LFE7
 1750 05b1 00000000 		.4byte	.LLST0
 1751 05b5 16       		.uleb128 0x16
 1752 05b6 01       		.byte	0x1
 1753 05b7 4B010000 		.4byte	.LASF80
 1754 05bb 01       		.byte	0x1
 1755 05bc 5C       		.byte	0x5c
 1756 05bd 01       		.byte	0x1
 1757 05be 00000000 		.4byte	.LFB8
 1758 05c2 28000000 		.4byte	.LFE8
 1759 05c6 20000000 		.4byte	.LLST1
 1760 05ca 16       		.uleb128 0x16
 1761 05cb 01       		.byte	0x1
 1762 05cc 86030000 		.4byte	.LASF81
 1763 05d0 01       		.byte	0x1
 1764 05d1 67       		.byte	0x67
 1765 05d2 01       		.byte	0x1
 1766 05d3 00000000 		.4byte	.LFB9
 1767 05d7 28000000 		.4byte	.LFE9
 1768 05db 40000000 		.4byte	.LLST2
 1769 05df 16       		.uleb128 0x16
 1770 05e0 01       		.byte	0x1
 1771 05e1 00020000 		.4byte	.LASF82
 1772 05e5 01       		.byte	0x1
 1773 05e6 72       		.byte	0x72
 1774 05e7 01       		.byte	0x1
 1775 05e8 00000000 		.4byte	.LFB10
 1776 05ec 30000000 		.4byte	.LFE10
 1777 05f0 60000000 		.4byte	.LLST3
 1778 05f4 16       		.uleb128 0x16
 1779 05f5 01       		.byte	0x1
 1780 05f6 52020000 		.4byte	.LASF83
 1781 05fa 01       		.byte	0x1
 1782 05fb 7E       		.byte	0x7e
 1783 05fc 01       		.byte	0x1
 1784 05fd 00000000 		.4byte	.LFB11
 1785 0601 30000000 		.4byte	.LFE11
 1786 0605 80000000 		.4byte	.LLST4
 1787 0609 16       		.uleb128 0x16
 1788 060a 01       		.byte	0x1
 1789 060b FC030000 		.4byte	.LASF84
 1790 060f 01       		.byte	0x1
 1791 0610 8A       		.byte	0x8a
 1792 0611 01       		.byte	0x1
ARM GAS  /tmp/ccOFofHC.s 			page 33


 1793 0612 00000000 		.4byte	.LFB12
 1794 0616 30000000 		.4byte	.LFE12
 1795 061a A0000000 		.4byte	.LLST5
 1796 061e 16       		.uleb128 0x16
 1797 061f 01       		.byte	0x1
 1798 0620 A6000000 		.4byte	.LASF85
 1799 0624 01       		.byte	0x1
 1800 0625 96       		.byte	0x96
 1801 0626 01       		.byte	0x1
 1802 0627 00000000 		.4byte	.LFB13
 1803 062b 30000000 		.4byte	.LFE13
 1804 062f C0000000 		.4byte	.LLST6
 1805 0633 17       		.uleb128 0x17
 1806 0634 01       		.byte	0x1
 1807 0635 DA030000 		.4byte	.LASF86
 1808 0639 01       		.byte	0x1
 1809 063a A2       		.byte	0xa2
 1810 063b 01       		.byte	0x1
 1811 063c 00000000 		.4byte	.LFB14
 1812 0640 44000000 		.4byte	.LFE14
 1813 0644 E0000000 		.4byte	.LLST7
 1814 0648 7F060000 		.4byte	0x67f
 1815 064c 18       		.uleb128 0x18
 1816 064d 02000000 		.4byte	.LBB2
 1817 0651 0A000000 		.4byte	.LBE2
 1818 0655 67060000 		.4byte	0x667
 1819 0659 19       		.uleb128 0x19
 1820 065a 746D7000 		.ascii	"tmp\000"
 1821 065e 01       		.byte	0x1
 1822 065f A4       		.byte	0xa4
 1823 0660 70000000 		.4byte	0x70
 1824 0664 01       		.byte	0x1
 1825 0665 53       		.byte	0x53
 1826 0666 00       		.byte	0x0
 1827 0667 1A       		.uleb128 0x1a
 1828 0668 2C000000 		.4byte	.LBB3
 1829 066c 34000000 		.4byte	.LBE3
 1830 0670 19       		.uleb128 0x19
 1831 0671 746D7000 		.ascii	"tmp\000"
 1832 0675 01       		.byte	0x1
 1833 0676 A8       		.byte	0xa8
 1834 0677 70000000 		.4byte	0x70
 1835 067b 01       		.byte	0x1
 1836 067c 53       		.byte	0x53
 1837 067d 00       		.byte	0x0
 1838 067e 00       		.byte	0x0
 1839 067f 17       		.uleb128 0x17
 1840 0680 01       		.byte	0x1
 1841 0681 60030000 		.4byte	.LASF87
 1842 0685 01       		.byte	0x1
 1843 0686 B0       		.byte	0xb0
 1844 0687 01       		.byte	0x1
 1845 0688 00000000 		.4byte	.LFB15
 1846 068c 44000000 		.4byte	.LFE15
 1847 0690 00010000 		.4byte	.LLST8
 1848 0694 CB060000 		.4byte	0x6cb
 1849 0698 18       		.uleb128 0x18
ARM GAS  /tmp/ccOFofHC.s 			page 34


 1850 0699 02000000 		.4byte	.LBB4
 1851 069d 0A000000 		.4byte	.LBE4
 1852 06a1 B3060000 		.4byte	0x6b3
 1853 06a5 19       		.uleb128 0x19
 1854 06a6 746D7000 		.ascii	"tmp\000"
 1855 06aa 01       		.byte	0x1
 1856 06ab B2       		.byte	0xb2
 1857 06ac 70000000 		.4byte	0x70
 1858 06b0 01       		.byte	0x1
 1859 06b1 53       		.byte	0x53
 1860 06b2 00       		.byte	0x0
 1861 06b3 1A       		.uleb128 0x1a
 1862 06b4 2C000000 		.4byte	.LBB5
 1863 06b8 34000000 		.4byte	.LBE5
 1864 06bc 19       		.uleb128 0x19
 1865 06bd 746D7000 		.ascii	"tmp\000"
 1866 06c1 01       		.byte	0x1
 1867 06c2 B6       		.byte	0xb6
 1868 06c3 70000000 		.4byte	0x70
 1869 06c7 01       		.byte	0x1
 1870 06c8 53       		.byte	0x53
 1871 06c9 00       		.byte	0x0
 1872 06ca 00       		.byte	0x0
 1873 06cb 16       		.uleb128 0x16
 1874 06cc 01       		.byte	0x1
 1875 06cd 8A010000 		.4byte	.LASF88
 1876 06d1 01       		.byte	0x1
 1877 06d2 C1       		.byte	0xc1
 1878 06d3 01       		.byte	0x1
 1879 06d4 00000000 		.4byte	.LFB16
 1880 06d8 28000000 		.4byte	.LFE16
 1881 06dc 20010000 		.4byte	.LLST9
 1882 06e0 16       		.uleb128 0x16
 1883 06e1 01       		.byte	0x1
 1884 06e2 AF010000 		.4byte	.LASF89
 1885 06e6 01       		.byte	0x1
 1886 06e7 CF       		.byte	0xcf
 1887 06e8 01       		.byte	0x1
 1888 06e9 00000000 		.4byte	.LFB17
 1889 06ed 28000000 		.4byte	.LFE17
 1890 06f1 40010000 		.4byte	.LLST10
 1891 06f5 1B       		.uleb128 0x1b
 1892 06f6 01       		.byte	0x1
 1893 06f7 78010000 		.4byte	.LASF90
 1894 06fb 01       		.byte	0x1
 1895 06fc E5       		.byte	0xe5
 1896 06fd 01       		.byte	0x1
 1897 06fe 00000000 		.4byte	.LFB18
 1898 0702 18000000 		.4byte	.LFE18
 1899 0706 02       		.byte	0x2
 1900 0707 7D       		.byte	0x7d
 1901 0708 00       		.sleb128 0
 1902 0709 17       		.uleb128 0x17
 1903 070a 01       		.byte	0x1
 1904 070b 2F010000 		.4byte	.LASF91
 1905 070f 01       		.byte	0x1
 1906 0710 F2       		.byte	0xf2
ARM GAS  /tmp/ccOFofHC.s 			page 35


 1907 0711 01       		.byte	0x1
 1908 0712 00000000 		.4byte	.LFB19
 1909 0716 64000000 		.4byte	.LFE19
 1910 071a 60010000 		.4byte	.LLST11
 1911 071e 31070000 		.4byte	0x731
 1912 0722 1C       		.uleb128 0x1c
 1913 0723 6F747000 		.ascii	"otp\000"
 1914 0727 01       		.byte	0x1
 1915 0728 F2       		.byte	0xf2
 1916 0729 21020000 		.4byte	0x221
 1917 072d 02       		.byte	0x2
 1918 072e 91       		.byte	0x91
 1919 072f 7C       		.sleb128 -4
 1920 0730 00       		.byte	0x0
 1921 0731 1D       		.uleb128 0x1d
 1922 0732 01       		.byte	0x1
 1923 0733 06000000 		.4byte	.LASF92
 1924 0737 01       		.byte	0x1
 1925 0738 0F01     		.2byte	0x10f
 1926 073a 01       		.byte	0x1
 1927 073b 00000000 		.4byte	.LFB20
 1928 073f 18000000 		.4byte	.LFE20
 1929 0743 80010000 		.4byte	.LLST12
 1930 0747 5B070000 		.4byte	0x75b
 1931 074b 1E       		.uleb128 0x1e
 1932 074c 6D736700 		.ascii	"msg\000"
 1933 0750 01       		.byte	0x1
 1934 0751 0F01     		.2byte	0x10f
 1935 0753 5B070000 		.4byte	0x75b
 1936 0757 02       		.byte	0x2
 1937 0758 91       		.byte	0x91
 1938 0759 74       		.sleb128 -12
 1939 075a 00       		.byte	0x0
 1940 075b 09       		.uleb128 0x9
 1941 075c 04       		.byte	0x4
 1942 075d EC040000 		.4byte	0x4ec
 1943 0761 1F       		.uleb128 0x1f
 1944 0762 21000000 		.4byte	.LASF93
 1945 0766 07       		.byte	0x7
 1946 0767 7A       		.byte	0x7a
 1947 0768 E3030000 		.4byte	0x3e3
 1948 076c 01       		.byte	0x1
 1949 076d 01       		.byte	0x1
 1950 076e 1F       		.uleb128 0x1f
 1951 076f EE030000 		.4byte	.LASF94
 1952 0773 08       		.byte	0x8
 1953 0774 72       		.byte	0x72
 1954 0775 59040000 		.4byte	0x459
 1955 0779 01       		.byte	0x1
 1956 077a 01       		.byte	0x1
 1957 077b 1F       		.uleb128 0x1f
 1958 077c 63020000 		.4byte	.LASF95
 1959 0780 0A       		.byte	0xa
 1960 0781 7E       		.byte	0x7e
 1961 0782 95050000 		.4byte	0x595
 1962 0786 01       		.byte	0x1
 1963 0787 01       		.byte	0x1
ARM GAS  /tmp/ccOFofHC.s 			page 36


 1964 0788 1F       		.uleb128 0x1f
 1965 0789 AB020000 		.4byte	.LASF96
 1966 078d 0A       		.byte	0xa
 1967 078e CF       		.byte	0xcf
 1968 078f 5B070000 		.4byte	0x75b
 1969 0793 01       		.byte	0x1
 1970 0794 01       		.byte	0x1
 1971 0795 1F       		.uleb128 0x1f
 1972 0796 A3010000 		.4byte	.LASF97
 1973 079a 01       		.byte	0x1
 1974 079b 45       		.byte	0x45
 1975 079c DD000000 		.4byte	0xdd
 1976 07a0 01       		.byte	0x1
 1977 07a1 01       		.byte	0x1
 1978 07a2 1F       		.uleb128 0x1f
 1979 07a3 4C030000 		.4byte	.LASF98
 1980 07a7 01       		.byte	0x1
 1981 07a8 4A       		.byte	0x4a
 1982 07a9 DD000000 		.4byte	0xdd
 1983 07ad 01       		.byte	0x1
 1984 07ae 01       		.byte	0x1
 1985 07af 1F       		.uleb128 0x1f
 1986 07b0 21000000 		.4byte	.LASF93
 1987 07b4 07       		.byte	0x7
 1988 07b5 7A       		.byte	0x7a
 1989 07b6 E3030000 		.4byte	0x3e3
 1990 07ba 01       		.byte	0x1
 1991 07bb 01       		.byte	0x1
 1992 07bc 1F       		.uleb128 0x1f
 1993 07bd EE030000 		.4byte	.LASF94
 1994 07c1 08       		.byte	0x8
 1995 07c2 72       		.byte	0x72
 1996 07c3 59040000 		.4byte	0x459
 1997 07c7 01       		.byte	0x1
 1998 07c8 01       		.byte	0x1
 1999 07c9 20       		.uleb128 0x20
 2000 07ca 63020000 		.4byte	.LASF95
 2001 07ce 01       		.byte	0x1
 2002 07cf DF       		.byte	0xdf
 2003 07d0 95050000 		.4byte	0x595
 2004 07d4 01       		.byte	0x1
 2005 07d5 05       		.byte	0x5
 2006 07d6 03       		.byte	0x3
 2007 07d7 00000000 		.4byte	dbg_trace_buffer
 2008 07db 21       		.uleb128 0x21
 2009 07dc AB020000 		.4byte	.LASF96
 2010 07e0 01       		.byte	0x1
 2011 07e1 0801     		.2byte	0x108
 2012 07e3 5B070000 		.4byte	0x75b
 2013 07e7 01       		.byte	0x1
 2014 07e8 05       		.byte	0x5
 2015 07e9 03       		.byte	0x3
 2016 07ea 00000000 		.4byte	dbg_panic_msg
 2017 07ee 20       		.uleb128 0x20
 2018 07ef A3010000 		.4byte	.LASF97
 2019 07f3 01       		.byte	0x1
 2020 07f4 45       		.byte	0x45
ARM GAS  /tmp/ccOFofHC.s 			page 37


 2021 07f5 DD000000 		.4byte	0xdd
 2022 07f9 01       		.byte	0x1
 2023 07fa 05       		.byte	0x5
 2024 07fb 03       		.byte	0x3
 2025 07fc 00000000 		.4byte	dbg_isr_cnt
 2026 0800 20       		.uleb128 0x20
 2027 0801 4C030000 		.4byte	.LASF98
 2028 0805 01       		.byte	0x1
 2029 0806 4A       		.byte	0x4a
 2030 0807 DD000000 		.4byte	0xdd
 2031 080b 01       		.byte	0x1
 2032 080c 05       		.byte	0x5
 2033 080d 03       		.byte	0x3
 2034 080e 00000000 		.4byte	dbg_lock_cnt
 2035 0812 00       		.byte	0x0
 2036              		.section	.debug_abbrev
 2037 0000 01       		.uleb128 0x1
 2038 0001 11       		.uleb128 0x11
 2039 0002 01       		.byte	0x1
 2040 0003 25       		.uleb128 0x25
 2041 0004 0E       		.uleb128 0xe
 2042 0005 13       		.uleb128 0x13
 2043 0006 0B       		.uleb128 0xb
 2044 0007 03       		.uleb128 0x3
 2045 0008 0E       		.uleb128 0xe
 2046 0009 1B       		.uleb128 0x1b
 2047 000a 0E       		.uleb128 0xe
 2048 000b 11       		.uleb128 0x11
 2049 000c 01       		.uleb128 0x1
 2050 000d 52       		.uleb128 0x52
 2051 000e 01       		.uleb128 0x1
 2052 000f 55       		.uleb128 0x55
 2053 0010 06       		.uleb128 0x6
 2054 0011 10       		.uleb128 0x10
 2055 0012 06       		.uleb128 0x6
 2056 0013 00       		.byte	0x0
 2057 0014 00       		.byte	0x0
 2058 0015 02       		.uleb128 0x2
 2059 0016 24       		.uleb128 0x24
 2060 0017 00       		.byte	0x0
 2061 0018 0B       		.uleb128 0xb
 2062 0019 0B       		.uleb128 0xb
 2063 001a 3E       		.uleb128 0x3e
 2064 001b 0B       		.uleb128 0xb
 2065 001c 03       		.uleb128 0x3
 2066 001d 08       		.uleb128 0x8
 2067 001e 00       		.byte	0x0
 2068 001f 00       		.byte	0x0
 2069 0020 03       		.uleb128 0x3
 2070 0021 24       		.uleb128 0x24
 2071 0022 00       		.byte	0x0
 2072 0023 0B       		.uleb128 0xb
 2073 0024 0B       		.uleb128 0xb
 2074 0025 3E       		.uleb128 0x3e
 2075 0026 0B       		.uleb128 0xb
 2076 0027 03       		.uleb128 0x3
 2077 0028 0E       		.uleb128 0xe
ARM GAS  /tmp/ccOFofHC.s 			page 38


 2078 0029 00       		.byte	0x0
 2079 002a 00       		.byte	0x0
 2080 002b 04       		.uleb128 0x4
 2081 002c 16       		.uleb128 0x16
 2082 002d 00       		.byte	0x0
 2083 002e 03       		.uleb128 0x3
 2084 002f 0E       		.uleb128 0xe
 2085 0030 3A       		.uleb128 0x3a
 2086 0031 0B       		.uleb128 0xb
 2087 0032 3B       		.uleb128 0x3b
 2088 0033 0B       		.uleb128 0xb
 2089 0034 49       		.uleb128 0x49
 2090 0035 13       		.uleb128 0x13
 2091 0036 00       		.byte	0x0
 2092 0037 00       		.byte	0x0
 2093 0038 05       		.uleb128 0x5
 2094 0039 13       		.uleb128 0x13
 2095 003a 01       		.byte	0x1
 2096 003b 03       		.uleb128 0x3
 2097 003c 0E       		.uleb128 0xe
 2098 003d 0B       		.uleb128 0xb
 2099 003e 0B       		.uleb128 0xb
 2100 003f 3A       		.uleb128 0x3a
 2101 0040 0B       		.uleb128 0xb
 2102 0041 3B       		.uleb128 0x3b
 2103 0042 0B       		.uleb128 0xb
 2104 0043 01       		.uleb128 0x1
 2105 0044 13       		.uleb128 0x13
 2106 0045 00       		.byte	0x0
 2107 0046 00       		.byte	0x0
 2108 0047 06       		.uleb128 0x6
 2109 0048 0D       		.uleb128 0xd
 2110 0049 00       		.byte	0x0
 2111 004a 03       		.uleb128 0x3
 2112 004b 0E       		.uleb128 0xe
 2113 004c 3A       		.uleb128 0x3a
 2114 004d 0B       		.uleb128 0xb
 2115 004e 3B       		.uleb128 0x3b
 2116 004f 0B       		.uleb128 0xb
 2117 0050 49       		.uleb128 0x49
 2118 0051 13       		.uleb128 0x13
 2119 0052 38       		.uleb128 0x38
 2120 0053 0A       		.uleb128 0xa
 2121 0054 00       		.byte	0x0
 2122 0055 00       		.byte	0x0
 2123 0056 07       		.uleb128 0x7
 2124 0057 0D       		.uleb128 0xd
 2125 0058 00       		.byte	0x0
 2126 0059 03       		.uleb128 0x3
 2127 005a 08       		.uleb128 0x8
 2128 005b 3A       		.uleb128 0x3a
 2129 005c 0B       		.uleb128 0xb
 2130 005d 3B       		.uleb128 0x3b
 2131 005e 0B       		.uleb128 0xb
 2132 005f 49       		.uleb128 0x49
 2133 0060 13       		.uleb128 0x13
 2134 0061 38       		.uleb128 0x38
ARM GAS  /tmp/ccOFofHC.s 			page 39


 2135 0062 0A       		.uleb128 0xa
 2136 0063 00       		.byte	0x0
 2137 0064 00       		.byte	0x0
 2138 0065 08       		.uleb128 0x8
 2139 0066 13       		.uleb128 0x13
 2140 0067 01       		.byte	0x1
 2141 0068 0B       		.uleb128 0xb
 2142 0069 0B       		.uleb128 0xb
 2143 006a 3A       		.uleb128 0x3a
 2144 006b 0B       		.uleb128 0xb
 2145 006c 3B       		.uleb128 0x3b
 2146 006d 0B       		.uleb128 0xb
 2147 006e 01       		.uleb128 0x1
 2148 006f 13       		.uleb128 0x13
 2149 0070 00       		.byte	0x0
 2150 0071 00       		.byte	0x0
 2151 0072 09       		.uleb128 0x9
 2152 0073 0F       		.uleb128 0xf
 2153 0074 00       		.byte	0x0
 2154 0075 0B       		.uleb128 0xb
 2155 0076 0B       		.uleb128 0xb
 2156 0077 49       		.uleb128 0x49
 2157 0078 13       		.uleb128 0x13
 2158 0079 00       		.byte	0x0
 2159 007a 00       		.byte	0x0
 2160 007b 0A       		.uleb128 0xa
 2161 007c 0F       		.uleb128 0xf
 2162 007d 00       		.byte	0x0
 2163 007e 0B       		.uleb128 0xb
 2164 007f 0B       		.uleb128 0xb
 2165 0080 00       		.byte	0x0
 2166 0081 00       		.byte	0x0
 2167 0082 0B       		.uleb128 0xb
 2168 0083 0D       		.uleb128 0xd
 2169 0084 00       		.byte	0x0
 2170 0085 03       		.uleb128 0x3
 2171 0086 08       		.uleb128 0x8
 2172 0087 3A       		.uleb128 0x3a
 2173 0088 0B       		.uleb128 0xb
 2174 0089 3B       		.uleb128 0x3b
 2175 008a 05       		.uleb128 0x5
 2176 008b 49       		.uleb128 0x49
 2177 008c 13       		.uleb128 0x13
 2178 008d 38       		.uleb128 0x38
 2179 008e 0A       		.uleb128 0xa
 2180 008f 00       		.byte	0x0
 2181 0090 00       		.byte	0x0
 2182 0091 0C       		.uleb128 0xc
 2183 0092 13       		.uleb128 0x13
 2184 0093 01       		.byte	0x1
 2185 0094 03       		.uleb128 0x3
 2186 0095 0E       		.uleb128 0xe
 2187 0096 0B       		.uleb128 0xb
 2188 0097 0B       		.uleb128 0xb
 2189 0098 3A       		.uleb128 0x3a
 2190 0099 0B       		.uleb128 0xb
 2191 009a 3B       		.uleb128 0x3b
ARM GAS  /tmp/ccOFofHC.s 			page 40


 2192 009b 05       		.uleb128 0x5
 2193 009c 01       		.uleb128 0x1
 2194 009d 13       		.uleb128 0x13
 2195 009e 00       		.byte	0x0
 2196 009f 00       		.byte	0x0
 2197 00a0 0D       		.uleb128 0xd
 2198 00a1 15       		.uleb128 0x15
 2199 00a2 01       		.byte	0x1
 2200 00a3 27       		.uleb128 0x27
 2201 00a4 0C       		.uleb128 0xc
 2202 00a5 01       		.uleb128 0x1
 2203 00a6 13       		.uleb128 0x13
 2204 00a7 00       		.byte	0x0
 2205 00a8 00       		.byte	0x0
 2206 00a9 0E       		.uleb128 0xe
 2207 00aa 05       		.uleb128 0x5
 2208 00ab 00       		.byte	0x0
 2209 00ac 49       		.uleb128 0x49
 2210 00ad 13       		.uleb128 0x13
 2211 00ae 00       		.byte	0x0
 2212 00af 00       		.byte	0x0
 2213 00b0 0F       		.uleb128 0xf
 2214 00b1 35       		.uleb128 0x35
 2215 00b2 00       		.byte	0x0
 2216 00b3 49       		.uleb128 0x49
 2217 00b4 13       		.uleb128 0x13
 2218 00b5 00       		.byte	0x0
 2219 00b6 00       		.byte	0x0
 2220 00b7 10       		.uleb128 0x10
 2221 00b8 17       		.uleb128 0x17
 2222 00b9 01       		.byte	0x1
 2223 00ba 0B       		.uleb128 0xb
 2224 00bb 0B       		.uleb128 0xb
 2225 00bc 3A       		.uleb128 0x3a
 2226 00bd 0B       		.uleb128 0xb
 2227 00be 3B       		.uleb128 0x3b
 2228 00bf 0B       		.uleb128 0xb
 2229 00c0 01       		.uleb128 0x1
 2230 00c1 13       		.uleb128 0x13
 2231 00c2 00       		.byte	0x0
 2232 00c3 00       		.byte	0x0
 2233 00c4 11       		.uleb128 0x11
 2234 00c5 0D       		.uleb128 0xd
 2235 00c6 00       		.byte	0x0
 2236 00c7 03       		.uleb128 0x3
 2237 00c8 0E       		.uleb128 0xe
 2238 00c9 3A       		.uleb128 0x3a
 2239 00ca 0B       		.uleb128 0xb
 2240 00cb 3B       		.uleb128 0x3b
 2241 00cc 0B       		.uleb128 0xb
 2242 00cd 49       		.uleb128 0x49
 2243 00ce 13       		.uleb128 0x13
 2244 00cf 00       		.byte	0x0
 2245 00d0 00       		.byte	0x0
 2246 00d1 12       		.uleb128 0x12
 2247 00d2 26       		.uleb128 0x26
 2248 00d3 00       		.byte	0x0
ARM GAS  /tmp/ccOFofHC.s 			page 41


 2249 00d4 49       		.uleb128 0x49
 2250 00d5 13       		.uleb128 0x13
 2251 00d6 00       		.byte	0x0
 2252 00d7 00       		.byte	0x0
 2253 00d8 13       		.uleb128 0x13
 2254 00d9 13       		.uleb128 0x13
 2255 00da 01       		.byte	0x1
 2256 00db 0B       		.uleb128 0xb
 2257 00dc 05       		.uleb128 0x5
 2258 00dd 3A       		.uleb128 0x3a
 2259 00de 0B       		.uleb128 0xb
 2260 00df 3B       		.uleb128 0x3b
 2261 00e0 0B       		.uleb128 0xb
 2262 00e1 01       		.uleb128 0x1
 2263 00e2 13       		.uleb128 0x13
 2264 00e3 00       		.byte	0x0
 2265 00e4 00       		.byte	0x0
 2266 00e5 14       		.uleb128 0x14
 2267 00e6 01       		.uleb128 0x1
 2268 00e7 01       		.byte	0x1
 2269 00e8 49       		.uleb128 0x49
 2270 00e9 13       		.uleb128 0x13
 2271 00ea 01       		.uleb128 0x1
 2272 00eb 13       		.uleb128 0x13
 2273 00ec 00       		.byte	0x0
 2274 00ed 00       		.byte	0x0
 2275 00ee 15       		.uleb128 0x15
 2276 00ef 21       		.uleb128 0x21
 2277 00f0 00       		.byte	0x0
 2278 00f1 49       		.uleb128 0x49
 2279 00f2 13       		.uleb128 0x13
 2280 00f3 2F       		.uleb128 0x2f
 2281 00f4 0B       		.uleb128 0xb
 2282 00f5 00       		.byte	0x0
 2283 00f6 00       		.byte	0x0
 2284 00f7 16       		.uleb128 0x16
 2285 00f8 2E       		.uleb128 0x2e
 2286 00f9 00       		.byte	0x0
 2287 00fa 3F       		.uleb128 0x3f
 2288 00fb 0C       		.uleb128 0xc
 2289 00fc 03       		.uleb128 0x3
 2290 00fd 0E       		.uleb128 0xe
 2291 00fe 3A       		.uleb128 0x3a
 2292 00ff 0B       		.uleb128 0xb
 2293 0100 3B       		.uleb128 0x3b
 2294 0101 0B       		.uleb128 0xb
 2295 0102 27       		.uleb128 0x27
 2296 0103 0C       		.uleb128 0xc
 2297 0104 11       		.uleb128 0x11
 2298 0105 01       		.uleb128 0x1
 2299 0106 12       		.uleb128 0x12
 2300 0107 01       		.uleb128 0x1
 2301 0108 40       		.uleb128 0x40
 2302 0109 06       		.uleb128 0x6
 2303 010a 00       		.byte	0x0
 2304 010b 00       		.byte	0x0
 2305 010c 17       		.uleb128 0x17
ARM GAS  /tmp/ccOFofHC.s 			page 42


 2306 010d 2E       		.uleb128 0x2e
 2307 010e 01       		.byte	0x1
 2308 010f 3F       		.uleb128 0x3f
 2309 0110 0C       		.uleb128 0xc
 2310 0111 03       		.uleb128 0x3
 2311 0112 0E       		.uleb128 0xe
 2312 0113 3A       		.uleb128 0x3a
 2313 0114 0B       		.uleb128 0xb
 2314 0115 3B       		.uleb128 0x3b
 2315 0116 0B       		.uleb128 0xb
 2316 0117 27       		.uleb128 0x27
 2317 0118 0C       		.uleb128 0xc
 2318 0119 11       		.uleb128 0x11
 2319 011a 01       		.uleb128 0x1
 2320 011b 12       		.uleb128 0x12
 2321 011c 01       		.uleb128 0x1
 2322 011d 40       		.uleb128 0x40
 2323 011e 06       		.uleb128 0x6
 2324 011f 01       		.uleb128 0x1
 2325 0120 13       		.uleb128 0x13
 2326 0121 00       		.byte	0x0
 2327 0122 00       		.byte	0x0
 2328 0123 18       		.uleb128 0x18
 2329 0124 0B       		.uleb128 0xb
 2330 0125 01       		.byte	0x1
 2331 0126 11       		.uleb128 0x11
 2332 0127 01       		.uleb128 0x1
 2333 0128 12       		.uleb128 0x12
 2334 0129 01       		.uleb128 0x1
 2335 012a 01       		.uleb128 0x1
 2336 012b 13       		.uleb128 0x13
 2337 012c 00       		.byte	0x0
 2338 012d 00       		.byte	0x0
 2339 012e 19       		.uleb128 0x19
 2340 012f 34       		.uleb128 0x34
 2341 0130 00       		.byte	0x0
 2342 0131 03       		.uleb128 0x3
 2343 0132 08       		.uleb128 0x8
 2344 0133 3A       		.uleb128 0x3a
 2345 0134 0B       		.uleb128 0xb
 2346 0135 3B       		.uleb128 0x3b
 2347 0136 0B       		.uleb128 0xb
 2348 0137 49       		.uleb128 0x49
 2349 0138 13       		.uleb128 0x13
 2350 0139 02       		.uleb128 0x2
 2351 013a 0A       		.uleb128 0xa
 2352 013b 00       		.byte	0x0
 2353 013c 00       		.byte	0x0
 2354 013d 1A       		.uleb128 0x1a
 2355 013e 0B       		.uleb128 0xb
 2356 013f 01       		.byte	0x1
 2357 0140 11       		.uleb128 0x11
 2358 0141 01       		.uleb128 0x1
 2359 0142 12       		.uleb128 0x12
 2360 0143 01       		.uleb128 0x1
 2361 0144 00       		.byte	0x0
 2362 0145 00       		.byte	0x0
ARM GAS  /tmp/ccOFofHC.s 			page 43


 2363 0146 1B       		.uleb128 0x1b
 2364 0147 2E       		.uleb128 0x2e
 2365 0148 00       		.byte	0x0
 2366 0149 3F       		.uleb128 0x3f
 2367 014a 0C       		.uleb128 0xc
 2368 014b 03       		.uleb128 0x3
 2369 014c 0E       		.uleb128 0xe
 2370 014d 3A       		.uleb128 0x3a
 2371 014e 0B       		.uleb128 0xb
 2372 014f 3B       		.uleb128 0x3b
 2373 0150 0B       		.uleb128 0xb
 2374 0151 27       		.uleb128 0x27
 2375 0152 0C       		.uleb128 0xc
 2376 0153 11       		.uleb128 0x11
 2377 0154 01       		.uleb128 0x1
 2378 0155 12       		.uleb128 0x12
 2379 0156 01       		.uleb128 0x1
 2380 0157 40       		.uleb128 0x40
 2381 0158 0A       		.uleb128 0xa
 2382 0159 00       		.byte	0x0
 2383 015a 00       		.byte	0x0
 2384 015b 1C       		.uleb128 0x1c
 2385 015c 05       		.uleb128 0x5
 2386 015d 00       		.byte	0x0
 2387 015e 03       		.uleb128 0x3
 2388 015f 08       		.uleb128 0x8
 2389 0160 3A       		.uleb128 0x3a
 2390 0161 0B       		.uleb128 0xb
 2391 0162 3B       		.uleb128 0x3b
 2392 0163 0B       		.uleb128 0xb
 2393 0164 49       		.uleb128 0x49
 2394 0165 13       		.uleb128 0x13
 2395 0166 02       		.uleb128 0x2
 2396 0167 0A       		.uleb128 0xa
 2397 0168 00       		.byte	0x0
 2398 0169 00       		.byte	0x0
 2399 016a 1D       		.uleb128 0x1d
 2400 016b 2E       		.uleb128 0x2e
 2401 016c 01       		.byte	0x1
 2402 016d 3F       		.uleb128 0x3f
 2403 016e 0C       		.uleb128 0xc
 2404 016f 03       		.uleb128 0x3
 2405 0170 0E       		.uleb128 0xe
 2406 0171 3A       		.uleb128 0x3a
 2407 0172 0B       		.uleb128 0xb
 2408 0173 3B       		.uleb128 0x3b
 2409 0174 05       		.uleb128 0x5
 2410 0175 27       		.uleb128 0x27
 2411 0176 0C       		.uleb128 0xc
 2412 0177 11       		.uleb128 0x11
 2413 0178 01       		.uleb128 0x1
 2414 0179 12       		.uleb128 0x12
 2415 017a 01       		.uleb128 0x1
 2416 017b 40       		.uleb128 0x40
 2417 017c 06       		.uleb128 0x6
 2418 017d 01       		.uleb128 0x1
 2419 017e 13       		.uleb128 0x13
ARM GAS  /tmp/ccOFofHC.s 			page 44


 2420 017f 00       		.byte	0x0
 2421 0180 00       		.byte	0x0
 2422 0181 1E       		.uleb128 0x1e
 2423 0182 05       		.uleb128 0x5
 2424 0183 00       		.byte	0x0
 2425 0184 03       		.uleb128 0x3
 2426 0185 08       		.uleb128 0x8
 2427 0186 3A       		.uleb128 0x3a
 2428 0187 0B       		.uleb128 0xb
 2429 0188 3B       		.uleb128 0x3b
 2430 0189 05       		.uleb128 0x5
 2431 018a 49       		.uleb128 0x49
 2432 018b 13       		.uleb128 0x13
 2433 018c 02       		.uleb128 0x2
 2434 018d 0A       		.uleb128 0xa
 2435 018e 00       		.byte	0x0
 2436 018f 00       		.byte	0x0
 2437 0190 1F       		.uleb128 0x1f
 2438 0191 34       		.uleb128 0x34
 2439 0192 00       		.byte	0x0
 2440 0193 03       		.uleb128 0x3
 2441 0194 0E       		.uleb128 0xe
 2442 0195 3A       		.uleb128 0x3a
 2443 0196 0B       		.uleb128 0xb
 2444 0197 3B       		.uleb128 0x3b
 2445 0198 0B       		.uleb128 0xb
 2446 0199 49       		.uleb128 0x49
 2447 019a 13       		.uleb128 0x13
 2448 019b 3F       		.uleb128 0x3f
 2449 019c 0C       		.uleb128 0xc
 2450 019d 3C       		.uleb128 0x3c
 2451 019e 0C       		.uleb128 0xc
 2452 019f 00       		.byte	0x0
 2453 01a0 00       		.byte	0x0
 2454 01a1 20       		.uleb128 0x20
 2455 01a2 34       		.uleb128 0x34
 2456 01a3 00       		.byte	0x0
 2457 01a4 03       		.uleb128 0x3
 2458 01a5 0E       		.uleb128 0xe
 2459 01a6 3A       		.uleb128 0x3a
 2460 01a7 0B       		.uleb128 0xb
 2461 01a8 3B       		.uleb128 0x3b
 2462 01a9 0B       		.uleb128 0xb
 2463 01aa 49       		.uleb128 0x49
 2464 01ab 13       		.uleb128 0x13
 2465 01ac 3F       		.uleb128 0x3f
 2466 01ad 0C       		.uleb128 0xc
 2467 01ae 02       		.uleb128 0x2
 2468 01af 0A       		.uleb128 0xa
 2469 01b0 00       		.byte	0x0
 2470 01b1 00       		.byte	0x0
 2471 01b2 21       		.uleb128 0x21
 2472 01b3 34       		.uleb128 0x34
 2473 01b4 00       		.byte	0x0
 2474 01b5 03       		.uleb128 0x3
 2475 01b6 0E       		.uleb128 0xe
 2476 01b7 3A       		.uleb128 0x3a
ARM GAS  /tmp/ccOFofHC.s 			page 45


 2477 01b8 0B       		.uleb128 0xb
 2478 01b9 3B       		.uleb128 0x3b
 2479 01ba 05       		.uleb128 0x5
 2480 01bb 49       		.uleb128 0x49
 2481 01bc 13       		.uleb128 0x13
 2482 01bd 3F       		.uleb128 0x3f
 2483 01be 0C       		.uleb128 0xc
 2484 01bf 02       		.uleb128 0x2
 2485 01c0 0A       		.uleb128 0xa
 2486 01c1 00       		.byte	0x0
 2487 01c2 00       		.byte	0x0
 2488 01c3 00       		.byte	0x0
 2489              		.section	.debug_pubnames,"",%progbits
 2490 0000 80010000 		.4byte	0x180
 2491 0004 0200     		.2byte	0x2
 2492 0006 00000000 		.4byte	.Ldebug_info0
 2493 000a 13080000 		.4byte	0x813
 2494 000e A0050000 		.4byte	0x5a0
 2495 0012 6462675F 		.ascii	"dbg_check_disable\000"
 2495      63686563 
 2495      6B5F6469 
 2495      7361626C 
 2495      6500
 2496 0024 B5050000 		.4byte	0x5b5
 2497 0028 6462675F 		.ascii	"dbg_check_suspend\000"
 2497      63686563 
 2497      6B5F7375 
 2497      7370656E 
 2497      6400
 2498 003a CA050000 		.4byte	0x5ca
 2499 003e 6462675F 		.ascii	"dbg_check_enable\000"
 2499      63686563 
 2499      6B5F656E 
 2499      61626C65 
 2499      00
 2500 004f DF050000 		.4byte	0x5df
 2501 0053 6462675F 		.ascii	"dbg_check_lock\000"
 2501      63686563 
 2501      6B5F6C6F 
 2501      636B00
 2502 0062 F4050000 		.4byte	0x5f4
 2503 0066 6462675F 		.ascii	"dbg_check_unlock\000"
 2503      63686563 
 2503      6B5F756E 
 2503      6C6F636B 
 2503      00
 2504 0077 09060000 		.4byte	0x609
 2505 007b 6462675F 		.ascii	"dbg_check_lock_from_isr\000"
 2505      63686563 
 2505      6B5F6C6F 
 2505      636B5F66 
 2505      726F6D5F 
 2506 0093 1E060000 		.4byte	0x61e
 2507 0097 6462675F 		.ascii	"dbg_check_unlock_from_isr\000"
 2507      63686563 
 2507      6B5F756E 
 2507      6C6F636B 
ARM GAS  /tmp/ccOFofHC.s 			page 46


 2507      5F66726F 
 2508 00b1 33060000 		.4byte	0x633
 2509 00b5 6462675F 		.ascii	"dbg_check_enter_isr\000"
 2509      63686563 
 2509      6B5F656E 
 2509      7465725F 
 2509      69737200 
 2510 00c9 7F060000 		.4byte	0x67f
 2511 00cd 6462675F 		.ascii	"dbg_check_leave_isr\000"
 2511      63686563 
 2511      6B5F6C65 
 2511      6176655F 
 2511      69737200 
 2512 00e1 CB060000 		.4byte	0x6cb
 2513 00e5 63684462 		.ascii	"chDbgCheckClassI\000"
 2513      67436865 
 2513      636B436C 
 2513      61737349 
 2513      00
 2514 00f6 E0060000 		.4byte	0x6e0
 2515 00fa 63684462 		.ascii	"chDbgCheckClassS\000"
 2515      67436865 
 2515      636B436C 
 2515      61737353 
 2515      00
 2516 010b F5060000 		.4byte	0x6f5
 2517 010f 5F747261 		.ascii	"_trace_init\000"
 2517      63655F69 
 2517      6E697400 
 2518 011b 09070000 		.4byte	0x709
 2519 011f 6462675F 		.ascii	"dbg_trace\000"
 2519      74726163 
 2519      6500
 2520 0129 31070000 		.4byte	0x731
 2521 012d 63684462 		.ascii	"chDbgPanic\000"
 2521      6750616E 
 2521      696300
 2522 0138 C9070000 		.4byte	0x7c9
 2523 013c 6462675F 		.ascii	"dbg_trace_buffer\000"
 2523      74726163 
 2523      655F6275 
 2523      66666572 
 2523      00
 2524 014d DB070000 		.4byte	0x7db
 2525 0151 6462675F 		.ascii	"dbg_panic_msg\000"
 2525      70616E69 
 2525      635F6D73 
 2525      6700
 2526 015f EE070000 		.4byte	0x7ee
 2527 0163 6462675F 		.ascii	"dbg_isr_cnt\000"
 2527      6973725F 
 2527      636E7400 
 2528 016f 00080000 		.4byte	0x800
 2529 0173 6462675F 		.ascii	"dbg_lock_cnt\000"
 2529      6C6F636B 
 2529      5F636E74 
 2529      00
ARM GAS  /tmp/ccOFofHC.s 			page 47


 2530 0180 00000000 		.4byte	0x0
 2531              		.section	.debug_pubtypes,"",%progbits
 2532 0000 86010000 		.4byte	0x186
 2533 0004 0200     		.2byte	0x2
 2534 0006 00000000 		.4byte	.Ldebug_info0
 2535 000a 13080000 		.4byte	0x813
 2536 000e 3E000000 		.4byte	0x3e
 2537 0012 75696E74 		.ascii	"uint8_t\000"
 2537      385F7400 
 2538 001a 5E000000 		.4byte	0x5e
 2539 001e 696E7433 		.ascii	"int32_t\000"
 2539      325F7400 
 2540 0026 70000000 		.4byte	0x70
 2541 002a 75696E74 		.ascii	"uint32_t\000"
 2541      33325F74 
 2541      00
 2542 0033 89000000 		.4byte	0x89
 2543 0037 75696E74 		.ascii	"uint64_t\000"
 2543      36345F74 
 2543      00
 2544 0040 9B000000 		.4byte	0x9b
 2545 0044 746D6F64 		.ascii	"tmode_t\000"
 2545      655F7400 
 2546 004c A6000000 		.4byte	0xa6
 2547 0050 74737461 		.ascii	"tstate_t\000"
 2547      74655F74 
 2547      00
 2548 0059 B1000000 		.4byte	0xb1
 2549 005d 74707269 		.ascii	"tprio_t\000"
 2549      6F5F7400 
 2550 0065 BC000000 		.4byte	0xbc
 2551 0069 6D73675F 		.ascii	"msg_t\000"
 2551      7400
 2552 006f C7000000 		.4byte	0xc7
 2553 0073 6576656E 		.ascii	"eventmask_t\000"
 2553      746D6173 
 2553      6B5F7400 
 2554 007f D2000000 		.4byte	0xd2
 2555 0083 73797374 		.ascii	"systime_t\000"
 2555      696D655F 
 2555      7400
 2556 008d DD000000 		.4byte	0xdd
 2557 0091 636E745F 		.ascii	"cnt_t\000"
 2557      7400
 2558 0097 E8000000 		.4byte	0xe8
 2559 009b 54687265 		.ascii	"Thread\000"
 2559      616400
 2560 00a2 27020000 		.4byte	0x227
 2561 00a6 54687265 		.ascii	"ThreadsQueue\000"
 2561      61647351 
 2561      75657565 
 2561      00
 2562 00b3 49020000 		.4byte	0x249
 2563 00b7 54687265 		.ascii	"ThreadsList\000"
 2563      6164734C 
 2563      69737400 
 2564 00c3 54020000 		.4byte	0x254
ARM GAS  /tmp/ccOFofHC.s 			page 48


 2565 00c7 72656761 		.ascii	"regarm_t\000"
 2565      726D5F74 
 2565      00
 2566 00d0 61020000 		.4byte	0x261
 2567 00d4 73746B61 		.ascii	"stkalign_t\000"
 2567      6C69676E 
 2567      5F7400
 2568 00df 6C020000 		.4byte	0x26c
 2569 00e3 696E7463 		.ascii	"intctx\000"
 2569      747800
 2570 00ea F9020000 		.4byte	0x2f9
 2571 00ee 636F6E74 		.ascii	"context\000"
 2571      65787400 
 2572 00f6 1C030000 		.4byte	0x31c
 2573 00fa 76746675 		.ascii	"vtfunc_t\000"
 2573      6E635F74 
 2573      00
 2574 0103 39030000 		.4byte	0x339
 2575 0107 56697274 		.ascii	"VirtualTimer\000"
 2575      75616C54 
 2575      696D6572 
 2575      00
 2576 0114 44030000 		.4byte	0x344
 2577 0118 56697274 		.ascii	"VirtualTimer\000"
 2577      75616C54 
 2577      696D6572 
 2577      00
 2578 0125 E3030000 		.4byte	0x3e3
 2579 0129 56544C69 		.ascii	"VTList\000"
 2579      737400
 2580 0130 59040000 		.4byte	0x459
 2581 0134 52656164 		.ascii	"ReadyList\000"
 2581      794C6973 
 2581      7400
 2582 013e 64040000 		.4byte	0x464
 2583 0142 4D757465 		.ascii	"Mutex\000"
 2583      7800
 2584 0148 A1040000 		.4byte	0x4a1
 2585 014c 4D757465 		.ascii	"Mutex\000"
 2585      7800
 2586 0152 F3000000 		.4byte	0xf3
 2587 0156 54687265 		.ascii	"Thread\000"
 2587      616400
 2588 015d 40050000 		.4byte	0x540
 2589 0161 63685F73 		.ascii	"ch_swc_event_t\000"
 2589      77635F65 
 2589      76656E74 
 2589      5F7400
 2590 0170 95050000 		.4byte	0x595
 2591 0174 63685F74 		.ascii	"ch_trace_buffer_t\000"
 2591      72616365 
 2591      5F627566 
 2591      6665725F 
 2591      7400
 2592 0186 00000000 		.4byte	0x0
 2593              		.section	.debug_aranges,"",%progbits
 2594 0000 84000000 		.4byte	0x84
ARM GAS  /tmp/ccOFofHC.s 			page 49


 2595 0004 0200     		.2byte	0x2
 2596 0006 00000000 		.4byte	.Ldebug_info0
 2597 000a 04       		.byte	0x4
 2598 000b 00       		.byte	0x0
 2599 000c 0000     		.2byte	0x0
 2600 000e 0000     		.2byte	0x0
 2601 0010 00000000 		.4byte	.LFB7
 2602 0014 28000000 		.4byte	.LFE7-.LFB7
 2603 0018 00000000 		.4byte	.LFB8
 2604 001c 28000000 		.4byte	.LFE8-.LFB8
 2605 0020 00000000 		.4byte	.LFB9
 2606 0024 28000000 		.4byte	.LFE9-.LFB9
 2607 0028 00000000 		.4byte	.LFB10
 2608 002c 30000000 		.4byte	.LFE10-.LFB10
 2609 0030 00000000 		.4byte	.LFB11
 2610 0034 30000000 		.4byte	.LFE11-.LFB11
 2611 0038 00000000 		.4byte	.LFB12
 2612 003c 30000000 		.4byte	.LFE12-.LFB12
 2613 0040 00000000 		.4byte	.LFB13
 2614 0044 30000000 		.4byte	.LFE13-.LFB13
 2615 0048 00000000 		.4byte	.LFB14
 2616 004c 44000000 		.4byte	.LFE14-.LFB14
 2617 0050 00000000 		.4byte	.LFB15
 2618 0054 44000000 		.4byte	.LFE15-.LFB15
 2619 0058 00000000 		.4byte	.LFB16
 2620 005c 28000000 		.4byte	.LFE16-.LFB16
 2621 0060 00000000 		.4byte	.LFB17
 2622 0064 28000000 		.4byte	.LFE17-.LFB17
 2623 0068 00000000 		.4byte	.LFB18
 2624 006c 18000000 		.4byte	.LFE18-.LFB18
 2625 0070 00000000 		.4byte	.LFB19
 2626 0074 64000000 		.4byte	.LFE19-.LFB19
 2627 0078 00000000 		.4byte	.LFB20
 2628 007c 18000000 		.4byte	.LFE20-.LFB20
 2629 0080 00000000 		.4byte	0x0
 2630 0084 00000000 		.4byte	0x0
 2631              		.section	.debug_ranges,"",%progbits
 2632              	.Ldebug_ranges0:
 2633 0000 00000000 		.4byte	.LFB7
 2634 0004 28000000 		.4byte	.LFE7
 2635 0008 00000000 		.4byte	.LFB8
 2636 000c 28000000 		.4byte	.LFE8
 2637 0010 00000000 		.4byte	.LFB9
 2638 0014 28000000 		.4byte	.LFE9
 2639 0018 00000000 		.4byte	.LFB10
 2640 001c 30000000 		.4byte	.LFE10
 2641 0020 00000000 		.4byte	.LFB11
 2642 0024 30000000 		.4byte	.LFE11
 2643 0028 00000000 		.4byte	.LFB12
 2644 002c 30000000 		.4byte	.LFE12
 2645 0030 00000000 		.4byte	.LFB13
 2646 0034 30000000 		.4byte	.LFE13
 2647 0038 00000000 		.4byte	.LFB14
 2648 003c 44000000 		.4byte	.LFE14
 2649 0040 00000000 		.4byte	.LFB15
 2650 0044 44000000 		.4byte	.LFE15
 2651 0048 00000000 		.4byte	.LFB16
ARM GAS  /tmp/ccOFofHC.s 			page 50


 2652 004c 28000000 		.4byte	.LFE16
 2653 0050 00000000 		.4byte	.LFB17
 2654 0054 28000000 		.4byte	.LFE17
 2655 0058 00000000 		.4byte	.LFB18
 2656 005c 18000000 		.4byte	.LFE18
 2657 0060 00000000 		.4byte	.LFB19
 2658 0064 64000000 		.4byte	.LFE19
 2659 0068 00000000 		.4byte	.LFB20
 2660 006c 18000000 		.4byte	.LFE20
 2661 0070 00000000 		.4byte	0x0
 2662 0074 00000000 		.4byte	0x0
 2663              		.section	.debug_str,"MS",%progbits,1
 2664              	.LASF34:
 2665 0000 705F6D73 		.ascii	"p_msg\000"
 2665      6700
 2666              	.LASF92:
 2667 0006 63684462 		.ascii	"chDbgPanic\000"
 2667      6750616E 
 2667      696300
 2668              	.LASF65:
 2669 0011 7264796D 		.ascii	"rdymsg\000"
 2669      736700
 2670              	.LASF11:
 2671 0018 75696E74 		.ascii	"uint64_t\000"
 2671      36345F74 
 2671      00
 2672              	.LASF93:
 2673 0021 76746C69 		.ascii	"vtlist\000"
 2673      737400
 2674              	.LASF12:
 2675 0028 6C6F6E67 		.ascii	"long long unsigned int\000"
 2675      206C6F6E 
 2675      6720756E 
 2675      7369676E 
 2675      65642069 
 2676              	.LASF78:
 2677 003f 63685F74 		.ascii	"ch_trace_buffer_t\000"
 2677      72616365 
 2677      5F627566 
 2677      6665725F 
 2677      7400
 2678              	.LASF73:
 2679 0051 73655F73 		.ascii	"se_state\000"
 2679      74617465 
 2679      00
 2680              	.LASF66:
 2681 005a 65786974 		.ascii	"exitcode\000"
 2681      636F6465 
 2681      00
 2682              	.LASF100:
 2683 0063 2E2E2F63 		.ascii	"../chibios_2.4.x/os/kernel/src/chdebug.c\000"
 2683      68696269 
 2683      6F735F32 
 2683      2E342E78 
 2683      2F6F732F 
 2684              	.LASF10:
 2685 008c 6C6F6E67 		.ascii	"long long int\000"
ARM GAS  /tmp/ccOFofHC.s 			page 51


 2685      206C6F6E 
 2685      6720696E 
 2685      7400
 2686              	.LASF1:
 2687 009a 7369676E 		.ascii	"signed char\000"
 2687      65642063 
 2687      68617200 
 2688              	.LASF85:
 2689 00a6 6462675F 		.ascii	"dbg_check_unlock_from_isr\000"
 2689      63686563 
 2689      6B5F756E 
 2689      6C6F636B 
 2689      5F66726F 
 2690              	.LASF62:
 2691 00c0 6D5F7175 		.ascii	"m_queue\000"
 2691      65756500 
 2692              	.LASF7:
 2693 00c8 6C6F6E67 		.ascii	"long int\000"
 2693      20696E74 
 2693      00
 2694              	.LASF14:
 2695 00d1 74737461 		.ascii	"tstate_t\000"
 2695      74655F74 
 2695      00
 2696              	.LASF71:
 2697 00da 73655F74 		.ascii	"se_tp\000"
 2697      7000
 2698              	.LASF25:
 2699 00e0 705F6E65 		.ascii	"p_newer\000"
 2699      77657200 
 2700              	.LASF75:
 2701 00e8 74625F73 		.ascii	"tb_size\000"
 2701      697A6500 
 2702              	.LASF56:
 2703 00f0 725F6E65 		.ascii	"r_newer\000"
 2703      77657200 
 2704              	.LASF40:
 2705 00f8 72656761 		.ascii	"regarm_t\000"
 2705      726D5F74 
 2705      00
 2706              	.LASF47:
 2707 0101 76745F70 		.ascii	"vt_prev\000"
 2707      72657600 
 2708              	.LASF19:
 2709 0109 636E745F 		.ascii	"cnt_t\000"
 2709      7400
 2710              	.LASF28:
 2711 010f 705F7374 		.ascii	"p_stklimit\000"
 2711      6B6C696D 
 2711      697400
 2712              	.LASF0:
 2713 011a 756E7369 		.ascii	"unsigned int\000"
 2713      676E6564 
 2713      20696E74 
 2713      00
 2714              	.LASF46:
 2715 0127 76745F6E 		.ascii	"vt_next\000"
ARM GAS  /tmp/ccOFofHC.s 			page 52


 2715      65787400 
 2716              	.LASF91:
 2717 012f 6462675F 		.ascii	"dbg_trace\000"
 2717      74726163 
 2717      6500
 2718              	.LASF9:
 2719 0139 6C6F6E67 		.ascii	"long unsigned int\000"
 2719      20756E73 
 2719      69676E65 
 2719      6420696E 
 2719      7400
 2720              	.LASF80:
 2721 014b 6462675F 		.ascii	"dbg_check_suspend\000"
 2721      63686563 
 2721      6B5F7375 
 2721      7370656E 
 2721      6400
 2722              	.LASF43:
 2723 015d 636F6E74 		.ascii	"context\000"
 2723      65787400 
 2724              	.LASF4:
 2725 0165 73686F72 		.ascii	"short unsigned int\000"
 2725      7420756E 
 2725      7369676E 
 2725      65642069 
 2725      6E7400
 2726              	.LASF90:
 2727 0178 5F747261 		.ascii	"_trace_init\000"
 2727      63655F69 
 2727      6E697400 
 2728              	.LASF16:
 2729 0184 6D73675F 		.ascii	"msg_t\000"
 2729      7400
 2730              	.LASF88:
 2731 018a 63684462 		.ascii	"chDbgCheckClassI\000"
 2731      67436865 
 2731      636B436C 
 2731      61737349 
 2731      00
 2732              	.LASF13:
 2733 019b 746D6F64 		.ascii	"tmode_t\000"
 2733      655F7400 
 2734              	.LASF97:
 2735 01a3 6462675F 		.ascii	"dbg_isr_cnt\000"
 2735      6973725F 
 2735      636E7400 
 2736              	.LASF89:
 2737 01af 63684462 		.ascii	"chDbgCheckClassS\000"
 2737      67436865 
 2737      636B436C 
 2737      61737353 
 2737      00
 2738              	.LASF39:
 2739 01c0 54687265 		.ascii	"ThreadsList\000"
 2739      6164734C 
 2739      69737400 
 2740              	.LASF17:
ARM GAS  /tmp/ccOFofHC.s 			page 53


 2741 01cc 6576656E 		.ascii	"eventmask_t\000"
 2741      746D6173 
 2741      6B5F7400 
 2742              	.LASF61:
 2743 01d8 4D757465 		.ascii	"Mutex\000"
 2743      7800
 2744              	.LASF41:
 2745 01de 73746B61 		.ascii	"stkalign_t\000"
 2745      6C69676E 
 2745      5F7400
 2746              	.LASF48:
 2747 01e9 76745F74 		.ascii	"vt_time\000"
 2747      696D6500 
 2748              	.LASF76:
 2749 01f1 74625F70 		.ascii	"tb_ptr\000"
 2749      747200
 2750              	.LASF49:
 2751 01f8 76745F66 		.ascii	"vt_func\000"
 2751      756E6300 
 2752              	.LASF82:
 2753 0200 6462675F 		.ascii	"dbg_check_lock\000"
 2753      63686563 
 2753      6B5F6C6F 
 2753      636B00
 2754              	.LASF23:
 2755 020f 705F7072 		.ascii	"p_prio\000"
 2755      696F00
 2756              	.LASF74:
 2757 0216 63685F73 		.ascii	"ch_swc_event_t\000"
 2757      77635F65 
 2757      76656E74 
 2757      5F7400
 2758              	.LASF26:
 2759 0225 705F6F6C 		.ascii	"p_older\000"
 2759      64657200 
 2760              	.LASF55:
 2761 022d 725F6374 		.ascii	"r_ctx\000"
 2761      7800
 2762              	.LASF38:
 2763 0233 54687265 		.ascii	"ThreadsQueue\000"
 2763      61647351 
 2763      75657565 
 2763      00
 2764              	.LASF59:
 2765 0240 725F6375 		.ascii	"r_current\000"
 2765      7272656E 
 2765      7400
 2766              	.LASF57:
 2767 024a 725F6F6C 		.ascii	"r_older\000"
 2767      64657200 
 2768              	.LASF83:
 2769 0252 6462675F 		.ascii	"dbg_check_unlock\000"
 2769      63686563 
 2769      6B5F756E 
 2769      6C6F636B 
 2769      00
 2770              	.LASF95:
ARM GAS  /tmp/ccOFofHC.s 			page 54


 2771 0263 6462675F 		.ascii	"dbg_trace_buffer\000"
 2771      74726163 
 2771      655F6275 
 2771      66666572 
 2771      00
 2772              	.LASF70:
 2773 0274 73655F74 		.ascii	"se_time\000"
 2773      696D6500 
 2774              	.LASF77:
 2775 027c 74625F62 		.ascii	"tb_buffer\000"
 2775      75666665 
 2775      7200
 2776              	.LASF22:
 2777 0286 705F7072 		.ascii	"p_prev\000"
 2777      657600
 2778              	.LASF15:
 2779 028d 74707269 		.ascii	"tprio_t\000"
 2779      6F5F7400 
 2780              	.LASF6:
 2781 0295 696E7433 		.ascii	"int32_t\000"
 2781      325F7400 
 2782              	.LASF2:
 2783 029d 756E7369 		.ascii	"unsigned char\000"
 2783      676E6564 
 2783      20636861 
 2783      7200
 2784              	.LASF96:
 2785 02ab 6462675F 		.ascii	"dbg_panic_msg\000"
 2785      70616E69 
 2785      635F6D73 
 2785      6700
 2786              	.LASF36:
 2787 02b9 705F6D74 		.ascii	"p_mtxlist\000"
 2787      786C6973 
 2787      7400
 2788              	.LASF3:
 2789 02c3 73686F72 		.ascii	"short int\000"
 2789      7420696E 
 2789      7400
 2790              	.LASF29:
 2791 02cd 705F7374 		.ascii	"p_state\000"
 2791      61746500 
 2792              	.LASF54:
 2793 02d5 725F7072 		.ascii	"r_prio\000"
 2793      696F00
 2794              	.LASF68:
 2795 02dc 65776D61 		.ascii	"ewmask\000"
 2795      736B00
 2796              	.LASF21:
 2797 02e3 705F6E65 		.ascii	"p_next\000"
 2797      787400
 2798              	.LASF30:
 2799 02ea 705F666C 		.ascii	"p_flags\000"
 2799      61677300 
 2800              	.LASF20:
 2801 02f2 54687265 		.ascii	"Thread\000"
 2801      616400
ARM GAS  /tmp/ccOFofHC.s 			page 55


 2802              	.LASF35:
 2803 02f9 705F6570 		.ascii	"p_epending\000"
 2803      656E6469 
 2803      6E6700
 2804              	.LASF8:
 2805 0304 75696E74 		.ascii	"uint32_t\000"
 2805      33325F74 
 2805      00
 2806              	.LASF53:
 2807 030d 725F7175 		.ascii	"r_queue\000"
 2807      65756500 
 2808              	.LASF45:
 2809 0315 56697274 		.ascii	"VirtualTimer\000"
 2809      75616C54 
 2809      696D6572 
 2809      00
 2810              	.LASF69:
 2811 0322 63686172 		.ascii	"char\000"
 2811      00
 2812              	.LASF64:
 2813 0327 6D5F6E65 		.ascii	"m_next\000"
 2813      787400
 2814              	.LASF18:
 2815 032e 73797374 		.ascii	"systime_t\000"
 2815      696D655F 
 2815      7400
 2816              	.LASF37:
 2817 0338 705F7265 		.ascii	"p_realprio\000"
 2817      616C7072 
 2817      696F00
 2818              	.LASF44:
 2819 0343 76746675 		.ascii	"vtfunc_t\000"
 2819      6E635F74 
 2819      00
 2820              	.LASF98:
 2821 034c 6462675F 		.ascii	"dbg_lock_cnt\000"
 2821      6C6F636B 
 2821      5F636E74 
 2821      00
 2822              	.LASF31:
 2823 0359 705F7469 		.ascii	"p_time\000"
 2823      6D6500
 2824              	.LASF87:
 2825 0360 6462675F 		.ascii	"dbg_check_leave_isr\000"
 2825      63686563 
 2825      6B5F6C65 
 2825      6176655F 
 2825      69737200 
 2826              	.LASF42:
 2827 0374 696E7463 		.ascii	"intctx\000"
 2827      747800
 2828              	.LASF33:
 2829 037b 705F6D73 		.ascii	"p_msgqueue\000"
 2829      67717565 
 2829      756500
 2830              	.LASF81:
 2831 0386 6462675F 		.ascii	"dbg_check_enable\000"
ARM GAS  /tmp/ccOFofHC.s 			page 56


 2831      63686563 
 2831      6B5F656E 
 2831      61626C65 
 2831      00
 2832              	.LASF50:
 2833 0397 76745F70 		.ascii	"vt_par\000"
 2833      617200
 2834              	.LASF60:
 2835 039e 52656164 		.ascii	"ReadyList\000"
 2835      794C6973 
 2835      7400
 2836              	.LASF101:
 2837 03a8 2F686F6D 		.ascii	"/home/z80/projects/voltamper.git/firmware/voltamp\000"
 2837      652F7A38 
 2837      302F7072 
 2837      6F6A6563 
 2837      74732F76 
 2838              	.LASF86:
 2839 03da 6462675F 		.ascii	"dbg_check_enter_isr\000"
 2839      63686563 
 2839      6B5F656E 
 2839      7465725F 
 2839      69737200 
 2840              	.LASF94:
 2841 03ee 726C6973 		.ascii	"rlist\000"
 2841      7400
 2842              	.LASF5:
 2843 03f4 75696E74 		.ascii	"uint8_t\000"
 2843      385F7400 
 2844              	.LASF84:
 2845 03fc 6462675F 		.ascii	"dbg_check_lock_from_isr\000"
 2845      63686563 
 2845      6B5F6C6F 
 2845      636B5F66 
 2845      726F6D5F 
 2846              	.LASF67:
 2847 0414 77746F62 		.ascii	"wtobjp\000"
 2847      6A7000
 2848              	.LASF99:
 2849 041b 474E5520 		.ascii	"GNU C 4.5.2\000"
 2849      4320342E 
 2849      352E3200 
 2850              	.LASF27:
 2851 0427 705F6E61 		.ascii	"p_name\000"
 2851      6D6500
 2852              	.LASF51:
 2853 042e 76745F73 		.ascii	"vt_systime\000"
 2853      79737469 
 2853      6D6500
 2854              	.LASF52:
 2855 0439 56544C69 		.ascii	"VTList\000"
 2855      737400
 2856              	.LASF58:
 2857 0440 725F7072 		.ascii	"r_preempt\000"
 2857      65656D70 
 2857      7400
 2858              	.LASF79:
ARM GAS  /tmp/ccOFofHC.s 			page 57


 2859 044a 6462675F 		.ascii	"dbg_check_disable\000"
 2859      63686563 
 2859      6B5F6469 
 2859      7361626C 
 2859      6500
 2860              	.LASF63:
 2861 045c 6D5F6F77 		.ascii	"m_owner\000"
 2861      6E657200 
 2862              	.LASF72:
 2863 0464 73655F77 		.ascii	"se_wtobjp\000"
 2863      746F626A 
 2863      7000
 2864              	.LASF24:
 2865 046e 705F6374 		.ascii	"p_ctx\000"
 2865      7800
 2866              	.LASF32:
 2867 0474 705F7761 		.ascii	"p_waiting\000"
 2867      6974696E 
 2867      6700
 2868              		.ident	"GCC: (Sourcery G++ Lite 2011.03-42) 4.5.2"
ARM GAS  /tmp/ccOFofHC.s 			page 58


DEFINED SYMBOLS
                            *ABS*:00000000 chdebug.c
     /tmp/ccOFofHC.s:28     .bss.dbg_isr_cnt:00000000 dbg_isr_cnt
     /tmp/ccOFofHC.s:25     .bss.dbg_isr_cnt:00000000 $d
     /tmp/ccOFofHC.s:35     .bss.dbg_lock_cnt:00000000 dbg_lock_cnt
     /tmp/ccOFofHC.s:32     .bss.dbg_lock_cnt:00000000 $d
     /tmp/ccOFofHC.s:38     .rodata:00000000 $d
     /tmp/ccOFofHC.s:42     .text.dbg_check_disable:00000000 $t
     /tmp/ccOFofHC.s:48     .text.dbg_check_disable:00000000 dbg_check_disable
     /tmp/ccOFofHC.s:753    .text.chDbgPanic:00000000 chDbgPanic
     /tmp/ccOFofHC.s:80     .text.dbg_check_disable:0000001c $d
     /tmp/ccOFofHC.s:91     .text.dbg_check_suspend:00000000 $t
     /tmp/ccOFofHC.s:97     .text.dbg_check_suspend:00000000 dbg_check_suspend
     /tmp/ccOFofHC.s:128    .text.dbg_check_suspend:0000001c $d
     /tmp/ccOFofHC.s:139    .text.dbg_check_enable:00000000 $t
     /tmp/ccOFofHC.s:145    .text.dbg_check_enable:00000000 dbg_check_enable
     /tmp/ccOFofHC.s:176    .text.dbg_check_enable:0000001c $d
     /tmp/ccOFofHC.s:187    .text.dbg_check_lock:00000000 $t
     /tmp/ccOFofHC.s:193    .text.dbg_check_lock:00000000 dbg_check_lock
     /tmp/ccOFofHC.s:228    .text.dbg_check_lock:00000024 $d
     /tmp/ccOFofHC.s:239    .text.dbg_check_unlock:00000000 $t
     /tmp/ccOFofHC.s:245    .text.dbg_check_unlock:00000000 dbg_check_unlock
     /tmp/ccOFofHC.s:280    .text.dbg_check_unlock:00000024 $d
     /tmp/ccOFofHC.s:291    .text.dbg_check_lock_from_isr:00000000 $t
     /tmp/ccOFofHC.s:297    .text.dbg_check_lock_from_isr:00000000 dbg_check_lock_from_isr
     /tmp/ccOFofHC.s:332    .text.dbg_check_lock_from_isr:00000024 $d
     /tmp/ccOFofHC.s:343    .text.dbg_check_unlock_from_isr:00000000 $t
     /tmp/ccOFofHC.s:349    .text.dbg_check_unlock_from_isr:00000000 dbg_check_unlock_from_isr
     /tmp/ccOFofHC.s:384    .text.dbg_check_unlock_from_isr:00000024 $d
     /tmp/ccOFofHC.s:395    .text.dbg_check_enter_isr:00000000 $t
     /tmp/ccOFofHC.s:401    .text.dbg_check_enter_isr:00000000 dbg_check_enter_isr
     /tmp/ccOFofHC.s:454    .text.dbg_check_enter_isr:00000038 $d
     /tmp/ccOFofHC.s:465    .text.dbg_check_leave_isr:00000000 $t
     /tmp/ccOFofHC.s:471    .text.dbg_check_leave_isr:00000000 dbg_check_leave_isr
     /tmp/ccOFofHC.s:524    .text.dbg_check_leave_isr:00000038 $d
     /tmp/ccOFofHC.s:535    .text.chDbgCheckClassI:00000000 $t
     /tmp/ccOFofHC.s:541    .text.chDbgCheckClassI:00000000 chDbgCheckClassI
     /tmp/ccOFofHC.s:572    .text.chDbgCheckClassI:0000001c $d
     /tmp/ccOFofHC.s:583    .text.chDbgCheckClassS:00000000 $t
     /tmp/ccOFofHC.s:589    .text.chDbgCheckClassS:00000000 chDbgCheckClassS
     /tmp/ccOFofHC.s:620    .text.chDbgCheckClassS:0000001c $d
     /tmp/ccOFofHC.s:631    .bss.dbg_trace_buffer:00000000 dbg_trace_buffer
     /tmp/ccOFofHC.s:628    .bss.dbg_trace_buffer:00000000 $d
     /tmp/ccOFofHC.s:634    .text._trace_init:00000000 $t
     /tmp/ccOFofHC.s:640    .text._trace_init:00000000 _trace_init
     /tmp/ccOFofHC.s:660    .text._trace_init:00000010 $d
     /tmp/ccOFofHC.s:666    .text.dbg_trace:00000000 $t
     /tmp/ccOFofHC.s:672    .text.dbg_trace:00000000 dbg_trace
     /tmp/ccOFofHC.s:731    .text.dbg_trace:00000050 $d
     /tmp/ccOFofHC.s:744    .bss.dbg_panic_msg:00000000 dbg_panic_msg
     /tmp/ccOFofHC.s:741    .bss.dbg_panic_msg:00000000 $d
     /tmp/ccOFofHC.s:747    .text.chDbgPanic:00000000 $t
     /tmp/ccOFofHC.s:779    .text.chDbgPanic:00000014 $d
                     .debug_frame:00000010 $d
     /tmp/ccOFofHC.s:86     .text.dbg_check_disable:00000028 $t
     /tmp/ccOFofHC.s:134    .text.dbg_check_suspend:00000028 $t
     /tmp/ccOFofHC.s:182    .text.dbg_check_enable:00000028 $t
ARM GAS  /tmp/ccOFofHC.s 			page 59


     /tmp/ccOFofHC.s:460    .text.dbg_check_enter_isr:00000044 $t
     /tmp/ccOFofHC.s:530    .text.dbg_check_leave_isr:00000044 $t
     /tmp/ccOFofHC.s:578    .text.chDbgCheckClassI:00000028 $t
     /tmp/ccOFofHC.s:627    .text.chDbgCheckClassS:00000028 $t
     /tmp/ccOFofHC.s:665    .text._trace_init:00000018 $t
     /tmp/ccOFofHC.s:740    .text.dbg_trace:00000064 $t
     /tmp/ccOFofHC.s:783    .text.chDbgPanic:00000018 $t

UNDEFINED SYMBOLS
vtlist
rlist
port_halt
