ARM GAS  C:\Users\z80\AppData\Local\Temp\ccIabawO.s 			page 1


   1              		.syntax unified
   2              		.cpu cortex-m3
   3              		.fpu softvfp
   4              		.eabi_attribute 20, 1
   5              		.eabi_attribute 21, 1
   6              		.eabi_attribute 23, 3
   7              		.eabi_attribute 24, 1
   8              		.eabi_attribute 25, 1
   9              		.eabi_attribute 26, 1
  10              		.eabi_attribute 30, 6
  11              		.eabi_attribute 18, 4
  12              		.thumb
  13              		.file	"chdebug.c"
  14              		.section	.debug_abbrev,"",%progbits
  15              	.Ldebug_abbrev0:
  16              		.section	.debug_info,"",%progbits
  17              	.Ldebug_info0:
  18              		.section	.debug_line,"",%progbits
  19              	.Ldebug_line0:
  20 0000 A4020000 		.text
  20      02003601 
  20      00000201 
  20      FB0E0D00 
  20      01010101 
  21              	.Ltext0:
  22              		.cfi_sections	.debug_frame
  23              		.global	dbg_isr_cnt
  24              		.section	.bss.dbg_isr_cnt,"aw",%nobits
  25              		.align	2
  26              		.type	dbg_isr_cnt, %object
  27              		.size	dbg_isr_cnt, 4
  28              	dbg_isr_cnt:
  29 0000 00000000 		.space	4
  30              		.global	dbg_lock_cnt
  31              		.section	.bss.dbg_lock_cnt,"aw",%nobits
  32              		.align	2
  33              		.type	dbg_lock_cnt, %object
  34              		.size	dbg_lock_cnt, 4
  35              	dbg_lock_cnt:
  36 0000 00000000 		.space	4
  37              		.section	.rodata
  38              		.align	2
  39              	.LC0:
  40 0000 53562331 		.ascii	"SV#1\000"
  40      00
  41              		.section	.text.dbg_check_disable,"ax",%progbits
  42              		.align	2
  43              		.p2align 4,,15
  44              		.global	dbg_check_disable
  45              		.thumb
  46              		.thumb_func
  47              		.type	dbg_check_disable, %function
  48              	dbg_check_disable:
  49              	.LFB7:
  50              		.file 1 "../chibios_2.4.x/os/kernel/src/chdebug.c"
  51              		.loc 1 81 0
  52              		.cfi_startproc
ARM GAS  C:\Users\z80\AppData\Local\Temp\ccIabawO.s 			page 2


  53              		@ args = 0, pretend = 0, frame = 0
  54              		@ frame_needed = 0, uses_anonymous_args = 0
  55 0000 08B5     		push	{r3, lr}
  56              	.LCFI0:
  57              		.cfi_def_cfa_offset 8
  58              		.loc 1 83 0
  59 0002 40F20003 		movw	r3, #:lower16:dbg_isr_cnt
  60              		.cfi_offset 14, -4
  61              		.cfi_offset 3, -8
  62 0006 C0F20003 		movt	r3, #:upper16:dbg_isr_cnt
  63 000a 1B68     		ldr	r3, [r3, #0]
  64 000c 002B     		cmp	r3, #0
  65 000e 06D1     		bne	.L2
  66              		.loc 1 83 0 is_stmt 0 discriminator 1
  67 0010 40F20003 		movw	r3, #:lower16:dbg_lock_cnt
  68 0014 C0F20003 		movt	r3, #:upper16:dbg_lock_cnt
  69 0018 1B68     		ldr	r3, [r3, #0]
  70 001a 002B     		cmp	r3, #0
  71 001c 05D0     		beq	.L1
  72              	.L2:
  73              		.loc 1 84 0 is_stmt 1
  74 001e 40F20000 		movw	r0, #:lower16:.LC0
  75 0022 C0F20000 		movt	r0, #:upper16:.LC0
  76 0026 FFF7FEFF 		bl	chDbgPanic
  77              	.L1:
  78              		.loc 1 85 0
  79 002a 08BD     		pop	{r3, pc}
  80              		.cfi_endproc
  81              	.LFE7:
  82              		.size	dbg_check_disable, .-dbg_check_disable
  83 002c AFF30080 		.section	.rodata
  84 0005 000000   		.align	2
  85              	.LC1:
  86 0008 53562332 		.ascii	"SV#2\000"
  86      00
  87              		.section	.text.dbg_check_suspend,"ax",%progbits
  88              		.align	2
  89              		.p2align 4,,15
  90              		.global	dbg_check_suspend
  91              		.thumb
  92              		.thumb_func
  93              		.type	dbg_check_suspend, %function
  94              	dbg_check_suspend:
  95              	.LFB8:
  96              		.loc 1 92 0
  97              		.cfi_startproc
  98              		@ args = 0, pretend = 0, frame = 0
  99              		@ frame_needed = 0, uses_anonymous_args = 0
 100 0000 08B5     		push	{r3, lr}
 101              	.LCFI1:
 102              		.cfi_def_cfa_offset 8
 103              		.loc 1 94 0
 104 0002 40F20003 		movw	r3, #:lower16:dbg_isr_cnt
 105              		.cfi_offset 14, -4
 106              		.cfi_offset 3, -8
 107 0006 C0F20003 		movt	r3, #:upper16:dbg_isr_cnt
 108 000a 1B68     		ldr	r3, [r3, #0]
ARM GAS  C:\Users\z80\AppData\Local\Temp\ccIabawO.s 			page 3


 109 000c 002B     		cmp	r3, #0
 110 000e 06D1     		bne	.L5
 111              		.loc 1 94 0 is_stmt 0 discriminator 1
 112 0010 40F20003 		movw	r3, #:lower16:dbg_lock_cnt
 113 0014 C0F20003 		movt	r3, #:upper16:dbg_lock_cnt
 114 0018 1B68     		ldr	r3, [r3, #0]
 115 001a 002B     		cmp	r3, #0
 116 001c 05D0     		beq	.L4
 117              	.L5:
 118              		.loc 1 95 0 is_stmt 1
 119 001e 40F20000 		movw	r0, #:lower16:.LC1
 120 0022 C0F20000 		movt	r0, #:upper16:.LC1
 121 0026 FFF7FEFF 		bl	chDbgPanic
 122              	.L4:
 123              		.loc 1 96 0
 124 002a 08BD     		pop	{r3, pc}
 125              		.cfi_endproc
 126              	.LFE8:
 127              		.size	dbg_check_suspend, .-dbg_check_suspend
 128 002c AFF30080 		.section	.rodata
 129 000d 000000   		.align	2
 130              	.LC2:
 131 0010 53562333 		.ascii	"SV#3\000"
 131      00
 132              		.section	.text.dbg_check_enable,"ax",%progbits
 133              		.align	2
 134              		.p2align 4,,15
 135              		.global	dbg_check_enable
 136              		.thumb
 137              		.thumb_func
 138              		.type	dbg_check_enable, %function
 139              	dbg_check_enable:
 140              	.LFB9:
 141              		.loc 1 103 0
 142              		.cfi_startproc
 143              		@ args = 0, pretend = 0, frame = 0
 144              		@ frame_needed = 0, uses_anonymous_args = 0
 145 0000 08B5     		push	{r3, lr}
 146              	.LCFI2:
 147              		.cfi_def_cfa_offset 8
 148              		.loc 1 105 0
 149 0002 40F20003 		movw	r3, #:lower16:dbg_isr_cnt
 150              		.cfi_offset 14, -4
 151              		.cfi_offset 3, -8
 152 0006 C0F20003 		movt	r3, #:upper16:dbg_isr_cnt
 153 000a 1B68     		ldr	r3, [r3, #0]
 154 000c 002B     		cmp	r3, #0
 155 000e 06D1     		bne	.L8
 156              		.loc 1 105 0 is_stmt 0 discriminator 1
 157 0010 40F20003 		movw	r3, #:lower16:dbg_lock_cnt
 158 0014 C0F20003 		movt	r3, #:upper16:dbg_lock_cnt
 159 0018 1B68     		ldr	r3, [r3, #0]
 160 001a 002B     		cmp	r3, #0
 161 001c 05D0     		beq	.L7
 162              	.L8:
 163              		.loc 1 106 0 is_stmt 1
 164 001e 40F20000 		movw	r0, #:lower16:.LC2
ARM GAS  C:\Users\z80\AppData\Local\Temp\ccIabawO.s 			page 4


 165 0022 C0F20000 		movt	r0, #:upper16:.LC2
 166 0026 FFF7FEFF 		bl	chDbgPanic
 167              	.L7:
 168              		.loc 1 107 0
 169 002a 08BD     		pop	{r3, pc}
 170              		.cfi_endproc
 171              	.LFE9:
 172              		.size	dbg_check_enable, .-dbg_check_enable
 173 002c AFF30080 		.section	.rodata
 174 0015 000000   		.align	2
 175              	.LC3:
 176 0018 53562334 		.ascii	"SV#4\000"
 176      00
 177              		.section	.text.dbg_check_lock,"ax",%progbits
 178              		.align	2
 179              		.p2align 4,,15
 180              		.global	dbg_check_lock
 181              		.thumb
 182              		.thumb_func
 183              		.type	dbg_check_lock, %function
 184              	dbg_check_lock:
 185              	.LFB10:
 186              		.loc 1 114 0
 187              		.cfi_startproc
 188              		@ args = 0, pretend = 0, frame = 0
 189              		@ frame_needed = 0, uses_anonymous_args = 0
 190 0000 08B5     		push	{r3, lr}
 191              	.LCFI3:
 192              		.cfi_def_cfa_offset 8
 193              		.loc 1 116 0
 194 0002 40F20003 		movw	r3, #:lower16:dbg_isr_cnt
 195              		.cfi_offset 14, -4
 196              		.cfi_offset 3, -8
 197 0006 C0F20003 		movt	r3, #:upper16:dbg_isr_cnt
 198 000a 1B68     		ldr	r3, [r3, #0]
 199 000c 002B     		cmp	r3, #0
 200 000e 06D1     		bne	.L11
 201              		.loc 1 116 0 is_stmt 0 discriminator 1
 202 0010 40F20003 		movw	r3, #:lower16:dbg_lock_cnt
 203 0014 C0F20003 		movt	r3, #:upper16:dbg_lock_cnt
 204 0018 1B68     		ldr	r3, [r3, #0]
 205 001a 002B     		cmp	r3, #0
 206 001c 05D0     		beq	.L12
 207              	.L11:
 208              		.loc 1 117 0 is_stmt 1
 209 001e 40F20000 		movw	r0, #:lower16:.LC3
 210 0022 C0F20000 		movt	r0, #:upper16:.LC3
 211 0026 FFF7FEFF 		bl	chDbgPanic
 212              	.L12:
 213              		.loc 1 118 0
 214 002a 40F20003 		movw	r3, #:lower16:dbg_lock_cnt
 215 002e C0F20003 		movt	r3, #:upper16:dbg_lock_cnt
 216 0032 4FF00102 		mov	r2, #1
 217 0036 1A60     		str	r2, [r3, #0]
 218              		.loc 1 119 0
 219 0038 08BD     		pop	{r3, pc}
 220              		.cfi_endproc
ARM GAS  C:\Users\z80\AppData\Local\Temp\ccIabawO.s 			page 5


 221              	.LFE10:
 222              		.size	dbg_check_lock, .-dbg_check_lock
 223 003a 00BFAFF3 		.section	.rodata
 223      0080
 224 001d 000000   		.align	2
 225              	.LC4:
 226 0020 53562335 		.ascii	"SV#5\000"
 226      00
 227              		.section	.text.dbg_check_unlock,"ax",%progbits
 228              		.align	2
 229              		.p2align 4,,15
 230              		.global	dbg_check_unlock
 231              		.thumb
 232              		.thumb_func
 233              		.type	dbg_check_unlock, %function
 234              	dbg_check_unlock:
 235              	.LFB11:
 236              		.loc 1 126 0
 237              		.cfi_startproc
 238              		@ args = 0, pretend = 0, frame = 0
 239              		@ frame_needed = 0, uses_anonymous_args = 0
 240 0000 08B5     		push	{r3, lr}
 241              	.LCFI4:
 242              		.cfi_def_cfa_offset 8
 243              		.loc 1 128 0
 244 0002 40F20003 		movw	r3, #:lower16:dbg_isr_cnt
 245              		.cfi_offset 14, -4
 246              		.cfi_offset 3, -8
 247 0006 C0F20003 		movt	r3, #:upper16:dbg_isr_cnt
 248 000a 1B68     		ldr	r3, [r3, #0]
 249 000c 002B     		cmp	r3, #0
 250 000e 06D1     		bne	.L14
 251              		.loc 1 128 0 is_stmt 0 discriminator 1
 252 0010 40F20003 		movw	r3, #:lower16:dbg_lock_cnt
 253 0014 C0F20003 		movt	r3, #:upper16:dbg_lock_cnt
 254 0018 1B68     		ldr	r3, [r3, #0]
 255 001a 002B     		cmp	r3, #0
 256 001c 05DC     		bgt	.L15
 257              	.L14:
 258              		.loc 1 129 0 is_stmt 1
 259 001e 40F20000 		movw	r0, #:lower16:.LC4
 260 0022 C0F20000 		movt	r0, #:upper16:.LC4
 261 0026 FFF7FEFF 		bl	chDbgPanic
 262              	.L15:
 263              		.loc 1 130 0
 264 002a 40F20003 		movw	r3, #:lower16:dbg_lock_cnt
 265 002e C0F20003 		movt	r3, #:upper16:dbg_lock_cnt
 266 0032 4FF00002 		mov	r2, #0
 267 0036 1A60     		str	r2, [r3, #0]
 268              		.loc 1 131 0
 269 0038 08BD     		pop	{r3, pc}
 270              		.cfi_endproc
 271              	.LFE11:
 272              		.size	dbg_check_unlock, .-dbg_check_unlock
 273 003a 00BFAFF3 		.section	.rodata
 273      0080
 274 0025 000000   		.align	2
ARM GAS  C:\Users\z80\AppData\Local\Temp\ccIabawO.s 			page 6


 275              	.LC5:
 276 0028 53562336 		.ascii	"SV#6\000"
 276      00
 277              		.section	.text.dbg_check_lock_from_isr,"ax",%progbits
 278              		.align	2
 279              		.p2align 4,,15
 280              		.global	dbg_check_lock_from_isr
 281              		.thumb
 282              		.thumb_func
 283              		.type	dbg_check_lock_from_isr, %function
 284              	dbg_check_lock_from_isr:
 285              	.LFB12:
 286              		.loc 1 138 0
 287              		.cfi_startproc
 288              		@ args = 0, pretend = 0, frame = 0
 289              		@ frame_needed = 0, uses_anonymous_args = 0
 290 0000 08B5     		push	{r3, lr}
 291              	.LCFI5:
 292              		.cfi_def_cfa_offset 8
 293              		.loc 1 140 0
 294 0002 40F20003 		movw	r3, #:lower16:dbg_isr_cnt
 295              		.cfi_offset 14, -4
 296              		.cfi_offset 3, -8
 297 0006 C0F20003 		movt	r3, #:upper16:dbg_isr_cnt
 298 000a 1B68     		ldr	r3, [r3, #0]
 299 000c 002B     		cmp	r3, #0
 300 000e 06DD     		ble	.L17
 301              		.loc 1 140 0 is_stmt 0 discriminator 1
 302 0010 40F20003 		movw	r3, #:lower16:dbg_lock_cnt
 303 0014 C0F20003 		movt	r3, #:upper16:dbg_lock_cnt
 304 0018 1B68     		ldr	r3, [r3, #0]
 305 001a 002B     		cmp	r3, #0
 306 001c 05D0     		beq	.L18
 307              	.L17:
 308              		.loc 1 141 0 is_stmt 1
 309 001e 40F20000 		movw	r0, #:lower16:.LC5
 310 0022 C0F20000 		movt	r0, #:upper16:.LC5
 311 0026 FFF7FEFF 		bl	chDbgPanic
 312              	.L18:
 313              		.loc 1 142 0
 314 002a 40F20003 		movw	r3, #:lower16:dbg_lock_cnt
 315 002e C0F20003 		movt	r3, #:upper16:dbg_lock_cnt
 316 0032 4FF00102 		mov	r2, #1
 317 0036 1A60     		str	r2, [r3, #0]
 318              		.loc 1 143 0
 319 0038 08BD     		pop	{r3, pc}
 320              		.cfi_endproc
 321              	.LFE12:
 322              		.size	dbg_check_lock_from_isr, .-dbg_check_lock_from_isr
 323 003a 00BFAFF3 		.section	.rodata
 323      0080
 324 002d 000000   		.align	2
 325              	.LC6:
 326 0030 53562337 		.ascii	"SV#7\000"
 326      00
 327              		.section	.text.dbg_check_unlock_from_isr,"ax",%progbits
 328              		.align	2
ARM GAS  C:\Users\z80\AppData\Local\Temp\ccIabawO.s 			page 7


 329              		.p2align 4,,15
 330              		.global	dbg_check_unlock_from_isr
 331              		.thumb
 332              		.thumb_func
 333              		.type	dbg_check_unlock_from_isr, %function
 334              	dbg_check_unlock_from_isr:
 335              	.LFB13:
 336              		.loc 1 150 0
 337              		.cfi_startproc
 338              		@ args = 0, pretend = 0, frame = 0
 339              		@ frame_needed = 0, uses_anonymous_args = 0
 340 0000 08B5     		push	{r3, lr}
 341              	.LCFI6:
 342              		.cfi_def_cfa_offset 8
 343              		.loc 1 152 0
 344 0002 40F20003 		movw	r3, #:lower16:dbg_isr_cnt
 345              		.cfi_offset 14, -4
 346              		.cfi_offset 3, -8
 347 0006 C0F20003 		movt	r3, #:upper16:dbg_isr_cnt
 348 000a 1B68     		ldr	r3, [r3, #0]
 349 000c 002B     		cmp	r3, #0
 350 000e 06DD     		ble	.L20
 351              		.loc 1 152 0 is_stmt 0 discriminator 1
 352 0010 40F20003 		movw	r3, #:lower16:dbg_lock_cnt
 353 0014 C0F20003 		movt	r3, #:upper16:dbg_lock_cnt
 354 0018 1B68     		ldr	r3, [r3, #0]
 355 001a 002B     		cmp	r3, #0
 356 001c 05DC     		bgt	.L21
 357              	.L20:
 358              		.loc 1 153 0 is_stmt 1
 359 001e 40F20000 		movw	r0, #:lower16:.LC6
 360 0022 C0F20000 		movt	r0, #:upper16:.LC6
 361 0026 FFF7FEFF 		bl	chDbgPanic
 362              	.L21:
 363              		.loc 1 154 0
 364 002a 40F20003 		movw	r3, #:lower16:dbg_lock_cnt
 365 002e C0F20003 		movt	r3, #:upper16:dbg_lock_cnt
 366 0032 4FF00002 		mov	r2, #0
 367 0036 1A60     		str	r2, [r3, #0]
 368              		.loc 1 155 0
 369 0038 08BD     		pop	{r3, pc}
 370              		.cfi_endproc
 371              	.LFE13:
 372              		.size	dbg_check_unlock_from_isr, .-dbg_check_unlock_from_isr
 373 003a 00BFAFF3 		.section	.rodata
 373      0080
 374 0035 000000   		.align	2
 375              	.LC7:
 376 0038 53562338 		.ascii	"SV#8\000"
 376      00
 377              		.section	.text.dbg_check_enter_isr,"ax",%progbits
 378              		.align	2
 379              		.p2align 4,,15
 380              		.global	dbg_check_enter_isr
 381              		.thumb
 382              		.thumb_func
 383              		.type	dbg_check_enter_isr, %function
ARM GAS  C:\Users\z80\AppData\Local\Temp\ccIabawO.s 			page 8


 384              	dbg_check_enter_isr:
 385              	.LFB14:
 386              		.loc 1 162 0
 387              		.cfi_startproc
 388              		@ args = 0, pretend = 0, frame = 0
 389              		@ frame_needed = 0, uses_anonymous_args = 0
 390 0000 08B5     		push	{r3, lr}
 391              	.LCFI7:
 392              		.cfi_def_cfa_offset 8
 393              	.LBB2:
 394              		.loc 1 164 0
 395 0002 4FF02003 		mov	r3, #32
 396              		.cfi_offset 14, -4
 397              		.cfi_offset 3, -8
 398              	@ 164 "../chibios_2.4.x/os/kernel/src/chdebug.c" 1
 399 0006 83F31188 		msr     BASEPRI, r3
 400              	@ 0 "" 2
 401              		.thumb
 402              	.LBE2:
 403              		.loc 1 165 0
 404 000a 40F20003 		movw	r3, #:lower16:dbg_isr_cnt
 405 000e C0F20003 		movt	r3, #:upper16:dbg_isr_cnt
 406 0012 1B68     		ldr	r3, [r3, #0]
 407 0014 002B     		cmp	r3, #0
 408 0016 06DB     		blt	.L23
 409              		.loc 1 165 0 is_stmt 0 discriminator 1
 410 0018 40F20003 		movw	r3, #:lower16:dbg_lock_cnt
 411 001c C0F20003 		movt	r3, #:upper16:dbg_lock_cnt
 412 0020 1B68     		ldr	r3, [r3, #0]
 413 0022 002B     		cmp	r3, #0
 414 0024 05D0     		beq	.L24
 415              	.L23:
 416              		.loc 1 166 0 is_stmt 1
 417 0026 40F20000 		movw	r0, #:lower16:.LC7
 418 002a C0F20000 		movt	r0, #:upper16:.LC7
 419 002e FFF7FEFF 		bl	chDbgPanic
 420              	.L24:
 421              		.loc 1 167 0
 422 0032 40F20003 		movw	r3, #:lower16:dbg_isr_cnt
 423 0036 C0F20003 		movt	r3, #:upper16:dbg_isr_cnt
 424 003a 1B68     		ldr	r3, [r3, #0]
 425 003c 03F10102 		add	r2, r3, #1
 426 0040 40F20003 		movw	r3, #:lower16:dbg_isr_cnt
 427 0044 C0F20003 		movt	r3, #:upper16:dbg_isr_cnt
 428 0048 1A60     		str	r2, [r3, #0]
 429              	.LBB3:
 430              		.loc 1 168 0
 431 004a 4FF00003 		mov	r3, #0
 432              	@ 168 "../chibios_2.4.x/os/kernel/src/chdebug.c" 1
 433 004e 83F31188 		msr     BASEPRI, r3
 434              	@ 0 "" 2
 435              		.thumb
 436              	.LBE3:
 437              		.loc 1 169 0
 438 0052 08BD     		pop	{r3, pc}
 439              		.cfi_endproc
 440              	.LFE14:
ARM GAS  C:\Users\z80\AppData\Local\Temp\ccIabawO.s 			page 9


 441              		.size	dbg_check_enter_isr, .-dbg_check_enter_isr
 442 0054 AFF30080 		.section	.rodata
 442      AFF30080 
 442      AFF30080 
 443 003d 000000   		.align	2
 444              	.LC8:
 445 0040 53562339 		.ascii	"SV#9\000"
 445      00
 446              		.section	.text.dbg_check_leave_isr,"ax",%progbits
 447              		.align	2
 448              		.p2align 4,,15
 449              		.global	dbg_check_leave_isr
 450              		.thumb
 451              		.thumb_func
 452              		.type	dbg_check_leave_isr, %function
 453              	dbg_check_leave_isr:
 454              	.LFB15:
 455              		.loc 1 176 0
 456              		.cfi_startproc
 457              		@ args = 0, pretend = 0, frame = 0
 458              		@ frame_needed = 0, uses_anonymous_args = 0
 459 0000 08B5     		push	{r3, lr}
 460              	.LCFI8:
 461              		.cfi_def_cfa_offset 8
 462              	.LBB4:
 463              		.loc 1 178 0
 464 0002 4FF02003 		mov	r3, #32
 465              		.cfi_offset 14, -4
 466              		.cfi_offset 3, -8
 467              	@ 178 "../chibios_2.4.x/os/kernel/src/chdebug.c" 1
 468 0006 83F31188 		msr     BASEPRI, r3
 469              	@ 0 "" 2
 470              		.thumb
 471              	.LBE4:
 472              		.loc 1 179 0
 473 000a 40F20003 		movw	r3, #:lower16:dbg_isr_cnt
 474 000e C0F20003 		movt	r3, #:upper16:dbg_isr_cnt
 475 0012 1B68     		ldr	r3, [r3, #0]
 476 0014 002B     		cmp	r3, #0
 477 0016 06DD     		ble	.L26
 478              		.loc 1 179 0 is_stmt 0 discriminator 1
 479 0018 40F20003 		movw	r3, #:lower16:dbg_lock_cnt
 480 001c C0F20003 		movt	r3, #:upper16:dbg_lock_cnt
 481 0020 1B68     		ldr	r3, [r3, #0]
 482 0022 002B     		cmp	r3, #0
 483 0024 05D0     		beq	.L27
 484              	.L26:
 485              		.loc 1 180 0 is_stmt 1
 486 0026 40F20000 		movw	r0, #:lower16:.LC8
 487 002a C0F20000 		movt	r0, #:upper16:.LC8
 488 002e FFF7FEFF 		bl	chDbgPanic
 489              	.L27:
 490              		.loc 1 181 0
 491 0032 40F20003 		movw	r3, #:lower16:dbg_isr_cnt
 492 0036 C0F20003 		movt	r3, #:upper16:dbg_isr_cnt
 493 003a 1B68     		ldr	r3, [r3, #0]
 494 003c 03F1FF32 		add	r2, r3, #-1
ARM GAS  C:\Users\z80\AppData\Local\Temp\ccIabawO.s 			page 10


 495 0040 40F20003 		movw	r3, #:lower16:dbg_isr_cnt
 496 0044 C0F20003 		movt	r3, #:upper16:dbg_isr_cnt
 497 0048 1A60     		str	r2, [r3, #0]
 498              	.LBB5:
 499              		.loc 1 182 0
 500 004a 4FF00003 		mov	r3, #0
 501              	@ 182 "../chibios_2.4.x/os/kernel/src/chdebug.c" 1
 502 004e 83F31188 		msr     BASEPRI, r3
 503              	@ 0 "" 2
 504              		.thumb
 505              	.LBE5:
 506              		.loc 1 183 0
 507 0052 08BD     		pop	{r3, pc}
 508              		.cfi_endproc
 509              	.LFE15:
 510              		.size	dbg_check_leave_isr, .-dbg_check_leave_isr
 511 0054 AFF30080 		.section	.rodata
 511      AFF30080 
 511      AFF30080 
 512 0045 000000   		.align	2
 513              	.LC9:
 514 0048 53562331 		.ascii	"SV#10\000"
 514      3000
 515              		.section	.text.chDbgCheckClassI,"ax",%progbits
 516              		.align	2
 517              		.p2align 4,,15
 518              		.global	chDbgCheckClassI
 519              		.thumb
 520              		.thumb_func
 521              		.type	chDbgCheckClassI, %function
 522              	chDbgCheckClassI:
 523              	.LFB16:
 524              		.loc 1 193 0
 525              		.cfi_startproc
 526              		@ args = 0, pretend = 0, frame = 0
 527              		@ frame_needed = 0, uses_anonymous_args = 0
 528 0000 08B5     		push	{r3, lr}
 529              	.LCFI9:
 530              		.cfi_def_cfa_offset 8
 531              		.loc 1 195 0
 532 0002 40F20003 		movw	r3, #:lower16:dbg_isr_cnt
 533              		.cfi_offset 14, -4
 534              		.cfi_offset 3, -8
 535 0006 C0F20003 		movt	r3, #:upper16:dbg_isr_cnt
 536 000a 1B68     		ldr	r3, [r3, #0]
 537 000c 002B     		cmp	r3, #0
 538 000e 06DB     		blt	.L29
 539              		.loc 1 195 0 is_stmt 0 discriminator 1
 540 0010 40F20003 		movw	r3, #:lower16:dbg_lock_cnt
 541 0014 C0F20003 		movt	r3, #:upper16:dbg_lock_cnt
 542 0018 1B68     		ldr	r3, [r3, #0]
 543 001a 002B     		cmp	r3, #0
 544 001c 05DC     		bgt	.L28
 545              	.L29:
 546              		.loc 1 196 0 is_stmt 1
 547 001e 40F20000 		movw	r0, #:lower16:.LC9
 548 0022 C0F20000 		movt	r0, #:upper16:.LC9
ARM GAS  C:\Users\z80\AppData\Local\Temp\ccIabawO.s 			page 11


 549 0026 FFF7FEFF 		bl	chDbgPanic
 550              	.L28:
 551              		.loc 1 197 0
 552 002a 08BD     		pop	{r3, pc}
 553              		.cfi_endproc
 554              	.LFE16:
 555              		.size	chDbgCheckClassI, .-chDbgCheckClassI
 556 002c AFF30080 		.section	.rodata
 557 004e 0000     		.align	2
 558              	.LC10:
 559 0050 53562331 		.ascii	"SV#11\000"
 559      3100
 560 0056 0000     		.section	.text.chDbgCheckClassS,"ax",%progbits
 561              		.align	2
 562              		.p2align 4,,15
 563              		.global	chDbgCheckClassS
 564              		.thumb
 565              		.thumb_func
 566              		.type	chDbgCheckClassS, %function
 567              	chDbgCheckClassS:
 568              	.LFB17:
 569              		.loc 1 207 0
 570              		.cfi_startproc
 571              		@ args = 0, pretend = 0, frame = 0
 572              		@ frame_needed = 0, uses_anonymous_args = 0
 573 0000 08B5     		push	{r3, lr}
 574              	.LCFI10:
 575              		.cfi_def_cfa_offset 8
 576              		.loc 1 209 0
 577 0002 40F20003 		movw	r3, #:lower16:dbg_isr_cnt
 578              		.cfi_offset 14, -4
 579              		.cfi_offset 3, -8
 580 0006 C0F20003 		movt	r3, #:upper16:dbg_isr_cnt
 581 000a 1B68     		ldr	r3, [r3, #0]
 582 000c 002B     		cmp	r3, #0
 583 000e 06D1     		bne	.L32
 584              		.loc 1 209 0 is_stmt 0 discriminator 1
 585 0010 40F20003 		movw	r3, #:lower16:dbg_lock_cnt
 586 0014 C0F20003 		movt	r3, #:upper16:dbg_lock_cnt
 587 0018 1B68     		ldr	r3, [r3, #0]
 588 001a 002B     		cmp	r3, #0
 589 001c 05DC     		bgt	.L31
 590              	.L32:
 591              		.loc 1 210 0 is_stmt 1
 592 001e 40F20000 		movw	r0, #:lower16:.LC10
 593 0022 C0F20000 		movt	r0, #:upper16:.LC10
 594 0026 FFF7FEFF 		bl	chDbgPanic
 595              	.L31:
 596              		.loc 1 211 0
 597 002a 08BD     		pop	{r3, pc}
 598              		.cfi_endproc
 599              	.LFE17:
 600              		.size	chDbgCheckClassS, .-chDbgCheckClassS
 601              		.global	dbg_trace_buffer
 602 002c AFF30080 		.section	.bss.dbg_trace_buffer,"aw",%nobits
 603              		.align	2
 604              		.type	dbg_trace_buffer, %object
ARM GAS  C:\Users\z80\AppData\Local\Temp\ccIabawO.s 			page 12


 605              		.size	dbg_trace_buffer, 1032
 606              	dbg_trace_buffer:
 607 0000 00000000 		.space	1032
 607      00000000 
 607      00000000 
 607      00000000 
 607      00000000 
 608              		.section	.text._trace_init,"ax",%progbits
 609              		.align	2
 610              		.p2align 4,,15
 611              		.global	_trace_init
 612              		.thumb
 613              		.thumb_func
 614              		.type	_trace_init, %function
 615              	_trace_init:
 616              	.LFB18:
 617              		.loc 1 229 0
 618              		.cfi_startproc
 619              		@ args = 0, pretend = 0, frame = 0
 620              		@ frame_needed = 0, uses_anonymous_args = 0
 621              		@ link register save eliminated.
 622              		.loc 1 231 0
 623 0000 40F20003 		movw	r3, #:lower16:dbg_trace_buffer
 624 0004 C0F20003 		movt	r3, #:upper16:dbg_trace_buffer
 625 0008 4FF04002 		mov	r2, #64
 626 000c 1A60     		str	r2, [r3, #0]
 627              		.loc 1 232 0
 628 000e 40F20003 		movw	r3, #:lower16:dbg_trace_buffer
 629 0012 C0F20003 		movt	r3, #:upper16:dbg_trace_buffer
 630 0016 014A     		ldr	r2, .L35
 631 0018 5A60     		str	r2, [r3, #4]
 632              		.loc 1 233 0
 633 001a 7047     		bx	lr
 634              	.L36:
 635              		.align	2
 636              	.L35:
 637 001c 08000000 		.word	dbg_trace_buffer+8
 638              		.cfi_endproc
 639              	.LFE18:
 640              		.size	_trace_init, .-_trace_init
 641              		.section	.text.dbg_trace,"ax",%progbits
 642              		.align	2
 643              		.p2align 4,,15
 644              		.global	dbg_trace
 645              		.thumb
 646              		.thumb_func
 647              		.type	dbg_trace, %function
 648              	dbg_trace:
 649              	.LFB19:
 650              		.loc 1 242 0
 651              		.cfi_startproc
 652              		@ args = 0, pretend = 0, frame = 8
 653              		@ frame_needed = 0, uses_anonymous_args = 0
 654              		@ link register save eliminated.
 655 0000 82B0     		sub	sp, sp, #8
 656              	.LCFI11:
 657              		.cfi_def_cfa_offset 8
ARM GAS  C:\Users\z80\AppData\Local\Temp\ccIabawO.s 			page 13


 658 0002 0190     		str	r0, [sp, #4]
 659              		.loc 1 244 0
 660 0004 40F20003 		movw	r3, #:lower16:dbg_trace_buffer
 661 0008 C0F20003 		movt	r3, #:upper16:dbg_trace_buffer
 662 000c 5A68     		ldr	r2, [r3, #4]
 663 000e 40F20003 		movw	r3, #:lower16:vtlist
 664 0012 C0F20003 		movt	r3, #:upper16:vtlist
 665 0016 DB68     		ldr	r3, [r3, #12]
 666 0018 1360     		str	r3, [r2, #0]
 667              		.loc 1 245 0
 668 001a 40F20003 		movw	r3, #:lower16:dbg_trace_buffer
 669 001e C0F20003 		movt	r3, #:upper16:dbg_trace_buffer
 670 0022 5A68     		ldr	r2, [r3, #4]
 671 0024 40F20003 		movw	r3, #:lower16:rlist
 672 0028 C0F20003 		movt	r3, #:upper16:rlist
 673 002c DB69     		ldr	r3, [r3, #28]
 674 002e 5360     		str	r3, [r2, #4]
 675              		.loc 1 246 0
 676 0030 40F20003 		movw	r3, #:lower16:dbg_trace_buffer
 677 0034 C0F20003 		movt	r3, #:upper16:dbg_trace_buffer
 678 0038 5B68     		ldr	r3, [r3, #4]
 679 003a 019A     		ldr	r2, [sp, #4]
 680 003c 926A     		ldr	r2, [r2, #40]
 681 003e 9A60     		str	r2, [r3, #8]
 682              		.loc 1 247 0
 683 0040 40F20003 		movw	r3, #:lower16:dbg_trace_buffer
 684 0044 C0F20003 		movt	r3, #:upper16:dbg_trace_buffer
 685 0048 5B68     		ldr	r3, [r3, #4]
 686 004a 019A     		ldr	r2, [sp, #4]
 687 004c 92F82020 		ldrb	r2, [r2, #32]	@ zero_extendqisi2
 688 0050 1A73     		strb	r2, [r3, #12]
 689              		.loc 1 248 0
 690 0052 40F20003 		movw	r3, #:lower16:dbg_trace_buffer
 691 0056 C0F20003 		movt	r3, #:upper16:dbg_trace_buffer
 692 005a 5B68     		ldr	r3, [r3, #4]
 693 005c 03F11002 		add	r2, r3, #16
 694 0060 40F20003 		movw	r3, #:lower16:dbg_trace_buffer
 695 0064 C0F20003 		movt	r3, #:upper16:dbg_trace_buffer
 696 0068 5A60     		str	r2, [r3, #4]
 697 006a 40F20003 		movw	r3, #:lower16:dbg_trace_buffer
 698 006e C0F20003 		movt	r3, #:upper16:dbg_trace_buffer
 699 0072 5A68     		ldr	r2, [r3, #4]
 700              		.loc 1 249 0
 701 0074 054B     		ldr	r3, .L39
 702              		.loc 1 248 0
 703 0076 9A42     		cmp	r2, r3
 704 0078 05D3     		bcc	.L37
 705              		.loc 1 250 0
 706 007a 40F20003 		movw	r3, #:lower16:dbg_trace_buffer
 707 007e C0F20003 		movt	r3, #:upper16:dbg_trace_buffer
 708 0082 034A     		ldr	r2, .L39+4
 709 0084 5A60     		str	r2, [r3, #4]
 710              	.L37:
 711              		.loc 1 251 0
 712 0086 02B0     		add	sp, sp, #8
 713 0088 7047     		bx	lr
 714              	.L40:
ARM GAS  C:\Users\z80\AppData\Local\Temp\ccIabawO.s 			page 14


 715 008a 00BF     		.align	2
 716              	.L39:
 717 008c 08040000 		.word	dbg_trace_buffer+1032
 718 0090 08000000 		.word	dbg_trace_buffer+8
 719              		.cfi_endproc
 720              	.LFE19:
 721              		.size	dbg_trace, .-dbg_trace
 722              		.global	dbg_panic_msg
 723 0094 AFF30080 		.section	.bss.dbg_panic_msg,"aw",%nobits
 723      AFF30080 
 723      AFF30080 
 724              		.align	2
 725              		.type	dbg_panic_msg, %object
 726              		.size	dbg_panic_msg, 4
 727              	dbg_panic_msg:
 728 0000 00000000 		.space	4
 729              		.section	.text.chDbgPanic,"ax",%progbits
 730              		.align	2
 731              		.p2align 4,,15
 732              		.global	chDbgPanic
 733              		.thumb
 734              		.thumb_func
 735              		.type	chDbgPanic, %function
 736              	chDbgPanic:
 737              	.LFB20:
 738              		.loc 1 271 0
 739              		.cfi_startproc
 740              		@ args = 0, pretend = 0, frame = 8
 741              		@ frame_needed = 0, uses_anonymous_args = 0
 742 0000 00B5     		push	{lr}
 743              	.LCFI12:
 744              		.cfi_def_cfa_offset 4
 745 0002 83B0     		sub	sp, sp, #12
 746              	.LCFI13:
 747              		.cfi_def_cfa_offset 16
 748 0004 0190     		str	r0, [sp, #4]
 749              		.loc 1 273 0
 750 0006 40F20003 		movw	r3, #:lower16:dbg_panic_msg
 751 000a C0F20003 		movt	r3, #:upper16:dbg_panic_msg
 752 000e 019A     		ldr	r2, [sp, #4]
 753 0010 1A60     		str	r2, [r3, #0]
 754              		.loc 1 274 0
 755              		.cfi_offset 14, -4
 756 0012 FFF7FEFF 		bl	port_halt
 757              		.loc 1 275 0
 758 0016 03B0     		add	sp, sp, #12
 759 0018 00BD     		pop	{pc}
 760              		.cfi_endproc
 761              	.LFE20:
 762              		.size	chDbgPanic, .-chDbgPanic
 763 001a 00BFAFF3 		.text
 763      0080
 764              	.Letext0:
 765              		.section	.debug_loc,"",%progbits
 766              	.Ldebug_loc0:
 767              	.LLST0:
 768 0000 00000000 		.4byte	.LFB7
ARM GAS  C:\Users\z80\AppData\Local\Temp\ccIabawO.s 			page 15


 769 0004 02000000 		.4byte	.LCFI0
 770 0008 0200     		.2byte	0x2
 771 000a 7D       		.byte	0x7d
 772 000b 00       		.sleb128 0
 773 000c 02000000 		.4byte	.LCFI0
 774 0010 2C000000 		.4byte	.LFE7
 775 0014 0200     		.2byte	0x2
 776 0016 7D       		.byte	0x7d
 777 0017 08       		.sleb128 8
 778 0018 00000000 		.4byte	0x0
 779 001c 00000000 		.4byte	0x0
 780              	.LLST1:
 781 0020 00000000 		.4byte	.LFB8
 782 0024 02000000 		.4byte	.LCFI1
 783 0028 0200     		.2byte	0x2
 784 002a 7D       		.byte	0x7d
 785 002b 00       		.sleb128 0
 786 002c 02000000 		.4byte	.LCFI1
 787 0030 2C000000 		.4byte	.LFE8
 788 0034 0200     		.2byte	0x2
 789 0036 7D       		.byte	0x7d
 790 0037 08       		.sleb128 8
 791 0038 00000000 		.4byte	0x0
 792 003c 00000000 		.4byte	0x0
 793              	.LLST2:
 794 0040 00000000 		.4byte	.LFB9
 795 0044 02000000 		.4byte	.LCFI2
 796 0048 0200     		.2byte	0x2
 797 004a 7D       		.byte	0x7d
 798 004b 00       		.sleb128 0
 799 004c 02000000 		.4byte	.LCFI2
 800 0050 2C000000 		.4byte	.LFE9
 801 0054 0200     		.2byte	0x2
 802 0056 7D       		.byte	0x7d
 803 0057 08       		.sleb128 8
 804 0058 00000000 		.4byte	0x0
 805 005c 00000000 		.4byte	0x0
 806              	.LLST3:
 807 0060 00000000 		.4byte	.LFB10
 808 0064 02000000 		.4byte	.LCFI3
 809 0068 0200     		.2byte	0x2
 810 006a 7D       		.byte	0x7d
 811 006b 00       		.sleb128 0
 812 006c 02000000 		.4byte	.LCFI3
 813 0070 3A000000 		.4byte	.LFE10
 814 0074 0200     		.2byte	0x2
 815 0076 7D       		.byte	0x7d
 816 0077 08       		.sleb128 8
 817 0078 00000000 		.4byte	0x0
 818 007c 00000000 		.4byte	0x0
 819              	.LLST4:
 820 0080 00000000 		.4byte	.LFB11
 821 0084 02000000 		.4byte	.LCFI4
 822 0088 0200     		.2byte	0x2
 823 008a 7D       		.byte	0x7d
 824 008b 00       		.sleb128 0
 825 008c 02000000 		.4byte	.LCFI4
ARM GAS  C:\Users\z80\AppData\Local\Temp\ccIabawO.s 			page 16


 826 0090 3A000000 		.4byte	.LFE11
 827 0094 0200     		.2byte	0x2
 828 0096 7D       		.byte	0x7d
 829 0097 08       		.sleb128 8
 830 0098 00000000 		.4byte	0x0
 831 009c 00000000 		.4byte	0x0
 832              	.LLST5:
 833 00a0 00000000 		.4byte	.LFB12
 834 00a4 02000000 		.4byte	.LCFI5
 835 00a8 0200     		.2byte	0x2
 836 00aa 7D       		.byte	0x7d
 837 00ab 00       		.sleb128 0
 838 00ac 02000000 		.4byte	.LCFI5
 839 00b0 3A000000 		.4byte	.LFE12
 840 00b4 0200     		.2byte	0x2
 841 00b6 7D       		.byte	0x7d
 842 00b7 08       		.sleb128 8
 843 00b8 00000000 		.4byte	0x0
 844 00bc 00000000 		.4byte	0x0
 845              	.LLST6:
 846 00c0 00000000 		.4byte	.LFB13
 847 00c4 02000000 		.4byte	.LCFI6
 848 00c8 0200     		.2byte	0x2
 849 00ca 7D       		.byte	0x7d
 850 00cb 00       		.sleb128 0
 851 00cc 02000000 		.4byte	.LCFI6
 852 00d0 3A000000 		.4byte	.LFE13
 853 00d4 0200     		.2byte	0x2
 854 00d6 7D       		.byte	0x7d
 855 00d7 08       		.sleb128 8
 856 00d8 00000000 		.4byte	0x0
 857 00dc 00000000 		.4byte	0x0
 858              	.LLST7:
 859 00e0 00000000 		.4byte	.LFB14
 860 00e4 02000000 		.4byte	.LCFI7
 861 00e8 0200     		.2byte	0x2
 862 00ea 7D       		.byte	0x7d
 863 00eb 00       		.sleb128 0
 864 00ec 02000000 		.4byte	.LCFI7
 865 00f0 54000000 		.4byte	.LFE14
 866 00f4 0200     		.2byte	0x2
 867 00f6 7D       		.byte	0x7d
 868 00f7 08       		.sleb128 8
 869 00f8 00000000 		.4byte	0x0
 870 00fc 00000000 		.4byte	0x0
 871              	.LLST8:
 872 0100 00000000 		.4byte	.LFB15
 873 0104 02000000 		.4byte	.LCFI8
 874 0108 0200     		.2byte	0x2
 875 010a 7D       		.byte	0x7d
 876 010b 00       		.sleb128 0
 877 010c 02000000 		.4byte	.LCFI8
 878 0110 54000000 		.4byte	.LFE15
 879 0114 0200     		.2byte	0x2
 880 0116 7D       		.byte	0x7d
 881 0117 08       		.sleb128 8
 882 0118 00000000 		.4byte	0x0
ARM GAS  C:\Users\z80\AppData\Local\Temp\ccIabawO.s 			page 17


 883 011c 00000000 		.4byte	0x0
 884              	.LLST9:
 885 0120 00000000 		.4byte	.LFB16
 886 0124 02000000 		.4byte	.LCFI9
 887 0128 0200     		.2byte	0x2
 888 012a 7D       		.byte	0x7d
 889 012b 00       		.sleb128 0
 890 012c 02000000 		.4byte	.LCFI9
 891 0130 2C000000 		.4byte	.LFE16
 892 0134 0200     		.2byte	0x2
 893 0136 7D       		.byte	0x7d
 894 0137 08       		.sleb128 8
 895 0138 00000000 		.4byte	0x0
 896 013c 00000000 		.4byte	0x0
 897              	.LLST10:
 898 0140 00000000 		.4byte	.LFB17
 899 0144 02000000 		.4byte	.LCFI10
 900 0148 0200     		.2byte	0x2
 901 014a 7D       		.byte	0x7d
 902 014b 00       		.sleb128 0
 903 014c 02000000 		.4byte	.LCFI10
 904 0150 2C000000 		.4byte	.LFE17
 905 0154 0200     		.2byte	0x2
 906 0156 7D       		.byte	0x7d
 907 0157 08       		.sleb128 8
 908 0158 00000000 		.4byte	0x0
 909 015c 00000000 		.4byte	0x0
 910              	.LLST11:
 911 0160 00000000 		.4byte	.LFB19
 912 0164 02000000 		.4byte	.LCFI11
 913 0168 0200     		.2byte	0x2
 914 016a 7D       		.byte	0x7d
 915 016b 00       		.sleb128 0
 916 016c 02000000 		.4byte	.LCFI11
 917 0170 94000000 		.4byte	.LFE19
 918 0174 0200     		.2byte	0x2
 919 0176 7D       		.byte	0x7d
 920 0177 08       		.sleb128 8
 921 0178 00000000 		.4byte	0x0
 922 017c 00000000 		.4byte	0x0
 923              	.LLST12:
 924 0180 00000000 		.4byte	.LFB20
 925 0184 02000000 		.4byte	.LCFI12
 926 0188 0200     		.2byte	0x2
 927 018a 7D       		.byte	0x7d
 928 018b 00       		.sleb128 0
 929 018c 02000000 		.4byte	.LCFI12
 930 0190 04000000 		.4byte	.LCFI13
 931 0194 0200     		.2byte	0x2
 932 0196 7D       		.byte	0x7d
 933 0197 04       		.sleb128 4
 934 0198 04000000 		.4byte	.LCFI13
 935 019c 1A000000 		.4byte	.LFE20
 936 01a0 0200     		.2byte	0x2
 937 01a2 7D       		.byte	0x7d
 938 01a3 10       		.sleb128 16
 939 01a4 00000000 		.4byte	0x0
ARM GAS  C:\Users\z80\AppData\Local\Temp\ccIabawO.s 			page 18


 940 01a8 00000000 		.4byte	0x0
 941              		.file 2 "c:/programs/yagarto/lib/gcc/../../arm-none-eabi/sys-include/stdint.h"
 942              		.file 3 "../chibios_2.4.x/os/ports/GCC/ARMCMx/chtypes.h"
 943              		.file 4 "../chibios_2.4.x/os/kernel/include/chlists.h"
 944              		.file 5 "../chibios_2.4.x/os/kernel/include/chthreads.h"
 945              		.file 6 "../chibios_2.4.x/os/ports/GCC/ARMCMx/chcore_v7m.h"
 946              		.file 7 "../chibios_2.4.x/os/kernel/include/chvt.h"
 947              		.file 8 "../chibios_2.4.x/os/kernel/include/chschd.h"
 948              		.file 9 "../chibios_2.4.x/os/kernel/include/chmtx.h"
 949              		.file 10 "../chibios_2.4.x/os/kernel/include/chdebug.h"
 950              		.section	.debug_info
 951 0000 12080000 		.4byte	0x812
 952 0004 0200     		.2byte	0x2
 953 0006 00000000 		.4byte	.Ldebug_abbrev0
 954 000a 04       		.byte	0x4
 955 000b 01       		.uleb128 0x1
 956 000c 0D040000 		.4byte	.LASF99
 957 0010 01       		.byte	0x1
 958 0011 63000000 		.4byte	.LASF100
 959 0015 40020000 		.4byte	.LASF101
 960 0019 00000000 		.4byte	0x0
 961 001d 00000000 		.4byte	0x0
 962 0021 00000000 		.4byte	.Ldebug_ranges0+0x0
 963 0025 00000000 		.4byte	.Ldebug_line0
 964 0029 02       		.uleb128 0x2
 965 002a 04       		.byte	0x4
 966 002b 05       		.byte	0x5
 967 002c 696E7400 		.ascii	"int\000"
 968 0030 03       		.uleb128 0x3
 969 0031 04       		.byte	0x4
 970 0032 07       		.byte	0x7
 971 0033 1A010000 		.4byte	.LASF0
 972 0037 03       		.uleb128 0x3
 973 0038 01       		.byte	0x1
 974 0039 06       		.byte	0x6
 975 003a 9A000000 		.4byte	.LASF1
 976 003e 04       		.uleb128 0x4
 977 003f ED030000 		.4byte	.LASF5
 978 0043 02       		.byte	0x2
 979 0044 2A       		.byte	0x2a
 980 0045 49000000 		.4byte	0x49
 981 0049 03       		.uleb128 0x3
 982 004a 01       		.byte	0x1
 983 004b 08       		.byte	0x8
 984 004c C8020000 		.4byte	.LASF2
 985 0050 03       		.uleb128 0x3
 986 0051 02       		.byte	0x2
 987 0052 05       		.byte	0x5
 988 0053 EE020000 		.4byte	.LASF3
 989 0057 03       		.uleb128 0x3
 990 0058 02       		.byte	0x2
 991 0059 07       		.byte	0x7
 992 005a 65010000 		.4byte	.LASF4
 993 005e 04       		.uleb128 0x4
 994 005f C0020000 		.4byte	.LASF6
 995 0063 02       		.byte	0x2
 996 0064 4F       		.byte	0x4f
ARM GAS  C:\Users\z80\AppData\Local\Temp\ccIabawO.s 			page 19


 997 0065 69000000 		.4byte	0x69
 998 0069 03       		.uleb128 0x3
 999 006a 04       		.byte	0x4
 1000 006b 05       		.byte	0x5
 1001 006c C8000000 		.4byte	.LASF7
 1002 0070 04       		.uleb128 0x4
 1003 0071 2F030000 		.4byte	.LASF8
 1004 0075 02       		.byte	0x2
 1005 0076 50       		.byte	0x50
 1006 0077 7B000000 		.4byte	0x7b
 1007 007b 03       		.uleb128 0x3
 1008 007c 04       		.byte	0x4
 1009 007d 07       		.byte	0x7
 1010 007e 39010000 		.4byte	.LASF9
 1011 0082 03       		.uleb128 0x3
 1012 0083 08       		.byte	0x8
 1013 0084 05       		.byte	0x5
 1014 0085 8C000000 		.4byte	.LASF10
 1015 0089 04       		.uleb128 0x4
 1016 008a 18000000 		.4byte	.LASF11
 1017 008e 02       		.byte	0x2
 1018 008f 78       		.byte	0x78
 1019 0090 94000000 		.4byte	0x94
 1020 0094 03       		.uleb128 0x3
 1021 0095 08       		.byte	0x8
 1022 0096 07       		.byte	0x7
 1023 0097 28000000 		.4byte	.LASF12
 1024 009b 04       		.uleb128 0x4
 1025 009c 9B010000 		.4byte	.LASF13
 1026 00a0 03       		.byte	0x3
 1027 00a1 2F       		.byte	0x2f
 1028 00a2 3E000000 		.4byte	0x3e
 1029 00a6 04       		.uleb128 0x4
 1030 00a7 D1000000 		.4byte	.LASF14
 1031 00ab 03       		.byte	0x3
 1032 00ac 30       		.byte	0x30
 1033 00ad 3E000000 		.4byte	0x3e
 1034 00b1 04       		.uleb128 0x4
 1035 00b2 B8020000 		.4byte	.LASF15
 1036 00b6 03       		.byte	0x3
 1037 00b7 32       		.byte	0x32
 1038 00b8 70000000 		.4byte	0x70
 1039 00bc 04       		.uleb128 0x4
 1040 00bd 84010000 		.4byte	.LASF16
 1041 00c1 03       		.byte	0x3
 1042 00c2 33       		.byte	0x33
 1043 00c3 5E000000 		.4byte	0x5e
 1044 00c7 04       		.uleb128 0x4
 1045 00c8 CC010000 		.4byte	.LASF17
 1046 00cc 03       		.byte	0x3
 1047 00cd 35       		.byte	0x35
 1048 00ce 70000000 		.4byte	0x70
 1049 00d2 04       		.uleb128 0x4
 1050 00d3 59030000 		.4byte	.LASF18
 1051 00d7 03       		.byte	0x3
 1052 00d8 36       		.byte	0x36
 1053 00d9 70000000 		.4byte	0x70
ARM GAS  C:\Users\z80\AppData\Local\Temp\ccIabawO.s 			page 20


 1054 00dd 04       		.uleb128 0x4
 1055 00de 09010000 		.4byte	.LASF19
 1056 00e2 03       		.byte	0x3
 1057 00e3 37       		.byte	0x37
 1058 00e4 5E000000 		.4byte	0x5e
 1059 00e8 04       		.uleb128 0x4
 1060 00e9 1D030000 		.4byte	.LASF20
 1061 00ed 04       		.byte	0x4
 1062 00ee 2A       		.byte	0x2a
 1063 00ef F3000000 		.4byte	0xf3
 1064 00f3 05       		.uleb128 0x5
 1065 00f4 1D030000 		.4byte	.LASF20
 1066 00f8 48       		.byte	0x48
 1067 00f9 05       		.byte	0x5
 1068 00fa 5E       		.byte	0x5e
 1069 00fb FC010000 		.4byte	0x1fc
 1070 00ff 06       		.uleb128 0x6
 1071 0100 0E030000 		.4byte	.LASF21
 1072 0104 05       		.byte	0x5
 1073 0105 5F       		.byte	0x5f
 1074 0106 21020000 		.4byte	0x221
 1075 010a 02       		.byte	0x2
 1076 010b 23       		.byte	0x23
 1077 010c 00       		.uleb128 0x0
 1078 010d 06       		.uleb128 0x6
 1079 010e B1020000 		.4byte	.LASF22
 1080 0112 05       		.byte	0x5
 1081 0113 61       		.byte	0x61
 1082 0114 21020000 		.4byte	0x221
 1083 0118 02       		.byte	0x2
 1084 0119 23       		.byte	0x23
 1085 011a 04       		.uleb128 0x4
 1086 011b 06       		.uleb128 0x6
 1087 011c 0F020000 		.4byte	.LASF23
 1088 0120 05       		.byte	0x5
 1089 0121 63       		.byte	0x63
 1090 0122 B1000000 		.4byte	0xb1
 1091 0126 02       		.byte	0x2
 1092 0127 23       		.byte	0x23
 1093 0128 08       		.uleb128 0x8
 1094 0129 06       		.uleb128 0x6
 1095 012a 67040000 		.4byte	.LASF24
 1096 012e 05       		.byte	0x5
 1097 012f 64       		.byte	0x64
 1098 0130 F9020000 		.4byte	0x2f9
 1099 0134 02       		.byte	0x2
 1100 0135 23       		.byte	0x23
 1101 0136 0C       		.uleb128 0xc
 1102 0137 06       		.uleb128 0x6
 1103 0138 E0000000 		.4byte	.LASF25
 1104 013c 05       		.byte	0x5
 1105 013d 66       		.byte	0x66
 1106 013e 21020000 		.4byte	0x221
 1107 0142 02       		.byte	0x2
 1108 0143 23       		.byte	0x23
 1109 0144 10       		.uleb128 0x10
 1110 0145 06       		.uleb128 0x6
ARM GAS  C:\Users\z80\AppData\Local\Temp\ccIabawO.s 			page 21


 1111 0146 25020000 		.4byte	.LASF26
 1112 014a 05       		.byte	0x5
 1113 014b 67       		.byte	0x67
 1114 014c 21020000 		.4byte	0x221
 1115 0150 02       		.byte	0x2
 1116 0151 23       		.byte	0x23
 1117 0152 14       		.uleb128 0x14
 1118 0153 06       		.uleb128 0x6
 1119 0154 20040000 		.4byte	.LASF27
 1120 0158 05       		.byte	0x5
 1121 0159 6E       		.byte	0x6e
 1122 015a E4040000 		.4byte	0x4e4
 1123 015e 02       		.byte	0x2
 1124 015f 23       		.byte	0x23
 1125 0160 18       		.uleb128 0x18
 1126 0161 06       		.uleb128 0x6
 1127 0162 0F010000 		.4byte	.LASF28
 1128 0166 05       		.byte	0x5
 1129 0167 74       		.byte	0x74
 1130 0168 F6040000 		.4byte	0x4f6
 1131 016c 02       		.byte	0x2
 1132 016d 23       		.byte	0x23
 1133 016e 1C       		.uleb128 0x1c
 1134 016f 06       		.uleb128 0x6
 1135 0170 F8020000 		.4byte	.LASF29
 1136 0174 05       		.byte	0x5
 1137 0175 79       		.byte	0x79
 1138 0176 A6000000 		.4byte	0xa6
 1139 017a 02       		.byte	0x2
 1140 017b 23       		.byte	0x23
 1141 017c 20       		.uleb128 0x20
 1142 017d 06       		.uleb128 0x6
 1143 017e 15030000 		.4byte	.LASF30
 1144 0182 05       		.byte	0x5
 1145 0183 7D       		.byte	0x7d
 1146 0184 9B000000 		.4byte	0x9b
 1147 0188 02       		.byte	0x2
 1148 0189 23       		.byte	0x23
 1149 018a 21       		.uleb128 0x21
 1150 018b 06       		.uleb128 0x6
 1151 018c 84030000 		.4byte	.LASF31
 1152 0190 05       		.byte	0x5
 1153 0191 89       		.byte	0x89
 1154 0192 E1030000 		.4byte	0x3e1
 1155 0196 02       		.byte	0x2
 1156 0197 23       		.byte	0x23
 1157 0198 24       		.uleb128 0x24
 1158 0199 07       		.uleb128 0x7
 1159 019a 705F7500 		.ascii	"p_u\000"
 1160 019e 05       		.byte	0x5
 1161 019f AE       		.byte	0xae
 1162 01a0 AF040000 		.4byte	0x4af
 1163 01a4 02       		.byte	0x2
 1164 01a5 23       		.byte	0x23
 1165 01a6 28       		.uleb128 0x28
 1166 01a7 06       		.uleb128 0x6
 1167 01a8 6D040000 		.4byte	.LASF32
ARM GAS  C:\Users\z80\AppData\Local\Temp\ccIabawO.s 			page 22


 1168 01ac 05       		.byte	0x5
 1169 01ad B3       		.byte	0xb3
 1170 01ae 49020000 		.4byte	0x249
 1171 01b2 02       		.byte	0x2
 1172 01b3 23       		.byte	0x23
 1173 01b4 2C       		.uleb128 0x2c
 1174 01b5 06       		.uleb128 0x6
 1175 01b6 A6030000 		.4byte	.LASF33
 1176 01ba 05       		.byte	0x5
 1177 01bb B9       		.byte	0xb9
 1178 01bc 27020000 		.4byte	0x227
 1179 01c0 02       		.byte	0x2
 1180 01c1 23       		.byte	0x23
 1181 01c2 30       		.uleb128 0x30
 1182 01c3 06       		.uleb128 0x6
 1183 01c4 00000000 		.4byte	.LASF34
 1184 01c8 05       		.byte	0x5
 1185 01c9 BD       		.byte	0xbd
 1186 01ca BC000000 		.4byte	0xbc
 1187 01ce 02       		.byte	0x2
 1188 01cf 23       		.byte	0x23
 1189 01d0 38       		.uleb128 0x38
 1190 01d1 06       		.uleb128 0x6
 1191 01d2 24030000 		.4byte	.LASF35
 1192 01d6 05       		.byte	0x5
 1193 01d7 C3       		.byte	0xc3
 1194 01d8 C7000000 		.4byte	0xc7
 1195 01dc 02       		.byte	0x2
 1196 01dd 23       		.byte	0x23
 1197 01de 3C       		.uleb128 0x3c
 1198 01df 06       		.uleb128 0x6
 1199 01e0 E4020000 		.4byte	.LASF36
 1200 01e4 05       		.byte	0x5
 1201 01e5 CA       		.byte	0xca
 1202 01e6 FC040000 		.4byte	0x4fc
 1203 01ea 02       		.byte	0x2
 1204 01eb 23       		.byte	0x23
 1205 01ec 40       		.uleb128 0x40
 1206 01ed 06       		.uleb128 0x6
 1207 01ee 63030000 		.4byte	.LASF37
 1208 01f2 05       		.byte	0x5
 1209 01f3 CE       		.byte	0xce
 1210 01f4 B1000000 		.4byte	0xb1
 1211 01f8 02       		.byte	0x2
 1212 01f9 23       		.byte	0x23
 1213 01fa 44       		.uleb128 0x44
 1214 01fb 00       		.byte	0x0
 1215 01fc 08       		.uleb128 0x8
 1216 01fd 08       		.byte	0x8
 1217 01fe 04       		.byte	0x4
 1218 01ff 61       		.byte	0x61
 1219 0200 21020000 		.4byte	0x221
 1220 0204 06       		.uleb128 0x6
 1221 0205 0E030000 		.4byte	.LASF21
 1222 0209 04       		.byte	0x4
 1223 020a 62       		.byte	0x62
 1224 020b 21020000 		.4byte	0x221
ARM GAS  C:\Users\z80\AppData\Local\Temp\ccIabawO.s 			page 23


 1225 020f 02       		.byte	0x2
 1226 0210 23       		.byte	0x23
 1227 0211 00       		.uleb128 0x0
 1228 0212 06       		.uleb128 0x6
 1229 0213 B1020000 		.4byte	.LASF22
 1230 0217 04       		.byte	0x4
 1231 0218 64       		.byte	0x64
 1232 0219 21020000 		.4byte	0x221
 1233 021d 02       		.byte	0x2
 1234 021e 23       		.byte	0x23
 1235 021f 04       		.uleb128 0x4
 1236 0220 00       		.byte	0x0
 1237 0221 09       		.uleb128 0x9
 1238 0222 04       		.byte	0x4
 1239 0223 E8000000 		.4byte	0xe8
 1240 0227 04       		.uleb128 0x4
 1241 0228 33020000 		.4byte	.LASF38
 1242 022c 04       		.byte	0x4
 1243 022d 66       		.byte	0x66
 1244 022e FC010000 		.4byte	0x1fc
 1245 0232 08       		.uleb128 0x8
 1246 0233 04       		.byte	0x4
 1247 0234 04       		.byte	0x4
 1248 0235 6B       		.byte	0x6b
 1249 0236 49020000 		.4byte	0x249
 1250 023a 06       		.uleb128 0x6
 1251 023b 0E030000 		.4byte	.LASF21
 1252 023f 04       		.byte	0x4
 1253 0240 6D       		.byte	0x6d
 1254 0241 21020000 		.4byte	0x221
 1255 0245 02       		.byte	0x2
 1256 0246 23       		.byte	0x23
 1257 0247 00       		.uleb128 0x0
 1258 0248 00       		.byte	0x0
 1259 0249 04       		.uleb128 0x4
 1260 024a C0010000 		.4byte	.LASF39
 1261 024e 04       		.byte	0x4
 1262 024f 70       		.byte	0x70
 1263 0250 32020000 		.4byte	0x232
 1264 0254 04       		.uleb128 0x4
 1265 0255 F8000000 		.4byte	.LASF40
 1266 0259 06       		.byte	0x6
 1267 025a D7       		.byte	0xd7
 1268 025b 5F020000 		.4byte	0x25f
 1269 025f 0A       		.uleb128 0xa
 1270 0260 04       		.byte	0x4
 1271 0261 04       		.uleb128 0x4
 1272 0262 DE010000 		.4byte	.LASF41
 1273 0266 06       		.byte	0x6
 1274 0267 DD       		.byte	0xdd
 1275 0268 89000000 		.4byte	0x89
 1276 026c 05       		.uleb128 0x5
 1277 026d 9F030000 		.4byte	.LASF42
 1278 0271 24       		.byte	0x24
 1279 0272 06       		.byte	0x6
 1280 0273 FE       		.byte	0xfe
 1281 0274 F9020000 		.4byte	0x2f9
ARM GAS  C:\Users\z80\AppData\Local\Temp\ccIabawO.s 			page 24


 1282 0278 0B       		.uleb128 0xb
 1283 0279 723400   		.ascii	"r4\000"
 1284 027c 06       		.byte	0x6
 1285 027d 1101     		.2byte	0x111
 1286 027f 54020000 		.4byte	0x254
 1287 0283 02       		.byte	0x2
 1288 0284 23       		.byte	0x23
 1289 0285 00       		.uleb128 0x0
 1290 0286 0B       		.uleb128 0xb
 1291 0287 723500   		.ascii	"r5\000"
 1292 028a 06       		.byte	0x6
 1293 028b 1201     		.2byte	0x112
 1294 028d 54020000 		.4byte	0x254
 1295 0291 02       		.byte	0x2
 1296 0292 23       		.byte	0x23
 1297 0293 04       		.uleb128 0x4
 1298 0294 0B       		.uleb128 0xb
 1299 0295 723600   		.ascii	"r6\000"
 1300 0298 06       		.byte	0x6
 1301 0299 1301     		.2byte	0x113
 1302 029b 54020000 		.4byte	0x254
 1303 029f 02       		.byte	0x2
 1304 02a0 23       		.byte	0x23
 1305 02a1 08       		.uleb128 0x8
 1306 02a2 0B       		.uleb128 0xb
 1307 02a3 723700   		.ascii	"r7\000"
 1308 02a6 06       		.byte	0x6
 1309 02a7 1401     		.2byte	0x114
 1310 02a9 54020000 		.4byte	0x254
 1311 02ad 02       		.byte	0x2
 1312 02ae 23       		.byte	0x23
 1313 02af 0C       		.uleb128 0xc
 1314 02b0 0B       		.uleb128 0xb
 1315 02b1 723800   		.ascii	"r8\000"
 1316 02b4 06       		.byte	0x6
 1317 02b5 1501     		.2byte	0x115
 1318 02b7 54020000 		.4byte	0x254
 1319 02bb 02       		.byte	0x2
 1320 02bc 23       		.byte	0x23
 1321 02bd 10       		.uleb128 0x10
 1322 02be 0B       		.uleb128 0xb
 1323 02bf 723900   		.ascii	"r9\000"
 1324 02c2 06       		.byte	0x6
 1325 02c3 1601     		.2byte	0x116
 1326 02c5 54020000 		.4byte	0x254
 1327 02c9 02       		.byte	0x2
 1328 02ca 23       		.byte	0x23
 1329 02cb 14       		.uleb128 0x14
 1330 02cc 0B       		.uleb128 0xb
 1331 02cd 72313000 		.ascii	"r10\000"
 1332 02d1 06       		.byte	0x6
 1333 02d2 1701     		.2byte	0x117
 1334 02d4 54020000 		.4byte	0x254
 1335 02d8 02       		.byte	0x2
 1336 02d9 23       		.byte	0x23
 1337 02da 18       		.uleb128 0x18
 1338 02db 0B       		.uleb128 0xb
ARM GAS  C:\Users\z80\AppData\Local\Temp\ccIabawO.s 			page 25


 1339 02dc 72313100 		.ascii	"r11\000"
 1340 02e0 06       		.byte	0x6
 1341 02e1 1801     		.2byte	0x118
 1342 02e3 54020000 		.4byte	0x254
 1343 02e7 02       		.byte	0x2
 1344 02e8 23       		.byte	0x23
 1345 02e9 1C       		.uleb128 0x1c
 1346 02ea 0B       		.uleb128 0xb
 1347 02eb 6C7200   		.ascii	"lr\000"
 1348 02ee 06       		.byte	0x6
 1349 02ef 1901     		.2byte	0x119
 1350 02f1 54020000 		.4byte	0x254
 1351 02f5 02       		.byte	0x2
 1352 02f6 23       		.byte	0x23
 1353 02f7 20       		.uleb128 0x20
 1354 02f8 00       		.byte	0x0
 1355 02f9 0C       		.uleb128 0xc
 1356 02fa 5D010000 		.4byte	.LASF43
 1357 02fe 04       		.byte	0x4
 1358 02ff 06       		.byte	0x6
 1359 0300 2301     		.2byte	0x123
 1360 0302 16030000 		.4byte	0x316
 1361 0306 0B       		.uleb128 0xb
 1362 0307 72313300 		.ascii	"r13\000"
 1363 030b 06       		.byte	0x6
 1364 030c 2401     		.2byte	0x124
 1365 030e 16030000 		.4byte	0x316
 1366 0312 02       		.byte	0x2
 1367 0313 23       		.byte	0x23
 1368 0314 00       		.uleb128 0x0
 1369 0315 00       		.byte	0x0
 1370 0316 09       		.uleb128 0x9
 1371 0317 04       		.byte	0x4
 1372 0318 6C020000 		.4byte	0x26c
 1373 031c 0D       		.uleb128 0xd
 1374 031d 04       		.byte	0x4
 1375 031e 07       		.byte	0x7
 1376 031f 04       		.uleb128 0x4
 1377 0320 6E030000 		.4byte	.LASF44
 1378 0324 07       		.byte	0x7
 1379 0325 53       		.byte	0x53
 1380 0326 2A030000 		.4byte	0x32a
 1381 032a 09       		.uleb128 0x9
 1382 032b 04       		.byte	0x4
 1383 032c 30030000 		.4byte	0x330
 1384 0330 0E       		.uleb128 0xe
 1385 0331 01       		.byte	0x1
 1386 0332 3C030000 		.4byte	0x33c
 1387 0336 0F       		.uleb128 0xf
 1388 0337 5F020000 		.4byte	0x25f
 1389 033b 00       		.byte	0x0
 1390 033c 04       		.uleb128 0x4
 1391 033d 40030000 		.4byte	.LASF45
 1392 0341 07       		.byte	0x7
 1393 0342 58       		.byte	0x58
 1394 0343 47030000 		.4byte	0x347
 1395 0347 05       		.uleb128 0x5
ARM GAS  C:\Users\z80\AppData\Local\Temp\ccIabawO.s 			page 26


 1396 0348 40030000 		.4byte	.LASF45
 1397 034c 14       		.byte	0x14
 1398 034d 07       		.byte	0x7
 1399 034e 5F       		.byte	0x5f
 1400 034f 9A030000 		.4byte	0x39a
 1401 0353 06       		.uleb128 0x6
 1402 0354 27010000 		.4byte	.LASF46
 1403 0358 07       		.byte	0x7
 1404 0359 60       		.byte	0x60
 1405 035a 9A030000 		.4byte	0x39a
 1406 035e 02       		.byte	0x2
 1407 035f 23       		.byte	0x23
 1408 0360 00       		.uleb128 0x0
 1409 0361 06       		.uleb128 0x6
 1410 0362 01010000 		.4byte	.LASF47
 1411 0366 07       		.byte	0x7
 1412 0367 62       		.byte	0x62
 1413 0368 9A030000 		.4byte	0x39a
 1414 036c 02       		.byte	0x2
 1415 036d 23       		.byte	0x23
 1416 036e 04       		.uleb128 0x4
 1417 036f 06       		.uleb128 0x6
 1418 0370 E9010000 		.4byte	.LASF48
 1419 0374 07       		.byte	0x7
 1420 0375 64       		.byte	0x64
 1421 0376 D2000000 		.4byte	0xd2
 1422 037a 02       		.byte	0x2
 1423 037b 23       		.byte	0x23
 1424 037c 08       		.uleb128 0x8
 1425 037d 06       		.uleb128 0x6
 1426 037e F8010000 		.4byte	.LASF49
 1427 0382 07       		.byte	0x7
 1428 0383 65       		.byte	0x65
 1429 0384 1F030000 		.4byte	0x31f
 1430 0388 02       		.byte	0x2
 1431 0389 23       		.byte	0x23
 1432 038a 0C       		.uleb128 0xc
 1433 038b 06       		.uleb128 0x6
 1434 038c C2030000 		.4byte	.LASF50
 1435 0390 07       		.byte	0x7
 1436 0391 67       		.byte	0x67
 1437 0392 5F020000 		.4byte	0x25f
 1438 0396 02       		.byte	0x2
 1439 0397 23       		.byte	0x23
 1440 0398 10       		.uleb128 0x10
 1441 0399 00       		.byte	0x0
 1442 039a 09       		.uleb128 0x9
 1443 039b 04       		.byte	0x4
 1444 039c 3C030000 		.4byte	0x33c
 1445 03a0 08       		.uleb128 0x8
 1446 03a1 10       		.byte	0x10
 1447 03a2 07       		.byte	0x7
 1448 03a3 71       		.byte	0x71
 1449 03a4 E1030000 		.4byte	0x3e1
 1450 03a8 06       		.uleb128 0x6
 1451 03a9 27010000 		.4byte	.LASF46
 1452 03ad 07       		.byte	0x7
ARM GAS  C:\Users\z80\AppData\Local\Temp\ccIabawO.s 			page 27


 1453 03ae 72       		.byte	0x72
 1454 03af 9A030000 		.4byte	0x39a
 1455 03b3 02       		.byte	0x2
 1456 03b4 23       		.byte	0x23
 1457 03b5 00       		.uleb128 0x0
 1458 03b6 06       		.uleb128 0x6
 1459 03b7 01010000 		.4byte	.LASF47
 1460 03bb 07       		.byte	0x7
 1461 03bc 74       		.byte	0x74
 1462 03bd 9A030000 		.4byte	0x39a
 1463 03c1 02       		.byte	0x2
 1464 03c2 23       		.byte	0x23
 1465 03c3 04       		.uleb128 0x4
 1466 03c4 06       		.uleb128 0x6
 1467 03c5 E9010000 		.4byte	.LASF48
 1468 03c9 07       		.byte	0x7
 1469 03ca 76       		.byte	0x76
 1470 03cb D2000000 		.4byte	0xd2
 1471 03cf 02       		.byte	0x2
 1472 03d0 23       		.byte	0x23
 1473 03d1 08       		.uleb128 0x8
 1474 03d2 06       		.uleb128 0x6
 1475 03d3 27040000 		.4byte	.LASF51
 1476 03d7 07       		.byte	0x7
 1477 03d8 77       		.byte	0x77
 1478 03d9 E1030000 		.4byte	0x3e1
 1479 03dd 02       		.byte	0x2
 1480 03de 23       		.byte	0x23
 1481 03df 0C       		.uleb128 0xc
 1482 03e0 00       		.byte	0x0
 1483 03e1 10       		.uleb128 0x10
 1484 03e2 D2000000 		.4byte	0xd2
 1485 03e6 04       		.uleb128 0x4
 1486 03e7 32040000 		.4byte	.LASF52
 1487 03eb 07       		.byte	0x7
 1488 03ec 78       		.byte	0x78
 1489 03ed A0030000 		.4byte	0x3a0
 1490 03f1 08       		.uleb128 0x8
 1491 03f2 20       		.byte	0x20
 1492 03f3 08       		.byte	0x8
 1493 03f4 5E       		.byte	0x5e
 1494 03f5 5C040000 		.4byte	0x45c
 1495 03f9 06       		.uleb128 0x6
 1496 03fa 38030000 		.4byte	.LASF53
 1497 03fe 08       		.byte	0x8
 1498 03ff 5F       		.byte	0x5f
 1499 0400 27020000 		.4byte	0x227
 1500 0404 02       		.byte	0x2
 1501 0405 23       		.byte	0x23
 1502 0406 00       		.uleb128 0x0
 1503 0407 06       		.uleb128 0x6
 1504 0408 00030000 		.4byte	.LASF54
 1505 040c 08       		.byte	0x8
 1506 040d 60       		.byte	0x60
 1507 040e B1000000 		.4byte	0xb1
 1508 0412 02       		.byte	0x2
 1509 0413 23       		.byte	0x23
ARM GAS  C:\Users\z80\AppData\Local\Temp\ccIabawO.s 			page 28


 1510 0414 08       		.uleb128 0x8
 1511 0415 06       		.uleb128 0x6
 1512 0416 2D020000 		.4byte	.LASF55
 1513 041a 08       		.byte	0x8
 1514 041b 62       		.byte	0x62
 1515 041c F9020000 		.4byte	0x2f9
 1516 0420 02       		.byte	0x2
 1517 0421 23       		.byte	0x23
 1518 0422 0C       		.uleb128 0xc
 1519 0423 06       		.uleb128 0x6
 1520 0424 F0000000 		.4byte	.LASF56
 1521 0428 08       		.byte	0x8
 1522 0429 65       		.byte	0x65
 1523 042a 21020000 		.4byte	0x221
 1524 042e 02       		.byte	0x2
 1525 042f 23       		.byte	0x23
 1526 0430 10       		.uleb128 0x10
 1527 0431 06       		.uleb128 0x6
 1528 0432 75020000 		.4byte	.LASF57
 1529 0436 08       		.byte	0x8
 1530 0437 66       		.byte	0x66
 1531 0438 21020000 		.4byte	0x221
 1532 043c 02       		.byte	0x2
 1533 043d 23       		.byte	0x23
 1534 043e 14       		.uleb128 0x14
 1535 043f 06       		.uleb128 0x6
 1536 0440 39040000 		.4byte	.LASF58
 1537 0444 08       		.byte	0x8
 1538 0445 6A       		.byte	0x6a
 1539 0446 DD000000 		.4byte	0xdd
 1540 044a 02       		.byte	0x2
 1541 044b 23       		.byte	0x23
 1542 044c 18       		.uleb128 0x18
 1543 044d 06       		.uleb128 0x6
 1544 044e 6B020000 		.4byte	.LASF59
 1545 0452 08       		.byte	0x8
 1546 0453 6C       		.byte	0x6c
 1547 0454 21020000 		.4byte	0x221
 1548 0458 02       		.byte	0x2
 1549 0459 23       		.byte	0x23
 1550 045a 1C       		.uleb128 0x1c
 1551 045b 00       		.byte	0x0
 1552 045c 04       		.uleb128 0x4
 1553 045d C9030000 		.4byte	.LASF60
 1554 0461 08       		.byte	0x8
 1555 0462 6E       		.byte	0x6e
 1556 0463 F1030000 		.4byte	0x3f1
 1557 0467 05       		.uleb128 0x5
 1558 0468 D8010000 		.4byte	.LASF61
 1559 046c 10       		.byte	0x10
 1560 046d 09       		.byte	0x9
 1561 046e 2C       		.byte	0x2c
 1562 046f 9E040000 		.4byte	0x49e
 1563 0473 06       		.uleb128 0x6
 1564 0474 C0000000 		.4byte	.LASF62
 1565 0478 09       		.byte	0x9
 1566 0479 2D       		.byte	0x2d
ARM GAS  C:\Users\z80\AppData\Local\Temp\ccIabawO.s 			page 29


 1567 047a 27020000 		.4byte	0x227
 1568 047e 02       		.byte	0x2
 1569 047f 23       		.byte	0x23
 1570 0480 00       		.uleb128 0x0
 1571 0481 06       		.uleb128 0x6
 1572 0482 55040000 		.4byte	.LASF63
 1573 0486 09       		.byte	0x9
 1574 0487 2F       		.byte	0x2f
 1575 0488 21020000 		.4byte	0x221
 1576 048c 02       		.byte	0x2
 1577 048d 23       		.byte	0x23
 1578 048e 08       		.uleb128 0x8
 1579 048f 06       		.uleb128 0x6
 1580 0490 52030000 		.4byte	.LASF64
 1581 0494 09       		.byte	0x9
 1582 0495 31       		.byte	0x31
 1583 0496 9E040000 		.4byte	0x49e
 1584 049a 02       		.byte	0x2
 1585 049b 23       		.byte	0x23
 1586 049c 0C       		.uleb128 0xc
 1587 049d 00       		.byte	0x0
 1588 049e 09       		.uleb128 0x9
 1589 049f 04       		.byte	0x4
 1590 04a0 67040000 		.4byte	0x467
 1591 04a4 04       		.uleb128 0x4
 1592 04a5 D8010000 		.4byte	.LASF61
 1593 04a9 09       		.byte	0x9
 1594 04aa 33       		.byte	0x33
 1595 04ab 67040000 		.4byte	0x467
 1596 04af 11       		.uleb128 0x11
 1597 04b0 04       		.byte	0x4
 1598 04b1 05       		.byte	0x5
 1599 04b2 90       		.byte	0x90
 1600 04b3 E4040000 		.4byte	0x4e4
 1601 04b7 12       		.uleb128 0x12
 1602 04b8 11000000 		.4byte	.LASF65
 1603 04bc 05       		.byte	0x5
 1604 04bd 97       		.byte	0x97
 1605 04be BC000000 		.4byte	0xbc
 1606 04c2 12       		.uleb128 0x12
 1607 04c3 5A000000 		.4byte	.LASF66
 1608 04c7 05       		.byte	0x5
 1609 04c8 9E       		.byte	0x9e
 1610 04c9 BC000000 		.4byte	0xbc
 1611 04cd 12       		.uleb128 0x12
 1612 04ce 19040000 		.4byte	.LASF67
 1613 04d2 05       		.byte	0x5
 1614 04d3 A5       		.byte	0xa5
 1615 04d4 5F020000 		.4byte	0x25f
 1616 04d8 12       		.uleb128 0x12
 1617 04d9 07030000 		.4byte	.LASF68
 1618 04dd 05       		.byte	0x5
 1619 04de AC       		.byte	0xac
 1620 04df C7000000 		.4byte	0xc7
 1621 04e3 00       		.byte	0x0
 1622 04e4 09       		.uleb128 0x9
 1623 04e5 04       		.byte	0x4
ARM GAS  C:\Users\z80\AppData\Local\Temp\ccIabawO.s 			page 30


 1624 04e6 EA040000 		.4byte	0x4ea
 1625 04ea 13       		.uleb128 0x13
 1626 04eb EF040000 		.4byte	0x4ef
 1627 04ef 03       		.uleb128 0x3
 1628 04f0 01       		.byte	0x1
 1629 04f1 08       		.byte	0x8
 1630 04f2 4D030000 		.4byte	.LASF69
 1631 04f6 09       		.uleb128 0x9
 1632 04f7 04       		.byte	0x4
 1633 04f8 61020000 		.4byte	0x261
 1634 04fc 09       		.uleb128 0x9
 1635 04fd 04       		.byte	0x4
 1636 04fe A4040000 		.4byte	0x4a4
 1637 0502 08       		.uleb128 0x8
 1638 0503 10       		.byte	0x10
 1639 0504 0A       		.byte	0xa
 1640 0505 6C       		.byte	0x6c
 1641 0506 43050000 		.4byte	0x543
 1642 050a 06       		.uleb128 0x6
 1643 050b 9F020000 		.4byte	.LASF70
 1644 050f 0A       		.byte	0xa
 1645 0510 6D       		.byte	0x6d
 1646 0511 D2000000 		.4byte	0xd2
 1647 0515 02       		.byte	0x2
 1648 0516 23       		.byte	0x23
 1649 0517 00       		.uleb128 0x0
 1650 0518 06       		.uleb128 0x6
 1651 0519 DA000000 		.4byte	.LASF71
 1652 051d 0A       		.byte	0xa
 1653 051e 6E       		.byte	0x6e
 1654 051f 21020000 		.4byte	0x221
 1655 0523 02       		.byte	0x2
 1656 0524 23       		.byte	0x23
 1657 0525 04       		.uleb128 0x4
 1658 0526 06       		.uleb128 0x6
 1659 0527 5D040000 		.4byte	.LASF72
 1660 052b 0A       		.byte	0xa
 1661 052c 6F       		.byte	0x6f
 1662 052d 5F020000 		.4byte	0x25f
 1663 0531 02       		.byte	0x2
 1664 0532 23       		.byte	0x23
 1665 0533 08       		.uleb128 0x8
 1666 0534 06       		.uleb128 0x6
 1667 0535 51000000 		.4byte	.LASF73
 1668 0539 0A       		.byte	0xa
 1669 053a 70       		.byte	0x70
 1670 053b 3E000000 		.4byte	0x3e
 1671 053f 02       		.byte	0x2
 1672 0540 23       		.byte	0x23
 1673 0541 0C       		.uleb128 0xc
 1674 0542 00       		.byte	0x0
 1675 0543 04       		.uleb128 0x4
 1676 0544 16020000 		.4byte	.LASF74
 1677 0548 0A       		.byte	0xa
 1678 0549 71       		.byte	0x71
 1679 054a 02050000 		.4byte	0x502
 1680 054e 14       		.uleb128 0x14
ARM GAS  C:\Users\z80\AppData\Local\Temp\ccIabawO.s 			page 31


 1681 054f 0804     		.2byte	0x408
 1682 0551 0A       		.byte	0xa
 1683 0552 76       		.byte	0x76
 1684 0553 82050000 		.4byte	0x582
 1685 0557 06       		.uleb128 0x6
 1686 0558 E8000000 		.4byte	.LASF75
 1687 055c 0A       		.byte	0xa
 1688 055d 77       		.byte	0x77
 1689 055e 30000000 		.4byte	0x30
 1690 0562 02       		.byte	0x2
 1691 0563 23       		.byte	0x23
 1692 0564 00       		.uleb128 0x0
 1693 0565 06       		.uleb128 0x6
 1694 0566 F1010000 		.4byte	.LASF76
 1695 056a 0A       		.byte	0xa
 1696 056b 78       		.byte	0x78
 1697 056c 82050000 		.4byte	0x582
 1698 0570 02       		.byte	0x2
 1699 0571 23       		.byte	0x23
 1700 0572 04       		.uleb128 0x4
 1701 0573 06       		.uleb128 0x6
 1702 0574 A7020000 		.4byte	.LASF77
 1703 0578 0A       		.byte	0xa
 1704 0579 7A       		.byte	0x7a
 1705 057a 88050000 		.4byte	0x588
 1706 057e 02       		.byte	0x2
 1707 057f 23       		.byte	0x23
 1708 0580 08       		.uleb128 0x8
 1709 0581 00       		.byte	0x0
 1710 0582 09       		.uleb128 0x9
 1711 0583 04       		.byte	0x4
 1712 0584 43050000 		.4byte	0x543
 1713 0588 15       		.uleb128 0x15
 1714 0589 43050000 		.4byte	0x543
 1715 058d 98050000 		.4byte	0x598
 1716 0591 16       		.uleb128 0x16
 1717 0592 1C030000 		.4byte	0x31c
 1718 0596 3F       		.byte	0x3f
 1719 0597 00       		.byte	0x0
 1720 0598 04       		.uleb128 0x4
 1721 0599 3F000000 		.4byte	.LASF78
 1722 059d 0A       		.byte	0xa
 1723 059e 7B       		.byte	0x7b
 1724 059f 4E050000 		.4byte	0x54e
 1725 05a3 17       		.uleb128 0x17
 1726 05a4 01       		.byte	0x1
 1727 05a5 43040000 		.4byte	.LASF79
 1728 05a9 01       		.byte	0x1
 1729 05aa 51       		.byte	0x51
 1730 05ab 01       		.byte	0x1
 1731 05ac 00000000 		.4byte	.LFB7
 1732 05b0 2C000000 		.4byte	.LFE7
 1733 05b4 00000000 		.4byte	.LLST0
 1734 05b8 17       		.uleb128 0x17
 1735 05b9 01       		.byte	0x1
 1736 05ba 4B010000 		.4byte	.LASF80
 1737 05be 01       		.byte	0x1
ARM GAS  C:\Users\z80\AppData\Local\Temp\ccIabawO.s 			page 32


 1738 05bf 5C       		.byte	0x5c
 1739 05c0 01       		.byte	0x1
 1740 05c1 00000000 		.4byte	.LFB8
 1741 05c5 2C000000 		.4byte	.LFE8
 1742 05c9 20000000 		.4byte	.LLST1
 1743 05cd 17       		.uleb128 0x17
 1744 05ce 01       		.byte	0x1
 1745 05cf B1030000 		.4byte	.LASF81
 1746 05d3 01       		.byte	0x1
 1747 05d4 67       		.byte	0x67
 1748 05d5 01       		.byte	0x1
 1749 05d6 00000000 		.4byte	.LFB9
 1750 05da 2C000000 		.4byte	.LFE9
 1751 05de 40000000 		.4byte	.LLST2
 1752 05e2 17       		.uleb128 0x17
 1753 05e3 01       		.byte	0x1
 1754 05e4 00020000 		.4byte	.LASF82
 1755 05e8 01       		.byte	0x1
 1756 05e9 72       		.byte	0x72
 1757 05ea 01       		.byte	0x1
 1758 05eb 00000000 		.4byte	.LFB10
 1759 05ef 3A000000 		.4byte	.LFE10
 1760 05f3 60000000 		.4byte	.LLST3
 1761 05f7 17       		.uleb128 0x17
 1762 05f8 01       		.byte	0x1
 1763 05f9 7D020000 		.4byte	.LASF83
 1764 05fd 01       		.byte	0x1
 1765 05fe 7E       		.byte	0x7e
 1766 05ff 01       		.byte	0x1
 1767 0600 00000000 		.4byte	.LFB11
 1768 0604 3A000000 		.4byte	.LFE11
 1769 0608 80000000 		.4byte	.LLST4
 1770 060c 17       		.uleb128 0x17
 1771 060d 01       		.byte	0x1
 1772 060e F5030000 		.4byte	.LASF84
 1773 0612 01       		.byte	0x1
 1774 0613 8A       		.byte	0x8a
 1775 0614 01       		.byte	0x1
 1776 0615 00000000 		.4byte	.LFB12
 1777 0619 3A000000 		.4byte	.LFE12
 1778 061d A0000000 		.4byte	.LLST5
 1779 0621 17       		.uleb128 0x17
 1780 0622 01       		.byte	0x1
 1781 0623 A6000000 		.4byte	.LASF85
 1782 0627 01       		.byte	0x1
 1783 0628 96       		.byte	0x96
 1784 0629 01       		.byte	0x1
 1785 062a 00000000 		.4byte	.LFB13
 1786 062e 3A000000 		.4byte	.LFE13
 1787 0632 C0000000 		.4byte	.LLST6
 1788 0636 18       		.uleb128 0x18
 1789 0637 01       		.byte	0x1
 1790 0638 D3030000 		.4byte	.LASF86
 1791 063c 01       		.byte	0x1
 1792 063d A2       		.byte	0xa2
 1793 063e 01       		.byte	0x1
 1794 063f 00000000 		.4byte	.LFB14
ARM GAS  C:\Users\z80\AppData\Local\Temp\ccIabawO.s 			page 33


 1795 0643 54000000 		.4byte	.LFE14
 1796 0647 E0000000 		.4byte	.LLST7
 1797 064b 82060000 		.4byte	0x682
 1798 064f 19       		.uleb128 0x19
 1799 0650 02000000 		.4byte	.LBB2
 1800 0654 0A000000 		.4byte	.LBE2
 1801 0658 6A060000 		.4byte	0x66a
 1802 065c 1A       		.uleb128 0x1a
 1803 065d 746D7000 		.ascii	"tmp\000"
 1804 0661 01       		.byte	0x1
 1805 0662 A4       		.byte	0xa4
 1806 0663 70000000 		.4byte	0x70
 1807 0667 01       		.byte	0x1
 1808 0668 53       		.byte	0x53
 1809 0669 00       		.byte	0x0
 1810 066a 1B       		.uleb128 0x1b
 1811 066b 4A000000 		.4byte	.LBB3
 1812 066f 52000000 		.4byte	.LBE3
 1813 0673 1A       		.uleb128 0x1a
 1814 0674 746D7000 		.ascii	"tmp\000"
 1815 0678 01       		.byte	0x1
 1816 0679 A8       		.byte	0xa8
 1817 067a 70000000 		.4byte	0x70
 1818 067e 01       		.byte	0x1
 1819 067f 53       		.byte	0x53
 1820 0680 00       		.byte	0x0
 1821 0681 00       		.byte	0x0
 1822 0682 18       		.uleb128 0x18
 1823 0683 01       		.byte	0x1
 1824 0684 8B030000 		.4byte	.LASF87
 1825 0688 01       		.byte	0x1
 1826 0689 B0       		.byte	0xb0
 1827 068a 01       		.byte	0x1
 1828 068b 00000000 		.4byte	.LFB15
 1829 068f 54000000 		.4byte	.LFE15
 1830 0693 00010000 		.4byte	.LLST8
 1831 0697 CE060000 		.4byte	0x6ce
 1832 069b 19       		.uleb128 0x19
 1833 069c 02000000 		.4byte	.LBB4
 1834 06a0 0A000000 		.4byte	.LBE4
 1835 06a4 B6060000 		.4byte	0x6b6
 1836 06a8 1A       		.uleb128 0x1a
 1837 06a9 746D7000 		.ascii	"tmp\000"
 1838 06ad 01       		.byte	0x1
 1839 06ae B2       		.byte	0xb2
 1840 06af 70000000 		.4byte	0x70
 1841 06b3 01       		.byte	0x1
 1842 06b4 53       		.byte	0x53
 1843 06b5 00       		.byte	0x0
 1844 06b6 1B       		.uleb128 0x1b
 1845 06b7 4A000000 		.4byte	.LBB5
 1846 06bb 52000000 		.4byte	.LBE5
 1847 06bf 1A       		.uleb128 0x1a
 1848 06c0 746D7000 		.ascii	"tmp\000"
 1849 06c4 01       		.byte	0x1
 1850 06c5 B6       		.byte	0xb6
 1851 06c6 70000000 		.4byte	0x70
ARM GAS  C:\Users\z80\AppData\Local\Temp\ccIabawO.s 			page 34


 1852 06ca 01       		.byte	0x1
 1853 06cb 53       		.byte	0x53
 1854 06cc 00       		.byte	0x0
 1855 06cd 00       		.byte	0x0
 1856 06ce 17       		.uleb128 0x17
 1857 06cf 01       		.byte	0x1
 1858 06d0 8A010000 		.4byte	.LASF88
 1859 06d4 01       		.byte	0x1
 1860 06d5 C1       		.byte	0xc1
 1861 06d6 01       		.byte	0x1
 1862 06d7 00000000 		.4byte	.LFB16
 1863 06db 2C000000 		.4byte	.LFE16
 1864 06df 20010000 		.4byte	.LLST9
 1865 06e3 17       		.uleb128 0x17
 1866 06e4 01       		.byte	0x1
 1867 06e5 AF010000 		.4byte	.LASF89
 1868 06e9 01       		.byte	0x1
 1869 06ea CF       		.byte	0xcf
 1870 06eb 01       		.byte	0x1
 1871 06ec 00000000 		.4byte	.LFB17
 1872 06f0 2C000000 		.4byte	.LFE17
 1873 06f4 40010000 		.4byte	.LLST10
 1874 06f8 1C       		.uleb128 0x1c
 1875 06f9 01       		.byte	0x1
 1876 06fa 78010000 		.4byte	.LASF90
 1877 06fe 01       		.byte	0x1
 1878 06ff E5       		.byte	0xe5
 1879 0700 01       		.byte	0x1
 1880 0701 00000000 		.4byte	.LFB18
 1881 0705 20000000 		.4byte	.LFE18
 1882 0709 02       		.byte	0x2
 1883 070a 7D       		.byte	0x7d
 1884 070b 00       		.sleb128 0
 1885 070c 18       		.uleb128 0x18
 1886 070d 01       		.byte	0x1
 1887 070e 2F010000 		.4byte	.LASF91
 1888 0712 01       		.byte	0x1
 1889 0713 F2       		.byte	0xf2
 1890 0714 01       		.byte	0x1
 1891 0715 00000000 		.4byte	.LFB19
 1892 0719 94000000 		.4byte	.LFE19
 1893 071d 60010000 		.4byte	.LLST11
 1894 0721 34070000 		.4byte	0x734
 1895 0725 1D       		.uleb128 0x1d
 1896 0726 6F747000 		.ascii	"otp\000"
 1897 072a 01       		.byte	0x1
 1898 072b F2       		.byte	0xf2
 1899 072c 21020000 		.4byte	0x221
 1900 0730 02       		.byte	0x2
 1901 0731 91       		.byte	0x91
 1902 0732 7C       		.sleb128 -4
 1903 0733 00       		.byte	0x0
 1904 0734 1E       		.uleb128 0x1e
 1905 0735 01       		.byte	0x1
 1906 0736 06000000 		.4byte	.LASF92
 1907 073a 01       		.byte	0x1
 1908 073b 0F01     		.2byte	0x10f
ARM GAS  C:\Users\z80\AppData\Local\Temp\ccIabawO.s 			page 35


 1909 073d 01       		.byte	0x1
 1910 073e 00000000 		.4byte	.LFB20
 1911 0742 1A000000 		.4byte	.LFE20
 1912 0746 80010000 		.4byte	.LLST12
 1913 074a 5E070000 		.4byte	0x75e
 1914 074e 1F       		.uleb128 0x1f
 1915 074f 6D736700 		.ascii	"msg\000"
 1916 0753 01       		.byte	0x1
 1917 0754 0F01     		.2byte	0x10f
 1918 0756 5E070000 		.4byte	0x75e
 1919 075a 02       		.byte	0x2
 1920 075b 91       		.byte	0x91
 1921 075c 74       		.sleb128 -12
 1922 075d 00       		.byte	0x0
 1923 075e 09       		.uleb128 0x9
 1924 075f 04       		.byte	0x4
 1925 0760 EF040000 		.4byte	0x4ef
 1926 0764 20       		.uleb128 0x20
 1927 0765 21000000 		.4byte	.LASF93
 1928 0769 07       		.byte	0x7
 1929 076a 7A       		.byte	0x7a
 1930 076b E6030000 		.4byte	0x3e6
 1931 076f 01       		.byte	0x1
 1932 0770 01       		.byte	0x1
 1933 0771 20       		.uleb128 0x20
 1934 0772 E7030000 		.4byte	.LASF94
 1935 0776 08       		.byte	0x8
 1936 0777 72       		.byte	0x72
 1937 0778 5C040000 		.4byte	0x45c
 1938 077c 01       		.byte	0x1
 1939 077d 01       		.byte	0x1
 1940 077e 20       		.uleb128 0x20
 1941 077f 8E020000 		.4byte	.LASF95
 1942 0783 0A       		.byte	0xa
 1943 0784 7E       		.byte	0x7e
 1944 0785 98050000 		.4byte	0x598
 1945 0789 01       		.byte	0x1
 1946 078a 01       		.byte	0x1
 1947 078b 20       		.uleb128 0x20
 1948 078c D6020000 		.4byte	.LASF96
 1949 0790 0A       		.byte	0xa
 1950 0791 CF       		.byte	0xcf
 1951 0792 5E070000 		.4byte	0x75e
 1952 0796 01       		.byte	0x1
 1953 0797 01       		.byte	0x1
 1954 0798 20       		.uleb128 0x20
 1955 0799 A3010000 		.4byte	.LASF97
 1956 079d 01       		.byte	0x1
 1957 079e 45       		.byte	0x45
 1958 079f DD000000 		.4byte	0xdd
 1959 07a3 01       		.byte	0x1
 1960 07a4 01       		.byte	0x1
 1961 07a5 20       		.uleb128 0x20
 1962 07a6 77030000 		.4byte	.LASF98
 1963 07aa 01       		.byte	0x1
 1964 07ab 4A       		.byte	0x4a
 1965 07ac DD000000 		.4byte	0xdd
ARM GAS  C:\Users\z80\AppData\Local\Temp\ccIabawO.s 			page 36


 1966 07b0 01       		.byte	0x1
 1967 07b1 01       		.byte	0x1
 1968 07b2 20       		.uleb128 0x20
 1969 07b3 21000000 		.4byte	.LASF93
 1970 07b7 07       		.byte	0x7
 1971 07b8 7A       		.byte	0x7a
 1972 07b9 E6030000 		.4byte	0x3e6
 1973 07bd 01       		.byte	0x1
 1974 07be 01       		.byte	0x1
 1975 07bf 20       		.uleb128 0x20
 1976 07c0 E7030000 		.4byte	.LASF94
 1977 07c4 08       		.byte	0x8
 1978 07c5 72       		.byte	0x72
 1979 07c6 5C040000 		.4byte	0x45c
 1980 07ca 01       		.byte	0x1
 1981 07cb 01       		.byte	0x1
 1982 07cc 21       		.uleb128 0x21
 1983 07cd 8E020000 		.4byte	.LASF95
 1984 07d1 01       		.byte	0x1
 1985 07d2 DF       		.byte	0xdf
 1986 07d3 98050000 		.4byte	0x598
 1987 07d7 01       		.byte	0x1
 1988 07d8 05       		.byte	0x5
 1989 07d9 03       		.byte	0x3
 1990 07da 00000000 		.4byte	dbg_trace_buffer
 1991 07de 22       		.uleb128 0x22
 1992 07df D6020000 		.4byte	.LASF96
 1993 07e3 01       		.byte	0x1
 1994 07e4 0801     		.2byte	0x108
 1995 07e6 5E070000 		.4byte	0x75e
 1996 07ea 01       		.byte	0x1
 1997 07eb 05       		.byte	0x5
 1998 07ec 03       		.byte	0x3
 1999 07ed 00000000 		.4byte	dbg_panic_msg
 2000 07f1 21       		.uleb128 0x21
 2001 07f2 A3010000 		.4byte	.LASF97
 2002 07f6 01       		.byte	0x1
 2003 07f7 45       		.byte	0x45
 2004 07f8 DD000000 		.4byte	0xdd
 2005 07fc 01       		.byte	0x1
 2006 07fd 05       		.byte	0x5
 2007 07fe 03       		.byte	0x3
 2008 07ff 00000000 		.4byte	dbg_isr_cnt
 2009 0803 21       		.uleb128 0x21
 2010 0804 77030000 		.4byte	.LASF98
 2011 0808 01       		.byte	0x1
 2012 0809 4A       		.byte	0x4a
 2013 080a DD000000 		.4byte	0xdd
 2014 080e 01       		.byte	0x1
 2015 080f 05       		.byte	0x5
 2016 0810 03       		.byte	0x3
 2017 0811 00000000 		.4byte	dbg_lock_cnt
 2018 0815 00       		.byte	0x0
 2019              		.section	.debug_abbrev
 2020 0000 01       		.uleb128 0x1
 2021 0001 11       		.uleb128 0x11
 2022 0002 01       		.byte	0x1
ARM GAS  C:\Users\z80\AppData\Local\Temp\ccIabawO.s 			page 37


 2023 0003 25       		.uleb128 0x25
 2024 0004 0E       		.uleb128 0xe
 2025 0005 13       		.uleb128 0x13
 2026 0006 0B       		.uleb128 0xb
 2027 0007 03       		.uleb128 0x3
 2028 0008 0E       		.uleb128 0xe
 2029 0009 1B       		.uleb128 0x1b
 2030 000a 0E       		.uleb128 0xe
 2031 000b 11       		.uleb128 0x11
 2032 000c 01       		.uleb128 0x1
 2033 000d 52       		.uleb128 0x52
 2034 000e 01       		.uleb128 0x1
 2035 000f 55       		.uleb128 0x55
 2036 0010 06       		.uleb128 0x6
 2037 0011 10       		.uleb128 0x10
 2038 0012 06       		.uleb128 0x6
 2039 0013 00       		.byte	0x0
 2040 0014 00       		.byte	0x0
 2041 0015 02       		.uleb128 0x2
 2042 0016 24       		.uleb128 0x24
 2043 0017 00       		.byte	0x0
 2044 0018 0B       		.uleb128 0xb
 2045 0019 0B       		.uleb128 0xb
 2046 001a 3E       		.uleb128 0x3e
 2047 001b 0B       		.uleb128 0xb
 2048 001c 03       		.uleb128 0x3
 2049 001d 08       		.uleb128 0x8
 2050 001e 00       		.byte	0x0
 2051 001f 00       		.byte	0x0
 2052 0020 03       		.uleb128 0x3
 2053 0021 24       		.uleb128 0x24
 2054 0022 00       		.byte	0x0
 2055 0023 0B       		.uleb128 0xb
 2056 0024 0B       		.uleb128 0xb
 2057 0025 3E       		.uleb128 0x3e
 2058 0026 0B       		.uleb128 0xb
 2059 0027 03       		.uleb128 0x3
 2060 0028 0E       		.uleb128 0xe
 2061 0029 00       		.byte	0x0
 2062 002a 00       		.byte	0x0
 2063 002b 04       		.uleb128 0x4
 2064 002c 16       		.uleb128 0x16
 2065 002d 00       		.byte	0x0
 2066 002e 03       		.uleb128 0x3
 2067 002f 0E       		.uleb128 0xe
 2068 0030 3A       		.uleb128 0x3a
 2069 0031 0B       		.uleb128 0xb
 2070 0032 3B       		.uleb128 0x3b
 2071 0033 0B       		.uleb128 0xb
 2072 0034 49       		.uleb128 0x49
 2073 0035 13       		.uleb128 0x13
 2074 0036 00       		.byte	0x0
 2075 0037 00       		.byte	0x0
 2076 0038 05       		.uleb128 0x5
 2077 0039 13       		.uleb128 0x13
 2078 003a 01       		.byte	0x1
 2079 003b 03       		.uleb128 0x3
ARM GAS  C:\Users\z80\AppData\Local\Temp\ccIabawO.s 			page 38


 2080 003c 0E       		.uleb128 0xe
 2081 003d 0B       		.uleb128 0xb
 2082 003e 0B       		.uleb128 0xb
 2083 003f 3A       		.uleb128 0x3a
 2084 0040 0B       		.uleb128 0xb
 2085 0041 3B       		.uleb128 0x3b
 2086 0042 0B       		.uleb128 0xb
 2087 0043 01       		.uleb128 0x1
 2088 0044 13       		.uleb128 0x13
 2089 0045 00       		.byte	0x0
 2090 0046 00       		.byte	0x0
 2091 0047 06       		.uleb128 0x6
 2092 0048 0D       		.uleb128 0xd
 2093 0049 00       		.byte	0x0
 2094 004a 03       		.uleb128 0x3
 2095 004b 0E       		.uleb128 0xe
 2096 004c 3A       		.uleb128 0x3a
 2097 004d 0B       		.uleb128 0xb
 2098 004e 3B       		.uleb128 0x3b
 2099 004f 0B       		.uleb128 0xb
 2100 0050 49       		.uleb128 0x49
 2101 0051 13       		.uleb128 0x13
 2102 0052 38       		.uleb128 0x38
 2103 0053 0A       		.uleb128 0xa
 2104 0054 00       		.byte	0x0
 2105 0055 00       		.byte	0x0
 2106 0056 07       		.uleb128 0x7
 2107 0057 0D       		.uleb128 0xd
 2108 0058 00       		.byte	0x0
 2109 0059 03       		.uleb128 0x3
 2110 005a 08       		.uleb128 0x8
 2111 005b 3A       		.uleb128 0x3a
 2112 005c 0B       		.uleb128 0xb
 2113 005d 3B       		.uleb128 0x3b
 2114 005e 0B       		.uleb128 0xb
 2115 005f 49       		.uleb128 0x49
 2116 0060 13       		.uleb128 0x13
 2117 0061 38       		.uleb128 0x38
 2118 0062 0A       		.uleb128 0xa
 2119 0063 00       		.byte	0x0
 2120 0064 00       		.byte	0x0
 2121 0065 08       		.uleb128 0x8
 2122 0066 13       		.uleb128 0x13
 2123 0067 01       		.byte	0x1
 2124 0068 0B       		.uleb128 0xb
 2125 0069 0B       		.uleb128 0xb
 2126 006a 3A       		.uleb128 0x3a
 2127 006b 0B       		.uleb128 0xb
 2128 006c 3B       		.uleb128 0x3b
 2129 006d 0B       		.uleb128 0xb
 2130 006e 01       		.uleb128 0x1
 2131 006f 13       		.uleb128 0x13
 2132 0070 00       		.byte	0x0
 2133 0071 00       		.byte	0x0
 2134 0072 09       		.uleb128 0x9
 2135 0073 0F       		.uleb128 0xf
 2136 0074 00       		.byte	0x0
ARM GAS  C:\Users\z80\AppData\Local\Temp\ccIabawO.s 			page 39


 2137 0075 0B       		.uleb128 0xb
 2138 0076 0B       		.uleb128 0xb
 2139 0077 49       		.uleb128 0x49
 2140 0078 13       		.uleb128 0x13
 2141 0079 00       		.byte	0x0
 2142 007a 00       		.byte	0x0
 2143 007b 0A       		.uleb128 0xa
 2144 007c 0F       		.uleb128 0xf
 2145 007d 00       		.byte	0x0
 2146 007e 0B       		.uleb128 0xb
 2147 007f 0B       		.uleb128 0xb
 2148 0080 00       		.byte	0x0
 2149 0081 00       		.byte	0x0
 2150 0082 0B       		.uleb128 0xb
 2151 0083 0D       		.uleb128 0xd
 2152 0084 00       		.byte	0x0
 2153 0085 03       		.uleb128 0x3
 2154 0086 08       		.uleb128 0x8
 2155 0087 3A       		.uleb128 0x3a
 2156 0088 0B       		.uleb128 0xb
 2157 0089 3B       		.uleb128 0x3b
 2158 008a 05       		.uleb128 0x5
 2159 008b 49       		.uleb128 0x49
 2160 008c 13       		.uleb128 0x13
 2161 008d 38       		.uleb128 0x38
 2162 008e 0A       		.uleb128 0xa
 2163 008f 00       		.byte	0x0
 2164 0090 00       		.byte	0x0
 2165 0091 0C       		.uleb128 0xc
 2166 0092 13       		.uleb128 0x13
 2167 0093 01       		.byte	0x1
 2168 0094 03       		.uleb128 0x3
 2169 0095 0E       		.uleb128 0xe
 2170 0096 0B       		.uleb128 0xb
 2171 0097 0B       		.uleb128 0xb
 2172 0098 3A       		.uleb128 0x3a
 2173 0099 0B       		.uleb128 0xb
 2174 009a 3B       		.uleb128 0x3b
 2175 009b 05       		.uleb128 0x5
 2176 009c 01       		.uleb128 0x1
 2177 009d 13       		.uleb128 0x13
 2178 009e 00       		.byte	0x0
 2179 009f 00       		.byte	0x0
 2180 00a0 0D       		.uleb128 0xd
 2181 00a1 24       		.uleb128 0x24
 2182 00a2 00       		.byte	0x0
 2183 00a3 0B       		.uleb128 0xb
 2184 00a4 0B       		.uleb128 0xb
 2185 00a5 3E       		.uleb128 0x3e
 2186 00a6 0B       		.uleb128 0xb
 2187 00a7 00       		.byte	0x0
 2188 00a8 00       		.byte	0x0
 2189 00a9 0E       		.uleb128 0xe
 2190 00aa 15       		.uleb128 0x15
 2191 00ab 01       		.byte	0x1
 2192 00ac 27       		.uleb128 0x27
 2193 00ad 0C       		.uleb128 0xc
ARM GAS  C:\Users\z80\AppData\Local\Temp\ccIabawO.s 			page 40


 2194 00ae 01       		.uleb128 0x1
 2195 00af 13       		.uleb128 0x13
 2196 00b0 00       		.byte	0x0
 2197 00b1 00       		.byte	0x0
 2198 00b2 0F       		.uleb128 0xf
 2199 00b3 05       		.uleb128 0x5
 2200 00b4 00       		.byte	0x0
 2201 00b5 49       		.uleb128 0x49
 2202 00b6 13       		.uleb128 0x13
 2203 00b7 00       		.byte	0x0
 2204 00b8 00       		.byte	0x0
 2205 00b9 10       		.uleb128 0x10
 2206 00ba 35       		.uleb128 0x35
 2207 00bb 00       		.byte	0x0
 2208 00bc 49       		.uleb128 0x49
 2209 00bd 13       		.uleb128 0x13
 2210 00be 00       		.byte	0x0
 2211 00bf 00       		.byte	0x0
 2212 00c0 11       		.uleb128 0x11
 2213 00c1 17       		.uleb128 0x17
 2214 00c2 01       		.byte	0x1
 2215 00c3 0B       		.uleb128 0xb
 2216 00c4 0B       		.uleb128 0xb
 2217 00c5 3A       		.uleb128 0x3a
 2218 00c6 0B       		.uleb128 0xb
 2219 00c7 3B       		.uleb128 0x3b
 2220 00c8 0B       		.uleb128 0xb
 2221 00c9 01       		.uleb128 0x1
 2222 00ca 13       		.uleb128 0x13
 2223 00cb 00       		.byte	0x0
 2224 00cc 00       		.byte	0x0
 2225 00cd 12       		.uleb128 0x12
 2226 00ce 0D       		.uleb128 0xd
 2227 00cf 00       		.byte	0x0
 2228 00d0 03       		.uleb128 0x3
 2229 00d1 0E       		.uleb128 0xe
 2230 00d2 3A       		.uleb128 0x3a
 2231 00d3 0B       		.uleb128 0xb
 2232 00d4 3B       		.uleb128 0x3b
 2233 00d5 0B       		.uleb128 0xb
 2234 00d6 49       		.uleb128 0x49
 2235 00d7 13       		.uleb128 0x13
 2236 00d8 00       		.byte	0x0
 2237 00d9 00       		.byte	0x0
 2238 00da 13       		.uleb128 0x13
 2239 00db 26       		.uleb128 0x26
 2240 00dc 00       		.byte	0x0
 2241 00dd 49       		.uleb128 0x49
 2242 00de 13       		.uleb128 0x13
 2243 00df 00       		.byte	0x0
 2244 00e0 00       		.byte	0x0
 2245 00e1 14       		.uleb128 0x14
 2246 00e2 13       		.uleb128 0x13
 2247 00e3 01       		.byte	0x1
 2248 00e4 0B       		.uleb128 0xb
 2249 00e5 05       		.uleb128 0x5
 2250 00e6 3A       		.uleb128 0x3a
ARM GAS  C:\Users\z80\AppData\Local\Temp\ccIabawO.s 			page 41


 2251 00e7 0B       		.uleb128 0xb
 2252 00e8 3B       		.uleb128 0x3b
 2253 00e9 0B       		.uleb128 0xb
 2254 00ea 01       		.uleb128 0x1
 2255 00eb 13       		.uleb128 0x13
 2256 00ec 00       		.byte	0x0
 2257 00ed 00       		.byte	0x0
 2258 00ee 15       		.uleb128 0x15
 2259 00ef 01       		.uleb128 0x1
 2260 00f0 01       		.byte	0x1
 2261 00f1 49       		.uleb128 0x49
 2262 00f2 13       		.uleb128 0x13
 2263 00f3 01       		.uleb128 0x1
 2264 00f4 13       		.uleb128 0x13
 2265 00f5 00       		.byte	0x0
 2266 00f6 00       		.byte	0x0
 2267 00f7 16       		.uleb128 0x16
 2268 00f8 21       		.uleb128 0x21
 2269 00f9 00       		.byte	0x0
 2270 00fa 49       		.uleb128 0x49
 2271 00fb 13       		.uleb128 0x13
 2272 00fc 2F       		.uleb128 0x2f
 2273 00fd 0B       		.uleb128 0xb
 2274 00fe 00       		.byte	0x0
 2275 00ff 00       		.byte	0x0
 2276 0100 17       		.uleb128 0x17
 2277 0101 2E       		.uleb128 0x2e
 2278 0102 00       		.byte	0x0
 2279 0103 3F       		.uleb128 0x3f
 2280 0104 0C       		.uleb128 0xc
 2281 0105 03       		.uleb128 0x3
 2282 0106 0E       		.uleb128 0xe
 2283 0107 3A       		.uleb128 0x3a
 2284 0108 0B       		.uleb128 0xb
 2285 0109 3B       		.uleb128 0x3b
 2286 010a 0B       		.uleb128 0xb
 2287 010b 27       		.uleb128 0x27
 2288 010c 0C       		.uleb128 0xc
 2289 010d 11       		.uleb128 0x11
 2290 010e 01       		.uleb128 0x1
 2291 010f 12       		.uleb128 0x12
 2292 0110 01       		.uleb128 0x1
 2293 0111 40       		.uleb128 0x40
 2294 0112 06       		.uleb128 0x6
 2295 0113 00       		.byte	0x0
 2296 0114 00       		.byte	0x0
 2297 0115 18       		.uleb128 0x18
 2298 0116 2E       		.uleb128 0x2e
 2299 0117 01       		.byte	0x1
 2300 0118 3F       		.uleb128 0x3f
 2301 0119 0C       		.uleb128 0xc
 2302 011a 03       		.uleb128 0x3
 2303 011b 0E       		.uleb128 0xe
 2304 011c 3A       		.uleb128 0x3a
 2305 011d 0B       		.uleb128 0xb
 2306 011e 3B       		.uleb128 0x3b
 2307 011f 0B       		.uleb128 0xb
ARM GAS  C:\Users\z80\AppData\Local\Temp\ccIabawO.s 			page 42


 2308 0120 27       		.uleb128 0x27
 2309 0121 0C       		.uleb128 0xc
 2310 0122 11       		.uleb128 0x11
 2311 0123 01       		.uleb128 0x1
 2312 0124 12       		.uleb128 0x12
 2313 0125 01       		.uleb128 0x1
 2314 0126 40       		.uleb128 0x40
 2315 0127 06       		.uleb128 0x6
 2316 0128 01       		.uleb128 0x1
 2317 0129 13       		.uleb128 0x13
 2318 012a 00       		.byte	0x0
 2319 012b 00       		.byte	0x0
 2320 012c 19       		.uleb128 0x19
 2321 012d 0B       		.uleb128 0xb
 2322 012e 01       		.byte	0x1
 2323 012f 11       		.uleb128 0x11
 2324 0130 01       		.uleb128 0x1
 2325 0131 12       		.uleb128 0x12
 2326 0132 01       		.uleb128 0x1
 2327 0133 01       		.uleb128 0x1
 2328 0134 13       		.uleb128 0x13
 2329 0135 00       		.byte	0x0
 2330 0136 00       		.byte	0x0
 2331 0137 1A       		.uleb128 0x1a
 2332 0138 34       		.uleb128 0x34
 2333 0139 00       		.byte	0x0
 2334 013a 03       		.uleb128 0x3
 2335 013b 08       		.uleb128 0x8
 2336 013c 3A       		.uleb128 0x3a
 2337 013d 0B       		.uleb128 0xb
 2338 013e 3B       		.uleb128 0x3b
 2339 013f 0B       		.uleb128 0xb
 2340 0140 49       		.uleb128 0x49
 2341 0141 13       		.uleb128 0x13
 2342 0142 02       		.uleb128 0x2
 2343 0143 0A       		.uleb128 0xa
 2344 0144 00       		.byte	0x0
 2345 0145 00       		.byte	0x0
 2346 0146 1B       		.uleb128 0x1b
 2347 0147 0B       		.uleb128 0xb
 2348 0148 01       		.byte	0x1
 2349 0149 11       		.uleb128 0x11
 2350 014a 01       		.uleb128 0x1
 2351 014b 12       		.uleb128 0x12
 2352 014c 01       		.uleb128 0x1
 2353 014d 00       		.byte	0x0
 2354 014e 00       		.byte	0x0
 2355 014f 1C       		.uleb128 0x1c
 2356 0150 2E       		.uleb128 0x2e
 2357 0151 00       		.byte	0x0
 2358 0152 3F       		.uleb128 0x3f
 2359 0153 0C       		.uleb128 0xc
 2360 0154 03       		.uleb128 0x3
 2361 0155 0E       		.uleb128 0xe
 2362 0156 3A       		.uleb128 0x3a
 2363 0157 0B       		.uleb128 0xb
 2364 0158 3B       		.uleb128 0x3b
ARM GAS  C:\Users\z80\AppData\Local\Temp\ccIabawO.s 			page 43


 2365 0159 0B       		.uleb128 0xb
 2366 015a 27       		.uleb128 0x27
 2367 015b 0C       		.uleb128 0xc
 2368 015c 11       		.uleb128 0x11
 2369 015d 01       		.uleb128 0x1
 2370 015e 12       		.uleb128 0x12
 2371 015f 01       		.uleb128 0x1
 2372 0160 40       		.uleb128 0x40
 2373 0161 0A       		.uleb128 0xa
 2374 0162 00       		.byte	0x0
 2375 0163 00       		.byte	0x0
 2376 0164 1D       		.uleb128 0x1d
 2377 0165 05       		.uleb128 0x5
 2378 0166 00       		.byte	0x0
 2379 0167 03       		.uleb128 0x3
 2380 0168 08       		.uleb128 0x8
 2381 0169 3A       		.uleb128 0x3a
 2382 016a 0B       		.uleb128 0xb
 2383 016b 3B       		.uleb128 0x3b
 2384 016c 0B       		.uleb128 0xb
 2385 016d 49       		.uleb128 0x49
 2386 016e 13       		.uleb128 0x13
 2387 016f 02       		.uleb128 0x2
 2388 0170 0A       		.uleb128 0xa
 2389 0171 00       		.byte	0x0
 2390 0172 00       		.byte	0x0
 2391 0173 1E       		.uleb128 0x1e
 2392 0174 2E       		.uleb128 0x2e
 2393 0175 01       		.byte	0x1
 2394 0176 3F       		.uleb128 0x3f
 2395 0177 0C       		.uleb128 0xc
 2396 0178 03       		.uleb128 0x3
 2397 0179 0E       		.uleb128 0xe
 2398 017a 3A       		.uleb128 0x3a
 2399 017b 0B       		.uleb128 0xb
 2400 017c 3B       		.uleb128 0x3b
 2401 017d 05       		.uleb128 0x5
 2402 017e 27       		.uleb128 0x27
 2403 017f 0C       		.uleb128 0xc
 2404 0180 11       		.uleb128 0x11
 2405 0181 01       		.uleb128 0x1
 2406 0182 12       		.uleb128 0x12
 2407 0183 01       		.uleb128 0x1
 2408 0184 40       		.uleb128 0x40
 2409 0185 06       		.uleb128 0x6
 2410 0186 01       		.uleb128 0x1
 2411 0187 13       		.uleb128 0x13
 2412 0188 00       		.byte	0x0
 2413 0189 00       		.byte	0x0
 2414 018a 1F       		.uleb128 0x1f
 2415 018b 05       		.uleb128 0x5
 2416 018c 00       		.byte	0x0
 2417 018d 03       		.uleb128 0x3
 2418 018e 08       		.uleb128 0x8
 2419 018f 3A       		.uleb128 0x3a
 2420 0190 0B       		.uleb128 0xb
 2421 0191 3B       		.uleb128 0x3b
ARM GAS  C:\Users\z80\AppData\Local\Temp\ccIabawO.s 			page 44


 2422 0192 05       		.uleb128 0x5
 2423 0193 49       		.uleb128 0x49
 2424 0194 13       		.uleb128 0x13
 2425 0195 02       		.uleb128 0x2
 2426 0196 0A       		.uleb128 0xa
 2427 0197 00       		.byte	0x0
 2428 0198 00       		.byte	0x0
 2429 0199 20       		.uleb128 0x20
 2430 019a 34       		.uleb128 0x34
 2431 019b 00       		.byte	0x0
 2432 019c 03       		.uleb128 0x3
 2433 019d 0E       		.uleb128 0xe
 2434 019e 3A       		.uleb128 0x3a
 2435 019f 0B       		.uleb128 0xb
 2436 01a0 3B       		.uleb128 0x3b
 2437 01a1 0B       		.uleb128 0xb
 2438 01a2 49       		.uleb128 0x49
 2439 01a3 13       		.uleb128 0x13
 2440 01a4 3F       		.uleb128 0x3f
 2441 01a5 0C       		.uleb128 0xc
 2442 01a6 3C       		.uleb128 0x3c
 2443 01a7 0C       		.uleb128 0xc
 2444 01a8 00       		.byte	0x0
 2445 01a9 00       		.byte	0x0
 2446 01aa 21       		.uleb128 0x21
 2447 01ab 34       		.uleb128 0x34
 2448 01ac 00       		.byte	0x0
 2449 01ad 03       		.uleb128 0x3
 2450 01ae 0E       		.uleb128 0xe
 2451 01af 3A       		.uleb128 0x3a
 2452 01b0 0B       		.uleb128 0xb
 2453 01b1 3B       		.uleb128 0x3b
 2454 01b2 0B       		.uleb128 0xb
 2455 01b3 49       		.uleb128 0x49
 2456 01b4 13       		.uleb128 0x13
 2457 01b5 3F       		.uleb128 0x3f
 2458 01b6 0C       		.uleb128 0xc
 2459 01b7 02       		.uleb128 0x2
 2460 01b8 0A       		.uleb128 0xa
 2461 01b9 00       		.byte	0x0
 2462 01ba 00       		.byte	0x0
 2463 01bb 22       		.uleb128 0x22
 2464 01bc 34       		.uleb128 0x34
 2465 01bd 00       		.byte	0x0
 2466 01be 03       		.uleb128 0x3
 2467 01bf 0E       		.uleb128 0xe
 2468 01c0 3A       		.uleb128 0x3a
 2469 01c1 0B       		.uleb128 0xb
 2470 01c2 3B       		.uleb128 0x3b
 2471 01c3 05       		.uleb128 0x5
 2472 01c4 49       		.uleb128 0x49
 2473 01c5 13       		.uleb128 0x13
 2474 01c6 3F       		.uleb128 0x3f
 2475 01c7 0C       		.uleb128 0xc
 2476 01c8 02       		.uleb128 0x2
 2477 01c9 0A       		.uleb128 0xa
 2478 01ca 00       		.byte	0x0
ARM GAS  C:\Users\z80\AppData\Local\Temp\ccIabawO.s 			page 45


 2479 01cb 00       		.byte	0x0
 2480 01cc 00       		.byte	0x0
 2481              		.section	.debug_pubnames,"",%progbits
 2482 0000 80010000 		.4byte	0x180
 2483 0004 0200     		.2byte	0x2
 2484 0006 00000000 		.4byte	.Ldebug_info0
 2485 000a 16080000 		.4byte	0x816
 2486 000e A3050000 		.4byte	0x5a3
 2487 0012 6462675F 		.ascii	"dbg_check_disable\000"
 2487      63686563 
 2487      6B5F6469 
 2487      7361626C 
 2487      6500
 2488 0024 B8050000 		.4byte	0x5b8
 2489 0028 6462675F 		.ascii	"dbg_check_suspend\000"
 2489      63686563 
 2489      6B5F7375 
 2489      7370656E 
 2489      6400
 2490 003a CD050000 		.4byte	0x5cd
 2491 003e 6462675F 		.ascii	"dbg_check_enable\000"
 2491      63686563 
 2491      6B5F656E 
 2491      61626C65 
 2491      00
 2492 004f E2050000 		.4byte	0x5e2
 2493 0053 6462675F 		.ascii	"dbg_check_lock\000"
 2493      63686563 
 2493      6B5F6C6F 
 2493      636B00
 2494 0062 F7050000 		.4byte	0x5f7
 2495 0066 6462675F 		.ascii	"dbg_check_unlock\000"
 2495      63686563 
 2495      6B5F756E 
 2495      6C6F636B 
 2495      00
 2496 0077 0C060000 		.4byte	0x60c
 2497 007b 6462675F 		.ascii	"dbg_check_lock_from_isr\000"
 2497      63686563 
 2497      6B5F6C6F 
 2497      636B5F66 
 2497      726F6D5F 
 2498 0093 21060000 		.4byte	0x621
 2499 0097 6462675F 		.ascii	"dbg_check_unlock_from_isr\000"
 2499      63686563 
 2499      6B5F756E 
 2499      6C6F636B 
 2499      5F66726F 
 2500 00b1 36060000 		.4byte	0x636
 2501 00b5 6462675F 		.ascii	"dbg_check_enter_isr\000"
 2501      63686563 
 2501      6B5F656E 
 2501      7465725F 
 2501      69737200 
 2502 00c9 82060000 		.4byte	0x682
 2503 00cd 6462675F 		.ascii	"dbg_check_leave_isr\000"
 2503      63686563 
ARM GAS  C:\Users\z80\AppData\Local\Temp\ccIabawO.s 			page 46


 2503      6B5F6C65 
 2503      6176655F 
 2503      69737200 
 2504 00e1 CE060000 		.4byte	0x6ce
 2505 00e5 63684462 		.ascii	"chDbgCheckClassI\000"
 2505      67436865 
 2505      636B436C 
 2505      61737349 
 2505      00
 2506 00f6 E3060000 		.4byte	0x6e3
 2507 00fa 63684462 		.ascii	"chDbgCheckClassS\000"
 2507      67436865 
 2507      636B436C 
 2507      61737353 
 2507      00
 2508 010b F8060000 		.4byte	0x6f8
 2509 010f 5F747261 		.ascii	"_trace_init\000"
 2509      63655F69 
 2509      6E697400 
 2510 011b 0C070000 		.4byte	0x70c
 2511 011f 6462675F 		.ascii	"dbg_trace\000"
 2511      74726163 
 2511      6500
 2512 0129 34070000 		.4byte	0x734
 2513 012d 63684462 		.ascii	"chDbgPanic\000"
 2513      6750616E 
 2513      696300
 2514 0138 CC070000 		.4byte	0x7cc
 2515 013c 6462675F 		.ascii	"dbg_trace_buffer\000"
 2515      74726163 
 2515      655F6275 
 2515      66666572 
 2515      00
 2516 014d DE070000 		.4byte	0x7de
 2517 0151 6462675F 		.ascii	"dbg_panic_msg\000"
 2517      70616E69 
 2517      635F6D73 
 2517      6700
 2518 015f F1070000 		.4byte	0x7f1
 2519 0163 6462675F 		.ascii	"dbg_isr_cnt\000"
 2519      6973725F 
 2519      636E7400 
 2520 016f 03080000 		.4byte	0x803
 2521 0173 6462675F 		.ascii	"dbg_lock_cnt\000"
 2521      6C6F636B 
 2521      5F636E74 
 2521      00
 2522 0180 00000000 		.4byte	0x0
 2523              		.section	.debug_pubtypes,"",%progbits
 2524 0000 86010000 		.4byte	0x186
 2525 0004 0200     		.2byte	0x2
 2526 0006 00000000 		.4byte	.Ldebug_info0
 2527 000a 16080000 		.4byte	0x816
 2528 000e 3E000000 		.4byte	0x3e
 2529 0012 75696E74 		.ascii	"uint8_t\000"
 2529      385F7400 
 2530 001a 5E000000 		.4byte	0x5e
ARM GAS  C:\Users\z80\AppData\Local\Temp\ccIabawO.s 			page 47


 2531 001e 696E7433 		.ascii	"int32_t\000"
 2531      325F7400 
 2532 0026 70000000 		.4byte	0x70
 2533 002a 75696E74 		.ascii	"uint32_t\000"
 2533      33325F74 
 2533      00
 2534 0033 89000000 		.4byte	0x89
 2535 0037 75696E74 		.ascii	"uint64_t\000"
 2535      36345F74 
 2535      00
 2536 0040 9B000000 		.4byte	0x9b
 2537 0044 746D6F64 		.ascii	"tmode_t\000"
 2537      655F7400 
 2538 004c A6000000 		.4byte	0xa6
 2539 0050 74737461 		.ascii	"tstate_t\000"
 2539      74655F74 
 2539      00
 2540 0059 B1000000 		.4byte	0xb1
 2541 005d 74707269 		.ascii	"tprio_t\000"
 2541      6F5F7400 
 2542 0065 BC000000 		.4byte	0xbc
 2543 0069 6D73675F 		.ascii	"msg_t\000"
 2543      7400
 2544 006f C7000000 		.4byte	0xc7
 2545 0073 6576656E 		.ascii	"eventmask_t\000"
 2545      746D6173 
 2545      6B5F7400 
 2546 007f D2000000 		.4byte	0xd2
 2547 0083 73797374 		.ascii	"systime_t\000"
 2547      696D655F 
 2547      7400
 2548 008d DD000000 		.4byte	0xdd
 2549 0091 636E745F 		.ascii	"cnt_t\000"
 2549      7400
 2550 0097 E8000000 		.4byte	0xe8
 2551 009b 54687265 		.ascii	"Thread\000"
 2551      616400
 2552 00a2 27020000 		.4byte	0x227
 2553 00a6 54687265 		.ascii	"ThreadsQueue\000"
 2553      61647351 
 2553      75657565 
 2553      00
 2554 00b3 49020000 		.4byte	0x249
 2555 00b7 54687265 		.ascii	"ThreadsList\000"
 2555      6164734C 
 2555      69737400 
 2556 00c3 54020000 		.4byte	0x254
 2557 00c7 72656761 		.ascii	"regarm_t\000"
 2557      726D5F74 
 2557      00
 2558 00d0 61020000 		.4byte	0x261
 2559 00d4 73746B61 		.ascii	"stkalign_t\000"
 2559      6C69676E 
 2559      5F7400
 2560 00df 6C020000 		.4byte	0x26c
 2561 00e3 696E7463 		.ascii	"intctx\000"
 2561      747800
ARM GAS  C:\Users\z80\AppData\Local\Temp\ccIabawO.s 			page 48


 2562 00ea F9020000 		.4byte	0x2f9
 2563 00ee 636F6E74 		.ascii	"context\000"
 2563      65787400 
 2564 00f6 1F030000 		.4byte	0x31f
 2565 00fa 76746675 		.ascii	"vtfunc_t\000"
 2565      6E635F74 
 2565      00
 2566 0103 3C030000 		.4byte	0x33c
 2567 0107 56697274 		.ascii	"VirtualTimer\000"
 2567      75616C54 
 2567      696D6572 
 2567      00
 2568 0114 47030000 		.4byte	0x347
 2569 0118 56697274 		.ascii	"VirtualTimer\000"
 2569      75616C54 
 2569      696D6572 
 2569      00
 2570 0125 E6030000 		.4byte	0x3e6
 2571 0129 56544C69 		.ascii	"VTList\000"
 2571      737400
 2572 0130 5C040000 		.4byte	0x45c
 2573 0134 52656164 		.ascii	"ReadyList\000"
 2573      794C6973 
 2573      7400
 2574 013e 67040000 		.4byte	0x467
 2575 0142 4D757465 		.ascii	"Mutex\000"
 2575      7800
 2576 0148 A4040000 		.4byte	0x4a4
 2577 014c 4D757465 		.ascii	"Mutex\000"
 2577      7800
 2578 0152 F3000000 		.4byte	0xf3
 2579 0156 54687265 		.ascii	"Thread\000"
 2579      616400
 2580 015d 43050000 		.4byte	0x543
 2581 0161 63685F73 		.ascii	"ch_swc_event_t\000"
 2581      77635F65 
 2581      76656E74 
 2581      5F7400
 2582 0170 98050000 		.4byte	0x598
 2583 0174 63685F74 		.ascii	"ch_trace_buffer_t\000"
 2583      72616365 
 2583      5F627566 
 2583      6665725F 
 2583      7400
 2584 0186 00000000 		.4byte	0x0
 2585              		.section	.debug_aranges,"",%progbits
 2586 0000 84000000 		.4byte	0x84
 2587 0004 0200     		.2byte	0x2
 2588 0006 00000000 		.4byte	.Ldebug_info0
 2589 000a 04       		.byte	0x4
 2590 000b 00       		.byte	0x0
 2591 000c 0000     		.2byte	0x0
 2592 000e 0000     		.2byte	0x0
 2593 0010 00000000 		.4byte	.LFB7
 2594 0014 2C000000 		.4byte	.LFE7-.LFB7
 2595 0018 00000000 		.4byte	.LFB8
 2596 001c 2C000000 		.4byte	.LFE8-.LFB8
ARM GAS  C:\Users\z80\AppData\Local\Temp\ccIabawO.s 			page 49


 2597 0020 00000000 		.4byte	.LFB9
 2598 0024 2C000000 		.4byte	.LFE9-.LFB9
 2599 0028 00000000 		.4byte	.LFB10
 2600 002c 3A000000 		.4byte	.LFE10-.LFB10
 2601 0030 00000000 		.4byte	.LFB11
 2602 0034 3A000000 		.4byte	.LFE11-.LFB11
 2603 0038 00000000 		.4byte	.LFB12
 2604 003c 3A000000 		.4byte	.LFE12-.LFB12
 2605 0040 00000000 		.4byte	.LFB13
 2606 0044 3A000000 		.4byte	.LFE13-.LFB13
 2607 0048 00000000 		.4byte	.LFB14
 2608 004c 54000000 		.4byte	.LFE14-.LFB14
 2609 0050 00000000 		.4byte	.LFB15
 2610 0054 54000000 		.4byte	.LFE15-.LFB15
 2611 0058 00000000 		.4byte	.LFB16
 2612 005c 2C000000 		.4byte	.LFE16-.LFB16
 2613 0060 00000000 		.4byte	.LFB17
 2614 0064 2C000000 		.4byte	.LFE17-.LFB17
 2615 0068 00000000 		.4byte	.LFB18
 2616 006c 20000000 		.4byte	.LFE18-.LFB18
 2617 0070 00000000 		.4byte	.LFB19
 2618 0074 94000000 		.4byte	.LFE19-.LFB19
 2619 0078 00000000 		.4byte	.LFB20
 2620 007c 1A000000 		.4byte	.LFE20-.LFB20
 2621 0080 00000000 		.4byte	0x0
 2622 0084 00000000 		.4byte	0x0
 2623              		.section	.debug_ranges,"",%progbits
 2624              	.Ldebug_ranges0:
 2625 0000 00000000 		.4byte	.LFB7
 2626 0004 2C000000 		.4byte	.LFE7
 2627 0008 00000000 		.4byte	.LFB8
 2628 000c 2C000000 		.4byte	.LFE8
 2629 0010 00000000 		.4byte	.LFB9
 2630 0014 2C000000 		.4byte	.LFE9
 2631 0018 00000000 		.4byte	.LFB10
 2632 001c 3A000000 		.4byte	.LFE10
 2633 0020 00000000 		.4byte	.LFB11
 2634 0024 3A000000 		.4byte	.LFE11
 2635 0028 00000000 		.4byte	.LFB12
 2636 002c 3A000000 		.4byte	.LFE12
 2637 0030 00000000 		.4byte	.LFB13
 2638 0034 3A000000 		.4byte	.LFE13
 2639 0038 00000000 		.4byte	.LFB14
 2640 003c 54000000 		.4byte	.LFE14
 2641 0040 00000000 		.4byte	.LFB15
 2642 0044 54000000 		.4byte	.LFE15
 2643 0048 00000000 		.4byte	.LFB16
 2644 004c 2C000000 		.4byte	.LFE16
 2645 0050 00000000 		.4byte	.LFB17
 2646 0054 2C000000 		.4byte	.LFE17
 2647 0058 00000000 		.4byte	.LFB18
 2648 005c 20000000 		.4byte	.LFE18
 2649 0060 00000000 		.4byte	.LFB19
 2650 0064 94000000 		.4byte	.LFE19
 2651 0068 00000000 		.4byte	.LFB20
 2652 006c 1A000000 		.4byte	.LFE20
 2653 0070 00000000 		.4byte	0x0
ARM GAS  C:\Users\z80\AppData\Local\Temp\ccIabawO.s 			page 50


 2654 0074 00000000 		.4byte	0x0
 2655              		.section	.debug_str,"MS",%progbits,1
 2656              	.LASF34:
 2657 0000 705F6D73 		.ascii	"p_msg\000"
 2657      6700
 2658              	.LASF92:
 2659 0006 63684462 		.ascii	"chDbgPanic\000"
 2659      6750616E 
 2659      696300
 2660              	.LASF65:
 2661 0011 7264796D 		.ascii	"rdymsg\000"
 2661      736700
 2662              	.LASF11:
 2663 0018 75696E74 		.ascii	"uint64_t\000"
 2663      36345F74 
 2663      00
 2664              	.LASF93:
 2665 0021 76746C69 		.ascii	"vtlist\000"
 2665      737400
 2666              	.LASF12:
 2667 0028 6C6F6E67 		.ascii	"long long unsigned int\000"
 2667      206C6F6E 
 2667      6720756E 
 2667      7369676E 
 2667      65642069 
 2668              	.LASF78:
 2669 003f 63685F74 		.ascii	"ch_trace_buffer_t\000"
 2669      72616365 
 2669      5F627566 
 2669      6665725F 
 2669      7400
 2670              	.LASF73:
 2671 0051 73655F73 		.ascii	"se_state\000"
 2671      74617465 
 2671      00
 2672              	.LASF66:
 2673 005a 65786974 		.ascii	"exitcode\000"
 2673      636F6465 
 2673      00
 2674              	.LASF100:
 2675 0063 2E2E2F63 		.ascii	"../chibios_2.4.x/os/kernel/src/chdebug.c\000"
 2675      68696269 
 2675      6F735F32 
 2675      2E342E78 
 2675      2F6F732F 
 2676              	.LASF10:
 2677 008c 6C6F6E67 		.ascii	"long long int\000"
 2677      206C6F6E 
 2677      6720696E 
 2677      7400
 2678              	.LASF1:
 2679 009a 7369676E 		.ascii	"signed char\000"
 2679      65642063 
 2679      68617200 
 2680              	.LASF85:
 2681 00a6 6462675F 		.ascii	"dbg_check_unlock_from_isr\000"
 2681      63686563 
ARM GAS  C:\Users\z80\AppData\Local\Temp\ccIabawO.s 			page 51


 2681      6B5F756E 
 2681      6C6F636B 
 2681      5F66726F 
 2682              	.LASF62:
 2683 00c0 6D5F7175 		.ascii	"m_queue\000"
 2683      65756500 
 2684              	.LASF7:
 2685 00c8 6C6F6E67 		.ascii	"long int\000"
 2685      20696E74 
 2685      00
 2686              	.LASF14:
 2687 00d1 74737461 		.ascii	"tstate_t\000"
 2687      74655F74 
 2687      00
 2688              	.LASF71:
 2689 00da 73655F74 		.ascii	"se_tp\000"
 2689      7000
 2690              	.LASF25:
 2691 00e0 705F6E65 		.ascii	"p_newer\000"
 2691      77657200 
 2692              	.LASF75:
 2693 00e8 74625F73 		.ascii	"tb_size\000"
 2693      697A6500 
 2694              	.LASF56:
 2695 00f0 725F6E65 		.ascii	"r_newer\000"
 2695      77657200 
 2696              	.LASF40:
 2697 00f8 72656761 		.ascii	"regarm_t\000"
 2697      726D5F74 
 2697      00
 2698              	.LASF47:
 2699 0101 76745F70 		.ascii	"vt_prev\000"
 2699      72657600 
 2700              	.LASF19:
 2701 0109 636E745F 		.ascii	"cnt_t\000"
 2701      7400
 2702              	.LASF28:
 2703 010f 705F7374 		.ascii	"p_stklimit\000"
 2703      6B6C696D 
 2703      697400
 2704              	.LASF0:
 2705 011a 756E7369 		.ascii	"unsigned int\000"
 2705      676E6564 
 2705      20696E74 
 2705      00
 2706              	.LASF46:
 2707 0127 76745F6E 		.ascii	"vt_next\000"
 2707      65787400 
 2708              	.LASF91:
 2709 012f 6462675F 		.ascii	"dbg_trace\000"
 2709      74726163 
 2709      6500
 2710              	.LASF9:
 2711 0139 6C6F6E67 		.ascii	"long unsigned int\000"
 2711      20756E73 
 2711      69676E65 
 2711      6420696E 
ARM GAS  C:\Users\z80\AppData\Local\Temp\ccIabawO.s 			page 52


 2711      7400
 2712              	.LASF80:
 2713 014b 6462675F 		.ascii	"dbg_check_suspend\000"
 2713      63686563 
 2713      6B5F7375 
 2713      7370656E 
 2713      6400
 2714              	.LASF43:
 2715 015d 636F6E74 		.ascii	"context\000"
 2715      65787400 
 2716              	.LASF4:
 2717 0165 73686F72 		.ascii	"short unsigned int\000"
 2717      7420756E 
 2717      7369676E 
 2717      65642069 
 2717      6E7400
 2718              	.LASF90:
 2719 0178 5F747261 		.ascii	"_trace_init\000"
 2719      63655F69 
 2719      6E697400 
 2720              	.LASF16:
 2721 0184 6D73675F 		.ascii	"msg_t\000"
 2721      7400
 2722              	.LASF88:
 2723 018a 63684462 		.ascii	"chDbgCheckClassI\000"
 2723      67436865 
 2723      636B436C 
 2723      61737349 
 2723      00
 2724              	.LASF13:
 2725 019b 746D6F64 		.ascii	"tmode_t\000"
 2725      655F7400 
 2726              	.LASF97:
 2727 01a3 6462675F 		.ascii	"dbg_isr_cnt\000"
 2727      6973725F 
 2727      636E7400 
 2728              	.LASF89:
 2729 01af 63684462 		.ascii	"chDbgCheckClassS\000"
 2729      67436865 
 2729      636B436C 
 2729      61737353 
 2729      00
 2730              	.LASF39:
 2731 01c0 54687265 		.ascii	"ThreadsList\000"
 2731      6164734C 
 2731      69737400 
 2732              	.LASF17:
 2733 01cc 6576656E 		.ascii	"eventmask_t\000"
 2733      746D6173 
 2733      6B5F7400 
 2734              	.LASF61:
 2735 01d8 4D757465 		.ascii	"Mutex\000"
 2735      7800
 2736              	.LASF41:
 2737 01de 73746B61 		.ascii	"stkalign_t\000"
 2737      6C69676E 
 2737      5F7400
ARM GAS  C:\Users\z80\AppData\Local\Temp\ccIabawO.s 			page 53


 2738              	.LASF48:
 2739 01e9 76745F74 		.ascii	"vt_time\000"
 2739      696D6500 
 2740              	.LASF76:
 2741 01f1 74625F70 		.ascii	"tb_ptr\000"
 2741      747200
 2742              	.LASF49:
 2743 01f8 76745F66 		.ascii	"vt_func\000"
 2743      756E6300 
 2744              	.LASF82:
 2745 0200 6462675F 		.ascii	"dbg_check_lock\000"
 2745      63686563 
 2745      6B5F6C6F 
 2745      636B00
 2746              	.LASF23:
 2747 020f 705F7072 		.ascii	"p_prio\000"
 2747      696F00
 2748              	.LASF74:
 2749 0216 63685F73 		.ascii	"ch_swc_event_t\000"
 2749      77635F65 
 2749      76656E74 
 2749      5F7400
 2750              	.LASF26:
 2751 0225 705F6F6C 		.ascii	"p_older\000"
 2751      64657200 
 2752              	.LASF55:
 2753 022d 725F6374 		.ascii	"r_ctx\000"
 2753      7800
 2754              	.LASF38:
 2755 0233 54687265 		.ascii	"ThreadsQueue\000"
 2755      61647351 
 2755      75657565 
 2755      00
 2756              	.LASF101:
 2757 0240 433A5C70 		.ascii	"C:\\projects\\voltamper.git\\firmware\\voltamp\000"
 2757      726F6A65 
 2757      6374735C 
 2757      766F6C74 
 2757      616D7065 
 2758              	.LASF59:
 2759 026b 725F6375 		.ascii	"r_current\000"
 2759      7272656E 
 2759      7400
 2760              	.LASF57:
 2761 0275 725F6F6C 		.ascii	"r_older\000"
 2761      64657200 
 2762              	.LASF83:
 2763 027d 6462675F 		.ascii	"dbg_check_unlock\000"
 2763      63686563 
 2763      6B5F756E 
 2763      6C6F636B 
 2763      00
 2764              	.LASF95:
 2765 028e 6462675F 		.ascii	"dbg_trace_buffer\000"
 2765      74726163 
 2765      655F6275 
 2765      66666572 
ARM GAS  C:\Users\z80\AppData\Local\Temp\ccIabawO.s 			page 54


 2765      00
 2766              	.LASF70:
 2767 029f 73655F74 		.ascii	"se_time\000"
 2767      696D6500 
 2768              	.LASF77:
 2769 02a7 74625F62 		.ascii	"tb_buffer\000"
 2769      75666665 
 2769      7200
 2770              	.LASF22:
 2771 02b1 705F7072 		.ascii	"p_prev\000"
 2771      657600
 2772              	.LASF15:
 2773 02b8 74707269 		.ascii	"tprio_t\000"
 2773      6F5F7400 
 2774              	.LASF6:
 2775 02c0 696E7433 		.ascii	"int32_t\000"
 2775      325F7400 
 2776              	.LASF2:
 2777 02c8 756E7369 		.ascii	"unsigned char\000"
 2777      676E6564 
 2777      20636861 
 2777      7200
 2778              	.LASF96:
 2779 02d6 6462675F 		.ascii	"dbg_panic_msg\000"
 2779      70616E69 
 2779      635F6D73 
 2779      6700
 2780              	.LASF36:
 2781 02e4 705F6D74 		.ascii	"p_mtxlist\000"
 2781      786C6973 
 2781      7400
 2782              	.LASF3:
 2783 02ee 73686F72 		.ascii	"short int\000"
 2783      7420696E 
 2783      7400
 2784              	.LASF29:
 2785 02f8 705F7374 		.ascii	"p_state\000"
 2785      61746500 
 2786              	.LASF54:
 2787 0300 725F7072 		.ascii	"r_prio\000"
 2787      696F00
 2788              	.LASF68:
 2789 0307 65776D61 		.ascii	"ewmask\000"
 2789      736B00
 2790              	.LASF21:
 2791 030e 705F6E65 		.ascii	"p_next\000"
 2791      787400
 2792              	.LASF30:
 2793 0315 705F666C 		.ascii	"p_flags\000"
 2793      61677300 
 2794              	.LASF20:
 2795 031d 54687265 		.ascii	"Thread\000"
 2795      616400
 2796              	.LASF35:
 2797 0324 705F6570 		.ascii	"p_epending\000"
 2797      656E6469 
 2797      6E6700
ARM GAS  C:\Users\z80\AppData\Local\Temp\ccIabawO.s 			page 55


 2798              	.LASF8:
 2799 032f 75696E74 		.ascii	"uint32_t\000"
 2799      33325F74 
 2799      00
 2800              	.LASF53:
 2801 0338 725F7175 		.ascii	"r_queue\000"
 2801      65756500 
 2802              	.LASF45:
 2803 0340 56697274 		.ascii	"VirtualTimer\000"
 2803      75616C54 
 2803      696D6572 
 2803      00
 2804              	.LASF69:
 2805 034d 63686172 		.ascii	"char\000"
 2805      00
 2806              	.LASF64:
 2807 0352 6D5F6E65 		.ascii	"m_next\000"
 2807      787400
 2808              	.LASF18:
 2809 0359 73797374 		.ascii	"systime_t\000"
 2809      696D655F 
 2809      7400
 2810              	.LASF37:
 2811 0363 705F7265 		.ascii	"p_realprio\000"
 2811      616C7072 
 2811      696F00
 2812              	.LASF44:
 2813 036e 76746675 		.ascii	"vtfunc_t\000"
 2813      6E635F74 
 2813      00
 2814              	.LASF98:
 2815 0377 6462675F 		.ascii	"dbg_lock_cnt\000"
 2815      6C6F636B 
 2815      5F636E74 
 2815      00
 2816              	.LASF31:
 2817 0384 705F7469 		.ascii	"p_time\000"
 2817      6D6500
 2818              	.LASF87:
 2819 038b 6462675F 		.ascii	"dbg_check_leave_isr\000"
 2819      63686563 
 2819      6B5F6C65 
 2819      6176655F 
 2819      69737200 
 2820              	.LASF42:
 2821 039f 696E7463 		.ascii	"intctx\000"
 2821      747800
 2822              	.LASF33:
 2823 03a6 705F6D73 		.ascii	"p_msgqueue\000"
 2823      67717565 
 2823      756500
 2824              	.LASF81:
 2825 03b1 6462675F 		.ascii	"dbg_check_enable\000"
 2825      63686563 
 2825      6B5F656E 
 2825      61626C65 
 2825      00
ARM GAS  C:\Users\z80\AppData\Local\Temp\ccIabawO.s 			page 56


 2826              	.LASF50:
 2827 03c2 76745F70 		.ascii	"vt_par\000"
 2827      617200
 2828              	.LASF60:
 2829 03c9 52656164 		.ascii	"ReadyList\000"
 2829      794C6973 
 2829      7400
 2830              	.LASF86:
 2831 03d3 6462675F 		.ascii	"dbg_check_enter_isr\000"
 2831      63686563 
 2831      6B5F656E 
 2831      7465725F 
 2831      69737200 
 2832              	.LASF94:
 2833 03e7 726C6973 		.ascii	"rlist\000"
 2833      7400
 2834              	.LASF5:
 2835 03ed 75696E74 		.ascii	"uint8_t\000"
 2835      385F7400 
 2836              	.LASF84:
 2837 03f5 6462675F 		.ascii	"dbg_check_lock_from_isr\000"
 2837      63686563 
 2837      6B5F6C6F 
 2837      636B5F66 
 2837      726F6D5F 
 2838              	.LASF99:
 2839 040d 474E5520 		.ascii	"GNU C 4.5.0\000"
 2839      4320342E 
 2839      352E3000 
 2840              	.LASF67:
 2841 0419 77746F62 		.ascii	"wtobjp\000"
 2841      6A7000
 2842              	.LASF27:
 2843 0420 705F6E61 		.ascii	"p_name\000"
 2843      6D6500
 2844              	.LASF51:
 2845 0427 76745F73 		.ascii	"vt_systime\000"
 2845      79737469 
 2845      6D6500
 2846              	.LASF52:
 2847 0432 56544C69 		.ascii	"VTList\000"
 2847      737400
 2848              	.LASF58:
 2849 0439 725F7072 		.ascii	"r_preempt\000"
 2849      65656D70 
 2849      7400
 2850              	.LASF79:
 2851 0443 6462675F 		.ascii	"dbg_check_disable\000"
 2851      63686563 
 2851      6B5F6469 
 2851      7361626C 
 2851      6500
 2852              	.LASF63:
 2853 0455 6D5F6F77 		.ascii	"m_owner\000"
 2853      6E657200 
 2854              	.LASF72:
 2855 045d 73655F77 		.ascii	"se_wtobjp\000"
ARM GAS  C:\Users\z80\AppData\Local\Temp\ccIabawO.s 			page 57


 2855      746F626A 
 2855      7000
 2856              	.LASF24:
 2857 0467 705F6374 		.ascii	"p_ctx\000"
 2857      7800
 2858              	.LASF32:
 2859 046d 705F7761 		.ascii	"p_waiting\000"
 2859      6974696E 
 2859      6700
 2860              		.ident	"GCC: (GNU) 4.5.0"
ARM GAS  C:\Users\z80\AppData\Local\Temp\ccIabawO.s 			page 58


DEFINED SYMBOLS
                            *ABS*:00000000 chdebug.c
C:\Users\z80\AppData\Local\Temp\ccIabawO.s:28     .bss.dbg_isr_cnt:00000000 dbg_isr_cnt
C:\Users\z80\AppData\Local\Temp\ccIabawO.s:25     .bss.dbg_isr_cnt:00000000 $d
C:\Users\z80\AppData\Local\Temp\ccIabawO.s:35     .bss.dbg_lock_cnt:00000000 dbg_lock_cnt
C:\Users\z80\AppData\Local\Temp\ccIabawO.s:32     .bss.dbg_lock_cnt:00000000 $d
C:\Users\z80\AppData\Local\Temp\ccIabawO.s:38     .rodata:00000000 $d
C:\Users\z80\AppData\Local\Temp\ccIabawO.s:39     .rodata:00000000 .LC0
C:\Users\z80\AppData\Local\Temp\ccIabawO.s:42     .text.dbg_check_disable:00000000 $t
C:\Users\z80\AppData\Local\Temp\ccIabawO.s:48     .text.dbg_check_disable:00000000 dbg_check_disable
C:\Users\z80\AppData\Local\Temp\ccIabawO.s:736    .text.chDbgPanic:00000000 chDbgPanic
C:\Users\z80\AppData\Local\Temp\ccIabawO.s:85     .rodata:00000008 .LC1
C:\Users\z80\AppData\Local\Temp\ccIabawO.s:88     .text.dbg_check_suspend:00000000 $t
C:\Users\z80\AppData\Local\Temp\ccIabawO.s:94     .text.dbg_check_suspend:00000000 dbg_check_suspend
C:\Users\z80\AppData\Local\Temp\ccIabawO.s:130    .rodata:00000010 .LC2
C:\Users\z80\AppData\Local\Temp\ccIabawO.s:133    .text.dbg_check_enable:00000000 $t
C:\Users\z80\AppData\Local\Temp\ccIabawO.s:139    .text.dbg_check_enable:00000000 dbg_check_enable
C:\Users\z80\AppData\Local\Temp\ccIabawO.s:175    .rodata:00000018 .LC3
C:\Users\z80\AppData\Local\Temp\ccIabawO.s:178    .text.dbg_check_lock:00000000 $t
C:\Users\z80\AppData\Local\Temp\ccIabawO.s:184    .text.dbg_check_lock:00000000 dbg_check_lock
C:\Users\z80\AppData\Local\Temp\ccIabawO.s:225    .rodata:00000020 .LC4
C:\Users\z80\AppData\Local\Temp\ccIabawO.s:228    .text.dbg_check_unlock:00000000 $t
C:\Users\z80\AppData\Local\Temp\ccIabawO.s:234    .text.dbg_check_unlock:00000000 dbg_check_unlock
C:\Users\z80\AppData\Local\Temp\ccIabawO.s:275    .rodata:00000028 .LC5
C:\Users\z80\AppData\Local\Temp\ccIabawO.s:278    .text.dbg_check_lock_from_isr:00000000 $t
C:\Users\z80\AppData\Local\Temp\ccIabawO.s:284    .text.dbg_check_lock_from_isr:00000000 dbg_check_lock_from_isr
C:\Users\z80\AppData\Local\Temp\ccIabawO.s:325    .rodata:00000030 .LC6
C:\Users\z80\AppData\Local\Temp\ccIabawO.s:328    .text.dbg_check_unlock_from_isr:00000000 $t
C:\Users\z80\AppData\Local\Temp\ccIabawO.s:334    .text.dbg_check_unlock_from_isr:00000000 dbg_check_unlock_from_isr
C:\Users\z80\AppData\Local\Temp\ccIabawO.s:375    .rodata:00000038 .LC7
C:\Users\z80\AppData\Local\Temp\ccIabawO.s:378    .text.dbg_check_enter_isr:00000000 $t
C:\Users\z80\AppData\Local\Temp\ccIabawO.s:384    .text.dbg_check_enter_isr:00000000 dbg_check_enter_isr
C:\Users\z80\AppData\Local\Temp\ccIabawO.s:444    .rodata:00000040 .LC8
C:\Users\z80\AppData\Local\Temp\ccIabawO.s:447    .text.dbg_check_leave_isr:00000000 $t
C:\Users\z80\AppData\Local\Temp\ccIabawO.s:453    .text.dbg_check_leave_isr:00000000 dbg_check_leave_isr
C:\Users\z80\AppData\Local\Temp\ccIabawO.s:513    .rodata:00000048 .LC9
C:\Users\z80\AppData\Local\Temp\ccIabawO.s:516    .text.chDbgCheckClassI:00000000 $t
C:\Users\z80\AppData\Local\Temp\ccIabawO.s:522    .text.chDbgCheckClassI:00000000 chDbgCheckClassI
C:\Users\z80\AppData\Local\Temp\ccIabawO.s:558    .rodata:00000050 .LC10
C:\Users\z80\AppData\Local\Temp\ccIabawO.s:561    .text.chDbgCheckClassS:00000000 $t
C:\Users\z80\AppData\Local\Temp\ccIabawO.s:567    .text.chDbgCheckClassS:00000000 chDbgCheckClassS
C:\Users\z80\AppData\Local\Temp\ccIabawO.s:606    .bss.dbg_trace_buffer:00000000 dbg_trace_buffer
C:\Users\z80\AppData\Local\Temp\ccIabawO.s:603    .bss.dbg_trace_buffer:00000000 $d
C:\Users\z80\AppData\Local\Temp\ccIabawO.s:609    .text._trace_init:00000000 $t
C:\Users\z80\AppData\Local\Temp\ccIabawO.s:615    .text._trace_init:00000000 _trace_init
C:\Users\z80\AppData\Local\Temp\ccIabawO.s:637    .text._trace_init:0000001c $d
C:\Users\z80\AppData\Local\Temp\ccIabawO.s:642    .text.dbg_trace:00000000 $t
C:\Users\z80\AppData\Local\Temp\ccIabawO.s:648    .text.dbg_trace:00000000 dbg_trace
C:\Users\z80\AppData\Local\Temp\ccIabawO.s:717    .text.dbg_trace:0000008c $d
C:\Users\z80\AppData\Local\Temp\ccIabawO.s:727    .bss.dbg_panic_msg:00000000 dbg_panic_msg
C:\Users\z80\AppData\Local\Temp\ccIabawO.s:724    .bss.dbg_panic_msg:00000000 $d
C:\Users\z80\AppData\Local\Temp\ccIabawO.s:730    .text.chDbgPanic:00000000 $t
                     .debug_frame:00000010 $d
C:\Users\z80\AppData\Local\Temp\ccIabawO.s:723    .text.dbg_trace:00000094 $t

UNDEFINED SYMBOLS
vtlist
ARM GAS  C:\Users\z80\AppData\Local\Temp\ccIabawO.s 			page 59


rlist
port_halt
