ARM GAS  /tmp/cc1fYiR7.s 			page 1


   1              		.syntax unified
   2              		.cpu cortex-m3
   3              		.fpu softvfp
   4              		.eabi_attribute 20, 1
   5              		.eabi_attribute 21, 1
   6              		.eabi_attribute 23, 3
   7              		.eabi_attribute 24, 1
   8              		.eabi_attribute 25, 1
   9              		.eabi_attribute 26, 1
  10              		.eabi_attribute 30, 2
  11              		.eabi_attribute 18, 4
  12              		.thumb
  13              		.file	"chdebug.c"
  20 0000 46030000 		.text
  20      02006B01 
  20      00000201 
  20      FB0E0D00 
  20      01010101 
  21              	.Ltext0:
  22              		.cfi_sections	.debug_frame
  23              		.section	.text.dbg_check_disable,"ax",%progbits
  24              		.align	2
  25              		.p2align 4,,15
  26              		.global	dbg_check_disable
  27              		.thumb
  28              		.thumb_func
  29              		.type	dbg_check_disable, %function
  30              	dbg_check_disable:
  31              	.LFB7:
  32              		.file 1 "../chibios_2.4.x/os/kernel/src/chdebug.c"
  33              		.loc 1 81 0
  34              		.cfi_startproc
  35              		@ args = 0, pretend = 0, frame = 0
  36              		@ frame_needed = 0, uses_anonymous_args = 0
  37              		@ link register save eliminated.
  38              		.loc 1 83 0
  39 0000 0548     		ldr	r0, .L5
  40 0002 0368     		ldr	r3, [r0, #0]
  41 0004 13B9     		cbnz	r3, .L2
  42              		.loc 1 83 0 is_stmt 0 discriminator 1
  43 0006 054A     		ldr	r2, .L5+4
  44 0008 1168     		ldr	r1, [r2, #0]
  45 000a 21B1     		cbz	r1, .L1
  46              	.L2:
  47              	.LVL0:
  48              	.LBB28:
  49              	.LBB29:
  50              		.loc 1 273 0 is_stmt 1
  51 000c 0448     		ldr	r0, .L5+8
  52 000e 054B     		ldr	r3, .L5+12
  53 0010 1860     		str	r0, [r3, #0]
ARM GAS  /tmp/cc1fYiR7.s 			page 2


  54              	.LBE29:
  55              	.LBE28:
  56              		.loc 1 85 0
  57              	.LBB31:
  58              	.LBB30:
  59              		.loc 1 274 0
  60 0012 FFF7FEBF 		b	port_halt
  61              	.LVL1:
  62              	.L1:
  63 0016 7047     		bx	lr
  64              	.L6:
  65              		.align	2
  66              	.L5:
  67 0018 00000000 		.word	.LANCHOR0
  68 001c 00000000 		.word	.LANCHOR1
  69 0020 00000000 		.word	.LC0
  70 0024 00000000 		.word	.LANCHOR2
  71              	.LBE30:
  72              	.LBE31:
  73              		.cfi_endproc
  74              	.LFE7:
  75              		.size	dbg_check_disable, .-dbg_check_disable
  76 0028 AFF30080 		.section	.text.dbg_check_suspend,"ax",%progbits
  76      AFF30080 
  77              		.align	2
  78              		.p2align 4,,15
  79              		.global	dbg_check_suspend
  80              		.thumb
  81              		.thumb_func
  82              		.type	dbg_check_suspend, %function
  83              	dbg_check_suspend:
  84              	.LFB8:
  85              		.loc 1 92 0
  86              		.cfi_startproc
  87              		@ args = 0, pretend = 0, frame = 0
  88              		@ frame_needed = 0, uses_anonymous_args = 0
  89              		@ link register save eliminated.
  90              		.loc 1 94 0
  91 0000 0548     		ldr	r0, .L10
  92 0002 0368     		ldr	r3, [r0, #0]
  93 0004 13B9     		cbnz	r3, .L8
  94              		.loc 1 94 0 is_stmt 0 discriminator 1
  95 0006 054A     		ldr	r2, .L10+4
  96 0008 1168     		ldr	r1, [r2, #0]
  97 000a 21B1     		cbz	r1, .L7
  98              	.L8:
  99              	.LVL2:
 100              	.LBB32:
 101              	.LBB33:
 102              		.loc 1 273 0 is_stmt 1
 103 000c 0448     		ldr	r0, .L10+8
 104 000e 054B     		ldr	r3, .L10+12
 105 0010 1860     		str	r0, [r3, #0]
 106              	.LBE33:
 107              	.LBE32:
 108              		.loc 1 96 0
 109              	.LBB35:
ARM GAS  /tmp/cc1fYiR7.s 			page 3


 110              	.LBB34:
 111              		.loc 1 274 0
 112 0012 FFF7FEBF 		b	port_halt
 113              	.LVL3:
 114              	.L7:
 115 0016 7047     		bx	lr
 116              	.L11:
 117              		.align	2
 118              	.L10:
 119 0018 00000000 		.word	.LANCHOR0
 120 001c 00000000 		.word	.LANCHOR1
 121 0020 08000000 		.word	.LC1
 122 0024 00000000 		.word	.LANCHOR2
 123              	.LBE34:
 124              	.LBE35:
 125              		.cfi_endproc
 126              	.LFE8:
 127              		.size	dbg_check_suspend, .-dbg_check_suspend
 128 0028 AFF30080 		.section	.text.dbg_check_enable,"ax",%progbits
 128      AFF30080 
 129              		.align	2
 130              		.p2align 4,,15
 131              		.global	dbg_check_enable
 132              		.thumb
 133              		.thumb_func
 134              		.type	dbg_check_enable, %function
 135              	dbg_check_enable:
 136              	.LFB9:
 137              		.loc 1 103 0
 138              		.cfi_startproc
 139              		@ args = 0, pretend = 0, frame = 0
 140              		@ frame_needed = 0, uses_anonymous_args = 0
 141              		@ link register save eliminated.
 142              		.loc 1 105 0
 143 0000 0548     		ldr	r0, .L15
 144 0002 0368     		ldr	r3, [r0, #0]
 145 0004 13B9     		cbnz	r3, .L13
 146              		.loc 1 105 0 is_stmt 0 discriminator 1
 147 0006 054A     		ldr	r2, .L15+4
 148 0008 1168     		ldr	r1, [r2, #0]
 149 000a 21B1     		cbz	r1, .L12
 150              	.L13:
 151              	.LVL4:
 152              	.LBB36:
 153              	.LBB37:
 154              		.loc 1 273 0 is_stmt 1
 155 000c 0448     		ldr	r0, .L15+8
 156 000e 054B     		ldr	r3, .L15+12
 157 0010 1860     		str	r0, [r3, #0]
 158              	.LBE37:
 159              	.LBE36:
 160              		.loc 1 107 0
 161              	.LBB39:
 162              	.LBB38:
 163              		.loc 1 274 0
 164 0012 FFF7FEBF 		b	port_halt
 165              	.LVL5:
ARM GAS  /tmp/cc1fYiR7.s 			page 4


 166              	.L12:
 167 0016 7047     		bx	lr
 168              	.L16:
 169              		.align	2
 170              	.L15:
 171 0018 00000000 		.word	.LANCHOR0
 172 001c 00000000 		.word	.LANCHOR1
 173 0020 10000000 		.word	.LC2
 174 0024 00000000 		.word	.LANCHOR2
 175              	.LBE38:
 176              	.LBE39:
 177              		.cfi_endproc
 178              	.LFE9:
 179              		.size	dbg_check_enable, .-dbg_check_enable
 180 0028 AFF30080 		.section	.text.dbg_check_lock,"ax",%progbits
 180      AFF30080 
 181              		.align	2
 182              		.p2align 4,,15
 183              		.global	dbg_check_lock
 184              		.thumb
 185              		.thumb_func
 186              		.type	dbg_check_lock, %function
 187              	dbg_check_lock:
 188              	.LFB10:
 189              		.loc 1 114 0
 190              		.cfi_startproc
 191              		@ args = 0, pretend = 0, frame = 0
 192              		@ frame_needed = 0, uses_anonymous_args = 0
 193              		.loc 1 116 0
 194 0000 0848     		ldr	r0, .L23
 195              		.loc 1 114 0
 196 0002 10B5     		push	{r4, lr}
 197              	.LCFI0:
 198              		.cfi_def_cfa_offset 8
 199              		.loc 1 116 0
 200 0004 0368     		ldr	r3, [r0, #0]
 201 0006 53B9     		cbnz	r3, .L22
 202              		.cfi_offset 14, -4
 203              		.cfi_offset 4, -8
 204              		.loc 1 116 0 is_stmt 0 discriminator 1
 205 0008 074C     		ldr	r4, .L23+4
 206 000a 2168     		ldr	r1, [r4, #0]
 207 000c 21B1     		cbz	r1, .L19
 208              	.L18:
 209              	.LVL6:
 210              	.LBB40:
 211              	.LBB41:
 212              		.loc 1 273 0 is_stmt 1
 213 000e 074A     		ldr	r2, .L23+8
 214 0010 074B     		ldr	r3, .L23+12
 215 0012 1A60     		str	r2, [r3, #0]
 216              		.loc 1 274 0
 217 0014 FFF7FEFF 		bl	port_halt
 218              	.LVL7:
 219              	.L19:
 220              	.LBE41:
 221              	.LBE40:
ARM GAS  /tmp/cc1fYiR7.s 			page 5


 222              		.loc 1 118 0
 223 0018 0120     		movs	r0, #1
 224 001a 2060     		str	r0, [r4, #0]
 225              		.loc 1 119 0
 226 001c 10BD     		pop	{r4, pc}
 227              	.L22:
 228 001e 024C     		ldr	r4, .L23+4
 229 0020 F5E7     		b	.L18
 230              	.L24:
 231 0022 00BF     		.align	2
 232              	.L23:
 233 0024 00000000 		.word	.LANCHOR0
 234 0028 00000000 		.word	.LANCHOR1
 235 002c 18000000 		.word	.LC3
 236 0030 00000000 		.word	.LANCHOR2
 237              		.cfi_endproc
 238              	.LFE10:
 239              		.size	dbg_check_lock, .-dbg_check_lock
 240 0034 AFF30080 		.section	.text.dbg_check_unlock,"ax",%progbits
 240      AFF30080 
 240      AFF30080 
 241              		.align	2
 242              		.p2align 4,,15
 243              		.global	dbg_check_unlock
 244              		.thumb
 245              		.thumb_func
 246              		.type	dbg_check_unlock, %function
 247              	dbg_check_unlock:
 248              	.LFB11:
 249              		.loc 1 126 0
 250              		.cfi_startproc
 251              		@ args = 0, pretend = 0, frame = 0
 252              		@ frame_needed = 0, uses_anonymous_args = 0
 253              		.loc 1 128 0
 254 0000 0948     		ldr	r0, .L31
 255              		.loc 1 126 0
 256 0002 10B5     		push	{r4, lr}
 257              	.LCFI1:
 258              		.cfi_def_cfa_offset 8
 259              		.loc 1 128 0
 260 0004 0368     		ldr	r3, [r0, #0]
 261 0006 33B9     		cbnz	r3, .L30
 262              		.cfi_offset 14, -4
 263              		.cfi_offset 4, -8
 264              		.loc 1 128 0 is_stmt 0 discriminator 1
 265 0008 084C     		ldr	r4, .L31+4
 266 000a 2168     		ldr	r1, [r4, #0]
 267 000c 0029     		cmp	r1, #0
 268 000e 03DD     		ble	.L26
 269              		.loc 1 130 0 is_stmt 1
 270 0010 0020     		movs	r0, #0
 271 0012 2060     		str	r0, [r4, #0]
 272              		.loc 1 131 0
 273 0014 10BD     		pop	{r4, pc}
 274              	.L30:
 275 0016 054C     		ldr	r4, .L31+4
 276              	.L26:
ARM GAS  /tmp/cc1fYiR7.s 			page 6


 277              	.LVL8:
 278              	.LBB42:
 279              	.LBB43:
 280              		.loc 1 273 0
 281 0018 054A     		ldr	r2, .L31+8
 282 001a 064B     		ldr	r3, .L31+12
 283 001c 1A60     		str	r2, [r3, #0]
 284              		.loc 1 274 0
 285 001e FFF7FEFF 		bl	port_halt
 286              	.LBE43:
 287              	.LBE42:
 288              		.loc 1 130 0
 289 0022 0020     		movs	r0, #0
 290 0024 2060     		str	r0, [r4, #0]
 291              		.loc 1 131 0
 292 0026 10BD     		pop	{r4, pc}
 293              	.L32:
 294              		.align	2
 295              	.L31:
 296 0028 00000000 		.word	.LANCHOR0
 297 002c 00000000 		.word	.LANCHOR1
 298 0030 20000000 		.word	.LC4
 299 0034 00000000 		.word	.LANCHOR2
 300              		.cfi_endproc
 301              	.LFE11:
 302              		.size	dbg_check_unlock, .-dbg_check_unlock
 303 0038 AFF30080 		.section	.text.dbg_check_lock_from_isr,"ax",%progbits
 303      AFF30080 
 304              		.align	2
 305              		.p2align 4,,15
 306              		.global	dbg_check_lock_from_isr
 307              		.thumb
 308              		.thumb_func
 309              		.type	dbg_check_lock_from_isr, %function
 310              	dbg_check_lock_from_isr:
 311              	.LFB12:
 312              		.loc 1 138 0
 313              		.cfi_startproc
 314              		@ args = 0, pretend = 0, frame = 0
 315              		@ frame_needed = 0, uses_anonymous_args = 0
 316              		.loc 1 140 0
 317 0000 0848     		ldr	r0, .L39
 318              		.loc 1 138 0
 319 0002 10B5     		push	{r4, lr}
 320              	.LCFI2:
 321              		.cfi_def_cfa_offset 8
 322              		.loc 1 140 0
 323 0004 0368     		ldr	r3, [r0, #0]
 324 0006 002B     		cmp	r3, #0
 325 0008 0ADD     		ble	.L38
 326              		.cfi_offset 14, -4
 327              		.cfi_offset 4, -8
 328              		.loc 1 140 0 is_stmt 0 discriminator 1
 329 000a 074C     		ldr	r4, .L39+4
 330 000c 2168     		ldr	r1, [r4, #0]
 331 000e 21B1     		cbz	r1, .L35
 332              	.L34:
ARM GAS  /tmp/cc1fYiR7.s 			page 7


 333              	.LVL9:
 334              	.LBB44:
 335              	.LBB45:
 336              		.loc 1 273 0 is_stmt 1
 337 0010 064A     		ldr	r2, .L39+8
 338 0012 074B     		ldr	r3, .L39+12
 339 0014 1A60     		str	r2, [r3, #0]
 340              		.loc 1 274 0
 341 0016 FFF7FEFF 		bl	port_halt
 342              	.LVL10:
 343              	.L35:
 344              	.LBE45:
 345              	.LBE44:
 346              		.loc 1 142 0
 347 001a 0120     		movs	r0, #1
 348 001c 2060     		str	r0, [r4, #0]
 349              		.loc 1 143 0
 350 001e 10BD     		pop	{r4, pc}
 351              	.L38:
 352 0020 014C     		ldr	r4, .L39+4
 353 0022 F5E7     		b	.L34
 354              	.L40:
 355              		.align	2
 356              	.L39:
 357 0024 00000000 		.word	.LANCHOR0
 358 0028 00000000 		.word	.LANCHOR1
 359 002c 28000000 		.word	.LC5
 360 0030 00000000 		.word	.LANCHOR2
 361              		.cfi_endproc
 362              	.LFE12:
 363              		.size	dbg_check_lock_from_isr, .-dbg_check_lock_from_isr
 364 0034 AFF30080 		.section	.text.dbg_check_unlock_from_isr,"ax",%progbits
 364      AFF30080 
 364      AFF30080 
 365              		.align	2
 366              		.p2align 4,,15
 367              		.global	dbg_check_unlock_from_isr
 368              		.thumb
 369              		.thumb_func
 370              		.type	dbg_check_unlock_from_isr, %function
 371              	dbg_check_unlock_from_isr:
 372              	.LFB13:
 373              		.loc 1 150 0
 374              		.cfi_startproc
 375              		@ args = 0, pretend = 0, frame = 0
 376              		@ frame_needed = 0, uses_anonymous_args = 0
 377              		.loc 1 152 0
 378 0000 0A48     		ldr	r0, .L47
 379              		.loc 1 150 0
 380 0002 10B5     		push	{r4, lr}
 381              	.LCFI3:
 382              		.cfi_def_cfa_offset 8
 383              		.loc 1 152 0
 384 0004 0368     		ldr	r3, [r0, #0]
 385 0006 002B     		cmp	r3, #0
 386 0008 06DD     		ble	.L46
 387              		.cfi_offset 14, -4
ARM GAS  /tmp/cc1fYiR7.s 			page 8


 388              		.cfi_offset 4, -8
 389              		.loc 1 152 0 is_stmt 0 discriminator 1
 390 000a 094C     		ldr	r4, .L47+4
 391 000c 2168     		ldr	r1, [r4, #0]
 392 000e 0029     		cmp	r1, #0
 393 0010 03DD     		ble	.L42
 394              		.loc 1 154 0 is_stmt 1
 395 0012 0020     		movs	r0, #0
 396 0014 2060     		str	r0, [r4, #0]
 397              		.loc 1 155 0
 398 0016 10BD     		pop	{r4, pc}
 399              	.L46:
 400 0018 054C     		ldr	r4, .L47+4
 401              	.L42:
 402              	.LVL11:
 403              	.LBB46:
 404              	.LBB47:
 405              		.loc 1 273 0
 406 001a 064A     		ldr	r2, .L47+8
 407 001c 064B     		ldr	r3, .L47+12
 408 001e 1A60     		str	r2, [r3, #0]
 409              		.loc 1 274 0
 410 0020 FFF7FEFF 		bl	port_halt
 411              	.LBE47:
 412              	.LBE46:
 413              		.loc 1 154 0
 414 0024 0020     		movs	r0, #0
 415 0026 2060     		str	r0, [r4, #0]
 416              		.loc 1 155 0
 417 0028 10BD     		pop	{r4, pc}
 418              	.L48:
 419 002a 00BF     		.align	2
 420              	.L47:
 421 002c 00000000 		.word	.LANCHOR0
 422 0030 00000000 		.word	.LANCHOR1
 423 0034 30000000 		.word	.LC6
 424 0038 00000000 		.word	.LANCHOR2
 425              		.cfi_endproc
 426              	.LFE13:
 427              		.size	dbg_check_unlock_from_isr, .-dbg_check_unlock_from_isr
 428 003c AFF30080 		.section	.text.dbg_check_enter_isr,"ax",%progbits
 429              		.align	2
 430              		.p2align 4,,15
 431              		.global	dbg_check_enter_isr
 432              		.thumb
 433              		.thumb_func
 434              		.type	dbg_check_enter_isr, %function
 435              	dbg_check_enter_isr:
 436              	.LFB14:
 437              		.loc 1 162 0
 438              		.cfi_startproc
 439              		@ args = 0, pretend = 0, frame = 0
 440              		@ frame_needed = 0, uses_anonymous_args = 0
 441 0000 10B5     		push	{r4, lr}
 442              	.LCFI4:
 443              		.cfi_def_cfa_offset 8
 444              	.LBB48:
ARM GAS  /tmp/cc1fYiR7.s 			page 9


 445              		.loc 1 164 0
 446 0002 2023     		movs	r3, #32
 447              	.LVL12:
 448              	@ 164 "../chibios_2.4.x/os/kernel/src/chdebug.c" 1
 449 0004 83F31188 		msr     BASEPRI, r3
 450              	@ 0 "" 2
 451              	.LVL13:
 452              		.thumb
 453              	.LBE48:
 454              		.loc 1 165 0
 455 0008 094C     		ldr	r4, .L52
 456              		.cfi_offset 14, -4
 457              		.cfi_offset 4, -8
 458 000a 2368     		ldr	r3, [r4, #0]
 459              	.LVL14:
 460 000c 002B     		cmp	r3, #0
 461 000e 02DB     		blt	.L50
 462              		.loc 1 165 0 is_stmt 0 discriminator 1
 463 0010 0848     		ldr	r0, .L52+4
 464 0012 0268     		ldr	r2, [r0, #0]
 465 0014 2AB1     		cbz	r2, .L51
 466              	.L50:
 467              	.LVL15:
 468              	.LBB49:
 469              	.LBB50:
 470              		.loc 1 273 0 is_stmt 1
 471 0016 084B     		ldr	r3, .L52+8
 472 0018 0849     		ldr	r1, .L52+12
 473 001a 1960     		str	r1, [r3, #0]
 474              		.loc 1 274 0
 475 001c FFF7FEFF 		bl	port_halt
 476 0020 2368     		ldr	r3, [r4, #0]
 477              	.LVL16:
 478              	.L51:
 479              	.LBE50:
 480              	.LBE49:
 481              		.loc 1 167 0
 482 0022 5A1C     		adds	r2, r3, #1
 483 0024 2260     		str	r2, [r4, #0]
 484              	.LBB51:
 485              		.loc 1 168 0
 486 0026 0023     		movs	r3, #0
 487              	.LVL17:
 488              	@ 168 "../chibios_2.4.x/os/kernel/src/chdebug.c" 1
 489 0028 83F31188 		msr     BASEPRI, r3
 490              	@ 0 "" 2
 491              	.LVL18:
 492              		.thumb
 493              	.LBE51:
 494              		.loc 1 169 0
 495 002c 10BD     		pop	{r4, pc}
 496              	.L53:
 497 002e 00BF     		.align	2
 498              	.L52:
 499 0030 00000000 		.word	.LANCHOR0
 500 0034 00000000 		.word	.LANCHOR1
 501 0038 00000000 		.word	.LANCHOR2
ARM GAS  /tmp/cc1fYiR7.s 			page 10


 502 003c 38000000 		.word	.LC7
 503              		.cfi_endproc
 504              	.LFE14:
 505              		.size	dbg_check_enter_isr, .-dbg_check_enter_isr
 506              		.section	.text.dbg_check_leave_isr,"ax",%progbits
 507              		.align	2
 508              		.p2align 4,,15
 509              		.global	dbg_check_leave_isr
 510              		.thumb
 511              		.thumb_func
 512              		.type	dbg_check_leave_isr, %function
 513              	dbg_check_leave_isr:
 514              	.LFB15:
 515              		.loc 1 176 0
 516              		.cfi_startproc
 517              		@ args = 0, pretend = 0, frame = 0
 518              		@ frame_needed = 0, uses_anonymous_args = 0
 519 0000 10B5     		push	{r4, lr}
 520              	.LCFI5:
 521              		.cfi_def_cfa_offset 8
 522              	.LBB52:
 523              		.loc 1 178 0
 524 0002 2023     		movs	r3, #32
 525              	.LVL19:
 526              	@ 178 "../chibios_2.4.x/os/kernel/src/chdebug.c" 1
 527 0004 83F31188 		msr     BASEPRI, r3
 528              	@ 0 "" 2
 529              	.LVL20:
 530              		.thumb
 531              	.LBE52:
 532              		.loc 1 179 0
 533 0008 094C     		ldr	r4, .L57
 534              		.cfi_offset 14, -4
 535              		.cfi_offset 4, -8
 536 000a 2368     		ldr	r3, [r4, #0]
 537              	.LVL21:
 538 000c 002B     		cmp	r3, #0
 539 000e 02DD     		ble	.L55
 540              		.loc 1 179 0 is_stmt 0 discriminator 1
 541 0010 0848     		ldr	r0, .L57+4
 542 0012 0268     		ldr	r2, [r0, #0]
 543 0014 2AB1     		cbz	r2, .L56
 544              	.L55:
 545              	.LVL22:
 546              	.LBB53:
 547              	.LBB54:
 548              		.loc 1 273 0 is_stmt 1
 549 0016 084B     		ldr	r3, .L57+8
 550 0018 0849     		ldr	r1, .L57+12
 551 001a 1960     		str	r1, [r3, #0]
 552              		.loc 1 274 0
 553 001c FFF7FEFF 		bl	port_halt
 554 0020 2368     		ldr	r3, [r4, #0]
 555              	.LVL23:
 556              	.L56:
 557              	.LBE54:
 558              	.LBE53:
ARM GAS  /tmp/cc1fYiR7.s 			page 11


 559              		.loc 1 181 0
 560 0022 5A1E     		subs	r2, r3, #1
 561 0024 2260     		str	r2, [r4, #0]
 562              	.LBB55:
 563              		.loc 1 182 0
 564 0026 0023     		movs	r3, #0
 565              	.LVL24:
 566              	@ 182 "../chibios_2.4.x/os/kernel/src/chdebug.c" 1
 567 0028 83F31188 		msr     BASEPRI, r3
 568              	@ 0 "" 2
 569              	.LVL25:
 570              		.thumb
 571              	.LBE55:
 572              		.loc 1 183 0
 573 002c 10BD     		pop	{r4, pc}
 574              	.L58:
 575 002e 00BF     		.align	2
 576              	.L57:
 577 0030 00000000 		.word	.LANCHOR0
 578 0034 00000000 		.word	.LANCHOR1
 579 0038 00000000 		.word	.LANCHOR2
 580 003c 40000000 		.word	.LC8
 581              		.cfi_endproc
 582              	.LFE15:
 583              		.size	dbg_check_leave_isr, .-dbg_check_leave_isr
 584              		.section	.text.chDbgCheckClassI,"ax",%progbits
 585              		.align	2
 586              		.p2align 4,,15
 587              		.global	chDbgCheckClassI
 588              		.thumb
 589              		.thumb_func
 590              		.type	chDbgCheckClassI, %function
 591              	chDbgCheckClassI:
 592              	.LFB16:
 593              		.loc 1 193 0
 594              		.cfi_startproc
 595              		@ args = 0, pretend = 0, frame = 0
 596              		@ frame_needed = 0, uses_anonymous_args = 0
 597              		@ link register save eliminated.
 598              		.loc 1 195 0
 599 0000 0648     		ldr	r0, .L62
 600 0002 0368     		ldr	r3, [r0, #0]
 601 0004 002B     		cmp	r3, #0
 602 0006 04DB     		blt	.L60
 603              		.loc 1 195 0 is_stmt 0 discriminator 1
 604 0008 054A     		ldr	r2, .L62+4
 605 000a 1168     		ldr	r1, [r2, #0]
 606 000c 0029     		cmp	r1, #0
 607 000e 00DD     		ble	.L60
 608 0010 7047     		bx	lr
 609              	.L60:
 610              	.LVL26:
 611              	.LBB56:
 612              	.LBB57:
 613              		.loc 1 273 0 is_stmt 1
 614 0012 0448     		ldr	r0, .L62+8
 615 0014 044B     		ldr	r3, .L62+12
ARM GAS  /tmp/cc1fYiR7.s 			page 12


 616 0016 1860     		str	r0, [r3, #0]
 617              	.LBE57:
 618              	.LBE56:
 619              		.loc 1 197 0
 620              	.LBB59:
 621              	.LBB58:
 622              		.loc 1 274 0
 623 0018 FFF7FEBF 		b	port_halt
 624              	.L63:
 625              		.align	2
 626              	.L62:
 627 001c 00000000 		.word	.LANCHOR0
 628 0020 00000000 		.word	.LANCHOR1
 629 0024 48000000 		.word	.LC9
 630 0028 00000000 		.word	.LANCHOR2
 631              	.LBE58:
 632              	.LBE59:
 633              		.cfi_endproc
 634              	.LFE16:
 635              		.size	chDbgCheckClassI, .-chDbgCheckClassI
 636 002c AFF30080 		.section	.text.chDbgCheckClassS,"ax",%progbits
 637              		.align	2
 638              		.p2align 4,,15
 639              		.global	chDbgCheckClassS
 640              		.thumb
 641              		.thumb_func
 642              		.type	chDbgCheckClassS, %function
 643              	chDbgCheckClassS:
 644              	.LFB17:
 645              		.loc 1 207 0
 646              		.cfi_startproc
 647              		@ args = 0, pretend = 0, frame = 0
 648              		@ frame_needed = 0, uses_anonymous_args = 0
 649              		@ link register save eliminated.
 650              		.loc 1 209 0
 651 0000 0648     		ldr	r0, .L67
 652 0002 0368     		ldr	r3, [r0, #0]
 653 0004 23B9     		cbnz	r3, .L65
 654              		.loc 1 209 0 is_stmt 0 discriminator 1
 655 0006 064A     		ldr	r2, .L67+4
 656 0008 1168     		ldr	r1, [r2, #0]
 657 000a 0029     		cmp	r1, #0
 658 000c 00DD     		ble	.L65
 659 000e 7047     		bx	lr
 660              	.L65:
 661              	.LVL27:
 662              	.LBB60:
 663              	.LBB61:
 664              		.loc 1 273 0 is_stmt 1
 665 0010 0448     		ldr	r0, .L67+8
 666 0012 054B     		ldr	r3, .L67+12
 667 0014 1860     		str	r0, [r3, #0]
 668              	.LBE61:
 669              	.LBE60:
 670              		.loc 1 211 0
 671              	.LBB63:
 672              	.LBB62:
ARM GAS  /tmp/cc1fYiR7.s 			page 13


 673              		.loc 1 274 0
 674 0016 FFF7FEBF 		b	port_halt
 675              	.L68:
 676 001a 00BF     		.align	2
 677              	.L67:
 678 001c 00000000 		.word	.LANCHOR0
 679 0020 00000000 		.word	.LANCHOR1
 680 0024 50000000 		.word	.LC10
 681 0028 00000000 		.word	.LANCHOR2
 682              	.LBE62:
 683              	.LBE63:
 684              		.cfi_endproc
 685              	.LFE17:
 686              		.size	chDbgCheckClassS, .-chDbgCheckClassS
 687 002c AFF30080 		.section	.text._trace_init,"ax",%progbits
 688              		.align	2
 689              		.p2align 4,,15
 690              		.global	_trace_init
 691              		.thumb
 692              		.thumb_func
 693              		.type	_trace_init, %function
 694              	_trace_init:
 695              	.LFB18:
 696              		.loc 1 229 0
 697              		.cfi_startproc
 698              		@ args = 0, pretend = 0, frame = 0
 699              		@ frame_needed = 0, uses_anonymous_args = 0
 700              		@ link register save eliminated.
 701              		.loc 1 231 0
 702 0000 034A     		ldr	r2, .L70
 703 0002 4021     		movs	r1, #64
 704 0004 1346     		mov	r3, r2
 705 0006 43F8081B 		str	r1, [r3], #8
 706              		.loc 1 232 0
 707 000a 5360     		str	r3, [r2, #4]
 708              		.loc 1 233 0
 709 000c 7047     		bx	lr
 710              	.L71:
 711 000e 00BF     		.align	2
 712              	.L70:
 713 0010 00000000 		.word	.LANCHOR3
 714              		.cfi_endproc
 715              	.LFE18:
 716              		.size	_trace_init, .-_trace_init
 717 0014 AFF30080 		.section	.text.dbg_trace,"ax",%progbits
 717      AFF30080 
 717      AFF30080 
 718              		.align	2
 719              		.p2align 4,,15
 720              		.global	dbg_trace
 721              		.thumb
 722              		.thumb_func
 723              		.type	dbg_trace, %function
 724              	dbg_trace:
 725              	.LFB19:
 726              		.loc 1 242 0
 727              		.cfi_startproc
ARM GAS  /tmp/cc1fYiR7.s 			page 14


 728              		@ args = 0, pretend = 0, frame = 0
 729              		@ frame_needed = 0, uses_anonymous_args = 0
 730              		@ link register save eliminated.
 731              	.LVL28:
 732 0000 10B4     		push	{r4}
 733              	.LCFI6:
 734              		.cfi_def_cfa_offset 4
 735              		.loc 1 244 0
 736 0002 0D4A     		ldr	r2, .L74
 737 0004 0D4C     		ldr	r4, .L74+4
 738              		.cfi_offset 4, -4
 739              		.loc 1 245 0
 740 0006 0E49     		ldr	r1, .L74+8
 741              		.loc 1 244 0
 742 0008 5368     		ldr	r3, [r2, #4]
 743 000a E468     		ldr	r4, [r4, #12]
 744              		.loc 1 245 0
 745 000c C969     		ldr	r1, [r1, #28]
 746              		.loc 1 244 0
 747 000e 1C60     		str	r4, [r3, #0]
 748              		.loc 1 245 0
 749 0010 5960     		str	r1, [r3, #4]
 750              		.loc 1 246 0
 751 0012 846A     		ldr	r4, [r0, #40]
 752              		.loc 1 248 0
 753 0014 03F11001 		add	r1, r3, #16
 754              		.loc 1 246 0
 755 0018 9C60     		str	r4, [r3, #8]
 756              		.loc 1 247 0
 757 001a 90F82040 		ldrb	r4, [r0, #32]	@ zero_extendqisi2
 758              		.loc 1 249 0
 759 001e 02F58160 		add	r0, r2, #1032
 760              	.LVL29:
 761              		.loc 1 248 0
 762 0022 8142     		cmp	r1, r0
 763              		.loc 1 247 0
 764 0024 1C73     		strb	r4, [r3, #12]
 765              		.loc 1 250 0
 766 0026 28BF     		it	cs
 767 0028 02F10803 		addcs	r3, r2, #8
 768              		.loc 1 248 0
 769 002c 5160     		str	r1, [r2, #4]
 770              		.loc 1 250 0
 771 002e 28BF     		it	cs
 772 0030 5360     		strcs	r3, [r2, #4]
 773              		.loc 1 251 0
 774 0032 10BC     		pop	{r4}
 775 0034 7047     		bx	lr
 776              	.L75:
 777 0036 00BF     		.align	2
 778              	.L74:
 779 0038 00000000 		.word	.LANCHOR3
 780 003c 00000000 		.word	vtlist
 781 0040 00000000 		.word	rlist
 782              		.cfi_endproc
 783              	.LFE19:
 784              		.size	dbg_trace, .-dbg_trace
ARM GAS  /tmp/cc1fYiR7.s 			page 15


 785 0044 AFF30080 		.section	.text.chDbgPanic,"ax",%progbits
 785      AFF30080 
 785      AFF30080 
 786              		.align	2
 787              		.p2align 4,,15
 788              		.global	chDbgPanic
 789              		.thumb
 790              		.thumb_func
 791              		.type	chDbgPanic, %function
 792              	chDbgPanic:
 793              	.LFB20:
 794              		.loc 1 271 0
 795              		.cfi_startproc
 796              		@ args = 0, pretend = 0, frame = 0
 797              		@ frame_needed = 0, uses_anonymous_args = 0
 798              		@ link register save eliminated.
 799              	.LVL30:
 800              		.loc 1 273 0
 801 0000 014B     		ldr	r3, .L77
 802 0002 1860     		str	r0, [r3, #0]
 803              		.loc 1 275 0
 804              		.loc 1 274 0
 805 0004 FFF7FEBF 		b	port_halt
 806              	.LVL31:
 807              	.L78:
 808              		.align	2
 809              	.L77:
 810 0008 00000000 		.word	.LANCHOR2
 811              		.cfi_endproc
 812              	.LFE20:
 813              		.size	chDbgPanic, .-chDbgPanic
 814              		.global	dbg_trace_buffer
 815              		.global	dbg_panic_msg
 816              		.global	dbg_isr_cnt
 817              		.global	dbg_lock_cnt
 818 000c AFF30080 		.section	.bss.dbg_isr_cnt,"aw",%nobits
 819              		.align	2
 820              		.set	.LANCHOR0,. + 0
 821              		.type	dbg_isr_cnt, %object
 822              		.size	dbg_isr_cnt, 4
 823              	dbg_isr_cnt:
 824 0000 00000000 		.space	4
 825              		.section	.bss.dbg_trace_buffer,"aw",%nobits
 826              		.align	2
 827              		.set	.LANCHOR3,. + 0
 828              		.type	dbg_trace_buffer, %object
 829              		.size	dbg_trace_buffer, 1032
 830              	dbg_trace_buffer:
 831 0000 00000000 		.space	1032
 831      00000000 
 831      00000000 
 831      00000000 
 831      00000000 
 832              		.section	.rodata.str1.4,"aMS",%progbits,1
 833              		.align	2
 834              	.LC0:
 835 0000 53562331 		.ascii	"SV#1\000"
ARM GAS  /tmp/cc1fYiR7.s 			page 16


 835      00
 836 0005 000000   		.space	3
 837              	.LC1:
 838 0008 53562332 		.ascii	"SV#2\000"
 838      00
 839 000d 000000   		.space	3
 840              	.LC2:
 841 0010 53562333 		.ascii	"SV#3\000"
 841      00
 842 0015 000000   		.space	3
 843              	.LC3:
 844 0018 53562334 		.ascii	"SV#4\000"
 844      00
 845 001d 000000   		.space	3
 846              	.LC4:
 847 0020 53562335 		.ascii	"SV#5\000"
 847      00
 848 0025 000000   		.space	3
 849              	.LC5:
 850 0028 53562336 		.ascii	"SV#6\000"
 850      00
 851 002d 000000   		.space	3
 852              	.LC6:
 853 0030 53562337 		.ascii	"SV#7\000"
 853      00
 854 0035 000000   		.space	3
 855              	.LC7:
 856 0038 53562338 		.ascii	"SV#8\000"
 856      00
 857 003d 000000   		.space	3
 858              	.LC8:
 859 0040 53562339 		.ascii	"SV#9\000"
 859      00
 860 0045 000000   		.space	3
 861              	.LC9:
 862 0048 53562331 		.ascii	"SV#10\000"
 862      3000
 863 004e 0000     		.space	2
 864              	.LC10:
 865 0050 53562331 		.ascii	"SV#11\000"
 865      3100
 866 0056 0000     		.section	.bss.dbg_lock_cnt,"aw",%nobits
 867              		.align	2
 868              		.set	.LANCHOR1,. + 0
 869              		.type	dbg_lock_cnt, %object
 870              		.size	dbg_lock_cnt, 4
 871              	dbg_lock_cnt:
 872 0000 00000000 		.space	4
 873              		.section	.bss.dbg_panic_msg,"aw",%nobits
 874              		.align	2
 875              		.set	.LANCHOR2,. + 0
 876              		.type	dbg_panic_msg, %object
 877              		.size	dbg_panic_msg, 4
 878              	dbg_panic_msg:
 879 0000 00000000 		.space	4
 880              		.text
 881              	.Letext0:
ARM GAS  /tmp/cc1fYiR7.s 			page 17

