ARM GAS  /tmp/ccIEcMfY.s 			page 1


   1              		.syntax unified
   2              		.cpu cortex-m3
   3              		.fpu softvfp
   4              		.eabi_attribute 20, 1
   5              		.eabi_attribute 21, 1
   6              		.eabi_attribute 23, 3
   7              		.eabi_attribute 24, 1
   8              		.eabi_attribute 25, 1
   9              		.eabi_attribute 26, 1
  10              		.eabi_attribute 30, 2
  11              		.eabi_attribute 18, 4
  12              		.thumb
  13              		.file	"chevents.c"
  14              		.section	.debug_abbrev,"",%progbits
  15              	.Ldebug_abbrev0:
  16              		.section	.debug_info,"",%progbits
  17              	.Ldebug_info0:
  18              		.section	.debug_line,"",%progbits
  19              	.Ldebug_line0:
  20 0000 69030000 		.text
  20      02006301 
  20      00000201 
  20      FB0E0D00 
  20      01010101 
  21              	.Ltext0:
  22              		.cfi_sections	.debug_frame
  23              		.section	.text.chEvtRegisterMask,"ax",%progbits
  24              		.align	2
  25              		.p2align 4,,15
  26              		.global	chEvtRegisterMask
  27              		.thumb
  28              		.thumb_func
  29              		.type	chEvtRegisterMask, %function
  30              	chEvtRegisterMask:
  31              	.LFB7:
  32              		.file 1 "../chibios_2.4.x/os/kernel/src/chevents.c"
  33              		.loc 1 82 0
  34              		.cfi_startproc
  35              		@ args = 0, pretend = 0, frame = 0
  36              		@ frame_needed = 0, uses_anonymous_args = 0
  37              	.LVL0:
  38 0000 70B5     		push	{r4, r5, r6, lr}
  39              	.LCFI0:
  40              		.cfi_def_cfa_offset 16
  41              		.loc 1 84 0
  42 0002 0446     		mov	r4, r0
  43              		.cfi_offset 14, -4
  44              		.cfi_offset 6, -8
  45              		.cfi_offset 5, -12
  46              		.cfi_offset 4, -16
  47              		.loc 1 82 0
  48 0004 0D46     		mov	r5, r1
  49 0006 1646     		mov	r6, r2
  50              		.loc 1 84 0
  51 0008 90B1     		cbz	r0, .L2
  52              		.loc 1 84 0 is_stmt 0 discriminator 2
  53 000a 89B1     		cbz	r1, .L2
ARM GAS  /tmp/ccIEcMfY.s 			page 2


  54              	.LVL1:
  55              	.L3:
  56              	.LBB2:
  57              		.loc 1 86 0 is_stmt 1
  58 000c 2023     		movs	r3, #32
  59              	.LVL2:
  60              	@ 86 "../chibios_2.4.x/os/kernel/src/chevents.c" 1
  61 000e 83F31188 		msr     BASEPRI, r3
  62              	@ 0 "" 2
  63              	.LVL3:
  64              		.thumb
  65              	.LBE2:
  66 0012 FFF7FEFF 		bl	dbg_check_lock
  67              	.LVL4:
  68              		.loc 1 89 0
  69 0016 0848     		ldr	r0, .L5
  70              		.loc 1 87 0
  71 0018 2268     		ldr	r2, [r4, #0]
  72              		.loc 1 89 0
  73 001a C369     		ldr	r3, [r0, #28]
  74              		.loc 1 87 0
  75 001c 2A60     		str	r2, [r5, #0]
  76              		.loc 1 88 0
  77 001e 2560     		str	r5, [r4, #0]
  78              		.loc 1 89 0
  79 0020 6B60     		str	r3, [r5, #4]
  80              		.loc 1 90 0
  81 0022 AE60     		str	r6, [r5, #8]
  82              		.loc 1 91 0
  83 0024 FFF7FEFF 		bl	dbg_check_unlock
  84              	.LBB3:
  85 0028 0023     		movs	r3, #0
  86              	.LVL5:
  87              	@ 91 "../chibios_2.4.x/os/kernel/src/chevents.c" 1
  88 002a 83F31188 		msr     BASEPRI, r3
  89              	@ 0 "" 2
  90              	.LVL6:
  91              		.thumb
  92              	.LBE3:
  93              		.loc 1 92 0
  94 002e 70BD     		pop	{r4, r5, r6, pc}
  95              	.LVL7:
  96              	.L2:
  97              		.loc 1 84 0 discriminator 1
  98 0030 0248     		ldr	r0, .L5+4
  99 0032 FFF7FEFF 		bl	chDbgPanic
 100 0036 E9E7     		b	.L3
 101              	.L6:
 102              		.align	2
 103              	.L5:
 104 0038 00000000 		.word	rlist
 105 003c 00000000 		.word	.LC0
 106              		.cfi_endproc
 107              	.LFE7:
 108              		.size	chEvtRegisterMask, .-chEvtRegisterMask
 109              		.section	.text.chEvtUnregister,"ax",%progbits
 110              		.align	2
ARM GAS  /tmp/ccIEcMfY.s 			page 3


 111              		.p2align 4,,15
 112              		.global	chEvtUnregister
 113              		.thumb
 114              		.thumb_func
 115              		.type	chEvtUnregister, %function
 116              	chEvtUnregister:
 117              	.LFB8:
 118              		.loc 1 107 0
 119              		.cfi_startproc
 120              		@ args = 0, pretend = 0, frame = 0
 121              		@ frame_needed = 0, uses_anonymous_args = 0
 122              	.LVL8:
 123 0000 38B5     		push	{r3, r4, r5, lr}
 124              	.LCFI1:
 125              		.cfi_def_cfa_offset 16
 126              		.loc 1 110 0
 127 0002 0446     		mov	r4, r0
 128              		.cfi_offset 14, -4
 129              		.cfi_offset 5, -8
 130              		.cfi_offset 4, -12
 131              		.cfi_offset 3, -16
 132              		.loc 1 107 0
 133 0004 0D46     		mov	r5, r1
 134              		.loc 1 110 0
 135 0006 D8B1     		cbz	r0, .L8
 136              		.loc 1 110 0 is_stmt 0 discriminator 2
 137 0008 D1B1     		cbz	r1, .L8
 138              	.LVL9:
 139              	.L9:
 140              	.LBB4:
 141              		.loc 1 113 0 is_stmt 1
 142 000a 2023     		movs	r3, #32
 143              	.LVL10:
 144              	@ 113 "../chibios_2.4.x/os/kernel/src/chevents.c" 1
 145 000c 83F31188 		msr     BASEPRI, r3
 146              	@ 0 "" 2
 147              	.LVL11:
 148              		.thumb
 149              	.LBE4:
 150 0010 FFF7FEFF 		bl	dbg_check_lock
 151              	.LVL12:
 152              		.loc 1 112 0
 153 0014 2246     		mov	r2, r4
 154              		.loc 1 114 0
 155 0016 02E0     		b	.L10
 156              	.LVL13:
 157              	.L12:
 158              		.loc 1 115 0
 159 0018 9D42     		cmp	r5, r3
 160 001a 09D0     		beq	.L14
 161 001c 1A46     		mov	r2, r3
 162              	.LVL14:
 163              	.L10:
 164              		.loc 1 114 0 discriminator 1
 165 001e 1368     		ldr	r3, [r2, #0]
 166 0020 9C42     		cmp	r4, r3
 167 0022 F9D1     		bne	.L12
ARM GAS  /tmp/ccIEcMfY.s 			page 4


 168              		.loc 1 121 0
 169 0024 FFF7FEFF 		bl	dbg_check_unlock
 170              	.LVL15:
 171              	.LBB5:
 172 0028 0023     		movs	r3, #0
 173              	.LVL16:
 174              	@ 121 "../chibios_2.4.x/os/kernel/src/chevents.c" 1
 175 002a 83F31188 		msr     BASEPRI, r3
 176              	@ 0 "" 2
 177              	.LVL17:
 178              		.thumb
 179              	.LBE5:
 180              		.loc 1 122 0
 181 002e 38BD     		pop	{r3, r4, r5, pc}
 182              	.LVL18:
 183              	.L14:
 184              		.loc 1 116 0
 185 0030 2B68     		ldr	r3, [r5, #0]
 186 0032 1360     		str	r3, [r2, #0]
 187              		.loc 1 121 0
 188 0034 FFF7FEFF 		bl	dbg_check_unlock
 189              	.LVL19:
 190              	.LBB6:
 191 0038 0023     		movs	r3, #0
 192              	@ 121 "../chibios_2.4.x/os/kernel/src/chevents.c" 1
 193 003a 83F31188 		msr     BASEPRI, r3
 194              	@ 0 "" 2
 195              	.LVL20:
 196              		.thumb
 197              	.LBE6:
 198              		.loc 1 122 0
 199 003e 38BD     		pop	{r3, r4, r5, pc}
 200              	.LVL21:
 201              	.L8:
 202              		.loc 1 110 0 discriminator 1
 203 0040 0148     		ldr	r0, .L15
 204 0042 FFF7FEFF 		bl	chDbgPanic
 205 0046 E0E7     		b	.L9
 206              	.L16:
 207              		.align	2
 208              	.L15:
 209 0048 18000000 		.word	.LC1
 210              		.cfi_endproc
 211              	.LFE8:
 212              		.size	chEvtUnregister, .-chEvtUnregister
 213 004c AFF30080 		.section	.text.chEvtClearFlags,"ax",%progbits
 214              		.align	2
 215              		.p2align 4,,15
 216              		.global	chEvtClearFlags
 217              		.thumb
 218              		.thumb_func
 219              		.type	chEvtClearFlags, %function
 220              	chEvtClearFlags:
 221              	.LFB9:
 222              		.loc 1 132 0
 223              		.cfi_startproc
 224              		@ args = 0, pretend = 0, frame = 0
ARM GAS  /tmp/ccIEcMfY.s 			page 5


 225              		@ frame_needed = 0, uses_anonymous_args = 0
 226              	.LVL22:
 227 0000 38B5     		push	{r3, r4, r5, lr}
 228              	.LCFI2:
 229              		.cfi_def_cfa_offset 16
 230              		.loc 1 132 0
 231 0002 0546     		mov	r5, r0
 232              		.cfi_offset 14, -4
 233              		.cfi_offset 5, -8
 234              		.cfi_offset 4, -12
 235              		.cfi_offset 3, -16
 236              	.LBB7:
 237              		.loc 1 135 0
 238 0004 2023     		movs	r3, #32
 239              	.LVL23:
 240              	@ 135 "../chibios_2.4.x/os/kernel/src/chevents.c" 1
 241 0006 83F31188 		msr     BASEPRI, r3
 242              	@ 0 "" 2
 243              	.LVL24:
 244              		.thumb
 245              	.LBE7:
 246 000a FFF7FEFF 		bl	dbg_check_lock
 247              	.LVL25:
 248              		.loc 1 137 0
 249 000e 0748     		ldr	r0, .L18
 250 0010 C369     		ldr	r3, [r0, #28]
 251 0012 DC6B     		ldr	r4, [r3, #60]
 252              		.loc 1 138 0
 253 0014 24EA0502 		bic	r2, r4, r5
 254 0018 DA63     		str	r2, [r3, #60]
 255              		.loc 1 140 0
 256 001a FFF7FEFF 		bl	dbg_check_unlock
 257              	.LVL26:
 258              	.LBB8:
 259 001e 0023     		movs	r3, #0
 260              	.LVL27:
 261              	@ 140 "../chibios_2.4.x/os/kernel/src/chevents.c" 1
 262 0020 83F31188 		msr     BASEPRI, r3
 263              	@ 0 "" 2
 264              	.LVL28:
 265              		.thumb
 266              	.LBE8:
 267              		.loc 1 142 0
 268 0024 05EA0400 		and	r0, r5, r4
 269 0028 38BD     		pop	{r3, r4, r5, pc}
 270              	.L19:
 271 002a 00BF     		.align	2
 272              	.L18:
 273 002c 00000000 		.word	rlist
 274              		.cfi_endproc
 275              	.LFE9:
 276              		.size	chEvtClearFlags, .-chEvtClearFlags
 277              		.section	.text.chEvtAddFlags,"ax",%progbits
 278              		.align	2
 279              		.p2align 4,,15
 280              		.global	chEvtAddFlags
 281              		.thumb
ARM GAS  /tmp/ccIEcMfY.s 			page 6


 282              		.thumb_func
 283              		.type	chEvtAddFlags, %function
 284              	chEvtAddFlags:
 285              	.LFB10:
 286              		.loc 1 153 0
 287              		.cfi_startproc
 288              		@ args = 0, pretend = 0, frame = 0
 289              		@ frame_needed = 0, uses_anonymous_args = 0
 290              	.LVL29:
 291 0000 10B5     		push	{r4, lr}
 292              	.LCFI3:
 293              		.cfi_def_cfa_offset 8
 294              	.LBB9:
 295              		.loc 1 155 0
 296 0002 2023     		movs	r3, #32
 297              	.LVL30:
 298              	.LBE9:
 299              		.loc 1 153 0
 300 0004 0446     		mov	r4, r0
 301              		.cfi_offset 14, -4
 302              		.cfi_offset 4, -8
 303              	.LBB10:
 304              		.loc 1 155 0
 305              	@ 155 "../chibios_2.4.x/os/kernel/src/chevents.c" 1
 306 0006 83F31188 		msr     BASEPRI, r3
 307              	@ 0 "" 2
 308              	.LVL31:
 309              		.thumb
 310              	.LBE10:
 311 000a FFF7FEFF 		bl	dbg_check_lock
 312              	.LVL32:
 313              		.loc 1 157 0
 314 000e 0648     		ldr	r0, .L21
 315 0010 C369     		ldr	r3, [r0, #28]
 316 0012 DA6B     		ldr	r2, [r3, #60]
 317 0014 1443     		orrs	r4, r4, r2
 318              	.LVL33:
 319 0016 DC63     		str	r4, [r3, #60]
 320              	.LVL34:
 321              		.loc 1 159 0
 322 0018 FFF7FEFF 		bl	dbg_check_unlock
 323              	.LBB11:
 324 001c 0023     		movs	r3, #0
 325              	.LVL35:
 326              	@ 159 "../chibios_2.4.x/os/kernel/src/chevents.c" 1
 327 001e 83F31188 		msr     BASEPRI, r3
 328              	@ 0 "" 2
 329              	.LVL36:
 330              		.thumb
 331              	.LBE11:
 332              		.loc 1 161 0
 333 0022 2046     		mov	r0, r4
 334 0024 10BD     		pop	{r4, pc}
 335              	.L22:
 336 0026 00BF     		.align	2
 337              	.L21:
 338 0028 00000000 		.word	rlist
ARM GAS  /tmp/ccIEcMfY.s 			page 7


 339              		.cfi_endproc
 340              	.LFE10:
 341              		.size	chEvtAddFlags, .-chEvtAddFlags
 342 002c AFF30080 		.section	.text.chEvtSignalFlagsI,"ax",%progbits
 343              		.align	2
 344              		.p2align 4,,15
 345              		.global	chEvtSignalFlagsI
 346              		.thumb
 347              		.thumb_func
 348              		.type	chEvtSignalFlagsI, %function
 349              	chEvtSignalFlagsI:
 350              	.LFB12:
 351              		.loc 1 193 0
 352              		.cfi_startproc
 353              		@ args = 0, pretend = 0, frame = 0
 354              		@ frame_needed = 0, uses_anonymous_args = 0
 355              	.LVL37:
 356 0000 38B5     		push	{r3, r4, r5, lr}
 357              	.LCFI4:
 358              		.cfi_def_cfa_offset 16
 359              		.loc 1 193 0
 360 0002 0446     		mov	r4, r0
 361              		.cfi_offset 14, -4
 362              		.cfi_offset 5, -8
 363              		.cfi_offset 4, -12
 364              		.cfi_offset 3, -16
 365 0004 0D46     		mov	r5, r1
 366              		.loc 1 195 0
 367 0006 FFF7FEFF 		bl	chDbgCheckClassI
 368              	.LVL38:
 369              		.loc 1 196 0
 370 000a BCB1     		cbz	r4, .L28
 371              	.L24:
 372              		.loc 1 198 0
 373 000c E26B     		ldr	r2, [r4, #60]
 374              		.loc 1 200 0
 375 000e 94F82030 		ldrb	r3, [r4, #32]	@ zero_extendqisi2
 376              		.loc 1 198 0
 377 0012 1543     		orrs	r5, r5, r2
 378              	.LVL39:
 379              		.loc 1 200 0
 380 0014 082B     		cmp	r3, #8
 381              		.loc 1 198 0
 382 0016 E563     		str	r5, [r4, #60]
 383              		.loc 1 200 0
 384 0018 0CD0     		beq	.L29
 385              		.loc 1 201 0
 386 001a 092B     		cmp	r3, #9
 387 001c 00D0     		beq	.L30
 388              	.L23:
 389 001e 38BD     		pop	{r3, r4, r5, pc}
 390              	.L30:
 391              		.loc 1 203 0
 392 0020 A06A     		ldr	r0, [r4, #40]
 393 0022 0540     		ands	r5, r5, r0
 394              		.loc 1 202 0
 395 0024 A842     		cmp	r0, r5
ARM GAS  /tmp/ccIEcMfY.s 			page 8


 396 0026 FAD1     		bne	.L23
 397              	.L26:
 398              		.loc 1 204 0
 399 0028 2046     		mov	r0, r4
 400 002a FFF7FEFF 		bl	chSchReadyI
 401 002e 0021     		movs	r1, #0
 402 0030 8162     		str	r1, [r0, #40]
 403 0032 38BD     		pop	{r3, r4, r5, pc}
 404              	.L29:
 405              		.loc 1 201 0 discriminator 1
 406 0034 A36A     		ldr	r3, [r4, #40]
 407              		.loc 1 200 0 discriminator 1
 408 0036 1D42     		tst	r5, r3
 409 0038 F6D1     		bne	.L26
 410 003a 38BD     		pop	{r3, r4, r5, pc}
 411              	.LVL40:
 412              	.L28:
 413              		.loc 1 196 0 discriminator 1
 414 003c 0148     		ldr	r0, .L31
 415 003e FFF7FEFF 		bl	chDbgPanic
 416 0042 E3E7     		b	.L24
 417              	.L32:
 418              		.align	2
 419              	.L31:
 420 0044 2C000000 		.word	.LC2
 421              		.cfi_endproc
 422              	.LFE12:
 423              		.size	chEvtSignalFlagsI, .-chEvtSignalFlagsI
 424 0048 AFF30080 		.section	.text.chEvtSignalFlags,"ax",%progbits
 424      AFF30080 
 425              		.align	2
 426              		.p2align 4,,15
 427              		.global	chEvtSignalFlags
 428              		.thumb
 429              		.thumb_func
 430              		.type	chEvtSignalFlags, %function
 431              	chEvtSignalFlags:
 432              	.LFB11:
 433              		.loc 1 171 0
 434              		.cfi_startproc
 435              		@ args = 0, pretend = 0, frame = 0
 436              		@ frame_needed = 0, uses_anonymous_args = 0
 437              	.LVL41:
 438 0000 38B5     		push	{r3, r4, r5, lr}
 439              	.LCFI5:
 440              		.cfi_def_cfa_offset 16
 441              		.loc 1 173 0
 442 0002 0446     		mov	r4, r0
 443              		.cfi_offset 14, -4
 444              		.cfi_offset 5, -8
 445              		.cfi_offset 4, -12
 446              		.cfi_offset 3, -16
 447              		.loc 1 171 0
 448 0004 0D46     		mov	r5, r1
 449              		.loc 1 173 0
 450 0006 80B1     		cbz	r0, .L35
 451              	.LVL42:
ARM GAS  /tmp/ccIEcMfY.s 			page 9


 452              	.L34:
 453              	.LBB12:
 454              		.loc 1 175 0
 455 0008 2023     		movs	r3, #32
 456              	.LVL43:
 457              	@ 175 "../chibios_2.4.x/os/kernel/src/chevents.c" 1
 458 000a 83F31188 		msr     BASEPRI, r3
 459              	@ 0 "" 2
 460              	.LVL44:
 461              		.thumb
 462              	.LBE12:
 463 000e FFF7FEFF 		bl	dbg_check_lock
 464              	.LVL45:
 465              		.loc 1 176 0
 466 0012 2046     		mov	r0, r4
 467 0014 2946     		mov	r1, r5
 468 0016 FFF7FEFF 		bl	chEvtSignalFlagsI
 469              		.loc 1 177 0
 470 001a FFF7FEFF 		bl	chSchRescheduleS
 471              		.loc 1 178 0
 472 001e FFF7FEFF 		bl	dbg_check_unlock
 473              	.LBB13:
 474 0022 0023     		movs	r3, #0
 475              	.LVL46:
 476              	@ 178 "../chibios_2.4.x/os/kernel/src/chevents.c" 1
 477 0024 83F31188 		msr     BASEPRI, r3
 478              	@ 0 "" 2
 479              	.LVL47:
 480              		.thumb
 481              	.LBE13:
 482              		.loc 1 179 0
 483 0028 38BD     		pop	{r3, r4, r5, pc}
 484              	.LVL48:
 485              	.L35:
 486              		.loc 1 173 0 discriminator 1
 487 002a 0248     		ldr	r0, .L36
 488 002c FFF7FEFF 		bl	chDbgPanic
 489 0030 EAE7     		b	.L34
 490              	.L37:
 491 0032 00BF     		.align	2
 492              	.L36:
 493 0034 40000000 		.word	.LC3
 494              		.cfi_endproc
 495              	.LFE11:
 496              		.size	chEvtSignalFlags, .-chEvtSignalFlags
 497              		.section	.text.chEvtBroadcastFlagsI,"ax",%progbits
 498              		.align	2
 499              		.p2align 4,,15
 500              		.global	chEvtBroadcastFlagsI
 501              		.thumb
 502              		.thumb_func
 503              		.type	chEvtBroadcastFlagsI, %function
 504              	chEvtBroadcastFlagsI:
 505              	.LFB14:
 506              		.loc 1 245 0
 507              		.cfi_startproc
 508              		@ args = 0, pretend = 0, frame = 0
ARM GAS  /tmp/ccIEcMfY.s 			page 10


 509              		@ frame_needed = 0, uses_anonymous_args = 0
 510              	.LVL49:
 511 0000 70B5     		push	{r4, r5, r6, lr}
 512              	.LCFI6:
 513              		.cfi_def_cfa_offset 16
 514              		.loc 1 245 0
 515 0002 0546     		mov	r5, r0
 516              		.cfi_offset 14, -4
 517              		.cfi_offset 6, -8
 518              		.cfi_offset 5, -12
 519              		.cfi_offset 4, -16
 520 0004 0E46     		mov	r6, r1
 521              		.loc 1 248 0
 522 0006 FFF7FEFF 		bl	chDbgCheckClassI
 523              	.LVL50:
 524              		.loc 1 249 0
 525 000a 65B1     		cbz	r5, .L44
 526              	.L39:
 527              		.loc 1 251 0
 528 000c 2C68     		ldr	r4, [r5, #0]
 529              	.LVL51:
 530              		.loc 1 252 0
 531 000e AC42     		cmp	r4, r5
 532 0010 08D0     		beq	.L38
 533              	.LVL52:
 534              	.L42:
 535              		.loc 1 253 0
 536 0012 A168     		ldr	r1, [r4, #8]
 537 0014 6068     		ldr	r0, [r4, #4]
 538 0016 46EA0101 		orr	r1, r6, r1
 539 001a FFF7FEFF 		bl	chEvtSignalFlagsI
 540              		.loc 1 254 0
 541 001e 2468     		ldr	r4, [r4, #0]
 542              	.LVL53:
 543              		.loc 1 252 0
 544 0020 AC42     		cmp	r4, r5
 545 0022 F6D1     		bne	.L42
 546              	.L38:
 547 0024 70BD     		pop	{r4, r5, r6, pc}
 548              	.LVL54:
 549              	.L44:
 550              		.loc 1 249 0 discriminator 1
 551 0026 0248     		ldr	r0, .L45
 552 0028 FFF7FEFF 		bl	chDbgPanic
 553 002c EEE7     		b	.L39
 554              	.L46:
 555 002e 00BF     		.align	2
 556              	.L45:
 557 0030 50000000 		.word	.LC4
 558              		.cfi_endproc
 559              	.LFE14:
 560              		.size	chEvtBroadcastFlagsI, .-chEvtBroadcastFlagsI
 561 0034 AFF30080 		.section	.text.chEvtBroadcastFlags,"ax",%progbits
 561      AFF30080 
 561      AFF30080 
 562              		.align	2
 563              		.p2align 4,,15
ARM GAS  /tmp/ccIEcMfY.s 			page 11


 564              		.global	chEvtBroadcastFlags
 565              		.thumb
 566              		.thumb_func
 567              		.type	chEvtBroadcastFlags, %function
 568              	chEvtBroadcastFlags:
 569              	.LFB13:
 570              		.loc 1 220 0
 571              		.cfi_startproc
 572              		@ args = 0, pretend = 0, frame = 0
 573              		@ frame_needed = 0, uses_anonymous_args = 0
 574              	.LVL55:
 575 0000 38B5     		push	{r3, r4, r5, lr}
 576              	.LCFI7:
 577              		.cfi_def_cfa_offset 16
 578              		.loc 1 220 0
 579 0002 0546     		mov	r5, r0
 580              		.cfi_offset 14, -4
 581              		.cfi_offset 5, -8
 582              		.cfi_offset 4, -12
 583              		.cfi_offset 3, -16
 584 0004 0C46     		mov	r4, r1
 585              	.LBB14:
 586              		.loc 1 222 0
 587 0006 2023     		movs	r3, #32
 588              	.LVL56:
 589              	@ 222 "../chibios_2.4.x/os/kernel/src/chevents.c" 1
 590 0008 83F31188 		msr     BASEPRI, r3
 591              	@ 0 "" 2
 592              	.LVL57:
 593              		.thumb
 594              	.LBE14:
 595 000c FFF7FEFF 		bl	dbg_check_lock
 596              	.LVL58:
 597              		.loc 1 223 0
 598 0010 2846     		mov	r0, r5
 599 0012 2146     		mov	r1, r4
 600 0014 FFF7FEFF 		bl	chEvtBroadcastFlagsI
 601              		.loc 1 224 0
 602 0018 FFF7FEFF 		bl	chSchRescheduleS
 603              		.loc 1 225 0
 604 001c FFF7FEFF 		bl	dbg_check_unlock
 605              	.LBB15:
 606 0020 0023     		movs	r3, #0
 607              	.LVL59:
 608              	@ 225 "../chibios_2.4.x/os/kernel/src/chevents.c" 1
 609 0022 83F31188 		msr     BASEPRI, r3
 610              	@ 0 "" 2
 611              	.LVL60:
 612              		.thumb
 613              	.LBE15:
 614              		.loc 1 226 0
 615 0026 38BD     		pop	{r3, r4, r5, pc}
 616              		.cfi_endproc
 617              	.LFE13:
 618              		.size	chEvtBroadcastFlags, .-chEvtBroadcastFlags
 619 0028 AFF30080 		.section	.text.chEvtDispatch,"ax",%progbits
 619      AFF30080 
ARM GAS  /tmp/ccIEcMfY.s 			page 12


 620              		.align	2
 621              		.p2align 4,,15
 622              		.global	chEvtDispatch
 623              		.thumb
 624              		.thumb_func
 625              		.type	chEvtDispatch, %function
 626              	chEvtDispatch:
 627              	.LFB15:
 628              		.loc 1 267 0
 629              		.cfi_startproc
 630              		@ args = 0, pretend = 0, frame = 0
 631              		@ frame_needed = 0, uses_anonymous_args = 0
 632              	.LVL61:
 633 0000 2DE9F041 		push	{r4, r5, r6, r7, r8, lr}
 634              	.LCFI8:
 635              		.cfi_def_cfa_offset 24
 636              		.loc 1 270 0
 637 0004 0446     		mov	r4, r0
 638              		.cfi_offset 14, -4
 639              		.cfi_offset 8, -8
 640              		.cfi_offset 7, -12
 641              		.cfi_offset 6, -16
 642              		.cfi_offset 5, -20
 643              		.cfi_offset 4, -24
 644              		.loc 1 267 0
 645 0006 0E46     		mov	r6, r1
 646              		.loc 1 270 0
 647 0008 C8B1     		cbz	r0, .L54
 648              	.LVL62:
 649              	.L49:
 650              		.loc 1 273 0 discriminator 1
 651 000a 8EB1     		cbz	r6, .L48
 652              		.loc 1 273 0 is_stmt 0
 653 000c 0027     		movs	r7, #0
 654 000e 3D46     		mov	r5, r7
 655              		.loc 1 274 0 is_stmt 1
 656 0010 4FF00108 		mov	r8, #1
 657              	.LVL63:
 658              	.L53:
 659 0014 08FA05F3 		lsl	r3, r8, r5
 660 0018 3342     		tst	r3, r6
 661 001a 05D0     		beq	.L51
 662              		.loc 1 278 0
 663 001c 26EA0306 		bic	r6, r6, r3
 664              	.LVL64:
 665              		.loc 1 275 0
 666 0020 E359     		ldr	r3, [r4, r7]
 667 0022 3BB1     		cbz	r3, .L55
 668              	.L52:
 669              	.LVL65:
 670              		.loc 1 279 0
 671 0024 2846     		mov	r0, r5
 672 0026 9847     		blx	r3
 673              	.L51:
 674              	.LVL66:
 675 0028 0437     		adds	r7, r7, #4
 676              		.loc 1 273 0
ARM GAS  /tmp/ccIEcMfY.s 			page 13


 677 002a 0EB1     		cbz	r6, .L48
 678              		.loc 1 281 0
 679 002c 0135     		adds	r5, r5, #1
 680              	.LVL67:
 681 002e F1E7     		b	.L53
 682              	.LVL68:
 683              	.L48:
 684 0030 BDE8F081 		pop	{r4, r5, r6, r7, r8, pc}
 685              	.LVL69:
 686              	.L55:
 687              		.loc 1 275 0 discriminator 1
 688 0034 0448     		ldr	r0, .L56
 689 0036 FFF7FEFF 		bl	chDbgPanic
 690 003a E359     		ldr	r3, [r4, r7]
 691 003c F2E7     		b	.L52
 692              	.LVL70:
 693              	.L54:
 694              		.loc 1 270 0 discriminator 1
 695 003e 0348     		ldr	r0, .L56+4
 696 0040 FFF7FEFF 		bl	chDbgPanic
 697              	.LVL71:
 698 0044 E1E7     		b	.L49
 699              	.L57:
 700 0046 00BF     		.align	2
 701              	.L56:
 702 0048 7C000000 		.word	.LC6
 703 004c 68000000 		.word	.LC5
 704              		.cfi_endproc
 705              	.LFE15:
 706              		.size	chEvtDispatch, .-chEvtDispatch
 707              		.section	.text.chEvtWaitOne,"ax",%progbits
 708              		.align	2
 709              		.p2align 4,,15
 710              		.global	chEvtWaitOne
 711              		.thumb
 712              		.thumb_func
 713              		.type	chEvtWaitOne, %function
 714              	chEvtWaitOne:
 715              	.LFB16:
 716              		.loc 1 302 0
 717              		.cfi_startproc
 718              		@ args = 0, pretend = 0, frame = 0
 719              		@ frame_needed = 0, uses_anonymous_args = 0
 720              	.LVL72:
 721 0000 38B5     		push	{r3, r4, r5, lr}
 722              	.LCFI9:
 723              		.cfi_def_cfa_offset 16
 724              		.loc 1 303 0
 725 0002 0F4B     		ldr	r3, .L60
 726              		.cfi_offset 14, -4
 727              		.cfi_offset 5, -8
 728              		.cfi_offset 4, -12
 729              		.cfi_offset 3, -16
 730              		.loc 1 302 0
 731 0004 0546     		mov	r5, r0
 732              		.loc 1 303 0
 733 0006 DC69     		ldr	r4, [r3, #28]
ARM GAS  /tmp/ccIEcMfY.s 			page 14


 734              	.LVL73:
 735              	.LBB16:
 736              		.loc 1 306 0
 737 0008 2023     		movs	r3, #32
 738              	.LVL74:
 739              	@ 306 "../chibios_2.4.x/os/kernel/src/chevents.c" 1
 740 000a 83F31188 		msr     BASEPRI, r3
 741              	@ 0 "" 2
 742              	.LVL75:
 743              		.thumb
 744              	.LBE16:
 745 000e FFF7FEFF 		bl	dbg_check_lock
 746              	.LVL76:
 747              		.loc 1 308 0
 748 0012 E36B     		ldr	r3, [r4, #60]
 749              	.LVL77:
 750 0014 15EA0302 		ands	r2, r5, r3
 751 0018 06D1     		bne	.L59
 752              		.loc 1 309 0
 753 001a A562     		str	r5, [r4, #40]
 754              		.loc 1 310 0
 755 001c 0820     		movs	r0, #8
 756 001e FFF7FEFF 		bl	chSchGoSleepS
 757              	.LVL78:
 758              		.loc 1 311 0
 759 0022 E36B     		ldr	r3, [r4, #60]
 760 0024 05EA0302 		and	r2, r5, r3
 761              	.LVL79:
 762              	.L59:
 763              		.loc 1 313 0
 764 0028 5542     		negs	r5, r2
 765              	.LVL80:
 766 002a 1540     		ands	r5, r5, r2
 767              	.LVL81:
 768              		.loc 1 314 0
 769 002c 23EA0500 		bic	r0, r3, r5
 770 0030 E063     		str	r0, [r4, #60]
 771              		.loc 1 316 0
 772 0032 FFF7FEFF 		bl	dbg_check_unlock
 773              	.LBB17:
 774 0036 0023     		movs	r3, #0
 775              	.LVL82:
 776              	@ 316 "../chibios_2.4.x/os/kernel/src/chevents.c" 1
 777 0038 83F31188 		msr     BASEPRI, r3
 778              	@ 0 "" 2
 779              	.LVL83:
 780              		.thumb
 781              	.LBE17:
 782              		.loc 1 318 0
 783 003c 2846     		mov	r0, r5
 784 003e 38BD     		pop	{r3, r4, r5, pc}
 785              	.L61:
 786              		.align	2
 787              	.L60:
 788 0040 00000000 		.word	rlist
 789              		.cfi_endproc
 790              	.LFE16:
ARM GAS  /tmp/ccIEcMfY.s 			page 15


 791              		.size	chEvtWaitOne, .-chEvtWaitOne
 792 0044 AFF30080 		.section	.text.chEvtWaitAny,"ax",%progbits
 792      AFF30080 
 792      AFF30080 
 793              		.align	2
 794              		.p2align 4,,15
 795              		.global	chEvtWaitAny
 796              		.thumb
 797              		.thumb_func
 798              		.type	chEvtWaitAny, %function
 799              	chEvtWaitAny:
 800              	.LFB17:
 801              		.loc 1 331 0
 802              		.cfi_startproc
 803              		@ args = 0, pretend = 0, frame = 0
 804              		@ frame_needed = 0, uses_anonymous_args = 0
 805              	.LVL84:
 806              		.loc 1 332 0
 807 0000 0E4B     		ldr	r3, .L64
 808              		.loc 1 331 0
 809 0002 70B5     		push	{r4, r5, r6, lr}
 810              	.LCFI10:
 811              		.cfi_def_cfa_offset 16
 812              		.loc 1 332 0
 813 0004 DC69     		ldr	r4, [r3, #28]
 814              		.cfi_offset 14, -4
 815              		.cfi_offset 6, -8
 816              		.cfi_offset 5, -12
 817              		.cfi_offset 4, -16
 818              	.LVL85:
 819              		.loc 1 331 0
 820 0006 0546     		mov	r5, r0
 821              	.LBB18:
 822              		.loc 1 335 0
 823 0008 2023     		movs	r3, #32
 824              	.LVL86:
 825              	@ 335 "../chibios_2.4.x/os/kernel/src/chevents.c" 1
 826 000a 83F31188 		msr     BASEPRI, r3
 827              	@ 0 "" 2
 828              	.LVL87:
 829              		.thumb
 830              	.LBE18:
 831 000e FFF7FEFF 		bl	dbg_check_lock
 832              	.LVL88:
 833              		.loc 1 337 0
 834 0012 E36B     		ldr	r3, [r4, #60]
 835              	.LVL89:
 836 0014 15EA0306 		ands	r6, r5, r3
 837 0018 06D1     		bne	.L63
 838              		.loc 1 338 0
 839 001a A562     		str	r5, [r4, #40]
 840              		.loc 1 339 0
 841 001c 0820     		movs	r0, #8
 842 001e FFF7FEFF 		bl	chSchGoSleepS
 843              	.LVL90:
 844              		.loc 1 340 0
 845 0022 E36B     		ldr	r3, [r4, #60]
ARM GAS  /tmp/ccIEcMfY.s 			page 16


 846 0024 05EA0306 		and	r6, r5, r3
 847              	.LVL91:
 848              	.L63:
 849              		.loc 1 342 0
 850 0028 23EA0600 		bic	r0, r3, r6
 851 002c E063     		str	r0, [r4, #60]
 852              		.loc 1 344 0
 853 002e FFF7FEFF 		bl	dbg_check_unlock
 854              	.LBB19:
 855 0032 0023     		movs	r3, #0
 856              	.LVL92:
 857              	@ 344 "../chibios_2.4.x/os/kernel/src/chevents.c" 1
 858 0034 83F31188 		msr     BASEPRI, r3
 859              	@ 0 "" 2
 860              	.LVL93:
 861              		.thumb
 862              	.LBE19:
 863              		.loc 1 346 0
 864 0038 3046     		mov	r0, r6
 865 003a 70BD     		pop	{r4, r5, r6, pc}
 866              	.L65:
 867              		.align	2
 868              	.L64:
 869 003c 00000000 		.word	rlist
 870              		.cfi_endproc
 871              	.LFE17:
 872              		.size	chEvtWaitAny, .-chEvtWaitAny
 873              		.section	.text.chEvtWaitAll,"ax",%progbits
 874              		.align	2
 875              		.p2align 4,,15
 876              		.global	chEvtWaitAll
 877              		.thumb
 878              		.thumb_func
 879              		.type	chEvtWaitAll, %function
 880              	chEvtWaitAll:
 881              	.LFB18:
 882              		.loc 1 359 0
 883              		.cfi_startproc
 884              		@ args = 0, pretend = 0, frame = 0
 885              		@ frame_needed = 0, uses_anonymous_args = 0
 886              	.LVL94:
 887 0000 38B5     		push	{r3, r4, r5, lr}
 888              	.LCFI11:
 889              		.cfi_def_cfa_offset 16
 890              		.loc 1 360 0
 891 0002 0E4B     		ldr	r3, .L68
 892              		.cfi_offset 14, -4
 893              		.cfi_offset 5, -8
 894              		.cfi_offset 4, -12
 895              		.cfi_offset 3, -16
 896              		.loc 1 359 0
 897 0004 0446     		mov	r4, r0
 898              		.loc 1 360 0
 899 0006 DD69     		ldr	r5, [r3, #28]
 900              	.LVL95:
 901              	.LBB20:
 902              		.loc 1 362 0
ARM GAS  /tmp/ccIEcMfY.s 			page 17


 903 0008 2023     		movs	r3, #32
 904              	.LVL96:
 905              	@ 362 "../chibios_2.4.x/os/kernel/src/chevents.c" 1
 906 000a 83F31188 		msr     BASEPRI, r3
 907              	@ 0 "" 2
 908              	.LVL97:
 909              		.thumb
 910              	.LBE20:
 911 000e FFF7FEFF 		bl	dbg_check_lock
 912              	.LVL98:
 913              		.loc 1 364 0
 914 0012 EB6B     		ldr	r3, [r5, #60]
 915 0014 04EA0302 		and	r2, r4, r3
 916 0018 A242     		cmp	r2, r4
 917 001a 04D0     		beq	.L67
 918              		.loc 1 365 0
 919 001c AC62     		str	r4, [r5, #40]
 920              		.loc 1 366 0
 921 001e 0920     		movs	r0, #9
 922 0020 FFF7FEFF 		bl	chSchGoSleepS
 923 0024 EB6B     		ldr	r3, [r5, #60]
 924              	.L67:
 925              		.loc 1 368 0
 926 0026 23EA0400 		bic	r0, r3, r4
 927 002a E863     		str	r0, [r5, #60]
 928              		.loc 1 370 0
 929 002c FFF7FEFF 		bl	dbg_check_unlock
 930              	.LBB21:
 931 0030 0023     		movs	r3, #0
 932              	.LVL99:
 933              	@ 370 "../chibios_2.4.x/os/kernel/src/chevents.c" 1
 934 0032 83F31188 		msr     BASEPRI, r3
 935              	@ 0 "" 2
 936              	.LVL100:
 937              		.thumb
 938              	.LBE21:
 939              		.loc 1 372 0
 940 0036 2046     		mov	r0, r4
 941 0038 38BD     		pop	{r3, r4, r5, pc}
 942              	.L69:
 943 003a 00BF     		.align	2
 944              	.L68:
 945 003c 00000000 		.word	rlist
 946              		.cfi_endproc
 947              	.LFE18:
 948              		.size	chEvtWaitAll, .-chEvtWaitAll
 949              		.section	.text.chEvtWaitOneTimeout,"ax",%progbits
 950              		.align	2
 951              		.p2align 4,,15
 952              		.global	chEvtWaitOneTimeout
 953              		.thumb
 954              		.thumb_func
 955              		.type	chEvtWaitOneTimeout, %function
 956              	chEvtWaitOneTimeout:
 957              	.LFB19:
 958              		.loc 1 398 0
 959              		.cfi_startproc
ARM GAS  /tmp/ccIEcMfY.s 			page 18


 960              		@ args = 0, pretend = 0, frame = 0
 961              		@ frame_needed = 0, uses_anonymous_args = 0
 962              	.LVL101:
 963 0000 F8B5     		push	{r3, r4, r5, r6, r7, lr}
 964              	.LCFI12:
 965              		.cfi_def_cfa_offset 24
 966              		.loc 1 399 0
 967 0002 184B     		ldr	r3, .L77
 968              		.cfi_offset 14, -4
 969              		.cfi_offset 7, -8
 970              		.cfi_offset 6, -12
 971              		.cfi_offset 5, -16
 972              		.cfi_offset 4, -20
 973              		.cfi_offset 3, -24
 974              		.loc 1 398 0
 975 0004 0546     		mov	r5, r0
 976              		.loc 1 399 0
 977 0006 DE69     		ldr	r6, [r3, #28]
 978              	.LVL102:
 979              		.loc 1 398 0
 980 0008 0F46     		mov	r7, r1
 981              	.LBB22:
 982              		.loc 1 402 0
 983 000a 2023     		movs	r3, #32
 984              	.LVL103:
 985              	@ 402 "../chibios_2.4.x/os/kernel/src/chevents.c" 1
 986 000c 83F31188 		msr     BASEPRI, r3
 987              	@ 0 "" 2
 988              	.LVL104:
 989              		.thumb
 990              	.LBE22:
 991 0010 FFF7FEFF 		bl	dbg_check_lock
 992              	.LVL105:
 993              		.loc 1 404 0
 994 0014 F36B     		ldr	r3, [r6, #60]
 995              	.LVL106:
 996 0016 15EA0304 		ands	r4, r5, r3
 997 001a 0AD1     		bne	.L71
 998              		.loc 1 405 0
 999 001c AFB1     		cbz	r7, .L75
 1000              		.loc 1 410 0
 1001 001e 0820     		movs	r0, #8
 1002              		.loc 1 409 0
 1003 0020 B562     		str	r5, [r6, #40]
 1004              		.loc 1 410 0
 1005 0022 3946     		mov	r1, r7
 1006 0024 FFF7FEFF 		bl	chSchGoSleepTimeoutS
 1007              	.LVL107:
 1008 0028 0028     		cmp	r0, #0
 1009 002a 15DB     		blt	.L76
 1010              		.loc 1 414 0
 1011 002c F36B     		ldr	r3, [r6, #60]
 1012 002e 05EA0304 		and	r4, r5, r3
 1013              	.LVL108:
 1014              	.L71:
 1015              		.loc 1 416 0
 1016 0032 6242     		negs	r2, r4
ARM GAS  /tmp/ccIEcMfY.s 			page 19


 1017 0034 1440     		ands	r4, r4, r2
 1018              	.LVL109:
 1019              		.loc 1 417 0
 1020 0036 23EA0400 		bic	r0, r3, r4
 1021 003a F063     		str	r0, [r6, #60]
 1022              		.loc 1 419 0
 1023 003c FFF7FEFF 		bl	dbg_check_unlock
 1024              	.LBB23:
 1025 0040 0023     		movs	r3, #0
 1026              	.LVL110:
 1027              	@ 419 "../chibios_2.4.x/os/kernel/src/chevents.c" 1
 1028 0042 83F31188 		msr     BASEPRI, r3
 1029              	@ 0 "" 2
 1030              	.LVL111:
 1031              		.thumb
 1032              	.L73:
 1033              	.LBE23:
 1034              		.loc 1 421 0
 1035 0046 2046     		mov	r0, r4
 1036 0048 F8BD     		pop	{r3, r4, r5, r6, r7, pc}
 1037              	.LVL112:
 1038              	.L75:
 1039              		.loc 1 406 0
 1040 004a FFF7FEFF 		bl	dbg_check_unlock
 1041              	.LBB24:
 1042 004e 2346     		mov	r3, r4
 1043              	.LVL113:
 1044              	@ 406 "../chibios_2.4.x/os/kernel/src/chevents.c" 1
 1045 0050 83F31188 		msr     BASEPRI, r3
 1046              	@ 0 "" 2
 1047              	.LVL114:
 1048              		.thumb
 1049              	.LBE24:
 1050              		.loc 1 421 0
 1051 0054 2046     		mov	r0, r4
 1052 0056 F8BD     		pop	{r3, r4, r5, r6, r7, pc}
 1053              	.LVL115:
 1054              	.L76:
 1055              		.loc 1 411 0
 1056 0058 FFF7FEFF 		bl	dbg_check_unlock
 1057              	.LBB25:
 1058 005c 2346     		mov	r3, r4
 1059              	@ 411 "../chibios_2.4.x/os/kernel/src/chevents.c" 1
 1060 005e 83F31188 		msr     BASEPRI, r3
 1061              	@ 0 "" 2
 1062              	.LVL116:
 1063              		.thumb
 1064              	.LBE25:
 1065              		.loc 1 412 0
 1066 0062 F0E7     		b	.L73
 1067              	.L78:
 1068              		.align	2
 1069              	.L77:
 1070 0064 00000000 		.word	rlist
 1071              		.cfi_endproc
 1072              	.LFE19:
 1073              		.size	chEvtWaitOneTimeout, .-chEvtWaitOneTimeout
ARM GAS  /tmp/ccIEcMfY.s 			page 20


 1074 0068 AFF30080 		.section	.text.chEvtWaitAnyTimeout,"ax",%progbits
 1074      AFF30080 
 1075              		.align	2
 1076              		.p2align 4,,15
 1077              		.global	chEvtWaitAnyTimeout
 1078              		.thumb
 1079              		.thumb_func
 1080              		.type	chEvtWaitAnyTimeout, %function
 1081              	chEvtWaitAnyTimeout:
 1082              	.LFB20:
 1083              		.loc 1 441 0
 1084              		.cfi_startproc
 1085              		@ args = 0, pretend = 0, frame = 0
 1086              		@ frame_needed = 0, uses_anonymous_args = 0
 1087              	.LVL117:
 1088 0000 F8B5     		push	{r3, r4, r5, r6, r7, lr}
 1089              	.LCFI13:
 1090              		.cfi_def_cfa_offset 24
 1091              		.loc 1 442 0
 1092 0002 174B     		ldr	r3, .L86
 1093              		.cfi_offset 14, -4
 1094              		.cfi_offset 7, -8
 1095              		.cfi_offset 6, -12
 1096              		.cfi_offset 5, -16
 1097              		.cfi_offset 4, -20
 1098              		.cfi_offset 3, -24
 1099              		.loc 1 441 0
 1100 0004 0446     		mov	r4, r0
 1101              		.loc 1 442 0
 1102 0006 DD69     		ldr	r5, [r3, #28]
 1103              	.LVL118:
 1104              		.loc 1 441 0
 1105 0008 0F46     		mov	r7, r1
 1106              	.LBB26:
 1107              		.loc 1 445 0
 1108 000a 2023     		movs	r3, #32
 1109              	.LVL119:
 1110              	@ 445 "../chibios_2.4.x/os/kernel/src/chevents.c" 1
 1111 000c 83F31188 		msr     BASEPRI, r3
 1112              	@ 0 "" 2
 1113              	.LVL120:
 1114              		.thumb
 1115              	.LBE26:
 1116 0010 FFF7FEFF 		bl	dbg_check_lock
 1117              	.LVL121:
 1118              		.loc 1 447 0
 1119 0014 EB6B     		ldr	r3, [r5, #60]
 1120              	.LVL122:
 1121 0016 14EA0306 		ands	r6, r4, r3
 1122 001a 0AD1     		bne	.L80
 1123              		.loc 1 448 0
 1124 001c 9FB1     		cbz	r7, .L84
 1125              		.loc 1 453 0
 1126 001e 0820     		movs	r0, #8
 1127              		.loc 1 452 0
 1128 0020 AC62     		str	r4, [r5, #40]
 1129              		.loc 1 453 0
ARM GAS  /tmp/ccIEcMfY.s 			page 21


 1130 0022 3946     		mov	r1, r7
 1131 0024 FFF7FEFF 		bl	chSchGoSleepTimeoutS
 1132              	.LVL123:
 1133 0028 0028     		cmp	r0, #0
 1134 002a 13DB     		blt	.L85
 1135              		.loc 1 457 0
 1136 002c EB6B     		ldr	r3, [r5, #60]
 1137 002e 04EA0306 		and	r6, r4, r3
 1138              	.LVL124:
 1139              	.L80:
 1140              		.loc 1 459 0
 1141 0032 23EA0600 		bic	r0, r3, r6
 1142 0036 E863     		str	r0, [r5, #60]
 1143              		.loc 1 461 0
 1144 0038 FFF7FEFF 		bl	dbg_check_unlock
 1145              	.LBB27:
 1146 003c 0023     		movs	r3, #0
 1147              	.LVL125:
 1148              	@ 461 "../chibios_2.4.x/os/kernel/src/chevents.c" 1
 1149 003e 83F31188 		msr     BASEPRI, r3
 1150              	@ 0 "" 2
 1151              	.LVL126:
 1152              		.thumb
 1153              	.L82:
 1154              	.LBE27:
 1155              		.loc 1 463 0
 1156 0042 3046     		mov	r0, r6
 1157 0044 F8BD     		pop	{r3, r4, r5, r6, r7, pc}
 1158              	.LVL127:
 1159              	.L84:
 1160              		.loc 1 449 0
 1161 0046 FFF7FEFF 		bl	dbg_check_unlock
 1162              	.LBB28:
 1163 004a 3346     		mov	r3, r6
 1164              	.LVL128:
 1165              	@ 449 "../chibios_2.4.x/os/kernel/src/chevents.c" 1
 1166 004c 83F31188 		msr     BASEPRI, r3
 1167              	@ 0 "" 2
 1168              	.LVL129:
 1169              		.thumb
 1170              	.LBE28:
 1171              		.loc 1 463 0
 1172 0050 3046     		mov	r0, r6
 1173 0052 F8BD     		pop	{r3, r4, r5, r6, r7, pc}
 1174              	.LVL130:
 1175              	.L85:
 1176              		.loc 1 454 0
 1177 0054 FFF7FEFF 		bl	dbg_check_unlock
 1178              	.LBB29:
 1179 0058 3346     		mov	r3, r6
 1180              	@ 454 "../chibios_2.4.x/os/kernel/src/chevents.c" 1
 1181 005a 83F31188 		msr     BASEPRI, r3
 1182              	@ 0 "" 2
 1183              	.LVL131:
 1184              		.thumb
 1185              	.LBE29:
 1186              		.loc 1 455 0
ARM GAS  /tmp/ccIEcMfY.s 			page 22


 1187 005e F0E7     		b	.L82
 1188              	.L87:
 1189              		.align	2
 1190              	.L86:
 1191 0060 00000000 		.word	rlist
 1192              		.cfi_endproc
 1193              	.LFE20:
 1194              		.size	chEvtWaitAnyTimeout, .-chEvtWaitAnyTimeout
 1195 0064 AFF30080 		.section	.text.chEvtWaitAllTimeout,"ax",%progbits
 1195      AFF30080 
 1195      AFF30080 
 1196              		.align	2
 1197              		.p2align 4,,15
 1198              		.global	chEvtWaitAllTimeout
 1199              		.thumb
 1200              		.thumb_func
 1201              		.type	chEvtWaitAllTimeout, %function
 1202              	chEvtWaitAllTimeout:
 1203              	.LFB21:
 1204              		.loc 1 482 0
 1205              		.cfi_startproc
 1206              		@ args = 0, pretend = 0, frame = 0
 1207              		@ frame_needed = 0, uses_anonymous_args = 0
 1208              	.LVL132:
 1209              		.loc 1 483 0
 1210 0000 184B     		ldr	r3, .L94
 1211              		.loc 1 482 0
 1212 0002 70B5     		push	{r4, r5, r6, lr}
 1213              	.LCFI14:
 1214              		.cfi_def_cfa_offset 16
 1215              		.loc 1 483 0
 1216 0004 DD69     		ldr	r5, [r3, #28]
 1217              		.cfi_offset 14, -4
 1218              		.cfi_offset 6, -8
 1219              		.cfi_offset 5, -12
 1220              		.cfi_offset 4, -16
 1221              	.LVL133:
 1222              		.loc 1 482 0
 1223 0006 0446     		mov	r4, r0
 1224 0008 0E46     		mov	r6, r1
 1225              	.LBB30:
 1226              		.loc 1 485 0
 1227 000a 2023     		movs	r3, #32
 1228              	.LVL134:
 1229              	@ 485 "../chibios_2.4.x/os/kernel/src/chevents.c" 1
 1230 000c 83F31188 		msr     BASEPRI, r3
 1231              	@ 0 "" 2
 1232              	.LVL135:
 1233              		.thumb
 1234              	.LBE30:
 1235 0010 FFF7FEFF 		bl	dbg_check_lock
 1236              	.LVL136:
 1237              		.loc 1 487 0
 1238 0014 EB6B     		ldr	r3, [r5, #60]
 1239 0016 04EA0302 		and	r2, r4, r3
 1240 001a A242     		cmp	r2, r4
 1241 001c 08D0     		beq	.L89
ARM GAS  /tmp/ccIEcMfY.s 			page 23


 1242              		.loc 1 488 0
 1243 001e 8EB1     		cbz	r6, .L93
 1244              		.loc 1 493 0
 1245 0020 0920     		movs	r0, #9
 1246              		.loc 1 492 0
 1247 0022 AC62     		str	r4, [r5, #40]
 1248              		.loc 1 493 0
 1249 0024 3146     		mov	r1, r6
 1250 0026 FFF7FEFF 		bl	chSchGoSleepTimeoutS
 1251 002a 0028     		cmp	r0, #0
 1252 002c 12DB     		blt	.L92
 1253 002e EB6B     		ldr	r3, [r5, #60]
 1254              	.L89:
 1255              		.loc 1 498 0
 1256 0030 23EA0400 		bic	r0, r3, r4
 1257 0034 E863     		str	r0, [r5, #60]
 1258              		.loc 1 500 0
 1259 0036 FFF7FEFF 		bl	dbg_check_unlock
 1260              	.LBB31:
 1261 003a 0023     		movs	r3, #0
 1262              	.LVL137:
 1263              	@ 500 "../chibios_2.4.x/os/kernel/src/chevents.c" 1
 1264 003c 83F31188 		msr     BASEPRI, r3
 1265              	@ 0 "" 2
 1266              	.LVL138:
 1267              		.thumb
 1268              	.L91:
 1269              	.LBE31:
 1270              		.loc 1 502 0
 1271 0040 2046     		mov	r0, r4
 1272 0042 70BD     		pop	{r4, r5, r6, pc}
 1273              	.LVL139:
 1274              	.L93:
 1275              		.loc 1 489 0
 1276 0044 FFF7FEFF 		bl	dbg_check_unlock
 1277              	.LBB32:
 1278 0048 3346     		mov	r3, r6
 1279              	.LVL140:
 1280              	@ 489 "../chibios_2.4.x/os/kernel/src/chevents.c" 1
 1281 004a 83F31188 		msr     BASEPRI, r3
 1282              	@ 0 "" 2
 1283              	.LVL141:
 1284              		.thumb
 1285              	.LBE32:
 1286              		.loc 1 490 0
 1287 004e 3446     		mov	r4, r6
 1288              	.LVL142:
 1289              		.loc 1 502 0
 1290 0050 2046     		mov	r0, r4
 1291 0052 70BD     		pop	{r4, r5, r6, pc}
 1292              	.LVL143:
 1293              	.L92:
 1294              		.loc 1 494 0
 1295 0054 FFF7FEFF 		bl	dbg_check_unlock
 1296              	.LBB33:
 1297 0058 0023     		movs	r3, #0
 1298              	@ 494 "../chibios_2.4.x/os/kernel/src/chevents.c" 1
ARM GAS  /tmp/ccIEcMfY.s 			page 24


 1299 005a 83F31188 		msr     BASEPRI, r3
 1300              	@ 0 "" 2
 1301              	.LVL144:
 1302              		.thumb
 1303              	.LBE33:
 1304              		.loc 1 495 0
 1305 005e 1C46     		mov	r4, r3
 1306              	.LVL145:
 1307 0060 EEE7     		b	.L91
 1308              	.L95:
 1309 0062 00BF     		.align	2
 1310              	.L94:
 1311 0064 00000000 		.word	rlist
 1312              		.cfi_endproc
 1313              	.LFE21:
 1314              		.size	chEvtWaitAllTimeout, .-chEvtWaitAllTimeout
 1315 0068 AFF30080 		.section	.rodata.str1.4,"aMS",%progbits,1
 1315      AFF30080 
 1316              		.align	2
 1317              	.LC0:
 1318 0000 22636845 		.ascii	"\"chEvtRegisterMask\"()\000"
 1318      76745265 
 1318      67697374 
 1318      65724D61 
 1318      736B2228 
 1319 0016 0000     		.space	2
 1320              	.LC1:
 1321 0018 22636845 		.ascii	"\"chEvtUnregister\"()\000"
 1321      7674556E 
 1321      72656769 
 1321      73746572 
 1321      22282900 
 1322              	.LC2:
 1323 002c 22636845 		.ascii	"\"chEvtSignalI\"()\000"
 1323      76745369 
 1323      676E616C 
 1323      49222829 
 1323      00
 1324 003d 000000   		.space	3
 1325              	.LC3:
 1326 0040 22636845 		.ascii	"\"chEvtSignal\"()\000"
 1326      76745369 
 1326      676E616C 
 1326      22282900 
 1327              	.LC4:
 1328 0050 22636845 		.ascii	"\"chEvtBroadcastMaskI\"()\000"
 1328      76744272 
 1328      6F616463 
 1328      6173744D 
 1328      61736B49 
 1329              	.LC5:
 1330 0068 22636845 		.ascii	"\"chEvtDispatch\"()\000"
 1330      76744469 
 1330      73706174 
 1330      63682228 
 1330      2900
 1331 007a 0000     		.space	2
ARM GAS  /tmp/ccIEcMfY.s 			page 25


 1332              	.LC6:
 1333 007c 63684576 		.ascii	"chEvtDispatch(), #1\000"
 1333      74446973 
 1333      70617463 
 1333      6828292C 
 1333      20233100 
 1334              		.text
 1335              	.Letext0:
 1336              		.section	.debug_loc,"",%progbits
 1337              	.Ldebug_loc0:
 1338              	.LLST0:
 1339 0000 00000000 		.4byte	.LFB7
 1340 0004 02000000 		.4byte	.LCFI0
 1341 0008 0200     		.2byte	0x2
 1342 000a 7D       		.byte	0x7d
 1343 000b 00       		.sleb128 0
 1344 000c 02000000 		.4byte	.LCFI0
 1345 0010 40000000 		.4byte	.LFE7
 1346 0014 0200     		.2byte	0x2
 1347 0016 7D       		.byte	0x7d
 1348 0017 10       		.sleb128 16
 1349 0018 00000000 		.4byte	0x0
 1350 001c 00000000 		.4byte	0x0
 1351              	.LLST1:
 1352 0020 00000000 		.4byte	.LVL0
 1353 0024 0C000000 		.4byte	.LVL1
 1354 0028 0100     		.2byte	0x1
 1355 002a 50       		.byte	0x50
 1356 002b 0C000000 		.4byte	.LVL1
 1357 002f 40000000 		.4byte	.LFE7
 1358 0033 0100     		.2byte	0x1
 1359 0035 54       		.byte	0x54
 1360 0036 00000000 		.4byte	0x0
 1361 003a 00000000 		.4byte	0x0
 1362              	.LLST2:
 1363 003e 00000000 		.4byte	.LVL0
 1364 0042 0C000000 		.4byte	.LVL1
 1365 0046 0100     		.2byte	0x1
 1366 0048 51       		.byte	0x51
 1367 0049 0C000000 		.4byte	.LVL1
 1368 004d 40000000 		.4byte	.LFE7
 1369 0051 0100     		.2byte	0x1
 1370 0053 55       		.byte	0x55
 1371 0054 00000000 		.4byte	0x0
 1372 0058 00000000 		.4byte	0x0
 1373              	.LLST3:
 1374 005c 00000000 		.4byte	.LVL0
 1375 0060 0C000000 		.4byte	.LVL1
 1376 0064 0100     		.2byte	0x1
 1377 0066 52       		.byte	0x52
 1378 0067 0C000000 		.4byte	.LVL1
 1379 006b 40000000 		.4byte	.LFE7
 1380 006f 0100     		.2byte	0x1
 1381 0071 56       		.byte	0x56
 1382 0072 00000000 		.4byte	0x0
 1383 0076 00000000 		.4byte	0x0
 1384              	.LLST4:
ARM GAS  /tmp/ccIEcMfY.s 			page 26


 1385 007a 12000000 		.4byte	.LVL3
 1386 007e 15000000 		.4byte	.LVL4-1
 1387 0082 0100     		.2byte	0x1
 1388 0084 53       		.byte	0x53
 1389 0085 00000000 		.4byte	0x0
 1390 0089 00000000 		.4byte	0x0
 1391              	.LLST5:
 1392 008d 2E000000 		.4byte	.LVL6
 1393 0091 30000000 		.4byte	.LVL7
 1394 0095 0100     		.2byte	0x1
 1395 0097 53       		.byte	0x53
 1396 0098 00000000 		.4byte	0x0
 1397 009c 00000000 		.4byte	0x0
 1398              	.LLST6:
 1399 00a0 00000000 		.4byte	.LFB8
 1400 00a4 02000000 		.4byte	.LCFI1
 1401 00a8 0200     		.2byte	0x2
 1402 00aa 7D       		.byte	0x7d
 1403 00ab 00       		.sleb128 0
 1404 00ac 02000000 		.4byte	.LCFI1
 1405 00b0 4C000000 		.4byte	.LFE8
 1406 00b4 0200     		.2byte	0x2
 1407 00b6 7D       		.byte	0x7d
 1408 00b7 10       		.sleb128 16
 1409 00b8 00000000 		.4byte	0x0
 1410 00bc 00000000 		.4byte	0x0
 1411              	.LLST7:
 1412 00c0 00000000 		.4byte	.LVL8
 1413 00c4 0A000000 		.4byte	.LVL9
 1414 00c8 0100     		.2byte	0x1
 1415 00ca 50       		.byte	0x50
 1416 00cb 0A000000 		.4byte	.LVL9
 1417 00cf 4C000000 		.4byte	.LFE8
 1418 00d3 0100     		.2byte	0x1
 1419 00d5 54       		.byte	0x54
 1420 00d6 00000000 		.4byte	0x0
 1421 00da 00000000 		.4byte	0x0
 1422              	.LLST8:
 1423 00de 00000000 		.4byte	.LVL8
 1424 00e2 0A000000 		.4byte	.LVL9
 1425 00e6 0100     		.2byte	0x1
 1426 00e8 51       		.byte	0x51
 1427 00e9 0A000000 		.4byte	.LVL9
 1428 00ed 4C000000 		.4byte	.LFE8
 1429 00f1 0100     		.2byte	0x1
 1430 00f3 55       		.byte	0x55
 1431 00f4 00000000 		.4byte	0x0
 1432 00f8 00000000 		.4byte	0x0
 1433              	.LLST9:
 1434 00fc 0A000000 		.4byte	.LVL9
 1435 0100 18000000 		.4byte	.LVL13
 1436 0104 0100     		.2byte	0x1
 1437 0106 54       		.byte	0x54
 1438 0107 18000000 		.4byte	.LVL13
 1439 010b 1E000000 		.4byte	.LVL14
 1440 010f 0100     		.2byte	0x1
 1441 0111 52       		.byte	0x52
ARM GAS  /tmp/ccIEcMfY.s 			page 27


 1442 0112 1E000000 		.4byte	.LVL14
 1443 0116 27000000 		.4byte	.LVL15-1
 1444 011a 0100     		.2byte	0x1
 1445 011c 52       		.byte	0x52
 1446 011d 30000000 		.4byte	.LVL18
 1447 0121 37000000 		.4byte	.LVL19-1
 1448 0125 0100     		.2byte	0x1
 1449 0127 52       		.byte	0x52
 1450 0128 00000000 		.4byte	0x0
 1451 012c 00000000 		.4byte	0x0
 1452              	.LLST10:
 1453 0130 10000000 		.4byte	.LVL11
 1454 0134 13000000 		.4byte	.LVL12-1
 1455 0138 0100     		.2byte	0x1
 1456 013a 53       		.byte	0x53
 1457 013b 00000000 		.4byte	0x0
 1458 013f 00000000 		.4byte	0x0
 1459              	.LLST11:
 1460 0143 2E000000 		.4byte	.LVL17
 1461 0147 30000000 		.4byte	.LVL18
 1462 014b 0100     		.2byte	0x1
 1463 014d 53       		.byte	0x53
 1464 014e 3E000000 		.4byte	.LVL20
 1465 0152 40000000 		.4byte	.LVL21
 1466 0156 0100     		.2byte	0x1
 1467 0158 53       		.byte	0x53
 1468 0159 00000000 		.4byte	0x0
 1469 015d 00000000 		.4byte	0x0
 1470              	.LLST12:
 1471 0161 00000000 		.4byte	.LFB9
 1472 0165 02000000 		.4byte	.LCFI2
 1473 0169 0200     		.2byte	0x2
 1474 016b 7D       		.byte	0x7d
 1475 016c 00       		.sleb128 0
 1476 016d 02000000 		.4byte	.LCFI2
 1477 0171 30000000 		.4byte	.LFE9
 1478 0175 0200     		.2byte	0x2
 1479 0177 7D       		.byte	0x7d
 1480 0178 10       		.sleb128 16
 1481 0179 00000000 		.4byte	0x0
 1482 017d 00000000 		.4byte	0x0
 1483              	.LLST13:
 1484 0181 00000000 		.4byte	.LVL22
 1485 0185 0D000000 		.4byte	.LVL25-1
 1486 0189 0100     		.2byte	0x1
 1487 018b 50       		.byte	0x50
 1488 018c 0D000000 		.4byte	.LVL25-1
 1489 0190 30000000 		.4byte	.LFE9
 1490 0194 0100     		.2byte	0x1
 1491 0196 55       		.byte	0x55
 1492 0197 00000000 		.4byte	0x0
 1493 019b 00000000 		.4byte	0x0
 1494              	.LLST14:
 1495 019f 0A000000 		.4byte	.LVL24
 1496 01a3 0D000000 		.4byte	.LVL25-1
 1497 01a7 0100     		.2byte	0x1
 1498 01a9 53       		.byte	0x53
ARM GAS  /tmp/ccIEcMfY.s 			page 28


 1499 01aa 00000000 		.4byte	0x0
 1500 01ae 00000000 		.4byte	0x0
 1501              	.LLST15:
 1502 01b2 24000000 		.4byte	.LVL28
 1503 01b6 30000000 		.4byte	.LFE9
 1504 01ba 0100     		.2byte	0x1
 1505 01bc 53       		.byte	0x53
 1506 01bd 00000000 		.4byte	0x0
 1507 01c1 00000000 		.4byte	0x0
 1508              	.LLST16:
 1509 01c5 00000000 		.4byte	.LFB10
 1510 01c9 02000000 		.4byte	.LCFI3
 1511 01cd 0200     		.2byte	0x2
 1512 01cf 7D       		.byte	0x7d
 1513 01d0 00       		.sleb128 0
 1514 01d1 02000000 		.4byte	.LCFI3
 1515 01d5 2C000000 		.4byte	.LFE10
 1516 01d9 0200     		.2byte	0x2
 1517 01db 7D       		.byte	0x7d
 1518 01dc 08       		.sleb128 8
 1519 01dd 00000000 		.4byte	0x0
 1520 01e1 00000000 		.4byte	0x0
 1521              	.LLST17:
 1522 01e5 00000000 		.4byte	.LVL29
 1523 01e9 0D000000 		.4byte	.LVL32-1
 1524 01ed 0100     		.2byte	0x1
 1525 01ef 50       		.byte	0x50
 1526 01f0 0D000000 		.4byte	.LVL32-1
 1527 01f4 16000000 		.4byte	.LVL33
 1528 01f8 0100     		.2byte	0x1
 1529 01fa 54       		.byte	0x54
 1530 01fb 18000000 		.4byte	.LVL34
 1531 01ff 2C000000 		.4byte	.LFE10
 1532 0203 0100     		.2byte	0x1
 1533 0205 54       		.byte	0x54
 1534 0206 00000000 		.4byte	0x0
 1535 020a 00000000 		.4byte	0x0
 1536              	.LLST18:
 1537 020e 0A000000 		.4byte	.LVL31
 1538 0212 0D000000 		.4byte	.LVL32-1
 1539 0216 0100     		.2byte	0x1
 1540 0218 53       		.byte	0x53
 1541 0219 00000000 		.4byte	0x0
 1542 021d 00000000 		.4byte	0x0
 1543              	.LLST19:
 1544 0221 22000000 		.4byte	.LVL36
 1545 0225 2C000000 		.4byte	.LFE10
 1546 0229 0100     		.2byte	0x1
 1547 022b 53       		.byte	0x53
 1548 022c 00000000 		.4byte	0x0
 1549 0230 00000000 		.4byte	0x0
 1550              	.LLST20:
 1551 0234 00000000 		.4byte	.LFB12
 1552 0238 02000000 		.4byte	.LCFI4
 1553 023c 0200     		.2byte	0x2
 1554 023e 7D       		.byte	0x7d
 1555 023f 00       		.sleb128 0
ARM GAS  /tmp/ccIEcMfY.s 			page 29


 1556 0240 02000000 		.4byte	.LCFI4
 1557 0244 48000000 		.4byte	.LFE12
 1558 0248 0200     		.2byte	0x2
 1559 024a 7D       		.byte	0x7d
 1560 024b 10       		.sleb128 16
 1561 024c 00000000 		.4byte	0x0
 1562 0250 00000000 		.4byte	0x0
 1563              	.LLST21:
 1564 0254 00000000 		.4byte	.LVL37
 1565 0258 09000000 		.4byte	.LVL38-1
 1566 025c 0100     		.2byte	0x1
 1567 025e 50       		.byte	0x50
 1568 025f 09000000 		.4byte	.LVL38-1
 1569 0263 48000000 		.4byte	.LFE12
 1570 0267 0100     		.2byte	0x1
 1571 0269 54       		.byte	0x54
 1572 026a 00000000 		.4byte	0x0
 1573 026e 00000000 		.4byte	0x0
 1574              	.LLST22:
 1575 0272 00000000 		.4byte	.LVL37
 1576 0276 09000000 		.4byte	.LVL38-1
 1577 027a 0100     		.2byte	0x1
 1578 027c 51       		.byte	0x51
 1579 027d 09000000 		.4byte	.LVL38-1
 1580 0281 14000000 		.4byte	.LVL39
 1581 0285 0100     		.2byte	0x1
 1582 0287 55       		.byte	0x55
 1583 0288 3C000000 		.4byte	.LVL40
 1584 028c 48000000 		.4byte	.LFE12
 1585 0290 0100     		.2byte	0x1
 1586 0292 55       		.byte	0x55
 1587 0293 00000000 		.4byte	0x0
 1588 0297 00000000 		.4byte	0x0
 1589              	.LLST23:
 1590 029b 00000000 		.4byte	.LFB11
 1591 029f 02000000 		.4byte	.LCFI5
 1592 02a3 0200     		.2byte	0x2
 1593 02a5 7D       		.byte	0x7d
 1594 02a6 00       		.sleb128 0
 1595 02a7 02000000 		.4byte	.LCFI5
 1596 02ab 38000000 		.4byte	.LFE11
 1597 02af 0200     		.2byte	0x2
 1598 02b1 7D       		.byte	0x7d
 1599 02b2 10       		.sleb128 16
 1600 02b3 00000000 		.4byte	0x0
 1601 02b7 00000000 		.4byte	0x0
 1602              	.LLST24:
 1603 02bb 00000000 		.4byte	.LVL41
 1604 02bf 08000000 		.4byte	.LVL42
 1605 02c3 0100     		.2byte	0x1
 1606 02c5 50       		.byte	0x50
 1607 02c6 08000000 		.4byte	.LVL42
 1608 02ca 38000000 		.4byte	.LFE11
 1609 02ce 0100     		.2byte	0x1
 1610 02d0 54       		.byte	0x54
 1611 02d1 00000000 		.4byte	0x0
 1612 02d5 00000000 		.4byte	0x0
ARM GAS  /tmp/ccIEcMfY.s 			page 30


 1613              	.LLST25:
 1614 02d9 00000000 		.4byte	.LVL41
 1615 02dd 08000000 		.4byte	.LVL42
 1616 02e1 0100     		.2byte	0x1
 1617 02e3 51       		.byte	0x51
 1618 02e4 08000000 		.4byte	.LVL42
 1619 02e8 38000000 		.4byte	.LFE11
 1620 02ec 0100     		.2byte	0x1
 1621 02ee 55       		.byte	0x55
 1622 02ef 00000000 		.4byte	0x0
 1623 02f3 00000000 		.4byte	0x0
 1624              	.LLST26:
 1625 02f7 0E000000 		.4byte	.LVL44
 1626 02fb 11000000 		.4byte	.LVL45-1
 1627 02ff 0100     		.2byte	0x1
 1628 0301 53       		.byte	0x53
 1629 0302 00000000 		.4byte	0x0
 1630 0306 00000000 		.4byte	0x0
 1631              	.LLST27:
 1632 030a 28000000 		.4byte	.LVL47
 1633 030e 2A000000 		.4byte	.LVL48
 1634 0312 0100     		.2byte	0x1
 1635 0314 53       		.byte	0x53
 1636 0315 00000000 		.4byte	0x0
 1637 0319 00000000 		.4byte	0x0
 1638              	.LLST28:
 1639 031d 00000000 		.4byte	.LFB14
 1640 0321 02000000 		.4byte	.LCFI6
 1641 0325 0200     		.2byte	0x2
 1642 0327 7D       		.byte	0x7d
 1643 0328 00       		.sleb128 0
 1644 0329 02000000 		.4byte	.LCFI6
 1645 032d 34000000 		.4byte	.LFE14
 1646 0331 0200     		.2byte	0x2
 1647 0333 7D       		.byte	0x7d
 1648 0334 10       		.sleb128 16
 1649 0335 00000000 		.4byte	0x0
 1650 0339 00000000 		.4byte	0x0
 1651              	.LLST29:
 1652 033d 00000000 		.4byte	.LVL49
 1653 0341 09000000 		.4byte	.LVL50-1
 1654 0345 0100     		.2byte	0x1
 1655 0347 50       		.byte	0x50
 1656 0348 09000000 		.4byte	.LVL50-1
 1657 034c 34000000 		.4byte	.LFE14
 1658 0350 0100     		.2byte	0x1
 1659 0352 55       		.byte	0x55
 1660 0353 00000000 		.4byte	0x0
 1661 0357 00000000 		.4byte	0x0
 1662              	.LLST30:
 1663 035b 00000000 		.4byte	.LVL49
 1664 035f 09000000 		.4byte	.LVL50-1
 1665 0363 0100     		.2byte	0x1
 1666 0365 51       		.byte	0x51
 1667 0366 09000000 		.4byte	.LVL50-1
 1668 036a 34000000 		.4byte	.LFE14
 1669 036e 0100     		.2byte	0x1
ARM GAS  /tmp/ccIEcMfY.s 			page 31


 1670 0370 56       		.byte	0x56
 1671 0371 00000000 		.4byte	0x0
 1672 0375 00000000 		.4byte	0x0
 1673              	.LLST31:
 1674 0379 0E000000 		.4byte	.LVL51
 1675 037d 12000000 		.4byte	.LVL52
 1676 0381 0200     		.2byte	0x2
 1677 0383 75       		.byte	0x75
 1678 0384 00       		.sleb128 0
 1679 0385 12000000 		.4byte	.LVL52
 1680 0389 20000000 		.4byte	.LVL53
 1681 038d 0100     		.2byte	0x1
 1682 038f 54       		.byte	0x54
 1683 0390 20000000 		.4byte	.LVL53
 1684 0394 26000000 		.4byte	.LVL54
 1685 0398 0100     		.2byte	0x1
 1686 039a 54       		.byte	0x54
 1687 039b 00000000 		.4byte	0x0
 1688 039f 00000000 		.4byte	0x0
 1689              	.LLST32:
 1690 03a3 00000000 		.4byte	.LFB13
 1691 03a7 02000000 		.4byte	.LCFI7
 1692 03ab 0200     		.2byte	0x2
 1693 03ad 7D       		.byte	0x7d
 1694 03ae 00       		.sleb128 0
 1695 03af 02000000 		.4byte	.LCFI7
 1696 03b3 28000000 		.4byte	.LFE13
 1697 03b7 0200     		.2byte	0x2
 1698 03b9 7D       		.byte	0x7d
 1699 03ba 10       		.sleb128 16
 1700 03bb 00000000 		.4byte	0x0
 1701 03bf 00000000 		.4byte	0x0
 1702              	.LLST33:
 1703 03c3 00000000 		.4byte	.LVL55
 1704 03c7 0F000000 		.4byte	.LVL58-1
 1705 03cb 0100     		.2byte	0x1
 1706 03cd 50       		.byte	0x50
 1707 03ce 0F000000 		.4byte	.LVL58-1
 1708 03d2 28000000 		.4byte	.LFE13
 1709 03d6 0100     		.2byte	0x1
 1710 03d8 55       		.byte	0x55
 1711 03d9 00000000 		.4byte	0x0
 1712 03dd 00000000 		.4byte	0x0
 1713              	.LLST34:
 1714 03e1 00000000 		.4byte	.LVL55
 1715 03e5 0F000000 		.4byte	.LVL58-1
 1716 03e9 0100     		.2byte	0x1
 1717 03eb 51       		.byte	0x51
 1718 03ec 0F000000 		.4byte	.LVL58-1
 1719 03f0 28000000 		.4byte	.LFE13
 1720 03f4 0100     		.2byte	0x1
 1721 03f6 54       		.byte	0x54
 1722 03f7 00000000 		.4byte	0x0
 1723 03fb 00000000 		.4byte	0x0
 1724              	.LLST35:
 1725 03ff 0C000000 		.4byte	.LVL57
 1726 0403 0F000000 		.4byte	.LVL58-1
ARM GAS  /tmp/ccIEcMfY.s 			page 32


 1727 0407 0100     		.2byte	0x1
 1728 0409 53       		.byte	0x53
 1729 040a 00000000 		.4byte	0x0
 1730 040e 00000000 		.4byte	0x0
 1731              	.LLST36:
 1732 0412 26000000 		.4byte	.LVL60
 1733 0416 28000000 		.4byte	.LFE13
 1734 041a 0100     		.2byte	0x1
 1735 041c 53       		.byte	0x53
 1736 041d 00000000 		.4byte	0x0
 1737 0421 00000000 		.4byte	0x0
 1738              	.LLST37:
 1739 0425 00000000 		.4byte	.LFB15
 1740 0429 04000000 		.4byte	.LCFI8
 1741 042d 0200     		.2byte	0x2
 1742 042f 7D       		.byte	0x7d
 1743 0430 00       		.sleb128 0
 1744 0431 04000000 		.4byte	.LCFI8
 1745 0435 50000000 		.4byte	.LFE15
 1746 0439 0200     		.2byte	0x2
 1747 043b 7D       		.byte	0x7d
 1748 043c 18       		.sleb128 24
 1749 043d 00000000 		.4byte	0x0
 1750 0441 00000000 		.4byte	0x0
 1751              	.LLST38:
 1752 0445 00000000 		.4byte	.LVL61
 1753 0449 0A000000 		.4byte	.LVL62
 1754 044d 0100     		.2byte	0x1
 1755 044f 50       		.byte	0x50
 1756 0450 0A000000 		.4byte	.LVL62
 1757 0454 50000000 		.4byte	.LFE15
 1758 0458 0100     		.2byte	0x1
 1759 045a 54       		.byte	0x54
 1760 045b 00000000 		.4byte	0x0
 1761 045f 00000000 		.4byte	0x0
 1762              	.LLST39:
 1763 0463 00000000 		.4byte	.LVL61
 1764 0467 0A000000 		.4byte	.LVL62
 1765 046b 0100     		.2byte	0x1
 1766 046d 51       		.byte	0x51
 1767 046e 0A000000 		.4byte	.LVL62
 1768 0472 20000000 		.4byte	.LVL64
 1769 0476 0100     		.2byte	0x1
 1770 0478 56       		.byte	0x56
 1771 0479 24000000 		.4byte	.LVL65
 1772 047d 34000000 		.4byte	.LVL69
 1773 0481 0100     		.2byte	0x1
 1774 0483 56       		.byte	0x56
 1775 0484 3E000000 		.4byte	.LVL70
 1776 0488 43000000 		.4byte	.LVL71-1
 1777 048c 0100     		.2byte	0x1
 1778 048e 51       		.byte	0x51
 1779 048f 43000000 		.4byte	.LVL71-1
 1780 0493 50000000 		.4byte	.LFE15
 1781 0497 0100     		.2byte	0x1
 1782 0499 56       		.byte	0x56
 1783 049a 00000000 		.4byte	0x0
ARM GAS  /tmp/ccIEcMfY.s 			page 33


 1784 049e 00000000 		.4byte	0x0
 1785              	.LLST40:
 1786 04a2 0A000000 		.4byte	.LVL62
 1787 04a6 14000000 		.4byte	.LVL63
 1788 04aa 0200     		.2byte	0x2
 1789 04ac 30       		.byte	0x30
 1790 04ad 9F       		.byte	0x9f
 1791 04ae 28000000 		.4byte	.LVL66
 1792 04b2 2E000000 		.4byte	.LVL67
 1793 04b6 0300     		.2byte	0x3
 1794 04b8 75       		.byte	0x75
 1795 04b9 01       		.sleb128 1
 1796 04ba 9F       		.byte	0x9f
 1797 04bb 2E000000 		.4byte	.LVL67
 1798 04bf 30000000 		.4byte	.LVL68
 1799 04c3 0100     		.2byte	0x1
 1800 04c5 55       		.byte	0x55
 1801 04c6 00000000 		.4byte	0x0
 1802 04ca 00000000 		.4byte	0x0
 1803              	.LLST41:
 1804 04ce 00000000 		.4byte	.LFB16
 1805 04d2 02000000 		.4byte	.LCFI9
 1806 04d6 0200     		.2byte	0x2
 1807 04d8 7D       		.byte	0x7d
 1808 04d9 00       		.sleb128 0
 1809 04da 02000000 		.4byte	.LCFI9
 1810 04de 44000000 		.4byte	.LFE16
 1811 04e2 0200     		.2byte	0x2
 1812 04e4 7D       		.byte	0x7d
 1813 04e5 10       		.sleb128 16
 1814 04e6 00000000 		.4byte	0x0
 1815 04ea 00000000 		.4byte	0x0
 1816              	.LLST42:
 1817 04ee 00000000 		.4byte	.LVL72
 1818 04f2 11000000 		.4byte	.LVL76-1
 1819 04f6 0100     		.2byte	0x1
 1820 04f8 50       		.byte	0x50
 1821 04f9 11000000 		.4byte	.LVL76-1
 1822 04fd 2A000000 		.4byte	.LVL80
 1823 0501 0100     		.2byte	0x1
 1824 0503 55       		.byte	0x55
 1825 0504 00000000 		.4byte	0x0
 1826 0508 00000000 		.4byte	0x0
 1827              	.LLST43:
 1828 050c 08000000 		.4byte	.LVL73
 1829 0510 0A000000 		.4byte	.LVL74
 1830 0514 0200     		.2byte	0x2
 1831 0516 73       		.byte	0x73
 1832 0517 1C       		.sleb128 28
 1833 0518 11000000 		.4byte	.LVL76-1
 1834 051c 44000000 		.4byte	.LFE16
 1835 0520 0100     		.2byte	0x1
 1836 0522 54       		.byte	0x54
 1837 0523 00000000 		.4byte	0x0
 1838 0527 00000000 		.4byte	0x0
 1839              	.LLST44:
 1840 052b 14000000 		.4byte	.LVL77
ARM GAS  /tmp/ccIEcMfY.s 			page 34


 1841 052f 21000000 		.4byte	.LVL78-1
 1842 0533 0700     		.2byte	0x7
 1843 0535 75       		.byte	0x75
 1844 0536 00       		.sleb128 0
 1845 0537 74       		.byte	0x74
 1846 0538 3C       		.sleb128 60
 1847 0539 06       		.byte	0x6
 1848 053a 1A       		.byte	0x1a
 1849 053b 9F       		.byte	0x9f
 1850 053c 28000000 		.4byte	.LVL79
 1851 0540 2C000000 		.4byte	.LVL81
 1852 0544 0100     		.2byte	0x1
 1853 0546 52       		.byte	0x52
 1854 0547 2C000000 		.4byte	.LVL81
 1855 054b 44000000 		.4byte	.LFE16
 1856 054f 0100     		.2byte	0x1
 1857 0551 55       		.byte	0x55
 1858 0552 00000000 		.4byte	0x0
 1859 0556 00000000 		.4byte	0x0
 1860              	.LLST45:
 1861 055a 0E000000 		.4byte	.LVL75
 1862 055e 11000000 		.4byte	.LVL76-1
 1863 0562 0100     		.2byte	0x1
 1864 0564 53       		.byte	0x53
 1865 0565 00000000 		.4byte	0x0
 1866 0569 00000000 		.4byte	0x0
 1867              	.LLST46:
 1868 056d 3C000000 		.4byte	.LVL83
 1869 0571 44000000 		.4byte	.LFE16
 1870 0575 0100     		.2byte	0x1
 1871 0577 53       		.byte	0x53
 1872 0578 00000000 		.4byte	0x0
 1873 057c 00000000 		.4byte	0x0
 1874              	.LLST47:
 1875 0580 00000000 		.4byte	.LFB17
 1876 0584 04000000 		.4byte	.LCFI10
 1877 0588 0200     		.2byte	0x2
 1878 058a 7D       		.byte	0x7d
 1879 058b 00       		.sleb128 0
 1880 058c 04000000 		.4byte	.LCFI10
 1881 0590 40000000 		.4byte	.LFE17
 1882 0594 0200     		.2byte	0x2
 1883 0596 7D       		.byte	0x7d
 1884 0597 10       		.sleb128 16
 1885 0598 00000000 		.4byte	0x0
 1886 059c 00000000 		.4byte	0x0
 1887              	.LLST48:
 1888 05a0 00000000 		.4byte	.LVL84
 1889 05a4 11000000 		.4byte	.LVL88-1
 1890 05a8 0100     		.2byte	0x1
 1891 05aa 50       		.byte	0x50
 1892 05ab 11000000 		.4byte	.LVL88-1
 1893 05af 40000000 		.4byte	.LFE17
 1894 05b3 0100     		.2byte	0x1
 1895 05b5 55       		.byte	0x55
 1896 05b6 00000000 		.4byte	0x0
 1897 05ba 00000000 		.4byte	0x0
ARM GAS  /tmp/ccIEcMfY.s 			page 35


 1898              	.LLST49:
 1899 05be 06000000 		.4byte	.LVL85
 1900 05c2 0A000000 		.4byte	.LVL86
 1901 05c6 0200     		.2byte	0x2
 1902 05c8 73       		.byte	0x73
 1903 05c9 1C       		.sleb128 28
 1904 05ca 11000000 		.4byte	.LVL88-1
 1905 05ce 40000000 		.4byte	.LFE17
 1906 05d2 0100     		.2byte	0x1
 1907 05d4 54       		.byte	0x54
 1908 05d5 00000000 		.4byte	0x0
 1909 05d9 00000000 		.4byte	0x0
 1910              	.LLST50:
 1911 05dd 14000000 		.4byte	.LVL89
 1912 05e1 21000000 		.4byte	.LVL90-1
 1913 05e5 0700     		.2byte	0x7
 1914 05e7 75       		.byte	0x75
 1915 05e8 00       		.sleb128 0
 1916 05e9 74       		.byte	0x74
 1917 05ea 3C       		.sleb128 60
 1918 05eb 06       		.byte	0x6
 1919 05ec 1A       		.byte	0x1a
 1920 05ed 9F       		.byte	0x9f
 1921 05ee 21000000 		.4byte	.LVL90-1
 1922 05f2 28000000 		.4byte	.LVL91
 1923 05f6 0100     		.2byte	0x1
 1924 05f8 56       		.byte	0x56
 1925 05f9 28000000 		.4byte	.LVL91
 1926 05fd 40000000 		.4byte	.LFE17
 1927 0601 0100     		.2byte	0x1
 1928 0603 56       		.byte	0x56
 1929 0604 00000000 		.4byte	0x0
 1930 0608 00000000 		.4byte	0x0
 1931              	.LLST51:
 1932 060c 0E000000 		.4byte	.LVL87
 1933 0610 11000000 		.4byte	.LVL88-1
 1934 0614 0100     		.2byte	0x1
 1935 0616 53       		.byte	0x53
 1936 0617 00000000 		.4byte	0x0
 1937 061b 00000000 		.4byte	0x0
 1938              	.LLST52:
 1939 061f 38000000 		.4byte	.LVL93
 1940 0623 40000000 		.4byte	.LFE17
 1941 0627 0100     		.2byte	0x1
 1942 0629 53       		.byte	0x53
 1943 062a 00000000 		.4byte	0x0
 1944 062e 00000000 		.4byte	0x0
 1945              	.LLST53:
 1946 0632 00000000 		.4byte	.LFB18
 1947 0636 02000000 		.4byte	.LCFI11
 1948 063a 0200     		.2byte	0x2
 1949 063c 7D       		.byte	0x7d
 1950 063d 00       		.sleb128 0
 1951 063e 02000000 		.4byte	.LCFI11
 1952 0642 40000000 		.4byte	.LFE18
 1953 0646 0200     		.2byte	0x2
 1954 0648 7D       		.byte	0x7d
ARM GAS  /tmp/ccIEcMfY.s 			page 36


 1955 0649 10       		.sleb128 16
 1956 064a 00000000 		.4byte	0x0
 1957 064e 00000000 		.4byte	0x0
 1958              	.LLST54:
 1959 0652 00000000 		.4byte	.LVL94
 1960 0656 11000000 		.4byte	.LVL98-1
 1961 065a 0100     		.2byte	0x1
 1962 065c 50       		.byte	0x50
 1963 065d 11000000 		.4byte	.LVL98-1
 1964 0661 40000000 		.4byte	.LFE18
 1965 0665 0100     		.2byte	0x1
 1966 0667 54       		.byte	0x54
 1967 0668 00000000 		.4byte	0x0
 1968 066c 00000000 		.4byte	0x0
 1969              	.LLST55:
 1970 0670 08000000 		.4byte	.LVL95
 1971 0674 0A000000 		.4byte	.LVL96
 1972 0678 0200     		.2byte	0x2
 1973 067a 73       		.byte	0x73
 1974 067b 1C       		.sleb128 28
 1975 067c 11000000 		.4byte	.LVL98-1
 1976 0680 40000000 		.4byte	.LFE18
 1977 0684 0100     		.2byte	0x1
 1978 0686 55       		.byte	0x55
 1979 0687 00000000 		.4byte	0x0
 1980 068b 00000000 		.4byte	0x0
 1981              	.LLST56:
 1982 068f 0E000000 		.4byte	.LVL97
 1983 0693 11000000 		.4byte	.LVL98-1
 1984 0697 0100     		.2byte	0x1
 1985 0699 53       		.byte	0x53
 1986 069a 00000000 		.4byte	0x0
 1987 069e 00000000 		.4byte	0x0
 1988              	.LLST57:
 1989 06a2 36000000 		.4byte	.LVL100
 1990 06a6 40000000 		.4byte	.LFE18
 1991 06aa 0100     		.2byte	0x1
 1992 06ac 53       		.byte	0x53
 1993 06ad 00000000 		.4byte	0x0
 1994 06b1 00000000 		.4byte	0x0
 1995              	.LLST58:
 1996 06b5 00000000 		.4byte	.LFB19
 1997 06b9 02000000 		.4byte	.LCFI12
 1998 06bd 0200     		.2byte	0x2
 1999 06bf 7D       		.byte	0x7d
 2000 06c0 00       		.sleb128 0
 2001 06c1 02000000 		.4byte	.LCFI12
 2002 06c5 68000000 		.4byte	.LFE19
 2003 06c9 0200     		.2byte	0x2
 2004 06cb 7D       		.byte	0x7d
 2005 06cc 18       		.sleb128 24
 2006 06cd 00000000 		.4byte	0x0
 2007 06d1 00000000 		.4byte	0x0
 2008              	.LLST59:
 2009 06d5 00000000 		.4byte	.LVL101
 2010 06d9 13000000 		.4byte	.LVL105-1
 2011 06dd 0100     		.2byte	0x1
ARM GAS  /tmp/ccIEcMfY.s 			page 37


 2012 06df 50       		.byte	0x50
 2013 06e0 13000000 		.4byte	.LVL105-1
 2014 06e4 68000000 		.4byte	.LFE19
 2015 06e8 0100     		.2byte	0x1
 2016 06ea 55       		.byte	0x55
 2017 06eb 00000000 		.4byte	0x0
 2018 06ef 00000000 		.4byte	0x0
 2019              	.LLST60:
 2020 06f3 00000000 		.4byte	.LVL101
 2021 06f7 13000000 		.4byte	.LVL105-1
 2022 06fb 0100     		.2byte	0x1
 2023 06fd 51       		.byte	0x51
 2024 06fe 13000000 		.4byte	.LVL105-1
 2025 0702 68000000 		.4byte	.LFE19
 2026 0706 0100     		.2byte	0x1
 2027 0708 57       		.byte	0x57
 2028 0709 00000000 		.4byte	0x0
 2029 070d 00000000 		.4byte	0x0
 2030              	.LLST61:
 2031 0711 08000000 		.4byte	.LVL102
 2032 0715 0C000000 		.4byte	.LVL103
 2033 0719 0200     		.2byte	0x2
 2034 071b 73       		.byte	0x73
 2035 071c 1C       		.sleb128 28
 2036 071d 13000000 		.4byte	.LVL105-1
 2037 0721 68000000 		.4byte	.LFE19
 2038 0725 0100     		.2byte	0x1
 2039 0727 56       		.byte	0x56
 2040 0728 00000000 		.4byte	0x0
 2041 072c 00000000 		.4byte	0x0
 2042              	.LLST62:
 2043 0730 16000000 		.4byte	.LVL106
 2044 0734 27000000 		.4byte	.LVL107-1
 2045 0738 0700     		.2byte	0x7
 2046 073a 75       		.byte	0x75
 2047 073b 00       		.sleb128 0
 2048 073c 76       		.byte	0x76
 2049 073d 3C       		.sleb128 60
 2050 073e 06       		.byte	0x6
 2051 073f 1A       		.byte	0x1a
 2052 0740 9F       		.byte	0x9f
 2053 0741 27000000 		.4byte	.LVL107-1
 2054 0745 32000000 		.4byte	.LVL108
 2055 0749 0100     		.2byte	0x1
 2056 074b 54       		.byte	0x54
 2057 074c 32000000 		.4byte	.LVL108
 2058 0750 36000000 		.4byte	.LVL109
 2059 0754 0100     		.2byte	0x1
 2060 0756 54       		.byte	0x54
 2061 0757 36000000 		.4byte	.LVL109
 2062 075b 68000000 		.4byte	.LFE19
 2063 075f 0100     		.2byte	0x1
 2064 0761 54       		.byte	0x54
 2065 0762 00000000 		.4byte	0x0
 2066 0766 00000000 		.4byte	0x0
 2067              	.LLST63:
 2068 076a 10000000 		.4byte	.LVL104
ARM GAS  /tmp/ccIEcMfY.s 			page 38


 2069 076e 13000000 		.4byte	.LVL105-1
 2070 0772 0100     		.2byte	0x1
 2071 0774 53       		.byte	0x53
 2072 0775 00000000 		.4byte	0x0
 2073 0779 00000000 		.4byte	0x0
 2074              	.LLST64:
 2075 077d 46000000 		.4byte	.LVL111
 2076 0781 4A000000 		.4byte	.LVL112
 2077 0785 0100     		.2byte	0x1
 2078 0787 53       		.byte	0x53
 2079 0788 00000000 		.4byte	0x0
 2080 078c 00000000 		.4byte	0x0
 2081              	.LLST65:
 2082 0790 54000000 		.4byte	.LVL114
 2083 0794 58000000 		.4byte	.LVL115
 2084 0798 0100     		.2byte	0x1
 2085 079a 53       		.byte	0x53
 2086 079b 00000000 		.4byte	0x0
 2087 079f 00000000 		.4byte	0x0
 2088              	.LLST66:
 2089 07a3 46000000 		.4byte	.LVL111
 2090 07a7 4A000000 		.4byte	.LVL112
 2091 07ab 0100     		.2byte	0x1
 2092 07ad 53       		.byte	0x53
 2093 07ae 62000000 		.4byte	.LVL116
 2094 07b2 68000000 		.4byte	.LFE19
 2095 07b6 0100     		.2byte	0x1
 2096 07b8 53       		.byte	0x53
 2097 07b9 00000000 		.4byte	0x0
 2098 07bd 00000000 		.4byte	0x0
 2099              	.LLST67:
 2100 07c1 00000000 		.4byte	.LFB20
 2101 07c5 02000000 		.4byte	.LCFI13
 2102 07c9 0200     		.2byte	0x2
 2103 07cb 7D       		.byte	0x7d
 2104 07cc 00       		.sleb128 0
 2105 07cd 02000000 		.4byte	.LCFI13
 2106 07d1 64000000 		.4byte	.LFE20
 2107 07d5 0200     		.2byte	0x2
 2108 07d7 7D       		.byte	0x7d
 2109 07d8 18       		.sleb128 24
 2110 07d9 00000000 		.4byte	0x0
 2111 07dd 00000000 		.4byte	0x0
 2112              	.LLST68:
 2113 07e1 00000000 		.4byte	.LVL117
 2114 07e5 13000000 		.4byte	.LVL121-1
 2115 07e9 0100     		.2byte	0x1
 2116 07eb 50       		.byte	0x50
 2117 07ec 13000000 		.4byte	.LVL121-1
 2118 07f0 64000000 		.4byte	.LFE20
 2119 07f4 0100     		.2byte	0x1
 2120 07f6 54       		.byte	0x54
 2121 07f7 00000000 		.4byte	0x0
 2122 07fb 00000000 		.4byte	0x0
 2123              	.LLST69:
 2124 07ff 00000000 		.4byte	.LVL117
 2125 0803 13000000 		.4byte	.LVL121-1
ARM GAS  /tmp/ccIEcMfY.s 			page 39


 2126 0807 0100     		.2byte	0x1
 2127 0809 51       		.byte	0x51
 2128 080a 13000000 		.4byte	.LVL121-1
 2129 080e 64000000 		.4byte	.LFE20
 2130 0812 0100     		.2byte	0x1
 2131 0814 57       		.byte	0x57
 2132 0815 00000000 		.4byte	0x0
 2133 0819 00000000 		.4byte	0x0
 2134              	.LLST70:
 2135 081d 08000000 		.4byte	.LVL118
 2136 0821 0C000000 		.4byte	.LVL119
 2137 0825 0200     		.2byte	0x2
 2138 0827 73       		.byte	0x73
 2139 0828 1C       		.sleb128 28
 2140 0829 13000000 		.4byte	.LVL121-1
 2141 082d 64000000 		.4byte	.LFE20
 2142 0831 0100     		.2byte	0x1
 2143 0833 55       		.byte	0x55
 2144 0834 00000000 		.4byte	0x0
 2145 0838 00000000 		.4byte	0x0
 2146              	.LLST71:
 2147 083c 16000000 		.4byte	.LVL122
 2148 0840 27000000 		.4byte	.LVL123-1
 2149 0844 0700     		.2byte	0x7
 2150 0846 74       		.byte	0x74
 2151 0847 00       		.sleb128 0
 2152 0848 75       		.byte	0x75
 2153 0849 3C       		.sleb128 60
 2154 084a 06       		.byte	0x6
 2155 084b 1A       		.byte	0x1a
 2156 084c 9F       		.byte	0x9f
 2157 084d 27000000 		.4byte	.LVL123-1
 2158 0851 32000000 		.4byte	.LVL124
 2159 0855 0100     		.2byte	0x1
 2160 0857 56       		.byte	0x56
 2161 0858 32000000 		.4byte	.LVL124
 2162 085c 64000000 		.4byte	.LFE20
 2163 0860 0100     		.2byte	0x1
 2164 0862 56       		.byte	0x56
 2165 0863 00000000 		.4byte	0x0
 2166 0867 00000000 		.4byte	0x0
 2167              	.LLST72:
 2168 086b 10000000 		.4byte	.LVL120
 2169 086f 13000000 		.4byte	.LVL121-1
 2170 0873 0100     		.2byte	0x1
 2171 0875 53       		.byte	0x53
 2172 0876 00000000 		.4byte	0x0
 2173 087a 00000000 		.4byte	0x0
 2174              	.LLST73:
 2175 087e 42000000 		.4byte	.LVL126
 2176 0882 46000000 		.4byte	.LVL127
 2177 0886 0100     		.2byte	0x1
 2178 0888 53       		.byte	0x53
 2179 0889 00000000 		.4byte	0x0
 2180 088d 00000000 		.4byte	0x0
 2181              	.LLST74:
 2182 0891 50000000 		.4byte	.LVL129
ARM GAS  /tmp/ccIEcMfY.s 			page 40


 2183 0895 54000000 		.4byte	.LVL130
 2184 0899 0100     		.2byte	0x1
 2185 089b 53       		.byte	0x53
 2186 089c 00000000 		.4byte	0x0
 2187 08a0 00000000 		.4byte	0x0
 2188              	.LLST75:
 2189 08a4 42000000 		.4byte	.LVL126
 2190 08a8 46000000 		.4byte	.LVL127
 2191 08ac 0100     		.2byte	0x1
 2192 08ae 53       		.byte	0x53
 2193 08af 5E000000 		.4byte	.LVL131
 2194 08b3 64000000 		.4byte	.LFE20
 2195 08b7 0100     		.2byte	0x1
 2196 08b9 53       		.byte	0x53
 2197 08ba 00000000 		.4byte	0x0
 2198 08be 00000000 		.4byte	0x0
 2199              	.LLST76:
 2200 08c2 00000000 		.4byte	.LFB21
 2201 08c6 04000000 		.4byte	.LCFI14
 2202 08ca 0200     		.2byte	0x2
 2203 08cc 7D       		.byte	0x7d
 2204 08cd 00       		.sleb128 0
 2205 08ce 04000000 		.4byte	.LCFI14
 2206 08d2 68000000 		.4byte	.LFE21
 2207 08d6 0200     		.2byte	0x2
 2208 08d8 7D       		.byte	0x7d
 2209 08d9 10       		.sleb128 16
 2210 08da 00000000 		.4byte	0x0
 2211 08de 00000000 		.4byte	0x0
 2212              	.LLST77:
 2213 08e2 00000000 		.4byte	.LVL132
 2214 08e6 13000000 		.4byte	.LVL136-1
 2215 08ea 0100     		.2byte	0x1
 2216 08ec 50       		.byte	0x50
 2217 08ed 13000000 		.4byte	.LVL136-1
 2218 08f1 40000000 		.4byte	.LVL138
 2219 08f5 0100     		.2byte	0x1
 2220 08f7 54       		.byte	0x54
 2221 08f8 44000000 		.4byte	.LVL139
 2222 08fc 50000000 		.4byte	.LVL142
 2223 0900 0100     		.2byte	0x1
 2224 0902 54       		.byte	0x54
 2225 0903 54000000 		.4byte	.LVL143
 2226 0907 60000000 		.4byte	.LVL145
 2227 090b 0100     		.2byte	0x1
 2228 090d 54       		.byte	0x54
 2229 090e 00000000 		.4byte	0x0
 2230 0912 00000000 		.4byte	0x0
 2231              	.LLST78:
 2232 0916 00000000 		.4byte	.LVL132
 2233 091a 13000000 		.4byte	.LVL136-1
 2234 091e 0100     		.2byte	0x1
 2235 0920 51       		.byte	0x51
 2236 0921 13000000 		.4byte	.LVL136-1
 2237 0925 68000000 		.4byte	.LFE21
 2238 0929 0100     		.2byte	0x1
 2239 092b 56       		.byte	0x56
ARM GAS  /tmp/ccIEcMfY.s 			page 41


 2240 092c 00000000 		.4byte	0x0
 2241 0930 00000000 		.4byte	0x0
 2242              	.LLST79:
 2243 0934 06000000 		.4byte	.LVL133
 2244 0938 0C000000 		.4byte	.LVL134
 2245 093c 0200     		.2byte	0x2
 2246 093e 73       		.byte	0x73
 2247 093f 1C       		.sleb128 28
 2248 0940 13000000 		.4byte	.LVL136-1
 2249 0944 68000000 		.4byte	.LFE21
 2250 0948 0100     		.2byte	0x1
 2251 094a 55       		.byte	0x55
 2252 094b 00000000 		.4byte	0x0
 2253 094f 00000000 		.4byte	0x0
 2254              	.LLST80:
 2255 0953 10000000 		.4byte	.LVL135
 2256 0957 13000000 		.4byte	.LVL136-1
 2257 095b 0100     		.2byte	0x1
 2258 095d 53       		.byte	0x53
 2259 095e 00000000 		.4byte	0x0
 2260 0962 00000000 		.4byte	0x0
 2261              	.LLST81:
 2262 0966 40000000 		.4byte	.LVL138
 2263 096a 44000000 		.4byte	.LVL139
 2264 096e 0100     		.2byte	0x1
 2265 0970 53       		.byte	0x53
 2266 0971 00000000 		.4byte	0x0
 2267 0975 00000000 		.4byte	0x0
 2268              	.LLST82:
 2269 0979 4E000000 		.4byte	.LVL141
 2270 097d 54000000 		.4byte	.LVL143
 2271 0981 0100     		.2byte	0x1
 2272 0983 53       		.byte	0x53
 2273 0984 00000000 		.4byte	0x0
 2274 0988 00000000 		.4byte	0x0
 2275              	.LLST83:
 2276 098c 40000000 		.4byte	.LVL138
 2277 0990 44000000 		.4byte	.LVL139
 2278 0994 0100     		.2byte	0x1
 2279 0996 53       		.byte	0x53
 2280 0997 5E000000 		.4byte	.LVL144
 2281 099b 68000000 		.4byte	.LFE21
 2282 099f 0100     		.2byte	0x1
 2283 09a1 53       		.byte	0x53
 2284 09a2 00000000 		.4byte	0x0
 2285 09a6 00000000 		.4byte	0x0
 2286              		.file 2 "/home/z80/programs/code-sourcery/2011.03-42/bin/../lib/gcc/arm-none-eabi/4.5.2/../../../.
 2287              		.file 3 "../chibios_2.4.x/os/ports/GCC/ARMCMx/chtypes.h"
 2288              		.file 4 "../chibios_2.4.x/os/kernel/include/chlists.h"
 2289              		.file 5 "../chibios_2.4.x/os/kernel/include/chthreads.h"
 2290              		.file 6 "../chibios_2.4.x/os/ports/GCC/ARMCMx/chcore_v7m.h"
 2291              		.file 7 "../chibios_2.4.x/os/kernel/include/chschd.h"
 2292              		.file 8 "../chibios_2.4.x/os/kernel/include/chmtx.h"
 2293              		.file 9 "../chibios_2.4.x/os/kernel/include/chevents.h"
 2294              		.section	.debug_info
 2295 0000 400C0000 		.4byte	0xc40
 2296 0004 0200     		.2byte	0x2
ARM GAS  /tmp/ccIEcMfY.s 			page 42


 2297 0006 00000000 		.4byte	.Ldebug_abbrev0
 2298 000a 04       		.byte	0x4
 2299 000b 01       		.uleb128 0x1
 2300 000c D3030000 		.4byte	.LASF88
 2301 0010 01       		.byte	0x1
 2302 0011 E8010000 		.4byte	.LASF89
 2303 0015 6A030000 		.4byte	.LASF90
 2304 0019 00000000 		.4byte	0x0
 2305 001d 00000000 		.4byte	0x0
 2306 0021 30000000 		.4byte	.Ldebug_ranges0+0x30
 2307 0025 00000000 		.4byte	.Ldebug_line0
 2308 0029 02       		.uleb128 0x2
 2309 002a 04       		.byte	0x4
 2310 002b 05       		.byte	0x5
 2311 002c 696E7400 		.ascii	"int\000"
 2312 0030 03       		.uleb128 0x3
 2313 0031 04       		.byte	0x4
 2314 0032 07       		.byte	0x7
 2315 0033 4D010000 		.4byte	.LASF0
 2316 0037 03       		.uleb128 0x3
 2317 0038 01       		.byte	0x1
 2318 0039 06       		.byte	0x6
 2319 003a 71000000 		.4byte	.LASF1
 2320 003e 04       		.uleb128 0x4
 2321 003f A2030000 		.4byte	.LASF5
 2322 0043 02       		.byte	0x2
 2323 0044 2A       		.byte	0x2a
 2324 0045 49000000 		.4byte	0x49
 2325 0049 03       		.uleb128 0x3
 2326 004a 01       		.byte	0x1
 2327 004b 08       		.byte	0x8
 2328 004c 9B020000 		.4byte	.LASF2
 2329 0050 03       		.uleb128 0x3
 2330 0051 02       		.byte	0x2
 2331 0052 05       		.byte	0x5
 2332 0053 CC020000 		.4byte	.LASF3
 2333 0057 03       		.uleb128 0x3
 2334 0058 02       		.byte	0x2
 2335 0059 07       		.byte	0x7
 2336 005a 74010000 		.4byte	.LASF4
 2337 005e 04       		.uleb128 0x4
 2338 005f 93020000 		.4byte	.LASF6
 2339 0063 02       		.byte	0x2
 2340 0064 4F       		.byte	0x4f
 2341 0065 69000000 		.4byte	0x69
 2342 0069 03       		.uleb128 0x3
 2343 006a 04       		.byte	0x4
 2344 006b 05       		.byte	0x5
 2345 006c A7000000 		.4byte	.LASF7
 2346 0070 04       		.uleb128 0x4
 2347 0071 0D030000 		.4byte	.LASF8
 2348 0075 02       		.byte	0x2
 2349 0076 50       		.byte	0x50
 2350 0077 7B000000 		.4byte	0x7b
 2351 007b 03       		.uleb128 0x3
 2352 007c 04       		.byte	0x4
 2353 007d 07       		.byte	0x7
ARM GAS  /tmp/ccIEcMfY.s 			page 43


 2354 007e 5A010000 		.4byte	.LASF9
 2355 0082 03       		.uleb128 0x3
 2356 0083 08       		.byte	0x8
 2357 0084 05       		.byte	0x5
 2358 0085 63000000 		.4byte	.LASF10
 2359 0089 04       		.uleb128 0x4
 2360 008a 0D000000 		.4byte	.LASF11
 2361 008e 02       		.byte	0x2
 2362 008f 78       		.byte	0x78
 2363 0090 94000000 		.4byte	0x94
 2364 0094 03       		.uleb128 0x3
 2365 0095 08       		.byte	0x8
 2366 0096 07       		.byte	0x7
 2367 0097 16000000 		.4byte	.LASF12
 2368 009b 04       		.uleb128 0x4
 2369 009c B7010000 		.4byte	.LASF13
 2370 00a0 03       		.byte	0x3
 2371 00a1 2F       		.byte	0x2f
 2372 00a2 3E000000 		.4byte	0x3e
 2373 00a6 04       		.uleb128 0x4
 2374 00a7 B0000000 		.4byte	.LASF14
 2375 00ab 03       		.byte	0x3
 2376 00ac 30       		.byte	0x30
 2377 00ad 3E000000 		.4byte	0x3e
 2378 00b1 04       		.uleb128 0x4
 2379 00b2 7B020000 		.4byte	.LASF15
 2380 00b6 03       		.byte	0x3
 2381 00b7 32       		.byte	0x32
 2382 00b8 70000000 		.4byte	0x70
 2383 00bc 04       		.uleb128 0x4
 2384 00bd 99010000 		.4byte	.LASF16
 2385 00c1 03       		.byte	0x3
 2386 00c2 33       		.byte	0x33
 2387 00c3 5E000000 		.4byte	0x5e
 2388 00c7 04       		.uleb128 0x4
 2389 00c8 1A010000 		.4byte	.LASF17
 2390 00cc 03       		.byte	0x3
 2391 00cd 34       		.byte	0x34
 2392 00ce 5E000000 		.4byte	0x5e
 2393 00d2 04       		.uleb128 0x4
 2394 00d3 CB010000 		.4byte	.LASF18
 2395 00d7 03       		.byte	0x3
 2396 00d8 35       		.byte	0x35
 2397 00d9 70000000 		.4byte	0x70
 2398 00dd 04       		.uleb128 0x4
 2399 00de 2A030000 		.4byte	.LASF19
 2400 00e2 03       		.byte	0x3
 2401 00e3 36       		.byte	0x36
 2402 00e4 70000000 		.4byte	0x70
 2403 00e8 04       		.uleb128 0x4
 2404 00e9 3C010000 		.4byte	.LASF20
 2405 00ed 03       		.byte	0x3
 2406 00ee 37       		.byte	0x37
 2407 00ef 5E000000 		.4byte	0x5e
 2408 00f3 04       		.uleb128 0x4
 2409 00f4 FB020000 		.4byte	.LASF21
 2410 00f8 04       		.byte	0x4
ARM GAS  /tmp/ccIEcMfY.s 			page 44


 2411 00f9 2A       		.byte	0x2a
 2412 00fa FE000000 		.4byte	0xfe
 2413 00fe 05       		.uleb128 0x5
 2414 00ff FB020000 		.4byte	.LASF21
 2415 0103 48       		.byte	0x48
 2416 0104 05       		.byte	0x5
 2417 0105 5E       		.byte	0x5e
 2418 0106 07020000 		.4byte	0x207
 2419 010a 06       		.uleb128 0x6
 2420 010b EC020000 		.4byte	.LASF22
 2421 010f 05       		.byte	0x5
 2422 0110 5F       		.byte	0x5f
 2423 0111 2C020000 		.4byte	0x22c
 2424 0115 02       		.byte	0x2
 2425 0116 23       		.byte	0x23
 2426 0117 00       		.uleb128 0x0
 2427 0118 06       		.uleb128 0x6
 2428 0119 74020000 		.4byte	.LASF23
 2429 011d 05       		.byte	0x5
 2430 011e 61       		.byte	0x61
 2431 011f 2C020000 		.4byte	0x22c
 2432 0123 02       		.byte	0x2
 2433 0124 23       		.byte	0x23
 2434 0125 04       		.uleb128 0x4
 2435 0126 06       		.uleb128 0x6
 2436 0127 5C000000 		.4byte	.LASF24
 2437 012b 05       		.byte	0x5
 2438 012c 63       		.byte	0x63
 2439 012d B1000000 		.4byte	0xb1
 2440 0131 02       		.byte	0x2
 2441 0132 23       		.byte	0x23
 2442 0133 08       		.uleb128 0x8
 2443 0134 06       		.uleb128 0x6
 2444 0135 F8030000 		.4byte	.LASF25
 2445 0139 05       		.byte	0x5
 2446 013a 64       		.byte	0x64
 2447 013b 04030000 		.4byte	0x304
 2448 013f 02       		.byte	0x2
 2449 0140 23       		.byte	0x23
 2450 0141 0C       		.uleb128 0xc
 2451 0142 06       		.uleb128 0x6
 2452 0143 E8000000 		.4byte	.LASF26
 2453 0147 05       		.byte	0x5
 2454 0148 66       		.byte	0x66
 2455 0149 2C020000 		.4byte	0x22c
 2456 014d 02       		.byte	0x2
 2457 014e 23       		.byte	0x23
 2458 014f 10       		.uleb128 0x10
 2459 0150 06       		.uleb128 0x6
 2460 0151 20020000 		.4byte	.LASF27
 2461 0155 05       		.byte	0x5
 2462 0156 67       		.byte	0x67
 2463 0157 2C020000 		.4byte	0x22c
 2464 015b 02       		.byte	0x2
 2465 015c 23       		.byte	0x23
 2466 015d 14       		.uleb128 0x14
 2467 015e 06       		.uleb128 0x6
ARM GAS  /tmp/ccIEcMfY.s 			page 45


 2468 015f DF030000 		.4byte	.LASF28
 2469 0163 05       		.byte	0x5
 2470 0164 6E       		.byte	0x6e
 2471 0165 AA040000 		.4byte	0x4aa
 2472 0169 02       		.byte	0x2
 2473 016a 23       		.byte	0x23
 2474 016b 18       		.uleb128 0x18
 2475 016c 06       		.uleb128 0x6
 2476 016d 42010000 		.4byte	.LASF29
 2477 0171 05       		.byte	0x5
 2478 0172 74       		.byte	0x74
 2479 0173 BC040000 		.4byte	0x4bc
 2480 0177 02       		.byte	0x2
 2481 0178 23       		.byte	0x23
 2482 0179 1C       		.uleb128 0x1c
 2483 017a 06       		.uleb128 0x6
 2484 017b D6020000 		.4byte	.LASF30
 2485 017f 05       		.byte	0x5
 2486 0180 79       		.byte	0x79
 2487 0181 A6000000 		.4byte	0xa6
 2488 0185 02       		.byte	0x2
 2489 0186 23       		.byte	0x23
 2490 0187 20       		.uleb128 0x20
 2491 0188 06       		.uleb128 0x6
 2492 0189 F3020000 		.4byte	.LASF31
 2493 018d 05       		.byte	0x5
 2494 018e 7D       		.byte	0x7d
 2495 018f 9B000000 		.4byte	0x9b
 2496 0193 02       		.byte	0x2
 2497 0194 23       		.byte	0x23
 2498 0195 21       		.uleb128 0x21
 2499 0196 06       		.uleb128 0x6
 2500 0197 3F030000 		.4byte	.LASF32
 2501 019b 05       		.byte	0x5
 2502 019c 89       		.byte	0x89
 2503 019d 27030000 		.4byte	0x327
 2504 01a1 02       		.byte	0x2
 2505 01a2 23       		.byte	0x23
 2506 01a3 24       		.uleb128 0x24
 2507 01a4 07       		.uleb128 0x7
 2508 01a5 705F7500 		.ascii	"p_u\000"
 2509 01a9 05       		.byte	0x5
 2510 01aa AE       		.byte	0xae
 2511 01ab 75040000 		.4byte	0x475
 2512 01af 02       		.byte	0x2
 2513 01b0 23       		.byte	0x23
 2514 01b1 28       		.uleb128 0x28
 2515 01b2 06       		.uleb128 0x6
 2516 01b3 FE030000 		.4byte	.LASF33
 2517 01b7 05       		.byte	0x5
 2518 01b8 B3       		.byte	0xb3
 2519 01b9 54020000 		.4byte	0x254
 2520 01bd 02       		.byte	0x2
 2521 01be 23       		.byte	0x23
 2522 01bf 2C       		.uleb128 0x2c
 2523 01c0 06       		.uleb128 0x6
 2524 01c1 4D030000 		.4byte	.LASF34
ARM GAS  /tmp/ccIEcMfY.s 			page 46


 2525 01c5 05       		.byte	0x5
 2526 01c6 B9       		.byte	0xb9
 2527 01c7 32020000 		.4byte	0x232
 2528 01cb 02       		.byte	0x2
 2529 01cc 23       		.byte	0x23
 2530 01cd 30       		.uleb128 0x30
 2531 01ce 06       		.uleb128 0x6
 2532 01cf 00000000 		.4byte	.LASF35
 2533 01d3 05       		.byte	0x5
 2534 01d4 BD       		.byte	0xbd
 2535 01d5 BC000000 		.4byte	0xbc
 2536 01d9 02       		.byte	0x2
 2537 01da 23       		.byte	0x23
 2538 01db 38       		.uleb128 0x38
 2539 01dc 06       		.uleb128 0x6
 2540 01dd 02030000 		.4byte	.LASF36
 2541 01e1 05       		.byte	0x5
 2542 01e2 C3       		.byte	0xc3
 2543 01e3 D2000000 		.4byte	0xd2
 2544 01e7 02       		.byte	0x2
 2545 01e8 23       		.byte	0x23
 2546 01e9 3C       		.uleb128 0x3c
 2547 01ea 06       		.uleb128 0x6
 2548 01eb C2020000 		.4byte	.LASF37
 2549 01ef 05       		.byte	0x5
 2550 01f0 CA       		.byte	0xca
 2551 01f1 C2040000 		.4byte	0x4c2
 2552 01f5 02       		.byte	0x2
 2553 01f6 23       		.byte	0x23
 2554 01f7 40       		.uleb128 0x40
 2555 01f8 06       		.uleb128 0x6
 2556 01f9 34030000 		.4byte	.LASF38
 2557 01fd 05       		.byte	0x5
 2558 01fe CE       		.byte	0xce
 2559 01ff B1000000 		.4byte	0xb1
 2560 0203 02       		.byte	0x2
 2561 0204 23       		.byte	0x23
 2562 0205 44       		.uleb128 0x44
 2563 0206 00       		.byte	0x0
 2564 0207 08       		.uleb128 0x8
 2565 0208 08       		.byte	0x8
 2566 0209 04       		.byte	0x4
 2567 020a 61       		.byte	0x61
 2568 020b 2C020000 		.4byte	0x22c
 2569 020f 06       		.uleb128 0x6
 2570 0210 EC020000 		.4byte	.LASF22
 2571 0214 04       		.byte	0x4
 2572 0215 62       		.byte	0x62
 2573 0216 2C020000 		.4byte	0x22c
 2574 021a 02       		.byte	0x2
 2575 021b 23       		.byte	0x23
 2576 021c 00       		.uleb128 0x0
 2577 021d 06       		.uleb128 0x6
 2578 021e 74020000 		.4byte	.LASF23
 2579 0222 04       		.byte	0x4
 2580 0223 64       		.byte	0x64
 2581 0224 2C020000 		.4byte	0x22c
ARM GAS  /tmp/ccIEcMfY.s 			page 47


 2582 0228 02       		.byte	0x2
 2583 0229 23       		.byte	0x23
 2584 022a 04       		.uleb128 0x4
 2585 022b 00       		.byte	0x0
 2586 022c 09       		.uleb128 0x9
 2587 022d 04       		.byte	0x4
 2588 022e F3000000 		.4byte	0xf3
 2589 0232 04       		.uleb128 0x4
 2590 0233 2E020000 		.4byte	.LASF39
 2591 0237 04       		.byte	0x4
 2592 0238 66       		.byte	0x66
 2593 0239 07020000 		.4byte	0x207
 2594 023d 08       		.uleb128 0x8
 2595 023e 04       		.byte	0x4
 2596 023f 04       		.byte	0x4
 2597 0240 6B       		.byte	0x6b
 2598 0241 54020000 		.4byte	0x254
 2599 0245 06       		.uleb128 0x6
 2600 0246 EC020000 		.4byte	.LASF22
 2601 024a 04       		.byte	0x4
 2602 024b 6D       		.byte	0x6d
 2603 024c 2C020000 		.4byte	0x22c
 2604 0250 02       		.byte	0x2
 2605 0251 23       		.byte	0x23
 2606 0252 00       		.uleb128 0x0
 2607 0253 00       		.byte	0x0
 2608 0254 04       		.uleb128 0x4
 2609 0255 BF010000 		.4byte	.LASF40
 2610 0259 04       		.byte	0x4
 2611 025a 70       		.byte	0x70
 2612 025b 3D020000 		.4byte	0x23d
 2613 025f 04       		.uleb128 0x4
 2614 0260 FD000000 		.4byte	.LASF41
 2615 0264 06       		.byte	0x6
 2616 0265 D7       		.byte	0xd7
 2617 0266 6A020000 		.4byte	0x26a
 2618 026a 0A       		.uleb128 0xa
 2619 026b 04       		.byte	0x4
 2620 026c 04       		.uleb128 0x4
 2621 026d DD010000 		.4byte	.LASF42
 2622 0271 06       		.byte	0x6
 2623 0272 DD       		.byte	0xdd
 2624 0273 89000000 		.4byte	0x89
 2625 0277 05       		.uleb128 0x5
 2626 0278 46030000 		.4byte	.LASF43
 2627 027c 24       		.byte	0x24
 2628 027d 06       		.byte	0x6
 2629 027e FE       		.byte	0xfe
 2630 027f 04030000 		.4byte	0x304
 2631 0283 0B       		.uleb128 0xb
 2632 0284 723400   		.ascii	"r4\000"
 2633 0287 06       		.byte	0x6
 2634 0288 1101     		.2byte	0x111
 2635 028a 5F020000 		.4byte	0x25f
 2636 028e 02       		.byte	0x2
 2637 028f 23       		.byte	0x23
 2638 0290 00       		.uleb128 0x0
ARM GAS  /tmp/ccIEcMfY.s 			page 48


 2639 0291 0B       		.uleb128 0xb
 2640 0292 723500   		.ascii	"r5\000"
 2641 0295 06       		.byte	0x6
 2642 0296 1201     		.2byte	0x112
 2643 0298 5F020000 		.4byte	0x25f
 2644 029c 02       		.byte	0x2
 2645 029d 23       		.byte	0x23
 2646 029e 04       		.uleb128 0x4
 2647 029f 0B       		.uleb128 0xb
 2648 02a0 723600   		.ascii	"r6\000"
 2649 02a3 06       		.byte	0x6
 2650 02a4 1301     		.2byte	0x113
 2651 02a6 5F020000 		.4byte	0x25f
 2652 02aa 02       		.byte	0x2
 2653 02ab 23       		.byte	0x23
 2654 02ac 08       		.uleb128 0x8
 2655 02ad 0B       		.uleb128 0xb
 2656 02ae 723700   		.ascii	"r7\000"
 2657 02b1 06       		.byte	0x6
 2658 02b2 1401     		.2byte	0x114
 2659 02b4 5F020000 		.4byte	0x25f
 2660 02b8 02       		.byte	0x2
 2661 02b9 23       		.byte	0x23
 2662 02ba 0C       		.uleb128 0xc
 2663 02bb 0B       		.uleb128 0xb
 2664 02bc 723800   		.ascii	"r8\000"
 2665 02bf 06       		.byte	0x6
 2666 02c0 1501     		.2byte	0x115
 2667 02c2 5F020000 		.4byte	0x25f
 2668 02c6 02       		.byte	0x2
 2669 02c7 23       		.byte	0x23
 2670 02c8 10       		.uleb128 0x10
 2671 02c9 0B       		.uleb128 0xb
 2672 02ca 723900   		.ascii	"r9\000"
 2673 02cd 06       		.byte	0x6
 2674 02ce 1601     		.2byte	0x116
 2675 02d0 5F020000 		.4byte	0x25f
 2676 02d4 02       		.byte	0x2
 2677 02d5 23       		.byte	0x23
 2678 02d6 14       		.uleb128 0x14
 2679 02d7 0B       		.uleb128 0xb
 2680 02d8 72313000 		.ascii	"r10\000"
 2681 02dc 06       		.byte	0x6
 2682 02dd 1701     		.2byte	0x117
 2683 02df 5F020000 		.4byte	0x25f
 2684 02e3 02       		.byte	0x2
 2685 02e4 23       		.byte	0x23
 2686 02e5 18       		.uleb128 0x18
 2687 02e6 0B       		.uleb128 0xb
 2688 02e7 72313100 		.ascii	"r11\000"
 2689 02eb 06       		.byte	0x6
 2690 02ec 1801     		.2byte	0x118
 2691 02ee 5F020000 		.4byte	0x25f
 2692 02f2 02       		.byte	0x2
 2693 02f3 23       		.byte	0x23
 2694 02f4 1C       		.uleb128 0x1c
 2695 02f5 0B       		.uleb128 0xb
ARM GAS  /tmp/ccIEcMfY.s 			page 49


 2696 02f6 6C7200   		.ascii	"lr\000"
 2697 02f9 06       		.byte	0x6
 2698 02fa 1901     		.2byte	0x119
 2699 02fc 5F020000 		.4byte	0x25f
 2700 0300 02       		.byte	0x2
 2701 0301 23       		.byte	0x23
 2702 0302 20       		.uleb128 0x20
 2703 0303 00       		.byte	0x0
 2704 0304 0C       		.uleb128 0xc
 2705 0305 6C010000 		.4byte	.LASF44
 2706 0309 04       		.byte	0x4
 2707 030a 06       		.byte	0x6
 2708 030b 2301     		.2byte	0x123
 2709 030d 21030000 		.4byte	0x321
 2710 0311 0B       		.uleb128 0xb
 2711 0312 72313300 		.ascii	"r13\000"
 2712 0316 06       		.byte	0x6
 2713 0317 2401     		.2byte	0x124
 2714 0319 21030000 		.4byte	0x321
 2715 031d 02       		.byte	0x2
 2716 031e 23       		.byte	0x23
 2717 031f 00       		.uleb128 0x0
 2718 0320 00       		.byte	0x0
 2719 0321 09       		.uleb128 0x9
 2720 0322 04       		.byte	0x4
 2721 0323 77020000 		.4byte	0x277
 2722 0327 0D       		.uleb128 0xd
 2723 0328 DD000000 		.4byte	0xdd
 2724 032c 08       		.uleb128 0x8
 2725 032d 20       		.byte	0x20
 2726 032e 07       		.byte	0x7
 2727 032f 5E       		.byte	0x5e
 2728 0330 97030000 		.4byte	0x397
 2729 0334 06       		.uleb128 0x6
 2730 0335 16030000 		.4byte	.LASF45
 2731 0339 07       		.byte	0x7
 2732 033a 5F       		.byte	0x5f
 2733 033b 32020000 		.4byte	0x232
 2734 033f 02       		.byte	0x2
 2735 0340 23       		.byte	0x23
 2736 0341 00       		.uleb128 0x0
 2737 0342 06       		.uleb128 0x6
 2738 0343 DE020000 		.4byte	.LASF46
 2739 0347 07       		.byte	0x7
 2740 0348 60       		.byte	0x60
 2741 0349 B1000000 		.4byte	0xb1
 2742 034d 02       		.byte	0x2
 2743 034e 23       		.byte	0x23
 2744 034f 08       		.uleb128 0x8
 2745 0350 06       		.uleb128 0x6
 2746 0351 28020000 		.4byte	.LASF47
 2747 0355 07       		.byte	0x7
 2748 0356 62       		.byte	0x62
 2749 0357 04030000 		.4byte	0x304
 2750 035b 02       		.byte	0x2
 2751 035c 23       		.byte	0x23
 2752 035d 0C       		.uleb128 0xc
ARM GAS  /tmp/ccIEcMfY.s 			page 50


 2753 035e 06       		.uleb128 0x6
 2754 035f F0000000 		.4byte	.LASF48
 2755 0363 07       		.byte	0x7
 2756 0364 65       		.byte	0x65
 2757 0365 2C020000 		.4byte	0x22c
 2758 0369 02       		.byte	0x2
 2759 036a 23       		.byte	0x23
 2760 036b 10       		.uleb128 0x10
 2761 036c 06       		.uleb128 0x6
 2762 036d 5B020000 		.4byte	.LASF49
 2763 0371 07       		.byte	0x7
 2764 0372 66       		.byte	0x66
 2765 0373 2C020000 		.4byte	0x22c
 2766 0377 02       		.byte	0x2
 2767 0378 23       		.byte	0x23
 2768 0379 14       		.uleb128 0x14
 2769 037a 06       		.uleb128 0x6
 2770 037b E6030000 		.4byte	.LASF50
 2771 037f 07       		.byte	0x7
 2772 0380 6A       		.byte	0x6a
 2773 0381 E8000000 		.4byte	0xe8
 2774 0385 02       		.byte	0x2
 2775 0386 23       		.byte	0x23
 2776 0387 18       		.uleb128 0x18
 2777 0388 06       		.uleb128 0x6
 2778 0389 51020000 		.4byte	.LASF51
 2779 038d 07       		.byte	0x7
 2780 038e 6C       		.byte	0x6c
 2781 038f 2C020000 		.4byte	0x22c
 2782 0393 02       		.byte	0x2
 2783 0394 23       		.byte	0x23
 2784 0395 1C       		.uleb128 0x1c
 2785 0396 00       		.byte	0x0
 2786 0397 04       		.uleb128 0x4
 2787 0398 60030000 		.4byte	.LASF52
 2788 039c 07       		.byte	0x7
 2789 039d 6E       		.byte	0x6e
 2790 039e 2C030000 		.4byte	0x32c
 2791 03a2 05       		.uleb128 0x5
 2792 03a3 D7010000 		.4byte	.LASF53
 2793 03a7 10       		.byte	0x10
 2794 03a8 08       		.byte	0x8
 2795 03a9 2C       		.byte	0x2c
 2796 03aa D9030000 		.4byte	0x3d9
 2797 03ae 06       		.uleb128 0x6
 2798 03af 91000000 		.4byte	.LASF54
 2799 03b3 08       		.byte	0x8
 2800 03b4 2D       		.byte	0x2d
 2801 03b5 32020000 		.4byte	0x232
 2802 03b9 02       		.byte	0x2
 2803 03ba 23       		.byte	0x23
 2804 03bb 00       		.uleb128 0x0
 2805 03bc 06       		.uleb128 0x6
 2806 03bd F0030000 		.4byte	.LASF55
 2807 03c1 08       		.byte	0x8
 2808 03c2 2F       		.byte	0x2f
 2809 03c3 2C020000 		.4byte	0x22c
ARM GAS  /tmp/ccIEcMfY.s 			page 51


 2810 03c7 02       		.byte	0x2
 2811 03c8 23       		.byte	0x23
 2812 03c9 08       		.uleb128 0x8
 2813 03ca 06       		.uleb128 0x6
 2814 03cb 23030000 		.4byte	.LASF56
 2815 03cf 08       		.byte	0x8
 2816 03d0 31       		.byte	0x31
 2817 03d1 D9030000 		.4byte	0x3d9
 2818 03d5 02       		.byte	0x2
 2819 03d6 23       		.byte	0x23
 2820 03d7 0C       		.uleb128 0xc
 2821 03d8 00       		.byte	0x0
 2822 03d9 09       		.uleb128 0x9
 2823 03da 04       		.byte	0x4
 2824 03db A2030000 		.4byte	0x3a2
 2825 03df 04       		.uleb128 0x4
 2826 03e0 D7010000 		.4byte	.LASF53
 2827 03e4 08       		.byte	0x8
 2828 03e5 33       		.byte	0x33
 2829 03e6 A2030000 		.4byte	0x3a2
 2830 03ea 04       		.uleb128 0x4
 2831 03eb AA030000 		.4byte	.LASF57
 2832 03ef 09       		.byte	0x9
 2833 03f0 29       		.byte	0x29
 2834 03f1 F5030000 		.4byte	0x3f5
 2835 03f5 05       		.uleb128 0x5
 2836 03f6 AA030000 		.4byte	.LASF57
 2837 03fa 0C       		.byte	0xc
 2838 03fb 09       		.byte	0x9
 2839 03fc 2E       		.byte	0x2e
 2840 03fd 2C040000 		.4byte	0x42c
 2841 0401 06       		.uleb128 0x6
 2842 0402 9F010000 		.4byte	.LASF58
 2843 0406 09       		.byte	0x9
 2844 0407 2F       		.byte	0x2f
 2845 0408 2C040000 		.4byte	0x42c
 2846 040c 02       		.byte	0x2
 2847 040d 23       		.byte	0x23
 2848 040e 00       		.uleb128 0x0
 2849 040f 06       		.uleb128 0x6
 2850 0410 B6020000 		.4byte	.LASF59
 2851 0414 09       		.byte	0x9
 2852 0415 32       		.byte	0x32
 2853 0416 2C020000 		.4byte	0x22c
 2854 041a 02       		.byte	0x2
 2855 041b 23       		.byte	0x23
 2856 041c 04       		.uleb128 0x4
 2857 041d 06       		.uleb128 0x6
 2858 041e 63020000 		.4byte	.LASF60
 2859 0422 09       		.byte	0x9
 2860 0423 34       		.byte	0x34
 2861 0424 D2000000 		.4byte	0xd2
 2862 0428 02       		.byte	0x2
 2863 0429 23       		.byte	0x23
 2864 042a 08       		.uleb128 0x8
 2865 042b 00       		.byte	0x0
 2866 042c 09       		.uleb128 0x9
ARM GAS  /tmp/ccIEcMfY.s 			page 52


 2867 042d 04       		.byte	0x4
 2868 042e EA030000 		.4byte	0x3ea
 2869 0432 05       		.uleb128 0x5
 2870 0433 24010000 		.4byte	.LASF61
 2871 0437 04       		.byte	0x4
 2872 0438 09       		.byte	0x9
 2873 0439 3C       		.byte	0x3c
 2874 043a 4D040000 		.4byte	0x44d
 2875 043e 06       		.uleb128 0x6
 2876 043f 58030000 		.4byte	.LASF62
 2877 0443 09       		.byte	0x9
 2878 0444 3D       		.byte	0x3d
 2879 0445 2C040000 		.4byte	0x42c
 2880 0449 02       		.byte	0x2
 2881 044a 23       		.byte	0x23
 2882 044b 00       		.uleb128 0x0
 2883 044c 00       		.byte	0x0
 2884 044d 04       		.uleb128 0x4
 2885 044e 24010000 		.4byte	.LASF61
 2886 0452 09       		.byte	0x9
 2887 0453 40       		.byte	0x40
 2888 0454 32040000 		.4byte	0x432
 2889 0458 04       		.uleb128 0x4
 2890 0459 30010000 		.4byte	.LASF63
 2891 045d 09       		.byte	0x9
 2892 045e 45       		.byte	0x45
 2893 045f 63040000 		.4byte	0x463
 2894 0463 09       		.uleb128 0x9
 2895 0464 04       		.byte	0x4
 2896 0465 69040000 		.4byte	0x469
 2897 0469 0E       		.uleb128 0xe
 2898 046a 01       		.byte	0x1
 2899 046b 75040000 		.4byte	0x475
 2900 046f 0F       		.uleb128 0xf
 2901 0470 C7000000 		.4byte	0xc7
 2902 0474 00       		.byte	0x0
 2903 0475 10       		.uleb128 0x10
 2904 0476 04       		.byte	0x4
 2905 0477 05       		.byte	0x5
 2906 0478 90       		.byte	0x90
 2907 0479 AA040000 		.4byte	0x4aa
 2908 047d 11       		.uleb128 0x11
 2909 047e 06000000 		.4byte	.LASF64
 2910 0482 05       		.byte	0x5
 2911 0483 97       		.byte	0x97
 2912 0484 BC000000 		.4byte	0xbc
 2913 0488 11       		.uleb128 0x11
 2914 0489 2D000000 		.4byte	.LASF65
 2915 048d 05       		.byte	0x5
 2916 048e 9E       		.byte	0x9e
 2917 048f BC000000 		.4byte	0xbc
 2918 0493 11       		.uleb128 0x11
 2919 0494 CC030000 		.4byte	.LASF66
 2920 0498 05       		.byte	0x5
 2921 0499 A5       		.byte	0xa5
 2922 049a 6A020000 		.4byte	0x26a
 2923 049e 11       		.uleb128 0x11
ARM GAS  /tmp/ccIEcMfY.s 			page 53


 2924 049f E5020000 		.4byte	.LASF67
 2925 04a3 05       		.byte	0x5
 2926 04a4 AC       		.byte	0xac
 2927 04a5 D2000000 		.4byte	0xd2
 2928 04a9 00       		.byte	0x0
 2929 04aa 09       		.uleb128 0x9
 2930 04ab 04       		.byte	0x4
 2931 04ac B0040000 		.4byte	0x4b0
 2932 04b0 12       		.uleb128 0x12
 2933 04b1 B5040000 		.4byte	0x4b5
 2934 04b5 03       		.uleb128 0x3
 2935 04b6 01       		.byte	0x1
 2936 04b7 08       		.byte	0x8
 2937 04b8 1E030000 		.4byte	.LASF68
 2938 04bc 09       		.uleb128 0x9
 2939 04bd 04       		.byte	0x4
 2940 04be 6C020000 		.4byte	0x26c
 2941 04c2 09       		.uleb128 0x9
 2942 04c3 04       		.byte	0x4
 2943 04c4 DF030000 		.4byte	0x3df
 2944 04c8 13       		.uleb128 0x13
 2945 04c9 01       		.byte	0x1
 2946 04ca 87010000 		.4byte	.LASF70
 2947 04ce 01       		.byte	0x1
 2948 04cf 52       		.byte	0x52
 2949 04d0 01       		.byte	0x1
 2950 04d1 00000000 		.4byte	.LFB7
 2951 04d5 40000000 		.4byte	.LFE7
 2952 04d9 00000000 		.4byte	.LLST0
 2953 04dd 45050000 		.4byte	0x545
 2954 04e1 14       		.uleb128 0x14
 2955 04e2 65737000 		.ascii	"esp\000"
 2956 04e6 01       		.byte	0x1
 2957 04e7 52       		.byte	0x52
 2958 04e8 45050000 		.4byte	0x545
 2959 04ec 20000000 		.4byte	.LLST1
 2960 04f0 14       		.uleb128 0x14
 2961 04f1 656C7000 		.ascii	"elp\000"
 2962 04f5 01       		.byte	0x1
 2963 04f6 52       		.byte	0x52
 2964 04f7 2C040000 		.4byte	0x42c
 2965 04fb 3E000000 		.4byte	.LLST2
 2966 04ff 15       		.uleb128 0x15
 2967 0500 F8000000 		.4byte	.LASF69
 2968 0504 01       		.byte	0x1
 2969 0505 52       		.byte	0x52
 2970 0506 D2000000 		.4byte	0xd2
 2971 050a 5C000000 		.4byte	.LLST3
 2972 050e 16       		.uleb128 0x16
 2973 050f 0C000000 		.4byte	.LBB2
 2974 0513 12000000 		.4byte	.LBE2
 2975 0517 2B050000 		.4byte	0x52b
 2976 051b 17       		.uleb128 0x17
 2977 051c 746D7000 		.ascii	"tmp\000"
 2978 0520 01       		.byte	0x1
 2979 0521 56       		.byte	0x56
 2980 0522 70000000 		.4byte	0x70
ARM GAS  /tmp/ccIEcMfY.s 			page 54


 2981 0526 7A000000 		.4byte	.LLST4
 2982 052a 00       		.byte	0x0
 2983 052b 18       		.uleb128 0x18
 2984 052c 28000000 		.4byte	.LBB3
 2985 0530 2E000000 		.4byte	.LBE3
 2986 0534 17       		.uleb128 0x17
 2987 0535 746D7000 		.ascii	"tmp\000"
 2988 0539 01       		.byte	0x1
 2989 053a 5B       		.byte	0x5b
 2990 053b 70000000 		.4byte	0x70
 2991 053f 8D000000 		.4byte	.LLST5
 2992 0543 00       		.byte	0x0
 2993 0544 00       		.byte	0x0
 2994 0545 09       		.uleb128 0x9
 2995 0546 04       		.byte	0x4
 2996 0547 4D040000 		.4byte	0x44d
 2997 054b 13       		.uleb128 0x13
 2998 054c 01       		.byte	0x1
 2999 054d A7010000 		.4byte	.LASF71
 3000 0551 01       		.byte	0x1
 3001 0552 6B       		.byte	0x6b
 3002 0553 01       		.byte	0x1
 3003 0554 00000000 		.4byte	.LFB8
 3004 0558 4C000000 		.4byte	.LFE8
 3005 055c A0000000 		.4byte	.LLST6
 3006 0560 C2050000 		.4byte	0x5c2
 3007 0564 14       		.uleb128 0x14
 3008 0565 65737000 		.ascii	"esp\000"
 3009 0569 01       		.byte	0x1
 3010 056a 6B       		.byte	0x6b
 3011 056b 45050000 		.4byte	0x545
 3012 056f C0000000 		.4byte	.LLST7
 3013 0573 14       		.uleb128 0x14
 3014 0574 656C7000 		.ascii	"elp\000"
 3015 0578 01       		.byte	0x1
 3016 0579 6B       		.byte	0x6b
 3017 057a 2C040000 		.4byte	0x42c
 3018 057e DE000000 		.4byte	.LLST8
 3019 0582 17       		.uleb128 0x17
 3020 0583 7000     		.ascii	"p\000"
 3021 0585 01       		.byte	0x1
 3022 0586 6C       		.byte	0x6c
 3023 0587 2C040000 		.4byte	0x42c
 3024 058b FC000000 		.4byte	.LLST9
 3025 058f 16       		.uleb128 0x16
 3026 0590 0A000000 		.4byte	.LBB4
 3027 0594 10000000 		.4byte	.LBE4
 3028 0598 AC050000 		.4byte	0x5ac
 3029 059c 17       		.uleb128 0x17
 3030 059d 746D7000 		.ascii	"tmp\000"
 3031 05a1 01       		.byte	0x1
 3032 05a2 71       		.byte	0x71
 3033 05a3 70000000 		.4byte	0x70
 3034 05a7 30010000 		.4byte	.LLST10
 3035 05ab 00       		.byte	0x0
 3036 05ac 19       		.uleb128 0x19
 3037 05ad 00000000 		.4byte	.Ldebug_ranges0+0x0
ARM GAS  /tmp/ccIEcMfY.s 			page 55


 3038 05b1 17       		.uleb128 0x17
 3039 05b2 746D7000 		.ascii	"tmp\000"
 3040 05b6 01       		.byte	0x1
 3041 05b7 79       		.byte	0x79
 3042 05b8 70000000 		.4byte	0x70
 3043 05bc 43010000 		.4byte	.LLST11
 3044 05c0 00       		.byte	0x0
 3045 05c1 00       		.byte	0x0
 3046 05c2 1A       		.uleb128 0x1a
 3047 05c3 01       		.byte	0x1
 3048 05c4 83020000 		.4byte	.LASF72
 3049 05c8 01       		.byte	0x1
 3050 05c9 84       		.byte	0x84
 3051 05ca 01       		.byte	0x1
 3052 05cb D2000000 		.4byte	0xd2
 3053 05cf 00000000 		.4byte	.LFB9
 3054 05d3 30000000 		.4byte	.LFE9
 3055 05d7 61010000 		.4byte	.LLST12
 3056 05db 35060000 		.4byte	0x635
 3057 05df 15       		.uleb128 0x15
 3058 05e0 F8000000 		.4byte	.LASF69
 3059 05e4 01       		.byte	0x1
 3060 05e5 84       		.byte	0x84
 3061 05e6 D2000000 		.4byte	0xd2
 3062 05ea 81010000 		.4byte	.LLST13
 3063 05ee 1B       		.uleb128 0x1b
 3064 05ef 6D00     		.ascii	"m\000"
 3065 05f1 01       		.byte	0x1
 3066 05f2 85       		.byte	0x85
 3067 05f3 D2000000 		.4byte	0xd2
 3068 05f7 06       		.byte	0x6
 3069 05f8 75       		.byte	0x75
 3070 05f9 00       		.sleb128 0
 3071 05fa 74       		.byte	0x74
 3072 05fb 00       		.sleb128 0
 3073 05fc 1A       		.byte	0x1a
 3074 05fd 9F       		.byte	0x9f
 3075 05fe 16       		.uleb128 0x16
 3076 05ff 04000000 		.4byte	.LBB7
 3077 0603 0A000000 		.4byte	.LBE7
 3078 0607 1B060000 		.4byte	0x61b
 3079 060b 17       		.uleb128 0x17
 3080 060c 746D7000 		.ascii	"tmp\000"
 3081 0610 01       		.byte	0x1
 3082 0611 87       		.byte	0x87
 3083 0612 70000000 		.4byte	0x70
 3084 0616 9F010000 		.4byte	.LLST14
 3085 061a 00       		.byte	0x0
 3086 061b 18       		.uleb128 0x18
 3087 061c 1E000000 		.4byte	.LBB8
 3088 0620 24000000 		.4byte	.LBE8
 3089 0624 17       		.uleb128 0x17
 3090 0625 746D7000 		.ascii	"tmp\000"
 3091 0629 01       		.byte	0x1
 3092 062a 8C       		.byte	0x8c
 3093 062b 70000000 		.4byte	0x70
 3094 062f B2010000 		.4byte	.LLST15
ARM GAS  /tmp/ccIEcMfY.s 			page 56


 3095 0633 00       		.byte	0x0
 3096 0634 00       		.byte	0x0
 3097 0635 1A       		.uleb128 0x1a
 3098 0636 01       		.byte	0x1
 3099 0637 99000000 		.4byte	.LASF73
 3100 063b 01       		.byte	0x1
 3101 063c 99       		.byte	0x99
 3102 063d 01       		.byte	0x1
 3103 063e D2000000 		.4byte	0xd2
 3104 0642 00000000 		.4byte	.LFB10
 3105 0646 2C000000 		.4byte	.LFE10
 3106 064a C5010000 		.4byte	.LLST16
 3107 064e 94060000 		.4byte	0x694
 3108 0652 15       		.uleb128 0x15
 3109 0653 F8000000 		.4byte	.LASF69
 3110 0657 01       		.byte	0x1
 3111 0658 99       		.byte	0x99
 3112 0659 D2000000 		.4byte	0xd2
 3113 065d E5010000 		.4byte	.LLST17
 3114 0661 1C       		.uleb128 0x1c
 3115 0662 18000000 		.4byte	.Ldebug_ranges0+0x18
 3116 0666 7A060000 		.4byte	0x67a
 3117 066a 17       		.uleb128 0x17
 3118 066b 746D7000 		.ascii	"tmp\000"
 3119 066f 01       		.byte	0x1
 3120 0670 9B       		.byte	0x9b
 3121 0671 70000000 		.4byte	0x70
 3122 0675 0E020000 		.4byte	.LLST18
 3123 0679 00       		.byte	0x0
 3124 067a 18       		.uleb128 0x18
 3125 067b 1C000000 		.4byte	.LBB11
 3126 067f 22000000 		.4byte	.LBE11
 3127 0683 17       		.uleb128 0x17
 3128 0684 746D7000 		.ascii	"tmp\000"
 3129 0688 01       		.byte	0x1
 3130 0689 9F       		.byte	0x9f
 3131 068a 70000000 		.4byte	0x70
 3132 068e 21020000 		.4byte	.LLST19
 3133 0692 00       		.byte	0x0
 3134 0693 00       		.byte	0x0
 3135 0694 13       		.uleb128 0x13
 3136 0695 01       		.byte	0x1
 3137 0696 36000000 		.4byte	.LASF74
 3138 069a 01       		.byte	0x1
 3139 069b C1       		.byte	0xc1
 3140 069c 01       		.byte	0x1
 3141 069d 00000000 		.4byte	.LFB12
 3142 06a1 48000000 		.4byte	.LFE12
 3143 06a5 34020000 		.4byte	.LLST20
 3144 06a9 CB060000 		.4byte	0x6cb
 3145 06ad 14       		.uleb128 0x14
 3146 06ae 747000   		.ascii	"tp\000"
 3147 06b1 01       		.byte	0x1
 3148 06b2 C1       		.byte	0xc1
 3149 06b3 2C020000 		.4byte	0x22c
 3150 06b7 54020000 		.4byte	.LLST21
 3151 06bb 15       		.uleb128 0x15
ARM GAS  /tmp/ccIEcMfY.s 			page 57


 3152 06bc F8000000 		.4byte	.LASF69
 3153 06c0 01       		.byte	0x1
 3154 06c1 C1       		.byte	0xc1
 3155 06c2 D2000000 		.4byte	0xd2
 3156 06c6 72020000 		.4byte	.LLST22
 3157 06ca 00       		.byte	0x0
 3158 06cb 13       		.uleb128 0x13
 3159 06cc 01       		.byte	0x1
 3160 06cd 40020000 		.4byte	.LASF75
 3161 06d1 01       		.byte	0x1
 3162 06d2 AB       		.byte	0xab
 3163 06d3 01       		.byte	0x1
 3164 06d4 00000000 		.4byte	.LFB11
 3165 06d8 38000000 		.4byte	.LFE11
 3166 06dc 9B020000 		.4byte	.LLST23
 3167 06e0 38070000 		.4byte	0x738
 3168 06e4 14       		.uleb128 0x14
 3169 06e5 747000   		.ascii	"tp\000"
 3170 06e8 01       		.byte	0x1
 3171 06e9 AB       		.byte	0xab
 3172 06ea 2C020000 		.4byte	0x22c
 3173 06ee BB020000 		.4byte	.LLST24
 3174 06f2 15       		.uleb128 0x15
 3175 06f3 F8000000 		.4byte	.LASF69
 3176 06f7 01       		.byte	0x1
 3177 06f8 AB       		.byte	0xab
 3178 06f9 D2000000 		.4byte	0xd2
 3179 06fd D9020000 		.4byte	.LLST25
 3180 0701 16       		.uleb128 0x16
 3181 0702 08000000 		.4byte	.LBB12
 3182 0706 0E000000 		.4byte	.LBE12
 3183 070a 1E070000 		.4byte	0x71e
 3184 070e 17       		.uleb128 0x17
 3185 070f 746D7000 		.ascii	"tmp\000"
 3186 0713 01       		.byte	0x1
 3187 0714 AF       		.byte	0xaf
 3188 0715 70000000 		.4byte	0x70
 3189 0719 F7020000 		.4byte	.LLST26
 3190 071d 00       		.byte	0x0
 3191 071e 18       		.uleb128 0x18
 3192 071f 22000000 		.4byte	.LBB13
 3193 0723 28000000 		.4byte	.LBE13
 3194 0727 17       		.uleb128 0x17
 3195 0728 746D7000 		.ascii	"tmp\000"
 3196 072c 01       		.byte	0x1
 3197 072d B2       		.byte	0xb2
 3198 072e 70000000 		.4byte	0x70
 3199 0732 0A030000 		.4byte	.LLST27
 3200 0736 00       		.byte	0x0
 3201 0737 00       		.byte	0x0
 3202 0738 13       		.uleb128 0x13
 3203 0739 01       		.byte	0x1
 3204 073a D3000000 		.4byte	.LASF76
 3205 073e 01       		.byte	0x1
 3206 073f F5       		.byte	0xf5
 3207 0740 01       		.byte	0x1
 3208 0741 00000000 		.4byte	.LFB14
ARM GAS  /tmp/ccIEcMfY.s 			page 58


 3209 0745 34000000 		.4byte	.LFE14
 3210 0749 1D030000 		.4byte	.LLST28
 3211 074d 7F070000 		.4byte	0x77f
 3212 0751 14       		.uleb128 0x14
 3213 0752 65737000 		.ascii	"esp\000"
 3214 0756 01       		.byte	0x1
 3215 0757 F5       		.byte	0xf5
 3216 0758 45050000 		.4byte	0x545
 3217 075c 3D030000 		.4byte	.LLST29
 3218 0760 15       		.uleb128 0x15
 3219 0761 F8000000 		.4byte	.LASF69
 3220 0765 01       		.byte	0x1
 3221 0766 F5       		.byte	0xf5
 3222 0767 D2000000 		.4byte	0xd2
 3223 076b 5B030000 		.4byte	.LLST30
 3224 076f 17       		.uleb128 0x17
 3225 0770 656C7000 		.ascii	"elp\000"
 3226 0774 01       		.byte	0x1
 3227 0775 F6       		.byte	0xf6
 3228 0776 2C040000 		.4byte	0x42c
 3229 077a 79030000 		.4byte	.LLST31
 3230 077e 00       		.byte	0x0
 3231 077f 13       		.uleb128 0x13
 3232 0780 01       		.byte	0x1
 3233 0781 06010000 		.4byte	.LASF77
 3234 0785 01       		.byte	0x1
 3235 0786 DC       		.byte	0xdc
 3236 0787 01       		.byte	0x1
 3237 0788 00000000 		.4byte	.LFB13
 3238 078c 28000000 		.4byte	.LFE13
 3239 0790 A3030000 		.4byte	.LLST32
 3240 0794 ED070000 		.4byte	0x7ed
 3241 0798 14       		.uleb128 0x14
 3242 0799 65737000 		.ascii	"esp\000"
 3243 079d 01       		.byte	0x1
 3244 079e DC       		.byte	0xdc
 3245 079f 45050000 		.4byte	0x545
 3246 07a3 C3030000 		.4byte	.LLST33
 3247 07a7 15       		.uleb128 0x15
 3248 07a8 F8000000 		.4byte	.LASF69
 3249 07ac 01       		.byte	0x1
 3250 07ad DC       		.byte	0xdc
 3251 07ae D2000000 		.4byte	0xd2
 3252 07b2 E1030000 		.4byte	.LLST34
 3253 07b6 16       		.uleb128 0x16
 3254 07b7 06000000 		.4byte	.LBB14
 3255 07bb 0C000000 		.4byte	.LBE14
 3256 07bf D3070000 		.4byte	0x7d3
 3257 07c3 17       		.uleb128 0x17
 3258 07c4 746D7000 		.ascii	"tmp\000"
 3259 07c8 01       		.byte	0x1
 3260 07c9 DE       		.byte	0xde
 3261 07ca 70000000 		.4byte	0x70
 3262 07ce FF030000 		.4byte	.LLST35
 3263 07d2 00       		.byte	0x0
 3264 07d3 18       		.uleb128 0x18
 3265 07d4 20000000 		.4byte	.LBB15
ARM GAS  /tmp/ccIEcMfY.s 			page 59


 3266 07d8 26000000 		.4byte	.LBE15
 3267 07dc 17       		.uleb128 0x17
 3268 07dd 746D7000 		.ascii	"tmp\000"
 3269 07e1 01       		.byte	0x1
 3270 07e2 E1       		.byte	0xe1
 3271 07e3 70000000 		.4byte	0x70
 3272 07e7 12040000 		.4byte	.LLST36
 3273 07eb 00       		.byte	0x0
 3274 07ec 00       		.byte	0x0
 3275 07ed 1D       		.uleb128 0x1d
 3276 07ee 01       		.byte	0x1
 3277 07ef 12020000 		.4byte	.LASF78
 3278 07f3 01       		.byte	0x1
 3279 07f4 0B01     		.2byte	0x10b
 3280 07f6 01       		.byte	0x1
 3281 07f7 00000000 		.4byte	.LFB15
 3282 07fb 50000000 		.4byte	.LFE15
 3283 07ff 25040000 		.4byte	.LLST37
 3284 0803 38080000 		.4byte	0x838
 3285 0807 1E       		.uleb128 0x1e
 3286 0808 6B020000 		.4byte	.LASF79
 3287 080c 01       		.byte	0x1
 3288 080d 0B01     		.2byte	0x10b
 3289 080f 38080000 		.4byte	0x838
 3290 0813 45040000 		.4byte	.LLST38
 3291 0817 1E       		.uleb128 0x1e
 3292 0818 F8000000 		.4byte	.LASF69
 3293 081c 01       		.byte	0x1
 3294 081d 0B01     		.2byte	0x10b
 3295 081f D2000000 		.4byte	0xd2
 3296 0823 63040000 		.4byte	.LLST39
 3297 0827 1F       		.uleb128 0x1f
 3298 0828 65696400 		.ascii	"eid\000"
 3299 082c 01       		.byte	0x1
 3300 082d 0C01     		.2byte	0x10c
 3301 082f C7000000 		.4byte	0xc7
 3302 0833 A2040000 		.4byte	.LLST40
 3303 0837 00       		.byte	0x0
 3304 0838 09       		.uleb128 0x9
 3305 0839 04       		.byte	0x4
 3306 083a 3E080000 		.4byte	0x83e
 3307 083e 12       		.uleb128 0x12
 3308 083f 58040000 		.4byte	0x458
 3309 0843 20       		.uleb128 0x20
 3310 0844 01       		.byte	0x1
 3311 0845 A9020000 		.4byte	.LASF80
 3312 0849 01       		.byte	0x1
 3313 084a 2E01     		.2byte	0x12e
 3314 084c 01       		.byte	0x1
 3315 084d D2000000 		.4byte	0xd2
 3316 0851 00000000 		.4byte	.LFB16
 3317 0855 44000000 		.4byte	.LFE16
 3318 0859 CE040000 		.4byte	.LLST41
 3319 085d C8080000 		.4byte	0x8c8
 3320 0861 1E       		.uleb128 0x1e
 3321 0862 F8000000 		.4byte	.LASF69
 3322 0866 01       		.byte	0x1
ARM GAS  /tmp/ccIEcMfY.s 			page 60


 3323 0867 2E01     		.2byte	0x12e
 3324 0869 D2000000 		.4byte	0xd2
 3325 086d EE040000 		.4byte	.LLST42
 3326 0871 1F       		.uleb128 0x1f
 3327 0872 63747000 		.ascii	"ctp\000"
 3328 0876 01       		.byte	0x1
 3329 0877 2F01     		.2byte	0x12f
 3330 0879 2C020000 		.4byte	0x22c
 3331 087d 0C050000 		.4byte	.LLST43
 3332 0881 1F       		.uleb128 0x1f
 3333 0882 6D00     		.ascii	"m\000"
 3334 0884 01       		.byte	0x1
 3335 0885 3001     		.2byte	0x130
 3336 0887 D2000000 		.4byte	0xd2
 3337 088b 2B050000 		.4byte	.LLST44
 3338 088f 16       		.uleb128 0x16
 3339 0890 08000000 		.4byte	.LBB16
 3340 0894 0E000000 		.4byte	.LBE16
 3341 0898 AD080000 		.4byte	0x8ad
 3342 089c 1F       		.uleb128 0x1f
 3343 089d 746D7000 		.ascii	"tmp\000"
 3344 08a1 01       		.byte	0x1
 3345 08a2 3201     		.2byte	0x132
 3346 08a4 70000000 		.4byte	0x70
 3347 08a8 5A050000 		.4byte	.LLST45
 3348 08ac 00       		.byte	0x0
 3349 08ad 18       		.uleb128 0x18
 3350 08ae 36000000 		.4byte	.LBB17
 3351 08b2 3C000000 		.4byte	.LBE17
 3352 08b6 1F       		.uleb128 0x1f
 3353 08b7 746D7000 		.ascii	"tmp\000"
 3354 08bb 01       		.byte	0x1
 3355 08bc 3C01     		.2byte	0x13c
 3356 08be 70000000 		.4byte	0x70
 3357 08c2 6D050000 		.4byte	.LLST46
 3358 08c6 00       		.byte	0x0
 3359 08c7 00       		.byte	0x0
 3360 08c8 20       		.uleb128 0x20
 3361 08c9 01       		.byte	0x1
 3362 08ca C6000000 		.4byte	.LASF81
 3363 08ce 01       		.byte	0x1
 3364 08cf 4B01     		.2byte	0x14b
 3365 08d1 01       		.byte	0x1
 3366 08d2 D2000000 		.4byte	0xd2
 3367 08d6 00000000 		.4byte	.LFB17
 3368 08da 40000000 		.4byte	.LFE17
 3369 08de 80050000 		.4byte	.LLST47
 3370 08e2 4D090000 		.4byte	0x94d
 3371 08e6 1E       		.uleb128 0x1e
 3372 08e7 F8000000 		.4byte	.LASF69
 3373 08eb 01       		.byte	0x1
 3374 08ec 4B01     		.2byte	0x14b
 3375 08ee D2000000 		.4byte	0xd2
 3376 08f2 A0050000 		.4byte	.LLST48
 3377 08f6 1F       		.uleb128 0x1f
 3378 08f7 63747000 		.ascii	"ctp\000"
 3379 08fb 01       		.byte	0x1
ARM GAS  /tmp/ccIEcMfY.s 			page 61


 3380 08fc 4C01     		.2byte	0x14c
 3381 08fe 2C020000 		.4byte	0x22c
 3382 0902 BE050000 		.4byte	.LLST49
 3383 0906 1F       		.uleb128 0x1f
 3384 0907 6D00     		.ascii	"m\000"
 3385 0909 01       		.byte	0x1
 3386 090a 4D01     		.2byte	0x14d
 3387 090c D2000000 		.4byte	0xd2
 3388 0910 DD050000 		.4byte	.LLST50
 3389 0914 16       		.uleb128 0x16
 3390 0915 08000000 		.4byte	.LBB18
 3391 0919 0E000000 		.4byte	.LBE18
 3392 091d 32090000 		.4byte	0x932
 3393 0921 1F       		.uleb128 0x1f
 3394 0922 746D7000 		.ascii	"tmp\000"
 3395 0926 01       		.byte	0x1
 3396 0927 4F01     		.2byte	0x14f
 3397 0929 70000000 		.4byte	0x70
 3398 092d 0C060000 		.4byte	.LLST51
 3399 0931 00       		.byte	0x0
 3400 0932 18       		.uleb128 0x18
 3401 0933 32000000 		.4byte	.LBB19
 3402 0937 38000000 		.4byte	.LBE19
 3403 093b 1F       		.uleb128 0x1f
 3404 093c 746D7000 		.ascii	"tmp\000"
 3405 0940 01       		.byte	0x1
 3406 0941 5801     		.2byte	0x158
 3407 0943 70000000 		.4byte	0x70
 3408 0947 1F060000 		.4byte	.LLST52
 3409 094b 00       		.byte	0x0
 3410 094c 00       		.byte	0x0
 3411 094d 20       		.uleb128 0x20
 3412 094e 01       		.byte	0x1
 3413 094f B9000000 		.4byte	.LASF82
 3414 0953 01       		.byte	0x1
 3415 0954 6701     		.2byte	0x167
 3416 0956 01       		.byte	0x1
 3417 0957 D2000000 		.4byte	0xd2
 3418 095b 00000000 		.4byte	.LFB18
 3419 095f 40000000 		.4byte	.LFE18
 3420 0963 32060000 		.4byte	.LLST53
 3421 0967 C4090000 		.4byte	0x9c4
 3422 096b 1E       		.uleb128 0x1e
 3423 096c F8000000 		.4byte	.LASF69
 3424 0970 01       		.byte	0x1
 3425 0971 6701     		.2byte	0x167
 3426 0973 D2000000 		.4byte	0xd2
 3427 0977 52060000 		.4byte	.LLST54
 3428 097b 1F       		.uleb128 0x1f
 3429 097c 63747000 		.ascii	"ctp\000"
 3430 0980 01       		.byte	0x1
 3431 0981 6801     		.2byte	0x168
 3432 0983 2C020000 		.4byte	0x22c
 3433 0987 70060000 		.4byte	.LLST55
 3434 098b 16       		.uleb128 0x16
 3435 098c 08000000 		.4byte	.LBB20
 3436 0990 0E000000 		.4byte	.LBE20
ARM GAS  /tmp/ccIEcMfY.s 			page 62


 3437 0994 A9090000 		.4byte	0x9a9
 3438 0998 1F       		.uleb128 0x1f
 3439 0999 746D7000 		.ascii	"tmp\000"
 3440 099d 01       		.byte	0x1
 3441 099e 6A01     		.2byte	0x16a
 3442 09a0 70000000 		.4byte	0x70
 3443 09a4 8F060000 		.4byte	.LLST56
 3444 09a8 00       		.byte	0x0
 3445 09a9 18       		.uleb128 0x18
 3446 09aa 30000000 		.4byte	.LBB21
 3447 09ae 36000000 		.4byte	.LBE21
 3448 09b2 1F       		.uleb128 0x1f
 3449 09b3 746D7000 		.ascii	"tmp\000"
 3450 09b7 01       		.byte	0x1
 3451 09b8 7201     		.2byte	0x172
 3452 09ba 70000000 		.4byte	0x70
 3453 09be A2060000 		.4byte	.LLST57
 3454 09c2 00       		.byte	0x0
 3455 09c3 00       		.byte	0x0
 3456 09c4 20       		.uleb128 0x20
 3457 09c5 01       		.byte	0x1
 3458 09c6 B8030000 		.4byte	.LASF83
 3459 09ca 01       		.byte	0x1
 3460 09cb 8E01     		.2byte	0x18e
 3461 09cd 01       		.byte	0x1
 3462 09ce D2000000 		.4byte	0xd2
 3463 09d2 00000000 		.4byte	.LFB19
 3464 09d6 68000000 		.4byte	.LFE19
 3465 09da B5060000 		.4byte	.LLST58
 3466 09de 950A0000 		.4byte	0xa95
 3467 09e2 1E       		.uleb128 0x1e
 3468 09e3 F8000000 		.4byte	.LASF69
 3469 09e7 01       		.byte	0x1
 3470 09e8 8E01     		.2byte	0x18e
 3471 09ea D2000000 		.4byte	0xd2
 3472 09ee D5060000 		.4byte	.LLST59
 3473 09f2 1E       		.uleb128 0x1e
 3474 09f3 3B020000 		.4byte	.LASF84
 3475 09f7 01       		.byte	0x1
 3476 09f8 8E01     		.2byte	0x18e
 3477 09fa DD000000 		.4byte	0xdd
 3478 09fe F3060000 		.4byte	.LLST60
 3479 0a02 1F       		.uleb128 0x1f
 3480 0a03 63747000 		.ascii	"ctp\000"
 3481 0a07 01       		.byte	0x1
 3482 0a08 8F01     		.2byte	0x18f
 3483 0a0a 2C020000 		.4byte	0x22c
 3484 0a0e 11070000 		.4byte	.LLST61
 3485 0a12 1F       		.uleb128 0x1f
 3486 0a13 6D00     		.ascii	"m\000"
 3487 0a15 01       		.byte	0x1
 3488 0a16 9001     		.2byte	0x190
 3489 0a18 D2000000 		.4byte	0xd2
 3490 0a1c 30070000 		.4byte	.LLST62
 3491 0a20 16       		.uleb128 0x16
 3492 0a21 0A000000 		.4byte	.LBB22
 3493 0a25 10000000 		.4byte	.LBE22
ARM GAS  /tmp/ccIEcMfY.s 			page 63


 3494 0a29 3E0A0000 		.4byte	0xa3e
 3495 0a2d 1F       		.uleb128 0x1f
 3496 0a2e 746D7000 		.ascii	"tmp\000"
 3497 0a32 01       		.byte	0x1
 3498 0a33 9201     		.2byte	0x192
 3499 0a35 70000000 		.4byte	0x70
 3500 0a39 6A070000 		.4byte	.LLST63
 3501 0a3d 00       		.byte	0x0
 3502 0a3e 16       		.uleb128 0x16
 3503 0a3f 40000000 		.4byte	.LBB23
 3504 0a43 46000000 		.4byte	.LBE23
 3505 0a47 5C0A0000 		.4byte	0xa5c
 3506 0a4b 1F       		.uleb128 0x1f
 3507 0a4c 746D7000 		.ascii	"tmp\000"
 3508 0a50 01       		.byte	0x1
 3509 0a51 A301     		.2byte	0x1a3
 3510 0a53 70000000 		.4byte	0x70
 3511 0a57 7D070000 		.4byte	.LLST64
 3512 0a5b 00       		.byte	0x0
 3513 0a5c 16       		.uleb128 0x16
 3514 0a5d 4E000000 		.4byte	.LBB24
 3515 0a61 54000000 		.4byte	.LBE24
 3516 0a65 7A0A0000 		.4byte	0xa7a
 3517 0a69 1F       		.uleb128 0x1f
 3518 0a6a 746D7000 		.ascii	"tmp\000"
 3519 0a6e 01       		.byte	0x1
 3520 0a6f 9601     		.2byte	0x196
 3521 0a71 70000000 		.4byte	0x70
 3522 0a75 90070000 		.4byte	.LLST65
 3523 0a79 00       		.byte	0x0
 3524 0a7a 18       		.uleb128 0x18
 3525 0a7b 5C000000 		.4byte	.LBB25
 3526 0a7f 62000000 		.4byte	.LBE25
 3527 0a83 1F       		.uleb128 0x1f
 3528 0a84 746D7000 		.ascii	"tmp\000"
 3529 0a88 01       		.byte	0x1
 3530 0a89 9B01     		.2byte	0x19b
 3531 0a8b 70000000 		.4byte	0x70
 3532 0a8f A3070000 		.4byte	.LLST66
 3533 0a93 00       		.byte	0x0
 3534 0a94 00       		.byte	0x0
 3535 0a95 20       		.uleb128 0x20
 3536 0a96 01       		.byte	0x1
 3537 0a97 48000000 		.4byte	.LASF85
 3538 0a9b 01       		.byte	0x1
 3539 0a9c B901     		.2byte	0x1b9
 3540 0a9e 01       		.byte	0x1
 3541 0a9f D2000000 		.4byte	0xd2
 3542 0aa3 00000000 		.4byte	.LFB20
 3543 0aa7 64000000 		.4byte	.LFE20
 3544 0aab C1070000 		.4byte	.LLST67
 3545 0aaf 660B0000 		.4byte	0xb66
 3546 0ab3 1E       		.uleb128 0x1e
 3547 0ab4 F8000000 		.4byte	.LASF69
 3548 0ab8 01       		.byte	0x1
 3549 0ab9 B901     		.2byte	0x1b9
 3550 0abb D2000000 		.4byte	0xd2
ARM GAS  /tmp/ccIEcMfY.s 			page 64


 3551 0abf E1070000 		.4byte	.LLST68
 3552 0ac3 1E       		.uleb128 0x1e
 3553 0ac4 3B020000 		.4byte	.LASF84
 3554 0ac8 01       		.byte	0x1
 3555 0ac9 B901     		.2byte	0x1b9
 3556 0acb DD000000 		.4byte	0xdd
 3557 0acf FF070000 		.4byte	.LLST69
 3558 0ad3 1F       		.uleb128 0x1f
 3559 0ad4 63747000 		.ascii	"ctp\000"
 3560 0ad8 01       		.byte	0x1
 3561 0ad9 BA01     		.2byte	0x1ba
 3562 0adb 2C020000 		.4byte	0x22c
 3563 0adf 1D080000 		.4byte	.LLST70
 3564 0ae3 1F       		.uleb128 0x1f
 3565 0ae4 6D00     		.ascii	"m\000"
 3566 0ae6 01       		.byte	0x1
 3567 0ae7 BB01     		.2byte	0x1bb
 3568 0ae9 D2000000 		.4byte	0xd2
 3569 0aed 3C080000 		.4byte	.LLST71
 3570 0af1 16       		.uleb128 0x16
 3571 0af2 0A000000 		.4byte	.LBB26
 3572 0af6 10000000 		.4byte	.LBE26
 3573 0afa 0F0B0000 		.4byte	0xb0f
 3574 0afe 1F       		.uleb128 0x1f
 3575 0aff 746D7000 		.ascii	"tmp\000"
 3576 0b03 01       		.byte	0x1
 3577 0b04 BD01     		.2byte	0x1bd
 3578 0b06 70000000 		.4byte	0x70
 3579 0b0a 6B080000 		.4byte	.LLST72
 3580 0b0e 00       		.byte	0x0
 3581 0b0f 16       		.uleb128 0x16
 3582 0b10 3C000000 		.4byte	.LBB27
 3583 0b14 42000000 		.4byte	.LBE27
 3584 0b18 2D0B0000 		.4byte	0xb2d
 3585 0b1c 1F       		.uleb128 0x1f
 3586 0b1d 746D7000 		.ascii	"tmp\000"
 3587 0b21 01       		.byte	0x1
 3588 0b22 CD01     		.2byte	0x1cd
 3589 0b24 70000000 		.4byte	0x70
 3590 0b28 7E080000 		.4byte	.LLST73
 3591 0b2c 00       		.byte	0x0
 3592 0b2d 16       		.uleb128 0x16
 3593 0b2e 4A000000 		.4byte	.LBB28
 3594 0b32 50000000 		.4byte	.LBE28
 3595 0b36 4B0B0000 		.4byte	0xb4b
 3596 0b3a 1F       		.uleb128 0x1f
 3597 0b3b 746D7000 		.ascii	"tmp\000"
 3598 0b3f 01       		.byte	0x1
 3599 0b40 C101     		.2byte	0x1c1
 3600 0b42 70000000 		.4byte	0x70
 3601 0b46 91080000 		.4byte	.LLST74
 3602 0b4a 00       		.byte	0x0
 3603 0b4b 18       		.uleb128 0x18
 3604 0b4c 58000000 		.4byte	.LBB29
 3605 0b50 5E000000 		.4byte	.LBE29
 3606 0b54 1F       		.uleb128 0x1f
 3607 0b55 746D7000 		.ascii	"tmp\000"
ARM GAS  /tmp/ccIEcMfY.s 			page 65


 3608 0b59 01       		.byte	0x1
 3609 0b5a C601     		.2byte	0x1c6
 3610 0b5c 70000000 		.4byte	0x70
 3611 0b60 A4080000 		.4byte	.LLST75
 3612 0b64 00       		.byte	0x0
 3613 0b65 00       		.byte	0x0
 3614 0b66 20       		.uleb128 0x20
 3615 0b67 01       		.byte	0x1
 3616 0b68 7D000000 		.4byte	.LASF86
 3617 0b6c 01       		.byte	0x1
 3618 0b6d E201     		.2byte	0x1e2
 3619 0b6f 01       		.byte	0x1
 3620 0b70 D2000000 		.4byte	0xd2
 3621 0b74 00000000 		.4byte	.LFB21
 3622 0b78 68000000 		.4byte	.LFE21
 3623 0b7c C2080000 		.4byte	.LLST76
 3624 0b80 290C0000 		.4byte	0xc29
 3625 0b84 1E       		.uleb128 0x1e
 3626 0b85 F8000000 		.4byte	.LASF69
 3627 0b89 01       		.byte	0x1
 3628 0b8a E201     		.2byte	0x1e2
 3629 0b8c D2000000 		.4byte	0xd2
 3630 0b90 E2080000 		.4byte	.LLST77
 3631 0b94 1E       		.uleb128 0x1e
 3632 0b95 3B020000 		.4byte	.LASF84
 3633 0b99 01       		.byte	0x1
 3634 0b9a E201     		.2byte	0x1e2
 3635 0b9c DD000000 		.4byte	0xdd
 3636 0ba0 16090000 		.4byte	.LLST78
 3637 0ba4 1F       		.uleb128 0x1f
 3638 0ba5 63747000 		.ascii	"ctp\000"
 3639 0ba9 01       		.byte	0x1
 3640 0baa E301     		.2byte	0x1e3
 3641 0bac 2C020000 		.4byte	0x22c
 3642 0bb0 34090000 		.4byte	.LLST79
 3643 0bb4 16       		.uleb128 0x16
 3644 0bb5 0A000000 		.4byte	.LBB30
 3645 0bb9 10000000 		.4byte	.LBE30
 3646 0bbd D20B0000 		.4byte	0xbd2
 3647 0bc1 1F       		.uleb128 0x1f
 3648 0bc2 746D7000 		.ascii	"tmp\000"
 3649 0bc6 01       		.byte	0x1
 3650 0bc7 E501     		.2byte	0x1e5
 3651 0bc9 70000000 		.4byte	0x70
 3652 0bcd 53090000 		.4byte	.LLST80
 3653 0bd1 00       		.byte	0x0
 3654 0bd2 16       		.uleb128 0x16
 3655 0bd3 3A000000 		.4byte	.LBB31
 3656 0bd7 40000000 		.4byte	.LBE31
 3657 0bdb F00B0000 		.4byte	0xbf0
 3658 0bdf 1F       		.uleb128 0x1f
 3659 0be0 746D7000 		.ascii	"tmp\000"
 3660 0be4 01       		.byte	0x1
 3661 0be5 F401     		.2byte	0x1f4
 3662 0be7 70000000 		.4byte	0x70
 3663 0beb 66090000 		.4byte	.LLST81
 3664 0bef 00       		.byte	0x0
ARM GAS  /tmp/ccIEcMfY.s 			page 66


 3665 0bf0 16       		.uleb128 0x16
 3666 0bf1 48000000 		.4byte	.LBB32
 3667 0bf5 4E000000 		.4byte	.LBE32
 3668 0bf9 0E0C0000 		.4byte	0xc0e
 3669 0bfd 1F       		.uleb128 0x1f
 3670 0bfe 746D7000 		.ascii	"tmp\000"
 3671 0c02 01       		.byte	0x1
 3672 0c03 E901     		.2byte	0x1e9
 3673 0c05 70000000 		.4byte	0x70
 3674 0c09 79090000 		.4byte	.LLST82
 3675 0c0d 00       		.byte	0x0
 3676 0c0e 18       		.uleb128 0x18
 3677 0c0f 58000000 		.4byte	.LBB33
 3678 0c13 5E000000 		.4byte	.LBE33
 3679 0c17 1F       		.uleb128 0x1f
 3680 0c18 746D7000 		.ascii	"tmp\000"
 3681 0c1c 01       		.byte	0x1
 3682 0c1d EE01     		.2byte	0x1ee
 3683 0c1f 70000000 		.4byte	0x70
 3684 0c23 8C090000 		.4byte	.LLST83
 3685 0c27 00       		.byte	0x0
 3686 0c28 00       		.byte	0x0
 3687 0c29 21       		.uleb128 0x21
 3688 0c2a 9C030000 		.4byte	.LASF87
 3689 0c2e 07       		.byte	0x7
 3690 0c2f 72       		.byte	0x72
 3691 0c30 97030000 		.4byte	0x397
 3692 0c34 01       		.byte	0x1
 3693 0c35 01       		.byte	0x1
 3694 0c36 21       		.uleb128 0x21
 3695 0c37 9C030000 		.4byte	.LASF87
 3696 0c3b 07       		.byte	0x7
 3697 0c3c 72       		.byte	0x72
 3698 0c3d 97030000 		.4byte	0x397
 3699 0c41 01       		.byte	0x1
 3700 0c42 01       		.byte	0x1
 3701 0c43 00       		.byte	0x0
 3702              		.section	.debug_abbrev
 3703 0000 01       		.uleb128 0x1
 3704 0001 11       		.uleb128 0x11
 3705 0002 01       		.byte	0x1
 3706 0003 25       		.uleb128 0x25
 3707 0004 0E       		.uleb128 0xe
 3708 0005 13       		.uleb128 0x13
 3709 0006 0B       		.uleb128 0xb
 3710 0007 03       		.uleb128 0x3
 3711 0008 0E       		.uleb128 0xe
 3712 0009 1B       		.uleb128 0x1b
 3713 000a 0E       		.uleb128 0xe
 3714 000b 11       		.uleb128 0x11
 3715 000c 01       		.uleb128 0x1
 3716 000d 52       		.uleb128 0x52
 3717 000e 01       		.uleb128 0x1
 3718 000f 55       		.uleb128 0x55
 3719 0010 06       		.uleb128 0x6
 3720 0011 10       		.uleb128 0x10
 3721 0012 06       		.uleb128 0x6
ARM GAS  /tmp/ccIEcMfY.s 			page 67


 3722 0013 00       		.byte	0x0
 3723 0014 00       		.byte	0x0
 3724 0015 02       		.uleb128 0x2
 3725 0016 24       		.uleb128 0x24
 3726 0017 00       		.byte	0x0
 3727 0018 0B       		.uleb128 0xb
 3728 0019 0B       		.uleb128 0xb
 3729 001a 3E       		.uleb128 0x3e
 3730 001b 0B       		.uleb128 0xb
 3731 001c 03       		.uleb128 0x3
 3732 001d 08       		.uleb128 0x8
 3733 001e 00       		.byte	0x0
 3734 001f 00       		.byte	0x0
 3735 0020 03       		.uleb128 0x3
 3736 0021 24       		.uleb128 0x24
 3737 0022 00       		.byte	0x0
 3738 0023 0B       		.uleb128 0xb
 3739 0024 0B       		.uleb128 0xb
 3740 0025 3E       		.uleb128 0x3e
 3741 0026 0B       		.uleb128 0xb
 3742 0027 03       		.uleb128 0x3
 3743 0028 0E       		.uleb128 0xe
 3744 0029 00       		.byte	0x0
 3745 002a 00       		.byte	0x0
 3746 002b 04       		.uleb128 0x4
 3747 002c 16       		.uleb128 0x16
 3748 002d 00       		.byte	0x0
 3749 002e 03       		.uleb128 0x3
 3750 002f 0E       		.uleb128 0xe
 3751 0030 3A       		.uleb128 0x3a
 3752 0031 0B       		.uleb128 0xb
 3753 0032 3B       		.uleb128 0x3b
 3754 0033 0B       		.uleb128 0xb
 3755 0034 49       		.uleb128 0x49
 3756 0035 13       		.uleb128 0x13
 3757 0036 00       		.byte	0x0
 3758 0037 00       		.byte	0x0
 3759 0038 05       		.uleb128 0x5
 3760 0039 13       		.uleb128 0x13
 3761 003a 01       		.byte	0x1
 3762 003b 03       		.uleb128 0x3
 3763 003c 0E       		.uleb128 0xe
 3764 003d 0B       		.uleb128 0xb
 3765 003e 0B       		.uleb128 0xb
 3766 003f 3A       		.uleb128 0x3a
 3767 0040 0B       		.uleb128 0xb
 3768 0041 3B       		.uleb128 0x3b
 3769 0042 0B       		.uleb128 0xb
 3770 0043 01       		.uleb128 0x1
 3771 0044 13       		.uleb128 0x13
 3772 0045 00       		.byte	0x0
 3773 0046 00       		.byte	0x0
 3774 0047 06       		.uleb128 0x6
 3775 0048 0D       		.uleb128 0xd
 3776 0049 00       		.byte	0x0
 3777 004a 03       		.uleb128 0x3
 3778 004b 0E       		.uleb128 0xe
ARM GAS  /tmp/ccIEcMfY.s 			page 68


 3779 004c 3A       		.uleb128 0x3a
 3780 004d 0B       		.uleb128 0xb
 3781 004e 3B       		.uleb128 0x3b
 3782 004f 0B       		.uleb128 0xb
 3783 0050 49       		.uleb128 0x49
 3784 0051 13       		.uleb128 0x13
 3785 0052 38       		.uleb128 0x38
 3786 0053 0A       		.uleb128 0xa
 3787 0054 00       		.byte	0x0
 3788 0055 00       		.byte	0x0
 3789 0056 07       		.uleb128 0x7
 3790 0057 0D       		.uleb128 0xd
 3791 0058 00       		.byte	0x0
 3792 0059 03       		.uleb128 0x3
 3793 005a 08       		.uleb128 0x8
 3794 005b 3A       		.uleb128 0x3a
 3795 005c 0B       		.uleb128 0xb
 3796 005d 3B       		.uleb128 0x3b
 3797 005e 0B       		.uleb128 0xb
 3798 005f 49       		.uleb128 0x49
 3799 0060 13       		.uleb128 0x13
 3800 0061 38       		.uleb128 0x38
 3801 0062 0A       		.uleb128 0xa
 3802 0063 00       		.byte	0x0
 3803 0064 00       		.byte	0x0
 3804 0065 08       		.uleb128 0x8
 3805 0066 13       		.uleb128 0x13
 3806 0067 01       		.byte	0x1
 3807 0068 0B       		.uleb128 0xb
 3808 0069 0B       		.uleb128 0xb
 3809 006a 3A       		.uleb128 0x3a
 3810 006b 0B       		.uleb128 0xb
 3811 006c 3B       		.uleb128 0x3b
 3812 006d 0B       		.uleb128 0xb
 3813 006e 01       		.uleb128 0x1
 3814 006f 13       		.uleb128 0x13
 3815 0070 00       		.byte	0x0
 3816 0071 00       		.byte	0x0
 3817 0072 09       		.uleb128 0x9
 3818 0073 0F       		.uleb128 0xf
 3819 0074 00       		.byte	0x0
 3820 0075 0B       		.uleb128 0xb
 3821 0076 0B       		.uleb128 0xb
 3822 0077 49       		.uleb128 0x49
 3823 0078 13       		.uleb128 0x13
 3824 0079 00       		.byte	0x0
 3825 007a 00       		.byte	0x0
 3826 007b 0A       		.uleb128 0xa
 3827 007c 0F       		.uleb128 0xf
 3828 007d 00       		.byte	0x0
 3829 007e 0B       		.uleb128 0xb
 3830 007f 0B       		.uleb128 0xb
 3831 0080 00       		.byte	0x0
 3832 0081 00       		.byte	0x0
 3833 0082 0B       		.uleb128 0xb
 3834 0083 0D       		.uleb128 0xd
 3835 0084 00       		.byte	0x0
ARM GAS  /tmp/ccIEcMfY.s 			page 69


 3836 0085 03       		.uleb128 0x3
 3837 0086 08       		.uleb128 0x8
 3838 0087 3A       		.uleb128 0x3a
 3839 0088 0B       		.uleb128 0xb
 3840 0089 3B       		.uleb128 0x3b
 3841 008a 05       		.uleb128 0x5
 3842 008b 49       		.uleb128 0x49
 3843 008c 13       		.uleb128 0x13
 3844 008d 38       		.uleb128 0x38
 3845 008e 0A       		.uleb128 0xa
 3846 008f 00       		.byte	0x0
 3847 0090 00       		.byte	0x0
 3848 0091 0C       		.uleb128 0xc
 3849 0092 13       		.uleb128 0x13
 3850 0093 01       		.byte	0x1
 3851 0094 03       		.uleb128 0x3
 3852 0095 0E       		.uleb128 0xe
 3853 0096 0B       		.uleb128 0xb
 3854 0097 0B       		.uleb128 0xb
 3855 0098 3A       		.uleb128 0x3a
 3856 0099 0B       		.uleb128 0xb
 3857 009a 3B       		.uleb128 0x3b
 3858 009b 05       		.uleb128 0x5
 3859 009c 01       		.uleb128 0x1
 3860 009d 13       		.uleb128 0x13
 3861 009e 00       		.byte	0x0
 3862 009f 00       		.byte	0x0
 3863 00a0 0D       		.uleb128 0xd
 3864 00a1 35       		.uleb128 0x35
 3865 00a2 00       		.byte	0x0
 3866 00a3 49       		.uleb128 0x49
 3867 00a4 13       		.uleb128 0x13
 3868 00a5 00       		.byte	0x0
 3869 00a6 00       		.byte	0x0
 3870 00a7 0E       		.uleb128 0xe
 3871 00a8 15       		.uleb128 0x15
 3872 00a9 01       		.byte	0x1
 3873 00aa 27       		.uleb128 0x27
 3874 00ab 0C       		.uleb128 0xc
 3875 00ac 01       		.uleb128 0x1
 3876 00ad 13       		.uleb128 0x13
 3877 00ae 00       		.byte	0x0
 3878 00af 00       		.byte	0x0
 3879 00b0 0F       		.uleb128 0xf
 3880 00b1 05       		.uleb128 0x5
 3881 00b2 00       		.byte	0x0
 3882 00b3 49       		.uleb128 0x49
 3883 00b4 13       		.uleb128 0x13
 3884 00b5 00       		.byte	0x0
 3885 00b6 00       		.byte	0x0
 3886 00b7 10       		.uleb128 0x10
 3887 00b8 17       		.uleb128 0x17
 3888 00b9 01       		.byte	0x1
 3889 00ba 0B       		.uleb128 0xb
 3890 00bb 0B       		.uleb128 0xb
 3891 00bc 3A       		.uleb128 0x3a
 3892 00bd 0B       		.uleb128 0xb
ARM GAS  /tmp/ccIEcMfY.s 			page 70


 3893 00be 3B       		.uleb128 0x3b
 3894 00bf 0B       		.uleb128 0xb
 3895 00c0 01       		.uleb128 0x1
 3896 00c1 13       		.uleb128 0x13
 3897 00c2 00       		.byte	0x0
 3898 00c3 00       		.byte	0x0
 3899 00c4 11       		.uleb128 0x11
 3900 00c5 0D       		.uleb128 0xd
 3901 00c6 00       		.byte	0x0
 3902 00c7 03       		.uleb128 0x3
 3903 00c8 0E       		.uleb128 0xe
 3904 00c9 3A       		.uleb128 0x3a
 3905 00ca 0B       		.uleb128 0xb
 3906 00cb 3B       		.uleb128 0x3b
 3907 00cc 0B       		.uleb128 0xb
 3908 00cd 49       		.uleb128 0x49
 3909 00ce 13       		.uleb128 0x13
 3910 00cf 00       		.byte	0x0
 3911 00d0 00       		.byte	0x0
 3912 00d1 12       		.uleb128 0x12
 3913 00d2 26       		.uleb128 0x26
 3914 00d3 00       		.byte	0x0
 3915 00d4 49       		.uleb128 0x49
 3916 00d5 13       		.uleb128 0x13
 3917 00d6 00       		.byte	0x0
 3918 00d7 00       		.byte	0x0
 3919 00d8 13       		.uleb128 0x13
 3920 00d9 2E       		.uleb128 0x2e
 3921 00da 01       		.byte	0x1
 3922 00db 3F       		.uleb128 0x3f
 3923 00dc 0C       		.uleb128 0xc
 3924 00dd 03       		.uleb128 0x3
 3925 00de 0E       		.uleb128 0xe
 3926 00df 3A       		.uleb128 0x3a
 3927 00e0 0B       		.uleb128 0xb
 3928 00e1 3B       		.uleb128 0x3b
 3929 00e2 0B       		.uleb128 0xb
 3930 00e3 27       		.uleb128 0x27
 3931 00e4 0C       		.uleb128 0xc
 3932 00e5 11       		.uleb128 0x11
 3933 00e6 01       		.uleb128 0x1
 3934 00e7 12       		.uleb128 0x12
 3935 00e8 01       		.uleb128 0x1
 3936 00e9 40       		.uleb128 0x40
 3937 00ea 06       		.uleb128 0x6
 3938 00eb 01       		.uleb128 0x1
 3939 00ec 13       		.uleb128 0x13
 3940 00ed 00       		.byte	0x0
 3941 00ee 00       		.byte	0x0
 3942 00ef 14       		.uleb128 0x14
 3943 00f0 05       		.uleb128 0x5
 3944 00f1 00       		.byte	0x0
 3945 00f2 03       		.uleb128 0x3
 3946 00f3 08       		.uleb128 0x8
 3947 00f4 3A       		.uleb128 0x3a
 3948 00f5 0B       		.uleb128 0xb
 3949 00f6 3B       		.uleb128 0x3b
ARM GAS  /tmp/ccIEcMfY.s 			page 71


 3950 00f7 0B       		.uleb128 0xb
 3951 00f8 49       		.uleb128 0x49
 3952 00f9 13       		.uleb128 0x13
 3953 00fa 02       		.uleb128 0x2
 3954 00fb 06       		.uleb128 0x6
 3955 00fc 00       		.byte	0x0
 3956 00fd 00       		.byte	0x0
 3957 00fe 15       		.uleb128 0x15
 3958 00ff 05       		.uleb128 0x5
 3959 0100 00       		.byte	0x0
 3960 0101 03       		.uleb128 0x3
 3961 0102 0E       		.uleb128 0xe
 3962 0103 3A       		.uleb128 0x3a
 3963 0104 0B       		.uleb128 0xb
 3964 0105 3B       		.uleb128 0x3b
 3965 0106 0B       		.uleb128 0xb
 3966 0107 49       		.uleb128 0x49
 3967 0108 13       		.uleb128 0x13
 3968 0109 02       		.uleb128 0x2
 3969 010a 06       		.uleb128 0x6
 3970 010b 00       		.byte	0x0
 3971 010c 00       		.byte	0x0
 3972 010d 16       		.uleb128 0x16
 3973 010e 0B       		.uleb128 0xb
 3974 010f 01       		.byte	0x1
 3975 0110 11       		.uleb128 0x11
 3976 0111 01       		.uleb128 0x1
 3977 0112 12       		.uleb128 0x12
 3978 0113 01       		.uleb128 0x1
 3979 0114 01       		.uleb128 0x1
 3980 0115 13       		.uleb128 0x13
 3981 0116 00       		.byte	0x0
 3982 0117 00       		.byte	0x0
 3983 0118 17       		.uleb128 0x17
 3984 0119 34       		.uleb128 0x34
 3985 011a 00       		.byte	0x0
 3986 011b 03       		.uleb128 0x3
 3987 011c 08       		.uleb128 0x8
 3988 011d 3A       		.uleb128 0x3a
 3989 011e 0B       		.uleb128 0xb
 3990 011f 3B       		.uleb128 0x3b
 3991 0120 0B       		.uleb128 0xb
 3992 0121 49       		.uleb128 0x49
 3993 0122 13       		.uleb128 0x13
 3994 0123 02       		.uleb128 0x2
 3995 0124 06       		.uleb128 0x6
 3996 0125 00       		.byte	0x0
 3997 0126 00       		.byte	0x0
 3998 0127 18       		.uleb128 0x18
 3999 0128 0B       		.uleb128 0xb
 4000 0129 01       		.byte	0x1
 4001 012a 11       		.uleb128 0x11
 4002 012b 01       		.uleb128 0x1
 4003 012c 12       		.uleb128 0x12
 4004 012d 01       		.uleb128 0x1
 4005 012e 00       		.byte	0x0
 4006 012f 00       		.byte	0x0
ARM GAS  /tmp/ccIEcMfY.s 			page 72


 4007 0130 19       		.uleb128 0x19
 4008 0131 0B       		.uleb128 0xb
 4009 0132 01       		.byte	0x1
 4010 0133 55       		.uleb128 0x55
 4011 0134 06       		.uleb128 0x6
 4012 0135 00       		.byte	0x0
 4013 0136 00       		.byte	0x0
 4014 0137 1A       		.uleb128 0x1a
 4015 0138 2E       		.uleb128 0x2e
 4016 0139 01       		.byte	0x1
 4017 013a 3F       		.uleb128 0x3f
 4018 013b 0C       		.uleb128 0xc
 4019 013c 03       		.uleb128 0x3
 4020 013d 0E       		.uleb128 0xe
 4021 013e 3A       		.uleb128 0x3a
 4022 013f 0B       		.uleb128 0xb
 4023 0140 3B       		.uleb128 0x3b
 4024 0141 0B       		.uleb128 0xb
 4025 0142 27       		.uleb128 0x27
 4026 0143 0C       		.uleb128 0xc
 4027 0144 49       		.uleb128 0x49
 4028 0145 13       		.uleb128 0x13
 4029 0146 11       		.uleb128 0x11
 4030 0147 01       		.uleb128 0x1
 4031 0148 12       		.uleb128 0x12
 4032 0149 01       		.uleb128 0x1
 4033 014a 40       		.uleb128 0x40
 4034 014b 06       		.uleb128 0x6
 4035 014c 01       		.uleb128 0x1
 4036 014d 13       		.uleb128 0x13
 4037 014e 00       		.byte	0x0
 4038 014f 00       		.byte	0x0
 4039 0150 1B       		.uleb128 0x1b
 4040 0151 34       		.uleb128 0x34
 4041 0152 00       		.byte	0x0
 4042 0153 03       		.uleb128 0x3
 4043 0154 08       		.uleb128 0x8
 4044 0155 3A       		.uleb128 0x3a
 4045 0156 0B       		.uleb128 0xb
 4046 0157 3B       		.uleb128 0x3b
 4047 0158 0B       		.uleb128 0xb
 4048 0159 49       		.uleb128 0x49
 4049 015a 13       		.uleb128 0x13
 4050 015b 02       		.uleb128 0x2
 4051 015c 0A       		.uleb128 0xa
 4052 015d 00       		.byte	0x0
 4053 015e 00       		.byte	0x0
 4054 015f 1C       		.uleb128 0x1c
 4055 0160 0B       		.uleb128 0xb
 4056 0161 01       		.byte	0x1
 4057 0162 55       		.uleb128 0x55
 4058 0163 06       		.uleb128 0x6
 4059 0164 01       		.uleb128 0x1
 4060 0165 13       		.uleb128 0x13
 4061 0166 00       		.byte	0x0
 4062 0167 00       		.byte	0x0
 4063 0168 1D       		.uleb128 0x1d
ARM GAS  /tmp/ccIEcMfY.s 			page 73


 4064 0169 2E       		.uleb128 0x2e
 4065 016a 01       		.byte	0x1
 4066 016b 3F       		.uleb128 0x3f
 4067 016c 0C       		.uleb128 0xc
 4068 016d 03       		.uleb128 0x3
 4069 016e 0E       		.uleb128 0xe
 4070 016f 3A       		.uleb128 0x3a
 4071 0170 0B       		.uleb128 0xb
 4072 0171 3B       		.uleb128 0x3b
 4073 0172 05       		.uleb128 0x5
 4074 0173 27       		.uleb128 0x27
 4075 0174 0C       		.uleb128 0xc
 4076 0175 11       		.uleb128 0x11
 4077 0176 01       		.uleb128 0x1
 4078 0177 12       		.uleb128 0x12
 4079 0178 01       		.uleb128 0x1
 4080 0179 40       		.uleb128 0x40
 4081 017a 06       		.uleb128 0x6
 4082 017b 01       		.uleb128 0x1
 4083 017c 13       		.uleb128 0x13
 4084 017d 00       		.byte	0x0
 4085 017e 00       		.byte	0x0
 4086 017f 1E       		.uleb128 0x1e
 4087 0180 05       		.uleb128 0x5
 4088 0181 00       		.byte	0x0
 4089 0182 03       		.uleb128 0x3
 4090 0183 0E       		.uleb128 0xe
 4091 0184 3A       		.uleb128 0x3a
 4092 0185 0B       		.uleb128 0xb
 4093 0186 3B       		.uleb128 0x3b
 4094 0187 05       		.uleb128 0x5
 4095 0188 49       		.uleb128 0x49
 4096 0189 13       		.uleb128 0x13
 4097 018a 02       		.uleb128 0x2
 4098 018b 06       		.uleb128 0x6
 4099 018c 00       		.byte	0x0
 4100 018d 00       		.byte	0x0
 4101 018e 1F       		.uleb128 0x1f
 4102 018f 34       		.uleb128 0x34
 4103 0190 00       		.byte	0x0
 4104 0191 03       		.uleb128 0x3
 4105 0192 08       		.uleb128 0x8
 4106 0193 3A       		.uleb128 0x3a
 4107 0194 0B       		.uleb128 0xb
 4108 0195 3B       		.uleb128 0x3b
 4109 0196 05       		.uleb128 0x5
 4110 0197 49       		.uleb128 0x49
 4111 0198 13       		.uleb128 0x13
 4112 0199 02       		.uleb128 0x2
 4113 019a 06       		.uleb128 0x6
 4114 019b 00       		.byte	0x0
 4115 019c 00       		.byte	0x0
 4116 019d 20       		.uleb128 0x20
 4117 019e 2E       		.uleb128 0x2e
 4118 019f 01       		.byte	0x1
 4119 01a0 3F       		.uleb128 0x3f
 4120 01a1 0C       		.uleb128 0xc
ARM GAS  /tmp/ccIEcMfY.s 			page 74


 4121 01a2 03       		.uleb128 0x3
 4122 01a3 0E       		.uleb128 0xe
 4123 01a4 3A       		.uleb128 0x3a
 4124 01a5 0B       		.uleb128 0xb
 4125 01a6 3B       		.uleb128 0x3b
 4126 01a7 05       		.uleb128 0x5
 4127 01a8 27       		.uleb128 0x27
 4128 01a9 0C       		.uleb128 0xc
 4129 01aa 49       		.uleb128 0x49
 4130 01ab 13       		.uleb128 0x13
 4131 01ac 11       		.uleb128 0x11
 4132 01ad 01       		.uleb128 0x1
 4133 01ae 12       		.uleb128 0x12
 4134 01af 01       		.uleb128 0x1
 4135 01b0 40       		.uleb128 0x40
 4136 01b1 06       		.uleb128 0x6
 4137 01b2 01       		.uleb128 0x1
 4138 01b3 13       		.uleb128 0x13
 4139 01b4 00       		.byte	0x0
 4140 01b5 00       		.byte	0x0
 4141 01b6 21       		.uleb128 0x21
 4142 01b7 34       		.uleb128 0x34
 4143 01b8 00       		.byte	0x0
 4144 01b9 03       		.uleb128 0x3
 4145 01ba 0E       		.uleb128 0xe
 4146 01bb 3A       		.uleb128 0x3a
 4147 01bc 0B       		.uleb128 0xb
 4148 01bd 3B       		.uleb128 0x3b
 4149 01be 0B       		.uleb128 0xb
 4150 01bf 49       		.uleb128 0x49
 4151 01c0 13       		.uleb128 0x13
 4152 01c1 3F       		.uleb128 0x3f
 4153 01c2 0C       		.uleb128 0xc
 4154 01c3 3C       		.uleb128 0x3c
 4155 01c4 0C       		.uleb128 0xc
 4156 01c5 00       		.byte	0x0
 4157 01c6 00       		.byte	0x0
 4158 01c7 00       		.byte	0x0
 4159              		.section	.debug_pubnames,"",%progbits
 4160 0000 47010000 		.4byte	0x147
 4161 0004 0200     		.2byte	0x2
 4162 0006 00000000 		.4byte	.Ldebug_info0
 4163 000a 440C0000 		.4byte	0xc44
 4164 000e C8040000 		.4byte	0x4c8
 4165 0012 63684576 		.ascii	"chEvtRegisterMask\000"
 4165      74526567 
 4165      69737465 
 4165      724D6173 
 4165      6B00
 4166 0024 4B050000 		.4byte	0x54b
 4167 0028 63684576 		.ascii	"chEvtUnregister\000"
 4167      74556E72 
 4167      65676973 
 4167      74657200 
 4168 0038 C2050000 		.4byte	0x5c2
 4169 003c 63684576 		.ascii	"chEvtClearFlags\000"
 4169      74436C65 
ARM GAS  /tmp/ccIEcMfY.s 			page 75


 4169      6172466C 
 4169      61677300 
 4170 004c 35060000 		.4byte	0x635
 4171 0050 63684576 		.ascii	"chEvtAddFlags\000"
 4171      74416464 
 4171      466C6167 
 4171      7300
 4172 005e 94060000 		.4byte	0x694
 4173 0062 63684576 		.ascii	"chEvtSignalFlagsI\000"
 4173      74536967 
 4173      6E616C46 
 4173      6C616773 
 4173      4900
 4174 0074 CB060000 		.4byte	0x6cb
 4175 0078 63684576 		.ascii	"chEvtSignalFlags\000"
 4175      74536967 
 4175      6E616C46 
 4175      6C616773 
 4175      00
 4176 0089 38070000 		.4byte	0x738
 4177 008d 63684576 		.ascii	"chEvtBroadcastFlagsI\000"
 4177      7442726F 
 4177      61646361 
 4177      7374466C 
 4177      61677349 
 4178 00a2 7F070000 		.4byte	0x77f
 4179 00a6 63684576 		.ascii	"chEvtBroadcastFlags\000"
 4179      7442726F 
 4179      61646361 
 4179      7374466C 
 4179      61677300 
 4180 00ba ED070000 		.4byte	0x7ed
 4181 00be 63684576 		.ascii	"chEvtDispatch\000"
 4181      74446973 
 4181      70617463 
 4181      6800
 4182 00cc 43080000 		.4byte	0x843
 4183 00d0 63684576 		.ascii	"chEvtWaitOne\000"
 4183      74576169 
 4183      744F6E65 
 4183      00
 4184 00dd C8080000 		.4byte	0x8c8
 4185 00e1 63684576 		.ascii	"chEvtWaitAny\000"
 4185      74576169 
 4185      74416E79 
 4185      00
 4186 00ee 4D090000 		.4byte	0x94d
 4187 00f2 63684576 		.ascii	"chEvtWaitAll\000"
 4187      74576169 
 4187      74416C6C 
 4187      00
 4188 00ff C4090000 		.4byte	0x9c4
 4189 0103 63684576 		.ascii	"chEvtWaitOneTimeout\000"
 4189      74576169 
 4189      744F6E65 
 4189      54696D65 
 4189      6F757400 
ARM GAS  /tmp/ccIEcMfY.s 			page 76


 4190 0117 950A0000 		.4byte	0xa95
 4191 011b 63684576 		.ascii	"chEvtWaitAnyTimeout\000"
 4191      74576169 
 4191      74416E79 
 4191      54696D65 
 4191      6F757400 
 4192 012f 660B0000 		.4byte	0xb66
 4193 0133 63684576 		.ascii	"chEvtWaitAllTimeout\000"
 4193      74576169 
 4193      74416C6C 
 4193      54696D65 
 4193      6F757400 
 4194 0147 00000000 		.4byte	0x0
 4195              		.section	.debug_pubtypes,"",%progbits
 4196 0000 85010000 		.4byte	0x185
 4197 0004 0200     		.2byte	0x2
 4198 0006 00000000 		.4byte	.Ldebug_info0
 4199 000a 440C0000 		.4byte	0xc44
 4200 000e 3E000000 		.4byte	0x3e
 4201 0012 75696E74 		.ascii	"uint8_t\000"
 4201      385F7400 
 4202 001a 5E000000 		.4byte	0x5e
 4203 001e 696E7433 		.ascii	"int32_t\000"
 4203      325F7400 
 4204 0026 70000000 		.4byte	0x70
 4205 002a 75696E74 		.ascii	"uint32_t\000"
 4205      33325F74 
 4205      00
 4206 0033 89000000 		.4byte	0x89
 4207 0037 75696E74 		.ascii	"uint64_t\000"
 4207      36345F74 
 4207      00
 4208 0040 9B000000 		.4byte	0x9b
 4209 0044 746D6F64 		.ascii	"tmode_t\000"
 4209      655F7400 
 4210 004c A6000000 		.4byte	0xa6
 4211 0050 74737461 		.ascii	"tstate_t\000"
 4211      74655F74 
 4211      00
 4212 0059 B1000000 		.4byte	0xb1
 4213 005d 74707269 		.ascii	"tprio_t\000"
 4213      6F5F7400 
 4214 0065 BC000000 		.4byte	0xbc
 4215 0069 6D73675F 		.ascii	"msg_t\000"
 4215      7400
 4216 006f C7000000 		.4byte	0xc7
 4217 0073 6576656E 		.ascii	"eventid_t\000"
 4217      7469645F 
 4217      7400
 4218 007d D2000000 		.4byte	0xd2
 4219 0081 6576656E 		.ascii	"eventmask_t\000"
 4219      746D6173 
 4219      6B5F7400 
 4220 008d DD000000 		.4byte	0xdd
 4221 0091 73797374 		.ascii	"systime_t\000"
 4221      696D655F 
 4221      7400
ARM GAS  /tmp/ccIEcMfY.s 			page 77


 4222 009b E8000000 		.4byte	0xe8
 4223 009f 636E745F 		.ascii	"cnt_t\000"
 4223      7400
 4224 00a5 F3000000 		.4byte	0xf3
 4225 00a9 54687265 		.ascii	"Thread\000"
 4225      616400
 4226 00b0 32020000 		.4byte	0x232
 4227 00b4 54687265 		.ascii	"ThreadsQueue\000"
 4227      61647351 
 4227      75657565 
 4227      00
 4228 00c1 54020000 		.4byte	0x254
 4229 00c5 54687265 		.ascii	"ThreadsList\000"
 4229      6164734C 
 4229      69737400 
 4230 00d1 5F020000 		.4byte	0x25f
 4231 00d5 72656761 		.ascii	"regarm_t\000"
 4231      726D5F74 
 4231      00
 4232 00de 6C020000 		.4byte	0x26c
 4233 00e2 73746B61 		.ascii	"stkalign_t\000"
 4233      6C69676E 
 4233      5F7400
 4234 00ed 77020000 		.4byte	0x277
 4235 00f1 696E7463 		.ascii	"intctx\000"
 4235      747800
 4236 00f8 04030000 		.4byte	0x304
 4237 00fc 636F6E74 		.ascii	"context\000"
 4237      65787400 
 4238 0104 97030000 		.4byte	0x397
 4239 0108 52656164 		.ascii	"ReadyList\000"
 4239      794C6973 
 4239      7400
 4240 0112 A2030000 		.4byte	0x3a2
 4241 0116 4D757465 		.ascii	"Mutex\000"
 4241      7800
 4242 011c DF030000 		.4byte	0x3df
 4243 0120 4D757465 		.ascii	"Mutex\000"
 4243      7800
 4244 0126 EA030000 		.4byte	0x3ea
 4245 012a 4576656E 		.ascii	"EventListener\000"
 4245      744C6973 
 4245      74656E65 
 4245      7200
 4246 0138 F5030000 		.4byte	0x3f5
 4247 013c 4576656E 		.ascii	"EventListener\000"
 4247      744C6973 
 4247      74656E65 
 4247      7200
 4248 014a 32040000 		.4byte	0x432
 4249 014e 4576656E 		.ascii	"EventSource\000"
 4249      74536F75 
 4249      72636500 
 4250 015a 4D040000 		.4byte	0x44d
 4251 015e 4576656E 		.ascii	"EventSource\000"
 4251      74536F75 
 4251      72636500 
ARM GAS  /tmp/ccIEcMfY.s 			page 78


 4252 016a 58040000 		.4byte	0x458
 4253 016e 65766861 		.ascii	"evhandler_t\000"
 4253      6E646C65 
 4253      725F7400 
 4254 017a FE000000 		.4byte	0xfe
 4255 017e 54687265 		.ascii	"Thread\000"
 4255      616400
 4256 0185 00000000 		.4byte	0x0
 4257              		.section	.debug_aranges,"",%progbits
 4258 0000 8C000000 		.4byte	0x8c
 4259 0004 0200     		.2byte	0x2
 4260 0006 00000000 		.4byte	.Ldebug_info0
 4261 000a 04       		.byte	0x4
 4262 000b 00       		.byte	0x0
 4263 000c 0000     		.2byte	0x0
 4264 000e 0000     		.2byte	0x0
 4265 0010 00000000 		.4byte	.LFB7
 4266 0014 40000000 		.4byte	.LFE7-.LFB7
 4267 0018 00000000 		.4byte	.LFB8
 4268 001c 4C000000 		.4byte	.LFE8-.LFB8
 4269 0020 00000000 		.4byte	.LFB9
 4270 0024 30000000 		.4byte	.LFE9-.LFB9
 4271 0028 00000000 		.4byte	.LFB10
 4272 002c 2C000000 		.4byte	.LFE10-.LFB10
 4273 0030 00000000 		.4byte	.LFB12
 4274 0034 48000000 		.4byte	.LFE12-.LFB12
 4275 0038 00000000 		.4byte	.LFB11
 4276 003c 38000000 		.4byte	.LFE11-.LFB11
 4277 0040 00000000 		.4byte	.LFB14
 4278 0044 34000000 		.4byte	.LFE14-.LFB14
 4279 0048 00000000 		.4byte	.LFB13
 4280 004c 28000000 		.4byte	.LFE13-.LFB13
 4281 0050 00000000 		.4byte	.LFB15
 4282 0054 50000000 		.4byte	.LFE15-.LFB15
 4283 0058 00000000 		.4byte	.LFB16
 4284 005c 44000000 		.4byte	.LFE16-.LFB16
 4285 0060 00000000 		.4byte	.LFB17
 4286 0064 40000000 		.4byte	.LFE17-.LFB17
 4287 0068 00000000 		.4byte	.LFB18
 4288 006c 40000000 		.4byte	.LFE18-.LFB18
 4289 0070 00000000 		.4byte	.LFB19
 4290 0074 68000000 		.4byte	.LFE19-.LFB19
 4291 0078 00000000 		.4byte	.LFB20
 4292 007c 64000000 		.4byte	.LFE20-.LFB20
 4293 0080 00000000 		.4byte	.LFB21
 4294 0084 68000000 		.4byte	.LFE21-.LFB21
 4295 0088 00000000 		.4byte	0x0
 4296 008c 00000000 		.4byte	0x0
 4297              		.section	.debug_ranges,"",%progbits
 4298              	.Ldebug_ranges0:
 4299 0000 28000000 		.4byte	.LBB5
 4300 0004 2E000000 		.4byte	.LBE5
 4301 0008 38000000 		.4byte	.LBB6
 4302 000c 3E000000 		.4byte	.LBE6
 4303 0010 00000000 		.4byte	0x0
 4304 0014 00000000 		.4byte	0x0
 4305 0018 02000000 		.4byte	.LBB9
ARM GAS  /tmp/ccIEcMfY.s 			page 79


 4306 001c 04000000 		.4byte	.LBE9
 4307 0020 06000000 		.4byte	.LBB10
 4308 0024 0A000000 		.4byte	.LBE10
 4309 0028 00000000 		.4byte	0x0
 4310 002c 00000000 		.4byte	0x0
 4311 0030 00000000 		.4byte	.LFB7
 4312 0034 40000000 		.4byte	.LFE7
 4313 0038 00000000 		.4byte	.LFB8
 4314 003c 4C000000 		.4byte	.LFE8
 4315 0040 00000000 		.4byte	.LFB9
 4316 0044 30000000 		.4byte	.LFE9
 4317 0048 00000000 		.4byte	.LFB10
 4318 004c 2C000000 		.4byte	.LFE10
 4319 0050 00000000 		.4byte	.LFB12
 4320 0054 48000000 		.4byte	.LFE12
 4321 0058 00000000 		.4byte	.LFB11
 4322 005c 38000000 		.4byte	.LFE11
 4323 0060 00000000 		.4byte	.LFB14
 4324 0064 34000000 		.4byte	.LFE14
 4325 0068 00000000 		.4byte	.LFB13
 4326 006c 28000000 		.4byte	.LFE13
 4327 0070 00000000 		.4byte	.LFB15
 4328 0074 50000000 		.4byte	.LFE15
 4329 0078 00000000 		.4byte	.LFB16
 4330 007c 44000000 		.4byte	.LFE16
 4331 0080 00000000 		.4byte	.LFB17
 4332 0084 40000000 		.4byte	.LFE17
 4333 0088 00000000 		.4byte	.LFB18
 4334 008c 40000000 		.4byte	.LFE18
 4335 0090 00000000 		.4byte	.LFB19
 4336 0094 68000000 		.4byte	.LFE19
 4337 0098 00000000 		.4byte	.LFB20
 4338 009c 64000000 		.4byte	.LFE20
 4339 00a0 00000000 		.4byte	.LFB21
 4340 00a4 68000000 		.4byte	.LFE21
 4341 00a8 00000000 		.4byte	0x0
 4342 00ac 00000000 		.4byte	0x0
 4343              		.section	.debug_str,"MS",%progbits,1
 4344              	.LASF35:
 4345 0000 705F6D73 		.ascii	"p_msg\000"
 4345      6700
 4346              	.LASF64:
 4347 0006 7264796D 		.ascii	"rdymsg\000"
 4347      736700
 4348              	.LASF11:
 4349 000d 75696E74 		.ascii	"uint64_t\000"
 4349      36345F74 
 4349      00
 4350              	.LASF12:
 4351 0016 6C6F6E67 		.ascii	"long long unsigned int\000"
 4351      206C6F6E 
 4351      6720756E 
 4351      7369676E 
 4351      65642069 
 4352              	.LASF65:
 4353 002d 65786974 		.ascii	"exitcode\000"
 4353      636F6465 
ARM GAS  /tmp/ccIEcMfY.s 			page 80


 4353      00
 4354              	.LASF74:
 4355 0036 63684576 		.ascii	"chEvtSignalFlagsI\000"
 4355      74536967 
 4355      6E616C46 
 4355      6C616773 
 4355      4900
 4356              	.LASF85:
 4357 0048 63684576 		.ascii	"chEvtWaitAnyTimeout\000"
 4357      74576169 
 4357      74416E79 
 4357      54696D65 
 4357      6F757400 
 4358              	.LASF24:
 4359 005c 705F7072 		.ascii	"p_prio\000"
 4359      696F00
 4360              	.LASF10:
 4361 0063 6C6F6E67 		.ascii	"long long int\000"
 4361      206C6F6E 
 4361      6720696E 
 4361      7400
 4362              	.LASF1:
 4363 0071 7369676E 		.ascii	"signed char\000"
 4363      65642063 
 4363      68617200 
 4364              	.LASF86:
 4365 007d 63684576 		.ascii	"chEvtWaitAllTimeout\000"
 4365      74576169 
 4365      74416C6C 
 4365      54696D65 
 4365      6F757400 
 4366              	.LASF54:
 4367 0091 6D5F7175 		.ascii	"m_queue\000"
 4367      65756500 
 4368              	.LASF73:
 4369 0099 63684576 		.ascii	"chEvtAddFlags\000"
 4369      74416464 
 4369      466C6167 
 4369      7300
 4370              	.LASF7:
 4371 00a7 6C6F6E67 		.ascii	"long int\000"
 4371      20696E74 
 4371      00
 4372              	.LASF14:
 4373 00b0 74737461 		.ascii	"tstate_t\000"
 4373      74655F74 
 4373      00
 4374              	.LASF82:
 4375 00b9 63684576 		.ascii	"chEvtWaitAll\000"
 4375      74576169 
 4375      74416C6C 
 4375      00
 4376              	.LASF81:
 4377 00c6 63684576 		.ascii	"chEvtWaitAny\000"
 4377      74576169 
 4377      74416E79 
 4377      00
ARM GAS  /tmp/ccIEcMfY.s 			page 81


 4378              	.LASF76:
 4379 00d3 63684576 		.ascii	"chEvtBroadcastFlagsI\000"
 4379      7442726F 
 4379      61646361 
 4379      7374466C 
 4379      61677349 
 4380              	.LASF26:
 4381 00e8 705F6E65 		.ascii	"p_newer\000"
 4381      77657200 
 4382              	.LASF48:
 4383 00f0 725F6E65 		.ascii	"r_newer\000"
 4383      77657200 
 4384              	.LASF69:
 4385 00f8 6D61736B 		.ascii	"mask\000"
 4385      00
 4386              	.LASF41:
 4387 00fd 72656761 		.ascii	"regarm_t\000"
 4387      726D5F74 
 4387      00
 4388              	.LASF77:
 4389 0106 63684576 		.ascii	"chEvtBroadcastFlags\000"
 4389      7442726F 
 4389      61646361 
 4389      7374466C 
 4389      61677300 
 4390              	.LASF17:
 4391 011a 6576656E 		.ascii	"eventid_t\000"
 4391      7469645F 
 4391      7400
 4392              	.LASF61:
 4393 0124 4576656E 		.ascii	"EventSource\000"
 4393      74536F75 
 4393      72636500 
 4394              	.LASF63:
 4395 0130 65766861 		.ascii	"evhandler_t\000"
 4395      6E646C65 
 4395      725F7400 
 4396              	.LASF20:
 4397 013c 636E745F 		.ascii	"cnt_t\000"
 4397      7400
 4398              	.LASF29:
 4399 0142 705F7374 		.ascii	"p_stklimit\000"
 4399      6B6C696D 
 4399      697400
 4400              	.LASF0:
 4401 014d 756E7369 		.ascii	"unsigned int\000"
 4401      676E6564 
 4401      20696E74 
 4401      00
 4402              	.LASF9:
 4403 015a 6C6F6E67 		.ascii	"long unsigned int\000"
 4403      20756E73 
 4403      69676E65 
 4403      6420696E 
 4403      7400
 4404              	.LASF44:
 4405 016c 636F6E74 		.ascii	"context\000"
ARM GAS  /tmp/ccIEcMfY.s 			page 82


 4405      65787400 
 4406              	.LASF4:
 4407 0174 73686F72 		.ascii	"short unsigned int\000"
 4407      7420756E 
 4407      7369676E 
 4407      65642069 
 4407      6E7400
 4408              	.LASF70:
 4409 0187 63684576 		.ascii	"chEvtRegisterMask\000"
 4409      74526567 
 4409      69737465 
 4409      724D6173 
 4409      6B00
 4410              	.LASF16:
 4411 0199 6D73675F 		.ascii	"msg_t\000"
 4411      7400
 4412              	.LASF58:
 4413 019f 656C5F6E 		.ascii	"el_next\000"
 4413      65787400 
 4414              	.LASF71:
 4415 01a7 63684576 		.ascii	"chEvtUnregister\000"
 4415      74556E72 
 4415      65676973 
 4415      74657200 
 4416              	.LASF13:
 4417 01b7 746D6F64 		.ascii	"tmode_t\000"
 4417      655F7400 
 4418              	.LASF40:
 4419 01bf 54687265 		.ascii	"ThreadsList\000"
 4419      6164734C 
 4419      69737400 
 4420              	.LASF18:
 4421 01cb 6576656E 		.ascii	"eventmask_t\000"
 4421      746D6173 
 4421      6B5F7400 
 4422              	.LASF53:
 4423 01d7 4D757465 		.ascii	"Mutex\000"
 4423      7800
 4424              	.LASF42:
 4425 01dd 73746B61 		.ascii	"stkalign_t\000"
 4425      6C69676E 
 4425      5F7400
 4426              	.LASF89:
 4427 01e8 2E2E2F63 		.ascii	"../chibios_2.4.x/os/kernel/src/chevents.c\000"
 4427      68696269 
 4427      6F735F32 
 4427      2E342E78 
 4427      2F6F732F 
 4428              	.LASF78:
 4429 0212 63684576 		.ascii	"chEvtDispatch\000"
 4429      74446973 
 4429      70617463 
 4429      6800
 4430              	.LASF27:
 4431 0220 705F6F6C 		.ascii	"p_older\000"
 4431      64657200 
 4432              	.LASF47:
ARM GAS  /tmp/ccIEcMfY.s 			page 83


 4433 0228 725F6374 		.ascii	"r_ctx\000"
 4433      7800
 4434              	.LASF39:
 4435 022e 54687265 		.ascii	"ThreadsQueue\000"
 4435      61647351 
 4435      75657565 
 4435      00
 4436              	.LASF84:
 4437 023b 74696D65 		.ascii	"time\000"
 4437      00
 4438              	.LASF75:
 4439 0240 63684576 		.ascii	"chEvtSignalFlags\000"
 4439      74536967 
 4439      6E616C46 
 4439      6C616773 
 4439      00
 4440              	.LASF51:
 4441 0251 725F6375 		.ascii	"r_current\000"
 4441      7272656E 
 4441      7400
 4442              	.LASF49:
 4443 025b 725F6F6C 		.ascii	"r_older\000"
 4443      64657200 
 4444              	.LASF60:
 4445 0263 656C5F6D 		.ascii	"el_mask\000"
 4445      61736B00 
 4446              	.LASF79:
 4447 026b 68616E64 		.ascii	"handlers\000"
 4447      6C657273 
 4447      00
 4448              	.LASF23:
 4449 0274 705F7072 		.ascii	"p_prev\000"
 4449      657600
 4450              	.LASF15:
 4451 027b 74707269 		.ascii	"tprio_t\000"
 4451      6F5F7400 
 4452              	.LASF72:
 4453 0283 63684576 		.ascii	"chEvtClearFlags\000"
 4453      74436C65 
 4453      6172466C 
 4453      61677300 
 4454              	.LASF6:
 4455 0293 696E7433 		.ascii	"int32_t\000"
 4455      325F7400 
 4456              	.LASF2:
 4457 029b 756E7369 		.ascii	"unsigned char\000"
 4457      676E6564 
 4457      20636861 
 4457      7200
 4458              	.LASF80:
 4459 02a9 63684576 		.ascii	"chEvtWaitOne\000"
 4459      74576169 
 4459      744F6E65 
 4459      00
 4460              	.LASF59:
 4461 02b6 656C5F6C 		.ascii	"el_listener\000"
 4461      69737465 
ARM GAS  /tmp/ccIEcMfY.s 			page 84


 4461      6E657200 
 4462              	.LASF37:
 4463 02c2 705F6D74 		.ascii	"p_mtxlist\000"
 4463      786C6973 
 4463      7400
 4464              	.LASF3:
 4465 02cc 73686F72 		.ascii	"short int\000"
 4465      7420696E 
 4465      7400
 4466              	.LASF30:
 4467 02d6 705F7374 		.ascii	"p_state\000"
 4467      61746500 
 4468              	.LASF46:
 4469 02de 725F7072 		.ascii	"r_prio\000"
 4469      696F00
 4470              	.LASF67:
 4471 02e5 65776D61 		.ascii	"ewmask\000"
 4471      736B00
 4472              	.LASF22:
 4473 02ec 705F6E65 		.ascii	"p_next\000"
 4473      787400
 4474              	.LASF31:
 4475 02f3 705F666C 		.ascii	"p_flags\000"
 4475      61677300 
 4476              	.LASF21:
 4477 02fb 54687265 		.ascii	"Thread\000"
 4477      616400
 4478              	.LASF36:
 4479 0302 705F6570 		.ascii	"p_epending\000"
 4479      656E6469 
 4479      6E6700
 4480              	.LASF8:
 4481 030d 75696E74 		.ascii	"uint32_t\000"
 4481      33325F74 
 4481      00
 4482              	.LASF45:
 4483 0316 725F7175 		.ascii	"r_queue\000"
 4483      65756500 
 4484              	.LASF68:
 4485 031e 63686172 		.ascii	"char\000"
 4485      00
 4486              	.LASF56:
 4487 0323 6D5F6E65 		.ascii	"m_next\000"
 4487      787400
 4488              	.LASF19:
 4489 032a 73797374 		.ascii	"systime_t\000"
 4489      696D655F 
 4489      7400
 4490              	.LASF38:
 4491 0334 705F7265 		.ascii	"p_realprio\000"
 4491      616C7072 
 4491      696F00
 4492              	.LASF32:
 4493 033f 705F7469 		.ascii	"p_time\000"
 4493      6D6500
 4494              	.LASF43:
 4495 0346 696E7463 		.ascii	"intctx\000"
ARM GAS  /tmp/ccIEcMfY.s 			page 85


 4495      747800
 4496              	.LASF34:
 4497 034d 705F6D73 		.ascii	"p_msgqueue\000"
 4497      67717565 
 4497      756500
 4498              	.LASF62:
 4499 0358 65735F6E 		.ascii	"es_next\000"
 4499      65787400 
 4500              	.LASF52:
 4501 0360 52656164 		.ascii	"ReadyList\000"
 4501      794C6973 
 4501      7400
 4502              	.LASF90:
 4503 036a 2F686F6D 		.ascii	"/home/z80/projects/voltamper.git/firmware/voltamp\000"
 4503      652F7A38 
 4503      302F7072 
 4503      6F6A6563 
 4503      74732F76 
 4504              	.LASF87:
 4505 039c 726C6973 		.ascii	"rlist\000"
 4505      7400
 4506              	.LASF5:
 4507 03a2 75696E74 		.ascii	"uint8_t\000"
 4507      385F7400 
 4508              	.LASF57:
 4509 03aa 4576656E 		.ascii	"EventListener\000"
 4509      744C6973 
 4509      74656E65 
 4509      7200
 4510              	.LASF83:
 4511 03b8 63684576 		.ascii	"chEvtWaitOneTimeout\000"
 4511      74576169 
 4511      744F6E65 
 4511      54696D65 
 4511      6F757400 
 4512              	.LASF66:
 4513 03cc 77746F62 		.ascii	"wtobjp\000"
 4513      6A7000
 4514              	.LASF88:
 4515 03d3 474E5520 		.ascii	"GNU C 4.5.2\000"
 4515      4320342E 
 4515      352E3200 
 4516              	.LASF28:
 4517 03df 705F6E61 		.ascii	"p_name\000"
 4517      6D6500
 4518              	.LASF50:
 4519 03e6 725F7072 		.ascii	"r_preempt\000"
 4519      65656D70 
 4519      7400
 4520              	.LASF55:
 4521 03f0 6D5F6F77 		.ascii	"m_owner\000"
 4521      6E657200 
 4522              	.LASF25:
 4523 03f8 705F6374 		.ascii	"p_ctx\000"
 4523      7800
 4524              	.LASF33:
 4525 03fe 705F7761 		.ascii	"p_waiting\000"
ARM GAS  /tmp/ccIEcMfY.s 			page 86


 4525      6974696E 
 4525      6700
 4526              		.ident	"GCC: (Sourcery G++ Lite 2011.03-42) 4.5.2"
ARM GAS  /tmp/ccIEcMfY.s 			page 87


DEFINED SYMBOLS
                            *ABS*:00000000 chevents.c
     /tmp/ccIEcMfY.s:24     .text.chEvtRegisterMask:00000000 $t
     /tmp/ccIEcMfY.s:30     .text.chEvtRegisterMask:00000000 chEvtRegisterMask
     /tmp/ccIEcMfY.s:104    .text.chEvtRegisterMask:00000038 $d
     /tmp/ccIEcMfY.s:110    .text.chEvtUnregister:00000000 $t
     /tmp/ccIEcMfY.s:116    .text.chEvtUnregister:00000000 chEvtUnregister
     /tmp/ccIEcMfY.s:209    .text.chEvtUnregister:00000048 $d
     /tmp/ccIEcMfY.s:214    .text.chEvtClearFlags:00000000 $t
     /tmp/ccIEcMfY.s:220    .text.chEvtClearFlags:00000000 chEvtClearFlags
     /tmp/ccIEcMfY.s:273    .text.chEvtClearFlags:0000002c $d
     /tmp/ccIEcMfY.s:278    .text.chEvtAddFlags:00000000 $t
     /tmp/ccIEcMfY.s:284    .text.chEvtAddFlags:00000000 chEvtAddFlags
     /tmp/ccIEcMfY.s:338    .text.chEvtAddFlags:00000028 $d
     /tmp/ccIEcMfY.s:343    .text.chEvtSignalFlagsI:00000000 $t
     /tmp/ccIEcMfY.s:349    .text.chEvtSignalFlagsI:00000000 chEvtSignalFlagsI
     /tmp/ccIEcMfY.s:420    .text.chEvtSignalFlagsI:00000044 $d
     /tmp/ccIEcMfY.s:425    .text.chEvtSignalFlags:00000000 $t
     /tmp/ccIEcMfY.s:431    .text.chEvtSignalFlags:00000000 chEvtSignalFlags
     /tmp/ccIEcMfY.s:493    .text.chEvtSignalFlags:00000034 $d
     /tmp/ccIEcMfY.s:498    .text.chEvtBroadcastFlagsI:00000000 $t
     /tmp/ccIEcMfY.s:504    .text.chEvtBroadcastFlagsI:00000000 chEvtBroadcastFlagsI
     /tmp/ccIEcMfY.s:557    .text.chEvtBroadcastFlagsI:00000030 $d
     /tmp/ccIEcMfY.s:562    .text.chEvtBroadcastFlags:00000000 $t
     /tmp/ccIEcMfY.s:568    .text.chEvtBroadcastFlags:00000000 chEvtBroadcastFlags
     /tmp/ccIEcMfY.s:620    .text.chEvtDispatch:00000000 $t
     /tmp/ccIEcMfY.s:626    .text.chEvtDispatch:00000000 chEvtDispatch
     /tmp/ccIEcMfY.s:702    .text.chEvtDispatch:00000048 $d
     /tmp/ccIEcMfY.s:708    .text.chEvtWaitOne:00000000 $t
     /tmp/ccIEcMfY.s:714    .text.chEvtWaitOne:00000000 chEvtWaitOne
     /tmp/ccIEcMfY.s:788    .text.chEvtWaitOne:00000040 $d
     /tmp/ccIEcMfY.s:793    .text.chEvtWaitAny:00000000 $t
     /tmp/ccIEcMfY.s:799    .text.chEvtWaitAny:00000000 chEvtWaitAny
     /tmp/ccIEcMfY.s:869    .text.chEvtWaitAny:0000003c $d
     /tmp/ccIEcMfY.s:874    .text.chEvtWaitAll:00000000 $t
     /tmp/ccIEcMfY.s:880    .text.chEvtWaitAll:00000000 chEvtWaitAll
     /tmp/ccIEcMfY.s:945    .text.chEvtWaitAll:0000003c $d
     /tmp/ccIEcMfY.s:950    .text.chEvtWaitOneTimeout:00000000 $t
     /tmp/ccIEcMfY.s:956    .text.chEvtWaitOneTimeout:00000000 chEvtWaitOneTimeout
     /tmp/ccIEcMfY.s:1070   .text.chEvtWaitOneTimeout:00000064 $d
     /tmp/ccIEcMfY.s:1075   .text.chEvtWaitAnyTimeout:00000000 $t
     /tmp/ccIEcMfY.s:1081   .text.chEvtWaitAnyTimeout:00000000 chEvtWaitAnyTimeout
     /tmp/ccIEcMfY.s:1191   .text.chEvtWaitAnyTimeout:00000060 $d
     /tmp/ccIEcMfY.s:1196   .text.chEvtWaitAllTimeout:00000000 $t
     /tmp/ccIEcMfY.s:1202   .text.chEvtWaitAllTimeout:00000000 chEvtWaitAllTimeout
     /tmp/ccIEcMfY.s:1311   .text.chEvtWaitAllTimeout:00000064 $d
     /tmp/ccIEcMfY.s:1316   .rodata.str1.4:00000000 $d
                     .debug_frame:00000010 $d
     /tmp/ccIEcMfY.s:213    .text.chEvtUnregister:0000004c $t
     /tmp/ccIEcMfY.s:342    .text.chEvtAddFlags:0000002c $t
     /tmp/ccIEcMfY.s:424    .text.chEvtSignalFlagsI:00000048 $t
     /tmp/ccIEcMfY.s:4526   .text.chEvtSignalFlags:00000038 $t
     /tmp/ccIEcMfY.s:561    .text.chEvtBroadcastFlagsI:00000034 $t
     /tmp/ccIEcMfY.s:792    .text.chEvtWaitOne:00000044 $t
     /tmp/ccIEcMfY.s:1074   .text.chEvtWaitOneTimeout:00000068 $t
     /tmp/ccIEcMfY.s:1195   .text.chEvtWaitAnyTimeout:00000064 $t
     /tmp/ccIEcMfY.s:1315   .text.chEvtWaitAllTimeout:00000068 $t
ARM GAS  /tmp/ccIEcMfY.s 			page 88



UNDEFINED SYMBOLS
dbg_check_lock
dbg_check_unlock
chDbgPanic
rlist
chDbgCheckClassI
chSchReadyI
chSchRescheduleS
chSchGoSleepS
chSchGoSleepTimeoutS
