ARM GAS  C:\Users\z80\AppData\Local\Temp\cc5VAR70.s 			page 1


   1              		.syntax unified
   2              		.cpu cortex-m3
   3              		.fpu softvfp
   4              		.eabi_attribute 20, 1
   5              		.eabi_attribute 21, 1
   6              		.eabi_attribute 23, 3
   7              		.eabi_attribute 24, 1
   8              		.eabi_attribute 25, 1
   9              		.eabi_attribute 26, 1
  10              		.eabi_attribute 30, 6
  11              		.eabi_attribute 18, 4
  12              		.thumb
  13              		.file	"chevents.c"
  14              		.section	.debug_abbrev,"",%progbits
  15              	.Ldebug_abbrev0:
  16              		.section	.debug_info,"",%progbits
  17              	.Ldebug_info0:
  18              		.section	.debug_line,"",%progbits
  19              	.Ldebug_line0:
  20 0000 0B030000 		.text
  20      02002E01 
  20      00000201 
  20      FB0E0D00 
  20      01010101 
  21              	.Ltext0:
  22              		.cfi_sections	.debug_frame
  23              		.section	.rodata
  24              		.align	2
  25              	.LC0:
  26 0000 22636845 		.ascii	"\"chEvtRegisterMask\"()\000"
  26      76745265 
  26      67697374 
  26      65724D61 
  26      736B2228 
  27              		.section	.text.chEvtRegisterMask,"ax",%progbits
  28              		.align	2
  29              		.p2align 4,,15
  30              		.global	chEvtRegisterMask
  31              		.thumb
  32              		.thumb_func
  33              		.type	chEvtRegisterMask, %function
  34              	chEvtRegisterMask:
  35              	.LFB7:
  36              		.file 1 "../chibios_2.4.x/os/kernel/src/chevents.c"
  37              		.loc 1 82 0
  38              		.cfi_startproc
  39              		@ args = 0, pretend = 0, frame = 16
  40              		@ frame_needed = 0, uses_anonymous_args = 0
  41 0000 00B5     		push	{lr}
  42              	.LCFI0:
  43              		.cfi_def_cfa_offset 4
  44 0002 85B0     		sub	sp, sp, #20
  45              	.LCFI1:
  46              		.cfi_def_cfa_offset 24
  47 0004 0390     		str	r0, [sp, #12]
  48 0006 0291     		str	r1, [sp, #8]
  49 0008 0192     		str	r2, [sp, #4]
ARM GAS  C:\Users\z80\AppData\Local\Temp\cc5VAR70.s 			page 2


  50              		.loc 1 84 0
  51 000a 039B     		ldr	r3, [sp, #12]
  52 000c 002B     		cmp	r3, #0
  53 000e 02D0     		beq	.L2
  54              		.cfi_offset 14, -4
  55              		.loc 1 84 0 is_stmt 0 discriminator 2
  56 0010 029B     		ldr	r3, [sp, #8]
  57 0012 002B     		cmp	r3, #0
  58 0014 05D1     		bne	.L3
  59              	.L2:
  60              		.loc 1 84 0 discriminator 1
  61 0016 40F20000 		movw	r0, #:lower16:.LC0
  62 001a C0F20000 		movt	r0, #:upper16:.LC0
  63 001e FFF7FEFF 		bl	chDbgPanic
  64              	.L3:
  65              	.LBB2:
  66              		.loc 1 86 0 is_stmt 1
  67 0022 4FF02003 		mov	r3, #32
  68              	@ 86 "../chibios_2.4.x/os/kernel/src/chevents.c" 1
  69 0026 83F31188 		msr     BASEPRI, r3
  70              	@ 0 "" 2
  71              		.thumb
  72              	.LBE2:
  73 002a FFF7FEFF 		bl	dbg_check_lock
  74              		.loc 1 87 0
  75 002e 039B     		ldr	r3, [sp, #12]
  76 0030 1A68     		ldr	r2, [r3, #0]
  77 0032 029B     		ldr	r3, [sp, #8]
  78 0034 1A60     		str	r2, [r3, #0]
  79              		.loc 1 88 0
  80 0036 039B     		ldr	r3, [sp, #12]
  81 0038 029A     		ldr	r2, [sp, #8]
  82 003a 1A60     		str	r2, [r3, #0]
  83              		.loc 1 89 0
  84 003c 40F20003 		movw	r3, #:lower16:rlist
  85 0040 C0F20003 		movt	r3, #:upper16:rlist
  86 0044 DA69     		ldr	r2, [r3, #28]
  87 0046 029B     		ldr	r3, [sp, #8]
  88 0048 5A60     		str	r2, [r3, #4]
  89              		.loc 1 90 0
  90 004a 029B     		ldr	r3, [sp, #8]
  91 004c 019A     		ldr	r2, [sp, #4]
  92 004e 9A60     		str	r2, [r3, #8]
  93              		.loc 1 91 0
  94 0050 FFF7FEFF 		bl	dbg_check_unlock
  95              	.LBB3:
  96 0054 4FF00003 		mov	r3, #0
  97              	@ 91 "../chibios_2.4.x/os/kernel/src/chevents.c" 1
  98 0058 83F31188 		msr     BASEPRI, r3
  99              	@ 0 "" 2
 100              		.thumb
 101              	.LBE3:
 102              		.loc 1 92 0
 103 005c 05B0     		add	sp, sp, #20
 104 005e 00BD     		pop	{pc}
 105              		.cfi_endproc
 106              	.LFE7:
ARM GAS  C:\Users\z80\AppData\Local\Temp\cc5VAR70.s 			page 3


 107              		.size	chEvtRegisterMask, .-chEvtRegisterMask
 108              		.section	.rodata
 109 0016 0000     		.align	2
 110              	.LC1:
 111 0018 22636845 		.ascii	"\"chEvtUnregister\"()\000"
 111      7674556E 
 111      72656769 
 111      73746572 
 111      22282900 
 112              		.section	.text.chEvtUnregister,"ax",%progbits
 113              		.align	2
 114              		.p2align 4,,15
 115              		.global	chEvtUnregister
 116              		.thumb
 117              		.thumb_func
 118              		.type	chEvtUnregister, %function
 119              	chEvtUnregister:
 120              	.LFB8:
 121              		.loc 1 107 0
 122              		.cfi_startproc
 123              		@ args = 0, pretend = 0, frame = 16
 124              		@ frame_needed = 0, uses_anonymous_args = 0
 125 0000 00B5     		push	{lr}
 126              	.LCFI2:
 127              		.cfi_def_cfa_offset 4
 128 0002 85B0     		sub	sp, sp, #20
 129              	.LCFI3:
 130              		.cfi_def_cfa_offset 24
 131 0004 0190     		str	r0, [sp, #4]
 132 0006 0091     		str	r1, [sp, #0]
 133              		.loc 1 110 0
 134 0008 019B     		ldr	r3, [sp, #4]
 135 000a 002B     		cmp	r3, #0
 136 000c 02D0     		beq	.L5
 137              		.cfi_offset 14, -4
 138              		.loc 1 110 0 is_stmt 0 discriminator 2
 139 000e 009B     		ldr	r3, [sp, #0]
 140 0010 002B     		cmp	r3, #0
 141 0012 05D1     		bne	.L6
 142              	.L5:
 143              		.loc 1 110 0 discriminator 1
 144 0014 40F20000 		movw	r0, #:lower16:.LC1
 145 0018 C0F20000 		movt	r0, #:upper16:.LC1
 146 001c FFF7FEFF 		bl	chDbgPanic
 147              	.L6:
 148              		.loc 1 112 0 is_stmt 1
 149 0020 019B     		ldr	r3, [sp, #4]
 150 0022 0393     		str	r3, [sp, #12]
 151              	.LBB4:
 152              		.loc 1 113 0
 153 0024 4FF02003 		mov	r3, #32
 154              	@ 113 "../chibios_2.4.x/os/kernel/src/chevents.c" 1
 155 0028 83F31188 		msr     BASEPRI, r3
 156              	@ 0 "" 2
 157              		.thumb
 158              	.LBE4:
 159 002c FFF7FEFF 		bl	dbg_check_lock
ARM GAS  C:\Users\z80\AppData\Local\Temp\cc5VAR70.s 			page 4


 160              		.loc 1 114 0
 161 0030 0CE0     		b	.L7
 162              	.L10:
 163              		.loc 1 115 0
 164 0032 039B     		ldr	r3, [sp, #12]
 165 0034 1A68     		ldr	r2, [r3, #0]
 166 0036 009B     		ldr	r3, [sp, #0]
 167 0038 9A42     		cmp	r2, r3
 168 003a 04D1     		bne	.L8
 169              		.loc 1 116 0
 170 003c 009B     		ldr	r3, [sp, #0]
 171 003e 1A68     		ldr	r2, [r3, #0]
 172 0040 039B     		ldr	r3, [sp, #12]
 173 0042 1A60     		str	r2, [r3, #0]
 174              		.loc 1 117 0
 175 0044 07E0     		b	.L9
 176              	.L8:
 177              		.loc 1 119 0
 178 0046 039B     		ldr	r3, [sp, #12]
 179 0048 1B68     		ldr	r3, [r3, #0]
 180 004a 0393     		str	r3, [sp, #12]
 181              	.L7:
 182              		.loc 1 114 0 discriminator 1
 183 004c 039B     		ldr	r3, [sp, #12]
 184 004e 1A68     		ldr	r2, [r3, #0]
 185 0050 019B     		ldr	r3, [sp, #4]
 186 0052 9A42     		cmp	r2, r3
 187 0054 EDD1     		bne	.L10
 188              	.L9:
 189              		.loc 1 121 0
 190 0056 FFF7FEFF 		bl	dbg_check_unlock
 191              	.LBB5:
 192 005a 4FF00003 		mov	r3, #0
 193              	@ 121 "../chibios_2.4.x/os/kernel/src/chevents.c" 1
 194 005e 83F31188 		msr     BASEPRI, r3
 195              	@ 0 "" 2
 196              		.thumb
 197              	.LBE5:
 198              		.loc 1 122 0
 199 0062 05B0     		add	sp, sp, #20
 200 0064 00BD     		pop	{pc}
 201              		.cfi_endproc
 202              	.LFE8:
 203              		.size	chEvtUnregister, .-chEvtUnregister
 204 0066 00BFAFF3 		.section	.text.chEvtClearFlags,"ax",%progbits
 204      0080AFF3 
 204      0080
 205              		.align	2
 206              		.p2align 4,,15
 207              		.global	chEvtClearFlags
 208              		.thumb
 209              		.thumb_func
 210              		.type	chEvtClearFlags, %function
 211              	chEvtClearFlags:
 212              	.LFB9:
 213              		.loc 1 132 0
 214              		.cfi_startproc
ARM GAS  C:\Users\z80\AppData\Local\Temp\cc5VAR70.s 			page 5


 215              		@ args = 0, pretend = 0, frame = 16
 216              		@ frame_needed = 0, uses_anonymous_args = 0
 217 0000 00B5     		push	{lr}
 218              	.LCFI4:
 219              		.cfi_def_cfa_offset 4
 220 0002 85B0     		sub	sp, sp, #20
 221              	.LCFI5:
 222              		.cfi_def_cfa_offset 24
 223 0004 0190     		str	r0, [sp, #4]
 224              	.LBB6:
 225              		.loc 1 135 0
 226 0006 4FF02003 		mov	r3, #32
 227              	@ 135 "../chibios_2.4.x/os/kernel/src/chevents.c" 1
 228 000a 83F31188 		msr     BASEPRI, r3
 229              	@ 0 "" 2
 230              		.thumb
 231              	.LBE6:
 232              		.cfi_offset 14, -4
 233 000e FFF7FEFF 		bl	dbg_check_lock
 234              		.loc 1 137 0
 235 0012 40F20003 		movw	r3, #:lower16:rlist
 236 0016 C0F20003 		movt	r3, #:upper16:rlist
 237 001a DB69     		ldr	r3, [r3, #28]
 238 001c DA6B     		ldr	r2, [r3, #60]
 239 001e 019B     		ldr	r3, [sp, #4]
 240 0020 02EA0303 		and	r3, r2, r3
 241 0024 0393     		str	r3, [sp, #12]
 242              		.loc 1 138 0
 243 0026 40F20003 		movw	r3, #:lower16:rlist
 244 002a C0F20003 		movt	r3, #:upper16:rlist
 245 002e DA69     		ldr	r2, [r3, #28]
 246 0030 40F20003 		movw	r3, #:lower16:rlist
 247 0034 C0F20003 		movt	r3, #:upper16:rlist
 248 0038 DB69     		ldr	r3, [r3, #28]
 249 003a D96B     		ldr	r1, [r3, #60]
 250 003c 019B     		ldr	r3, [sp, #4]
 251 003e 6FEA0303 		mvn	r3, r3
 252 0042 01EA0303 		and	r3, r1, r3
 253 0046 D363     		str	r3, [r2, #60]
 254              		.loc 1 140 0
 255 0048 FFF7FEFF 		bl	dbg_check_unlock
 256              	.LBB7:
 257 004c 4FF00003 		mov	r3, #0
 258              	@ 140 "../chibios_2.4.x/os/kernel/src/chevents.c" 1
 259 0050 83F31188 		msr     BASEPRI, r3
 260              	@ 0 "" 2
 261              		.thumb
 262              	.LBE7:
 263              		.loc 1 141 0
 264 0054 039B     		ldr	r3, [sp, #12]
 265              		.loc 1 142 0
 266 0056 1846     		mov	r0, r3
 267 0058 05B0     		add	sp, sp, #20
 268 005a 00BD     		pop	{pc}
 269              		.cfi_endproc
 270              	.LFE9:
 271              		.size	chEvtClearFlags, .-chEvtClearFlags
ARM GAS  C:\Users\z80\AppData\Local\Temp\cc5VAR70.s 			page 6


 272 005c AFF30080 		.section	.text.chEvtAddFlags,"ax",%progbits
 273              		.align	2
 274              		.p2align 4,,15
 275              		.global	chEvtAddFlags
 276              		.thumb
 277              		.thumb_func
 278              		.type	chEvtAddFlags, %function
 279              	chEvtAddFlags:
 280              	.LFB10:
 281              		.loc 1 153 0
 282              		.cfi_startproc
 283              		@ args = 0, pretend = 0, frame = 8
 284              		@ frame_needed = 0, uses_anonymous_args = 0
 285 0000 00B5     		push	{lr}
 286              	.LCFI6:
 287              		.cfi_def_cfa_offset 4
 288 0002 83B0     		sub	sp, sp, #12
 289              	.LCFI7:
 290              		.cfi_def_cfa_offset 16
 291 0004 0190     		str	r0, [sp, #4]
 292              	.LBB8:
 293              		.loc 1 155 0
 294 0006 4FF02003 		mov	r3, #32
 295              	@ 155 "../chibios_2.4.x/os/kernel/src/chevents.c" 1
 296 000a 83F31188 		msr     BASEPRI, r3
 297              	@ 0 "" 2
 298              		.thumb
 299              	.LBE8:
 300              		.cfi_offset 14, -4
 301 000e FFF7FEFF 		bl	dbg_check_lock
 302              		.loc 1 157 0
 303 0012 40F20003 		movw	r3, #:lower16:rlist
 304 0016 C0F20003 		movt	r3, #:upper16:rlist
 305 001a DA69     		ldr	r2, [r3, #28]
 306 001c 40F20003 		movw	r3, #:lower16:rlist
 307 0020 C0F20003 		movt	r3, #:upper16:rlist
 308 0024 DB69     		ldr	r3, [r3, #28]
 309 0026 D96B     		ldr	r1, [r3, #60]
 310 0028 019B     		ldr	r3, [sp, #4]
 311 002a 41EA0303 		orr	r3, r1, r3
 312 002e D363     		str	r3, [r2, #60]
 313 0030 D36B     		ldr	r3, [r2, #60]
 314 0032 0193     		str	r3, [sp, #4]
 315              		.loc 1 159 0
 316 0034 FFF7FEFF 		bl	dbg_check_unlock
 317              	.LBB9:
 318 0038 4FF00003 		mov	r3, #0
 319              	@ 159 "../chibios_2.4.x/os/kernel/src/chevents.c" 1
 320 003c 83F31188 		msr     BASEPRI, r3
 321              	@ 0 "" 2
 322              		.thumb
 323              	.LBE9:
 324              		.loc 1 160 0
 325 0040 019B     		ldr	r3, [sp, #4]
 326              		.loc 1 161 0
 327 0042 1846     		mov	r0, r3
 328 0044 03B0     		add	sp, sp, #12
ARM GAS  C:\Users\z80\AppData\Local\Temp\cc5VAR70.s 			page 7


 329 0046 00BD     		pop	{pc}
 330              		.cfi_endproc
 331              	.LFE10:
 332              		.size	chEvtAddFlags, .-chEvtAddFlags
 333 0048 AFF30080 		.section	.rodata
 333      AFF30080 
 334              		.align	2
 335              	.LC2:
 336 002c 22636845 		.ascii	"\"chEvtSignal\"()\000"
 336      76745369 
 336      676E616C 
 336      22282900 
 337              		.section	.text.chEvtSignalFlags,"ax",%progbits
 338              		.align	2
 339              		.p2align 4,,15
 340              		.global	chEvtSignalFlags
 341              		.thumb
 342              		.thumb_func
 343              		.type	chEvtSignalFlags, %function
 344              	chEvtSignalFlags:
 345              	.LFB11:
 346              		.loc 1 171 0
 347              		.cfi_startproc
 348              		@ args = 0, pretend = 0, frame = 8
 349              		@ frame_needed = 0, uses_anonymous_args = 0
 350 0000 00B5     		push	{lr}
 351              	.LCFI8:
 352              		.cfi_def_cfa_offset 4
 353 0002 83B0     		sub	sp, sp, #12
 354              	.LCFI9:
 355              		.cfi_def_cfa_offset 16
 356 0004 0190     		str	r0, [sp, #4]
 357 0006 0091     		str	r1, [sp, #0]
 358              		.loc 1 173 0
 359 0008 019B     		ldr	r3, [sp, #4]
 360 000a 002B     		cmp	r3, #0
 361 000c 05D1     		bne	.L14
 362              		.cfi_offset 14, -4
 363              		.loc 1 173 0 is_stmt 0 discriminator 1
 364 000e 40F20000 		movw	r0, #:lower16:.LC2
 365 0012 C0F20000 		movt	r0, #:upper16:.LC2
 366 0016 FFF7FEFF 		bl	chDbgPanic
 367              	.L14:
 368              	.LBB10:
 369              		.loc 1 175 0 is_stmt 1
 370 001a 4FF02003 		mov	r3, #32
 371              	@ 175 "../chibios_2.4.x/os/kernel/src/chevents.c" 1
 372 001e 83F31188 		msr     BASEPRI, r3
 373              	@ 0 "" 2
 374              		.thumb
 375              	.LBE10:
 376 0022 FFF7FEFF 		bl	dbg_check_lock
 377              		.loc 1 176 0
 378 0026 0198     		ldr	r0, [sp, #4]
 379 0028 0099     		ldr	r1, [sp, #0]
 380 002a FFF7FEFF 		bl	chEvtSignalFlagsI
 381              		.loc 1 177 0
ARM GAS  C:\Users\z80\AppData\Local\Temp\cc5VAR70.s 			page 8


 382 002e FFF7FEFF 		bl	chSchRescheduleS
 383              		.loc 1 178 0
 384 0032 FFF7FEFF 		bl	dbg_check_unlock
 385              	.LBB11:
 386 0036 4FF00003 		mov	r3, #0
 387              	@ 178 "../chibios_2.4.x/os/kernel/src/chevents.c" 1
 388 003a 83F31188 		msr     BASEPRI, r3
 389              	@ 0 "" 2
 390              		.thumb
 391              	.LBE11:
 392              		.loc 1 179 0
 393 003e 03B0     		add	sp, sp, #12
 394 0040 00BD     		pop	{pc}
 395              		.cfi_endproc
 396              	.LFE11:
 397              		.size	chEvtSignalFlags, .-chEvtSignalFlags
 398 0042 00BFAFF3 		.section	.rodata
 398      0080AFF3 
 398      0080AFF3 
 398      0080
 399              		.align	2
 400              	.LC3:
 401 003c 22636845 		.ascii	"\"chEvtSignalI\"()\000"
 401      76745369 
 401      676E616C 
 401      49222829 
 401      00
 402              		.section	.text.chEvtSignalFlagsI,"ax",%progbits
 403              		.align	2
 404              		.p2align 4,,15
 405              		.global	chEvtSignalFlagsI
 406              		.thumb
 407              		.thumb_func
 408              		.type	chEvtSignalFlagsI, %function
 409              	chEvtSignalFlagsI:
 410              	.LFB12:
 411              		.loc 1 193 0
 412              		.cfi_startproc
 413              		@ args = 0, pretend = 0, frame = 8
 414              		@ frame_needed = 0, uses_anonymous_args = 0
 415 0000 00B5     		push	{lr}
 416              	.LCFI10:
 417              		.cfi_def_cfa_offset 4
 418 0002 83B0     		sub	sp, sp, #12
 419              	.LCFI11:
 420              		.cfi_def_cfa_offset 16
 421 0004 0190     		str	r0, [sp, #4]
 422 0006 0091     		str	r1, [sp, #0]
 423              		.loc 1 195 0
 424              		.cfi_offset 14, -4
 425 0008 FFF7FEFF 		bl	chDbgCheckClassI
 426              		.loc 1 196 0
 427 000c 019B     		ldr	r3, [sp, #4]
 428 000e 002B     		cmp	r3, #0
 429 0010 05D1     		bne	.L16
 430              		.loc 1 196 0 is_stmt 0 discriminator 1
 431 0012 40F20000 		movw	r0, #:lower16:.LC3
ARM GAS  C:\Users\z80\AppData\Local\Temp\cc5VAR70.s 			page 9


 432 0016 C0F20000 		movt	r0, #:upper16:.LC3
 433 001a FFF7FEFF 		bl	chDbgPanic
 434              	.L16:
 435              		.loc 1 198 0 is_stmt 1
 436 001e 019B     		ldr	r3, [sp, #4]
 437 0020 DA6B     		ldr	r2, [r3, #60]
 438 0022 009B     		ldr	r3, [sp, #0]
 439 0024 42EA0302 		orr	r2, r2, r3
 440 0028 019B     		ldr	r3, [sp, #4]
 441 002a DA63     		str	r2, [r3, #60]
 442              		.loc 1 200 0
 443 002c 019B     		ldr	r3, [sp, #4]
 444 002e 93F82030 		ldrb	r3, [r3, #32]	@ zero_extendqisi2
 445 0032 082B     		cmp	r3, #8
 446 0034 07D1     		bne	.L17
 447              		.loc 1 201 0 discriminator 1
 448 0036 019B     		ldr	r3, [sp, #4]
 449 0038 DA6B     		ldr	r2, [r3, #60]
 450 003a 019B     		ldr	r3, [sp, #4]
 451 003c 9B6A     		ldr	r3, [r3, #40]
 452 003e 02EA0303 		and	r3, r2, r3
 453              		.loc 1 200 0 discriminator 1
 454 0042 002B     		cmp	r3, #0
 455 0044 0ED1     		bne	.L18
 456              	.L17:
 457              		.loc 1 202 0
 458 0046 019B     		ldr	r3, [sp, #4]
 459 0048 93F82030 		ldrb	r3, [r3, #32]	@ zero_extendqisi2
 460              		.loc 1 201 0
 461 004c 092B     		cmp	r3, #9
 462 004e 10D1     		bne	.L15
 463              		.loc 1 203 0
 464 0050 019B     		ldr	r3, [sp, #4]
 465 0052 DA6B     		ldr	r2, [r3, #60]
 466 0054 019B     		ldr	r3, [sp, #4]
 467 0056 9B6A     		ldr	r3, [r3, #40]
 468 0058 02EA0302 		and	r2, r2, r3
 469 005c 019B     		ldr	r3, [sp, #4]
 470 005e 9B6A     		ldr	r3, [r3, #40]
 471              		.loc 1 202 0
 472 0060 9A42     		cmp	r2, r3
 473 0062 06D1     		bne	.L15
 474              	.L18:
 475              		.loc 1 204 0
 476 0064 0198     		ldr	r0, [sp, #4]
 477 0066 FFF7FEFF 		bl	chSchReadyI
 478 006a 0346     		mov	r3, r0
 479 006c 4FF00002 		mov	r2, #0
 480 0070 9A62     		str	r2, [r3, #40]
 481              	.L15:
 482              		.loc 1 205 0
 483 0072 03B0     		add	sp, sp, #12
 484 0074 00BD     		pop	{pc}
 485              		.cfi_endproc
 486              	.LFE12:
 487              		.size	chEvtSignalFlagsI, .-chEvtSignalFlagsI
 488 0076 00BFAFF3 		.section	.text.chEvtBroadcastFlags,"ax",%progbits
ARM GAS  C:\Users\z80\AppData\Local\Temp\cc5VAR70.s 			page 10


 488      0080AFF3 
 488      0080
 489              		.align	2
 490              		.p2align 4,,15
 491              		.global	chEvtBroadcastFlags
 492              		.thumb
 493              		.thumb_func
 494              		.type	chEvtBroadcastFlags, %function
 495              	chEvtBroadcastFlags:
 496              	.LFB13:
 497              		.loc 1 220 0
 498              		.cfi_startproc
 499              		@ args = 0, pretend = 0, frame = 8
 500              		@ frame_needed = 0, uses_anonymous_args = 0
 501 0000 00B5     		push	{lr}
 502              	.LCFI12:
 503              		.cfi_def_cfa_offset 4
 504 0002 83B0     		sub	sp, sp, #12
 505              	.LCFI13:
 506              		.cfi_def_cfa_offset 16
 507 0004 0190     		str	r0, [sp, #4]
 508 0006 0091     		str	r1, [sp, #0]
 509              	.LBB12:
 510              		.loc 1 222 0
 511 0008 4FF02003 		mov	r3, #32
 512              	@ 222 "../chibios_2.4.x/os/kernel/src/chevents.c" 1
 513 000c 83F31188 		msr     BASEPRI, r3
 514              	@ 0 "" 2
 515              		.thumb
 516              	.LBE12:
 517              		.cfi_offset 14, -4
 518 0010 FFF7FEFF 		bl	dbg_check_lock
 519              		.loc 1 223 0
 520 0014 0198     		ldr	r0, [sp, #4]
 521 0016 0099     		ldr	r1, [sp, #0]
 522 0018 FFF7FEFF 		bl	chEvtBroadcastFlagsI
 523              		.loc 1 224 0
 524 001c FFF7FEFF 		bl	chSchRescheduleS
 525              		.loc 1 225 0
 526 0020 FFF7FEFF 		bl	dbg_check_unlock
 527              	.LBB13:
 528 0024 4FF00003 		mov	r3, #0
 529              	@ 225 "../chibios_2.4.x/os/kernel/src/chevents.c" 1
 530 0028 83F31188 		msr     BASEPRI, r3
 531              	@ 0 "" 2
 532              		.thumb
 533              	.LBE13:
 534              		.loc 1 226 0
 535 002c 03B0     		add	sp, sp, #12
 536 002e 00BD     		pop	{pc}
 537              		.cfi_endproc
 538              	.LFE13:
 539              		.size	chEvtBroadcastFlags, .-chEvtBroadcastFlags
 540              		.section	.rodata
 541 004d 000000   		.align	2
 542              	.LC4:
 543 0050 22636845 		.ascii	"\"chEvtBroadcastMaskI\"()\000"
ARM GAS  C:\Users\z80\AppData\Local\Temp\cc5VAR70.s 			page 11


 543      76744272 
 543      6F616463 
 543      6173744D 
 543      61736B49 
 544              		.section	.text.chEvtBroadcastFlagsI,"ax",%progbits
 545              		.align	2
 546              		.p2align 4,,15
 547              		.global	chEvtBroadcastFlagsI
 548              		.thumb
 549              		.thumb_func
 550              		.type	chEvtBroadcastFlagsI, %function
 551              	chEvtBroadcastFlagsI:
 552              	.LFB14:
 553              		.loc 1 245 0
 554              		.cfi_startproc
 555              		@ args = 0, pretend = 0, frame = 16
 556              		@ frame_needed = 0, uses_anonymous_args = 0
 557 0000 00B5     		push	{lr}
 558              	.LCFI14:
 559              		.cfi_def_cfa_offset 4
 560 0002 85B0     		sub	sp, sp, #20
 561              	.LCFI15:
 562              		.cfi_def_cfa_offset 24
 563 0004 0190     		str	r0, [sp, #4]
 564 0006 0091     		str	r1, [sp, #0]
 565              		.loc 1 248 0
 566              		.cfi_offset 14, -4
 567 0008 FFF7FEFF 		bl	chDbgCheckClassI
 568              		.loc 1 249 0
 569 000c 019B     		ldr	r3, [sp, #4]
 570 000e 002B     		cmp	r3, #0
 571 0010 05D1     		bne	.L22
 572              		.loc 1 249 0 is_stmt 0 discriminator 1
 573 0012 40F20000 		movw	r0, #:lower16:.LC4
 574 0016 C0F20000 		movt	r0, #:upper16:.LC4
 575 001a FFF7FEFF 		bl	chDbgPanic
 576              	.L22:
 577              		.loc 1 251 0 is_stmt 1
 578 001e 019B     		ldr	r3, [sp, #4]
 579 0020 1B68     		ldr	r3, [r3, #0]
 580 0022 0393     		str	r3, [sp, #12]
 581              		.loc 1 252 0
 582 0024 0DE0     		b	.L23
 583              	.L24:
 584              		.loc 1 253 0
 585 0026 039B     		ldr	r3, [sp, #12]
 586 0028 5A68     		ldr	r2, [r3, #4]
 587 002a 039B     		ldr	r3, [sp, #12]
 588 002c 9968     		ldr	r1, [r3, #8]
 589 002e 009B     		ldr	r3, [sp, #0]
 590 0030 41EA0303 		orr	r3, r1, r3
 591 0034 1046     		mov	r0, r2
 592 0036 1946     		mov	r1, r3
 593 0038 FFF7FEFF 		bl	chEvtSignalFlagsI
 594              		.loc 1 254 0
 595 003c 039B     		ldr	r3, [sp, #12]
 596 003e 1B68     		ldr	r3, [r3, #0]
ARM GAS  C:\Users\z80\AppData\Local\Temp\cc5VAR70.s 			page 12


 597 0040 0393     		str	r3, [sp, #12]
 598              	.L23:
 599              		.loc 1 252 0 discriminator 1
 600 0042 019B     		ldr	r3, [sp, #4]
 601 0044 039A     		ldr	r2, [sp, #12]
 602 0046 9A42     		cmp	r2, r3
 603 0048 EDD1     		bne	.L24
 604              		.loc 1 256 0
 605 004a 05B0     		add	sp, sp, #20
 606 004c 00BD     		pop	{pc}
 607              		.cfi_endproc
 608              	.LFE14:
 609              		.size	chEvtBroadcastFlagsI, .-chEvtBroadcastFlagsI
 610 004e 00BF     		.section	.rodata
 611              		.align	2
 612              	.LC5:
 613 0068 22636845 		.ascii	"\"chEvtDispatch\"()\000"
 613      76744469 
 613      73706174 
 613      63682228 
 613      2900
 614 007a 0000     		.align	2
 615              	.LC6:
 616 007c 63684576 		.ascii	"chEvtDispatch(), #1\000"
 616      74446973 
 616      70617463 
 616      6828292C 
 616      20233100 
 617              		.section	.text.chEvtDispatch,"ax",%progbits
 618              		.align	2
 619              		.p2align 4,,15
 620              		.global	chEvtDispatch
 621              		.thumb
 622              		.thumb_func
 623              		.type	chEvtDispatch, %function
 624              	chEvtDispatch:
 625              	.LFB15:
 626              		.loc 1 267 0
 627              		.cfi_startproc
 628              		@ args = 0, pretend = 0, frame = 16
 629              		@ frame_needed = 0, uses_anonymous_args = 0
 630 0000 00B5     		push	{lr}
 631              	.LCFI16:
 632              		.cfi_def_cfa_offset 4
 633 0002 85B0     		sub	sp, sp, #20
 634              	.LCFI17:
 635              		.cfi_def_cfa_offset 24
 636 0004 0190     		str	r0, [sp, #4]
 637 0006 0091     		str	r1, [sp, #0]
 638              		.loc 1 270 0
 639 0008 019B     		ldr	r3, [sp, #4]
 640 000a 002B     		cmp	r3, #0
 641 000c 05D1     		bne	.L26
 642              		.cfi_offset 14, -4
 643              		.loc 1 270 0 is_stmt 0 discriminator 1
 644 000e 40F20000 		movw	r0, #:lower16:.LC5
 645 0012 C0F20000 		movt	r0, #:upper16:.LC5
ARM GAS  C:\Users\z80\AppData\Local\Temp\cc5VAR70.s 			page 13


 646 0016 FFF7FEFF 		bl	chDbgPanic
 647              	.L26:
 648              		.loc 1 272 0 is_stmt 1
 649 001a 4FF00003 		mov	r3, #0
 650 001e 0393     		str	r3, [sp, #12]
 651              		.loc 1 273 0
 652 0020 2FE0     		b	.L27
 653              	.L30:
 654              		.loc 1 274 0
 655 0022 4FF00102 		mov	r2, #1
 656 0026 039B     		ldr	r3, [sp, #12]
 657 0028 02FA03F3 		lsl	r3, r2, r3
 658 002c 1A46     		mov	r2, r3
 659 002e 009B     		ldr	r3, [sp, #0]
 660 0030 02EA0303 		and	r3, r2, r3
 661 0034 002B     		cmp	r3, #0
 662 0036 20D0     		beq	.L28
 663              		.loc 1 275 0
 664 0038 039B     		ldr	r3, [sp, #12]
 665 003a 4FEA8303 		lsl	r3, r3, #2
 666 003e 019A     		ldr	r2, [sp, #4]
 667 0040 1344     		add	r3, r2, r3
 668 0042 1B68     		ldr	r3, [r3, #0]
 669 0044 002B     		cmp	r3, #0
 670 0046 05D1     		bne	.L29
 671              		.loc 1 275 0 is_stmt 0 discriminator 1
 672 0048 40F20000 		movw	r0, #:lower16:.LC6
 673 004c C0F20000 		movt	r0, #:upper16:.LC6
 674 0050 FFF7FEFF 		bl	chDbgPanic
 675              	.L29:
 676              		.loc 1 278 0 is_stmt 1
 677 0054 4FF00102 		mov	r2, #1
 678 0058 039B     		ldr	r3, [sp, #12]
 679 005a 02FA03F3 		lsl	r3, r2, r3
 680 005e 6FEA0303 		mvn	r3, r3
 681 0062 009A     		ldr	r2, [sp, #0]
 682 0064 02EA0303 		and	r3, r2, r3
 683 0068 0093     		str	r3, [sp, #0]
 684              		.loc 1 279 0
 685 006a 039B     		ldr	r3, [sp, #12]
 686 006c 4FEA8303 		lsl	r3, r3, #2
 687 0070 019A     		ldr	r2, [sp, #4]
 688 0072 1344     		add	r3, r2, r3
 689 0074 1B68     		ldr	r3, [r3, #0]
 690 0076 0398     		ldr	r0, [sp, #12]
 691 0078 9847     		blx	r3
 692              	.L28:
 693              		.loc 1 281 0
 694 007a 039B     		ldr	r3, [sp, #12]
 695 007c 03F10103 		add	r3, r3, #1
 696 0080 0393     		str	r3, [sp, #12]
 697              	.L27:
 698              		.loc 1 273 0 discriminator 1
 699 0082 009B     		ldr	r3, [sp, #0]
 700 0084 002B     		cmp	r3, #0
 701 0086 CCD1     		bne	.L30
 702              		.loc 1 283 0
ARM GAS  C:\Users\z80\AppData\Local\Temp\cc5VAR70.s 			page 14


 703 0088 05B0     		add	sp, sp, #20
 704 008a 00BD     		pop	{pc}
 705              		.cfi_endproc
 706              	.LFE15:
 707              		.size	chEvtDispatch, .-chEvtDispatch
 708 008c AFF30080 		.section	.text.chEvtWaitOne,"ax",%progbits
 709              		.align	2
 710              		.p2align 4,,15
 711              		.global	chEvtWaitOne
 712              		.thumb
 713              		.thumb_func
 714              		.type	chEvtWaitOne, %function
 715              	chEvtWaitOne:
 716              	.LFB16:
 717              		.loc 1 302 0
 718              		.cfi_startproc
 719              		@ args = 0, pretend = 0, frame = 16
 720              		@ frame_needed = 0, uses_anonymous_args = 0
 721 0000 00B5     		push	{lr}
 722              	.LCFI18:
 723              		.cfi_def_cfa_offset 4
 724 0002 85B0     		sub	sp, sp, #20
 725              	.LCFI19:
 726              		.cfi_def_cfa_offset 24
 727 0004 0190     		str	r0, [sp, #4]
 728              		.loc 1 303 0
 729 0006 40F20003 		movw	r3, #:lower16:rlist
 730 000a C0F20003 		movt	r3, #:upper16:rlist
 731 000e DB69     		ldr	r3, [r3, #28]
 732 0010 0293     		str	r3, [sp, #8]
 733              	.LBB14:
 734              		.loc 1 306 0
 735 0012 4FF02003 		mov	r3, #32
 736              	@ 306 "../chibios_2.4.x/os/kernel/src/chevents.c" 1
 737 0016 83F31188 		msr     BASEPRI, r3
 738              	@ 0 "" 2
 739              		.thumb
 740              	.LBE14:
 741              		.cfi_offset 14, -4
 742 001a FFF7FEFF 		bl	dbg_check_lock
 743              		.loc 1 308 0
 744 001e 029B     		ldr	r3, [sp, #8]
 745 0020 DA6B     		ldr	r2, [r3, #60]
 746 0022 019B     		ldr	r3, [sp, #4]
 747 0024 02EA0303 		and	r3, r2, r3
 748 0028 0393     		str	r3, [sp, #12]
 749 002a 039B     		ldr	r3, [sp, #12]
 750 002c 002B     		cmp	r3, #0
 751 002e 0CD1     		bne	.L32
 752              		.loc 1 309 0
 753 0030 029B     		ldr	r3, [sp, #8]
 754 0032 019A     		ldr	r2, [sp, #4]
 755 0034 9A62     		str	r2, [r3, #40]
 756              		.loc 1 310 0
 757 0036 4FF00800 		mov	r0, #8
 758 003a FFF7FEFF 		bl	chSchGoSleepS
 759              		.loc 1 311 0
ARM GAS  C:\Users\z80\AppData\Local\Temp\cc5VAR70.s 			page 15


 760 003e 029B     		ldr	r3, [sp, #8]
 761 0040 DA6B     		ldr	r2, [r3, #60]
 762 0042 019B     		ldr	r3, [sp, #4]
 763 0044 02EA0303 		and	r3, r2, r3
 764 0048 0393     		str	r3, [sp, #12]
 765              	.L32:
 766              		.loc 1 313 0
 767 004a 039B     		ldr	r3, [sp, #12]
 768 004c C3F10003 		rsb	r3, r3, #0
 769 0050 039A     		ldr	r2, [sp, #12]
 770 0052 02EA0303 		and	r3, r2, r3
 771 0056 0393     		str	r3, [sp, #12]
 772              		.loc 1 314 0
 773 0058 029B     		ldr	r3, [sp, #8]
 774 005a DA6B     		ldr	r2, [r3, #60]
 775 005c 039B     		ldr	r3, [sp, #12]
 776 005e 6FEA0303 		mvn	r3, r3
 777 0062 02EA0302 		and	r2, r2, r3
 778 0066 029B     		ldr	r3, [sp, #8]
 779 0068 DA63     		str	r2, [r3, #60]
 780              		.loc 1 316 0
 781 006a FFF7FEFF 		bl	dbg_check_unlock
 782              	.LBB15:
 783 006e 4FF00003 		mov	r3, #0
 784              	@ 316 "../chibios_2.4.x/os/kernel/src/chevents.c" 1
 785 0072 83F31188 		msr     BASEPRI, r3
 786              	@ 0 "" 2
 787              		.thumb
 788              	.LBE15:
 789              		.loc 1 317 0
 790 0076 039B     		ldr	r3, [sp, #12]
 791              		.loc 1 318 0
 792 0078 1846     		mov	r0, r3
 793 007a 05B0     		add	sp, sp, #20
 794 007c 00BD     		pop	{pc}
 795              		.cfi_endproc
 796              	.LFE16:
 797              		.size	chEvtWaitOne, .-chEvtWaitOne
 798 007e 00BF     		.section	.text.chEvtWaitAny,"ax",%progbits
 799              		.align	2
 800              		.p2align 4,,15
 801              		.global	chEvtWaitAny
 802              		.thumb
 803              		.thumb_func
 804              		.type	chEvtWaitAny, %function
 805              	chEvtWaitAny:
 806              	.LFB17:
 807              		.loc 1 331 0
 808              		.cfi_startproc
 809              		@ args = 0, pretend = 0, frame = 16
 810              		@ frame_needed = 0, uses_anonymous_args = 0
 811 0000 00B5     		push	{lr}
 812              	.LCFI20:
 813              		.cfi_def_cfa_offset 4
 814 0002 85B0     		sub	sp, sp, #20
 815              	.LCFI21:
 816              		.cfi_def_cfa_offset 24
ARM GAS  C:\Users\z80\AppData\Local\Temp\cc5VAR70.s 			page 16


 817 0004 0190     		str	r0, [sp, #4]
 818              		.loc 1 332 0
 819 0006 40F20003 		movw	r3, #:lower16:rlist
 820 000a C0F20003 		movt	r3, #:upper16:rlist
 821 000e DB69     		ldr	r3, [r3, #28]
 822 0010 0293     		str	r3, [sp, #8]
 823              	.LBB16:
 824              		.loc 1 335 0
 825 0012 4FF02003 		mov	r3, #32
 826              	@ 335 "../chibios_2.4.x/os/kernel/src/chevents.c" 1
 827 0016 83F31188 		msr     BASEPRI, r3
 828              	@ 0 "" 2
 829              		.thumb
 830              	.LBE16:
 831              		.cfi_offset 14, -4
 832 001a FFF7FEFF 		bl	dbg_check_lock
 833              		.loc 1 337 0
 834 001e 029B     		ldr	r3, [sp, #8]
 835 0020 DA6B     		ldr	r2, [r3, #60]
 836 0022 019B     		ldr	r3, [sp, #4]
 837 0024 02EA0303 		and	r3, r2, r3
 838 0028 0393     		str	r3, [sp, #12]
 839 002a 039B     		ldr	r3, [sp, #12]
 840 002c 002B     		cmp	r3, #0
 841 002e 0CD1     		bne	.L34
 842              		.loc 1 338 0
 843 0030 029B     		ldr	r3, [sp, #8]
 844 0032 019A     		ldr	r2, [sp, #4]
 845 0034 9A62     		str	r2, [r3, #40]
 846              		.loc 1 339 0
 847 0036 4FF00800 		mov	r0, #8
 848 003a FFF7FEFF 		bl	chSchGoSleepS
 849              		.loc 1 340 0
 850 003e 029B     		ldr	r3, [sp, #8]
 851 0040 DA6B     		ldr	r2, [r3, #60]
 852 0042 019B     		ldr	r3, [sp, #4]
 853 0044 02EA0303 		and	r3, r2, r3
 854 0048 0393     		str	r3, [sp, #12]
 855              	.L34:
 856              		.loc 1 342 0
 857 004a 029B     		ldr	r3, [sp, #8]
 858 004c DA6B     		ldr	r2, [r3, #60]
 859 004e 039B     		ldr	r3, [sp, #12]
 860 0050 6FEA0303 		mvn	r3, r3
 861 0054 02EA0302 		and	r2, r2, r3
 862 0058 029B     		ldr	r3, [sp, #8]
 863 005a DA63     		str	r2, [r3, #60]
 864              		.loc 1 344 0
 865 005c FFF7FEFF 		bl	dbg_check_unlock
 866              	.LBB17:
 867 0060 4FF00003 		mov	r3, #0
 868              	@ 344 "../chibios_2.4.x/os/kernel/src/chevents.c" 1
 869 0064 83F31188 		msr     BASEPRI, r3
 870              	@ 0 "" 2
 871              		.thumb
 872              	.LBE17:
 873              		.loc 1 345 0
ARM GAS  C:\Users\z80\AppData\Local\Temp\cc5VAR70.s 			page 17


 874 0068 039B     		ldr	r3, [sp, #12]
 875              		.loc 1 346 0
 876 006a 1846     		mov	r0, r3
 877 006c 05B0     		add	sp, sp, #20
 878 006e 00BD     		pop	{pc}
 879              		.cfi_endproc
 880              	.LFE17:
 881              		.size	chEvtWaitAny, .-chEvtWaitAny
 882              		.section	.text.chEvtWaitAll,"ax",%progbits
 883              		.align	2
 884              		.p2align 4,,15
 885              		.global	chEvtWaitAll
 886              		.thumb
 887              		.thumb_func
 888              		.type	chEvtWaitAll, %function
 889              	chEvtWaitAll:
 890              	.LFB18:
 891              		.loc 1 359 0
 892              		.cfi_startproc
 893              		@ args = 0, pretend = 0, frame = 16
 894              		@ frame_needed = 0, uses_anonymous_args = 0
 895 0000 00B5     		push	{lr}
 896              	.LCFI22:
 897              		.cfi_def_cfa_offset 4
 898 0002 85B0     		sub	sp, sp, #20
 899              	.LCFI23:
 900              		.cfi_def_cfa_offset 24
 901 0004 0190     		str	r0, [sp, #4]
 902              		.loc 1 360 0
 903 0006 40F20003 		movw	r3, #:lower16:rlist
 904 000a C0F20003 		movt	r3, #:upper16:rlist
 905 000e DB69     		ldr	r3, [r3, #28]
 906 0010 0393     		str	r3, [sp, #12]
 907              	.LBB18:
 908              		.loc 1 362 0
 909 0012 4FF02003 		mov	r3, #32
 910              	@ 362 "../chibios_2.4.x/os/kernel/src/chevents.c" 1
 911 0016 83F31188 		msr     BASEPRI, r3
 912              	@ 0 "" 2
 913              		.thumb
 914              	.LBE18:
 915              		.cfi_offset 14, -4
 916 001a FFF7FEFF 		bl	dbg_check_lock
 917              		.loc 1 364 0
 918 001e 039B     		ldr	r3, [sp, #12]
 919 0020 DA6B     		ldr	r2, [r3, #60]
 920 0022 019B     		ldr	r3, [sp, #4]
 921 0024 02EA0302 		and	r2, r2, r3
 922 0028 019B     		ldr	r3, [sp, #4]
 923 002a 9A42     		cmp	r2, r3
 924 002c 06D0     		beq	.L36
 925              		.loc 1 365 0
 926 002e 039B     		ldr	r3, [sp, #12]
 927 0030 019A     		ldr	r2, [sp, #4]
 928 0032 9A62     		str	r2, [r3, #40]
 929              		.loc 1 366 0
 930 0034 4FF00900 		mov	r0, #9
ARM GAS  C:\Users\z80\AppData\Local\Temp\cc5VAR70.s 			page 18


 931 0038 FFF7FEFF 		bl	chSchGoSleepS
 932              	.L36:
 933              		.loc 1 368 0
 934 003c 039B     		ldr	r3, [sp, #12]
 935 003e DA6B     		ldr	r2, [r3, #60]
 936 0040 019B     		ldr	r3, [sp, #4]
 937 0042 6FEA0303 		mvn	r3, r3
 938 0046 02EA0302 		and	r2, r2, r3
 939 004a 039B     		ldr	r3, [sp, #12]
 940 004c DA63     		str	r2, [r3, #60]
 941              		.loc 1 370 0
 942 004e FFF7FEFF 		bl	dbg_check_unlock
 943              	.LBB19:
 944 0052 4FF00003 		mov	r3, #0
 945              	@ 370 "../chibios_2.4.x/os/kernel/src/chevents.c" 1
 946 0056 83F31188 		msr     BASEPRI, r3
 947              	@ 0 "" 2
 948              		.thumb
 949              	.LBE19:
 950              		.loc 1 371 0
 951 005a 019B     		ldr	r3, [sp, #4]
 952              		.loc 1 372 0
 953 005c 1846     		mov	r0, r3
 954 005e 05B0     		add	sp, sp, #20
 955 0060 00BD     		pop	{pc}
 956              		.cfi_endproc
 957              	.LFE18:
 958              		.size	chEvtWaitAll, .-chEvtWaitAll
 959 0062 00BFAFF3 		.section	.text.chEvtWaitOneTimeout,"ax",%progbits
 959      0080AFF3 
 959      0080AFF3 
 959      0080
 960              		.align	2
 961              		.p2align 4,,15
 962              		.global	chEvtWaitOneTimeout
 963              		.thumb
 964              		.thumb_func
 965              		.type	chEvtWaitOneTimeout, %function
 966              	chEvtWaitOneTimeout:
 967              	.LFB19:
 968              		.loc 1 398 0
 969              		.cfi_startproc
 970              		@ args = 0, pretend = 0, frame = 16
 971              		@ frame_needed = 0, uses_anonymous_args = 0
 972 0000 00B5     		push	{lr}
 973              	.LCFI24:
 974              		.cfi_def_cfa_offset 4
 975 0002 85B0     		sub	sp, sp, #20
 976              	.LCFI25:
 977              		.cfi_def_cfa_offset 24
 978 0004 0190     		str	r0, [sp, #4]
 979 0006 0091     		str	r1, [sp, #0]
 980              		.loc 1 399 0
 981 0008 40F20003 		movw	r3, #:lower16:rlist
 982 000c C0F20003 		movt	r3, #:upper16:rlist
 983 0010 DB69     		ldr	r3, [r3, #28]
 984 0012 0293     		str	r3, [sp, #8]
ARM GAS  C:\Users\z80\AppData\Local\Temp\cc5VAR70.s 			page 19


 985              	.LBB20:
 986              		.loc 1 402 0
 987 0014 4FF02003 		mov	r3, #32
 988              	@ 402 "../chibios_2.4.x/os/kernel/src/chevents.c" 1
 989 0018 83F31188 		msr     BASEPRI, r3
 990              	@ 0 "" 2
 991              		.thumb
 992              	.LBE20:
 993              		.cfi_offset 14, -4
 994 001c FFF7FEFF 		bl	dbg_check_lock
 995              		.loc 1 404 0
 996 0020 029B     		ldr	r3, [sp, #8]
 997 0022 DA6B     		ldr	r2, [r3, #60]
 998 0024 019B     		ldr	r3, [sp, #4]
 999 0026 02EA0303 		and	r3, r2, r3
 1000 002a 0393     		str	r3, [sp, #12]
 1001 002c 039B     		ldr	r3, [sp, #12]
 1002 002e 002B     		cmp	r3, #0
 1003 0030 25D1     		bne	.L38
 1004              		.loc 1 405 0
 1005 0032 009B     		ldr	r3, [sp, #0]
 1006 0034 002B     		cmp	r3, #0
 1007 0036 08D1     		bne	.L39
 1008              		.loc 1 406 0
 1009 0038 FFF7FEFF 		bl	dbg_check_unlock
 1010              	.LBB21:
 1011 003c 4FF00003 		mov	r3, #0
 1012              	@ 406 "../chibios_2.4.x/os/kernel/src/chevents.c" 1
 1013 0040 83F31188 		msr     BASEPRI, r3
 1014              	@ 0 "" 2
 1015              		.thumb
 1016              	.LBE21:
 1017              		.loc 1 407 0
 1018 0044 4FF00003 		mov	r3, #0
 1019 0048 30E0     		b	.L40
 1020              	.L39:
 1021              		.loc 1 409 0
 1022 004a 029B     		ldr	r3, [sp, #8]
 1023 004c 019A     		ldr	r2, [sp, #4]
 1024 004e 9A62     		str	r2, [r3, #40]
 1025              		.loc 1 410 0
 1026 0050 4FF00800 		mov	r0, #8
 1027 0054 0099     		ldr	r1, [sp, #0]
 1028 0056 FFF7FEFF 		bl	chSchGoSleepTimeoutS
 1029 005a 0346     		mov	r3, r0
 1030 005c 002B     		cmp	r3, #0
 1031 005e 08DA     		bge	.L41
 1032              		.loc 1 411 0
 1033 0060 FFF7FEFF 		bl	dbg_check_unlock
 1034              	.LBB22:
 1035 0064 4FF00003 		mov	r3, #0
 1036              	@ 411 "../chibios_2.4.x/os/kernel/src/chevents.c" 1
 1037 0068 83F31188 		msr     BASEPRI, r3
 1038              	@ 0 "" 2
 1039              		.thumb
 1040              	.LBE22:
 1041              		.loc 1 412 0
ARM GAS  C:\Users\z80\AppData\Local\Temp\cc5VAR70.s 			page 20


 1042 006c 4FF00003 		mov	r3, #0
 1043 0070 1CE0     		b	.L40
 1044              	.L41:
 1045              		.loc 1 414 0
 1046 0072 029B     		ldr	r3, [sp, #8]
 1047 0074 DA6B     		ldr	r2, [r3, #60]
 1048 0076 019B     		ldr	r3, [sp, #4]
 1049 0078 02EA0303 		and	r3, r2, r3
 1050 007c 0393     		str	r3, [sp, #12]
 1051              	.L38:
 1052              		.loc 1 416 0
 1053 007e 039B     		ldr	r3, [sp, #12]
 1054 0080 C3F10003 		rsb	r3, r3, #0
 1055 0084 039A     		ldr	r2, [sp, #12]
 1056 0086 02EA0303 		and	r3, r2, r3
 1057 008a 0393     		str	r3, [sp, #12]
 1058              		.loc 1 417 0
 1059 008c 029B     		ldr	r3, [sp, #8]
 1060 008e DA6B     		ldr	r2, [r3, #60]
 1061 0090 039B     		ldr	r3, [sp, #12]
 1062 0092 6FEA0303 		mvn	r3, r3
 1063 0096 02EA0302 		and	r2, r2, r3
 1064 009a 029B     		ldr	r3, [sp, #8]
 1065 009c DA63     		str	r2, [r3, #60]
 1066              		.loc 1 419 0
 1067 009e FFF7FEFF 		bl	dbg_check_unlock
 1068              	.LBB23:
 1069 00a2 4FF00003 		mov	r3, #0
 1070              	@ 419 "../chibios_2.4.x/os/kernel/src/chevents.c" 1
 1071 00a6 83F31188 		msr     BASEPRI, r3
 1072              	@ 0 "" 2
 1073              		.thumb
 1074              	.LBE23:
 1075              		.loc 1 420 0
 1076 00aa 039B     		ldr	r3, [sp, #12]
 1077              	.L40:
 1078              		.loc 1 421 0
 1079 00ac 1846     		mov	r0, r3
 1080 00ae 05B0     		add	sp, sp, #20
 1081 00b0 00BD     		pop	{pc}
 1082              		.cfi_endproc
 1083              	.LFE19:
 1084              		.size	chEvtWaitOneTimeout, .-chEvtWaitOneTimeout
 1085 00b2 00BFAFF3 		.section	.text.chEvtWaitAnyTimeout,"ax",%progbits
 1085      0080AFF3 
 1085      0080AFF3 
 1085      0080
 1086              		.align	2
 1087              		.p2align 4,,15
 1088              		.global	chEvtWaitAnyTimeout
 1089              		.thumb
 1090              		.thumb_func
 1091              		.type	chEvtWaitAnyTimeout, %function
 1092              	chEvtWaitAnyTimeout:
 1093              	.LFB20:
 1094              		.loc 1 441 0
 1095              		.cfi_startproc
ARM GAS  C:\Users\z80\AppData\Local\Temp\cc5VAR70.s 			page 21


 1096              		@ args = 0, pretend = 0, frame = 16
 1097              		@ frame_needed = 0, uses_anonymous_args = 0
 1098 0000 00B5     		push	{lr}
 1099              	.LCFI26:
 1100              		.cfi_def_cfa_offset 4
 1101 0002 85B0     		sub	sp, sp, #20
 1102              	.LCFI27:
 1103              		.cfi_def_cfa_offset 24
 1104 0004 0190     		str	r0, [sp, #4]
 1105 0006 0091     		str	r1, [sp, #0]
 1106              		.loc 1 442 0
 1107 0008 40F20003 		movw	r3, #:lower16:rlist
 1108 000c C0F20003 		movt	r3, #:upper16:rlist
 1109 0010 DB69     		ldr	r3, [r3, #28]
 1110 0012 0293     		str	r3, [sp, #8]
 1111              	.LBB24:
 1112              		.loc 1 445 0
 1113 0014 4FF02003 		mov	r3, #32
 1114              	@ 445 "../chibios_2.4.x/os/kernel/src/chevents.c" 1
 1115 0018 83F31188 		msr     BASEPRI, r3
 1116              	@ 0 "" 2
 1117              		.thumb
 1118              	.LBE24:
 1119              		.cfi_offset 14, -4
 1120 001c FFF7FEFF 		bl	dbg_check_lock
 1121              		.loc 1 447 0
 1122 0020 029B     		ldr	r3, [sp, #8]
 1123 0022 DA6B     		ldr	r2, [r3, #60]
 1124 0024 019B     		ldr	r3, [sp, #4]
 1125 0026 02EA0303 		and	r3, r2, r3
 1126 002a 0393     		str	r3, [sp, #12]
 1127 002c 039B     		ldr	r3, [sp, #12]
 1128 002e 002B     		cmp	r3, #0
 1129 0030 25D1     		bne	.L43
 1130              		.loc 1 448 0
 1131 0032 009B     		ldr	r3, [sp, #0]
 1132 0034 002B     		cmp	r3, #0
 1133 0036 08D1     		bne	.L44
 1134              		.loc 1 449 0
 1135 0038 FFF7FEFF 		bl	dbg_check_unlock
 1136              	.LBB25:
 1137 003c 4FF00003 		mov	r3, #0
 1138              	@ 449 "../chibios_2.4.x/os/kernel/src/chevents.c" 1
 1139 0040 83F31188 		msr     BASEPRI, r3
 1140              	@ 0 "" 2
 1141              		.thumb
 1142              	.LBE25:
 1143              		.loc 1 450 0
 1144 0044 4FF00003 		mov	r3, #0
 1145 0048 29E0     		b	.L45
 1146              	.L44:
 1147              		.loc 1 452 0
 1148 004a 029B     		ldr	r3, [sp, #8]
 1149 004c 019A     		ldr	r2, [sp, #4]
 1150 004e 9A62     		str	r2, [r3, #40]
 1151              		.loc 1 453 0
 1152 0050 4FF00800 		mov	r0, #8
ARM GAS  C:\Users\z80\AppData\Local\Temp\cc5VAR70.s 			page 22


 1153 0054 0099     		ldr	r1, [sp, #0]
 1154 0056 FFF7FEFF 		bl	chSchGoSleepTimeoutS
 1155 005a 0346     		mov	r3, r0
 1156 005c 002B     		cmp	r3, #0
 1157 005e 08DA     		bge	.L46
 1158              		.loc 1 454 0
 1159 0060 FFF7FEFF 		bl	dbg_check_unlock
 1160              	.LBB26:
 1161 0064 4FF00003 		mov	r3, #0
 1162              	@ 454 "../chibios_2.4.x/os/kernel/src/chevents.c" 1
 1163 0068 83F31188 		msr     BASEPRI, r3
 1164              	@ 0 "" 2
 1165              		.thumb
 1166              	.LBE26:
 1167              		.loc 1 455 0
 1168 006c 4FF00003 		mov	r3, #0
 1169 0070 15E0     		b	.L45
 1170              	.L46:
 1171              		.loc 1 457 0
 1172 0072 029B     		ldr	r3, [sp, #8]
 1173 0074 DA6B     		ldr	r2, [r3, #60]
 1174 0076 019B     		ldr	r3, [sp, #4]
 1175 0078 02EA0303 		and	r3, r2, r3
 1176 007c 0393     		str	r3, [sp, #12]
 1177              	.L43:
 1178              		.loc 1 459 0
 1179 007e 029B     		ldr	r3, [sp, #8]
 1180 0080 DA6B     		ldr	r2, [r3, #60]
 1181 0082 039B     		ldr	r3, [sp, #12]
 1182 0084 6FEA0303 		mvn	r3, r3
 1183 0088 02EA0302 		and	r2, r2, r3
 1184 008c 029B     		ldr	r3, [sp, #8]
 1185 008e DA63     		str	r2, [r3, #60]
 1186              		.loc 1 461 0
 1187 0090 FFF7FEFF 		bl	dbg_check_unlock
 1188              	.LBB27:
 1189 0094 4FF00003 		mov	r3, #0
 1190              	@ 461 "../chibios_2.4.x/os/kernel/src/chevents.c" 1
 1191 0098 83F31188 		msr     BASEPRI, r3
 1192              	@ 0 "" 2
 1193              		.thumb
 1194              	.LBE27:
 1195              		.loc 1 462 0
 1196 009c 039B     		ldr	r3, [sp, #12]
 1197              	.L45:
 1198              		.loc 1 463 0
 1199 009e 1846     		mov	r0, r3
 1200 00a0 05B0     		add	sp, sp, #20
 1201 00a2 00BD     		pop	{pc}
 1202              		.cfi_endproc
 1203              	.LFE20:
 1204              		.size	chEvtWaitAnyTimeout, .-chEvtWaitAnyTimeout
 1205 00a4 AFF30080 		.section	.text.chEvtWaitAllTimeout,"ax",%progbits
 1205      AFF30080 
 1205      AFF30080 
 1206              		.align	2
 1207              		.p2align 4,,15
ARM GAS  C:\Users\z80\AppData\Local\Temp\cc5VAR70.s 			page 23


 1208              		.global	chEvtWaitAllTimeout
 1209              		.thumb
 1210              		.thumb_func
 1211              		.type	chEvtWaitAllTimeout, %function
 1212              	chEvtWaitAllTimeout:
 1213              	.LFB21:
 1214              		.loc 1 482 0
 1215              		.cfi_startproc
 1216              		@ args = 0, pretend = 0, frame = 16
 1217              		@ frame_needed = 0, uses_anonymous_args = 0
 1218 0000 00B5     		push	{lr}
 1219              	.LCFI28:
 1220              		.cfi_def_cfa_offset 4
 1221 0002 85B0     		sub	sp, sp, #20
 1222              	.LCFI29:
 1223              		.cfi_def_cfa_offset 24
 1224 0004 0190     		str	r0, [sp, #4]
 1225 0006 0091     		str	r1, [sp, #0]
 1226              		.loc 1 483 0
 1227 0008 40F20003 		movw	r3, #:lower16:rlist
 1228 000c C0F20003 		movt	r3, #:upper16:rlist
 1229 0010 DB69     		ldr	r3, [r3, #28]
 1230 0012 0393     		str	r3, [sp, #12]
 1231              	.LBB28:
 1232              		.loc 1 485 0
 1233 0014 4FF02003 		mov	r3, #32
 1234              	@ 485 "../chibios_2.4.x/os/kernel/src/chevents.c" 1
 1235 0018 83F31188 		msr     BASEPRI, r3
 1236              	@ 0 "" 2
 1237              		.thumb
 1238              	.LBE28:
 1239              		.cfi_offset 14, -4
 1240 001c FFF7FEFF 		bl	dbg_check_lock
 1241              		.loc 1 487 0
 1242 0020 039B     		ldr	r3, [sp, #12]
 1243 0022 DA6B     		ldr	r2, [r3, #60]
 1244 0024 019B     		ldr	r3, [sp, #4]
 1245 0026 02EA0302 		and	r2, r2, r3
 1246 002a 019B     		ldr	r3, [sp, #4]
 1247 002c 9A42     		cmp	r2, r3
 1248 002e 1FD0     		beq	.L48
 1249              		.loc 1 488 0
 1250 0030 009B     		ldr	r3, [sp, #0]
 1251 0032 002B     		cmp	r3, #0
 1252 0034 08D1     		bne	.L49
 1253              		.loc 1 489 0
 1254 0036 FFF7FEFF 		bl	dbg_check_unlock
 1255              	.LBB29:
 1256 003a 4FF00003 		mov	r3, #0
 1257              	@ 489 "../chibios_2.4.x/os/kernel/src/chevents.c" 1
 1258 003e 83F31188 		msr     BASEPRI, r3
 1259              	@ 0 "" 2
 1260              		.thumb
 1261              	.LBE29:
 1262              		.loc 1 490 0
 1263 0042 4FF00003 		mov	r3, #0
 1264 0046 23E0     		b	.L50
ARM GAS  C:\Users\z80\AppData\Local\Temp\cc5VAR70.s 			page 24


 1265              	.L49:
 1266              		.loc 1 492 0
 1267 0048 039B     		ldr	r3, [sp, #12]
 1268 004a 019A     		ldr	r2, [sp, #4]
 1269 004c 9A62     		str	r2, [r3, #40]
 1270              		.loc 1 493 0
 1271 004e 4FF00900 		mov	r0, #9
 1272 0052 0099     		ldr	r1, [sp, #0]
 1273 0054 FFF7FEFF 		bl	chSchGoSleepTimeoutS
 1274 0058 0346     		mov	r3, r0
 1275 005a 002B     		cmp	r3, #0
 1276 005c 08DA     		bge	.L48
 1277              		.loc 1 494 0
 1278 005e FFF7FEFF 		bl	dbg_check_unlock
 1279              	.LBB30:
 1280 0062 4FF00003 		mov	r3, #0
 1281              	@ 494 "../chibios_2.4.x/os/kernel/src/chevents.c" 1
 1282 0066 83F31188 		msr     BASEPRI, r3
 1283              	@ 0 "" 2
 1284              		.thumb
 1285              	.LBE30:
 1286              		.loc 1 495 0
 1287 006a 4FF00003 		mov	r3, #0
 1288 006e 0FE0     		b	.L50
 1289              	.L48:
 1290              		.loc 1 498 0
 1291 0070 039B     		ldr	r3, [sp, #12]
 1292 0072 DA6B     		ldr	r2, [r3, #60]
 1293 0074 019B     		ldr	r3, [sp, #4]
 1294 0076 6FEA0303 		mvn	r3, r3
 1295 007a 02EA0302 		and	r2, r2, r3
 1296 007e 039B     		ldr	r3, [sp, #12]
 1297 0080 DA63     		str	r2, [r3, #60]
 1298              		.loc 1 500 0
 1299 0082 FFF7FEFF 		bl	dbg_check_unlock
 1300              	.LBB31:
 1301 0086 4FF00003 		mov	r3, #0
 1302              	@ 500 "../chibios_2.4.x/os/kernel/src/chevents.c" 1
 1303 008a 83F31188 		msr     BASEPRI, r3
 1304              	@ 0 "" 2
 1305              		.thumb
 1306              	.LBE31:
 1307              		.loc 1 501 0
 1308 008e 019B     		ldr	r3, [sp, #4]
 1309              	.L50:
 1310              		.loc 1 502 0
 1311 0090 1846     		mov	r0, r3
 1312 0092 05B0     		add	sp, sp, #20
 1313 0094 00BD     		pop	{pc}
 1314              		.cfi_endproc
 1315              	.LFE21:
 1316              		.size	chEvtWaitAllTimeout, .-chEvtWaitAllTimeout
 1317 0096 00BFAFF3 		.text
 1317      0080AFF3 
 1317      0080
 1318              	.Letext0:
 1319              		.section	.debug_loc,"",%progbits
ARM GAS  C:\Users\z80\AppData\Local\Temp\cc5VAR70.s 			page 25


 1320              	.Ldebug_loc0:
 1321              	.LLST0:
 1322 0000 00000000 		.4byte	.LFB7
 1323 0004 02000000 		.4byte	.LCFI0
 1324 0008 0200     		.2byte	0x2
 1325 000a 7D       		.byte	0x7d
 1326 000b 00       		.sleb128 0
 1327 000c 02000000 		.4byte	.LCFI0
 1328 0010 04000000 		.4byte	.LCFI1
 1329 0014 0200     		.2byte	0x2
 1330 0016 7D       		.byte	0x7d
 1331 0017 04       		.sleb128 4
 1332 0018 04000000 		.4byte	.LCFI1
 1333 001c 60000000 		.4byte	.LFE7
 1334 0020 0200     		.2byte	0x2
 1335 0022 7D       		.byte	0x7d
 1336 0023 18       		.sleb128 24
 1337 0024 00000000 		.4byte	0x0
 1338 0028 00000000 		.4byte	0x0
 1339              	.LLST1:
 1340 002c 00000000 		.4byte	.LFB8
 1341 0030 02000000 		.4byte	.LCFI2
 1342 0034 0200     		.2byte	0x2
 1343 0036 7D       		.byte	0x7d
 1344 0037 00       		.sleb128 0
 1345 0038 02000000 		.4byte	.LCFI2
 1346 003c 04000000 		.4byte	.LCFI3
 1347 0040 0200     		.2byte	0x2
 1348 0042 7D       		.byte	0x7d
 1349 0043 04       		.sleb128 4
 1350 0044 04000000 		.4byte	.LCFI3
 1351 0048 66000000 		.4byte	.LFE8
 1352 004c 0200     		.2byte	0x2
 1353 004e 7D       		.byte	0x7d
 1354 004f 18       		.sleb128 24
 1355 0050 00000000 		.4byte	0x0
 1356 0054 00000000 		.4byte	0x0
 1357              	.LLST2:
 1358 0058 00000000 		.4byte	.LFB9
 1359 005c 02000000 		.4byte	.LCFI4
 1360 0060 0200     		.2byte	0x2
 1361 0062 7D       		.byte	0x7d
 1362 0063 00       		.sleb128 0
 1363 0064 02000000 		.4byte	.LCFI4
 1364 0068 04000000 		.4byte	.LCFI5
 1365 006c 0200     		.2byte	0x2
 1366 006e 7D       		.byte	0x7d
 1367 006f 04       		.sleb128 4
 1368 0070 04000000 		.4byte	.LCFI5
 1369 0074 5C000000 		.4byte	.LFE9
 1370 0078 0200     		.2byte	0x2
 1371 007a 7D       		.byte	0x7d
 1372 007b 18       		.sleb128 24
 1373 007c 00000000 		.4byte	0x0
 1374 0080 00000000 		.4byte	0x0
 1375              	.LLST3:
 1376 0084 00000000 		.4byte	.LFB10
ARM GAS  C:\Users\z80\AppData\Local\Temp\cc5VAR70.s 			page 26


 1377 0088 02000000 		.4byte	.LCFI6
 1378 008c 0200     		.2byte	0x2
 1379 008e 7D       		.byte	0x7d
 1380 008f 00       		.sleb128 0
 1381 0090 02000000 		.4byte	.LCFI6
 1382 0094 04000000 		.4byte	.LCFI7
 1383 0098 0200     		.2byte	0x2
 1384 009a 7D       		.byte	0x7d
 1385 009b 04       		.sleb128 4
 1386 009c 04000000 		.4byte	.LCFI7
 1387 00a0 48000000 		.4byte	.LFE10
 1388 00a4 0200     		.2byte	0x2
 1389 00a6 7D       		.byte	0x7d
 1390 00a7 10       		.sleb128 16
 1391 00a8 00000000 		.4byte	0x0
 1392 00ac 00000000 		.4byte	0x0
 1393              	.LLST4:
 1394 00b0 00000000 		.4byte	.LFB11
 1395 00b4 02000000 		.4byte	.LCFI8
 1396 00b8 0200     		.2byte	0x2
 1397 00ba 7D       		.byte	0x7d
 1398 00bb 00       		.sleb128 0
 1399 00bc 02000000 		.4byte	.LCFI8
 1400 00c0 04000000 		.4byte	.LCFI9
 1401 00c4 0200     		.2byte	0x2
 1402 00c6 7D       		.byte	0x7d
 1403 00c7 04       		.sleb128 4
 1404 00c8 04000000 		.4byte	.LCFI9
 1405 00cc 42000000 		.4byte	.LFE11
 1406 00d0 0200     		.2byte	0x2
 1407 00d2 7D       		.byte	0x7d
 1408 00d3 10       		.sleb128 16
 1409 00d4 00000000 		.4byte	0x0
 1410 00d8 00000000 		.4byte	0x0
 1411              	.LLST5:
 1412 00dc 00000000 		.4byte	.LFB12
 1413 00e0 02000000 		.4byte	.LCFI10
 1414 00e4 0200     		.2byte	0x2
 1415 00e6 7D       		.byte	0x7d
 1416 00e7 00       		.sleb128 0
 1417 00e8 02000000 		.4byte	.LCFI10
 1418 00ec 04000000 		.4byte	.LCFI11
 1419 00f0 0200     		.2byte	0x2
 1420 00f2 7D       		.byte	0x7d
 1421 00f3 04       		.sleb128 4
 1422 00f4 04000000 		.4byte	.LCFI11
 1423 00f8 76000000 		.4byte	.LFE12
 1424 00fc 0200     		.2byte	0x2
 1425 00fe 7D       		.byte	0x7d
 1426 00ff 10       		.sleb128 16
 1427 0100 00000000 		.4byte	0x0
 1428 0104 00000000 		.4byte	0x0
 1429              	.LLST6:
 1430 0108 00000000 		.4byte	.LFB13
 1431 010c 02000000 		.4byte	.LCFI12
 1432 0110 0200     		.2byte	0x2
 1433 0112 7D       		.byte	0x7d
ARM GAS  C:\Users\z80\AppData\Local\Temp\cc5VAR70.s 			page 27


 1434 0113 00       		.sleb128 0
 1435 0114 02000000 		.4byte	.LCFI12
 1436 0118 04000000 		.4byte	.LCFI13
 1437 011c 0200     		.2byte	0x2
 1438 011e 7D       		.byte	0x7d
 1439 011f 04       		.sleb128 4
 1440 0120 04000000 		.4byte	.LCFI13
 1441 0124 30000000 		.4byte	.LFE13
 1442 0128 0200     		.2byte	0x2
 1443 012a 7D       		.byte	0x7d
 1444 012b 10       		.sleb128 16
 1445 012c 00000000 		.4byte	0x0
 1446 0130 00000000 		.4byte	0x0
 1447              	.LLST7:
 1448 0134 00000000 		.4byte	.LFB14
 1449 0138 02000000 		.4byte	.LCFI14
 1450 013c 0200     		.2byte	0x2
 1451 013e 7D       		.byte	0x7d
 1452 013f 00       		.sleb128 0
 1453 0140 02000000 		.4byte	.LCFI14
 1454 0144 04000000 		.4byte	.LCFI15
 1455 0148 0200     		.2byte	0x2
 1456 014a 7D       		.byte	0x7d
 1457 014b 04       		.sleb128 4
 1458 014c 04000000 		.4byte	.LCFI15
 1459 0150 4E000000 		.4byte	.LFE14
 1460 0154 0200     		.2byte	0x2
 1461 0156 7D       		.byte	0x7d
 1462 0157 18       		.sleb128 24
 1463 0158 00000000 		.4byte	0x0
 1464 015c 00000000 		.4byte	0x0
 1465              	.LLST8:
 1466 0160 00000000 		.4byte	.LFB15
 1467 0164 02000000 		.4byte	.LCFI16
 1468 0168 0200     		.2byte	0x2
 1469 016a 7D       		.byte	0x7d
 1470 016b 00       		.sleb128 0
 1471 016c 02000000 		.4byte	.LCFI16
 1472 0170 04000000 		.4byte	.LCFI17
 1473 0174 0200     		.2byte	0x2
 1474 0176 7D       		.byte	0x7d
 1475 0177 04       		.sleb128 4
 1476 0178 04000000 		.4byte	.LCFI17
 1477 017c 8C000000 		.4byte	.LFE15
 1478 0180 0200     		.2byte	0x2
 1479 0182 7D       		.byte	0x7d
 1480 0183 18       		.sleb128 24
 1481 0184 00000000 		.4byte	0x0
 1482 0188 00000000 		.4byte	0x0
 1483              	.LLST9:
 1484 018c 00000000 		.4byte	.LFB16
 1485 0190 02000000 		.4byte	.LCFI18
 1486 0194 0200     		.2byte	0x2
 1487 0196 7D       		.byte	0x7d
 1488 0197 00       		.sleb128 0
 1489 0198 02000000 		.4byte	.LCFI18
 1490 019c 04000000 		.4byte	.LCFI19
ARM GAS  C:\Users\z80\AppData\Local\Temp\cc5VAR70.s 			page 28


 1491 01a0 0200     		.2byte	0x2
 1492 01a2 7D       		.byte	0x7d
 1493 01a3 04       		.sleb128 4
 1494 01a4 04000000 		.4byte	.LCFI19
 1495 01a8 7E000000 		.4byte	.LFE16
 1496 01ac 0200     		.2byte	0x2
 1497 01ae 7D       		.byte	0x7d
 1498 01af 18       		.sleb128 24
 1499 01b0 00000000 		.4byte	0x0
 1500 01b4 00000000 		.4byte	0x0
 1501              	.LLST10:
 1502 01b8 00000000 		.4byte	.LFB17
 1503 01bc 02000000 		.4byte	.LCFI20
 1504 01c0 0200     		.2byte	0x2
 1505 01c2 7D       		.byte	0x7d
 1506 01c3 00       		.sleb128 0
 1507 01c4 02000000 		.4byte	.LCFI20
 1508 01c8 04000000 		.4byte	.LCFI21
 1509 01cc 0200     		.2byte	0x2
 1510 01ce 7D       		.byte	0x7d
 1511 01cf 04       		.sleb128 4
 1512 01d0 04000000 		.4byte	.LCFI21
 1513 01d4 70000000 		.4byte	.LFE17
 1514 01d8 0200     		.2byte	0x2
 1515 01da 7D       		.byte	0x7d
 1516 01db 18       		.sleb128 24
 1517 01dc 00000000 		.4byte	0x0
 1518 01e0 00000000 		.4byte	0x0
 1519              	.LLST11:
 1520 01e4 00000000 		.4byte	.LFB18
 1521 01e8 02000000 		.4byte	.LCFI22
 1522 01ec 0200     		.2byte	0x2
 1523 01ee 7D       		.byte	0x7d
 1524 01ef 00       		.sleb128 0
 1525 01f0 02000000 		.4byte	.LCFI22
 1526 01f4 04000000 		.4byte	.LCFI23
 1527 01f8 0200     		.2byte	0x2
 1528 01fa 7D       		.byte	0x7d
 1529 01fb 04       		.sleb128 4
 1530 01fc 04000000 		.4byte	.LCFI23
 1531 0200 62000000 		.4byte	.LFE18
 1532 0204 0200     		.2byte	0x2
 1533 0206 7D       		.byte	0x7d
 1534 0207 18       		.sleb128 24
 1535 0208 00000000 		.4byte	0x0
 1536 020c 00000000 		.4byte	0x0
 1537              	.LLST12:
 1538 0210 00000000 		.4byte	.LFB19
 1539 0214 02000000 		.4byte	.LCFI24
 1540 0218 0200     		.2byte	0x2
 1541 021a 7D       		.byte	0x7d
 1542 021b 00       		.sleb128 0
 1543 021c 02000000 		.4byte	.LCFI24
 1544 0220 04000000 		.4byte	.LCFI25
 1545 0224 0200     		.2byte	0x2
 1546 0226 7D       		.byte	0x7d
 1547 0227 04       		.sleb128 4
ARM GAS  C:\Users\z80\AppData\Local\Temp\cc5VAR70.s 			page 29


 1548 0228 04000000 		.4byte	.LCFI25
 1549 022c B2000000 		.4byte	.LFE19
 1550 0230 0200     		.2byte	0x2
 1551 0232 7D       		.byte	0x7d
 1552 0233 18       		.sleb128 24
 1553 0234 00000000 		.4byte	0x0
 1554 0238 00000000 		.4byte	0x0
 1555              	.LLST13:
 1556 023c 00000000 		.4byte	.LFB20
 1557 0240 02000000 		.4byte	.LCFI26
 1558 0244 0200     		.2byte	0x2
 1559 0246 7D       		.byte	0x7d
 1560 0247 00       		.sleb128 0
 1561 0248 02000000 		.4byte	.LCFI26
 1562 024c 04000000 		.4byte	.LCFI27
 1563 0250 0200     		.2byte	0x2
 1564 0252 7D       		.byte	0x7d
 1565 0253 04       		.sleb128 4
 1566 0254 04000000 		.4byte	.LCFI27
 1567 0258 A4000000 		.4byte	.LFE20
 1568 025c 0200     		.2byte	0x2
 1569 025e 7D       		.byte	0x7d
 1570 025f 18       		.sleb128 24
 1571 0260 00000000 		.4byte	0x0
 1572 0264 00000000 		.4byte	0x0
 1573              	.LLST14:
 1574 0268 00000000 		.4byte	.LFB21
 1575 026c 02000000 		.4byte	.LCFI28
 1576 0270 0200     		.2byte	0x2
 1577 0272 7D       		.byte	0x7d
 1578 0273 00       		.sleb128 0
 1579 0274 02000000 		.4byte	.LCFI28
 1580 0278 04000000 		.4byte	.LCFI29
 1581 027c 0200     		.2byte	0x2
 1582 027e 7D       		.byte	0x7d
 1583 027f 04       		.sleb128 4
 1584 0280 04000000 		.4byte	.LCFI29
 1585 0284 96000000 		.4byte	.LFE21
 1586 0288 0200     		.2byte	0x2
 1587 028a 7D       		.byte	0x7d
 1588 028b 18       		.sleb128 24
 1589 028c 00000000 		.4byte	0x0
 1590 0290 00000000 		.4byte	0x0
 1591              		.file 2 "c:/programs/yagarto/lib/gcc/../../arm-none-eabi/sys-include/stdint.h"
 1592              		.file 3 "../chibios_2.4.x/os/ports/GCC/ARMCMx/chtypes.h"
 1593              		.file 4 "../chibios_2.4.x/os/kernel/include/chlists.h"
 1594              		.file 5 "../chibios_2.4.x/os/kernel/include/chthreads.h"
 1595              		.file 6 "../chibios_2.4.x/os/ports/GCC/ARMCMx/chcore_v7m.h"
 1596              		.file 7 "../chibios_2.4.x/os/kernel/include/chschd.h"
 1597              		.file 8 "../chibios_2.4.x/os/kernel/include/chmtx.h"
 1598              		.file 9 "../chibios_2.4.x/os/kernel/include/chevents.h"
 1599              		.section	.debug_info
 1600 0000 E40B0000 		.4byte	0xbe4
 1601 0004 0200     		.2byte	0x2
 1602 0006 00000000 		.4byte	.Ldebug_abbrev0
 1603 000a 04       		.byte	0x4
 1604 000b 01       		.uleb128 0x1
ARM GAS  C:\Users\z80\AppData\Local\Temp\cc5VAR70.s 			page 30


 1605 000c C5030000 		.4byte	.LASF88
 1606 0010 01       		.byte	0x1
 1607 0011 E8010000 		.4byte	.LASF89
 1608 0015 3B020000 		.4byte	.LASF90
 1609 0019 00000000 		.4byte	0x0
 1610 001d 00000000 		.4byte	0x0
 1611 0021 00000000 		.4byte	.Ldebug_ranges0+0x0
 1612 0025 00000000 		.4byte	.Ldebug_line0
 1613 0029 02       		.uleb128 0x2
 1614 002a 04       		.byte	0x4
 1615 002b 05       		.byte	0x5
 1616 002c 696E7400 		.ascii	"int\000"
 1617 0030 03       		.uleb128 0x3
 1618 0031 04       		.byte	0x4
 1619 0032 07       		.byte	0x7
 1620 0033 4D010000 		.4byte	.LASF0
 1621 0037 03       		.uleb128 0x3
 1622 0038 01       		.byte	0x1
 1623 0039 06       		.byte	0x6
 1624 003a 71000000 		.4byte	.LASF1
 1625 003e 04       		.uleb128 0x4
 1626 003f AF030000 		.4byte	.LASF5
 1627 0043 02       		.byte	0x2
 1628 0044 2A       		.byte	0x2a
 1629 0045 49000000 		.4byte	0x49
 1630 0049 03       		.uleb128 0x3
 1631 004a 01       		.byte	0x1
 1632 004b 08       		.byte	0x8
 1633 004c C6020000 		.4byte	.LASF2
 1634 0050 03       		.uleb128 0x3
 1635 0051 02       		.byte	0x2
 1636 0052 05       		.byte	0x5
 1637 0053 F7020000 		.4byte	.LASF3
 1638 0057 03       		.uleb128 0x3
 1639 0058 02       		.byte	0x2
 1640 0059 07       		.byte	0x7
 1641 005a 74010000 		.4byte	.LASF4
 1642 005e 04       		.uleb128 0x4
 1643 005f BE020000 		.4byte	.LASF6
 1644 0063 02       		.byte	0x2
 1645 0064 4F       		.byte	0x4f
 1646 0065 69000000 		.4byte	0x69
 1647 0069 03       		.uleb128 0x3
 1648 006a 04       		.byte	0x4
 1649 006b 05       		.byte	0x5
 1650 006c A7000000 		.4byte	.LASF7
 1651 0070 04       		.uleb128 0x4
 1652 0071 38030000 		.4byte	.LASF8
 1653 0075 02       		.byte	0x2
 1654 0076 50       		.byte	0x50
 1655 0077 7B000000 		.4byte	0x7b
 1656 007b 03       		.uleb128 0x3
 1657 007c 04       		.byte	0x4
 1658 007d 07       		.byte	0x7
 1659 007e 5A010000 		.4byte	.LASF9
 1660 0082 03       		.uleb128 0x3
 1661 0083 08       		.byte	0x8
ARM GAS  C:\Users\z80\AppData\Local\Temp\cc5VAR70.s 			page 31


 1662 0084 05       		.byte	0x5
 1663 0085 63000000 		.4byte	.LASF10
 1664 0089 04       		.uleb128 0x4
 1665 008a 0D000000 		.4byte	.LASF11
 1666 008e 02       		.byte	0x2
 1667 008f 78       		.byte	0x78
 1668 0090 94000000 		.4byte	0x94
 1669 0094 03       		.uleb128 0x3
 1670 0095 08       		.byte	0x8
 1671 0096 07       		.byte	0x7
 1672 0097 16000000 		.4byte	.LASF12
 1673 009b 04       		.uleb128 0x4
 1674 009c B7010000 		.4byte	.LASF13
 1675 00a0 03       		.byte	0x3
 1676 00a1 2F       		.byte	0x2f
 1677 00a2 3E000000 		.4byte	0x3e
 1678 00a6 04       		.uleb128 0x4
 1679 00a7 B0000000 		.4byte	.LASF14
 1680 00ab 03       		.byte	0x3
 1681 00ac 30       		.byte	0x30
 1682 00ad 3E000000 		.4byte	0x3e
 1683 00b1 04       		.uleb128 0x4
 1684 00b2 A6020000 		.4byte	.LASF15
 1685 00b6 03       		.byte	0x3
 1686 00b7 32       		.byte	0x32
 1687 00b8 70000000 		.4byte	0x70
 1688 00bc 04       		.uleb128 0x4
 1689 00bd 99010000 		.4byte	.LASF16
 1690 00c1 03       		.byte	0x3
 1691 00c2 33       		.byte	0x33
 1692 00c3 5E000000 		.4byte	0x5e
 1693 00c7 04       		.uleb128 0x4
 1694 00c8 1A010000 		.4byte	.LASF17
 1695 00cc 03       		.byte	0x3
 1696 00cd 34       		.byte	0x34
 1697 00ce 5E000000 		.4byte	0x5e
 1698 00d2 04       		.uleb128 0x4
 1699 00d3 CB010000 		.4byte	.LASF18
 1700 00d7 03       		.byte	0x3
 1701 00d8 35       		.byte	0x35
 1702 00d9 70000000 		.4byte	0x70
 1703 00dd 04       		.uleb128 0x4
 1704 00de 55030000 		.4byte	.LASF19
 1705 00e2 03       		.byte	0x3
 1706 00e3 36       		.byte	0x36
 1707 00e4 70000000 		.4byte	0x70
 1708 00e8 04       		.uleb128 0x4
 1709 00e9 3C010000 		.4byte	.LASF20
 1710 00ed 03       		.byte	0x3
 1711 00ee 37       		.byte	0x37
 1712 00ef 5E000000 		.4byte	0x5e
 1713 00f3 04       		.uleb128 0x4
 1714 00f4 26030000 		.4byte	.LASF21
 1715 00f8 04       		.byte	0x4
 1716 00f9 2A       		.byte	0x2a
 1717 00fa FE000000 		.4byte	0xfe
 1718 00fe 05       		.uleb128 0x5
ARM GAS  C:\Users\z80\AppData\Local\Temp\cc5VAR70.s 			page 32


 1719 00ff 26030000 		.4byte	.LASF21
 1720 0103 48       		.byte	0x48
 1721 0104 05       		.byte	0x5
 1722 0105 5E       		.byte	0x5e
 1723 0106 07020000 		.4byte	0x207
 1724 010a 06       		.uleb128 0x6
 1725 010b 17030000 		.4byte	.LASF22
 1726 010f 05       		.byte	0x5
 1727 0110 5F       		.byte	0x5f
 1728 0111 2C020000 		.4byte	0x22c
 1729 0115 02       		.byte	0x2
 1730 0116 23       		.byte	0x23
 1731 0117 00       		.uleb128 0x0
 1732 0118 06       		.uleb128 0x6
 1733 0119 9F020000 		.4byte	.LASF23
 1734 011d 05       		.byte	0x5
 1735 011e 61       		.byte	0x61
 1736 011f 2C020000 		.4byte	0x22c
 1737 0123 02       		.byte	0x2
 1738 0124 23       		.byte	0x23
 1739 0125 04       		.uleb128 0x4
 1740 0126 06       		.uleb128 0x6
 1741 0127 5C000000 		.4byte	.LASF24
 1742 012b 05       		.byte	0x5
 1743 012c 63       		.byte	0x63
 1744 012d B1000000 		.4byte	0xb1
 1745 0131 02       		.byte	0x2
 1746 0132 23       		.byte	0x23
 1747 0133 08       		.uleb128 0x8
 1748 0134 06       		.uleb128 0x6
 1749 0135 F1030000 		.4byte	.LASF25
 1750 0139 05       		.byte	0x5
 1751 013a 64       		.byte	0x64
 1752 013b 04030000 		.4byte	0x304
 1753 013f 02       		.byte	0x2
 1754 0140 23       		.byte	0x23
 1755 0141 0C       		.uleb128 0xc
 1756 0142 06       		.uleb128 0x6
 1757 0143 E8000000 		.4byte	.LASF26
 1758 0147 05       		.byte	0x5
 1759 0148 66       		.byte	0x66
 1760 0149 2C020000 		.4byte	0x22c
 1761 014d 02       		.byte	0x2
 1762 014e 23       		.byte	0x23
 1763 014f 10       		.uleb128 0x10
 1764 0150 06       		.uleb128 0x6
 1765 0151 20020000 		.4byte	.LASF27
 1766 0155 05       		.byte	0x5
 1767 0156 67       		.byte	0x67
 1768 0157 2C020000 		.4byte	0x22c
 1769 015b 02       		.byte	0x2
 1770 015c 23       		.byte	0x23
 1771 015d 14       		.uleb128 0x14
 1772 015e 06       		.uleb128 0x6
 1773 015f D8030000 		.4byte	.LASF28
 1774 0163 05       		.byte	0x5
 1775 0164 6E       		.byte	0x6e
ARM GAS  C:\Users\z80\AppData\Local\Temp\cc5VAR70.s 			page 33


 1776 0165 AD040000 		.4byte	0x4ad
 1777 0169 02       		.byte	0x2
 1778 016a 23       		.byte	0x23
 1779 016b 18       		.uleb128 0x18
 1780 016c 06       		.uleb128 0x6
 1781 016d 42010000 		.4byte	.LASF29
 1782 0171 05       		.byte	0x5
 1783 0172 74       		.byte	0x74
 1784 0173 BF040000 		.4byte	0x4bf
 1785 0177 02       		.byte	0x2
 1786 0178 23       		.byte	0x23
 1787 0179 1C       		.uleb128 0x1c
 1788 017a 06       		.uleb128 0x6
 1789 017b 01030000 		.4byte	.LASF30
 1790 017f 05       		.byte	0x5
 1791 0180 79       		.byte	0x79
 1792 0181 A6000000 		.4byte	0xa6
 1793 0185 02       		.byte	0x2
 1794 0186 23       		.byte	0x23
 1795 0187 20       		.uleb128 0x20
 1796 0188 06       		.uleb128 0x6
 1797 0189 1E030000 		.4byte	.LASF31
 1798 018d 05       		.byte	0x5
 1799 018e 7D       		.byte	0x7d
 1800 018f 9B000000 		.4byte	0x9b
 1801 0193 02       		.byte	0x2
 1802 0194 23       		.byte	0x23
 1803 0195 21       		.uleb128 0x21
 1804 0196 06       		.uleb128 0x6
 1805 0197 6A030000 		.4byte	.LASF32
 1806 019b 05       		.byte	0x5
 1807 019c 89       		.byte	0x89
 1808 019d 2A030000 		.4byte	0x32a
 1809 01a1 02       		.byte	0x2
 1810 01a2 23       		.byte	0x23
 1811 01a3 24       		.uleb128 0x24
 1812 01a4 07       		.uleb128 0x7
 1813 01a5 705F7500 		.ascii	"p_u\000"
 1814 01a9 05       		.byte	0x5
 1815 01aa AE       		.byte	0xae
 1816 01ab 78040000 		.4byte	0x478
 1817 01af 02       		.byte	0x2
 1818 01b0 23       		.byte	0x23
 1819 01b1 28       		.uleb128 0x28
 1820 01b2 06       		.uleb128 0x6
 1821 01b3 F7030000 		.4byte	.LASF33
 1822 01b7 05       		.byte	0x5
 1823 01b8 B3       		.byte	0xb3
 1824 01b9 54020000 		.4byte	0x254
 1825 01bd 02       		.byte	0x2
 1826 01be 23       		.byte	0x23
 1827 01bf 2C       		.uleb128 0x2c
 1828 01c0 06       		.uleb128 0x6
 1829 01c1 8C030000 		.4byte	.LASF34
 1830 01c5 05       		.byte	0x5
 1831 01c6 B9       		.byte	0xb9
 1832 01c7 32020000 		.4byte	0x232
ARM GAS  C:\Users\z80\AppData\Local\Temp\cc5VAR70.s 			page 34


 1833 01cb 02       		.byte	0x2
 1834 01cc 23       		.byte	0x23
 1835 01cd 30       		.uleb128 0x30
 1836 01ce 06       		.uleb128 0x6
 1837 01cf 00000000 		.4byte	.LASF35
 1838 01d3 05       		.byte	0x5
 1839 01d4 BD       		.byte	0xbd
 1840 01d5 BC000000 		.4byte	0xbc
 1841 01d9 02       		.byte	0x2
 1842 01da 23       		.byte	0x23
 1843 01db 38       		.uleb128 0x38
 1844 01dc 06       		.uleb128 0x6
 1845 01dd 2D030000 		.4byte	.LASF36
 1846 01e1 05       		.byte	0x5
 1847 01e2 C3       		.byte	0xc3
 1848 01e3 D2000000 		.4byte	0xd2
 1849 01e7 02       		.byte	0x2
 1850 01e8 23       		.byte	0x23
 1851 01e9 3C       		.uleb128 0x3c
 1852 01ea 06       		.uleb128 0x6
 1853 01eb ED020000 		.4byte	.LASF37
 1854 01ef 05       		.byte	0x5
 1855 01f0 CA       		.byte	0xca
 1856 01f1 C5040000 		.4byte	0x4c5
 1857 01f5 02       		.byte	0x2
 1858 01f6 23       		.byte	0x23
 1859 01f7 40       		.uleb128 0x40
 1860 01f8 06       		.uleb128 0x6
 1861 01f9 5F030000 		.4byte	.LASF38
 1862 01fd 05       		.byte	0x5
 1863 01fe CE       		.byte	0xce
 1864 01ff B1000000 		.4byte	0xb1
 1865 0203 02       		.byte	0x2
 1866 0204 23       		.byte	0x23
 1867 0205 44       		.uleb128 0x44
 1868 0206 00       		.byte	0x0
 1869 0207 08       		.uleb128 0x8
 1870 0208 08       		.byte	0x8
 1871 0209 04       		.byte	0x4
 1872 020a 61       		.byte	0x61
 1873 020b 2C020000 		.4byte	0x22c
 1874 020f 06       		.uleb128 0x6
 1875 0210 17030000 		.4byte	.LASF22
 1876 0214 04       		.byte	0x4
 1877 0215 62       		.byte	0x62
 1878 0216 2C020000 		.4byte	0x22c
 1879 021a 02       		.byte	0x2
 1880 021b 23       		.byte	0x23
 1881 021c 00       		.uleb128 0x0
 1882 021d 06       		.uleb128 0x6
 1883 021e 9F020000 		.4byte	.LASF23
 1884 0222 04       		.byte	0x4
 1885 0223 64       		.byte	0x64
 1886 0224 2C020000 		.4byte	0x22c
 1887 0228 02       		.byte	0x2
 1888 0229 23       		.byte	0x23
 1889 022a 04       		.uleb128 0x4
ARM GAS  C:\Users\z80\AppData\Local\Temp\cc5VAR70.s 			page 35


 1890 022b 00       		.byte	0x0
 1891 022c 09       		.uleb128 0x9
 1892 022d 04       		.byte	0x4
 1893 022e F3000000 		.4byte	0xf3
 1894 0232 04       		.uleb128 0x4
 1895 0233 2E020000 		.4byte	.LASF39
 1896 0237 04       		.byte	0x4
 1897 0238 66       		.byte	0x66
 1898 0239 07020000 		.4byte	0x207
 1899 023d 08       		.uleb128 0x8
 1900 023e 04       		.byte	0x4
 1901 023f 04       		.byte	0x4
 1902 0240 6B       		.byte	0x6b
 1903 0241 54020000 		.4byte	0x254
 1904 0245 06       		.uleb128 0x6
 1905 0246 17030000 		.4byte	.LASF22
 1906 024a 04       		.byte	0x4
 1907 024b 6D       		.byte	0x6d
 1908 024c 2C020000 		.4byte	0x22c
 1909 0250 02       		.byte	0x2
 1910 0251 23       		.byte	0x23
 1911 0252 00       		.uleb128 0x0
 1912 0253 00       		.byte	0x0
 1913 0254 04       		.uleb128 0x4
 1914 0255 BF010000 		.4byte	.LASF40
 1915 0259 04       		.byte	0x4
 1916 025a 70       		.byte	0x70
 1917 025b 3D020000 		.4byte	0x23d
 1918 025f 04       		.uleb128 0x4
 1919 0260 FD000000 		.4byte	.LASF41
 1920 0264 06       		.byte	0x6
 1921 0265 D7       		.byte	0xd7
 1922 0266 6A020000 		.4byte	0x26a
 1923 026a 0A       		.uleb128 0xa
 1924 026b 04       		.byte	0x4
 1925 026c 04       		.uleb128 0x4
 1926 026d DD010000 		.4byte	.LASF42
 1927 0271 06       		.byte	0x6
 1928 0272 DD       		.byte	0xdd
 1929 0273 89000000 		.4byte	0x89
 1930 0277 05       		.uleb128 0x5
 1931 0278 85030000 		.4byte	.LASF43
 1932 027c 24       		.byte	0x24
 1933 027d 06       		.byte	0x6
 1934 027e FE       		.byte	0xfe
 1935 027f 04030000 		.4byte	0x304
 1936 0283 0B       		.uleb128 0xb
 1937 0284 723400   		.ascii	"r4\000"
 1938 0287 06       		.byte	0x6
 1939 0288 1101     		.2byte	0x111
 1940 028a 5F020000 		.4byte	0x25f
 1941 028e 02       		.byte	0x2
 1942 028f 23       		.byte	0x23
 1943 0290 00       		.uleb128 0x0
 1944 0291 0B       		.uleb128 0xb
 1945 0292 723500   		.ascii	"r5\000"
 1946 0295 06       		.byte	0x6
ARM GAS  C:\Users\z80\AppData\Local\Temp\cc5VAR70.s 			page 36


 1947 0296 1201     		.2byte	0x112
 1948 0298 5F020000 		.4byte	0x25f
 1949 029c 02       		.byte	0x2
 1950 029d 23       		.byte	0x23
 1951 029e 04       		.uleb128 0x4
 1952 029f 0B       		.uleb128 0xb
 1953 02a0 723600   		.ascii	"r6\000"
 1954 02a3 06       		.byte	0x6
 1955 02a4 1301     		.2byte	0x113
 1956 02a6 5F020000 		.4byte	0x25f
 1957 02aa 02       		.byte	0x2
 1958 02ab 23       		.byte	0x23
 1959 02ac 08       		.uleb128 0x8
 1960 02ad 0B       		.uleb128 0xb
 1961 02ae 723700   		.ascii	"r7\000"
 1962 02b1 06       		.byte	0x6
 1963 02b2 1401     		.2byte	0x114
 1964 02b4 5F020000 		.4byte	0x25f
 1965 02b8 02       		.byte	0x2
 1966 02b9 23       		.byte	0x23
 1967 02ba 0C       		.uleb128 0xc
 1968 02bb 0B       		.uleb128 0xb
 1969 02bc 723800   		.ascii	"r8\000"
 1970 02bf 06       		.byte	0x6
 1971 02c0 1501     		.2byte	0x115
 1972 02c2 5F020000 		.4byte	0x25f
 1973 02c6 02       		.byte	0x2
 1974 02c7 23       		.byte	0x23
 1975 02c8 10       		.uleb128 0x10
 1976 02c9 0B       		.uleb128 0xb
 1977 02ca 723900   		.ascii	"r9\000"
 1978 02cd 06       		.byte	0x6
 1979 02ce 1601     		.2byte	0x116
 1980 02d0 5F020000 		.4byte	0x25f
 1981 02d4 02       		.byte	0x2
 1982 02d5 23       		.byte	0x23
 1983 02d6 14       		.uleb128 0x14
 1984 02d7 0B       		.uleb128 0xb
 1985 02d8 72313000 		.ascii	"r10\000"
 1986 02dc 06       		.byte	0x6
 1987 02dd 1701     		.2byte	0x117
 1988 02df 5F020000 		.4byte	0x25f
 1989 02e3 02       		.byte	0x2
 1990 02e4 23       		.byte	0x23
 1991 02e5 18       		.uleb128 0x18
 1992 02e6 0B       		.uleb128 0xb
 1993 02e7 72313100 		.ascii	"r11\000"
 1994 02eb 06       		.byte	0x6
 1995 02ec 1801     		.2byte	0x118
 1996 02ee 5F020000 		.4byte	0x25f
 1997 02f2 02       		.byte	0x2
 1998 02f3 23       		.byte	0x23
 1999 02f4 1C       		.uleb128 0x1c
 2000 02f5 0B       		.uleb128 0xb
 2001 02f6 6C7200   		.ascii	"lr\000"
 2002 02f9 06       		.byte	0x6
 2003 02fa 1901     		.2byte	0x119
ARM GAS  C:\Users\z80\AppData\Local\Temp\cc5VAR70.s 			page 37


 2004 02fc 5F020000 		.4byte	0x25f
 2005 0300 02       		.byte	0x2
 2006 0301 23       		.byte	0x23
 2007 0302 20       		.uleb128 0x20
 2008 0303 00       		.byte	0x0
 2009 0304 0C       		.uleb128 0xc
 2010 0305 6C010000 		.4byte	.LASF44
 2011 0309 04       		.byte	0x4
 2012 030a 06       		.byte	0x6
 2013 030b 2301     		.2byte	0x123
 2014 030d 21030000 		.4byte	0x321
 2015 0311 0B       		.uleb128 0xb
 2016 0312 72313300 		.ascii	"r13\000"
 2017 0316 06       		.byte	0x6
 2018 0317 2401     		.2byte	0x124
 2019 0319 21030000 		.4byte	0x321
 2020 031d 02       		.byte	0x2
 2021 031e 23       		.byte	0x23
 2022 031f 00       		.uleb128 0x0
 2023 0320 00       		.byte	0x0
 2024 0321 09       		.uleb128 0x9
 2025 0322 04       		.byte	0x4
 2026 0323 77020000 		.4byte	0x277
 2027 0327 0D       		.uleb128 0xd
 2028 0328 04       		.byte	0x4
 2029 0329 07       		.byte	0x7
 2030 032a 0E       		.uleb128 0xe
 2031 032b DD000000 		.4byte	0xdd
 2032 032f 08       		.uleb128 0x8
 2033 0330 20       		.byte	0x20
 2034 0331 07       		.byte	0x7
 2035 0332 5E       		.byte	0x5e
 2036 0333 9A030000 		.4byte	0x39a
 2037 0337 06       		.uleb128 0x6
 2038 0338 41030000 		.4byte	.LASF45
 2039 033c 07       		.byte	0x7
 2040 033d 5F       		.byte	0x5f
 2041 033e 32020000 		.4byte	0x232
 2042 0342 02       		.byte	0x2
 2043 0343 23       		.byte	0x23
 2044 0344 00       		.uleb128 0x0
 2045 0345 06       		.uleb128 0x6
 2046 0346 09030000 		.4byte	.LASF46
 2047 034a 07       		.byte	0x7
 2048 034b 60       		.byte	0x60
 2049 034c B1000000 		.4byte	0xb1
 2050 0350 02       		.byte	0x2
 2051 0351 23       		.byte	0x23
 2052 0352 08       		.uleb128 0x8
 2053 0353 06       		.uleb128 0x6
 2054 0354 28020000 		.4byte	.LASF47
 2055 0358 07       		.byte	0x7
 2056 0359 62       		.byte	0x62
 2057 035a 04030000 		.4byte	0x304
 2058 035e 02       		.byte	0x2
 2059 035f 23       		.byte	0x23
 2060 0360 0C       		.uleb128 0xc
ARM GAS  C:\Users\z80\AppData\Local\Temp\cc5VAR70.s 			page 38


 2061 0361 06       		.uleb128 0x6
 2062 0362 F0000000 		.4byte	.LASF48
 2063 0366 07       		.byte	0x7
 2064 0367 65       		.byte	0x65
 2065 0368 2C020000 		.4byte	0x22c
 2066 036c 02       		.byte	0x2
 2067 036d 23       		.byte	0x23
 2068 036e 10       		.uleb128 0x10
 2069 036f 06       		.uleb128 0x6
 2070 0370 86020000 		.4byte	.LASF49
 2071 0374 07       		.byte	0x7
 2072 0375 66       		.byte	0x66
 2073 0376 2C020000 		.4byte	0x22c
 2074 037a 02       		.byte	0x2
 2075 037b 23       		.byte	0x23
 2076 037c 14       		.uleb128 0x14
 2077 037d 06       		.uleb128 0x6
 2078 037e DF030000 		.4byte	.LASF50
 2079 0382 07       		.byte	0x7
 2080 0383 6A       		.byte	0x6a
 2081 0384 E8000000 		.4byte	0xe8
 2082 0388 02       		.byte	0x2
 2083 0389 23       		.byte	0x23
 2084 038a 18       		.uleb128 0x18
 2085 038b 06       		.uleb128 0x6
 2086 038c 7C020000 		.4byte	.LASF51
 2087 0390 07       		.byte	0x7
 2088 0391 6C       		.byte	0x6c
 2089 0392 2C020000 		.4byte	0x22c
 2090 0396 02       		.byte	0x2
 2091 0397 23       		.byte	0x23
 2092 0398 1C       		.uleb128 0x1c
 2093 0399 00       		.byte	0x0
 2094 039a 04       		.uleb128 0x4
 2095 039b 9F030000 		.4byte	.LASF52
 2096 039f 07       		.byte	0x7
 2097 03a0 6E       		.byte	0x6e
 2098 03a1 2F030000 		.4byte	0x32f
 2099 03a5 05       		.uleb128 0x5
 2100 03a6 D7010000 		.4byte	.LASF53
 2101 03aa 10       		.byte	0x10
 2102 03ab 08       		.byte	0x8
 2103 03ac 2C       		.byte	0x2c
 2104 03ad DC030000 		.4byte	0x3dc
 2105 03b1 06       		.uleb128 0x6
 2106 03b2 91000000 		.4byte	.LASF54
 2107 03b6 08       		.byte	0x8
 2108 03b7 2D       		.byte	0x2d
 2109 03b8 32020000 		.4byte	0x232
 2110 03bc 02       		.byte	0x2
 2111 03bd 23       		.byte	0x23
 2112 03be 00       		.uleb128 0x0
 2113 03bf 06       		.uleb128 0x6
 2114 03c0 E9030000 		.4byte	.LASF55
 2115 03c4 08       		.byte	0x8
 2116 03c5 2F       		.byte	0x2f
 2117 03c6 2C020000 		.4byte	0x22c
ARM GAS  C:\Users\z80\AppData\Local\Temp\cc5VAR70.s 			page 39


 2118 03ca 02       		.byte	0x2
 2119 03cb 23       		.byte	0x23
 2120 03cc 08       		.uleb128 0x8
 2121 03cd 06       		.uleb128 0x6
 2122 03ce 4E030000 		.4byte	.LASF56
 2123 03d2 08       		.byte	0x8
 2124 03d3 31       		.byte	0x31
 2125 03d4 DC030000 		.4byte	0x3dc
 2126 03d8 02       		.byte	0x2
 2127 03d9 23       		.byte	0x23
 2128 03da 0C       		.uleb128 0xc
 2129 03db 00       		.byte	0x0
 2130 03dc 09       		.uleb128 0x9
 2131 03dd 04       		.byte	0x4
 2132 03de A5030000 		.4byte	0x3a5
 2133 03e2 04       		.uleb128 0x4
 2134 03e3 D7010000 		.4byte	.LASF53
 2135 03e7 08       		.byte	0x8
 2136 03e8 33       		.byte	0x33
 2137 03e9 A5030000 		.4byte	0x3a5
 2138 03ed 04       		.uleb128 0x4
 2139 03ee B7030000 		.4byte	.LASF57
 2140 03f2 09       		.byte	0x9
 2141 03f3 29       		.byte	0x29
 2142 03f4 F8030000 		.4byte	0x3f8
 2143 03f8 05       		.uleb128 0x5
 2144 03f9 B7030000 		.4byte	.LASF57
 2145 03fd 0C       		.byte	0xc
 2146 03fe 09       		.byte	0x9
 2147 03ff 2E       		.byte	0x2e
 2148 0400 2F040000 		.4byte	0x42f
 2149 0404 06       		.uleb128 0x6
 2150 0405 9F010000 		.4byte	.LASF58
 2151 0409 09       		.byte	0x9
 2152 040a 2F       		.byte	0x2f
 2153 040b 2F040000 		.4byte	0x42f
 2154 040f 02       		.byte	0x2
 2155 0410 23       		.byte	0x23
 2156 0411 00       		.uleb128 0x0
 2157 0412 06       		.uleb128 0x6
 2158 0413 E1020000 		.4byte	.LASF59
 2159 0417 09       		.byte	0x9
 2160 0418 32       		.byte	0x32
 2161 0419 2C020000 		.4byte	0x22c
 2162 041d 02       		.byte	0x2
 2163 041e 23       		.byte	0x23
 2164 041f 04       		.uleb128 0x4
 2165 0420 06       		.uleb128 0x6
 2166 0421 8E020000 		.4byte	.LASF60
 2167 0425 09       		.byte	0x9
 2168 0426 34       		.byte	0x34
 2169 0427 D2000000 		.4byte	0xd2
 2170 042b 02       		.byte	0x2
 2171 042c 23       		.byte	0x23
 2172 042d 08       		.uleb128 0x8
 2173 042e 00       		.byte	0x0
 2174 042f 09       		.uleb128 0x9
ARM GAS  C:\Users\z80\AppData\Local\Temp\cc5VAR70.s 			page 40


 2175 0430 04       		.byte	0x4
 2176 0431 ED030000 		.4byte	0x3ed
 2177 0435 05       		.uleb128 0x5
 2178 0436 24010000 		.4byte	.LASF61
 2179 043a 04       		.byte	0x4
 2180 043b 09       		.byte	0x9
 2181 043c 3C       		.byte	0x3c
 2182 043d 50040000 		.4byte	0x450
 2183 0441 06       		.uleb128 0x6
 2184 0442 97030000 		.4byte	.LASF62
 2185 0446 09       		.byte	0x9
 2186 0447 3D       		.byte	0x3d
 2187 0448 2F040000 		.4byte	0x42f
 2188 044c 02       		.byte	0x2
 2189 044d 23       		.byte	0x23
 2190 044e 00       		.uleb128 0x0
 2191 044f 00       		.byte	0x0
 2192 0450 04       		.uleb128 0x4
 2193 0451 24010000 		.4byte	.LASF61
 2194 0455 09       		.byte	0x9
 2195 0456 40       		.byte	0x40
 2196 0457 35040000 		.4byte	0x435
 2197 045b 04       		.uleb128 0x4
 2198 045c 30010000 		.4byte	.LASF63
 2199 0460 09       		.byte	0x9
 2200 0461 45       		.byte	0x45
 2201 0462 66040000 		.4byte	0x466
 2202 0466 09       		.uleb128 0x9
 2203 0467 04       		.byte	0x4
 2204 0468 6C040000 		.4byte	0x46c
 2205 046c 0F       		.uleb128 0xf
 2206 046d 01       		.byte	0x1
 2207 046e 78040000 		.4byte	0x478
 2208 0472 10       		.uleb128 0x10
 2209 0473 C7000000 		.4byte	0xc7
 2210 0477 00       		.byte	0x0
 2211 0478 11       		.uleb128 0x11
 2212 0479 04       		.byte	0x4
 2213 047a 05       		.byte	0x5
 2214 047b 90       		.byte	0x90
 2215 047c AD040000 		.4byte	0x4ad
 2216 0480 12       		.uleb128 0x12
 2217 0481 06000000 		.4byte	.LASF64
 2218 0485 05       		.byte	0x5
 2219 0486 97       		.byte	0x97
 2220 0487 BC000000 		.4byte	0xbc
 2221 048b 12       		.uleb128 0x12
 2222 048c 2D000000 		.4byte	.LASF65
 2223 0490 05       		.byte	0x5
 2224 0491 9E       		.byte	0x9e
 2225 0492 BC000000 		.4byte	0xbc
 2226 0496 12       		.uleb128 0x12
 2227 0497 D1030000 		.4byte	.LASF66
 2228 049b 05       		.byte	0x5
 2229 049c A5       		.byte	0xa5
 2230 049d 6A020000 		.4byte	0x26a
 2231 04a1 12       		.uleb128 0x12
ARM GAS  C:\Users\z80\AppData\Local\Temp\cc5VAR70.s 			page 41


 2232 04a2 10030000 		.4byte	.LASF67
 2233 04a6 05       		.byte	0x5
 2234 04a7 AC       		.byte	0xac
 2235 04a8 D2000000 		.4byte	0xd2
 2236 04ac 00       		.byte	0x0
 2237 04ad 09       		.uleb128 0x9
 2238 04ae 04       		.byte	0x4
 2239 04af B3040000 		.4byte	0x4b3
 2240 04b3 13       		.uleb128 0x13
 2241 04b4 B8040000 		.4byte	0x4b8
 2242 04b8 03       		.uleb128 0x3
 2243 04b9 01       		.byte	0x1
 2244 04ba 08       		.byte	0x8
 2245 04bb 49030000 		.4byte	.LASF68
 2246 04bf 09       		.uleb128 0x9
 2247 04c0 04       		.byte	0x4
 2248 04c1 6C020000 		.4byte	0x26c
 2249 04c5 09       		.uleb128 0x9
 2250 04c6 04       		.byte	0x4
 2251 04c7 E2030000 		.4byte	0x3e2
 2252 04cb 14       		.uleb128 0x14
 2253 04cc 01       		.byte	0x1
 2254 04cd 87010000 		.4byte	.LASF70
 2255 04d1 01       		.byte	0x1
 2256 04d2 52       		.byte	0x52
 2257 04d3 01       		.byte	0x1
 2258 04d4 00000000 		.4byte	.LFB7
 2259 04d8 60000000 		.4byte	.LFE7
 2260 04dc 00000000 		.4byte	.LLST0
 2261 04e0 41050000 		.4byte	0x541
 2262 04e4 15       		.uleb128 0x15
 2263 04e5 65737000 		.ascii	"esp\000"
 2264 04e9 01       		.byte	0x1
 2265 04ea 52       		.byte	0x52
 2266 04eb 41050000 		.4byte	0x541
 2267 04ef 02       		.byte	0x2
 2268 04f0 91       		.byte	0x91
 2269 04f1 74       		.sleb128 -12
 2270 04f2 15       		.uleb128 0x15
 2271 04f3 656C7000 		.ascii	"elp\000"
 2272 04f7 01       		.byte	0x1
 2273 04f8 52       		.byte	0x52
 2274 04f9 2F040000 		.4byte	0x42f
 2275 04fd 02       		.byte	0x2
 2276 04fe 91       		.byte	0x91
 2277 04ff 70       		.sleb128 -16
 2278 0500 16       		.uleb128 0x16
 2279 0501 F8000000 		.4byte	.LASF69
 2280 0505 01       		.byte	0x1
 2281 0506 52       		.byte	0x52
 2282 0507 D2000000 		.4byte	0xd2
 2283 050b 02       		.byte	0x2
 2284 050c 91       		.byte	0x91
 2285 050d 6C       		.sleb128 -20
 2286 050e 17       		.uleb128 0x17
 2287 050f 22000000 		.4byte	.LBB2
 2288 0513 2A000000 		.4byte	.LBE2
ARM GAS  C:\Users\z80\AppData\Local\Temp\cc5VAR70.s 			page 42


 2289 0517 29050000 		.4byte	0x529
 2290 051b 18       		.uleb128 0x18
 2291 051c 746D7000 		.ascii	"tmp\000"
 2292 0520 01       		.byte	0x1
 2293 0521 56       		.byte	0x56
 2294 0522 70000000 		.4byte	0x70
 2295 0526 01       		.byte	0x1
 2296 0527 53       		.byte	0x53
 2297 0528 00       		.byte	0x0
 2298 0529 19       		.uleb128 0x19
 2299 052a 54000000 		.4byte	.LBB3
 2300 052e 5C000000 		.4byte	.LBE3
 2301 0532 18       		.uleb128 0x18
 2302 0533 746D7000 		.ascii	"tmp\000"
 2303 0537 01       		.byte	0x1
 2304 0538 5B       		.byte	0x5b
 2305 0539 70000000 		.4byte	0x70
 2306 053d 01       		.byte	0x1
 2307 053e 53       		.byte	0x53
 2308 053f 00       		.byte	0x0
 2309 0540 00       		.byte	0x0
 2310 0541 09       		.uleb128 0x9
 2311 0542 04       		.byte	0x4
 2312 0543 50040000 		.4byte	0x450
 2313 0547 14       		.uleb128 0x14
 2314 0548 01       		.byte	0x1
 2315 0549 A7010000 		.4byte	.LASF71
 2316 054d 01       		.byte	0x1
 2317 054e 6B       		.byte	0x6b
 2318 054f 01       		.byte	0x1
 2319 0550 00000000 		.4byte	.LFB8
 2320 0554 66000000 		.4byte	.LFE8
 2321 0558 2C000000 		.4byte	.LLST1
 2322 055c BB050000 		.4byte	0x5bb
 2323 0560 15       		.uleb128 0x15
 2324 0561 65737000 		.ascii	"esp\000"
 2325 0565 01       		.byte	0x1
 2326 0566 6B       		.byte	0x6b
 2327 0567 41050000 		.4byte	0x541
 2328 056b 02       		.byte	0x2
 2329 056c 91       		.byte	0x91
 2330 056d 6C       		.sleb128 -20
 2331 056e 15       		.uleb128 0x15
 2332 056f 656C7000 		.ascii	"elp\000"
 2333 0573 01       		.byte	0x1
 2334 0574 6B       		.byte	0x6b
 2335 0575 2F040000 		.4byte	0x42f
 2336 0579 02       		.byte	0x2
 2337 057a 91       		.byte	0x91
 2338 057b 68       		.sleb128 -24
 2339 057c 18       		.uleb128 0x18
 2340 057d 7000     		.ascii	"p\000"
 2341 057f 01       		.byte	0x1
 2342 0580 6C       		.byte	0x6c
 2343 0581 2F040000 		.4byte	0x42f
 2344 0585 02       		.byte	0x2
 2345 0586 91       		.byte	0x91
ARM GAS  C:\Users\z80\AppData\Local\Temp\cc5VAR70.s 			page 43


 2346 0587 74       		.sleb128 -12
 2347 0588 17       		.uleb128 0x17
 2348 0589 24000000 		.4byte	.LBB4
 2349 058d 2C000000 		.4byte	.LBE4
 2350 0591 A3050000 		.4byte	0x5a3
 2351 0595 18       		.uleb128 0x18
 2352 0596 746D7000 		.ascii	"tmp\000"
 2353 059a 01       		.byte	0x1
 2354 059b 71       		.byte	0x71
 2355 059c 70000000 		.4byte	0x70
 2356 05a0 01       		.byte	0x1
 2357 05a1 53       		.byte	0x53
 2358 05a2 00       		.byte	0x0
 2359 05a3 19       		.uleb128 0x19
 2360 05a4 5A000000 		.4byte	.LBB5
 2361 05a8 62000000 		.4byte	.LBE5
 2362 05ac 18       		.uleb128 0x18
 2363 05ad 746D7000 		.ascii	"tmp\000"
 2364 05b1 01       		.byte	0x1
 2365 05b2 79       		.byte	0x79
 2366 05b3 70000000 		.4byte	0x70
 2367 05b7 01       		.byte	0x1
 2368 05b8 53       		.byte	0x53
 2369 05b9 00       		.byte	0x0
 2370 05ba 00       		.byte	0x0
 2371 05bb 1A       		.uleb128 0x1a
 2372 05bc 01       		.byte	0x1
 2373 05bd AE020000 		.4byte	.LASF72
 2374 05c1 01       		.byte	0x1
 2375 05c2 84       		.byte	0x84
 2376 05c3 01       		.byte	0x1
 2377 05c4 D2000000 		.4byte	0xd2
 2378 05c8 00000000 		.4byte	.LFB9
 2379 05cc 5C000000 		.4byte	.LFE9
 2380 05d0 58000000 		.4byte	.LLST2
 2381 05d4 25060000 		.4byte	0x625
 2382 05d8 16       		.uleb128 0x16
 2383 05d9 F8000000 		.4byte	.LASF69
 2384 05dd 01       		.byte	0x1
 2385 05de 84       		.byte	0x84
 2386 05df D2000000 		.4byte	0xd2
 2387 05e3 02       		.byte	0x2
 2388 05e4 91       		.byte	0x91
 2389 05e5 6C       		.sleb128 -20
 2390 05e6 18       		.uleb128 0x18
 2391 05e7 6D00     		.ascii	"m\000"
 2392 05e9 01       		.byte	0x1
 2393 05ea 85       		.byte	0x85
 2394 05eb D2000000 		.4byte	0xd2
 2395 05ef 02       		.byte	0x2
 2396 05f0 91       		.byte	0x91
 2397 05f1 74       		.sleb128 -12
 2398 05f2 17       		.uleb128 0x17
 2399 05f3 06000000 		.4byte	.LBB6
 2400 05f7 0E000000 		.4byte	.LBE6
 2401 05fb 0D060000 		.4byte	0x60d
 2402 05ff 18       		.uleb128 0x18
ARM GAS  C:\Users\z80\AppData\Local\Temp\cc5VAR70.s 			page 44


 2403 0600 746D7000 		.ascii	"tmp\000"
 2404 0604 01       		.byte	0x1
 2405 0605 87       		.byte	0x87
 2406 0606 70000000 		.4byte	0x70
 2407 060a 01       		.byte	0x1
 2408 060b 53       		.byte	0x53
 2409 060c 00       		.byte	0x0
 2410 060d 19       		.uleb128 0x19
 2411 060e 4C000000 		.4byte	.LBB7
 2412 0612 54000000 		.4byte	.LBE7
 2413 0616 18       		.uleb128 0x18
 2414 0617 746D7000 		.ascii	"tmp\000"
 2415 061b 01       		.byte	0x1
 2416 061c 8C       		.byte	0x8c
 2417 061d 70000000 		.4byte	0x70
 2418 0621 01       		.byte	0x1
 2419 0622 53       		.byte	0x53
 2420 0623 00       		.byte	0x0
 2421 0624 00       		.byte	0x0
 2422 0625 1A       		.uleb128 0x1a
 2423 0626 01       		.byte	0x1
 2424 0627 99000000 		.4byte	.LASF73
 2425 062b 01       		.byte	0x1
 2426 062c 99       		.byte	0x99
 2427 062d 01       		.byte	0x1
 2428 062e D2000000 		.4byte	0xd2
 2429 0632 00000000 		.4byte	.LFB10
 2430 0636 48000000 		.4byte	.LFE10
 2431 063a 84000000 		.4byte	.LLST3
 2432 063e 83060000 		.4byte	0x683
 2433 0642 16       		.uleb128 0x16
 2434 0643 F8000000 		.4byte	.LASF69
 2435 0647 01       		.byte	0x1
 2436 0648 99       		.byte	0x99
 2437 0649 D2000000 		.4byte	0xd2
 2438 064d 02       		.byte	0x2
 2439 064e 91       		.byte	0x91
 2440 064f 74       		.sleb128 -12
 2441 0650 17       		.uleb128 0x17
 2442 0651 06000000 		.4byte	.LBB8
 2443 0655 0E000000 		.4byte	.LBE8
 2444 0659 6B060000 		.4byte	0x66b
 2445 065d 18       		.uleb128 0x18
 2446 065e 746D7000 		.ascii	"tmp\000"
 2447 0662 01       		.byte	0x1
 2448 0663 9B       		.byte	0x9b
 2449 0664 70000000 		.4byte	0x70
 2450 0668 01       		.byte	0x1
 2451 0669 53       		.byte	0x53
 2452 066a 00       		.byte	0x0
 2453 066b 19       		.uleb128 0x19
 2454 066c 38000000 		.4byte	.LBB9
 2455 0670 40000000 		.4byte	.LBE9
 2456 0674 18       		.uleb128 0x18
 2457 0675 746D7000 		.ascii	"tmp\000"
 2458 0679 01       		.byte	0x1
 2459 067a 9F       		.byte	0x9f
ARM GAS  C:\Users\z80\AppData\Local\Temp\cc5VAR70.s 			page 45


 2460 067b 70000000 		.4byte	0x70
 2461 067f 01       		.byte	0x1
 2462 0680 53       		.byte	0x53
 2463 0681 00       		.byte	0x0
 2464 0682 00       		.byte	0x0
 2465 0683 14       		.uleb128 0x14
 2466 0684 01       		.byte	0x1
 2467 0685 6B020000 		.4byte	.LASF74
 2468 0689 01       		.byte	0x1
 2469 068a AB       		.byte	0xab
 2470 068b 01       		.byte	0x1
 2471 068c 00000000 		.4byte	.LFB11
 2472 0690 42000000 		.4byte	.LFE11
 2473 0694 B0000000 		.4byte	.LLST4
 2474 0698 EA060000 		.4byte	0x6ea
 2475 069c 15       		.uleb128 0x15
 2476 069d 747000   		.ascii	"tp\000"
 2477 06a0 01       		.byte	0x1
 2478 06a1 AB       		.byte	0xab
 2479 06a2 2C020000 		.4byte	0x22c
 2480 06a6 02       		.byte	0x2
 2481 06a7 91       		.byte	0x91
 2482 06a8 74       		.sleb128 -12
 2483 06a9 16       		.uleb128 0x16
 2484 06aa F8000000 		.4byte	.LASF69
 2485 06ae 01       		.byte	0x1
 2486 06af AB       		.byte	0xab
 2487 06b0 D2000000 		.4byte	0xd2
 2488 06b4 02       		.byte	0x2
 2489 06b5 91       		.byte	0x91
 2490 06b6 70       		.sleb128 -16
 2491 06b7 17       		.uleb128 0x17
 2492 06b8 1A000000 		.4byte	.LBB10
 2493 06bc 22000000 		.4byte	.LBE10
 2494 06c0 D2060000 		.4byte	0x6d2
 2495 06c4 18       		.uleb128 0x18
 2496 06c5 746D7000 		.ascii	"tmp\000"
 2497 06c9 01       		.byte	0x1
 2498 06ca AF       		.byte	0xaf
 2499 06cb 70000000 		.4byte	0x70
 2500 06cf 01       		.byte	0x1
 2501 06d0 53       		.byte	0x53
 2502 06d1 00       		.byte	0x0
 2503 06d2 19       		.uleb128 0x19
 2504 06d3 36000000 		.4byte	.LBB11
 2505 06d7 3E000000 		.4byte	.LBE11
 2506 06db 18       		.uleb128 0x18
 2507 06dc 746D7000 		.ascii	"tmp\000"
 2508 06e0 01       		.byte	0x1
 2509 06e1 B2       		.byte	0xb2
 2510 06e2 70000000 		.4byte	0x70
 2511 06e6 01       		.byte	0x1
 2512 06e7 53       		.byte	0x53
 2513 06e8 00       		.byte	0x0
 2514 06e9 00       		.byte	0x0
 2515 06ea 14       		.uleb128 0x14
 2516 06eb 01       		.byte	0x1
ARM GAS  C:\Users\z80\AppData\Local\Temp\cc5VAR70.s 			page 46


 2517 06ec 36000000 		.4byte	.LASF75
 2518 06f0 01       		.byte	0x1
 2519 06f1 C1       		.byte	0xc1
 2520 06f2 01       		.byte	0x1
 2521 06f3 00000000 		.4byte	.LFB12
 2522 06f7 76000000 		.4byte	.LFE12
 2523 06fb DC000000 		.4byte	.LLST5
 2524 06ff 1F070000 		.4byte	0x71f
 2525 0703 15       		.uleb128 0x15
 2526 0704 747000   		.ascii	"tp\000"
 2527 0707 01       		.byte	0x1
 2528 0708 C1       		.byte	0xc1
 2529 0709 2C020000 		.4byte	0x22c
 2530 070d 02       		.byte	0x2
 2531 070e 91       		.byte	0x91
 2532 070f 74       		.sleb128 -12
 2533 0710 16       		.uleb128 0x16
 2534 0711 F8000000 		.4byte	.LASF69
 2535 0715 01       		.byte	0x1
 2536 0716 C1       		.byte	0xc1
 2537 0717 D2000000 		.4byte	0xd2
 2538 071b 02       		.byte	0x2
 2539 071c 91       		.byte	0x91
 2540 071d 70       		.sleb128 -16
 2541 071e 00       		.byte	0x0
 2542 071f 14       		.uleb128 0x14
 2543 0720 01       		.byte	0x1
 2544 0721 06010000 		.4byte	.LASF76
 2545 0725 01       		.byte	0x1
 2546 0726 DC       		.byte	0xdc
 2547 0727 01       		.byte	0x1
 2548 0728 00000000 		.4byte	.LFB13
 2549 072c 30000000 		.4byte	.LFE13
 2550 0730 08010000 		.4byte	.LLST6
 2551 0734 87070000 		.4byte	0x787
 2552 0738 15       		.uleb128 0x15
 2553 0739 65737000 		.ascii	"esp\000"
 2554 073d 01       		.byte	0x1
 2555 073e DC       		.byte	0xdc
 2556 073f 41050000 		.4byte	0x541
 2557 0743 02       		.byte	0x2
 2558 0744 91       		.byte	0x91
 2559 0745 74       		.sleb128 -12
 2560 0746 16       		.uleb128 0x16
 2561 0747 F8000000 		.4byte	.LASF69
 2562 074b 01       		.byte	0x1
 2563 074c DC       		.byte	0xdc
 2564 074d D2000000 		.4byte	0xd2
 2565 0751 02       		.byte	0x2
 2566 0752 91       		.byte	0x91
 2567 0753 70       		.sleb128 -16
 2568 0754 17       		.uleb128 0x17
 2569 0755 08000000 		.4byte	.LBB12
 2570 0759 10000000 		.4byte	.LBE12
 2571 075d 6F070000 		.4byte	0x76f
 2572 0761 18       		.uleb128 0x18
 2573 0762 746D7000 		.ascii	"tmp\000"
ARM GAS  C:\Users\z80\AppData\Local\Temp\cc5VAR70.s 			page 47


 2574 0766 01       		.byte	0x1
 2575 0767 DE       		.byte	0xde
 2576 0768 70000000 		.4byte	0x70
 2577 076c 01       		.byte	0x1
 2578 076d 53       		.byte	0x53
 2579 076e 00       		.byte	0x0
 2580 076f 19       		.uleb128 0x19
 2581 0770 24000000 		.4byte	.LBB13
 2582 0774 2C000000 		.4byte	.LBE13
 2583 0778 18       		.uleb128 0x18
 2584 0779 746D7000 		.ascii	"tmp\000"
 2585 077d 01       		.byte	0x1
 2586 077e E1       		.byte	0xe1
 2587 077f 70000000 		.4byte	0x70
 2588 0783 01       		.byte	0x1
 2589 0784 53       		.byte	0x53
 2590 0785 00       		.byte	0x0
 2591 0786 00       		.byte	0x0
 2592 0787 14       		.uleb128 0x14
 2593 0788 01       		.byte	0x1
 2594 0789 D3000000 		.4byte	.LASF77
 2595 078d 01       		.byte	0x1
 2596 078e F5       		.byte	0xf5
 2597 078f 01       		.byte	0x1
 2598 0790 00000000 		.4byte	.LFB14
 2599 0794 4E000000 		.4byte	.LFE14
 2600 0798 34010000 		.4byte	.LLST7
 2601 079c CB070000 		.4byte	0x7cb
 2602 07a0 15       		.uleb128 0x15
 2603 07a1 65737000 		.ascii	"esp\000"
 2604 07a5 01       		.byte	0x1
 2605 07a6 F5       		.byte	0xf5
 2606 07a7 41050000 		.4byte	0x541
 2607 07ab 02       		.byte	0x2
 2608 07ac 91       		.byte	0x91
 2609 07ad 6C       		.sleb128 -20
 2610 07ae 16       		.uleb128 0x16
 2611 07af F8000000 		.4byte	.LASF69
 2612 07b3 01       		.byte	0x1
 2613 07b4 F5       		.byte	0xf5
 2614 07b5 D2000000 		.4byte	0xd2
 2615 07b9 02       		.byte	0x2
 2616 07ba 91       		.byte	0x91
 2617 07bb 68       		.sleb128 -24
 2618 07bc 18       		.uleb128 0x18
 2619 07bd 656C7000 		.ascii	"elp\000"
 2620 07c1 01       		.byte	0x1
 2621 07c2 F6       		.byte	0xf6
 2622 07c3 2F040000 		.4byte	0x42f
 2623 07c7 02       		.byte	0x2
 2624 07c8 91       		.byte	0x91
 2625 07c9 74       		.sleb128 -12
 2626 07ca 00       		.byte	0x0
 2627 07cb 1B       		.uleb128 0x1b
 2628 07cc 01       		.byte	0x1
 2629 07cd 12020000 		.4byte	.LASF78
 2630 07d1 01       		.byte	0x1
ARM GAS  C:\Users\z80\AppData\Local\Temp\cc5VAR70.s 			page 48


 2631 07d2 0B01     		.2byte	0x10b
 2632 07d4 01       		.byte	0x1
 2633 07d5 00000000 		.4byte	.LFB15
 2634 07d9 8C000000 		.4byte	.LFE15
 2635 07dd 60010000 		.4byte	.LLST8
 2636 07e1 13080000 		.4byte	0x813
 2637 07e5 1C       		.uleb128 0x1c
 2638 07e6 96020000 		.4byte	.LASF79
 2639 07ea 01       		.byte	0x1
 2640 07eb 0B01     		.2byte	0x10b
 2641 07ed 13080000 		.4byte	0x813
 2642 07f1 02       		.byte	0x2
 2643 07f2 91       		.byte	0x91
 2644 07f3 6C       		.sleb128 -20
 2645 07f4 1C       		.uleb128 0x1c
 2646 07f5 F8000000 		.4byte	.LASF69
 2647 07f9 01       		.byte	0x1
 2648 07fa 0B01     		.2byte	0x10b
 2649 07fc D2000000 		.4byte	0xd2
 2650 0800 02       		.byte	0x2
 2651 0801 91       		.byte	0x91
 2652 0802 68       		.sleb128 -24
 2653 0803 1D       		.uleb128 0x1d
 2654 0804 65696400 		.ascii	"eid\000"
 2655 0808 01       		.byte	0x1
 2656 0809 0C01     		.2byte	0x10c
 2657 080b C7000000 		.4byte	0xc7
 2658 080f 02       		.byte	0x2
 2659 0810 91       		.byte	0x91
 2660 0811 74       		.sleb128 -12
 2661 0812 00       		.byte	0x0
 2662 0813 09       		.uleb128 0x9
 2663 0814 04       		.byte	0x4
 2664 0815 19080000 		.4byte	0x819
 2665 0819 13       		.uleb128 0x13
 2666 081a 5B040000 		.4byte	0x45b
 2667 081e 1E       		.uleb128 0x1e
 2668 081f 01       		.byte	0x1
 2669 0820 D4020000 		.4byte	.LASF80
 2670 0824 01       		.byte	0x1
 2671 0825 2E01     		.2byte	0x12e
 2672 0827 01       		.byte	0x1
 2673 0828 D2000000 		.4byte	0xd2
 2674 082c 00000000 		.4byte	.LFB16
 2675 0830 7E000000 		.4byte	.LFE16
 2676 0834 8C010000 		.4byte	.LLST9
 2677 0838 9C080000 		.4byte	0x89c
 2678 083c 1C       		.uleb128 0x1c
 2679 083d F8000000 		.4byte	.LASF69
 2680 0841 01       		.byte	0x1
 2681 0842 2E01     		.2byte	0x12e
 2682 0844 D2000000 		.4byte	0xd2
 2683 0848 02       		.byte	0x2
 2684 0849 91       		.byte	0x91
 2685 084a 6C       		.sleb128 -20
 2686 084b 1D       		.uleb128 0x1d
 2687 084c 63747000 		.ascii	"ctp\000"
ARM GAS  C:\Users\z80\AppData\Local\Temp\cc5VAR70.s 			page 49


 2688 0850 01       		.byte	0x1
 2689 0851 2F01     		.2byte	0x12f
 2690 0853 2C020000 		.4byte	0x22c
 2691 0857 02       		.byte	0x2
 2692 0858 91       		.byte	0x91
 2693 0859 70       		.sleb128 -16
 2694 085a 1D       		.uleb128 0x1d
 2695 085b 6D00     		.ascii	"m\000"
 2696 085d 01       		.byte	0x1
 2697 085e 3001     		.2byte	0x130
 2698 0860 D2000000 		.4byte	0xd2
 2699 0864 02       		.byte	0x2
 2700 0865 91       		.byte	0x91
 2701 0866 74       		.sleb128 -12
 2702 0867 17       		.uleb128 0x17
 2703 0868 12000000 		.4byte	.LBB14
 2704 086c 1A000000 		.4byte	.LBE14
 2705 0870 83080000 		.4byte	0x883
 2706 0874 1D       		.uleb128 0x1d
 2707 0875 746D7000 		.ascii	"tmp\000"
 2708 0879 01       		.byte	0x1
 2709 087a 3201     		.2byte	0x132
 2710 087c 70000000 		.4byte	0x70
 2711 0880 01       		.byte	0x1
 2712 0881 53       		.byte	0x53
 2713 0882 00       		.byte	0x0
 2714 0883 19       		.uleb128 0x19
 2715 0884 6E000000 		.4byte	.LBB15
 2716 0888 76000000 		.4byte	.LBE15
 2717 088c 1D       		.uleb128 0x1d
 2718 088d 746D7000 		.ascii	"tmp\000"
 2719 0891 01       		.byte	0x1
 2720 0892 3C01     		.2byte	0x13c
 2721 0894 70000000 		.4byte	0x70
 2722 0898 01       		.byte	0x1
 2723 0899 53       		.byte	0x53
 2724 089a 00       		.byte	0x0
 2725 089b 00       		.byte	0x0
 2726 089c 1E       		.uleb128 0x1e
 2727 089d 01       		.byte	0x1
 2728 089e C6000000 		.4byte	.LASF81
 2729 08a2 01       		.byte	0x1
 2730 08a3 4B01     		.2byte	0x14b
 2731 08a5 01       		.byte	0x1
 2732 08a6 D2000000 		.4byte	0xd2
 2733 08aa 00000000 		.4byte	.LFB17
 2734 08ae 70000000 		.4byte	.LFE17
 2735 08b2 B8010000 		.4byte	.LLST10
 2736 08b6 1A090000 		.4byte	0x91a
 2737 08ba 1C       		.uleb128 0x1c
 2738 08bb F8000000 		.4byte	.LASF69
 2739 08bf 01       		.byte	0x1
 2740 08c0 4B01     		.2byte	0x14b
 2741 08c2 D2000000 		.4byte	0xd2
 2742 08c6 02       		.byte	0x2
 2743 08c7 91       		.byte	0x91
 2744 08c8 6C       		.sleb128 -20
ARM GAS  C:\Users\z80\AppData\Local\Temp\cc5VAR70.s 			page 50


 2745 08c9 1D       		.uleb128 0x1d
 2746 08ca 63747000 		.ascii	"ctp\000"
 2747 08ce 01       		.byte	0x1
 2748 08cf 4C01     		.2byte	0x14c
 2749 08d1 2C020000 		.4byte	0x22c
 2750 08d5 02       		.byte	0x2
 2751 08d6 91       		.byte	0x91
 2752 08d7 70       		.sleb128 -16
 2753 08d8 1D       		.uleb128 0x1d
 2754 08d9 6D00     		.ascii	"m\000"
 2755 08db 01       		.byte	0x1
 2756 08dc 4D01     		.2byte	0x14d
 2757 08de D2000000 		.4byte	0xd2
 2758 08e2 02       		.byte	0x2
 2759 08e3 91       		.byte	0x91
 2760 08e4 74       		.sleb128 -12
 2761 08e5 17       		.uleb128 0x17
 2762 08e6 12000000 		.4byte	.LBB16
 2763 08ea 1A000000 		.4byte	.LBE16
 2764 08ee 01090000 		.4byte	0x901
 2765 08f2 1D       		.uleb128 0x1d
 2766 08f3 746D7000 		.ascii	"tmp\000"
 2767 08f7 01       		.byte	0x1
 2768 08f8 4F01     		.2byte	0x14f
 2769 08fa 70000000 		.4byte	0x70
 2770 08fe 01       		.byte	0x1
 2771 08ff 53       		.byte	0x53
 2772 0900 00       		.byte	0x0
 2773 0901 19       		.uleb128 0x19
 2774 0902 60000000 		.4byte	.LBB17
 2775 0906 68000000 		.4byte	.LBE17
 2776 090a 1D       		.uleb128 0x1d
 2777 090b 746D7000 		.ascii	"tmp\000"
 2778 090f 01       		.byte	0x1
 2779 0910 5801     		.2byte	0x158
 2780 0912 70000000 		.4byte	0x70
 2781 0916 01       		.byte	0x1
 2782 0917 53       		.byte	0x53
 2783 0918 00       		.byte	0x0
 2784 0919 00       		.byte	0x0
 2785 091a 1E       		.uleb128 0x1e
 2786 091b 01       		.byte	0x1
 2787 091c B9000000 		.4byte	.LASF82
 2788 0920 01       		.byte	0x1
 2789 0921 6701     		.2byte	0x167
 2790 0923 01       		.byte	0x1
 2791 0924 D2000000 		.4byte	0xd2
 2792 0928 00000000 		.4byte	.LFB18
 2793 092c 62000000 		.4byte	.LFE18
 2794 0930 E4010000 		.4byte	.LLST11
 2795 0934 8B090000 		.4byte	0x98b
 2796 0938 1C       		.uleb128 0x1c
 2797 0939 F8000000 		.4byte	.LASF69
 2798 093d 01       		.byte	0x1
 2799 093e 6701     		.2byte	0x167
 2800 0940 D2000000 		.4byte	0xd2
 2801 0944 02       		.byte	0x2
ARM GAS  C:\Users\z80\AppData\Local\Temp\cc5VAR70.s 			page 51


 2802 0945 91       		.byte	0x91
 2803 0946 6C       		.sleb128 -20
 2804 0947 1D       		.uleb128 0x1d
 2805 0948 63747000 		.ascii	"ctp\000"
 2806 094c 01       		.byte	0x1
 2807 094d 6801     		.2byte	0x168
 2808 094f 2C020000 		.4byte	0x22c
 2809 0953 02       		.byte	0x2
 2810 0954 91       		.byte	0x91
 2811 0955 74       		.sleb128 -12
 2812 0956 17       		.uleb128 0x17
 2813 0957 12000000 		.4byte	.LBB18
 2814 095b 1A000000 		.4byte	.LBE18
 2815 095f 72090000 		.4byte	0x972
 2816 0963 1D       		.uleb128 0x1d
 2817 0964 746D7000 		.ascii	"tmp\000"
 2818 0968 01       		.byte	0x1
 2819 0969 6A01     		.2byte	0x16a
 2820 096b 70000000 		.4byte	0x70
 2821 096f 01       		.byte	0x1
 2822 0970 53       		.byte	0x53
 2823 0971 00       		.byte	0x0
 2824 0972 19       		.uleb128 0x19
 2825 0973 52000000 		.4byte	.LBB19
 2826 0977 5A000000 		.4byte	.LBE19
 2827 097b 1D       		.uleb128 0x1d
 2828 097c 746D7000 		.ascii	"tmp\000"
 2829 0980 01       		.byte	0x1
 2830 0981 7201     		.2byte	0x172
 2831 0983 70000000 		.4byte	0x70
 2832 0987 01       		.byte	0x1
 2833 0988 53       		.byte	0x53
 2834 0989 00       		.byte	0x0
 2835 098a 00       		.byte	0x0
 2836 098b 1E       		.uleb128 0x1e
 2837 098c 01       		.byte	0x1
 2838 098d 71030000 		.4byte	.LASF83
 2839 0991 01       		.byte	0x1
 2840 0992 8E01     		.2byte	0x18e
 2841 0994 01       		.byte	0x1
 2842 0995 D2000000 		.4byte	0xd2
 2843 0999 00000000 		.4byte	.LFB19
 2844 099d B2000000 		.4byte	.LFE19
 2845 09a1 10020000 		.4byte	.LLST12
 2846 09a5 500A0000 		.4byte	0xa50
 2847 09a9 1C       		.uleb128 0x1c
 2848 09aa F8000000 		.4byte	.LASF69
 2849 09ae 01       		.byte	0x1
 2850 09af 8E01     		.2byte	0x18e
 2851 09b1 D2000000 		.4byte	0xd2
 2852 09b5 02       		.byte	0x2
 2853 09b6 91       		.byte	0x91
 2854 09b7 6C       		.sleb128 -20
 2855 09b8 1C       		.uleb128 0x1c
 2856 09b9 66020000 		.4byte	.LASF84
 2857 09bd 01       		.byte	0x1
 2858 09be 8E01     		.2byte	0x18e
ARM GAS  C:\Users\z80\AppData\Local\Temp\cc5VAR70.s 			page 52


 2859 09c0 DD000000 		.4byte	0xdd
 2860 09c4 02       		.byte	0x2
 2861 09c5 91       		.byte	0x91
 2862 09c6 68       		.sleb128 -24
 2863 09c7 1D       		.uleb128 0x1d
 2864 09c8 63747000 		.ascii	"ctp\000"
 2865 09cc 01       		.byte	0x1
 2866 09cd 8F01     		.2byte	0x18f
 2867 09cf 2C020000 		.4byte	0x22c
 2868 09d3 02       		.byte	0x2
 2869 09d4 91       		.byte	0x91
 2870 09d5 70       		.sleb128 -16
 2871 09d6 1D       		.uleb128 0x1d
 2872 09d7 6D00     		.ascii	"m\000"
 2873 09d9 01       		.byte	0x1
 2874 09da 9001     		.2byte	0x190
 2875 09dc D2000000 		.4byte	0xd2
 2876 09e0 02       		.byte	0x2
 2877 09e1 91       		.byte	0x91
 2878 09e2 74       		.sleb128 -12
 2879 09e3 17       		.uleb128 0x17
 2880 09e4 14000000 		.4byte	.LBB20
 2881 09e8 1C000000 		.4byte	.LBE20
 2882 09ec FF090000 		.4byte	0x9ff
 2883 09f0 1D       		.uleb128 0x1d
 2884 09f1 746D7000 		.ascii	"tmp\000"
 2885 09f5 01       		.byte	0x1
 2886 09f6 9201     		.2byte	0x192
 2887 09f8 70000000 		.4byte	0x70
 2888 09fc 01       		.byte	0x1
 2889 09fd 53       		.byte	0x53
 2890 09fe 00       		.byte	0x0
 2891 09ff 17       		.uleb128 0x17
 2892 0a00 3C000000 		.4byte	.LBB21
 2893 0a04 44000000 		.4byte	.LBE21
 2894 0a08 1B0A0000 		.4byte	0xa1b
 2895 0a0c 1D       		.uleb128 0x1d
 2896 0a0d 746D7000 		.ascii	"tmp\000"
 2897 0a11 01       		.byte	0x1
 2898 0a12 9601     		.2byte	0x196
 2899 0a14 70000000 		.4byte	0x70
 2900 0a18 01       		.byte	0x1
 2901 0a19 53       		.byte	0x53
 2902 0a1a 00       		.byte	0x0
 2903 0a1b 17       		.uleb128 0x17
 2904 0a1c 64000000 		.4byte	.LBB22
 2905 0a20 6C000000 		.4byte	.LBE22
 2906 0a24 370A0000 		.4byte	0xa37
 2907 0a28 1D       		.uleb128 0x1d
 2908 0a29 746D7000 		.ascii	"tmp\000"
 2909 0a2d 01       		.byte	0x1
 2910 0a2e 9B01     		.2byte	0x19b
 2911 0a30 70000000 		.4byte	0x70
 2912 0a34 01       		.byte	0x1
 2913 0a35 53       		.byte	0x53
 2914 0a36 00       		.byte	0x0
 2915 0a37 19       		.uleb128 0x19
ARM GAS  C:\Users\z80\AppData\Local\Temp\cc5VAR70.s 			page 53


 2916 0a38 A2000000 		.4byte	.LBB23
 2917 0a3c AA000000 		.4byte	.LBE23
 2918 0a40 1D       		.uleb128 0x1d
 2919 0a41 746D7000 		.ascii	"tmp\000"
 2920 0a45 01       		.byte	0x1
 2921 0a46 A301     		.2byte	0x1a3
 2922 0a48 70000000 		.4byte	0x70
 2923 0a4c 01       		.byte	0x1
 2924 0a4d 53       		.byte	0x53
 2925 0a4e 00       		.byte	0x0
 2926 0a4f 00       		.byte	0x0
 2927 0a50 1E       		.uleb128 0x1e
 2928 0a51 01       		.byte	0x1
 2929 0a52 48000000 		.4byte	.LASF85
 2930 0a56 01       		.byte	0x1
 2931 0a57 B901     		.2byte	0x1b9
 2932 0a59 01       		.byte	0x1
 2933 0a5a D2000000 		.4byte	0xd2
 2934 0a5e 00000000 		.4byte	.LFB20
 2935 0a62 A4000000 		.4byte	.LFE20
 2936 0a66 3C020000 		.4byte	.LLST13
 2937 0a6a 150B0000 		.4byte	0xb15
 2938 0a6e 1C       		.uleb128 0x1c
 2939 0a6f F8000000 		.4byte	.LASF69
 2940 0a73 01       		.byte	0x1
 2941 0a74 B901     		.2byte	0x1b9
 2942 0a76 D2000000 		.4byte	0xd2
 2943 0a7a 02       		.byte	0x2
 2944 0a7b 91       		.byte	0x91
 2945 0a7c 6C       		.sleb128 -20
 2946 0a7d 1C       		.uleb128 0x1c
 2947 0a7e 66020000 		.4byte	.LASF84
 2948 0a82 01       		.byte	0x1
 2949 0a83 B901     		.2byte	0x1b9
 2950 0a85 DD000000 		.4byte	0xdd
 2951 0a89 02       		.byte	0x2
 2952 0a8a 91       		.byte	0x91
 2953 0a8b 68       		.sleb128 -24
 2954 0a8c 1D       		.uleb128 0x1d
 2955 0a8d 63747000 		.ascii	"ctp\000"
 2956 0a91 01       		.byte	0x1
 2957 0a92 BA01     		.2byte	0x1ba
 2958 0a94 2C020000 		.4byte	0x22c
 2959 0a98 02       		.byte	0x2
 2960 0a99 91       		.byte	0x91
 2961 0a9a 70       		.sleb128 -16
 2962 0a9b 1D       		.uleb128 0x1d
 2963 0a9c 6D00     		.ascii	"m\000"
 2964 0a9e 01       		.byte	0x1
 2965 0a9f BB01     		.2byte	0x1bb
 2966 0aa1 D2000000 		.4byte	0xd2
 2967 0aa5 02       		.byte	0x2
 2968 0aa6 91       		.byte	0x91
 2969 0aa7 74       		.sleb128 -12
 2970 0aa8 17       		.uleb128 0x17
 2971 0aa9 14000000 		.4byte	.LBB24
 2972 0aad 1C000000 		.4byte	.LBE24
ARM GAS  C:\Users\z80\AppData\Local\Temp\cc5VAR70.s 			page 54


 2973 0ab1 C40A0000 		.4byte	0xac4
 2974 0ab5 1D       		.uleb128 0x1d
 2975 0ab6 746D7000 		.ascii	"tmp\000"
 2976 0aba 01       		.byte	0x1
 2977 0abb BD01     		.2byte	0x1bd
 2978 0abd 70000000 		.4byte	0x70
 2979 0ac1 01       		.byte	0x1
 2980 0ac2 53       		.byte	0x53
 2981 0ac3 00       		.byte	0x0
 2982 0ac4 17       		.uleb128 0x17
 2983 0ac5 3C000000 		.4byte	.LBB25
 2984 0ac9 44000000 		.4byte	.LBE25
 2985 0acd E00A0000 		.4byte	0xae0
 2986 0ad1 1D       		.uleb128 0x1d
 2987 0ad2 746D7000 		.ascii	"tmp\000"
 2988 0ad6 01       		.byte	0x1
 2989 0ad7 C101     		.2byte	0x1c1
 2990 0ad9 70000000 		.4byte	0x70
 2991 0add 01       		.byte	0x1
 2992 0ade 53       		.byte	0x53
 2993 0adf 00       		.byte	0x0
 2994 0ae0 17       		.uleb128 0x17
 2995 0ae1 64000000 		.4byte	.LBB26
 2996 0ae5 6C000000 		.4byte	.LBE26
 2997 0ae9 FC0A0000 		.4byte	0xafc
 2998 0aed 1D       		.uleb128 0x1d
 2999 0aee 746D7000 		.ascii	"tmp\000"
 3000 0af2 01       		.byte	0x1
 3001 0af3 C601     		.2byte	0x1c6
 3002 0af5 70000000 		.4byte	0x70
 3003 0af9 01       		.byte	0x1
 3004 0afa 53       		.byte	0x53
 3005 0afb 00       		.byte	0x0
 3006 0afc 19       		.uleb128 0x19
 3007 0afd 94000000 		.4byte	.LBB27
 3008 0b01 9C000000 		.4byte	.LBE27
 3009 0b05 1D       		.uleb128 0x1d
 3010 0b06 746D7000 		.ascii	"tmp\000"
 3011 0b0a 01       		.byte	0x1
 3012 0b0b CD01     		.2byte	0x1cd
 3013 0b0d 70000000 		.4byte	0x70
 3014 0b11 01       		.byte	0x1
 3015 0b12 53       		.byte	0x53
 3016 0b13 00       		.byte	0x0
 3017 0b14 00       		.byte	0x0
 3018 0b15 1E       		.uleb128 0x1e
 3019 0b16 01       		.byte	0x1
 3020 0b17 7D000000 		.4byte	.LASF86
 3021 0b1b 01       		.byte	0x1
 3022 0b1c E201     		.2byte	0x1e2
 3023 0b1e 01       		.byte	0x1
 3024 0b1f D2000000 		.4byte	0xd2
 3025 0b23 00000000 		.4byte	.LFB21
 3026 0b27 96000000 		.4byte	.LFE21
 3027 0b2b 68020000 		.4byte	.LLST14
 3028 0b2f CD0B0000 		.4byte	0xbcd
 3029 0b33 1C       		.uleb128 0x1c
ARM GAS  C:\Users\z80\AppData\Local\Temp\cc5VAR70.s 			page 55


 3030 0b34 F8000000 		.4byte	.LASF69
 3031 0b38 01       		.byte	0x1
 3032 0b39 E201     		.2byte	0x1e2
 3033 0b3b D2000000 		.4byte	0xd2
 3034 0b3f 02       		.byte	0x2
 3035 0b40 91       		.byte	0x91
 3036 0b41 6C       		.sleb128 -20
 3037 0b42 1C       		.uleb128 0x1c
 3038 0b43 66020000 		.4byte	.LASF84
 3039 0b47 01       		.byte	0x1
 3040 0b48 E201     		.2byte	0x1e2
 3041 0b4a DD000000 		.4byte	0xdd
 3042 0b4e 02       		.byte	0x2
 3043 0b4f 91       		.byte	0x91
 3044 0b50 68       		.sleb128 -24
 3045 0b51 1D       		.uleb128 0x1d
 3046 0b52 63747000 		.ascii	"ctp\000"
 3047 0b56 01       		.byte	0x1
 3048 0b57 E301     		.2byte	0x1e3
 3049 0b59 2C020000 		.4byte	0x22c
 3050 0b5d 02       		.byte	0x2
 3051 0b5e 91       		.byte	0x91
 3052 0b5f 74       		.sleb128 -12
 3053 0b60 17       		.uleb128 0x17
 3054 0b61 14000000 		.4byte	.LBB28
 3055 0b65 1C000000 		.4byte	.LBE28
 3056 0b69 7C0B0000 		.4byte	0xb7c
 3057 0b6d 1D       		.uleb128 0x1d
 3058 0b6e 746D7000 		.ascii	"tmp\000"
 3059 0b72 01       		.byte	0x1
 3060 0b73 E501     		.2byte	0x1e5
 3061 0b75 70000000 		.4byte	0x70
 3062 0b79 01       		.byte	0x1
 3063 0b7a 53       		.byte	0x53
 3064 0b7b 00       		.byte	0x0
 3065 0b7c 17       		.uleb128 0x17
 3066 0b7d 3A000000 		.4byte	.LBB29
 3067 0b81 42000000 		.4byte	.LBE29
 3068 0b85 980B0000 		.4byte	0xb98
 3069 0b89 1D       		.uleb128 0x1d
 3070 0b8a 746D7000 		.ascii	"tmp\000"
 3071 0b8e 01       		.byte	0x1
 3072 0b8f E901     		.2byte	0x1e9
 3073 0b91 70000000 		.4byte	0x70
 3074 0b95 01       		.byte	0x1
 3075 0b96 53       		.byte	0x53
 3076 0b97 00       		.byte	0x0
 3077 0b98 17       		.uleb128 0x17
 3078 0b99 62000000 		.4byte	.LBB30
 3079 0b9d 6A000000 		.4byte	.LBE30
 3080 0ba1 B40B0000 		.4byte	0xbb4
 3081 0ba5 1D       		.uleb128 0x1d
 3082 0ba6 746D7000 		.ascii	"tmp\000"
 3083 0baa 01       		.byte	0x1
 3084 0bab EE01     		.2byte	0x1ee
 3085 0bad 70000000 		.4byte	0x70
 3086 0bb1 01       		.byte	0x1
ARM GAS  C:\Users\z80\AppData\Local\Temp\cc5VAR70.s 			page 56


 3087 0bb2 53       		.byte	0x53
 3088 0bb3 00       		.byte	0x0
 3089 0bb4 19       		.uleb128 0x19
 3090 0bb5 86000000 		.4byte	.LBB31
 3091 0bb9 8E000000 		.4byte	.LBE31
 3092 0bbd 1D       		.uleb128 0x1d
 3093 0bbe 746D7000 		.ascii	"tmp\000"
 3094 0bc2 01       		.byte	0x1
 3095 0bc3 F401     		.2byte	0x1f4
 3096 0bc5 70000000 		.4byte	0x70
 3097 0bc9 01       		.byte	0x1
 3098 0bca 53       		.byte	0x53
 3099 0bcb 00       		.byte	0x0
 3100 0bcc 00       		.byte	0x0
 3101 0bcd 1F       		.uleb128 0x1f
 3102 0bce A9030000 		.4byte	.LASF87
 3103 0bd2 07       		.byte	0x7
 3104 0bd3 72       		.byte	0x72
 3105 0bd4 9A030000 		.4byte	0x39a
 3106 0bd8 01       		.byte	0x1
 3107 0bd9 01       		.byte	0x1
 3108 0bda 1F       		.uleb128 0x1f
 3109 0bdb A9030000 		.4byte	.LASF87
 3110 0bdf 07       		.byte	0x7
 3111 0be0 72       		.byte	0x72
 3112 0be1 9A030000 		.4byte	0x39a
 3113 0be5 01       		.byte	0x1
 3114 0be6 01       		.byte	0x1
 3115 0be7 00       		.byte	0x0
 3116              		.section	.debug_abbrev
 3117 0000 01       		.uleb128 0x1
 3118 0001 11       		.uleb128 0x11
 3119 0002 01       		.byte	0x1
 3120 0003 25       		.uleb128 0x25
 3121 0004 0E       		.uleb128 0xe
 3122 0005 13       		.uleb128 0x13
 3123 0006 0B       		.uleb128 0xb
 3124 0007 03       		.uleb128 0x3
 3125 0008 0E       		.uleb128 0xe
 3126 0009 1B       		.uleb128 0x1b
 3127 000a 0E       		.uleb128 0xe
 3128 000b 11       		.uleb128 0x11
 3129 000c 01       		.uleb128 0x1
 3130 000d 52       		.uleb128 0x52
 3131 000e 01       		.uleb128 0x1
 3132 000f 55       		.uleb128 0x55
 3133 0010 06       		.uleb128 0x6
 3134 0011 10       		.uleb128 0x10
 3135 0012 06       		.uleb128 0x6
 3136 0013 00       		.byte	0x0
 3137 0014 00       		.byte	0x0
 3138 0015 02       		.uleb128 0x2
 3139 0016 24       		.uleb128 0x24
 3140 0017 00       		.byte	0x0
 3141 0018 0B       		.uleb128 0xb
 3142 0019 0B       		.uleb128 0xb
 3143 001a 3E       		.uleb128 0x3e
ARM GAS  C:\Users\z80\AppData\Local\Temp\cc5VAR70.s 			page 57


 3144 001b 0B       		.uleb128 0xb
 3145 001c 03       		.uleb128 0x3
 3146 001d 08       		.uleb128 0x8
 3147 001e 00       		.byte	0x0
 3148 001f 00       		.byte	0x0
 3149 0020 03       		.uleb128 0x3
 3150 0021 24       		.uleb128 0x24
 3151 0022 00       		.byte	0x0
 3152 0023 0B       		.uleb128 0xb
 3153 0024 0B       		.uleb128 0xb
 3154 0025 3E       		.uleb128 0x3e
 3155 0026 0B       		.uleb128 0xb
 3156 0027 03       		.uleb128 0x3
 3157 0028 0E       		.uleb128 0xe
 3158 0029 00       		.byte	0x0
 3159 002a 00       		.byte	0x0
 3160 002b 04       		.uleb128 0x4
 3161 002c 16       		.uleb128 0x16
 3162 002d 00       		.byte	0x0
 3163 002e 03       		.uleb128 0x3
 3164 002f 0E       		.uleb128 0xe
 3165 0030 3A       		.uleb128 0x3a
 3166 0031 0B       		.uleb128 0xb
 3167 0032 3B       		.uleb128 0x3b
 3168 0033 0B       		.uleb128 0xb
 3169 0034 49       		.uleb128 0x49
 3170 0035 13       		.uleb128 0x13
 3171 0036 00       		.byte	0x0
 3172 0037 00       		.byte	0x0
 3173 0038 05       		.uleb128 0x5
 3174 0039 13       		.uleb128 0x13
 3175 003a 01       		.byte	0x1
 3176 003b 03       		.uleb128 0x3
 3177 003c 0E       		.uleb128 0xe
 3178 003d 0B       		.uleb128 0xb
 3179 003e 0B       		.uleb128 0xb
 3180 003f 3A       		.uleb128 0x3a
 3181 0040 0B       		.uleb128 0xb
 3182 0041 3B       		.uleb128 0x3b
 3183 0042 0B       		.uleb128 0xb
 3184 0043 01       		.uleb128 0x1
 3185 0044 13       		.uleb128 0x13
 3186 0045 00       		.byte	0x0
 3187 0046 00       		.byte	0x0
 3188 0047 06       		.uleb128 0x6
 3189 0048 0D       		.uleb128 0xd
 3190 0049 00       		.byte	0x0
 3191 004a 03       		.uleb128 0x3
 3192 004b 0E       		.uleb128 0xe
 3193 004c 3A       		.uleb128 0x3a
 3194 004d 0B       		.uleb128 0xb
 3195 004e 3B       		.uleb128 0x3b
 3196 004f 0B       		.uleb128 0xb
 3197 0050 49       		.uleb128 0x49
 3198 0051 13       		.uleb128 0x13
 3199 0052 38       		.uleb128 0x38
 3200 0053 0A       		.uleb128 0xa
ARM GAS  C:\Users\z80\AppData\Local\Temp\cc5VAR70.s 			page 58


 3201 0054 00       		.byte	0x0
 3202 0055 00       		.byte	0x0
 3203 0056 07       		.uleb128 0x7
 3204 0057 0D       		.uleb128 0xd
 3205 0058 00       		.byte	0x0
 3206 0059 03       		.uleb128 0x3
 3207 005a 08       		.uleb128 0x8
 3208 005b 3A       		.uleb128 0x3a
 3209 005c 0B       		.uleb128 0xb
 3210 005d 3B       		.uleb128 0x3b
 3211 005e 0B       		.uleb128 0xb
 3212 005f 49       		.uleb128 0x49
 3213 0060 13       		.uleb128 0x13
 3214 0061 38       		.uleb128 0x38
 3215 0062 0A       		.uleb128 0xa
 3216 0063 00       		.byte	0x0
 3217 0064 00       		.byte	0x0
 3218 0065 08       		.uleb128 0x8
 3219 0066 13       		.uleb128 0x13
 3220 0067 01       		.byte	0x1
 3221 0068 0B       		.uleb128 0xb
 3222 0069 0B       		.uleb128 0xb
 3223 006a 3A       		.uleb128 0x3a
 3224 006b 0B       		.uleb128 0xb
 3225 006c 3B       		.uleb128 0x3b
 3226 006d 0B       		.uleb128 0xb
 3227 006e 01       		.uleb128 0x1
 3228 006f 13       		.uleb128 0x13
 3229 0070 00       		.byte	0x0
 3230 0071 00       		.byte	0x0
 3231 0072 09       		.uleb128 0x9
 3232 0073 0F       		.uleb128 0xf
 3233 0074 00       		.byte	0x0
 3234 0075 0B       		.uleb128 0xb
 3235 0076 0B       		.uleb128 0xb
 3236 0077 49       		.uleb128 0x49
 3237 0078 13       		.uleb128 0x13
 3238 0079 00       		.byte	0x0
 3239 007a 00       		.byte	0x0
 3240 007b 0A       		.uleb128 0xa
 3241 007c 0F       		.uleb128 0xf
 3242 007d 00       		.byte	0x0
 3243 007e 0B       		.uleb128 0xb
 3244 007f 0B       		.uleb128 0xb
 3245 0080 00       		.byte	0x0
 3246 0081 00       		.byte	0x0
 3247 0082 0B       		.uleb128 0xb
 3248 0083 0D       		.uleb128 0xd
 3249 0084 00       		.byte	0x0
 3250 0085 03       		.uleb128 0x3
 3251 0086 08       		.uleb128 0x8
 3252 0087 3A       		.uleb128 0x3a
 3253 0088 0B       		.uleb128 0xb
 3254 0089 3B       		.uleb128 0x3b
 3255 008a 05       		.uleb128 0x5
 3256 008b 49       		.uleb128 0x49
 3257 008c 13       		.uleb128 0x13
ARM GAS  C:\Users\z80\AppData\Local\Temp\cc5VAR70.s 			page 59


 3258 008d 38       		.uleb128 0x38
 3259 008e 0A       		.uleb128 0xa
 3260 008f 00       		.byte	0x0
 3261 0090 00       		.byte	0x0
 3262 0091 0C       		.uleb128 0xc
 3263 0092 13       		.uleb128 0x13
 3264 0093 01       		.byte	0x1
 3265 0094 03       		.uleb128 0x3
 3266 0095 0E       		.uleb128 0xe
 3267 0096 0B       		.uleb128 0xb
 3268 0097 0B       		.uleb128 0xb
 3269 0098 3A       		.uleb128 0x3a
 3270 0099 0B       		.uleb128 0xb
 3271 009a 3B       		.uleb128 0x3b
 3272 009b 05       		.uleb128 0x5
 3273 009c 01       		.uleb128 0x1
 3274 009d 13       		.uleb128 0x13
 3275 009e 00       		.byte	0x0
 3276 009f 00       		.byte	0x0
 3277 00a0 0D       		.uleb128 0xd
 3278 00a1 24       		.uleb128 0x24
 3279 00a2 00       		.byte	0x0
 3280 00a3 0B       		.uleb128 0xb
 3281 00a4 0B       		.uleb128 0xb
 3282 00a5 3E       		.uleb128 0x3e
 3283 00a6 0B       		.uleb128 0xb
 3284 00a7 00       		.byte	0x0
 3285 00a8 00       		.byte	0x0
 3286 00a9 0E       		.uleb128 0xe
 3287 00aa 35       		.uleb128 0x35
 3288 00ab 00       		.byte	0x0
 3289 00ac 49       		.uleb128 0x49
 3290 00ad 13       		.uleb128 0x13
 3291 00ae 00       		.byte	0x0
 3292 00af 00       		.byte	0x0
 3293 00b0 0F       		.uleb128 0xf
 3294 00b1 15       		.uleb128 0x15
 3295 00b2 01       		.byte	0x1
 3296 00b3 27       		.uleb128 0x27
 3297 00b4 0C       		.uleb128 0xc
 3298 00b5 01       		.uleb128 0x1
 3299 00b6 13       		.uleb128 0x13
 3300 00b7 00       		.byte	0x0
 3301 00b8 00       		.byte	0x0
 3302 00b9 10       		.uleb128 0x10
 3303 00ba 05       		.uleb128 0x5
 3304 00bb 00       		.byte	0x0
 3305 00bc 49       		.uleb128 0x49
 3306 00bd 13       		.uleb128 0x13
 3307 00be 00       		.byte	0x0
 3308 00bf 00       		.byte	0x0
 3309 00c0 11       		.uleb128 0x11
 3310 00c1 17       		.uleb128 0x17
 3311 00c2 01       		.byte	0x1
 3312 00c3 0B       		.uleb128 0xb
 3313 00c4 0B       		.uleb128 0xb
 3314 00c5 3A       		.uleb128 0x3a
ARM GAS  C:\Users\z80\AppData\Local\Temp\cc5VAR70.s 			page 60


 3315 00c6 0B       		.uleb128 0xb
 3316 00c7 3B       		.uleb128 0x3b
 3317 00c8 0B       		.uleb128 0xb
 3318 00c9 01       		.uleb128 0x1
 3319 00ca 13       		.uleb128 0x13
 3320 00cb 00       		.byte	0x0
 3321 00cc 00       		.byte	0x0
 3322 00cd 12       		.uleb128 0x12
 3323 00ce 0D       		.uleb128 0xd
 3324 00cf 00       		.byte	0x0
 3325 00d0 03       		.uleb128 0x3
 3326 00d1 0E       		.uleb128 0xe
 3327 00d2 3A       		.uleb128 0x3a
 3328 00d3 0B       		.uleb128 0xb
 3329 00d4 3B       		.uleb128 0x3b
 3330 00d5 0B       		.uleb128 0xb
 3331 00d6 49       		.uleb128 0x49
 3332 00d7 13       		.uleb128 0x13
 3333 00d8 00       		.byte	0x0
 3334 00d9 00       		.byte	0x0
 3335 00da 13       		.uleb128 0x13
 3336 00db 26       		.uleb128 0x26
 3337 00dc 00       		.byte	0x0
 3338 00dd 49       		.uleb128 0x49
 3339 00de 13       		.uleb128 0x13
 3340 00df 00       		.byte	0x0
 3341 00e0 00       		.byte	0x0
 3342 00e1 14       		.uleb128 0x14
 3343 00e2 2E       		.uleb128 0x2e
 3344 00e3 01       		.byte	0x1
 3345 00e4 3F       		.uleb128 0x3f
 3346 00e5 0C       		.uleb128 0xc
 3347 00e6 03       		.uleb128 0x3
 3348 00e7 0E       		.uleb128 0xe
 3349 00e8 3A       		.uleb128 0x3a
 3350 00e9 0B       		.uleb128 0xb
 3351 00ea 3B       		.uleb128 0x3b
 3352 00eb 0B       		.uleb128 0xb
 3353 00ec 27       		.uleb128 0x27
 3354 00ed 0C       		.uleb128 0xc
 3355 00ee 11       		.uleb128 0x11
 3356 00ef 01       		.uleb128 0x1
 3357 00f0 12       		.uleb128 0x12
 3358 00f1 01       		.uleb128 0x1
 3359 00f2 40       		.uleb128 0x40
 3360 00f3 06       		.uleb128 0x6
 3361 00f4 01       		.uleb128 0x1
 3362 00f5 13       		.uleb128 0x13
 3363 00f6 00       		.byte	0x0
 3364 00f7 00       		.byte	0x0
 3365 00f8 15       		.uleb128 0x15
 3366 00f9 05       		.uleb128 0x5
 3367 00fa 00       		.byte	0x0
 3368 00fb 03       		.uleb128 0x3
 3369 00fc 08       		.uleb128 0x8
 3370 00fd 3A       		.uleb128 0x3a
 3371 00fe 0B       		.uleb128 0xb
ARM GAS  C:\Users\z80\AppData\Local\Temp\cc5VAR70.s 			page 61


 3372 00ff 3B       		.uleb128 0x3b
 3373 0100 0B       		.uleb128 0xb
 3374 0101 49       		.uleb128 0x49
 3375 0102 13       		.uleb128 0x13
 3376 0103 02       		.uleb128 0x2
 3377 0104 0A       		.uleb128 0xa
 3378 0105 00       		.byte	0x0
 3379 0106 00       		.byte	0x0
 3380 0107 16       		.uleb128 0x16
 3381 0108 05       		.uleb128 0x5
 3382 0109 00       		.byte	0x0
 3383 010a 03       		.uleb128 0x3
 3384 010b 0E       		.uleb128 0xe
 3385 010c 3A       		.uleb128 0x3a
 3386 010d 0B       		.uleb128 0xb
 3387 010e 3B       		.uleb128 0x3b
 3388 010f 0B       		.uleb128 0xb
 3389 0110 49       		.uleb128 0x49
 3390 0111 13       		.uleb128 0x13
 3391 0112 02       		.uleb128 0x2
 3392 0113 0A       		.uleb128 0xa
 3393 0114 00       		.byte	0x0
 3394 0115 00       		.byte	0x0
 3395 0116 17       		.uleb128 0x17
 3396 0117 0B       		.uleb128 0xb
 3397 0118 01       		.byte	0x1
 3398 0119 11       		.uleb128 0x11
 3399 011a 01       		.uleb128 0x1
 3400 011b 12       		.uleb128 0x12
 3401 011c 01       		.uleb128 0x1
 3402 011d 01       		.uleb128 0x1
 3403 011e 13       		.uleb128 0x13
 3404 011f 00       		.byte	0x0
 3405 0120 00       		.byte	0x0
 3406 0121 18       		.uleb128 0x18
 3407 0122 34       		.uleb128 0x34
 3408 0123 00       		.byte	0x0
 3409 0124 03       		.uleb128 0x3
 3410 0125 08       		.uleb128 0x8
 3411 0126 3A       		.uleb128 0x3a
 3412 0127 0B       		.uleb128 0xb
 3413 0128 3B       		.uleb128 0x3b
 3414 0129 0B       		.uleb128 0xb
 3415 012a 49       		.uleb128 0x49
 3416 012b 13       		.uleb128 0x13
 3417 012c 02       		.uleb128 0x2
 3418 012d 0A       		.uleb128 0xa
 3419 012e 00       		.byte	0x0
 3420 012f 00       		.byte	0x0
 3421 0130 19       		.uleb128 0x19
 3422 0131 0B       		.uleb128 0xb
 3423 0132 01       		.byte	0x1
 3424 0133 11       		.uleb128 0x11
 3425 0134 01       		.uleb128 0x1
 3426 0135 12       		.uleb128 0x12
 3427 0136 01       		.uleb128 0x1
 3428 0137 00       		.byte	0x0
ARM GAS  C:\Users\z80\AppData\Local\Temp\cc5VAR70.s 			page 62


 3429 0138 00       		.byte	0x0
 3430 0139 1A       		.uleb128 0x1a
 3431 013a 2E       		.uleb128 0x2e
 3432 013b 01       		.byte	0x1
 3433 013c 3F       		.uleb128 0x3f
 3434 013d 0C       		.uleb128 0xc
 3435 013e 03       		.uleb128 0x3
 3436 013f 0E       		.uleb128 0xe
 3437 0140 3A       		.uleb128 0x3a
 3438 0141 0B       		.uleb128 0xb
 3439 0142 3B       		.uleb128 0x3b
 3440 0143 0B       		.uleb128 0xb
 3441 0144 27       		.uleb128 0x27
 3442 0145 0C       		.uleb128 0xc
 3443 0146 49       		.uleb128 0x49
 3444 0147 13       		.uleb128 0x13
 3445 0148 11       		.uleb128 0x11
 3446 0149 01       		.uleb128 0x1
 3447 014a 12       		.uleb128 0x12
 3448 014b 01       		.uleb128 0x1
 3449 014c 40       		.uleb128 0x40
 3450 014d 06       		.uleb128 0x6
 3451 014e 01       		.uleb128 0x1
 3452 014f 13       		.uleb128 0x13
 3453 0150 00       		.byte	0x0
 3454 0151 00       		.byte	0x0
 3455 0152 1B       		.uleb128 0x1b
 3456 0153 2E       		.uleb128 0x2e
 3457 0154 01       		.byte	0x1
 3458 0155 3F       		.uleb128 0x3f
 3459 0156 0C       		.uleb128 0xc
 3460 0157 03       		.uleb128 0x3
 3461 0158 0E       		.uleb128 0xe
 3462 0159 3A       		.uleb128 0x3a
 3463 015a 0B       		.uleb128 0xb
 3464 015b 3B       		.uleb128 0x3b
 3465 015c 05       		.uleb128 0x5
 3466 015d 27       		.uleb128 0x27
 3467 015e 0C       		.uleb128 0xc
 3468 015f 11       		.uleb128 0x11
 3469 0160 01       		.uleb128 0x1
 3470 0161 12       		.uleb128 0x12
 3471 0162 01       		.uleb128 0x1
 3472 0163 40       		.uleb128 0x40
 3473 0164 06       		.uleb128 0x6
 3474 0165 01       		.uleb128 0x1
 3475 0166 13       		.uleb128 0x13
 3476 0167 00       		.byte	0x0
 3477 0168 00       		.byte	0x0
 3478 0169 1C       		.uleb128 0x1c
 3479 016a 05       		.uleb128 0x5
 3480 016b 00       		.byte	0x0
 3481 016c 03       		.uleb128 0x3
 3482 016d 0E       		.uleb128 0xe
 3483 016e 3A       		.uleb128 0x3a
 3484 016f 0B       		.uleb128 0xb
 3485 0170 3B       		.uleb128 0x3b
ARM GAS  C:\Users\z80\AppData\Local\Temp\cc5VAR70.s 			page 63


 3486 0171 05       		.uleb128 0x5
 3487 0172 49       		.uleb128 0x49
 3488 0173 13       		.uleb128 0x13
 3489 0174 02       		.uleb128 0x2
 3490 0175 0A       		.uleb128 0xa
 3491 0176 00       		.byte	0x0
 3492 0177 00       		.byte	0x0
 3493 0178 1D       		.uleb128 0x1d
 3494 0179 34       		.uleb128 0x34
 3495 017a 00       		.byte	0x0
 3496 017b 03       		.uleb128 0x3
 3497 017c 08       		.uleb128 0x8
 3498 017d 3A       		.uleb128 0x3a
 3499 017e 0B       		.uleb128 0xb
 3500 017f 3B       		.uleb128 0x3b
 3501 0180 05       		.uleb128 0x5
 3502 0181 49       		.uleb128 0x49
 3503 0182 13       		.uleb128 0x13
 3504 0183 02       		.uleb128 0x2
 3505 0184 0A       		.uleb128 0xa
 3506 0185 00       		.byte	0x0
 3507 0186 00       		.byte	0x0
 3508 0187 1E       		.uleb128 0x1e
 3509 0188 2E       		.uleb128 0x2e
 3510 0189 01       		.byte	0x1
 3511 018a 3F       		.uleb128 0x3f
 3512 018b 0C       		.uleb128 0xc
 3513 018c 03       		.uleb128 0x3
 3514 018d 0E       		.uleb128 0xe
 3515 018e 3A       		.uleb128 0x3a
 3516 018f 0B       		.uleb128 0xb
 3517 0190 3B       		.uleb128 0x3b
 3518 0191 05       		.uleb128 0x5
 3519 0192 27       		.uleb128 0x27
 3520 0193 0C       		.uleb128 0xc
 3521 0194 49       		.uleb128 0x49
 3522 0195 13       		.uleb128 0x13
 3523 0196 11       		.uleb128 0x11
 3524 0197 01       		.uleb128 0x1
 3525 0198 12       		.uleb128 0x12
 3526 0199 01       		.uleb128 0x1
 3527 019a 40       		.uleb128 0x40
 3528 019b 06       		.uleb128 0x6
 3529 019c 01       		.uleb128 0x1
 3530 019d 13       		.uleb128 0x13
 3531 019e 00       		.byte	0x0
 3532 019f 00       		.byte	0x0
 3533 01a0 1F       		.uleb128 0x1f
 3534 01a1 34       		.uleb128 0x34
 3535 01a2 00       		.byte	0x0
 3536 01a3 03       		.uleb128 0x3
 3537 01a4 0E       		.uleb128 0xe
 3538 01a5 3A       		.uleb128 0x3a
 3539 01a6 0B       		.uleb128 0xb
 3540 01a7 3B       		.uleb128 0x3b
 3541 01a8 0B       		.uleb128 0xb
 3542 01a9 49       		.uleb128 0x49
ARM GAS  C:\Users\z80\AppData\Local\Temp\cc5VAR70.s 			page 64


 3543 01aa 13       		.uleb128 0x13
 3544 01ab 3F       		.uleb128 0x3f
 3545 01ac 0C       		.uleb128 0xc
 3546 01ad 3C       		.uleb128 0x3c
 3547 01ae 0C       		.uleb128 0xc
 3548 01af 00       		.byte	0x0
 3549 01b0 00       		.byte	0x0
 3550 01b1 00       		.byte	0x0
 3551              		.section	.debug_pubnames,"",%progbits
 3552 0000 47010000 		.4byte	0x147
 3553 0004 0200     		.2byte	0x2
 3554 0006 00000000 		.4byte	.Ldebug_info0
 3555 000a E80B0000 		.4byte	0xbe8
 3556 000e CB040000 		.4byte	0x4cb
 3557 0012 63684576 		.ascii	"chEvtRegisterMask\000"
 3557      74526567 
 3557      69737465 
 3557      724D6173 
 3557      6B00
 3558 0024 47050000 		.4byte	0x547
 3559 0028 63684576 		.ascii	"chEvtUnregister\000"
 3559      74556E72 
 3559      65676973 
 3559      74657200 
 3560 0038 BB050000 		.4byte	0x5bb
 3561 003c 63684576 		.ascii	"chEvtClearFlags\000"
 3561      74436C65 
 3561      6172466C 
 3561      61677300 
 3562 004c 25060000 		.4byte	0x625
 3563 0050 63684576 		.ascii	"chEvtAddFlags\000"
 3563      74416464 
 3563      466C6167 
 3563      7300
 3564 005e 83060000 		.4byte	0x683
 3565 0062 63684576 		.ascii	"chEvtSignalFlags\000"
 3565      74536967 
 3565      6E616C46 
 3565      6C616773 
 3565      00
 3566 0073 EA060000 		.4byte	0x6ea
 3567 0077 63684576 		.ascii	"chEvtSignalFlagsI\000"
 3567      74536967 
 3567      6E616C46 
 3567      6C616773 
 3567      4900
 3568 0089 1F070000 		.4byte	0x71f
 3569 008d 63684576 		.ascii	"chEvtBroadcastFlags\000"
 3569      7442726F 
 3569      61646361 
 3569      7374466C 
 3569      61677300 
 3570 00a1 87070000 		.4byte	0x787
 3571 00a5 63684576 		.ascii	"chEvtBroadcastFlagsI\000"
 3571      7442726F 
 3571      61646361 
 3571      7374466C 
ARM GAS  C:\Users\z80\AppData\Local\Temp\cc5VAR70.s 			page 65


 3571      61677349 
 3572 00ba CB070000 		.4byte	0x7cb
 3573 00be 63684576 		.ascii	"chEvtDispatch\000"
 3573      74446973 
 3573      70617463 
 3573      6800
 3574 00cc 1E080000 		.4byte	0x81e
 3575 00d0 63684576 		.ascii	"chEvtWaitOne\000"
 3575      74576169 
 3575      744F6E65 
 3575      00
 3576 00dd 9C080000 		.4byte	0x89c
 3577 00e1 63684576 		.ascii	"chEvtWaitAny\000"
 3577      74576169 
 3577      74416E79 
 3577      00
 3578 00ee 1A090000 		.4byte	0x91a
 3579 00f2 63684576 		.ascii	"chEvtWaitAll\000"
 3579      74576169 
 3579      74416C6C 
 3579      00
 3580 00ff 8B090000 		.4byte	0x98b
 3581 0103 63684576 		.ascii	"chEvtWaitOneTimeout\000"
 3581      74576169 
 3581      744F6E65 
 3581      54696D65 
 3581      6F757400 
 3582 0117 500A0000 		.4byte	0xa50
 3583 011b 63684576 		.ascii	"chEvtWaitAnyTimeout\000"
 3583      74576169 
 3583      74416E79 
 3583      54696D65 
 3583      6F757400 
 3584 012f 150B0000 		.4byte	0xb15
 3585 0133 63684576 		.ascii	"chEvtWaitAllTimeout\000"
 3585      74576169 
 3585      74416C6C 
 3585      54696D65 
 3585      6F757400 
 3586 0147 00000000 		.4byte	0x0
 3587              		.section	.debug_pubtypes,"",%progbits
 3588 0000 85010000 		.4byte	0x185
 3589 0004 0200     		.2byte	0x2
 3590 0006 00000000 		.4byte	.Ldebug_info0
 3591 000a E80B0000 		.4byte	0xbe8
 3592 000e 3E000000 		.4byte	0x3e
 3593 0012 75696E74 		.ascii	"uint8_t\000"
 3593      385F7400 
 3594 001a 5E000000 		.4byte	0x5e
 3595 001e 696E7433 		.ascii	"int32_t\000"
 3595      325F7400 
 3596 0026 70000000 		.4byte	0x70
 3597 002a 75696E74 		.ascii	"uint32_t\000"
 3597      33325F74 
 3597      00
 3598 0033 89000000 		.4byte	0x89
 3599 0037 75696E74 		.ascii	"uint64_t\000"
ARM GAS  C:\Users\z80\AppData\Local\Temp\cc5VAR70.s 			page 66


 3599      36345F74 
 3599      00
 3600 0040 9B000000 		.4byte	0x9b
 3601 0044 746D6F64 		.ascii	"tmode_t\000"
 3601      655F7400 
 3602 004c A6000000 		.4byte	0xa6
 3603 0050 74737461 		.ascii	"tstate_t\000"
 3603      74655F74 
 3603      00
 3604 0059 B1000000 		.4byte	0xb1
 3605 005d 74707269 		.ascii	"tprio_t\000"
 3605      6F5F7400 
 3606 0065 BC000000 		.4byte	0xbc
 3607 0069 6D73675F 		.ascii	"msg_t\000"
 3607      7400
 3608 006f C7000000 		.4byte	0xc7
 3609 0073 6576656E 		.ascii	"eventid_t\000"
 3609      7469645F 
 3609      7400
 3610 007d D2000000 		.4byte	0xd2
 3611 0081 6576656E 		.ascii	"eventmask_t\000"
 3611      746D6173 
 3611      6B5F7400 
 3612 008d DD000000 		.4byte	0xdd
 3613 0091 73797374 		.ascii	"systime_t\000"
 3613      696D655F 
 3613      7400
 3614 009b E8000000 		.4byte	0xe8
 3615 009f 636E745F 		.ascii	"cnt_t\000"
 3615      7400
 3616 00a5 F3000000 		.4byte	0xf3
 3617 00a9 54687265 		.ascii	"Thread\000"
 3617      616400
 3618 00b0 32020000 		.4byte	0x232
 3619 00b4 54687265 		.ascii	"ThreadsQueue\000"
 3619      61647351 
 3619      75657565 
 3619      00
 3620 00c1 54020000 		.4byte	0x254
 3621 00c5 54687265 		.ascii	"ThreadsList\000"
 3621      6164734C 
 3621      69737400 
 3622 00d1 5F020000 		.4byte	0x25f
 3623 00d5 72656761 		.ascii	"regarm_t\000"
 3623      726D5F74 
 3623      00
 3624 00de 6C020000 		.4byte	0x26c
 3625 00e2 73746B61 		.ascii	"stkalign_t\000"
 3625      6C69676E 
 3625      5F7400
 3626 00ed 77020000 		.4byte	0x277
 3627 00f1 696E7463 		.ascii	"intctx\000"
 3627      747800
 3628 00f8 04030000 		.4byte	0x304
 3629 00fc 636F6E74 		.ascii	"context\000"
 3629      65787400 
 3630 0104 9A030000 		.4byte	0x39a
ARM GAS  C:\Users\z80\AppData\Local\Temp\cc5VAR70.s 			page 67


 3631 0108 52656164 		.ascii	"ReadyList\000"
 3631      794C6973 
 3631      7400
 3632 0112 A5030000 		.4byte	0x3a5
 3633 0116 4D757465 		.ascii	"Mutex\000"
 3633      7800
 3634 011c E2030000 		.4byte	0x3e2
 3635 0120 4D757465 		.ascii	"Mutex\000"
 3635      7800
 3636 0126 ED030000 		.4byte	0x3ed
 3637 012a 4576656E 		.ascii	"EventListener\000"
 3637      744C6973 
 3637      74656E65 
 3637      7200
 3638 0138 F8030000 		.4byte	0x3f8
 3639 013c 4576656E 		.ascii	"EventListener\000"
 3639      744C6973 
 3639      74656E65 
 3639      7200
 3640 014a 35040000 		.4byte	0x435
 3641 014e 4576656E 		.ascii	"EventSource\000"
 3641      74536F75 
 3641      72636500 
 3642 015a 50040000 		.4byte	0x450
 3643 015e 4576656E 		.ascii	"EventSource\000"
 3643      74536F75 
 3643      72636500 
 3644 016a 5B040000 		.4byte	0x45b
 3645 016e 65766861 		.ascii	"evhandler_t\000"
 3645      6E646C65 
 3645      725F7400 
 3646 017a FE000000 		.4byte	0xfe
 3647 017e 54687265 		.ascii	"Thread\000"
 3647      616400
 3648 0185 00000000 		.4byte	0x0
 3649              		.section	.debug_aranges,"",%progbits
 3650 0000 8C000000 		.4byte	0x8c
 3651 0004 0200     		.2byte	0x2
 3652 0006 00000000 		.4byte	.Ldebug_info0
 3653 000a 04       		.byte	0x4
 3654 000b 00       		.byte	0x0
 3655 000c 0000     		.2byte	0x0
 3656 000e 0000     		.2byte	0x0
 3657 0010 00000000 		.4byte	.LFB7
 3658 0014 60000000 		.4byte	.LFE7-.LFB7
 3659 0018 00000000 		.4byte	.LFB8
 3660 001c 66000000 		.4byte	.LFE8-.LFB8
 3661 0020 00000000 		.4byte	.LFB9
 3662 0024 5C000000 		.4byte	.LFE9-.LFB9
 3663 0028 00000000 		.4byte	.LFB10
 3664 002c 48000000 		.4byte	.LFE10-.LFB10
 3665 0030 00000000 		.4byte	.LFB11
 3666 0034 42000000 		.4byte	.LFE11-.LFB11
 3667 0038 00000000 		.4byte	.LFB12
 3668 003c 76000000 		.4byte	.LFE12-.LFB12
 3669 0040 00000000 		.4byte	.LFB13
 3670 0044 30000000 		.4byte	.LFE13-.LFB13
ARM GAS  C:\Users\z80\AppData\Local\Temp\cc5VAR70.s 			page 68


 3671 0048 00000000 		.4byte	.LFB14
 3672 004c 4E000000 		.4byte	.LFE14-.LFB14
 3673 0050 00000000 		.4byte	.LFB15
 3674 0054 8C000000 		.4byte	.LFE15-.LFB15
 3675 0058 00000000 		.4byte	.LFB16
 3676 005c 7E000000 		.4byte	.LFE16-.LFB16
 3677 0060 00000000 		.4byte	.LFB17
 3678 0064 70000000 		.4byte	.LFE17-.LFB17
 3679 0068 00000000 		.4byte	.LFB18
 3680 006c 62000000 		.4byte	.LFE18-.LFB18
 3681 0070 00000000 		.4byte	.LFB19
 3682 0074 B2000000 		.4byte	.LFE19-.LFB19
 3683 0078 00000000 		.4byte	.LFB20
 3684 007c A4000000 		.4byte	.LFE20-.LFB20
 3685 0080 00000000 		.4byte	.LFB21
 3686 0084 96000000 		.4byte	.LFE21-.LFB21
 3687 0088 00000000 		.4byte	0x0
 3688 008c 00000000 		.4byte	0x0
 3689              		.section	.debug_ranges,"",%progbits
 3690              	.Ldebug_ranges0:
 3691 0000 00000000 		.4byte	.LFB7
 3692 0004 60000000 		.4byte	.LFE7
 3693 0008 00000000 		.4byte	.LFB8
 3694 000c 66000000 		.4byte	.LFE8
 3695 0010 00000000 		.4byte	.LFB9
 3696 0014 5C000000 		.4byte	.LFE9
 3697 0018 00000000 		.4byte	.LFB10
 3698 001c 48000000 		.4byte	.LFE10
 3699 0020 00000000 		.4byte	.LFB11
 3700 0024 42000000 		.4byte	.LFE11
 3701 0028 00000000 		.4byte	.LFB12
 3702 002c 76000000 		.4byte	.LFE12
 3703 0030 00000000 		.4byte	.LFB13
 3704 0034 30000000 		.4byte	.LFE13
 3705 0038 00000000 		.4byte	.LFB14
 3706 003c 4E000000 		.4byte	.LFE14
 3707 0040 00000000 		.4byte	.LFB15
 3708 0044 8C000000 		.4byte	.LFE15
 3709 0048 00000000 		.4byte	.LFB16
 3710 004c 7E000000 		.4byte	.LFE16
 3711 0050 00000000 		.4byte	.LFB17
 3712 0054 70000000 		.4byte	.LFE17
 3713 0058 00000000 		.4byte	.LFB18
 3714 005c 62000000 		.4byte	.LFE18
 3715 0060 00000000 		.4byte	.LFB19
 3716 0064 B2000000 		.4byte	.LFE19
 3717 0068 00000000 		.4byte	.LFB20
 3718 006c A4000000 		.4byte	.LFE20
 3719 0070 00000000 		.4byte	.LFB21
 3720 0074 96000000 		.4byte	.LFE21
 3721 0078 00000000 		.4byte	0x0
 3722 007c 00000000 		.4byte	0x0
 3723              		.section	.debug_str,"MS",%progbits,1
 3724              	.LASF35:
 3725 0000 705F6D73 		.ascii	"p_msg\000"
 3725      6700
 3726              	.LASF64:
ARM GAS  C:\Users\z80\AppData\Local\Temp\cc5VAR70.s 			page 69


 3727 0006 7264796D 		.ascii	"rdymsg\000"
 3727      736700
 3728              	.LASF11:
 3729 000d 75696E74 		.ascii	"uint64_t\000"
 3729      36345F74 
 3729      00
 3730              	.LASF12:
 3731 0016 6C6F6E67 		.ascii	"long long unsigned int\000"
 3731      206C6F6E 
 3731      6720756E 
 3731      7369676E 
 3731      65642069 
 3732              	.LASF65:
 3733 002d 65786974 		.ascii	"exitcode\000"
 3733      636F6465 
 3733      00
 3734              	.LASF75:
 3735 0036 63684576 		.ascii	"chEvtSignalFlagsI\000"
 3735      74536967 
 3735      6E616C46 
 3735      6C616773 
 3735      4900
 3736              	.LASF85:
 3737 0048 63684576 		.ascii	"chEvtWaitAnyTimeout\000"
 3737      74576169 
 3737      74416E79 
 3737      54696D65 
 3737      6F757400 
 3738              	.LASF24:
 3739 005c 705F7072 		.ascii	"p_prio\000"
 3739      696F00
 3740              	.LASF10:
 3741 0063 6C6F6E67 		.ascii	"long long int\000"
 3741      206C6F6E 
 3741      6720696E 
 3741      7400
 3742              	.LASF1:
 3743 0071 7369676E 		.ascii	"signed char\000"
 3743      65642063 
 3743      68617200 
 3744              	.LASF86:
 3745 007d 63684576 		.ascii	"chEvtWaitAllTimeout\000"
 3745      74576169 
 3745      74416C6C 
 3745      54696D65 
 3745      6F757400 
 3746              	.LASF54:
 3747 0091 6D5F7175 		.ascii	"m_queue\000"
 3747      65756500 
 3748              	.LASF73:
 3749 0099 63684576 		.ascii	"chEvtAddFlags\000"
 3749      74416464 
 3749      466C6167 
 3749      7300
 3750              	.LASF7:
 3751 00a7 6C6F6E67 		.ascii	"long int\000"
 3751      20696E74 
ARM GAS  C:\Users\z80\AppData\Local\Temp\cc5VAR70.s 			page 70


 3751      00
 3752              	.LASF14:
 3753 00b0 74737461 		.ascii	"tstate_t\000"
 3753      74655F74 
 3753      00
 3754              	.LASF82:
 3755 00b9 63684576 		.ascii	"chEvtWaitAll\000"
 3755      74576169 
 3755      74416C6C 
 3755      00
 3756              	.LASF81:
 3757 00c6 63684576 		.ascii	"chEvtWaitAny\000"
 3757      74576169 
 3757      74416E79 
 3757      00
 3758              	.LASF77:
 3759 00d3 63684576 		.ascii	"chEvtBroadcastFlagsI\000"
 3759      7442726F 
 3759      61646361 
 3759      7374466C 
 3759      61677349 
 3760              	.LASF26:
 3761 00e8 705F6E65 		.ascii	"p_newer\000"
 3761      77657200 
 3762              	.LASF48:
 3763 00f0 725F6E65 		.ascii	"r_newer\000"
 3763      77657200 
 3764              	.LASF69:
 3765 00f8 6D61736B 		.ascii	"mask\000"
 3765      00
 3766              	.LASF41:
 3767 00fd 72656761 		.ascii	"regarm_t\000"
 3767      726D5F74 
 3767      00
 3768              	.LASF76:
 3769 0106 63684576 		.ascii	"chEvtBroadcastFlags\000"
 3769      7442726F 
 3769      61646361 
 3769      7374466C 
 3769      61677300 
 3770              	.LASF17:
 3771 011a 6576656E 		.ascii	"eventid_t\000"
 3771      7469645F 
 3771      7400
 3772              	.LASF61:
 3773 0124 4576656E 		.ascii	"EventSource\000"
 3773      74536F75 
 3773      72636500 
 3774              	.LASF63:
 3775 0130 65766861 		.ascii	"evhandler_t\000"
 3775      6E646C65 
 3775      725F7400 
 3776              	.LASF20:
 3777 013c 636E745F 		.ascii	"cnt_t\000"
 3777      7400
 3778              	.LASF29:
 3779 0142 705F7374 		.ascii	"p_stklimit\000"
ARM GAS  C:\Users\z80\AppData\Local\Temp\cc5VAR70.s 			page 71


 3779      6B6C696D 
 3779      697400
 3780              	.LASF0:
 3781 014d 756E7369 		.ascii	"unsigned int\000"
 3781      676E6564 
 3781      20696E74 
 3781      00
 3782              	.LASF9:
 3783 015a 6C6F6E67 		.ascii	"long unsigned int\000"
 3783      20756E73 
 3783      69676E65 
 3783      6420696E 
 3783      7400
 3784              	.LASF44:
 3785 016c 636F6E74 		.ascii	"context\000"
 3785      65787400 
 3786              	.LASF4:
 3787 0174 73686F72 		.ascii	"short unsigned int\000"
 3787      7420756E 
 3787      7369676E 
 3787      65642069 
 3787      6E7400
 3788              	.LASF70:
 3789 0187 63684576 		.ascii	"chEvtRegisterMask\000"
 3789      74526567 
 3789      69737465 
 3789      724D6173 
 3789      6B00
 3790              	.LASF16:
 3791 0199 6D73675F 		.ascii	"msg_t\000"
 3791      7400
 3792              	.LASF58:
 3793 019f 656C5F6E 		.ascii	"el_next\000"
 3793      65787400 
 3794              	.LASF71:
 3795 01a7 63684576 		.ascii	"chEvtUnregister\000"
 3795      74556E72 
 3795      65676973 
 3795      74657200 
 3796              	.LASF13:
 3797 01b7 746D6F64 		.ascii	"tmode_t\000"
 3797      655F7400 
 3798              	.LASF40:
 3799 01bf 54687265 		.ascii	"ThreadsList\000"
 3799      6164734C 
 3799      69737400 
 3800              	.LASF18:
 3801 01cb 6576656E 		.ascii	"eventmask_t\000"
 3801      746D6173 
 3801      6B5F7400 
 3802              	.LASF53:
 3803 01d7 4D757465 		.ascii	"Mutex\000"
 3803      7800
 3804              	.LASF42:
 3805 01dd 73746B61 		.ascii	"stkalign_t\000"
 3805      6C69676E 
 3805      5F7400
ARM GAS  C:\Users\z80\AppData\Local\Temp\cc5VAR70.s 			page 72


 3806              	.LASF89:
 3807 01e8 2E2E2F63 		.ascii	"../chibios_2.4.x/os/kernel/src/chevents.c\000"
 3807      68696269 
 3807      6F735F32 
 3807      2E342E78 
 3807      2F6F732F 
 3808              	.LASF78:
 3809 0212 63684576 		.ascii	"chEvtDispatch\000"
 3809      74446973 
 3809      70617463 
 3809      6800
 3810              	.LASF27:
 3811 0220 705F6F6C 		.ascii	"p_older\000"
 3811      64657200 
 3812              	.LASF47:
 3813 0228 725F6374 		.ascii	"r_ctx\000"
 3813      7800
 3814              	.LASF39:
 3815 022e 54687265 		.ascii	"ThreadsQueue\000"
 3815      61647351 
 3815      75657565 
 3815      00
 3816              	.LASF90:
 3817 023b 433A5C70 		.ascii	"C:\\projects\\voltamper.git\\firmware\\voltamp\000"
 3817      726F6A65 
 3817      6374735C 
 3817      766F6C74 
 3817      616D7065 
 3818              	.LASF84:
 3819 0266 74696D65 		.ascii	"time\000"
 3819      00
 3820              	.LASF74:
 3821 026b 63684576 		.ascii	"chEvtSignalFlags\000"
 3821      74536967 
 3821      6E616C46 
 3821      6C616773 
 3821      00
 3822              	.LASF51:
 3823 027c 725F6375 		.ascii	"r_current\000"
 3823      7272656E 
 3823      7400
 3824              	.LASF49:
 3825 0286 725F6F6C 		.ascii	"r_older\000"
 3825      64657200 
 3826              	.LASF60:
 3827 028e 656C5F6D 		.ascii	"el_mask\000"
 3827      61736B00 
 3828              	.LASF79:
 3829 0296 68616E64 		.ascii	"handlers\000"
 3829      6C657273 
 3829      00
 3830              	.LASF23:
 3831 029f 705F7072 		.ascii	"p_prev\000"
 3831      657600
 3832              	.LASF15:
 3833 02a6 74707269 		.ascii	"tprio_t\000"
 3833      6F5F7400 
ARM GAS  C:\Users\z80\AppData\Local\Temp\cc5VAR70.s 			page 73


 3834              	.LASF72:
 3835 02ae 63684576 		.ascii	"chEvtClearFlags\000"
 3835      74436C65 
 3835      6172466C 
 3835      61677300 
 3836              	.LASF6:
 3837 02be 696E7433 		.ascii	"int32_t\000"
 3837      325F7400 
 3838              	.LASF2:
 3839 02c6 756E7369 		.ascii	"unsigned char\000"
 3839      676E6564 
 3839      20636861 
 3839      7200
 3840              	.LASF80:
 3841 02d4 63684576 		.ascii	"chEvtWaitOne\000"
 3841      74576169 
 3841      744F6E65 
 3841      00
 3842              	.LASF59:
 3843 02e1 656C5F6C 		.ascii	"el_listener\000"
 3843      69737465 
 3843      6E657200 
 3844              	.LASF37:
 3845 02ed 705F6D74 		.ascii	"p_mtxlist\000"
 3845      786C6973 
 3845      7400
 3846              	.LASF3:
 3847 02f7 73686F72 		.ascii	"short int\000"
 3847      7420696E 
 3847      7400
 3848              	.LASF30:
 3849 0301 705F7374 		.ascii	"p_state\000"
 3849      61746500 
 3850              	.LASF46:
 3851 0309 725F7072 		.ascii	"r_prio\000"
 3851      696F00
 3852              	.LASF67:
 3853 0310 65776D61 		.ascii	"ewmask\000"
 3853      736B00
 3854              	.LASF22:
 3855 0317 705F6E65 		.ascii	"p_next\000"
 3855      787400
 3856              	.LASF31:
 3857 031e 705F666C 		.ascii	"p_flags\000"
 3857      61677300 
 3858              	.LASF21:
 3859 0326 54687265 		.ascii	"Thread\000"
 3859      616400
 3860              	.LASF36:
 3861 032d 705F6570 		.ascii	"p_epending\000"
 3861      656E6469 
 3861      6E6700
 3862              	.LASF8:
 3863 0338 75696E74 		.ascii	"uint32_t\000"
 3863      33325F74 
 3863      00
 3864              	.LASF45:
ARM GAS  C:\Users\z80\AppData\Local\Temp\cc5VAR70.s 			page 74


 3865 0341 725F7175 		.ascii	"r_queue\000"
 3865      65756500 
 3866              	.LASF68:
 3867 0349 63686172 		.ascii	"char\000"
 3867      00
 3868              	.LASF56:
 3869 034e 6D5F6E65 		.ascii	"m_next\000"
 3869      787400
 3870              	.LASF19:
 3871 0355 73797374 		.ascii	"systime_t\000"
 3871      696D655F 
 3871      7400
 3872              	.LASF38:
 3873 035f 705F7265 		.ascii	"p_realprio\000"
 3873      616C7072 
 3873      696F00
 3874              	.LASF32:
 3875 036a 705F7469 		.ascii	"p_time\000"
 3875      6D6500
 3876              	.LASF83:
 3877 0371 63684576 		.ascii	"chEvtWaitOneTimeout\000"
 3877      74576169 
 3877      744F6E65 
 3877      54696D65 
 3877      6F757400 
 3878              	.LASF43:
 3879 0385 696E7463 		.ascii	"intctx\000"
 3879      747800
 3880              	.LASF34:
 3881 038c 705F6D73 		.ascii	"p_msgqueue\000"
 3881      67717565 
 3881      756500
 3882              	.LASF62:
 3883 0397 65735F6E 		.ascii	"es_next\000"
 3883      65787400 
 3884              	.LASF52:
 3885 039f 52656164 		.ascii	"ReadyList\000"
 3885      794C6973 
 3885      7400
 3886              	.LASF87:
 3887 03a9 726C6973 		.ascii	"rlist\000"
 3887      7400
 3888              	.LASF5:
 3889 03af 75696E74 		.ascii	"uint8_t\000"
 3889      385F7400 
 3890              	.LASF57:
 3891 03b7 4576656E 		.ascii	"EventListener\000"
 3891      744C6973 
 3891      74656E65 
 3891      7200
 3892              	.LASF88:
 3893 03c5 474E5520 		.ascii	"GNU C 4.5.0\000"
 3893      4320342E 
 3893      352E3000 
 3894              	.LASF66:
 3895 03d1 77746F62 		.ascii	"wtobjp\000"
 3895      6A7000
ARM GAS  C:\Users\z80\AppData\Local\Temp\cc5VAR70.s 			page 75


 3896              	.LASF28:
 3897 03d8 705F6E61 		.ascii	"p_name\000"
 3897      6D6500
 3898              	.LASF50:
 3899 03df 725F7072 		.ascii	"r_preempt\000"
 3899      65656D70 
 3899      7400
 3900              	.LASF55:
 3901 03e9 6D5F6F77 		.ascii	"m_owner\000"
 3901      6E657200 
 3902              	.LASF25:
 3903 03f1 705F6374 		.ascii	"p_ctx\000"
 3903      7800
 3904              	.LASF33:
 3905 03f7 705F7761 		.ascii	"p_waiting\000"
 3905      6974696E 
 3905      6700
 3906              		.ident	"GCC: (GNU) 4.5.0"
ARM GAS  C:\Users\z80\AppData\Local\Temp\cc5VAR70.s 			page 76


DEFINED SYMBOLS
                            *ABS*:00000000 chevents.c
C:\Users\z80\AppData\Local\Temp\cc5VAR70.s:24     .rodata:00000000 $d
C:\Users\z80\AppData\Local\Temp\cc5VAR70.s:25     .rodata:00000000 .LC0
C:\Users\z80\AppData\Local\Temp\cc5VAR70.s:28     .text.chEvtRegisterMask:00000000 $t
C:\Users\z80\AppData\Local\Temp\cc5VAR70.s:34     .text.chEvtRegisterMask:00000000 chEvtRegisterMask
C:\Users\z80\AppData\Local\Temp\cc5VAR70.s:110    .rodata:00000018 .LC1
C:\Users\z80\AppData\Local\Temp\cc5VAR70.s:113    .text.chEvtUnregister:00000000 $t
C:\Users\z80\AppData\Local\Temp\cc5VAR70.s:119    .text.chEvtUnregister:00000000 chEvtUnregister
C:\Users\z80\AppData\Local\Temp\cc5VAR70.s:205    .text.chEvtClearFlags:00000000 $t
C:\Users\z80\AppData\Local\Temp\cc5VAR70.s:211    .text.chEvtClearFlags:00000000 chEvtClearFlags
C:\Users\z80\AppData\Local\Temp\cc5VAR70.s:273    .text.chEvtAddFlags:00000000 $t
C:\Users\z80\AppData\Local\Temp\cc5VAR70.s:279    .text.chEvtAddFlags:00000000 chEvtAddFlags
C:\Users\z80\AppData\Local\Temp\cc5VAR70.s:335    .rodata:0000002c .LC2
C:\Users\z80\AppData\Local\Temp\cc5VAR70.s:338    .text.chEvtSignalFlags:00000000 $t
C:\Users\z80\AppData\Local\Temp\cc5VAR70.s:344    .text.chEvtSignalFlags:00000000 chEvtSignalFlags
C:\Users\z80\AppData\Local\Temp\cc5VAR70.s:409    .text.chEvtSignalFlagsI:00000000 chEvtSignalFlagsI
C:\Users\z80\AppData\Local\Temp\cc5VAR70.s:400    .rodata:0000003c .LC3
C:\Users\z80\AppData\Local\Temp\cc5VAR70.s:403    .text.chEvtSignalFlagsI:00000000 $t
C:\Users\z80\AppData\Local\Temp\cc5VAR70.s:489    .text.chEvtBroadcastFlags:00000000 $t
C:\Users\z80\AppData\Local\Temp\cc5VAR70.s:495    .text.chEvtBroadcastFlags:00000000 chEvtBroadcastFlags
C:\Users\z80\AppData\Local\Temp\cc5VAR70.s:551    .text.chEvtBroadcastFlagsI:00000000 chEvtBroadcastFlagsI
C:\Users\z80\AppData\Local\Temp\cc5VAR70.s:542    .rodata:00000050 .LC4
C:\Users\z80\AppData\Local\Temp\cc5VAR70.s:545    .text.chEvtBroadcastFlagsI:00000000 $t
C:\Users\z80\AppData\Local\Temp\cc5VAR70.s:612    .rodata:00000068 .LC5
C:\Users\z80\AppData\Local\Temp\cc5VAR70.s:615    .rodata:0000007c .LC6
C:\Users\z80\AppData\Local\Temp\cc5VAR70.s:618    .text.chEvtDispatch:00000000 $t
C:\Users\z80\AppData\Local\Temp\cc5VAR70.s:624    .text.chEvtDispatch:00000000 chEvtDispatch
C:\Users\z80\AppData\Local\Temp\cc5VAR70.s:709    .text.chEvtWaitOne:00000000 $t
C:\Users\z80\AppData\Local\Temp\cc5VAR70.s:715    .text.chEvtWaitOne:00000000 chEvtWaitOne
C:\Users\z80\AppData\Local\Temp\cc5VAR70.s:799    .text.chEvtWaitAny:00000000 $t
C:\Users\z80\AppData\Local\Temp\cc5VAR70.s:805    .text.chEvtWaitAny:00000000 chEvtWaitAny
C:\Users\z80\AppData\Local\Temp\cc5VAR70.s:883    .text.chEvtWaitAll:00000000 $t
C:\Users\z80\AppData\Local\Temp\cc5VAR70.s:889    .text.chEvtWaitAll:00000000 chEvtWaitAll
C:\Users\z80\AppData\Local\Temp\cc5VAR70.s:960    .text.chEvtWaitOneTimeout:00000000 $t
C:\Users\z80\AppData\Local\Temp\cc5VAR70.s:966    .text.chEvtWaitOneTimeout:00000000 chEvtWaitOneTimeout
C:\Users\z80\AppData\Local\Temp\cc5VAR70.s:1086   .text.chEvtWaitAnyTimeout:00000000 $t
C:\Users\z80\AppData\Local\Temp\cc5VAR70.s:1092   .text.chEvtWaitAnyTimeout:00000000 chEvtWaitAnyTimeout
C:\Users\z80\AppData\Local\Temp\cc5VAR70.s:1206   .text.chEvtWaitAllTimeout:00000000 $t
C:\Users\z80\AppData\Local\Temp\cc5VAR70.s:1212   .text.chEvtWaitAllTimeout:00000000 chEvtWaitAllTimeout
                     .debug_frame:00000010 $d

UNDEFINED SYMBOLS
chDbgPanic
dbg_check_lock
rlist
dbg_check_unlock
chSchRescheduleS
chDbgCheckClassI
chSchReadyI
chSchGoSleepS
chSchGoSleepTimeoutS
