ARM GAS  /tmp/ccOTlIx8.s 			page 1


   1              		.syntax unified
   2              		.cpu cortex-m3
   3              		.fpu softvfp
   4              		.eabi_attribute 20, 1
   5              		.eabi_attribute 21, 1
   6              		.eabi_attribute 23, 3
   7              		.eabi_attribute 24, 1
   8              		.eabi_attribute 25, 1
   9              		.eabi_attribute 26, 1
  10              		.eabi_attribute 30, 2
  11              		.eabi_attribute 18, 4
  12              		.thumb
  13              		.file	"chevents.c"
  20 0000 69030000 		.text
  20      02006301 
  20      00000201 
  20      FB0E0D00 
  20      01010101 
  21              	.Ltext0:
  22              		.cfi_sections	.debug_frame
  23              		.section	.text.chEvtRegisterMask,"ax",%progbits
  24              		.align	2
  25              		.p2align 4,,15
  26              		.global	chEvtRegisterMask
  27              		.thumb
  28              		.thumb_func
  29              		.type	chEvtRegisterMask, %function
  30              	chEvtRegisterMask:
  31              	.LFB7:
  32              		.file 1 "../chibios_2.4.x/os/kernel/src/chevents.c"
  33              		.loc 1 82 0
  34              		.cfi_startproc
  35              		@ args = 0, pretend = 0, frame = 0
  36              		@ frame_needed = 0, uses_anonymous_args = 0
  37              	.LVL0:
  38 0000 70B5     		push	{r4, r5, r6, lr}
  39              	.LCFI0:
  40              		.cfi_def_cfa_offset 16
  41              		.loc 1 84 0
  42 0002 0446     		mov	r4, r0
  43              		.cfi_offset 14, -4
  44              		.cfi_offset 6, -8
  45              		.cfi_offset 5, -12
  46              		.cfi_offset 4, -16
  47              		.loc 1 82 0
  48 0004 0D46     		mov	r5, r1
  49 0006 1646     		mov	r6, r2
  50              		.loc 1 84 0
  51 0008 90B1     		cbz	r0, .L2
  52              		.loc 1 84 0 is_stmt 0 discriminator 2
  53 000a 89B1     		cbz	r1, .L2
ARM GAS  /tmp/ccOTlIx8.s 			page 2


  54              	.LVL1:
  55              	.L3:
  56              	.LBB2:
  57              		.loc 1 86 0 is_stmt 1
  58 000c 2023     		movs	r3, #32
  59              	.LVL2:
  60              	@ 86 "../chibios_2.4.x/os/kernel/src/chevents.c" 1
  61 000e 83F31188 		msr     BASEPRI, r3
  62              	@ 0 "" 2
  63              	.LVL3:
  64              		.thumb
  65              	.LBE2:
  66 0012 FFF7FEFF 		bl	dbg_check_lock
  67              	.LVL4:
  68              		.loc 1 89 0
  69 0016 0848     		ldr	r0, .L5
  70              		.loc 1 87 0
  71 0018 2268     		ldr	r2, [r4, #0]
  72              		.loc 1 89 0
  73 001a C369     		ldr	r3, [r0, #28]
  74              		.loc 1 87 0
  75 001c 2A60     		str	r2, [r5, #0]
  76              		.loc 1 88 0
  77 001e 2560     		str	r5, [r4, #0]
  78              		.loc 1 89 0
  79 0020 6B60     		str	r3, [r5, #4]
  80              		.loc 1 90 0
  81 0022 AE60     		str	r6, [r5, #8]
  82              		.loc 1 91 0
  83 0024 FFF7FEFF 		bl	dbg_check_unlock
  84              	.LBB3:
  85 0028 0023     		movs	r3, #0
  86              	.LVL5:
  87              	@ 91 "../chibios_2.4.x/os/kernel/src/chevents.c" 1
  88 002a 83F31188 		msr     BASEPRI, r3
  89              	@ 0 "" 2
  90              	.LVL6:
  91              		.thumb
  92              	.LBE3:
  93              		.loc 1 92 0
  94 002e 70BD     		pop	{r4, r5, r6, pc}
  95              	.LVL7:
  96              	.L2:
  97              		.loc 1 84 0 discriminator 1
  98 0030 0248     		ldr	r0, .L5+4
  99 0032 FFF7FEFF 		bl	chDbgPanic
 100 0036 E9E7     		b	.L3
 101              	.L6:
 102              		.align	2
 103              	.L5:
 104 0038 00000000 		.word	rlist
 105 003c 00000000 		.word	.LC0
 106              		.cfi_endproc
 107              	.LFE7:
 108              		.size	chEvtRegisterMask, .-chEvtRegisterMask
 109              		.section	.text.chEvtUnregister,"ax",%progbits
 110              		.align	2
ARM GAS  /tmp/ccOTlIx8.s 			page 3


 111              		.p2align 4,,15
 112              		.global	chEvtUnregister
 113              		.thumb
 114              		.thumb_func
 115              		.type	chEvtUnregister, %function
 116              	chEvtUnregister:
 117              	.LFB8:
 118              		.loc 1 107 0
 119              		.cfi_startproc
 120              		@ args = 0, pretend = 0, frame = 0
 121              		@ frame_needed = 0, uses_anonymous_args = 0
 122              	.LVL8:
 123 0000 38B5     		push	{r3, r4, r5, lr}
 124              	.LCFI1:
 125              		.cfi_def_cfa_offset 16
 126              		.loc 1 110 0
 127 0002 0446     		mov	r4, r0
 128              		.cfi_offset 14, -4
 129              		.cfi_offset 5, -8
 130              		.cfi_offset 4, -12
 131              		.cfi_offset 3, -16
 132              		.loc 1 107 0
 133 0004 0D46     		mov	r5, r1
 134              		.loc 1 110 0
 135 0006 D8B1     		cbz	r0, .L8
 136              		.loc 1 110 0 is_stmt 0 discriminator 2
 137 0008 D1B1     		cbz	r1, .L8
 138              	.LVL9:
 139              	.L9:
 140              	.LBB4:
 141              		.loc 1 113 0 is_stmt 1
 142 000a 2023     		movs	r3, #32
 143              	.LVL10:
 144              	@ 113 "../chibios_2.4.x/os/kernel/src/chevents.c" 1
 145 000c 83F31188 		msr     BASEPRI, r3
 146              	@ 0 "" 2
 147              	.LVL11:
 148              		.thumb
 149              	.LBE4:
 150 0010 FFF7FEFF 		bl	dbg_check_lock
 151              	.LVL12:
 152              		.loc 1 112 0
 153 0014 2246     		mov	r2, r4
 154              		.loc 1 114 0
 155 0016 02E0     		b	.L10
 156              	.LVL13:
 157              	.L12:
 158              		.loc 1 115 0
 159 0018 9D42     		cmp	r5, r3
 160 001a 09D0     		beq	.L14
 161 001c 1A46     		mov	r2, r3
 162              	.LVL14:
 163              	.L10:
 164              		.loc 1 114 0 discriminator 1
 165 001e 1368     		ldr	r3, [r2, #0]
 166 0020 9C42     		cmp	r4, r3
 167 0022 F9D1     		bne	.L12
ARM GAS  /tmp/ccOTlIx8.s 			page 4


 168              		.loc 1 121 0
 169 0024 FFF7FEFF 		bl	dbg_check_unlock
 170              	.LVL15:
 171              	.LBB5:
 172 0028 0023     		movs	r3, #0
 173              	.LVL16:
 174              	@ 121 "../chibios_2.4.x/os/kernel/src/chevents.c" 1
 175 002a 83F31188 		msr     BASEPRI, r3
 176              	@ 0 "" 2
 177              	.LVL17:
 178              		.thumb
 179              	.LBE5:
 180              		.loc 1 122 0
 181 002e 38BD     		pop	{r3, r4, r5, pc}
 182              	.LVL18:
 183              	.L14:
 184              		.loc 1 116 0
 185 0030 2B68     		ldr	r3, [r5, #0]
 186 0032 1360     		str	r3, [r2, #0]
 187              		.loc 1 121 0
 188 0034 FFF7FEFF 		bl	dbg_check_unlock
 189              	.LVL19:
 190              	.LBB6:
 191 0038 0023     		movs	r3, #0
 192              	@ 121 "../chibios_2.4.x/os/kernel/src/chevents.c" 1
 193 003a 83F31188 		msr     BASEPRI, r3
 194              	@ 0 "" 2
 195              	.LVL20:
 196              		.thumb
 197              	.LBE6:
 198              		.loc 1 122 0
 199 003e 38BD     		pop	{r3, r4, r5, pc}
 200              	.LVL21:
 201              	.L8:
 202              		.loc 1 110 0 discriminator 1
 203 0040 0148     		ldr	r0, .L15
 204 0042 FFF7FEFF 		bl	chDbgPanic
 205 0046 E0E7     		b	.L9
 206              	.L16:
 207              		.align	2
 208              	.L15:
 209 0048 18000000 		.word	.LC1
 210              		.cfi_endproc
 211              	.LFE8:
 212              		.size	chEvtUnregister, .-chEvtUnregister
 213 004c AFF30080 		.section	.text.chEvtClearFlags,"ax",%progbits
 214              		.align	2
 215              		.p2align 4,,15
 216              		.global	chEvtClearFlags
 217              		.thumb
 218              		.thumb_func
 219              		.type	chEvtClearFlags, %function
 220              	chEvtClearFlags:
 221              	.LFB9:
 222              		.loc 1 132 0
 223              		.cfi_startproc
 224              		@ args = 0, pretend = 0, frame = 0
ARM GAS  /tmp/ccOTlIx8.s 			page 5


 225              		@ frame_needed = 0, uses_anonymous_args = 0
 226              	.LVL22:
 227 0000 38B5     		push	{r3, r4, r5, lr}
 228              	.LCFI2:
 229              		.cfi_def_cfa_offset 16
 230              		.loc 1 132 0
 231 0002 0546     		mov	r5, r0
 232              		.cfi_offset 14, -4
 233              		.cfi_offset 5, -8
 234              		.cfi_offset 4, -12
 235              		.cfi_offset 3, -16
 236              	.LBB7:
 237              		.loc 1 135 0
 238 0004 2023     		movs	r3, #32
 239              	.LVL23:
 240              	@ 135 "../chibios_2.4.x/os/kernel/src/chevents.c" 1
 241 0006 83F31188 		msr     BASEPRI, r3
 242              	@ 0 "" 2
 243              	.LVL24:
 244              		.thumb
 245              	.LBE7:
 246 000a FFF7FEFF 		bl	dbg_check_lock
 247              	.LVL25:
 248              		.loc 1 137 0
 249 000e 0748     		ldr	r0, .L18
 250 0010 C369     		ldr	r3, [r0, #28]
 251 0012 DC6B     		ldr	r4, [r3, #60]
 252              		.loc 1 138 0
 253 0014 24EA0502 		bic	r2, r4, r5
 254 0018 DA63     		str	r2, [r3, #60]
 255              		.loc 1 140 0
 256 001a FFF7FEFF 		bl	dbg_check_unlock
 257              	.LVL26:
 258              	.LBB8:
 259 001e 0023     		movs	r3, #0
 260              	.LVL27:
 261              	@ 140 "../chibios_2.4.x/os/kernel/src/chevents.c" 1
 262 0020 83F31188 		msr     BASEPRI, r3
 263              	@ 0 "" 2
 264              	.LVL28:
 265              		.thumb
 266              	.LBE8:
 267              		.loc 1 142 0
 268 0024 05EA0400 		and	r0, r5, r4
 269 0028 38BD     		pop	{r3, r4, r5, pc}
 270              	.L19:
 271 002a 00BF     		.align	2
 272              	.L18:
 273 002c 00000000 		.word	rlist
 274              		.cfi_endproc
 275              	.LFE9:
 276              		.size	chEvtClearFlags, .-chEvtClearFlags
 277              		.section	.text.chEvtAddFlags,"ax",%progbits
 278              		.align	2
 279              		.p2align 4,,15
 280              		.global	chEvtAddFlags
 281              		.thumb
ARM GAS  /tmp/ccOTlIx8.s 			page 6


 282              		.thumb_func
 283              		.type	chEvtAddFlags, %function
 284              	chEvtAddFlags:
 285              	.LFB10:
 286              		.loc 1 153 0
 287              		.cfi_startproc
 288              		@ args = 0, pretend = 0, frame = 0
 289              		@ frame_needed = 0, uses_anonymous_args = 0
 290              	.LVL29:
 291 0000 10B5     		push	{r4, lr}
 292              	.LCFI3:
 293              		.cfi_def_cfa_offset 8
 294              	.LBB9:
 295              		.loc 1 155 0
 296 0002 2023     		movs	r3, #32
 297              	.LVL30:
 298              	.LBE9:
 299              		.loc 1 153 0
 300 0004 0446     		mov	r4, r0
 301              		.cfi_offset 14, -4
 302              		.cfi_offset 4, -8
 303              	.LBB10:
 304              		.loc 1 155 0
 305              	@ 155 "../chibios_2.4.x/os/kernel/src/chevents.c" 1
 306 0006 83F31188 		msr     BASEPRI, r3
 307              	@ 0 "" 2
 308              	.LVL31:
 309              		.thumb
 310              	.LBE10:
 311 000a FFF7FEFF 		bl	dbg_check_lock
 312              	.LVL32:
 313              		.loc 1 157 0
 314 000e 0648     		ldr	r0, .L21
 315 0010 C369     		ldr	r3, [r0, #28]
 316 0012 DA6B     		ldr	r2, [r3, #60]
 317 0014 1443     		orrs	r4, r4, r2
 318              	.LVL33:
 319 0016 DC63     		str	r4, [r3, #60]
 320              	.LVL34:
 321              		.loc 1 159 0
 322 0018 FFF7FEFF 		bl	dbg_check_unlock
 323              	.LBB11:
 324 001c 0023     		movs	r3, #0
 325              	.LVL35:
 326              	@ 159 "../chibios_2.4.x/os/kernel/src/chevents.c" 1
 327 001e 83F31188 		msr     BASEPRI, r3
 328              	@ 0 "" 2
 329              	.LVL36:
 330              		.thumb
 331              	.LBE11:
 332              		.loc 1 161 0
 333 0022 2046     		mov	r0, r4
 334 0024 10BD     		pop	{r4, pc}
 335              	.L22:
 336 0026 00BF     		.align	2
 337              	.L21:
 338 0028 00000000 		.word	rlist
ARM GAS  /tmp/ccOTlIx8.s 			page 7


 339              		.cfi_endproc
 340              	.LFE10:
 341              		.size	chEvtAddFlags, .-chEvtAddFlags
 342 002c AFF30080 		.section	.text.chEvtSignalFlagsI,"ax",%progbits
 343              		.align	2
 344              		.p2align 4,,15
 345              		.global	chEvtSignalFlagsI
 346              		.thumb
 347              		.thumb_func
 348              		.type	chEvtSignalFlagsI, %function
 349              	chEvtSignalFlagsI:
 350              	.LFB12:
 351              		.loc 1 193 0
 352              		.cfi_startproc
 353              		@ args = 0, pretend = 0, frame = 0
 354              		@ frame_needed = 0, uses_anonymous_args = 0
 355              	.LVL37:
 356 0000 38B5     		push	{r3, r4, r5, lr}
 357              	.LCFI4:
 358              		.cfi_def_cfa_offset 16
 359              		.loc 1 193 0
 360 0002 0446     		mov	r4, r0
 361              		.cfi_offset 14, -4
 362              		.cfi_offset 5, -8
 363              		.cfi_offset 4, -12
 364              		.cfi_offset 3, -16
 365 0004 0D46     		mov	r5, r1
 366              		.loc 1 195 0
 367 0006 FFF7FEFF 		bl	chDbgCheckClassI
 368              	.LVL38:
 369              		.loc 1 196 0
 370 000a BCB1     		cbz	r4, .L28
 371              	.L24:
 372              		.loc 1 198 0
 373 000c E26B     		ldr	r2, [r4, #60]
 374              		.loc 1 200 0
 375 000e 94F82030 		ldrb	r3, [r4, #32]	@ zero_extendqisi2
 376              		.loc 1 198 0
 377 0012 1543     		orrs	r5, r5, r2
 378              	.LVL39:
 379              		.loc 1 200 0
 380 0014 082B     		cmp	r3, #8
 381              		.loc 1 198 0
 382 0016 E563     		str	r5, [r4, #60]
 383              		.loc 1 200 0
 384 0018 0CD0     		beq	.L29
 385              		.loc 1 201 0
 386 001a 092B     		cmp	r3, #9
 387 001c 00D0     		beq	.L30
 388              	.L23:
 389 001e 38BD     		pop	{r3, r4, r5, pc}
 390              	.L30:
 391              		.loc 1 203 0
 392 0020 A06A     		ldr	r0, [r4, #40]
 393 0022 0540     		ands	r5, r5, r0
 394              		.loc 1 202 0
 395 0024 A842     		cmp	r0, r5
ARM GAS  /tmp/ccOTlIx8.s 			page 8


 396 0026 FAD1     		bne	.L23
 397              	.L26:
 398              		.loc 1 204 0
 399 0028 2046     		mov	r0, r4
 400 002a FFF7FEFF 		bl	chSchReadyI
 401 002e 0021     		movs	r1, #0
 402 0030 8162     		str	r1, [r0, #40]
 403 0032 38BD     		pop	{r3, r4, r5, pc}
 404              	.L29:
 405              		.loc 1 201 0 discriminator 1
 406 0034 A36A     		ldr	r3, [r4, #40]
 407              		.loc 1 200 0 discriminator 1
 408 0036 1D42     		tst	r5, r3
 409 0038 F6D1     		bne	.L26
 410 003a 38BD     		pop	{r3, r4, r5, pc}
 411              	.LVL40:
 412              	.L28:
 413              		.loc 1 196 0 discriminator 1
 414 003c 0148     		ldr	r0, .L31
 415 003e FFF7FEFF 		bl	chDbgPanic
 416 0042 E3E7     		b	.L24
 417              	.L32:
 418              		.align	2
 419              	.L31:
 420 0044 2C000000 		.word	.LC2
 421              		.cfi_endproc
 422              	.LFE12:
 423              		.size	chEvtSignalFlagsI, .-chEvtSignalFlagsI
 424 0048 AFF30080 		.section	.text.chEvtSignalFlags,"ax",%progbits
 424      AFF30080 
 425              		.align	2
 426              		.p2align 4,,15
 427              		.global	chEvtSignalFlags
 428              		.thumb
 429              		.thumb_func
 430              		.type	chEvtSignalFlags, %function
 431              	chEvtSignalFlags:
 432              	.LFB11:
 433              		.loc 1 171 0
 434              		.cfi_startproc
 435              		@ args = 0, pretend = 0, frame = 0
 436              		@ frame_needed = 0, uses_anonymous_args = 0
 437              	.LVL41:
 438 0000 38B5     		push	{r3, r4, r5, lr}
 439              	.LCFI5:
 440              		.cfi_def_cfa_offset 16
 441              		.loc 1 173 0
 442 0002 0446     		mov	r4, r0
 443              		.cfi_offset 14, -4
 444              		.cfi_offset 5, -8
 445              		.cfi_offset 4, -12
 446              		.cfi_offset 3, -16
 447              		.loc 1 171 0
 448 0004 0D46     		mov	r5, r1
 449              		.loc 1 173 0
 450 0006 80B1     		cbz	r0, .L35
 451              	.LVL42:
ARM GAS  /tmp/ccOTlIx8.s 			page 9


 452              	.L34:
 453              	.LBB12:
 454              		.loc 1 175 0
 455 0008 2023     		movs	r3, #32
 456              	.LVL43:
 457              	@ 175 "../chibios_2.4.x/os/kernel/src/chevents.c" 1
 458 000a 83F31188 		msr     BASEPRI, r3
 459              	@ 0 "" 2
 460              	.LVL44:
 461              		.thumb
 462              	.LBE12:
 463 000e FFF7FEFF 		bl	dbg_check_lock
 464              	.LVL45:
 465              		.loc 1 176 0
 466 0012 2046     		mov	r0, r4
 467 0014 2946     		mov	r1, r5
 468 0016 FFF7FEFF 		bl	chEvtSignalFlagsI
 469              		.loc 1 177 0
 470 001a FFF7FEFF 		bl	chSchRescheduleS
 471              		.loc 1 178 0
 472 001e FFF7FEFF 		bl	dbg_check_unlock
 473              	.LBB13:
 474 0022 0023     		movs	r3, #0
 475              	.LVL46:
 476              	@ 178 "../chibios_2.4.x/os/kernel/src/chevents.c" 1
 477 0024 83F31188 		msr     BASEPRI, r3
 478              	@ 0 "" 2
 479              	.LVL47:
 480              		.thumb
 481              	.LBE13:
 482              		.loc 1 179 0
 483 0028 38BD     		pop	{r3, r4, r5, pc}
 484              	.LVL48:
 485              	.L35:
 486              		.loc 1 173 0 discriminator 1
 487 002a 0248     		ldr	r0, .L36
 488 002c FFF7FEFF 		bl	chDbgPanic
 489 0030 EAE7     		b	.L34
 490              	.L37:
 491 0032 00BF     		.align	2
 492              	.L36:
 493 0034 40000000 		.word	.LC3
 494              		.cfi_endproc
 495              	.LFE11:
 496              		.size	chEvtSignalFlags, .-chEvtSignalFlags
 497              		.section	.text.chEvtBroadcastFlagsI,"ax",%progbits
 498              		.align	2
 499              		.p2align 4,,15
 500              		.global	chEvtBroadcastFlagsI
 501              		.thumb
 502              		.thumb_func
 503              		.type	chEvtBroadcastFlagsI, %function
 504              	chEvtBroadcastFlagsI:
 505              	.LFB14:
 506              		.loc 1 245 0
 507              		.cfi_startproc
 508              		@ args = 0, pretend = 0, frame = 0
ARM GAS  /tmp/ccOTlIx8.s 			page 10


 509              		@ frame_needed = 0, uses_anonymous_args = 0
 510              	.LVL49:
 511 0000 70B5     		push	{r4, r5, r6, lr}
 512              	.LCFI6:
 513              		.cfi_def_cfa_offset 16
 514              		.loc 1 245 0
 515 0002 0546     		mov	r5, r0
 516              		.cfi_offset 14, -4
 517              		.cfi_offset 6, -8
 518              		.cfi_offset 5, -12
 519              		.cfi_offset 4, -16
 520 0004 0E46     		mov	r6, r1
 521              		.loc 1 248 0
 522 0006 FFF7FEFF 		bl	chDbgCheckClassI
 523              	.LVL50:
 524              		.loc 1 249 0
 525 000a 65B1     		cbz	r5, .L44
 526              	.L39:
 527              		.loc 1 251 0
 528 000c 2C68     		ldr	r4, [r5, #0]
 529              	.LVL51:
 530              		.loc 1 252 0
 531 000e AC42     		cmp	r4, r5
 532 0010 08D0     		beq	.L38
 533              	.LVL52:
 534              	.L42:
 535              		.loc 1 253 0
 536 0012 A168     		ldr	r1, [r4, #8]
 537 0014 6068     		ldr	r0, [r4, #4]
 538 0016 46EA0101 		orr	r1, r6, r1
 539 001a FFF7FEFF 		bl	chEvtSignalFlagsI
 540              		.loc 1 254 0
 541 001e 2468     		ldr	r4, [r4, #0]
 542              	.LVL53:
 543              		.loc 1 252 0
 544 0020 AC42     		cmp	r4, r5
 545 0022 F6D1     		bne	.L42
 546              	.L38:
 547 0024 70BD     		pop	{r4, r5, r6, pc}
 548              	.LVL54:
 549              	.L44:
 550              		.loc 1 249 0 discriminator 1
 551 0026 0248     		ldr	r0, .L45
 552 0028 FFF7FEFF 		bl	chDbgPanic
 553 002c EEE7     		b	.L39
 554              	.L46:
 555 002e 00BF     		.align	2
 556              	.L45:
 557 0030 50000000 		.word	.LC4
 558              		.cfi_endproc
 559              	.LFE14:
 560              		.size	chEvtBroadcastFlagsI, .-chEvtBroadcastFlagsI
 561 0034 AFF30080 		.section	.text.chEvtBroadcastFlags,"ax",%progbits
 561      AFF30080 
 561      AFF30080 
 562              		.align	2
 563              		.p2align 4,,15
ARM GAS  /tmp/ccOTlIx8.s 			page 11


 564              		.global	chEvtBroadcastFlags
 565              		.thumb
 566              		.thumb_func
 567              		.type	chEvtBroadcastFlags, %function
 568              	chEvtBroadcastFlags:
 569              	.LFB13:
 570              		.loc 1 220 0
 571              		.cfi_startproc
 572              		@ args = 0, pretend = 0, frame = 0
 573              		@ frame_needed = 0, uses_anonymous_args = 0
 574              	.LVL55:
 575 0000 38B5     		push	{r3, r4, r5, lr}
 576              	.LCFI7:
 577              		.cfi_def_cfa_offset 16
 578              		.loc 1 220 0
 579 0002 0546     		mov	r5, r0
 580              		.cfi_offset 14, -4
 581              		.cfi_offset 5, -8
 582              		.cfi_offset 4, -12
 583              		.cfi_offset 3, -16
 584 0004 0C46     		mov	r4, r1
 585              	.LBB14:
 586              		.loc 1 222 0
 587 0006 2023     		movs	r3, #32
 588              	.LVL56:
 589              	@ 222 "../chibios_2.4.x/os/kernel/src/chevents.c" 1
 590 0008 83F31188 		msr     BASEPRI, r3
 591              	@ 0 "" 2
 592              	.LVL57:
 593              		.thumb
 594              	.LBE14:
 595 000c FFF7FEFF 		bl	dbg_check_lock
 596              	.LVL58:
 597              		.loc 1 223 0
 598 0010 2846     		mov	r0, r5
 599 0012 2146     		mov	r1, r4
 600 0014 FFF7FEFF 		bl	chEvtBroadcastFlagsI
 601              		.loc 1 224 0
 602 0018 FFF7FEFF 		bl	chSchRescheduleS
 603              		.loc 1 225 0
 604 001c FFF7FEFF 		bl	dbg_check_unlock
 605              	.LBB15:
 606 0020 0023     		movs	r3, #0
 607              	.LVL59:
 608              	@ 225 "../chibios_2.4.x/os/kernel/src/chevents.c" 1
 609 0022 83F31188 		msr     BASEPRI, r3
 610              	@ 0 "" 2
 611              	.LVL60:
 612              		.thumb
 613              	.LBE15:
 614              		.loc 1 226 0
 615 0026 38BD     		pop	{r3, r4, r5, pc}
 616              		.cfi_endproc
 617              	.LFE13:
 618              		.size	chEvtBroadcastFlags, .-chEvtBroadcastFlags
 619 0028 AFF30080 		.section	.text.chEvtDispatch,"ax",%progbits
 619      AFF30080 
ARM GAS  /tmp/ccOTlIx8.s 			page 12


 620              		.align	2
 621              		.p2align 4,,15
 622              		.global	chEvtDispatch
 623              		.thumb
 624              		.thumb_func
 625              		.type	chEvtDispatch, %function
 626              	chEvtDispatch:
 627              	.LFB15:
 628              		.loc 1 267 0
 629              		.cfi_startproc
 630              		@ args = 0, pretend = 0, frame = 0
 631              		@ frame_needed = 0, uses_anonymous_args = 0
 632              	.LVL61:
 633 0000 2DE9F041 		push	{r4, r5, r6, r7, r8, lr}
 634              	.LCFI8:
 635              		.cfi_def_cfa_offset 24
 636              		.loc 1 270 0
 637 0004 0446     		mov	r4, r0
 638              		.cfi_offset 14, -4
 639              		.cfi_offset 8, -8
 640              		.cfi_offset 7, -12
 641              		.cfi_offset 6, -16
 642              		.cfi_offset 5, -20
 643              		.cfi_offset 4, -24
 644              		.loc 1 267 0
 645 0006 0E46     		mov	r6, r1
 646              		.loc 1 270 0
 647 0008 C8B1     		cbz	r0, .L54
 648              	.LVL62:
 649              	.L49:
 650              		.loc 1 273 0 discriminator 1
 651 000a 8EB1     		cbz	r6, .L48
 652              		.loc 1 273 0 is_stmt 0
 653 000c 0027     		movs	r7, #0
 654 000e 3D46     		mov	r5, r7
 655              		.loc 1 274 0 is_stmt 1
 656 0010 4FF00108 		mov	r8, #1
 657              	.LVL63:
 658              	.L53:
 659 0014 08FA05F3 		lsl	r3, r8, r5
 660 0018 3342     		tst	r3, r6
 661 001a 05D0     		beq	.L51
 662              		.loc 1 278 0
 663 001c 26EA0306 		bic	r6, r6, r3
 664              	.LVL64:
 665              		.loc 1 275 0
 666 0020 E359     		ldr	r3, [r4, r7]
 667 0022 3BB1     		cbz	r3, .L55
 668              	.L52:
 669              	.LVL65:
 670              		.loc 1 279 0
 671 0024 2846     		mov	r0, r5
 672 0026 9847     		blx	r3
 673              	.L51:
 674              	.LVL66:
 675 0028 0437     		adds	r7, r7, #4
 676              		.loc 1 273 0
ARM GAS  /tmp/ccOTlIx8.s 			page 13


 677 002a 0EB1     		cbz	r6, .L48
 678              		.loc 1 281 0
 679 002c 0135     		adds	r5, r5, #1
 680              	.LVL67:
 681 002e F1E7     		b	.L53
 682              	.LVL68:
 683              	.L48:
 684 0030 BDE8F081 		pop	{r4, r5, r6, r7, r8, pc}
 685              	.LVL69:
 686              	.L55:
 687              		.loc 1 275 0 discriminator 1
 688 0034 0448     		ldr	r0, .L56
 689 0036 FFF7FEFF 		bl	chDbgPanic
 690 003a E359     		ldr	r3, [r4, r7]
 691 003c F2E7     		b	.L52
 692              	.LVL70:
 693              	.L54:
 694              		.loc 1 270 0 discriminator 1
 695 003e 0348     		ldr	r0, .L56+4
 696 0040 FFF7FEFF 		bl	chDbgPanic
 697              	.LVL71:
 698 0044 E1E7     		b	.L49
 699              	.L57:
 700 0046 00BF     		.align	2
 701              	.L56:
 702 0048 7C000000 		.word	.LC6
 703 004c 68000000 		.word	.LC5
 704              		.cfi_endproc
 705              	.LFE15:
 706              		.size	chEvtDispatch, .-chEvtDispatch
 707              		.section	.text.chEvtWaitOne,"ax",%progbits
 708              		.align	2
 709              		.p2align 4,,15
 710              		.global	chEvtWaitOne
 711              		.thumb
 712              		.thumb_func
 713              		.type	chEvtWaitOne, %function
 714              	chEvtWaitOne:
 715              	.LFB16:
 716              		.loc 1 302 0
 717              		.cfi_startproc
 718              		@ args = 0, pretend = 0, frame = 0
 719              		@ frame_needed = 0, uses_anonymous_args = 0
 720              	.LVL72:
 721 0000 38B5     		push	{r3, r4, r5, lr}
 722              	.LCFI9:
 723              		.cfi_def_cfa_offset 16
 724              		.loc 1 303 0
 725 0002 0F4B     		ldr	r3, .L60
 726              		.cfi_offset 14, -4
 727              		.cfi_offset 5, -8
 728              		.cfi_offset 4, -12
 729              		.cfi_offset 3, -16
 730              		.loc 1 302 0
 731 0004 0546     		mov	r5, r0
 732              		.loc 1 303 0
 733 0006 DC69     		ldr	r4, [r3, #28]
ARM GAS  /tmp/ccOTlIx8.s 			page 14


 734              	.LVL73:
 735              	.LBB16:
 736              		.loc 1 306 0
 737 0008 2023     		movs	r3, #32
 738              	.LVL74:
 739              	@ 306 "../chibios_2.4.x/os/kernel/src/chevents.c" 1
 740 000a 83F31188 		msr     BASEPRI, r3
 741              	@ 0 "" 2
 742              	.LVL75:
 743              		.thumb
 744              	.LBE16:
 745 000e FFF7FEFF 		bl	dbg_check_lock
 746              	.LVL76:
 747              		.loc 1 308 0
 748 0012 E36B     		ldr	r3, [r4, #60]
 749              	.LVL77:
 750 0014 15EA0302 		ands	r2, r5, r3
 751 0018 06D1     		bne	.L59
 752              		.loc 1 309 0
 753 001a A562     		str	r5, [r4, #40]
 754              		.loc 1 310 0
 755 001c 0820     		movs	r0, #8
 756 001e FFF7FEFF 		bl	chSchGoSleepS
 757              	.LVL78:
 758              		.loc 1 311 0
 759 0022 E36B     		ldr	r3, [r4, #60]
 760 0024 05EA0302 		and	r2, r5, r3
 761              	.LVL79:
 762              	.L59:
 763              		.loc 1 313 0
 764 0028 5542     		negs	r5, r2
 765              	.LVL80:
 766 002a 1540     		ands	r5, r5, r2
 767              	.LVL81:
 768              		.loc 1 314 0
 769 002c 23EA0500 		bic	r0, r3, r5
 770 0030 E063     		str	r0, [r4, #60]
 771              		.loc 1 316 0
 772 0032 FFF7FEFF 		bl	dbg_check_unlock
 773              	.LBB17:
 774 0036 0023     		movs	r3, #0
 775              	.LVL82:
 776              	@ 316 "../chibios_2.4.x/os/kernel/src/chevents.c" 1
 777 0038 83F31188 		msr     BASEPRI, r3
 778              	@ 0 "" 2
 779              	.LVL83:
 780              		.thumb
 781              	.LBE17:
 782              		.loc 1 318 0
 783 003c 2846     		mov	r0, r5
 784 003e 38BD     		pop	{r3, r4, r5, pc}
 785              	.L61:
 786              		.align	2
 787              	.L60:
 788 0040 00000000 		.word	rlist
 789              		.cfi_endproc
 790              	.LFE16:
ARM GAS  /tmp/ccOTlIx8.s 			page 15


 791              		.size	chEvtWaitOne, .-chEvtWaitOne
 792 0044 AFF30080 		.section	.text.chEvtWaitAny,"ax",%progbits
 792      AFF30080 
 792      AFF30080 
 793              		.align	2
 794              		.p2align 4,,15
 795              		.global	chEvtWaitAny
 796              		.thumb
 797              		.thumb_func
 798              		.type	chEvtWaitAny, %function
 799              	chEvtWaitAny:
 800              	.LFB17:
 801              		.loc 1 331 0
 802              		.cfi_startproc
 803              		@ args = 0, pretend = 0, frame = 0
 804              		@ frame_needed = 0, uses_anonymous_args = 0
 805              	.LVL84:
 806              		.loc 1 332 0
 807 0000 0E4B     		ldr	r3, .L64
 808              		.loc 1 331 0
 809 0002 70B5     		push	{r4, r5, r6, lr}
 810              	.LCFI10:
 811              		.cfi_def_cfa_offset 16
 812              		.loc 1 332 0
 813 0004 DC69     		ldr	r4, [r3, #28]
 814              		.cfi_offset 14, -4
 815              		.cfi_offset 6, -8
 816              		.cfi_offset 5, -12
 817              		.cfi_offset 4, -16
 818              	.LVL85:
 819              		.loc 1 331 0
 820 0006 0546     		mov	r5, r0
 821              	.LBB18:
 822              		.loc 1 335 0
 823 0008 2023     		movs	r3, #32
 824              	.LVL86:
 825              	@ 335 "../chibios_2.4.x/os/kernel/src/chevents.c" 1
 826 000a 83F31188 		msr     BASEPRI, r3
 827              	@ 0 "" 2
 828              	.LVL87:
 829              		.thumb
 830              	.LBE18:
 831 000e FFF7FEFF 		bl	dbg_check_lock
 832              	.LVL88:
 833              		.loc 1 337 0
 834 0012 E36B     		ldr	r3, [r4, #60]
 835              	.LVL89:
 836 0014 15EA0306 		ands	r6, r5, r3
 837 0018 06D1     		bne	.L63
 838              		.loc 1 338 0
 839 001a A562     		str	r5, [r4, #40]
 840              		.loc 1 339 0
 841 001c 0820     		movs	r0, #8
 842 001e FFF7FEFF 		bl	chSchGoSleepS
 843              	.LVL90:
 844              		.loc 1 340 0
 845 0022 E36B     		ldr	r3, [r4, #60]
ARM GAS  /tmp/ccOTlIx8.s 			page 16


 846 0024 05EA0306 		and	r6, r5, r3
 847              	.LVL91:
 848              	.L63:
 849              		.loc 1 342 0
 850 0028 23EA0600 		bic	r0, r3, r6
 851 002c E063     		str	r0, [r4, #60]
 852              		.loc 1 344 0
 853 002e FFF7FEFF 		bl	dbg_check_unlock
 854              	.LBB19:
 855 0032 0023     		movs	r3, #0
 856              	.LVL92:
 857              	@ 344 "../chibios_2.4.x/os/kernel/src/chevents.c" 1
 858 0034 83F31188 		msr     BASEPRI, r3
 859              	@ 0 "" 2
 860              	.LVL93:
 861              		.thumb
 862              	.LBE19:
 863              		.loc 1 346 0
 864 0038 3046     		mov	r0, r6
 865 003a 70BD     		pop	{r4, r5, r6, pc}
 866              	.L65:
 867              		.align	2
 868              	.L64:
 869 003c 00000000 		.word	rlist
 870              		.cfi_endproc
 871              	.LFE17:
 872              		.size	chEvtWaitAny, .-chEvtWaitAny
 873              		.section	.text.chEvtWaitAll,"ax",%progbits
 874              		.align	2
 875              		.p2align 4,,15
 876              		.global	chEvtWaitAll
 877              		.thumb
 878              		.thumb_func
 879              		.type	chEvtWaitAll, %function
 880              	chEvtWaitAll:
 881              	.LFB18:
 882              		.loc 1 359 0
 883              		.cfi_startproc
 884              		@ args = 0, pretend = 0, frame = 0
 885              		@ frame_needed = 0, uses_anonymous_args = 0
 886              	.LVL94:
 887 0000 38B5     		push	{r3, r4, r5, lr}
 888              	.LCFI11:
 889              		.cfi_def_cfa_offset 16
 890              		.loc 1 360 0
 891 0002 0E4B     		ldr	r3, .L68
 892              		.cfi_offset 14, -4
 893              		.cfi_offset 5, -8
 894              		.cfi_offset 4, -12
 895              		.cfi_offset 3, -16
 896              		.loc 1 359 0
 897 0004 0446     		mov	r4, r0
 898              		.loc 1 360 0
 899 0006 DD69     		ldr	r5, [r3, #28]
 900              	.LVL95:
 901              	.LBB20:
 902              		.loc 1 362 0
ARM GAS  /tmp/ccOTlIx8.s 			page 17


 903 0008 2023     		movs	r3, #32
 904              	.LVL96:
 905              	@ 362 "../chibios_2.4.x/os/kernel/src/chevents.c" 1
 906 000a 83F31188 		msr     BASEPRI, r3
 907              	@ 0 "" 2
 908              	.LVL97:
 909              		.thumb
 910              	.LBE20:
 911 000e FFF7FEFF 		bl	dbg_check_lock
 912              	.LVL98:
 913              		.loc 1 364 0
 914 0012 EB6B     		ldr	r3, [r5, #60]
 915 0014 04EA0302 		and	r2, r4, r3
 916 0018 A242     		cmp	r2, r4
 917 001a 04D0     		beq	.L67
 918              		.loc 1 365 0
 919 001c AC62     		str	r4, [r5, #40]
 920              		.loc 1 366 0
 921 001e 0920     		movs	r0, #9
 922 0020 FFF7FEFF 		bl	chSchGoSleepS
 923 0024 EB6B     		ldr	r3, [r5, #60]
 924              	.L67:
 925              		.loc 1 368 0
 926 0026 23EA0400 		bic	r0, r3, r4
 927 002a E863     		str	r0, [r5, #60]
 928              		.loc 1 370 0
 929 002c FFF7FEFF 		bl	dbg_check_unlock
 930              	.LBB21:
 931 0030 0023     		movs	r3, #0
 932              	.LVL99:
 933              	@ 370 "../chibios_2.4.x/os/kernel/src/chevents.c" 1
 934 0032 83F31188 		msr     BASEPRI, r3
 935              	@ 0 "" 2
 936              	.LVL100:
 937              		.thumb
 938              	.LBE21:
 939              		.loc 1 372 0
 940 0036 2046     		mov	r0, r4
 941 0038 38BD     		pop	{r3, r4, r5, pc}
 942              	.L69:
 943 003a 00BF     		.align	2
 944              	.L68:
 945 003c 00000000 		.word	rlist
 946              		.cfi_endproc
 947              	.LFE18:
 948              		.size	chEvtWaitAll, .-chEvtWaitAll
 949              		.section	.text.chEvtWaitOneTimeout,"ax",%progbits
 950              		.align	2
 951              		.p2align 4,,15
 952              		.global	chEvtWaitOneTimeout
 953              		.thumb
 954              		.thumb_func
 955              		.type	chEvtWaitOneTimeout, %function
 956              	chEvtWaitOneTimeout:
 957              	.LFB19:
 958              		.loc 1 398 0
 959              		.cfi_startproc
ARM GAS  /tmp/ccOTlIx8.s 			page 18


 960              		@ args = 0, pretend = 0, frame = 0
 961              		@ frame_needed = 0, uses_anonymous_args = 0
 962              	.LVL101:
 963 0000 F8B5     		push	{r3, r4, r5, r6, r7, lr}
 964              	.LCFI12:
 965              		.cfi_def_cfa_offset 24
 966              		.loc 1 399 0
 967 0002 184B     		ldr	r3, .L77
 968              		.cfi_offset 14, -4
 969              		.cfi_offset 7, -8
 970              		.cfi_offset 6, -12
 971              		.cfi_offset 5, -16
 972              		.cfi_offset 4, -20
 973              		.cfi_offset 3, -24
 974              		.loc 1 398 0
 975 0004 0546     		mov	r5, r0
 976              		.loc 1 399 0
 977 0006 DE69     		ldr	r6, [r3, #28]
 978              	.LVL102:
 979              		.loc 1 398 0
 980 0008 0F46     		mov	r7, r1
 981              	.LBB22:
 982              		.loc 1 402 0
 983 000a 2023     		movs	r3, #32
 984              	.LVL103:
 985              	@ 402 "../chibios_2.4.x/os/kernel/src/chevents.c" 1
 986 000c 83F31188 		msr     BASEPRI, r3
 987              	@ 0 "" 2
 988              	.LVL104:
 989              		.thumb
 990              	.LBE22:
 991 0010 FFF7FEFF 		bl	dbg_check_lock
 992              	.LVL105:
 993              		.loc 1 404 0
 994 0014 F36B     		ldr	r3, [r6, #60]
 995              	.LVL106:
 996 0016 15EA0304 		ands	r4, r5, r3
 997 001a 0AD1     		bne	.L71
 998              		.loc 1 405 0
 999 001c AFB1     		cbz	r7, .L75
 1000              		.loc 1 410 0
 1001 001e 0820     		movs	r0, #8
 1002              		.loc 1 409 0
 1003 0020 B562     		str	r5, [r6, #40]
 1004              		.loc 1 410 0
 1005 0022 3946     		mov	r1, r7
 1006 0024 FFF7FEFF 		bl	chSchGoSleepTimeoutS
 1007              	.LVL107:
 1008 0028 0028     		cmp	r0, #0
 1009 002a 15DB     		blt	.L76
 1010              		.loc 1 414 0
 1011 002c F36B     		ldr	r3, [r6, #60]
 1012 002e 05EA0304 		and	r4, r5, r3
 1013              	.LVL108:
 1014              	.L71:
 1015              		.loc 1 416 0
 1016 0032 6242     		negs	r2, r4
ARM GAS  /tmp/ccOTlIx8.s 			page 19


 1017 0034 1440     		ands	r4, r4, r2
 1018              	.LVL109:
 1019              		.loc 1 417 0
 1020 0036 23EA0400 		bic	r0, r3, r4
 1021 003a F063     		str	r0, [r6, #60]
 1022              		.loc 1 419 0
 1023 003c FFF7FEFF 		bl	dbg_check_unlock
 1024              	.LBB23:
 1025 0040 0023     		movs	r3, #0
 1026              	.LVL110:
 1027              	@ 419 "../chibios_2.4.x/os/kernel/src/chevents.c" 1
 1028 0042 83F31188 		msr     BASEPRI, r3
 1029              	@ 0 "" 2
 1030              	.LVL111:
 1031              		.thumb
 1032              	.L73:
 1033              	.LBE23:
 1034              		.loc 1 421 0
 1035 0046 2046     		mov	r0, r4
 1036 0048 F8BD     		pop	{r3, r4, r5, r6, r7, pc}
 1037              	.LVL112:
 1038              	.L75:
 1039              		.loc 1 406 0
 1040 004a FFF7FEFF 		bl	dbg_check_unlock
 1041              	.LBB24:
 1042 004e 2346     		mov	r3, r4
 1043              	.LVL113:
 1044              	@ 406 "../chibios_2.4.x/os/kernel/src/chevents.c" 1
 1045 0050 83F31188 		msr     BASEPRI, r3
 1046              	@ 0 "" 2
 1047              	.LVL114:
 1048              		.thumb
 1049              	.LBE24:
 1050              		.loc 1 421 0
 1051 0054 2046     		mov	r0, r4
 1052 0056 F8BD     		pop	{r3, r4, r5, r6, r7, pc}
 1053              	.LVL115:
 1054              	.L76:
 1055              		.loc 1 411 0
 1056 0058 FFF7FEFF 		bl	dbg_check_unlock
 1057              	.LBB25:
 1058 005c 2346     		mov	r3, r4
 1059              	@ 411 "../chibios_2.4.x/os/kernel/src/chevents.c" 1
 1060 005e 83F31188 		msr     BASEPRI, r3
 1061              	@ 0 "" 2
 1062              	.LVL116:
 1063              		.thumb
 1064              	.LBE25:
 1065              		.loc 1 412 0
 1066 0062 F0E7     		b	.L73
 1067              	.L78:
 1068              		.align	2
 1069              	.L77:
 1070 0064 00000000 		.word	rlist
 1071              		.cfi_endproc
 1072              	.LFE19:
 1073              		.size	chEvtWaitOneTimeout, .-chEvtWaitOneTimeout
ARM GAS  /tmp/ccOTlIx8.s 			page 20


 1074 0068 AFF30080 		.section	.text.chEvtWaitAnyTimeout,"ax",%progbits
 1074      AFF30080 
 1075              		.align	2
 1076              		.p2align 4,,15
 1077              		.global	chEvtWaitAnyTimeout
 1078              		.thumb
 1079              		.thumb_func
 1080              		.type	chEvtWaitAnyTimeout, %function
 1081              	chEvtWaitAnyTimeout:
 1082              	.LFB20:
 1083              		.loc 1 441 0
 1084              		.cfi_startproc
 1085              		@ args = 0, pretend = 0, frame = 0
 1086              		@ frame_needed = 0, uses_anonymous_args = 0
 1087              	.LVL117:
 1088 0000 F8B5     		push	{r3, r4, r5, r6, r7, lr}
 1089              	.LCFI13:
 1090              		.cfi_def_cfa_offset 24
 1091              		.loc 1 442 0
 1092 0002 174B     		ldr	r3, .L86
 1093              		.cfi_offset 14, -4
 1094              		.cfi_offset 7, -8
 1095              		.cfi_offset 6, -12
 1096              		.cfi_offset 5, -16
 1097              		.cfi_offset 4, -20
 1098              		.cfi_offset 3, -24
 1099              		.loc 1 441 0
 1100 0004 0446     		mov	r4, r0
 1101              		.loc 1 442 0
 1102 0006 DD69     		ldr	r5, [r3, #28]
 1103              	.LVL118:
 1104              		.loc 1 441 0
 1105 0008 0F46     		mov	r7, r1
 1106              	.LBB26:
 1107              		.loc 1 445 0
 1108 000a 2023     		movs	r3, #32
 1109              	.LVL119:
 1110              	@ 445 "../chibios_2.4.x/os/kernel/src/chevents.c" 1
 1111 000c 83F31188 		msr     BASEPRI, r3
 1112              	@ 0 "" 2
 1113              	.LVL120:
 1114              		.thumb
 1115              	.LBE26:
 1116 0010 FFF7FEFF 		bl	dbg_check_lock
 1117              	.LVL121:
 1118              		.loc 1 447 0
 1119 0014 EB6B     		ldr	r3, [r5, #60]
 1120              	.LVL122:
 1121 0016 14EA0306 		ands	r6, r4, r3
 1122 001a 0AD1     		bne	.L80
 1123              		.loc 1 448 0
 1124 001c 9FB1     		cbz	r7, .L84
 1125              		.loc 1 453 0
 1126 001e 0820     		movs	r0, #8
 1127              		.loc 1 452 0
 1128 0020 AC62     		str	r4, [r5, #40]
 1129              		.loc 1 453 0
ARM GAS  /tmp/ccOTlIx8.s 			page 21


 1130 0022 3946     		mov	r1, r7
 1131 0024 FFF7FEFF 		bl	chSchGoSleepTimeoutS
 1132              	.LVL123:
 1133 0028 0028     		cmp	r0, #0
 1134 002a 13DB     		blt	.L85
 1135              		.loc 1 457 0
 1136 002c EB6B     		ldr	r3, [r5, #60]
 1137 002e 04EA0306 		and	r6, r4, r3
 1138              	.LVL124:
 1139              	.L80:
 1140              		.loc 1 459 0
 1141 0032 23EA0600 		bic	r0, r3, r6
 1142 0036 E863     		str	r0, [r5, #60]
 1143              		.loc 1 461 0
 1144 0038 FFF7FEFF 		bl	dbg_check_unlock
 1145              	.LBB27:
 1146 003c 0023     		movs	r3, #0
 1147              	.LVL125:
 1148              	@ 461 "../chibios_2.4.x/os/kernel/src/chevents.c" 1
 1149 003e 83F31188 		msr     BASEPRI, r3
 1150              	@ 0 "" 2
 1151              	.LVL126:
 1152              		.thumb
 1153              	.L82:
 1154              	.LBE27:
 1155              		.loc 1 463 0
 1156 0042 3046     		mov	r0, r6
 1157 0044 F8BD     		pop	{r3, r4, r5, r6, r7, pc}
 1158              	.LVL127:
 1159              	.L84:
 1160              		.loc 1 449 0
 1161 0046 FFF7FEFF 		bl	dbg_check_unlock
 1162              	.LBB28:
 1163 004a 3346     		mov	r3, r6
 1164              	.LVL128:
 1165              	@ 449 "../chibios_2.4.x/os/kernel/src/chevents.c" 1
 1166 004c 83F31188 		msr     BASEPRI, r3
 1167              	@ 0 "" 2
 1168              	.LVL129:
 1169              		.thumb
 1170              	.LBE28:
 1171              		.loc 1 463 0
 1172 0050 3046     		mov	r0, r6
 1173 0052 F8BD     		pop	{r3, r4, r5, r6, r7, pc}
 1174              	.LVL130:
 1175              	.L85:
 1176              		.loc 1 454 0
 1177 0054 FFF7FEFF 		bl	dbg_check_unlock
 1178              	.LBB29:
 1179 0058 3346     		mov	r3, r6
 1180              	@ 454 "../chibios_2.4.x/os/kernel/src/chevents.c" 1
 1181 005a 83F31188 		msr     BASEPRI, r3
 1182              	@ 0 "" 2
 1183              	.LVL131:
 1184              		.thumb
 1185              	.LBE29:
 1186              		.loc 1 455 0
ARM GAS  /tmp/ccOTlIx8.s 			page 22


 1187 005e F0E7     		b	.L82
 1188              	.L87:
 1189              		.align	2
 1190              	.L86:
 1191 0060 00000000 		.word	rlist
 1192              		.cfi_endproc
 1193              	.LFE20:
 1194              		.size	chEvtWaitAnyTimeout, .-chEvtWaitAnyTimeout
 1195 0064 AFF30080 		.section	.text.chEvtWaitAllTimeout,"ax",%progbits
 1195      AFF30080 
 1195      AFF30080 
 1196              		.align	2
 1197              		.p2align 4,,15
 1198              		.global	chEvtWaitAllTimeout
 1199              		.thumb
 1200              		.thumb_func
 1201              		.type	chEvtWaitAllTimeout, %function
 1202              	chEvtWaitAllTimeout:
 1203              	.LFB21:
 1204              		.loc 1 482 0
 1205              		.cfi_startproc
 1206              		@ args = 0, pretend = 0, frame = 0
 1207              		@ frame_needed = 0, uses_anonymous_args = 0
 1208              	.LVL132:
 1209              		.loc 1 483 0
 1210 0000 184B     		ldr	r3, .L94
 1211              		.loc 1 482 0
 1212 0002 70B5     		push	{r4, r5, r6, lr}
 1213              	.LCFI14:
 1214              		.cfi_def_cfa_offset 16
 1215              		.loc 1 483 0
 1216 0004 DD69     		ldr	r5, [r3, #28]
 1217              		.cfi_offset 14, -4
 1218              		.cfi_offset 6, -8
 1219              		.cfi_offset 5, -12
 1220              		.cfi_offset 4, -16
 1221              	.LVL133:
 1222              		.loc 1 482 0
 1223 0006 0446     		mov	r4, r0
 1224 0008 0E46     		mov	r6, r1
 1225              	.LBB30:
 1226              		.loc 1 485 0
 1227 000a 2023     		movs	r3, #32
 1228              	.LVL134:
 1229              	@ 485 "../chibios_2.4.x/os/kernel/src/chevents.c" 1
 1230 000c 83F31188 		msr     BASEPRI, r3
 1231              	@ 0 "" 2
 1232              	.LVL135:
 1233              		.thumb
 1234              	.LBE30:
 1235 0010 FFF7FEFF 		bl	dbg_check_lock
 1236              	.LVL136:
 1237              		.loc 1 487 0
 1238 0014 EB6B     		ldr	r3, [r5, #60]
 1239 0016 04EA0302 		and	r2, r4, r3
 1240 001a A242     		cmp	r2, r4
 1241 001c 08D0     		beq	.L89
ARM GAS  /tmp/ccOTlIx8.s 			page 23


 1242              		.loc 1 488 0
 1243 001e 8EB1     		cbz	r6, .L93
 1244              		.loc 1 493 0
 1245 0020 0920     		movs	r0, #9
 1246              		.loc 1 492 0
 1247 0022 AC62     		str	r4, [r5, #40]
 1248              		.loc 1 493 0
 1249 0024 3146     		mov	r1, r6
 1250 0026 FFF7FEFF 		bl	chSchGoSleepTimeoutS
 1251 002a 0028     		cmp	r0, #0
 1252 002c 12DB     		blt	.L92
 1253 002e EB6B     		ldr	r3, [r5, #60]
 1254              	.L89:
 1255              		.loc 1 498 0
 1256 0030 23EA0400 		bic	r0, r3, r4
 1257 0034 E863     		str	r0, [r5, #60]
 1258              		.loc 1 500 0
 1259 0036 FFF7FEFF 		bl	dbg_check_unlock
 1260              	.LBB31:
 1261 003a 0023     		movs	r3, #0
 1262              	.LVL137:
 1263              	@ 500 "../chibios_2.4.x/os/kernel/src/chevents.c" 1
 1264 003c 83F31188 		msr     BASEPRI, r3
 1265              	@ 0 "" 2
 1266              	.LVL138:
 1267              		.thumb
 1268              	.L91:
 1269              	.LBE31:
 1270              		.loc 1 502 0
 1271 0040 2046     		mov	r0, r4
 1272 0042 70BD     		pop	{r4, r5, r6, pc}
 1273              	.LVL139:
 1274              	.L93:
 1275              		.loc 1 489 0
 1276 0044 FFF7FEFF 		bl	dbg_check_unlock
 1277              	.LBB32:
 1278 0048 3346     		mov	r3, r6
 1279              	.LVL140:
 1280              	@ 489 "../chibios_2.4.x/os/kernel/src/chevents.c" 1
 1281 004a 83F31188 		msr     BASEPRI, r3
 1282              	@ 0 "" 2
 1283              	.LVL141:
 1284              		.thumb
 1285              	.LBE32:
 1286              		.loc 1 490 0
 1287 004e 3446     		mov	r4, r6
 1288              	.LVL142:
 1289              		.loc 1 502 0
 1290 0050 2046     		mov	r0, r4
 1291 0052 70BD     		pop	{r4, r5, r6, pc}
 1292              	.LVL143:
 1293              	.L92:
 1294              		.loc 1 494 0
 1295 0054 FFF7FEFF 		bl	dbg_check_unlock
 1296              	.LBB33:
 1297 0058 0023     		movs	r3, #0
 1298              	@ 494 "../chibios_2.4.x/os/kernel/src/chevents.c" 1
ARM GAS  /tmp/ccOTlIx8.s 			page 24


 1299 005a 83F31188 		msr     BASEPRI, r3
 1300              	@ 0 "" 2
 1301              	.LVL144:
 1302              		.thumb
 1303              	.LBE33:
 1304              		.loc 1 495 0
 1305 005e 1C46     		mov	r4, r3
 1306              	.LVL145:
 1307 0060 EEE7     		b	.L91
 1308              	.L95:
 1309 0062 00BF     		.align	2
 1310              	.L94:
 1311 0064 00000000 		.word	rlist
 1312              		.cfi_endproc
 1313              	.LFE21:
 1314              		.size	chEvtWaitAllTimeout, .-chEvtWaitAllTimeout
 1315 0068 AFF30080 		.section	.rodata.str1.4,"aMS",%progbits,1
 1315      AFF30080 
 1316              		.align	2
 1317              	.LC0:
 1318 0000 22636845 		.ascii	"\"chEvtRegisterMask\"()\000"
 1318      76745265 
 1318      67697374 
 1318      65724D61 
 1318      736B2228 
 1319 0016 0000     		.space	2
 1320              	.LC1:
 1321 0018 22636845 		.ascii	"\"chEvtUnregister\"()\000"
 1321      7674556E 
 1321      72656769 
 1321      73746572 
 1321      22282900 
 1322              	.LC2:
 1323 002c 22636845 		.ascii	"\"chEvtSignalI\"()\000"
 1323      76745369 
 1323      676E616C 
 1323      49222829 
 1323      00
 1324 003d 000000   		.space	3
 1325              	.LC3:
 1326 0040 22636845 		.ascii	"\"chEvtSignal\"()\000"
 1326      76745369 
 1326      676E616C 
 1326      22282900 
 1327              	.LC4:
 1328 0050 22636845 		.ascii	"\"chEvtBroadcastMaskI\"()\000"
 1328      76744272 
 1328      6F616463 
 1328      6173744D 
 1328      61736B49 
 1329              	.LC5:
 1330 0068 22636845 		.ascii	"\"chEvtDispatch\"()\000"
 1330      76744469 
 1330      73706174 
 1330      63682228 
 1330      2900
 1331 007a 0000     		.space	2
ARM GAS  /tmp/ccOTlIx8.s 			page 25


 1332              	.LC6:
 1333 007c 63684576 		.ascii	"chEvtDispatch(), #1\000"
 1333      74446973 
 1333      70617463 
 1333      6828292C 
 1333      20233100 
 1334              		.text
 1335              	.Letext0: