ARM GAS  C:\Users\z80\AppData\Local\Temp\cclkQXgD.s 			page 1


   1              		.syntax unified
   2              		.cpu cortex-m3
   3              		.fpu softvfp
   4              		.eabi_attribute 20, 1
   5              		.eabi_attribute 21, 1
   6              		.eabi_attribute 23, 3
   7              		.eabi_attribute 24, 1
   8              		.eabi_attribute 25, 1
   9              		.eabi_attribute 26, 1
  10              		.eabi_attribute 30, 2
  11              		.eabi_attribute 18, 4
  12              		.thumb
  13              		.file	"chevents.c"
  14              		.section	.debug_abbrev,"",%progbits
  15              	.Ldebug_abbrev0:
  16              		.section	.debug_info,"",%progbits
  17              	.Ldebug_info0:
  18              		.section	.debug_line,"",%progbits
  19              	.Ldebug_line0:
  20 0000 20030000 		.text
  20      02002E01 
  20      00000201 
  20      FB0E0D00 
  20      01010101 
  21              	.Ltext0:
  22              		.cfi_sections	.debug_frame
  23              		.section	.text.chEvtRegisterMask,"ax",%progbits
  24              		.align	2
  25              		.p2align 4,,15
  26              		.global	chEvtRegisterMask
  27              		.thumb
  28              		.thumb_func
  29              		.type	chEvtRegisterMask, %function
  30              	chEvtRegisterMask:
  31              	.LFB7:
  32              		.file 1 "../chibios_2.4.x/os/kernel/src/chevents.c"
  33              		.loc 1 82 0
  34              		.cfi_startproc
  35              		@ args = 0, pretend = 0, frame = 0
  36              		@ frame_needed = 0, uses_anonymous_args = 0
  37              	.LVL0:
  38              		.loc 1 84 0
  39 0000 D0F10103 		rsbs	r3, r0, #1
  40 0004 38BF     		it	cc
  41 0006 0023     		movcc	r3, #0
  42 0008 0029     		cmp	r1, #0
  43 000a 08BF     		it	eq
  44 000c 43F00103 		orreq	r3, r3, #1
  45              		.loc 1 82 0
  46 0010 70B5     		push	{r4, r5, r6, lr}
  47              	.LCFI0:
  48              		.cfi_def_cfa_offset 16
  49              		.loc 1 82 0
  50 0012 0446     		mov	r4, r0
  51              		.cfi_offset 14, -4
  52              		.cfi_offset 6, -8
  53              		.cfi_offset 5, -12
ARM GAS  C:\Users\z80\AppData\Local\Temp\cclkQXgD.s 			page 2


  54              		.cfi_offset 4, -16
  55 0014 0D46     		mov	r5, r1
  56 0016 1646     		mov	r6, r2
  57              		.loc 1 84 0
  58 0018 13B1     		cbz	r3, .L2
  59              		.loc 1 84 0 is_stmt 0 discriminator 1
  60 001a 0A48     		ldr	r0, .L4
  61              	.LVL1:
  62 001c FFF7FEFF 		bl	chDbgPanic
  63              	.LVL2:
  64              	.L2:
  65              	.LBB2:
  66              		.loc 1 86 0 is_stmt 1
  67 0020 2023     		movs	r3, #32
  68              	.LVL3:
  69              	@ 86 "../chibios_2.4.x/os/kernel/src/chevents.c" 1
  70 0022 83F31188 		msr     BASEPRI, r3
  71              	@ 0 "" 2
  72              	.LVL4:
  73              		.thumb
  74              	.LBE2:
  75 0026 FFF7FEFF 		bl	dbg_check_lock
  76              	.LVL5:
  77              		.loc 1 89 0
  78 002a 074B     		ldr	r3, .L4+4
  79              		.loc 1 87 0
  80 002c 2268     		ldr	r2, [r4, #0]
  81              		.loc 1 89 0
  82 002e DB69     		ldr	r3, [r3, #28]
  83              		.loc 1 87 0
  84 0030 2A60     		str	r2, [r5, #0]
  85              		.loc 1 88 0
  86 0032 2560     		str	r5, [r4, #0]
  87              		.loc 1 89 0
  88 0034 6B60     		str	r3, [r5, #4]
  89              		.loc 1 90 0
  90 0036 AE60     		str	r6, [r5, #8]
  91              		.loc 1 91 0
  92 0038 FFF7FEFF 		bl	dbg_check_unlock
  93              	.LBB3:
  94 003c 0023     		movs	r3, #0
  95              	.LVL6:
  96              	@ 91 "../chibios_2.4.x/os/kernel/src/chevents.c" 1
  97 003e 83F31188 		msr     BASEPRI, r3
  98              	@ 0 "" 2
  99              	.LVL7:
 100              		.thumb
 101              	.LBE3:
 102              		.loc 1 92 0
 103 0042 70BD     		pop	{r4, r5, r6, pc}
 104              	.L5:
 105              		.align	2
 106              	.L4:
 107 0044 00000000 		.word	.LC0
 108 0048 00000000 		.word	rlist
 109              		.cfi_endproc
 110              	.LFE7:
ARM GAS  C:\Users\z80\AppData\Local\Temp\cclkQXgD.s 			page 3


 111              		.size	chEvtRegisterMask, .-chEvtRegisterMask
 112 004c AFF30080 		.section	.text.chEvtUnregister,"ax",%progbits
 113              		.align	2
 114              		.p2align 4,,15
 115              		.global	chEvtUnregister
 116              		.thumb
 117              		.thumb_func
 118              		.type	chEvtUnregister, %function
 119              	chEvtUnregister:
 120              	.LFB8:
 121              		.loc 1 107 0
 122              		.cfi_startproc
 123              		@ args = 0, pretend = 0, frame = 0
 124              		@ frame_needed = 0, uses_anonymous_args = 0
 125              	.LVL8:
 126 0000 38B5     		push	{r3, r4, r5, lr}
 127              	.LCFI1:
 128              		.cfi_def_cfa_offset 16
 129              		.loc 1 110 0
 130 0002 D0F10103 		rsbs	r3, r0, #1
 131 0006 38BF     		it	cc
 132 0008 0023     		movcc	r3, #0
 133              		.cfi_offset 14, -4
 134              		.cfi_offset 5, -8
 135              		.cfi_offset 4, -12
 136              		.cfi_offset 3, -16
 137 000a 0029     		cmp	r1, #0
 138 000c 08BF     		it	eq
 139 000e 43F00103 		orreq	r3, r3, #1
 140              		.loc 1 107 0
 141 0012 0446     		mov	r4, r0
 142 0014 0D46     		mov	r5, r1
 143              		.loc 1 110 0
 144 0016 ABB9     		cbnz	r3, .L12
 145              	.LVL9:
 146              	.L7:
 147              	.LBB4:
 148              		.loc 1 113 0
 149 0018 2023     		movs	r3, #32
 150              	.LVL10:
 151              	@ 113 "../chibios_2.4.x/os/kernel/src/chevents.c" 1
 152 001a 83F31188 		msr     BASEPRI, r3
 153              	@ 0 "" 2
 154              	.LVL11:
 155              		.thumb
 156              	.LBE4:
 157 001e FFF7FEFF 		bl	dbg_check_lock
 158              	.LVL12:
 159              		.loc 1 112 0
 160 0022 2246     		mov	r2, r4
 161              		.loc 1 114 0
 162 0024 02E0     		b	.L8
 163              	.LVL13:
 164              	.L10:
 165              		.loc 1 115 0
 166 0026 9D42     		cmp	r5, r3
 167 0028 09D0     		beq	.L13
ARM GAS  C:\Users\z80\AppData\Local\Temp\cclkQXgD.s 			page 4


 168 002a 1A46     		mov	r2, r3
 169              	.LVL14:
 170              	.L8:
 171              		.loc 1 114 0 discriminator 1
 172 002c 1368     		ldr	r3, [r2, #0]
 173 002e 9C42     		cmp	r4, r3
 174 0030 F9D1     		bne	.L10
 175              	.L9:
 176              		.loc 1 121 0
 177 0032 FFF7FEFF 		bl	dbg_check_unlock
 178              	.LVL15:
 179              	.LBB5:
 180 0036 0023     		movs	r3, #0
 181              	.LVL16:
 182              	@ 121 "../chibios_2.4.x/os/kernel/src/chevents.c" 1
 183 0038 83F31188 		msr     BASEPRI, r3
 184              	@ 0 "" 2
 185              	.LVL17:
 186              		.thumb
 187              	.LBE5:
 188              		.loc 1 122 0
 189 003c 38BD     		pop	{r3, r4, r5, pc}
 190              	.LVL18:
 191              	.L13:
 192              		.loc 1 116 0
 193 003e 2B68     		ldr	r3, [r5, #0]
 194 0040 1360     		str	r3, [r2, #0]
 195              		.loc 1 117 0
 196 0042 F6E7     		b	.L9
 197              	.LVL19:
 198              	.L12:
 199              		.loc 1 110 0 discriminator 1
 200 0044 0148     		ldr	r0, .L14
 201 0046 FFF7FEFF 		bl	chDbgPanic
 202 004a E5E7     		b	.L7
 203              	.L15:
 204              		.align	2
 205              	.L14:
 206 004c 18000000 		.word	.LC1
 207              		.cfi_endproc
 208              	.LFE8:
 209              		.size	chEvtUnregister, .-chEvtUnregister
 210              		.section	.text.chEvtClearFlags,"ax",%progbits
 211              		.align	2
 212              		.p2align 4,,15
 213              		.global	chEvtClearFlags
 214              		.thumb
 215              		.thumb_func
 216              		.type	chEvtClearFlags, %function
 217              	chEvtClearFlags:
 218              	.LFB9:
 219              		.loc 1 132 0
 220              		.cfi_startproc
 221              		@ args = 0, pretend = 0, frame = 0
 222              		@ frame_needed = 0, uses_anonymous_args = 0
 223              	.LVL20:
 224 0000 38B5     		push	{r3, r4, r5, lr}
ARM GAS  C:\Users\z80\AppData\Local\Temp\cclkQXgD.s 			page 5


 225              	.LCFI2:
 226              		.cfi_def_cfa_offset 16
 227              		.loc 1 132 0
 228 0002 0546     		mov	r5, r0
 229              		.cfi_offset 14, -4
 230              		.cfi_offset 5, -8
 231              		.cfi_offset 4, -12
 232              		.cfi_offset 3, -16
 233              	.LBB6:
 234              		.loc 1 135 0
 235 0004 2023     		movs	r3, #32
 236              	.LVL21:
 237              	@ 135 "../chibios_2.4.x/os/kernel/src/chevents.c" 1
 238 0006 83F31188 		msr     BASEPRI, r3
 239              	@ 0 "" 2
 240              	.LVL22:
 241              		.thumb
 242              	.LBE6:
 243 000a FFF7FEFF 		bl	dbg_check_lock
 244              	.LVL23:
 245              		.loc 1 137 0
 246 000e 40F20003 		movw	r3, #:lower16:rlist
 247 0012 C0F20003 		movt	r3, #:upper16:rlist
 248 0016 DB69     		ldr	r3, [r3, #28]
 249 0018 DC6B     		ldr	r4, [r3, #60]
 250              		.loc 1 138 0
 251 001a 24EA0502 		bic	r2, r4, r5
 252 001e DA63     		str	r2, [r3, #60]
 253              		.loc 1 140 0
 254 0020 FFF7FEFF 		bl	dbg_check_unlock
 255              	.LVL24:
 256              	.LBB7:
 257 0024 0023     		movs	r3, #0
 258              	.LVL25:
 259              	@ 140 "../chibios_2.4.x/os/kernel/src/chevents.c" 1
 260 0026 83F31188 		msr     BASEPRI, r3
 261              	@ 0 "" 2
 262              	.LVL26:
 263              		.thumb
 264              	.LBE7:
 265              		.loc 1 137 0
 266 002a 05EA0400 		and	r0, r5, r4
 267              		.loc 1 142 0
 268 002e 38BD     		pop	{r3, r4, r5, pc}
 269              		.cfi_endproc
 270              	.LFE9:
 271              		.size	chEvtClearFlags, .-chEvtClearFlags
 272              		.section	.text.chEvtAddFlags,"ax",%progbits
 273              		.align	2
 274              		.p2align 4,,15
 275              		.global	chEvtAddFlags
 276              		.thumb
 277              		.thumb_func
 278              		.type	chEvtAddFlags, %function
 279              	chEvtAddFlags:
 280              	.LFB10:
 281              		.loc 1 153 0
ARM GAS  C:\Users\z80\AppData\Local\Temp\cclkQXgD.s 			page 6


 282              		.cfi_startproc
 283              		@ args = 0, pretend = 0, frame = 0
 284              		@ frame_needed = 0, uses_anonymous_args = 0
 285              	.LVL27:
 286 0000 10B5     		push	{r4, lr}
 287              	.LCFI3:
 288              		.cfi_def_cfa_offset 8
 289              	.LBB8:
 290              		.loc 1 155 0
 291 0002 2023     		movs	r3, #32
 292              	.LVL28:
 293              	.LBE8:
 294              		.loc 1 153 0
 295 0004 0446     		mov	r4, r0
 296              		.cfi_offset 14, -4
 297              		.cfi_offset 4, -8
 298              	.LBB9:
 299              		.loc 1 155 0
 300              	@ 155 "../chibios_2.4.x/os/kernel/src/chevents.c" 1
 301 0006 83F31188 		msr     BASEPRI, r3
 302              	@ 0 "" 2
 303              	.LVL29:
 304              		.thumb
 305              	.LBE9:
 306 000a FFF7FEFF 		bl	dbg_check_lock
 307              	.LVL30:
 308              		.loc 1 157 0
 309 000e 40F20003 		movw	r3, #:lower16:rlist
 310 0012 C0F20003 		movt	r3, #:upper16:rlist
 311 0016 DB69     		ldr	r3, [r3, #28]
 312 0018 DA6B     		ldr	r2, [r3, #60]
 313 001a 1443     		orrs	r4, r4, r2
 314              	.LVL31:
 315 001c DC63     		str	r4, [r3, #60]
 316              	.LVL32:
 317              		.loc 1 159 0
 318 001e FFF7FEFF 		bl	dbg_check_unlock
 319              	.LBB10:
 320 0022 0023     		movs	r3, #0
 321              	.LVL33:
 322              	@ 159 "../chibios_2.4.x/os/kernel/src/chevents.c" 1
 323 0024 83F31188 		msr     BASEPRI, r3
 324              	@ 0 "" 2
 325              	.LVL34:
 326              		.thumb
 327              	.LBE10:
 328              		.loc 1 161 0
 329 0028 2046     		mov	r0, r4
 330 002a 10BD     		pop	{r4, pc}
 331              		.cfi_endproc
 332              	.LFE10:
 333              		.size	chEvtAddFlags, .-chEvtAddFlags
 334 002c AFF30080 		.section	.text.chEvtSignalFlagsI,"ax",%progbits
 335              		.align	2
 336              		.p2align 4,,15
 337              		.global	chEvtSignalFlagsI
 338              		.thumb
ARM GAS  C:\Users\z80\AppData\Local\Temp\cclkQXgD.s 			page 7


 339              		.thumb_func
 340              		.type	chEvtSignalFlagsI, %function
 341              	chEvtSignalFlagsI:
 342              	.LFB12:
 343              		.loc 1 193 0
 344              		.cfi_startproc
 345              		@ args = 0, pretend = 0, frame = 0
 346              		@ frame_needed = 0, uses_anonymous_args = 0
 347              	.LVL35:
 348 0000 38B5     		push	{r3, r4, r5, lr}
 349              	.LCFI4:
 350              		.cfi_def_cfa_offset 16
 351              		.loc 1 193 0
 352 0002 0446     		mov	r4, r0
 353              		.cfi_offset 14, -4
 354              		.cfi_offset 5, -8
 355              		.cfi_offset 4, -12
 356              		.cfi_offset 3, -16
 357 0004 0D46     		mov	r5, r1
 358              		.loc 1 195 0
 359 0006 FFF7FEFF 		bl	chDbgCheckClassI
 360              	.LVL36:
 361              		.loc 1 196 0
 362 000a 002C     		cmp	r4, #0
 363 000c 1CD0     		beq	.L24
 364              	.L19:
 365              		.loc 1 198 0
 366 000e E26B     		ldr	r2, [r4, #60]
 367              		.loc 1 200 0
 368 0010 94F82030 		ldrb	r3, [r4, #32]	@ zero_extendqisi2
 369              		.loc 1 198 0
 370 0014 1543     		orrs	r5, r5, r2
 371              	.LVL37:
 372              		.loc 1 200 0
 373 0016 082B     		cmp	r3, #8
 374              		.loc 1 198 0
 375 0018 E563     		str	r5, [r4, #60]
 376              		.loc 1 200 0
 377 001a 0CD0     		beq	.L25
 378              		.loc 1 201 0
 379 001c 092B     		cmp	r3, #9
 380 001e 00D0     		beq	.L26
 381              	.L18:
 382              		.loc 1 205 0
 383 0020 38BD     		pop	{r3, r4, r5, pc}
 384              	.L26:
 385              		.loc 1 203 0
 386 0022 A36A     		ldr	r3, [r4, #40]
 387 0024 1D40     		ands	r5, r5, r3
 388              		.loc 1 202 0
 389 0026 AB42     		cmp	r3, r5
 390 0028 FAD1     		bne	.L18
 391              		.loc 1 204 0
 392 002a 2046     		mov	r0, r4
 393 002c FFF7FEFF 		bl	chSchReadyI
 394 0030 0023     		movs	r3, #0
 395 0032 8362     		str	r3, [r0, #40]
ARM GAS  C:\Users\z80\AppData\Local\Temp\cclkQXgD.s 			page 8


 396 0034 F4E7     		b	.L18
 397              	.L25:
 398              		.loc 1 201 0 discriminator 1
 399 0036 A36A     		ldr	r3, [r4, #40]
 400              		.loc 1 200 0 discriminator 1
 401 0038 1D42     		tst	r5, r3
 402 003a F1D0     		beq	.L18
 403              		.loc 1 204 0
 404 003c 2046     		mov	r0, r4
 405 003e FFF7FEFF 		bl	chSchReadyI
 406 0042 0023     		movs	r3, #0
 407 0044 8362     		str	r3, [r0, #40]
 408 0046 EBE7     		b	.L18
 409              	.LVL38:
 410              	.L24:
 411              		.loc 1 196 0 discriminator 1
 412 0048 0148     		ldr	r0, .L27
 413 004a FFF7FEFF 		bl	chDbgPanic
 414 004e DEE7     		b	.L19
 415              	.L28:
 416              		.align	2
 417              	.L27:
 418 0050 2C000000 		.word	.LC2
 419              		.cfi_endproc
 420              	.LFE12:
 421              		.size	chEvtSignalFlagsI, .-chEvtSignalFlagsI
 422 0054 AFF30080 		.section	.text.chEvtSignalFlags,"ax",%progbits
 422      AFF30080 
 422      AFF30080 
 423              		.align	2
 424              		.p2align 4,,15
 425              		.global	chEvtSignalFlags
 426              		.thumb
 427              		.thumb_func
 428              		.type	chEvtSignalFlags, %function
 429              	chEvtSignalFlags:
 430              	.LFB11:
 431              		.loc 1 171 0
 432              		.cfi_startproc
 433              		@ args = 0, pretend = 0, frame = 0
 434              		@ frame_needed = 0, uses_anonymous_args = 0
 435              	.LVL39:
 436 0000 38B5     		push	{r3, r4, r5, lr}
 437              	.LCFI5:
 438              		.cfi_def_cfa_offset 16
 439              		.loc 1 171 0
 440 0002 0446     		mov	r4, r0
 441              		.cfi_offset 14, -4
 442              		.cfi_offset 5, -8
 443              		.cfi_offset 4, -12
 444              		.cfi_offset 3, -16
 445 0004 0D46     		mov	r5, r1
 446              		.loc 1 173 0
 447 0006 80B1     		cbz	r0, .L31
 448              	.LVL40:
 449              	.L30:
 450              	.LBB11:
ARM GAS  C:\Users\z80\AppData\Local\Temp\cclkQXgD.s 			page 9


 451              		.loc 1 175 0
 452 0008 2023     		movs	r3, #32
 453              	.LVL41:
 454              	@ 175 "../chibios_2.4.x/os/kernel/src/chevents.c" 1
 455 000a 83F31188 		msr     BASEPRI, r3
 456              	@ 0 "" 2
 457              	.LVL42:
 458              		.thumb
 459              	.LBE11:
 460 000e FFF7FEFF 		bl	dbg_check_lock
 461              	.LVL43:
 462              		.loc 1 176 0
 463 0012 2046     		mov	r0, r4
 464 0014 2946     		mov	r1, r5
 465 0016 FFF7FEFF 		bl	chEvtSignalFlagsI
 466              		.loc 1 177 0
 467 001a FFF7FEFF 		bl	chSchRescheduleS
 468              		.loc 1 178 0
 469 001e FFF7FEFF 		bl	dbg_check_unlock
 470              	.LBB12:
 471 0022 0023     		movs	r3, #0
 472              	.LVL44:
 473              	@ 178 "../chibios_2.4.x/os/kernel/src/chevents.c" 1
 474 0024 83F31188 		msr     BASEPRI, r3
 475              	@ 0 "" 2
 476              	.LVL45:
 477              		.thumb
 478              	.LBE12:
 479              		.loc 1 179 0
 480 0028 38BD     		pop	{r3, r4, r5, pc}
 481              	.LVL46:
 482              	.L31:
 483              		.loc 1 173 0 discriminator 1
 484 002a 0248     		ldr	r0, .L32
 485 002c FFF7FEFF 		bl	chDbgPanic
 486 0030 EAE7     		b	.L30
 487              	.L33:
 488 0032 00BF     		.align	2
 489              	.L32:
 490 0034 40000000 		.word	.LC3
 491              		.cfi_endproc
 492              	.LFE11:
 493              		.size	chEvtSignalFlags, .-chEvtSignalFlags
 494 0038 AFF30080 		.section	.text.chEvtBroadcastFlagsI,"ax",%progbits
 494      AFF30080 
 495              		.align	2
 496              		.p2align 4,,15
 497              		.global	chEvtBroadcastFlagsI
 498              		.thumb
 499              		.thumb_func
 500              		.type	chEvtBroadcastFlagsI, %function
 501              	chEvtBroadcastFlagsI:
 502              	.LFB14:
 503              		.loc 1 245 0
 504              		.cfi_startproc
 505              		@ args = 0, pretend = 0, frame = 0
 506              		@ frame_needed = 0, uses_anonymous_args = 0
ARM GAS  C:\Users\z80\AppData\Local\Temp\cclkQXgD.s 			page 10


 507              	.LVL47:
 508 0000 70B5     		push	{r4, r5, r6, lr}
 509              	.LCFI6:
 510              		.cfi_def_cfa_offset 16
 511              		.loc 1 245 0
 512 0002 0546     		mov	r5, r0
 513              		.cfi_offset 14, -4
 514              		.cfi_offset 6, -8
 515              		.cfi_offset 5, -12
 516              		.cfi_offset 4, -16
 517 0004 0E46     		mov	r6, r1
 518              		.loc 1 248 0
 519 0006 FFF7FEFF 		bl	chDbgCheckClassI
 520              	.LVL48:
 521              		.loc 1 249 0
 522 000a 65B1     		cbz	r5, .L40
 523              	.L35:
 524              		.loc 1 251 0
 525 000c 2C68     		ldr	r4, [r5, #0]
 526              	.LVL49:
 527              		.loc 1 252 0
 528 000e AC42     		cmp	r4, r5
 529 0010 08D0     		beq	.L34
 530              	.LVL50:
 531              	.L38:
 532              		.loc 1 253 0
 533 0012 A168     		ldr	r1, [r4, #8]
 534 0014 6068     		ldr	r0, [r4, #4]
 535 0016 46EA0101 		orr	r1, r6, r1
 536 001a FFF7FEFF 		bl	chEvtSignalFlagsI
 537              		.loc 1 254 0
 538 001e 2468     		ldr	r4, [r4, #0]
 539              	.LVL51:
 540              		.loc 1 252 0
 541 0020 AC42     		cmp	r4, r5
 542 0022 F6D1     		bne	.L38
 543              	.L34:
 544              		.loc 1 256 0
 545 0024 70BD     		pop	{r4, r5, r6, pc}
 546              	.LVL52:
 547              	.L40:
 548              		.loc 1 249 0 discriminator 1
 549 0026 0248     		ldr	r0, .L41
 550 0028 FFF7FEFF 		bl	chDbgPanic
 551 002c EEE7     		b	.L35
 552              	.L42:
 553 002e 00BF     		.align	2
 554              	.L41:
 555 0030 50000000 		.word	.LC4
 556              		.cfi_endproc
 557              	.LFE14:
 558              		.size	chEvtBroadcastFlagsI, .-chEvtBroadcastFlagsI
 559 0034 AFF30080 		.section	.text.chEvtBroadcastFlags,"ax",%progbits
 559      AFF30080 
 559      AFF30080 
 560              		.align	2
 561              		.p2align 4,,15
ARM GAS  C:\Users\z80\AppData\Local\Temp\cclkQXgD.s 			page 11


 562              		.global	chEvtBroadcastFlags
 563              		.thumb
 564              		.thumb_func
 565              		.type	chEvtBroadcastFlags, %function
 566              	chEvtBroadcastFlags:
 567              	.LFB13:
 568              		.loc 1 220 0
 569              		.cfi_startproc
 570              		@ args = 0, pretend = 0, frame = 0
 571              		@ frame_needed = 0, uses_anonymous_args = 0
 572              	.LVL53:
 573 0000 38B5     		push	{r3, r4, r5, lr}
 574              	.LCFI7:
 575              		.cfi_def_cfa_offset 16
 576              		.loc 1 220 0
 577 0002 0546     		mov	r5, r0
 578              		.cfi_offset 14, -4
 579              		.cfi_offset 5, -8
 580              		.cfi_offset 4, -12
 581              		.cfi_offset 3, -16
 582 0004 0C46     		mov	r4, r1
 583              	.LBB13:
 584              		.loc 1 222 0
 585 0006 2023     		movs	r3, #32
 586              	.LVL54:
 587              	@ 222 "../chibios_2.4.x/os/kernel/src/chevents.c" 1
 588 0008 83F31188 		msr     BASEPRI, r3
 589              	@ 0 "" 2
 590              	.LVL55:
 591              		.thumb
 592              	.LBE13:
 593 000c FFF7FEFF 		bl	dbg_check_lock
 594              	.LVL56:
 595              		.loc 1 223 0
 596 0010 2846     		mov	r0, r5
 597 0012 2146     		mov	r1, r4
 598 0014 FFF7FEFF 		bl	chEvtBroadcastFlagsI
 599              		.loc 1 224 0
 600 0018 FFF7FEFF 		bl	chSchRescheduleS
 601              		.loc 1 225 0
 602 001c FFF7FEFF 		bl	dbg_check_unlock
 603              	.LBB14:
 604 0020 0023     		movs	r3, #0
 605              	.LVL57:
 606              	@ 225 "../chibios_2.4.x/os/kernel/src/chevents.c" 1
 607 0022 83F31188 		msr     BASEPRI, r3
 608              	@ 0 "" 2
 609              	.LVL58:
 610              		.thumb
 611              	.LBE14:
 612              		.loc 1 226 0
 613 0026 38BD     		pop	{r3, r4, r5, pc}
 614              		.cfi_endproc
 615              	.LFE13:
 616              		.size	chEvtBroadcastFlags, .-chEvtBroadcastFlags
 617 0028 AFF30080 		.section	.text.chEvtDispatch,"ax",%progbits
 617      AFF30080 
ARM GAS  C:\Users\z80\AppData\Local\Temp\cclkQXgD.s 			page 12


 618              		.align	2
 619              		.p2align 4,,15
 620              		.global	chEvtDispatch
 621              		.thumb
 622              		.thumb_func
 623              		.type	chEvtDispatch, %function
 624              	chEvtDispatch:
 625              	.LFB15:
 626              		.loc 1 267 0
 627              		.cfi_startproc
 628              		@ args = 0, pretend = 0, frame = 0
 629              		@ frame_needed = 0, uses_anonymous_args = 0
 630              	.LVL59:
 631 0000 2DE9F041 		push	{r4, r5, r6, r7, r8, lr}
 632              	.LCFI8:
 633              		.cfi_def_cfa_offset 24
 634              		.loc 1 267 0
 635 0004 0446     		mov	r4, r0
 636              		.cfi_offset 14, -4
 637              		.cfi_offset 8, -8
 638              		.cfi_offset 7, -12
 639              		.cfi_offset 6, -16
 640              		.cfi_offset 5, -20
 641              		.cfi_offset 4, -24
 642 0006 0E46     		mov	r6, r1
 643              		.loc 1 270 0
 644 0008 C8B1     		cbz	r0, .L50
 645              	.LVL60:
 646              	.L45:
 647              		.loc 1 273 0 discriminator 1
 648 000a 8EB1     		cbz	r6, .L44
 649              		.loc 1 273 0 is_stmt 0
 650 000c 0027     		movs	r7, #0
 651 000e 3D46     		mov	r5, r7
 652              		.loc 1 274 0 is_stmt 1
 653 0010 4FF00108 		mov	r8, #1
 654              	.LVL61:
 655              	.L49:
 656 0014 08FA05F3 		lsl	r3, r8, r5
 657 0018 3342     		tst	r3, r6
 658 001a 05D0     		beq	.L47
 659              		.loc 1 278 0
 660 001c 26EA0306 		bic	r6, r6, r3
 661              	.LVL62:
 662              		.loc 1 275 0
 663 0020 E359     		ldr	r3, [r4, r7]
 664 0022 3BB1     		cbz	r3, .L51
 665              	.L48:
 666              	.LVL63:
 667              		.loc 1 279 0
 668 0024 2846     		mov	r0, r5
 669 0026 9847     		blx	r3
 670              	.L47:
 671              	.LVL64:
 672 0028 0437     		adds	r7, r7, #4
 673              		.loc 1 273 0
 674 002a 0EB1     		cbz	r6, .L44
ARM GAS  C:\Users\z80\AppData\Local\Temp\cclkQXgD.s 			page 13


 675              		.loc 1 281 0
 676 002c 0135     		adds	r5, r5, #1
 677              	.LVL65:
 678 002e F1E7     		b	.L49
 679              	.LVL66:
 680              	.L44:
 681              		.loc 1 283 0
 682 0030 BDE8F081 		pop	{r4, r5, r6, r7, r8, pc}
 683              	.LVL67:
 684              	.L51:
 685              		.loc 1 275 0 discriminator 1
 686 0034 0448     		ldr	r0, .L52
 687 0036 FFF7FEFF 		bl	chDbgPanic
 688 003a E359     		ldr	r3, [r4, r7]
 689 003c F2E7     		b	.L48
 690              	.LVL68:
 691              	.L50:
 692              		.loc 1 270 0 discriminator 1
 693 003e 0348     		ldr	r0, .L52+4
 694 0040 FFF7FEFF 		bl	chDbgPanic
 695              	.LVL69:
 696 0044 E1E7     		b	.L45
 697              	.L53:
 698 0046 00BF     		.align	2
 699              	.L52:
 700 0048 7C000000 		.word	.LC6
 701 004c 68000000 		.word	.LC5
 702              		.cfi_endproc
 703              	.LFE15:
 704              		.size	chEvtDispatch, .-chEvtDispatch
 705              		.section	.text.chEvtWaitOne,"ax",%progbits
 706              		.align	2
 707              		.p2align 4,,15
 708              		.global	chEvtWaitOne
 709              		.thumb
 710              		.thumb_func
 711              		.type	chEvtWaitOne, %function
 712              	chEvtWaitOne:
 713              	.LFB16:
 714              		.loc 1 302 0
 715              		.cfi_startproc
 716              		@ args = 0, pretend = 0, frame = 0
 717              		@ frame_needed = 0, uses_anonymous_args = 0
 718              	.LVL70:
 719 0000 38B5     		push	{r3, r4, r5, lr}
 720              	.LCFI9:
 721              		.cfi_def_cfa_offset 16
 722              		.loc 1 303 0
 723 0002 0F4B     		ldr	r3, .L56
 724              		.cfi_offset 14, -4
 725              		.cfi_offset 5, -8
 726              		.cfi_offset 4, -12
 727              		.cfi_offset 3, -16
 728              		.loc 1 302 0
 729 0004 0546     		mov	r5, r0
 730              		.loc 1 303 0
 731 0006 DC69     		ldr	r4, [r3, #28]
ARM GAS  C:\Users\z80\AppData\Local\Temp\cclkQXgD.s 			page 14


 732              	.LVL71:
 733              	.LBB15:
 734              		.loc 1 306 0
 735 0008 2023     		movs	r3, #32
 736              	.LVL72:
 737              	@ 306 "../chibios_2.4.x/os/kernel/src/chevents.c" 1
 738 000a 83F31188 		msr     BASEPRI, r3
 739              	@ 0 "" 2
 740              	.LVL73:
 741              		.thumb
 742              	.LBE15:
 743 000e FFF7FEFF 		bl	dbg_check_lock
 744              	.LVL74:
 745              		.loc 1 308 0
 746 0012 E36B     		ldr	r3, [r4, #60]
 747              	.LVL75:
 748 0014 15EA0302 		ands	r2, r5, r3
 749 0018 06D1     		bne	.L55
 750              		.loc 1 309 0
 751 001a A562     		str	r5, [r4, #40]
 752              		.loc 1 310 0
 753 001c 0820     		movs	r0, #8
 754 001e FFF7FEFF 		bl	chSchGoSleepS
 755              	.LVL76:
 756              		.loc 1 311 0
 757 0022 E36B     		ldr	r3, [r4, #60]
 758 0024 05EA0302 		and	r2, r5, r3
 759              	.LVL77:
 760              	.L55:
 761              		.loc 1 313 0
 762 0028 5542     		negs	r5, r2
 763              	.LVL78:
 764 002a 1540     		ands	r5, r5, r2
 765              	.LVL79:
 766              		.loc 1 314 0
 767 002c 23EA0503 		bic	r3, r3, r5
 768 0030 E363     		str	r3, [r4, #60]
 769              		.loc 1 316 0
 770 0032 FFF7FEFF 		bl	dbg_check_unlock
 771              	.LBB16:
 772 0036 0023     		movs	r3, #0
 773              	.LVL80:
 774              	@ 316 "../chibios_2.4.x/os/kernel/src/chevents.c" 1
 775 0038 83F31188 		msr     BASEPRI, r3
 776              	@ 0 "" 2
 777              	.LVL81:
 778              		.thumb
 779              	.LBE16:
 780              		.loc 1 318 0
 781 003c 2846     		mov	r0, r5
 782 003e 38BD     		pop	{r3, r4, r5, pc}
 783              	.L57:
 784              		.align	2
 785              	.L56:
 786 0040 00000000 		.word	rlist
 787              		.cfi_endproc
 788              	.LFE16:
ARM GAS  C:\Users\z80\AppData\Local\Temp\cclkQXgD.s 			page 15


 789              		.size	chEvtWaitOne, .-chEvtWaitOne
 790 0044 AFF30080 		.section	.text.chEvtWaitAny,"ax",%progbits
 790      AFF30080 
 790      AFF30080 
 791              		.align	2
 792              		.p2align 4,,15
 793              		.global	chEvtWaitAny
 794              		.thumb
 795              		.thumb_func
 796              		.type	chEvtWaitAny, %function
 797              	chEvtWaitAny:
 798              	.LFB17:
 799              		.loc 1 331 0
 800              		.cfi_startproc
 801              		@ args = 0, pretend = 0, frame = 0
 802              		@ frame_needed = 0, uses_anonymous_args = 0
 803              	.LVL82:
 804              		.loc 1 332 0
 805 0000 0E4B     		ldr	r3, .L60
 806              		.loc 1 331 0
 807 0002 70B5     		push	{r4, r5, r6, lr}
 808              	.LCFI10:
 809              		.cfi_def_cfa_offset 16
 810              		.loc 1 332 0
 811 0004 DC69     		ldr	r4, [r3, #28]
 812              		.cfi_offset 14, -4
 813              		.cfi_offset 6, -8
 814              		.cfi_offset 5, -12
 815              		.cfi_offset 4, -16
 816              	.LVL83:
 817              		.loc 1 331 0
 818 0006 0546     		mov	r5, r0
 819              	.LBB17:
 820              		.loc 1 335 0
 821 0008 2023     		movs	r3, #32
 822              	.LVL84:
 823              	@ 335 "../chibios_2.4.x/os/kernel/src/chevents.c" 1
 824 000a 83F31188 		msr     BASEPRI, r3
 825              	@ 0 "" 2
 826              	.LVL85:
 827              		.thumb
 828              	.LBE17:
 829 000e FFF7FEFF 		bl	dbg_check_lock
 830              	.LVL86:
 831              		.loc 1 337 0
 832 0012 E36B     		ldr	r3, [r4, #60]
 833              	.LVL87:
 834 0014 15EA0306 		ands	r6, r5, r3
 835 0018 06D1     		bne	.L59
 836              		.loc 1 338 0
 837 001a A562     		str	r5, [r4, #40]
 838              		.loc 1 339 0
 839 001c 0820     		movs	r0, #8
 840 001e FFF7FEFF 		bl	chSchGoSleepS
 841              	.LVL88:
 842              		.loc 1 340 0
 843 0022 E36B     		ldr	r3, [r4, #60]
ARM GAS  C:\Users\z80\AppData\Local\Temp\cclkQXgD.s 			page 16


 844 0024 05EA0306 		and	r6, r5, r3
 845              	.LVL89:
 846              	.L59:
 847              		.loc 1 342 0
 848 0028 23EA0603 		bic	r3, r3, r6
 849 002c E363     		str	r3, [r4, #60]
 850              		.loc 1 344 0
 851 002e FFF7FEFF 		bl	dbg_check_unlock
 852              	.LBB18:
 853 0032 0023     		movs	r3, #0
 854              	.LVL90:
 855              	@ 344 "../chibios_2.4.x/os/kernel/src/chevents.c" 1
 856 0034 83F31188 		msr     BASEPRI, r3
 857              	@ 0 "" 2
 858              	.LVL91:
 859              		.thumb
 860              	.LBE18:
 861              		.loc 1 346 0
 862 0038 3046     		mov	r0, r6
 863 003a 70BD     		pop	{r4, r5, r6, pc}
 864              	.L61:
 865              		.align	2
 866              	.L60:
 867 003c 00000000 		.word	rlist
 868              		.cfi_endproc
 869              	.LFE17:
 870              		.size	chEvtWaitAny, .-chEvtWaitAny
 871              		.section	.text.chEvtWaitAll,"ax",%progbits
 872              		.align	2
 873              		.p2align 4,,15
 874              		.global	chEvtWaitAll
 875              		.thumb
 876              		.thumb_func
 877              		.type	chEvtWaitAll, %function
 878              	chEvtWaitAll:
 879              	.LFB18:
 880              		.loc 1 359 0
 881              		.cfi_startproc
 882              		@ args = 0, pretend = 0, frame = 0
 883              		@ frame_needed = 0, uses_anonymous_args = 0
 884              	.LVL92:
 885 0000 38B5     		push	{r3, r4, r5, lr}
 886              	.LCFI11:
 887              		.cfi_def_cfa_offset 16
 888              		.loc 1 360 0
 889 0002 0E4B     		ldr	r3, .L64
 890              		.cfi_offset 14, -4
 891              		.cfi_offset 5, -8
 892              		.cfi_offset 4, -12
 893              		.cfi_offset 3, -16
 894              		.loc 1 359 0
 895 0004 0446     		mov	r4, r0
 896              		.loc 1 360 0
 897 0006 DD69     		ldr	r5, [r3, #28]
 898              	.LVL93:
 899              	.LBB19:
 900              		.loc 1 362 0
ARM GAS  C:\Users\z80\AppData\Local\Temp\cclkQXgD.s 			page 17


 901 0008 2023     		movs	r3, #32
 902              	.LVL94:
 903              	@ 362 "../chibios_2.4.x/os/kernel/src/chevents.c" 1
 904 000a 83F31188 		msr     BASEPRI, r3
 905              	@ 0 "" 2
 906              	.LVL95:
 907              		.thumb
 908              	.LBE19:
 909 000e FFF7FEFF 		bl	dbg_check_lock
 910              	.LVL96:
 911              		.loc 1 364 0
 912 0012 EB6B     		ldr	r3, [r5, #60]
 913 0014 04EA0302 		and	r2, r4, r3
 914 0018 A242     		cmp	r2, r4
 915 001a 04D0     		beq	.L63
 916              		.loc 1 365 0
 917 001c AC62     		str	r4, [r5, #40]
 918              		.loc 1 366 0
 919 001e 0920     		movs	r0, #9
 920 0020 FFF7FEFF 		bl	chSchGoSleepS
 921 0024 EB6B     		ldr	r3, [r5, #60]
 922              	.L63:
 923              		.loc 1 368 0
 924 0026 23EA0403 		bic	r3, r3, r4
 925 002a EB63     		str	r3, [r5, #60]
 926              		.loc 1 370 0
 927 002c FFF7FEFF 		bl	dbg_check_unlock
 928              	.LBB20:
 929 0030 0023     		movs	r3, #0
 930              	.LVL97:
 931              	@ 370 "../chibios_2.4.x/os/kernel/src/chevents.c" 1
 932 0032 83F31188 		msr     BASEPRI, r3
 933              	@ 0 "" 2
 934              	.LVL98:
 935              		.thumb
 936              	.LBE20:
 937              		.loc 1 372 0
 938 0036 2046     		mov	r0, r4
 939 0038 38BD     		pop	{r3, r4, r5, pc}
 940              	.L65:
 941 003a 00BF     		.align	2
 942              	.L64:
 943 003c 00000000 		.word	rlist
 944              		.cfi_endproc
 945              	.LFE18:
 946              		.size	chEvtWaitAll, .-chEvtWaitAll
 947              		.section	.text.chEvtWaitOneTimeout,"ax",%progbits
 948              		.align	2
 949              		.p2align 4,,15
 950              		.global	chEvtWaitOneTimeout
 951              		.thumb
 952              		.thumb_func
 953              		.type	chEvtWaitOneTimeout, %function
 954              	chEvtWaitOneTimeout:
 955              	.LFB19:
 956              		.loc 1 398 0
 957              		.cfi_startproc
ARM GAS  C:\Users\z80\AppData\Local\Temp\cclkQXgD.s 			page 18


 958              		@ args = 0, pretend = 0, frame = 0
 959              		@ frame_needed = 0, uses_anonymous_args = 0
 960              	.LVL99:
 961 0000 F8B5     		push	{r3, r4, r5, r6, r7, lr}
 962              	.LCFI12:
 963              		.cfi_def_cfa_offset 24
 964              		.loc 1 399 0
 965 0002 184B     		ldr	r3, .L73
 966              		.cfi_offset 14, -4
 967              		.cfi_offset 7, -8
 968              		.cfi_offset 6, -12
 969              		.cfi_offset 5, -16
 970              		.cfi_offset 4, -20
 971              		.cfi_offset 3, -24
 972              		.loc 1 398 0
 973 0004 0546     		mov	r5, r0
 974              		.loc 1 399 0
 975 0006 DE69     		ldr	r6, [r3, #28]
 976              	.LVL100:
 977              		.loc 1 398 0
 978 0008 0F46     		mov	r7, r1
 979              	.LBB21:
 980              		.loc 1 402 0
 981 000a 2023     		movs	r3, #32
 982              	.LVL101:
 983              	@ 402 "../chibios_2.4.x/os/kernel/src/chevents.c" 1
 984 000c 83F31188 		msr     BASEPRI, r3
 985              	@ 0 "" 2
 986              	.LVL102:
 987              		.thumb
 988              	.LBE21:
 989 0010 FFF7FEFF 		bl	dbg_check_lock
 990              	.LVL103:
 991              		.loc 1 404 0
 992 0014 F36B     		ldr	r3, [r6, #60]
 993              	.LVL104:
 994 0016 15EA0304 		ands	r4, r5, r3
 995 001a 0AD1     		bne	.L67
 996              		.loc 1 405 0
 997 001c AFB1     		cbz	r7, .L71
 998              		.loc 1 410 0
 999 001e 0820     		movs	r0, #8
 1000              		.loc 1 409 0
 1001 0020 B562     		str	r5, [r6, #40]
 1002              		.loc 1 410 0
 1003 0022 3946     		mov	r1, r7
 1004 0024 FFF7FEFF 		bl	chSchGoSleepTimeoutS
 1005              	.LVL105:
 1006 0028 0028     		cmp	r0, #0
 1007 002a 14DB     		blt	.L72
 1008              		.loc 1 414 0
 1009 002c F36B     		ldr	r3, [r6, #60]
 1010 002e 05EA0304 		and	r4, r5, r3
 1011              	.LVL106:
 1012              	.L67:
 1013              		.loc 1 416 0
 1014 0032 6242     		negs	r2, r4
ARM GAS  C:\Users\z80\AppData\Local\Temp\cclkQXgD.s 			page 19


 1015 0034 1440     		ands	r4, r4, r2
 1016              	.LVL107:
 1017              		.loc 1 417 0
 1018 0036 23EA0403 		bic	r3, r3, r4
 1019 003a F363     		str	r3, [r6, #60]
 1020              		.loc 1 419 0
 1021 003c FFF7FEFF 		bl	dbg_check_unlock
 1022              	.LBB22:
 1023 0040 0023     		movs	r3, #0
 1024              	.LVL108:
 1025              	@ 419 "../chibios_2.4.x/os/kernel/src/chevents.c" 1
 1026 0042 83F31188 		msr     BASEPRI, r3
 1027              	@ 0 "" 2
 1028              	.LVL109:
 1029              		.thumb
 1030              	.L69:
 1031              	.LBE22:
 1032              		.loc 1 421 0
 1033 0046 2046     		mov	r0, r4
 1034 0048 F8BD     		pop	{r3, r4, r5, r6, r7, pc}
 1035              	.LVL110:
 1036              	.L71:
 1037              		.loc 1 406 0
 1038 004a FFF7FEFF 		bl	dbg_check_unlock
 1039              	.LBB23:
 1040 004e 2346     		mov	r3, r4
 1041              	@ 406 "../chibios_2.4.x/os/kernel/src/chevents.c" 1
 1042 0050 83F31188 		msr     BASEPRI, r3
 1043              	@ 0 "" 2
 1044              	.LVL111:
 1045              		.thumb
 1046              	.LBE23:
 1047              		.loc 1 407 0
 1048 0054 F7E7     		b	.L69
 1049              	.LVL112:
 1050              	.L72:
 1051              		.loc 1 411 0
 1052 0056 FFF7FEFF 		bl	dbg_check_unlock
 1053              	.LBB24:
 1054 005a 2346     		mov	r3, r4
 1055              	@ 411 "../chibios_2.4.x/os/kernel/src/chevents.c" 1
 1056 005c 83F31188 		msr     BASEPRI, r3
 1057              	@ 0 "" 2
 1058              	.LVL113:
 1059              		.thumb
 1060              	.LBE24:
 1061              		.loc 1 412 0
 1062 0060 F1E7     		b	.L69
 1063              	.L74:
 1064 0062 00BF     		.align	2
 1065              	.L73:
 1066 0064 00000000 		.word	rlist
 1067              		.cfi_endproc
 1068              	.LFE19:
 1069              		.size	chEvtWaitOneTimeout, .-chEvtWaitOneTimeout
 1070 0068 AFF30080 		.section	.text.chEvtWaitAnyTimeout,"ax",%progbits
 1070      AFF30080 
ARM GAS  C:\Users\z80\AppData\Local\Temp\cclkQXgD.s 			page 20


 1071              		.align	2
 1072              		.p2align 4,,15
 1073              		.global	chEvtWaitAnyTimeout
 1074              		.thumb
 1075              		.thumb_func
 1076              		.type	chEvtWaitAnyTimeout, %function
 1077              	chEvtWaitAnyTimeout:
 1078              	.LFB20:
 1079              		.loc 1 441 0
 1080              		.cfi_startproc
 1081              		@ args = 0, pretend = 0, frame = 0
 1082              		@ frame_needed = 0, uses_anonymous_args = 0
 1083              	.LVL114:
 1084 0000 F8B5     		push	{r3, r4, r5, r6, r7, lr}
 1085              	.LCFI13:
 1086              		.cfi_def_cfa_offset 24
 1087              		.loc 1 442 0
 1088 0002 174B     		ldr	r3, .L82
 1089              		.cfi_offset 14, -4
 1090              		.cfi_offset 7, -8
 1091              		.cfi_offset 6, -12
 1092              		.cfi_offset 5, -16
 1093              		.cfi_offset 4, -20
 1094              		.cfi_offset 3, -24
 1095              		.loc 1 441 0
 1096 0004 0446     		mov	r4, r0
 1097              		.loc 1 442 0
 1098 0006 DD69     		ldr	r5, [r3, #28]
 1099              	.LVL115:
 1100              		.loc 1 441 0
 1101 0008 0F46     		mov	r7, r1
 1102              	.LBB25:
 1103              		.loc 1 445 0
 1104 000a 2023     		movs	r3, #32
 1105              	.LVL116:
 1106              	@ 445 "../chibios_2.4.x/os/kernel/src/chevents.c" 1
 1107 000c 83F31188 		msr     BASEPRI, r3
 1108              	@ 0 "" 2
 1109              	.LVL117:
 1110              		.thumb
 1111              	.LBE25:
 1112 0010 FFF7FEFF 		bl	dbg_check_lock
 1113              	.LVL118:
 1114              		.loc 1 447 0
 1115 0014 EB6B     		ldr	r3, [r5, #60]
 1116              	.LVL119:
 1117 0016 14EA0306 		ands	r6, r4, r3
 1118 001a 0AD1     		bne	.L76
 1119              		.loc 1 448 0
 1120 001c 9FB1     		cbz	r7, .L80
 1121              		.loc 1 453 0
 1122 001e 0820     		movs	r0, #8
 1123              		.loc 1 452 0
 1124 0020 AC62     		str	r4, [r5, #40]
 1125              		.loc 1 453 0
 1126 0022 3946     		mov	r1, r7
 1127 0024 FFF7FEFF 		bl	chSchGoSleepTimeoutS
ARM GAS  C:\Users\z80\AppData\Local\Temp\cclkQXgD.s 			page 21


 1128              	.LVL120:
 1129 0028 0028     		cmp	r0, #0
 1130 002a 12DB     		blt	.L81
 1131              		.loc 1 457 0
 1132 002c EB6B     		ldr	r3, [r5, #60]
 1133 002e 04EA0306 		and	r6, r4, r3
 1134              	.LVL121:
 1135              	.L76:
 1136              		.loc 1 459 0
 1137 0032 23EA0603 		bic	r3, r3, r6
 1138 0036 EB63     		str	r3, [r5, #60]
 1139              		.loc 1 461 0
 1140 0038 FFF7FEFF 		bl	dbg_check_unlock
 1141              	.LBB26:
 1142 003c 0023     		movs	r3, #0
 1143              	.LVL122:
 1144              	@ 461 "../chibios_2.4.x/os/kernel/src/chevents.c" 1
 1145 003e 83F31188 		msr     BASEPRI, r3
 1146              	@ 0 "" 2
 1147              	.LVL123:
 1148              		.thumb
 1149              	.L78:
 1150              	.LBE26:
 1151              		.loc 1 463 0
 1152 0042 3046     		mov	r0, r6
 1153 0044 F8BD     		pop	{r3, r4, r5, r6, r7, pc}
 1154              	.LVL124:
 1155              	.L80:
 1156              		.loc 1 449 0
 1157 0046 FFF7FEFF 		bl	dbg_check_unlock
 1158              	.LBB27:
 1159 004a 3346     		mov	r3, r6
 1160              	@ 449 "../chibios_2.4.x/os/kernel/src/chevents.c" 1
 1161 004c 83F31188 		msr     BASEPRI, r3
 1162              	@ 0 "" 2
 1163              	.LVL125:
 1164              		.thumb
 1165              	.LBE27:
 1166              		.loc 1 450 0
 1167 0050 F7E7     		b	.L78
 1168              	.LVL126:
 1169              	.L81:
 1170              		.loc 1 454 0
 1171 0052 FFF7FEFF 		bl	dbg_check_unlock
 1172              	.LBB28:
 1173 0056 3346     		mov	r3, r6
 1174              	@ 454 "../chibios_2.4.x/os/kernel/src/chevents.c" 1
 1175 0058 83F31188 		msr     BASEPRI, r3
 1176              	@ 0 "" 2
 1177              	.LVL127:
 1178              		.thumb
 1179              	.LBE28:
 1180              		.loc 1 455 0
 1181 005c F1E7     		b	.L78
 1182              	.L83:
 1183 005e 00BF     		.align	2
 1184              	.L82:
ARM GAS  C:\Users\z80\AppData\Local\Temp\cclkQXgD.s 			page 22


 1185 0060 00000000 		.word	rlist
 1186              		.cfi_endproc
 1187              	.LFE20:
 1188              		.size	chEvtWaitAnyTimeout, .-chEvtWaitAnyTimeout
 1189 0064 AFF30080 		.section	.text.chEvtWaitAllTimeout,"ax",%progbits
 1189      AFF30080 
 1189      AFF30080 
 1190              		.align	2
 1191              		.p2align 4,,15
 1192              		.global	chEvtWaitAllTimeout
 1193              		.thumb
 1194              		.thumb_func
 1195              		.type	chEvtWaitAllTimeout, %function
 1196              	chEvtWaitAllTimeout:
 1197              	.LFB21:
 1198              		.loc 1 482 0
 1199              		.cfi_startproc
 1200              		@ args = 0, pretend = 0, frame = 0
 1201              		@ frame_needed = 0, uses_anonymous_args = 0
 1202              	.LVL128:
 1203              		.loc 1 483 0
 1204 0000 184B     		ldr	r3, .L91
 1205              		.loc 1 482 0
 1206 0002 70B5     		push	{r4, r5, r6, lr}
 1207              	.LCFI14:
 1208              		.cfi_def_cfa_offset 16
 1209              		.loc 1 483 0
 1210 0004 DD69     		ldr	r5, [r3, #28]
 1211              		.cfi_offset 14, -4
 1212              		.cfi_offset 6, -8
 1213              		.cfi_offset 5, -12
 1214              		.cfi_offset 4, -16
 1215              	.LVL129:
 1216              		.loc 1 482 0
 1217 0006 0446     		mov	r4, r0
 1218 0008 0E46     		mov	r6, r1
 1219              	.LBB29:
 1220              		.loc 1 485 0
 1221 000a 2023     		movs	r3, #32
 1222              	.LVL130:
 1223              	@ 485 "../chibios_2.4.x/os/kernel/src/chevents.c" 1
 1224 000c 83F31188 		msr     BASEPRI, r3
 1225              	@ 0 "" 2
 1226              	.LVL131:
 1227              		.thumb
 1228              	.LBE29:
 1229 0010 FFF7FEFF 		bl	dbg_check_lock
 1230              	.LVL132:
 1231              		.loc 1 487 0
 1232 0014 EB6B     		ldr	r3, [r5, #60]
 1233 0016 04EA0302 		and	r2, r4, r3
 1234 001a A242     		cmp	r2, r4
 1235 001c 09D0     		beq	.L85
 1236              		.loc 1 488 0
 1237 001e 96B1     		cbz	r6, .L89
 1238              		.loc 1 493 0
 1239 0020 0920     		movs	r0, #9
ARM GAS  C:\Users\z80\AppData\Local\Temp\cclkQXgD.s 			page 23


 1240              		.loc 1 492 0
 1241 0022 AC62     		str	r4, [r5, #40]
 1242              		.loc 1 493 0
 1243 0024 3146     		mov	r1, r6
 1244 0026 FFF7FEFF 		bl	chSchGoSleepTimeoutS
 1245 002a 0028     		cmp	r0, #0
 1246 002c A8BF     		it	ge
 1247 002e EB6B     		ldrge	r3, [r5, #60]
 1248 0030 10DB     		blt	.L90
 1249              	.L85:
 1250              		.loc 1 498 0
 1251 0032 23EA0403 		bic	r3, r3, r4
 1252 0036 EB63     		str	r3, [r5, #60]
 1253              		.loc 1 500 0
 1254 0038 FFF7FEFF 		bl	dbg_check_unlock
 1255              	.LBB30:
 1256 003c 0023     		movs	r3, #0
 1257              	.LVL133:
 1258              	@ 500 "../chibios_2.4.x/os/kernel/src/chevents.c" 1
 1259 003e 83F31188 		msr     BASEPRI, r3
 1260              	@ 0 "" 2
 1261              	.LVL134:
 1262              		.thumb
 1263              	.L87:
 1264              	.LBE30:
 1265              		.loc 1 502 0
 1266 0042 2046     		mov	r0, r4
 1267 0044 70BD     		pop	{r4, r5, r6, pc}
 1268              	.LVL135:
 1269              	.L89:
 1270              		.loc 1 489 0
 1271 0046 FFF7FEFF 		bl	dbg_check_unlock
 1272              	.LBB31:
 1273 004a 3346     		mov	r3, r6
 1274              	@ 489 "../chibios_2.4.x/os/kernel/src/chevents.c" 1
 1275 004c 83F31188 		msr     BASEPRI, r3
 1276              	@ 0 "" 2
 1277              	.LVL136:
 1278              		.thumb
 1279              	.LBE31:
 1280              		.loc 1 490 0
 1281 0050 3446     		mov	r4, r6
 1282              	.LVL137:
 1283 0052 F6E7     		b	.L87
 1284              	.LVL138:
 1285              	.L90:
 1286              		.loc 1 494 0
 1287 0054 FFF7FEFF 		bl	dbg_check_unlock
 1288              	.LBB32:
 1289 0058 0023     		movs	r3, #0
 1290              	@ 494 "../chibios_2.4.x/os/kernel/src/chevents.c" 1
 1291 005a 83F31188 		msr     BASEPRI, r3
 1292              	@ 0 "" 2
 1293              	.LVL139:
 1294              		.thumb
 1295              	.LBE32:
 1296              		.loc 1 495 0
ARM GAS  C:\Users\z80\AppData\Local\Temp\cclkQXgD.s 			page 24


 1297 005e 1C46     		mov	r4, r3
 1298              	.LVL140:
 1299 0060 EFE7     		b	.L87
 1300              	.L92:
 1301 0062 00BF     		.align	2
 1302              	.L91:
 1303 0064 00000000 		.word	rlist
 1304              		.cfi_endproc
 1305              	.LFE21:
 1306              		.size	chEvtWaitAllTimeout, .-chEvtWaitAllTimeout
 1307 0068 AFF30080 		.section	.rodata.str1.4,"aMS",%progbits,1
 1307      AFF30080 
 1308              		.align	2
 1309              	.LC0:
 1310 0000 22636845 		.ascii	"\"chEvtRegisterMask\"()\000"
 1310      76745265 
 1310      67697374 
 1310      65724D61 
 1310      736B2228 
 1311 0016 0000     		.space	2
 1312              	.LC1:
 1313 0018 22636845 		.ascii	"\"chEvtUnregister\"()\000"
 1313      7674556E 
 1313      72656769 
 1313      73746572 
 1313      22282900 
 1314              	.LC2:
 1315 002c 22636845 		.ascii	"\"chEvtSignalI\"()\000"
 1315      76745369 
 1315      676E616C 
 1315      49222829 
 1315      00
 1316 003d 000000   		.space	3
 1317              	.LC3:
 1318 0040 22636845 		.ascii	"\"chEvtSignal\"()\000"
 1318      76745369 
 1318      676E616C 
 1318      22282900 
 1319              	.LC4:
 1320 0050 22636845 		.ascii	"\"chEvtBroadcastMaskI\"()\000"
 1320      76744272 
 1320      6F616463 
 1320      6173744D 
 1320      61736B49 
 1321              	.LC5:
 1322 0068 22636845 		.ascii	"\"chEvtDispatch\"()\000"
 1322      76744469 
 1322      73706174 
 1322      63682228 
 1322      2900
 1323 007a 0000     		.space	2
 1324              	.LC6:
 1325 007c 63684576 		.ascii	"chEvtDispatch(), #1\000"
 1325      74446973 
 1325      70617463 
 1325      6828292C 
 1325      20233100 
ARM GAS  C:\Users\z80\AppData\Local\Temp\cclkQXgD.s 			page 25


 1326              		.text
 1327              	.Letext0:
 1328              		.section	.debug_loc,"",%progbits
 1329              	.Ldebug_loc0:
 1330              	.LLST0:
 1331 0000 00000000 		.4byte	.LFB7
 1332 0004 12000000 		.4byte	.LCFI0
 1333 0008 0200     		.2byte	0x2
 1334 000a 7D       		.byte	0x7d
 1335 000b 00       		.sleb128 0
 1336 000c 12000000 		.4byte	.LCFI0
 1337 0010 4C000000 		.4byte	.LFE7
 1338 0014 0200     		.2byte	0x2
 1339 0016 7D       		.byte	0x7d
 1340 0017 10       		.sleb128 16
 1341 0018 00000000 		.4byte	0x0
 1342 001c 00000000 		.4byte	0x0
 1343              	.LLST1:
 1344 0020 00000000 		.4byte	.LVL0
 1345 0024 1C000000 		.4byte	.LVL1
 1346 0028 0100     		.2byte	0x1
 1347 002a 50       		.byte	0x50
 1348 002b 1C000000 		.4byte	.LVL1
 1349 002f 4C000000 		.4byte	.LFE7
 1350 0033 0100     		.2byte	0x1
 1351 0035 54       		.byte	0x54
 1352 0036 00000000 		.4byte	0x0
 1353 003a 00000000 		.4byte	0x0
 1354              	.LLST2:
 1355 003e 00000000 		.4byte	.LVL0
 1356 0042 1F000000 		.4byte	.LVL2-1
 1357 0046 0100     		.2byte	0x1
 1358 0048 51       		.byte	0x51
 1359 0049 1F000000 		.4byte	.LVL2-1
 1360 004d 4C000000 		.4byte	.LFE7
 1361 0051 0100     		.2byte	0x1
 1362 0053 55       		.byte	0x55
 1363 0054 00000000 		.4byte	0x0
 1364 0058 00000000 		.4byte	0x0
 1365              	.LLST3:
 1366 005c 00000000 		.4byte	.LVL0
 1367 0060 1F000000 		.4byte	.LVL2-1
 1368 0064 0100     		.2byte	0x1
 1369 0066 52       		.byte	0x52
 1370 0067 1F000000 		.4byte	.LVL2-1
 1371 006b 4C000000 		.4byte	.LFE7
 1372 006f 0100     		.2byte	0x1
 1373 0071 56       		.byte	0x56
 1374 0072 00000000 		.4byte	0x0
 1375 0076 00000000 		.4byte	0x0
 1376              	.LLST4:
 1377 007a 26000000 		.4byte	.LVL4
 1378 007e 29000000 		.4byte	.LVL5-1
 1379 0082 0100     		.2byte	0x1
 1380 0084 53       		.byte	0x53
 1381 0085 00000000 		.4byte	0x0
 1382 0089 00000000 		.4byte	0x0
ARM GAS  C:\Users\z80\AppData\Local\Temp\cclkQXgD.s 			page 26


 1383              	.LLST5:
 1384 008d 42000000 		.4byte	.LVL7
 1385 0091 4C000000 		.4byte	.LFE7
 1386 0095 0100     		.2byte	0x1
 1387 0097 53       		.byte	0x53
 1388 0098 00000000 		.4byte	0x0
 1389 009c 00000000 		.4byte	0x0
 1390              	.LLST6:
 1391 00a0 00000000 		.4byte	.LFB8
 1392 00a4 02000000 		.4byte	.LCFI1
 1393 00a8 0200     		.2byte	0x2
 1394 00aa 7D       		.byte	0x7d
 1395 00ab 00       		.sleb128 0
 1396 00ac 02000000 		.4byte	.LCFI1
 1397 00b0 50000000 		.4byte	.LFE8
 1398 00b4 0200     		.2byte	0x2
 1399 00b6 7D       		.byte	0x7d
 1400 00b7 10       		.sleb128 16
 1401 00b8 00000000 		.4byte	0x0
 1402 00bc 00000000 		.4byte	0x0
 1403              	.LLST7:
 1404 00c0 00000000 		.4byte	.LVL8
 1405 00c4 18000000 		.4byte	.LVL9
 1406 00c8 0100     		.2byte	0x1
 1407 00ca 50       		.byte	0x50
 1408 00cb 18000000 		.4byte	.LVL9
 1409 00cf 50000000 		.4byte	.LFE8
 1410 00d3 0100     		.2byte	0x1
 1411 00d5 54       		.byte	0x54
 1412 00d6 00000000 		.4byte	0x0
 1413 00da 00000000 		.4byte	0x0
 1414              	.LLST8:
 1415 00de 00000000 		.4byte	.LVL8
 1416 00e2 18000000 		.4byte	.LVL9
 1417 00e6 0100     		.2byte	0x1
 1418 00e8 51       		.byte	0x51
 1419 00e9 18000000 		.4byte	.LVL9
 1420 00ed 50000000 		.4byte	.LFE8
 1421 00f1 0100     		.2byte	0x1
 1422 00f3 55       		.byte	0x55
 1423 00f4 00000000 		.4byte	0x0
 1424 00f8 00000000 		.4byte	0x0
 1425              	.LLST9:
 1426 00fc 18000000 		.4byte	.LVL9
 1427 0100 26000000 		.4byte	.LVL13
 1428 0104 0100     		.2byte	0x1
 1429 0106 54       		.byte	0x54
 1430 0107 26000000 		.4byte	.LVL13
 1431 010b 2C000000 		.4byte	.LVL14
 1432 010f 0100     		.2byte	0x1
 1433 0111 52       		.byte	0x52
 1434 0112 2C000000 		.4byte	.LVL14
 1435 0116 35000000 		.4byte	.LVL15-1
 1436 011a 0100     		.2byte	0x1
 1437 011c 52       		.byte	0x52
 1438 011d 3E000000 		.4byte	.LVL18
 1439 0121 44000000 		.4byte	.LVL19
ARM GAS  C:\Users\z80\AppData\Local\Temp\cclkQXgD.s 			page 27


 1440 0125 0100     		.2byte	0x1
 1441 0127 52       		.byte	0x52
 1442 0128 00000000 		.4byte	0x0
 1443 012c 00000000 		.4byte	0x0
 1444              	.LLST10:
 1445 0130 1E000000 		.4byte	.LVL11
 1446 0134 21000000 		.4byte	.LVL12-1
 1447 0138 0100     		.2byte	0x1
 1448 013a 53       		.byte	0x53
 1449 013b 00000000 		.4byte	0x0
 1450 013f 00000000 		.4byte	0x0
 1451              	.LLST11:
 1452 0143 3C000000 		.4byte	.LVL17
 1453 0147 3E000000 		.4byte	.LVL18
 1454 014b 0100     		.2byte	0x1
 1455 014d 53       		.byte	0x53
 1456 014e 00000000 		.4byte	0x0
 1457 0152 00000000 		.4byte	0x0
 1458              	.LLST12:
 1459 0156 00000000 		.4byte	.LFB9
 1460 015a 02000000 		.4byte	.LCFI2
 1461 015e 0200     		.2byte	0x2
 1462 0160 7D       		.byte	0x7d
 1463 0161 00       		.sleb128 0
 1464 0162 02000000 		.4byte	.LCFI2
 1465 0166 30000000 		.4byte	.LFE9
 1466 016a 0200     		.2byte	0x2
 1467 016c 7D       		.byte	0x7d
 1468 016d 10       		.sleb128 16
 1469 016e 00000000 		.4byte	0x0
 1470 0172 00000000 		.4byte	0x0
 1471              	.LLST13:
 1472 0176 00000000 		.4byte	.LVL20
 1473 017a 0D000000 		.4byte	.LVL23-1
 1474 017e 0100     		.2byte	0x1
 1475 0180 50       		.byte	0x50
 1476 0181 0D000000 		.4byte	.LVL23-1
 1477 0185 30000000 		.4byte	.LFE9
 1478 0189 0100     		.2byte	0x1
 1479 018b 55       		.byte	0x55
 1480 018c 00000000 		.4byte	0x0
 1481 0190 00000000 		.4byte	0x0
 1482              	.LLST14:
 1483 0194 0A000000 		.4byte	.LVL22
 1484 0198 0D000000 		.4byte	.LVL23-1
 1485 019c 0100     		.2byte	0x1
 1486 019e 53       		.byte	0x53
 1487 019f 00000000 		.4byte	0x0
 1488 01a3 00000000 		.4byte	0x0
 1489              	.LLST15:
 1490 01a7 2A000000 		.4byte	.LVL26
 1491 01ab 30000000 		.4byte	.LFE9
 1492 01af 0100     		.2byte	0x1
 1493 01b1 53       		.byte	0x53
 1494 01b2 00000000 		.4byte	0x0
 1495 01b6 00000000 		.4byte	0x0
 1496              	.LLST16:
ARM GAS  C:\Users\z80\AppData\Local\Temp\cclkQXgD.s 			page 28


 1497 01ba 00000000 		.4byte	.LFB10
 1498 01be 02000000 		.4byte	.LCFI3
 1499 01c2 0200     		.2byte	0x2
 1500 01c4 7D       		.byte	0x7d
 1501 01c5 00       		.sleb128 0
 1502 01c6 02000000 		.4byte	.LCFI3
 1503 01ca 2C000000 		.4byte	.LFE10
 1504 01ce 0200     		.2byte	0x2
 1505 01d0 7D       		.byte	0x7d
 1506 01d1 08       		.sleb128 8
 1507 01d2 00000000 		.4byte	0x0
 1508 01d6 00000000 		.4byte	0x0
 1509              	.LLST17:
 1510 01da 00000000 		.4byte	.LVL27
 1511 01de 0D000000 		.4byte	.LVL30-1
 1512 01e2 0100     		.2byte	0x1
 1513 01e4 50       		.byte	0x50
 1514 01e5 0D000000 		.4byte	.LVL30-1
 1515 01e9 1C000000 		.4byte	.LVL31
 1516 01ed 0100     		.2byte	0x1
 1517 01ef 54       		.byte	0x54
 1518 01f0 1E000000 		.4byte	.LVL32
 1519 01f4 2C000000 		.4byte	.LFE10
 1520 01f8 0100     		.2byte	0x1
 1521 01fa 54       		.byte	0x54
 1522 01fb 00000000 		.4byte	0x0
 1523 01ff 00000000 		.4byte	0x0
 1524              	.LLST18:
 1525 0203 0A000000 		.4byte	.LVL29
 1526 0207 0D000000 		.4byte	.LVL30-1
 1527 020b 0100     		.2byte	0x1
 1528 020d 53       		.byte	0x53
 1529 020e 00000000 		.4byte	0x0
 1530 0212 00000000 		.4byte	0x0
 1531              	.LLST19:
 1532 0216 28000000 		.4byte	.LVL34
 1533 021a 2C000000 		.4byte	.LFE10
 1534 021e 0100     		.2byte	0x1
 1535 0220 53       		.byte	0x53
 1536 0221 00000000 		.4byte	0x0
 1537 0225 00000000 		.4byte	0x0
 1538              	.LLST20:
 1539 0229 00000000 		.4byte	.LFB12
 1540 022d 02000000 		.4byte	.LCFI4
 1541 0231 0200     		.2byte	0x2
 1542 0233 7D       		.byte	0x7d
 1543 0234 00       		.sleb128 0
 1544 0235 02000000 		.4byte	.LCFI4
 1545 0239 54000000 		.4byte	.LFE12
 1546 023d 0200     		.2byte	0x2
 1547 023f 7D       		.byte	0x7d
 1548 0240 10       		.sleb128 16
 1549 0241 00000000 		.4byte	0x0
 1550 0245 00000000 		.4byte	0x0
 1551              	.LLST21:
 1552 0249 00000000 		.4byte	.LVL35
 1553 024d 09000000 		.4byte	.LVL36-1
ARM GAS  C:\Users\z80\AppData\Local\Temp\cclkQXgD.s 			page 29


 1554 0251 0100     		.2byte	0x1
 1555 0253 50       		.byte	0x50
 1556 0254 09000000 		.4byte	.LVL36-1
 1557 0258 54000000 		.4byte	.LFE12
 1558 025c 0100     		.2byte	0x1
 1559 025e 54       		.byte	0x54
 1560 025f 00000000 		.4byte	0x0
 1561 0263 00000000 		.4byte	0x0
 1562              	.LLST22:
 1563 0267 00000000 		.4byte	.LVL35
 1564 026b 09000000 		.4byte	.LVL36-1
 1565 026f 0100     		.2byte	0x1
 1566 0271 51       		.byte	0x51
 1567 0272 09000000 		.4byte	.LVL36-1
 1568 0276 16000000 		.4byte	.LVL37
 1569 027a 0100     		.2byte	0x1
 1570 027c 55       		.byte	0x55
 1571 027d 48000000 		.4byte	.LVL38
 1572 0281 54000000 		.4byte	.LFE12
 1573 0285 0100     		.2byte	0x1
 1574 0287 55       		.byte	0x55
 1575 0288 00000000 		.4byte	0x0
 1576 028c 00000000 		.4byte	0x0
 1577              	.LLST23:
 1578 0290 00000000 		.4byte	.LFB11
 1579 0294 02000000 		.4byte	.LCFI5
 1580 0298 0200     		.2byte	0x2
 1581 029a 7D       		.byte	0x7d
 1582 029b 00       		.sleb128 0
 1583 029c 02000000 		.4byte	.LCFI5
 1584 02a0 38000000 		.4byte	.LFE11
 1585 02a4 0200     		.2byte	0x2
 1586 02a6 7D       		.byte	0x7d
 1587 02a7 10       		.sleb128 16
 1588 02a8 00000000 		.4byte	0x0
 1589 02ac 00000000 		.4byte	0x0
 1590              	.LLST24:
 1591 02b0 00000000 		.4byte	.LVL39
 1592 02b4 08000000 		.4byte	.LVL40
 1593 02b8 0100     		.2byte	0x1
 1594 02ba 50       		.byte	0x50
 1595 02bb 08000000 		.4byte	.LVL40
 1596 02bf 38000000 		.4byte	.LFE11
 1597 02c3 0100     		.2byte	0x1
 1598 02c5 54       		.byte	0x54
 1599 02c6 00000000 		.4byte	0x0
 1600 02ca 00000000 		.4byte	0x0
 1601              	.LLST25:
 1602 02ce 00000000 		.4byte	.LVL39
 1603 02d2 08000000 		.4byte	.LVL40
 1604 02d6 0100     		.2byte	0x1
 1605 02d8 51       		.byte	0x51
 1606 02d9 08000000 		.4byte	.LVL40
 1607 02dd 38000000 		.4byte	.LFE11
 1608 02e1 0100     		.2byte	0x1
 1609 02e3 55       		.byte	0x55
 1610 02e4 00000000 		.4byte	0x0
ARM GAS  C:\Users\z80\AppData\Local\Temp\cclkQXgD.s 			page 30


 1611 02e8 00000000 		.4byte	0x0
 1612              	.LLST26:
 1613 02ec 0E000000 		.4byte	.LVL42
 1614 02f0 11000000 		.4byte	.LVL43-1
 1615 02f4 0100     		.2byte	0x1
 1616 02f6 53       		.byte	0x53
 1617 02f7 00000000 		.4byte	0x0
 1618 02fb 00000000 		.4byte	0x0
 1619              	.LLST27:
 1620 02ff 28000000 		.4byte	.LVL45
 1621 0303 2A000000 		.4byte	.LVL46
 1622 0307 0100     		.2byte	0x1
 1623 0309 53       		.byte	0x53
 1624 030a 00000000 		.4byte	0x0
 1625 030e 00000000 		.4byte	0x0
 1626              	.LLST28:
 1627 0312 00000000 		.4byte	.LFB14
 1628 0316 02000000 		.4byte	.LCFI6
 1629 031a 0200     		.2byte	0x2
 1630 031c 7D       		.byte	0x7d
 1631 031d 00       		.sleb128 0
 1632 031e 02000000 		.4byte	.LCFI6
 1633 0322 34000000 		.4byte	.LFE14
 1634 0326 0200     		.2byte	0x2
 1635 0328 7D       		.byte	0x7d
 1636 0329 10       		.sleb128 16
 1637 032a 00000000 		.4byte	0x0
 1638 032e 00000000 		.4byte	0x0
 1639              	.LLST29:
 1640 0332 00000000 		.4byte	.LVL47
 1641 0336 09000000 		.4byte	.LVL48-1
 1642 033a 0100     		.2byte	0x1
 1643 033c 50       		.byte	0x50
 1644 033d 09000000 		.4byte	.LVL48-1
 1645 0341 34000000 		.4byte	.LFE14
 1646 0345 0100     		.2byte	0x1
 1647 0347 55       		.byte	0x55
 1648 0348 00000000 		.4byte	0x0
 1649 034c 00000000 		.4byte	0x0
 1650              	.LLST30:
 1651 0350 00000000 		.4byte	.LVL47
 1652 0354 09000000 		.4byte	.LVL48-1
 1653 0358 0100     		.2byte	0x1
 1654 035a 51       		.byte	0x51
 1655 035b 09000000 		.4byte	.LVL48-1
 1656 035f 34000000 		.4byte	.LFE14
 1657 0363 0100     		.2byte	0x1
 1658 0365 56       		.byte	0x56
 1659 0366 00000000 		.4byte	0x0
 1660 036a 00000000 		.4byte	0x0
 1661              	.LLST31:
 1662 036e 0E000000 		.4byte	.LVL49
 1663 0372 12000000 		.4byte	.LVL50
 1664 0376 0200     		.2byte	0x2
 1665 0378 75       		.byte	0x75
 1666 0379 00       		.sleb128 0
 1667 037a 12000000 		.4byte	.LVL50
ARM GAS  C:\Users\z80\AppData\Local\Temp\cclkQXgD.s 			page 31


 1668 037e 20000000 		.4byte	.LVL51
 1669 0382 0100     		.2byte	0x1
 1670 0384 54       		.byte	0x54
 1671 0385 20000000 		.4byte	.LVL51
 1672 0389 26000000 		.4byte	.LVL52
 1673 038d 0100     		.2byte	0x1
 1674 038f 54       		.byte	0x54
 1675 0390 00000000 		.4byte	0x0
 1676 0394 00000000 		.4byte	0x0
 1677              	.LLST32:
 1678 0398 00000000 		.4byte	.LFB13
 1679 039c 02000000 		.4byte	.LCFI7
 1680 03a0 0200     		.2byte	0x2
 1681 03a2 7D       		.byte	0x7d
 1682 03a3 00       		.sleb128 0
 1683 03a4 02000000 		.4byte	.LCFI7
 1684 03a8 28000000 		.4byte	.LFE13
 1685 03ac 0200     		.2byte	0x2
 1686 03ae 7D       		.byte	0x7d
 1687 03af 10       		.sleb128 16
 1688 03b0 00000000 		.4byte	0x0
 1689 03b4 00000000 		.4byte	0x0
 1690              	.LLST33:
 1691 03b8 00000000 		.4byte	.LVL53
 1692 03bc 0F000000 		.4byte	.LVL56-1
 1693 03c0 0100     		.2byte	0x1
 1694 03c2 50       		.byte	0x50
 1695 03c3 0F000000 		.4byte	.LVL56-1
 1696 03c7 28000000 		.4byte	.LFE13
 1697 03cb 0100     		.2byte	0x1
 1698 03cd 55       		.byte	0x55
 1699 03ce 00000000 		.4byte	0x0
 1700 03d2 00000000 		.4byte	0x0
 1701              	.LLST34:
 1702 03d6 00000000 		.4byte	.LVL53
 1703 03da 0F000000 		.4byte	.LVL56-1
 1704 03de 0100     		.2byte	0x1
 1705 03e0 51       		.byte	0x51
 1706 03e1 0F000000 		.4byte	.LVL56-1
 1707 03e5 28000000 		.4byte	.LFE13
 1708 03e9 0100     		.2byte	0x1
 1709 03eb 54       		.byte	0x54
 1710 03ec 00000000 		.4byte	0x0
 1711 03f0 00000000 		.4byte	0x0
 1712              	.LLST35:
 1713 03f4 0C000000 		.4byte	.LVL55
 1714 03f8 0F000000 		.4byte	.LVL56-1
 1715 03fc 0100     		.2byte	0x1
 1716 03fe 53       		.byte	0x53
 1717 03ff 00000000 		.4byte	0x0
 1718 0403 00000000 		.4byte	0x0
 1719              	.LLST36:
 1720 0407 26000000 		.4byte	.LVL58
 1721 040b 28000000 		.4byte	.LFE13
 1722 040f 0100     		.2byte	0x1
 1723 0411 53       		.byte	0x53
 1724 0412 00000000 		.4byte	0x0
ARM GAS  C:\Users\z80\AppData\Local\Temp\cclkQXgD.s 			page 32


 1725 0416 00000000 		.4byte	0x0
 1726              	.LLST37:
 1727 041a 00000000 		.4byte	.LFB15
 1728 041e 04000000 		.4byte	.LCFI8
 1729 0422 0200     		.2byte	0x2
 1730 0424 7D       		.byte	0x7d
 1731 0425 00       		.sleb128 0
 1732 0426 04000000 		.4byte	.LCFI8
 1733 042a 50000000 		.4byte	.LFE15
 1734 042e 0200     		.2byte	0x2
 1735 0430 7D       		.byte	0x7d
 1736 0431 18       		.sleb128 24
 1737 0432 00000000 		.4byte	0x0
 1738 0436 00000000 		.4byte	0x0
 1739              	.LLST38:
 1740 043a 00000000 		.4byte	.LVL59
 1741 043e 0A000000 		.4byte	.LVL60
 1742 0442 0100     		.2byte	0x1
 1743 0444 50       		.byte	0x50
 1744 0445 0A000000 		.4byte	.LVL60
 1745 0449 50000000 		.4byte	.LFE15
 1746 044d 0100     		.2byte	0x1
 1747 044f 54       		.byte	0x54
 1748 0450 00000000 		.4byte	0x0
 1749 0454 00000000 		.4byte	0x0
 1750              	.LLST39:
 1751 0458 00000000 		.4byte	.LVL59
 1752 045c 0A000000 		.4byte	.LVL60
 1753 0460 0100     		.2byte	0x1
 1754 0462 51       		.byte	0x51
 1755 0463 0A000000 		.4byte	.LVL60
 1756 0467 20000000 		.4byte	.LVL62
 1757 046b 0100     		.2byte	0x1
 1758 046d 56       		.byte	0x56
 1759 046e 24000000 		.4byte	.LVL63
 1760 0472 34000000 		.4byte	.LVL67
 1761 0476 0100     		.2byte	0x1
 1762 0478 56       		.byte	0x56
 1763 0479 3E000000 		.4byte	.LVL68
 1764 047d 43000000 		.4byte	.LVL69-1
 1765 0481 0100     		.2byte	0x1
 1766 0483 51       		.byte	0x51
 1767 0484 43000000 		.4byte	.LVL69-1
 1768 0488 50000000 		.4byte	.LFE15
 1769 048c 0100     		.2byte	0x1
 1770 048e 56       		.byte	0x56
 1771 048f 00000000 		.4byte	0x0
 1772 0493 00000000 		.4byte	0x0
 1773              	.LLST40:
 1774 0497 0A000000 		.4byte	.LVL60
 1775 049b 14000000 		.4byte	.LVL61
 1776 049f 0200     		.2byte	0x2
 1777 04a1 30       		.byte	0x30
 1778 04a2 9F       		.byte	0x9f
 1779 04a3 28000000 		.4byte	.LVL64
 1780 04a7 2E000000 		.4byte	.LVL65
 1781 04ab 0300     		.2byte	0x3
ARM GAS  C:\Users\z80\AppData\Local\Temp\cclkQXgD.s 			page 33


 1782 04ad 75       		.byte	0x75
 1783 04ae 01       		.sleb128 1
 1784 04af 9F       		.byte	0x9f
 1785 04b0 2E000000 		.4byte	.LVL65
 1786 04b4 30000000 		.4byte	.LVL66
 1787 04b8 0100     		.2byte	0x1
 1788 04ba 55       		.byte	0x55
 1789 04bb 00000000 		.4byte	0x0
 1790 04bf 00000000 		.4byte	0x0
 1791              	.LLST41:
 1792 04c3 00000000 		.4byte	.LFB16
 1793 04c7 02000000 		.4byte	.LCFI9
 1794 04cb 0200     		.2byte	0x2
 1795 04cd 7D       		.byte	0x7d
 1796 04ce 00       		.sleb128 0
 1797 04cf 02000000 		.4byte	.LCFI9
 1798 04d3 44000000 		.4byte	.LFE16
 1799 04d7 0200     		.2byte	0x2
 1800 04d9 7D       		.byte	0x7d
 1801 04da 10       		.sleb128 16
 1802 04db 00000000 		.4byte	0x0
 1803 04df 00000000 		.4byte	0x0
 1804              	.LLST42:
 1805 04e3 00000000 		.4byte	.LVL70
 1806 04e7 11000000 		.4byte	.LVL74-1
 1807 04eb 0100     		.2byte	0x1
 1808 04ed 50       		.byte	0x50
 1809 04ee 11000000 		.4byte	.LVL74-1
 1810 04f2 2A000000 		.4byte	.LVL78
 1811 04f6 0100     		.2byte	0x1
 1812 04f8 55       		.byte	0x55
 1813 04f9 00000000 		.4byte	0x0
 1814 04fd 00000000 		.4byte	0x0
 1815              	.LLST43:
 1816 0501 08000000 		.4byte	.LVL71
 1817 0505 0A000000 		.4byte	.LVL72
 1818 0509 0200     		.2byte	0x2
 1819 050b 73       		.byte	0x73
 1820 050c 1C       		.sleb128 28
 1821 050d 11000000 		.4byte	.LVL74-1
 1822 0511 44000000 		.4byte	.LFE16
 1823 0515 0100     		.2byte	0x1
 1824 0517 54       		.byte	0x54
 1825 0518 00000000 		.4byte	0x0
 1826 051c 00000000 		.4byte	0x0
 1827              	.LLST44:
 1828 0520 14000000 		.4byte	.LVL75
 1829 0524 21000000 		.4byte	.LVL76-1
 1830 0528 0700     		.2byte	0x7
 1831 052a 75       		.byte	0x75
 1832 052b 00       		.sleb128 0
 1833 052c 74       		.byte	0x74
 1834 052d 3C       		.sleb128 60
 1835 052e 06       		.byte	0x6
 1836 052f 1A       		.byte	0x1a
 1837 0530 9F       		.byte	0x9f
 1838 0531 28000000 		.4byte	.LVL77
ARM GAS  C:\Users\z80\AppData\Local\Temp\cclkQXgD.s 			page 34


 1839 0535 2C000000 		.4byte	.LVL79
 1840 0539 0100     		.2byte	0x1
 1841 053b 52       		.byte	0x52
 1842 053c 2C000000 		.4byte	.LVL79
 1843 0540 44000000 		.4byte	.LFE16
 1844 0544 0100     		.2byte	0x1
 1845 0546 55       		.byte	0x55
 1846 0547 00000000 		.4byte	0x0
 1847 054b 00000000 		.4byte	0x0
 1848              	.LLST45:
 1849 054f 0E000000 		.4byte	.LVL73
 1850 0553 11000000 		.4byte	.LVL74-1
 1851 0557 0100     		.2byte	0x1
 1852 0559 53       		.byte	0x53
 1853 055a 00000000 		.4byte	0x0
 1854 055e 00000000 		.4byte	0x0
 1855              	.LLST46:
 1856 0562 3C000000 		.4byte	.LVL81
 1857 0566 44000000 		.4byte	.LFE16
 1858 056a 0100     		.2byte	0x1
 1859 056c 53       		.byte	0x53
 1860 056d 00000000 		.4byte	0x0
 1861 0571 00000000 		.4byte	0x0
 1862              	.LLST47:
 1863 0575 00000000 		.4byte	.LFB17
 1864 0579 04000000 		.4byte	.LCFI10
 1865 057d 0200     		.2byte	0x2
 1866 057f 7D       		.byte	0x7d
 1867 0580 00       		.sleb128 0
 1868 0581 04000000 		.4byte	.LCFI10
 1869 0585 40000000 		.4byte	.LFE17
 1870 0589 0200     		.2byte	0x2
 1871 058b 7D       		.byte	0x7d
 1872 058c 10       		.sleb128 16
 1873 058d 00000000 		.4byte	0x0
 1874 0591 00000000 		.4byte	0x0
 1875              	.LLST48:
 1876 0595 00000000 		.4byte	.LVL82
 1877 0599 11000000 		.4byte	.LVL86-1
 1878 059d 0100     		.2byte	0x1
 1879 059f 50       		.byte	0x50
 1880 05a0 11000000 		.4byte	.LVL86-1
 1881 05a4 40000000 		.4byte	.LFE17
 1882 05a8 0100     		.2byte	0x1
 1883 05aa 55       		.byte	0x55
 1884 05ab 00000000 		.4byte	0x0
 1885 05af 00000000 		.4byte	0x0
 1886              	.LLST49:
 1887 05b3 06000000 		.4byte	.LVL83
 1888 05b7 0A000000 		.4byte	.LVL84
 1889 05bb 0200     		.2byte	0x2
 1890 05bd 73       		.byte	0x73
 1891 05be 1C       		.sleb128 28
 1892 05bf 11000000 		.4byte	.LVL86-1
 1893 05c3 40000000 		.4byte	.LFE17
 1894 05c7 0100     		.2byte	0x1
 1895 05c9 54       		.byte	0x54
ARM GAS  C:\Users\z80\AppData\Local\Temp\cclkQXgD.s 			page 35


 1896 05ca 00000000 		.4byte	0x0
 1897 05ce 00000000 		.4byte	0x0
 1898              	.LLST50:
 1899 05d2 14000000 		.4byte	.LVL87
 1900 05d6 21000000 		.4byte	.LVL88-1
 1901 05da 0700     		.2byte	0x7
 1902 05dc 75       		.byte	0x75
 1903 05dd 00       		.sleb128 0
 1904 05de 74       		.byte	0x74
 1905 05df 3C       		.sleb128 60
 1906 05e0 06       		.byte	0x6
 1907 05e1 1A       		.byte	0x1a
 1908 05e2 9F       		.byte	0x9f
 1909 05e3 21000000 		.4byte	.LVL88-1
 1910 05e7 28000000 		.4byte	.LVL89
 1911 05eb 0100     		.2byte	0x1
 1912 05ed 56       		.byte	0x56
 1913 05ee 28000000 		.4byte	.LVL89
 1914 05f2 40000000 		.4byte	.LFE17
 1915 05f6 0100     		.2byte	0x1
 1916 05f8 56       		.byte	0x56
 1917 05f9 00000000 		.4byte	0x0
 1918 05fd 00000000 		.4byte	0x0
 1919              	.LLST51:
 1920 0601 0E000000 		.4byte	.LVL85
 1921 0605 11000000 		.4byte	.LVL86-1
 1922 0609 0100     		.2byte	0x1
 1923 060b 53       		.byte	0x53
 1924 060c 00000000 		.4byte	0x0
 1925 0610 00000000 		.4byte	0x0
 1926              	.LLST52:
 1927 0614 38000000 		.4byte	.LVL91
 1928 0618 40000000 		.4byte	.LFE17
 1929 061c 0100     		.2byte	0x1
 1930 061e 53       		.byte	0x53
 1931 061f 00000000 		.4byte	0x0
 1932 0623 00000000 		.4byte	0x0
 1933              	.LLST53:
 1934 0627 00000000 		.4byte	.LFB18
 1935 062b 02000000 		.4byte	.LCFI11
 1936 062f 0200     		.2byte	0x2
 1937 0631 7D       		.byte	0x7d
 1938 0632 00       		.sleb128 0
 1939 0633 02000000 		.4byte	.LCFI11
 1940 0637 40000000 		.4byte	.LFE18
 1941 063b 0200     		.2byte	0x2
 1942 063d 7D       		.byte	0x7d
 1943 063e 10       		.sleb128 16
 1944 063f 00000000 		.4byte	0x0
 1945 0643 00000000 		.4byte	0x0
 1946              	.LLST54:
 1947 0647 00000000 		.4byte	.LVL92
 1948 064b 11000000 		.4byte	.LVL96-1
 1949 064f 0100     		.2byte	0x1
 1950 0651 50       		.byte	0x50
 1951 0652 11000000 		.4byte	.LVL96-1
 1952 0656 40000000 		.4byte	.LFE18
ARM GAS  C:\Users\z80\AppData\Local\Temp\cclkQXgD.s 			page 36


 1953 065a 0100     		.2byte	0x1
 1954 065c 54       		.byte	0x54
 1955 065d 00000000 		.4byte	0x0
 1956 0661 00000000 		.4byte	0x0
 1957              	.LLST55:
 1958 0665 08000000 		.4byte	.LVL93
 1959 0669 0A000000 		.4byte	.LVL94
 1960 066d 0200     		.2byte	0x2
 1961 066f 73       		.byte	0x73
 1962 0670 1C       		.sleb128 28
 1963 0671 11000000 		.4byte	.LVL96-1
 1964 0675 40000000 		.4byte	.LFE18
 1965 0679 0100     		.2byte	0x1
 1966 067b 55       		.byte	0x55
 1967 067c 00000000 		.4byte	0x0
 1968 0680 00000000 		.4byte	0x0
 1969              	.LLST56:
 1970 0684 0E000000 		.4byte	.LVL95
 1971 0688 11000000 		.4byte	.LVL96-1
 1972 068c 0100     		.2byte	0x1
 1973 068e 53       		.byte	0x53
 1974 068f 00000000 		.4byte	0x0
 1975 0693 00000000 		.4byte	0x0
 1976              	.LLST57:
 1977 0697 36000000 		.4byte	.LVL98
 1978 069b 40000000 		.4byte	.LFE18
 1979 069f 0100     		.2byte	0x1
 1980 06a1 53       		.byte	0x53
 1981 06a2 00000000 		.4byte	0x0
 1982 06a6 00000000 		.4byte	0x0
 1983              	.LLST58:
 1984 06aa 00000000 		.4byte	.LFB19
 1985 06ae 02000000 		.4byte	.LCFI12
 1986 06b2 0200     		.2byte	0x2
 1987 06b4 7D       		.byte	0x7d
 1988 06b5 00       		.sleb128 0
 1989 06b6 02000000 		.4byte	.LCFI12
 1990 06ba 68000000 		.4byte	.LFE19
 1991 06be 0200     		.2byte	0x2
 1992 06c0 7D       		.byte	0x7d
 1993 06c1 18       		.sleb128 24
 1994 06c2 00000000 		.4byte	0x0
 1995 06c6 00000000 		.4byte	0x0
 1996              	.LLST59:
 1997 06ca 00000000 		.4byte	.LVL99
 1998 06ce 13000000 		.4byte	.LVL103-1
 1999 06d2 0100     		.2byte	0x1
 2000 06d4 50       		.byte	0x50
 2001 06d5 13000000 		.4byte	.LVL103-1
 2002 06d9 68000000 		.4byte	.LFE19
 2003 06dd 0100     		.2byte	0x1
 2004 06df 55       		.byte	0x55
 2005 06e0 00000000 		.4byte	0x0
 2006 06e4 00000000 		.4byte	0x0
 2007              	.LLST60:
 2008 06e8 00000000 		.4byte	.LVL99
 2009 06ec 13000000 		.4byte	.LVL103-1
ARM GAS  C:\Users\z80\AppData\Local\Temp\cclkQXgD.s 			page 37


 2010 06f0 0100     		.2byte	0x1
 2011 06f2 51       		.byte	0x51
 2012 06f3 13000000 		.4byte	.LVL103-1
 2013 06f7 68000000 		.4byte	.LFE19
 2014 06fb 0100     		.2byte	0x1
 2015 06fd 57       		.byte	0x57
 2016 06fe 00000000 		.4byte	0x0
 2017 0702 00000000 		.4byte	0x0
 2018              	.LLST61:
 2019 0706 08000000 		.4byte	.LVL100
 2020 070a 0C000000 		.4byte	.LVL101
 2021 070e 0200     		.2byte	0x2
 2022 0710 73       		.byte	0x73
 2023 0711 1C       		.sleb128 28
 2024 0712 13000000 		.4byte	.LVL103-1
 2025 0716 68000000 		.4byte	.LFE19
 2026 071a 0100     		.2byte	0x1
 2027 071c 56       		.byte	0x56
 2028 071d 00000000 		.4byte	0x0
 2029 0721 00000000 		.4byte	0x0
 2030              	.LLST62:
 2031 0725 16000000 		.4byte	.LVL104
 2032 0729 27000000 		.4byte	.LVL105-1
 2033 072d 0700     		.2byte	0x7
 2034 072f 75       		.byte	0x75
 2035 0730 00       		.sleb128 0
 2036 0731 76       		.byte	0x76
 2037 0732 3C       		.sleb128 60
 2038 0733 06       		.byte	0x6
 2039 0734 1A       		.byte	0x1a
 2040 0735 9F       		.byte	0x9f
 2041 0736 27000000 		.4byte	.LVL105-1
 2042 073a 32000000 		.4byte	.LVL106
 2043 073e 0100     		.2byte	0x1
 2044 0740 54       		.byte	0x54
 2045 0741 32000000 		.4byte	.LVL106
 2046 0745 36000000 		.4byte	.LVL107
 2047 0749 0100     		.2byte	0x1
 2048 074b 54       		.byte	0x54
 2049 074c 36000000 		.4byte	.LVL107
 2050 0750 68000000 		.4byte	.LFE19
 2051 0754 0100     		.2byte	0x1
 2052 0756 54       		.byte	0x54
 2053 0757 00000000 		.4byte	0x0
 2054 075b 00000000 		.4byte	0x0
 2055              	.LLST63:
 2056 075f 10000000 		.4byte	.LVL102
 2057 0763 13000000 		.4byte	.LVL103-1
 2058 0767 0100     		.2byte	0x1
 2059 0769 53       		.byte	0x53
 2060 076a 00000000 		.4byte	0x0
 2061 076e 00000000 		.4byte	0x0
 2062              	.LLST64:
 2063 0772 46000000 		.4byte	.LVL109
 2064 0776 4A000000 		.4byte	.LVL110
 2065 077a 0100     		.2byte	0x1
 2066 077c 53       		.byte	0x53
ARM GAS  C:\Users\z80\AppData\Local\Temp\cclkQXgD.s 			page 38


 2067 077d 00000000 		.4byte	0x0
 2068 0781 00000000 		.4byte	0x0
 2069              	.LLST65:
 2070 0785 46000000 		.4byte	.LVL109
 2071 0789 4A000000 		.4byte	.LVL110
 2072 078d 0100     		.2byte	0x1
 2073 078f 53       		.byte	0x53
 2074 0790 54000000 		.4byte	.LVL111
 2075 0794 56000000 		.4byte	.LVL112
 2076 0798 0100     		.2byte	0x1
 2077 079a 53       		.byte	0x53
 2078 079b 00000000 		.4byte	0x0
 2079 079f 00000000 		.4byte	0x0
 2080              	.LLST66:
 2081 07a3 46000000 		.4byte	.LVL109
 2082 07a7 4A000000 		.4byte	.LVL110
 2083 07ab 0100     		.2byte	0x1
 2084 07ad 53       		.byte	0x53
 2085 07ae 60000000 		.4byte	.LVL113
 2086 07b2 68000000 		.4byte	.LFE19
 2087 07b6 0100     		.2byte	0x1
 2088 07b8 53       		.byte	0x53
 2089 07b9 00000000 		.4byte	0x0
 2090 07bd 00000000 		.4byte	0x0
 2091              	.LLST67:
 2092 07c1 00000000 		.4byte	.LFB20
 2093 07c5 02000000 		.4byte	.LCFI13
 2094 07c9 0200     		.2byte	0x2
 2095 07cb 7D       		.byte	0x7d
 2096 07cc 00       		.sleb128 0
 2097 07cd 02000000 		.4byte	.LCFI13
 2098 07d1 64000000 		.4byte	.LFE20
 2099 07d5 0200     		.2byte	0x2
 2100 07d7 7D       		.byte	0x7d
 2101 07d8 18       		.sleb128 24
 2102 07d9 00000000 		.4byte	0x0
 2103 07dd 00000000 		.4byte	0x0
 2104              	.LLST68:
 2105 07e1 00000000 		.4byte	.LVL114
 2106 07e5 13000000 		.4byte	.LVL118-1
 2107 07e9 0100     		.2byte	0x1
 2108 07eb 50       		.byte	0x50
 2109 07ec 13000000 		.4byte	.LVL118-1
 2110 07f0 64000000 		.4byte	.LFE20
 2111 07f4 0100     		.2byte	0x1
 2112 07f6 54       		.byte	0x54
 2113 07f7 00000000 		.4byte	0x0
 2114 07fb 00000000 		.4byte	0x0
 2115              	.LLST69:
 2116 07ff 00000000 		.4byte	.LVL114
 2117 0803 13000000 		.4byte	.LVL118-1
 2118 0807 0100     		.2byte	0x1
 2119 0809 51       		.byte	0x51
 2120 080a 13000000 		.4byte	.LVL118-1
 2121 080e 64000000 		.4byte	.LFE20
 2122 0812 0100     		.2byte	0x1
 2123 0814 57       		.byte	0x57
ARM GAS  C:\Users\z80\AppData\Local\Temp\cclkQXgD.s 			page 39


 2124 0815 00000000 		.4byte	0x0
 2125 0819 00000000 		.4byte	0x0
 2126              	.LLST70:
 2127 081d 08000000 		.4byte	.LVL115
 2128 0821 0C000000 		.4byte	.LVL116
 2129 0825 0200     		.2byte	0x2
 2130 0827 73       		.byte	0x73
 2131 0828 1C       		.sleb128 28
 2132 0829 13000000 		.4byte	.LVL118-1
 2133 082d 64000000 		.4byte	.LFE20
 2134 0831 0100     		.2byte	0x1
 2135 0833 55       		.byte	0x55
 2136 0834 00000000 		.4byte	0x0
 2137 0838 00000000 		.4byte	0x0
 2138              	.LLST71:
 2139 083c 16000000 		.4byte	.LVL119
 2140 0840 27000000 		.4byte	.LVL120-1
 2141 0844 0700     		.2byte	0x7
 2142 0846 74       		.byte	0x74
 2143 0847 00       		.sleb128 0
 2144 0848 75       		.byte	0x75
 2145 0849 3C       		.sleb128 60
 2146 084a 06       		.byte	0x6
 2147 084b 1A       		.byte	0x1a
 2148 084c 9F       		.byte	0x9f
 2149 084d 27000000 		.4byte	.LVL120-1
 2150 0851 32000000 		.4byte	.LVL121
 2151 0855 0100     		.2byte	0x1
 2152 0857 56       		.byte	0x56
 2153 0858 32000000 		.4byte	.LVL121
 2154 085c 64000000 		.4byte	.LFE20
 2155 0860 0100     		.2byte	0x1
 2156 0862 56       		.byte	0x56
 2157 0863 00000000 		.4byte	0x0
 2158 0867 00000000 		.4byte	0x0
 2159              	.LLST72:
 2160 086b 10000000 		.4byte	.LVL117
 2161 086f 13000000 		.4byte	.LVL118-1
 2162 0873 0100     		.2byte	0x1
 2163 0875 53       		.byte	0x53
 2164 0876 00000000 		.4byte	0x0
 2165 087a 00000000 		.4byte	0x0
 2166              	.LLST73:
 2167 087e 42000000 		.4byte	.LVL123
 2168 0882 46000000 		.4byte	.LVL124
 2169 0886 0100     		.2byte	0x1
 2170 0888 53       		.byte	0x53
 2171 0889 00000000 		.4byte	0x0
 2172 088d 00000000 		.4byte	0x0
 2173              	.LLST74:
 2174 0891 42000000 		.4byte	.LVL123
 2175 0895 46000000 		.4byte	.LVL124
 2176 0899 0100     		.2byte	0x1
 2177 089b 53       		.byte	0x53
 2178 089c 50000000 		.4byte	.LVL125
 2179 08a0 52000000 		.4byte	.LVL126
 2180 08a4 0100     		.2byte	0x1
ARM GAS  C:\Users\z80\AppData\Local\Temp\cclkQXgD.s 			page 40


 2181 08a6 53       		.byte	0x53
 2182 08a7 00000000 		.4byte	0x0
 2183 08ab 00000000 		.4byte	0x0
 2184              	.LLST75:
 2185 08af 42000000 		.4byte	.LVL123
 2186 08b3 46000000 		.4byte	.LVL124
 2187 08b7 0100     		.2byte	0x1
 2188 08b9 53       		.byte	0x53
 2189 08ba 5C000000 		.4byte	.LVL127
 2190 08be 64000000 		.4byte	.LFE20
 2191 08c2 0100     		.2byte	0x1
 2192 08c4 53       		.byte	0x53
 2193 08c5 00000000 		.4byte	0x0
 2194 08c9 00000000 		.4byte	0x0
 2195              	.LLST76:
 2196 08cd 00000000 		.4byte	.LFB21
 2197 08d1 04000000 		.4byte	.LCFI14
 2198 08d5 0200     		.2byte	0x2
 2199 08d7 7D       		.byte	0x7d
 2200 08d8 00       		.sleb128 0
 2201 08d9 04000000 		.4byte	.LCFI14
 2202 08dd 68000000 		.4byte	.LFE21
 2203 08e1 0200     		.2byte	0x2
 2204 08e3 7D       		.byte	0x7d
 2205 08e4 10       		.sleb128 16
 2206 08e5 00000000 		.4byte	0x0
 2207 08e9 00000000 		.4byte	0x0
 2208              	.LLST77:
 2209 08ed 00000000 		.4byte	.LVL128
 2210 08f1 13000000 		.4byte	.LVL132-1
 2211 08f5 0100     		.2byte	0x1
 2212 08f7 50       		.byte	0x50
 2213 08f8 13000000 		.4byte	.LVL132-1
 2214 08fc 42000000 		.4byte	.LVL134
 2215 0900 0100     		.2byte	0x1
 2216 0902 54       		.byte	0x54
 2217 0903 46000000 		.4byte	.LVL135
 2218 0907 52000000 		.4byte	.LVL137
 2219 090b 0100     		.2byte	0x1
 2220 090d 54       		.byte	0x54
 2221 090e 54000000 		.4byte	.LVL138
 2222 0912 60000000 		.4byte	.LVL140
 2223 0916 0100     		.2byte	0x1
 2224 0918 54       		.byte	0x54
 2225 0919 00000000 		.4byte	0x0
 2226 091d 00000000 		.4byte	0x0
 2227              	.LLST78:
 2228 0921 00000000 		.4byte	.LVL128
 2229 0925 13000000 		.4byte	.LVL132-1
 2230 0929 0100     		.2byte	0x1
 2231 092b 51       		.byte	0x51
 2232 092c 13000000 		.4byte	.LVL132-1
 2233 0930 68000000 		.4byte	.LFE21
 2234 0934 0100     		.2byte	0x1
 2235 0936 56       		.byte	0x56
 2236 0937 00000000 		.4byte	0x0
 2237 093b 00000000 		.4byte	0x0
ARM GAS  C:\Users\z80\AppData\Local\Temp\cclkQXgD.s 			page 41


 2238              	.LLST79:
 2239 093f 06000000 		.4byte	.LVL129
 2240 0943 0C000000 		.4byte	.LVL130
 2241 0947 0200     		.2byte	0x2
 2242 0949 73       		.byte	0x73
 2243 094a 1C       		.sleb128 28
 2244 094b 13000000 		.4byte	.LVL132-1
 2245 094f 68000000 		.4byte	.LFE21
 2246 0953 0100     		.2byte	0x1
 2247 0955 55       		.byte	0x55
 2248 0956 00000000 		.4byte	0x0
 2249 095a 00000000 		.4byte	0x0
 2250              	.LLST80:
 2251 095e 10000000 		.4byte	.LVL131
 2252 0962 13000000 		.4byte	.LVL132-1
 2253 0966 0100     		.2byte	0x1
 2254 0968 53       		.byte	0x53
 2255 0969 00000000 		.4byte	0x0
 2256 096d 00000000 		.4byte	0x0
 2257              	.LLST81:
 2258 0971 42000000 		.4byte	.LVL134
 2259 0975 46000000 		.4byte	.LVL135
 2260 0979 0100     		.2byte	0x1
 2261 097b 53       		.byte	0x53
 2262 097c 00000000 		.4byte	0x0
 2263 0980 00000000 		.4byte	0x0
 2264              	.LLST82:
 2265 0984 42000000 		.4byte	.LVL134
 2266 0988 46000000 		.4byte	.LVL135
 2267 098c 0100     		.2byte	0x1
 2268 098e 56       		.byte	0x56
 2269 098f 50000000 		.4byte	.LVL136
 2270 0993 54000000 		.4byte	.LVL138
 2271 0997 0100     		.2byte	0x1
 2272 0999 53       		.byte	0x53
 2273 099a 00000000 		.4byte	0x0
 2274 099e 00000000 		.4byte	0x0
 2275              	.LLST83:
 2276 09a2 42000000 		.4byte	.LVL134
 2277 09a6 46000000 		.4byte	.LVL135
 2278 09aa 0100     		.2byte	0x1
 2279 09ac 53       		.byte	0x53
 2280 09ad 5E000000 		.4byte	.LVL139
 2281 09b1 68000000 		.4byte	.LFE21
 2282 09b5 0100     		.2byte	0x1
 2283 09b7 53       		.byte	0x53
 2284 09b8 00000000 		.4byte	0x0
 2285 09bc 00000000 		.4byte	0x0
 2286              		.file 2 "c:/programs/yagarto/lib/gcc/../../arm-none-eabi/sys-include/stdint.h"
 2287              		.file 3 "../chibios_2.4.x/os/ports/GCC/ARMCMx/chtypes.h"
 2288              		.file 4 "../chibios_2.4.x/os/kernel/include/chlists.h"
 2289              		.file 5 "../chibios_2.4.x/os/kernel/include/chthreads.h"
 2290              		.file 6 "../chibios_2.4.x/os/ports/GCC/ARMCMx/chcore_v7m.h"
 2291              		.file 7 "../chibios_2.4.x/os/kernel/include/chschd.h"
 2292              		.file 8 "../chibios_2.4.x/os/kernel/include/chmtx.h"
 2293              		.file 9 "../chibios_2.4.x/os/kernel/include/chevents.h"
 2294              		.section	.debug_info
ARM GAS  C:\Users\z80\AppData\Local\Temp\cclkQXgD.s 			page 42


 2295 0000 470C0000 		.4byte	0xc47
 2296 0004 0200     		.2byte	0x2
 2297 0006 00000000 		.4byte	.Ldebug_abbrev0
 2298 000a 04       		.byte	0x4
 2299 000b 01       		.uleb128 0x1
 2300 000c C5030000 		.4byte	.LASF88
 2301 0010 01       		.byte	0x1
 2302 0011 E8010000 		.4byte	.LASF89
 2303 0015 3B020000 		.4byte	.LASF90
 2304 0019 00000000 		.4byte	0x0
 2305 001d 00000000 		.4byte	0x0
 2306 0021 18000000 		.4byte	.Ldebug_ranges0+0x18
 2307 0025 00000000 		.4byte	.Ldebug_line0
 2308 0029 02       		.uleb128 0x2
 2309 002a 04       		.byte	0x4
 2310 002b 05       		.byte	0x5
 2311 002c 696E7400 		.ascii	"int\000"
 2312 0030 03       		.uleb128 0x3
 2313 0031 04       		.byte	0x4
 2314 0032 07       		.byte	0x7
 2315 0033 4D010000 		.4byte	.LASF0
 2316 0037 03       		.uleb128 0x3
 2317 0038 01       		.byte	0x1
 2318 0039 06       		.byte	0x6
 2319 003a 71000000 		.4byte	.LASF1
 2320 003e 04       		.uleb128 0x4
 2321 003f AF030000 		.4byte	.LASF5
 2322 0043 02       		.byte	0x2
 2323 0044 2A       		.byte	0x2a
 2324 0045 49000000 		.4byte	0x49
 2325 0049 03       		.uleb128 0x3
 2326 004a 01       		.byte	0x1
 2327 004b 08       		.byte	0x8
 2328 004c C6020000 		.4byte	.LASF2
 2329 0050 03       		.uleb128 0x3
 2330 0051 02       		.byte	0x2
 2331 0052 05       		.byte	0x5
 2332 0053 F7020000 		.4byte	.LASF3
 2333 0057 03       		.uleb128 0x3
 2334 0058 02       		.byte	0x2
 2335 0059 07       		.byte	0x7
 2336 005a 74010000 		.4byte	.LASF4
 2337 005e 04       		.uleb128 0x4
 2338 005f BE020000 		.4byte	.LASF6
 2339 0063 02       		.byte	0x2
 2340 0064 4F       		.byte	0x4f
 2341 0065 69000000 		.4byte	0x69
 2342 0069 03       		.uleb128 0x3
 2343 006a 04       		.byte	0x4
 2344 006b 05       		.byte	0x5
 2345 006c A7000000 		.4byte	.LASF7
 2346 0070 04       		.uleb128 0x4
 2347 0071 38030000 		.4byte	.LASF8
 2348 0075 02       		.byte	0x2
 2349 0076 50       		.byte	0x50
 2350 0077 7B000000 		.4byte	0x7b
 2351 007b 03       		.uleb128 0x3
ARM GAS  C:\Users\z80\AppData\Local\Temp\cclkQXgD.s 			page 43


 2352 007c 04       		.byte	0x4
 2353 007d 07       		.byte	0x7
 2354 007e 5A010000 		.4byte	.LASF9
 2355 0082 03       		.uleb128 0x3
 2356 0083 08       		.byte	0x8
 2357 0084 05       		.byte	0x5
 2358 0085 63000000 		.4byte	.LASF10
 2359 0089 04       		.uleb128 0x4
 2360 008a 0D000000 		.4byte	.LASF11
 2361 008e 02       		.byte	0x2
 2362 008f 78       		.byte	0x78
 2363 0090 94000000 		.4byte	0x94
 2364 0094 03       		.uleb128 0x3
 2365 0095 08       		.byte	0x8
 2366 0096 07       		.byte	0x7
 2367 0097 16000000 		.4byte	.LASF12
 2368 009b 04       		.uleb128 0x4
 2369 009c B7010000 		.4byte	.LASF13
 2370 00a0 03       		.byte	0x3
 2371 00a1 2F       		.byte	0x2f
 2372 00a2 3E000000 		.4byte	0x3e
 2373 00a6 04       		.uleb128 0x4
 2374 00a7 B0000000 		.4byte	.LASF14
 2375 00ab 03       		.byte	0x3
 2376 00ac 30       		.byte	0x30
 2377 00ad 3E000000 		.4byte	0x3e
 2378 00b1 04       		.uleb128 0x4
 2379 00b2 A6020000 		.4byte	.LASF15
 2380 00b6 03       		.byte	0x3
 2381 00b7 32       		.byte	0x32
 2382 00b8 70000000 		.4byte	0x70
 2383 00bc 04       		.uleb128 0x4
 2384 00bd 99010000 		.4byte	.LASF16
 2385 00c1 03       		.byte	0x3
 2386 00c2 33       		.byte	0x33
 2387 00c3 5E000000 		.4byte	0x5e
 2388 00c7 04       		.uleb128 0x4
 2389 00c8 1A010000 		.4byte	.LASF17
 2390 00cc 03       		.byte	0x3
 2391 00cd 34       		.byte	0x34
 2392 00ce 5E000000 		.4byte	0x5e
 2393 00d2 04       		.uleb128 0x4
 2394 00d3 CB010000 		.4byte	.LASF18
 2395 00d7 03       		.byte	0x3
 2396 00d8 35       		.byte	0x35
 2397 00d9 70000000 		.4byte	0x70
 2398 00dd 04       		.uleb128 0x4
 2399 00de 55030000 		.4byte	.LASF19
 2400 00e2 03       		.byte	0x3
 2401 00e3 36       		.byte	0x36
 2402 00e4 70000000 		.4byte	0x70
 2403 00e8 04       		.uleb128 0x4
 2404 00e9 3C010000 		.4byte	.LASF20
 2405 00ed 03       		.byte	0x3
 2406 00ee 37       		.byte	0x37
 2407 00ef 5E000000 		.4byte	0x5e
 2408 00f3 04       		.uleb128 0x4
ARM GAS  C:\Users\z80\AppData\Local\Temp\cclkQXgD.s 			page 44


 2409 00f4 26030000 		.4byte	.LASF21
 2410 00f8 04       		.byte	0x4
 2411 00f9 2A       		.byte	0x2a
 2412 00fa FE000000 		.4byte	0xfe
 2413 00fe 05       		.uleb128 0x5
 2414 00ff 26030000 		.4byte	.LASF21
 2415 0103 48       		.byte	0x48
 2416 0104 05       		.byte	0x5
 2417 0105 5E       		.byte	0x5e
 2418 0106 07020000 		.4byte	0x207
 2419 010a 06       		.uleb128 0x6
 2420 010b 17030000 		.4byte	.LASF22
 2421 010f 05       		.byte	0x5
 2422 0110 5F       		.byte	0x5f
 2423 0111 2C020000 		.4byte	0x22c
 2424 0115 02       		.byte	0x2
 2425 0116 23       		.byte	0x23
 2426 0117 00       		.uleb128 0x0
 2427 0118 06       		.uleb128 0x6
 2428 0119 9F020000 		.4byte	.LASF23
 2429 011d 05       		.byte	0x5
 2430 011e 61       		.byte	0x61
 2431 011f 2C020000 		.4byte	0x22c
 2432 0123 02       		.byte	0x2
 2433 0124 23       		.byte	0x23
 2434 0125 04       		.uleb128 0x4
 2435 0126 06       		.uleb128 0x6
 2436 0127 5C000000 		.4byte	.LASF24
 2437 012b 05       		.byte	0x5
 2438 012c 63       		.byte	0x63
 2439 012d B1000000 		.4byte	0xb1
 2440 0131 02       		.byte	0x2
 2441 0132 23       		.byte	0x23
 2442 0133 08       		.uleb128 0x8
 2443 0134 06       		.uleb128 0x6
 2444 0135 F1030000 		.4byte	.LASF25
 2445 0139 05       		.byte	0x5
 2446 013a 64       		.byte	0x64
 2447 013b 04030000 		.4byte	0x304
 2448 013f 02       		.byte	0x2
 2449 0140 23       		.byte	0x23
 2450 0141 0C       		.uleb128 0xc
 2451 0142 06       		.uleb128 0x6
 2452 0143 E8000000 		.4byte	.LASF26
 2453 0147 05       		.byte	0x5
 2454 0148 66       		.byte	0x66
 2455 0149 2C020000 		.4byte	0x22c
 2456 014d 02       		.byte	0x2
 2457 014e 23       		.byte	0x23
 2458 014f 10       		.uleb128 0x10
 2459 0150 06       		.uleb128 0x6
 2460 0151 20020000 		.4byte	.LASF27
 2461 0155 05       		.byte	0x5
 2462 0156 67       		.byte	0x67
 2463 0157 2C020000 		.4byte	0x22c
 2464 015b 02       		.byte	0x2
 2465 015c 23       		.byte	0x23
ARM GAS  C:\Users\z80\AppData\Local\Temp\cclkQXgD.s 			page 45


 2466 015d 14       		.uleb128 0x14
 2467 015e 06       		.uleb128 0x6
 2468 015f D8030000 		.4byte	.LASF28
 2469 0163 05       		.byte	0x5
 2470 0164 6E       		.byte	0x6e
 2471 0165 AD040000 		.4byte	0x4ad
 2472 0169 02       		.byte	0x2
 2473 016a 23       		.byte	0x23
 2474 016b 18       		.uleb128 0x18
 2475 016c 06       		.uleb128 0x6
 2476 016d 42010000 		.4byte	.LASF29
 2477 0171 05       		.byte	0x5
 2478 0172 74       		.byte	0x74
 2479 0173 BF040000 		.4byte	0x4bf
 2480 0177 02       		.byte	0x2
 2481 0178 23       		.byte	0x23
 2482 0179 1C       		.uleb128 0x1c
 2483 017a 06       		.uleb128 0x6
 2484 017b 01030000 		.4byte	.LASF30
 2485 017f 05       		.byte	0x5
 2486 0180 79       		.byte	0x79
 2487 0181 A6000000 		.4byte	0xa6
 2488 0185 02       		.byte	0x2
 2489 0186 23       		.byte	0x23
 2490 0187 20       		.uleb128 0x20
 2491 0188 06       		.uleb128 0x6
 2492 0189 1E030000 		.4byte	.LASF31
 2493 018d 05       		.byte	0x5
 2494 018e 7D       		.byte	0x7d
 2495 018f 9B000000 		.4byte	0x9b
 2496 0193 02       		.byte	0x2
 2497 0194 23       		.byte	0x23
 2498 0195 21       		.uleb128 0x21
 2499 0196 06       		.uleb128 0x6
 2500 0197 6A030000 		.4byte	.LASF32
 2501 019b 05       		.byte	0x5
 2502 019c 89       		.byte	0x89
 2503 019d 2A030000 		.4byte	0x32a
 2504 01a1 02       		.byte	0x2
 2505 01a2 23       		.byte	0x23
 2506 01a3 24       		.uleb128 0x24
 2507 01a4 07       		.uleb128 0x7
 2508 01a5 705F7500 		.ascii	"p_u\000"
 2509 01a9 05       		.byte	0x5
 2510 01aa AE       		.byte	0xae
 2511 01ab 78040000 		.4byte	0x478
 2512 01af 02       		.byte	0x2
 2513 01b0 23       		.byte	0x23
 2514 01b1 28       		.uleb128 0x28
 2515 01b2 06       		.uleb128 0x6
 2516 01b3 F7030000 		.4byte	.LASF33
 2517 01b7 05       		.byte	0x5
 2518 01b8 B3       		.byte	0xb3
 2519 01b9 54020000 		.4byte	0x254
 2520 01bd 02       		.byte	0x2
 2521 01be 23       		.byte	0x23
 2522 01bf 2C       		.uleb128 0x2c
ARM GAS  C:\Users\z80\AppData\Local\Temp\cclkQXgD.s 			page 46


 2523 01c0 06       		.uleb128 0x6
 2524 01c1 8C030000 		.4byte	.LASF34
 2525 01c5 05       		.byte	0x5
 2526 01c6 B9       		.byte	0xb9
 2527 01c7 32020000 		.4byte	0x232
 2528 01cb 02       		.byte	0x2
 2529 01cc 23       		.byte	0x23
 2530 01cd 30       		.uleb128 0x30
 2531 01ce 06       		.uleb128 0x6
 2532 01cf 00000000 		.4byte	.LASF35
 2533 01d3 05       		.byte	0x5
 2534 01d4 BD       		.byte	0xbd
 2535 01d5 BC000000 		.4byte	0xbc
 2536 01d9 02       		.byte	0x2
 2537 01da 23       		.byte	0x23
 2538 01db 38       		.uleb128 0x38
 2539 01dc 06       		.uleb128 0x6
 2540 01dd 2D030000 		.4byte	.LASF36
 2541 01e1 05       		.byte	0x5
 2542 01e2 C3       		.byte	0xc3
 2543 01e3 D2000000 		.4byte	0xd2
 2544 01e7 02       		.byte	0x2
 2545 01e8 23       		.byte	0x23
 2546 01e9 3C       		.uleb128 0x3c
 2547 01ea 06       		.uleb128 0x6
 2548 01eb ED020000 		.4byte	.LASF37
 2549 01ef 05       		.byte	0x5
 2550 01f0 CA       		.byte	0xca
 2551 01f1 C5040000 		.4byte	0x4c5
 2552 01f5 02       		.byte	0x2
 2553 01f6 23       		.byte	0x23
 2554 01f7 40       		.uleb128 0x40
 2555 01f8 06       		.uleb128 0x6
 2556 01f9 5F030000 		.4byte	.LASF38
 2557 01fd 05       		.byte	0x5
 2558 01fe CE       		.byte	0xce
 2559 01ff B1000000 		.4byte	0xb1
 2560 0203 02       		.byte	0x2
 2561 0204 23       		.byte	0x23
 2562 0205 44       		.uleb128 0x44
 2563 0206 00       		.byte	0x0
 2564 0207 08       		.uleb128 0x8
 2565 0208 08       		.byte	0x8
 2566 0209 04       		.byte	0x4
 2567 020a 61       		.byte	0x61
 2568 020b 2C020000 		.4byte	0x22c
 2569 020f 06       		.uleb128 0x6
 2570 0210 17030000 		.4byte	.LASF22
 2571 0214 04       		.byte	0x4
 2572 0215 62       		.byte	0x62
 2573 0216 2C020000 		.4byte	0x22c
 2574 021a 02       		.byte	0x2
 2575 021b 23       		.byte	0x23
 2576 021c 00       		.uleb128 0x0
 2577 021d 06       		.uleb128 0x6
 2578 021e 9F020000 		.4byte	.LASF23
 2579 0222 04       		.byte	0x4
ARM GAS  C:\Users\z80\AppData\Local\Temp\cclkQXgD.s 			page 47


 2580 0223 64       		.byte	0x64
 2581 0224 2C020000 		.4byte	0x22c
 2582 0228 02       		.byte	0x2
 2583 0229 23       		.byte	0x23
 2584 022a 04       		.uleb128 0x4
 2585 022b 00       		.byte	0x0
 2586 022c 09       		.uleb128 0x9
 2587 022d 04       		.byte	0x4
 2588 022e F3000000 		.4byte	0xf3
 2589 0232 04       		.uleb128 0x4
 2590 0233 2E020000 		.4byte	.LASF39
 2591 0237 04       		.byte	0x4
 2592 0238 66       		.byte	0x66
 2593 0239 07020000 		.4byte	0x207
 2594 023d 08       		.uleb128 0x8
 2595 023e 04       		.byte	0x4
 2596 023f 04       		.byte	0x4
 2597 0240 6B       		.byte	0x6b
 2598 0241 54020000 		.4byte	0x254
 2599 0245 06       		.uleb128 0x6
 2600 0246 17030000 		.4byte	.LASF22
 2601 024a 04       		.byte	0x4
 2602 024b 6D       		.byte	0x6d
 2603 024c 2C020000 		.4byte	0x22c
 2604 0250 02       		.byte	0x2
 2605 0251 23       		.byte	0x23
 2606 0252 00       		.uleb128 0x0
 2607 0253 00       		.byte	0x0
 2608 0254 04       		.uleb128 0x4
 2609 0255 BF010000 		.4byte	.LASF40
 2610 0259 04       		.byte	0x4
 2611 025a 70       		.byte	0x70
 2612 025b 3D020000 		.4byte	0x23d
 2613 025f 04       		.uleb128 0x4
 2614 0260 FD000000 		.4byte	.LASF41
 2615 0264 06       		.byte	0x6
 2616 0265 D7       		.byte	0xd7
 2617 0266 6A020000 		.4byte	0x26a
 2618 026a 0A       		.uleb128 0xa
 2619 026b 04       		.byte	0x4
 2620 026c 04       		.uleb128 0x4
 2621 026d DD010000 		.4byte	.LASF42
 2622 0271 06       		.byte	0x6
 2623 0272 DD       		.byte	0xdd
 2624 0273 89000000 		.4byte	0x89
 2625 0277 05       		.uleb128 0x5
 2626 0278 85030000 		.4byte	.LASF43
 2627 027c 24       		.byte	0x24
 2628 027d 06       		.byte	0x6
 2629 027e FE       		.byte	0xfe
 2630 027f 04030000 		.4byte	0x304
 2631 0283 0B       		.uleb128 0xb
 2632 0284 723400   		.ascii	"r4\000"
 2633 0287 06       		.byte	0x6
 2634 0288 1101     		.2byte	0x111
 2635 028a 5F020000 		.4byte	0x25f
 2636 028e 02       		.byte	0x2
ARM GAS  C:\Users\z80\AppData\Local\Temp\cclkQXgD.s 			page 48


 2637 028f 23       		.byte	0x23
 2638 0290 00       		.uleb128 0x0
 2639 0291 0B       		.uleb128 0xb
 2640 0292 723500   		.ascii	"r5\000"
 2641 0295 06       		.byte	0x6
 2642 0296 1201     		.2byte	0x112
 2643 0298 5F020000 		.4byte	0x25f
 2644 029c 02       		.byte	0x2
 2645 029d 23       		.byte	0x23
 2646 029e 04       		.uleb128 0x4
 2647 029f 0B       		.uleb128 0xb
 2648 02a0 723600   		.ascii	"r6\000"
 2649 02a3 06       		.byte	0x6
 2650 02a4 1301     		.2byte	0x113
 2651 02a6 5F020000 		.4byte	0x25f
 2652 02aa 02       		.byte	0x2
 2653 02ab 23       		.byte	0x23
 2654 02ac 08       		.uleb128 0x8
 2655 02ad 0B       		.uleb128 0xb
 2656 02ae 723700   		.ascii	"r7\000"
 2657 02b1 06       		.byte	0x6
 2658 02b2 1401     		.2byte	0x114
 2659 02b4 5F020000 		.4byte	0x25f
 2660 02b8 02       		.byte	0x2
 2661 02b9 23       		.byte	0x23
 2662 02ba 0C       		.uleb128 0xc
 2663 02bb 0B       		.uleb128 0xb
 2664 02bc 723800   		.ascii	"r8\000"
 2665 02bf 06       		.byte	0x6
 2666 02c0 1501     		.2byte	0x115
 2667 02c2 5F020000 		.4byte	0x25f
 2668 02c6 02       		.byte	0x2
 2669 02c7 23       		.byte	0x23
 2670 02c8 10       		.uleb128 0x10
 2671 02c9 0B       		.uleb128 0xb
 2672 02ca 723900   		.ascii	"r9\000"
 2673 02cd 06       		.byte	0x6
 2674 02ce 1601     		.2byte	0x116
 2675 02d0 5F020000 		.4byte	0x25f
 2676 02d4 02       		.byte	0x2
 2677 02d5 23       		.byte	0x23
 2678 02d6 14       		.uleb128 0x14
 2679 02d7 0B       		.uleb128 0xb
 2680 02d8 72313000 		.ascii	"r10\000"
 2681 02dc 06       		.byte	0x6
 2682 02dd 1701     		.2byte	0x117
 2683 02df 5F020000 		.4byte	0x25f
 2684 02e3 02       		.byte	0x2
 2685 02e4 23       		.byte	0x23
 2686 02e5 18       		.uleb128 0x18
 2687 02e6 0B       		.uleb128 0xb
 2688 02e7 72313100 		.ascii	"r11\000"
 2689 02eb 06       		.byte	0x6
 2690 02ec 1801     		.2byte	0x118
 2691 02ee 5F020000 		.4byte	0x25f
 2692 02f2 02       		.byte	0x2
 2693 02f3 23       		.byte	0x23
ARM GAS  C:\Users\z80\AppData\Local\Temp\cclkQXgD.s 			page 49


 2694 02f4 1C       		.uleb128 0x1c
 2695 02f5 0B       		.uleb128 0xb
 2696 02f6 6C7200   		.ascii	"lr\000"
 2697 02f9 06       		.byte	0x6
 2698 02fa 1901     		.2byte	0x119
 2699 02fc 5F020000 		.4byte	0x25f
 2700 0300 02       		.byte	0x2
 2701 0301 23       		.byte	0x23
 2702 0302 20       		.uleb128 0x20
 2703 0303 00       		.byte	0x0
 2704 0304 0C       		.uleb128 0xc
 2705 0305 6C010000 		.4byte	.LASF44
 2706 0309 04       		.byte	0x4
 2707 030a 06       		.byte	0x6
 2708 030b 2301     		.2byte	0x123
 2709 030d 21030000 		.4byte	0x321
 2710 0311 0B       		.uleb128 0xb
 2711 0312 72313300 		.ascii	"r13\000"
 2712 0316 06       		.byte	0x6
 2713 0317 2401     		.2byte	0x124
 2714 0319 21030000 		.4byte	0x321
 2715 031d 02       		.byte	0x2
 2716 031e 23       		.byte	0x23
 2717 031f 00       		.uleb128 0x0
 2718 0320 00       		.byte	0x0
 2719 0321 09       		.uleb128 0x9
 2720 0322 04       		.byte	0x4
 2721 0323 77020000 		.4byte	0x277
 2722 0327 0D       		.uleb128 0xd
 2723 0328 04       		.byte	0x4
 2724 0329 07       		.byte	0x7
 2725 032a 0E       		.uleb128 0xe
 2726 032b DD000000 		.4byte	0xdd
 2727 032f 08       		.uleb128 0x8
 2728 0330 20       		.byte	0x20
 2729 0331 07       		.byte	0x7
 2730 0332 5E       		.byte	0x5e
 2731 0333 9A030000 		.4byte	0x39a
 2732 0337 06       		.uleb128 0x6
 2733 0338 41030000 		.4byte	.LASF45
 2734 033c 07       		.byte	0x7
 2735 033d 5F       		.byte	0x5f
 2736 033e 32020000 		.4byte	0x232
 2737 0342 02       		.byte	0x2
 2738 0343 23       		.byte	0x23
 2739 0344 00       		.uleb128 0x0
 2740 0345 06       		.uleb128 0x6
 2741 0346 09030000 		.4byte	.LASF46
 2742 034a 07       		.byte	0x7
 2743 034b 60       		.byte	0x60
 2744 034c B1000000 		.4byte	0xb1
 2745 0350 02       		.byte	0x2
 2746 0351 23       		.byte	0x23
 2747 0352 08       		.uleb128 0x8
 2748 0353 06       		.uleb128 0x6
 2749 0354 28020000 		.4byte	.LASF47
 2750 0358 07       		.byte	0x7
ARM GAS  C:\Users\z80\AppData\Local\Temp\cclkQXgD.s 			page 50


 2751 0359 62       		.byte	0x62
 2752 035a 04030000 		.4byte	0x304
 2753 035e 02       		.byte	0x2
 2754 035f 23       		.byte	0x23
 2755 0360 0C       		.uleb128 0xc
 2756 0361 06       		.uleb128 0x6
 2757 0362 F0000000 		.4byte	.LASF48
 2758 0366 07       		.byte	0x7
 2759 0367 65       		.byte	0x65
 2760 0368 2C020000 		.4byte	0x22c
 2761 036c 02       		.byte	0x2
 2762 036d 23       		.byte	0x23
 2763 036e 10       		.uleb128 0x10
 2764 036f 06       		.uleb128 0x6
 2765 0370 86020000 		.4byte	.LASF49
 2766 0374 07       		.byte	0x7
 2767 0375 66       		.byte	0x66
 2768 0376 2C020000 		.4byte	0x22c
 2769 037a 02       		.byte	0x2
 2770 037b 23       		.byte	0x23
 2771 037c 14       		.uleb128 0x14
 2772 037d 06       		.uleb128 0x6
 2773 037e DF030000 		.4byte	.LASF50
 2774 0382 07       		.byte	0x7
 2775 0383 6A       		.byte	0x6a
 2776 0384 E8000000 		.4byte	0xe8
 2777 0388 02       		.byte	0x2
 2778 0389 23       		.byte	0x23
 2779 038a 18       		.uleb128 0x18
 2780 038b 06       		.uleb128 0x6
 2781 038c 7C020000 		.4byte	.LASF51
 2782 0390 07       		.byte	0x7
 2783 0391 6C       		.byte	0x6c
 2784 0392 2C020000 		.4byte	0x22c
 2785 0396 02       		.byte	0x2
 2786 0397 23       		.byte	0x23
 2787 0398 1C       		.uleb128 0x1c
 2788 0399 00       		.byte	0x0
 2789 039a 04       		.uleb128 0x4
 2790 039b 9F030000 		.4byte	.LASF52
 2791 039f 07       		.byte	0x7
 2792 03a0 6E       		.byte	0x6e
 2793 03a1 2F030000 		.4byte	0x32f
 2794 03a5 05       		.uleb128 0x5
 2795 03a6 D7010000 		.4byte	.LASF53
 2796 03aa 10       		.byte	0x10
 2797 03ab 08       		.byte	0x8
 2798 03ac 2C       		.byte	0x2c
 2799 03ad DC030000 		.4byte	0x3dc
 2800 03b1 06       		.uleb128 0x6
 2801 03b2 91000000 		.4byte	.LASF54
 2802 03b6 08       		.byte	0x8
 2803 03b7 2D       		.byte	0x2d
 2804 03b8 32020000 		.4byte	0x232
 2805 03bc 02       		.byte	0x2
 2806 03bd 23       		.byte	0x23
 2807 03be 00       		.uleb128 0x0
ARM GAS  C:\Users\z80\AppData\Local\Temp\cclkQXgD.s 			page 51


 2808 03bf 06       		.uleb128 0x6
 2809 03c0 E9030000 		.4byte	.LASF55
 2810 03c4 08       		.byte	0x8
 2811 03c5 2F       		.byte	0x2f
 2812 03c6 2C020000 		.4byte	0x22c
 2813 03ca 02       		.byte	0x2
 2814 03cb 23       		.byte	0x23
 2815 03cc 08       		.uleb128 0x8
 2816 03cd 06       		.uleb128 0x6
 2817 03ce 4E030000 		.4byte	.LASF56
 2818 03d2 08       		.byte	0x8
 2819 03d3 31       		.byte	0x31
 2820 03d4 DC030000 		.4byte	0x3dc
 2821 03d8 02       		.byte	0x2
 2822 03d9 23       		.byte	0x23
 2823 03da 0C       		.uleb128 0xc
 2824 03db 00       		.byte	0x0
 2825 03dc 09       		.uleb128 0x9
 2826 03dd 04       		.byte	0x4
 2827 03de A5030000 		.4byte	0x3a5
 2828 03e2 04       		.uleb128 0x4
 2829 03e3 D7010000 		.4byte	.LASF53
 2830 03e7 08       		.byte	0x8
 2831 03e8 33       		.byte	0x33
 2832 03e9 A5030000 		.4byte	0x3a5
 2833 03ed 04       		.uleb128 0x4
 2834 03ee B7030000 		.4byte	.LASF57
 2835 03f2 09       		.byte	0x9
 2836 03f3 29       		.byte	0x29
 2837 03f4 F8030000 		.4byte	0x3f8
 2838 03f8 05       		.uleb128 0x5
 2839 03f9 B7030000 		.4byte	.LASF57
 2840 03fd 0C       		.byte	0xc
 2841 03fe 09       		.byte	0x9
 2842 03ff 2E       		.byte	0x2e
 2843 0400 2F040000 		.4byte	0x42f
 2844 0404 06       		.uleb128 0x6
 2845 0405 9F010000 		.4byte	.LASF58
 2846 0409 09       		.byte	0x9
 2847 040a 2F       		.byte	0x2f
 2848 040b 2F040000 		.4byte	0x42f
 2849 040f 02       		.byte	0x2
 2850 0410 23       		.byte	0x23
 2851 0411 00       		.uleb128 0x0
 2852 0412 06       		.uleb128 0x6
 2853 0413 E1020000 		.4byte	.LASF59
 2854 0417 09       		.byte	0x9
 2855 0418 32       		.byte	0x32
 2856 0419 2C020000 		.4byte	0x22c
 2857 041d 02       		.byte	0x2
 2858 041e 23       		.byte	0x23
 2859 041f 04       		.uleb128 0x4
 2860 0420 06       		.uleb128 0x6
 2861 0421 8E020000 		.4byte	.LASF60
 2862 0425 09       		.byte	0x9
 2863 0426 34       		.byte	0x34
 2864 0427 D2000000 		.4byte	0xd2
ARM GAS  C:\Users\z80\AppData\Local\Temp\cclkQXgD.s 			page 52


 2865 042b 02       		.byte	0x2
 2866 042c 23       		.byte	0x23
 2867 042d 08       		.uleb128 0x8
 2868 042e 00       		.byte	0x0
 2869 042f 09       		.uleb128 0x9
 2870 0430 04       		.byte	0x4
 2871 0431 ED030000 		.4byte	0x3ed
 2872 0435 05       		.uleb128 0x5
 2873 0436 24010000 		.4byte	.LASF61
 2874 043a 04       		.byte	0x4
 2875 043b 09       		.byte	0x9
 2876 043c 3C       		.byte	0x3c
 2877 043d 50040000 		.4byte	0x450
 2878 0441 06       		.uleb128 0x6
 2879 0442 97030000 		.4byte	.LASF62
 2880 0446 09       		.byte	0x9
 2881 0447 3D       		.byte	0x3d
 2882 0448 2F040000 		.4byte	0x42f
 2883 044c 02       		.byte	0x2
 2884 044d 23       		.byte	0x23
 2885 044e 00       		.uleb128 0x0
 2886 044f 00       		.byte	0x0
 2887 0450 04       		.uleb128 0x4
 2888 0451 24010000 		.4byte	.LASF61
 2889 0455 09       		.byte	0x9
 2890 0456 40       		.byte	0x40
 2891 0457 35040000 		.4byte	0x435
 2892 045b 04       		.uleb128 0x4
 2893 045c 30010000 		.4byte	.LASF63
 2894 0460 09       		.byte	0x9
 2895 0461 45       		.byte	0x45
 2896 0462 66040000 		.4byte	0x466
 2897 0466 09       		.uleb128 0x9
 2898 0467 04       		.byte	0x4
 2899 0468 6C040000 		.4byte	0x46c
 2900 046c 0F       		.uleb128 0xf
 2901 046d 01       		.byte	0x1
 2902 046e 78040000 		.4byte	0x478
 2903 0472 10       		.uleb128 0x10
 2904 0473 C7000000 		.4byte	0xc7
 2905 0477 00       		.byte	0x0
 2906 0478 11       		.uleb128 0x11
 2907 0479 04       		.byte	0x4
 2908 047a 05       		.byte	0x5
 2909 047b 90       		.byte	0x90
 2910 047c AD040000 		.4byte	0x4ad
 2911 0480 12       		.uleb128 0x12
 2912 0481 06000000 		.4byte	.LASF64
 2913 0485 05       		.byte	0x5
 2914 0486 97       		.byte	0x97
 2915 0487 BC000000 		.4byte	0xbc
 2916 048b 12       		.uleb128 0x12
 2917 048c 2D000000 		.4byte	.LASF65
 2918 0490 05       		.byte	0x5
 2919 0491 9E       		.byte	0x9e
 2920 0492 BC000000 		.4byte	0xbc
 2921 0496 12       		.uleb128 0x12
ARM GAS  C:\Users\z80\AppData\Local\Temp\cclkQXgD.s 			page 53


 2922 0497 D1030000 		.4byte	.LASF66
 2923 049b 05       		.byte	0x5
 2924 049c A5       		.byte	0xa5
 2925 049d 6A020000 		.4byte	0x26a
 2926 04a1 12       		.uleb128 0x12
 2927 04a2 10030000 		.4byte	.LASF67
 2928 04a6 05       		.byte	0x5
 2929 04a7 AC       		.byte	0xac
 2930 04a8 D2000000 		.4byte	0xd2
 2931 04ac 00       		.byte	0x0
 2932 04ad 09       		.uleb128 0x9
 2933 04ae 04       		.byte	0x4
 2934 04af B3040000 		.4byte	0x4b3
 2935 04b3 13       		.uleb128 0x13
 2936 04b4 B8040000 		.4byte	0x4b8
 2937 04b8 03       		.uleb128 0x3
 2938 04b9 01       		.byte	0x1
 2939 04ba 08       		.byte	0x8
 2940 04bb 49030000 		.4byte	.LASF68
 2941 04bf 09       		.uleb128 0x9
 2942 04c0 04       		.byte	0x4
 2943 04c1 6C020000 		.4byte	0x26c
 2944 04c5 09       		.uleb128 0x9
 2945 04c6 04       		.byte	0x4
 2946 04c7 E2030000 		.4byte	0x3e2
 2947 04cb 14       		.uleb128 0x14
 2948 04cc 01       		.byte	0x1
 2949 04cd 87010000 		.4byte	.LASF70
 2950 04d1 01       		.byte	0x1
 2951 04d2 52       		.byte	0x52
 2952 04d3 01       		.byte	0x1
 2953 04d4 00000000 		.4byte	.LFB7
 2954 04d8 4C000000 		.4byte	.LFE7
 2955 04dc 00000000 		.4byte	.LLST0
 2956 04e0 48050000 		.4byte	0x548
 2957 04e4 15       		.uleb128 0x15
 2958 04e5 65737000 		.ascii	"esp\000"
 2959 04e9 01       		.byte	0x1
 2960 04ea 52       		.byte	0x52
 2961 04eb 48050000 		.4byte	0x548
 2962 04ef 20000000 		.4byte	.LLST1
 2963 04f3 15       		.uleb128 0x15
 2964 04f4 656C7000 		.ascii	"elp\000"
 2965 04f8 01       		.byte	0x1
 2966 04f9 52       		.byte	0x52
 2967 04fa 2F040000 		.4byte	0x42f
 2968 04fe 3E000000 		.4byte	.LLST2
 2969 0502 16       		.uleb128 0x16
 2970 0503 F8000000 		.4byte	.LASF69
 2971 0507 01       		.byte	0x1
 2972 0508 52       		.byte	0x52
 2973 0509 D2000000 		.4byte	0xd2
 2974 050d 5C000000 		.4byte	.LLST3
 2975 0511 17       		.uleb128 0x17
 2976 0512 20000000 		.4byte	.LBB2
 2977 0516 26000000 		.4byte	.LBE2
 2978 051a 2E050000 		.4byte	0x52e
ARM GAS  C:\Users\z80\AppData\Local\Temp\cclkQXgD.s 			page 54


 2979 051e 18       		.uleb128 0x18
 2980 051f 746D7000 		.ascii	"tmp\000"
 2981 0523 01       		.byte	0x1
 2982 0524 56       		.byte	0x56
 2983 0525 70000000 		.4byte	0x70
 2984 0529 7A000000 		.4byte	.LLST4
 2985 052d 00       		.byte	0x0
 2986 052e 19       		.uleb128 0x19
 2987 052f 3C000000 		.4byte	.LBB3
 2988 0533 42000000 		.4byte	.LBE3
 2989 0537 18       		.uleb128 0x18
 2990 0538 746D7000 		.ascii	"tmp\000"
 2991 053c 01       		.byte	0x1
 2992 053d 5B       		.byte	0x5b
 2993 053e 70000000 		.4byte	0x70
 2994 0542 8D000000 		.4byte	.LLST5
 2995 0546 00       		.byte	0x0
 2996 0547 00       		.byte	0x0
 2997 0548 09       		.uleb128 0x9
 2998 0549 04       		.byte	0x4
 2999 054a 50040000 		.4byte	0x450
 3000 054e 14       		.uleb128 0x14
 3001 054f 01       		.byte	0x1
 3002 0550 A7010000 		.4byte	.LASF71
 3003 0554 01       		.byte	0x1
 3004 0555 6B       		.byte	0x6b
 3005 0556 01       		.byte	0x1
 3006 0557 00000000 		.4byte	.LFB8
 3007 055b 50000000 		.4byte	.LFE8
 3008 055f A0000000 		.4byte	.LLST6
 3009 0563 C9050000 		.4byte	0x5c9
 3010 0567 15       		.uleb128 0x15
 3011 0568 65737000 		.ascii	"esp\000"
 3012 056c 01       		.byte	0x1
 3013 056d 6B       		.byte	0x6b
 3014 056e 48050000 		.4byte	0x548
 3015 0572 C0000000 		.4byte	.LLST7
 3016 0576 15       		.uleb128 0x15
 3017 0577 656C7000 		.ascii	"elp\000"
 3018 057b 01       		.byte	0x1
 3019 057c 6B       		.byte	0x6b
 3020 057d 2F040000 		.4byte	0x42f
 3021 0581 DE000000 		.4byte	.LLST8
 3022 0585 18       		.uleb128 0x18
 3023 0586 7000     		.ascii	"p\000"
 3024 0588 01       		.byte	0x1
 3025 0589 6C       		.byte	0x6c
 3026 058a 2F040000 		.4byte	0x42f
 3027 058e FC000000 		.4byte	.LLST9
 3028 0592 17       		.uleb128 0x17
 3029 0593 18000000 		.4byte	.LBB4
 3030 0597 1E000000 		.4byte	.LBE4
 3031 059b AF050000 		.4byte	0x5af
 3032 059f 18       		.uleb128 0x18
 3033 05a0 746D7000 		.ascii	"tmp\000"
 3034 05a4 01       		.byte	0x1
 3035 05a5 71       		.byte	0x71
ARM GAS  C:\Users\z80\AppData\Local\Temp\cclkQXgD.s 			page 55


 3036 05a6 70000000 		.4byte	0x70
 3037 05aa 30010000 		.4byte	.LLST10
 3038 05ae 00       		.byte	0x0
 3039 05af 19       		.uleb128 0x19
 3040 05b0 36000000 		.4byte	.LBB5
 3041 05b4 3C000000 		.4byte	.LBE5
 3042 05b8 18       		.uleb128 0x18
 3043 05b9 746D7000 		.ascii	"tmp\000"
 3044 05bd 01       		.byte	0x1
 3045 05be 79       		.byte	0x79
 3046 05bf 70000000 		.4byte	0x70
 3047 05c3 43010000 		.4byte	.LLST11
 3048 05c7 00       		.byte	0x0
 3049 05c8 00       		.byte	0x0
 3050 05c9 1A       		.uleb128 0x1a
 3051 05ca 01       		.byte	0x1
 3052 05cb AE020000 		.4byte	.LASF72
 3053 05cf 01       		.byte	0x1
 3054 05d0 84       		.byte	0x84
 3055 05d1 01       		.byte	0x1
 3056 05d2 D2000000 		.4byte	0xd2
 3057 05d6 00000000 		.4byte	.LFB9
 3058 05da 30000000 		.4byte	.LFE9
 3059 05de 56010000 		.4byte	.LLST12
 3060 05e2 3C060000 		.4byte	0x63c
 3061 05e6 16       		.uleb128 0x16
 3062 05e7 F8000000 		.4byte	.LASF69
 3063 05eb 01       		.byte	0x1
 3064 05ec 84       		.byte	0x84
 3065 05ed D2000000 		.4byte	0xd2
 3066 05f1 76010000 		.4byte	.LLST13
 3067 05f5 1B       		.uleb128 0x1b
 3068 05f6 6D00     		.ascii	"m\000"
 3069 05f8 01       		.byte	0x1
 3070 05f9 85       		.byte	0x85
 3071 05fa D2000000 		.4byte	0xd2
 3072 05fe 06       		.byte	0x6
 3073 05ff 75       		.byte	0x75
 3074 0600 00       		.sleb128 0
 3075 0601 74       		.byte	0x74
 3076 0602 00       		.sleb128 0
 3077 0603 1A       		.byte	0x1a
 3078 0604 9F       		.byte	0x9f
 3079 0605 17       		.uleb128 0x17
 3080 0606 04000000 		.4byte	.LBB6
 3081 060a 0A000000 		.4byte	.LBE6
 3082 060e 22060000 		.4byte	0x622
 3083 0612 18       		.uleb128 0x18
 3084 0613 746D7000 		.ascii	"tmp\000"
 3085 0617 01       		.byte	0x1
 3086 0618 87       		.byte	0x87
 3087 0619 70000000 		.4byte	0x70
 3088 061d 94010000 		.4byte	.LLST14
 3089 0621 00       		.byte	0x0
 3090 0622 19       		.uleb128 0x19
 3091 0623 24000000 		.4byte	.LBB7
 3092 0627 2A000000 		.4byte	.LBE7
ARM GAS  C:\Users\z80\AppData\Local\Temp\cclkQXgD.s 			page 56


 3093 062b 18       		.uleb128 0x18
 3094 062c 746D7000 		.ascii	"tmp\000"
 3095 0630 01       		.byte	0x1
 3096 0631 8C       		.byte	0x8c
 3097 0632 70000000 		.4byte	0x70
 3098 0636 A7010000 		.4byte	.LLST15
 3099 063a 00       		.byte	0x0
 3100 063b 00       		.byte	0x0
 3101 063c 1A       		.uleb128 0x1a
 3102 063d 01       		.byte	0x1
 3103 063e 99000000 		.4byte	.LASF73
 3104 0642 01       		.byte	0x1
 3105 0643 99       		.byte	0x99
 3106 0644 01       		.byte	0x1
 3107 0645 D2000000 		.4byte	0xd2
 3108 0649 00000000 		.4byte	.LFB10
 3109 064d 2C000000 		.4byte	.LFE10
 3110 0651 BA010000 		.4byte	.LLST16
 3111 0655 9B060000 		.4byte	0x69b
 3112 0659 16       		.uleb128 0x16
 3113 065a F8000000 		.4byte	.LASF69
 3114 065e 01       		.byte	0x1
 3115 065f 99       		.byte	0x99
 3116 0660 D2000000 		.4byte	0xd2
 3117 0664 DA010000 		.4byte	.LLST17
 3118 0668 1C       		.uleb128 0x1c
 3119 0669 00000000 		.4byte	.Ldebug_ranges0+0x0
 3120 066d 81060000 		.4byte	0x681
 3121 0671 18       		.uleb128 0x18
 3122 0672 746D7000 		.ascii	"tmp\000"
 3123 0676 01       		.byte	0x1
 3124 0677 9B       		.byte	0x9b
 3125 0678 70000000 		.4byte	0x70
 3126 067c 03020000 		.4byte	.LLST18
 3127 0680 00       		.byte	0x0
 3128 0681 19       		.uleb128 0x19
 3129 0682 22000000 		.4byte	.LBB10
 3130 0686 28000000 		.4byte	.LBE10
 3131 068a 18       		.uleb128 0x18
 3132 068b 746D7000 		.ascii	"tmp\000"
 3133 068f 01       		.byte	0x1
 3134 0690 9F       		.byte	0x9f
 3135 0691 70000000 		.4byte	0x70
 3136 0695 16020000 		.4byte	.LLST19
 3137 0699 00       		.byte	0x0
 3138 069a 00       		.byte	0x0
 3139 069b 14       		.uleb128 0x14
 3140 069c 01       		.byte	0x1
 3141 069d 36000000 		.4byte	.LASF74
 3142 06a1 01       		.byte	0x1
 3143 06a2 C1       		.byte	0xc1
 3144 06a3 01       		.byte	0x1
 3145 06a4 00000000 		.4byte	.LFB12
 3146 06a8 54000000 		.4byte	.LFE12
 3147 06ac 29020000 		.4byte	.LLST20
 3148 06b0 D2060000 		.4byte	0x6d2
 3149 06b4 15       		.uleb128 0x15
ARM GAS  C:\Users\z80\AppData\Local\Temp\cclkQXgD.s 			page 57


 3150 06b5 747000   		.ascii	"tp\000"
 3151 06b8 01       		.byte	0x1
 3152 06b9 C1       		.byte	0xc1
 3153 06ba 2C020000 		.4byte	0x22c
 3154 06be 49020000 		.4byte	.LLST21
 3155 06c2 16       		.uleb128 0x16
 3156 06c3 F8000000 		.4byte	.LASF69
 3157 06c7 01       		.byte	0x1
 3158 06c8 C1       		.byte	0xc1
 3159 06c9 D2000000 		.4byte	0xd2
 3160 06cd 67020000 		.4byte	.LLST22
 3161 06d1 00       		.byte	0x0
 3162 06d2 14       		.uleb128 0x14
 3163 06d3 01       		.byte	0x1
 3164 06d4 6B020000 		.4byte	.LASF75
 3165 06d8 01       		.byte	0x1
 3166 06d9 AB       		.byte	0xab
 3167 06da 01       		.byte	0x1
 3168 06db 00000000 		.4byte	.LFB11
 3169 06df 38000000 		.4byte	.LFE11
 3170 06e3 90020000 		.4byte	.LLST23
 3171 06e7 3F070000 		.4byte	0x73f
 3172 06eb 15       		.uleb128 0x15
 3173 06ec 747000   		.ascii	"tp\000"
 3174 06ef 01       		.byte	0x1
 3175 06f0 AB       		.byte	0xab
 3176 06f1 2C020000 		.4byte	0x22c
 3177 06f5 B0020000 		.4byte	.LLST24
 3178 06f9 16       		.uleb128 0x16
 3179 06fa F8000000 		.4byte	.LASF69
 3180 06fe 01       		.byte	0x1
 3181 06ff AB       		.byte	0xab
 3182 0700 D2000000 		.4byte	0xd2
 3183 0704 CE020000 		.4byte	.LLST25
 3184 0708 17       		.uleb128 0x17
 3185 0709 08000000 		.4byte	.LBB11
 3186 070d 0E000000 		.4byte	.LBE11
 3187 0711 25070000 		.4byte	0x725
 3188 0715 18       		.uleb128 0x18
 3189 0716 746D7000 		.ascii	"tmp\000"
 3190 071a 01       		.byte	0x1
 3191 071b AF       		.byte	0xaf
 3192 071c 70000000 		.4byte	0x70
 3193 0720 EC020000 		.4byte	.LLST26
 3194 0724 00       		.byte	0x0
 3195 0725 19       		.uleb128 0x19
 3196 0726 22000000 		.4byte	.LBB12
 3197 072a 28000000 		.4byte	.LBE12
 3198 072e 18       		.uleb128 0x18
 3199 072f 746D7000 		.ascii	"tmp\000"
 3200 0733 01       		.byte	0x1
 3201 0734 B2       		.byte	0xb2
 3202 0735 70000000 		.4byte	0x70
 3203 0739 FF020000 		.4byte	.LLST27
 3204 073d 00       		.byte	0x0
 3205 073e 00       		.byte	0x0
 3206 073f 14       		.uleb128 0x14
ARM GAS  C:\Users\z80\AppData\Local\Temp\cclkQXgD.s 			page 58


 3207 0740 01       		.byte	0x1
 3208 0741 D3000000 		.4byte	.LASF76
 3209 0745 01       		.byte	0x1
 3210 0746 F5       		.byte	0xf5
 3211 0747 01       		.byte	0x1
 3212 0748 00000000 		.4byte	.LFB14
 3213 074c 34000000 		.4byte	.LFE14
 3214 0750 12030000 		.4byte	.LLST28
 3215 0754 86070000 		.4byte	0x786
 3216 0758 15       		.uleb128 0x15
 3217 0759 65737000 		.ascii	"esp\000"
 3218 075d 01       		.byte	0x1
 3219 075e F5       		.byte	0xf5
 3220 075f 48050000 		.4byte	0x548
 3221 0763 32030000 		.4byte	.LLST29
 3222 0767 16       		.uleb128 0x16
 3223 0768 F8000000 		.4byte	.LASF69
 3224 076c 01       		.byte	0x1
 3225 076d F5       		.byte	0xf5
 3226 076e D2000000 		.4byte	0xd2
 3227 0772 50030000 		.4byte	.LLST30
 3228 0776 18       		.uleb128 0x18
 3229 0777 656C7000 		.ascii	"elp\000"
 3230 077b 01       		.byte	0x1
 3231 077c F6       		.byte	0xf6
 3232 077d 2F040000 		.4byte	0x42f
 3233 0781 6E030000 		.4byte	.LLST31
 3234 0785 00       		.byte	0x0
 3235 0786 14       		.uleb128 0x14
 3236 0787 01       		.byte	0x1
 3237 0788 06010000 		.4byte	.LASF77
 3238 078c 01       		.byte	0x1
 3239 078d DC       		.byte	0xdc
 3240 078e 01       		.byte	0x1
 3241 078f 00000000 		.4byte	.LFB13
 3242 0793 28000000 		.4byte	.LFE13
 3243 0797 98030000 		.4byte	.LLST32
 3244 079b F4070000 		.4byte	0x7f4
 3245 079f 15       		.uleb128 0x15
 3246 07a0 65737000 		.ascii	"esp\000"
 3247 07a4 01       		.byte	0x1
 3248 07a5 DC       		.byte	0xdc
 3249 07a6 48050000 		.4byte	0x548
 3250 07aa B8030000 		.4byte	.LLST33
 3251 07ae 16       		.uleb128 0x16
 3252 07af F8000000 		.4byte	.LASF69
 3253 07b3 01       		.byte	0x1
 3254 07b4 DC       		.byte	0xdc
 3255 07b5 D2000000 		.4byte	0xd2
 3256 07b9 D6030000 		.4byte	.LLST34
 3257 07bd 17       		.uleb128 0x17
 3258 07be 06000000 		.4byte	.LBB13
 3259 07c2 0C000000 		.4byte	.LBE13
 3260 07c6 DA070000 		.4byte	0x7da
 3261 07ca 18       		.uleb128 0x18
 3262 07cb 746D7000 		.ascii	"tmp\000"
 3263 07cf 01       		.byte	0x1
ARM GAS  C:\Users\z80\AppData\Local\Temp\cclkQXgD.s 			page 59


 3264 07d0 DE       		.byte	0xde
 3265 07d1 70000000 		.4byte	0x70
 3266 07d5 F4030000 		.4byte	.LLST35
 3267 07d9 00       		.byte	0x0
 3268 07da 19       		.uleb128 0x19
 3269 07db 20000000 		.4byte	.LBB14
 3270 07df 26000000 		.4byte	.LBE14
 3271 07e3 18       		.uleb128 0x18
 3272 07e4 746D7000 		.ascii	"tmp\000"
 3273 07e8 01       		.byte	0x1
 3274 07e9 E1       		.byte	0xe1
 3275 07ea 70000000 		.4byte	0x70
 3276 07ee 07040000 		.4byte	.LLST36
 3277 07f2 00       		.byte	0x0
 3278 07f3 00       		.byte	0x0
 3279 07f4 1D       		.uleb128 0x1d
 3280 07f5 01       		.byte	0x1
 3281 07f6 12020000 		.4byte	.LASF78
 3282 07fa 01       		.byte	0x1
 3283 07fb 0B01     		.2byte	0x10b
 3284 07fd 01       		.byte	0x1
 3285 07fe 00000000 		.4byte	.LFB15
 3286 0802 50000000 		.4byte	.LFE15
 3287 0806 1A040000 		.4byte	.LLST37
 3288 080a 3F080000 		.4byte	0x83f
 3289 080e 1E       		.uleb128 0x1e
 3290 080f 96020000 		.4byte	.LASF79
 3291 0813 01       		.byte	0x1
 3292 0814 0B01     		.2byte	0x10b
 3293 0816 3F080000 		.4byte	0x83f
 3294 081a 3A040000 		.4byte	.LLST38
 3295 081e 1E       		.uleb128 0x1e
 3296 081f F8000000 		.4byte	.LASF69
 3297 0823 01       		.byte	0x1
 3298 0824 0B01     		.2byte	0x10b
 3299 0826 D2000000 		.4byte	0xd2
 3300 082a 58040000 		.4byte	.LLST39
 3301 082e 1F       		.uleb128 0x1f
 3302 082f 65696400 		.ascii	"eid\000"
 3303 0833 01       		.byte	0x1
 3304 0834 0C01     		.2byte	0x10c
 3305 0836 C7000000 		.4byte	0xc7
 3306 083a 97040000 		.4byte	.LLST40
 3307 083e 00       		.byte	0x0
 3308 083f 09       		.uleb128 0x9
 3309 0840 04       		.byte	0x4
 3310 0841 45080000 		.4byte	0x845
 3311 0845 13       		.uleb128 0x13
 3312 0846 5B040000 		.4byte	0x45b
 3313 084a 20       		.uleb128 0x20
 3314 084b 01       		.byte	0x1
 3315 084c D4020000 		.4byte	.LASF80
 3316 0850 01       		.byte	0x1
 3317 0851 2E01     		.2byte	0x12e
 3318 0853 01       		.byte	0x1
 3319 0854 D2000000 		.4byte	0xd2
 3320 0858 00000000 		.4byte	.LFB16
ARM GAS  C:\Users\z80\AppData\Local\Temp\cclkQXgD.s 			page 60


 3321 085c 44000000 		.4byte	.LFE16
 3322 0860 C3040000 		.4byte	.LLST41
 3323 0864 CF080000 		.4byte	0x8cf
 3324 0868 1E       		.uleb128 0x1e
 3325 0869 F8000000 		.4byte	.LASF69
 3326 086d 01       		.byte	0x1
 3327 086e 2E01     		.2byte	0x12e
 3328 0870 D2000000 		.4byte	0xd2
 3329 0874 E3040000 		.4byte	.LLST42
 3330 0878 1F       		.uleb128 0x1f
 3331 0879 63747000 		.ascii	"ctp\000"
 3332 087d 01       		.byte	0x1
 3333 087e 2F01     		.2byte	0x12f
 3334 0880 2C020000 		.4byte	0x22c
 3335 0884 01050000 		.4byte	.LLST43
 3336 0888 1F       		.uleb128 0x1f
 3337 0889 6D00     		.ascii	"m\000"
 3338 088b 01       		.byte	0x1
 3339 088c 3001     		.2byte	0x130
 3340 088e D2000000 		.4byte	0xd2
 3341 0892 20050000 		.4byte	.LLST44
 3342 0896 17       		.uleb128 0x17
 3343 0897 08000000 		.4byte	.LBB15
 3344 089b 0E000000 		.4byte	.LBE15
 3345 089f B4080000 		.4byte	0x8b4
 3346 08a3 1F       		.uleb128 0x1f
 3347 08a4 746D7000 		.ascii	"tmp\000"
 3348 08a8 01       		.byte	0x1
 3349 08a9 3201     		.2byte	0x132
 3350 08ab 70000000 		.4byte	0x70
 3351 08af 4F050000 		.4byte	.LLST45
 3352 08b3 00       		.byte	0x0
 3353 08b4 19       		.uleb128 0x19
 3354 08b5 36000000 		.4byte	.LBB16
 3355 08b9 3C000000 		.4byte	.LBE16
 3356 08bd 1F       		.uleb128 0x1f
 3357 08be 746D7000 		.ascii	"tmp\000"
 3358 08c2 01       		.byte	0x1
 3359 08c3 3C01     		.2byte	0x13c
 3360 08c5 70000000 		.4byte	0x70
 3361 08c9 62050000 		.4byte	.LLST46
 3362 08cd 00       		.byte	0x0
 3363 08ce 00       		.byte	0x0
 3364 08cf 20       		.uleb128 0x20
 3365 08d0 01       		.byte	0x1
 3366 08d1 C6000000 		.4byte	.LASF81
 3367 08d5 01       		.byte	0x1
 3368 08d6 4B01     		.2byte	0x14b
 3369 08d8 01       		.byte	0x1
 3370 08d9 D2000000 		.4byte	0xd2
 3371 08dd 00000000 		.4byte	.LFB17
 3372 08e1 40000000 		.4byte	.LFE17
 3373 08e5 75050000 		.4byte	.LLST47
 3374 08e9 54090000 		.4byte	0x954
 3375 08ed 1E       		.uleb128 0x1e
 3376 08ee F8000000 		.4byte	.LASF69
 3377 08f2 01       		.byte	0x1
ARM GAS  C:\Users\z80\AppData\Local\Temp\cclkQXgD.s 			page 61


 3378 08f3 4B01     		.2byte	0x14b
 3379 08f5 D2000000 		.4byte	0xd2
 3380 08f9 95050000 		.4byte	.LLST48
 3381 08fd 1F       		.uleb128 0x1f
 3382 08fe 63747000 		.ascii	"ctp\000"
 3383 0902 01       		.byte	0x1
 3384 0903 4C01     		.2byte	0x14c
 3385 0905 2C020000 		.4byte	0x22c
 3386 0909 B3050000 		.4byte	.LLST49
 3387 090d 1F       		.uleb128 0x1f
 3388 090e 6D00     		.ascii	"m\000"
 3389 0910 01       		.byte	0x1
 3390 0911 4D01     		.2byte	0x14d
 3391 0913 D2000000 		.4byte	0xd2
 3392 0917 D2050000 		.4byte	.LLST50
 3393 091b 17       		.uleb128 0x17
 3394 091c 08000000 		.4byte	.LBB17
 3395 0920 0E000000 		.4byte	.LBE17
 3396 0924 39090000 		.4byte	0x939
 3397 0928 1F       		.uleb128 0x1f
 3398 0929 746D7000 		.ascii	"tmp\000"
 3399 092d 01       		.byte	0x1
 3400 092e 4F01     		.2byte	0x14f
 3401 0930 70000000 		.4byte	0x70
 3402 0934 01060000 		.4byte	.LLST51
 3403 0938 00       		.byte	0x0
 3404 0939 19       		.uleb128 0x19
 3405 093a 32000000 		.4byte	.LBB18
 3406 093e 38000000 		.4byte	.LBE18
 3407 0942 1F       		.uleb128 0x1f
 3408 0943 746D7000 		.ascii	"tmp\000"
 3409 0947 01       		.byte	0x1
 3410 0948 5801     		.2byte	0x158
 3411 094a 70000000 		.4byte	0x70
 3412 094e 14060000 		.4byte	.LLST52
 3413 0952 00       		.byte	0x0
 3414 0953 00       		.byte	0x0
 3415 0954 20       		.uleb128 0x20
 3416 0955 01       		.byte	0x1
 3417 0956 B9000000 		.4byte	.LASF82
 3418 095a 01       		.byte	0x1
 3419 095b 6701     		.2byte	0x167
 3420 095d 01       		.byte	0x1
 3421 095e D2000000 		.4byte	0xd2
 3422 0962 00000000 		.4byte	.LFB18
 3423 0966 40000000 		.4byte	.LFE18
 3424 096a 27060000 		.4byte	.LLST53
 3425 096e CB090000 		.4byte	0x9cb
 3426 0972 1E       		.uleb128 0x1e
 3427 0973 F8000000 		.4byte	.LASF69
 3428 0977 01       		.byte	0x1
 3429 0978 6701     		.2byte	0x167
 3430 097a D2000000 		.4byte	0xd2
 3431 097e 47060000 		.4byte	.LLST54
 3432 0982 1F       		.uleb128 0x1f
 3433 0983 63747000 		.ascii	"ctp\000"
 3434 0987 01       		.byte	0x1
ARM GAS  C:\Users\z80\AppData\Local\Temp\cclkQXgD.s 			page 62


 3435 0988 6801     		.2byte	0x168
 3436 098a 2C020000 		.4byte	0x22c
 3437 098e 65060000 		.4byte	.LLST55
 3438 0992 17       		.uleb128 0x17
 3439 0993 08000000 		.4byte	.LBB19
 3440 0997 0E000000 		.4byte	.LBE19
 3441 099b B0090000 		.4byte	0x9b0
 3442 099f 1F       		.uleb128 0x1f
 3443 09a0 746D7000 		.ascii	"tmp\000"
 3444 09a4 01       		.byte	0x1
 3445 09a5 6A01     		.2byte	0x16a
 3446 09a7 70000000 		.4byte	0x70
 3447 09ab 84060000 		.4byte	.LLST56
 3448 09af 00       		.byte	0x0
 3449 09b0 19       		.uleb128 0x19
 3450 09b1 30000000 		.4byte	.LBB20
 3451 09b5 36000000 		.4byte	.LBE20
 3452 09b9 1F       		.uleb128 0x1f
 3453 09ba 746D7000 		.ascii	"tmp\000"
 3454 09be 01       		.byte	0x1
 3455 09bf 7201     		.2byte	0x172
 3456 09c1 70000000 		.4byte	0x70
 3457 09c5 97060000 		.4byte	.LLST57
 3458 09c9 00       		.byte	0x0
 3459 09ca 00       		.byte	0x0
 3460 09cb 20       		.uleb128 0x20
 3461 09cc 01       		.byte	0x1
 3462 09cd 71030000 		.4byte	.LASF83
 3463 09d1 01       		.byte	0x1
 3464 09d2 8E01     		.2byte	0x18e
 3465 09d4 01       		.byte	0x1
 3466 09d5 D2000000 		.4byte	0xd2
 3467 09d9 00000000 		.4byte	.LFB19
 3468 09dd 68000000 		.4byte	.LFE19
 3469 09e1 AA060000 		.4byte	.LLST58
 3470 09e5 9C0A0000 		.4byte	0xa9c
 3471 09e9 1E       		.uleb128 0x1e
 3472 09ea F8000000 		.4byte	.LASF69
 3473 09ee 01       		.byte	0x1
 3474 09ef 8E01     		.2byte	0x18e
 3475 09f1 D2000000 		.4byte	0xd2
 3476 09f5 CA060000 		.4byte	.LLST59
 3477 09f9 1E       		.uleb128 0x1e
 3478 09fa 66020000 		.4byte	.LASF84
 3479 09fe 01       		.byte	0x1
 3480 09ff 8E01     		.2byte	0x18e
 3481 0a01 DD000000 		.4byte	0xdd
 3482 0a05 E8060000 		.4byte	.LLST60
 3483 0a09 1F       		.uleb128 0x1f
 3484 0a0a 63747000 		.ascii	"ctp\000"
 3485 0a0e 01       		.byte	0x1
 3486 0a0f 8F01     		.2byte	0x18f
 3487 0a11 2C020000 		.4byte	0x22c
 3488 0a15 06070000 		.4byte	.LLST61
 3489 0a19 1F       		.uleb128 0x1f
 3490 0a1a 6D00     		.ascii	"m\000"
 3491 0a1c 01       		.byte	0x1
ARM GAS  C:\Users\z80\AppData\Local\Temp\cclkQXgD.s 			page 63


 3492 0a1d 9001     		.2byte	0x190
 3493 0a1f D2000000 		.4byte	0xd2
 3494 0a23 25070000 		.4byte	.LLST62
 3495 0a27 17       		.uleb128 0x17
 3496 0a28 0A000000 		.4byte	.LBB21
 3497 0a2c 10000000 		.4byte	.LBE21
 3498 0a30 450A0000 		.4byte	0xa45
 3499 0a34 1F       		.uleb128 0x1f
 3500 0a35 746D7000 		.ascii	"tmp\000"
 3501 0a39 01       		.byte	0x1
 3502 0a3a 9201     		.2byte	0x192
 3503 0a3c 70000000 		.4byte	0x70
 3504 0a40 5F070000 		.4byte	.LLST63
 3505 0a44 00       		.byte	0x0
 3506 0a45 17       		.uleb128 0x17
 3507 0a46 40000000 		.4byte	.LBB22
 3508 0a4a 46000000 		.4byte	.LBE22
 3509 0a4e 630A0000 		.4byte	0xa63
 3510 0a52 1F       		.uleb128 0x1f
 3511 0a53 746D7000 		.ascii	"tmp\000"
 3512 0a57 01       		.byte	0x1
 3513 0a58 A301     		.2byte	0x1a3
 3514 0a5a 70000000 		.4byte	0x70
 3515 0a5e 72070000 		.4byte	.LLST64
 3516 0a62 00       		.byte	0x0
 3517 0a63 17       		.uleb128 0x17
 3518 0a64 4E000000 		.4byte	.LBB23
 3519 0a68 54000000 		.4byte	.LBE23
 3520 0a6c 810A0000 		.4byte	0xa81
 3521 0a70 1F       		.uleb128 0x1f
 3522 0a71 746D7000 		.ascii	"tmp\000"
 3523 0a75 01       		.byte	0x1
 3524 0a76 9601     		.2byte	0x196
 3525 0a78 70000000 		.4byte	0x70
 3526 0a7c 85070000 		.4byte	.LLST65
 3527 0a80 00       		.byte	0x0
 3528 0a81 19       		.uleb128 0x19
 3529 0a82 5A000000 		.4byte	.LBB24
 3530 0a86 60000000 		.4byte	.LBE24
 3531 0a8a 1F       		.uleb128 0x1f
 3532 0a8b 746D7000 		.ascii	"tmp\000"
 3533 0a8f 01       		.byte	0x1
 3534 0a90 9B01     		.2byte	0x19b
 3535 0a92 70000000 		.4byte	0x70
 3536 0a96 A3070000 		.4byte	.LLST66
 3537 0a9a 00       		.byte	0x0
 3538 0a9b 00       		.byte	0x0
 3539 0a9c 20       		.uleb128 0x20
 3540 0a9d 01       		.byte	0x1
 3541 0a9e 48000000 		.4byte	.LASF85
 3542 0aa2 01       		.byte	0x1
 3543 0aa3 B901     		.2byte	0x1b9
 3544 0aa5 01       		.byte	0x1
 3545 0aa6 D2000000 		.4byte	0xd2
 3546 0aaa 00000000 		.4byte	.LFB20
 3547 0aae 64000000 		.4byte	.LFE20
 3548 0ab2 C1070000 		.4byte	.LLST67
ARM GAS  C:\Users\z80\AppData\Local\Temp\cclkQXgD.s 			page 64


 3549 0ab6 6D0B0000 		.4byte	0xb6d
 3550 0aba 1E       		.uleb128 0x1e
 3551 0abb F8000000 		.4byte	.LASF69
 3552 0abf 01       		.byte	0x1
 3553 0ac0 B901     		.2byte	0x1b9
 3554 0ac2 D2000000 		.4byte	0xd2
 3555 0ac6 E1070000 		.4byte	.LLST68
 3556 0aca 1E       		.uleb128 0x1e
 3557 0acb 66020000 		.4byte	.LASF84
 3558 0acf 01       		.byte	0x1
 3559 0ad0 B901     		.2byte	0x1b9
 3560 0ad2 DD000000 		.4byte	0xdd
 3561 0ad6 FF070000 		.4byte	.LLST69
 3562 0ada 1F       		.uleb128 0x1f
 3563 0adb 63747000 		.ascii	"ctp\000"
 3564 0adf 01       		.byte	0x1
 3565 0ae0 BA01     		.2byte	0x1ba
 3566 0ae2 2C020000 		.4byte	0x22c
 3567 0ae6 1D080000 		.4byte	.LLST70
 3568 0aea 1F       		.uleb128 0x1f
 3569 0aeb 6D00     		.ascii	"m\000"
 3570 0aed 01       		.byte	0x1
 3571 0aee BB01     		.2byte	0x1bb
 3572 0af0 D2000000 		.4byte	0xd2
 3573 0af4 3C080000 		.4byte	.LLST71
 3574 0af8 17       		.uleb128 0x17
 3575 0af9 0A000000 		.4byte	.LBB25
 3576 0afd 10000000 		.4byte	.LBE25
 3577 0b01 160B0000 		.4byte	0xb16
 3578 0b05 1F       		.uleb128 0x1f
 3579 0b06 746D7000 		.ascii	"tmp\000"
 3580 0b0a 01       		.byte	0x1
 3581 0b0b BD01     		.2byte	0x1bd
 3582 0b0d 70000000 		.4byte	0x70
 3583 0b11 6B080000 		.4byte	.LLST72
 3584 0b15 00       		.byte	0x0
 3585 0b16 17       		.uleb128 0x17
 3586 0b17 3C000000 		.4byte	.LBB26
 3587 0b1b 42000000 		.4byte	.LBE26
 3588 0b1f 340B0000 		.4byte	0xb34
 3589 0b23 1F       		.uleb128 0x1f
 3590 0b24 746D7000 		.ascii	"tmp\000"
 3591 0b28 01       		.byte	0x1
 3592 0b29 CD01     		.2byte	0x1cd
 3593 0b2b 70000000 		.4byte	0x70
 3594 0b2f 7E080000 		.4byte	.LLST73
 3595 0b33 00       		.byte	0x0
 3596 0b34 17       		.uleb128 0x17
 3597 0b35 4A000000 		.4byte	.LBB27
 3598 0b39 50000000 		.4byte	.LBE27
 3599 0b3d 520B0000 		.4byte	0xb52
 3600 0b41 1F       		.uleb128 0x1f
 3601 0b42 746D7000 		.ascii	"tmp\000"
 3602 0b46 01       		.byte	0x1
 3603 0b47 C101     		.2byte	0x1c1
 3604 0b49 70000000 		.4byte	0x70
 3605 0b4d 91080000 		.4byte	.LLST74
ARM GAS  C:\Users\z80\AppData\Local\Temp\cclkQXgD.s 			page 65


 3606 0b51 00       		.byte	0x0
 3607 0b52 19       		.uleb128 0x19
 3608 0b53 56000000 		.4byte	.LBB28
 3609 0b57 5C000000 		.4byte	.LBE28
 3610 0b5b 1F       		.uleb128 0x1f
 3611 0b5c 746D7000 		.ascii	"tmp\000"
 3612 0b60 01       		.byte	0x1
 3613 0b61 C601     		.2byte	0x1c6
 3614 0b63 70000000 		.4byte	0x70
 3615 0b67 AF080000 		.4byte	.LLST75
 3616 0b6b 00       		.byte	0x0
 3617 0b6c 00       		.byte	0x0
 3618 0b6d 20       		.uleb128 0x20
 3619 0b6e 01       		.byte	0x1
 3620 0b6f 7D000000 		.4byte	.LASF86
 3621 0b73 01       		.byte	0x1
 3622 0b74 E201     		.2byte	0x1e2
 3623 0b76 01       		.byte	0x1
 3624 0b77 D2000000 		.4byte	0xd2
 3625 0b7b 00000000 		.4byte	.LFB21
 3626 0b7f 68000000 		.4byte	.LFE21
 3627 0b83 CD080000 		.4byte	.LLST76
 3628 0b87 300C0000 		.4byte	0xc30
 3629 0b8b 1E       		.uleb128 0x1e
 3630 0b8c F8000000 		.4byte	.LASF69
 3631 0b90 01       		.byte	0x1
 3632 0b91 E201     		.2byte	0x1e2
 3633 0b93 D2000000 		.4byte	0xd2
 3634 0b97 ED080000 		.4byte	.LLST77
 3635 0b9b 1E       		.uleb128 0x1e
 3636 0b9c 66020000 		.4byte	.LASF84
 3637 0ba0 01       		.byte	0x1
 3638 0ba1 E201     		.2byte	0x1e2
 3639 0ba3 DD000000 		.4byte	0xdd
 3640 0ba7 21090000 		.4byte	.LLST78
 3641 0bab 1F       		.uleb128 0x1f
 3642 0bac 63747000 		.ascii	"ctp\000"
 3643 0bb0 01       		.byte	0x1
 3644 0bb1 E301     		.2byte	0x1e3
 3645 0bb3 2C020000 		.4byte	0x22c
 3646 0bb7 3F090000 		.4byte	.LLST79
 3647 0bbb 17       		.uleb128 0x17
 3648 0bbc 0A000000 		.4byte	.LBB29
 3649 0bc0 10000000 		.4byte	.LBE29
 3650 0bc4 D90B0000 		.4byte	0xbd9
 3651 0bc8 1F       		.uleb128 0x1f
 3652 0bc9 746D7000 		.ascii	"tmp\000"
 3653 0bcd 01       		.byte	0x1
 3654 0bce E501     		.2byte	0x1e5
 3655 0bd0 70000000 		.4byte	0x70
 3656 0bd4 5E090000 		.4byte	.LLST80
 3657 0bd8 00       		.byte	0x0
 3658 0bd9 17       		.uleb128 0x17
 3659 0bda 3C000000 		.4byte	.LBB30
 3660 0bde 42000000 		.4byte	.LBE30
 3661 0be2 F70B0000 		.4byte	0xbf7
 3662 0be6 1F       		.uleb128 0x1f
ARM GAS  C:\Users\z80\AppData\Local\Temp\cclkQXgD.s 			page 66


 3663 0be7 746D7000 		.ascii	"tmp\000"
 3664 0beb 01       		.byte	0x1
 3665 0bec F401     		.2byte	0x1f4
 3666 0bee 70000000 		.4byte	0x70
 3667 0bf2 71090000 		.4byte	.LLST81
 3668 0bf6 00       		.byte	0x0
 3669 0bf7 17       		.uleb128 0x17
 3670 0bf8 4A000000 		.4byte	.LBB31
 3671 0bfc 50000000 		.4byte	.LBE31
 3672 0c00 150C0000 		.4byte	0xc15
 3673 0c04 1F       		.uleb128 0x1f
 3674 0c05 746D7000 		.ascii	"tmp\000"
 3675 0c09 01       		.byte	0x1
 3676 0c0a E901     		.2byte	0x1e9
 3677 0c0c 70000000 		.4byte	0x70
 3678 0c10 84090000 		.4byte	.LLST82
 3679 0c14 00       		.byte	0x0
 3680 0c15 19       		.uleb128 0x19
 3681 0c16 58000000 		.4byte	.LBB32
 3682 0c1a 5E000000 		.4byte	.LBE32
 3683 0c1e 1F       		.uleb128 0x1f
 3684 0c1f 746D7000 		.ascii	"tmp\000"
 3685 0c23 01       		.byte	0x1
 3686 0c24 EE01     		.2byte	0x1ee
 3687 0c26 70000000 		.4byte	0x70
 3688 0c2a A2090000 		.4byte	.LLST83
 3689 0c2e 00       		.byte	0x0
 3690 0c2f 00       		.byte	0x0
 3691 0c30 21       		.uleb128 0x21
 3692 0c31 A9030000 		.4byte	.LASF87
 3693 0c35 07       		.byte	0x7
 3694 0c36 72       		.byte	0x72
 3695 0c37 9A030000 		.4byte	0x39a
 3696 0c3b 01       		.byte	0x1
 3697 0c3c 01       		.byte	0x1
 3698 0c3d 21       		.uleb128 0x21
 3699 0c3e A9030000 		.4byte	.LASF87
 3700 0c42 07       		.byte	0x7
 3701 0c43 72       		.byte	0x72
 3702 0c44 9A030000 		.4byte	0x39a
 3703 0c48 01       		.byte	0x1
 3704 0c49 01       		.byte	0x1
 3705 0c4a 00       		.byte	0x0
 3706              		.section	.debug_abbrev
 3707 0000 01       		.uleb128 0x1
 3708 0001 11       		.uleb128 0x11
 3709 0002 01       		.byte	0x1
 3710 0003 25       		.uleb128 0x25
 3711 0004 0E       		.uleb128 0xe
 3712 0005 13       		.uleb128 0x13
 3713 0006 0B       		.uleb128 0xb
 3714 0007 03       		.uleb128 0x3
 3715 0008 0E       		.uleb128 0xe
 3716 0009 1B       		.uleb128 0x1b
 3717 000a 0E       		.uleb128 0xe
 3718 000b 11       		.uleb128 0x11
 3719 000c 01       		.uleb128 0x1
ARM GAS  C:\Users\z80\AppData\Local\Temp\cclkQXgD.s 			page 67


 3720 000d 52       		.uleb128 0x52
 3721 000e 01       		.uleb128 0x1
 3722 000f 55       		.uleb128 0x55
 3723 0010 06       		.uleb128 0x6
 3724 0011 10       		.uleb128 0x10
 3725 0012 06       		.uleb128 0x6
 3726 0013 00       		.byte	0x0
 3727 0014 00       		.byte	0x0
 3728 0015 02       		.uleb128 0x2
 3729 0016 24       		.uleb128 0x24
 3730 0017 00       		.byte	0x0
 3731 0018 0B       		.uleb128 0xb
 3732 0019 0B       		.uleb128 0xb
 3733 001a 3E       		.uleb128 0x3e
 3734 001b 0B       		.uleb128 0xb
 3735 001c 03       		.uleb128 0x3
 3736 001d 08       		.uleb128 0x8
 3737 001e 00       		.byte	0x0
 3738 001f 00       		.byte	0x0
 3739 0020 03       		.uleb128 0x3
 3740 0021 24       		.uleb128 0x24
 3741 0022 00       		.byte	0x0
 3742 0023 0B       		.uleb128 0xb
 3743 0024 0B       		.uleb128 0xb
 3744 0025 3E       		.uleb128 0x3e
 3745 0026 0B       		.uleb128 0xb
 3746 0027 03       		.uleb128 0x3
 3747 0028 0E       		.uleb128 0xe
 3748 0029 00       		.byte	0x0
 3749 002a 00       		.byte	0x0
 3750 002b 04       		.uleb128 0x4
 3751 002c 16       		.uleb128 0x16
 3752 002d 00       		.byte	0x0
 3753 002e 03       		.uleb128 0x3
 3754 002f 0E       		.uleb128 0xe
 3755 0030 3A       		.uleb128 0x3a
 3756 0031 0B       		.uleb128 0xb
 3757 0032 3B       		.uleb128 0x3b
 3758 0033 0B       		.uleb128 0xb
 3759 0034 49       		.uleb128 0x49
 3760 0035 13       		.uleb128 0x13
 3761 0036 00       		.byte	0x0
 3762 0037 00       		.byte	0x0
 3763 0038 05       		.uleb128 0x5
 3764 0039 13       		.uleb128 0x13
 3765 003a 01       		.byte	0x1
 3766 003b 03       		.uleb128 0x3
 3767 003c 0E       		.uleb128 0xe
 3768 003d 0B       		.uleb128 0xb
 3769 003e 0B       		.uleb128 0xb
 3770 003f 3A       		.uleb128 0x3a
 3771 0040 0B       		.uleb128 0xb
 3772 0041 3B       		.uleb128 0x3b
 3773 0042 0B       		.uleb128 0xb
 3774 0043 01       		.uleb128 0x1
 3775 0044 13       		.uleb128 0x13
 3776 0045 00       		.byte	0x0
ARM GAS  C:\Users\z80\AppData\Local\Temp\cclkQXgD.s 			page 68


 3777 0046 00       		.byte	0x0
 3778 0047 06       		.uleb128 0x6
 3779 0048 0D       		.uleb128 0xd
 3780 0049 00       		.byte	0x0
 3781 004a 03       		.uleb128 0x3
 3782 004b 0E       		.uleb128 0xe
 3783 004c 3A       		.uleb128 0x3a
 3784 004d 0B       		.uleb128 0xb
 3785 004e 3B       		.uleb128 0x3b
 3786 004f 0B       		.uleb128 0xb
 3787 0050 49       		.uleb128 0x49
 3788 0051 13       		.uleb128 0x13
 3789 0052 38       		.uleb128 0x38
 3790 0053 0A       		.uleb128 0xa
 3791 0054 00       		.byte	0x0
 3792 0055 00       		.byte	0x0
 3793 0056 07       		.uleb128 0x7
 3794 0057 0D       		.uleb128 0xd
 3795 0058 00       		.byte	0x0
 3796 0059 03       		.uleb128 0x3
 3797 005a 08       		.uleb128 0x8
 3798 005b 3A       		.uleb128 0x3a
 3799 005c 0B       		.uleb128 0xb
 3800 005d 3B       		.uleb128 0x3b
 3801 005e 0B       		.uleb128 0xb
 3802 005f 49       		.uleb128 0x49
 3803 0060 13       		.uleb128 0x13
 3804 0061 38       		.uleb128 0x38
 3805 0062 0A       		.uleb128 0xa
 3806 0063 00       		.byte	0x0
 3807 0064 00       		.byte	0x0
 3808 0065 08       		.uleb128 0x8
 3809 0066 13       		.uleb128 0x13
 3810 0067 01       		.byte	0x1
 3811 0068 0B       		.uleb128 0xb
 3812 0069 0B       		.uleb128 0xb
 3813 006a 3A       		.uleb128 0x3a
 3814 006b 0B       		.uleb128 0xb
 3815 006c 3B       		.uleb128 0x3b
 3816 006d 0B       		.uleb128 0xb
 3817 006e 01       		.uleb128 0x1
 3818 006f 13       		.uleb128 0x13
 3819 0070 00       		.byte	0x0
 3820 0071 00       		.byte	0x0
 3821 0072 09       		.uleb128 0x9
 3822 0073 0F       		.uleb128 0xf
 3823 0074 00       		.byte	0x0
 3824 0075 0B       		.uleb128 0xb
 3825 0076 0B       		.uleb128 0xb
 3826 0077 49       		.uleb128 0x49
 3827 0078 13       		.uleb128 0x13
 3828 0079 00       		.byte	0x0
 3829 007a 00       		.byte	0x0
 3830 007b 0A       		.uleb128 0xa
 3831 007c 0F       		.uleb128 0xf
 3832 007d 00       		.byte	0x0
 3833 007e 0B       		.uleb128 0xb
ARM GAS  C:\Users\z80\AppData\Local\Temp\cclkQXgD.s 			page 69


 3834 007f 0B       		.uleb128 0xb
 3835 0080 00       		.byte	0x0
 3836 0081 00       		.byte	0x0
 3837 0082 0B       		.uleb128 0xb
 3838 0083 0D       		.uleb128 0xd
 3839 0084 00       		.byte	0x0
 3840 0085 03       		.uleb128 0x3
 3841 0086 08       		.uleb128 0x8
 3842 0087 3A       		.uleb128 0x3a
 3843 0088 0B       		.uleb128 0xb
 3844 0089 3B       		.uleb128 0x3b
 3845 008a 05       		.uleb128 0x5
 3846 008b 49       		.uleb128 0x49
 3847 008c 13       		.uleb128 0x13
 3848 008d 38       		.uleb128 0x38
 3849 008e 0A       		.uleb128 0xa
 3850 008f 00       		.byte	0x0
 3851 0090 00       		.byte	0x0
 3852 0091 0C       		.uleb128 0xc
 3853 0092 13       		.uleb128 0x13
 3854 0093 01       		.byte	0x1
 3855 0094 03       		.uleb128 0x3
 3856 0095 0E       		.uleb128 0xe
 3857 0096 0B       		.uleb128 0xb
 3858 0097 0B       		.uleb128 0xb
 3859 0098 3A       		.uleb128 0x3a
 3860 0099 0B       		.uleb128 0xb
 3861 009a 3B       		.uleb128 0x3b
 3862 009b 05       		.uleb128 0x5
 3863 009c 01       		.uleb128 0x1
 3864 009d 13       		.uleb128 0x13
 3865 009e 00       		.byte	0x0
 3866 009f 00       		.byte	0x0
 3867 00a0 0D       		.uleb128 0xd
 3868 00a1 24       		.uleb128 0x24
 3869 00a2 00       		.byte	0x0
 3870 00a3 0B       		.uleb128 0xb
 3871 00a4 0B       		.uleb128 0xb
 3872 00a5 3E       		.uleb128 0x3e
 3873 00a6 0B       		.uleb128 0xb
 3874 00a7 00       		.byte	0x0
 3875 00a8 00       		.byte	0x0
 3876 00a9 0E       		.uleb128 0xe
 3877 00aa 35       		.uleb128 0x35
 3878 00ab 00       		.byte	0x0
 3879 00ac 49       		.uleb128 0x49
 3880 00ad 13       		.uleb128 0x13
 3881 00ae 00       		.byte	0x0
 3882 00af 00       		.byte	0x0
 3883 00b0 0F       		.uleb128 0xf
 3884 00b1 15       		.uleb128 0x15
 3885 00b2 01       		.byte	0x1
 3886 00b3 27       		.uleb128 0x27
 3887 00b4 0C       		.uleb128 0xc
 3888 00b5 01       		.uleb128 0x1
 3889 00b6 13       		.uleb128 0x13
 3890 00b7 00       		.byte	0x0
ARM GAS  C:\Users\z80\AppData\Local\Temp\cclkQXgD.s 			page 70


 3891 00b8 00       		.byte	0x0
 3892 00b9 10       		.uleb128 0x10
 3893 00ba 05       		.uleb128 0x5
 3894 00bb 00       		.byte	0x0
 3895 00bc 49       		.uleb128 0x49
 3896 00bd 13       		.uleb128 0x13
 3897 00be 00       		.byte	0x0
 3898 00bf 00       		.byte	0x0
 3899 00c0 11       		.uleb128 0x11
 3900 00c1 17       		.uleb128 0x17
 3901 00c2 01       		.byte	0x1
 3902 00c3 0B       		.uleb128 0xb
 3903 00c4 0B       		.uleb128 0xb
 3904 00c5 3A       		.uleb128 0x3a
 3905 00c6 0B       		.uleb128 0xb
 3906 00c7 3B       		.uleb128 0x3b
 3907 00c8 0B       		.uleb128 0xb
 3908 00c9 01       		.uleb128 0x1
 3909 00ca 13       		.uleb128 0x13
 3910 00cb 00       		.byte	0x0
 3911 00cc 00       		.byte	0x0
 3912 00cd 12       		.uleb128 0x12
 3913 00ce 0D       		.uleb128 0xd
 3914 00cf 00       		.byte	0x0
 3915 00d0 03       		.uleb128 0x3
 3916 00d1 0E       		.uleb128 0xe
 3917 00d2 3A       		.uleb128 0x3a
 3918 00d3 0B       		.uleb128 0xb
 3919 00d4 3B       		.uleb128 0x3b
 3920 00d5 0B       		.uleb128 0xb
 3921 00d6 49       		.uleb128 0x49
 3922 00d7 13       		.uleb128 0x13
 3923 00d8 00       		.byte	0x0
 3924 00d9 00       		.byte	0x0
 3925 00da 13       		.uleb128 0x13
 3926 00db 26       		.uleb128 0x26
 3927 00dc 00       		.byte	0x0
 3928 00dd 49       		.uleb128 0x49
 3929 00de 13       		.uleb128 0x13
 3930 00df 00       		.byte	0x0
 3931 00e0 00       		.byte	0x0
 3932 00e1 14       		.uleb128 0x14
 3933 00e2 2E       		.uleb128 0x2e
 3934 00e3 01       		.byte	0x1
 3935 00e4 3F       		.uleb128 0x3f
 3936 00e5 0C       		.uleb128 0xc
 3937 00e6 03       		.uleb128 0x3
 3938 00e7 0E       		.uleb128 0xe
 3939 00e8 3A       		.uleb128 0x3a
 3940 00e9 0B       		.uleb128 0xb
 3941 00ea 3B       		.uleb128 0x3b
 3942 00eb 0B       		.uleb128 0xb
 3943 00ec 27       		.uleb128 0x27
 3944 00ed 0C       		.uleb128 0xc
 3945 00ee 11       		.uleb128 0x11
 3946 00ef 01       		.uleb128 0x1
 3947 00f0 12       		.uleb128 0x12
ARM GAS  C:\Users\z80\AppData\Local\Temp\cclkQXgD.s 			page 71


 3948 00f1 01       		.uleb128 0x1
 3949 00f2 40       		.uleb128 0x40
 3950 00f3 06       		.uleb128 0x6
 3951 00f4 01       		.uleb128 0x1
 3952 00f5 13       		.uleb128 0x13
 3953 00f6 00       		.byte	0x0
 3954 00f7 00       		.byte	0x0
 3955 00f8 15       		.uleb128 0x15
 3956 00f9 05       		.uleb128 0x5
 3957 00fa 00       		.byte	0x0
 3958 00fb 03       		.uleb128 0x3
 3959 00fc 08       		.uleb128 0x8
 3960 00fd 3A       		.uleb128 0x3a
 3961 00fe 0B       		.uleb128 0xb
 3962 00ff 3B       		.uleb128 0x3b
 3963 0100 0B       		.uleb128 0xb
 3964 0101 49       		.uleb128 0x49
 3965 0102 13       		.uleb128 0x13
 3966 0103 02       		.uleb128 0x2
 3967 0104 06       		.uleb128 0x6
 3968 0105 00       		.byte	0x0
 3969 0106 00       		.byte	0x0
 3970 0107 16       		.uleb128 0x16
 3971 0108 05       		.uleb128 0x5
 3972 0109 00       		.byte	0x0
 3973 010a 03       		.uleb128 0x3
 3974 010b 0E       		.uleb128 0xe
 3975 010c 3A       		.uleb128 0x3a
 3976 010d 0B       		.uleb128 0xb
 3977 010e 3B       		.uleb128 0x3b
 3978 010f 0B       		.uleb128 0xb
 3979 0110 49       		.uleb128 0x49
 3980 0111 13       		.uleb128 0x13
 3981 0112 02       		.uleb128 0x2
 3982 0113 06       		.uleb128 0x6
 3983 0114 00       		.byte	0x0
 3984 0115 00       		.byte	0x0
 3985 0116 17       		.uleb128 0x17
 3986 0117 0B       		.uleb128 0xb
 3987 0118 01       		.byte	0x1
 3988 0119 11       		.uleb128 0x11
 3989 011a 01       		.uleb128 0x1
 3990 011b 12       		.uleb128 0x12
 3991 011c 01       		.uleb128 0x1
 3992 011d 01       		.uleb128 0x1
 3993 011e 13       		.uleb128 0x13
 3994 011f 00       		.byte	0x0
 3995 0120 00       		.byte	0x0
 3996 0121 18       		.uleb128 0x18
 3997 0122 34       		.uleb128 0x34
 3998 0123 00       		.byte	0x0
 3999 0124 03       		.uleb128 0x3
 4000 0125 08       		.uleb128 0x8
 4001 0126 3A       		.uleb128 0x3a
 4002 0127 0B       		.uleb128 0xb
 4003 0128 3B       		.uleb128 0x3b
 4004 0129 0B       		.uleb128 0xb
ARM GAS  C:\Users\z80\AppData\Local\Temp\cclkQXgD.s 			page 72


 4005 012a 49       		.uleb128 0x49
 4006 012b 13       		.uleb128 0x13
 4007 012c 02       		.uleb128 0x2
 4008 012d 06       		.uleb128 0x6
 4009 012e 00       		.byte	0x0
 4010 012f 00       		.byte	0x0
 4011 0130 19       		.uleb128 0x19
 4012 0131 0B       		.uleb128 0xb
 4013 0132 01       		.byte	0x1
 4014 0133 11       		.uleb128 0x11
 4015 0134 01       		.uleb128 0x1
 4016 0135 12       		.uleb128 0x12
 4017 0136 01       		.uleb128 0x1
 4018 0137 00       		.byte	0x0
 4019 0138 00       		.byte	0x0
 4020 0139 1A       		.uleb128 0x1a
 4021 013a 2E       		.uleb128 0x2e
 4022 013b 01       		.byte	0x1
 4023 013c 3F       		.uleb128 0x3f
 4024 013d 0C       		.uleb128 0xc
 4025 013e 03       		.uleb128 0x3
 4026 013f 0E       		.uleb128 0xe
 4027 0140 3A       		.uleb128 0x3a
 4028 0141 0B       		.uleb128 0xb
 4029 0142 3B       		.uleb128 0x3b
 4030 0143 0B       		.uleb128 0xb
 4031 0144 27       		.uleb128 0x27
 4032 0145 0C       		.uleb128 0xc
 4033 0146 49       		.uleb128 0x49
 4034 0147 13       		.uleb128 0x13
 4035 0148 11       		.uleb128 0x11
 4036 0149 01       		.uleb128 0x1
 4037 014a 12       		.uleb128 0x12
 4038 014b 01       		.uleb128 0x1
 4039 014c 40       		.uleb128 0x40
 4040 014d 06       		.uleb128 0x6
 4041 014e 01       		.uleb128 0x1
 4042 014f 13       		.uleb128 0x13
 4043 0150 00       		.byte	0x0
 4044 0151 00       		.byte	0x0
 4045 0152 1B       		.uleb128 0x1b
 4046 0153 34       		.uleb128 0x34
 4047 0154 00       		.byte	0x0
 4048 0155 03       		.uleb128 0x3
 4049 0156 08       		.uleb128 0x8
 4050 0157 3A       		.uleb128 0x3a
 4051 0158 0B       		.uleb128 0xb
 4052 0159 3B       		.uleb128 0x3b
 4053 015a 0B       		.uleb128 0xb
 4054 015b 49       		.uleb128 0x49
 4055 015c 13       		.uleb128 0x13
 4056 015d 02       		.uleb128 0x2
 4057 015e 0A       		.uleb128 0xa
 4058 015f 00       		.byte	0x0
 4059 0160 00       		.byte	0x0
 4060 0161 1C       		.uleb128 0x1c
 4061 0162 0B       		.uleb128 0xb
ARM GAS  C:\Users\z80\AppData\Local\Temp\cclkQXgD.s 			page 73


 4062 0163 01       		.byte	0x1
 4063 0164 55       		.uleb128 0x55
 4064 0165 06       		.uleb128 0x6
 4065 0166 01       		.uleb128 0x1
 4066 0167 13       		.uleb128 0x13
 4067 0168 00       		.byte	0x0
 4068 0169 00       		.byte	0x0
 4069 016a 1D       		.uleb128 0x1d
 4070 016b 2E       		.uleb128 0x2e
 4071 016c 01       		.byte	0x1
 4072 016d 3F       		.uleb128 0x3f
 4073 016e 0C       		.uleb128 0xc
 4074 016f 03       		.uleb128 0x3
 4075 0170 0E       		.uleb128 0xe
 4076 0171 3A       		.uleb128 0x3a
 4077 0172 0B       		.uleb128 0xb
 4078 0173 3B       		.uleb128 0x3b
 4079 0174 05       		.uleb128 0x5
 4080 0175 27       		.uleb128 0x27
 4081 0176 0C       		.uleb128 0xc
 4082 0177 11       		.uleb128 0x11
 4083 0178 01       		.uleb128 0x1
 4084 0179 12       		.uleb128 0x12
 4085 017a 01       		.uleb128 0x1
 4086 017b 40       		.uleb128 0x40
 4087 017c 06       		.uleb128 0x6
 4088 017d 01       		.uleb128 0x1
 4089 017e 13       		.uleb128 0x13
 4090 017f 00       		.byte	0x0
 4091 0180 00       		.byte	0x0
 4092 0181 1E       		.uleb128 0x1e
 4093 0182 05       		.uleb128 0x5
 4094 0183 00       		.byte	0x0
 4095 0184 03       		.uleb128 0x3
 4096 0185 0E       		.uleb128 0xe
 4097 0186 3A       		.uleb128 0x3a
 4098 0187 0B       		.uleb128 0xb
 4099 0188 3B       		.uleb128 0x3b
 4100 0189 05       		.uleb128 0x5
 4101 018a 49       		.uleb128 0x49
 4102 018b 13       		.uleb128 0x13
 4103 018c 02       		.uleb128 0x2
 4104 018d 06       		.uleb128 0x6
 4105 018e 00       		.byte	0x0
 4106 018f 00       		.byte	0x0
 4107 0190 1F       		.uleb128 0x1f
 4108 0191 34       		.uleb128 0x34
 4109 0192 00       		.byte	0x0
 4110 0193 03       		.uleb128 0x3
 4111 0194 08       		.uleb128 0x8
 4112 0195 3A       		.uleb128 0x3a
 4113 0196 0B       		.uleb128 0xb
 4114 0197 3B       		.uleb128 0x3b
 4115 0198 05       		.uleb128 0x5
 4116 0199 49       		.uleb128 0x49
 4117 019a 13       		.uleb128 0x13
 4118 019b 02       		.uleb128 0x2
ARM GAS  C:\Users\z80\AppData\Local\Temp\cclkQXgD.s 			page 74


 4119 019c 06       		.uleb128 0x6
 4120 019d 00       		.byte	0x0
 4121 019e 00       		.byte	0x0
 4122 019f 20       		.uleb128 0x20
 4123 01a0 2E       		.uleb128 0x2e
 4124 01a1 01       		.byte	0x1
 4125 01a2 3F       		.uleb128 0x3f
 4126 01a3 0C       		.uleb128 0xc
 4127 01a4 03       		.uleb128 0x3
 4128 01a5 0E       		.uleb128 0xe
 4129 01a6 3A       		.uleb128 0x3a
 4130 01a7 0B       		.uleb128 0xb
 4131 01a8 3B       		.uleb128 0x3b
 4132 01a9 05       		.uleb128 0x5
 4133 01aa 27       		.uleb128 0x27
 4134 01ab 0C       		.uleb128 0xc
 4135 01ac 49       		.uleb128 0x49
 4136 01ad 13       		.uleb128 0x13
 4137 01ae 11       		.uleb128 0x11
 4138 01af 01       		.uleb128 0x1
 4139 01b0 12       		.uleb128 0x12
 4140 01b1 01       		.uleb128 0x1
 4141 01b2 40       		.uleb128 0x40
 4142 01b3 06       		.uleb128 0x6
 4143 01b4 01       		.uleb128 0x1
 4144 01b5 13       		.uleb128 0x13
 4145 01b6 00       		.byte	0x0
 4146 01b7 00       		.byte	0x0
 4147 01b8 21       		.uleb128 0x21
 4148 01b9 34       		.uleb128 0x34
 4149 01ba 00       		.byte	0x0
 4150 01bb 03       		.uleb128 0x3
 4151 01bc 0E       		.uleb128 0xe
 4152 01bd 3A       		.uleb128 0x3a
 4153 01be 0B       		.uleb128 0xb
 4154 01bf 3B       		.uleb128 0x3b
 4155 01c0 0B       		.uleb128 0xb
 4156 01c1 49       		.uleb128 0x49
 4157 01c2 13       		.uleb128 0x13
 4158 01c3 3F       		.uleb128 0x3f
 4159 01c4 0C       		.uleb128 0xc
 4160 01c5 3C       		.uleb128 0x3c
 4161 01c6 0C       		.uleb128 0xc
 4162 01c7 00       		.byte	0x0
 4163 01c8 00       		.byte	0x0
 4164 01c9 00       		.byte	0x0
 4165              		.section	.debug_pubnames,"",%progbits
 4166 0000 47010000 		.4byte	0x147
 4167 0004 0200     		.2byte	0x2
 4168 0006 00000000 		.4byte	.Ldebug_info0
 4169 000a 4B0C0000 		.4byte	0xc4b
 4170 000e CB040000 		.4byte	0x4cb
 4171 0012 63684576 		.ascii	"chEvtRegisterMask\000"
 4171      74526567 
 4171      69737465 
 4171      724D6173 
 4171      6B00
ARM GAS  C:\Users\z80\AppData\Local\Temp\cclkQXgD.s 			page 75


 4172 0024 4E050000 		.4byte	0x54e
 4173 0028 63684576 		.ascii	"chEvtUnregister\000"
 4173      74556E72 
 4173      65676973 
 4173      74657200 
 4174 0038 C9050000 		.4byte	0x5c9
 4175 003c 63684576 		.ascii	"chEvtClearFlags\000"
 4175      74436C65 
 4175      6172466C 
 4175      61677300 
 4176 004c 3C060000 		.4byte	0x63c
 4177 0050 63684576 		.ascii	"chEvtAddFlags\000"
 4177      74416464 
 4177      466C6167 
 4177      7300
 4178 005e 9B060000 		.4byte	0x69b
 4179 0062 63684576 		.ascii	"chEvtSignalFlagsI\000"
 4179      74536967 
 4179      6E616C46 
 4179      6C616773 
 4179      4900
 4180 0074 D2060000 		.4byte	0x6d2
 4181 0078 63684576 		.ascii	"chEvtSignalFlags\000"
 4181      74536967 
 4181      6E616C46 
 4181      6C616773 
 4181      00
 4182 0089 3F070000 		.4byte	0x73f
 4183 008d 63684576 		.ascii	"chEvtBroadcastFlagsI\000"
 4183      7442726F 
 4183      61646361 
 4183      7374466C 
 4183      61677349 
 4184 00a2 86070000 		.4byte	0x786
 4185 00a6 63684576 		.ascii	"chEvtBroadcastFlags\000"
 4185      7442726F 
 4185      61646361 
 4185      7374466C 
 4185      61677300 
 4186 00ba F4070000 		.4byte	0x7f4
 4187 00be 63684576 		.ascii	"chEvtDispatch\000"
 4187      74446973 
 4187      70617463 
 4187      6800
 4188 00cc 4A080000 		.4byte	0x84a
 4189 00d0 63684576 		.ascii	"chEvtWaitOne\000"
 4189      74576169 
 4189      744F6E65 
 4189      00
 4190 00dd CF080000 		.4byte	0x8cf
 4191 00e1 63684576 		.ascii	"chEvtWaitAny\000"
 4191      74576169 
 4191      74416E79 
 4191      00
 4192 00ee 54090000 		.4byte	0x954
 4193 00f2 63684576 		.ascii	"chEvtWaitAll\000"
 4193      74576169 
ARM GAS  C:\Users\z80\AppData\Local\Temp\cclkQXgD.s 			page 76


 4193      74416C6C 
 4193      00
 4194 00ff CB090000 		.4byte	0x9cb
 4195 0103 63684576 		.ascii	"chEvtWaitOneTimeout\000"
 4195      74576169 
 4195      744F6E65 
 4195      54696D65 
 4195      6F757400 
 4196 0117 9C0A0000 		.4byte	0xa9c
 4197 011b 63684576 		.ascii	"chEvtWaitAnyTimeout\000"
 4197      74576169 
 4197      74416E79 
 4197      54696D65 
 4197      6F757400 
 4198 012f 6D0B0000 		.4byte	0xb6d
 4199 0133 63684576 		.ascii	"chEvtWaitAllTimeout\000"
 4199      74576169 
 4199      74416C6C 
 4199      54696D65 
 4199      6F757400 
 4200 0147 00000000 		.4byte	0x0
 4201              		.section	.debug_pubtypes,"",%progbits
 4202 0000 85010000 		.4byte	0x185
 4203 0004 0200     		.2byte	0x2
 4204 0006 00000000 		.4byte	.Ldebug_info0
 4205 000a 4B0C0000 		.4byte	0xc4b
 4206 000e 3E000000 		.4byte	0x3e
 4207 0012 75696E74 		.ascii	"uint8_t\000"
 4207      385F7400 
 4208 001a 5E000000 		.4byte	0x5e
 4209 001e 696E7433 		.ascii	"int32_t\000"
 4209      325F7400 
 4210 0026 70000000 		.4byte	0x70
 4211 002a 75696E74 		.ascii	"uint32_t\000"
 4211      33325F74 
 4211      00
 4212 0033 89000000 		.4byte	0x89
 4213 0037 75696E74 		.ascii	"uint64_t\000"
 4213      36345F74 
 4213      00
 4214 0040 9B000000 		.4byte	0x9b
 4215 0044 746D6F64 		.ascii	"tmode_t\000"
 4215      655F7400 
 4216 004c A6000000 		.4byte	0xa6
 4217 0050 74737461 		.ascii	"tstate_t\000"
 4217      74655F74 
 4217      00
 4218 0059 B1000000 		.4byte	0xb1
 4219 005d 74707269 		.ascii	"tprio_t\000"
 4219      6F5F7400 
 4220 0065 BC000000 		.4byte	0xbc
 4221 0069 6D73675F 		.ascii	"msg_t\000"
 4221      7400
 4222 006f C7000000 		.4byte	0xc7
 4223 0073 6576656E 		.ascii	"eventid_t\000"
 4223      7469645F 
 4223      7400
ARM GAS  C:\Users\z80\AppData\Local\Temp\cclkQXgD.s 			page 77


 4224 007d D2000000 		.4byte	0xd2
 4225 0081 6576656E 		.ascii	"eventmask_t\000"
 4225      746D6173 
 4225      6B5F7400 
 4226 008d DD000000 		.4byte	0xdd
 4227 0091 73797374 		.ascii	"systime_t\000"
 4227      696D655F 
 4227      7400
 4228 009b E8000000 		.4byte	0xe8
 4229 009f 636E745F 		.ascii	"cnt_t\000"
 4229      7400
 4230 00a5 F3000000 		.4byte	0xf3
 4231 00a9 54687265 		.ascii	"Thread\000"
 4231      616400
 4232 00b0 32020000 		.4byte	0x232
 4233 00b4 54687265 		.ascii	"ThreadsQueue\000"
 4233      61647351 
 4233      75657565 
 4233      00
 4234 00c1 54020000 		.4byte	0x254
 4235 00c5 54687265 		.ascii	"ThreadsList\000"
 4235      6164734C 
 4235      69737400 
 4236 00d1 5F020000 		.4byte	0x25f
 4237 00d5 72656761 		.ascii	"regarm_t\000"
 4237      726D5F74 
 4237      00
 4238 00de 6C020000 		.4byte	0x26c
 4239 00e2 73746B61 		.ascii	"stkalign_t\000"
 4239      6C69676E 
 4239      5F7400
 4240 00ed 77020000 		.4byte	0x277
 4241 00f1 696E7463 		.ascii	"intctx\000"
 4241      747800
 4242 00f8 04030000 		.4byte	0x304
 4243 00fc 636F6E74 		.ascii	"context\000"
 4243      65787400 
 4244 0104 9A030000 		.4byte	0x39a
 4245 0108 52656164 		.ascii	"ReadyList\000"
 4245      794C6973 
 4245      7400
 4246 0112 A5030000 		.4byte	0x3a5
 4247 0116 4D757465 		.ascii	"Mutex\000"
 4247      7800
 4248 011c E2030000 		.4byte	0x3e2
 4249 0120 4D757465 		.ascii	"Mutex\000"
 4249      7800
 4250 0126 ED030000 		.4byte	0x3ed
 4251 012a 4576656E 		.ascii	"EventListener\000"
 4251      744C6973 
 4251      74656E65 
 4251      7200
 4252 0138 F8030000 		.4byte	0x3f8
 4253 013c 4576656E 		.ascii	"EventListener\000"
 4253      744C6973 
 4253      74656E65 
 4253      7200
ARM GAS  C:\Users\z80\AppData\Local\Temp\cclkQXgD.s 			page 78


 4254 014a 35040000 		.4byte	0x435
 4255 014e 4576656E 		.ascii	"EventSource\000"
 4255      74536F75 
 4255      72636500 
 4256 015a 50040000 		.4byte	0x450
 4257 015e 4576656E 		.ascii	"EventSource\000"
 4257      74536F75 
 4257      72636500 
 4258 016a 5B040000 		.4byte	0x45b
 4259 016e 65766861 		.ascii	"evhandler_t\000"
 4259      6E646C65 
 4259      725F7400 
 4260 017a FE000000 		.4byte	0xfe
 4261 017e 54687265 		.ascii	"Thread\000"
 4261      616400
 4262 0185 00000000 		.4byte	0x0
 4263              		.section	.debug_aranges,"",%progbits
 4264 0000 8C000000 		.4byte	0x8c
 4265 0004 0200     		.2byte	0x2
 4266 0006 00000000 		.4byte	.Ldebug_info0
 4267 000a 04       		.byte	0x4
 4268 000b 00       		.byte	0x0
 4269 000c 0000     		.2byte	0x0
 4270 000e 0000     		.2byte	0x0
 4271 0010 00000000 		.4byte	.LFB7
 4272 0014 4C000000 		.4byte	.LFE7-.LFB7
 4273 0018 00000000 		.4byte	.LFB8
 4274 001c 50000000 		.4byte	.LFE8-.LFB8
 4275 0020 00000000 		.4byte	.LFB9
 4276 0024 30000000 		.4byte	.LFE9-.LFB9
 4277 0028 00000000 		.4byte	.LFB10
 4278 002c 2C000000 		.4byte	.LFE10-.LFB10
 4279 0030 00000000 		.4byte	.LFB12
 4280 0034 54000000 		.4byte	.LFE12-.LFB12
 4281 0038 00000000 		.4byte	.LFB11
 4282 003c 38000000 		.4byte	.LFE11-.LFB11
 4283 0040 00000000 		.4byte	.LFB14
 4284 0044 34000000 		.4byte	.LFE14-.LFB14
 4285 0048 00000000 		.4byte	.LFB13
 4286 004c 28000000 		.4byte	.LFE13-.LFB13
 4287 0050 00000000 		.4byte	.LFB15
 4288 0054 50000000 		.4byte	.LFE15-.LFB15
 4289 0058 00000000 		.4byte	.LFB16
 4290 005c 44000000 		.4byte	.LFE16-.LFB16
 4291 0060 00000000 		.4byte	.LFB17
 4292 0064 40000000 		.4byte	.LFE17-.LFB17
 4293 0068 00000000 		.4byte	.LFB18
 4294 006c 40000000 		.4byte	.LFE18-.LFB18
 4295 0070 00000000 		.4byte	.LFB19
 4296 0074 68000000 		.4byte	.LFE19-.LFB19
 4297 0078 00000000 		.4byte	.LFB20
 4298 007c 64000000 		.4byte	.LFE20-.LFB20
 4299 0080 00000000 		.4byte	.LFB21
 4300 0084 68000000 		.4byte	.LFE21-.LFB21
 4301 0088 00000000 		.4byte	0x0
 4302 008c 00000000 		.4byte	0x0
 4303              		.section	.debug_ranges,"",%progbits
ARM GAS  C:\Users\z80\AppData\Local\Temp\cclkQXgD.s 			page 79


 4304              	.Ldebug_ranges0:
 4305 0000 02000000 		.4byte	.LBB8
 4306 0004 04000000 		.4byte	.LBE8
 4307 0008 06000000 		.4byte	.LBB9
 4308 000c 0A000000 		.4byte	.LBE9
 4309 0010 00000000 		.4byte	0x0
 4310 0014 00000000 		.4byte	0x0
 4311 0018 00000000 		.4byte	.LFB7
 4312 001c 4C000000 		.4byte	.LFE7
 4313 0020 00000000 		.4byte	.LFB8
 4314 0024 50000000 		.4byte	.LFE8
 4315 0028 00000000 		.4byte	.LFB9
 4316 002c 30000000 		.4byte	.LFE9
 4317 0030 00000000 		.4byte	.LFB10
 4318 0034 2C000000 		.4byte	.LFE10
 4319 0038 00000000 		.4byte	.LFB12
 4320 003c 54000000 		.4byte	.LFE12
 4321 0040 00000000 		.4byte	.LFB11
 4322 0044 38000000 		.4byte	.LFE11
 4323 0048 00000000 		.4byte	.LFB14
 4324 004c 34000000 		.4byte	.LFE14
 4325 0050 00000000 		.4byte	.LFB13
 4326 0054 28000000 		.4byte	.LFE13
 4327 0058 00000000 		.4byte	.LFB15
 4328 005c 50000000 		.4byte	.LFE15
 4329 0060 00000000 		.4byte	.LFB16
 4330 0064 44000000 		.4byte	.LFE16
 4331 0068 00000000 		.4byte	.LFB17
 4332 006c 40000000 		.4byte	.LFE17
 4333 0070 00000000 		.4byte	.LFB18
 4334 0074 40000000 		.4byte	.LFE18
 4335 0078 00000000 		.4byte	.LFB19
 4336 007c 68000000 		.4byte	.LFE19
 4337 0080 00000000 		.4byte	.LFB20
 4338 0084 64000000 		.4byte	.LFE20
 4339 0088 00000000 		.4byte	.LFB21
 4340 008c 68000000 		.4byte	.LFE21
 4341 0090 00000000 		.4byte	0x0
 4342 0094 00000000 		.4byte	0x0
 4343              		.section	.debug_str,"MS",%progbits,1
 4344              	.LASF35:
 4345 0000 705F6D73 		.ascii	"p_msg\000"
 4345      6700
 4346              	.LASF64:
 4347 0006 7264796D 		.ascii	"rdymsg\000"
 4347      736700
 4348              	.LASF11:
 4349 000d 75696E74 		.ascii	"uint64_t\000"
 4349      36345F74 
 4349      00
 4350              	.LASF12:
 4351 0016 6C6F6E67 		.ascii	"long long unsigned int\000"
 4351      206C6F6E 
 4351      6720756E 
 4351      7369676E 
 4351      65642069 
 4352              	.LASF65:
ARM GAS  C:\Users\z80\AppData\Local\Temp\cclkQXgD.s 			page 80


 4353 002d 65786974 		.ascii	"exitcode\000"
 4353      636F6465 
 4353      00
 4354              	.LASF74:
 4355 0036 63684576 		.ascii	"chEvtSignalFlagsI\000"
 4355      74536967 
 4355      6E616C46 
 4355      6C616773 
 4355      4900
 4356              	.LASF85:
 4357 0048 63684576 		.ascii	"chEvtWaitAnyTimeout\000"
 4357      74576169 
 4357      74416E79 
 4357      54696D65 
 4357      6F757400 
 4358              	.LASF24:
 4359 005c 705F7072 		.ascii	"p_prio\000"
 4359      696F00
 4360              	.LASF10:
 4361 0063 6C6F6E67 		.ascii	"long long int\000"
 4361      206C6F6E 
 4361      6720696E 
 4361      7400
 4362              	.LASF1:
 4363 0071 7369676E 		.ascii	"signed char\000"
 4363      65642063 
 4363      68617200 
 4364              	.LASF86:
 4365 007d 63684576 		.ascii	"chEvtWaitAllTimeout\000"
 4365      74576169 
 4365      74416C6C 
 4365      54696D65 
 4365      6F757400 
 4366              	.LASF54:
 4367 0091 6D5F7175 		.ascii	"m_queue\000"
 4367      65756500 
 4368              	.LASF73:
 4369 0099 63684576 		.ascii	"chEvtAddFlags\000"
 4369      74416464 
 4369      466C6167 
 4369      7300
 4370              	.LASF7:
 4371 00a7 6C6F6E67 		.ascii	"long int\000"
 4371      20696E74 
 4371      00
 4372              	.LASF14:
 4373 00b0 74737461 		.ascii	"tstate_t\000"
 4373      74655F74 
 4373      00
 4374              	.LASF82:
 4375 00b9 63684576 		.ascii	"chEvtWaitAll\000"
 4375      74576169 
 4375      74416C6C 
 4375      00
 4376              	.LASF81:
 4377 00c6 63684576 		.ascii	"chEvtWaitAny\000"
 4377      74576169 
ARM GAS  C:\Users\z80\AppData\Local\Temp\cclkQXgD.s 			page 81


 4377      74416E79 
 4377      00
 4378              	.LASF76:
 4379 00d3 63684576 		.ascii	"chEvtBroadcastFlagsI\000"
 4379      7442726F 
 4379      61646361 
 4379      7374466C 
 4379      61677349 
 4380              	.LASF26:
 4381 00e8 705F6E65 		.ascii	"p_newer\000"
 4381      77657200 
 4382              	.LASF48:
 4383 00f0 725F6E65 		.ascii	"r_newer\000"
 4383      77657200 
 4384              	.LASF69:
 4385 00f8 6D61736B 		.ascii	"mask\000"
 4385      00
 4386              	.LASF41:
 4387 00fd 72656761 		.ascii	"regarm_t\000"
 4387      726D5F74 
 4387      00
 4388              	.LASF77:
 4389 0106 63684576 		.ascii	"chEvtBroadcastFlags\000"
 4389      7442726F 
 4389      61646361 
 4389      7374466C 
 4389      61677300 
 4390              	.LASF17:
 4391 011a 6576656E 		.ascii	"eventid_t\000"
 4391      7469645F 
 4391      7400
 4392              	.LASF61:
 4393 0124 4576656E 		.ascii	"EventSource\000"
 4393      74536F75 
 4393      72636500 
 4394              	.LASF63:
 4395 0130 65766861 		.ascii	"evhandler_t\000"
 4395      6E646C65 
 4395      725F7400 
 4396              	.LASF20:
 4397 013c 636E745F 		.ascii	"cnt_t\000"
 4397      7400
 4398              	.LASF29:
 4399 0142 705F7374 		.ascii	"p_stklimit\000"
 4399      6B6C696D 
 4399      697400
 4400              	.LASF0:
 4401 014d 756E7369 		.ascii	"unsigned int\000"
 4401      676E6564 
 4401      20696E74 
 4401      00
 4402              	.LASF9:
 4403 015a 6C6F6E67 		.ascii	"long unsigned int\000"
 4403      20756E73 
 4403      69676E65 
 4403      6420696E 
 4403      7400
ARM GAS  C:\Users\z80\AppData\Local\Temp\cclkQXgD.s 			page 82


 4404              	.LASF44:
 4405 016c 636F6E74 		.ascii	"context\000"
 4405      65787400 
 4406              	.LASF4:
 4407 0174 73686F72 		.ascii	"short unsigned int\000"
 4407      7420756E 
 4407      7369676E 
 4407      65642069 
 4407      6E7400
 4408              	.LASF70:
 4409 0187 63684576 		.ascii	"chEvtRegisterMask\000"
 4409      74526567 
 4409      69737465 
 4409      724D6173 
 4409      6B00
 4410              	.LASF16:
 4411 0199 6D73675F 		.ascii	"msg_t\000"
 4411      7400
 4412              	.LASF58:
 4413 019f 656C5F6E 		.ascii	"el_next\000"
 4413      65787400 
 4414              	.LASF71:
 4415 01a7 63684576 		.ascii	"chEvtUnregister\000"
 4415      74556E72 
 4415      65676973 
 4415      74657200 
 4416              	.LASF13:
 4417 01b7 746D6F64 		.ascii	"tmode_t\000"
 4417      655F7400 
 4418              	.LASF40:
 4419 01bf 54687265 		.ascii	"ThreadsList\000"
 4419      6164734C 
 4419      69737400 
 4420              	.LASF18:
 4421 01cb 6576656E 		.ascii	"eventmask_t\000"
 4421      746D6173 
 4421      6B5F7400 
 4422              	.LASF53:
 4423 01d7 4D757465 		.ascii	"Mutex\000"
 4423      7800
 4424              	.LASF42:
 4425 01dd 73746B61 		.ascii	"stkalign_t\000"
 4425      6C69676E 
 4425      5F7400
 4426              	.LASF89:
 4427 01e8 2E2E2F63 		.ascii	"../chibios_2.4.x/os/kernel/src/chevents.c\000"
 4427      68696269 
 4427      6F735F32 
 4427      2E342E78 
 4427      2F6F732F 
 4428              	.LASF78:
 4429 0212 63684576 		.ascii	"chEvtDispatch\000"
 4429      74446973 
 4429      70617463 
 4429      6800
 4430              	.LASF27:
 4431 0220 705F6F6C 		.ascii	"p_older\000"
ARM GAS  C:\Users\z80\AppData\Local\Temp\cclkQXgD.s 			page 83


 4431      64657200 
 4432              	.LASF47:
 4433 0228 725F6374 		.ascii	"r_ctx\000"
 4433      7800
 4434              	.LASF39:
 4435 022e 54687265 		.ascii	"ThreadsQueue\000"
 4435      61647351 
 4435      75657565 
 4435      00
 4436              	.LASF90:
 4437 023b 433A5C70 		.ascii	"C:\\projects\\voltamper.git\\firmware\\voltamp\000"
 4437      726F6A65 
 4437      6374735C 
 4437      766F6C74 
 4437      616D7065 
 4438              	.LASF84:
 4439 0266 74696D65 		.ascii	"time\000"
 4439      00
 4440              	.LASF75:
 4441 026b 63684576 		.ascii	"chEvtSignalFlags\000"
 4441      74536967 
 4441      6E616C46 
 4441      6C616773 
 4441      00
 4442              	.LASF51:
 4443 027c 725F6375 		.ascii	"r_current\000"
 4443      7272656E 
 4443      7400
 4444              	.LASF49:
 4445 0286 725F6F6C 		.ascii	"r_older\000"
 4445      64657200 
 4446              	.LASF60:
 4447 028e 656C5F6D 		.ascii	"el_mask\000"
 4447      61736B00 
 4448              	.LASF79:
 4449 0296 68616E64 		.ascii	"handlers\000"
 4449      6C657273 
 4449      00
 4450              	.LASF23:
 4451 029f 705F7072 		.ascii	"p_prev\000"
 4451      657600
 4452              	.LASF15:
 4453 02a6 74707269 		.ascii	"tprio_t\000"
 4453      6F5F7400 
 4454              	.LASF72:
 4455 02ae 63684576 		.ascii	"chEvtClearFlags\000"
 4455      74436C65 
 4455      6172466C 
 4455      61677300 
 4456              	.LASF6:
 4457 02be 696E7433 		.ascii	"int32_t\000"
 4457      325F7400 
 4458              	.LASF2:
 4459 02c6 756E7369 		.ascii	"unsigned char\000"
 4459      676E6564 
 4459      20636861 
 4459      7200
ARM GAS  C:\Users\z80\AppData\Local\Temp\cclkQXgD.s 			page 84


 4460              	.LASF80:
 4461 02d4 63684576 		.ascii	"chEvtWaitOne\000"
 4461      74576169 
 4461      744F6E65 
 4461      00
 4462              	.LASF59:
 4463 02e1 656C5F6C 		.ascii	"el_listener\000"
 4463      69737465 
 4463      6E657200 
 4464              	.LASF37:
 4465 02ed 705F6D74 		.ascii	"p_mtxlist\000"
 4465      786C6973 
 4465      7400
 4466              	.LASF3:
 4467 02f7 73686F72 		.ascii	"short int\000"
 4467      7420696E 
 4467      7400
 4468              	.LASF30:
 4469 0301 705F7374 		.ascii	"p_state\000"
 4469      61746500 
 4470              	.LASF46:
 4471 0309 725F7072 		.ascii	"r_prio\000"
 4471      696F00
 4472              	.LASF67:
 4473 0310 65776D61 		.ascii	"ewmask\000"
 4473      736B00
 4474              	.LASF22:
 4475 0317 705F6E65 		.ascii	"p_next\000"
 4475      787400
 4476              	.LASF31:
 4477 031e 705F666C 		.ascii	"p_flags\000"
 4477      61677300 
 4478              	.LASF21:
 4479 0326 54687265 		.ascii	"Thread\000"
 4479      616400
 4480              	.LASF36:
 4481 032d 705F6570 		.ascii	"p_epending\000"
 4481      656E6469 
 4481      6E6700
 4482              	.LASF8:
 4483 0338 75696E74 		.ascii	"uint32_t\000"
 4483      33325F74 
 4483      00
 4484              	.LASF45:
 4485 0341 725F7175 		.ascii	"r_queue\000"
 4485      65756500 
 4486              	.LASF68:
 4487 0349 63686172 		.ascii	"char\000"
 4487      00
 4488              	.LASF56:
 4489 034e 6D5F6E65 		.ascii	"m_next\000"
 4489      787400
 4490              	.LASF19:
 4491 0355 73797374 		.ascii	"systime_t\000"
 4491      696D655F 
 4491      7400
 4492              	.LASF38:
ARM GAS  C:\Users\z80\AppData\Local\Temp\cclkQXgD.s 			page 85


 4493 035f 705F7265 		.ascii	"p_realprio\000"
 4493      616C7072 
 4493      696F00
 4494              	.LASF32:
 4495 036a 705F7469 		.ascii	"p_time\000"
 4495      6D6500
 4496              	.LASF83:
 4497 0371 63684576 		.ascii	"chEvtWaitOneTimeout\000"
 4497      74576169 
 4497      744F6E65 
 4497      54696D65 
 4497      6F757400 
 4498              	.LASF43:
 4499 0385 696E7463 		.ascii	"intctx\000"
 4499      747800
 4500              	.LASF34:
 4501 038c 705F6D73 		.ascii	"p_msgqueue\000"
 4501      67717565 
 4501      756500
 4502              	.LASF62:
 4503 0397 65735F6E 		.ascii	"es_next\000"
 4503      65787400 
 4504              	.LASF52:
 4505 039f 52656164 		.ascii	"ReadyList\000"
 4505      794C6973 
 4505      7400
 4506              	.LASF87:
 4507 03a9 726C6973 		.ascii	"rlist\000"
 4507      7400
 4508              	.LASF5:
 4509 03af 75696E74 		.ascii	"uint8_t\000"
 4509      385F7400 
 4510              	.LASF57:
 4511 03b7 4576656E 		.ascii	"EventListener\000"
 4511      744C6973 
 4511      74656E65 
 4511      7200
 4512              	.LASF88:
 4513 03c5 474E5520 		.ascii	"GNU C 4.5.0\000"
 4513      4320342E 
 4513      352E3000 
 4514              	.LASF66:
 4515 03d1 77746F62 		.ascii	"wtobjp\000"
 4515      6A7000
 4516              	.LASF28:
 4517 03d8 705F6E61 		.ascii	"p_name\000"
 4517      6D6500
 4518              	.LASF50:
 4519 03df 725F7072 		.ascii	"r_preempt\000"
 4519      65656D70 
 4519      7400
 4520              	.LASF55:
 4521 03e9 6D5F6F77 		.ascii	"m_owner\000"
 4521      6E657200 
 4522              	.LASF25:
 4523 03f1 705F6374 		.ascii	"p_ctx\000"
 4523      7800
ARM GAS  C:\Users\z80\AppData\Local\Temp\cclkQXgD.s 			page 86


 4524              	.LASF33:
 4525 03f7 705F7761 		.ascii	"p_waiting\000"
 4525      6974696E 
 4525      6700
 4526              		.ident	"GCC: (GNU) 4.5.0"
ARM GAS  C:\Users\z80\AppData\Local\Temp\cclkQXgD.s 			page 87


DEFINED SYMBOLS
                            *ABS*:00000000 chevents.c
C:\Users\z80\AppData\Local\Temp\cclkQXgD.s:24     .text.chEvtRegisterMask:00000000 $t
C:\Users\z80\AppData\Local\Temp\cclkQXgD.s:30     .text.chEvtRegisterMask:00000000 chEvtRegisterMask
C:\Users\z80\AppData\Local\Temp\cclkQXgD.s:107    .text.chEvtRegisterMask:00000044 $d
C:\Users\z80\AppData\Local\Temp\cclkQXgD.s:113    .text.chEvtUnregister:00000000 $t
C:\Users\z80\AppData\Local\Temp\cclkQXgD.s:119    .text.chEvtUnregister:00000000 chEvtUnregister
C:\Users\z80\AppData\Local\Temp\cclkQXgD.s:206    .text.chEvtUnregister:0000004c $d
C:\Users\z80\AppData\Local\Temp\cclkQXgD.s:211    .text.chEvtClearFlags:00000000 $t
C:\Users\z80\AppData\Local\Temp\cclkQXgD.s:217    .text.chEvtClearFlags:00000000 chEvtClearFlags
C:\Users\z80\AppData\Local\Temp\cclkQXgD.s:273    .text.chEvtAddFlags:00000000 $t
C:\Users\z80\AppData\Local\Temp\cclkQXgD.s:279    .text.chEvtAddFlags:00000000 chEvtAddFlags
C:\Users\z80\AppData\Local\Temp\cclkQXgD.s:335    .text.chEvtSignalFlagsI:00000000 $t
C:\Users\z80\AppData\Local\Temp\cclkQXgD.s:341    .text.chEvtSignalFlagsI:00000000 chEvtSignalFlagsI
C:\Users\z80\AppData\Local\Temp\cclkQXgD.s:418    .text.chEvtSignalFlagsI:00000050 $d
C:\Users\z80\AppData\Local\Temp\cclkQXgD.s:423    .text.chEvtSignalFlags:00000000 $t
C:\Users\z80\AppData\Local\Temp\cclkQXgD.s:429    .text.chEvtSignalFlags:00000000 chEvtSignalFlags
C:\Users\z80\AppData\Local\Temp\cclkQXgD.s:490    .text.chEvtSignalFlags:00000034 $d
C:\Users\z80\AppData\Local\Temp\cclkQXgD.s:495    .text.chEvtBroadcastFlagsI:00000000 $t
C:\Users\z80\AppData\Local\Temp\cclkQXgD.s:501    .text.chEvtBroadcastFlagsI:00000000 chEvtBroadcastFlagsI
C:\Users\z80\AppData\Local\Temp\cclkQXgD.s:555    .text.chEvtBroadcastFlagsI:00000030 $d
C:\Users\z80\AppData\Local\Temp\cclkQXgD.s:560    .text.chEvtBroadcastFlags:00000000 $t
C:\Users\z80\AppData\Local\Temp\cclkQXgD.s:566    .text.chEvtBroadcastFlags:00000000 chEvtBroadcastFlags
C:\Users\z80\AppData\Local\Temp\cclkQXgD.s:618    .text.chEvtDispatch:00000000 $t
C:\Users\z80\AppData\Local\Temp\cclkQXgD.s:624    .text.chEvtDispatch:00000000 chEvtDispatch
C:\Users\z80\AppData\Local\Temp\cclkQXgD.s:700    .text.chEvtDispatch:00000048 $d
C:\Users\z80\AppData\Local\Temp\cclkQXgD.s:706    .text.chEvtWaitOne:00000000 $t
C:\Users\z80\AppData\Local\Temp\cclkQXgD.s:712    .text.chEvtWaitOne:00000000 chEvtWaitOne
C:\Users\z80\AppData\Local\Temp\cclkQXgD.s:786    .text.chEvtWaitOne:00000040 $d
C:\Users\z80\AppData\Local\Temp\cclkQXgD.s:791    .text.chEvtWaitAny:00000000 $t
C:\Users\z80\AppData\Local\Temp\cclkQXgD.s:797    .text.chEvtWaitAny:00000000 chEvtWaitAny
C:\Users\z80\AppData\Local\Temp\cclkQXgD.s:867    .text.chEvtWaitAny:0000003c $d
C:\Users\z80\AppData\Local\Temp\cclkQXgD.s:872    .text.chEvtWaitAll:00000000 $t
C:\Users\z80\AppData\Local\Temp\cclkQXgD.s:878    .text.chEvtWaitAll:00000000 chEvtWaitAll
C:\Users\z80\AppData\Local\Temp\cclkQXgD.s:943    .text.chEvtWaitAll:0000003c $d
C:\Users\z80\AppData\Local\Temp\cclkQXgD.s:948    .text.chEvtWaitOneTimeout:00000000 $t
C:\Users\z80\AppData\Local\Temp\cclkQXgD.s:954    .text.chEvtWaitOneTimeout:00000000 chEvtWaitOneTimeout
C:\Users\z80\AppData\Local\Temp\cclkQXgD.s:1066   .text.chEvtWaitOneTimeout:00000064 $d
C:\Users\z80\AppData\Local\Temp\cclkQXgD.s:1071   .text.chEvtWaitAnyTimeout:00000000 $t
C:\Users\z80\AppData\Local\Temp\cclkQXgD.s:1077   .text.chEvtWaitAnyTimeout:00000000 chEvtWaitAnyTimeout
C:\Users\z80\AppData\Local\Temp\cclkQXgD.s:1185   .text.chEvtWaitAnyTimeout:00000060 $d
C:\Users\z80\AppData\Local\Temp\cclkQXgD.s:1190   .text.chEvtWaitAllTimeout:00000000 $t
C:\Users\z80\AppData\Local\Temp\cclkQXgD.s:1196   .text.chEvtWaitAllTimeout:00000000 chEvtWaitAllTimeout
C:\Users\z80\AppData\Local\Temp\cclkQXgD.s:1303   .text.chEvtWaitAllTimeout:00000064 $d
C:\Users\z80\AppData\Local\Temp\cclkQXgD.s:1308   .rodata.str1.4:00000000 $d
                     .debug_frame:00000010 $d
C:\Users\z80\AppData\Local\Temp\cclkQXgD.s:112    .text.chEvtRegisterMask:0000004c $t
C:\Users\z80\AppData\Local\Temp\cclkQXgD.s:422    .text.chEvtSignalFlagsI:00000054 $t
C:\Users\z80\AppData\Local\Temp\cclkQXgD.s:494    .text.chEvtSignalFlags:00000038 $t
C:\Users\z80\AppData\Local\Temp\cclkQXgD.s:559    .text.chEvtBroadcastFlagsI:00000034 $t
C:\Users\z80\AppData\Local\Temp\cclkQXgD.s:790    .text.chEvtWaitOne:00000044 $t
C:\Users\z80\AppData\Local\Temp\cclkQXgD.s:1070   .text.chEvtWaitOneTimeout:00000068 $t
C:\Users\z80\AppData\Local\Temp\cclkQXgD.s:1189   .text.chEvtWaitAnyTimeout:00000064 $t
C:\Users\z80\AppData\Local\Temp\cclkQXgD.s:1307   .text.chEvtWaitAllTimeout:00000068 $t

UNDEFINED SYMBOLS
chDbgPanic
ARM GAS  C:\Users\z80\AppData\Local\Temp\cclkQXgD.s 			page 88


dbg_check_lock
dbg_check_unlock
rlist
chDbgCheckClassI
chSchReadyI
chSchRescheduleS
chSchGoSleepS
chSchGoSleepTimeoutS
