ARM GAS  C:\Users\z80\AppData\Local\Temp\ccswBJvz.s 			page 1


   1              		.syntax unified
   2              		.cpu cortex-m3
   3              		.fpu softvfp
   4              		.eabi_attribute 20, 1
   5              		.eabi_attribute 21, 1
   6              		.eabi_attribute 23, 3
   7              		.eabi_attribute 24, 1
   8              		.eabi_attribute 25, 1
   9              		.eabi_attribute 26, 1
  10              		.eabi_attribute 30, 2
  11              		.eabi_attribute 18, 4
  12              		.thumb
  13              		.file	"chevents.c"
  14              		.section	.debug_abbrev,"",%progbits
  15              	.Ldebug_abbrev0:
  16              		.section	.debug_info,"",%progbits
  17              	.Ldebug_info0:
  18              		.section	.debug_line,"",%progbits
  19              	.Ldebug_line0:
  20 0000 20030000 		.text
  20      02002E01 
  20      00000201 
  20      FB0E0D00 
  20      01010101 
  21              	.Ltext0:
  22              		.cfi_sections	.debug_frame
  23              		.section	.text.chEvtRegisterMask,"ax",%progbits
  24              		.align	2
  25              		.p2align 4,,15
  26              		.global	chEvtRegisterMask
  27              		.thumb
  28              		.thumb_func
  29              		.type	chEvtRegisterMask, %function
  30              	chEvtRegisterMask:
  31              	.LFB7:
  32              		.file 1 "../chibios_2.4.x/os/kernel/src/chevents.c"
  33              		.loc 1 82 0
  34              		.cfi_startproc
  35              		@ args = 0, pretend = 0, frame = 0
  36              		@ frame_needed = 0, uses_anonymous_args = 0
  37              	.LVL0:
  38              		.loc 1 84 0
  39 0000 D0F10103 		rsbs	r3, r0, #1
  40 0004 38BF     		it	cc
  41 0006 0023     		movcc	r3, #0
  42 0008 0029     		cmp	r1, #0
  43 000a 08BF     		it	eq
  44 000c 43F00103 		orreq	r3, r3, #1
  45              		.loc 1 82 0
  46 0010 70B5     		push	{r4, r5, r6, lr}
  47              	.LCFI0:
  48              		.cfi_def_cfa_offset 16
  49              		.loc 1 82 0
  50 0012 0446     		mov	r4, r0
  51              		.cfi_offset 14, -4
  52              		.cfi_offset 6, -8
  53              		.cfi_offset 5, -12
ARM GAS  C:\Users\z80\AppData\Local\Temp\ccswBJvz.s 			page 2


  54              		.cfi_offset 4, -16
  55 0014 0D46     		mov	r5, r1
  56 0016 1646     		mov	r6, r2
  57              		.loc 1 84 0
  58 0018 13B1     		cbz	r3, .L2
  59              		.loc 1 84 0 is_stmt 0 discriminator 1
  60 001a 0A48     		ldr	r0, .L4
  61              	.LVL1:
  62 001c FFF7FEFF 		bl	chDbgPanic
  63              	.LVL2:
  64              	.L2:
  65              	.LBB2:
  66              		.loc 1 86 0 is_stmt 1
  67 0020 2023     		movs	r3, #32
  68              	.LVL3:
  69              	@ 86 "../chibios_2.4.x/os/kernel/src/chevents.c" 1
  70 0022 83F31188 		msr     BASEPRI, r3
  71              	@ 0 "" 2
  72              	.LVL4:
  73              		.thumb
  74              	.LBE2:
  75 0026 FFF7FEFF 		bl	dbg_check_lock
  76              	.LVL5:
  77              		.loc 1 89 0
  78 002a 074B     		ldr	r3, .L4+4
  79              		.loc 1 87 0
  80 002c 2268     		ldr	r2, [r4, #0]
  81              		.loc 1 89 0
  82 002e DB69     		ldr	r3, [r3, #28]
  83              		.loc 1 87 0
  84 0030 2A60     		str	r2, [r5, #0]
  85              		.loc 1 88 0
  86 0032 2560     		str	r5, [r4, #0]
  87              		.loc 1 89 0
  88 0034 6B60     		str	r3, [r5, #4]
  89              		.loc 1 90 0
  90 0036 AE60     		str	r6, [r5, #8]
  91              		.loc 1 91 0
  92 0038 FFF7FEFF 		bl	dbg_check_unlock
  93              	.LBB3:
  94 003c 0023     		movs	r3, #0
  95              	.LVL6:
  96              	@ 91 "../chibios_2.4.x/os/kernel/src/chevents.c" 1
  97 003e 83F31188 		msr     BASEPRI, r3
  98              	@ 0 "" 2
  99              	.LVL7:
 100              		.thumb
 101              	.LBE3:
 102              		.loc 1 92 0
 103 0042 70BD     		pop	{r4, r5, r6, pc}
 104              	.L5:
 105              		.align	2
 106              	.L4:
 107 0044 00000000 		.word	.LC0
 108 0048 00000000 		.word	rlist
 109              		.cfi_endproc
 110              	.LFE7:
ARM GAS  C:\Users\z80\AppData\Local\Temp\ccswBJvz.s 			page 3


 111              		.size	chEvtRegisterMask, .-chEvtRegisterMask
 112 004c AFF30080 		.section	.text.chEvtUnregister,"ax",%progbits
 113              		.align	2
 114              		.p2align 4,,15
 115              		.global	chEvtUnregister
 116              		.thumb
 117              		.thumb_func
 118              		.type	chEvtUnregister, %function
 119              	chEvtUnregister:
 120              	.LFB8:
 121              		.loc 1 107 0
 122              		.cfi_startproc
 123              		@ args = 0, pretend = 0, frame = 0
 124              		@ frame_needed = 0, uses_anonymous_args = 0
 125              	.LVL8:
 126 0000 38B5     		push	{r3, r4, r5, lr}
 127              	.LCFI1:
 128              		.cfi_def_cfa_offset 16
 129              		.loc 1 110 0
 130 0002 D0F10103 		rsbs	r3, r0, #1
 131 0006 38BF     		it	cc
 132 0008 0023     		movcc	r3, #0
 133              		.cfi_offset 14, -4
 134              		.cfi_offset 5, -8
 135              		.cfi_offset 4, -12
 136              		.cfi_offset 3, -16
 137 000a 0029     		cmp	r1, #0
 138 000c 08BF     		it	eq
 139 000e 43F00103 		orreq	r3, r3, #1
 140              		.loc 1 107 0
 141 0012 0446     		mov	r4, r0
 142 0014 0D46     		mov	r5, r1
 143              		.loc 1 110 0
 144 0016 ABB9     		cbnz	r3, .L12
 145              	.LVL9:
 146              	.L7:
 147              	.LBB4:
 148              		.loc 1 113 0
 149 0018 2023     		movs	r3, #32
 150              	.LVL10:
 151              	@ 113 "../chibios_2.4.x/os/kernel/src/chevents.c" 1
 152 001a 83F31188 		msr     BASEPRI, r3
 153              	@ 0 "" 2
 154              	.LVL11:
 155              		.thumb
 156              	.LBE4:
 157 001e FFF7FEFF 		bl	dbg_check_lock
 158              	.LVL12:
 159              		.loc 1 112 0
 160 0022 2246     		mov	r2, r4
 161              		.loc 1 114 0
 162 0024 02E0     		b	.L8
 163              	.LVL13:
 164              	.L10:
 165              		.loc 1 115 0
 166 0026 9D42     		cmp	r5, r3
 167 0028 09D0     		beq	.L13
ARM GAS  C:\Users\z80\AppData\Local\Temp\ccswBJvz.s 			page 4


 168 002a 1A46     		mov	r2, r3
 169              	.LVL14:
 170              	.L8:
 171              		.loc 1 114 0 discriminator 1
 172 002c 1368     		ldr	r3, [r2, #0]
 173 002e 9C42     		cmp	r4, r3
 174 0030 F9D1     		bne	.L10
 175              	.L9:
 176              		.loc 1 121 0
 177 0032 FFF7FEFF 		bl	dbg_check_unlock
 178              	.LVL15:
 179              	.LBB5:
 180 0036 0023     		movs	r3, #0
 181              	.LVL16:
 182              	@ 121 "../chibios_2.4.x/os/kernel/src/chevents.c" 1
 183 0038 83F31188 		msr     BASEPRI, r3
 184              	@ 0 "" 2
 185              	.LVL17:
 186              		.thumb
 187              	.LBE5:
 188              		.loc 1 122 0
 189 003c 38BD     		pop	{r3, r4, r5, pc}
 190              	.LVL18:
 191              	.L13:
 192              		.loc 1 116 0
 193 003e 2B68     		ldr	r3, [r5, #0]
 194 0040 1360     		str	r3, [r2, #0]
 195              		.loc 1 117 0
 196 0042 F6E7     		b	.L9
 197              	.LVL19:
 198              	.L12:
 199              		.loc 1 110 0 discriminator 1
 200 0044 0148     		ldr	r0, .L14
 201 0046 FFF7FEFF 		bl	chDbgPanic
 202 004a E5E7     		b	.L7
 203              	.L15:
 204              		.align	2
 205              	.L14:
 206 004c 18000000 		.word	.LC1
 207              		.cfi_endproc
 208              	.LFE8:
 209              		.size	chEvtUnregister, .-chEvtUnregister
 210              		.section	.text.chEvtClearFlags,"ax",%progbits
 211              		.align	2
 212              		.p2align 4,,15
 213              		.global	chEvtClearFlags
 214              		.thumb
 215              		.thumb_func
 216              		.type	chEvtClearFlags, %function
 217              	chEvtClearFlags:
 218              	.LFB9:
 219              		.loc 1 132 0
 220              		.cfi_startproc
 221              		@ args = 0, pretend = 0, frame = 0
 222              		@ frame_needed = 0, uses_anonymous_args = 0
 223              	.LVL20:
 224 0000 38B5     		push	{r3, r4, r5, lr}
ARM GAS  C:\Users\z80\AppData\Local\Temp\ccswBJvz.s 			page 5


 225              	.LCFI2:
 226              		.cfi_def_cfa_offset 16
 227              		.loc 1 132 0
 228 0002 0546     		mov	r5, r0
 229              		.cfi_offset 14, -4
 230              		.cfi_offset 5, -8
 231              		.cfi_offset 4, -12
 232              		.cfi_offset 3, -16
 233              	.LBB6:
 234              		.loc 1 135 0
 235 0004 2023     		movs	r3, #32
 236              	.LVL21:
 237              	@ 135 "../chibios_2.4.x/os/kernel/src/chevents.c" 1
 238 0006 83F31188 		msr     BASEPRI, r3
 239              	@ 0 "" 2
 240              	.LVL22:
 241              		.thumb
 242              	.LBE6:
 243 000a FFF7FEFF 		bl	dbg_check_lock
 244              	.LVL23:
 245              		.loc 1 137 0
 246 000e 40F20003 		movw	r3, #:lower16:rlist
 247 0012 C0F20003 		movt	r3, #:upper16:rlist
 248 0016 DB69     		ldr	r3, [r3, #28]
 249 0018 DC6B     		ldr	r4, [r3, #60]
 250              		.loc 1 138 0
 251 001a 24EA0502 		bic	r2, r4, r5
 252 001e DA63     		str	r2, [r3, #60]
 253              		.loc 1 140 0
 254 0020 FFF7FEFF 		bl	dbg_check_unlock
 255              	.LVL24:
 256              	.LBB7:
 257 0024 0023     		movs	r3, #0
 258              	.LVL25:
 259              	@ 140 "../chibios_2.4.x/os/kernel/src/chevents.c" 1
 260 0026 83F31188 		msr     BASEPRI, r3
 261              	@ 0 "" 2
 262              	.LVL26:
 263              		.thumb
 264              	.LBE7:
 265              		.loc 1 137 0
 266 002a 05EA0400 		and	r0, r5, r4
 267              		.loc 1 142 0
 268 002e 38BD     		pop	{r3, r4, r5, pc}
 269              		.cfi_endproc
 270              	.LFE9:
 271              		.size	chEvtClearFlags, .-chEvtClearFlags
 272              		.section	.text.chEvtAddFlags,"ax",%progbits
 273              		.align	2
 274              		.p2align 4,,15
 275              		.global	chEvtAddFlags
 276              		.thumb
 277              		.thumb_func
 278              		.type	chEvtAddFlags, %function
 279              	chEvtAddFlags:
 280              	.LFB10:
 281              		.loc 1 153 0
ARM GAS  C:\Users\z80\AppData\Local\Temp\ccswBJvz.s 			page 6


 282              		.cfi_startproc
 283              		@ args = 0, pretend = 0, frame = 0
 284              		@ frame_needed = 0, uses_anonymous_args = 0
 285              	.LVL27:
 286 0000 10B5     		push	{r4, lr}
 287              	.LCFI3:
 288              		.cfi_def_cfa_offset 8
 289              	.LBB8:
 290              		.loc 1 155 0
 291 0002 2023     		movs	r3, #32
 292              	.LVL28:
 293              	.LBE8:
 294              		.loc 1 153 0
 295 0004 0446     		mov	r4, r0
 296              		.cfi_offset 14, -4
 297              		.cfi_offset 4, -8
 298              	.LBB9:
 299              		.loc 1 155 0
 300              	@ 155 "../chibios_2.4.x/os/kernel/src/chevents.c" 1
 301 0006 83F31188 		msr     BASEPRI, r3
 302              	@ 0 "" 2
 303              	.LVL29:
 304              		.thumb
 305              	.LBE9:
 306 000a FFF7FEFF 		bl	dbg_check_lock
 307              	.LVL30:
 308              		.loc 1 157 0
 309 000e 40F20003 		movw	r3, #:lower16:rlist
 310 0012 C0F20003 		movt	r3, #:upper16:rlist
 311 0016 DB69     		ldr	r3, [r3, #28]
 312 0018 DA6B     		ldr	r2, [r3, #60]
 313 001a 1443     		orrs	r4, r4, r2
 314              	.LVL31:
 315 001c DC63     		str	r4, [r3, #60]
 316              	.LVL32:
 317              		.loc 1 159 0
 318 001e FFF7FEFF 		bl	dbg_check_unlock
 319              	.LBB10:
 320 0022 0023     		movs	r3, #0
 321              	.LVL33:
 322              	@ 159 "../chibios_2.4.x/os/kernel/src/chevents.c" 1
 323 0024 83F31188 		msr     BASEPRI, r3
 324              	@ 0 "" 2
 325              	.LVL34:
 326              		.thumb
 327              	.LBE10:
 328              		.loc 1 161 0
 329 0028 2046     		mov	r0, r4
 330 002a 10BD     		pop	{r4, pc}
 331              		.cfi_endproc
 332              	.LFE10:
 333              		.size	chEvtAddFlags, .-chEvtAddFlags
 334 002c AFF30080 		.section	.text.chEvtSignalFlagsI,"ax",%progbits
 335              		.align	2
 336              		.p2align 4,,15
 337              		.global	chEvtSignalFlagsI
 338              		.thumb
ARM GAS  C:\Users\z80\AppData\Local\Temp\ccswBJvz.s 			page 7


 339              		.thumb_func
 340              		.type	chEvtSignalFlagsI, %function
 341              	chEvtSignalFlagsI:
 342              	.LFB12:
 343              		.loc 1 193 0
 344              		.cfi_startproc
 345              		@ args = 0, pretend = 0, frame = 0
 346              		@ frame_needed = 0, uses_anonymous_args = 0
 347              	.LVL35:
 348 0000 38B5     		push	{r3, r4, r5, lr}
 349              	.LCFI4:
 350              		.cfi_def_cfa_offset 16
 351              		.loc 1 193 0
 352 0002 0446     		mov	r4, r0
 353              		.cfi_offset 14, -4
 354              		.cfi_offset 5, -8
 355              		.cfi_offset 4, -12
 356              		.cfi_offset 3, -16
 357 0004 0D46     		mov	r5, r1
 358              		.loc 1 195 0
 359 0006 FFF7FEFF 		bl	chDbgCheckClassI
 360              	.LVL36:
 361              		.loc 1 196 0
 362 000a 002C     		cmp	r4, #0
 363 000c 1CD0     		beq	.L24
 364              	.L19:
 365              		.loc 1 198 0
 366 000e E26B     		ldr	r2, [r4, #60]
 367              		.loc 1 200 0
 368 0010 94F82030 		ldrb	r3, [r4, #32]	@ zero_extendqisi2
 369              		.loc 1 198 0
 370 0014 1543     		orrs	r5, r5, r2
 371              	.LVL37:
 372              		.loc 1 200 0
 373 0016 082B     		cmp	r3, #8
 374              		.loc 1 198 0
 375 0018 E563     		str	r5, [r4, #60]
 376              		.loc 1 200 0
 377 001a 0CD0     		beq	.L25
 378              		.loc 1 201 0
 379 001c 092B     		cmp	r3, #9
 380 001e 00D0     		beq	.L26
 381              	.L18:
 382              		.loc 1 205 0
 383 0020 38BD     		pop	{r3, r4, r5, pc}
 384              	.L26:
 385              		.loc 1 203 0
 386 0022 A36A     		ldr	r3, [r4, #40]
 387 0024 1D40     		ands	r5, r5, r3
 388              		.loc 1 202 0
 389 0026 AB42     		cmp	r3, r5
 390 0028 FAD1     		bne	.L18
 391              		.loc 1 204 0
 392 002a 2046     		mov	r0, r4
 393 002c FFF7FEFF 		bl	chSchReadyI
 394 0030 0023     		movs	r3, #0
 395 0032 8362     		str	r3, [r0, #40]
ARM GAS  C:\Users\z80\AppData\Local\Temp\ccswBJvz.s 			page 8


 396 0034 F4E7     		b	.L18
 397              	.L25:
 398              		.loc 1 201 0 discriminator 1
 399 0036 A36A     		ldr	r3, [r4, #40]
 400              		.loc 1 200 0 discriminator 1
 401 0038 1D42     		tst	r5, r3
 402 003a F1D0     		beq	.L18
 403              		.loc 1 204 0
 404 003c 2046     		mov	r0, r4
 405 003e FFF7FEFF 		bl	chSchReadyI
 406 0042 0023     		movs	r3, #0
 407 0044 8362     		str	r3, [r0, #40]
 408 0046 EBE7     		b	.L18
 409              	.LVL38:
 410              	.L24:
 411              		.loc 1 196 0 discriminator 1
 412 0048 0148     		ldr	r0, .L27
 413 004a FFF7FEFF 		bl	chDbgPanic
 414 004e DEE7     		b	.L19
 415              	.L28:
 416              		.align	2
 417              	.L27:
 418 0050 2C000000 		.word	.LC2
 419              		.cfi_endproc
 420              	.LFE12:
 421              		.size	chEvtSignalFlagsI, .-chEvtSignalFlagsI
 422 0054 AFF30080 		.section	.text.chEvtSignalFlags,"ax",%progbits
 422      AFF30080 
 422      AFF30080 
 423              		.align	2
 424              		.p2align 4,,15
 425              		.global	chEvtSignalFlags
 426              		.thumb
 427              		.thumb_func
 428              		.type	chEvtSignalFlags, %function
 429              	chEvtSignalFlags:
 430              	.LFB11:
 431              		.loc 1 171 0
 432              		.cfi_startproc
 433              		@ args = 0, pretend = 0, frame = 0
 434              		@ frame_needed = 0, uses_anonymous_args = 0
 435              	.LVL39:
 436 0000 38B5     		push	{r3, r4, r5, lr}
 437              	.LCFI5:
 438              		.cfi_def_cfa_offset 16
 439              		.loc 1 171 0
 440 0002 0446     		mov	r4, r0
 441              		.cfi_offset 14, -4
 442              		.cfi_offset 5, -8
 443              		.cfi_offset 4, -12
 444              		.cfi_offset 3, -16
 445 0004 0D46     		mov	r5, r1
 446              		.loc 1 173 0
 447 0006 80B1     		cbz	r0, .L31
 448              	.LVL40:
 449              	.L30:
 450              	.LBB11:
ARM GAS  C:\Users\z80\AppData\Local\Temp\ccswBJvz.s 			page 9


 451              		.loc 1 175 0
 452 0008 2023     		movs	r3, #32
 453              	.LVL41:
 454              	@ 175 "../chibios_2.4.x/os/kernel/src/chevents.c" 1
 455 000a 83F31188 		msr     BASEPRI, r3
 456              	@ 0 "" 2
 457              	.LVL42:
 458              		.thumb
 459              	.LBE11:
 460 000e FFF7FEFF 		bl	dbg_check_lock
 461              	.LVL43:
 462              		.loc 1 176 0
 463 0012 2046     		mov	r0, r4
 464 0014 2946     		mov	r1, r5
 465 0016 FFF7FEFF 		bl	chEvtSignalFlagsI
 466              		.loc 1 177 0
 467 001a FFF7FEFF 		bl	chSchRescheduleS
 468              		.loc 1 178 0
 469 001e FFF7FEFF 		bl	dbg_check_unlock
 470              	.LBB12:
 471 0022 0023     		movs	r3, #0
 472              	.LVL44:
 473              	@ 178 "../chibios_2.4.x/os/kernel/src/chevents.c" 1
 474 0024 83F31188 		msr     BASEPRI, r3
 475              	@ 0 "" 2
 476              	.LVL45:
 477              		.thumb
 478              	.LBE12:
 479              		.loc 1 179 0
 480 0028 38BD     		pop	{r3, r4, r5, pc}
 481              	.LVL46:
 482              	.L31:
 483              		.loc 1 173 0 discriminator 1
 484 002a 0248     		ldr	r0, .L32
 485 002c FFF7FEFF 		bl	chDbgPanic
 486 0030 EAE7     		b	.L30
 487              	.L33:
 488 0032 00BF     		.align	2
 489              	.L32:
 490 0034 40000000 		.word	.LC3
 491              		.cfi_endproc
 492              	.LFE11:
 493              		.size	chEvtSignalFlags, .-chEvtSignalFlags
 494 0038 AFF30080 		.section	.text.chEvtBroadcastFlagsI,"ax",%progbits
 494      AFF30080 
 495              		.align	2
 496              		.p2align 4,,15
 497              		.global	chEvtBroadcastFlagsI
 498              		.thumb
 499              		.thumb_func
 500              		.type	chEvtBroadcastFlagsI, %function
 501              	chEvtBroadcastFlagsI:
 502              	.LFB14:
 503              		.loc 1 245 0
 504              		.cfi_startproc
 505              		@ args = 0, pretend = 0, frame = 0
 506              		@ frame_needed = 0, uses_anonymous_args = 0
ARM GAS  C:\Users\z80\AppData\Local\Temp\ccswBJvz.s 			page 10


 507              	.LVL47:
 508 0000 70B5     		push	{r4, r5, r6, lr}
 509              	.LCFI6:
 510              		.cfi_def_cfa_offset 16
 511              		.loc 1 245 0
 512 0002 0546     		mov	r5, r0
 513              		.cfi_offset 14, -4
 514              		.cfi_offset 6, -8
 515              		.cfi_offset 5, -12
 516              		.cfi_offset 4, -16
 517 0004 0E46     		mov	r6, r1
 518              		.loc 1 248 0
 519 0006 FFF7FEFF 		bl	chDbgCheckClassI
 520              	.LVL48:
 521              		.loc 1 249 0
 522 000a 65B1     		cbz	r5, .L40
 523              	.L35:
 524              		.loc 1 251 0
 525 000c 2C68     		ldr	r4, [r5, #0]
 526              	.LVL49:
 527              		.loc 1 252 0
 528 000e AC42     		cmp	r4, r5
 529 0010 08D0     		beq	.L34
 530              	.LVL50:
 531              	.L38:
 532              		.loc 1 253 0
 533 0012 A168     		ldr	r1, [r4, #8]
 534 0014 6068     		ldr	r0, [r4, #4]
 535 0016 46EA0101 		orr	r1, r6, r1
 536 001a FFF7FEFF 		bl	chEvtSignalFlagsI
 537              		.loc 1 254 0
 538 001e 2468     		ldr	r4, [r4, #0]
 539              	.LVL51:
 540              		.loc 1 252 0
 541 0020 AC42     		cmp	r4, r5
 542 0022 F6D1     		bne	.L38
 543              	.L34:
 544              		.loc 1 256 0
 545 0024 70BD     		pop	{r4, r5, r6, pc}
 546              	.LVL52:
 547              	.L40:
 548              		.loc 1 249 0 discriminator 1
 549 0026 0248     		ldr	r0, .L41
 550 0028 FFF7FEFF 		bl	chDbgPanic
 551 002c EEE7     		b	.L35
 552              	.L42:
 553 002e 00BF     		.align	2
 554              	.L41:
 555 0030 50000000 		.word	.LC4
 556              		.cfi_endproc
 557              	.LFE14:
 558              		.size	chEvtBroadcastFlagsI, .-chEvtBroadcastFlagsI
 559 0034 AFF30080 		.section	.text.chEvtBroadcastFlags,"ax",%progbits
 559      AFF30080 
 559      AFF30080 
 560              		.align	2
 561              		.p2align 4,,15
ARM GAS  C:\Users\z80\AppData\Local\Temp\ccswBJvz.s 			page 11


 562              		.global	chEvtBroadcastFlags
 563              		.thumb
 564              		.thumb_func
 565              		.type	chEvtBroadcastFlags, %function
 566              	chEvtBroadcastFlags:
 567              	.LFB13:
 568              		.loc 1 220 0
 569              		.cfi_startproc
 570              		@ args = 0, pretend = 0, frame = 0
 571              		@ frame_needed = 0, uses_anonymous_args = 0
 572              	.LVL53:
 573 0000 38B5     		push	{r3, r4, r5, lr}
 574              	.LCFI7:
 575              		.cfi_def_cfa_offset 16
 576              		.loc 1 220 0
 577 0002 0546     		mov	r5, r0
 578              		.cfi_offset 14, -4
 579              		.cfi_offset 5, -8
 580              		.cfi_offset 4, -12
 581              		.cfi_offset 3, -16
 582 0004 0C46     		mov	r4, r1
 583              	.LBB13:
 584              		.loc 1 222 0
 585 0006 2023     		movs	r3, #32
 586              	.LVL54:
 587              	@ 222 "../chibios_2.4.x/os/kernel/src/chevents.c" 1
 588 0008 83F31188 		msr     BASEPRI, r3
 589              	@ 0 "" 2
 590              	.LVL55:
 591              		.thumb
 592              	.LBE13:
 593 000c FFF7FEFF 		bl	dbg_check_lock
 594              	.LVL56:
 595              		.loc 1 223 0
 596 0010 2846     		mov	r0, r5
 597 0012 2146     		mov	r1, r4
 598 0014 FFF7FEFF 		bl	chEvtBroadcastFlagsI
 599              		.loc 1 224 0
 600 0018 FFF7FEFF 		bl	chSchRescheduleS
 601              		.loc 1 225 0
 602 001c FFF7FEFF 		bl	dbg_check_unlock
 603              	.LBB14:
 604 0020 0023     		movs	r3, #0
 605              	.LVL57:
 606              	@ 225 "../chibios_2.4.x/os/kernel/src/chevents.c" 1
 607 0022 83F31188 		msr     BASEPRI, r3
 608              	@ 0 "" 2
 609              	.LVL58:
 610              		.thumb
 611              	.LBE14:
 612              		.loc 1 226 0
 613 0026 38BD     		pop	{r3, r4, r5, pc}
 614              		.cfi_endproc
 615              	.LFE13:
 616              		.size	chEvtBroadcastFlags, .-chEvtBroadcastFlags
 617 0028 AFF30080 		.section	.text.chEvtDispatch,"ax",%progbits
 617      AFF30080 
ARM GAS  C:\Users\z80\AppData\Local\Temp\ccswBJvz.s 			page 12


 618              		.align	2
 619              		.p2align 4,,15
 620              		.global	chEvtDispatch
 621              		.thumb
 622              		.thumb_func
 623              		.type	chEvtDispatch, %function
 624              	chEvtDispatch:
 625              	.LFB15:
 626              		.loc 1 267 0
 627              		.cfi_startproc
 628              		@ args = 0, pretend = 0, frame = 0
 629              		@ frame_needed = 0, uses_anonymous_args = 0
 630              	.LVL59:
 631 0000 2DE9F041 		push	{r4, r5, r6, r7, r8, lr}
 632              	.LCFI8:
 633              		.cfi_def_cfa_offset 24
 634              		.loc 1 267 0
 635 0004 0446     		mov	r4, r0
 636              		.cfi_offset 14, -4
 637              		.cfi_offset 8, -8
 638              		.cfi_offset 7, -12
 639              		.cfi_offset 6, -16
 640              		.cfi_offset 5, -20
 641              		.cfi_offset 4, -24
 642 0006 0E46     		mov	r6, r1
 643              		.loc 1 270 0
 644 0008 C8B1     		cbz	r0, .L50
 645              	.LVL60:
 646              	.L45:
 647              		.loc 1 273 0 discriminator 1
 648 000a 8EB1     		cbz	r6, .L44
 649              		.loc 1 273 0 is_stmt 0
 650 000c 0027     		movs	r7, #0
 651 000e 3D46     		mov	r5, r7
 652              		.loc 1 274 0 is_stmt 1
 653 0010 4FF00108 		mov	r8, #1
 654              	.LVL61:
 655              	.L49:
 656 0014 08FA05F3 		lsl	r3, r8, r5
 657 0018 3342     		tst	r3, r6
 658 001a 05D0     		beq	.L47
 659              		.loc 1 278 0
 660 001c 26EA0306 		bic	r6, r6, r3
 661              	.LVL62:
 662              		.loc 1 275 0
 663 0020 E359     		ldr	r3, [r4, r7]
 664 0022 3BB1     		cbz	r3, .L51
 665              	.L48:
 666              	.LVL63:
 667              		.loc 1 279 0
 668 0024 2846     		mov	r0, r5
 669 0026 9847     		blx	r3
 670              	.L47:
 671              	.LVL64:
 672 0028 0437     		adds	r7, r7, #4
 673              		.loc 1 273 0
 674 002a 0EB1     		cbz	r6, .L44
ARM GAS  C:\Users\z80\AppData\Local\Temp\ccswBJvz.s 			page 13


 675              		.loc 1 281 0
 676 002c 0135     		adds	r5, r5, #1
 677              	.LVL65:
 678 002e F1E7     		b	.L49
 679              	.LVL66:
 680              	.L44:
 681              		.loc 1 283 0
 682 0030 BDE8F081 		pop	{r4, r5, r6, r7, r8, pc}
 683              	.LVL67:
 684              	.L51:
 685              		.loc 1 275 0 discriminator 1
 686 0034 0448     		ldr	r0, .L52
 687 0036 FFF7FEFF 		bl	chDbgPanic
 688 003a E359     		ldr	r3, [r4, r7]
 689 003c F2E7     		b	.L48
 690              	.LVL68:
 691              	.L50:
 692              		.loc 1 270 0 discriminator 1
 693 003e 0348     		ldr	r0, .L52+4
 694 0040 FFF7FEFF 		bl	chDbgPanic
 695              	.LVL69:
 696 0044 E1E7     		b	.L45
 697              	.L53:
 698 0046 00BF     		.align	2
 699              	.L52:
 700 0048 7C000000 		.word	.LC6
 701 004c 68000000 		.word	.LC5
 702              		.cfi_endproc
 703              	.LFE15:
 704              		.size	chEvtDispatch, .-chEvtDispatch
 705              		.section	.text.chEvtWaitOne,"ax",%progbits
 706              		.align	2
 707              		.p2align 4,,15
 708              		.global	chEvtWaitOne
 709              		.thumb
 710              		.thumb_func
 711              		.type	chEvtWaitOne, %function
 712              	chEvtWaitOne:
 713              	.LFB16:
 714              		.loc 1 302 0
 715              		.cfi_startproc
 716              		@ args = 0, pretend = 0, frame = 0
 717              		@ frame_needed = 0, uses_anonymous_args = 0
 718              	.LVL70:
 719 0000 38B5     		push	{r3, r4, r5, lr}
 720              	.LCFI9:
 721              		.cfi_def_cfa_offset 16
 722              		.loc 1 303 0
 723 0002 0F4B     		ldr	r3, .L56
 724              		.cfi_offset 14, -4
 725              		.cfi_offset 5, -8
 726              		.cfi_offset 4, -12
 727              		.cfi_offset 3, -16
 728              		.loc 1 302 0
 729 0004 0546     		mov	r5, r0
 730              		.loc 1 303 0
 731 0006 DC69     		ldr	r4, [r3, #28]
ARM GAS  C:\Users\z80\AppData\Local\Temp\ccswBJvz.s 			page 14


 732              	.LVL71:
 733              	.LBB15:
 734              		.loc 1 306 0
 735 0008 2023     		movs	r3, #32
 736              	.LVL72:
 737              	@ 306 "../chibios_2.4.x/os/kernel/src/chevents.c" 1
 738 000a 83F31188 		msr     BASEPRI, r3
 739              	@ 0 "" 2
 740              	.LVL73:
 741              		.thumb
 742              	.LBE15:
 743 000e FFF7FEFF 		bl	dbg_check_lock
 744              	.LVL74:
 745              		.loc 1 308 0
 746 0012 E36B     		ldr	r3, [r4, #60]
 747              	.LVL75:
 748 0014 15EA0302 		ands	r2, r5, r3
 749 0018 06D1     		bne	.L55
 750              		.loc 1 309 0
 751 001a A562     		str	r5, [r4, #40]
 752              		.loc 1 310 0
 753 001c 0820     		movs	r0, #8
 754 001e FFF7FEFF 		bl	chSchGoSleepS
 755              	.LVL76:
 756              		.loc 1 311 0
 757 0022 E36B     		ldr	r3, [r4, #60]
 758 0024 05EA0302 		and	r2, r5, r3
 759              	.LVL77:
 760              	.L55:
 761              		.loc 1 313 0
 762 0028 5542     		negs	r5, r2
 763              	.LVL78:
 764 002a 1540     		ands	r5, r5, r2
 765              	.LVL79:
 766              		.loc 1 314 0
 767 002c 23EA0503 		bic	r3, r3, r5
 768 0030 E363     		str	r3, [r4, #60]
 769              		.loc 1 316 0
 770 0032 FFF7FEFF 		bl	dbg_check_unlock
 771              	.LBB16:
 772 0036 0023     		movs	r3, #0
 773              	.LVL80:
 774              	@ 316 "../chibios_2.4.x/os/kernel/src/chevents.c" 1
 775 0038 83F31188 		msr     BASEPRI, r3
 776              	@ 0 "" 2
 777              	.LVL81:
 778              		.thumb
 779              	.LBE16:
 780              		.loc 1 318 0
 781 003c 2846     		mov	r0, r5
 782 003e 38BD     		pop	{r3, r4, r5, pc}
 783              	.L57:
 784              		.align	2
 785              	.L56:
 786 0040 00000000 		.word	rlist
 787              		.cfi_endproc
 788              	.LFE16:
ARM GAS  C:\Users\z80\AppData\Local\Temp\ccswBJvz.s 			page 15


 789              		.size	chEvtWaitOne, .-chEvtWaitOne
 790 0044 AFF30080 		.section	.text.chEvtWaitAny,"ax",%progbits
 790      AFF30080 
 790      AFF30080 
 791              		.align	2
 792              		.p2align 4,,15
 793              		.global	chEvtWaitAny
 794              		.thumb
 795              		.thumb_func
 796              		.type	chEvtWaitAny, %function
 797              	chEvtWaitAny:
 798              	.LFB17:
 799              		.loc 1 331 0
 800              		.cfi_startproc
 801              		@ args = 0, pretend = 0, frame = 0
 802              		@ frame_needed = 0, uses_anonymous_args = 0
 803              	.LVL82:
 804              		.loc 1 332 0
 805 0000 0E4B     		ldr	r3, .L60
 806              		.loc 1 331 0
 807 0002 70B5     		push	{r4, r5, r6, lr}
 808              	.LCFI10:
 809              		.cfi_def_cfa_offset 16
 810              		.loc 1 332 0
 811 0004 DC69     		ldr	r4, [r3, #28]
 812              		.cfi_offset 14, -4
 813              		.cfi_offset 6, -8
 814              		.cfi_offset 5, -12
 815              		.cfi_offset 4, -16
 816              	.LVL83:
 817              		.loc 1 331 0
 818 0006 0546     		mov	r5, r0
 819              	.LBB17:
 820              		.loc 1 335 0
 821 0008 2023     		movs	r3, #32
 822              	.LVL84:
 823              	@ 335 "../chibios_2.4.x/os/kernel/src/chevents.c" 1
 824 000a 83F31188 		msr     BASEPRI, r3
 825              	@ 0 "" 2
 826              	.LVL85:
 827              		.thumb
 828              	.LBE17:
 829 000e FFF7FEFF 		bl	dbg_check_lock
 830              	.LVL86:
 831              		.loc 1 337 0
 832 0012 E36B     		ldr	r3, [r4, #60]
 833              	.LVL87:
 834 0014 15EA0306 		ands	r6, r5, r3
 835 0018 06D1     		bne	.L59
 836              		.loc 1 338 0
 837 001a A562     		str	r5, [r4, #40]
 838              		.loc 1 339 0
 839 001c 0820     		movs	r0, #8
 840 001e FFF7FEFF 		bl	chSchGoSleepS
 841              	.LVL88:
 842              		.loc 1 340 0
 843 0022 E36B     		ldr	r3, [r4, #60]
ARM GAS  C:\Users\z80\AppData\Local\Temp\ccswBJvz.s 			page 16


 844 0024 05EA0306 		and	r6, r5, r3
 845              	.LVL89:
 846              	.L59:
 847              		.loc 1 342 0
 848 0028 23EA0603 		bic	r3, r3, r6
 849 002c E363     		str	r3, [r4, #60]
 850              		.loc 1 344 0
 851 002e FFF7FEFF 		bl	dbg_check_unlock
 852              	.LBB18:
 853 0032 0023     		movs	r3, #0
 854              	.LVL90:
 855              	@ 344 "../chibios_2.4.x/os/kernel/src/chevents.c" 1
 856 0034 83F31188 		msr     BASEPRI, r3
 857              	@ 0 "" 2
 858              	.LVL91:
 859              		.thumb
 860              	.LBE18:
 861              		.loc 1 346 0
 862 0038 3046     		mov	r0, r6
 863 003a 70BD     		pop	{r4, r5, r6, pc}
 864              	.L61:
 865              		.align	2
 866              	.L60:
 867 003c 00000000 		.word	rlist
 868              		.cfi_endproc
 869              	.LFE17:
 870              		.size	chEvtWaitAny, .-chEvtWaitAny
 871              		.section	.text.chEvtWaitAll,"ax",%progbits
 872              		.align	2
 873              		.p2align 4,,15
 874              		.global	chEvtWaitAll
 875              		.thumb
 876              		.thumb_func
 877              		.type	chEvtWaitAll, %function
 878              	chEvtWaitAll:
 879              	.LFB18:
 880              		.loc 1 359 0
 881              		.cfi_startproc
 882              		@ args = 0, pretend = 0, frame = 0
 883              		@ frame_needed = 0, uses_anonymous_args = 0
 884              	.LVL92:
 885 0000 38B5     		push	{r3, r4, r5, lr}
 886              	.LCFI11:
 887              		.cfi_def_cfa_offset 16
 888              		.loc 1 360 0
 889 0002 0E4B     		ldr	r3, .L64
 890              		.cfi_offset 14, -4
 891              		.cfi_offset 5, -8
 892              		.cfi_offset 4, -12
 893              		.cfi_offset 3, -16
 894              		.loc 1 359 0
 895 0004 0446     		mov	r4, r0
 896              		.loc 1 360 0
 897 0006 DD69     		ldr	r5, [r3, #28]
 898              	.LVL93:
 899              	.LBB19:
 900              		.loc 1 362 0
ARM GAS  C:\Users\z80\AppData\Local\Temp\ccswBJvz.s 			page 17


 901 0008 2023     		movs	r3, #32
 902              	.LVL94:
 903              	@ 362 "../chibios_2.4.x/os/kernel/src/chevents.c" 1
 904 000a 83F31188 		msr     BASEPRI, r3
 905              	@ 0 "" 2
 906              	.LVL95:
 907              		.thumb
 908              	.LBE19:
 909 000e FFF7FEFF 		bl	dbg_check_lock
 910              	.LVL96:
 911              		.loc 1 364 0
 912 0012 EB6B     		ldr	r3, [r5, #60]
 913 0014 04EA0302 		and	r2, r4, r3
 914 0018 A242     		cmp	r2, r4
 915 001a 04D0     		beq	.L63
 916              		.loc 1 365 0
 917 001c AC62     		str	r4, [r5, #40]
 918              		.loc 1 366 0
 919 001e 0920     		movs	r0, #9
 920 0020 FFF7FEFF 		bl	chSchGoSleepS
 921 0024 EB6B     		ldr	r3, [r5, #60]
 922              	.L63:
 923              		.loc 1 368 0
 924 0026 23EA0403 		bic	r3, r3, r4
 925 002a EB63     		str	r3, [r5, #60]
 926              		.loc 1 370 0
 927 002c FFF7FEFF 		bl	dbg_check_unlock
 928              	.LBB20:
 929 0030 0023     		movs	r3, #0
 930              	.LVL97:
 931              	@ 370 "../chibios_2.4.x/os/kernel/src/chevents.c" 1
 932 0032 83F31188 		msr     BASEPRI, r3
 933              	@ 0 "" 2
 934              	.LVL98:
 935              		.thumb
 936              	.LBE20:
 937              		.loc 1 372 0
 938 0036 2046     		mov	r0, r4
 939 0038 38BD     		pop	{r3, r4, r5, pc}
 940              	.L65:
 941 003a 00BF     		.align	2
 942              	.L64:
 943 003c 00000000 		.word	rlist
 944              		.cfi_endproc
 945              	.LFE18:
 946              		.size	chEvtWaitAll, .-chEvtWaitAll
 947              		.section	.text.chEvtWaitOneTimeout,"ax",%progbits
 948              		.align	2
 949              		.p2align 4,,15
 950              		.global	chEvtWaitOneTimeout
 951              		.thumb
 952              		.thumb_func
 953              		.type	chEvtWaitOneTimeout, %function
 954              	chEvtWaitOneTimeout:
 955              	.LFB19:
 956              		.loc 1 398 0
 957              		.cfi_startproc
ARM GAS  C:\Users\z80\AppData\Local\Temp\ccswBJvz.s 			page 18


 958              		@ args = 0, pretend = 0, frame = 0
 959              		@ frame_needed = 0, uses_anonymous_args = 0
 960              	.LVL99:
 961 0000 F8B5     		push	{r3, r4, r5, r6, r7, lr}
 962              	.LCFI12:
 963              		.cfi_def_cfa_offset 24
 964              		.loc 1 399 0
 965 0002 184B     		ldr	r3, .L73
 966              		.cfi_offset 14, -4
 967              		.cfi_offset 7, -8
 968              		.cfi_offset 6, -12
 969              		.cfi_offset 5, -16
 970              		.cfi_offset 4, -20
 971              		.cfi_offset 3, -24
 972              		.loc 1 398 0
 973 0004 0546     		mov	r5, r0
 974              		.loc 1 399 0
 975 0006 DE69     		ldr	r6, [r3, #28]
 976              	.LVL100:
 977              		.loc 1 398 0
 978 0008 0F46     		mov	r7, r1
 979              	.LBB21:
 980              		.loc 1 402 0
 981 000a 2023     		movs	r3, #32
 982              	.LVL101:
 983              	@ 402 "../chibios_2.4.x/os/kernel/src/chevents.c" 1
 984 000c 83F31188 		msr     BASEPRI, r3
 985              	@ 0 "" 2
 986              	.LVL102:
 987              		.thumb
 988              	.LBE21:
 989 0010 FFF7FEFF 		bl	dbg_check_lock
 990              	.LVL103:
 991              		.loc 1 404 0
 992 0014 F36B     		ldr	r3, [r6, #60]
 993              	.LVL104:
 994 0016 15EA0304 		ands	r4, r5, r3
 995 001a 0AD1     		bne	.L67
 996              		.loc 1 405 0
 997 001c AFB1     		cbz	r7, .L71
 998              		.loc 1 410 0
 999 001e 0820     		movs	r0, #8
 1000              		.loc 1 409 0
 1001 0020 B562     		str	r5, [r6, #40]
 1002              		.loc 1 410 0
 1003 0022 3946     		mov	r1, r7
 1004 0024 FFF7FEFF 		bl	chSchGoSleepTimeoutS
 1005              	.LVL105:
 1006 0028 0028     		cmp	r0, #0
 1007 002a 14DB     		blt	.L72
 1008              		.loc 1 414 0
 1009 002c F36B     		ldr	r3, [r6, #60]
 1010 002e 05EA0304 		and	r4, r5, r3
 1011              	.LVL106:
 1012              	.L67:
 1013              		.loc 1 416 0
 1014 0032 6242     		negs	r2, r4
ARM GAS  C:\Users\z80\AppData\Local\Temp\ccswBJvz.s 			page 19


 1015 0034 1440     		ands	r4, r4, r2
 1016              	.LVL107:
 1017              		.loc 1 417 0
 1018 0036 23EA0403 		bic	r3, r3, r4
 1019 003a F363     		str	r3, [r6, #60]
 1020              		.loc 1 419 0
 1021 003c FFF7FEFF 		bl	dbg_check_unlock
 1022              	.LBB22:
 1023 0040 0023     		movs	r3, #0
 1024              	.LVL108:
 1025              	@ 419 "../chibios_2.4.x/os/kernel/src/chevents.c" 1
 1026 0042 83F31188 		msr     BASEPRI, r3
 1027              	@ 0 "" 2
 1028              	.LVL109:
 1029              		.thumb
 1030              	.L69:
 1031              	.LBE22:
 1032              		.loc 1 421 0
 1033 0046 2046     		mov	r0, r4
 1034 0048 F8BD     		pop	{r3, r4, r5, r6, r7, pc}
 1035              	.LVL110:
 1036              	.L71:
 1037              		.loc 1 406 0
 1038 004a FFF7FEFF 		bl	dbg_check_unlock
 1039              	.LBB23:
 1040 004e 2346     		mov	r3, r4
 1041              	@ 406 "../chibios_2.4.x/os/kernel/src/chevents.c" 1
 1042 0050 83F31188 		msr     BASEPRI, r3
 1043              	@ 0 "" 2
 1044              	.LVL111:
 1045              		.thumb
 1046              	.LBE23:
 1047              		.loc 1 407 0
 1048 0054 F7E7     		b	.L69
 1049              	.LVL112:
 1050              	.L72:
 1051              		.loc 1 411 0
 1052 0056 FFF7FEFF 		bl	dbg_check_unlock
 1053              	.LBB24:
 1054 005a 2346     		mov	r3, r4
 1055              	@ 411 "../chibios_2.4.x/os/kernel/src/chevents.c" 1
 1056 005c 83F31188 		msr     BASEPRI, r3
 1057              	@ 0 "" 2
 1058              	.LVL113:
 1059              		.thumb
 1060              	.LBE24:
 1061              		.loc 1 412 0
 1062 0060 F1E7     		b	.L69
 1063              	.L74:
 1064 0062 00BF     		.align	2
 1065              	.L73:
 1066 0064 00000000 		.word	rlist
 1067              		.cfi_endproc
 1068              	.LFE19:
 1069              		.size	chEvtWaitOneTimeout, .-chEvtWaitOneTimeout
 1070 0068 AFF30080 		.section	.text.chEvtWaitAnyTimeout,"ax",%progbits
 1070      AFF30080 
ARM GAS  C:\Users\z80\AppData\Local\Temp\ccswBJvz.s 			page 20


 1071              		.align	2
 1072              		.p2align 4,,15
 1073              		.global	chEvtWaitAnyTimeout
 1074              		.thumb
 1075              		.thumb_func
 1076              		.type	chEvtWaitAnyTimeout, %function
 1077              	chEvtWaitAnyTimeout:
 1078              	.LFB20:
 1079              		.loc 1 441 0
 1080              		.cfi_startproc
 1081              		@ args = 0, pretend = 0, frame = 0
 1082              		@ frame_needed = 0, uses_anonymous_args = 0
 1083              	.LVL114:
 1084 0000 F8B5     		push	{r3, r4, r5, r6, r7, lr}
 1085              	.LCFI13:
 1086              		.cfi_def_cfa_offset 24
 1087              		.loc 1 442 0
 1088 0002 174B     		ldr	r3, .L82
 1089              		.cfi_offset 14, -4
 1090              		.cfi_offset 7, -8
 1091              		.cfi_offset 6, -12
 1092              		.cfi_offset 5, -16
 1093              		.cfi_offset 4, -20
 1094              		.cfi_offset 3, -24
 1095              		.loc 1 441 0
 1096 0004 0446     		mov	r4, r0
 1097              		.loc 1 442 0
 1098 0006 DD69     		ldr	r5, [r3, #28]
 1099              	.LVL115:
 1100              		.loc 1 441 0
 1101 0008 0F46     		mov	r7, r1
 1102              	.LBB25:
 1103              		.loc 1 445 0
 1104 000a 2023     		movs	r3, #32
 1105              	.LVL116:
 1106              	@ 445 "../chibios_2.4.x/os/kernel/src/chevents.c" 1
 1107 000c 83F31188 		msr     BASEPRI, r3
 1108              	@ 0 "" 2
 1109              	.LVL117:
 1110              		.thumb
 1111              	.LBE25:
 1112 0010 FFF7FEFF 		bl	dbg_check_lock
 1113              	.LVL118:
 1114              		.loc 1 447 0
 1115 0014 EB6B     		ldr	r3, [r5, #60]
 1116              	.LVL119:
 1117 0016 14EA0306 		ands	r6, r4, r3
 1118 001a 0AD1     		bne	.L76
 1119              		.loc 1 448 0
 1120 001c 9FB1     		cbz	r7, .L80
 1121              		.loc 1 453 0
 1122 001e 0820     		movs	r0, #8
 1123              		.loc 1 452 0
 1124 0020 AC62     		str	r4, [r5, #40]
 1125              		.loc 1 453 0
 1126 0022 3946     		mov	r1, r7
 1127 0024 FFF7FEFF 		bl	chSchGoSleepTimeoutS
ARM GAS  C:\Users\z80\AppData\Local\Temp\ccswBJvz.s 			page 21


 1128              	.LVL120:
 1129 0028 0028     		cmp	r0, #0
 1130 002a 12DB     		blt	.L81
 1131              		.loc 1 457 0
 1132 002c EB6B     		ldr	r3, [r5, #60]
 1133 002e 04EA0306 		and	r6, r4, r3
 1134              	.LVL121:
 1135              	.L76:
 1136              		.loc 1 459 0
 1137 0032 23EA0603 		bic	r3, r3, r6
 1138 0036 EB63     		str	r3, [r5, #60]
 1139              		.loc 1 461 0
 1140 0038 FFF7FEFF 		bl	dbg_check_unlock
 1141              	.LBB26:
 1142 003c 0023     		movs	r3, #0
 1143              	.LVL122:
 1144              	@ 461 "../chibios_2.4.x/os/kernel/src/chevents.c" 1
 1145 003e 83F31188 		msr     BASEPRI, r3
 1146              	@ 0 "" 2
 1147              	.LVL123:
 1148              		.thumb
 1149              	.L78:
 1150              	.LBE26:
 1151              		.loc 1 463 0
 1152 0042 3046     		mov	r0, r6
 1153 0044 F8BD     		pop	{r3, r4, r5, r6, r7, pc}
 1154              	.LVL124:
 1155              	.L80:
 1156              		.loc 1 449 0
 1157 0046 FFF7FEFF 		bl	dbg_check_unlock
 1158              	.LBB27:
 1159 004a 3346     		mov	r3, r6
 1160              	@ 449 "../chibios_2.4.x/os/kernel/src/chevents.c" 1
 1161 004c 83F31188 		msr     BASEPRI, r3
 1162              	@ 0 "" 2
 1163              	.LVL125:
 1164              		.thumb
 1165              	.LBE27:
 1166              		.loc 1 450 0
 1167 0050 F7E7     		b	.L78
 1168              	.LVL126:
 1169              	.L81:
 1170              		.loc 1 454 0
 1171 0052 FFF7FEFF 		bl	dbg_check_unlock
 1172              	.LBB28:
 1173 0056 3346     		mov	r3, r6
 1174              	@ 454 "../chibios_2.4.x/os/kernel/src/chevents.c" 1
 1175 0058 83F31188 		msr     BASEPRI, r3
 1176              	@ 0 "" 2
 1177              	.LVL127:
 1178              		.thumb
 1179              	.LBE28:
 1180              		.loc 1 455 0
 1181 005c F1E7     		b	.L78
 1182              	.L83:
 1183 005e 00BF     		.align	2
 1184              	.L82:
ARM GAS  C:\Users\z80\AppData\Local\Temp\ccswBJvz.s 			page 22


 1185 0060 00000000 		.word	rlist
 1186              		.cfi_endproc
 1187              	.LFE20:
 1188              		.size	chEvtWaitAnyTimeout, .-chEvtWaitAnyTimeout
 1189 0064 AFF30080 		.section	.text.chEvtWaitAllTimeout,"ax",%progbits
 1189      AFF30080 
 1189      AFF30080 
 1190              		.align	2
 1191              		.p2align 4,,15
 1192              		.global	chEvtWaitAllTimeout
 1193              		.thumb
 1194              		.thumb_func
 1195              		.type	chEvtWaitAllTimeout, %function
 1196              	chEvtWaitAllTimeout:
 1197              	.LFB21:
 1198              		.loc 1 482 0
 1199              		.cfi_startproc
 1200              		@ args = 0, pretend = 0, frame = 0
 1201              		@ frame_needed = 0, uses_anonymous_args = 0
 1202              	.LVL128:
 1203              		.loc 1 483 0
 1204 0000 184B     		ldr	r3, .L91
 1205              		.loc 1 482 0
 1206 0002 70B5     		push	{r4, r5, r6, lr}
 1207              	.LCFI14:
 1208              		.cfi_def_cfa_offset 16
 1209              		.loc 1 483 0
 1210 0004 DD69     		ldr	r5, [r3, #28]
 1211              		.cfi_offset 14, -4
 1212              		.cfi_offset 6, -8
 1213              		.cfi_offset 5, -12
 1214              		.cfi_offset 4, -16
 1215              	.LVL129:
 1216              		.loc 1 482 0
 1217 0006 0446     		mov	r4, r0
 1218 0008 0E46     		mov	r6, r1
 1219              	.LBB29:
 1220              		.loc 1 485 0
 1221 000a 2023     		movs	r3, #32
 1222              	.LVL130:
 1223              	@ 485 "../chibios_2.4.x/os/kernel/src/chevents.c" 1
 1224 000c 83F31188 		msr     BASEPRI, r3
 1225              	@ 0 "" 2
 1226              	.LVL131:
 1227              		.thumb
 1228              	.LBE29:
 1229 0010 FFF7FEFF 		bl	dbg_check_lock
 1230              	.LVL132:
 1231              		.loc 1 487 0
 1232 0014 EB6B     		ldr	r3, [r5, #60]
 1233 0016 04EA0302 		and	r2, r4, r3
 1234 001a A242     		cmp	r2, r4
 1235 001c 09D0     		beq	.L85
 1236              		.loc 1 488 0
 1237 001e 96B1     		cbz	r6, .L89
 1238              		.loc 1 493 0
 1239 0020 0920     		movs	r0, #9
ARM GAS  C:\Users\z80\AppData\Local\Temp\ccswBJvz.s 			page 23


 1240              		.loc 1 492 0
 1241 0022 AC62     		str	r4, [r5, #40]
 1242              		.loc 1 493 0
 1243 0024 3146     		mov	r1, r6
 1244 0026 FFF7FEFF 		bl	chSchGoSleepTimeoutS
 1245 002a 0028     		cmp	r0, #0
 1246 002c A8BF     		it	ge
 1247 002e EB6B     		ldrge	r3, [r5, #60]
 1248 0030 10DB     		blt	.L90
 1249              	.L85:
 1250              		.loc 1 498 0
 1251 0032 23EA0403 		bic	r3, r3, r4
 1252 0036 EB63     		str	r3, [r5, #60]
 1253              		.loc 1 500 0
 1254 0038 FFF7FEFF 		bl	dbg_check_unlock
 1255              	.LBB30:
 1256 003c 0023     		movs	r3, #0
 1257              	.LVL133:
 1258              	@ 500 "../chibios_2.4.x/os/kernel/src/chevents.c" 1
 1259 003e 83F31188 		msr     BASEPRI, r3
 1260              	@ 0 "" 2
 1261              	.LVL134:
 1262              		.thumb
 1263              	.L87:
 1264              	.LBE30:
 1265              		.loc 1 502 0
 1266 0042 2046     		mov	r0, r4
 1267 0044 70BD     		pop	{r4, r5, r6, pc}
 1268              	.LVL135:
 1269              	.L89:
 1270              		.loc 1 489 0
 1271 0046 FFF7FEFF 		bl	dbg_check_unlock
 1272              	.LBB31:
 1273 004a 3346     		mov	r3, r6
 1274              	@ 489 "../chibios_2.4.x/os/kernel/src/chevents.c" 1
 1275 004c 83F31188 		msr     BASEPRI, r3
 1276              	@ 0 "" 2
 1277              	.LVL136:
 1278              		.thumb
 1279              	.LBE31:
 1280              		.loc 1 490 0
 1281 0050 3446     		mov	r4, r6
 1282              	.LVL137:
 1283 0052 F6E7     		b	.L87
 1284              	.LVL138:
 1285              	.L90:
 1286              		.loc 1 494 0
 1287 0054 FFF7FEFF 		bl	dbg_check_unlock
 1288              	.LBB32:
 1289 0058 0023     		movs	r3, #0
 1290              	@ 494 "../chibios_2.4.x/os/kernel/src/chevents.c" 1
 1291 005a 83F31188 		msr     BASEPRI, r3
 1292              	@ 0 "" 2
 1293              	.LVL139:
 1294              		.thumb
 1295              	.LBE32:
 1296              		.loc 1 495 0
ARM GAS  C:\Users\z80\AppData\Local\Temp\ccswBJvz.s 			page 24


 1297 005e 1C46     		mov	r4, r3
 1298              	.LVL140:
 1299 0060 EFE7     		b	.L87
 1300              	.L92:
 1301 0062 00BF     		.align	2
 1302              	.L91:
 1303 0064 00000000 		.word	rlist
 1304              		.cfi_endproc
 1305              	.LFE21:
 1306              		.size	chEvtWaitAllTimeout, .-chEvtWaitAllTimeout
 1307 0068 AFF30080 		.section	.rodata.str1.4,"aMS",%progbits,1
 1307      AFF30080 
 1308              		.align	2
 1309              	.LC0:
 1310 0000 22636845 		.ascii	"\"chEvtRegisterMask\"()\000"
 1310      76745265 
 1310      67697374 
 1310      65724D61 
 1310      736B2228 
 1311 0016 0000     		.space	2
 1312              	.LC1:
 1313 0018 22636845 		.ascii	"\"chEvtUnregister\"()\000"
 1313      7674556E 
 1313      72656769 
 1313      73746572 
 1313      22282900 
 1314              	.LC2:
 1315 002c 22636845 		.ascii	"\"chEvtSignalI\"()\000"
 1315      76745369 
 1315      676E616C 
 1315      49222829 
 1315      00
 1316 003d 000000   		.space	3
 1317              	.LC3:
 1318 0040 22636845 		.ascii	"\"chEvtSignal\"()\000"
 1318      76745369 
 1318      676E616C 
 1318      22282900 
 1319              	.LC4:
 1320 0050 22636845 		.ascii	"\"chEvtBroadcastMaskI\"()\000"
 1320      76744272 
 1320      6F616463 
 1320      6173744D 
 1320      61736B49 
 1321              	.LC5:
 1322 0068 22636845 		.ascii	"\"chEvtDispatch\"()\000"
 1322      76744469 
 1322      73706174 
 1322      63682228 
 1322      2900
 1323 007a 0000     		.space	2
 1324              	.LC6:
 1325 007c 63684576 		.ascii	"chEvtDispatch(), #1\000"
 1325      74446973 
 1325      70617463 
 1325      6828292C 
 1325      20233100 
ARM GAS  C:\Users\z80\AppData\Local\Temp\ccswBJvz.s 			page 25


 1326              		.text
 1327              	.Letext0:
 1328              		.section	.debug_loc,"",%progbits
 1329              	.Ldebug_loc0:
 1330              	.LLST0:
 1331 0000 00000000 		.4byte	.LFB7
 1332 0004 12000000 		.4byte	.LCFI0
 1333 0008 0200     		.2byte	0x2
 1334 000a 7D       		.byte	0x7d
 1335 000b 00       		.sleb128 0
 1336 000c 12000000 		.4byte	.LCFI0
 1337 0010 4C000000 		.4byte	.LFE7
 1338 0014 0200     		.2byte	0x2
 1339 0016 7D       		.byte	0x7d
 1340 0017 10       		.sleb128 16
 1341 0018 00000000 		.4byte	0x0
 1342 001c 00000000 		.4byte	0x0
 1343              	.LLST1:
 1344 0020 00000000 		.4byte	.LVL0
 1345 0024 1C000000 		.4byte	.LVL1
 1346 0028 0100     		.2byte	0x1
 1347 002a 50       		.byte	0x50
 1348 002b 1C000000 		.4byte	.LVL1
 1349 002f 4C000000 		.4byte	.LFE7
 1350 0033 0100     		.2byte	0x1
 1351 0035 54       		.byte	0x54
 1352 0036 00000000 		.4byte	0x0
 1353 003a 00000000 		.4byte	0x0
 1354              	.LLST2:
 1355 003e 00000000 		.4byte	.LVL0
 1356 0042 1F000000 		.4byte	.LVL2-1
 1357 0046 0100     		.2byte	0x1
 1358 0048 51       		.byte	0x51
 1359 0049 1F000000 		.4byte	.LVL2-1
 1360 004d 4C000000 		.4byte	.LFE7
 1361 0051 0100     		.2byte	0x1
 1362 0053 55       		.byte	0x55
 1363 0054 00000000 		.4byte	0x0
 1364 0058 00000000 		.4byte	0x0
 1365              	.LLST3:
 1366 005c 00000000 		.4byte	.LVL0
 1367 0060 1F000000 		.4byte	.LVL2-1
 1368 0064 0100     		.2byte	0x1
 1369 0066 52       		.byte	0x52
 1370 0067 1F000000 		.4byte	.LVL2-1
 1371 006b 4C000000 		.4byte	.LFE7
 1372 006f 0100     		.2byte	0x1
 1373 0071 56       		.byte	0x56
 1374 0072 00000000 		.4byte	0x0
 1375 0076 00000000 		.4byte	0x0
 1376              	.LLST4:
 1377 007a 26000000 		.4byte	.LVL4
 1378 007e 29000000 		.4byte	.LVL5-1
 1379 0082 0100     		.2byte	0x1
 1380 0084 53       		.byte	0x53
 1381 0085 00000000 		.4byte	0x0
 1382 0089 00000000 		.4byte	0x0
ARM GAS  C:\Users\z80\AppData\Local\Temp\ccswBJvz.s 			page 26


 1383              	.LLST5:
 1384 008d 42000000 		.4byte	.LVL7
 1385 0091 4C000000 		.4byte	.LFE7
 1386 0095 0100     		.2byte	0x1
 1387 0097 53       		.byte	0x53
 1388 0098 00000000 		.4byte	0x0
 1389 009c 00000000 		.4byte	0x0
 1390              	.LLST6:
 1391 00a0 00000000 		.4byte	.LFB8
 1392 00a4 02000000 		.4byte	.LCFI1
 1393 00a8 0200     		.2byte	0x2
 1394 00aa 7D       		.byte	0x7d
 1395 00ab 00       		.sleb128 0
 1396 00ac 02000000 		.4byte	.LCFI1
 1397 00b0 50000000 		.4byte	.LFE8
 1398 00b4 0200     		.2byte	0x2
 1399 00b6 7D       		.byte	0x7d
 1400 00b7 10       		.sleb128 16
 1401 00b8 00000000 		.4byte	0x0
 1402 00bc 00000000 		.4byte	0x0
 1403              	.LLST7:
 1404 00c0 00000000 		.4byte	.LVL8
 1405 00c4 18000000 		.4byte	.LVL9
 1406 00c8 0100     		.2byte	0x1
 1407 00ca 50       		.byte	0x50
 1408 00cb 18000000 		.4byte	.LVL9
 1409 00cf 50000000 		.4byte	.LFE8
 1410 00d3 0100     		.2byte	0x1
 1411 00d5 54       		.byte	0x54
 1412 00d6 00000000 		.4byte	0x0
 1413 00da 00000000 		.4byte	0x0
 1414              	.LLST8:
 1415 00de 00000000 		.4byte	.LVL8
 1416 00e2 18000000 		.4byte	.LVL9
 1417 00e6 0100     		.2byte	0x1
 1418 00e8 51       		.byte	0x51
 1419 00e9 18000000 		.4byte	.LVL9
 1420 00ed 50000000 		.4byte	.LFE8
 1421 00f1 0100     		.2byte	0x1
 1422 00f3 55       		.byte	0x55
 1423 00f4 00000000 		.4byte	0x0
 1424 00f8 00000000 		.4byte	0x0
 1425              	.LLST9:
 1426 00fc 18000000 		.4byte	.LVL9
 1427 0100 26000000 		.4byte	.LVL13
 1428 0104 0100     		.2byte	0x1
 1429 0106 54       		.byte	0x54
 1430 0107 26000000 		.4byte	.LVL13
 1431 010b 2C000000 		.4byte	.LVL14
 1432 010f 0100     		.2byte	0x1
 1433 0111 52       		.byte	0x52
 1434 0112 2C000000 		.4byte	.LVL14
 1435 0116 35000000 		.4byte	.LVL15-1
 1436 011a 0100     		.2byte	0x1
 1437 011c 52       		.byte	0x52
 1438 011d 3E000000 		.4byte	.LVL18
 1439 0121 44000000 		.4byte	.LVL19
ARM GAS  C:\Users\z80\AppData\Local\Temp\ccswBJvz.s 			page 27


 1440 0125 0100     		.2byte	0x1
 1441 0127 52       		.byte	0x52
 1442 0128 00000000 		.4byte	0x0
 1443 012c 00000000 		.4byte	0x0
 1444              	.LLST10:
 1445 0130 1E000000 		.4byte	.LVL11
 1446 0134 21000000 		.4byte	.LVL12-1
 1447 0138 0100     		.2byte	0x1
 1448 013a 53       		.byte	0x53
 1449 013b 00000000 		.4byte	0x0
 1450 013f 00000000 		.4byte	0x0
 1451              	.LLST11:
 1452 0143 3C000000 		.4byte	.LVL17
 1453 0147 3E000000 		.4byte	.LVL18
 1454 014b 0100     		.2byte	0x1
 1455 014d 53       		.byte	0x53
 1456 014e 00000000 		.4byte	0x0
 1457 0152 00000000 		.4byte	0x0
 1458              	.LLST12:
 1459 0156 00000000 		.4byte	.LFB9
 1460 015a 02000000 		.4byte	.LCFI2
 1461 015e 0200     		.2byte	0x2
 1462 0160 7D       		.byte	0x7d
 1463 0161 00       		.sleb128 0
 1464 0162 02000000 		.4byte	.LCFI2
 1465 0166 30000000 		.4byte	.LFE9
 1466 016a 0200     		.2byte	0x2
 1467 016c 7D       		.byte	0x7d
 1468 016d 10       		.sleb128 16
 1469 016e 00000000 		.4byte	0x0
 1470 0172 00000000 		.4byte	0x0
 1471              	.LLST13:
 1472 0176 00000000 		.4byte	.LVL20
 1473 017a 0D000000 		.4byte	.LVL23-1
 1474 017e 0100     		.2byte	0x1
 1475 0180 50       		.byte	0x50
 1476 0181 0D000000 		.4byte	.LVL23-1
 1477 0185 30000000 		.4byte	.LFE9
 1478 0189 0100     		.2byte	0x1
 1479 018b 55       		.byte	0x55
 1480 018c 00000000 		.4byte	0x0
 1481 0190 00000000 		.4byte	0x0
 1482              	.LLST14:
 1483 0194 0A000000 		.4byte	.LVL22
 1484 0198 0D000000 		.4byte	.LVL23-1
 1485 019c 0100     		.2byte	0x1
 1486 019e 53       		.byte	0x53
 1487 019f 00000000 		.4byte	0x0
 1488 01a3 00000000 		.4byte	0x0
 1489              	.LLST15:
 1490 01a7 2A000000 		.4byte	.LVL26
 1491 01ab 30000000 		.4byte	.LFE9
 1492 01af 0100     		.2byte	0x1
 1493 01b1 53       		.byte	0x53
 1494 01b2 00000000 		.4byte	0x0
 1495 01b6 00000000 		.4byte	0x0
 1496              	.LLST16:
ARM GAS  C:\Users\z80\AppData\Local\Temp\ccswBJvz.s 			page 28


 1497 01ba 00000000 		.4byte	.LFB10
 1498 01be 02000000 		.4byte	.LCFI3
 1499 01c2 0200     		.2byte	0x2
 1500 01c4 7D       		.byte	0x7d
 1501 01c5 00       		.sleb128 0
 1502 01c6 02000000 		.4byte	.LCFI3
 1503 01ca 2C000000 		.4byte	.LFE10
 1504 01ce 0200     		.2byte	0x2
 1505 01d0 7D       		.byte	0x7d
 1506 01d1 08       		.sleb128 8
 1507 01d2 00000000 		.4byte	0x0
 1508 01d6 00000000 		.4byte	0x0
 1509              	.LLST17:
 1510 01da 00000000 		.4byte	.LVL27
 1511 01de 0D000000 		.4byte	.LVL30-1
 1512 01e2 0100     		.2byte	0x1
 1513 01e4 50       		.byte	0x50
 1514 01e5 0D000000 		.4byte	.LVL30-1
 1515 01e9 1C000000 		.4byte	.LVL31
 1516 01ed 0100     		.2byte	0x1
 1517 01ef 54       		.byte	0x54
 1518 01f0 1E000000 		.4byte	.LVL32
 1519 01f4 2C000000 		.4byte	.LFE10
 1520 01f8 0100     		.2byte	0x1
 1521 01fa 54       		.byte	0x54
 1522 01fb 00000000 		.4byte	0x0
 1523 01ff 00000000 		.4byte	0x0
 1524              	.LLST18:
 1525 0203 0A000000 		.4byte	.LVL29
 1526 0207 0D000000 		.4byte	.LVL30-1
 1527 020b 0100     		.2byte	0x1
 1528 020d 53       		.byte	0x53
 1529 020e 00000000 		.4byte	0x0
 1530 0212 00000000 		.4byte	0x0
 1531              	.LLST19:
 1532 0216 28000000 		.4byte	.LVL34
 1533 021a 2C000000 		.4byte	.LFE10
 1534 021e 0100     		.2byte	0x1
 1535 0220 53       		.byte	0x53
 1536 0221 00000000 		.4byte	0x0
 1537 0225 00000000 		.4byte	0x0
 1538              	.LLST20:
 1539 0229 00000000 		.4byte	.LFB12
 1540 022d 02000000 		.4byte	.LCFI4
 1541 0231 0200     		.2byte	0x2
 1542 0233 7D       		.byte	0x7d
 1543 0234 00       		.sleb128 0
 1544 0235 02000000 		.4byte	.LCFI4
 1545 0239 54000000 		.4byte	.LFE12
 1546 023d 0200     		.2byte	0x2
 1547 023f 7D       		.byte	0x7d
 1548 0240 10       		.sleb128 16
 1549 0241 00000000 		.4byte	0x0
 1550 0245 00000000 		.4byte	0x0
 1551              	.LLST21:
 1552 0249 00000000 		.4byte	.LVL35
 1553 024d 09000000 		.4byte	.LVL36-1
ARM GAS  C:\Users\z80\AppData\Local\Temp\ccswBJvz.s 			page 29


 1554 0251 0100     		.2byte	0x1
 1555 0253 50       		.byte	0x50
 1556 0254 09000000 		.4byte	.LVL36-1
 1557 0258 54000000 		.4byte	.LFE12
 1558 025c 0100     		.2byte	0x1
 1559 025e 54       		.byte	0x54
 1560 025f 00000000 		.4byte	0x0
 1561 0263 00000000 		.4byte	0x0
 1562              	.LLST22:
 1563 0267 00000000 		.4byte	.LVL35
 1564 026b 09000000 		.4byte	.LVL36-1
 1565 026f 0100     		.2byte	0x1
 1566 0271 51       		.byte	0x51
 1567 0272 09000000 		.4byte	.LVL36-1
 1568 0276 16000000 		.4byte	.LVL37
 1569 027a 0100     		.2byte	0x1
 1570 027c 55       		.byte	0x55
 1571 027d 48000000 		.4byte	.LVL38
 1572 0281 54000000 		.4byte	.LFE12
 1573 0285 0100     		.2byte	0x1
 1574 0287 55       		.byte	0x55
 1575 0288 00000000 		.4byte	0x0
 1576 028c 00000000 		.4byte	0x0
 1577              	.LLST23:
 1578 0290 00000000 		.4byte	.LFB11
 1579 0294 02000000 		.4byte	.LCFI5
 1580 0298 0200     		.2byte	0x2
 1581 029a 7D       		.byte	0x7d
 1582 029b 00       		.sleb128 0
 1583 029c 02000000 		.4byte	.LCFI5
 1584 02a0 38000000 		.4byte	.LFE11
 1585 02a4 0200     		.2byte	0x2
 1586 02a6 7D       		.byte	0x7d
 1587 02a7 10       		.sleb128 16
 1588 02a8 00000000 		.4byte	0x0
 1589 02ac 00000000 		.4byte	0x0
 1590              	.LLST24:
 1591 02b0 00000000 		.4byte	.LVL39
 1592 02b4 08000000 		.4byte	.LVL40
 1593 02b8 0100     		.2byte	0x1
 1594 02ba 50       		.byte	0x50
 1595 02bb 08000000 		.4byte	.LVL40
 1596 02bf 38000000 		.4byte	.LFE11
 1597 02c3 0100     		.2byte	0x1
 1598 02c5 54       		.byte	0x54
 1599 02c6 00000000 		.4byte	0x0
 1600 02ca 00000000 		.4byte	0x0
 1601              	.LLST25:
 1602 02ce 00000000 		.4byte	.LVL39
 1603 02d2 08000000 		.4byte	.LVL40
 1604 02d6 0100     		.2byte	0x1
 1605 02d8 51       		.byte	0x51
 1606 02d9 08000000 		.4byte	.LVL40
 1607 02dd 38000000 		.4byte	.LFE11
 1608 02e1 0100     		.2byte	0x1
 1609 02e3 55       		.byte	0x55
 1610 02e4 00000000 		.4byte	0x0
ARM GAS  C:\Users\z80\AppData\Local\Temp\ccswBJvz.s 			page 30


 1611 02e8 00000000 		.4byte	0x0
 1612              	.LLST26:
 1613 02ec 0E000000 		.4byte	.LVL42
 1614 02f0 11000000 		.4byte	.LVL43-1
 1615 02f4 0100     		.2byte	0x1
 1616 02f6 53       		.byte	0x53
 1617 02f7 00000000 		.4byte	0x0
 1618 02fb 00000000 		.4byte	0x0
 1619              	.LLST27:
 1620 02ff 28000000 		.4byte	.LVL45
 1621 0303 2A000000 		.4byte	.LVL46
 1622 0307 0100     		.2byte	0x1
 1623 0309 53       		.byte	0x53
 1624 030a 00000000 		.4byte	0x0
 1625 030e 00000000 		.4byte	0x0
 1626              	.LLST28:
 1627 0312 00000000 		.4byte	.LFB14
 1628 0316 02000000 		.4byte	.LCFI6
 1629 031a 0200     		.2byte	0x2
 1630 031c 7D       		.byte	0x7d
 1631 031d 00       		.sleb128 0
 1632 031e 02000000 		.4byte	.LCFI6
 1633 0322 34000000 		.4byte	.LFE14
 1634 0326 0200     		.2byte	0x2
 1635 0328 7D       		.byte	0x7d
 1636 0329 10       		.sleb128 16
 1637 032a 00000000 		.4byte	0x0
 1638 032e 00000000 		.4byte	0x0
 1639              	.LLST29:
 1640 0332 00000000 		.4byte	.LVL47
 1641 0336 09000000 		.4byte	.LVL48-1
 1642 033a 0100     		.2byte	0x1
 1643 033c 50       		.byte	0x50
 1644 033d 09000000 		.4byte	.LVL48-1
 1645 0341 34000000 		.4byte	.LFE14
 1646 0345 0100     		.2byte	0x1
 1647 0347 55       		.byte	0x55
 1648 0348 00000000 		.4byte	0x0
 1649 034c 00000000 		.4byte	0x0
 1650              	.LLST30:
 1651 0350 00000000 		.4byte	.LVL47
 1652 0354 09000000 		.4byte	.LVL48-1
 1653 0358 0100     		.2byte	0x1
 1654 035a 51       		.byte	0x51
 1655 035b 09000000 		.4byte	.LVL48-1
 1656 035f 34000000 		.4byte	.LFE14
 1657 0363 0100     		.2byte	0x1
 1658 0365 56       		.byte	0x56
 1659 0366 00000000 		.4byte	0x0
 1660 036a 00000000 		.4byte	0x0
 1661              	.LLST31:
 1662 036e 0E000000 		.4byte	.LVL49
 1663 0372 12000000 		.4byte	.LVL50
 1664 0376 0200     		.2byte	0x2
 1665 0378 75       		.byte	0x75
 1666 0379 00       		.sleb128 0
 1667 037a 12000000 		.4byte	.LVL50
ARM GAS  C:\Users\z80\AppData\Local\Temp\ccswBJvz.s 			page 31


 1668 037e 20000000 		.4byte	.LVL51
 1669 0382 0100     		.2byte	0x1
 1670 0384 54       		.byte	0x54
 1671 0385 20000000 		.4byte	.LVL51
 1672 0389 26000000 		.4byte	.LVL52
 1673 038d 0100     		.2byte	0x1
 1674 038f 54       		.byte	0x54
 1675 0390 00000000 		.4byte	0x0
 1676 0394 00000000 		.4byte	0x0
 1677              	.LLST32:
 1678 0398 00000000 		.4byte	.LFB13
 1679 039c 02000000 		.4byte	.LCFI7
 1680 03a0 0200     		.2byte	0x2
 1681 03a2 7D       		.byte	0x7d
 1682 03a3 00       		.sleb128 0
 1683 03a4 02000000 		.4byte	.LCFI7
 1684 03a8 28000000 		.4byte	.LFE13
 1685 03ac 0200     		.2byte	0x2
 1686 03ae 7D       		.byte	0x7d
 1687 03af 10       		.sleb128 16
 1688 03b0 00000000 		.4byte	0x0
 1689 03b4 00000000 		.4byte	0x0
 1690              	.LLST33:
 1691 03b8 00000000 		.4byte	.LVL53
 1692 03bc 0F000000 		.4byte	.LVL56-1
 1693 03c0 0100     		.2byte	0x1
 1694 03c2 50       		.byte	0x50
 1695 03c3 0F000000 		.4byte	.LVL56-1
 1696 03c7 28000000 		.4byte	.LFE13
 1697 03cb 0100     		.2byte	0x1
 1698 03cd 55       		.byte	0x55
 1699 03ce 00000000 		.4byte	0x0
 1700 03d2 00000000 		.4byte	0x0
 1701              	.LLST34:
 1702 03d6 00000000 		.4byte	.LVL53
 1703 03da 0F000000 		.4byte	.LVL56-1
 1704 03de 0100     		.2byte	0x1
 1705 03e0 51       		.byte	0x51
 1706 03e1 0F000000 		.4byte	.LVL56-1
 1707 03e5 28000000 		.4byte	.LFE13
 1708 03e9 0100     		.2byte	0x1
 1709 03eb 54       		.byte	0x54
 1710 03ec 00000000 		.4byte	0x0
 1711 03f0 00000000 		.4byte	0x0
 1712              	.LLST35:
 1713 03f4 0C000000 		.4byte	.LVL55
 1714 03f8 0F000000 		.4byte	.LVL56-1
 1715 03fc 0100     		.2byte	0x1
 1716 03fe 53       		.byte	0x53
 1717 03ff 00000000 		.4byte	0x0
 1718 0403 00000000 		.4byte	0x0
 1719              	.LLST36:
 1720 0407 26000000 		.4byte	.LVL58
 1721 040b 28000000 		.4byte	.LFE13
 1722 040f 0100     		.2byte	0x1
 1723 0411 53       		.byte	0x53
 1724 0412 00000000 		.4byte	0x0
ARM GAS  C:\Users\z80\AppData\Local\Temp\ccswBJvz.s 			page 32


 1725 0416 00000000 		.4byte	0x0
 1726              	.LLST37:
 1727 041a 00000000 		.4byte	.LFB15
 1728 041e 04000000 		.4byte	.LCFI8
 1729 0422 0200     		.2byte	0x2
 1730 0424 7D       		.byte	0x7d
 1731 0425 00       		.sleb128 0
 1732 0426 04000000 		.4byte	.LCFI8
 1733 042a 50000000 		.4byte	.LFE15
 1734 042e 0200     		.2byte	0x2
 1735 0430 7D       		.byte	0x7d
 1736 0431 18       		.sleb128 24
 1737 0432 00000000 		.4byte	0x0
 1738 0436 00000000 		.4byte	0x0
 1739              	.LLST38:
 1740 043a 00000000 		.4byte	.LVL59
 1741 043e 0A000000 		.4byte	.LVL60
 1742 0442 0100     		.2byte	0x1
 1743 0444 50       		.byte	0x50
 1744 0445 0A000000 		.4byte	.LVL60
 1745 0449 50000000 		.4byte	.LFE15
 1746 044d 0100     		.2byte	0x1
 1747 044f 54       		.byte	0x54
 1748 0450 00000000 		.4byte	0x0
 1749 0454 00000000 		.4byte	0x0
 1750              	.LLST39:
 1751 0458 00000000 		.4byte	.LVL59
 1752 045c 0A000000 		.4byte	.LVL60
 1753 0460 0100     		.2byte	0x1
 1754 0462 51       		.byte	0x51
 1755 0463 0A000000 		.4byte	.LVL60
 1756 0467 20000000 		.4byte	.LVL62
 1757 046b 0100     		.2byte	0x1
 1758 046d 56       		.byte	0x56
 1759 046e 24000000 		.4byte	.LVL63
 1760 0472 34000000 		.4byte	.LVL67
 1761 0476 0100     		.2byte	0x1
 1762 0478 56       		.byte	0x56
 1763 0479 3E000000 		.4byte	.LVL68
 1764 047d 43000000 		.4byte	.LVL69-1
 1765 0481 0100     		.2byte	0x1
 1766 0483 51       		.byte	0x51
 1767 0484 43000000 		.4byte	.LVL69-1
 1768 0488 50000000 		.4byte	.LFE15
 1769 048c 0100     		.2byte	0x1
 1770 048e 56       		.byte	0x56
 1771 048f 00000000 		.4byte	0x0
 1772 0493 00000000 		.4byte	0x0
 1773              	.LLST40:
 1774 0497 0A000000 		.4byte	.LVL60
 1775 049b 14000000 		.4byte	.LVL61
 1776 049f 0200     		.2byte	0x2
 1777 04a1 30       		.byte	0x30
 1778 04a2 9F       		.byte	0x9f
 1779 04a3 28000000 		.4byte	.LVL64
 1780 04a7 2E000000 		.4byte	.LVL65
 1781 04ab 0300     		.2byte	0x3
ARM GAS  C:\Users\z80\AppData\Local\Temp\ccswBJvz.s 			page 33


 1782 04ad 75       		.byte	0x75
 1783 04ae 01       		.sleb128 1
 1784 04af 9F       		.byte	0x9f
 1785 04b0 2E000000 		.4byte	.LVL65
 1786 04b4 30000000 		.4byte	.LVL66
 1787 04b8 0100     		.2byte	0x1
 1788 04ba 55       		.byte	0x55
 1789 04bb 00000000 		.4byte	0x0
 1790 04bf 00000000 		.4byte	0x0
 1791              	.LLST41:
 1792 04c3 00000000 		.4byte	.LFB16
 1793 04c7 02000000 		.4byte	.LCFI9
 1794 04cb 0200     		.2byte	0x2
 1795 04cd 7D       		.byte	0x7d
 1796 04ce 00       		.sleb128 0
 1797 04cf 02000000 		.4byte	.LCFI9
 1798 04d3 44000000 		.4byte	.LFE16
 1799 04d7 0200     		.2byte	0x2
 1800 04d9 7D       		.byte	0x7d
 1801 04da 10       		.sleb128 16
 1802 04db 00000000 		.4byte	0x0
 1803 04df 00000000 		.4byte	0x0
 1804              	.LLST42:
 1805 04e3 00000000 		.4byte	.LVL70
 1806 04e7 11000000 		.4byte	.LVL74-1
 1807 04eb 0100     		.2byte	0x1
 1808 04ed 50       		.byte	0x50
 1809 04ee 11000000 		.4byte	.LVL74-1
 1810 04f2 2A000000 		.4byte	.LVL78
 1811 04f6 0100     		.2byte	0x1
 1812 04f8 55       		.byte	0x55
 1813 04f9 00000000 		.4byte	0x0
 1814 04fd 00000000 		.4byte	0x0
 1815              	.LLST43:
 1816 0501 08000000 		.4byte	.LVL71
 1817 0505 0A000000 		.4byte	.LVL72
 1818 0509 0200     		.2byte	0x2
 1819 050b 73       		.byte	0x73
 1820 050c 1C       		.sleb128 28
 1821 050d 11000000 		.4byte	.LVL74-1
 1822 0511 44000000 		.4byte	.LFE16
 1823 0515 0100     		.2byte	0x1
 1824 0517 54       		.byte	0x54
 1825 0518 00000000 		.4byte	0x0
 1826 051c 00000000 		.4byte	0x0
 1827              	.LLST44:
 1828 0520 14000000 		.4byte	.LVL75
 1829 0524 21000000 		.4byte	.LVL76-1
 1830 0528 0700     		.2byte	0x7
 1831 052a 75       		.byte	0x75
 1832 052b 00       		.sleb128 0
 1833 052c 74       		.byte	0x74
 1834 052d 3C       		.sleb128 60
 1835 052e 06       		.byte	0x6
 1836 052f 1A       		.byte	0x1a
 1837 0530 9F       		.byte	0x9f
 1838 0531 28000000 		.4byte	.LVL77
ARM GAS  C:\Users\z80\AppData\Local\Temp\ccswBJvz.s 			page 34


 1839 0535 2C000000 		.4byte	.LVL79
 1840 0539 0100     		.2byte	0x1
 1841 053b 52       		.byte	0x52
 1842 053c 2C000000 		.4byte	.LVL79
 1843 0540 44000000 		.4byte	.LFE16
 1844 0544 0100     		.2byte	0x1
 1845 0546 55       		.byte	0x55
 1846 0547 00000000 		.4byte	0x0
 1847 054b 00000000 		.4byte	0x0
 1848              	.LLST45:
 1849 054f 0E000000 		.4byte	.LVL73
 1850 0553 11000000 		.4byte	.LVL74-1
 1851 0557 0100     		.2byte	0x1
 1852 0559 53       		.byte	0x53
 1853 055a 00000000 		.4byte	0x0
 1854 055e 00000000 		.4byte	0x0
 1855              	.LLST46:
 1856 0562 3C000000 		.4byte	.LVL81
 1857 0566 44000000 		.4byte	.LFE16
 1858 056a 0100     		.2byte	0x1
 1859 056c 53       		.byte	0x53
 1860 056d 00000000 		.4byte	0x0
 1861 0571 00000000 		.4byte	0x0
 1862              	.LLST47:
 1863 0575 00000000 		.4byte	.LFB17
 1864 0579 04000000 		.4byte	.LCFI10
 1865 057d 0200     		.2byte	0x2
 1866 057f 7D       		.byte	0x7d
 1867 0580 00       		.sleb128 0
 1868 0581 04000000 		.4byte	.LCFI10
 1869 0585 40000000 		.4byte	.LFE17
 1870 0589 0200     		.2byte	0x2
 1871 058b 7D       		.byte	0x7d
 1872 058c 10       		.sleb128 16
 1873 058d 00000000 		.4byte	0x0
 1874 0591 00000000 		.4byte	0x0
 1875              	.LLST48:
 1876 0595 00000000 		.4byte	.LVL82
 1877 0599 11000000 		.4byte	.LVL86-1
 1878 059d 0100     		.2byte	0x1
 1879 059f 50       		.byte	0x50
 1880 05a0 11000000 		.4byte	.LVL86-1
 1881 05a4 40000000 		.4byte	.LFE17
 1882 05a8 0100     		.2byte	0x1
 1883 05aa 55       		.byte	0x55
 1884 05ab 00000000 		.4byte	0x0
 1885 05af 00000000 		.4byte	0x0
 1886              	.LLST49:
 1887 05b3 06000000 		.4byte	.LVL83
 1888 05b7 0A000000 		.4byte	.LVL84
 1889 05bb 0200     		.2byte	0x2
 1890 05bd 73       		.byte	0x73
 1891 05be 1C       		.sleb128 28
 1892 05bf 11000000 		.4byte	.LVL86-1
 1893 05c3 40000000 		.4byte	.LFE17
 1894 05c7 0100     		.2byte	0x1
 1895 05c9 54       		.byte	0x54
ARM GAS  C:\Users\z80\AppData\Local\Temp\ccswBJvz.s 			page 35


 1896 05ca 00000000 		.4byte	0x0
 1897 05ce 00000000 		.4byte	0x0
 1898              	.LLST50:
 1899 05d2 14000000 		.4byte	.LVL87
 1900 05d6 21000000 		.4byte	.LVL88-1
 1901 05da 0700     		.2byte	0x7
 1902 05dc 75       		.byte	0x75
 1903 05dd 00       		.sleb128 0
 1904 05de 74       		.byte	0x74
 1905 05df 3C       		.sleb128 60
 1906 05e0 06       		.byte	0x6
 1907 05e1 1A       		.byte	0x1a
 1908 05e2 9F       		.byte	0x9f
 1909 05e3 21000000 		.4byte	.LVL88-1
 1910 05e7 28000000 		.4byte	.LVL89
 1911 05eb 0100     		.2byte	0x1
 1912 05ed 56       		.byte	0x56
 1913 05ee 28000000 		.4byte	.LVL89
 1914 05f2 40000000 		.4byte	.LFE17
 1915 05f6 0100     		.2byte	0x1
 1916 05f8 56       		.byte	0x56
 1917 05f9 00000000 		.4byte	0x0
 1918 05fd 00000000 		.4byte	0x0
 1919              	.LLST51:
 1920 0601 0E000000 		.4byte	.LVL85
 1921 0605 11000000 		.4byte	.LVL86-1
 1922 0609 0100     		.2byte	0x1
 1923 060b 53       		.byte	0x53
 1924 060c 00000000 		.4byte	0x0
 1925 0610 00000000 		.4byte	0x0
 1926              	.LLST52:
 1927 0614 38000000 		.4byte	.LVL91
 1928 0618 40000000 		.4byte	.LFE17
 1929 061c 0100     		.2byte	0x1
 1930 061e 53       		.byte	0x53
 1931 061f 00000000 		.4byte	0x0
 1932 0623 00000000 		.4byte	0x0
 1933              	.LLST53:
 1934 0627 00000000 		.4byte	.LFB18
 1935 062b 02000000 		.4byte	.LCFI11
 1936 062f 0200     		.2byte	0x2
 1937 0631 7D       		.byte	0x7d
 1938 0632 00       		.sleb128 0
 1939 0633 02000000 		.4byte	.LCFI11
 1940 0637 40000000 		.4byte	.LFE18
 1941 063b 0200     		.2byte	0x2
 1942 063d 7D       		.byte	0x7d
 1943 063e 10       		.sleb128 16
 1944 063f 00000000 		.4byte	0x0
 1945 0643 00000000 		.4byte	0x0
 1946              	.LLST54:
 1947 0647 00000000 		.4byte	.LVL92
 1948 064b 11000000 		.4byte	.LVL96-1
 1949 064f 0100     		.2byte	0x1
 1950 0651 50       		.byte	0x50
 1951 0652 11000000 		.4byte	.LVL96-1
 1952 0656 40000000 		.4byte	.LFE18
ARM GAS  C:\Users\z80\AppData\Local\Temp\ccswBJvz.s 			page 36


 1953 065a 0100     		.2byte	0x1
 1954 065c 54       		.byte	0x54
 1955 065d 00000000 		.4byte	0x0
 1956 0661 00000000 		.4byte	0x0
 1957              	.LLST55:
 1958 0665 08000000 		.4byte	.LVL93
 1959 0669 0A000000 		.4byte	.LVL94
 1960 066d 0200     		.2byte	0x2
 1961 066f 73       		.byte	0x73
 1962 0670 1C       		.sleb128 28
 1963 0671 11000000 		.4byte	.LVL96-1
 1964 0675 40000000 		.4byte	.LFE18
 1965 0679 0100     		.2byte	0x1
 1966 067b 55       		.byte	0x55
 1967 067c 00000000 		.4byte	0x0
 1968 0680 00000000 		.4byte	0x0
 1969              	.LLST56:
 1970 0684 0E000000 		.4byte	.LVL95
 1971 0688 11000000 		.4byte	.LVL96-1
 1972 068c 0100     		.2byte	0x1
 1973 068e 53       		.byte	0x53
 1974 068f 00000000 		.4byte	0x0
 1975 0693 00000000 		.4byte	0x0
 1976              	.LLST57:
 1977 0697 36000000 		.4byte	.LVL98
 1978 069b 40000000 		.4byte	.LFE18
 1979 069f 0100     		.2byte	0x1
 1980 06a1 53       		.byte	0x53
 1981 06a2 00000000 		.4byte	0x0
 1982 06a6 00000000 		.4byte	0x0
 1983              	.LLST58:
 1984 06aa 00000000 		.4byte	.LFB19
 1985 06ae 02000000 		.4byte	.LCFI12
 1986 06b2 0200     		.2byte	0x2
 1987 06b4 7D       		.byte	0x7d
 1988 06b5 00       		.sleb128 0
 1989 06b6 02000000 		.4byte	.LCFI12
 1990 06ba 68000000 		.4byte	.LFE19
 1991 06be 0200     		.2byte	0x2
 1992 06c0 7D       		.byte	0x7d
 1993 06c1 18       		.sleb128 24
 1994 06c2 00000000 		.4byte	0x0
 1995 06c6 00000000 		.4byte	0x0
 1996              	.LLST59:
 1997 06ca 00000000 		.4byte	.LVL99
 1998 06ce 13000000 		.4byte	.LVL103-1
 1999 06d2 0100     		.2byte	0x1
 2000 06d4 50       		.byte	0x50
 2001 06d5 13000000 		.4byte	.LVL103-1
 2002 06d9 68000000 		.4byte	.LFE19
 2003 06dd 0100     		.2byte	0x1
 2004 06df 55       		.byte	0x55
 2005 06e0 00000000 		.4byte	0x0
 2006 06e4 00000000 		.4byte	0x0
 2007              	.LLST60:
 2008 06e8 00000000 		.4byte	.LVL99
 2009 06ec 13000000 		.4byte	.LVL103-1
ARM GAS  C:\Users\z80\AppData\Local\Temp\ccswBJvz.s 			page 37


 2010 06f0 0100     		.2byte	0x1
 2011 06f2 51       		.byte	0x51
 2012 06f3 13000000 		.4byte	.LVL103-1
 2013 06f7 68000000 		.4byte	.LFE19
 2014 06fb 0100     		.2byte	0x1
 2015 06fd 57       		.byte	0x57
 2016 06fe 00000000 		.4byte	0x0
 2017 0702 00000000 		.4byte	0x0
 2018              	.LLST61:
 2019 0706 08000000 		.4byte	.LVL100
 2020 070a 0C000000 		.4byte	.LVL101
 2021 070e 0200     		.2byte	0x2
 2022 0710 73       		.byte	0x73
 2023 0711 1C       		.sleb128 28
 2024 0712 13000000 		.4byte	.LVL103-1
 2025 0716 68000000 		.4byte	.LFE19
 2026 071a 0100     		.2byte	0x1
 2027 071c 56       		.byte	0x56
 2028 071d 00000000 		.4byte	0x0
 2029 0721 00000000 		.4byte	0x0
 2030              	.LLST62:
 2031 0725 16000000 		.4byte	.LVL104
 2032 0729 27000000 		.4byte	.LVL105-1
 2033 072d 0700     		.2byte	0x7
 2034 072f 75       		.byte	0x75
 2035 0730 00       		.sleb128 0
 2036 0731 76       		.byte	0x76
 2037 0732 3C       		.sleb128 60
 2038 0733 06       		.byte	0x6
 2039 0734 1A       		.byte	0x1a
 2040 0735 9F       		.byte	0x9f
 2041 0736 27000000 		.4byte	.LVL105-1
 2042 073a 32000000 		.4byte	.LVL106
 2043 073e 0100     		.2byte	0x1
 2044 0740 54       		.byte	0x54
 2045 0741 32000000 		.4byte	.LVL106
 2046 0745 36000000 		.4byte	.LVL107
 2047 0749 0100     		.2byte	0x1
 2048 074b 54       		.byte	0x54
 2049 074c 36000000 		.4byte	.LVL107
 2050 0750 68000000 		.4byte	.LFE19
 2051 0754 0100     		.2byte	0x1
 2052 0756 54       		.byte	0x54
 2053 0757 00000000 		.4byte	0x0
 2054 075b 00000000 		.4byte	0x0
 2055              	.LLST63:
 2056 075f 10000000 		.4byte	.LVL102
 2057 0763 13000000 		.4byte	.LVL103-1
 2058 0767 0100     		.2byte	0x1
 2059 0769 53       		.byte	0x53
 2060 076a 00000000 		.4byte	0x0
 2061 076e 00000000 		.4byte	0x0
 2062              	.LLST64:
 2063 0772 46000000 		.4byte	.LVL109
 2064 0776 4A000000 		.4byte	.LVL110
 2065 077a 0100     		.2byte	0x1
 2066 077c 53       		.byte	0x53
ARM GAS  C:\Users\z80\AppData\Local\Temp\ccswBJvz.s 			page 38


 2067 077d 00000000 		.4byte	0x0
 2068 0781 00000000 		.4byte	0x0
 2069              	.LLST65:
 2070 0785 46000000 		.4byte	.LVL109
 2071 0789 4A000000 		.4byte	.LVL110
 2072 078d 0100     		.2byte	0x1
 2073 078f 53       		.byte	0x53
 2074 0790 54000000 		.4byte	.LVL111
 2075 0794 56000000 		.4byte	.LVL112
 2076 0798 0100     		.2byte	0x1
 2077 079a 53       		.byte	0x53
 2078 079b 00000000 		.4byte	0x0
 2079 079f 00000000 		.4byte	0x0
 2080              	.LLST66:
 2081 07a3 46000000 		.4byte	.LVL109
 2082 07a7 4A000000 		.4byte	.LVL110
 2083 07ab 0100     		.2byte	0x1
 2084 07ad 53       		.byte	0x53
 2085 07ae 60000000 		.4byte	.LVL113
 2086 07b2 68000000 		.4byte	.LFE19
 2087 07b6 0100     		.2byte	0x1
 2088 07b8 53       		.byte	0x53
 2089 07b9 00000000 		.4byte	0x0
 2090 07bd 00000000 		.4byte	0x0
 2091              	.LLST67:
 2092 07c1 00000000 		.4byte	.LFB20
 2093 07c5 02000000 		.4byte	.LCFI13
 2094 07c9 0200     		.2byte	0x2
 2095 07cb 7D       		.byte	0x7d
 2096 07cc 00       		.sleb128 0
 2097 07cd 02000000 		.4byte	.LCFI13
 2098 07d1 64000000 		.4byte	.LFE20
 2099 07d5 0200     		.2byte	0x2
 2100 07d7 7D       		.byte	0x7d
 2101 07d8 18       		.sleb128 24
 2102 07d9 00000000 		.4byte	0x0
 2103 07dd 00000000 		.4byte	0x0
 2104              	.LLST68:
 2105 07e1 00000000 		.4byte	.LVL114
 2106 07e5 13000000 		.4byte	.LVL118-1
 2107 07e9 0100     		.2byte	0x1
 2108 07eb 50       		.byte	0x50
 2109 07ec 13000000 		.4byte	.LVL118-1
 2110 07f0 64000000 		.4byte	.LFE20
 2111 07f4 0100     		.2byte	0x1
 2112 07f6 54       		.byte	0x54
 2113 07f7 00000000 		.4byte	0x0
 2114 07fb 00000000 		.4byte	0x0
 2115              	.LLST69:
 2116 07ff 00000000 		.4byte	.LVL114
 2117 0803 13000000 		.4byte	.LVL118-1
 2118 0807 0100     		.2byte	0x1
 2119 0809 51       		.byte	0x51
 2120 080a 13000000 		.4byte	.LVL118-1
 2121 080e 64000000 		.4byte	.LFE20
 2122 0812 0100     		.2byte	0x1
 2123 0814 57       		.byte	0x57
ARM GAS  C:\Users\z80\AppData\Local\Temp\ccswBJvz.s 			page 39


 2124 0815 00000000 		.4byte	0x0
 2125 0819 00000000 		.4byte	0x0
 2126              	.LLST70:
 2127 081d 08000000 		.4byte	.LVL115
 2128 0821 0C000000 		.4byte	.LVL116
 2129 0825 0200     		.2byte	0x2
 2130 0827 73       		.byte	0x73
 2131 0828 1C       		.sleb128 28
 2132 0829 13000000 		.4byte	.LVL118-1
 2133 082d 64000000 		.4byte	.LFE20
 2134 0831 0100     		.2byte	0x1
 2135 0833 55       		.byte	0x55
 2136 0834 00000000 		.4byte	0x0
 2137 0838 00000000 		.4byte	0x0
 2138              	.LLST71:
 2139 083c 16000000 		.4byte	.LVL119
 2140 0840 27000000 		.4byte	.LVL120-1
 2141 0844 0700     		.2byte	0x7
 2142 0846 74       		.byte	0x74
 2143 0847 00       		.sleb128 0
 2144 0848 75       		.byte	0x75
 2145 0849 3C       		.sleb128 60
 2146 084a 06       		.byte	0x6
 2147 084b 1A       		.byte	0x1a
 2148 084c 9F       		.byte	0x9f
 2149 084d 27000000 		.4byte	.LVL120-1
 2150 0851 32000000 		.4byte	.LVL121
 2151 0855 0100     		.2byte	0x1
 2152 0857 56       		.byte	0x56
 2153 0858 32000000 		.4byte	.LVL121
 2154 085c 64000000 		.4byte	.LFE20
 2155 0860 0100     		.2byte	0x1
 2156 0862 56       		.byte	0x56
 2157 0863 00000000 		.4byte	0x0
 2158 0867 00000000 		.4byte	0x0
 2159              	.LLST72:
 2160 086b 10000000 		.4byte	.LVL117
 2161 086f 13000000 		.4byte	.LVL118-1
 2162 0873 0100     		.2byte	0x1
 2163 0875 53       		.byte	0x53
 2164 0876 00000000 		.4byte	0x0
 2165 087a 00000000 		.4byte	0x0
 2166              	.LLST73:
 2167 087e 42000000 		.4byte	.LVL123
 2168 0882 46000000 		.4byte	.LVL124
 2169 0886 0100     		.2byte	0x1
 2170 0888 53       		.byte	0x53
 2171 0889 00000000 		.4byte	0x0
 2172 088d 00000000 		.4byte	0x0
 2173              	.LLST74:
 2174 0891 42000000 		.4byte	.LVL123
 2175 0895 46000000 		.4byte	.LVL124
 2176 0899 0100     		.2byte	0x1
 2177 089b 53       		.byte	0x53
 2178 089c 50000000 		.4byte	.LVL125
 2179 08a0 52000000 		.4byte	.LVL126
 2180 08a4 0100     		.2byte	0x1
ARM GAS  C:\Users\z80\AppData\Local\Temp\ccswBJvz.s 			page 40


 2181 08a6 53       		.byte	0x53
 2182 08a7 00000000 		.4byte	0x0
 2183 08ab 00000000 		.4byte	0x0
 2184              	.LLST75:
 2185 08af 42000000 		.4byte	.LVL123
 2186 08b3 46000000 		.4byte	.LVL124
 2187 08b7 0100     		.2byte	0x1
 2188 08b9 53       		.byte	0x53
 2189 08ba 5C000000 		.4byte	.LVL127
 2190 08be 64000000 		.4byte	.LFE20
 2191 08c2 0100     		.2byte	0x1
 2192 08c4 53       		.byte	0x53
 2193 08c5 00000000 		.4byte	0x0
 2194 08c9 00000000 		.4byte	0x0
 2195              	.LLST76:
 2196 08cd 00000000 		.4byte	.LFB21
 2197 08d1 04000000 		.4byte	.LCFI14
 2198 08d5 0200     		.2byte	0x2
 2199 08d7 7D       		.byte	0x7d
 2200 08d8 00       		.sleb128 0
 2201 08d9 04000000 		.4byte	.LCFI14
 2202 08dd 68000000 		.4byte	.LFE21
 2203 08e1 0200     		.2byte	0x2
 2204 08e3 7D       		.byte	0x7d
 2205 08e4 10       		.sleb128 16
 2206 08e5 00000000 		.4byte	0x0
 2207 08e9 00000000 		.4byte	0x0
 2208              	.LLST77:
 2209 08ed 00000000 		.4byte	.LVL128
 2210 08f1 13000000 		.4byte	.LVL132-1
 2211 08f5 0100     		.2byte	0x1
 2212 08f7 50       		.byte	0x50
 2213 08f8 13000000 		.4byte	.LVL132-1
 2214 08fc 42000000 		.4byte	.LVL134
 2215 0900 0100     		.2byte	0x1
 2216 0902 54       		.byte	0x54
 2217 0903 46000000 		.4byte	.LVL135
 2218 0907 52000000 		.4byte	.LVL137
 2219 090b 0100     		.2byte	0x1
 2220 090d 54       		.byte	0x54
 2221 090e 54000000 		.4byte	.LVL138
 2222 0912 60000000 		.4byte	.LVL140
 2223 0916 0100     		.2byte	0x1
 2224 0918 54       		.byte	0x54
 2225 0919 00000000 		.4byte	0x0
 2226 091d 00000000 		.4byte	0x0
 2227              	.LLST78:
 2228 0921 00000000 		.4byte	.LVL128
 2229 0925 13000000 		.4byte	.LVL132-1
 2230 0929 0100     		.2byte	0x1
 2231 092b 51       		.byte	0x51
 2232 092c 13000000 		.4byte	.LVL132-1
 2233 0930 68000000 		.4byte	.LFE21
 2234 0934 0100     		.2byte	0x1
 2235 0936 56       		.byte	0x56
 2236 0937 00000000 		.4byte	0x0
 2237 093b 00000000 		.4byte	0x0
ARM GAS  C:\Users\z80\AppData\Local\Temp\ccswBJvz.s 			page 41


 2238              	.LLST79:
 2239 093f 06000000 		.4byte	.LVL129
 2240 0943 0C000000 		.4byte	.LVL130
 2241 0947 0200     		.2byte	0x2
 2242 0949 73       		.byte	0x73
 2243 094a 1C       		.sleb128 28
 2244 094b 13000000 		.4byte	.LVL132-1
 2245 094f 68000000 		.4byte	.LFE21
 2246 0953 0100     		.2byte	0x1
 2247 0955 55       		.byte	0x55
 2248 0956 00000000 		.4byte	0x0
 2249 095a 00000000 		.4byte	0x0
 2250              	.LLST80:
 2251 095e 10000000 		.4byte	.LVL131
 2252 0962 13000000 		.4byte	.LVL132-1
 2253 0966 0100     		.2byte	0x1
 2254 0968 53       		.byte	0x53
 2255 0969 00000000 		.4byte	0x0
 2256 096d 00000000 		.4byte	0x0
 2257              	.LLST81:
 2258 0971 42000000 		.4byte	.LVL134
 2259 0975 46000000 		.4byte	.LVL135
 2260 0979 0100     		.2byte	0x1
 2261 097b 53       		.byte	0x53
 2262 097c 00000000 		.4byte	0x0
 2263 0980 00000000 		.4byte	0x0
 2264              	.LLST82:
 2265 0984 42000000 		.4byte	.LVL134
 2266 0988 46000000 		.4byte	.LVL135
 2267 098c 0100     		.2byte	0x1
 2268 098e 56       		.byte	0x56
 2269 098f 50000000 		.4byte	.LVL136
 2270 0993 54000000 		.4byte	.LVL138
 2271 0997 0100     		.2byte	0x1
 2272 0999 53       		.byte	0x53
 2273 099a 00000000 		.4byte	0x0
 2274 099e 00000000 		.4byte	0x0
 2275              	.LLST83:
 2276 09a2 42000000 		.4byte	.LVL134
 2277 09a6 46000000 		.4byte	.LVL135
 2278 09aa 0100     		.2byte	0x1
 2279 09ac 53       		.byte	0x53
 2280 09ad 5E000000 		.4byte	.LVL139
 2281 09b1 68000000 		.4byte	.LFE21
 2282 09b5 0100     		.2byte	0x1
 2283 09b7 53       		.byte	0x53
 2284 09b8 00000000 		.4byte	0x0
 2285 09bc 00000000 		.4byte	0x0
 2286              		.file 2 "c:/programs/yagarto/lib/gcc/../../arm-none-eabi/sys-include/stdint.h"
 2287              		.file 3 "../chibios_2.4.x/os/ports/GCC/ARMCMx/chtypes.h"
 2288              		.file 4 "../chibios_2.4.x/os/kernel/include/chlists.h"
 2289              		.file 5 "../chibios_2.4.x/os/kernel/include/chthreads.h"
 2290              		.file 6 "../chibios_2.4.x/os/ports/GCC/ARMCMx/chcore_v7m.h"
 2291              		.file 7 "../chibios_2.4.x/os/kernel/include/chschd.h"
 2292              		.file 8 "../chibios_2.4.x/os/kernel/include/chmtx.h"
 2293              		.file 9 "../chibios_2.4.x/os/kernel/include/chevents.h"
 2294              		.section	.debug_info
ARM GAS  C:\Users\z80\AppData\Local\Temp\ccswBJvz.s 			page 42


 2295 0000 6E0C0000 		.4byte	0xc6e
 2296 0004 0200     		.2byte	0x2
 2297 0006 00000000 		.4byte	.Ldebug_abbrev0
 2298 000a 04       		.byte	0x4
 2299 000b 01       		.uleb128 0x1
 2300 000c D4030000 		.4byte	.LASF91
 2301 0010 01       		.byte	0x1
 2302 0011 F0010000 		.4byte	.LASF92
 2303 0015 43020000 		.4byte	.LASF93
 2304 0019 00000000 		.4byte	0x0
 2305 001d 00000000 		.4byte	0x0
 2306 0021 18000000 		.4byte	.Ldebug_ranges0+0x18
 2307 0025 00000000 		.4byte	.Ldebug_line0
 2308 0029 02       		.uleb128 0x2
 2309 002a 04       		.byte	0x4
 2310 002b 05       		.byte	0x5
 2311 002c 696E7400 		.ascii	"int\000"
 2312 0030 03       		.uleb128 0x3
 2313 0031 04       		.byte	0x4
 2314 0032 07       		.byte	0x7
 2315 0033 55010000 		.4byte	.LASF0
 2316 0037 03       		.uleb128 0x3
 2317 0038 01       		.byte	0x1
 2318 0039 06       		.byte	0x6
 2319 003a 71000000 		.4byte	.LASF1
 2320 003e 04       		.uleb128 0x4
 2321 003f BE030000 		.4byte	.LASF5
 2322 0043 02       		.byte	0x2
 2323 0044 2A       		.byte	0x2a
 2324 0045 49000000 		.4byte	0x49
 2325 0049 03       		.uleb128 0x3
 2326 004a 01       		.byte	0x1
 2327 004b 08       		.byte	0x8
 2328 004c D6020000 		.4byte	.LASF2
 2329 0050 03       		.uleb128 0x3
 2330 0051 02       		.byte	0x2
 2331 0052 05       		.byte	0x5
 2332 0053 07030000 		.4byte	.LASF3
 2333 0057 03       		.uleb128 0x3
 2334 0058 02       		.byte	0x2
 2335 0059 07       		.byte	0x7
 2336 005a 7C010000 		.4byte	.LASF4
 2337 005e 04       		.uleb128 0x4
 2338 005f CE020000 		.4byte	.LASF6
 2339 0063 02       		.byte	0x2
 2340 0064 4F       		.byte	0x4f
 2341 0065 69000000 		.4byte	0x69
 2342 0069 03       		.uleb128 0x3
 2343 006a 04       		.byte	0x4
 2344 006b 05       		.byte	0x5
 2345 006c AF000000 		.4byte	.LASF7
 2346 0070 04       		.uleb128 0x4
 2347 0071 48030000 		.4byte	.LASF8
 2348 0075 02       		.byte	0x2
 2349 0076 50       		.byte	0x50
 2350 0077 7B000000 		.4byte	0x7b
 2351 007b 03       		.uleb128 0x3
ARM GAS  C:\Users\z80\AppData\Local\Temp\ccswBJvz.s 			page 43


 2352 007c 04       		.byte	0x4
 2353 007d 07       		.byte	0x7
 2354 007e 62010000 		.4byte	.LASF9
 2355 0082 03       		.uleb128 0x3
 2356 0083 08       		.byte	0x8
 2357 0084 05       		.byte	0x5
 2358 0085 63000000 		.4byte	.LASF10
 2359 0089 04       		.uleb128 0x4
 2360 008a 0D000000 		.4byte	.LASF11
 2361 008e 02       		.byte	0x2
 2362 008f 78       		.byte	0x78
 2363 0090 94000000 		.4byte	0x94
 2364 0094 03       		.uleb128 0x3
 2365 0095 08       		.byte	0x8
 2366 0096 07       		.byte	0x7
 2367 0097 16000000 		.4byte	.LASF12
 2368 009b 04       		.uleb128 0x4
 2369 009c BF010000 		.4byte	.LASF13
 2370 00a0 03       		.byte	0x3
 2371 00a1 2F       		.byte	0x2f
 2372 00a2 3E000000 		.4byte	0x3e
 2373 00a6 04       		.uleb128 0x4
 2374 00a7 B8000000 		.4byte	.LASF14
 2375 00ab 03       		.byte	0x3
 2376 00ac 30       		.byte	0x30
 2377 00ad 3E000000 		.4byte	0x3e
 2378 00b1 04       		.uleb128 0x4
 2379 00b2 A7020000 		.4byte	.LASF15
 2380 00b6 03       		.byte	0x3
 2381 00b7 31       		.byte	0x31
 2382 00b8 3E000000 		.4byte	0x3e
 2383 00bc 04       		.uleb128 0x4
 2384 00bd B6020000 		.4byte	.LASF16
 2385 00c1 03       		.byte	0x3
 2386 00c2 32       		.byte	0x32
 2387 00c3 70000000 		.4byte	0x70
 2388 00c7 04       		.uleb128 0x4
 2389 00c8 A1010000 		.4byte	.LASF17
 2390 00cc 03       		.byte	0x3
 2391 00cd 33       		.byte	0x33
 2392 00ce 5E000000 		.4byte	0x5e
 2393 00d2 04       		.uleb128 0x4
 2394 00d3 22010000 		.4byte	.LASF18
 2395 00d7 03       		.byte	0x3
 2396 00d8 34       		.byte	0x34
 2397 00d9 5E000000 		.4byte	0x5e
 2398 00dd 04       		.uleb128 0x4
 2399 00de D3010000 		.4byte	.LASF19
 2400 00e2 03       		.byte	0x3
 2401 00e3 35       		.byte	0x35
 2402 00e4 70000000 		.4byte	0x70
 2403 00e8 04       		.uleb128 0x4
 2404 00e9 65030000 		.4byte	.LASF20
 2405 00ed 03       		.byte	0x3
 2406 00ee 36       		.byte	0x36
 2407 00ef 70000000 		.4byte	0x70
 2408 00f3 04       		.uleb128 0x4
ARM GAS  C:\Users\z80\AppData\Local\Temp\ccswBJvz.s 			page 44


 2409 00f4 44010000 		.4byte	.LASF21
 2410 00f8 03       		.byte	0x3
 2411 00f9 37       		.byte	0x37
 2412 00fa 5E000000 		.4byte	0x5e
 2413 00fe 04       		.uleb128 0x4
 2414 00ff 36030000 		.4byte	.LASF22
 2415 0103 04       		.byte	0x4
 2416 0104 2A       		.byte	0x2a
 2417 0105 09010000 		.4byte	0x109
 2418 0109 05       		.uleb128 0x5
 2419 010a 36030000 		.4byte	.LASF22
 2420 010e 4C       		.byte	0x4c
 2421 010f 05       		.byte	0x5
 2422 0110 5E       		.byte	0x5e
 2423 0111 2E020000 		.4byte	0x22e
 2424 0115 06       		.uleb128 0x6
 2425 0116 27030000 		.4byte	.LASF23
 2426 011a 05       		.byte	0x5
 2427 011b 5F       		.byte	0x5f
 2428 011c 53020000 		.4byte	0x253
 2429 0120 02       		.byte	0x2
 2430 0121 23       		.byte	0x23
 2431 0122 00       		.uleb128 0x0
 2432 0123 06       		.uleb128 0x6
 2433 0124 AF020000 		.4byte	.LASF24
 2434 0128 05       		.byte	0x5
 2435 0129 61       		.byte	0x61
 2436 012a 53020000 		.4byte	0x253
 2437 012e 02       		.byte	0x2
 2438 012f 23       		.byte	0x23
 2439 0130 04       		.uleb128 0x4
 2440 0131 06       		.uleb128 0x6
 2441 0132 5C000000 		.4byte	.LASF25
 2442 0136 05       		.byte	0x5
 2443 0137 63       		.byte	0x63
 2444 0138 BC000000 		.4byte	0xbc
 2445 013c 02       		.byte	0x2
 2446 013d 23       		.byte	0x23
 2447 013e 08       		.uleb128 0x8
 2448 013f 06       		.uleb128 0x6
 2449 0140 08040000 		.4byte	.LASF26
 2450 0144 05       		.byte	0x5
 2451 0145 64       		.byte	0x64
 2452 0146 2B030000 		.4byte	0x32b
 2453 014a 02       		.byte	0x2
 2454 014b 23       		.byte	0x23
 2455 014c 0C       		.uleb128 0xc
 2456 014d 06       		.uleb128 0x6
 2457 014e F0000000 		.4byte	.LASF27
 2458 0152 05       		.byte	0x5
 2459 0153 66       		.byte	0x66
 2460 0154 53020000 		.4byte	0x253
 2461 0158 02       		.byte	0x2
 2462 0159 23       		.byte	0x23
 2463 015a 10       		.uleb128 0x10
 2464 015b 06       		.uleb128 0x6
 2465 015c 28020000 		.4byte	.LASF28
ARM GAS  C:\Users\z80\AppData\Local\Temp\ccswBJvz.s 			page 45


 2466 0160 05       		.byte	0x5
 2467 0161 67       		.byte	0x67
 2468 0162 53020000 		.4byte	0x253
 2469 0166 02       		.byte	0x2
 2470 0167 23       		.byte	0x23
 2471 0168 14       		.uleb128 0x14
 2472 0169 06       		.uleb128 0x6
 2473 016a E7030000 		.4byte	.LASF29
 2474 016e 05       		.byte	0x5
 2475 016f 6E       		.byte	0x6e
 2476 0170 D4040000 		.4byte	0x4d4
 2477 0174 02       		.byte	0x2
 2478 0175 23       		.byte	0x23
 2479 0176 18       		.uleb128 0x18
 2480 0177 06       		.uleb128 0x6
 2481 0178 4A010000 		.4byte	.LASF30
 2482 017c 05       		.byte	0x5
 2483 017d 74       		.byte	0x74
 2484 017e E6040000 		.4byte	0x4e6
 2485 0182 02       		.byte	0x2
 2486 0183 23       		.byte	0x23
 2487 0184 1C       		.uleb128 0x1c
 2488 0185 06       		.uleb128 0x6
 2489 0186 11030000 		.4byte	.LASF31
 2490 018a 05       		.byte	0x5
 2491 018b 79       		.byte	0x79
 2492 018c A6000000 		.4byte	0xa6
 2493 0190 02       		.byte	0x2
 2494 0191 23       		.byte	0x23
 2495 0192 20       		.uleb128 0x20
 2496 0193 06       		.uleb128 0x6
 2497 0194 2E030000 		.4byte	.LASF32
 2498 0198 05       		.byte	0x5
 2499 0199 7D       		.byte	0x7d
 2500 019a 9B000000 		.4byte	0x9b
 2501 019e 02       		.byte	0x2
 2502 019f 23       		.byte	0x23
 2503 01a0 21       		.uleb128 0x21
 2504 01a1 06       		.uleb128 0x6
 2505 01a2 A7030000 		.4byte	.LASF33
 2506 01a6 05       		.byte	0x5
 2507 01a7 82       		.byte	0x82
 2508 01a8 B1000000 		.4byte	0xb1
 2509 01ac 02       		.byte	0x2
 2510 01ad 23       		.byte	0x23
 2511 01ae 22       		.uleb128 0x22
 2512 01af 06       		.uleb128 0x6
 2513 01b0 7A030000 		.4byte	.LASF34
 2514 01b4 05       		.byte	0x5
 2515 01b5 89       		.byte	0x89
 2516 01b6 51030000 		.4byte	0x351
 2517 01ba 02       		.byte	0x2
 2518 01bb 23       		.byte	0x23
 2519 01bc 24       		.uleb128 0x24
 2520 01bd 07       		.uleb128 0x7
 2521 01be 705F7500 		.ascii	"p_u\000"
 2522 01c2 05       		.byte	0x5
ARM GAS  C:\Users\z80\AppData\Local\Temp\ccswBJvz.s 			page 46


 2523 01c3 AE       		.byte	0xae
 2524 01c4 9F040000 		.4byte	0x49f
 2525 01c8 02       		.byte	0x2
 2526 01c9 23       		.byte	0x23
 2527 01ca 28       		.uleb128 0x28
 2528 01cb 06       		.uleb128 0x6
 2529 01cc 0E040000 		.4byte	.LASF35
 2530 01d0 05       		.byte	0x5
 2531 01d1 B3       		.byte	0xb3
 2532 01d2 7B020000 		.4byte	0x27b
 2533 01d6 02       		.byte	0x2
 2534 01d7 23       		.byte	0x23
 2535 01d8 2C       		.uleb128 0x2c
 2536 01d9 06       		.uleb128 0x6
 2537 01da 9C030000 		.4byte	.LASF36
 2538 01de 05       		.byte	0x5
 2539 01df B9       		.byte	0xb9
 2540 01e0 59020000 		.4byte	0x259
 2541 01e4 02       		.byte	0x2
 2542 01e5 23       		.byte	0x23
 2543 01e6 30       		.uleb128 0x30
 2544 01e7 06       		.uleb128 0x6
 2545 01e8 00000000 		.4byte	.LASF37
 2546 01ec 05       		.byte	0x5
 2547 01ed BD       		.byte	0xbd
 2548 01ee C7000000 		.4byte	0xc7
 2549 01f2 02       		.byte	0x2
 2550 01f3 23       		.byte	0x23
 2551 01f4 38       		.uleb128 0x38
 2552 01f5 06       		.uleb128 0x6
 2553 01f6 3D030000 		.4byte	.LASF38
 2554 01fa 05       		.byte	0x5
 2555 01fb C3       		.byte	0xc3
 2556 01fc DD000000 		.4byte	0xdd
 2557 0200 02       		.byte	0x2
 2558 0201 23       		.byte	0x23
 2559 0202 3C       		.uleb128 0x3c
 2560 0203 06       		.uleb128 0x6
 2561 0204 FD020000 		.4byte	.LASF39
 2562 0208 05       		.byte	0x5
 2563 0209 CA       		.byte	0xca
 2564 020a EC040000 		.4byte	0x4ec
 2565 020e 02       		.byte	0x2
 2566 020f 23       		.byte	0x23
 2567 0210 40       		.uleb128 0x40
 2568 0211 06       		.uleb128 0x6
 2569 0212 6F030000 		.4byte	.LASF40
 2570 0216 05       		.byte	0x5
 2571 0217 CE       		.byte	0xce
 2572 0218 BC000000 		.4byte	0xbc
 2573 021c 02       		.byte	0x2
 2574 021d 23       		.byte	0x23
 2575 021e 44       		.uleb128 0x44
 2576 021f 06       		.uleb128 0x6
 2577 0220 91000000 		.4byte	.LASF41
 2578 0224 05       		.byte	0x5
 2579 0225 D4       		.byte	0xd4
ARM GAS  C:\Users\z80\AppData\Local\Temp\ccswBJvz.s 			page 47


 2580 0226 91020000 		.4byte	0x291
 2581 022a 02       		.byte	0x2
 2582 022b 23       		.byte	0x23
 2583 022c 48       		.uleb128 0x48
 2584 022d 00       		.byte	0x0
 2585 022e 08       		.uleb128 0x8
 2586 022f 08       		.byte	0x8
 2587 0230 04       		.byte	0x4
 2588 0231 61       		.byte	0x61
 2589 0232 53020000 		.4byte	0x253
 2590 0236 06       		.uleb128 0x6
 2591 0237 27030000 		.4byte	.LASF23
 2592 023b 04       		.byte	0x4
 2593 023c 62       		.byte	0x62
 2594 023d 53020000 		.4byte	0x253
 2595 0241 02       		.byte	0x2
 2596 0242 23       		.byte	0x23
 2597 0243 00       		.uleb128 0x0
 2598 0244 06       		.uleb128 0x6
 2599 0245 AF020000 		.4byte	.LASF24
 2600 0249 04       		.byte	0x4
 2601 024a 64       		.byte	0x64
 2602 024b 53020000 		.4byte	0x253
 2603 024f 02       		.byte	0x2
 2604 0250 23       		.byte	0x23
 2605 0251 04       		.uleb128 0x4
 2606 0252 00       		.byte	0x0
 2607 0253 09       		.uleb128 0x9
 2608 0254 04       		.byte	0x4
 2609 0255 FE000000 		.4byte	0xfe
 2610 0259 04       		.uleb128 0x4
 2611 025a 36020000 		.4byte	.LASF42
 2612 025e 04       		.byte	0x4
 2613 025f 66       		.byte	0x66
 2614 0260 2E020000 		.4byte	0x22e
 2615 0264 08       		.uleb128 0x8
 2616 0265 04       		.byte	0x4
 2617 0266 04       		.byte	0x4
 2618 0267 6B       		.byte	0x6b
 2619 0268 7B020000 		.4byte	0x27b
 2620 026c 06       		.uleb128 0x6
 2621 026d 27030000 		.4byte	.LASF23
 2622 0271 04       		.byte	0x4
 2623 0272 6D       		.byte	0x6d
 2624 0273 53020000 		.4byte	0x253
 2625 0277 02       		.byte	0x2
 2626 0278 23       		.byte	0x23
 2627 0279 00       		.uleb128 0x0
 2628 027a 00       		.byte	0x0
 2629 027b 04       		.uleb128 0x4
 2630 027c C7010000 		.4byte	.LASF43
 2631 0280 04       		.byte	0x4
 2632 0281 70       		.byte	0x70
 2633 0282 64020000 		.4byte	0x264
 2634 0286 04       		.uleb128 0x4
 2635 0287 05010000 		.4byte	.LASF44
 2636 028b 06       		.byte	0x6
ARM GAS  C:\Users\z80\AppData\Local\Temp\ccswBJvz.s 			page 48


 2637 028c D7       		.byte	0xd7
 2638 028d 91020000 		.4byte	0x291
 2639 0291 0A       		.uleb128 0xa
 2640 0292 04       		.byte	0x4
 2641 0293 04       		.uleb128 0x4
 2642 0294 E5010000 		.4byte	.LASF45
 2643 0298 06       		.byte	0x6
 2644 0299 DD       		.byte	0xdd
 2645 029a 89000000 		.4byte	0x89
 2646 029e 05       		.uleb128 0x5
 2647 029f 95030000 		.4byte	.LASF46
 2648 02a3 24       		.byte	0x24
 2649 02a4 06       		.byte	0x6
 2650 02a5 FE       		.byte	0xfe
 2651 02a6 2B030000 		.4byte	0x32b
 2652 02aa 0B       		.uleb128 0xb
 2653 02ab 723400   		.ascii	"r4\000"
 2654 02ae 06       		.byte	0x6
 2655 02af 1101     		.2byte	0x111
 2656 02b1 86020000 		.4byte	0x286
 2657 02b5 02       		.byte	0x2
 2658 02b6 23       		.byte	0x23
 2659 02b7 00       		.uleb128 0x0
 2660 02b8 0B       		.uleb128 0xb
 2661 02b9 723500   		.ascii	"r5\000"
 2662 02bc 06       		.byte	0x6
 2663 02bd 1201     		.2byte	0x112
 2664 02bf 86020000 		.4byte	0x286
 2665 02c3 02       		.byte	0x2
 2666 02c4 23       		.byte	0x23
 2667 02c5 04       		.uleb128 0x4
 2668 02c6 0B       		.uleb128 0xb
 2669 02c7 723600   		.ascii	"r6\000"
 2670 02ca 06       		.byte	0x6
 2671 02cb 1301     		.2byte	0x113
 2672 02cd 86020000 		.4byte	0x286
 2673 02d1 02       		.byte	0x2
 2674 02d2 23       		.byte	0x23
 2675 02d3 08       		.uleb128 0x8
 2676 02d4 0B       		.uleb128 0xb
 2677 02d5 723700   		.ascii	"r7\000"
 2678 02d8 06       		.byte	0x6
 2679 02d9 1401     		.2byte	0x114
 2680 02db 86020000 		.4byte	0x286
 2681 02df 02       		.byte	0x2
 2682 02e0 23       		.byte	0x23
 2683 02e1 0C       		.uleb128 0xc
 2684 02e2 0B       		.uleb128 0xb
 2685 02e3 723800   		.ascii	"r8\000"
 2686 02e6 06       		.byte	0x6
 2687 02e7 1501     		.2byte	0x115
 2688 02e9 86020000 		.4byte	0x286
 2689 02ed 02       		.byte	0x2
 2690 02ee 23       		.byte	0x23
 2691 02ef 10       		.uleb128 0x10
 2692 02f0 0B       		.uleb128 0xb
 2693 02f1 723900   		.ascii	"r9\000"
ARM GAS  C:\Users\z80\AppData\Local\Temp\ccswBJvz.s 			page 49


 2694 02f4 06       		.byte	0x6
 2695 02f5 1601     		.2byte	0x116
 2696 02f7 86020000 		.4byte	0x286
 2697 02fb 02       		.byte	0x2
 2698 02fc 23       		.byte	0x23
 2699 02fd 14       		.uleb128 0x14
 2700 02fe 0B       		.uleb128 0xb
 2701 02ff 72313000 		.ascii	"r10\000"
 2702 0303 06       		.byte	0x6
 2703 0304 1701     		.2byte	0x117
 2704 0306 86020000 		.4byte	0x286
 2705 030a 02       		.byte	0x2
 2706 030b 23       		.byte	0x23
 2707 030c 18       		.uleb128 0x18
 2708 030d 0B       		.uleb128 0xb
 2709 030e 72313100 		.ascii	"r11\000"
 2710 0312 06       		.byte	0x6
 2711 0313 1801     		.2byte	0x118
 2712 0315 86020000 		.4byte	0x286
 2713 0319 02       		.byte	0x2
 2714 031a 23       		.byte	0x23
 2715 031b 1C       		.uleb128 0x1c
 2716 031c 0B       		.uleb128 0xb
 2717 031d 6C7200   		.ascii	"lr\000"
 2718 0320 06       		.byte	0x6
 2719 0321 1901     		.2byte	0x119
 2720 0323 86020000 		.4byte	0x286
 2721 0327 02       		.byte	0x2
 2722 0328 23       		.byte	0x23
 2723 0329 20       		.uleb128 0x20
 2724 032a 00       		.byte	0x0
 2725 032b 0C       		.uleb128 0xc
 2726 032c 74010000 		.4byte	.LASF47
 2727 0330 04       		.byte	0x4
 2728 0331 06       		.byte	0x6
 2729 0332 2301     		.2byte	0x123
 2730 0334 48030000 		.4byte	0x348
 2731 0338 0B       		.uleb128 0xb
 2732 0339 72313300 		.ascii	"r13\000"
 2733 033d 06       		.byte	0x6
 2734 033e 2401     		.2byte	0x124
 2735 0340 48030000 		.4byte	0x348
 2736 0344 02       		.byte	0x2
 2737 0345 23       		.byte	0x23
 2738 0346 00       		.uleb128 0x0
 2739 0347 00       		.byte	0x0
 2740 0348 09       		.uleb128 0x9
 2741 0349 04       		.byte	0x4
 2742 034a 9E020000 		.4byte	0x29e
 2743 034e 0D       		.uleb128 0xd
 2744 034f 04       		.byte	0x4
 2745 0350 07       		.byte	0x7
 2746 0351 0E       		.uleb128 0xe
 2747 0352 E8000000 		.4byte	0xe8
 2748 0356 08       		.uleb128 0x8
 2749 0357 20       		.byte	0x20
 2750 0358 07       		.byte	0x7
ARM GAS  C:\Users\z80\AppData\Local\Temp\ccswBJvz.s 			page 50


 2751 0359 5E       		.byte	0x5e
 2752 035a C1030000 		.4byte	0x3c1
 2753 035e 06       		.uleb128 0x6
 2754 035f 51030000 		.4byte	.LASF48
 2755 0363 07       		.byte	0x7
 2756 0364 5F       		.byte	0x5f
 2757 0365 59020000 		.4byte	0x259
 2758 0369 02       		.byte	0x2
 2759 036a 23       		.byte	0x23
 2760 036b 00       		.uleb128 0x0
 2761 036c 06       		.uleb128 0x6
 2762 036d 19030000 		.4byte	.LASF49
 2763 0371 07       		.byte	0x7
 2764 0372 60       		.byte	0x60
 2765 0373 BC000000 		.4byte	0xbc
 2766 0377 02       		.byte	0x2
 2767 0378 23       		.byte	0x23
 2768 0379 08       		.uleb128 0x8
 2769 037a 06       		.uleb128 0x6
 2770 037b 30020000 		.4byte	.LASF50
 2771 037f 07       		.byte	0x7
 2772 0380 62       		.byte	0x62
 2773 0381 2B030000 		.4byte	0x32b
 2774 0385 02       		.byte	0x2
 2775 0386 23       		.byte	0x23
 2776 0387 0C       		.uleb128 0xc
 2777 0388 06       		.uleb128 0x6
 2778 0389 F8000000 		.4byte	.LASF51
 2779 038d 07       		.byte	0x7
 2780 038e 65       		.byte	0x65
 2781 038f 53020000 		.4byte	0x253
 2782 0393 02       		.byte	0x2
 2783 0394 23       		.byte	0x23
 2784 0395 10       		.uleb128 0x10
 2785 0396 06       		.uleb128 0x6
 2786 0397 8E020000 		.4byte	.LASF52
 2787 039b 07       		.byte	0x7
 2788 039c 66       		.byte	0x66
 2789 039d 53020000 		.4byte	0x253
 2790 03a1 02       		.byte	0x2
 2791 03a2 23       		.byte	0x23
 2792 03a3 14       		.uleb128 0x14
 2793 03a4 06       		.uleb128 0x6
 2794 03a5 F6030000 		.4byte	.LASF53
 2795 03a9 07       		.byte	0x7
 2796 03aa 6A       		.byte	0x6a
 2797 03ab F3000000 		.4byte	0xf3
 2798 03af 02       		.byte	0x2
 2799 03b0 23       		.byte	0x23
 2800 03b1 18       		.uleb128 0x18
 2801 03b2 06       		.uleb128 0x6
 2802 03b3 84020000 		.4byte	.LASF54
 2803 03b7 07       		.byte	0x7
 2804 03b8 6C       		.byte	0x6c
 2805 03b9 53020000 		.4byte	0x253
 2806 03bd 02       		.byte	0x2
 2807 03be 23       		.byte	0x23
ARM GAS  C:\Users\z80\AppData\Local\Temp\ccswBJvz.s 			page 51


 2808 03bf 1C       		.uleb128 0x1c
 2809 03c0 00       		.byte	0x0
 2810 03c1 04       		.uleb128 0x4
 2811 03c2 AE030000 		.4byte	.LASF55
 2812 03c6 07       		.byte	0x7
 2813 03c7 6E       		.byte	0x6e
 2814 03c8 56030000 		.4byte	0x356
 2815 03cc 05       		.uleb128 0x5
 2816 03cd DF010000 		.4byte	.LASF56
 2817 03d1 10       		.byte	0x10
 2818 03d2 08       		.byte	0x8
 2819 03d3 2C       		.byte	0x2c
 2820 03d4 03040000 		.4byte	0x403
 2821 03d8 06       		.uleb128 0x6
 2822 03d9 99000000 		.4byte	.LASF57
 2823 03dd 08       		.byte	0x8
 2824 03de 2D       		.byte	0x2d
 2825 03df 59020000 		.4byte	0x259
 2826 03e3 02       		.byte	0x2
 2827 03e4 23       		.byte	0x23
 2828 03e5 00       		.uleb128 0x0
 2829 03e6 06       		.uleb128 0x6
 2830 03e7 00040000 		.4byte	.LASF58
 2831 03eb 08       		.byte	0x8
 2832 03ec 2F       		.byte	0x2f
 2833 03ed 53020000 		.4byte	0x253
 2834 03f1 02       		.byte	0x2
 2835 03f2 23       		.byte	0x23
 2836 03f3 08       		.uleb128 0x8
 2837 03f4 06       		.uleb128 0x6
 2838 03f5 5E030000 		.4byte	.LASF59
 2839 03f9 08       		.byte	0x8
 2840 03fa 31       		.byte	0x31
 2841 03fb 03040000 		.4byte	0x403
 2842 03ff 02       		.byte	0x2
 2843 0400 23       		.byte	0x23
 2844 0401 0C       		.uleb128 0xc
 2845 0402 00       		.byte	0x0
 2846 0403 09       		.uleb128 0x9
 2847 0404 04       		.byte	0x4
 2848 0405 CC030000 		.4byte	0x3cc
 2849 0409 04       		.uleb128 0x4
 2850 040a DF010000 		.4byte	.LASF56
 2851 040e 08       		.byte	0x8
 2852 040f 33       		.byte	0x33
 2853 0410 CC030000 		.4byte	0x3cc
 2854 0414 04       		.uleb128 0x4
 2855 0415 C6030000 		.4byte	.LASF60
 2856 0419 09       		.byte	0x9
 2857 041a 29       		.byte	0x29
 2858 041b 1F040000 		.4byte	0x41f
 2859 041f 05       		.uleb128 0x5
 2860 0420 C6030000 		.4byte	.LASF60
 2861 0424 0C       		.byte	0xc
 2862 0425 09       		.byte	0x9
 2863 0426 2E       		.byte	0x2e
 2864 0427 56040000 		.4byte	0x456
ARM GAS  C:\Users\z80\AppData\Local\Temp\ccswBJvz.s 			page 52


 2865 042b 06       		.uleb128 0x6
 2866 042c A7010000 		.4byte	.LASF61
 2867 0430 09       		.byte	0x9
 2868 0431 2F       		.byte	0x2f
 2869 0432 56040000 		.4byte	0x456
 2870 0436 02       		.byte	0x2
 2871 0437 23       		.byte	0x23
 2872 0438 00       		.uleb128 0x0
 2873 0439 06       		.uleb128 0x6
 2874 043a F1020000 		.4byte	.LASF62
 2875 043e 09       		.byte	0x9
 2876 043f 32       		.byte	0x32
 2877 0440 53020000 		.4byte	0x253
 2878 0444 02       		.byte	0x2
 2879 0445 23       		.byte	0x23
 2880 0446 04       		.uleb128 0x4
 2881 0447 06       		.uleb128 0x6
 2882 0448 96020000 		.4byte	.LASF63
 2883 044c 09       		.byte	0x9
 2884 044d 34       		.byte	0x34
 2885 044e DD000000 		.4byte	0xdd
 2886 0452 02       		.byte	0x2
 2887 0453 23       		.byte	0x23
 2888 0454 08       		.uleb128 0x8
 2889 0455 00       		.byte	0x0
 2890 0456 09       		.uleb128 0x9
 2891 0457 04       		.byte	0x4
 2892 0458 14040000 		.4byte	0x414
 2893 045c 05       		.uleb128 0x5
 2894 045d 2C010000 		.4byte	.LASF64
 2895 0461 04       		.byte	0x4
 2896 0462 09       		.byte	0x9
 2897 0463 3C       		.byte	0x3c
 2898 0464 77040000 		.4byte	0x477
 2899 0468 06       		.uleb128 0x6
 2900 0469 EE030000 		.4byte	.LASF65
 2901 046d 09       		.byte	0x9
 2902 046e 3D       		.byte	0x3d
 2903 046f 56040000 		.4byte	0x456
 2904 0473 02       		.byte	0x2
 2905 0474 23       		.byte	0x23
 2906 0475 00       		.uleb128 0x0
 2907 0476 00       		.byte	0x0
 2908 0477 04       		.uleb128 0x4
 2909 0478 2C010000 		.4byte	.LASF64
 2910 047c 09       		.byte	0x9
 2911 047d 40       		.byte	0x40
 2912 047e 5C040000 		.4byte	0x45c
 2913 0482 04       		.uleb128 0x4
 2914 0483 38010000 		.4byte	.LASF66
 2915 0487 09       		.byte	0x9
 2916 0488 45       		.byte	0x45
 2917 0489 8D040000 		.4byte	0x48d
 2918 048d 09       		.uleb128 0x9
 2919 048e 04       		.byte	0x4
 2920 048f 93040000 		.4byte	0x493
 2921 0493 0F       		.uleb128 0xf
ARM GAS  C:\Users\z80\AppData\Local\Temp\ccswBJvz.s 			page 53


 2922 0494 01       		.byte	0x1
 2923 0495 9F040000 		.4byte	0x49f
 2924 0499 10       		.uleb128 0x10
 2925 049a D2000000 		.4byte	0xd2
 2926 049e 00       		.byte	0x0
 2927 049f 11       		.uleb128 0x11
 2928 04a0 04       		.byte	0x4
 2929 04a1 05       		.byte	0x5
 2930 04a2 90       		.byte	0x90
 2931 04a3 D4040000 		.4byte	0x4d4
 2932 04a7 12       		.uleb128 0x12
 2933 04a8 06000000 		.4byte	.LASF67
 2934 04ac 05       		.byte	0x5
 2935 04ad 97       		.byte	0x97
 2936 04ae C7000000 		.4byte	0xc7
 2937 04b2 12       		.uleb128 0x12
 2938 04b3 2D000000 		.4byte	.LASF68
 2939 04b7 05       		.byte	0x5
 2940 04b8 9E       		.byte	0x9e
 2941 04b9 C7000000 		.4byte	0xc7
 2942 04bd 12       		.uleb128 0x12
 2943 04be E0030000 		.4byte	.LASF69
 2944 04c2 05       		.byte	0x5
 2945 04c3 A5       		.byte	0xa5
 2946 04c4 91020000 		.4byte	0x291
 2947 04c8 12       		.uleb128 0x12
 2948 04c9 20030000 		.4byte	.LASF70
 2949 04cd 05       		.byte	0x5
 2950 04ce AC       		.byte	0xac
 2951 04cf DD000000 		.4byte	0xdd
 2952 04d3 00       		.byte	0x0
 2953 04d4 09       		.uleb128 0x9
 2954 04d5 04       		.byte	0x4
 2955 04d6 DA040000 		.4byte	0x4da
 2956 04da 13       		.uleb128 0x13
 2957 04db DF040000 		.4byte	0x4df
 2958 04df 03       		.uleb128 0x3
 2959 04e0 01       		.byte	0x1
 2960 04e1 08       		.byte	0x8
 2961 04e2 59030000 		.4byte	.LASF71
 2962 04e6 09       		.uleb128 0x9
 2963 04e7 04       		.byte	0x4
 2964 04e8 93020000 		.4byte	0x293
 2965 04ec 09       		.uleb128 0x9
 2966 04ed 04       		.byte	0x4
 2967 04ee 09040000 		.4byte	0x409
 2968 04f2 14       		.uleb128 0x14
 2969 04f3 01       		.byte	0x1
 2970 04f4 8F010000 		.4byte	.LASF73
 2971 04f8 01       		.byte	0x1
 2972 04f9 52       		.byte	0x52
 2973 04fa 01       		.byte	0x1
 2974 04fb 00000000 		.4byte	.LFB7
 2975 04ff 4C000000 		.4byte	.LFE7
 2976 0503 00000000 		.4byte	.LLST0
 2977 0507 6F050000 		.4byte	0x56f
 2978 050b 15       		.uleb128 0x15
ARM GAS  C:\Users\z80\AppData\Local\Temp\ccswBJvz.s 			page 54


 2979 050c 65737000 		.ascii	"esp\000"
 2980 0510 01       		.byte	0x1
 2981 0511 52       		.byte	0x52
 2982 0512 6F050000 		.4byte	0x56f
 2983 0516 20000000 		.4byte	.LLST1
 2984 051a 15       		.uleb128 0x15
 2985 051b 656C7000 		.ascii	"elp\000"
 2986 051f 01       		.byte	0x1
 2987 0520 52       		.byte	0x52
 2988 0521 56040000 		.4byte	0x456
 2989 0525 3E000000 		.4byte	.LLST2
 2990 0529 16       		.uleb128 0x16
 2991 052a 00010000 		.4byte	.LASF72
 2992 052e 01       		.byte	0x1
 2993 052f 52       		.byte	0x52
 2994 0530 DD000000 		.4byte	0xdd
 2995 0534 5C000000 		.4byte	.LLST3
 2996 0538 17       		.uleb128 0x17
 2997 0539 20000000 		.4byte	.LBB2
 2998 053d 26000000 		.4byte	.LBE2
 2999 0541 55050000 		.4byte	0x555
 3000 0545 18       		.uleb128 0x18
 3001 0546 746D7000 		.ascii	"tmp\000"
 3002 054a 01       		.byte	0x1
 3003 054b 56       		.byte	0x56
 3004 054c 70000000 		.4byte	0x70
 3005 0550 7A000000 		.4byte	.LLST4
 3006 0554 00       		.byte	0x0
 3007 0555 19       		.uleb128 0x19
 3008 0556 3C000000 		.4byte	.LBB3
 3009 055a 42000000 		.4byte	.LBE3
 3010 055e 18       		.uleb128 0x18
 3011 055f 746D7000 		.ascii	"tmp\000"
 3012 0563 01       		.byte	0x1
 3013 0564 5B       		.byte	0x5b
 3014 0565 70000000 		.4byte	0x70
 3015 0569 8D000000 		.4byte	.LLST5
 3016 056d 00       		.byte	0x0
 3017 056e 00       		.byte	0x0
 3018 056f 09       		.uleb128 0x9
 3019 0570 04       		.byte	0x4
 3020 0571 77040000 		.4byte	0x477
 3021 0575 14       		.uleb128 0x14
 3022 0576 01       		.byte	0x1
 3023 0577 AF010000 		.4byte	.LASF74
 3024 057b 01       		.byte	0x1
 3025 057c 6B       		.byte	0x6b
 3026 057d 01       		.byte	0x1
 3027 057e 00000000 		.4byte	.LFB8
 3028 0582 50000000 		.4byte	.LFE8
 3029 0586 A0000000 		.4byte	.LLST6
 3030 058a F0050000 		.4byte	0x5f0
 3031 058e 15       		.uleb128 0x15
 3032 058f 65737000 		.ascii	"esp\000"
 3033 0593 01       		.byte	0x1
 3034 0594 6B       		.byte	0x6b
 3035 0595 6F050000 		.4byte	0x56f
ARM GAS  C:\Users\z80\AppData\Local\Temp\ccswBJvz.s 			page 55


 3036 0599 C0000000 		.4byte	.LLST7
 3037 059d 15       		.uleb128 0x15
 3038 059e 656C7000 		.ascii	"elp\000"
 3039 05a2 01       		.byte	0x1
 3040 05a3 6B       		.byte	0x6b
 3041 05a4 56040000 		.4byte	0x456
 3042 05a8 DE000000 		.4byte	.LLST8
 3043 05ac 18       		.uleb128 0x18
 3044 05ad 7000     		.ascii	"p\000"
 3045 05af 01       		.byte	0x1
 3046 05b0 6C       		.byte	0x6c
 3047 05b1 56040000 		.4byte	0x456
 3048 05b5 FC000000 		.4byte	.LLST9
 3049 05b9 17       		.uleb128 0x17
 3050 05ba 18000000 		.4byte	.LBB4
 3051 05be 1E000000 		.4byte	.LBE4
 3052 05c2 D6050000 		.4byte	0x5d6
 3053 05c6 18       		.uleb128 0x18
 3054 05c7 746D7000 		.ascii	"tmp\000"
 3055 05cb 01       		.byte	0x1
 3056 05cc 71       		.byte	0x71
 3057 05cd 70000000 		.4byte	0x70
 3058 05d1 30010000 		.4byte	.LLST10
 3059 05d5 00       		.byte	0x0
 3060 05d6 19       		.uleb128 0x19
 3061 05d7 36000000 		.4byte	.LBB5
 3062 05db 3C000000 		.4byte	.LBE5
 3063 05df 18       		.uleb128 0x18
 3064 05e0 746D7000 		.ascii	"tmp\000"
 3065 05e4 01       		.byte	0x1
 3066 05e5 79       		.byte	0x79
 3067 05e6 70000000 		.4byte	0x70
 3068 05ea 43010000 		.4byte	.LLST11
 3069 05ee 00       		.byte	0x0
 3070 05ef 00       		.byte	0x0
 3071 05f0 1A       		.uleb128 0x1a
 3072 05f1 01       		.byte	0x1
 3073 05f2 BE020000 		.4byte	.LASF75
 3074 05f6 01       		.byte	0x1
 3075 05f7 84       		.byte	0x84
 3076 05f8 01       		.byte	0x1
 3077 05f9 DD000000 		.4byte	0xdd
 3078 05fd 00000000 		.4byte	.LFB9
 3079 0601 30000000 		.4byte	.LFE9
 3080 0605 56010000 		.4byte	.LLST12
 3081 0609 63060000 		.4byte	0x663
 3082 060d 16       		.uleb128 0x16
 3083 060e 00010000 		.4byte	.LASF72
 3084 0612 01       		.byte	0x1
 3085 0613 84       		.byte	0x84
 3086 0614 DD000000 		.4byte	0xdd
 3087 0618 76010000 		.4byte	.LLST13
 3088 061c 1B       		.uleb128 0x1b
 3089 061d 6D00     		.ascii	"m\000"
 3090 061f 01       		.byte	0x1
 3091 0620 85       		.byte	0x85
 3092 0621 DD000000 		.4byte	0xdd
ARM GAS  C:\Users\z80\AppData\Local\Temp\ccswBJvz.s 			page 56


 3093 0625 06       		.byte	0x6
 3094 0626 75       		.byte	0x75
 3095 0627 00       		.sleb128 0
 3096 0628 74       		.byte	0x74
 3097 0629 00       		.sleb128 0
 3098 062a 1A       		.byte	0x1a
 3099 062b 9F       		.byte	0x9f
 3100 062c 17       		.uleb128 0x17
 3101 062d 04000000 		.4byte	.LBB6
 3102 0631 0A000000 		.4byte	.LBE6
 3103 0635 49060000 		.4byte	0x649
 3104 0639 18       		.uleb128 0x18
 3105 063a 746D7000 		.ascii	"tmp\000"
 3106 063e 01       		.byte	0x1
 3107 063f 87       		.byte	0x87
 3108 0640 70000000 		.4byte	0x70
 3109 0644 94010000 		.4byte	.LLST14
 3110 0648 00       		.byte	0x0
 3111 0649 19       		.uleb128 0x19
 3112 064a 24000000 		.4byte	.LBB7
 3113 064e 2A000000 		.4byte	.LBE7
 3114 0652 18       		.uleb128 0x18
 3115 0653 746D7000 		.ascii	"tmp\000"
 3116 0657 01       		.byte	0x1
 3117 0658 8C       		.byte	0x8c
 3118 0659 70000000 		.4byte	0x70
 3119 065d A7010000 		.4byte	.LLST15
 3120 0661 00       		.byte	0x0
 3121 0662 00       		.byte	0x0
 3122 0663 1A       		.uleb128 0x1a
 3123 0664 01       		.byte	0x1
 3124 0665 A1000000 		.4byte	.LASF76
 3125 0669 01       		.byte	0x1
 3126 066a 99       		.byte	0x99
 3127 066b 01       		.byte	0x1
 3128 066c DD000000 		.4byte	0xdd
 3129 0670 00000000 		.4byte	.LFB10
 3130 0674 2C000000 		.4byte	.LFE10
 3131 0678 BA010000 		.4byte	.LLST16
 3132 067c C2060000 		.4byte	0x6c2
 3133 0680 16       		.uleb128 0x16
 3134 0681 00010000 		.4byte	.LASF72
 3135 0685 01       		.byte	0x1
 3136 0686 99       		.byte	0x99
 3137 0687 DD000000 		.4byte	0xdd
 3138 068b DA010000 		.4byte	.LLST17
 3139 068f 1C       		.uleb128 0x1c
 3140 0690 00000000 		.4byte	.Ldebug_ranges0+0x0
 3141 0694 A8060000 		.4byte	0x6a8
 3142 0698 18       		.uleb128 0x18
 3143 0699 746D7000 		.ascii	"tmp\000"
 3144 069d 01       		.byte	0x1
 3145 069e 9B       		.byte	0x9b
 3146 069f 70000000 		.4byte	0x70
 3147 06a3 03020000 		.4byte	.LLST18
 3148 06a7 00       		.byte	0x0
 3149 06a8 19       		.uleb128 0x19
ARM GAS  C:\Users\z80\AppData\Local\Temp\ccswBJvz.s 			page 57


 3150 06a9 22000000 		.4byte	.LBB10
 3151 06ad 28000000 		.4byte	.LBE10
 3152 06b1 18       		.uleb128 0x18
 3153 06b2 746D7000 		.ascii	"tmp\000"
 3154 06b6 01       		.byte	0x1
 3155 06b7 9F       		.byte	0x9f
 3156 06b8 70000000 		.4byte	0x70
 3157 06bc 16020000 		.4byte	.LLST19
 3158 06c0 00       		.byte	0x0
 3159 06c1 00       		.byte	0x0
 3160 06c2 14       		.uleb128 0x14
 3161 06c3 01       		.byte	0x1
 3162 06c4 36000000 		.4byte	.LASF77
 3163 06c8 01       		.byte	0x1
 3164 06c9 C1       		.byte	0xc1
 3165 06ca 01       		.byte	0x1
 3166 06cb 00000000 		.4byte	.LFB12
 3167 06cf 54000000 		.4byte	.LFE12
 3168 06d3 29020000 		.4byte	.LLST20
 3169 06d7 F9060000 		.4byte	0x6f9
 3170 06db 15       		.uleb128 0x15
 3171 06dc 747000   		.ascii	"tp\000"
 3172 06df 01       		.byte	0x1
 3173 06e0 C1       		.byte	0xc1
 3174 06e1 53020000 		.4byte	0x253
 3175 06e5 49020000 		.4byte	.LLST21
 3176 06e9 16       		.uleb128 0x16
 3177 06ea 00010000 		.4byte	.LASF72
 3178 06ee 01       		.byte	0x1
 3179 06ef C1       		.byte	0xc1
 3180 06f0 DD000000 		.4byte	0xdd
 3181 06f4 67020000 		.4byte	.LLST22
 3182 06f8 00       		.byte	0x0
 3183 06f9 14       		.uleb128 0x14
 3184 06fa 01       		.byte	0x1
 3185 06fb 73020000 		.4byte	.LASF78
 3186 06ff 01       		.byte	0x1
 3187 0700 AB       		.byte	0xab
 3188 0701 01       		.byte	0x1
 3189 0702 00000000 		.4byte	.LFB11
 3190 0706 38000000 		.4byte	.LFE11
 3191 070a 90020000 		.4byte	.LLST23
 3192 070e 66070000 		.4byte	0x766
 3193 0712 15       		.uleb128 0x15
 3194 0713 747000   		.ascii	"tp\000"
 3195 0716 01       		.byte	0x1
 3196 0717 AB       		.byte	0xab
 3197 0718 53020000 		.4byte	0x253
 3198 071c B0020000 		.4byte	.LLST24
 3199 0720 16       		.uleb128 0x16
 3200 0721 00010000 		.4byte	.LASF72
 3201 0725 01       		.byte	0x1
 3202 0726 AB       		.byte	0xab
 3203 0727 DD000000 		.4byte	0xdd
 3204 072b CE020000 		.4byte	.LLST25
 3205 072f 17       		.uleb128 0x17
 3206 0730 08000000 		.4byte	.LBB11
ARM GAS  C:\Users\z80\AppData\Local\Temp\ccswBJvz.s 			page 58


 3207 0734 0E000000 		.4byte	.LBE11
 3208 0738 4C070000 		.4byte	0x74c
 3209 073c 18       		.uleb128 0x18
 3210 073d 746D7000 		.ascii	"tmp\000"
 3211 0741 01       		.byte	0x1
 3212 0742 AF       		.byte	0xaf
 3213 0743 70000000 		.4byte	0x70
 3214 0747 EC020000 		.4byte	.LLST26
 3215 074b 00       		.byte	0x0
 3216 074c 19       		.uleb128 0x19
 3217 074d 22000000 		.4byte	.LBB12
 3218 0751 28000000 		.4byte	.LBE12
 3219 0755 18       		.uleb128 0x18
 3220 0756 746D7000 		.ascii	"tmp\000"
 3221 075a 01       		.byte	0x1
 3222 075b B2       		.byte	0xb2
 3223 075c 70000000 		.4byte	0x70
 3224 0760 FF020000 		.4byte	.LLST27
 3225 0764 00       		.byte	0x0
 3226 0765 00       		.byte	0x0
 3227 0766 14       		.uleb128 0x14
 3228 0767 01       		.byte	0x1
 3229 0768 DB000000 		.4byte	.LASF79
 3230 076c 01       		.byte	0x1
 3231 076d F5       		.byte	0xf5
 3232 076e 01       		.byte	0x1
 3233 076f 00000000 		.4byte	.LFB14
 3234 0773 34000000 		.4byte	.LFE14
 3235 0777 12030000 		.4byte	.LLST28
 3236 077b AD070000 		.4byte	0x7ad
 3237 077f 15       		.uleb128 0x15
 3238 0780 65737000 		.ascii	"esp\000"
 3239 0784 01       		.byte	0x1
 3240 0785 F5       		.byte	0xf5
 3241 0786 6F050000 		.4byte	0x56f
 3242 078a 32030000 		.4byte	.LLST29
 3243 078e 16       		.uleb128 0x16
 3244 078f 00010000 		.4byte	.LASF72
 3245 0793 01       		.byte	0x1
 3246 0794 F5       		.byte	0xf5
 3247 0795 DD000000 		.4byte	0xdd
 3248 0799 50030000 		.4byte	.LLST30
 3249 079d 18       		.uleb128 0x18
 3250 079e 656C7000 		.ascii	"elp\000"
 3251 07a2 01       		.byte	0x1
 3252 07a3 F6       		.byte	0xf6
 3253 07a4 56040000 		.4byte	0x456
 3254 07a8 6E030000 		.4byte	.LLST31
 3255 07ac 00       		.byte	0x0
 3256 07ad 14       		.uleb128 0x14
 3257 07ae 01       		.byte	0x1
 3258 07af 0E010000 		.4byte	.LASF80
 3259 07b3 01       		.byte	0x1
 3260 07b4 DC       		.byte	0xdc
 3261 07b5 01       		.byte	0x1
 3262 07b6 00000000 		.4byte	.LFB13
 3263 07ba 28000000 		.4byte	.LFE13
ARM GAS  C:\Users\z80\AppData\Local\Temp\ccswBJvz.s 			page 59


 3264 07be 98030000 		.4byte	.LLST32
 3265 07c2 1B080000 		.4byte	0x81b
 3266 07c6 15       		.uleb128 0x15
 3267 07c7 65737000 		.ascii	"esp\000"
 3268 07cb 01       		.byte	0x1
 3269 07cc DC       		.byte	0xdc
 3270 07cd 6F050000 		.4byte	0x56f
 3271 07d1 B8030000 		.4byte	.LLST33
 3272 07d5 16       		.uleb128 0x16
 3273 07d6 00010000 		.4byte	.LASF72
 3274 07da 01       		.byte	0x1
 3275 07db DC       		.byte	0xdc
 3276 07dc DD000000 		.4byte	0xdd
 3277 07e0 D6030000 		.4byte	.LLST34
 3278 07e4 17       		.uleb128 0x17
 3279 07e5 06000000 		.4byte	.LBB13
 3280 07e9 0C000000 		.4byte	.LBE13
 3281 07ed 01080000 		.4byte	0x801
 3282 07f1 18       		.uleb128 0x18
 3283 07f2 746D7000 		.ascii	"tmp\000"
 3284 07f6 01       		.byte	0x1
 3285 07f7 DE       		.byte	0xde
 3286 07f8 70000000 		.4byte	0x70
 3287 07fc F4030000 		.4byte	.LLST35
 3288 0800 00       		.byte	0x0
 3289 0801 19       		.uleb128 0x19
 3290 0802 20000000 		.4byte	.LBB14
 3291 0806 26000000 		.4byte	.LBE14
 3292 080a 18       		.uleb128 0x18
 3293 080b 746D7000 		.ascii	"tmp\000"
 3294 080f 01       		.byte	0x1
 3295 0810 E1       		.byte	0xe1
 3296 0811 70000000 		.4byte	0x70
 3297 0815 07040000 		.4byte	.LLST36
 3298 0819 00       		.byte	0x0
 3299 081a 00       		.byte	0x0
 3300 081b 1D       		.uleb128 0x1d
 3301 081c 01       		.byte	0x1
 3302 081d 1A020000 		.4byte	.LASF81
 3303 0821 01       		.byte	0x1
 3304 0822 0B01     		.2byte	0x10b
 3305 0824 01       		.byte	0x1
 3306 0825 00000000 		.4byte	.LFB15
 3307 0829 50000000 		.4byte	.LFE15
 3308 082d 1A040000 		.4byte	.LLST37
 3309 0831 66080000 		.4byte	0x866
 3310 0835 1E       		.uleb128 0x1e
 3311 0836 9E020000 		.4byte	.LASF82
 3312 083a 01       		.byte	0x1
 3313 083b 0B01     		.2byte	0x10b
 3314 083d 66080000 		.4byte	0x866
 3315 0841 3A040000 		.4byte	.LLST38
 3316 0845 1E       		.uleb128 0x1e
 3317 0846 00010000 		.4byte	.LASF72
 3318 084a 01       		.byte	0x1
 3319 084b 0B01     		.2byte	0x10b
 3320 084d DD000000 		.4byte	0xdd
ARM GAS  C:\Users\z80\AppData\Local\Temp\ccswBJvz.s 			page 60


 3321 0851 58040000 		.4byte	.LLST39
 3322 0855 1F       		.uleb128 0x1f
 3323 0856 65696400 		.ascii	"eid\000"
 3324 085a 01       		.byte	0x1
 3325 085b 0C01     		.2byte	0x10c
 3326 085d D2000000 		.4byte	0xd2
 3327 0861 97040000 		.4byte	.LLST40
 3328 0865 00       		.byte	0x0
 3329 0866 09       		.uleb128 0x9
 3330 0867 04       		.byte	0x4
 3331 0868 6C080000 		.4byte	0x86c
 3332 086c 13       		.uleb128 0x13
 3333 086d 82040000 		.4byte	0x482
 3334 0871 20       		.uleb128 0x20
 3335 0872 01       		.byte	0x1
 3336 0873 E4020000 		.4byte	.LASF83
 3337 0877 01       		.byte	0x1
 3338 0878 2E01     		.2byte	0x12e
 3339 087a 01       		.byte	0x1
 3340 087b DD000000 		.4byte	0xdd
 3341 087f 00000000 		.4byte	.LFB16
 3342 0883 44000000 		.4byte	.LFE16
 3343 0887 C3040000 		.4byte	.LLST41
 3344 088b F6080000 		.4byte	0x8f6
 3345 088f 1E       		.uleb128 0x1e
 3346 0890 00010000 		.4byte	.LASF72
 3347 0894 01       		.byte	0x1
 3348 0895 2E01     		.2byte	0x12e
 3349 0897 DD000000 		.4byte	0xdd
 3350 089b E3040000 		.4byte	.LLST42
 3351 089f 1F       		.uleb128 0x1f
 3352 08a0 63747000 		.ascii	"ctp\000"
 3353 08a4 01       		.byte	0x1
 3354 08a5 2F01     		.2byte	0x12f
 3355 08a7 53020000 		.4byte	0x253
 3356 08ab 01050000 		.4byte	.LLST43
 3357 08af 1F       		.uleb128 0x1f
 3358 08b0 6D00     		.ascii	"m\000"
 3359 08b2 01       		.byte	0x1
 3360 08b3 3001     		.2byte	0x130
 3361 08b5 DD000000 		.4byte	0xdd
 3362 08b9 20050000 		.4byte	.LLST44
 3363 08bd 17       		.uleb128 0x17
 3364 08be 08000000 		.4byte	.LBB15
 3365 08c2 0E000000 		.4byte	.LBE15
 3366 08c6 DB080000 		.4byte	0x8db
 3367 08ca 1F       		.uleb128 0x1f
 3368 08cb 746D7000 		.ascii	"tmp\000"
 3369 08cf 01       		.byte	0x1
 3370 08d0 3201     		.2byte	0x132
 3371 08d2 70000000 		.4byte	0x70
 3372 08d6 4F050000 		.4byte	.LLST45
 3373 08da 00       		.byte	0x0
 3374 08db 19       		.uleb128 0x19
 3375 08dc 36000000 		.4byte	.LBB16
 3376 08e0 3C000000 		.4byte	.LBE16
 3377 08e4 1F       		.uleb128 0x1f
ARM GAS  C:\Users\z80\AppData\Local\Temp\ccswBJvz.s 			page 61


 3378 08e5 746D7000 		.ascii	"tmp\000"
 3379 08e9 01       		.byte	0x1
 3380 08ea 3C01     		.2byte	0x13c
 3381 08ec 70000000 		.4byte	0x70
 3382 08f0 62050000 		.4byte	.LLST46
 3383 08f4 00       		.byte	0x0
 3384 08f5 00       		.byte	0x0
 3385 08f6 20       		.uleb128 0x20
 3386 08f7 01       		.byte	0x1
 3387 08f8 CE000000 		.4byte	.LASF84
 3388 08fc 01       		.byte	0x1
 3389 08fd 4B01     		.2byte	0x14b
 3390 08ff 01       		.byte	0x1
 3391 0900 DD000000 		.4byte	0xdd
 3392 0904 00000000 		.4byte	.LFB17
 3393 0908 40000000 		.4byte	.LFE17
 3394 090c 75050000 		.4byte	.LLST47
 3395 0910 7B090000 		.4byte	0x97b
 3396 0914 1E       		.uleb128 0x1e
 3397 0915 00010000 		.4byte	.LASF72
 3398 0919 01       		.byte	0x1
 3399 091a 4B01     		.2byte	0x14b
 3400 091c DD000000 		.4byte	0xdd
 3401 0920 95050000 		.4byte	.LLST48
 3402 0924 1F       		.uleb128 0x1f
 3403 0925 63747000 		.ascii	"ctp\000"
 3404 0929 01       		.byte	0x1
 3405 092a 4C01     		.2byte	0x14c
 3406 092c 53020000 		.4byte	0x253
 3407 0930 B3050000 		.4byte	.LLST49
 3408 0934 1F       		.uleb128 0x1f
 3409 0935 6D00     		.ascii	"m\000"
 3410 0937 01       		.byte	0x1
 3411 0938 4D01     		.2byte	0x14d
 3412 093a DD000000 		.4byte	0xdd
 3413 093e D2050000 		.4byte	.LLST50
 3414 0942 17       		.uleb128 0x17
 3415 0943 08000000 		.4byte	.LBB17
 3416 0947 0E000000 		.4byte	.LBE17
 3417 094b 60090000 		.4byte	0x960
 3418 094f 1F       		.uleb128 0x1f
 3419 0950 746D7000 		.ascii	"tmp\000"
 3420 0954 01       		.byte	0x1
 3421 0955 4F01     		.2byte	0x14f
 3422 0957 70000000 		.4byte	0x70
 3423 095b 01060000 		.4byte	.LLST51
 3424 095f 00       		.byte	0x0
 3425 0960 19       		.uleb128 0x19
 3426 0961 32000000 		.4byte	.LBB18
 3427 0965 38000000 		.4byte	.LBE18
 3428 0969 1F       		.uleb128 0x1f
 3429 096a 746D7000 		.ascii	"tmp\000"
 3430 096e 01       		.byte	0x1
 3431 096f 5801     		.2byte	0x158
 3432 0971 70000000 		.4byte	0x70
 3433 0975 14060000 		.4byte	.LLST52
 3434 0979 00       		.byte	0x0
ARM GAS  C:\Users\z80\AppData\Local\Temp\ccswBJvz.s 			page 62


 3435 097a 00       		.byte	0x0
 3436 097b 20       		.uleb128 0x20
 3437 097c 01       		.byte	0x1
 3438 097d C1000000 		.4byte	.LASF85
 3439 0981 01       		.byte	0x1
 3440 0982 6701     		.2byte	0x167
 3441 0984 01       		.byte	0x1
 3442 0985 DD000000 		.4byte	0xdd
 3443 0989 00000000 		.4byte	.LFB18
 3444 098d 40000000 		.4byte	.LFE18
 3445 0991 27060000 		.4byte	.LLST53
 3446 0995 F2090000 		.4byte	0x9f2
 3447 0999 1E       		.uleb128 0x1e
 3448 099a 00010000 		.4byte	.LASF72
 3449 099e 01       		.byte	0x1
 3450 099f 6701     		.2byte	0x167
 3451 09a1 DD000000 		.4byte	0xdd
 3452 09a5 47060000 		.4byte	.LLST54
 3453 09a9 1F       		.uleb128 0x1f
 3454 09aa 63747000 		.ascii	"ctp\000"
 3455 09ae 01       		.byte	0x1
 3456 09af 6801     		.2byte	0x168
 3457 09b1 53020000 		.4byte	0x253
 3458 09b5 65060000 		.4byte	.LLST55
 3459 09b9 17       		.uleb128 0x17
 3460 09ba 08000000 		.4byte	.LBB19
 3461 09be 0E000000 		.4byte	.LBE19
 3462 09c2 D7090000 		.4byte	0x9d7
 3463 09c6 1F       		.uleb128 0x1f
 3464 09c7 746D7000 		.ascii	"tmp\000"
 3465 09cb 01       		.byte	0x1
 3466 09cc 6A01     		.2byte	0x16a
 3467 09ce 70000000 		.4byte	0x70
 3468 09d2 84060000 		.4byte	.LLST56
 3469 09d6 00       		.byte	0x0
 3470 09d7 19       		.uleb128 0x19
 3471 09d8 30000000 		.4byte	.LBB20
 3472 09dc 36000000 		.4byte	.LBE20
 3473 09e0 1F       		.uleb128 0x1f
 3474 09e1 746D7000 		.ascii	"tmp\000"
 3475 09e5 01       		.byte	0x1
 3476 09e6 7201     		.2byte	0x172
 3477 09e8 70000000 		.4byte	0x70
 3478 09ec 97060000 		.4byte	.LLST57
 3479 09f0 00       		.byte	0x0
 3480 09f1 00       		.byte	0x0
 3481 09f2 20       		.uleb128 0x20
 3482 09f3 01       		.byte	0x1
 3483 09f4 81030000 		.4byte	.LASF86
 3484 09f8 01       		.byte	0x1
 3485 09f9 8E01     		.2byte	0x18e
 3486 09fb 01       		.byte	0x1
 3487 09fc DD000000 		.4byte	0xdd
 3488 0a00 00000000 		.4byte	.LFB19
 3489 0a04 68000000 		.4byte	.LFE19
 3490 0a08 AA060000 		.4byte	.LLST58
 3491 0a0c C30A0000 		.4byte	0xac3
ARM GAS  C:\Users\z80\AppData\Local\Temp\ccswBJvz.s 			page 63


 3492 0a10 1E       		.uleb128 0x1e
 3493 0a11 00010000 		.4byte	.LASF72
 3494 0a15 01       		.byte	0x1
 3495 0a16 8E01     		.2byte	0x18e
 3496 0a18 DD000000 		.4byte	0xdd
 3497 0a1c CA060000 		.4byte	.LLST59
 3498 0a20 1E       		.uleb128 0x1e
 3499 0a21 6E020000 		.4byte	.LASF87
 3500 0a25 01       		.byte	0x1
 3501 0a26 8E01     		.2byte	0x18e
 3502 0a28 E8000000 		.4byte	0xe8
 3503 0a2c E8060000 		.4byte	.LLST60
 3504 0a30 1F       		.uleb128 0x1f
 3505 0a31 63747000 		.ascii	"ctp\000"
 3506 0a35 01       		.byte	0x1
 3507 0a36 8F01     		.2byte	0x18f
 3508 0a38 53020000 		.4byte	0x253
 3509 0a3c 06070000 		.4byte	.LLST61
 3510 0a40 1F       		.uleb128 0x1f
 3511 0a41 6D00     		.ascii	"m\000"
 3512 0a43 01       		.byte	0x1
 3513 0a44 9001     		.2byte	0x190
 3514 0a46 DD000000 		.4byte	0xdd
 3515 0a4a 25070000 		.4byte	.LLST62
 3516 0a4e 17       		.uleb128 0x17
 3517 0a4f 0A000000 		.4byte	.LBB21
 3518 0a53 10000000 		.4byte	.LBE21
 3519 0a57 6C0A0000 		.4byte	0xa6c
 3520 0a5b 1F       		.uleb128 0x1f
 3521 0a5c 746D7000 		.ascii	"tmp\000"
 3522 0a60 01       		.byte	0x1
 3523 0a61 9201     		.2byte	0x192
 3524 0a63 70000000 		.4byte	0x70
 3525 0a67 5F070000 		.4byte	.LLST63
 3526 0a6b 00       		.byte	0x0
 3527 0a6c 17       		.uleb128 0x17
 3528 0a6d 40000000 		.4byte	.LBB22
 3529 0a71 46000000 		.4byte	.LBE22
 3530 0a75 8A0A0000 		.4byte	0xa8a
 3531 0a79 1F       		.uleb128 0x1f
 3532 0a7a 746D7000 		.ascii	"tmp\000"
 3533 0a7e 01       		.byte	0x1
 3534 0a7f A301     		.2byte	0x1a3
 3535 0a81 70000000 		.4byte	0x70
 3536 0a85 72070000 		.4byte	.LLST64
 3537 0a89 00       		.byte	0x0
 3538 0a8a 17       		.uleb128 0x17
 3539 0a8b 4E000000 		.4byte	.LBB23
 3540 0a8f 54000000 		.4byte	.LBE23
 3541 0a93 A80A0000 		.4byte	0xaa8
 3542 0a97 1F       		.uleb128 0x1f
 3543 0a98 746D7000 		.ascii	"tmp\000"
 3544 0a9c 01       		.byte	0x1
 3545 0a9d 9601     		.2byte	0x196
 3546 0a9f 70000000 		.4byte	0x70
 3547 0aa3 85070000 		.4byte	.LLST65
 3548 0aa7 00       		.byte	0x0
ARM GAS  C:\Users\z80\AppData\Local\Temp\ccswBJvz.s 			page 64


 3549 0aa8 19       		.uleb128 0x19
 3550 0aa9 5A000000 		.4byte	.LBB24
 3551 0aad 60000000 		.4byte	.LBE24
 3552 0ab1 1F       		.uleb128 0x1f
 3553 0ab2 746D7000 		.ascii	"tmp\000"
 3554 0ab6 01       		.byte	0x1
 3555 0ab7 9B01     		.2byte	0x19b
 3556 0ab9 70000000 		.4byte	0x70
 3557 0abd A3070000 		.4byte	.LLST66
 3558 0ac1 00       		.byte	0x0
 3559 0ac2 00       		.byte	0x0
 3560 0ac3 20       		.uleb128 0x20
 3561 0ac4 01       		.byte	0x1
 3562 0ac5 48000000 		.4byte	.LASF88
 3563 0ac9 01       		.byte	0x1
 3564 0aca B901     		.2byte	0x1b9
 3565 0acc 01       		.byte	0x1
 3566 0acd DD000000 		.4byte	0xdd
 3567 0ad1 00000000 		.4byte	.LFB20
 3568 0ad5 64000000 		.4byte	.LFE20
 3569 0ad9 C1070000 		.4byte	.LLST67
 3570 0add 940B0000 		.4byte	0xb94
 3571 0ae1 1E       		.uleb128 0x1e
 3572 0ae2 00010000 		.4byte	.LASF72
 3573 0ae6 01       		.byte	0x1
 3574 0ae7 B901     		.2byte	0x1b9
 3575 0ae9 DD000000 		.4byte	0xdd
 3576 0aed E1070000 		.4byte	.LLST68
 3577 0af1 1E       		.uleb128 0x1e
 3578 0af2 6E020000 		.4byte	.LASF87
 3579 0af6 01       		.byte	0x1
 3580 0af7 B901     		.2byte	0x1b9
 3581 0af9 E8000000 		.4byte	0xe8
 3582 0afd FF070000 		.4byte	.LLST69
 3583 0b01 1F       		.uleb128 0x1f
 3584 0b02 63747000 		.ascii	"ctp\000"
 3585 0b06 01       		.byte	0x1
 3586 0b07 BA01     		.2byte	0x1ba
 3587 0b09 53020000 		.4byte	0x253
 3588 0b0d 1D080000 		.4byte	.LLST70
 3589 0b11 1F       		.uleb128 0x1f
 3590 0b12 6D00     		.ascii	"m\000"
 3591 0b14 01       		.byte	0x1
 3592 0b15 BB01     		.2byte	0x1bb
 3593 0b17 DD000000 		.4byte	0xdd
 3594 0b1b 3C080000 		.4byte	.LLST71
 3595 0b1f 17       		.uleb128 0x17
 3596 0b20 0A000000 		.4byte	.LBB25
 3597 0b24 10000000 		.4byte	.LBE25
 3598 0b28 3D0B0000 		.4byte	0xb3d
 3599 0b2c 1F       		.uleb128 0x1f
 3600 0b2d 746D7000 		.ascii	"tmp\000"
 3601 0b31 01       		.byte	0x1
 3602 0b32 BD01     		.2byte	0x1bd
 3603 0b34 70000000 		.4byte	0x70
 3604 0b38 6B080000 		.4byte	.LLST72
 3605 0b3c 00       		.byte	0x0
ARM GAS  C:\Users\z80\AppData\Local\Temp\ccswBJvz.s 			page 65


 3606 0b3d 17       		.uleb128 0x17
 3607 0b3e 3C000000 		.4byte	.LBB26
 3608 0b42 42000000 		.4byte	.LBE26
 3609 0b46 5B0B0000 		.4byte	0xb5b
 3610 0b4a 1F       		.uleb128 0x1f
 3611 0b4b 746D7000 		.ascii	"tmp\000"
 3612 0b4f 01       		.byte	0x1
 3613 0b50 CD01     		.2byte	0x1cd
 3614 0b52 70000000 		.4byte	0x70
 3615 0b56 7E080000 		.4byte	.LLST73
 3616 0b5a 00       		.byte	0x0
 3617 0b5b 17       		.uleb128 0x17
 3618 0b5c 4A000000 		.4byte	.LBB27
 3619 0b60 50000000 		.4byte	.LBE27
 3620 0b64 790B0000 		.4byte	0xb79
 3621 0b68 1F       		.uleb128 0x1f
 3622 0b69 746D7000 		.ascii	"tmp\000"
 3623 0b6d 01       		.byte	0x1
 3624 0b6e C101     		.2byte	0x1c1
 3625 0b70 70000000 		.4byte	0x70
 3626 0b74 91080000 		.4byte	.LLST74
 3627 0b78 00       		.byte	0x0
 3628 0b79 19       		.uleb128 0x19
 3629 0b7a 56000000 		.4byte	.LBB28
 3630 0b7e 5C000000 		.4byte	.LBE28
 3631 0b82 1F       		.uleb128 0x1f
 3632 0b83 746D7000 		.ascii	"tmp\000"
 3633 0b87 01       		.byte	0x1
 3634 0b88 C601     		.2byte	0x1c6
 3635 0b8a 70000000 		.4byte	0x70
 3636 0b8e AF080000 		.4byte	.LLST75
 3637 0b92 00       		.byte	0x0
 3638 0b93 00       		.byte	0x0
 3639 0b94 20       		.uleb128 0x20
 3640 0b95 01       		.byte	0x1
 3641 0b96 7D000000 		.4byte	.LASF89
 3642 0b9a 01       		.byte	0x1
 3643 0b9b E201     		.2byte	0x1e2
 3644 0b9d 01       		.byte	0x1
 3645 0b9e DD000000 		.4byte	0xdd
 3646 0ba2 00000000 		.4byte	.LFB21
 3647 0ba6 68000000 		.4byte	.LFE21
 3648 0baa CD080000 		.4byte	.LLST76
 3649 0bae 570C0000 		.4byte	0xc57
 3650 0bb2 1E       		.uleb128 0x1e
 3651 0bb3 00010000 		.4byte	.LASF72
 3652 0bb7 01       		.byte	0x1
 3653 0bb8 E201     		.2byte	0x1e2
 3654 0bba DD000000 		.4byte	0xdd
 3655 0bbe ED080000 		.4byte	.LLST77
 3656 0bc2 1E       		.uleb128 0x1e
 3657 0bc3 6E020000 		.4byte	.LASF87
 3658 0bc7 01       		.byte	0x1
 3659 0bc8 E201     		.2byte	0x1e2
 3660 0bca E8000000 		.4byte	0xe8
 3661 0bce 21090000 		.4byte	.LLST78
 3662 0bd2 1F       		.uleb128 0x1f
ARM GAS  C:\Users\z80\AppData\Local\Temp\ccswBJvz.s 			page 66


 3663 0bd3 63747000 		.ascii	"ctp\000"
 3664 0bd7 01       		.byte	0x1
 3665 0bd8 E301     		.2byte	0x1e3
 3666 0bda 53020000 		.4byte	0x253
 3667 0bde 3F090000 		.4byte	.LLST79
 3668 0be2 17       		.uleb128 0x17
 3669 0be3 0A000000 		.4byte	.LBB29
 3670 0be7 10000000 		.4byte	.LBE29
 3671 0beb 000C0000 		.4byte	0xc00
 3672 0bef 1F       		.uleb128 0x1f
 3673 0bf0 746D7000 		.ascii	"tmp\000"
 3674 0bf4 01       		.byte	0x1
 3675 0bf5 E501     		.2byte	0x1e5
 3676 0bf7 70000000 		.4byte	0x70
 3677 0bfb 5E090000 		.4byte	.LLST80
 3678 0bff 00       		.byte	0x0
 3679 0c00 17       		.uleb128 0x17
 3680 0c01 3C000000 		.4byte	.LBB30
 3681 0c05 42000000 		.4byte	.LBE30
 3682 0c09 1E0C0000 		.4byte	0xc1e
 3683 0c0d 1F       		.uleb128 0x1f
 3684 0c0e 746D7000 		.ascii	"tmp\000"
 3685 0c12 01       		.byte	0x1
 3686 0c13 F401     		.2byte	0x1f4
 3687 0c15 70000000 		.4byte	0x70
 3688 0c19 71090000 		.4byte	.LLST81
 3689 0c1d 00       		.byte	0x0
 3690 0c1e 17       		.uleb128 0x17
 3691 0c1f 4A000000 		.4byte	.LBB31
 3692 0c23 50000000 		.4byte	.LBE31
 3693 0c27 3C0C0000 		.4byte	0xc3c
 3694 0c2b 1F       		.uleb128 0x1f
 3695 0c2c 746D7000 		.ascii	"tmp\000"
 3696 0c30 01       		.byte	0x1
 3697 0c31 E901     		.2byte	0x1e9
 3698 0c33 70000000 		.4byte	0x70
 3699 0c37 84090000 		.4byte	.LLST82
 3700 0c3b 00       		.byte	0x0
 3701 0c3c 19       		.uleb128 0x19
 3702 0c3d 58000000 		.4byte	.LBB32
 3703 0c41 5E000000 		.4byte	.LBE32
 3704 0c45 1F       		.uleb128 0x1f
 3705 0c46 746D7000 		.ascii	"tmp\000"
 3706 0c4a 01       		.byte	0x1
 3707 0c4b EE01     		.2byte	0x1ee
 3708 0c4d 70000000 		.4byte	0x70
 3709 0c51 A2090000 		.4byte	.LLST83
 3710 0c55 00       		.byte	0x0
 3711 0c56 00       		.byte	0x0
 3712 0c57 21       		.uleb128 0x21
 3713 0c58 B8030000 		.4byte	.LASF90
 3714 0c5c 07       		.byte	0x7
 3715 0c5d 72       		.byte	0x72
 3716 0c5e C1030000 		.4byte	0x3c1
 3717 0c62 01       		.byte	0x1
 3718 0c63 01       		.byte	0x1
 3719 0c64 21       		.uleb128 0x21
ARM GAS  C:\Users\z80\AppData\Local\Temp\ccswBJvz.s 			page 67


 3720 0c65 B8030000 		.4byte	.LASF90
 3721 0c69 07       		.byte	0x7
 3722 0c6a 72       		.byte	0x72
 3723 0c6b C1030000 		.4byte	0x3c1
 3724 0c6f 01       		.byte	0x1
 3725 0c70 01       		.byte	0x1
 3726 0c71 00       		.byte	0x0
 3727              		.section	.debug_abbrev
 3728 0000 01       		.uleb128 0x1
 3729 0001 11       		.uleb128 0x11
 3730 0002 01       		.byte	0x1
 3731 0003 25       		.uleb128 0x25
 3732 0004 0E       		.uleb128 0xe
 3733 0005 13       		.uleb128 0x13
 3734 0006 0B       		.uleb128 0xb
 3735 0007 03       		.uleb128 0x3
 3736 0008 0E       		.uleb128 0xe
 3737 0009 1B       		.uleb128 0x1b
 3738 000a 0E       		.uleb128 0xe
 3739 000b 11       		.uleb128 0x11
 3740 000c 01       		.uleb128 0x1
 3741 000d 52       		.uleb128 0x52
 3742 000e 01       		.uleb128 0x1
 3743 000f 55       		.uleb128 0x55
 3744 0010 06       		.uleb128 0x6
 3745 0011 10       		.uleb128 0x10
 3746 0012 06       		.uleb128 0x6
 3747 0013 00       		.byte	0x0
 3748 0014 00       		.byte	0x0
 3749 0015 02       		.uleb128 0x2
 3750 0016 24       		.uleb128 0x24
 3751 0017 00       		.byte	0x0
 3752 0018 0B       		.uleb128 0xb
 3753 0019 0B       		.uleb128 0xb
 3754 001a 3E       		.uleb128 0x3e
 3755 001b 0B       		.uleb128 0xb
 3756 001c 03       		.uleb128 0x3
 3757 001d 08       		.uleb128 0x8
 3758 001e 00       		.byte	0x0
 3759 001f 00       		.byte	0x0
 3760 0020 03       		.uleb128 0x3
 3761 0021 24       		.uleb128 0x24
 3762 0022 00       		.byte	0x0
 3763 0023 0B       		.uleb128 0xb
 3764 0024 0B       		.uleb128 0xb
 3765 0025 3E       		.uleb128 0x3e
 3766 0026 0B       		.uleb128 0xb
 3767 0027 03       		.uleb128 0x3
 3768 0028 0E       		.uleb128 0xe
 3769 0029 00       		.byte	0x0
 3770 002a 00       		.byte	0x0
 3771 002b 04       		.uleb128 0x4
 3772 002c 16       		.uleb128 0x16
 3773 002d 00       		.byte	0x0
 3774 002e 03       		.uleb128 0x3
 3775 002f 0E       		.uleb128 0xe
 3776 0030 3A       		.uleb128 0x3a
ARM GAS  C:\Users\z80\AppData\Local\Temp\ccswBJvz.s 			page 68


 3777 0031 0B       		.uleb128 0xb
 3778 0032 3B       		.uleb128 0x3b
 3779 0033 0B       		.uleb128 0xb
 3780 0034 49       		.uleb128 0x49
 3781 0035 13       		.uleb128 0x13
 3782 0036 00       		.byte	0x0
 3783 0037 00       		.byte	0x0
 3784 0038 05       		.uleb128 0x5
 3785 0039 13       		.uleb128 0x13
 3786 003a 01       		.byte	0x1
 3787 003b 03       		.uleb128 0x3
 3788 003c 0E       		.uleb128 0xe
 3789 003d 0B       		.uleb128 0xb
 3790 003e 0B       		.uleb128 0xb
 3791 003f 3A       		.uleb128 0x3a
 3792 0040 0B       		.uleb128 0xb
 3793 0041 3B       		.uleb128 0x3b
 3794 0042 0B       		.uleb128 0xb
 3795 0043 01       		.uleb128 0x1
 3796 0044 13       		.uleb128 0x13
 3797 0045 00       		.byte	0x0
 3798 0046 00       		.byte	0x0
 3799 0047 06       		.uleb128 0x6
 3800 0048 0D       		.uleb128 0xd
 3801 0049 00       		.byte	0x0
 3802 004a 03       		.uleb128 0x3
 3803 004b 0E       		.uleb128 0xe
 3804 004c 3A       		.uleb128 0x3a
 3805 004d 0B       		.uleb128 0xb
 3806 004e 3B       		.uleb128 0x3b
 3807 004f 0B       		.uleb128 0xb
 3808 0050 49       		.uleb128 0x49
 3809 0051 13       		.uleb128 0x13
 3810 0052 38       		.uleb128 0x38
 3811 0053 0A       		.uleb128 0xa
 3812 0054 00       		.byte	0x0
 3813 0055 00       		.byte	0x0
 3814 0056 07       		.uleb128 0x7
 3815 0057 0D       		.uleb128 0xd
 3816 0058 00       		.byte	0x0
 3817 0059 03       		.uleb128 0x3
 3818 005a 08       		.uleb128 0x8
 3819 005b 3A       		.uleb128 0x3a
 3820 005c 0B       		.uleb128 0xb
 3821 005d 3B       		.uleb128 0x3b
 3822 005e 0B       		.uleb128 0xb
 3823 005f 49       		.uleb128 0x49
 3824 0060 13       		.uleb128 0x13
 3825 0061 38       		.uleb128 0x38
 3826 0062 0A       		.uleb128 0xa
 3827 0063 00       		.byte	0x0
 3828 0064 00       		.byte	0x0
 3829 0065 08       		.uleb128 0x8
 3830 0066 13       		.uleb128 0x13
 3831 0067 01       		.byte	0x1
 3832 0068 0B       		.uleb128 0xb
 3833 0069 0B       		.uleb128 0xb
ARM GAS  C:\Users\z80\AppData\Local\Temp\ccswBJvz.s 			page 69


 3834 006a 3A       		.uleb128 0x3a
 3835 006b 0B       		.uleb128 0xb
 3836 006c 3B       		.uleb128 0x3b
 3837 006d 0B       		.uleb128 0xb
 3838 006e 01       		.uleb128 0x1
 3839 006f 13       		.uleb128 0x13
 3840 0070 00       		.byte	0x0
 3841 0071 00       		.byte	0x0
 3842 0072 09       		.uleb128 0x9
 3843 0073 0F       		.uleb128 0xf
 3844 0074 00       		.byte	0x0
 3845 0075 0B       		.uleb128 0xb
 3846 0076 0B       		.uleb128 0xb
 3847 0077 49       		.uleb128 0x49
 3848 0078 13       		.uleb128 0x13
 3849 0079 00       		.byte	0x0
 3850 007a 00       		.byte	0x0
 3851 007b 0A       		.uleb128 0xa
 3852 007c 0F       		.uleb128 0xf
 3853 007d 00       		.byte	0x0
 3854 007e 0B       		.uleb128 0xb
 3855 007f 0B       		.uleb128 0xb
 3856 0080 00       		.byte	0x0
 3857 0081 00       		.byte	0x0
 3858 0082 0B       		.uleb128 0xb
 3859 0083 0D       		.uleb128 0xd
 3860 0084 00       		.byte	0x0
 3861 0085 03       		.uleb128 0x3
 3862 0086 08       		.uleb128 0x8
 3863 0087 3A       		.uleb128 0x3a
 3864 0088 0B       		.uleb128 0xb
 3865 0089 3B       		.uleb128 0x3b
 3866 008a 05       		.uleb128 0x5
 3867 008b 49       		.uleb128 0x49
 3868 008c 13       		.uleb128 0x13
 3869 008d 38       		.uleb128 0x38
 3870 008e 0A       		.uleb128 0xa
 3871 008f 00       		.byte	0x0
 3872 0090 00       		.byte	0x0
 3873 0091 0C       		.uleb128 0xc
 3874 0092 13       		.uleb128 0x13
 3875 0093 01       		.byte	0x1
 3876 0094 03       		.uleb128 0x3
 3877 0095 0E       		.uleb128 0xe
 3878 0096 0B       		.uleb128 0xb
 3879 0097 0B       		.uleb128 0xb
 3880 0098 3A       		.uleb128 0x3a
 3881 0099 0B       		.uleb128 0xb
 3882 009a 3B       		.uleb128 0x3b
 3883 009b 05       		.uleb128 0x5
 3884 009c 01       		.uleb128 0x1
 3885 009d 13       		.uleb128 0x13
 3886 009e 00       		.byte	0x0
 3887 009f 00       		.byte	0x0
 3888 00a0 0D       		.uleb128 0xd
 3889 00a1 24       		.uleb128 0x24
 3890 00a2 00       		.byte	0x0
ARM GAS  C:\Users\z80\AppData\Local\Temp\ccswBJvz.s 			page 70


 3891 00a3 0B       		.uleb128 0xb
 3892 00a4 0B       		.uleb128 0xb
 3893 00a5 3E       		.uleb128 0x3e
 3894 00a6 0B       		.uleb128 0xb
 3895 00a7 00       		.byte	0x0
 3896 00a8 00       		.byte	0x0
 3897 00a9 0E       		.uleb128 0xe
 3898 00aa 35       		.uleb128 0x35
 3899 00ab 00       		.byte	0x0
 3900 00ac 49       		.uleb128 0x49
 3901 00ad 13       		.uleb128 0x13
 3902 00ae 00       		.byte	0x0
 3903 00af 00       		.byte	0x0
 3904 00b0 0F       		.uleb128 0xf
 3905 00b1 15       		.uleb128 0x15
 3906 00b2 01       		.byte	0x1
 3907 00b3 27       		.uleb128 0x27
 3908 00b4 0C       		.uleb128 0xc
 3909 00b5 01       		.uleb128 0x1
 3910 00b6 13       		.uleb128 0x13
 3911 00b7 00       		.byte	0x0
 3912 00b8 00       		.byte	0x0
 3913 00b9 10       		.uleb128 0x10
 3914 00ba 05       		.uleb128 0x5
 3915 00bb 00       		.byte	0x0
 3916 00bc 49       		.uleb128 0x49
 3917 00bd 13       		.uleb128 0x13
 3918 00be 00       		.byte	0x0
 3919 00bf 00       		.byte	0x0
 3920 00c0 11       		.uleb128 0x11
 3921 00c1 17       		.uleb128 0x17
 3922 00c2 01       		.byte	0x1
 3923 00c3 0B       		.uleb128 0xb
 3924 00c4 0B       		.uleb128 0xb
 3925 00c5 3A       		.uleb128 0x3a
 3926 00c6 0B       		.uleb128 0xb
 3927 00c7 3B       		.uleb128 0x3b
 3928 00c8 0B       		.uleb128 0xb
 3929 00c9 01       		.uleb128 0x1
 3930 00ca 13       		.uleb128 0x13
 3931 00cb 00       		.byte	0x0
 3932 00cc 00       		.byte	0x0
 3933 00cd 12       		.uleb128 0x12
 3934 00ce 0D       		.uleb128 0xd
 3935 00cf 00       		.byte	0x0
 3936 00d0 03       		.uleb128 0x3
 3937 00d1 0E       		.uleb128 0xe
 3938 00d2 3A       		.uleb128 0x3a
 3939 00d3 0B       		.uleb128 0xb
 3940 00d4 3B       		.uleb128 0x3b
 3941 00d5 0B       		.uleb128 0xb
 3942 00d6 49       		.uleb128 0x49
 3943 00d7 13       		.uleb128 0x13
 3944 00d8 00       		.byte	0x0
 3945 00d9 00       		.byte	0x0
 3946 00da 13       		.uleb128 0x13
 3947 00db 26       		.uleb128 0x26
ARM GAS  C:\Users\z80\AppData\Local\Temp\ccswBJvz.s 			page 71


 3948 00dc 00       		.byte	0x0
 3949 00dd 49       		.uleb128 0x49
 3950 00de 13       		.uleb128 0x13
 3951 00df 00       		.byte	0x0
 3952 00e0 00       		.byte	0x0
 3953 00e1 14       		.uleb128 0x14
 3954 00e2 2E       		.uleb128 0x2e
 3955 00e3 01       		.byte	0x1
 3956 00e4 3F       		.uleb128 0x3f
 3957 00e5 0C       		.uleb128 0xc
 3958 00e6 03       		.uleb128 0x3
 3959 00e7 0E       		.uleb128 0xe
 3960 00e8 3A       		.uleb128 0x3a
 3961 00e9 0B       		.uleb128 0xb
 3962 00ea 3B       		.uleb128 0x3b
 3963 00eb 0B       		.uleb128 0xb
 3964 00ec 27       		.uleb128 0x27
 3965 00ed 0C       		.uleb128 0xc
 3966 00ee 11       		.uleb128 0x11
 3967 00ef 01       		.uleb128 0x1
 3968 00f0 12       		.uleb128 0x12
 3969 00f1 01       		.uleb128 0x1
 3970 00f2 40       		.uleb128 0x40
 3971 00f3 06       		.uleb128 0x6
 3972 00f4 01       		.uleb128 0x1
 3973 00f5 13       		.uleb128 0x13
 3974 00f6 00       		.byte	0x0
 3975 00f7 00       		.byte	0x0
 3976 00f8 15       		.uleb128 0x15
 3977 00f9 05       		.uleb128 0x5
 3978 00fa 00       		.byte	0x0
 3979 00fb 03       		.uleb128 0x3
 3980 00fc 08       		.uleb128 0x8
 3981 00fd 3A       		.uleb128 0x3a
 3982 00fe 0B       		.uleb128 0xb
 3983 00ff 3B       		.uleb128 0x3b
 3984 0100 0B       		.uleb128 0xb
 3985 0101 49       		.uleb128 0x49
 3986 0102 13       		.uleb128 0x13
 3987 0103 02       		.uleb128 0x2
 3988 0104 06       		.uleb128 0x6
 3989 0105 00       		.byte	0x0
 3990 0106 00       		.byte	0x0
 3991 0107 16       		.uleb128 0x16
 3992 0108 05       		.uleb128 0x5
 3993 0109 00       		.byte	0x0
 3994 010a 03       		.uleb128 0x3
 3995 010b 0E       		.uleb128 0xe
 3996 010c 3A       		.uleb128 0x3a
 3997 010d 0B       		.uleb128 0xb
 3998 010e 3B       		.uleb128 0x3b
 3999 010f 0B       		.uleb128 0xb
 4000 0110 49       		.uleb128 0x49
 4001 0111 13       		.uleb128 0x13
 4002 0112 02       		.uleb128 0x2
 4003 0113 06       		.uleb128 0x6
 4004 0114 00       		.byte	0x0
ARM GAS  C:\Users\z80\AppData\Local\Temp\ccswBJvz.s 			page 72


 4005 0115 00       		.byte	0x0
 4006 0116 17       		.uleb128 0x17
 4007 0117 0B       		.uleb128 0xb
 4008 0118 01       		.byte	0x1
 4009 0119 11       		.uleb128 0x11
 4010 011a 01       		.uleb128 0x1
 4011 011b 12       		.uleb128 0x12
 4012 011c 01       		.uleb128 0x1
 4013 011d 01       		.uleb128 0x1
 4014 011e 13       		.uleb128 0x13
 4015 011f 00       		.byte	0x0
 4016 0120 00       		.byte	0x0
 4017 0121 18       		.uleb128 0x18
 4018 0122 34       		.uleb128 0x34
 4019 0123 00       		.byte	0x0
 4020 0124 03       		.uleb128 0x3
 4021 0125 08       		.uleb128 0x8
 4022 0126 3A       		.uleb128 0x3a
 4023 0127 0B       		.uleb128 0xb
 4024 0128 3B       		.uleb128 0x3b
 4025 0129 0B       		.uleb128 0xb
 4026 012a 49       		.uleb128 0x49
 4027 012b 13       		.uleb128 0x13
 4028 012c 02       		.uleb128 0x2
 4029 012d 06       		.uleb128 0x6
 4030 012e 00       		.byte	0x0
 4031 012f 00       		.byte	0x0
 4032 0130 19       		.uleb128 0x19
 4033 0131 0B       		.uleb128 0xb
 4034 0132 01       		.byte	0x1
 4035 0133 11       		.uleb128 0x11
 4036 0134 01       		.uleb128 0x1
 4037 0135 12       		.uleb128 0x12
 4038 0136 01       		.uleb128 0x1
 4039 0137 00       		.byte	0x0
 4040 0138 00       		.byte	0x0
 4041 0139 1A       		.uleb128 0x1a
 4042 013a 2E       		.uleb128 0x2e
 4043 013b 01       		.byte	0x1
 4044 013c 3F       		.uleb128 0x3f
 4045 013d 0C       		.uleb128 0xc
 4046 013e 03       		.uleb128 0x3
 4047 013f 0E       		.uleb128 0xe
 4048 0140 3A       		.uleb128 0x3a
 4049 0141 0B       		.uleb128 0xb
 4050 0142 3B       		.uleb128 0x3b
 4051 0143 0B       		.uleb128 0xb
 4052 0144 27       		.uleb128 0x27
 4053 0145 0C       		.uleb128 0xc
 4054 0146 49       		.uleb128 0x49
 4055 0147 13       		.uleb128 0x13
 4056 0148 11       		.uleb128 0x11
 4057 0149 01       		.uleb128 0x1
 4058 014a 12       		.uleb128 0x12
 4059 014b 01       		.uleb128 0x1
 4060 014c 40       		.uleb128 0x40
 4061 014d 06       		.uleb128 0x6
ARM GAS  C:\Users\z80\AppData\Local\Temp\ccswBJvz.s 			page 73


 4062 014e 01       		.uleb128 0x1
 4063 014f 13       		.uleb128 0x13
 4064 0150 00       		.byte	0x0
 4065 0151 00       		.byte	0x0
 4066 0152 1B       		.uleb128 0x1b
 4067 0153 34       		.uleb128 0x34
 4068 0154 00       		.byte	0x0
 4069 0155 03       		.uleb128 0x3
 4070 0156 08       		.uleb128 0x8
 4071 0157 3A       		.uleb128 0x3a
 4072 0158 0B       		.uleb128 0xb
 4073 0159 3B       		.uleb128 0x3b
 4074 015a 0B       		.uleb128 0xb
 4075 015b 49       		.uleb128 0x49
 4076 015c 13       		.uleb128 0x13
 4077 015d 02       		.uleb128 0x2
 4078 015e 0A       		.uleb128 0xa
 4079 015f 00       		.byte	0x0
 4080 0160 00       		.byte	0x0
 4081 0161 1C       		.uleb128 0x1c
 4082 0162 0B       		.uleb128 0xb
 4083 0163 01       		.byte	0x1
 4084 0164 55       		.uleb128 0x55
 4085 0165 06       		.uleb128 0x6
 4086 0166 01       		.uleb128 0x1
 4087 0167 13       		.uleb128 0x13
 4088 0168 00       		.byte	0x0
 4089 0169 00       		.byte	0x0
 4090 016a 1D       		.uleb128 0x1d
 4091 016b 2E       		.uleb128 0x2e
 4092 016c 01       		.byte	0x1
 4093 016d 3F       		.uleb128 0x3f
 4094 016e 0C       		.uleb128 0xc
 4095 016f 03       		.uleb128 0x3
 4096 0170 0E       		.uleb128 0xe
 4097 0171 3A       		.uleb128 0x3a
 4098 0172 0B       		.uleb128 0xb
 4099 0173 3B       		.uleb128 0x3b
 4100 0174 05       		.uleb128 0x5
 4101 0175 27       		.uleb128 0x27
 4102 0176 0C       		.uleb128 0xc
 4103 0177 11       		.uleb128 0x11
 4104 0178 01       		.uleb128 0x1
 4105 0179 12       		.uleb128 0x12
 4106 017a 01       		.uleb128 0x1
 4107 017b 40       		.uleb128 0x40
 4108 017c 06       		.uleb128 0x6
 4109 017d 01       		.uleb128 0x1
 4110 017e 13       		.uleb128 0x13
 4111 017f 00       		.byte	0x0
 4112 0180 00       		.byte	0x0
 4113 0181 1E       		.uleb128 0x1e
 4114 0182 05       		.uleb128 0x5
 4115 0183 00       		.byte	0x0
 4116 0184 03       		.uleb128 0x3
 4117 0185 0E       		.uleb128 0xe
 4118 0186 3A       		.uleb128 0x3a
ARM GAS  C:\Users\z80\AppData\Local\Temp\ccswBJvz.s 			page 74


 4119 0187 0B       		.uleb128 0xb
 4120 0188 3B       		.uleb128 0x3b
 4121 0189 05       		.uleb128 0x5
 4122 018a 49       		.uleb128 0x49
 4123 018b 13       		.uleb128 0x13
 4124 018c 02       		.uleb128 0x2
 4125 018d 06       		.uleb128 0x6
 4126 018e 00       		.byte	0x0
 4127 018f 00       		.byte	0x0
 4128 0190 1F       		.uleb128 0x1f
 4129 0191 34       		.uleb128 0x34
 4130 0192 00       		.byte	0x0
 4131 0193 03       		.uleb128 0x3
 4132 0194 08       		.uleb128 0x8
 4133 0195 3A       		.uleb128 0x3a
 4134 0196 0B       		.uleb128 0xb
 4135 0197 3B       		.uleb128 0x3b
 4136 0198 05       		.uleb128 0x5
 4137 0199 49       		.uleb128 0x49
 4138 019a 13       		.uleb128 0x13
 4139 019b 02       		.uleb128 0x2
 4140 019c 06       		.uleb128 0x6
 4141 019d 00       		.byte	0x0
 4142 019e 00       		.byte	0x0
 4143 019f 20       		.uleb128 0x20
 4144 01a0 2E       		.uleb128 0x2e
 4145 01a1 01       		.byte	0x1
 4146 01a2 3F       		.uleb128 0x3f
 4147 01a3 0C       		.uleb128 0xc
 4148 01a4 03       		.uleb128 0x3
 4149 01a5 0E       		.uleb128 0xe
 4150 01a6 3A       		.uleb128 0x3a
 4151 01a7 0B       		.uleb128 0xb
 4152 01a8 3B       		.uleb128 0x3b
 4153 01a9 05       		.uleb128 0x5
 4154 01aa 27       		.uleb128 0x27
 4155 01ab 0C       		.uleb128 0xc
 4156 01ac 49       		.uleb128 0x49
 4157 01ad 13       		.uleb128 0x13
 4158 01ae 11       		.uleb128 0x11
 4159 01af 01       		.uleb128 0x1
 4160 01b0 12       		.uleb128 0x12
 4161 01b1 01       		.uleb128 0x1
 4162 01b2 40       		.uleb128 0x40
 4163 01b3 06       		.uleb128 0x6
 4164 01b4 01       		.uleb128 0x1
 4165 01b5 13       		.uleb128 0x13
 4166 01b6 00       		.byte	0x0
 4167 01b7 00       		.byte	0x0
 4168 01b8 21       		.uleb128 0x21
 4169 01b9 34       		.uleb128 0x34
 4170 01ba 00       		.byte	0x0
 4171 01bb 03       		.uleb128 0x3
 4172 01bc 0E       		.uleb128 0xe
 4173 01bd 3A       		.uleb128 0x3a
 4174 01be 0B       		.uleb128 0xb
 4175 01bf 3B       		.uleb128 0x3b
ARM GAS  C:\Users\z80\AppData\Local\Temp\ccswBJvz.s 			page 75


 4176 01c0 0B       		.uleb128 0xb
 4177 01c1 49       		.uleb128 0x49
 4178 01c2 13       		.uleb128 0x13
 4179 01c3 3F       		.uleb128 0x3f
 4180 01c4 0C       		.uleb128 0xc
 4181 01c5 3C       		.uleb128 0x3c
 4182 01c6 0C       		.uleb128 0xc
 4183 01c7 00       		.byte	0x0
 4184 01c8 00       		.byte	0x0
 4185 01c9 00       		.byte	0x0
 4186              		.section	.debug_pubnames,"",%progbits
 4187 0000 47010000 		.4byte	0x147
 4188 0004 0200     		.2byte	0x2
 4189 0006 00000000 		.4byte	.Ldebug_info0
 4190 000a 720C0000 		.4byte	0xc72
 4191 000e F2040000 		.4byte	0x4f2
 4192 0012 63684576 		.ascii	"chEvtRegisterMask\000"
 4192      74526567 
 4192      69737465 
 4192      724D6173 
 4192      6B00
 4193 0024 75050000 		.4byte	0x575
 4194 0028 63684576 		.ascii	"chEvtUnregister\000"
 4194      74556E72 
 4194      65676973 
 4194      74657200 
 4195 0038 F0050000 		.4byte	0x5f0
 4196 003c 63684576 		.ascii	"chEvtClearFlags\000"
 4196      74436C65 
 4196      6172466C 
 4196      61677300 
 4197 004c 63060000 		.4byte	0x663
 4198 0050 63684576 		.ascii	"chEvtAddFlags\000"
 4198      74416464 
 4198      466C6167 
 4198      7300
 4199 005e C2060000 		.4byte	0x6c2
 4200 0062 63684576 		.ascii	"chEvtSignalFlagsI\000"
 4200      74536967 
 4200      6E616C46 
 4200      6C616773 
 4200      4900
 4201 0074 F9060000 		.4byte	0x6f9
 4202 0078 63684576 		.ascii	"chEvtSignalFlags\000"
 4202      74536967 
 4202      6E616C46 
 4202      6C616773 
 4202      00
 4203 0089 66070000 		.4byte	0x766
 4204 008d 63684576 		.ascii	"chEvtBroadcastFlagsI\000"
 4204      7442726F 
 4204      61646361 
 4204      7374466C 
 4204      61677349 
 4205 00a2 AD070000 		.4byte	0x7ad
 4206 00a6 63684576 		.ascii	"chEvtBroadcastFlags\000"
 4206      7442726F 
ARM GAS  C:\Users\z80\AppData\Local\Temp\ccswBJvz.s 			page 76


 4206      61646361 
 4206      7374466C 
 4206      61677300 
 4207 00ba 1B080000 		.4byte	0x81b
 4208 00be 63684576 		.ascii	"chEvtDispatch\000"
 4208      74446973 
 4208      70617463 
 4208      6800
 4209 00cc 71080000 		.4byte	0x871
 4210 00d0 63684576 		.ascii	"chEvtWaitOne\000"
 4210      74576169 
 4210      744F6E65 
 4210      00
 4211 00dd F6080000 		.4byte	0x8f6
 4212 00e1 63684576 		.ascii	"chEvtWaitAny\000"
 4212      74576169 
 4212      74416E79 
 4212      00
 4213 00ee 7B090000 		.4byte	0x97b
 4214 00f2 63684576 		.ascii	"chEvtWaitAll\000"
 4214      74576169 
 4214      74416C6C 
 4214      00
 4215 00ff F2090000 		.4byte	0x9f2
 4216 0103 63684576 		.ascii	"chEvtWaitOneTimeout\000"
 4216      74576169 
 4216      744F6E65 
 4216      54696D65 
 4216      6F757400 
 4217 0117 C30A0000 		.4byte	0xac3
 4218 011b 63684576 		.ascii	"chEvtWaitAnyTimeout\000"
 4218      74576169 
 4218      74416E79 
 4218      54696D65 
 4218      6F757400 
 4219 012f 940B0000 		.4byte	0xb94
 4220 0133 63684576 		.ascii	"chEvtWaitAllTimeout\000"
 4220      74576169 
 4220      74416C6C 
 4220      54696D65 
 4220      6F757400 
 4221 0147 00000000 		.4byte	0x0
 4222              		.section	.debug_pubtypes,"",%progbits
 4223 0000 91010000 		.4byte	0x191
 4224 0004 0200     		.2byte	0x2
 4225 0006 00000000 		.4byte	.Ldebug_info0
 4226 000a 720C0000 		.4byte	0xc72
 4227 000e 3E000000 		.4byte	0x3e
 4228 0012 75696E74 		.ascii	"uint8_t\000"
 4228      385F7400 
 4229 001a 5E000000 		.4byte	0x5e
 4230 001e 696E7433 		.ascii	"int32_t\000"
 4230      325F7400 
 4231 0026 70000000 		.4byte	0x70
 4232 002a 75696E74 		.ascii	"uint32_t\000"
 4232      33325F74 
 4232      00
ARM GAS  C:\Users\z80\AppData\Local\Temp\ccswBJvz.s 			page 77


 4233 0033 89000000 		.4byte	0x89
 4234 0037 75696E74 		.ascii	"uint64_t\000"
 4234      36345F74 
 4234      00
 4235 0040 9B000000 		.4byte	0x9b
 4236 0044 746D6F64 		.ascii	"tmode_t\000"
 4236      655F7400 
 4237 004c A6000000 		.4byte	0xa6
 4238 0050 74737461 		.ascii	"tstate_t\000"
 4238      74655F74 
 4238      00
 4239 0059 B1000000 		.4byte	0xb1
 4240 005d 74726566 		.ascii	"trefs_t\000"
 4240      735F7400 
 4241 0065 BC000000 		.4byte	0xbc
 4242 0069 74707269 		.ascii	"tprio_t\000"
 4242      6F5F7400 
 4243 0071 C7000000 		.4byte	0xc7
 4244 0075 6D73675F 		.ascii	"msg_t\000"
 4244      7400
 4245 007b D2000000 		.4byte	0xd2
 4246 007f 6576656E 		.ascii	"eventid_t\000"
 4246      7469645F 
 4246      7400
 4247 0089 DD000000 		.4byte	0xdd
 4248 008d 6576656E 		.ascii	"eventmask_t\000"
 4248      746D6173 
 4248      6B5F7400 
 4249 0099 E8000000 		.4byte	0xe8
 4250 009d 73797374 		.ascii	"systime_t\000"
 4250      696D655F 
 4250      7400
 4251 00a7 F3000000 		.4byte	0xf3
 4252 00ab 636E745F 		.ascii	"cnt_t\000"
 4252      7400
 4253 00b1 FE000000 		.4byte	0xfe
 4254 00b5 54687265 		.ascii	"Thread\000"
 4254      616400
 4255 00bc 59020000 		.4byte	0x259
 4256 00c0 54687265 		.ascii	"ThreadsQueue\000"
 4256      61647351 
 4256      75657565 
 4256      00
 4257 00cd 7B020000 		.4byte	0x27b
 4258 00d1 54687265 		.ascii	"ThreadsList\000"
 4258      6164734C 
 4258      69737400 
 4259 00dd 86020000 		.4byte	0x286
 4260 00e1 72656761 		.ascii	"regarm_t\000"
 4260      726D5F74 
 4260      00
 4261 00ea 93020000 		.4byte	0x293
 4262 00ee 73746B61 		.ascii	"stkalign_t\000"
 4262      6C69676E 
 4262      5F7400
 4263 00f9 9E020000 		.4byte	0x29e
 4264 00fd 696E7463 		.ascii	"intctx\000"
ARM GAS  C:\Users\z80\AppData\Local\Temp\ccswBJvz.s 			page 78


 4264      747800
 4265 0104 2B030000 		.4byte	0x32b
 4266 0108 636F6E74 		.ascii	"context\000"
 4266      65787400 
 4267 0110 C1030000 		.4byte	0x3c1
 4268 0114 52656164 		.ascii	"ReadyList\000"
 4268      794C6973 
 4268      7400
 4269 011e CC030000 		.4byte	0x3cc
 4270 0122 4D757465 		.ascii	"Mutex\000"
 4270      7800
 4271 0128 09040000 		.4byte	0x409
 4272 012c 4D757465 		.ascii	"Mutex\000"
 4272      7800
 4273 0132 14040000 		.4byte	0x414
 4274 0136 4576656E 		.ascii	"EventListener\000"
 4274      744C6973 
 4274      74656E65 
 4274      7200
 4275 0144 1F040000 		.4byte	0x41f
 4276 0148 4576656E 		.ascii	"EventListener\000"
 4276      744C6973 
 4276      74656E65 
 4276      7200
 4277 0156 5C040000 		.4byte	0x45c
 4278 015a 4576656E 		.ascii	"EventSource\000"
 4278      74536F75 
 4278      72636500 
 4279 0166 77040000 		.4byte	0x477
 4280 016a 4576656E 		.ascii	"EventSource\000"
 4280      74536F75 
 4280      72636500 
 4281 0176 82040000 		.4byte	0x482
 4282 017a 65766861 		.ascii	"evhandler_t\000"
 4282      6E646C65 
 4282      725F7400 
 4283 0186 09010000 		.4byte	0x109
 4284 018a 54687265 		.ascii	"Thread\000"
 4284      616400
 4285 0191 00000000 		.4byte	0x0
 4286              		.section	.debug_aranges,"",%progbits
 4287 0000 8C000000 		.4byte	0x8c
 4288 0004 0200     		.2byte	0x2
 4289 0006 00000000 		.4byte	.Ldebug_info0
 4290 000a 04       		.byte	0x4
 4291 000b 00       		.byte	0x0
 4292 000c 0000     		.2byte	0x0
 4293 000e 0000     		.2byte	0x0
 4294 0010 00000000 		.4byte	.LFB7
 4295 0014 4C000000 		.4byte	.LFE7-.LFB7
 4296 0018 00000000 		.4byte	.LFB8
 4297 001c 50000000 		.4byte	.LFE8-.LFB8
 4298 0020 00000000 		.4byte	.LFB9
 4299 0024 30000000 		.4byte	.LFE9-.LFB9
 4300 0028 00000000 		.4byte	.LFB10
 4301 002c 2C000000 		.4byte	.LFE10-.LFB10
 4302 0030 00000000 		.4byte	.LFB12
ARM GAS  C:\Users\z80\AppData\Local\Temp\ccswBJvz.s 			page 79


 4303 0034 54000000 		.4byte	.LFE12-.LFB12
 4304 0038 00000000 		.4byte	.LFB11
 4305 003c 38000000 		.4byte	.LFE11-.LFB11
 4306 0040 00000000 		.4byte	.LFB14
 4307 0044 34000000 		.4byte	.LFE14-.LFB14
 4308 0048 00000000 		.4byte	.LFB13
 4309 004c 28000000 		.4byte	.LFE13-.LFB13
 4310 0050 00000000 		.4byte	.LFB15
 4311 0054 50000000 		.4byte	.LFE15-.LFB15
 4312 0058 00000000 		.4byte	.LFB16
 4313 005c 44000000 		.4byte	.LFE16-.LFB16
 4314 0060 00000000 		.4byte	.LFB17
 4315 0064 40000000 		.4byte	.LFE17-.LFB17
 4316 0068 00000000 		.4byte	.LFB18
 4317 006c 40000000 		.4byte	.LFE18-.LFB18
 4318 0070 00000000 		.4byte	.LFB19
 4319 0074 68000000 		.4byte	.LFE19-.LFB19
 4320 0078 00000000 		.4byte	.LFB20
 4321 007c 64000000 		.4byte	.LFE20-.LFB20
 4322 0080 00000000 		.4byte	.LFB21
 4323 0084 68000000 		.4byte	.LFE21-.LFB21
 4324 0088 00000000 		.4byte	0x0
 4325 008c 00000000 		.4byte	0x0
 4326              		.section	.debug_ranges,"",%progbits
 4327              	.Ldebug_ranges0:
 4328 0000 02000000 		.4byte	.LBB8
 4329 0004 04000000 		.4byte	.LBE8
 4330 0008 06000000 		.4byte	.LBB9
 4331 000c 0A000000 		.4byte	.LBE9
 4332 0010 00000000 		.4byte	0x0
 4333 0014 00000000 		.4byte	0x0
 4334 0018 00000000 		.4byte	.LFB7
 4335 001c 4C000000 		.4byte	.LFE7
 4336 0020 00000000 		.4byte	.LFB8
 4337 0024 50000000 		.4byte	.LFE8
 4338 0028 00000000 		.4byte	.LFB9
 4339 002c 30000000 		.4byte	.LFE9
 4340 0030 00000000 		.4byte	.LFB10
 4341 0034 2C000000 		.4byte	.LFE10
 4342 0038 00000000 		.4byte	.LFB12
 4343 003c 54000000 		.4byte	.LFE12
 4344 0040 00000000 		.4byte	.LFB11
 4345 0044 38000000 		.4byte	.LFE11
 4346 0048 00000000 		.4byte	.LFB14
 4347 004c 34000000 		.4byte	.LFE14
 4348 0050 00000000 		.4byte	.LFB13
 4349 0054 28000000 		.4byte	.LFE13
 4350 0058 00000000 		.4byte	.LFB15
 4351 005c 50000000 		.4byte	.LFE15
 4352 0060 00000000 		.4byte	.LFB16
 4353 0064 44000000 		.4byte	.LFE16
 4354 0068 00000000 		.4byte	.LFB17
 4355 006c 40000000 		.4byte	.LFE17
 4356 0070 00000000 		.4byte	.LFB18
 4357 0074 40000000 		.4byte	.LFE18
 4358 0078 00000000 		.4byte	.LFB19
 4359 007c 68000000 		.4byte	.LFE19
ARM GAS  C:\Users\z80\AppData\Local\Temp\ccswBJvz.s 			page 80


 4360 0080 00000000 		.4byte	.LFB20
 4361 0084 64000000 		.4byte	.LFE20
 4362 0088 00000000 		.4byte	.LFB21
 4363 008c 68000000 		.4byte	.LFE21
 4364 0090 00000000 		.4byte	0x0
 4365 0094 00000000 		.4byte	0x0
 4366              		.section	.debug_str,"MS",%progbits,1
 4367              	.LASF37:
 4368 0000 705F6D73 		.ascii	"p_msg\000"
 4368      6700
 4369              	.LASF67:
 4370 0006 7264796D 		.ascii	"rdymsg\000"
 4370      736700
 4371              	.LASF11:
 4372 000d 75696E74 		.ascii	"uint64_t\000"
 4372      36345F74 
 4372      00
 4373              	.LASF12:
 4374 0016 6C6F6E67 		.ascii	"long long unsigned int\000"
 4374      206C6F6E 
 4374      6720756E 
 4374      7369676E 
 4374      65642069 
 4375              	.LASF68:
 4376 002d 65786974 		.ascii	"exitcode\000"
 4376      636F6465 
 4376      00
 4377              	.LASF77:
 4378 0036 63684576 		.ascii	"chEvtSignalFlagsI\000"
 4378      74536967 
 4378      6E616C46 
 4378      6C616773 
 4378      4900
 4379              	.LASF88:
 4380 0048 63684576 		.ascii	"chEvtWaitAnyTimeout\000"
 4380      74576169 
 4380      74416E79 
 4380      54696D65 
 4380      6F757400 
 4381              	.LASF25:
 4382 005c 705F7072 		.ascii	"p_prio\000"
 4382      696F00
 4383              	.LASF10:
 4384 0063 6C6F6E67 		.ascii	"long long int\000"
 4384      206C6F6E 
 4384      6720696E 
 4384      7400
 4385              	.LASF1:
 4386 0071 7369676E 		.ascii	"signed char\000"
 4386      65642063 
 4386      68617200 
 4387              	.LASF89:
 4388 007d 63684576 		.ascii	"chEvtWaitAllTimeout\000"
 4388      74576169 
 4388      74416C6C 
 4388      54696D65 
 4388      6F757400 
ARM GAS  C:\Users\z80\AppData\Local\Temp\ccswBJvz.s 			page 81


 4389              	.LASF41:
 4390 0091 705F6D70 		.ascii	"p_mpool\000"
 4390      6F6F6C00 
 4391              	.LASF57:
 4392 0099 6D5F7175 		.ascii	"m_queue\000"
 4392      65756500 
 4393              	.LASF76:
 4394 00a1 63684576 		.ascii	"chEvtAddFlags\000"
 4394      74416464 
 4394      466C6167 
 4394      7300
 4395              	.LASF7:
 4396 00af 6C6F6E67 		.ascii	"long int\000"
 4396      20696E74 
 4396      00
 4397              	.LASF14:
 4398 00b8 74737461 		.ascii	"tstate_t\000"
 4398      74655F74 
 4398      00
 4399              	.LASF85:
 4400 00c1 63684576 		.ascii	"chEvtWaitAll\000"
 4400      74576169 
 4400      74416C6C 
 4400      00
 4401              	.LASF84:
 4402 00ce 63684576 		.ascii	"chEvtWaitAny\000"
 4402      74576169 
 4402      74416E79 
 4402      00
 4403              	.LASF79:
 4404 00db 63684576 		.ascii	"chEvtBroadcastFlagsI\000"
 4404      7442726F 
 4404      61646361 
 4404      7374466C 
 4404      61677349 
 4405              	.LASF27:
 4406 00f0 705F6E65 		.ascii	"p_newer\000"
 4406      77657200 
 4407              	.LASF51:
 4408 00f8 725F6E65 		.ascii	"r_newer\000"
 4408      77657200 
 4409              	.LASF72:
 4410 0100 6D61736B 		.ascii	"mask\000"
 4410      00
 4411              	.LASF44:
 4412 0105 72656761 		.ascii	"regarm_t\000"
 4412      726D5F74 
 4412      00
 4413              	.LASF80:
 4414 010e 63684576 		.ascii	"chEvtBroadcastFlags\000"
 4414      7442726F 
 4414      61646361 
 4414      7374466C 
 4414      61677300 
 4415              	.LASF18:
 4416 0122 6576656E 		.ascii	"eventid_t\000"
 4416      7469645F 
ARM GAS  C:\Users\z80\AppData\Local\Temp\ccswBJvz.s 			page 82


 4416      7400
 4417              	.LASF64:
 4418 012c 4576656E 		.ascii	"EventSource\000"
 4418      74536F75 
 4418      72636500 
 4419              	.LASF66:
 4420 0138 65766861 		.ascii	"evhandler_t\000"
 4420      6E646C65 
 4420      725F7400 
 4421              	.LASF21:
 4422 0144 636E745F 		.ascii	"cnt_t\000"
 4422      7400
 4423              	.LASF30:
 4424 014a 705F7374 		.ascii	"p_stklimit\000"
 4424      6B6C696D 
 4424      697400
 4425              	.LASF0:
 4426 0155 756E7369 		.ascii	"unsigned int\000"
 4426      676E6564 
 4426      20696E74 
 4426      00
 4427              	.LASF9:
 4428 0162 6C6F6E67 		.ascii	"long unsigned int\000"
 4428      20756E73 
 4428      69676E65 
 4428      6420696E 
 4428      7400
 4429              	.LASF47:
 4430 0174 636F6E74 		.ascii	"context\000"
 4430      65787400 
 4431              	.LASF4:
 4432 017c 73686F72 		.ascii	"short unsigned int\000"
 4432      7420756E 
 4432      7369676E 
 4432      65642069 
 4432      6E7400
 4433              	.LASF73:
 4434 018f 63684576 		.ascii	"chEvtRegisterMask\000"
 4434      74526567 
 4434      69737465 
 4434      724D6173 
 4434      6B00
 4435              	.LASF17:
 4436 01a1 6D73675F 		.ascii	"msg_t\000"
 4436      7400
 4437              	.LASF61:
 4438 01a7 656C5F6E 		.ascii	"el_next\000"
 4438      65787400 
 4439              	.LASF74:
 4440 01af 63684576 		.ascii	"chEvtUnregister\000"
 4440      74556E72 
 4440      65676973 
 4440      74657200 
 4441              	.LASF13:
 4442 01bf 746D6F64 		.ascii	"tmode_t\000"
 4442      655F7400 
 4443              	.LASF43:
ARM GAS  C:\Users\z80\AppData\Local\Temp\ccswBJvz.s 			page 83


 4444 01c7 54687265 		.ascii	"ThreadsList\000"
 4444      6164734C 
 4444      69737400 
 4445              	.LASF19:
 4446 01d3 6576656E 		.ascii	"eventmask_t\000"
 4446      746D6173 
 4446      6B5F7400 
 4447              	.LASF56:
 4448 01df 4D757465 		.ascii	"Mutex\000"
 4448      7800
 4449              	.LASF45:
 4450 01e5 73746B61 		.ascii	"stkalign_t\000"
 4450      6C69676E 
 4450      5F7400
 4451              	.LASF92:
 4452 01f0 2E2E2F63 		.ascii	"../chibios_2.4.x/os/kernel/src/chevents.c\000"
 4452      68696269 
 4452      6F735F32 
 4452      2E342E78 
 4452      2F6F732F 
 4453              	.LASF81:
 4454 021a 63684576 		.ascii	"chEvtDispatch\000"
 4454      74446973 
 4454      70617463 
 4454      6800
 4455              	.LASF28:
 4456 0228 705F6F6C 		.ascii	"p_older\000"
 4456      64657200 
 4457              	.LASF50:
 4458 0230 725F6374 		.ascii	"r_ctx\000"
 4458      7800
 4459              	.LASF42:
 4460 0236 54687265 		.ascii	"ThreadsQueue\000"
 4460      61647351 
 4460      75657565 
 4460      00
 4461              	.LASF93:
 4462 0243 433A5C70 		.ascii	"C:\\projects\\voltamper.git\\firmware\\voltamp\000"
 4462      726F6A65 
 4462      6374735C 
 4462      766F6C74 
 4462      616D7065 
 4463              	.LASF87:
 4464 026e 74696D65 		.ascii	"time\000"
 4464      00
 4465              	.LASF78:
 4466 0273 63684576 		.ascii	"chEvtSignalFlags\000"
 4466      74536967 
 4466      6E616C46 
 4466      6C616773 
 4466      00
 4467              	.LASF54:
 4468 0284 725F6375 		.ascii	"r_current\000"
 4468      7272656E 
 4468      7400
 4469              	.LASF52:
 4470 028e 725F6F6C 		.ascii	"r_older\000"
ARM GAS  C:\Users\z80\AppData\Local\Temp\ccswBJvz.s 			page 84


 4470      64657200 
 4471              	.LASF63:
 4472 0296 656C5F6D 		.ascii	"el_mask\000"
 4472      61736B00 
 4473              	.LASF82:
 4474 029e 68616E64 		.ascii	"handlers\000"
 4474      6C657273 
 4474      00
 4475              	.LASF15:
 4476 02a7 74726566 		.ascii	"trefs_t\000"
 4476      735F7400 
 4477              	.LASF24:
 4478 02af 705F7072 		.ascii	"p_prev\000"
 4478      657600
 4479              	.LASF16:
 4480 02b6 74707269 		.ascii	"tprio_t\000"
 4480      6F5F7400 
 4481              	.LASF75:
 4482 02be 63684576 		.ascii	"chEvtClearFlags\000"
 4482      74436C65 
 4482      6172466C 
 4482      61677300 
 4483              	.LASF6:
 4484 02ce 696E7433 		.ascii	"int32_t\000"
 4484      325F7400 
 4485              	.LASF2:
 4486 02d6 756E7369 		.ascii	"unsigned char\000"
 4486      676E6564 
 4486      20636861 
 4486      7200
 4487              	.LASF83:
 4488 02e4 63684576 		.ascii	"chEvtWaitOne\000"
 4488      74576169 
 4488      744F6E65 
 4488      00
 4489              	.LASF62:
 4490 02f1 656C5F6C 		.ascii	"el_listener\000"
 4490      69737465 
 4490      6E657200 
 4491              	.LASF39:
 4492 02fd 705F6D74 		.ascii	"p_mtxlist\000"
 4492      786C6973 
 4492      7400
 4493              	.LASF3:
 4494 0307 73686F72 		.ascii	"short int\000"
 4494      7420696E 
 4494      7400
 4495              	.LASF31:
 4496 0311 705F7374 		.ascii	"p_state\000"
 4496      61746500 
 4497              	.LASF49:
 4498 0319 725F7072 		.ascii	"r_prio\000"
 4498      696F00
 4499              	.LASF70:
 4500 0320 65776D61 		.ascii	"ewmask\000"
 4500      736B00
 4501              	.LASF23:
ARM GAS  C:\Users\z80\AppData\Local\Temp\ccswBJvz.s 			page 85


 4502 0327 705F6E65 		.ascii	"p_next\000"
 4502      787400
 4503              	.LASF32:
 4504 032e 705F666C 		.ascii	"p_flags\000"
 4504      61677300 
 4505              	.LASF22:
 4506 0336 54687265 		.ascii	"Thread\000"
 4506      616400
 4507              	.LASF38:
 4508 033d 705F6570 		.ascii	"p_epending\000"
 4508      656E6469 
 4508      6E6700
 4509              	.LASF8:
 4510 0348 75696E74 		.ascii	"uint32_t\000"
 4510      33325F74 
 4510      00
 4511              	.LASF48:
 4512 0351 725F7175 		.ascii	"r_queue\000"
 4512      65756500 
 4513              	.LASF71:
 4514 0359 63686172 		.ascii	"char\000"
 4514      00
 4515              	.LASF59:
 4516 035e 6D5F6E65 		.ascii	"m_next\000"
 4516      787400
 4517              	.LASF20:
 4518 0365 73797374 		.ascii	"systime_t\000"
 4518      696D655F 
 4518      7400
 4519              	.LASF40:
 4520 036f 705F7265 		.ascii	"p_realprio\000"
 4520      616C7072 
 4520      696F00
 4521              	.LASF34:
 4522 037a 705F7469 		.ascii	"p_time\000"
 4522      6D6500
 4523              	.LASF86:
 4524 0381 63684576 		.ascii	"chEvtWaitOneTimeout\000"
 4524      74576169 
 4524      744F6E65 
 4524      54696D65 
 4524      6F757400 
 4525              	.LASF46:
 4526 0395 696E7463 		.ascii	"intctx\000"
 4526      747800
 4527              	.LASF36:
 4528 039c 705F6D73 		.ascii	"p_msgqueue\000"
 4528      67717565 
 4528      756500
 4529              	.LASF33:
 4530 03a7 705F7265 		.ascii	"p_refs\000"
 4530      667300
 4531              	.LASF55:
 4532 03ae 52656164 		.ascii	"ReadyList\000"
 4532      794C6973 
 4532      7400
 4533              	.LASF90:
ARM GAS  C:\Users\z80\AppData\Local\Temp\ccswBJvz.s 			page 86


 4534 03b8 726C6973 		.ascii	"rlist\000"
 4534      7400
 4535              	.LASF5:
 4536 03be 75696E74 		.ascii	"uint8_t\000"
 4536      385F7400 
 4537              	.LASF60:
 4538 03c6 4576656E 		.ascii	"EventListener\000"
 4538      744C6973 
 4538      74656E65 
 4538      7200
 4539              	.LASF91:
 4540 03d4 474E5520 		.ascii	"GNU C 4.5.0\000"
 4540      4320342E 
 4540      352E3000 
 4541              	.LASF69:
 4542 03e0 77746F62 		.ascii	"wtobjp\000"
 4542      6A7000
 4543              	.LASF29:
 4544 03e7 705F6E61 		.ascii	"p_name\000"
 4544      6D6500
 4545              	.LASF65:
 4546 03ee 65735F6E 		.ascii	"es_next\000"
 4546      65787400 
 4547              	.LASF53:
 4548 03f6 725F7072 		.ascii	"r_preempt\000"
 4548      65656D70 
 4548      7400
 4549              	.LASF58:
 4550 0400 6D5F6F77 		.ascii	"m_owner\000"
 4550      6E657200 
 4551              	.LASF26:
 4552 0408 705F6374 		.ascii	"p_ctx\000"
 4552      7800
 4553              	.LASF35:
 4554 040e 705F7761 		.ascii	"p_waiting\000"
 4554      6974696E 
 4554      6700
 4555              		.ident	"GCC: (GNU) 4.5.0"
ARM GAS  C:\Users\z80\AppData\Local\Temp\ccswBJvz.s 			page 87


DEFINED SYMBOLS
                            *ABS*:00000000 chevents.c
C:\Users\z80\AppData\Local\Temp\ccswBJvz.s:24     .text.chEvtRegisterMask:00000000 $t
C:\Users\z80\AppData\Local\Temp\ccswBJvz.s:30     .text.chEvtRegisterMask:00000000 chEvtRegisterMask
C:\Users\z80\AppData\Local\Temp\ccswBJvz.s:107    .text.chEvtRegisterMask:00000044 $d
C:\Users\z80\AppData\Local\Temp\ccswBJvz.s:113    .text.chEvtUnregister:00000000 $t
C:\Users\z80\AppData\Local\Temp\ccswBJvz.s:119    .text.chEvtUnregister:00000000 chEvtUnregister
C:\Users\z80\AppData\Local\Temp\ccswBJvz.s:206    .text.chEvtUnregister:0000004c $d
C:\Users\z80\AppData\Local\Temp\ccswBJvz.s:211    .text.chEvtClearFlags:00000000 $t
C:\Users\z80\AppData\Local\Temp\ccswBJvz.s:217    .text.chEvtClearFlags:00000000 chEvtClearFlags
C:\Users\z80\AppData\Local\Temp\ccswBJvz.s:273    .text.chEvtAddFlags:00000000 $t
C:\Users\z80\AppData\Local\Temp\ccswBJvz.s:279    .text.chEvtAddFlags:00000000 chEvtAddFlags
C:\Users\z80\AppData\Local\Temp\ccswBJvz.s:335    .text.chEvtSignalFlagsI:00000000 $t
C:\Users\z80\AppData\Local\Temp\ccswBJvz.s:341    .text.chEvtSignalFlagsI:00000000 chEvtSignalFlagsI
C:\Users\z80\AppData\Local\Temp\ccswBJvz.s:418    .text.chEvtSignalFlagsI:00000050 $d
C:\Users\z80\AppData\Local\Temp\ccswBJvz.s:423    .text.chEvtSignalFlags:00000000 $t
C:\Users\z80\AppData\Local\Temp\ccswBJvz.s:429    .text.chEvtSignalFlags:00000000 chEvtSignalFlags
C:\Users\z80\AppData\Local\Temp\ccswBJvz.s:490    .text.chEvtSignalFlags:00000034 $d
C:\Users\z80\AppData\Local\Temp\ccswBJvz.s:495    .text.chEvtBroadcastFlagsI:00000000 $t
C:\Users\z80\AppData\Local\Temp\ccswBJvz.s:501    .text.chEvtBroadcastFlagsI:00000000 chEvtBroadcastFlagsI
C:\Users\z80\AppData\Local\Temp\ccswBJvz.s:555    .text.chEvtBroadcastFlagsI:00000030 $d
C:\Users\z80\AppData\Local\Temp\ccswBJvz.s:560    .text.chEvtBroadcastFlags:00000000 $t
C:\Users\z80\AppData\Local\Temp\ccswBJvz.s:566    .text.chEvtBroadcastFlags:00000000 chEvtBroadcastFlags
C:\Users\z80\AppData\Local\Temp\ccswBJvz.s:618    .text.chEvtDispatch:00000000 $t
C:\Users\z80\AppData\Local\Temp\ccswBJvz.s:624    .text.chEvtDispatch:00000000 chEvtDispatch
C:\Users\z80\AppData\Local\Temp\ccswBJvz.s:700    .text.chEvtDispatch:00000048 $d
C:\Users\z80\AppData\Local\Temp\ccswBJvz.s:706    .text.chEvtWaitOne:00000000 $t
C:\Users\z80\AppData\Local\Temp\ccswBJvz.s:712    .text.chEvtWaitOne:00000000 chEvtWaitOne
C:\Users\z80\AppData\Local\Temp\ccswBJvz.s:786    .text.chEvtWaitOne:00000040 $d
C:\Users\z80\AppData\Local\Temp\ccswBJvz.s:791    .text.chEvtWaitAny:00000000 $t
C:\Users\z80\AppData\Local\Temp\ccswBJvz.s:797    .text.chEvtWaitAny:00000000 chEvtWaitAny
C:\Users\z80\AppData\Local\Temp\ccswBJvz.s:867    .text.chEvtWaitAny:0000003c $d
C:\Users\z80\AppData\Local\Temp\ccswBJvz.s:872    .text.chEvtWaitAll:00000000 $t
C:\Users\z80\AppData\Local\Temp\ccswBJvz.s:878    .text.chEvtWaitAll:00000000 chEvtWaitAll
C:\Users\z80\AppData\Local\Temp\ccswBJvz.s:943    .text.chEvtWaitAll:0000003c $d
C:\Users\z80\AppData\Local\Temp\ccswBJvz.s:948    .text.chEvtWaitOneTimeout:00000000 $t
C:\Users\z80\AppData\Local\Temp\ccswBJvz.s:954    .text.chEvtWaitOneTimeout:00000000 chEvtWaitOneTimeout
C:\Users\z80\AppData\Local\Temp\ccswBJvz.s:1066   .text.chEvtWaitOneTimeout:00000064 $d
C:\Users\z80\AppData\Local\Temp\ccswBJvz.s:1071   .text.chEvtWaitAnyTimeout:00000000 $t
C:\Users\z80\AppData\Local\Temp\ccswBJvz.s:1077   .text.chEvtWaitAnyTimeout:00000000 chEvtWaitAnyTimeout
C:\Users\z80\AppData\Local\Temp\ccswBJvz.s:1185   .text.chEvtWaitAnyTimeout:00000060 $d
C:\Users\z80\AppData\Local\Temp\ccswBJvz.s:1190   .text.chEvtWaitAllTimeout:00000000 $t
C:\Users\z80\AppData\Local\Temp\ccswBJvz.s:1196   .text.chEvtWaitAllTimeout:00000000 chEvtWaitAllTimeout
C:\Users\z80\AppData\Local\Temp\ccswBJvz.s:1303   .text.chEvtWaitAllTimeout:00000064 $d
C:\Users\z80\AppData\Local\Temp\ccswBJvz.s:1308   .rodata.str1.4:00000000 $d
                     .debug_frame:00000010 $d
C:\Users\z80\AppData\Local\Temp\ccswBJvz.s:112    .text.chEvtRegisterMask:0000004c $t
C:\Users\z80\AppData\Local\Temp\ccswBJvz.s:422    .text.chEvtSignalFlagsI:00000054 $t
C:\Users\z80\AppData\Local\Temp\ccswBJvz.s:494    .text.chEvtSignalFlags:00000038 $t
C:\Users\z80\AppData\Local\Temp\ccswBJvz.s:559    .text.chEvtBroadcastFlagsI:00000034 $t
C:\Users\z80\AppData\Local\Temp\ccswBJvz.s:790    .text.chEvtWaitOne:00000044 $t
C:\Users\z80\AppData\Local\Temp\ccswBJvz.s:1070   .text.chEvtWaitOneTimeout:00000068 $t
C:\Users\z80\AppData\Local\Temp\ccswBJvz.s:1189   .text.chEvtWaitAnyTimeout:00000064 $t
C:\Users\z80\AppData\Local\Temp\ccswBJvz.s:1307   .text.chEvtWaitAllTimeout:00000068 $t

UNDEFINED SYMBOLS
chDbgPanic
ARM GAS  C:\Users\z80\AppData\Local\Temp\ccswBJvz.s 			page 88


dbg_check_lock
dbg_check_unlock
rlist
chDbgCheckClassI
chSchReadyI
chSchRescheduleS
chSchGoSleepS
chSchGoSleepTimeoutS
