ARM GAS  /tmp/ccJtFf5m.s 			page 1


   1              		.syntax unified
   2              		.cpu cortex-m3
   3              		.fpu softvfp
   4              		.eabi_attribute 20, 1
   5              		.eabi_attribute 21, 1
   6              		.eabi_attribute 23, 3
   7              		.eabi_attribute 24, 1
   8              		.eabi_attribute 25, 1
   9              		.eabi_attribute 26, 1
  10              		.eabi_attribute 30, 6
  11              		.eabi_attribute 18, 4
  12              		.thumb
  13              		.file	"chevents.c"
  14              		.section	.debug_abbrev,"",%progbits
  15              	.Ldebug_abbrev0:
  16              		.section	.debug_info,"",%progbits
  17              	.Ldebug_info0:
  18              		.section	.debug_line,"",%progbits
  19              	.Ldebug_line0:
  20 0000 3E030000 		.text
  20      02006301 
  20      00000201 
  20      FB0E0D00 
  20      01010101 
  21              	.Ltext0:
  22              		.cfi_sections	.debug_frame
  23              		.section	.rodata
  24              		.align	2
  25              	.LC0:
  26 0000 22636845 		.ascii	"\"chEvtRegisterMask\"()\000"
  26      76745265 
  26      67697374 
  26      65724D61 
  26      736B2228 
  27              		.section	.text.chEvtRegisterMask,"ax",%progbits
  28              		.align	2
  29              		.p2align 4,,15
  30              		.global	chEvtRegisterMask
  31              		.thumb
  32              		.thumb_func
  33              		.type	chEvtRegisterMask, %function
  34              	chEvtRegisterMask:
  35              	.LFB7:
  36              		.file 1 "../chibios_2.4.x/os/kernel/src/chevents.c"
  37              		.loc 1 82 0
  38              		.cfi_startproc
  39              		@ args = 0, pretend = 0, frame = 16
  40              		@ frame_needed = 0, uses_anonymous_args = 0
  41 0000 00B5     		push	{lr}
  42              	.LCFI0:
  43              		.cfi_def_cfa_offset 4
  44 0002 85B0     		sub	sp, sp, #20
  45              	.LCFI1:
  46              		.cfi_def_cfa_offset 24
  47 0004 0390     		str	r0, [sp, #12]
  48 0006 0291     		str	r1, [sp, #8]
  49 0008 0192     		str	r2, [sp, #4]
ARM GAS  /tmp/ccJtFf5m.s 			page 2


  50              		.loc 1 84 0
  51 000a 039B     		ldr	r3, [sp, #12]
  52 000c 002B     		cmp	r3, #0
  53 000e 02D0     		beq	.L2
  54              		.cfi_offset 14, -4
  55              		.loc 1 84 0 is_stmt 0 discriminator 2
  56 0010 029B     		ldr	r3, [sp, #8]
  57 0012 002B     		cmp	r3, #0
  58 0014 02D1     		bne	.L3
  59              	.L2:
  60              		.loc 1 84 0 discriminator 1
  61 0016 0F48     		ldr	r0, .L4
  62 0018 FFF7FEFF 		bl	chDbgPanic
  63              	.L3:
  64              	.LBB2:
  65              		.loc 1 86 0 is_stmt 1
  66 001c 4FF02003 		mov	r3, #32
  67              	@ 86 "../chibios_2.4.x/os/kernel/src/chevents.c" 1
  68 0020 83F31188 		msr     BASEPRI, r3
  69              	@ 0 "" 2
  70              		.thumb
  71              	.LBE2:
  72 0024 FFF7FEFF 		bl	dbg_check_lock
  73              		.loc 1 87 0
  74 0028 039B     		ldr	r3, [sp, #12]
  75 002a 1A68     		ldr	r2, [r3, #0]
  76 002c 029B     		ldr	r3, [sp, #8]
  77 002e 1A60     		str	r2, [r3, #0]
  78              		.loc 1 88 0
  79 0030 039B     		ldr	r3, [sp, #12]
  80 0032 029A     		ldr	r2, [sp, #8]
  81 0034 1A60     		str	r2, [r3, #0]
  82              		.loc 1 89 0
  83 0036 084B     		ldr	r3, .L4+4
  84 0038 DA69     		ldr	r2, [r3, #28]
  85 003a 029B     		ldr	r3, [sp, #8]
  86 003c 5A60     		str	r2, [r3, #4]
  87              		.loc 1 90 0
  88 003e 029B     		ldr	r3, [sp, #8]
  89 0040 019A     		ldr	r2, [sp, #4]
  90 0042 9A60     		str	r2, [r3, #8]
  91              		.loc 1 91 0
  92 0044 FFF7FEFF 		bl	dbg_check_unlock
  93              	.LBB3:
  94 0048 4FF00003 		mov	r3, #0
  95              	@ 91 "../chibios_2.4.x/os/kernel/src/chevents.c" 1
  96 004c 83F31188 		msr     BASEPRI, r3
  97              	@ 0 "" 2
  98              		.thumb
  99              	.LBE3:
 100              		.loc 1 92 0
 101 0050 05B0     		add	sp, sp, #20
 102 0052 00BD     		pop	{pc}
 103              	.L5:
 104              		.align	2
 105              	.L4:
 106 0054 00000000 		.word	.LC0
ARM GAS  /tmp/ccJtFf5m.s 			page 3


 107 0058 00000000 		.word	rlist
 108              		.cfi_endproc
 109              	.LFE7:
 110              		.size	chEvtRegisterMask, .-chEvtRegisterMask
 111 005c AFF30080 		.section	.rodata
 112 0016 0000     		.align	2
 113              	.LC1:
 114 0018 22636845 		.ascii	"\"chEvtUnregister\"()\000"
 114      7674556E 
 114      72656769 
 114      73746572 
 114      22282900 
 115              		.section	.text.chEvtUnregister,"ax",%progbits
 116              		.align	2
 117              		.p2align 4,,15
 118              		.global	chEvtUnregister
 119              		.thumb
 120              		.thumb_func
 121              		.type	chEvtUnregister, %function
 122              	chEvtUnregister:
 123              	.LFB8:
 124              		.loc 1 107 0
 125              		.cfi_startproc
 126              		@ args = 0, pretend = 0, frame = 16
 127              		@ frame_needed = 0, uses_anonymous_args = 0
 128 0000 00B5     		push	{lr}
 129              	.LCFI2:
 130              		.cfi_def_cfa_offset 4
 131 0002 85B0     		sub	sp, sp, #20
 132              	.LCFI3:
 133              		.cfi_def_cfa_offset 24
 134 0004 0190     		str	r0, [sp, #4]
 135 0006 0091     		str	r1, [sp, #0]
 136              		.loc 1 110 0
 137 0008 019B     		ldr	r3, [sp, #4]
 138 000a 002B     		cmp	r3, #0
 139 000c 02D0     		beq	.L7
 140              		.cfi_offset 14, -4
 141              		.loc 1 110 0 is_stmt 0 discriminator 2
 142 000e 009B     		ldr	r3, [sp, #0]
 143 0010 002B     		cmp	r3, #0
 144 0012 02D1     		bne	.L8
 145              	.L7:
 146              		.loc 1 110 0 discriminator 1
 147 0014 1248     		ldr	r0, .L13
 148 0016 FFF7FEFF 		bl	chDbgPanic
 149              	.L8:
 150              		.loc 1 112 0 is_stmt 1
 151 001a 019B     		ldr	r3, [sp, #4]
 152 001c 0393     		str	r3, [sp, #12]
 153              	.LBB4:
 154              		.loc 1 113 0
 155 001e 4FF02003 		mov	r3, #32
 156              	@ 113 "../chibios_2.4.x/os/kernel/src/chevents.c" 1
 157 0022 83F31188 		msr     BASEPRI, r3
 158              	@ 0 "" 2
 159              		.thumb
ARM GAS  /tmp/ccJtFf5m.s 			page 4


 160              	.LBE4:
 161 0026 FFF7FEFF 		bl	dbg_check_lock
 162              		.loc 1 114 0
 163 002a 0CE0     		b	.L9
 164              	.L12:
 165              		.loc 1 115 0
 166 002c 039B     		ldr	r3, [sp, #12]
 167 002e 1A68     		ldr	r2, [r3, #0]
 168 0030 009B     		ldr	r3, [sp, #0]
 169 0032 9A42     		cmp	r2, r3
 170 0034 04D1     		bne	.L10
 171              		.loc 1 116 0
 172 0036 009B     		ldr	r3, [sp, #0]
 173 0038 1A68     		ldr	r2, [r3, #0]
 174 003a 039B     		ldr	r3, [sp, #12]
 175 003c 1A60     		str	r2, [r3, #0]
 176              		.loc 1 117 0
 177 003e 07E0     		b	.L11
 178              	.L10:
 179              		.loc 1 119 0
 180 0040 039B     		ldr	r3, [sp, #12]
 181 0042 1B68     		ldr	r3, [r3, #0]
 182 0044 0393     		str	r3, [sp, #12]
 183              	.L9:
 184              		.loc 1 114 0 discriminator 1
 185 0046 039B     		ldr	r3, [sp, #12]
 186 0048 1A68     		ldr	r2, [r3, #0]
 187 004a 019B     		ldr	r3, [sp, #4]
 188 004c 9A42     		cmp	r2, r3
 189 004e EDD1     		bne	.L12
 190              	.L11:
 191              		.loc 1 121 0
 192 0050 FFF7FEFF 		bl	dbg_check_unlock
 193              	.LBB5:
 194 0054 4FF00003 		mov	r3, #0
 195              	@ 121 "../chibios_2.4.x/os/kernel/src/chevents.c" 1
 196 0058 83F31188 		msr     BASEPRI, r3
 197              	@ 0 "" 2
 198              		.thumb
 199              	.LBE5:
 200              		.loc 1 122 0
 201 005c 05B0     		add	sp, sp, #20
 202 005e 00BD     		pop	{pc}
 203              	.L14:
 204              		.align	2
 205              	.L13:
 206 0060 18000000 		.word	.LC1
 207              		.cfi_endproc
 208              	.LFE8:
 209              		.size	chEvtUnregister, .-chEvtUnregister
 210 0064 AFF30080 		.section	.text.chEvtClearFlags,"ax",%progbits
 210      AFF30080 
 210      AFF30080 
 211              		.align	2
 212              		.p2align 4,,15
 213              		.global	chEvtClearFlags
 214              		.thumb
ARM GAS  /tmp/ccJtFf5m.s 			page 5


 215              		.thumb_func
 216              		.type	chEvtClearFlags, %function
 217              	chEvtClearFlags:
 218              	.LFB9:
 219              		.loc 1 132 0
 220              		.cfi_startproc
 221              		@ args = 0, pretend = 0, frame = 16
 222              		@ frame_needed = 0, uses_anonymous_args = 0
 223 0000 00B5     		push	{lr}
 224              	.LCFI4:
 225              		.cfi_def_cfa_offset 4
 226 0002 85B0     		sub	sp, sp, #20
 227              	.LCFI5:
 228              		.cfi_def_cfa_offset 24
 229 0004 0190     		str	r0, [sp, #4]
 230              	.LBB6:
 231              		.loc 1 135 0
 232 0006 4FF02003 		mov	r3, #32
 233              	@ 135 "../chibios_2.4.x/os/kernel/src/chevents.c" 1
 234 000a 83F31188 		msr     BASEPRI, r3
 235              	@ 0 "" 2
 236              		.thumb
 237              	.LBE6:
 238              		.cfi_offset 14, -4
 239 000e FFF7FEFF 		bl	dbg_check_lock
 240              		.loc 1 137 0
 241 0012 0E4B     		ldr	r3, .L16
 242 0014 DB69     		ldr	r3, [r3, #28]
 243 0016 DA6B     		ldr	r2, [r3, #60]
 244 0018 019B     		ldr	r3, [sp, #4]
 245 001a 02EA0303 		and	r3, r2, r3
 246 001e 0393     		str	r3, [sp, #12]
 247              		.loc 1 138 0
 248 0020 0A4B     		ldr	r3, .L16
 249 0022 DB69     		ldr	r3, [r3, #28]
 250 0024 094A     		ldr	r2, .L16
 251 0026 D269     		ldr	r2, [r2, #28]
 252 0028 D16B     		ldr	r1, [r2, #60]
 253 002a 019A     		ldr	r2, [sp, #4]
 254 002c 6FEA0202 		mvn	r2, r2
 255 0030 01EA0202 		and	r2, r1, r2
 256 0034 DA63     		str	r2, [r3, #60]
 257              		.loc 1 140 0
 258 0036 FFF7FEFF 		bl	dbg_check_unlock
 259              	.LBB7:
 260 003a 4FF00003 		mov	r3, #0
 261              	@ 140 "../chibios_2.4.x/os/kernel/src/chevents.c" 1
 262 003e 83F31188 		msr     BASEPRI, r3
 263              	@ 0 "" 2
 264              		.thumb
 265              	.LBE7:
 266              		.loc 1 141 0
 267 0042 039B     		ldr	r3, [sp, #12]
 268              		.loc 1 142 0
 269 0044 1846     		mov	r0, r3
 270 0046 05B0     		add	sp, sp, #20
 271 0048 00BD     		pop	{pc}
ARM GAS  /tmp/ccJtFf5m.s 			page 6


 272              	.L17:
 273 004a 00BF     		.align	2
 274              	.L16:
 275 004c 00000000 		.word	rlist
 276              		.cfi_endproc
 277              	.LFE9:
 278              		.size	chEvtClearFlags, .-chEvtClearFlags
 279              		.section	.text.chEvtAddFlags,"ax",%progbits
 280              		.align	2
 281              		.p2align 4,,15
 282              		.global	chEvtAddFlags
 283              		.thumb
 284              		.thumb_func
 285              		.type	chEvtAddFlags, %function
 286              	chEvtAddFlags:
 287              	.LFB10:
 288              		.loc 1 153 0
 289              		.cfi_startproc
 290              		@ args = 0, pretend = 0, frame = 8
 291              		@ frame_needed = 0, uses_anonymous_args = 0
 292 0000 00B5     		push	{lr}
 293              	.LCFI6:
 294              		.cfi_def_cfa_offset 4
 295 0002 83B0     		sub	sp, sp, #12
 296              	.LCFI7:
 297              		.cfi_def_cfa_offset 16
 298 0004 0190     		str	r0, [sp, #4]
 299              	.LBB8:
 300              		.loc 1 155 0
 301 0006 4FF02003 		mov	r3, #32
 302              	@ 155 "../chibios_2.4.x/os/kernel/src/chevents.c" 1
 303 000a 83F31188 		msr     BASEPRI, r3
 304              	@ 0 "" 2
 305              		.thumb
 306              	.LBE8:
 307              		.cfi_offset 14, -4
 308 000e FFF7FEFF 		bl	dbg_check_lock
 309              		.loc 1 157 0
 310 0012 0A4B     		ldr	r3, .L19
 311 0014 DB69     		ldr	r3, [r3, #28]
 312 0016 094A     		ldr	r2, .L19
 313 0018 D269     		ldr	r2, [r2, #28]
 314 001a D16B     		ldr	r1, [r2, #60]
 315 001c 019A     		ldr	r2, [sp, #4]
 316 001e 41EA0202 		orr	r2, r1, r2
 317 0022 DA63     		str	r2, [r3, #60]
 318 0024 DB6B     		ldr	r3, [r3, #60]
 319 0026 0193     		str	r3, [sp, #4]
 320              		.loc 1 159 0
 321 0028 FFF7FEFF 		bl	dbg_check_unlock
 322              	.LBB9:
 323 002c 4FF00003 		mov	r3, #0
 324              	@ 159 "../chibios_2.4.x/os/kernel/src/chevents.c" 1
 325 0030 83F31188 		msr     BASEPRI, r3
 326              	@ 0 "" 2
 327              		.thumb
 328              	.LBE9:
ARM GAS  /tmp/ccJtFf5m.s 			page 7


 329              		.loc 1 160 0
 330 0034 019B     		ldr	r3, [sp, #4]
 331              		.loc 1 161 0
 332 0036 1846     		mov	r0, r3
 333 0038 03B0     		add	sp, sp, #12
 334 003a 00BD     		pop	{pc}
 335              	.L20:
 336              		.align	2
 337              	.L19:
 338 003c 00000000 		.word	rlist
 339              		.cfi_endproc
 340              	.LFE10:
 341              		.size	chEvtAddFlags, .-chEvtAddFlags
 342              		.section	.rodata
 343              		.align	2
 344              	.LC2:
 345 002c 22636845 		.ascii	"\"chEvtSignal\"()\000"
 345      76745369 
 345      676E616C 
 345      22282900 
 346              		.section	.text.chEvtSignalFlags,"ax",%progbits
 347              		.align	2
 348              		.p2align 4,,15
 349              		.global	chEvtSignalFlags
 350              		.thumb
 351              		.thumb_func
 352              		.type	chEvtSignalFlags, %function
 353              	chEvtSignalFlags:
 354              	.LFB11:
 355              		.loc 1 171 0
 356              		.cfi_startproc
 357              		@ args = 0, pretend = 0, frame = 8
 358              		@ frame_needed = 0, uses_anonymous_args = 0
 359 0000 00B5     		push	{lr}
 360              	.LCFI8:
 361              		.cfi_def_cfa_offset 4
 362 0002 83B0     		sub	sp, sp, #12
 363              	.LCFI9:
 364              		.cfi_def_cfa_offset 16
 365 0004 0190     		str	r0, [sp, #4]
 366 0006 0091     		str	r1, [sp, #0]
 367              		.loc 1 173 0
 368 0008 019B     		ldr	r3, [sp, #4]
 369 000a 002B     		cmp	r3, #0
 370 000c 02D1     		bne	.L22
 371              		.cfi_offset 14, -4
 372              		.loc 1 173 0 is_stmt 0 discriminator 1
 373 000e 0B48     		ldr	r0, .L23
 374 0010 FFF7FEFF 		bl	chDbgPanic
 375              	.L22:
 376              	.LBB10:
 377              		.loc 1 175 0 is_stmt 1
 378 0014 4FF02003 		mov	r3, #32
 379              	@ 175 "../chibios_2.4.x/os/kernel/src/chevents.c" 1
 380 0018 83F31188 		msr     BASEPRI, r3
 381              	@ 0 "" 2
 382              		.thumb
ARM GAS  /tmp/ccJtFf5m.s 			page 8


 383              	.LBE10:
 384 001c FFF7FEFF 		bl	dbg_check_lock
 385              		.loc 1 176 0
 386 0020 0198     		ldr	r0, [sp, #4]
 387 0022 0099     		ldr	r1, [sp, #0]
 388 0024 FFF7FEFF 		bl	chEvtSignalFlagsI
 389              		.loc 1 177 0
 390 0028 FFF7FEFF 		bl	chSchRescheduleS
 391              		.loc 1 178 0
 392 002c FFF7FEFF 		bl	dbg_check_unlock
 393              	.LBB11:
 394 0030 4FF00003 		mov	r3, #0
 395              	@ 178 "../chibios_2.4.x/os/kernel/src/chevents.c" 1
 396 0034 83F31188 		msr     BASEPRI, r3
 397              	@ 0 "" 2
 398              		.thumb
 399              	.LBE11:
 400              		.loc 1 179 0
 401 0038 03B0     		add	sp, sp, #12
 402 003a 00BD     		pop	{pc}
 403              	.L24:
 404              		.align	2
 405              	.L23:
 406 003c 2C000000 		.word	.LC2
 407              		.cfi_endproc
 408              	.LFE11:
 409              		.size	chEvtSignalFlags, .-chEvtSignalFlags
 410              		.section	.rodata
 411              		.align	2
 412              	.LC3:
 413 003c 22636845 		.ascii	"\"chEvtSignalI\"()\000"
 413      76745369 
 413      676E616C 
 413      49222829 
 413      00
 414              		.section	.text.chEvtSignalFlagsI,"ax",%progbits
 415              		.align	2
 416              		.p2align 4,,15
 417              		.global	chEvtSignalFlagsI
 418              		.thumb
 419              		.thumb_func
 420              		.type	chEvtSignalFlagsI, %function
 421              	chEvtSignalFlagsI:
 422              	.LFB12:
 423              		.loc 1 193 0
 424              		.cfi_startproc
 425              		@ args = 0, pretend = 0, frame = 8
 426              		@ frame_needed = 0, uses_anonymous_args = 0
 427 0000 00B5     		push	{lr}
 428              	.LCFI10:
 429              		.cfi_def_cfa_offset 4
 430 0002 83B0     		sub	sp, sp, #12
 431              	.LCFI11:
 432              		.cfi_def_cfa_offset 16
 433 0004 0190     		str	r0, [sp, #4]
 434 0006 0091     		str	r1, [sp, #0]
 435              		.loc 1 195 0
ARM GAS  /tmp/ccJtFf5m.s 			page 9


 436              		.cfi_offset 14, -4
 437 0008 FFF7FEFF 		bl	chDbgCheckClassI
 438              		.loc 1 196 0
 439 000c 019B     		ldr	r3, [sp, #4]
 440 000e 002B     		cmp	r3, #0
 441 0010 02D1     		bne	.L26
 442              		.loc 1 196 0 is_stmt 0 discriminator 1
 443 0012 1648     		ldr	r0, .L30
 444 0014 FFF7FEFF 		bl	chDbgPanic
 445              	.L26:
 446              		.loc 1 198 0 is_stmt 1
 447 0018 019B     		ldr	r3, [sp, #4]
 448 001a DA6B     		ldr	r2, [r3, #60]
 449 001c 009B     		ldr	r3, [sp, #0]
 450 001e 1A43     		orrs	r2, r2, r3
 451 0020 019B     		ldr	r3, [sp, #4]
 452 0022 DA63     		str	r2, [r3, #60]
 453              		.loc 1 200 0
 454 0024 019B     		ldr	r3, [sp, #4]
 455 0026 93F82030 		ldrb	r3, [r3, #32]	@ zero_extendqisi2
 456 002a 082B     		cmp	r3, #8
 457 002c 07D1     		bne	.L27
 458              		.loc 1 201 0 discriminator 1
 459 002e 019B     		ldr	r3, [sp, #4]
 460 0030 DA6B     		ldr	r2, [r3, #60]
 461 0032 019B     		ldr	r3, [sp, #4]
 462 0034 9B6A     		ldr	r3, [r3, #40]
 463 0036 02EA0303 		and	r3, r2, r3
 464              		.loc 1 200 0 discriminator 1
 465 003a 002B     		cmp	r3, #0
 466 003c 0DD1     		bne	.L28
 467              	.L27:
 468              		.loc 1 202 0
 469 003e 019B     		ldr	r3, [sp, #4]
 470 0040 93F82030 		ldrb	r3, [r3, #32]	@ zero_extendqisi2
 471              		.loc 1 201 0
 472 0044 092B     		cmp	r3, #9
 473 0046 0FD1     		bne	.L25
 474              		.loc 1 203 0
 475 0048 019B     		ldr	r3, [sp, #4]
 476 004a DA6B     		ldr	r2, [r3, #60]
 477 004c 019B     		ldr	r3, [sp, #4]
 478 004e 9B6A     		ldr	r3, [r3, #40]
 479 0050 1A40     		ands	r2, r2, r3
 480 0052 019B     		ldr	r3, [sp, #4]
 481 0054 9B6A     		ldr	r3, [r3, #40]
 482              		.loc 1 202 0
 483 0056 9A42     		cmp	r2, r3
 484 0058 06D1     		bne	.L25
 485              	.L28:
 486              		.loc 1 204 0
 487 005a 0198     		ldr	r0, [sp, #4]
 488 005c FFF7FEFF 		bl	chSchReadyI
 489 0060 0346     		mov	r3, r0
 490 0062 4FF00002 		mov	r2, #0
 491 0066 9A62     		str	r2, [r3, #40]
 492              	.L25:
ARM GAS  /tmp/ccJtFf5m.s 			page 10


 493              		.loc 1 205 0
 494 0068 03B0     		add	sp, sp, #12
 495 006a 00BD     		pop	{pc}
 496              	.L31:
 497              		.align	2
 498              	.L30:
 499 006c 3C000000 		.word	.LC3
 500              		.cfi_endproc
 501              	.LFE12:
 502              		.size	chEvtSignalFlagsI, .-chEvtSignalFlagsI
 503              		.section	.text.chEvtBroadcastFlags,"ax",%progbits
 504              		.align	2
 505              		.p2align 4,,15
 506              		.global	chEvtBroadcastFlags
 507              		.thumb
 508              		.thumb_func
 509              		.type	chEvtBroadcastFlags, %function
 510              	chEvtBroadcastFlags:
 511              	.LFB13:
 512              		.loc 1 220 0
 513              		.cfi_startproc
 514              		@ args = 0, pretend = 0, frame = 8
 515              		@ frame_needed = 0, uses_anonymous_args = 0
 516 0000 00B5     		push	{lr}
 517              	.LCFI12:
 518              		.cfi_def_cfa_offset 4
 519 0002 83B0     		sub	sp, sp, #12
 520              	.LCFI13:
 521              		.cfi_def_cfa_offset 16
 522 0004 0190     		str	r0, [sp, #4]
 523 0006 0091     		str	r1, [sp, #0]
 524              	.LBB12:
 525              		.loc 1 222 0
 526 0008 4FF02003 		mov	r3, #32
 527              	@ 222 "../chibios_2.4.x/os/kernel/src/chevents.c" 1
 528 000c 83F31188 		msr     BASEPRI, r3
 529              	@ 0 "" 2
 530              		.thumb
 531              	.LBE12:
 532              		.cfi_offset 14, -4
 533 0010 FFF7FEFF 		bl	dbg_check_lock
 534              		.loc 1 223 0
 535 0014 0198     		ldr	r0, [sp, #4]
 536 0016 0099     		ldr	r1, [sp, #0]
 537 0018 FFF7FEFF 		bl	chEvtBroadcastFlagsI
 538              		.loc 1 224 0
 539 001c FFF7FEFF 		bl	chSchRescheduleS
 540              		.loc 1 225 0
 541 0020 FFF7FEFF 		bl	dbg_check_unlock
 542              	.LBB13:
 543 0024 4FF00003 		mov	r3, #0
 544              	@ 225 "../chibios_2.4.x/os/kernel/src/chevents.c" 1
 545 0028 83F31188 		msr     BASEPRI, r3
 546              	@ 0 "" 2
 547              		.thumb
 548              	.LBE13:
 549              		.loc 1 226 0
ARM GAS  /tmp/ccJtFf5m.s 			page 11


 550 002c 03B0     		add	sp, sp, #12
 551 002e 00BD     		pop	{pc}
 552              		.cfi_endproc
 553              	.LFE13:
 554              		.size	chEvtBroadcastFlags, .-chEvtBroadcastFlags
 555              		.section	.rodata
 556 004d 000000   		.align	2
 557              	.LC4:
 558 0050 22636845 		.ascii	"\"chEvtBroadcastMaskI\"()\000"
 558      76744272 
 558      6F616463 
 558      6173744D 
 558      61736B49 
 559              		.section	.text.chEvtBroadcastFlagsI,"ax",%progbits
 560              		.align	2
 561              		.p2align 4,,15
 562              		.global	chEvtBroadcastFlagsI
 563              		.thumb
 564              		.thumb_func
 565              		.type	chEvtBroadcastFlagsI, %function
 566              	chEvtBroadcastFlagsI:
 567              	.LFB14:
 568              		.loc 1 245 0
 569              		.cfi_startproc
 570              		@ args = 0, pretend = 0, frame = 16
 571              		@ frame_needed = 0, uses_anonymous_args = 0
 572 0000 00B5     		push	{lr}
 573              	.LCFI14:
 574              		.cfi_def_cfa_offset 4
 575 0002 85B0     		sub	sp, sp, #20
 576              	.LCFI15:
 577              		.cfi_def_cfa_offset 24
 578 0004 0190     		str	r0, [sp, #4]
 579 0006 0091     		str	r1, [sp, #0]
 580              		.loc 1 248 0
 581              		.cfi_offset 14, -4
 582 0008 FFF7FEFF 		bl	chDbgCheckClassI
 583              		.loc 1 249 0
 584 000c 019B     		ldr	r3, [sp, #4]
 585 000e 002B     		cmp	r3, #0
 586 0010 02D1     		bne	.L34
 587              		.loc 1 249 0 is_stmt 0 discriminator 1
 588 0012 0D48     		ldr	r0, .L37
 589 0014 FFF7FEFF 		bl	chDbgPanic
 590              	.L34:
 591              		.loc 1 251 0 is_stmt 1
 592 0018 019B     		ldr	r3, [sp, #4]
 593 001a 1B68     		ldr	r3, [r3, #0]
 594 001c 0393     		str	r3, [sp, #12]
 595              		.loc 1 252 0
 596 001e 0DE0     		b	.L35
 597              	.L36:
 598              		.loc 1 253 0
 599 0020 039B     		ldr	r3, [sp, #12]
 600 0022 5A68     		ldr	r2, [r3, #4]
 601 0024 039B     		ldr	r3, [sp, #12]
 602 0026 9968     		ldr	r1, [r3, #8]
ARM GAS  /tmp/ccJtFf5m.s 			page 12


 603 0028 009B     		ldr	r3, [sp, #0]
 604 002a 41EA0303 		orr	r3, r1, r3
 605 002e 1046     		mov	r0, r2
 606 0030 1946     		mov	r1, r3
 607 0032 FFF7FEFF 		bl	chEvtSignalFlagsI
 608              		.loc 1 254 0
 609 0036 039B     		ldr	r3, [sp, #12]
 610 0038 1B68     		ldr	r3, [r3, #0]
 611 003a 0393     		str	r3, [sp, #12]
 612              	.L35:
 613              		.loc 1 252 0 discriminator 1
 614 003c 019B     		ldr	r3, [sp, #4]
 615 003e 039A     		ldr	r2, [sp, #12]
 616 0040 9A42     		cmp	r2, r3
 617 0042 EDD1     		bne	.L36
 618              		.loc 1 256 0
 619 0044 05B0     		add	sp, sp, #20
 620 0046 00BD     		pop	{pc}
 621              	.L38:
 622              		.align	2
 623              	.L37:
 624 0048 50000000 		.word	.LC4
 625              		.cfi_endproc
 626              	.LFE14:
 627              		.size	chEvtBroadcastFlagsI, .-chEvtBroadcastFlagsI
 628 004c AFF30080 		.section	.rodata
 629              		.align	2
 630              	.LC5:
 631 0068 22636845 		.ascii	"\"chEvtDispatch\"()\000"
 631      76744469 
 631      73706174 
 631      63682228 
 631      2900
 632 007a 0000     		.align	2
 633              	.LC6:
 634 007c 63684576 		.ascii	"chEvtDispatch(), #1\000"
 634      74446973 
 634      70617463 
 634      6828292C 
 634      20233100 
 635              		.section	.text.chEvtDispatch,"ax",%progbits
 636              		.align	2
 637              		.p2align 4,,15
 638              		.global	chEvtDispatch
 639              		.thumb
 640              		.thumb_func
 641              		.type	chEvtDispatch, %function
 642              	chEvtDispatch:
 643              	.LFB15:
 644              		.loc 1 267 0
 645              		.cfi_startproc
 646              		@ args = 0, pretend = 0, frame = 16
 647              		@ frame_needed = 0, uses_anonymous_args = 0
 648 0000 00B5     		push	{lr}
 649              	.LCFI16:
 650              		.cfi_def_cfa_offset 4
 651 0002 85B0     		sub	sp, sp, #20
ARM GAS  /tmp/ccJtFf5m.s 			page 13


 652              	.LCFI17:
 653              		.cfi_def_cfa_offset 24
 654 0004 0190     		str	r0, [sp, #4]
 655 0006 0091     		str	r1, [sp, #0]
 656              		.loc 1 270 0
 657 0008 019B     		ldr	r3, [sp, #4]
 658 000a 002B     		cmp	r3, #0
 659 000c 02D1     		bne	.L40
 660              		.cfi_offset 14, -4
 661              		.loc 1 270 0 is_stmt 0 discriminator 1
 662 000e 1C48     		ldr	r0, .L45
 663 0010 FFF7FEFF 		bl	chDbgPanic
 664              	.L40:
 665              		.loc 1 272 0 is_stmt 1
 666 0014 4FF00003 		mov	r3, #0
 667 0018 0393     		str	r3, [sp, #12]
 668              		.loc 1 273 0
 669 001a 2CE0     		b	.L41
 670              	.L44:
 671              		.loc 1 274 0
 672 001c 4FF00102 		mov	r2, #1
 673 0020 039B     		ldr	r3, [sp, #12]
 674 0022 02FA03F3 		lsl	r3, r2, r3
 675 0026 1A46     		mov	r2, r3
 676 0028 009B     		ldr	r3, [sp, #0]
 677 002a 02EA0303 		and	r3, r2, r3
 678 002e 002B     		cmp	r3, #0
 679 0030 1DD0     		beq	.L42
 680              		.loc 1 275 0
 681 0032 039B     		ldr	r3, [sp, #12]
 682 0034 4FEA8303 		lsl	r3, r3, #2
 683 0038 019A     		ldr	r2, [sp, #4]
 684 003a D318     		adds	r3, r2, r3
 685 003c 1B68     		ldr	r3, [r3, #0]
 686 003e 002B     		cmp	r3, #0
 687 0040 02D1     		bne	.L43
 688              		.loc 1 275 0 is_stmt 0 discriminator 1
 689 0042 1048     		ldr	r0, .L45+4
 690 0044 FFF7FEFF 		bl	chDbgPanic
 691              	.L43:
 692              		.loc 1 278 0 is_stmt 1
 693 0048 4FF00102 		mov	r2, #1
 694 004c 039B     		ldr	r3, [sp, #12]
 695 004e 02FA03F3 		lsl	r3, r2, r3
 696 0052 6FEA0303 		mvn	r3, r3
 697 0056 009A     		ldr	r2, [sp, #0]
 698 0058 02EA0303 		and	r3, r2, r3
 699 005c 0093     		str	r3, [sp, #0]
 700              		.loc 1 279 0
 701 005e 039B     		ldr	r3, [sp, #12]
 702 0060 4FEA8303 		lsl	r3, r3, #2
 703 0064 019A     		ldr	r2, [sp, #4]
 704 0066 D318     		adds	r3, r2, r3
 705 0068 1B68     		ldr	r3, [r3, #0]
 706 006a 0398     		ldr	r0, [sp, #12]
 707 006c 9847     		blx	r3
 708              	.L42:
ARM GAS  /tmp/ccJtFf5m.s 			page 14


 709              		.loc 1 281 0
 710 006e 039B     		ldr	r3, [sp, #12]
 711 0070 03F10103 		add	r3, r3, #1
 712 0074 0393     		str	r3, [sp, #12]
 713              	.L41:
 714              		.loc 1 273 0 discriminator 1
 715 0076 009B     		ldr	r3, [sp, #0]
 716 0078 002B     		cmp	r3, #0
 717 007a CFD1     		bne	.L44
 718              		.loc 1 283 0
 719 007c 05B0     		add	sp, sp, #20
 720 007e 00BD     		pop	{pc}
 721              	.L46:
 722              		.align	2
 723              	.L45:
 724 0080 68000000 		.word	.LC5
 725 0084 7C000000 		.word	.LC6
 726              		.cfi_endproc
 727              	.LFE15:
 728              		.size	chEvtDispatch, .-chEvtDispatch
 729 0088 AFF30080 		.section	.text.chEvtWaitOne,"ax",%progbits
 729      AFF30080 
 730              		.align	2
 731              		.p2align 4,,15
 732              		.global	chEvtWaitOne
 733              		.thumb
 734              		.thumb_func
 735              		.type	chEvtWaitOne, %function
 736              	chEvtWaitOne:
 737              	.LFB16:
 738              		.loc 1 302 0
 739              		.cfi_startproc
 740              		@ args = 0, pretend = 0, frame = 16
 741              		@ frame_needed = 0, uses_anonymous_args = 0
 742 0000 00B5     		push	{lr}
 743              	.LCFI18:
 744              		.cfi_def_cfa_offset 4
 745 0002 85B0     		sub	sp, sp, #20
 746              	.LCFI19:
 747              		.cfi_def_cfa_offset 24
 748 0004 0190     		str	r0, [sp, #4]
 749              		.loc 1 303 0
 750 0006 1C4B     		ldr	r3, .L49
 751 0008 DB69     		ldr	r3, [r3, #28]
 752 000a 0293     		str	r3, [sp, #8]
 753              	.LBB14:
 754              		.loc 1 306 0
 755 000c 4FF02003 		mov	r3, #32
 756              	@ 306 "../chibios_2.4.x/os/kernel/src/chevents.c" 1
 757 0010 83F31188 		msr     BASEPRI, r3
 758              	@ 0 "" 2
 759              		.thumb
 760              	.LBE14:
 761              		.cfi_offset 14, -4
 762 0014 FFF7FEFF 		bl	dbg_check_lock
 763              		.loc 1 308 0
 764 0018 029B     		ldr	r3, [sp, #8]
ARM GAS  /tmp/ccJtFf5m.s 			page 15


 765 001a DA6B     		ldr	r2, [r3, #60]
 766 001c 019B     		ldr	r3, [sp, #4]
 767 001e 02EA0303 		and	r3, r2, r3
 768 0022 0393     		str	r3, [sp, #12]
 769 0024 039B     		ldr	r3, [sp, #12]
 770 0026 002B     		cmp	r3, #0
 771 0028 0CD1     		bne	.L48
 772              		.loc 1 309 0
 773 002a 029B     		ldr	r3, [sp, #8]
 774 002c 019A     		ldr	r2, [sp, #4]
 775 002e 9A62     		str	r2, [r3, #40]
 776              		.loc 1 310 0
 777 0030 4FF00800 		mov	r0, #8
 778 0034 FFF7FEFF 		bl	chSchGoSleepS
 779              		.loc 1 311 0
 780 0038 029B     		ldr	r3, [sp, #8]
 781 003a DA6B     		ldr	r2, [r3, #60]
 782 003c 019B     		ldr	r3, [sp, #4]
 783 003e 02EA0303 		and	r3, r2, r3
 784 0042 0393     		str	r3, [sp, #12]
 785              	.L48:
 786              		.loc 1 313 0
 787 0044 039B     		ldr	r3, [sp, #12]
 788 0046 C3F10003 		rsb	r3, r3, #0
 789 004a 039A     		ldr	r2, [sp, #12]
 790 004c 02EA0303 		and	r3, r2, r3
 791 0050 0393     		str	r3, [sp, #12]
 792              		.loc 1 314 0
 793 0052 029B     		ldr	r3, [sp, #8]
 794 0054 DA6B     		ldr	r2, [r3, #60]
 795 0056 039B     		ldr	r3, [sp, #12]
 796 0058 6FEA0303 		mvn	r3, r3
 797 005c 1A40     		ands	r2, r2, r3
 798 005e 029B     		ldr	r3, [sp, #8]
 799 0060 DA63     		str	r2, [r3, #60]
 800              		.loc 1 316 0
 801 0062 FFF7FEFF 		bl	dbg_check_unlock
 802              	.LBB15:
 803 0066 4FF00003 		mov	r3, #0
 804              	@ 316 "../chibios_2.4.x/os/kernel/src/chevents.c" 1
 805 006a 83F31188 		msr     BASEPRI, r3
 806              	@ 0 "" 2
 807              		.thumb
 808              	.LBE15:
 809              		.loc 1 317 0
 810 006e 039B     		ldr	r3, [sp, #12]
 811              		.loc 1 318 0
 812 0070 1846     		mov	r0, r3
 813 0072 05B0     		add	sp, sp, #20
 814 0074 00BD     		pop	{pc}
 815              	.L50:
 816 0076 00BF     		.align	2
 817              	.L49:
 818 0078 00000000 		.word	rlist
 819              		.cfi_endproc
 820              	.LFE16:
 821              		.size	chEvtWaitOne, .-chEvtWaitOne
ARM GAS  /tmp/ccJtFf5m.s 			page 16


 822 007c AFF30080 		.section	.text.chEvtWaitAny,"ax",%progbits
 823              		.align	2
 824              		.p2align 4,,15
 825              		.global	chEvtWaitAny
 826              		.thumb
 827              		.thumb_func
 828              		.type	chEvtWaitAny, %function
 829              	chEvtWaitAny:
 830              	.LFB17:
 831              		.loc 1 331 0
 832              		.cfi_startproc
 833              		@ args = 0, pretend = 0, frame = 16
 834              		@ frame_needed = 0, uses_anonymous_args = 0
 835 0000 00B5     		push	{lr}
 836              	.LCFI20:
 837              		.cfi_def_cfa_offset 4
 838 0002 85B0     		sub	sp, sp, #20
 839              	.LCFI21:
 840              		.cfi_def_cfa_offset 24
 841 0004 0190     		str	r0, [sp, #4]
 842              		.loc 1 332 0
 843 0006 184B     		ldr	r3, .L53
 844 0008 DB69     		ldr	r3, [r3, #28]
 845 000a 0293     		str	r3, [sp, #8]
 846              	.LBB16:
 847              		.loc 1 335 0
 848 000c 4FF02003 		mov	r3, #32
 849              	@ 335 "../chibios_2.4.x/os/kernel/src/chevents.c" 1
 850 0010 83F31188 		msr     BASEPRI, r3
 851              	@ 0 "" 2
 852              		.thumb
 853              	.LBE16:
 854              		.cfi_offset 14, -4
 855 0014 FFF7FEFF 		bl	dbg_check_lock
 856              		.loc 1 337 0
 857 0018 029B     		ldr	r3, [sp, #8]
 858 001a DA6B     		ldr	r2, [r3, #60]
 859 001c 019B     		ldr	r3, [sp, #4]
 860 001e 02EA0303 		and	r3, r2, r3
 861 0022 0393     		str	r3, [sp, #12]
 862 0024 039B     		ldr	r3, [sp, #12]
 863 0026 002B     		cmp	r3, #0
 864 0028 0CD1     		bne	.L52
 865              		.loc 1 338 0
 866 002a 029B     		ldr	r3, [sp, #8]
 867 002c 019A     		ldr	r2, [sp, #4]
 868 002e 9A62     		str	r2, [r3, #40]
 869              		.loc 1 339 0
 870 0030 4FF00800 		mov	r0, #8
 871 0034 FFF7FEFF 		bl	chSchGoSleepS
 872              		.loc 1 340 0
 873 0038 029B     		ldr	r3, [sp, #8]
 874 003a DA6B     		ldr	r2, [r3, #60]
 875 003c 019B     		ldr	r3, [sp, #4]
 876 003e 02EA0303 		and	r3, r2, r3
 877 0042 0393     		str	r3, [sp, #12]
 878              	.L52:
ARM GAS  /tmp/ccJtFf5m.s 			page 17


 879              		.loc 1 342 0
 880 0044 029B     		ldr	r3, [sp, #8]
 881 0046 DA6B     		ldr	r2, [r3, #60]
 882 0048 039B     		ldr	r3, [sp, #12]
 883 004a 6FEA0303 		mvn	r3, r3
 884 004e 1A40     		ands	r2, r2, r3
 885 0050 029B     		ldr	r3, [sp, #8]
 886 0052 DA63     		str	r2, [r3, #60]
 887              		.loc 1 344 0
 888 0054 FFF7FEFF 		bl	dbg_check_unlock
 889              	.LBB17:
 890 0058 4FF00003 		mov	r3, #0
 891              	@ 344 "../chibios_2.4.x/os/kernel/src/chevents.c" 1
 892 005c 83F31188 		msr     BASEPRI, r3
 893              	@ 0 "" 2
 894              		.thumb
 895              	.LBE17:
 896              		.loc 1 345 0
 897 0060 039B     		ldr	r3, [sp, #12]
 898              		.loc 1 346 0
 899 0062 1846     		mov	r0, r3
 900 0064 05B0     		add	sp, sp, #20
 901 0066 00BD     		pop	{pc}
 902              	.L54:
 903              		.align	2
 904              	.L53:
 905 0068 00000000 		.word	rlist
 906              		.cfi_endproc
 907              	.LFE17:
 908              		.size	chEvtWaitAny, .-chEvtWaitAny
 909 006c AFF30080 		.section	.text.chEvtWaitAll,"ax",%progbits
 910              		.align	2
 911              		.p2align 4,,15
 912              		.global	chEvtWaitAll
 913              		.thumb
 914              		.thumb_func
 915              		.type	chEvtWaitAll, %function
 916              	chEvtWaitAll:
 917              	.LFB18:
 918              		.loc 1 359 0
 919              		.cfi_startproc
 920              		@ args = 0, pretend = 0, frame = 16
 921              		@ frame_needed = 0, uses_anonymous_args = 0
 922 0000 00B5     		push	{lr}
 923              	.LCFI22:
 924              		.cfi_def_cfa_offset 4
 925 0002 85B0     		sub	sp, sp, #20
 926              	.LCFI23:
 927              		.cfi_def_cfa_offset 24
 928 0004 0190     		str	r0, [sp, #4]
 929              		.loc 1 360 0
 930 0006 144B     		ldr	r3, .L57
 931 0008 DB69     		ldr	r3, [r3, #28]
 932 000a 0393     		str	r3, [sp, #12]
 933              	.LBB18:
 934              		.loc 1 362 0
 935 000c 4FF02003 		mov	r3, #32
ARM GAS  /tmp/ccJtFf5m.s 			page 18


 936              	@ 362 "../chibios_2.4.x/os/kernel/src/chevents.c" 1
 937 0010 83F31188 		msr     BASEPRI, r3
 938              	@ 0 "" 2
 939              		.thumb
 940              	.LBE18:
 941              		.cfi_offset 14, -4
 942 0014 FFF7FEFF 		bl	dbg_check_lock
 943              		.loc 1 364 0
 944 0018 039B     		ldr	r3, [sp, #12]
 945 001a DA6B     		ldr	r2, [r3, #60]
 946 001c 019B     		ldr	r3, [sp, #4]
 947 001e 1A40     		ands	r2, r2, r3
 948 0020 019B     		ldr	r3, [sp, #4]
 949 0022 9A42     		cmp	r2, r3
 950 0024 06D0     		beq	.L56
 951              		.loc 1 365 0
 952 0026 039B     		ldr	r3, [sp, #12]
 953 0028 019A     		ldr	r2, [sp, #4]
 954 002a 9A62     		str	r2, [r3, #40]
 955              		.loc 1 366 0
 956 002c 4FF00900 		mov	r0, #9
 957 0030 FFF7FEFF 		bl	chSchGoSleepS
 958              	.L56:
 959              		.loc 1 368 0
 960 0034 039B     		ldr	r3, [sp, #12]
 961 0036 DA6B     		ldr	r2, [r3, #60]
 962 0038 019B     		ldr	r3, [sp, #4]
 963 003a 6FEA0303 		mvn	r3, r3
 964 003e 1A40     		ands	r2, r2, r3
 965 0040 039B     		ldr	r3, [sp, #12]
 966 0042 DA63     		str	r2, [r3, #60]
 967              		.loc 1 370 0
 968 0044 FFF7FEFF 		bl	dbg_check_unlock
 969              	.LBB19:
 970 0048 4FF00003 		mov	r3, #0
 971              	@ 370 "../chibios_2.4.x/os/kernel/src/chevents.c" 1
 972 004c 83F31188 		msr     BASEPRI, r3
 973              	@ 0 "" 2
 974              		.thumb
 975              	.LBE19:
 976              		.loc 1 371 0
 977 0050 019B     		ldr	r3, [sp, #4]
 978              		.loc 1 372 0
 979 0052 1846     		mov	r0, r3
 980 0054 05B0     		add	sp, sp, #20
 981 0056 00BD     		pop	{pc}
 982              	.L58:
 983              		.align	2
 984              	.L57:
 985 0058 00000000 		.word	rlist
 986              		.cfi_endproc
 987              	.LFE18:
 988              		.size	chEvtWaitAll, .-chEvtWaitAll
 989 005c AFF30080 		.section	.text.chEvtWaitOneTimeout,"ax",%progbits
 990              		.align	2
 991              		.p2align 4,,15
 992              		.global	chEvtWaitOneTimeout
ARM GAS  /tmp/ccJtFf5m.s 			page 19


 993              		.thumb
 994              		.thumb_func
 995              		.type	chEvtWaitOneTimeout, %function
 996              	chEvtWaitOneTimeout:
 997              	.LFB19:
 998              		.loc 1 398 0
 999              		.cfi_startproc
 1000              		@ args = 0, pretend = 0, frame = 16
 1001              		@ frame_needed = 0, uses_anonymous_args = 0
 1002 0000 00B5     		push	{lr}
 1003              	.LCFI24:
 1004              		.cfi_def_cfa_offset 4
 1005 0002 85B0     		sub	sp, sp, #20
 1006              	.LCFI25:
 1007              		.cfi_def_cfa_offset 24
 1008 0004 0190     		str	r0, [sp, #4]
 1009 0006 0091     		str	r1, [sp, #0]
 1010              		.loc 1 399 0
 1011 0008 284B     		ldr	r3, .L64
 1012 000a DB69     		ldr	r3, [r3, #28]
 1013 000c 0293     		str	r3, [sp, #8]
 1014              	.LBB20:
 1015              		.loc 1 402 0
 1016 000e 4FF02003 		mov	r3, #32
 1017              	@ 402 "../chibios_2.4.x/os/kernel/src/chevents.c" 1
 1018 0012 83F31188 		msr     BASEPRI, r3
 1019              	@ 0 "" 2
 1020              		.thumb
 1021              	.LBE20:
 1022              		.cfi_offset 14, -4
 1023 0016 FFF7FEFF 		bl	dbg_check_lock
 1024              		.loc 1 404 0
 1025 001a 029B     		ldr	r3, [sp, #8]
 1026 001c DA6B     		ldr	r2, [r3, #60]
 1027 001e 019B     		ldr	r3, [sp, #4]
 1028 0020 02EA0303 		and	r3, r2, r3
 1029 0024 0393     		str	r3, [sp, #12]
 1030 0026 039B     		ldr	r3, [sp, #12]
 1031 0028 002B     		cmp	r3, #0
 1032 002a 25D1     		bne	.L60
 1033              		.loc 1 405 0
 1034 002c 009B     		ldr	r3, [sp, #0]
 1035 002e 002B     		cmp	r3, #0
 1036 0030 08D1     		bne	.L61
 1037              		.loc 1 406 0
 1038 0032 FFF7FEFF 		bl	dbg_check_unlock
 1039              	.LBB21:
 1040 0036 4FF00003 		mov	r3, #0
 1041              	@ 406 "../chibios_2.4.x/os/kernel/src/chevents.c" 1
 1042 003a 83F31188 		msr     BASEPRI, r3
 1043              	@ 0 "" 2
 1044              		.thumb
 1045              	.LBE21:
 1046              		.loc 1 407 0
 1047 003e 4FF00003 		mov	r3, #0
 1048 0042 2FE0     		b	.L62
 1049              	.L61:
ARM GAS  /tmp/ccJtFf5m.s 			page 20


 1050              		.loc 1 409 0
 1051 0044 029B     		ldr	r3, [sp, #8]
 1052 0046 019A     		ldr	r2, [sp, #4]
 1053 0048 9A62     		str	r2, [r3, #40]
 1054              		.loc 1 410 0
 1055 004a 4FF00800 		mov	r0, #8
 1056 004e 0099     		ldr	r1, [sp, #0]
 1057 0050 FFF7FEFF 		bl	chSchGoSleepTimeoutS
 1058 0054 0346     		mov	r3, r0
 1059 0056 002B     		cmp	r3, #0
 1060 0058 08DA     		bge	.L63
 1061              		.loc 1 411 0
 1062 005a FFF7FEFF 		bl	dbg_check_unlock
 1063              	.LBB22:
 1064 005e 4FF00003 		mov	r3, #0
 1065              	@ 411 "../chibios_2.4.x/os/kernel/src/chevents.c" 1
 1066 0062 83F31188 		msr     BASEPRI, r3
 1067              	@ 0 "" 2
 1068              		.thumb
 1069              	.LBE22:
 1070              		.loc 1 412 0
 1071 0066 4FF00003 		mov	r3, #0
 1072 006a 1BE0     		b	.L62
 1073              	.L63:
 1074              		.loc 1 414 0
 1075 006c 029B     		ldr	r3, [sp, #8]
 1076 006e DA6B     		ldr	r2, [r3, #60]
 1077 0070 019B     		ldr	r3, [sp, #4]
 1078 0072 02EA0303 		and	r3, r2, r3
 1079 0076 0393     		str	r3, [sp, #12]
 1080              	.L60:
 1081              		.loc 1 416 0
 1082 0078 039B     		ldr	r3, [sp, #12]
 1083 007a C3F10003 		rsb	r3, r3, #0
 1084 007e 039A     		ldr	r2, [sp, #12]
 1085 0080 02EA0303 		and	r3, r2, r3
 1086 0084 0393     		str	r3, [sp, #12]
 1087              		.loc 1 417 0
 1088 0086 029B     		ldr	r3, [sp, #8]
 1089 0088 DA6B     		ldr	r2, [r3, #60]
 1090 008a 039B     		ldr	r3, [sp, #12]
 1091 008c 6FEA0303 		mvn	r3, r3
 1092 0090 1A40     		ands	r2, r2, r3
 1093 0092 029B     		ldr	r3, [sp, #8]
 1094 0094 DA63     		str	r2, [r3, #60]
 1095              		.loc 1 419 0
 1096 0096 FFF7FEFF 		bl	dbg_check_unlock
 1097              	.LBB23:
 1098 009a 4FF00003 		mov	r3, #0
 1099              	@ 419 "../chibios_2.4.x/os/kernel/src/chevents.c" 1
 1100 009e 83F31188 		msr     BASEPRI, r3
 1101              	@ 0 "" 2
 1102              		.thumb
 1103              	.LBE23:
 1104              		.loc 1 420 0
 1105 00a2 039B     		ldr	r3, [sp, #12]
 1106              	.L62:
ARM GAS  /tmp/ccJtFf5m.s 			page 21


 1107              		.loc 1 421 0
 1108 00a4 1846     		mov	r0, r3
 1109 00a6 05B0     		add	sp, sp, #20
 1110 00a8 00BD     		pop	{pc}
 1111              	.L65:
 1112 00aa 00BF     		.align	2
 1113              	.L64:
 1114 00ac 00000000 		.word	rlist
 1115              		.cfi_endproc
 1116              	.LFE19:
 1117              		.size	chEvtWaitOneTimeout, .-chEvtWaitOneTimeout
 1118              		.section	.text.chEvtWaitAnyTimeout,"ax",%progbits
 1119              		.align	2
 1120              		.p2align 4,,15
 1121              		.global	chEvtWaitAnyTimeout
 1122              		.thumb
 1123              		.thumb_func
 1124              		.type	chEvtWaitAnyTimeout, %function
 1125              	chEvtWaitAnyTimeout:
 1126              	.LFB20:
 1127              		.loc 1 441 0
 1128              		.cfi_startproc
 1129              		@ args = 0, pretend = 0, frame = 16
 1130              		@ frame_needed = 0, uses_anonymous_args = 0
 1131 0000 00B5     		push	{lr}
 1132              	.LCFI26:
 1133              		.cfi_def_cfa_offset 4
 1134 0002 85B0     		sub	sp, sp, #20
 1135              	.LCFI27:
 1136              		.cfi_def_cfa_offset 24
 1137 0004 0190     		str	r0, [sp, #4]
 1138 0006 0091     		str	r1, [sp, #0]
 1139              		.loc 1 442 0
 1140 0008 244B     		ldr	r3, .L71
 1141 000a DB69     		ldr	r3, [r3, #28]
 1142 000c 0293     		str	r3, [sp, #8]
 1143              	.LBB24:
 1144              		.loc 1 445 0
 1145 000e 4FF02003 		mov	r3, #32
 1146              	@ 445 "../chibios_2.4.x/os/kernel/src/chevents.c" 1
 1147 0012 83F31188 		msr     BASEPRI, r3
 1148              	@ 0 "" 2
 1149              		.thumb
 1150              	.LBE24:
 1151              		.cfi_offset 14, -4
 1152 0016 FFF7FEFF 		bl	dbg_check_lock
 1153              		.loc 1 447 0
 1154 001a 029B     		ldr	r3, [sp, #8]
 1155 001c DA6B     		ldr	r2, [r3, #60]
 1156 001e 019B     		ldr	r3, [sp, #4]
 1157 0020 02EA0303 		and	r3, r2, r3
 1158 0024 0393     		str	r3, [sp, #12]
 1159 0026 039B     		ldr	r3, [sp, #12]
 1160 0028 002B     		cmp	r3, #0
 1161 002a 25D1     		bne	.L67
 1162              		.loc 1 448 0
 1163 002c 009B     		ldr	r3, [sp, #0]
ARM GAS  /tmp/ccJtFf5m.s 			page 22


 1164 002e 002B     		cmp	r3, #0
 1165 0030 08D1     		bne	.L68
 1166              		.loc 1 449 0
 1167 0032 FFF7FEFF 		bl	dbg_check_unlock
 1168              	.LBB25:
 1169 0036 4FF00003 		mov	r3, #0
 1170              	@ 449 "../chibios_2.4.x/os/kernel/src/chevents.c" 1
 1171 003a 83F31188 		msr     BASEPRI, r3
 1172              	@ 0 "" 2
 1173              		.thumb
 1174              	.LBE25:
 1175              		.loc 1 450 0
 1176 003e 4FF00003 		mov	r3, #0
 1177 0042 28E0     		b	.L69
 1178              	.L68:
 1179              		.loc 1 452 0
 1180 0044 029B     		ldr	r3, [sp, #8]
 1181 0046 019A     		ldr	r2, [sp, #4]
 1182 0048 9A62     		str	r2, [r3, #40]
 1183              		.loc 1 453 0
 1184 004a 4FF00800 		mov	r0, #8
 1185 004e 0099     		ldr	r1, [sp, #0]
 1186 0050 FFF7FEFF 		bl	chSchGoSleepTimeoutS
 1187 0054 0346     		mov	r3, r0
 1188 0056 002B     		cmp	r3, #0
 1189 0058 08DA     		bge	.L70
 1190              		.loc 1 454 0
 1191 005a FFF7FEFF 		bl	dbg_check_unlock
 1192              	.LBB26:
 1193 005e 4FF00003 		mov	r3, #0
 1194              	@ 454 "../chibios_2.4.x/os/kernel/src/chevents.c" 1
 1195 0062 83F31188 		msr     BASEPRI, r3
 1196              	@ 0 "" 2
 1197              		.thumb
 1198              	.LBE26:
 1199              		.loc 1 455 0
 1200 0066 4FF00003 		mov	r3, #0
 1201 006a 14E0     		b	.L69
 1202              	.L70:
 1203              		.loc 1 457 0
 1204 006c 029B     		ldr	r3, [sp, #8]
 1205 006e DA6B     		ldr	r2, [r3, #60]
 1206 0070 019B     		ldr	r3, [sp, #4]
 1207 0072 02EA0303 		and	r3, r2, r3
 1208 0076 0393     		str	r3, [sp, #12]
 1209              	.L67:
 1210              		.loc 1 459 0
 1211 0078 029B     		ldr	r3, [sp, #8]
 1212 007a DA6B     		ldr	r2, [r3, #60]
 1213 007c 039B     		ldr	r3, [sp, #12]
 1214 007e 6FEA0303 		mvn	r3, r3
 1215 0082 1A40     		ands	r2, r2, r3
 1216 0084 029B     		ldr	r3, [sp, #8]
 1217 0086 DA63     		str	r2, [r3, #60]
 1218              		.loc 1 461 0
 1219 0088 FFF7FEFF 		bl	dbg_check_unlock
 1220              	.LBB27:
ARM GAS  /tmp/ccJtFf5m.s 			page 23


 1221 008c 4FF00003 		mov	r3, #0
 1222              	@ 461 "../chibios_2.4.x/os/kernel/src/chevents.c" 1
 1223 0090 83F31188 		msr     BASEPRI, r3
 1224              	@ 0 "" 2
 1225              		.thumb
 1226              	.LBE27:
 1227              		.loc 1 462 0
 1228 0094 039B     		ldr	r3, [sp, #12]
 1229              	.L69:
 1230              		.loc 1 463 0
 1231 0096 1846     		mov	r0, r3
 1232 0098 05B0     		add	sp, sp, #20
 1233 009a 00BD     		pop	{pc}
 1234              	.L72:
 1235              		.align	2
 1236              	.L71:
 1237 009c 00000000 		.word	rlist
 1238              		.cfi_endproc
 1239              	.LFE20:
 1240              		.size	chEvtWaitAnyTimeout, .-chEvtWaitAnyTimeout
 1241              		.section	.text.chEvtWaitAllTimeout,"ax",%progbits
 1242              		.align	2
 1243              		.p2align 4,,15
 1244              		.global	chEvtWaitAllTimeout
 1245              		.thumb
 1246              		.thumb_func
 1247              		.type	chEvtWaitAllTimeout, %function
 1248              	chEvtWaitAllTimeout:
 1249              	.LFB21:
 1250              		.loc 1 482 0
 1251              		.cfi_startproc
 1252              		@ args = 0, pretend = 0, frame = 16
 1253              		@ frame_needed = 0, uses_anonymous_args = 0
 1254 0000 00B5     		push	{lr}
 1255              	.LCFI28:
 1256              		.cfi_def_cfa_offset 4
 1257 0002 85B0     		sub	sp, sp, #20
 1258              	.LCFI29:
 1259              		.cfi_def_cfa_offset 24
 1260 0004 0190     		str	r0, [sp, #4]
 1261 0006 0091     		str	r1, [sp, #0]
 1262              		.loc 1 483 0
 1263 0008 204B     		ldr	r3, .L77
 1264 000a DB69     		ldr	r3, [r3, #28]
 1265 000c 0393     		str	r3, [sp, #12]
 1266              	.LBB28:
 1267              		.loc 1 485 0
 1268 000e 4FF02003 		mov	r3, #32
 1269              	@ 485 "../chibios_2.4.x/os/kernel/src/chevents.c" 1
 1270 0012 83F31188 		msr     BASEPRI, r3
 1271              	@ 0 "" 2
 1272              		.thumb
 1273              	.LBE28:
 1274              		.cfi_offset 14, -4
 1275 0016 FFF7FEFF 		bl	dbg_check_lock
 1276              		.loc 1 487 0
 1277 001a 039B     		ldr	r3, [sp, #12]
ARM GAS  /tmp/ccJtFf5m.s 			page 24


 1278 001c DA6B     		ldr	r2, [r3, #60]
 1279 001e 019B     		ldr	r3, [sp, #4]
 1280 0020 1A40     		ands	r2, r2, r3
 1281 0022 019B     		ldr	r3, [sp, #4]
 1282 0024 9A42     		cmp	r2, r3
 1283 0026 1FD0     		beq	.L74
 1284              		.loc 1 488 0
 1285 0028 009B     		ldr	r3, [sp, #0]
 1286 002a 002B     		cmp	r3, #0
 1287 002c 08D1     		bne	.L75
 1288              		.loc 1 489 0
 1289 002e FFF7FEFF 		bl	dbg_check_unlock
 1290              	.LBB29:
 1291 0032 4FF00003 		mov	r3, #0
 1292              	@ 489 "../chibios_2.4.x/os/kernel/src/chevents.c" 1
 1293 0036 83F31188 		msr     BASEPRI, r3
 1294              	@ 0 "" 2
 1295              		.thumb
 1296              	.LBE29:
 1297              		.loc 1 490 0
 1298 003a 4FF00003 		mov	r3, #0
 1299 003e 22E0     		b	.L76
 1300              	.L75:
 1301              		.loc 1 492 0
 1302 0040 039B     		ldr	r3, [sp, #12]
 1303 0042 019A     		ldr	r2, [sp, #4]
 1304 0044 9A62     		str	r2, [r3, #40]
 1305              		.loc 1 493 0
 1306 0046 4FF00900 		mov	r0, #9
 1307 004a 0099     		ldr	r1, [sp, #0]
 1308 004c FFF7FEFF 		bl	chSchGoSleepTimeoutS
 1309 0050 0346     		mov	r3, r0
 1310 0052 002B     		cmp	r3, #0
 1311 0054 08DA     		bge	.L74
 1312              		.loc 1 494 0
 1313 0056 FFF7FEFF 		bl	dbg_check_unlock
 1314              	.LBB30:
 1315 005a 4FF00003 		mov	r3, #0
 1316              	@ 494 "../chibios_2.4.x/os/kernel/src/chevents.c" 1
 1317 005e 83F31188 		msr     BASEPRI, r3
 1318              	@ 0 "" 2
 1319              		.thumb
 1320              	.LBE30:
 1321              		.loc 1 495 0
 1322 0062 4FF00003 		mov	r3, #0
 1323 0066 0EE0     		b	.L76
 1324              	.L74:
 1325              		.loc 1 498 0
 1326 0068 039B     		ldr	r3, [sp, #12]
 1327 006a DA6B     		ldr	r2, [r3, #60]
 1328 006c 019B     		ldr	r3, [sp, #4]
 1329 006e 6FEA0303 		mvn	r3, r3
 1330 0072 1A40     		ands	r2, r2, r3
 1331 0074 039B     		ldr	r3, [sp, #12]
 1332 0076 DA63     		str	r2, [r3, #60]
 1333              		.loc 1 500 0
 1334 0078 FFF7FEFF 		bl	dbg_check_unlock
ARM GAS  /tmp/ccJtFf5m.s 			page 25


 1335              	.LBB31:
 1336 007c 4FF00003 		mov	r3, #0
 1337              	@ 500 "../chibios_2.4.x/os/kernel/src/chevents.c" 1
 1338 0080 83F31188 		msr     BASEPRI, r3
 1339              	@ 0 "" 2
 1340              		.thumb
 1341              	.LBE31:
 1342              		.loc 1 501 0
 1343 0084 019B     		ldr	r3, [sp, #4]
 1344              	.L76:
 1345              		.loc 1 502 0
 1346 0086 1846     		mov	r0, r3
 1347 0088 05B0     		add	sp, sp, #20
 1348 008a 00BD     		pop	{pc}
 1349              	.L78:
 1350              		.align	2
 1351              	.L77:
 1352 008c 00000000 		.word	rlist
 1353              		.cfi_endproc
 1354              	.LFE21:
 1355              		.size	chEvtWaitAllTimeout, .-chEvtWaitAllTimeout
 1356              		.text
 1357              	.Letext0:
 1358              		.section	.debug_loc,"",%progbits
 1359              	.Ldebug_loc0:
 1360              	.LLST0:
 1361 0000 00000000 		.4byte	.LFB7
 1362 0004 02000000 		.4byte	.LCFI0
 1363 0008 0200     		.2byte	0x2
 1364 000a 7D       		.byte	0x7d
 1365 000b 00       		.sleb128 0
 1366 000c 02000000 		.4byte	.LCFI0
 1367 0010 04000000 		.4byte	.LCFI1
 1368 0014 0200     		.2byte	0x2
 1369 0016 7D       		.byte	0x7d
 1370 0017 04       		.sleb128 4
 1371 0018 04000000 		.4byte	.LCFI1
 1372 001c 5C000000 		.4byte	.LFE7
 1373 0020 0200     		.2byte	0x2
 1374 0022 7D       		.byte	0x7d
 1375 0023 18       		.sleb128 24
 1376 0024 00000000 		.4byte	0x0
 1377 0028 00000000 		.4byte	0x0
 1378              	.LLST1:
 1379 002c 00000000 		.4byte	.LFB8
 1380 0030 02000000 		.4byte	.LCFI2
 1381 0034 0200     		.2byte	0x2
 1382 0036 7D       		.byte	0x7d
 1383 0037 00       		.sleb128 0
 1384 0038 02000000 		.4byte	.LCFI2
 1385 003c 04000000 		.4byte	.LCFI3
 1386 0040 0200     		.2byte	0x2
 1387 0042 7D       		.byte	0x7d
 1388 0043 04       		.sleb128 4
 1389 0044 04000000 		.4byte	.LCFI3
 1390 0048 64000000 		.4byte	.LFE8
 1391 004c 0200     		.2byte	0x2
ARM GAS  /tmp/ccJtFf5m.s 			page 26


 1392 004e 7D       		.byte	0x7d
 1393 004f 18       		.sleb128 24
 1394 0050 00000000 		.4byte	0x0
 1395 0054 00000000 		.4byte	0x0
 1396              	.LLST2:
 1397 0058 00000000 		.4byte	.LFB9
 1398 005c 02000000 		.4byte	.LCFI4
 1399 0060 0200     		.2byte	0x2
 1400 0062 7D       		.byte	0x7d
 1401 0063 00       		.sleb128 0
 1402 0064 02000000 		.4byte	.LCFI4
 1403 0068 04000000 		.4byte	.LCFI5
 1404 006c 0200     		.2byte	0x2
 1405 006e 7D       		.byte	0x7d
 1406 006f 04       		.sleb128 4
 1407 0070 04000000 		.4byte	.LCFI5
 1408 0074 50000000 		.4byte	.LFE9
 1409 0078 0200     		.2byte	0x2
 1410 007a 7D       		.byte	0x7d
 1411 007b 18       		.sleb128 24
 1412 007c 00000000 		.4byte	0x0
 1413 0080 00000000 		.4byte	0x0
 1414              	.LLST3:
 1415 0084 00000000 		.4byte	.LFB10
 1416 0088 02000000 		.4byte	.LCFI6
 1417 008c 0200     		.2byte	0x2
 1418 008e 7D       		.byte	0x7d
 1419 008f 00       		.sleb128 0
 1420 0090 02000000 		.4byte	.LCFI6
 1421 0094 04000000 		.4byte	.LCFI7
 1422 0098 0200     		.2byte	0x2
 1423 009a 7D       		.byte	0x7d
 1424 009b 04       		.sleb128 4
 1425 009c 04000000 		.4byte	.LCFI7
 1426 00a0 40000000 		.4byte	.LFE10
 1427 00a4 0200     		.2byte	0x2
 1428 00a6 7D       		.byte	0x7d
 1429 00a7 10       		.sleb128 16
 1430 00a8 00000000 		.4byte	0x0
 1431 00ac 00000000 		.4byte	0x0
 1432              	.LLST4:
 1433 00b0 00000000 		.4byte	.LFB11
 1434 00b4 02000000 		.4byte	.LCFI8
 1435 00b8 0200     		.2byte	0x2
 1436 00ba 7D       		.byte	0x7d
 1437 00bb 00       		.sleb128 0
 1438 00bc 02000000 		.4byte	.LCFI8
 1439 00c0 04000000 		.4byte	.LCFI9
 1440 00c4 0200     		.2byte	0x2
 1441 00c6 7D       		.byte	0x7d
 1442 00c7 04       		.sleb128 4
 1443 00c8 04000000 		.4byte	.LCFI9
 1444 00cc 40000000 		.4byte	.LFE11
 1445 00d0 0200     		.2byte	0x2
 1446 00d2 7D       		.byte	0x7d
 1447 00d3 10       		.sleb128 16
 1448 00d4 00000000 		.4byte	0x0
ARM GAS  /tmp/ccJtFf5m.s 			page 27


 1449 00d8 00000000 		.4byte	0x0
 1450              	.LLST5:
 1451 00dc 00000000 		.4byte	.LFB12
 1452 00e0 02000000 		.4byte	.LCFI10
 1453 00e4 0200     		.2byte	0x2
 1454 00e6 7D       		.byte	0x7d
 1455 00e7 00       		.sleb128 0
 1456 00e8 02000000 		.4byte	.LCFI10
 1457 00ec 04000000 		.4byte	.LCFI11
 1458 00f0 0200     		.2byte	0x2
 1459 00f2 7D       		.byte	0x7d
 1460 00f3 04       		.sleb128 4
 1461 00f4 04000000 		.4byte	.LCFI11
 1462 00f8 70000000 		.4byte	.LFE12
 1463 00fc 0200     		.2byte	0x2
 1464 00fe 7D       		.byte	0x7d
 1465 00ff 10       		.sleb128 16
 1466 0100 00000000 		.4byte	0x0
 1467 0104 00000000 		.4byte	0x0
 1468              	.LLST6:
 1469 0108 00000000 		.4byte	.LFB13
 1470 010c 02000000 		.4byte	.LCFI12
 1471 0110 0200     		.2byte	0x2
 1472 0112 7D       		.byte	0x7d
 1473 0113 00       		.sleb128 0
 1474 0114 02000000 		.4byte	.LCFI12
 1475 0118 04000000 		.4byte	.LCFI13
 1476 011c 0200     		.2byte	0x2
 1477 011e 7D       		.byte	0x7d
 1478 011f 04       		.sleb128 4
 1479 0120 04000000 		.4byte	.LCFI13
 1480 0124 30000000 		.4byte	.LFE13
 1481 0128 0200     		.2byte	0x2
 1482 012a 7D       		.byte	0x7d
 1483 012b 10       		.sleb128 16
 1484 012c 00000000 		.4byte	0x0
 1485 0130 00000000 		.4byte	0x0
 1486              	.LLST7:
 1487 0134 00000000 		.4byte	.LFB14
 1488 0138 02000000 		.4byte	.LCFI14
 1489 013c 0200     		.2byte	0x2
 1490 013e 7D       		.byte	0x7d
 1491 013f 00       		.sleb128 0
 1492 0140 02000000 		.4byte	.LCFI14
 1493 0144 04000000 		.4byte	.LCFI15
 1494 0148 0200     		.2byte	0x2
 1495 014a 7D       		.byte	0x7d
 1496 014b 04       		.sleb128 4
 1497 014c 04000000 		.4byte	.LCFI15
 1498 0150 4C000000 		.4byte	.LFE14
 1499 0154 0200     		.2byte	0x2
 1500 0156 7D       		.byte	0x7d
 1501 0157 18       		.sleb128 24
 1502 0158 00000000 		.4byte	0x0
 1503 015c 00000000 		.4byte	0x0
 1504              	.LLST8:
 1505 0160 00000000 		.4byte	.LFB15
ARM GAS  /tmp/ccJtFf5m.s 			page 28


 1506 0164 02000000 		.4byte	.LCFI16
 1507 0168 0200     		.2byte	0x2
 1508 016a 7D       		.byte	0x7d
 1509 016b 00       		.sleb128 0
 1510 016c 02000000 		.4byte	.LCFI16
 1511 0170 04000000 		.4byte	.LCFI17
 1512 0174 0200     		.2byte	0x2
 1513 0176 7D       		.byte	0x7d
 1514 0177 04       		.sleb128 4
 1515 0178 04000000 		.4byte	.LCFI17
 1516 017c 88000000 		.4byte	.LFE15
 1517 0180 0200     		.2byte	0x2
 1518 0182 7D       		.byte	0x7d
 1519 0183 18       		.sleb128 24
 1520 0184 00000000 		.4byte	0x0
 1521 0188 00000000 		.4byte	0x0
 1522              	.LLST9:
 1523 018c 00000000 		.4byte	.LFB16
 1524 0190 02000000 		.4byte	.LCFI18
 1525 0194 0200     		.2byte	0x2
 1526 0196 7D       		.byte	0x7d
 1527 0197 00       		.sleb128 0
 1528 0198 02000000 		.4byte	.LCFI18
 1529 019c 04000000 		.4byte	.LCFI19
 1530 01a0 0200     		.2byte	0x2
 1531 01a2 7D       		.byte	0x7d
 1532 01a3 04       		.sleb128 4
 1533 01a4 04000000 		.4byte	.LCFI19
 1534 01a8 7C000000 		.4byte	.LFE16
 1535 01ac 0200     		.2byte	0x2
 1536 01ae 7D       		.byte	0x7d
 1537 01af 18       		.sleb128 24
 1538 01b0 00000000 		.4byte	0x0
 1539 01b4 00000000 		.4byte	0x0
 1540              	.LLST10:
 1541 01b8 00000000 		.4byte	.LFB17
 1542 01bc 02000000 		.4byte	.LCFI20
 1543 01c0 0200     		.2byte	0x2
 1544 01c2 7D       		.byte	0x7d
 1545 01c3 00       		.sleb128 0
 1546 01c4 02000000 		.4byte	.LCFI20
 1547 01c8 04000000 		.4byte	.LCFI21
 1548 01cc 0200     		.2byte	0x2
 1549 01ce 7D       		.byte	0x7d
 1550 01cf 04       		.sleb128 4
 1551 01d0 04000000 		.4byte	.LCFI21
 1552 01d4 6C000000 		.4byte	.LFE17
 1553 01d8 0200     		.2byte	0x2
 1554 01da 7D       		.byte	0x7d
 1555 01db 18       		.sleb128 24
 1556 01dc 00000000 		.4byte	0x0
 1557 01e0 00000000 		.4byte	0x0
 1558              	.LLST11:
 1559 01e4 00000000 		.4byte	.LFB18
 1560 01e8 02000000 		.4byte	.LCFI22
 1561 01ec 0200     		.2byte	0x2
 1562 01ee 7D       		.byte	0x7d
ARM GAS  /tmp/ccJtFf5m.s 			page 29


 1563 01ef 00       		.sleb128 0
 1564 01f0 02000000 		.4byte	.LCFI22
 1565 01f4 04000000 		.4byte	.LCFI23
 1566 01f8 0200     		.2byte	0x2
 1567 01fa 7D       		.byte	0x7d
 1568 01fb 04       		.sleb128 4
 1569 01fc 04000000 		.4byte	.LCFI23
 1570 0200 5C000000 		.4byte	.LFE18
 1571 0204 0200     		.2byte	0x2
 1572 0206 7D       		.byte	0x7d
 1573 0207 18       		.sleb128 24
 1574 0208 00000000 		.4byte	0x0
 1575 020c 00000000 		.4byte	0x0
 1576              	.LLST12:
 1577 0210 00000000 		.4byte	.LFB19
 1578 0214 02000000 		.4byte	.LCFI24
 1579 0218 0200     		.2byte	0x2
 1580 021a 7D       		.byte	0x7d
 1581 021b 00       		.sleb128 0
 1582 021c 02000000 		.4byte	.LCFI24
 1583 0220 04000000 		.4byte	.LCFI25
 1584 0224 0200     		.2byte	0x2
 1585 0226 7D       		.byte	0x7d
 1586 0227 04       		.sleb128 4
 1587 0228 04000000 		.4byte	.LCFI25
 1588 022c B0000000 		.4byte	.LFE19
 1589 0230 0200     		.2byte	0x2
 1590 0232 7D       		.byte	0x7d
 1591 0233 18       		.sleb128 24
 1592 0234 00000000 		.4byte	0x0
 1593 0238 00000000 		.4byte	0x0
 1594              	.LLST13:
 1595 023c 00000000 		.4byte	.LFB20
 1596 0240 02000000 		.4byte	.LCFI26
 1597 0244 0200     		.2byte	0x2
 1598 0246 7D       		.byte	0x7d
 1599 0247 00       		.sleb128 0
 1600 0248 02000000 		.4byte	.LCFI26
 1601 024c 04000000 		.4byte	.LCFI27
 1602 0250 0200     		.2byte	0x2
 1603 0252 7D       		.byte	0x7d
 1604 0253 04       		.sleb128 4
 1605 0254 04000000 		.4byte	.LCFI27
 1606 0258 A0000000 		.4byte	.LFE20
 1607 025c 0200     		.2byte	0x2
 1608 025e 7D       		.byte	0x7d
 1609 025f 18       		.sleb128 24
 1610 0260 00000000 		.4byte	0x0
 1611 0264 00000000 		.4byte	0x0
 1612              	.LLST14:
 1613 0268 00000000 		.4byte	.LFB21
 1614 026c 02000000 		.4byte	.LCFI28
 1615 0270 0200     		.2byte	0x2
 1616 0272 7D       		.byte	0x7d
 1617 0273 00       		.sleb128 0
 1618 0274 02000000 		.4byte	.LCFI28
 1619 0278 04000000 		.4byte	.LCFI29
ARM GAS  /tmp/ccJtFf5m.s 			page 30


 1620 027c 0200     		.2byte	0x2
 1621 027e 7D       		.byte	0x7d
 1622 027f 04       		.sleb128 4
 1623 0280 04000000 		.4byte	.LCFI29
 1624 0284 90000000 		.4byte	.LFE21
 1625 0288 0200     		.2byte	0x2
 1626 028a 7D       		.byte	0x7d
 1627 028b 18       		.sleb128 24
 1628 028c 00000000 		.4byte	0x0
 1629 0290 00000000 		.4byte	0x0
 1630              		.file 2 "/home/z80/programs/code-sourcery/2011.03-42/bin/../lib/gcc/arm-none-eabi/4.5.2/../../../.
 1631              		.file 3 "../chibios_2.4.x/os/ports/GCC/ARMCMx/chtypes.h"
 1632              		.file 4 "../chibios_2.4.x/os/kernel/include/chlists.h"
 1633              		.file 5 "../chibios_2.4.x/os/kernel/include/chthreads.h"
 1634              		.file 6 "../chibios_2.4.x/os/ports/GCC/ARMCMx/chcore_v7m.h"
 1635              		.file 7 "../chibios_2.4.x/os/kernel/include/chschd.h"
 1636              		.file 8 "../chibios_2.4.x/os/kernel/include/chmtx.h"
 1637              		.file 9 "../chibios_2.4.x/os/kernel/include/chevents.h"
 1638              		.section	.debug_info
 1639 0000 E10B0000 		.4byte	0xbe1
 1640 0004 0200     		.2byte	0x2
 1641 0006 00000000 		.4byte	.Ldebug_abbrev0
 1642 000a 04       		.byte	0x4
 1643 000b 01       		.uleb128 0x1
 1644 000c D3030000 		.4byte	.LASF88
 1645 0010 01       		.byte	0x1
 1646 0011 E8010000 		.4byte	.LASF89
 1647 0015 6A030000 		.4byte	.LASF90
 1648 0019 00000000 		.4byte	0x0
 1649 001d 00000000 		.4byte	0x0
 1650 0021 00000000 		.4byte	.Ldebug_ranges0+0x0
 1651 0025 00000000 		.4byte	.Ldebug_line0
 1652 0029 02       		.uleb128 0x2
 1653 002a 04       		.byte	0x4
 1654 002b 05       		.byte	0x5
 1655 002c 696E7400 		.ascii	"int\000"
 1656 0030 03       		.uleb128 0x3
 1657 0031 04       		.byte	0x4
 1658 0032 07       		.byte	0x7
 1659 0033 4D010000 		.4byte	.LASF0
 1660 0037 03       		.uleb128 0x3
 1661 0038 01       		.byte	0x1
 1662 0039 06       		.byte	0x6
 1663 003a 71000000 		.4byte	.LASF1
 1664 003e 04       		.uleb128 0x4
 1665 003f A2030000 		.4byte	.LASF5
 1666 0043 02       		.byte	0x2
 1667 0044 2A       		.byte	0x2a
 1668 0045 49000000 		.4byte	0x49
 1669 0049 03       		.uleb128 0x3
 1670 004a 01       		.byte	0x1
 1671 004b 08       		.byte	0x8
 1672 004c 9B020000 		.4byte	.LASF2
 1673 0050 03       		.uleb128 0x3
 1674 0051 02       		.byte	0x2
 1675 0052 05       		.byte	0x5
 1676 0053 CC020000 		.4byte	.LASF3
ARM GAS  /tmp/ccJtFf5m.s 			page 31


 1677 0057 03       		.uleb128 0x3
 1678 0058 02       		.byte	0x2
 1679 0059 07       		.byte	0x7
 1680 005a 74010000 		.4byte	.LASF4
 1681 005e 04       		.uleb128 0x4
 1682 005f 93020000 		.4byte	.LASF6
 1683 0063 02       		.byte	0x2
 1684 0064 4F       		.byte	0x4f
 1685 0065 69000000 		.4byte	0x69
 1686 0069 03       		.uleb128 0x3
 1687 006a 04       		.byte	0x4
 1688 006b 05       		.byte	0x5
 1689 006c A7000000 		.4byte	.LASF7
 1690 0070 04       		.uleb128 0x4
 1691 0071 0D030000 		.4byte	.LASF8
 1692 0075 02       		.byte	0x2
 1693 0076 50       		.byte	0x50
 1694 0077 7B000000 		.4byte	0x7b
 1695 007b 03       		.uleb128 0x3
 1696 007c 04       		.byte	0x4
 1697 007d 07       		.byte	0x7
 1698 007e 5A010000 		.4byte	.LASF9
 1699 0082 03       		.uleb128 0x3
 1700 0083 08       		.byte	0x8
 1701 0084 05       		.byte	0x5
 1702 0085 63000000 		.4byte	.LASF10
 1703 0089 04       		.uleb128 0x4
 1704 008a 0D000000 		.4byte	.LASF11
 1705 008e 02       		.byte	0x2
 1706 008f 78       		.byte	0x78
 1707 0090 94000000 		.4byte	0x94
 1708 0094 03       		.uleb128 0x3
 1709 0095 08       		.byte	0x8
 1710 0096 07       		.byte	0x7
 1711 0097 16000000 		.4byte	.LASF12
 1712 009b 04       		.uleb128 0x4
 1713 009c B7010000 		.4byte	.LASF13
 1714 00a0 03       		.byte	0x3
 1715 00a1 2F       		.byte	0x2f
 1716 00a2 3E000000 		.4byte	0x3e
 1717 00a6 04       		.uleb128 0x4
 1718 00a7 B0000000 		.4byte	.LASF14
 1719 00ab 03       		.byte	0x3
 1720 00ac 30       		.byte	0x30
 1721 00ad 3E000000 		.4byte	0x3e
 1722 00b1 04       		.uleb128 0x4
 1723 00b2 7B020000 		.4byte	.LASF15
 1724 00b6 03       		.byte	0x3
 1725 00b7 32       		.byte	0x32
 1726 00b8 70000000 		.4byte	0x70
 1727 00bc 04       		.uleb128 0x4
 1728 00bd 99010000 		.4byte	.LASF16
 1729 00c1 03       		.byte	0x3
 1730 00c2 33       		.byte	0x33
 1731 00c3 5E000000 		.4byte	0x5e
 1732 00c7 04       		.uleb128 0x4
 1733 00c8 1A010000 		.4byte	.LASF17
ARM GAS  /tmp/ccJtFf5m.s 			page 32


 1734 00cc 03       		.byte	0x3
 1735 00cd 34       		.byte	0x34
 1736 00ce 5E000000 		.4byte	0x5e
 1737 00d2 04       		.uleb128 0x4
 1738 00d3 CB010000 		.4byte	.LASF18
 1739 00d7 03       		.byte	0x3
 1740 00d8 35       		.byte	0x35
 1741 00d9 70000000 		.4byte	0x70
 1742 00dd 04       		.uleb128 0x4
 1743 00de 2A030000 		.4byte	.LASF19
 1744 00e2 03       		.byte	0x3
 1745 00e3 36       		.byte	0x36
 1746 00e4 70000000 		.4byte	0x70
 1747 00e8 04       		.uleb128 0x4
 1748 00e9 3C010000 		.4byte	.LASF20
 1749 00ed 03       		.byte	0x3
 1750 00ee 37       		.byte	0x37
 1751 00ef 5E000000 		.4byte	0x5e
 1752 00f3 04       		.uleb128 0x4
 1753 00f4 FB020000 		.4byte	.LASF21
 1754 00f8 04       		.byte	0x4
 1755 00f9 2A       		.byte	0x2a
 1756 00fa FE000000 		.4byte	0xfe
 1757 00fe 05       		.uleb128 0x5
 1758 00ff FB020000 		.4byte	.LASF21
 1759 0103 48       		.byte	0x48
 1760 0104 05       		.byte	0x5
 1761 0105 5E       		.byte	0x5e
 1762 0106 07020000 		.4byte	0x207
 1763 010a 06       		.uleb128 0x6
 1764 010b EC020000 		.4byte	.LASF22
 1765 010f 05       		.byte	0x5
 1766 0110 5F       		.byte	0x5f
 1767 0111 2C020000 		.4byte	0x22c
 1768 0115 02       		.byte	0x2
 1769 0116 23       		.byte	0x23
 1770 0117 00       		.uleb128 0x0
 1771 0118 06       		.uleb128 0x6
 1772 0119 74020000 		.4byte	.LASF23
 1773 011d 05       		.byte	0x5
 1774 011e 61       		.byte	0x61
 1775 011f 2C020000 		.4byte	0x22c
 1776 0123 02       		.byte	0x2
 1777 0124 23       		.byte	0x23
 1778 0125 04       		.uleb128 0x4
 1779 0126 06       		.uleb128 0x6
 1780 0127 5C000000 		.4byte	.LASF24
 1781 012b 05       		.byte	0x5
 1782 012c 63       		.byte	0x63
 1783 012d B1000000 		.4byte	0xb1
 1784 0131 02       		.byte	0x2
 1785 0132 23       		.byte	0x23
 1786 0133 08       		.uleb128 0x8
 1787 0134 06       		.uleb128 0x6
 1788 0135 F8030000 		.4byte	.LASF25
 1789 0139 05       		.byte	0x5
 1790 013a 64       		.byte	0x64
ARM GAS  /tmp/ccJtFf5m.s 			page 33


 1791 013b 04030000 		.4byte	0x304
 1792 013f 02       		.byte	0x2
 1793 0140 23       		.byte	0x23
 1794 0141 0C       		.uleb128 0xc
 1795 0142 06       		.uleb128 0x6
 1796 0143 E8000000 		.4byte	.LASF26
 1797 0147 05       		.byte	0x5
 1798 0148 66       		.byte	0x66
 1799 0149 2C020000 		.4byte	0x22c
 1800 014d 02       		.byte	0x2
 1801 014e 23       		.byte	0x23
 1802 014f 10       		.uleb128 0x10
 1803 0150 06       		.uleb128 0x6
 1804 0151 20020000 		.4byte	.LASF27
 1805 0155 05       		.byte	0x5
 1806 0156 67       		.byte	0x67
 1807 0157 2C020000 		.4byte	0x22c
 1808 015b 02       		.byte	0x2
 1809 015c 23       		.byte	0x23
 1810 015d 14       		.uleb128 0x14
 1811 015e 06       		.uleb128 0x6
 1812 015f DF030000 		.4byte	.LASF28
 1813 0163 05       		.byte	0x5
 1814 0164 6E       		.byte	0x6e
 1815 0165 AA040000 		.4byte	0x4aa
 1816 0169 02       		.byte	0x2
 1817 016a 23       		.byte	0x23
 1818 016b 18       		.uleb128 0x18
 1819 016c 06       		.uleb128 0x6
 1820 016d 42010000 		.4byte	.LASF29
 1821 0171 05       		.byte	0x5
 1822 0172 74       		.byte	0x74
 1823 0173 BC040000 		.4byte	0x4bc
 1824 0177 02       		.byte	0x2
 1825 0178 23       		.byte	0x23
 1826 0179 1C       		.uleb128 0x1c
 1827 017a 06       		.uleb128 0x6
 1828 017b D6020000 		.4byte	.LASF30
 1829 017f 05       		.byte	0x5
 1830 0180 79       		.byte	0x79
 1831 0181 A6000000 		.4byte	0xa6
 1832 0185 02       		.byte	0x2
 1833 0186 23       		.byte	0x23
 1834 0187 20       		.uleb128 0x20
 1835 0188 06       		.uleb128 0x6
 1836 0189 F3020000 		.4byte	.LASF31
 1837 018d 05       		.byte	0x5
 1838 018e 7D       		.byte	0x7d
 1839 018f 9B000000 		.4byte	0x9b
 1840 0193 02       		.byte	0x2
 1841 0194 23       		.byte	0x23
 1842 0195 21       		.uleb128 0x21
 1843 0196 06       		.uleb128 0x6
 1844 0197 3F030000 		.4byte	.LASF32
 1845 019b 05       		.byte	0x5
 1846 019c 89       		.byte	0x89
 1847 019d 27030000 		.4byte	0x327
ARM GAS  /tmp/ccJtFf5m.s 			page 34


 1848 01a1 02       		.byte	0x2
 1849 01a2 23       		.byte	0x23
 1850 01a3 24       		.uleb128 0x24
 1851 01a4 07       		.uleb128 0x7
 1852 01a5 705F7500 		.ascii	"p_u\000"
 1853 01a9 05       		.byte	0x5
 1854 01aa AE       		.byte	0xae
 1855 01ab 75040000 		.4byte	0x475
 1856 01af 02       		.byte	0x2
 1857 01b0 23       		.byte	0x23
 1858 01b1 28       		.uleb128 0x28
 1859 01b2 06       		.uleb128 0x6
 1860 01b3 FE030000 		.4byte	.LASF33
 1861 01b7 05       		.byte	0x5
 1862 01b8 B3       		.byte	0xb3
 1863 01b9 54020000 		.4byte	0x254
 1864 01bd 02       		.byte	0x2
 1865 01be 23       		.byte	0x23
 1866 01bf 2C       		.uleb128 0x2c
 1867 01c0 06       		.uleb128 0x6
 1868 01c1 4D030000 		.4byte	.LASF34
 1869 01c5 05       		.byte	0x5
 1870 01c6 B9       		.byte	0xb9
 1871 01c7 32020000 		.4byte	0x232
 1872 01cb 02       		.byte	0x2
 1873 01cc 23       		.byte	0x23
 1874 01cd 30       		.uleb128 0x30
 1875 01ce 06       		.uleb128 0x6
 1876 01cf 00000000 		.4byte	.LASF35
 1877 01d3 05       		.byte	0x5
 1878 01d4 BD       		.byte	0xbd
 1879 01d5 BC000000 		.4byte	0xbc
 1880 01d9 02       		.byte	0x2
 1881 01da 23       		.byte	0x23
 1882 01db 38       		.uleb128 0x38
 1883 01dc 06       		.uleb128 0x6
 1884 01dd 02030000 		.4byte	.LASF36
 1885 01e1 05       		.byte	0x5
 1886 01e2 C3       		.byte	0xc3
 1887 01e3 D2000000 		.4byte	0xd2
 1888 01e7 02       		.byte	0x2
 1889 01e8 23       		.byte	0x23
 1890 01e9 3C       		.uleb128 0x3c
 1891 01ea 06       		.uleb128 0x6
 1892 01eb C2020000 		.4byte	.LASF37
 1893 01ef 05       		.byte	0x5
 1894 01f0 CA       		.byte	0xca
 1895 01f1 C2040000 		.4byte	0x4c2
 1896 01f5 02       		.byte	0x2
 1897 01f6 23       		.byte	0x23
 1898 01f7 40       		.uleb128 0x40
 1899 01f8 06       		.uleb128 0x6
 1900 01f9 34030000 		.4byte	.LASF38
 1901 01fd 05       		.byte	0x5
 1902 01fe CE       		.byte	0xce
 1903 01ff B1000000 		.4byte	0xb1
 1904 0203 02       		.byte	0x2
ARM GAS  /tmp/ccJtFf5m.s 			page 35


 1905 0204 23       		.byte	0x23
 1906 0205 44       		.uleb128 0x44
 1907 0206 00       		.byte	0x0
 1908 0207 08       		.uleb128 0x8
 1909 0208 08       		.byte	0x8
 1910 0209 04       		.byte	0x4
 1911 020a 61       		.byte	0x61
 1912 020b 2C020000 		.4byte	0x22c
 1913 020f 06       		.uleb128 0x6
 1914 0210 EC020000 		.4byte	.LASF22
 1915 0214 04       		.byte	0x4
 1916 0215 62       		.byte	0x62
 1917 0216 2C020000 		.4byte	0x22c
 1918 021a 02       		.byte	0x2
 1919 021b 23       		.byte	0x23
 1920 021c 00       		.uleb128 0x0
 1921 021d 06       		.uleb128 0x6
 1922 021e 74020000 		.4byte	.LASF23
 1923 0222 04       		.byte	0x4
 1924 0223 64       		.byte	0x64
 1925 0224 2C020000 		.4byte	0x22c
 1926 0228 02       		.byte	0x2
 1927 0229 23       		.byte	0x23
 1928 022a 04       		.uleb128 0x4
 1929 022b 00       		.byte	0x0
 1930 022c 09       		.uleb128 0x9
 1931 022d 04       		.byte	0x4
 1932 022e F3000000 		.4byte	0xf3
 1933 0232 04       		.uleb128 0x4
 1934 0233 2E020000 		.4byte	.LASF39
 1935 0237 04       		.byte	0x4
 1936 0238 66       		.byte	0x66
 1937 0239 07020000 		.4byte	0x207
 1938 023d 08       		.uleb128 0x8
 1939 023e 04       		.byte	0x4
 1940 023f 04       		.byte	0x4
 1941 0240 6B       		.byte	0x6b
 1942 0241 54020000 		.4byte	0x254
 1943 0245 06       		.uleb128 0x6
 1944 0246 EC020000 		.4byte	.LASF22
 1945 024a 04       		.byte	0x4
 1946 024b 6D       		.byte	0x6d
 1947 024c 2C020000 		.4byte	0x22c
 1948 0250 02       		.byte	0x2
 1949 0251 23       		.byte	0x23
 1950 0252 00       		.uleb128 0x0
 1951 0253 00       		.byte	0x0
 1952 0254 04       		.uleb128 0x4
 1953 0255 BF010000 		.4byte	.LASF40
 1954 0259 04       		.byte	0x4
 1955 025a 70       		.byte	0x70
 1956 025b 3D020000 		.4byte	0x23d
 1957 025f 04       		.uleb128 0x4
 1958 0260 FD000000 		.4byte	.LASF41
 1959 0264 06       		.byte	0x6
 1960 0265 D7       		.byte	0xd7
 1961 0266 6A020000 		.4byte	0x26a
ARM GAS  /tmp/ccJtFf5m.s 			page 36


 1962 026a 0A       		.uleb128 0xa
 1963 026b 04       		.byte	0x4
 1964 026c 04       		.uleb128 0x4
 1965 026d DD010000 		.4byte	.LASF42
 1966 0271 06       		.byte	0x6
 1967 0272 DD       		.byte	0xdd
 1968 0273 89000000 		.4byte	0x89
 1969 0277 05       		.uleb128 0x5
 1970 0278 46030000 		.4byte	.LASF43
 1971 027c 24       		.byte	0x24
 1972 027d 06       		.byte	0x6
 1973 027e FE       		.byte	0xfe
 1974 027f 04030000 		.4byte	0x304
 1975 0283 0B       		.uleb128 0xb
 1976 0284 723400   		.ascii	"r4\000"
 1977 0287 06       		.byte	0x6
 1978 0288 1101     		.2byte	0x111
 1979 028a 5F020000 		.4byte	0x25f
 1980 028e 02       		.byte	0x2
 1981 028f 23       		.byte	0x23
 1982 0290 00       		.uleb128 0x0
 1983 0291 0B       		.uleb128 0xb
 1984 0292 723500   		.ascii	"r5\000"
 1985 0295 06       		.byte	0x6
 1986 0296 1201     		.2byte	0x112
 1987 0298 5F020000 		.4byte	0x25f
 1988 029c 02       		.byte	0x2
 1989 029d 23       		.byte	0x23
 1990 029e 04       		.uleb128 0x4
 1991 029f 0B       		.uleb128 0xb
 1992 02a0 723600   		.ascii	"r6\000"
 1993 02a3 06       		.byte	0x6
 1994 02a4 1301     		.2byte	0x113
 1995 02a6 5F020000 		.4byte	0x25f
 1996 02aa 02       		.byte	0x2
 1997 02ab 23       		.byte	0x23
 1998 02ac 08       		.uleb128 0x8
 1999 02ad 0B       		.uleb128 0xb
 2000 02ae 723700   		.ascii	"r7\000"
 2001 02b1 06       		.byte	0x6
 2002 02b2 1401     		.2byte	0x114
 2003 02b4 5F020000 		.4byte	0x25f
 2004 02b8 02       		.byte	0x2
 2005 02b9 23       		.byte	0x23
 2006 02ba 0C       		.uleb128 0xc
 2007 02bb 0B       		.uleb128 0xb
 2008 02bc 723800   		.ascii	"r8\000"
 2009 02bf 06       		.byte	0x6
 2010 02c0 1501     		.2byte	0x115
 2011 02c2 5F020000 		.4byte	0x25f
 2012 02c6 02       		.byte	0x2
 2013 02c7 23       		.byte	0x23
 2014 02c8 10       		.uleb128 0x10
 2015 02c9 0B       		.uleb128 0xb
 2016 02ca 723900   		.ascii	"r9\000"
 2017 02cd 06       		.byte	0x6
 2018 02ce 1601     		.2byte	0x116
ARM GAS  /tmp/ccJtFf5m.s 			page 37


 2019 02d0 5F020000 		.4byte	0x25f
 2020 02d4 02       		.byte	0x2
 2021 02d5 23       		.byte	0x23
 2022 02d6 14       		.uleb128 0x14
 2023 02d7 0B       		.uleb128 0xb
 2024 02d8 72313000 		.ascii	"r10\000"
 2025 02dc 06       		.byte	0x6
 2026 02dd 1701     		.2byte	0x117
 2027 02df 5F020000 		.4byte	0x25f
 2028 02e3 02       		.byte	0x2
 2029 02e4 23       		.byte	0x23
 2030 02e5 18       		.uleb128 0x18
 2031 02e6 0B       		.uleb128 0xb
 2032 02e7 72313100 		.ascii	"r11\000"
 2033 02eb 06       		.byte	0x6
 2034 02ec 1801     		.2byte	0x118
 2035 02ee 5F020000 		.4byte	0x25f
 2036 02f2 02       		.byte	0x2
 2037 02f3 23       		.byte	0x23
 2038 02f4 1C       		.uleb128 0x1c
 2039 02f5 0B       		.uleb128 0xb
 2040 02f6 6C7200   		.ascii	"lr\000"
 2041 02f9 06       		.byte	0x6
 2042 02fa 1901     		.2byte	0x119
 2043 02fc 5F020000 		.4byte	0x25f
 2044 0300 02       		.byte	0x2
 2045 0301 23       		.byte	0x23
 2046 0302 20       		.uleb128 0x20
 2047 0303 00       		.byte	0x0
 2048 0304 0C       		.uleb128 0xc
 2049 0305 6C010000 		.4byte	.LASF44
 2050 0309 04       		.byte	0x4
 2051 030a 06       		.byte	0x6
 2052 030b 2301     		.2byte	0x123
 2053 030d 21030000 		.4byte	0x321
 2054 0311 0B       		.uleb128 0xb
 2055 0312 72313300 		.ascii	"r13\000"
 2056 0316 06       		.byte	0x6
 2057 0317 2401     		.2byte	0x124
 2058 0319 21030000 		.4byte	0x321
 2059 031d 02       		.byte	0x2
 2060 031e 23       		.byte	0x23
 2061 031f 00       		.uleb128 0x0
 2062 0320 00       		.byte	0x0
 2063 0321 09       		.uleb128 0x9
 2064 0322 04       		.byte	0x4
 2065 0323 77020000 		.4byte	0x277
 2066 0327 0D       		.uleb128 0xd
 2067 0328 DD000000 		.4byte	0xdd
 2068 032c 08       		.uleb128 0x8
 2069 032d 20       		.byte	0x20
 2070 032e 07       		.byte	0x7
 2071 032f 5E       		.byte	0x5e
 2072 0330 97030000 		.4byte	0x397
 2073 0334 06       		.uleb128 0x6
 2074 0335 16030000 		.4byte	.LASF45
 2075 0339 07       		.byte	0x7
ARM GAS  /tmp/ccJtFf5m.s 			page 38


 2076 033a 5F       		.byte	0x5f
 2077 033b 32020000 		.4byte	0x232
 2078 033f 02       		.byte	0x2
 2079 0340 23       		.byte	0x23
 2080 0341 00       		.uleb128 0x0
 2081 0342 06       		.uleb128 0x6
 2082 0343 DE020000 		.4byte	.LASF46
 2083 0347 07       		.byte	0x7
 2084 0348 60       		.byte	0x60
 2085 0349 B1000000 		.4byte	0xb1
 2086 034d 02       		.byte	0x2
 2087 034e 23       		.byte	0x23
 2088 034f 08       		.uleb128 0x8
 2089 0350 06       		.uleb128 0x6
 2090 0351 28020000 		.4byte	.LASF47
 2091 0355 07       		.byte	0x7
 2092 0356 62       		.byte	0x62
 2093 0357 04030000 		.4byte	0x304
 2094 035b 02       		.byte	0x2
 2095 035c 23       		.byte	0x23
 2096 035d 0C       		.uleb128 0xc
 2097 035e 06       		.uleb128 0x6
 2098 035f F0000000 		.4byte	.LASF48
 2099 0363 07       		.byte	0x7
 2100 0364 65       		.byte	0x65
 2101 0365 2C020000 		.4byte	0x22c
 2102 0369 02       		.byte	0x2
 2103 036a 23       		.byte	0x23
 2104 036b 10       		.uleb128 0x10
 2105 036c 06       		.uleb128 0x6
 2106 036d 5B020000 		.4byte	.LASF49
 2107 0371 07       		.byte	0x7
 2108 0372 66       		.byte	0x66
 2109 0373 2C020000 		.4byte	0x22c
 2110 0377 02       		.byte	0x2
 2111 0378 23       		.byte	0x23
 2112 0379 14       		.uleb128 0x14
 2113 037a 06       		.uleb128 0x6
 2114 037b E6030000 		.4byte	.LASF50
 2115 037f 07       		.byte	0x7
 2116 0380 6A       		.byte	0x6a
 2117 0381 E8000000 		.4byte	0xe8
 2118 0385 02       		.byte	0x2
 2119 0386 23       		.byte	0x23
 2120 0387 18       		.uleb128 0x18
 2121 0388 06       		.uleb128 0x6
 2122 0389 51020000 		.4byte	.LASF51
 2123 038d 07       		.byte	0x7
 2124 038e 6C       		.byte	0x6c
 2125 038f 2C020000 		.4byte	0x22c
 2126 0393 02       		.byte	0x2
 2127 0394 23       		.byte	0x23
 2128 0395 1C       		.uleb128 0x1c
 2129 0396 00       		.byte	0x0
 2130 0397 04       		.uleb128 0x4
 2131 0398 60030000 		.4byte	.LASF52
 2132 039c 07       		.byte	0x7
ARM GAS  /tmp/ccJtFf5m.s 			page 39


 2133 039d 6E       		.byte	0x6e
 2134 039e 2C030000 		.4byte	0x32c
 2135 03a2 05       		.uleb128 0x5
 2136 03a3 D7010000 		.4byte	.LASF53
 2137 03a7 10       		.byte	0x10
 2138 03a8 08       		.byte	0x8
 2139 03a9 2C       		.byte	0x2c
 2140 03aa D9030000 		.4byte	0x3d9
 2141 03ae 06       		.uleb128 0x6
 2142 03af 91000000 		.4byte	.LASF54
 2143 03b3 08       		.byte	0x8
 2144 03b4 2D       		.byte	0x2d
 2145 03b5 32020000 		.4byte	0x232
 2146 03b9 02       		.byte	0x2
 2147 03ba 23       		.byte	0x23
 2148 03bb 00       		.uleb128 0x0
 2149 03bc 06       		.uleb128 0x6
 2150 03bd F0030000 		.4byte	.LASF55
 2151 03c1 08       		.byte	0x8
 2152 03c2 2F       		.byte	0x2f
 2153 03c3 2C020000 		.4byte	0x22c
 2154 03c7 02       		.byte	0x2
 2155 03c8 23       		.byte	0x23
 2156 03c9 08       		.uleb128 0x8
 2157 03ca 06       		.uleb128 0x6
 2158 03cb 23030000 		.4byte	.LASF56
 2159 03cf 08       		.byte	0x8
 2160 03d0 31       		.byte	0x31
 2161 03d1 D9030000 		.4byte	0x3d9
 2162 03d5 02       		.byte	0x2
 2163 03d6 23       		.byte	0x23
 2164 03d7 0C       		.uleb128 0xc
 2165 03d8 00       		.byte	0x0
 2166 03d9 09       		.uleb128 0x9
 2167 03da 04       		.byte	0x4
 2168 03db A2030000 		.4byte	0x3a2
 2169 03df 04       		.uleb128 0x4
 2170 03e0 D7010000 		.4byte	.LASF53
 2171 03e4 08       		.byte	0x8
 2172 03e5 33       		.byte	0x33
 2173 03e6 A2030000 		.4byte	0x3a2
 2174 03ea 04       		.uleb128 0x4
 2175 03eb AA030000 		.4byte	.LASF57
 2176 03ef 09       		.byte	0x9
 2177 03f0 29       		.byte	0x29
 2178 03f1 F5030000 		.4byte	0x3f5
 2179 03f5 05       		.uleb128 0x5
 2180 03f6 AA030000 		.4byte	.LASF57
 2181 03fa 0C       		.byte	0xc
 2182 03fb 09       		.byte	0x9
 2183 03fc 2E       		.byte	0x2e
 2184 03fd 2C040000 		.4byte	0x42c
 2185 0401 06       		.uleb128 0x6
 2186 0402 9F010000 		.4byte	.LASF58
 2187 0406 09       		.byte	0x9
 2188 0407 2F       		.byte	0x2f
 2189 0408 2C040000 		.4byte	0x42c
ARM GAS  /tmp/ccJtFf5m.s 			page 40


 2190 040c 02       		.byte	0x2
 2191 040d 23       		.byte	0x23
 2192 040e 00       		.uleb128 0x0
 2193 040f 06       		.uleb128 0x6
 2194 0410 B6020000 		.4byte	.LASF59
 2195 0414 09       		.byte	0x9
 2196 0415 32       		.byte	0x32
 2197 0416 2C020000 		.4byte	0x22c
 2198 041a 02       		.byte	0x2
 2199 041b 23       		.byte	0x23
 2200 041c 04       		.uleb128 0x4
 2201 041d 06       		.uleb128 0x6
 2202 041e 63020000 		.4byte	.LASF60
 2203 0422 09       		.byte	0x9
 2204 0423 34       		.byte	0x34
 2205 0424 D2000000 		.4byte	0xd2
 2206 0428 02       		.byte	0x2
 2207 0429 23       		.byte	0x23
 2208 042a 08       		.uleb128 0x8
 2209 042b 00       		.byte	0x0
 2210 042c 09       		.uleb128 0x9
 2211 042d 04       		.byte	0x4
 2212 042e EA030000 		.4byte	0x3ea
 2213 0432 05       		.uleb128 0x5
 2214 0433 24010000 		.4byte	.LASF61
 2215 0437 04       		.byte	0x4
 2216 0438 09       		.byte	0x9
 2217 0439 3C       		.byte	0x3c
 2218 043a 4D040000 		.4byte	0x44d
 2219 043e 06       		.uleb128 0x6
 2220 043f 58030000 		.4byte	.LASF62
 2221 0443 09       		.byte	0x9
 2222 0444 3D       		.byte	0x3d
 2223 0445 2C040000 		.4byte	0x42c
 2224 0449 02       		.byte	0x2
 2225 044a 23       		.byte	0x23
 2226 044b 00       		.uleb128 0x0
 2227 044c 00       		.byte	0x0
 2228 044d 04       		.uleb128 0x4
 2229 044e 24010000 		.4byte	.LASF61
 2230 0452 09       		.byte	0x9
 2231 0453 40       		.byte	0x40
 2232 0454 32040000 		.4byte	0x432
 2233 0458 04       		.uleb128 0x4
 2234 0459 30010000 		.4byte	.LASF63
 2235 045d 09       		.byte	0x9
 2236 045e 45       		.byte	0x45
 2237 045f 63040000 		.4byte	0x463
 2238 0463 09       		.uleb128 0x9
 2239 0464 04       		.byte	0x4
 2240 0465 69040000 		.4byte	0x469
 2241 0469 0E       		.uleb128 0xe
 2242 046a 01       		.byte	0x1
 2243 046b 75040000 		.4byte	0x475
 2244 046f 0F       		.uleb128 0xf
 2245 0470 C7000000 		.4byte	0xc7
 2246 0474 00       		.byte	0x0
ARM GAS  /tmp/ccJtFf5m.s 			page 41


 2247 0475 10       		.uleb128 0x10
 2248 0476 04       		.byte	0x4
 2249 0477 05       		.byte	0x5
 2250 0478 90       		.byte	0x90
 2251 0479 AA040000 		.4byte	0x4aa
 2252 047d 11       		.uleb128 0x11
 2253 047e 06000000 		.4byte	.LASF64
 2254 0482 05       		.byte	0x5
 2255 0483 97       		.byte	0x97
 2256 0484 BC000000 		.4byte	0xbc
 2257 0488 11       		.uleb128 0x11
 2258 0489 2D000000 		.4byte	.LASF65
 2259 048d 05       		.byte	0x5
 2260 048e 9E       		.byte	0x9e
 2261 048f BC000000 		.4byte	0xbc
 2262 0493 11       		.uleb128 0x11
 2263 0494 CC030000 		.4byte	.LASF66
 2264 0498 05       		.byte	0x5
 2265 0499 A5       		.byte	0xa5
 2266 049a 6A020000 		.4byte	0x26a
 2267 049e 11       		.uleb128 0x11
 2268 049f E5020000 		.4byte	.LASF67
 2269 04a3 05       		.byte	0x5
 2270 04a4 AC       		.byte	0xac
 2271 04a5 D2000000 		.4byte	0xd2
 2272 04a9 00       		.byte	0x0
 2273 04aa 09       		.uleb128 0x9
 2274 04ab 04       		.byte	0x4
 2275 04ac B0040000 		.4byte	0x4b0
 2276 04b0 12       		.uleb128 0x12
 2277 04b1 B5040000 		.4byte	0x4b5
 2278 04b5 03       		.uleb128 0x3
 2279 04b6 01       		.byte	0x1
 2280 04b7 08       		.byte	0x8
 2281 04b8 1E030000 		.4byte	.LASF68
 2282 04bc 09       		.uleb128 0x9
 2283 04bd 04       		.byte	0x4
 2284 04be 6C020000 		.4byte	0x26c
 2285 04c2 09       		.uleb128 0x9
 2286 04c3 04       		.byte	0x4
 2287 04c4 DF030000 		.4byte	0x3df
 2288 04c8 13       		.uleb128 0x13
 2289 04c9 01       		.byte	0x1
 2290 04ca 87010000 		.4byte	.LASF70
 2291 04ce 01       		.byte	0x1
 2292 04cf 52       		.byte	0x52
 2293 04d0 01       		.byte	0x1
 2294 04d1 00000000 		.4byte	.LFB7
 2295 04d5 5C000000 		.4byte	.LFE7
 2296 04d9 00000000 		.4byte	.LLST0
 2297 04dd 3E050000 		.4byte	0x53e
 2298 04e1 14       		.uleb128 0x14
 2299 04e2 65737000 		.ascii	"esp\000"
 2300 04e6 01       		.byte	0x1
 2301 04e7 52       		.byte	0x52
 2302 04e8 3E050000 		.4byte	0x53e
 2303 04ec 02       		.byte	0x2
ARM GAS  /tmp/ccJtFf5m.s 			page 42


 2304 04ed 91       		.byte	0x91
 2305 04ee 74       		.sleb128 -12
 2306 04ef 14       		.uleb128 0x14
 2307 04f0 656C7000 		.ascii	"elp\000"
 2308 04f4 01       		.byte	0x1
 2309 04f5 52       		.byte	0x52
 2310 04f6 2C040000 		.4byte	0x42c
 2311 04fa 02       		.byte	0x2
 2312 04fb 91       		.byte	0x91
 2313 04fc 70       		.sleb128 -16
 2314 04fd 15       		.uleb128 0x15
 2315 04fe F8000000 		.4byte	.LASF69
 2316 0502 01       		.byte	0x1
 2317 0503 52       		.byte	0x52
 2318 0504 D2000000 		.4byte	0xd2
 2319 0508 02       		.byte	0x2
 2320 0509 91       		.byte	0x91
 2321 050a 6C       		.sleb128 -20
 2322 050b 16       		.uleb128 0x16
 2323 050c 1C000000 		.4byte	.LBB2
 2324 0510 24000000 		.4byte	.LBE2
 2325 0514 26050000 		.4byte	0x526
 2326 0518 17       		.uleb128 0x17
 2327 0519 746D7000 		.ascii	"tmp\000"
 2328 051d 01       		.byte	0x1
 2329 051e 56       		.byte	0x56
 2330 051f 70000000 		.4byte	0x70
 2331 0523 01       		.byte	0x1
 2332 0524 53       		.byte	0x53
 2333 0525 00       		.byte	0x0
 2334 0526 18       		.uleb128 0x18
 2335 0527 48000000 		.4byte	.LBB3
 2336 052b 50000000 		.4byte	.LBE3
 2337 052f 17       		.uleb128 0x17
 2338 0530 746D7000 		.ascii	"tmp\000"
 2339 0534 01       		.byte	0x1
 2340 0535 5B       		.byte	0x5b
 2341 0536 70000000 		.4byte	0x70
 2342 053a 01       		.byte	0x1
 2343 053b 53       		.byte	0x53
 2344 053c 00       		.byte	0x0
 2345 053d 00       		.byte	0x0
 2346 053e 09       		.uleb128 0x9
 2347 053f 04       		.byte	0x4
 2348 0540 4D040000 		.4byte	0x44d
 2349 0544 13       		.uleb128 0x13
 2350 0545 01       		.byte	0x1
 2351 0546 A7010000 		.4byte	.LASF71
 2352 054a 01       		.byte	0x1
 2353 054b 6B       		.byte	0x6b
 2354 054c 01       		.byte	0x1
 2355 054d 00000000 		.4byte	.LFB8
 2356 0551 64000000 		.4byte	.LFE8
 2357 0555 2C000000 		.4byte	.LLST1
 2358 0559 B8050000 		.4byte	0x5b8
 2359 055d 14       		.uleb128 0x14
 2360 055e 65737000 		.ascii	"esp\000"
ARM GAS  /tmp/ccJtFf5m.s 			page 43


 2361 0562 01       		.byte	0x1
 2362 0563 6B       		.byte	0x6b
 2363 0564 3E050000 		.4byte	0x53e
 2364 0568 02       		.byte	0x2
 2365 0569 91       		.byte	0x91
 2366 056a 6C       		.sleb128 -20
 2367 056b 14       		.uleb128 0x14
 2368 056c 656C7000 		.ascii	"elp\000"
 2369 0570 01       		.byte	0x1
 2370 0571 6B       		.byte	0x6b
 2371 0572 2C040000 		.4byte	0x42c
 2372 0576 02       		.byte	0x2
 2373 0577 91       		.byte	0x91
 2374 0578 68       		.sleb128 -24
 2375 0579 17       		.uleb128 0x17
 2376 057a 7000     		.ascii	"p\000"
 2377 057c 01       		.byte	0x1
 2378 057d 6C       		.byte	0x6c
 2379 057e 2C040000 		.4byte	0x42c
 2380 0582 02       		.byte	0x2
 2381 0583 91       		.byte	0x91
 2382 0584 74       		.sleb128 -12
 2383 0585 16       		.uleb128 0x16
 2384 0586 1E000000 		.4byte	.LBB4
 2385 058a 26000000 		.4byte	.LBE4
 2386 058e A0050000 		.4byte	0x5a0
 2387 0592 17       		.uleb128 0x17
 2388 0593 746D7000 		.ascii	"tmp\000"
 2389 0597 01       		.byte	0x1
 2390 0598 71       		.byte	0x71
 2391 0599 70000000 		.4byte	0x70
 2392 059d 01       		.byte	0x1
 2393 059e 53       		.byte	0x53
 2394 059f 00       		.byte	0x0
 2395 05a0 18       		.uleb128 0x18
 2396 05a1 54000000 		.4byte	.LBB5
 2397 05a5 5C000000 		.4byte	.LBE5
 2398 05a9 17       		.uleb128 0x17
 2399 05aa 746D7000 		.ascii	"tmp\000"
 2400 05ae 01       		.byte	0x1
 2401 05af 79       		.byte	0x79
 2402 05b0 70000000 		.4byte	0x70
 2403 05b4 01       		.byte	0x1
 2404 05b5 53       		.byte	0x53
 2405 05b6 00       		.byte	0x0
 2406 05b7 00       		.byte	0x0
 2407 05b8 19       		.uleb128 0x19
 2408 05b9 01       		.byte	0x1
 2409 05ba 83020000 		.4byte	.LASF72
 2410 05be 01       		.byte	0x1
 2411 05bf 84       		.byte	0x84
 2412 05c0 01       		.byte	0x1
 2413 05c1 D2000000 		.4byte	0xd2
 2414 05c5 00000000 		.4byte	.LFB9
 2415 05c9 50000000 		.4byte	.LFE9
 2416 05cd 58000000 		.4byte	.LLST2
 2417 05d1 22060000 		.4byte	0x622
ARM GAS  /tmp/ccJtFf5m.s 			page 44


 2418 05d5 15       		.uleb128 0x15
 2419 05d6 F8000000 		.4byte	.LASF69
 2420 05da 01       		.byte	0x1
 2421 05db 84       		.byte	0x84
 2422 05dc D2000000 		.4byte	0xd2
 2423 05e0 02       		.byte	0x2
 2424 05e1 91       		.byte	0x91
 2425 05e2 6C       		.sleb128 -20
 2426 05e3 17       		.uleb128 0x17
 2427 05e4 6D00     		.ascii	"m\000"
 2428 05e6 01       		.byte	0x1
 2429 05e7 85       		.byte	0x85
 2430 05e8 D2000000 		.4byte	0xd2
 2431 05ec 02       		.byte	0x2
 2432 05ed 91       		.byte	0x91
 2433 05ee 74       		.sleb128 -12
 2434 05ef 16       		.uleb128 0x16
 2435 05f0 06000000 		.4byte	.LBB6
 2436 05f4 0E000000 		.4byte	.LBE6
 2437 05f8 0A060000 		.4byte	0x60a
 2438 05fc 17       		.uleb128 0x17
 2439 05fd 746D7000 		.ascii	"tmp\000"
 2440 0601 01       		.byte	0x1
 2441 0602 87       		.byte	0x87
 2442 0603 70000000 		.4byte	0x70
 2443 0607 01       		.byte	0x1
 2444 0608 53       		.byte	0x53
 2445 0609 00       		.byte	0x0
 2446 060a 18       		.uleb128 0x18
 2447 060b 3A000000 		.4byte	.LBB7
 2448 060f 42000000 		.4byte	.LBE7
 2449 0613 17       		.uleb128 0x17
 2450 0614 746D7000 		.ascii	"tmp\000"
 2451 0618 01       		.byte	0x1
 2452 0619 8C       		.byte	0x8c
 2453 061a 70000000 		.4byte	0x70
 2454 061e 01       		.byte	0x1
 2455 061f 53       		.byte	0x53
 2456 0620 00       		.byte	0x0
 2457 0621 00       		.byte	0x0
 2458 0622 19       		.uleb128 0x19
 2459 0623 01       		.byte	0x1
 2460 0624 99000000 		.4byte	.LASF73
 2461 0628 01       		.byte	0x1
 2462 0629 99       		.byte	0x99
 2463 062a 01       		.byte	0x1
 2464 062b D2000000 		.4byte	0xd2
 2465 062f 00000000 		.4byte	.LFB10
 2466 0633 40000000 		.4byte	.LFE10
 2467 0637 84000000 		.4byte	.LLST3
 2468 063b 80060000 		.4byte	0x680
 2469 063f 15       		.uleb128 0x15
 2470 0640 F8000000 		.4byte	.LASF69
 2471 0644 01       		.byte	0x1
 2472 0645 99       		.byte	0x99
 2473 0646 D2000000 		.4byte	0xd2
 2474 064a 02       		.byte	0x2
ARM GAS  /tmp/ccJtFf5m.s 			page 45


 2475 064b 91       		.byte	0x91
 2476 064c 74       		.sleb128 -12
 2477 064d 16       		.uleb128 0x16
 2478 064e 06000000 		.4byte	.LBB8
 2479 0652 0E000000 		.4byte	.LBE8
 2480 0656 68060000 		.4byte	0x668
 2481 065a 17       		.uleb128 0x17
 2482 065b 746D7000 		.ascii	"tmp\000"
 2483 065f 01       		.byte	0x1
 2484 0660 9B       		.byte	0x9b
 2485 0661 70000000 		.4byte	0x70
 2486 0665 01       		.byte	0x1
 2487 0666 53       		.byte	0x53
 2488 0667 00       		.byte	0x0
 2489 0668 18       		.uleb128 0x18
 2490 0669 2C000000 		.4byte	.LBB9
 2491 066d 34000000 		.4byte	.LBE9
 2492 0671 17       		.uleb128 0x17
 2493 0672 746D7000 		.ascii	"tmp\000"
 2494 0676 01       		.byte	0x1
 2495 0677 9F       		.byte	0x9f
 2496 0678 70000000 		.4byte	0x70
 2497 067c 01       		.byte	0x1
 2498 067d 53       		.byte	0x53
 2499 067e 00       		.byte	0x0
 2500 067f 00       		.byte	0x0
 2501 0680 13       		.uleb128 0x13
 2502 0681 01       		.byte	0x1
 2503 0682 40020000 		.4byte	.LASF74
 2504 0686 01       		.byte	0x1
 2505 0687 AB       		.byte	0xab
 2506 0688 01       		.byte	0x1
 2507 0689 00000000 		.4byte	.LFB11
 2508 068d 40000000 		.4byte	.LFE11
 2509 0691 B0000000 		.4byte	.LLST4
 2510 0695 E7060000 		.4byte	0x6e7
 2511 0699 14       		.uleb128 0x14
 2512 069a 747000   		.ascii	"tp\000"
 2513 069d 01       		.byte	0x1
 2514 069e AB       		.byte	0xab
 2515 069f 2C020000 		.4byte	0x22c
 2516 06a3 02       		.byte	0x2
 2517 06a4 91       		.byte	0x91
 2518 06a5 74       		.sleb128 -12
 2519 06a6 15       		.uleb128 0x15
 2520 06a7 F8000000 		.4byte	.LASF69
 2521 06ab 01       		.byte	0x1
 2522 06ac AB       		.byte	0xab
 2523 06ad D2000000 		.4byte	0xd2
 2524 06b1 02       		.byte	0x2
 2525 06b2 91       		.byte	0x91
 2526 06b3 70       		.sleb128 -16
 2527 06b4 16       		.uleb128 0x16
 2528 06b5 14000000 		.4byte	.LBB10
 2529 06b9 1C000000 		.4byte	.LBE10
 2530 06bd CF060000 		.4byte	0x6cf
 2531 06c1 17       		.uleb128 0x17
ARM GAS  /tmp/ccJtFf5m.s 			page 46


 2532 06c2 746D7000 		.ascii	"tmp\000"
 2533 06c6 01       		.byte	0x1
 2534 06c7 AF       		.byte	0xaf
 2535 06c8 70000000 		.4byte	0x70
 2536 06cc 01       		.byte	0x1
 2537 06cd 53       		.byte	0x53
 2538 06ce 00       		.byte	0x0
 2539 06cf 18       		.uleb128 0x18
 2540 06d0 30000000 		.4byte	.LBB11
 2541 06d4 38000000 		.4byte	.LBE11
 2542 06d8 17       		.uleb128 0x17
 2543 06d9 746D7000 		.ascii	"tmp\000"
 2544 06dd 01       		.byte	0x1
 2545 06de B2       		.byte	0xb2
 2546 06df 70000000 		.4byte	0x70
 2547 06e3 01       		.byte	0x1
 2548 06e4 53       		.byte	0x53
 2549 06e5 00       		.byte	0x0
 2550 06e6 00       		.byte	0x0
 2551 06e7 13       		.uleb128 0x13
 2552 06e8 01       		.byte	0x1
 2553 06e9 36000000 		.4byte	.LASF75
 2554 06ed 01       		.byte	0x1
 2555 06ee C1       		.byte	0xc1
 2556 06ef 01       		.byte	0x1
 2557 06f0 00000000 		.4byte	.LFB12
 2558 06f4 70000000 		.4byte	.LFE12
 2559 06f8 DC000000 		.4byte	.LLST5
 2560 06fc 1C070000 		.4byte	0x71c
 2561 0700 14       		.uleb128 0x14
 2562 0701 747000   		.ascii	"tp\000"
 2563 0704 01       		.byte	0x1
 2564 0705 C1       		.byte	0xc1
 2565 0706 2C020000 		.4byte	0x22c
 2566 070a 02       		.byte	0x2
 2567 070b 91       		.byte	0x91
 2568 070c 74       		.sleb128 -12
 2569 070d 15       		.uleb128 0x15
 2570 070e F8000000 		.4byte	.LASF69
 2571 0712 01       		.byte	0x1
 2572 0713 C1       		.byte	0xc1
 2573 0714 D2000000 		.4byte	0xd2
 2574 0718 02       		.byte	0x2
 2575 0719 91       		.byte	0x91
 2576 071a 70       		.sleb128 -16
 2577 071b 00       		.byte	0x0
 2578 071c 13       		.uleb128 0x13
 2579 071d 01       		.byte	0x1
 2580 071e 06010000 		.4byte	.LASF76
 2581 0722 01       		.byte	0x1
 2582 0723 DC       		.byte	0xdc
 2583 0724 01       		.byte	0x1
 2584 0725 00000000 		.4byte	.LFB13
 2585 0729 30000000 		.4byte	.LFE13
 2586 072d 08010000 		.4byte	.LLST6
 2587 0731 84070000 		.4byte	0x784
 2588 0735 14       		.uleb128 0x14
ARM GAS  /tmp/ccJtFf5m.s 			page 47


 2589 0736 65737000 		.ascii	"esp\000"
 2590 073a 01       		.byte	0x1
 2591 073b DC       		.byte	0xdc
 2592 073c 3E050000 		.4byte	0x53e
 2593 0740 02       		.byte	0x2
 2594 0741 91       		.byte	0x91
 2595 0742 74       		.sleb128 -12
 2596 0743 15       		.uleb128 0x15
 2597 0744 F8000000 		.4byte	.LASF69
 2598 0748 01       		.byte	0x1
 2599 0749 DC       		.byte	0xdc
 2600 074a D2000000 		.4byte	0xd2
 2601 074e 02       		.byte	0x2
 2602 074f 91       		.byte	0x91
 2603 0750 70       		.sleb128 -16
 2604 0751 16       		.uleb128 0x16
 2605 0752 08000000 		.4byte	.LBB12
 2606 0756 10000000 		.4byte	.LBE12
 2607 075a 6C070000 		.4byte	0x76c
 2608 075e 17       		.uleb128 0x17
 2609 075f 746D7000 		.ascii	"tmp\000"
 2610 0763 01       		.byte	0x1
 2611 0764 DE       		.byte	0xde
 2612 0765 70000000 		.4byte	0x70
 2613 0769 01       		.byte	0x1
 2614 076a 53       		.byte	0x53
 2615 076b 00       		.byte	0x0
 2616 076c 18       		.uleb128 0x18
 2617 076d 24000000 		.4byte	.LBB13
 2618 0771 2C000000 		.4byte	.LBE13
 2619 0775 17       		.uleb128 0x17
 2620 0776 746D7000 		.ascii	"tmp\000"
 2621 077a 01       		.byte	0x1
 2622 077b E1       		.byte	0xe1
 2623 077c 70000000 		.4byte	0x70
 2624 0780 01       		.byte	0x1
 2625 0781 53       		.byte	0x53
 2626 0782 00       		.byte	0x0
 2627 0783 00       		.byte	0x0
 2628 0784 13       		.uleb128 0x13
 2629 0785 01       		.byte	0x1
 2630 0786 D3000000 		.4byte	.LASF77
 2631 078a 01       		.byte	0x1
 2632 078b F5       		.byte	0xf5
 2633 078c 01       		.byte	0x1
 2634 078d 00000000 		.4byte	.LFB14
 2635 0791 4C000000 		.4byte	.LFE14
 2636 0795 34010000 		.4byte	.LLST7
 2637 0799 C8070000 		.4byte	0x7c8
 2638 079d 14       		.uleb128 0x14
 2639 079e 65737000 		.ascii	"esp\000"
 2640 07a2 01       		.byte	0x1
 2641 07a3 F5       		.byte	0xf5
 2642 07a4 3E050000 		.4byte	0x53e
 2643 07a8 02       		.byte	0x2
 2644 07a9 91       		.byte	0x91
 2645 07aa 6C       		.sleb128 -20
ARM GAS  /tmp/ccJtFf5m.s 			page 48


 2646 07ab 15       		.uleb128 0x15
 2647 07ac F8000000 		.4byte	.LASF69
 2648 07b0 01       		.byte	0x1
 2649 07b1 F5       		.byte	0xf5
 2650 07b2 D2000000 		.4byte	0xd2
 2651 07b6 02       		.byte	0x2
 2652 07b7 91       		.byte	0x91
 2653 07b8 68       		.sleb128 -24
 2654 07b9 17       		.uleb128 0x17
 2655 07ba 656C7000 		.ascii	"elp\000"
 2656 07be 01       		.byte	0x1
 2657 07bf F6       		.byte	0xf6
 2658 07c0 2C040000 		.4byte	0x42c
 2659 07c4 02       		.byte	0x2
 2660 07c5 91       		.byte	0x91
 2661 07c6 74       		.sleb128 -12
 2662 07c7 00       		.byte	0x0
 2663 07c8 1A       		.uleb128 0x1a
 2664 07c9 01       		.byte	0x1
 2665 07ca 12020000 		.4byte	.LASF78
 2666 07ce 01       		.byte	0x1
 2667 07cf 0B01     		.2byte	0x10b
 2668 07d1 01       		.byte	0x1
 2669 07d2 00000000 		.4byte	.LFB15
 2670 07d6 88000000 		.4byte	.LFE15
 2671 07da 60010000 		.4byte	.LLST8
 2672 07de 10080000 		.4byte	0x810
 2673 07e2 1B       		.uleb128 0x1b
 2674 07e3 6B020000 		.4byte	.LASF79
 2675 07e7 01       		.byte	0x1
 2676 07e8 0B01     		.2byte	0x10b
 2677 07ea 10080000 		.4byte	0x810
 2678 07ee 02       		.byte	0x2
 2679 07ef 91       		.byte	0x91
 2680 07f0 6C       		.sleb128 -20
 2681 07f1 1B       		.uleb128 0x1b
 2682 07f2 F8000000 		.4byte	.LASF69
 2683 07f6 01       		.byte	0x1
 2684 07f7 0B01     		.2byte	0x10b
 2685 07f9 D2000000 		.4byte	0xd2
 2686 07fd 02       		.byte	0x2
 2687 07fe 91       		.byte	0x91
 2688 07ff 68       		.sleb128 -24
 2689 0800 1C       		.uleb128 0x1c
 2690 0801 65696400 		.ascii	"eid\000"
 2691 0805 01       		.byte	0x1
 2692 0806 0C01     		.2byte	0x10c
 2693 0808 C7000000 		.4byte	0xc7
 2694 080c 02       		.byte	0x2
 2695 080d 91       		.byte	0x91
 2696 080e 74       		.sleb128 -12
 2697 080f 00       		.byte	0x0
 2698 0810 09       		.uleb128 0x9
 2699 0811 04       		.byte	0x4
 2700 0812 16080000 		.4byte	0x816
 2701 0816 12       		.uleb128 0x12
 2702 0817 58040000 		.4byte	0x458
ARM GAS  /tmp/ccJtFf5m.s 			page 49


 2703 081b 1D       		.uleb128 0x1d
 2704 081c 01       		.byte	0x1
 2705 081d A9020000 		.4byte	.LASF80
 2706 0821 01       		.byte	0x1
 2707 0822 2E01     		.2byte	0x12e
 2708 0824 01       		.byte	0x1
 2709 0825 D2000000 		.4byte	0xd2
 2710 0829 00000000 		.4byte	.LFB16
 2711 082d 7C000000 		.4byte	.LFE16
 2712 0831 8C010000 		.4byte	.LLST9
 2713 0835 99080000 		.4byte	0x899
 2714 0839 1B       		.uleb128 0x1b
 2715 083a F8000000 		.4byte	.LASF69
 2716 083e 01       		.byte	0x1
 2717 083f 2E01     		.2byte	0x12e
 2718 0841 D2000000 		.4byte	0xd2
 2719 0845 02       		.byte	0x2
 2720 0846 91       		.byte	0x91
 2721 0847 6C       		.sleb128 -20
 2722 0848 1C       		.uleb128 0x1c
 2723 0849 63747000 		.ascii	"ctp\000"
 2724 084d 01       		.byte	0x1
 2725 084e 2F01     		.2byte	0x12f
 2726 0850 2C020000 		.4byte	0x22c
 2727 0854 02       		.byte	0x2
 2728 0855 91       		.byte	0x91
 2729 0856 70       		.sleb128 -16
 2730 0857 1C       		.uleb128 0x1c
 2731 0858 6D00     		.ascii	"m\000"
 2732 085a 01       		.byte	0x1
 2733 085b 3001     		.2byte	0x130
 2734 085d D2000000 		.4byte	0xd2
 2735 0861 02       		.byte	0x2
 2736 0862 91       		.byte	0x91
 2737 0863 74       		.sleb128 -12
 2738 0864 16       		.uleb128 0x16
 2739 0865 0C000000 		.4byte	.LBB14
 2740 0869 14000000 		.4byte	.LBE14
 2741 086d 80080000 		.4byte	0x880
 2742 0871 1C       		.uleb128 0x1c
 2743 0872 746D7000 		.ascii	"tmp\000"
 2744 0876 01       		.byte	0x1
 2745 0877 3201     		.2byte	0x132
 2746 0879 70000000 		.4byte	0x70
 2747 087d 01       		.byte	0x1
 2748 087e 53       		.byte	0x53
 2749 087f 00       		.byte	0x0
 2750 0880 18       		.uleb128 0x18
 2751 0881 66000000 		.4byte	.LBB15
 2752 0885 6E000000 		.4byte	.LBE15
 2753 0889 1C       		.uleb128 0x1c
 2754 088a 746D7000 		.ascii	"tmp\000"
 2755 088e 01       		.byte	0x1
 2756 088f 3C01     		.2byte	0x13c
 2757 0891 70000000 		.4byte	0x70
 2758 0895 01       		.byte	0x1
 2759 0896 53       		.byte	0x53
ARM GAS  /tmp/ccJtFf5m.s 			page 50


 2760 0897 00       		.byte	0x0
 2761 0898 00       		.byte	0x0
 2762 0899 1D       		.uleb128 0x1d
 2763 089a 01       		.byte	0x1
 2764 089b C6000000 		.4byte	.LASF81
 2765 089f 01       		.byte	0x1
 2766 08a0 4B01     		.2byte	0x14b
 2767 08a2 01       		.byte	0x1
 2768 08a3 D2000000 		.4byte	0xd2
 2769 08a7 00000000 		.4byte	.LFB17
 2770 08ab 6C000000 		.4byte	.LFE17
 2771 08af B8010000 		.4byte	.LLST10
 2772 08b3 17090000 		.4byte	0x917
 2773 08b7 1B       		.uleb128 0x1b
 2774 08b8 F8000000 		.4byte	.LASF69
 2775 08bc 01       		.byte	0x1
 2776 08bd 4B01     		.2byte	0x14b
 2777 08bf D2000000 		.4byte	0xd2
 2778 08c3 02       		.byte	0x2
 2779 08c4 91       		.byte	0x91
 2780 08c5 6C       		.sleb128 -20
 2781 08c6 1C       		.uleb128 0x1c
 2782 08c7 63747000 		.ascii	"ctp\000"
 2783 08cb 01       		.byte	0x1
 2784 08cc 4C01     		.2byte	0x14c
 2785 08ce 2C020000 		.4byte	0x22c
 2786 08d2 02       		.byte	0x2
 2787 08d3 91       		.byte	0x91
 2788 08d4 70       		.sleb128 -16
 2789 08d5 1C       		.uleb128 0x1c
 2790 08d6 6D00     		.ascii	"m\000"
 2791 08d8 01       		.byte	0x1
 2792 08d9 4D01     		.2byte	0x14d
 2793 08db D2000000 		.4byte	0xd2
 2794 08df 02       		.byte	0x2
 2795 08e0 91       		.byte	0x91
 2796 08e1 74       		.sleb128 -12
 2797 08e2 16       		.uleb128 0x16
 2798 08e3 0C000000 		.4byte	.LBB16
 2799 08e7 14000000 		.4byte	.LBE16
 2800 08eb FE080000 		.4byte	0x8fe
 2801 08ef 1C       		.uleb128 0x1c
 2802 08f0 746D7000 		.ascii	"tmp\000"
 2803 08f4 01       		.byte	0x1
 2804 08f5 4F01     		.2byte	0x14f
 2805 08f7 70000000 		.4byte	0x70
 2806 08fb 01       		.byte	0x1
 2807 08fc 53       		.byte	0x53
 2808 08fd 00       		.byte	0x0
 2809 08fe 18       		.uleb128 0x18
 2810 08ff 58000000 		.4byte	.LBB17
 2811 0903 60000000 		.4byte	.LBE17
 2812 0907 1C       		.uleb128 0x1c
 2813 0908 746D7000 		.ascii	"tmp\000"
 2814 090c 01       		.byte	0x1
 2815 090d 5801     		.2byte	0x158
 2816 090f 70000000 		.4byte	0x70
ARM GAS  /tmp/ccJtFf5m.s 			page 51


 2817 0913 01       		.byte	0x1
 2818 0914 53       		.byte	0x53
 2819 0915 00       		.byte	0x0
 2820 0916 00       		.byte	0x0
 2821 0917 1D       		.uleb128 0x1d
 2822 0918 01       		.byte	0x1
 2823 0919 B9000000 		.4byte	.LASF82
 2824 091d 01       		.byte	0x1
 2825 091e 6701     		.2byte	0x167
 2826 0920 01       		.byte	0x1
 2827 0921 D2000000 		.4byte	0xd2
 2828 0925 00000000 		.4byte	.LFB18
 2829 0929 5C000000 		.4byte	.LFE18
 2830 092d E4010000 		.4byte	.LLST11
 2831 0931 88090000 		.4byte	0x988
 2832 0935 1B       		.uleb128 0x1b
 2833 0936 F8000000 		.4byte	.LASF69
 2834 093a 01       		.byte	0x1
 2835 093b 6701     		.2byte	0x167
 2836 093d D2000000 		.4byte	0xd2
 2837 0941 02       		.byte	0x2
 2838 0942 91       		.byte	0x91
 2839 0943 6C       		.sleb128 -20
 2840 0944 1C       		.uleb128 0x1c
 2841 0945 63747000 		.ascii	"ctp\000"
 2842 0949 01       		.byte	0x1
 2843 094a 6801     		.2byte	0x168
 2844 094c 2C020000 		.4byte	0x22c
 2845 0950 02       		.byte	0x2
 2846 0951 91       		.byte	0x91
 2847 0952 74       		.sleb128 -12
 2848 0953 16       		.uleb128 0x16
 2849 0954 0C000000 		.4byte	.LBB18
 2850 0958 14000000 		.4byte	.LBE18
 2851 095c 6F090000 		.4byte	0x96f
 2852 0960 1C       		.uleb128 0x1c
 2853 0961 746D7000 		.ascii	"tmp\000"
 2854 0965 01       		.byte	0x1
 2855 0966 6A01     		.2byte	0x16a
 2856 0968 70000000 		.4byte	0x70
 2857 096c 01       		.byte	0x1
 2858 096d 53       		.byte	0x53
 2859 096e 00       		.byte	0x0
 2860 096f 18       		.uleb128 0x18
 2861 0970 48000000 		.4byte	.LBB19
 2862 0974 50000000 		.4byte	.LBE19
 2863 0978 1C       		.uleb128 0x1c
 2864 0979 746D7000 		.ascii	"tmp\000"
 2865 097d 01       		.byte	0x1
 2866 097e 7201     		.2byte	0x172
 2867 0980 70000000 		.4byte	0x70
 2868 0984 01       		.byte	0x1
 2869 0985 53       		.byte	0x53
 2870 0986 00       		.byte	0x0
 2871 0987 00       		.byte	0x0
 2872 0988 1D       		.uleb128 0x1d
 2873 0989 01       		.byte	0x1
ARM GAS  /tmp/ccJtFf5m.s 			page 52


 2874 098a B8030000 		.4byte	.LASF83
 2875 098e 01       		.byte	0x1
 2876 098f 8E01     		.2byte	0x18e
 2877 0991 01       		.byte	0x1
 2878 0992 D2000000 		.4byte	0xd2
 2879 0996 00000000 		.4byte	.LFB19
 2880 099a B0000000 		.4byte	.LFE19
 2881 099e 10020000 		.4byte	.LLST12
 2882 09a2 4D0A0000 		.4byte	0xa4d
 2883 09a6 1B       		.uleb128 0x1b
 2884 09a7 F8000000 		.4byte	.LASF69
 2885 09ab 01       		.byte	0x1
 2886 09ac 8E01     		.2byte	0x18e
 2887 09ae D2000000 		.4byte	0xd2
 2888 09b2 02       		.byte	0x2
 2889 09b3 91       		.byte	0x91
 2890 09b4 6C       		.sleb128 -20
 2891 09b5 1B       		.uleb128 0x1b
 2892 09b6 3B020000 		.4byte	.LASF84
 2893 09ba 01       		.byte	0x1
 2894 09bb 8E01     		.2byte	0x18e
 2895 09bd DD000000 		.4byte	0xdd
 2896 09c1 02       		.byte	0x2
 2897 09c2 91       		.byte	0x91
 2898 09c3 68       		.sleb128 -24
 2899 09c4 1C       		.uleb128 0x1c
 2900 09c5 63747000 		.ascii	"ctp\000"
 2901 09c9 01       		.byte	0x1
 2902 09ca 8F01     		.2byte	0x18f
 2903 09cc 2C020000 		.4byte	0x22c
 2904 09d0 02       		.byte	0x2
 2905 09d1 91       		.byte	0x91
 2906 09d2 70       		.sleb128 -16
 2907 09d3 1C       		.uleb128 0x1c
 2908 09d4 6D00     		.ascii	"m\000"
 2909 09d6 01       		.byte	0x1
 2910 09d7 9001     		.2byte	0x190
 2911 09d9 D2000000 		.4byte	0xd2
 2912 09dd 02       		.byte	0x2
 2913 09de 91       		.byte	0x91
 2914 09df 74       		.sleb128 -12
 2915 09e0 16       		.uleb128 0x16
 2916 09e1 0E000000 		.4byte	.LBB20
 2917 09e5 16000000 		.4byte	.LBE20
 2918 09e9 FC090000 		.4byte	0x9fc
 2919 09ed 1C       		.uleb128 0x1c
 2920 09ee 746D7000 		.ascii	"tmp\000"
 2921 09f2 01       		.byte	0x1
 2922 09f3 9201     		.2byte	0x192
 2923 09f5 70000000 		.4byte	0x70
 2924 09f9 01       		.byte	0x1
 2925 09fa 53       		.byte	0x53
 2926 09fb 00       		.byte	0x0
 2927 09fc 16       		.uleb128 0x16
 2928 09fd 36000000 		.4byte	.LBB21
 2929 0a01 3E000000 		.4byte	.LBE21
 2930 0a05 180A0000 		.4byte	0xa18
ARM GAS  /tmp/ccJtFf5m.s 			page 53


 2931 0a09 1C       		.uleb128 0x1c
 2932 0a0a 746D7000 		.ascii	"tmp\000"
 2933 0a0e 01       		.byte	0x1
 2934 0a0f 9601     		.2byte	0x196
 2935 0a11 70000000 		.4byte	0x70
 2936 0a15 01       		.byte	0x1
 2937 0a16 53       		.byte	0x53
 2938 0a17 00       		.byte	0x0
 2939 0a18 16       		.uleb128 0x16
 2940 0a19 5E000000 		.4byte	.LBB22
 2941 0a1d 66000000 		.4byte	.LBE22
 2942 0a21 340A0000 		.4byte	0xa34
 2943 0a25 1C       		.uleb128 0x1c
 2944 0a26 746D7000 		.ascii	"tmp\000"
 2945 0a2a 01       		.byte	0x1
 2946 0a2b 9B01     		.2byte	0x19b
 2947 0a2d 70000000 		.4byte	0x70
 2948 0a31 01       		.byte	0x1
 2949 0a32 53       		.byte	0x53
 2950 0a33 00       		.byte	0x0
 2951 0a34 18       		.uleb128 0x18
 2952 0a35 9A000000 		.4byte	.LBB23
 2953 0a39 A2000000 		.4byte	.LBE23
 2954 0a3d 1C       		.uleb128 0x1c
 2955 0a3e 746D7000 		.ascii	"tmp\000"
 2956 0a42 01       		.byte	0x1
 2957 0a43 A301     		.2byte	0x1a3
 2958 0a45 70000000 		.4byte	0x70
 2959 0a49 01       		.byte	0x1
 2960 0a4a 53       		.byte	0x53
 2961 0a4b 00       		.byte	0x0
 2962 0a4c 00       		.byte	0x0
 2963 0a4d 1D       		.uleb128 0x1d
 2964 0a4e 01       		.byte	0x1
 2965 0a4f 48000000 		.4byte	.LASF85
 2966 0a53 01       		.byte	0x1
 2967 0a54 B901     		.2byte	0x1b9
 2968 0a56 01       		.byte	0x1
 2969 0a57 D2000000 		.4byte	0xd2
 2970 0a5b 00000000 		.4byte	.LFB20
 2971 0a5f A0000000 		.4byte	.LFE20
 2972 0a63 3C020000 		.4byte	.LLST13
 2973 0a67 120B0000 		.4byte	0xb12
 2974 0a6b 1B       		.uleb128 0x1b
 2975 0a6c F8000000 		.4byte	.LASF69
 2976 0a70 01       		.byte	0x1
 2977 0a71 B901     		.2byte	0x1b9
 2978 0a73 D2000000 		.4byte	0xd2
 2979 0a77 02       		.byte	0x2
 2980 0a78 91       		.byte	0x91
 2981 0a79 6C       		.sleb128 -20
 2982 0a7a 1B       		.uleb128 0x1b
 2983 0a7b 3B020000 		.4byte	.LASF84
 2984 0a7f 01       		.byte	0x1
 2985 0a80 B901     		.2byte	0x1b9
 2986 0a82 DD000000 		.4byte	0xdd
 2987 0a86 02       		.byte	0x2
ARM GAS  /tmp/ccJtFf5m.s 			page 54


 2988 0a87 91       		.byte	0x91
 2989 0a88 68       		.sleb128 -24
 2990 0a89 1C       		.uleb128 0x1c
 2991 0a8a 63747000 		.ascii	"ctp\000"
 2992 0a8e 01       		.byte	0x1
 2993 0a8f BA01     		.2byte	0x1ba
 2994 0a91 2C020000 		.4byte	0x22c
 2995 0a95 02       		.byte	0x2
 2996 0a96 91       		.byte	0x91
 2997 0a97 70       		.sleb128 -16
 2998 0a98 1C       		.uleb128 0x1c
 2999 0a99 6D00     		.ascii	"m\000"
 3000 0a9b 01       		.byte	0x1
 3001 0a9c BB01     		.2byte	0x1bb
 3002 0a9e D2000000 		.4byte	0xd2
 3003 0aa2 02       		.byte	0x2
 3004 0aa3 91       		.byte	0x91
 3005 0aa4 74       		.sleb128 -12
 3006 0aa5 16       		.uleb128 0x16
 3007 0aa6 0E000000 		.4byte	.LBB24
 3008 0aaa 16000000 		.4byte	.LBE24
 3009 0aae C10A0000 		.4byte	0xac1
 3010 0ab2 1C       		.uleb128 0x1c
 3011 0ab3 746D7000 		.ascii	"tmp\000"
 3012 0ab7 01       		.byte	0x1
 3013 0ab8 BD01     		.2byte	0x1bd
 3014 0aba 70000000 		.4byte	0x70
 3015 0abe 01       		.byte	0x1
 3016 0abf 53       		.byte	0x53
 3017 0ac0 00       		.byte	0x0
 3018 0ac1 16       		.uleb128 0x16
 3019 0ac2 36000000 		.4byte	.LBB25
 3020 0ac6 3E000000 		.4byte	.LBE25
 3021 0aca DD0A0000 		.4byte	0xadd
 3022 0ace 1C       		.uleb128 0x1c
 3023 0acf 746D7000 		.ascii	"tmp\000"
 3024 0ad3 01       		.byte	0x1
 3025 0ad4 C101     		.2byte	0x1c1
 3026 0ad6 70000000 		.4byte	0x70
 3027 0ada 01       		.byte	0x1
 3028 0adb 53       		.byte	0x53
 3029 0adc 00       		.byte	0x0
 3030 0add 16       		.uleb128 0x16
 3031 0ade 5E000000 		.4byte	.LBB26
 3032 0ae2 66000000 		.4byte	.LBE26
 3033 0ae6 F90A0000 		.4byte	0xaf9
 3034 0aea 1C       		.uleb128 0x1c
 3035 0aeb 746D7000 		.ascii	"tmp\000"
 3036 0aef 01       		.byte	0x1
 3037 0af0 C601     		.2byte	0x1c6
 3038 0af2 70000000 		.4byte	0x70
 3039 0af6 01       		.byte	0x1
 3040 0af7 53       		.byte	0x53
 3041 0af8 00       		.byte	0x0
 3042 0af9 18       		.uleb128 0x18
 3043 0afa 8C000000 		.4byte	.LBB27
 3044 0afe 94000000 		.4byte	.LBE27
ARM GAS  /tmp/ccJtFf5m.s 			page 55


 3045 0b02 1C       		.uleb128 0x1c
 3046 0b03 746D7000 		.ascii	"tmp\000"
 3047 0b07 01       		.byte	0x1
 3048 0b08 CD01     		.2byte	0x1cd
 3049 0b0a 70000000 		.4byte	0x70
 3050 0b0e 01       		.byte	0x1
 3051 0b0f 53       		.byte	0x53
 3052 0b10 00       		.byte	0x0
 3053 0b11 00       		.byte	0x0
 3054 0b12 1D       		.uleb128 0x1d
 3055 0b13 01       		.byte	0x1
 3056 0b14 7D000000 		.4byte	.LASF86
 3057 0b18 01       		.byte	0x1
 3058 0b19 E201     		.2byte	0x1e2
 3059 0b1b 01       		.byte	0x1
 3060 0b1c D2000000 		.4byte	0xd2
 3061 0b20 00000000 		.4byte	.LFB21
 3062 0b24 90000000 		.4byte	.LFE21
 3063 0b28 68020000 		.4byte	.LLST14
 3064 0b2c CA0B0000 		.4byte	0xbca
 3065 0b30 1B       		.uleb128 0x1b
 3066 0b31 F8000000 		.4byte	.LASF69
 3067 0b35 01       		.byte	0x1
 3068 0b36 E201     		.2byte	0x1e2
 3069 0b38 D2000000 		.4byte	0xd2
 3070 0b3c 02       		.byte	0x2
 3071 0b3d 91       		.byte	0x91
 3072 0b3e 6C       		.sleb128 -20
 3073 0b3f 1B       		.uleb128 0x1b
 3074 0b40 3B020000 		.4byte	.LASF84
 3075 0b44 01       		.byte	0x1
 3076 0b45 E201     		.2byte	0x1e2
 3077 0b47 DD000000 		.4byte	0xdd
 3078 0b4b 02       		.byte	0x2
 3079 0b4c 91       		.byte	0x91
 3080 0b4d 68       		.sleb128 -24
 3081 0b4e 1C       		.uleb128 0x1c
 3082 0b4f 63747000 		.ascii	"ctp\000"
 3083 0b53 01       		.byte	0x1
 3084 0b54 E301     		.2byte	0x1e3
 3085 0b56 2C020000 		.4byte	0x22c
 3086 0b5a 02       		.byte	0x2
 3087 0b5b 91       		.byte	0x91
 3088 0b5c 74       		.sleb128 -12
 3089 0b5d 16       		.uleb128 0x16
 3090 0b5e 0E000000 		.4byte	.LBB28
 3091 0b62 16000000 		.4byte	.LBE28
 3092 0b66 790B0000 		.4byte	0xb79
 3093 0b6a 1C       		.uleb128 0x1c
 3094 0b6b 746D7000 		.ascii	"tmp\000"
 3095 0b6f 01       		.byte	0x1
 3096 0b70 E501     		.2byte	0x1e5
 3097 0b72 70000000 		.4byte	0x70
 3098 0b76 01       		.byte	0x1
 3099 0b77 53       		.byte	0x53
 3100 0b78 00       		.byte	0x0
 3101 0b79 16       		.uleb128 0x16
ARM GAS  /tmp/ccJtFf5m.s 			page 56


 3102 0b7a 32000000 		.4byte	.LBB29
 3103 0b7e 3A000000 		.4byte	.LBE29
 3104 0b82 950B0000 		.4byte	0xb95
 3105 0b86 1C       		.uleb128 0x1c
 3106 0b87 746D7000 		.ascii	"tmp\000"
 3107 0b8b 01       		.byte	0x1
 3108 0b8c E901     		.2byte	0x1e9
 3109 0b8e 70000000 		.4byte	0x70
 3110 0b92 01       		.byte	0x1
 3111 0b93 53       		.byte	0x53
 3112 0b94 00       		.byte	0x0
 3113 0b95 16       		.uleb128 0x16
 3114 0b96 5A000000 		.4byte	.LBB30
 3115 0b9a 62000000 		.4byte	.LBE30
 3116 0b9e B10B0000 		.4byte	0xbb1
 3117 0ba2 1C       		.uleb128 0x1c
 3118 0ba3 746D7000 		.ascii	"tmp\000"
 3119 0ba7 01       		.byte	0x1
 3120 0ba8 EE01     		.2byte	0x1ee
 3121 0baa 70000000 		.4byte	0x70
 3122 0bae 01       		.byte	0x1
 3123 0baf 53       		.byte	0x53
 3124 0bb0 00       		.byte	0x0
 3125 0bb1 18       		.uleb128 0x18
 3126 0bb2 7C000000 		.4byte	.LBB31
 3127 0bb6 84000000 		.4byte	.LBE31
 3128 0bba 1C       		.uleb128 0x1c
 3129 0bbb 746D7000 		.ascii	"tmp\000"
 3130 0bbf 01       		.byte	0x1
 3131 0bc0 F401     		.2byte	0x1f4
 3132 0bc2 70000000 		.4byte	0x70
 3133 0bc6 01       		.byte	0x1
 3134 0bc7 53       		.byte	0x53
 3135 0bc8 00       		.byte	0x0
 3136 0bc9 00       		.byte	0x0
 3137 0bca 1E       		.uleb128 0x1e
 3138 0bcb 9C030000 		.4byte	.LASF87
 3139 0bcf 07       		.byte	0x7
 3140 0bd0 72       		.byte	0x72
 3141 0bd1 97030000 		.4byte	0x397
 3142 0bd5 01       		.byte	0x1
 3143 0bd6 01       		.byte	0x1
 3144 0bd7 1E       		.uleb128 0x1e
 3145 0bd8 9C030000 		.4byte	.LASF87
 3146 0bdc 07       		.byte	0x7
 3147 0bdd 72       		.byte	0x72
 3148 0bde 97030000 		.4byte	0x397
 3149 0be2 01       		.byte	0x1
 3150 0be3 01       		.byte	0x1
 3151 0be4 00       		.byte	0x0
 3152              		.section	.debug_abbrev
 3153 0000 01       		.uleb128 0x1
 3154 0001 11       		.uleb128 0x11
 3155 0002 01       		.byte	0x1
 3156 0003 25       		.uleb128 0x25
 3157 0004 0E       		.uleb128 0xe
 3158 0005 13       		.uleb128 0x13
ARM GAS  /tmp/ccJtFf5m.s 			page 57


 3159 0006 0B       		.uleb128 0xb
 3160 0007 03       		.uleb128 0x3
 3161 0008 0E       		.uleb128 0xe
 3162 0009 1B       		.uleb128 0x1b
 3163 000a 0E       		.uleb128 0xe
 3164 000b 11       		.uleb128 0x11
 3165 000c 01       		.uleb128 0x1
 3166 000d 52       		.uleb128 0x52
 3167 000e 01       		.uleb128 0x1
 3168 000f 55       		.uleb128 0x55
 3169 0010 06       		.uleb128 0x6
 3170 0011 10       		.uleb128 0x10
 3171 0012 06       		.uleb128 0x6
 3172 0013 00       		.byte	0x0
 3173 0014 00       		.byte	0x0
 3174 0015 02       		.uleb128 0x2
 3175 0016 24       		.uleb128 0x24
 3176 0017 00       		.byte	0x0
 3177 0018 0B       		.uleb128 0xb
 3178 0019 0B       		.uleb128 0xb
 3179 001a 3E       		.uleb128 0x3e
 3180 001b 0B       		.uleb128 0xb
 3181 001c 03       		.uleb128 0x3
 3182 001d 08       		.uleb128 0x8
 3183 001e 00       		.byte	0x0
 3184 001f 00       		.byte	0x0
 3185 0020 03       		.uleb128 0x3
 3186 0021 24       		.uleb128 0x24
 3187 0022 00       		.byte	0x0
 3188 0023 0B       		.uleb128 0xb
 3189 0024 0B       		.uleb128 0xb
 3190 0025 3E       		.uleb128 0x3e
 3191 0026 0B       		.uleb128 0xb
 3192 0027 03       		.uleb128 0x3
 3193 0028 0E       		.uleb128 0xe
 3194 0029 00       		.byte	0x0
 3195 002a 00       		.byte	0x0
 3196 002b 04       		.uleb128 0x4
 3197 002c 16       		.uleb128 0x16
 3198 002d 00       		.byte	0x0
 3199 002e 03       		.uleb128 0x3
 3200 002f 0E       		.uleb128 0xe
 3201 0030 3A       		.uleb128 0x3a
 3202 0031 0B       		.uleb128 0xb
 3203 0032 3B       		.uleb128 0x3b
 3204 0033 0B       		.uleb128 0xb
 3205 0034 49       		.uleb128 0x49
 3206 0035 13       		.uleb128 0x13
 3207 0036 00       		.byte	0x0
 3208 0037 00       		.byte	0x0
 3209 0038 05       		.uleb128 0x5
 3210 0039 13       		.uleb128 0x13
 3211 003a 01       		.byte	0x1
 3212 003b 03       		.uleb128 0x3
 3213 003c 0E       		.uleb128 0xe
 3214 003d 0B       		.uleb128 0xb
 3215 003e 0B       		.uleb128 0xb
ARM GAS  /tmp/ccJtFf5m.s 			page 58


 3216 003f 3A       		.uleb128 0x3a
 3217 0040 0B       		.uleb128 0xb
 3218 0041 3B       		.uleb128 0x3b
 3219 0042 0B       		.uleb128 0xb
 3220 0043 01       		.uleb128 0x1
 3221 0044 13       		.uleb128 0x13
 3222 0045 00       		.byte	0x0
 3223 0046 00       		.byte	0x0
 3224 0047 06       		.uleb128 0x6
 3225 0048 0D       		.uleb128 0xd
 3226 0049 00       		.byte	0x0
 3227 004a 03       		.uleb128 0x3
 3228 004b 0E       		.uleb128 0xe
 3229 004c 3A       		.uleb128 0x3a
 3230 004d 0B       		.uleb128 0xb
 3231 004e 3B       		.uleb128 0x3b
 3232 004f 0B       		.uleb128 0xb
 3233 0050 49       		.uleb128 0x49
 3234 0051 13       		.uleb128 0x13
 3235 0052 38       		.uleb128 0x38
 3236 0053 0A       		.uleb128 0xa
 3237 0054 00       		.byte	0x0
 3238 0055 00       		.byte	0x0
 3239 0056 07       		.uleb128 0x7
 3240 0057 0D       		.uleb128 0xd
 3241 0058 00       		.byte	0x0
 3242 0059 03       		.uleb128 0x3
 3243 005a 08       		.uleb128 0x8
 3244 005b 3A       		.uleb128 0x3a
 3245 005c 0B       		.uleb128 0xb
 3246 005d 3B       		.uleb128 0x3b
 3247 005e 0B       		.uleb128 0xb
 3248 005f 49       		.uleb128 0x49
 3249 0060 13       		.uleb128 0x13
 3250 0061 38       		.uleb128 0x38
 3251 0062 0A       		.uleb128 0xa
 3252 0063 00       		.byte	0x0
 3253 0064 00       		.byte	0x0
 3254 0065 08       		.uleb128 0x8
 3255 0066 13       		.uleb128 0x13
 3256 0067 01       		.byte	0x1
 3257 0068 0B       		.uleb128 0xb
 3258 0069 0B       		.uleb128 0xb
 3259 006a 3A       		.uleb128 0x3a
 3260 006b 0B       		.uleb128 0xb
 3261 006c 3B       		.uleb128 0x3b
 3262 006d 0B       		.uleb128 0xb
 3263 006e 01       		.uleb128 0x1
 3264 006f 13       		.uleb128 0x13
 3265 0070 00       		.byte	0x0
 3266 0071 00       		.byte	0x0
 3267 0072 09       		.uleb128 0x9
 3268 0073 0F       		.uleb128 0xf
 3269 0074 00       		.byte	0x0
 3270 0075 0B       		.uleb128 0xb
 3271 0076 0B       		.uleb128 0xb
 3272 0077 49       		.uleb128 0x49
ARM GAS  /tmp/ccJtFf5m.s 			page 59


 3273 0078 13       		.uleb128 0x13
 3274 0079 00       		.byte	0x0
 3275 007a 00       		.byte	0x0
 3276 007b 0A       		.uleb128 0xa
 3277 007c 0F       		.uleb128 0xf
 3278 007d 00       		.byte	0x0
 3279 007e 0B       		.uleb128 0xb
 3280 007f 0B       		.uleb128 0xb
 3281 0080 00       		.byte	0x0
 3282 0081 00       		.byte	0x0
 3283 0082 0B       		.uleb128 0xb
 3284 0083 0D       		.uleb128 0xd
 3285 0084 00       		.byte	0x0
 3286 0085 03       		.uleb128 0x3
 3287 0086 08       		.uleb128 0x8
 3288 0087 3A       		.uleb128 0x3a
 3289 0088 0B       		.uleb128 0xb
 3290 0089 3B       		.uleb128 0x3b
 3291 008a 05       		.uleb128 0x5
 3292 008b 49       		.uleb128 0x49
 3293 008c 13       		.uleb128 0x13
 3294 008d 38       		.uleb128 0x38
 3295 008e 0A       		.uleb128 0xa
 3296 008f 00       		.byte	0x0
 3297 0090 00       		.byte	0x0
 3298 0091 0C       		.uleb128 0xc
 3299 0092 13       		.uleb128 0x13
 3300 0093 01       		.byte	0x1
 3301 0094 03       		.uleb128 0x3
 3302 0095 0E       		.uleb128 0xe
 3303 0096 0B       		.uleb128 0xb
 3304 0097 0B       		.uleb128 0xb
 3305 0098 3A       		.uleb128 0x3a
 3306 0099 0B       		.uleb128 0xb
 3307 009a 3B       		.uleb128 0x3b
 3308 009b 05       		.uleb128 0x5
 3309 009c 01       		.uleb128 0x1
 3310 009d 13       		.uleb128 0x13
 3311 009e 00       		.byte	0x0
 3312 009f 00       		.byte	0x0
 3313 00a0 0D       		.uleb128 0xd
 3314 00a1 35       		.uleb128 0x35
 3315 00a2 00       		.byte	0x0
 3316 00a3 49       		.uleb128 0x49
 3317 00a4 13       		.uleb128 0x13
 3318 00a5 00       		.byte	0x0
 3319 00a6 00       		.byte	0x0
 3320 00a7 0E       		.uleb128 0xe
 3321 00a8 15       		.uleb128 0x15
 3322 00a9 01       		.byte	0x1
 3323 00aa 27       		.uleb128 0x27
 3324 00ab 0C       		.uleb128 0xc
 3325 00ac 01       		.uleb128 0x1
 3326 00ad 13       		.uleb128 0x13
 3327 00ae 00       		.byte	0x0
 3328 00af 00       		.byte	0x0
 3329 00b0 0F       		.uleb128 0xf
ARM GAS  /tmp/ccJtFf5m.s 			page 60


 3330 00b1 05       		.uleb128 0x5
 3331 00b2 00       		.byte	0x0
 3332 00b3 49       		.uleb128 0x49
 3333 00b4 13       		.uleb128 0x13
 3334 00b5 00       		.byte	0x0
 3335 00b6 00       		.byte	0x0
 3336 00b7 10       		.uleb128 0x10
 3337 00b8 17       		.uleb128 0x17
 3338 00b9 01       		.byte	0x1
 3339 00ba 0B       		.uleb128 0xb
 3340 00bb 0B       		.uleb128 0xb
 3341 00bc 3A       		.uleb128 0x3a
 3342 00bd 0B       		.uleb128 0xb
 3343 00be 3B       		.uleb128 0x3b
 3344 00bf 0B       		.uleb128 0xb
 3345 00c0 01       		.uleb128 0x1
 3346 00c1 13       		.uleb128 0x13
 3347 00c2 00       		.byte	0x0
 3348 00c3 00       		.byte	0x0
 3349 00c4 11       		.uleb128 0x11
 3350 00c5 0D       		.uleb128 0xd
 3351 00c6 00       		.byte	0x0
 3352 00c7 03       		.uleb128 0x3
 3353 00c8 0E       		.uleb128 0xe
 3354 00c9 3A       		.uleb128 0x3a
 3355 00ca 0B       		.uleb128 0xb
 3356 00cb 3B       		.uleb128 0x3b
 3357 00cc 0B       		.uleb128 0xb
 3358 00cd 49       		.uleb128 0x49
 3359 00ce 13       		.uleb128 0x13
 3360 00cf 00       		.byte	0x0
 3361 00d0 00       		.byte	0x0
 3362 00d1 12       		.uleb128 0x12
 3363 00d2 26       		.uleb128 0x26
 3364 00d3 00       		.byte	0x0
 3365 00d4 49       		.uleb128 0x49
 3366 00d5 13       		.uleb128 0x13
 3367 00d6 00       		.byte	0x0
 3368 00d7 00       		.byte	0x0
 3369 00d8 13       		.uleb128 0x13
 3370 00d9 2E       		.uleb128 0x2e
 3371 00da 01       		.byte	0x1
 3372 00db 3F       		.uleb128 0x3f
 3373 00dc 0C       		.uleb128 0xc
 3374 00dd 03       		.uleb128 0x3
 3375 00de 0E       		.uleb128 0xe
 3376 00df 3A       		.uleb128 0x3a
 3377 00e0 0B       		.uleb128 0xb
 3378 00e1 3B       		.uleb128 0x3b
 3379 00e2 0B       		.uleb128 0xb
 3380 00e3 27       		.uleb128 0x27
 3381 00e4 0C       		.uleb128 0xc
 3382 00e5 11       		.uleb128 0x11
 3383 00e6 01       		.uleb128 0x1
 3384 00e7 12       		.uleb128 0x12
 3385 00e8 01       		.uleb128 0x1
 3386 00e9 40       		.uleb128 0x40
ARM GAS  /tmp/ccJtFf5m.s 			page 61


 3387 00ea 06       		.uleb128 0x6
 3388 00eb 01       		.uleb128 0x1
 3389 00ec 13       		.uleb128 0x13
 3390 00ed 00       		.byte	0x0
 3391 00ee 00       		.byte	0x0
 3392 00ef 14       		.uleb128 0x14
 3393 00f0 05       		.uleb128 0x5
 3394 00f1 00       		.byte	0x0
 3395 00f2 03       		.uleb128 0x3
 3396 00f3 08       		.uleb128 0x8
 3397 00f4 3A       		.uleb128 0x3a
 3398 00f5 0B       		.uleb128 0xb
 3399 00f6 3B       		.uleb128 0x3b
 3400 00f7 0B       		.uleb128 0xb
 3401 00f8 49       		.uleb128 0x49
 3402 00f9 13       		.uleb128 0x13
 3403 00fa 02       		.uleb128 0x2
 3404 00fb 0A       		.uleb128 0xa
 3405 00fc 00       		.byte	0x0
 3406 00fd 00       		.byte	0x0
 3407 00fe 15       		.uleb128 0x15
 3408 00ff 05       		.uleb128 0x5
 3409 0100 00       		.byte	0x0
 3410 0101 03       		.uleb128 0x3
 3411 0102 0E       		.uleb128 0xe
 3412 0103 3A       		.uleb128 0x3a
 3413 0104 0B       		.uleb128 0xb
 3414 0105 3B       		.uleb128 0x3b
 3415 0106 0B       		.uleb128 0xb
 3416 0107 49       		.uleb128 0x49
 3417 0108 13       		.uleb128 0x13
 3418 0109 02       		.uleb128 0x2
 3419 010a 0A       		.uleb128 0xa
 3420 010b 00       		.byte	0x0
 3421 010c 00       		.byte	0x0
 3422 010d 16       		.uleb128 0x16
 3423 010e 0B       		.uleb128 0xb
 3424 010f 01       		.byte	0x1
 3425 0110 11       		.uleb128 0x11
 3426 0111 01       		.uleb128 0x1
 3427 0112 12       		.uleb128 0x12
 3428 0113 01       		.uleb128 0x1
 3429 0114 01       		.uleb128 0x1
 3430 0115 13       		.uleb128 0x13
 3431 0116 00       		.byte	0x0
 3432 0117 00       		.byte	0x0
 3433 0118 17       		.uleb128 0x17
 3434 0119 34       		.uleb128 0x34
 3435 011a 00       		.byte	0x0
 3436 011b 03       		.uleb128 0x3
 3437 011c 08       		.uleb128 0x8
 3438 011d 3A       		.uleb128 0x3a
 3439 011e 0B       		.uleb128 0xb
 3440 011f 3B       		.uleb128 0x3b
 3441 0120 0B       		.uleb128 0xb
 3442 0121 49       		.uleb128 0x49
 3443 0122 13       		.uleb128 0x13
ARM GAS  /tmp/ccJtFf5m.s 			page 62


 3444 0123 02       		.uleb128 0x2
 3445 0124 0A       		.uleb128 0xa
 3446 0125 00       		.byte	0x0
 3447 0126 00       		.byte	0x0
 3448 0127 18       		.uleb128 0x18
 3449 0128 0B       		.uleb128 0xb
 3450 0129 01       		.byte	0x1
 3451 012a 11       		.uleb128 0x11
 3452 012b 01       		.uleb128 0x1
 3453 012c 12       		.uleb128 0x12
 3454 012d 01       		.uleb128 0x1
 3455 012e 00       		.byte	0x0
 3456 012f 00       		.byte	0x0
 3457 0130 19       		.uleb128 0x19
 3458 0131 2E       		.uleb128 0x2e
 3459 0132 01       		.byte	0x1
 3460 0133 3F       		.uleb128 0x3f
 3461 0134 0C       		.uleb128 0xc
 3462 0135 03       		.uleb128 0x3
 3463 0136 0E       		.uleb128 0xe
 3464 0137 3A       		.uleb128 0x3a
 3465 0138 0B       		.uleb128 0xb
 3466 0139 3B       		.uleb128 0x3b
 3467 013a 0B       		.uleb128 0xb
 3468 013b 27       		.uleb128 0x27
 3469 013c 0C       		.uleb128 0xc
 3470 013d 49       		.uleb128 0x49
 3471 013e 13       		.uleb128 0x13
 3472 013f 11       		.uleb128 0x11
 3473 0140 01       		.uleb128 0x1
 3474 0141 12       		.uleb128 0x12
 3475 0142 01       		.uleb128 0x1
 3476 0143 40       		.uleb128 0x40
 3477 0144 06       		.uleb128 0x6
 3478 0145 01       		.uleb128 0x1
 3479 0146 13       		.uleb128 0x13
 3480 0147 00       		.byte	0x0
 3481 0148 00       		.byte	0x0
 3482 0149 1A       		.uleb128 0x1a
 3483 014a 2E       		.uleb128 0x2e
 3484 014b 01       		.byte	0x1
 3485 014c 3F       		.uleb128 0x3f
 3486 014d 0C       		.uleb128 0xc
 3487 014e 03       		.uleb128 0x3
 3488 014f 0E       		.uleb128 0xe
 3489 0150 3A       		.uleb128 0x3a
 3490 0151 0B       		.uleb128 0xb
 3491 0152 3B       		.uleb128 0x3b
 3492 0153 05       		.uleb128 0x5
 3493 0154 27       		.uleb128 0x27
 3494 0155 0C       		.uleb128 0xc
 3495 0156 11       		.uleb128 0x11
 3496 0157 01       		.uleb128 0x1
 3497 0158 12       		.uleb128 0x12
 3498 0159 01       		.uleb128 0x1
 3499 015a 40       		.uleb128 0x40
 3500 015b 06       		.uleb128 0x6
ARM GAS  /tmp/ccJtFf5m.s 			page 63


 3501 015c 01       		.uleb128 0x1
 3502 015d 13       		.uleb128 0x13
 3503 015e 00       		.byte	0x0
 3504 015f 00       		.byte	0x0
 3505 0160 1B       		.uleb128 0x1b
 3506 0161 05       		.uleb128 0x5
 3507 0162 00       		.byte	0x0
 3508 0163 03       		.uleb128 0x3
 3509 0164 0E       		.uleb128 0xe
 3510 0165 3A       		.uleb128 0x3a
 3511 0166 0B       		.uleb128 0xb
 3512 0167 3B       		.uleb128 0x3b
 3513 0168 05       		.uleb128 0x5
 3514 0169 49       		.uleb128 0x49
 3515 016a 13       		.uleb128 0x13
 3516 016b 02       		.uleb128 0x2
 3517 016c 0A       		.uleb128 0xa
 3518 016d 00       		.byte	0x0
 3519 016e 00       		.byte	0x0
 3520 016f 1C       		.uleb128 0x1c
 3521 0170 34       		.uleb128 0x34
 3522 0171 00       		.byte	0x0
 3523 0172 03       		.uleb128 0x3
 3524 0173 08       		.uleb128 0x8
 3525 0174 3A       		.uleb128 0x3a
 3526 0175 0B       		.uleb128 0xb
 3527 0176 3B       		.uleb128 0x3b
 3528 0177 05       		.uleb128 0x5
 3529 0178 49       		.uleb128 0x49
 3530 0179 13       		.uleb128 0x13
 3531 017a 02       		.uleb128 0x2
 3532 017b 0A       		.uleb128 0xa
 3533 017c 00       		.byte	0x0
 3534 017d 00       		.byte	0x0
 3535 017e 1D       		.uleb128 0x1d
 3536 017f 2E       		.uleb128 0x2e
 3537 0180 01       		.byte	0x1
 3538 0181 3F       		.uleb128 0x3f
 3539 0182 0C       		.uleb128 0xc
 3540 0183 03       		.uleb128 0x3
 3541 0184 0E       		.uleb128 0xe
 3542 0185 3A       		.uleb128 0x3a
 3543 0186 0B       		.uleb128 0xb
 3544 0187 3B       		.uleb128 0x3b
 3545 0188 05       		.uleb128 0x5
 3546 0189 27       		.uleb128 0x27
 3547 018a 0C       		.uleb128 0xc
 3548 018b 49       		.uleb128 0x49
 3549 018c 13       		.uleb128 0x13
 3550 018d 11       		.uleb128 0x11
 3551 018e 01       		.uleb128 0x1
 3552 018f 12       		.uleb128 0x12
 3553 0190 01       		.uleb128 0x1
 3554 0191 40       		.uleb128 0x40
 3555 0192 06       		.uleb128 0x6
 3556 0193 01       		.uleb128 0x1
 3557 0194 13       		.uleb128 0x13
ARM GAS  /tmp/ccJtFf5m.s 			page 64


 3558 0195 00       		.byte	0x0
 3559 0196 00       		.byte	0x0
 3560 0197 1E       		.uleb128 0x1e
 3561 0198 34       		.uleb128 0x34
 3562 0199 00       		.byte	0x0
 3563 019a 03       		.uleb128 0x3
 3564 019b 0E       		.uleb128 0xe
 3565 019c 3A       		.uleb128 0x3a
 3566 019d 0B       		.uleb128 0xb
 3567 019e 3B       		.uleb128 0x3b
 3568 019f 0B       		.uleb128 0xb
 3569 01a0 49       		.uleb128 0x49
 3570 01a1 13       		.uleb128 0x13
 3571 01a2 3F       		.uleb128 0x3f
 3572 01a3 0C       		.uleb128 0xc
 3573 01a4 3C       		.uleb128 0x3c
 3574 01a5 0C       		.uleb128 0xc
 3575 01a6 00       		.byte	0x0
 3576 01a7 00       		.byte	0x0
 3577 01a8 00       		.byte	0x0
 3578              		.section	.debug_pubnames,"",%progbits
 3579 0000 47010000 		.4byte	0x147
 3580 0004 0200     		.2byte	0x2
 3581 0006 00000000 		.4byte	.Ldebug_info0
 3582 000a E50B0000 		.4byte	0xbe5
 3583 000e C8040000 		.4byte	0x4c8
 3584 0012 63684576 		.ascii	"chEvtRegisterMask\000"
 3584      74526567 
 3584      69737465 
 3584      724D6173 
 3584      6B00
 3585 0024 44050000 		.4byte	0x544
 3586 0028 63684576 		.ascii	"chEvtUnregister\000"
 3586      74556E72 
 3586      65676973 
 3586      74657200 
 3587 0038 B8050000 		.4byte	0x5b8
 3588 003c 63684576 		.ascii	"chEvtClearFlags\000"
 3588      74436C65 
 3588      6172466C 
 3588      61677300 
 3589 004c 22060000 		.4byte	0x622
 3590 0050 63684576 		.ascii	"chEvtAddFlags\000"
 3590      74416464 
 3590      466C6167 
 3590      7300
 3591 005e 80060000 		.4byte	0x680
 3592 0062 63684576 		.ascii	"chEvtSignalFlags\000"
 3592      74536967 
 3592      6E616C46 
 3592      6C616773 
 3592      00
 3593 0073 E7060000 		.4byte	0x6e7
 3594 0077 63684576 		.ascii	"chEvtSignalFlagsI\000"
 3594      74536967 
 3594      6E616C46 
 3594      6C616773 
ARM GAS  /tmp/ccJtFf5m.s 			page 65


 3594      4900
 3595 0089 1C070000 		.4byte	0x71c
 3596 008d 63684576 		.ascii	"chEvtBroadcastFlags\000"
 3596      7442726F 
 3596      61646361 
 3596      7374466C 
 3596      61677300 
 3597 00a1 84070000 		.4byte	0x784
 3598 00a5 63684576 		.ascii	"chEvtBroadcastFlagsI\000"
 3598      7442726F 
 3598      61646361 
 3598      7374466C 
 3598      61677349 
 3599 00ba C8070000 		.4byte	0x7c8
 3600 00be 63684576 		.ascii	"chEvtDispatch\000"
 3600      74446973 
 3600      70617463 
 3600      6800
 3601 00cc 1B080000 		.4byte	0x81b
 3602 00d0 63684576 		.ascii	"chEvtWaitOne\000"
 3602      74576169 
 3602      744F6E65 
 3602      00
 3603 00dd 99080000 		.4byte	0x899
 3604 00e1 63684576 		.ascii	"chEvtWaitAny\000"
 3604      74576169 
 3604      74416E79 
 3604      00
 3605 00ee 17090000 		.4byte	0x917
 3606 00f2 63684576 		.ascii	"chEvtWaitAll\000"
 3606      74576169 
 3606      74416C6C 
 3606      00
 3607 00ff 88090000 		.4byte	0x988
 3608 0103 63684576 		.ascii	"chEvtWaitOneTimeout\000"
 3608      74576169 
 3608      744F6E65 
 3608      54696D65 
 3608      6F757400 
 3609 0117 4D0A0000 		.4byte	0xa4d
 3610 011b 63684576 		.ascii	"chEvtWaitAnyTimeout\000"
 3610      74576169 
 3610      74416E79 
 3610      54696D65 
 3610      6F757400 
 3611 012f 120B0000 		.4byte	0xb12
 3612 0133 63684576 		.ascii	"chEvtWaitAllTimeout\000"
 3612      74576169 
 3612      74416C6C 
 3612      54696D65 
 3612      6F757400 
 3613 0147 00000000 		.4byte	0x0
 3614              		.section	.debug_pubtypes,"",%progbits
 3615 0000 85010000 		.4byte	0x185
 3616 0004 0200     		.2byte	0x2
 3617 0006 00000000 		.4byte	.Ldebug_info0
 3618 000a E50B0000 		.4byte	0xbe5
ARM GAS  /tmp/ccJtFf5m.s 			page 66


 3619 000e 3E000000 		.4byte	0x3e
 3620 0012 75696E74 		.ascii	"uint8_t\000"
 3620      385F7400 
 3621 001a 5E000000 		.4byte	0x5e
 3622 001e 696E7433 		.ascii	"int32_t\000"
 3622      325F7400 
 3623 0026 70000000 		.4byte	0x70
 3624 002a 75696E74 		.ascii	"uint32_t\000"
 3624      33325F74 
 3624      00
 3625 0033 89000000 		.4byte	0x89
 3626 0037 75696E74 		.ascii	"uint64_t\000"
 3626      36345F74 
 3626      00
 3627 0040 9B000000 		.4byte	0x9b
 3628 0044 746D6F64 		.ascii	"tmode_t\000"
 3628      655F7400 
 3629 004c A6000000 		.4byte	0xa6
 3630 0050 74737461 		.ascii	"tstate_t\000"
 3630      74655F74 
 3630      00
 3631 0059 B1000000 		.4byte	0xb1
 3632 005d 74707269 		.ascii	"tprio_t\000"
 3632      6F5F7400 
 3633 0065 BC000000 		.4byte	0xbc
 3634 0069 6D73675F 		.ascii	"msg_t\000"
 3634      7400
 3635 006f C7000000 		.4byte	0xc7
 3636 0073 6576656E 		.ascii	"eventid_t\000"
 3636      7469645F 
 3636      7400
 3637 007d D2000000 		.4byte	0xd2
 3638 0081 6576656E 		.ascii	"eventmask_t\000"
 3638      746D6173 
 3638      6B5F7400 
 3639 008d DD000000 		.4byte	0xdd
 3640 0091 73797374 		.ascii	"systime_t\000"
 3640      696D655F 
 3640      7400
 3641 009b E8000000 		.4byte	0xe8
 3642 009f 636E745F 		.ascii	"cnt_t\000"
 3642      7400
 3643 00a5 F3000000 		.4byte	0xf3
 3644 00a9 54687265 		.ascii	"Thread\000"
 3644      616400
 3645 00b0 32020000 		.4byte	0x232
 3646 00b4 54687265 		.ascii	"ThreadsQueue\000"
 3646      61647351 
 3646      75657565 
 3646      00
 3647 00c1 54020000 		.4byte	0x254
 3648 00c5 54687265 		.ascii	"ThreadsList\000"
 3648      6164734C 
 3648      69737400 
 3649 00d1 5F020000 		.4byte	0x25f
 3650 00d5 72656761 		.ascii	"regarm_t\000"
 3650      726D5F74 
ARM GAS  /tmp/ccJtFf5m.s 			page 67


 3650      00
 3651 00de 6C020000 		.4byte	0x26c
 3652 00e2 73746B61 		.ascii	"stkalign_t\000"
 3652      6C69676E 
 3652      5F7400
 3653 00ed 77020000 		.4byte	0x277
 3654 00f1 696E7463 		.ascii	"intctx\000"
 3654      747800
 3655 00f8 04030000 		.4byte	0x304
 3656 00fc 636F6E74 		.ascii	"context\000"
 3656      65787400 
 3657 0104 97030000 		.4byte	0x397
 3658 0108 52656164 		.ascii	"ReadyList\000"
 3658      794C6973 
 3658      7400
 3659 0112 A2030000 		.4byte	0x3a2
 3660 0116 4D757465 		.ascii	"Mutex\000"
 3660      7800
 3661 011c DF030000 		.4byte	0x3df
 3662 0120 4D757465 		.ascii	"Mutex\000"
 3662      7800
 3663 0126 EA030000 		.4byte	0x3ea
 3664 012a 4576656E 		.ascii	"EventListener\000"
 3664      744C6973 
 3664      74656E65 
 3664      7200
 3665 0138 F5030000 		.4byte	0x3f5
 3666 013c 4576656E 		.ascii	"EventListener\000"
 3666      744C6973 
 3666      74656E65 
 3666      7200
 3667 014a 32040000 		.4byte	0x432
 3668 014e 4576656E 		.ascii	"EventSource\000"
 3668      74536F75 
 3668      72636500 
 3669 015a 4D040000 		.4byte	0x44d
 3670 015e 4576656E 		.ascii	"EventSource\000"
 3670      74536F75 
 3670      72636500 
 3671 016a 58040000 		.4byte	0x458
 3672 016e 65766861 		.ascii	"evhandler_t\000"
 3672      6E646C65 
 3672      725F7400 
 3673 017a FE000000 		.4byte	0xfe
 3674 017e 54687265 		.ascii	"Thread\000"
 3674      616400
 3675 0185 00000000 		.4byte	0x0
 3676              		.section	.debug_aranges,"",%progbits
 3677 0000 8C000000 		.4byte	0x8c
 3678 0004 0200     		.2byte	0x2
 3679 0006 00000000 		.4byte	.Ldebug_info0
 3680 000a 04       		.byte	0x4
 3681 000b 00       		.byte	0x0
 3682 000c 0000     		.2byte	0x0
 3683 000e 0000     		.2byte	0x0
 3684 0010 00000000 		.4byte	.LFB7
 3685 0014 5C000000 		.4byte	.LFE7-.LFB7
ARM GAS  /tmp/ccJtFf5m.s 			page 68


 3686 0018 00000000 		.4byte	.LFB8
 3687 001c 64000000 		.4byte	.LFE8-.LFB8
 3688 0020 00000000 		.4byte	.LFB9
 3689 0024 50000000 		.4byte	.LFE9-.LFB9
 3690 0028 00000000 		.4byte	.LFB10
 3691 002c 40000000 		.4byte	.LFE10-.LFB10
 3692 0030 00000000 		.4byte	.LFB11
 3693 0034 40000000 		.4byte	.LFE11-.LFB11
 3694 0038 00000000 		.4byte	.LFB12
 3695 003c 70000000 		.4byte	.LFE12-.LFB12
 3696 0040 00000000 		.4byte	.LFB13
 3697 0044 30000000 		.4byte	.LFE13-.LFB13
 3698 0048 00000000 		.4byte	.LFB14
 3699 004c 4C000000 		.4byte	.LFE14-.LFB14
 3700 0050 00000000 		.4byte	.LFB15
 3701 0054 88000000 		.4byte	.LFE15-.LFB15
 3702 0058 00000000 		.4byte	.LFB16
 3703 005c 7C000000 		.4byte	.LFE16-.LFB16
 3704 0060 00000000 		.4byte	.LFB17
 3705 0064 6C000000 		.4byte	.LFE17-.LFB17
 3706 0068 00000000 		.4byte	.LFB18
 3707 006c 5C000000 		.4byte	.LFE18-.LFB18
 3708 0070 00000000 		.4byte	.LFB19
 3709 0074 B0000000 		.4byte	.LFE19-.LFB19
 3710 0078 00000000 		.4byte	.LFB20
 3711 007c A0000000 		.4byte	.LFE20-.LFB20
 3712 0080 00000000 		.4byte	.LFB21
 3713 0084 90000000 		.4byte	.LFE21-.LFB21
 3714 0088 00000000 		.4byte	0x0
 3715 008c 00000000 		.4byte	0x0
 3716              		.section	.debug_ranges,"",%progbits
 3717              	.Ldebug_ranges0:
 3718 0000 00000000 		.4byte	.LFB7
 3719 0004 5C000000 		.4byte	.LFE7
 3720 0008 00000000 		.4byte	.LFB8
 3721 000c 64000000 		.4byte	.LFE8
 3722 0010 00000000 		.4byte	.LFB9
 3723 0014 50000000 		.4byte	.LFE9
 3724 0018 00000000 		.4byte	.LFB10
 3725 001c 40000000 		.4byte	.LFE10
 3726 0020 00000000 		.4byte	.LFB11
 3727 0024 40000000 		.4byte	.LFE11
 3728 0028 00000000 		.4byte	.LFB12
 3729 002c 70000000 		.4byte	.LFE12
 3730 0030 00000000 		.4byte	.LFB13
 3731 0034 30000000 		.4byte	.LFE13
 3732 0038 00000000 		.4byte	.LFB14
 3733 003c 4C000000 		.4byte	.LFE14
 3734 0040 00000000 		.4byte	.LFB15
 3735 0044 88000000 		.4byte	.LFE15
 3736 0048 00000000 		.4byte	.LFB16
 3737 004c 7C000000 		.4byte	.LFE16
 3738 0050 00000000 		.4byte	.LFB17
 3739 0054 6C000000 		.4byte	.LFE17
 3740 0058 00000000 		.4byte	.LFB18
 3741 005c 5C000000 		.4byte	.LFE18
 3742 0060 00000000 		.4byte	.LFB19
ARM GAS  /tmp/ccJtFf5m.s 			page 69


 3743 0064 B0000000 		.4byte	.LFE19
 3744 0068 00000000 		.4byte	.LFB20
 3745 006c A0000000 		.4byte	.LFE20
 3746 0070 00000000 		.4byte	.LFB21
 3747 0074 90000000 		.4byte	.LFE21
 3748 0078 00000000 		.4byte	0x0
 3749 007c 00000000 		.4byte	0x0
 3750              		.section	.debug_str,"MS",%progbits,1
 3751              	.LASF35:
 3752 0000 705F6D73 		.ascii	"p_msg\000"
 3752      6700
 3753              	.LASF64:
 3754 0006 7264796D 		.ascii	"rdymsg\000"
 3754      736700
 3755              	.LASF11:
 3756 000d 75696E74 		.ascii	"uint64_t\000"
 3756      36345F74 
 3756      00
 3757              	.LASF12:
 3758 0016 6C6F6E67 		.ascii	"long long unsigned int\000"
 3758      206C6F6E 
 3758      6720756E 
 3758      7369676E 
 3758      65642069 
 3759              	.LASF65:
 3760 002d 65786974 		.ascii	"exitcode\000"
 3760      636F6465 
 3760      00
 3761              	.LASF75:
 3762 0036 63684576 		.ascii	"chEvtSignalFlagsI\000"
 3762      74536967 
 3762      6E616C46 
 3762      6C616773 
 3762      4900
 3763              	.LASF85:
 3764 0048 63684576 		.ascii	"chEvtWaitAnyTimeout\000"
 3764      74576169 
 3764      74416E79 
 3764      54696D65 
 3764      6F757400 
 3765              	.LASF24:
 3766 005c 705F7072 		.ascii	"p_prio\000"
 3766      696F00
 3767              	.LASF10:
 3768 0063 6C6F6E67 		.ascii	"long long int\000"
 3768      206C6F6E 
 3768      6720696E 
 3768      7400
 3769              	.LASF1:
 3770 0071 7369676E 		.ascii	"signed char\000"
 3770      65642063 
 3770      68617200 
 3771              	.LASF86:
 3772 007d 63684576 		.ascii	"chEvtWaitAllTimeout\000"
 3772      74576169 
 3772      74416C6C 
 3772      54696D65 
ARM GAS  /tmp/ccJtFf5m.s 			page 70


 3772      6F757400 
 3773              	.LASF54:
 3774 0091 6D5F7175 		.ascii	"m_queue\000"
 3774      65756500 
 3775              	.LASF73:
 3776 0099 63684576 		.ascii	"chEvtAddFlags\000"
 3776      74416464 
 3776      466C6167 
 3776      7300
 3777              	.LASF7:
 3778 00a7 6C6F6E67 		.ascii	"long int\000"
 3778      20696E74 
 3778      00
 3779              	.LASF14:
 3780 00b0 74737461 		.ascii	"tstate_t\000"
 3780      74655F74 
 3780      00
 3781              	.LASF82:
 3782 00b9 63684576 		.ascii	"chEvtWaitAll\000"
 3782      74576169 
 3782      74416C6C 
 3782      00
 3783              	.LASF81:
 3784 00c6 63684576 		.ascii	"chEvtWaitAny\000"
 3784      74576169 
 3784      74416E79 
 3784      00
 3785              	.LASF77:
 3786 00d3 63684576 		.ascii	"chEvtBroadcastFlagsI\000"
 3786      7442726F 
 3786      61646361 
 3786      7374466C 
 3786      61677349 
 3787              	.LASF26:
 3788 00e8 705F6E65 		.ascii	"p_newer\000"
 3788      77657200 
 3789              	.LASF48:
 3790 00f0 725F6E65 		.ascii	"r_newer\000"
 3790      77657200 
 3791              	.LASF69:
 3792 00f8 6D61736B 		.ascii	"mask\000"
 3792      00
 3793              	.LASF41:
 3794 00fd 72656761 		.ascii	"regarm_t\000"
 3794      726D5F74 
 3794      00
 3795              	.LASF76:
 3796 0106 63684576 		.ascii	"chEvtBroadcastFlags\000"
 3796      7442726F 
 3796      61646361 
 3796      7374466C 
 3796      61677300 
 3797              	.LASF17:
 3798 011a 6576656E 		.ascii	"eventid_t\000"
 3798      7469645F 
 3798      7400
 3799              	.LASF61:
ARM GAS  /tmp/ccJtFf5m.s 			page 71


 3800 0124 4576656E 		.ascii	"EventSource\000"
 3800      74536F75 
 3800      72636500 
 3801              	.LASF63:
 3802 0130 65766861 		.ascii	"evhandler_t\000"
 3802      6E646C65 
 3802      725F7400 
 3803              	.LASF20:
 3804 013c 636E745F 		.ascii	"cnt_t\000"
 3804      7400
 3805              	.LASF29:
 3806 0142 705F7374 		.ascii	"p_stklimit\000"
 3806      6B6C696D 
 3806      697400
 3807              	.LASF0:
 3808 014d 756E7369 		.ascii	"unsigned int\000"
 3808      676E6564 
 3808      20696E74 
 3808      00
 3809              	.LASF9:
 3810 015a 6C6F6E67 		.ascii	"long unsigned int\000"
 3810      20756E73 
 3810      69676E65 
 3810      6420696E 
 3810      7400
 3811              	.LASF44:
 3812 016c 636F6E74 		.ascii	"context\000"
 3812      65787400 
 3813              	.LASF4:
 3814 0174 73686F72 		.ascii	"short unsigned int\000"
 3814      7420756E 
 3814      7369676E 
 3814      65642069 
 3814      6E7400
 3815              	.LASF70:
 3816 0187 63684576 		.ascii	"chEvtRegisterMask\000"
 3816      74526567 
 3816      69737465 
 3816      724D6173 
 3816      6B00
 3817              	.LASF16:
 3818 0199 6D73675F 		.ascii	"msg_t\000"
 3818      7400
 3819              	.LASF58:
 3820 019f 656C5F6E 		.ascii	"el_next\000"
 3820      65787400 
 3821              	.LASF71:
 3822 01a7 63684576 		.ascii	"chEvtUnregister\000"
 3822      74556E72 
 3822      65676973 
 3822      74657200 
 3823              	.LASF13:
 3824 01b7 746D6F64 		.ascii	"tmode_t\000"
 3824      655F7400 
 3825              	.LASF40:
 3826 01bf 54687265 		.ascii	"ThreadsList\000"
 3826      6164734C 
ARM GAS  /tmp/ccJtFf5m.s 			page 72


 3826      69737400 
 3827              	.LASF18:
 3828 01cb 6576656E 		.ascii	"eventmask_t\000"
 3828      746D6173 
 3828      6B5F7400 
 3829              	.LASF53:
 3830 01d7 4D757465 		.ascii	"Mutex\000"
 3830      7800
 3831              	.LASF42:
 3832 01dd 73746B61 		.ascii	"stkalign_t\000"
 3832      6C69676E 
 3832      5F7400
 3833              	.LASF89:
 3834 01e8 2E2E2F63 		.ascii	"../chibios_2.4.x/os/kernel/src/chevents.c\000"
 3834      68696269 
 3834      6F735F32 
 3834      2E342E78 
 3834      2F6F732F 
 3835              	.LASF78:
 3836 0212 63684576 		.ascii	"chEvtDispatch\000"
 3836      74446973 
 3836      70617463 
 3836      6800
 3837              	.LASF27:
 3838 0220 705F6F6C 		.ascii	"p_older\000"
 3838      64657200 
 3839              	.LASF47:
 3840 0228 725F6374 		.ascii	"r_ctx\000"
 3840      7800
 3841              	.LASF39:
 3842 022e 54687265 		.ascii	"ThreadsQueue\000"
 3842      61647351 
 3842      75657565 
 3842      00
 3843              	.LASF84:
 3844 023b 74696D65 		.ascii	"time\000"
 3844      00
 3845              	.LASF74:
 3846 0240 63684576 		.ascii	"chEvtSignalFlags\000"
 3846      74536967 
 3846      6E616C46 
 3846      6C616773 
 3846      00
 3847              	.LASF51:
 3848 0251 725F6375 		.ascii	"r_current\000"
 3848      7272656E 
 3848      7400
 3849              	.LASF49:
 3850 025b 725F6F6C 		.ascii	"r_older\000"
 3850      64657200 
 3851              	.LASF60:
 3852 0263 656C5F6D 		.ascii	"el_mask\000"
 3852      61736B00 
 3853              	.LASF79:
 3854 026b 68616E64 		.ascii	"handlers\000"
 3854      6C657273 
 3854      00
ARM GAS  /tmp/ccJtFf5m.s 			page 73


 3855              	.LASF23:
 3856 0274 705F7072 		.ascii	"p_prev\000"
 3856      657600
 3857              	.LASF15:
 3858 027b 74707269 		.ascii	"tprio_t\000"
 3858      6F5F7400 
 3859              	.LASF72:
 3860 0283 63684576 		.ascii	"chEvtClearFlags\000"
 3860      74436C65 
 3860      6172466C 
 3860      61677300 
 3861              	.LASF6:
 3862 0293 696E7433 		.ascii	"int32_t\000"
 3862      325F7400 
 3863              	.LASF2:
 3864 029b 756E7369 		.ascii	"unsigned char\000"
 3864      676E6564 
 3864      20636861 
 3864      7200
 3865              	.LASF80:
 3866 02a9 63684576 		.ascii	"chEvtWaitOne\000"
 3866      74576169 
 3866      744F6E65 
 3866      00
 3867              	.LASF59:
 3868 02b6 656C5F6C 		.ascii	"el_listener\000"
 3868      69737465 
 3868      6E657200 
 3869              	.LASF37:
 3870 02c2 705F6D74 		.ascii	"p_mtxlist\000"
 3870      786C6973 
 3870      7400
 3871              	.LASF3:
 3872 02cc 73686F72 		.ascii	"short int\000"
 3872      7420696E 
 3872      7400
 3873              	.LASF30:
 3874 02d6 705F7374 		.ascii	"p_state\000"
 3874      61746500 
 3875              	.LASF46:
 3876 02de 725F7072 		.ascii	"r_prio\000"
 3876      696F00
 3877              	.LASF67:
 3878 02e5 65776D61 		.ascii	"ewmask\000"
 3878      736B00
 3879              	.LASF22:
 3880 02ec 705F6E65 		.ascii	"p_next\000"
 3880      787400
 3881              	.LASF31:
 3882 02f3 705F666C 		.ascii	"p_flags\000"
 3882      61677300 
 3883              	.LASF21:
 3884 02fb 54687265 		.ascii	"Thread\000"
 3884      616400
 3885              	.LASF36:
 3886 0302 705F6570 		.ascii	"p_epending\000"
 3886      656E6469 
ARM GAS  /tmp/ccJtFf5m.s 			page 74


 3886      6E6700
 3887              	.LASF8:
 3888 030d 75696E74 		.ascii	"uint32_t\000"
 3888      33325F74 
 3888      00
 3889              	.LASF45:
 3890 0316 725F7175 		.ascii	"r_queue\000"
 3890      65756500 
 3891              	.LASF68:
 3892 031e 63686172 		.ascii	"char\000"
 3892      00
 3893              	.LASF56:
 3894 0323 6D5F6E65 		.ascii	"m_next\000"
 3894      787400
 3895              	.LASF19:
 3896 032a 73797374 		.ascii	"systime_t\000"
 3896      696D655F 
 3896      7400
 3897              	.LASF38:
 3898 0334 705F7265 		.ascii	"p_realprio\000"
 3898      616C7072 
 3898      696F00
 3899              	.LASF32:
 3900 033f 705F7469 		.ascii	"p_time\000"
 3900      6D6500
 3901              	.LASF43:
 3902 0346 696E7463 		.ascii	"intctx\000"
 3902      747800
 3903              	.LASF34:
 3904 034d 705F6D73 		.ascii	"p_msgqueue\000"
 3904      67717565 
 3904      756500
 3905              	.LASF62:
 3906 0358 65735F6E 		.ascii	"es_next\000"
 3906      65787400 
 3907              	.LASF52:
 3908 0360 52656164 		.ascii	"ReadyList\000"
 3908      794C6973 
 3908      7400
 3909              	.LASF90:
 3910 036a 2F686F6D 		.ascii	"/home/z80/projects/voltamper.git/firmware/voltamp\000"
 3910      652F7A38 
 3910      302F7072 
 3910      6F6A6563 
 3910      74732F76 
 3911              	.LASF87:
 3912 039c 726C6973 		.ascii	"rlist\000"
 3912      7400
 3913              	.LASF5:
 3914 03a2 75696E74 		.ascii	"uint8_t\000"
 3914      385F7400 
 3915              	.LASF57:
 3916 03aa 4576656E 		.ascii	"EventListener\000"
 3916      744C6973 
 3916      74656E65 
 3916      7200
 3917              	.LASF83:
ARM GAS  /tmp/ccJtFf5m.s 			page 75


 3918 03b8 63684576 		.ascii	"chEvtWaitOneTimeout\000"
 3918      74576169 
 3918      744F6E65 
 3918      54696D65 
 3918      6F757400 
 3919              	.LASF66:
 3920 03cc 77746F62 		.ascii	"wtobjp\000"
 3920      6A7000
 3921              	.LASF88:
 3922 03d3 474E5520 		.ascii	"GNU C 4.5.2\000"
 3922      4320342E 
 3922      352E3200 
 3923              	.LASF28:
 3924 03df 705F6E61 		.ascii	"p_name\000"
 3924      6D6500
 3925              	.LASF50:
 3926 03e6 725F7072 		.ascii	"r_preempt\000"
 3926      65656D70 
 3926      7400
 3927              	.LASF55:
 3928 03f0 6D5F6F77 		.ascii	"m_owner\000"
 3928      6E657200 
 3929              	.LASF25:
 3930 03f8 705F6374 		.ascii	"p_ctx\000"
 3930      7800
 3931              	.LASF33:
 3932 03fe 705F7761 		.ascii	"p_waiting\000"
 3932      6974696E 
 3932      6700
 3933              		.ident	"GCC: (Sourcery G++ Lite 2011.03-42) 4.5.2"
ARM GAS  /tmp/ccJtFf5m.s 			page 76


DEFINED SYMBOLS
                            *ABS*:00000000 chevents.c
     /tmp/ccJtFf5m.s:24     .rodata:00000000 $d
     /tmp/ccJtFf5m.s:28     .text.chEvtRegisterMask:00000000 $t
     /tmp/ccJtFf5m.s:34     .text.chEvtRegisterMask:00000000 chEvtRegisterMask
     /tmp/ccJtFf5m.s:106    .text.chEvtRegisterMask:00000054 $d
     /tmp/ccJtFf5m.s:116    .text.chEvtUnregister:00000000 $t
     /tmp/ccJtFf5m.s:122    .text.chEvtUnregister:00000000 chEvtUnregister
     /tmp/ccJtFf5m.s:206    .text.chEvtUnregister:00000060 $d
     /tmp/ccJtFf5m.s:211    .text.chEvtClearFlags:00000000 $t
     /tmp/ccJtFf5m.s:217    .text.chEvtClearFlags:00000000 chEvtClearFlags
     /tmp/ccJtFf5m.s:275    .text.chEvtClearFlags:0000004c $d
     /tmp/ccJtFf5m.s:280    .text.chEvtAddFlags:00000000 $t
     /tmp/ccJtFf5m.s:286    .text.chEvtAddFlags:00000000 chEvtAddFlags
     /tmp/ccJtFf5m.s:338    .text.chEvtAddFlags:0000003c $d
     /tmp/ccJtFf5m.s:347    .text.chEvtSignalFlags:00000000 $t
     /tmp/ccJtFf5m.s:353    .text.chEvtSignalFlags:00000000 chEvtSignalFlags
     /tmp/ccJtFf5m.s:421    .text.chEvtSignalFlagsI:00000000 chEvtSignalFlagsI
     /tmp/ccJtFf5m.s:406    .text.chEvtSignalFlags:0000003c $d
     /tmp/ccJtFf5m.s:415    .text.chEvtSignalFlagsI:00000000 $t
     /tmp/ccJtFf5m.s:499    .text.chEvtSignalFlagsI:0000006c $d
     /tmp/ccJtFf5m.s:504    .text.chEvtBroadcastFlags:00000000 $t
     /tmp/ccJtFf5m.s:510    .text.chEvtBroadcastFlags:00000000 chEvtBroadcastFlags
     /tmp/ccJtFf5m.s:566    .text.chEvtBroadcastFlagsI:00000000 chEvtBroadcastFlagsI
     /tmp/ccJtFf5m.s:560    .text.chEvtBroadcastFlagsI:00000000 $t
     /tmp/ccJtFf5m.s:624    .text.chEvtBroadcastFlagsI:00000048 $d
     /tmp/ccJtFf5m.s:636    .text.chEvtDispatch:00000000 $t
     /tmp/ccJtFf5m.s:642    .text.chEvtDispatch:00000000 chEvtDispatch
     /tmp/ccJtFf5m.s:724    .text.chEvtDispatch:00000080 $d
     /tmp/ccJtFf5m.s:730    .text.chEvtWaitOne:00000000 $t
     /tmp/ccJtFf5m.s:736    .text.chEvtWaitOne:00000000 chEvtWaitOne
     /tmp/ccJtFf5m.s:818    .text.chEvtWaitOne:00000078 $d
     /tmp/ccJtFf5m.s:823    .text.chEvtWaitAny:00000000 $t
     /tmp/ccJtFf5m.s:829    .text.chEvtWaitAny:00000000 chEvtWaitAny
     /tmp/ccJtFf5m.s:905    .text.chEvtWaitAny:00000068 $d
     /tmp/ccJtFf5m.s:910    .text.chEvtWaitAll:00000000 $t
     /tmp/ccJtFf5m.s:916    .text.chEvtWaitAll:00000000 chEvtWaitAll
     /tmp/ccJtFf5m.s:985    .text.chEvtWaitAll:00000058 $d
     /tmp/ccJtFf5m.s:990    .text.chEvtWaitOneTimeout:00000000 $t
     /tmp/ccJtFf5m.s:996    .text.chEvtWaitOneTimeout:00000000 chEvtWaitOneTimeout
     /tmp/ccJtFf5m.s:1114   .text.chEvtWaitOneTimeout:000000ac $d
     /tmp/ccJtFf5m.s:1119   .text.chEvtWaitAnyTimeout:00000000 $t
     /tmp/ccJtFf5m.s:1125   .text.chEvtWaitAnyTimeout:00000000 chEvtWaitAnyTimeout
     /tmp/ccJtFf5m.s:1237   .text.chEvtWaitAnyTimeout:0000009c $d
     /tmp/ccJtFf5m.s:1242   .text.chEvtWaitAllTimeout:00000000 $t
     /tmp/ccJtFf5m.s:1248   .text.chEvtWaitAllTimeout:00000000 chEvtWaitAllTimeout
     /tmp/ccJtFf5m.s:1352   .text.chEvtWaitAllTimeout:0000008c $d
                     .debug_frame:00000010 $d
     /tmp/ccJtFf5m.s:111    .text.chEvtRegisterMask:0000005c $t
     /tmp/ccJtFf5m.s:210    .text.chEvtUnregister:00000064 $t
     /tmp/ccJtFf5m.s:628    .text.chEvtBroadcastFlagsI:0000004c $t
     /tmp/ccJtFf5m.s:729    .text.chEvtDispatch:00000088 $t
     /tmp/ccJtFf5m.s:822    .text.chEvtWaitOne:0000007c $t
     /tmp/ccJtFf5m.s:909    .text.chEvtWaitAny:0000006c $t
     /tmp/ccJtFf5m.s:989    .text.chEvtWaitAll:0000005c $t

UNDEFINED SYMBOLS
ARM GAS  /tmp/ccJtFf5m.s 			page 77


chDbgPanic
dbg_check_lock
dbg_check_unlock
rlist
chSchRescheduleS
chDbgCheckClassI
chSchReadyI
chSchGoSleepS
chSchGoSleepTimeoutS
