ARM GAS  C:\Users\z80\AppData\Local\Temp\ccprZjTb.s 			page 1


   1              		.syntax unified
   2              		.cpu cortex-m3
   3              		.fpu softvfp
   4              		.eabi_attribute 20, 1
   5              		.eabi_attribute 21, 1
   6              		.eabi_attribute 23, 3
   7              		.eabi_attribute 24, 1
   8              		.eabi_attribute 25, 1
   9              		.eabi_attribute 26, 1
  10              		.eabi_attribute 30, 2
  11              		.eabi_attribute 18, 4
  12              		.thumb
  13              		.file	"chheap.c"
  20 0000 94020000 		.text
  20      02007801 
  20      00000201 
  20      FB0E0D00 
  20      01010101 
  21              	.Ltext0:
  22              		.cfi_sections	.debug_frame
  23              		.section	.text._heap_init,"ax",%progbits
  24              		.align	2
  25              		.p2align 4,,15
  26              		.global	_heap_init
  27              		.thumb
  28              		.thumb_func
  29              		.type	_heap_init, %function
  30              	_heap_init:
  31              	.LFB7:
  32              		.file 1 "../chibios_2.4.x/os/kernel/src/chheap.c"
  33              		.loc 1 75 0
  34              		.cfi_startproc
  35              		@ args = 0, pretend = 0, frame = 0
  36              		@ frame_needed = 0, uses_anonymous_args = 0
  37 0000 08B5     		push	{r3, lr}
  38              	.LCFI0:
  39              		.cfi_def_cfa_offset 8
  40              		.loc 1 76 0
  41 0002 40F20001 		movw	r1, #:lower16:chCoreAlloc
  42 0006 40F20003 		movw	r3, #:lower16:.LANCHOR0
  43              		.cfi_offset 14, -4
  44              		.cfi_offset 3, -8
  45 000a C0F20003 		movt	r3, #:upper16:.LANCHOR0
  46              		.loc 1 77 0
  47 000e 0022     		movs	r2, #0
  48              		.loc 1 76 0
  49 0010 C0F20001 		movt	r1, #:upper16:chCoreAlloc
  50              		.loc 1 80 0
  51 0014 03F11000 		add	r0, r3, #16
  52              		.loc 1 76 0
  53 0018 1960     		str	r1, [r3, #0]
ARM GAS  C:\Users\z80\AppData\Local\Temp\ccprZjTb.s 			page 2


  54              		.loc 1 77 0
  55 001a 9A60     		str	r2, [r3, #8]
  56              		.loc 1 78 0
  57 001c DA60     		str	r2, [r3, #12]
  58              		.loc 1 80 0
  59 001e FFF7FEFF 		bl	chMtxInit
  60              		.loc 1 84 0
  61 0022 08BD     		pop	{r3, pc}
  62              		.cfi_endproc
  63              	.LFE7:
  64              		.size	_heap_init, .-_heap_init
  65 0024 AFF30080 		.section	.text.chHeapInit,"ax",%progbits
  65      AFF30080 
  65      AFF30080 
  66              		.align	2
  67              		.p2align 4,,15
  68              		.global	chHeapInit
  69              		.thumb
  70              		.thumb_func
  71              		.type	chHeapInit, %function
  72              	chHeapInit:
  73              	.LFB8:
  74              		.loc 1 99 0
  75              		.cfi_startproc
  76              		@ args = 0, pretend = 0, frame = 0
  77              		@ frame_needed = 0, uses_anonymous_args = 0
  78              	.LVL0:
  79              		.loc 1 102 0
  80 0000 11F0070F 		tst	r1, #7
  81              		.loc 1 99 0
  82 0004 70B5     		push	{r4, r5, r6, lr}
  83              	.LCFI1:
  84              		.cfi_def_cfa_offset 16
  85              		.loc 1 99 0
  86 0006 0C46     		mov	r4, r1
  87              		.cfi_offset 14, -4
  88              		.cfi_offset 6, -8
  89              		.cfi_offset 5, -12
  90              		.cfi_offset 4, -16
  91 0008 0546     		mov	r5, r0
  92 000a 1646     		mov	r6, r2
  93              		.loc 1 102 0
  94 000c 02D1     		bne	.L3
  95              		.loc 1 102 0 is_stmt 0 discriminator 2
  96 000e 12F0070F 		tst	r2, #7
  97 0012 02D0     		beq	.L4
  98              	.L3:
  99              		.loc 1 102 0 discriminator 1
 100 0014 0748     		ldr	r0, .L6
 101              	.LVL1:
 102 0016 FFF7FEFF 		bl	chDbgPanic
 103              	.LVL2:
 104              	.L4:
 105              		.loc 1 104 0 is_stmt 1
 106 001a 0023     		movs	r3, #0
 107              		.loc 1 108 0
 108 001c 083E     		subs	r6, r6, #8
ARM GAS  C:\Users\z80\AppData\Local\Temp\ccprZjTb.s 			page 3


 109              	.LVL3:
 110              		.loc 1 104 0
 111 001e 2B60     		str	r3, [r5, #0]
 112              	.LVL4:
 113              		.loc 1 105 0
 114 0020 AC60     		str	r4, [r5, #8]
 115              		.loc 1 106 0
 116 0022 EB60     		str	r3, [r5, #12]
 117              		.loc 1 110 0
 118 0024 05F11000 		add	r0, r5, #16
 119              		.loc 1 107 0
 120 0028 2360     		str	r3, [r4, #0]
 121              		.loc 1 108 0
 122 002a 6660     		str	r6, [r4, #4]
 123              		.loc 1 110 0
 124 002c FFF7FEFF 		bl	chMtxInit
 125              		.loc 1 114 0
 126 0030 70BD     		pop	{r4, r5, r6, pc}
 127              	.L7:
 128 0032 00BF     		.align	2
 129              	.L6:
 130 0034 00000000 		.word	.LC0
 131              		.cfi_endproc
 132              	.LFE8:
 133              		.size	chHeapInit, .-chHeapInit
 134 0038 AFF30080 		.section	.text.chHeapAlloc,"ax",%progbits
 134      AFF30080 
 135              		.align	2
 136              		.p2align 4,,15
 137              		.global	chHeapAlloc
 138              		.thumb
 139              		.thumb_func
 140              		.type	chHeapAlloc, %function
 141              	chHeapAlloc:
 142              	.LFB9:
 143              		.loc 1 132 0
 144              		.cfi_startproc
 145              		@ args = 0, pretend = 0, frame = 0
 146              		@ frame_needed = 0, uses_anonymous_args = 0
 147              	.LVL5:
 148              		.loc 1 136 0
 149 0000 224B     		ldr	r3, .L21
 150              		.loc 1 132 0
 151 0002 70B5     		push	{r4, r5, r6, lr}
 152              	.LCFI2:
 153              		.cfi_def_cfa_offset 16
 154              		.loc 1 132 0
 155 0004 0446     		mov	r4, r0
 156              		.cfi_offset 14, -4
 157              		.cfi_offset 6, -8
 158              		.cfi_offset 5, -12
 159              		.cfi_offset 4, -16
 160              		.loc 1 136 0
 161 0006 0028     		cmp	r0, #0
 162 0008 08BF     		it	eq
 163 000a 1C46     		moveq	r4, r3
 164              	.LVL6:
ARM GAS  C:\Users\z80\AppData\Local\Temp\ccprZjTb.s 			page 4


 165              		.loc 1 138 0
 166 000c CE1D     		adds	r6, r1, #7
 167              		.loc 1 140 0
 168 000e 04F11000 		add	r0, r4, #16
 169              		.loc 1 138 0
 170 0012 26F00706 		bic	r6, r6, #7
 171              	.LVL7:
 172              		.loc 1 139 0
 173 0016 04F10805 		add	r5, r4, #8
 174              	.LVL8:
 175              		.loc 1 140 0
 176 001a FFF7FEFF 		bl	chMtxLock
 177              		.loc 1 142 0
 178 001e 00E0     		b	.L10
 179              	.LVL9:
 180              	.L16:
 181              		.loc 1 144 0
 182 0020 1D46     		mov	r5, r3
 183              	.LVL10:
 184              	.L10:
 185              		.loc 1 142 0 discriminator 1
 186 0022 2B68     		ldr	r3, [r5, #0]
 187 0024 002B     		cmp	r3, #0
 188 0026 21D0     		beq	.L19
 189              	.LVL11:
 190              		.loc 1 144 0
 191 0028 5A68     		ldr	r2, [r3, #4]
 192 002a 9642     		cmp	r6, r2
 193 002c F8D8     		bhi	.L16
 194              		.loc 1 145 0
 195 002e 06F10801 		add	r1, r6, #8
 196 0032 9142     		cmp	r1, r2
 197 0034 17D8     		bhi	.L20
 198              		.loc 1 155 0
 199 0036 4FF6F870 		movw	r0, #65528
 200 003a CFF6FF70 		movt	r0, 65535
 201              		.loc 1 154 0
 202 003e D3F800E0 		ldr	lr, [r3, #0]
 203              		.loc 1 155 0
 204 0042 801B     		subs	r0, r0, r6
 205              		.loc 1 153 0
 206 0044 03EB010C 		add	ip, r3, r1
 207              	.LVL12:
 208              		.loc 1 155 0
 209 0048 8218     		adds	r2, r0, r2
 210              		.loc 1 154 0
 211 004a 43F801E0 		str	lr, [r3, r1]
 212              		.loc 1 155 0
 213 004e CCF80420 		str	r2, [ip, #4]
 214              		.loc 1 156 0
 215 0052 C5F800C0 		str	ip, [r5, #0]
 216              		.loc 1 157 0
 217 0056 5E60     		str	r6, [r3, #4]
 218              	.LVL13:
 219              	.L12:
 220              		.loc 1 159 0
 221 0058 1D46     		mov	r5, r3
ARM GAS  C:\Users\z80\AppData\Local\Temp\ccprZjTb.s 			page 5


 222              	.LVL14:
 223 005a 45F8084B 		str	r4, [r5], #8
 224              		.loc 1 161 0
 225 005e FFF7FEFF 		bl	chMtxUnlock
 226              	.LVL15:
 227              	.L13:
 228              		.loc 1 181 0
 229 0062 2846     		mov	r0, r5
 230 0064 70BD     		pop	{r4, r5, r6, pc}
 231              	.LVL16:
 232              	.L20:
 233              		.loc 1 149 0
 234 0066 1A68     		ldr	r2, [r3, #0]
 235 0068 2A60     		str	r2, [r5, #0]
 236 006a F5E7     		b	.L12
 237              	.LVL17:
 238              	.L19:
 239              		.loc 1 167 0
 240 006c FFF7FEFF 		bl	chMtxUnlock
 241              		.loc 1 171 0
 242 0070 2568     		ldr	r5, [r4, #0]
 243              	.LVL18:
 244 0072 002D     		cmp	r5, #0
 245 0074 F5D0     		beq	.L13
 246              		.loc 1 172 0
 247 0076 06F10800 		add	r0, r6, #8
 248 007a A847     		blx	r5
 249              	.LVL19:
 250              		.loc 1 180 0
 251 007c 0546     		mov	r5, r0
 252              		.loc 1 173 0
 253 007e 0028     		cmp	r0, #0
 254 0080 EFD0     		beq	.L13
 255              		.loc 1 174 0
 256 0082 0460     		str	r4, [r0, #0]
 257              		.loc 1 175 0
 258 0084 4660     		str	r6, [r0, #4]
 259              		.loc 1 176 0
 260 0086 00F10805 		add	r5, r0, #8
 261              	.LVL20:
 262              		.loc 1 177 0
 263 008a EAE7     		b	.L13
 264              	.L22:
 265              		.align	2
 266              	.L21:
 267 008c 00000000 		.word	.LANCHOR0
 268              		.cfi_endproc
 269              	.LFE9:
 270              		.size	chHeapAlloc, .-chHeapAlloc
 271              		.section	.text.chHeapFree,"ax",%progbits
 272              		.align	2
 273              		.p2align 4,,15
 274              		.global	chHeapFree
 275              		.thumb
 276              		.thumb_func
 277              		.type	chHeapFree, %function
 278              	chHeapFree:
ARM GAS  C:\Users\z80\AppData\Local\Temp\ccprZjTb.s 			page 6


 279              	.LFB10:
 280              		.loc 1 194 0
 281              		.cfi_startproc
 282              		@ args = 0, pretend = 0, frame = 0
 283              		@ frame_needed = 0, uses_anonymous_args = 0
 284              	.LVL21:
 285 0000 F8B5     		push	{r3, r4, r5, r6, r7, lr}
 286              	.LCFI3:
 287              		.cfi_def_cfa_offset 24
 288              		.loc 1 194 0
 289 0002 0746     		mov	r7, r0
 290              		.cfi_offset 14, -4
 291              		.cfi_offset 7, -8
 292              		.cfi_offset 6, -12
 293              		.cfi_offset 5, -16
 294              		.cfi_offset 4, -20
 295              		.cfi_offset 3, -24
 296              		.loc 1 198 0
 297 0004 0028     		cmp	r0, #0
 298 0006 5DD0     		beq	.L34
 299              	.LVL22:
 300              	.L24:
 301              		.loc 1 201 0
 302 0008 57F8086C 		ldr	r6, [r7, #-8]
 303              		.loc 1 200 0
 304 000c A7F10805 		sub	r5, r7, #8
 305              	.LVL23:
 306              		.loc 1 203 0
 307 0010 06F11000 		add	r0, r6, #16
 308 0014 FFF7FEFF 		bl	chMtxLock
 309              	.LVL24:
 310              		.loc 1 202 0
 311 0018 0836     		adds	r6, r6, #8
 312              	.LVL25:
 313 001a 3446     		mov	r4, r6
 314              	.LVL26:
 315              	.L33:
 316              		.loc 1 206 0
 317 001c AC42     		cmp	r4, r5
 318 001e 04D8     		bhi	.L25
 319              		.loc 1 206 0 is_stmt 0 discriminator 1
 320 0020 6368     		ldr	r3, [r4, #4]
 321 0022 0833     		adds	r3, r3, #8
 322 0024 E318     		adds	r3, r4, r3
 323 0026 9D42     		cmp	r5, r3
 324 0028 14D3     		bcc	.L35
 325              	.L25:
 326              		.loc 1 210 0 is_stmt 1
 327 002a B442     		cmp	r4, r6
 328 002c 14BF     		ite	ne
 329 002e 0023     		movne	r3, #0
 330 0030 0123     		moveq	r3, #1
 331 0032 A542     		cmp	r5, r4
 332 0034 88BF     		it	hi
 333 0036 43F00103 		orrhi	r3, r3, #1
 334 003a C3B1     		cbz	r3, .L26
 335              	.L36:
ARM GAS  C:\Users\z80\AppData\Local\Temp\ccprZjTb.s 			page 7


 336              		.loc 1 211 0 discriminator 1
 337 003c 2368     		ldr	r3, [r4, #0]
 338              		.loc 1 210 0 discriminator 1
 339 003e C3B1     		cbz	r3, .L27
 340              		.loc 1 211 0
 341 0040 9D42     		cmp	r5, r3
 342 0042 16D3     		bcc	.L27
 343 0044 1C46     		mov	r4, r3
 344              	.LVL27:
 345              		.loc 1 206 0
 346 0046 AC42     		cmp	r4, r5
 347 0048 EFD8     		bhi	.L25
 348 004a 6368     		ldr	r3, [r4, #4]
 349              	.LVL28:
 350 004c 0833     		adds	r3, r3, #8
 351 004e E318     		adds	r3, r4, r3
 352 0050 9D42     		cmp	r5, r3
 353 0052 EAD2     		bcs	.L25
 354              	.L35:
 355              		.loc 1 206 0 is_stmt 0 discriminator 2
 356 0054 1D48     		ldr	r0, .L39
 357 0056 FFF7FEFF 		bl	chDbgPanic
 358              		.loc 1 210 0 is_stmt 1 discriminator 2
 359 005a B442     		cmp	r4, r6
 360 005c 14BF     		ite	ne
 361 005e 0023     		movne	r3, #0
 362 0060 0123     		moveq	r3, #1
 363 0062 A542     		cmp	r5, r4
 364 0064 88BF     		it	hi
 365 0066 43F00103 		orrhi	r3, r3, #1
 366 006a 002B     		cmp	r3, #0
 367 006c E6D1     		bne	.L36
 368              	.L26:
 369              		.loc 1 224 0
 370 006e 2468     		ldr	r4, [r4, #0]
 371              	.LVL29:
 372 0070 D4E7     		b	.L33
 373              	.LVL30:
 374              	.L27:
 375              		.loc 1 216 0
 376 0072 6A68     		ldr	r2, [r5, #4]
 377              		.loc 1 213 0
 378 0074 47F8083C 		str	r3, [r7, #-8]
 379              		.loc 1 214 0
 380 0078 2560     		str	r5, [r4, #0]
 381              		.loc 1 216 0
 382 007a 02F10803 		add	r3, r2, #8
 383 007e 57F8080C 		ldr	r0, [r7, #-8]
 384 0082 E918     		adds	r1, r5, r3
 385 0084 8142     		cmp	r1, r0
 386 0086 08D0     		beq	.L37
 387              		.loc 1 221 0
 388 0088 6368     		ldr	r3, [r4, #4]
 389 008a 03F10802 		add	r2, r3, #8
 390 008e A218     		adds	r2, r4, r2
 391 0090 AA42     		cmp	r2, r5
 392 0092 0FD0     		beq	.L38
ARM GAS  C:\Users\z80\AppData\Local\Temp\ccprZjTb.s 			page 8


 393              	.L30:
 394              		.loc 1 231 0
 395 0094 FFF7FEFF 		bl	chMtxUnlock
 396              		.loc 1 233 0
 397 0098 F8BD     		pop	{r3, r4, r5, r6, r7, pc}
 398              	.L37:
 399              		.loc 1 218 0
 400 009a 4968     		ldr	r1, [r1, #4]
 401              		.loc 1 219 0
 402 009c EB58     		ldr	r3, [r5, r3]
 403              		.loc 1 218 0
 404 009e 5218     		adds	r2, r2, r1
 405 00a0 0832     		adds	r2, r2, #8
 406 00a2 6A60     		str	r2, [r5, #4]
 407              		.loc 1 219 0
 408 00a4 47F8083C 		str	r3, [r7, #-8]
 409              		.loc 1 221 0
 410 00a8 6368     		ldr	r3, [r4, #4]
 411 00aa 03F10802 		add	r2, r3, #8
 412 00ae A218     		adds	r2, r4, r2
 413 00b0 AA42     		cmp	r2, r5
 414 00b2 EFD1     		bne	.L30
 415              	.L38:
 416              		.loc 1 223 0
 417 00b4 6968     		ldr	r1, [r5, #4]
 418              		.loc 1 224 0
 419 00b6 57F8082C 		ldr	r2, [r7, #-8]
 420              		.loc 1 223 0
 421 00ba 5B18     		adds	r3, r3, r1
 422 00bc 0833     		adds	r3, r3, #8
 423 00be 6360     		str	r3, [r4, #4]
 424              		.loc 1 224 0
 425 00c0 2260     		str	r2, [r4, #0]
 426 00c2 E7E7     		b	.L30
 427              	.LVL31:
 428              	.L34:
 429              		.loc 1 198 0 discriminator 1
 430 00c4 0248     		ldr	r0, .L39+4
 431 00c6 FFF7FEFF 		bl	chDbgPanic
 432 00ca 9DE7     		b	.L24
 433              	.L40:
 434              		.align	2
 435              	.L39:
 436 00cc 20000000 		.word	.LC2
 437 00d0 10000000 		.word	.LC1
 438              		.cfi_endproc
 439              	.LFE10:
 440              		.size	chHeapFree, .-chHeapFree
 441 00d4 AFF30080 		.section	.text.chHeapStatus,"ax",%progbits
 441      AFF30080 
 441      AFF30080 
 442              		.align	2
 443              		.p2align 4,,15
 444              		.global	chHeapStatus
 445              		.thumb
 446              		.thumb_func
 447              		.type	chHeapStatus, %function
ARM GAS  C:\Users\z80\AppData\Local\Temp\ccprZjTb.s 			page 9


 448              	chHeapStatus:
 449              	.LFB11:
 450              		.loc 1 250 0
 451              		.cfi_startproc
 452              		@ args = 0, pretend = 0, frame = 0
 453              		@ frame_needed = 0, uses_anonymous_args = 0
 454              	.LVL32:
 455 0000 38B5     		push	{r3, r4, r5, lr}
 456              	.LCFI4:
 457              		.cfi_def_cfa_offset 16
 458              		.loc 1 255 0
 459 0002 0E4B     		ldr	r3, .L49
 460              		.cfi_offset 14, -4
 461              		.cfi_offset 5, -8
 462              		.cfi_offset 4, -12
 463              		.cfi_offset 3, -16
 464              		.loc 1 250 0
 465 0004 0446     		mov	r4, r0
 466              		.loc 1 255 0
 467 0006 0028     		cmp	r0, #0
 468 0008 08BF     		it	eq
 469 000a 1C46     		moveq	r4, r3
 470              	.LVL33:
 471              		.loc 1 257 0
 472 000c 04F11000 		add	r0, r4, #16
 473              		.loc 1 250 0
 474 0010 0D46     		mov	r5, r1
 475              		.loc 1 257 0
 476 0012 FFF7FEFF 		bl	chMtxLock
 477              	.LVL34:
 478              		.loc 1 260 0
 479 0016 A368     		ldr	r3, [r4, #8]
 480              		.loc 1 259 0
 481 0018 1A46     		mov	r2, r3
 482              		.loc 1 260 0
 483 001a 1C46     		mov	r4, r3
 484              	.LVL35:
 485 001c 3BB1     		cbz	r3, .L43
 486              		.loc 1 260 0 is_stmt 0 discriminator 2
 487 001e 0022     		movs	r2, #0
 488 0020 1446     		mov	r4, r2
 489              	.LVL36:
 490              	.L44:
 491              		.loc 1 261 0 is_stmt 1 discriminator 2
 492 0022 5968     		ldr	r1, [r3, #4]
 493              		.loc 1 260 0 discriminator 2
 494 0024 1B68     		ldr	r3, [r3, #0]
 495              		.loc 1 261 0 discriminator 2
 496 0026 5218     		adds	r2, r2, r1
 497              	.LVL37:
 498              		.loc 1 260 0 discriminator 2
 499 0028 0134     		adds	r4, r4, #1
 500              	.LVL38:
 501 002a 002B     		cmp	r3, #0
 502 002c F9D1     		bne	.L44
 503              	.LVL39:
 504              	.L43:
ARM GAS  C:\Users\z80\AppData\Local\Temp\ccprZjTb.s 			page 10


 505              		.loc 1 262 0
 506 002e 05B1     		cbz	r5, .L45
 507              		.loc 1 263 0
 508 0030 2A60     		str	r2, [r5, #0]
 509              	.L45:
 510              		.loc 1 265 0
 511 0032 FFF7FEFF 		bl	chMtxUnlock
 512              		.loc 1 267 0
 513 0036 2046     		mov	r0, r4
 514 0038 38BD     		pop	{r3, r4, r5, pc}
 515              	.L50:
 516 003a 00BF     		.align	2
 517              	.L49:
 518 003c 00000000 		.word	.LANCHOR0
 519              		.cfi_endproc
 520              	.LFE11:
 521              		.size	chHeapStatus, .-chHeapStatus
 522              		.section	.rodata.str1.4,"aMS",%progbits,1
 523              		.align	2
 524              	.LC0:
 525 0000 22636848 		.ascii	"\"chHeapInit\"()\000"
 525      65617049 
 525      6E697422 
 525      282900
 526 000f 00       		.space	1
 527              	.LC1:
 528 0010 22636848 		.ascii	"\"chHeapFree\"()\000"
 528      65617046 
 528      72656522 
 528      282900
 529 001f 00       		.space	1
 530              	.LC2:
 531 0020 63684865 		.ascii	"chHeapFree(), #1\000"
 531      61704672 
 531      65652829 
 531      2C202331 
 531      00
 532 0031 000000   		.section	.bss.default_heap,"aw",%nobits
 533              		.align	3
 534              		.set	.LANCHOR0,. + 0
 535              		.type	default_heap, %object
 536              		.size	default_heap, 32
 537              	default_heap:
 538 0000 00000000 		.space	32
 538      00000000 
 538      00000000 
 538      00000000 
 538      00000000 
 539              		.text
 540              	.Letext0: