ARM GAS  /tmp/cclHd6Jd.s 			page 1


   1              		.syntax unified
   2              		.cpu cortex-m3
   3              		.fpu softvfp
   4              		.eabi_attribute 20, 1
   5              		.eabi_attribute 21, 1
   6              		.eabi_attribute 23, 3
   7              		.eabi_attribute 24, 1
   8              		.eabi_attribute 25, 1
   9              		.eabi_attribute 26, 1
  10              		.eabi_attribute 30, 2
  11              		.eabi_attribute 18, 4
  12              		.thumb
  13              		.file	"chmboxes.c"
  20 0000 F8020000 		.text
  20      02006201 
  20      00000201 
  20      FB0E0D00 
  20      01010101 
  21              	.Ltext0:
  22              		.cfi_sections	.debug_frame
  23              		.section	.text.chMBInit,"ax",%progbits
  24              		.align	2
  25              		.p2align 4,,15
  26              		.global	chMBInit
  27              		.thumb
  28              		.thumb_func
  29              		.type	chMBInit, %function
  30              	chMBInit:
  31              	.LFB7:
  32              		.file 1 "../chibios_2.4.x/os/kernel/src/chmboxes.c"
  33              		.loc 1 72 0
  34              		.cfi_startproc
  35              		@ args = 0, pretend = 0, frame = 0
  36              		@ frame_needed = 0, uses_anonymous_args = 0
  37              	.LVL0:
  38 0000 70B5     		push	{r4, r5, r6, lr}
  39              	.LCFI0:
  40              		.cfi_def_cfa_offset 16
  41              		.loc 1 74 0
  42 0002 0446     		mov	r4, r0
  43              		.cfi_offset 14, -4
  44              		.cfi_offset 6, -8
  45              		.cfi_offset 5, -12
  46              		.cfi_offset 4, -16
  47              		.loc 1 72 0
  48 0004 0D46     		mov	r5, r1
  49 0006 1646     		mov	r6, r2
  50              		.loc 1 74 0
  51 0008 A0B1     		cbz	r0, .L2
  52              		.loc 1 74 0 is_stmt 0 discriminator 2
  53 000a 99B1     		cbz	r1, .L2
ARM GAS  /tmp/cclHd6Jd.s 			page 2


  54              		.loc 1 74 0 discriminator 3
  55 000c 002A     		cmp	r2, #0
  56 000e 11DD     		ble	.L2
  57              	.LVL1:
  58              	.L3:
  59              		.loc 1 77 0 is_stmt 1
  60 0010 05EB8603 		add	r3, r5, r6, lsl #2
  61              		.loc 1 78 0
  62 0014 04F11C00 		add	r0, r4, #28
  63 0018 3146     		mov	r1, r6
  64              		.loc 1 76 0
  65 001a E560     		str	r5, [r4, #12]
  66 001c A560     		str	r5, [r4, #8]
  67 001e 2560     		str	r5, [r4, #0]
  68              		.loc 1 77 0
  69 0020 6360     		str	r3, [r4, #4]
  70              		.loc 1 78 0
  71 0022 FFF7FEFF 		bl	chSemInit
  72              		.loc 1 79 0
  73 0026 04F11000 		add	r0, r4, #16
  74 002a 0021     		movs	r1, #0
  75              		.loc 1 80 0
  76 002c BDE87040 		pop	{r4, r5, r6, lr}
  77              		.loc 1 79 0
  78 0030 FFF7FEBF 		b	chSemInit
  79              	.L2:
  80              		.loc 1 74 0 discriminator 1
  81 0034 0148     		ldr	r0, .L5
  82 0036 FFF7FEFF 		bl	chDbgPanic
  83 003a E9E7     		b	.L3
  84              	.L6:
  85              		.align	2
  86              	.L5:
  87 003c 00000000 		.word	.LC0
  88              		.cfi_endproc
  89              	.LFE7:
  90              		.size	chMBInit, .-chMBInit
  91              		.section	.text.chMBReset,"ax",%progbits
  92              		.align	2
  93              		.p2align 4,,15
  94              		.global	chMBReset
  95              		.thumb
  96              		.thumb_func
  97              		.type	chMBReset, %function
  98              	chMBReset:
  99              	.LFB8:
 100              		.loc 1 91 0
 101              		.cfi_startproc
 102              		@ args = 0, pretend = 0, frame = 0
 103              		@ frame_needed = 0, uses_anonymous_args = 0
 104              	.LVL2:
 105 0000 10B5     		push	{r4, lr}
 106              	.LCFI1:
 107              		.cfi_def_cfa_offset 8
 108              		.loc 1 93 0
 109 0002 0446     		mov	r4, r0
 110              		.cfi_offset 14, -4
ARM GAS  /tmp/cclHd6Jd.s 			page 3


 111              		.cfi_offset 4, -8
 112 0004 D8B1     		cbz	r0, .L9
 113              	.LVL3:
 114              	.L8:
 115              	.LBB2:
 116              		.loc 1 95 0
 117 0006 2023     		movs	r3, #32
 118              	.LVL4:
 119              	@ 95 "../chibios_2.4.x/os/kernel/src/chmboxes.c" 1
 120 0008 83F31188 		msr     BASEPRI, r3
 121              	@ 0 "" 2
 122              	.LVL5:
 123              		.thumb
 124              	.LBE2:
 125 000c FFF7FEFF 		bl	dbg_check_lock
 126              	.LVL6:
 127              		.loc 1 96 0
 128 0010 2368     		ldr	r3, [r4, #0]
 129              		.loc 1 97 0
 130 0012 6268     		ldr	r2, [r4, #4]
 131              		.loc 1 96 0
 132 0014 E360     		str	r3, [r4, #12]
 133              		.loc 1 97 0
 134 0016 D11A     		subs	r1, r2, r3
 135              		.loc 1 96 0
 136 0018 A360     		str	r3, [r4, #8]
 137              		.loc 1 97 0
 138 001a 04F11C00 		add	r0, r4, #28
 139 001e 8910     		asrs	r1, r1, #2
 140 0020 FFF7FEFF 		bl	chSemResetI
 141              		.loc 1 98 0
 142 0024 04F11000 		add	r0, r4, #16
 143 0028 0021     		movs	r1, #0
 144 002a FFF7FEFF 		bl	chSemResetI
 145              		.loc 1 99 0
 146 002e FFF7FEFF 		bl	chSchRescheduleS
 147              		.loc 1 100 0
 148 0032 FFF7FEFF 		bl	dbg_check_unlock
 149              	.LBB3:
 150 0036 0023     		movs	r3, #0
 151              	.LVL7:
 152              	@ 100 "../chibios_2.4.x/os/kernel/src/chmboxes.c" 1
 153 0038 83F31188 		msr     BASEPRI, r3
 154              	@ 0 "" 2
 155              	.LVL8:
 156              		.thumb
 157              	.LBE3:
 158              		.loc 1 101 0
 159 003c 10BD     		pop	{r4, pc}
 160              	.LVL9:
 161              	.L9:
 162              		.loc 1 93 0 discriminator 1
 163 003e 0248     		ldr	r0, .L10
 164 0040 FFF7FEFF 		bl	chDbgPanic
 165 0044 DFE7     		b	.L8
 166              	.L11:
 167 0046 00BF     		.align	2
ARM GAS  /tmp/cclHd6Jd.s 			page 4


 168              	.L10:
 169 0048 10000000 		.word	.LC1
 170              		.cfi_endproc
 171              	.LFE8:
 172              		.size	chMBReset, .-chMBReset
 173 004c AFF30080 		.section	.text.chMBPostS,"ax",%progbits
 174              		.align	2
 175              		.p2align 4,,15
 176              		.global	chMBPostS
 177              		.thumb
 178              		.thumb_func
 179              		.type	chMBPostS, %function
 180              	chMBPostS:
 181              	.LFB10:
 182              		.loc 1 150 0
 183              		.cfi_startproc
 184              		@ args = 0, pretend = 0, frame = 0
 185              		@ frame_needed = 0, uses_anonymous_args = 0
 186              	.LVL10:
 187 0000 70B5     		push	{r4, r5, r6, lr}
 188              	.LCFI2:
 189              		.cfi_def_cfa_offset 16
 190              		.loc 1 150 0
 191 0002 0446     		mov	r4, r0
 192              		.cfi_offset 14, -4
 193              		.cfi_offset 6, -8
 194              		.cfi_offset 5, -12
 195              		.cfi_offset 4, -16
 196 0004 0D46     		mov	r5, r1
 197 0006 1646     		mov	r6, r2
 198              		.loc 1 153 0
 199 0008 FFF7FEFF 		bl	chDbgCheckClassS
 200              	.LVL11:
 201              		.loc 1 154 0
 202 000c C4B1     		cbz	r4, .L16
 203              	.L13:
 204              		.loc 1 156 0
 205 000e 3146     		mov	r1, r6
 206 0010 04F11C00 		add	r0, r4, #28
 207 0014 FFF7FEFF 		bl	chSemWaitTimeoutS
 208              	.LVL12:
 209              		.loc 1 157 0
 210 0018 0646     		mov	r6, r0
 211              	.LVL13:
 212 001a 78B9     		cbnz	r0, .L14
 213              		.loc 1 158 0
 214 001c A368     		ldr	r3, [r4, #8]
 215              		.loc 1 159 0
 216 001e 6268     		ldr	r2, [r4, #4]
 217              		.loc 1 158 0
 218 0020 43F8045B 		str	r5, [r3], #4
 219              		.loc 1 159 0
 220 0024 9342     		cmp	r3, r2
 221              		.loc 1 158 0
 222 0026 A360     		str	r3, [r4, #8]
 223              		.loc 1 160 0
 224 0028 28BF     		it	cs
ARM GAS  /tmp/cclHd6Jd.s 			page 5


 225 002a 2368     		ldrcs	r3, [r4, #0]
 226              		.loc 1 161 0
 227 002c 04F11000 		add	r0, r4, #16
 228              	.LVL14:
 229              		.loc 1 160 0
 230 0030 28BF     		it	cs
 231 0032 A360     		strcs	r3, [r4, #8]
 232              		.loc 1 161 0
 233 0034 FFF7FEFF 		bl	chSemSignalI
 234              		.loc 1 162 0
 235 0038 FFF7FEFF 		bl	chSchRescheduleS
 236              	.L14:
 237              		.loc 1 165 0
 238 003c 3046     		mov	r0, r6
 239 003e 70BD     		pop	{r4, r5, r6, pc}
 240              	.LVL15:
 241              	.L16:
 242              		.loc 1 154 0 discriminator 1
 243 0040 0148     		ldr	r0, .L17
 244 0042 FFF7FEFF 		bl	chDbgPanic
 245 0046 E2E7     		b	.L13
 246              	.L18:
 247              		.align	2
 248              	.L17:
 249 0048 20000000 		.word	.LC2
 250              		.cfi_endproc
 251              	.LFE10:
 252              		.size	chMBPostS, .-chMBPostS
 253 004c AFF30080 		.section	.text.chMBPost,"ax",%progbits
 254              		.align	2
 255              		.p2align 4,,15
 256              		.global	chMBPost
 257              		.thumb
 258              		.thumb_func
 259              		.type	chMBPost, %function
 260              	chMBPost:
 261              	.LFB9:
 262              		.loc 1 122 0
 263              		.cfi_startproc
 264              		@ args = 0, pretend = 0, frame = 0
 265              		@ frame_needed = 0, uses_anonymous_args = 0
 266              	.LVL16:
 267 0000 70B5     		push	{r4, r5, r6, lr}
 268              	.LCFI3:
 269              		.cfi_def_cfa_offset 16
 270              	.LBB4:
 271              		.loc 1 125 0
 272 0002 2023     		movs	r3, #32
 273              	.LVL17:
 274              	.LBE4:
 275              		.loc 1 122 0
 276 0004 0646     		mov	r6, r0
 277              		.cfi_offset 14, -4
 278              		.cfi_offset 6, -8
 279              		.cfi_offset 5, -12
 280              		.cfi_offset 4, -16
 281 0006 0D46     		mov	r5, r1
ARM GAS  /tmp/cclHd6Jd.s 			page 6


 282 0008 1446     		mov	r4, r2
 283              	.LBB5:
 284              		.loc 1 125 0
 285              	@ 125 "../chibios_2.4.x/os/kernel/src/chmboxes.c" 1
 286 000a 83F31188 		msr     BASEPRI, r3
 287              	@ 0 "" 2
 288              	.LVL18:
 289              		.thumb
 290              	.LBE5:
 291 000e FFF7FEFF 		bl	dbg_check_lock
 292              	.LVL19:
 293              		.loc 1 126 0
 294 0012 2246     		mov	r2, r4
 295 0014 2946     		mov	r1, r5
 296 0016 3046     		mov	r0, r6
 297 0018 FFF7FEFF 		bl	chMBPostS
 298 001c 0446     		mov	r4, r0
 299              	.LVL20:
 300              		.loc 1 127 0
 301 001e FFF7FEFF 		bl	dbg_check_unlock
 302              	.LVL21:
 303              	.LBB6:
 304 0022 0023     		movs	r3, #0
 305              	.LVL22:
 306              	@ 127 "../chibios_2.4.x/os/kernel/src/chmboxes.c" 1
 307 0024 83F31188 		msr     BASEPRI, r3
 308              	@ 0 "" 2
 309              	.LVL23:
 310              		.thumb
 311              	.LBE6:
 312              		.loc 1 129 0
 313 0028 2046     		mov	r0, r4
 314 002a 70BD     		pop	{r4, r5, r6, pc}
 315              		.cfi_endproc
 316              	.LFE9:
 317              		.size	chMBPost, .-chMBPost
 318 002c AFF30080 		.section	.text.chMBPostI,"ax",%progbits
 319              		.align	2
 320              		.p2align 4,,15
 321              		.global	chMBPostI
 322              		.thumb
 323              		.thumb_func
 324              		.type	chMBPostI, %function
 325              	chMBPostI:
 326              	.LFB11:
 327              		.loc 1 181 0
 328              		.cfi_startproc
 329              		@ args = 0, pretend = 0, frame = 0
 330              		@ frame_needed = 0, uses_anonymous_args = 0
 331              	.LVL24:
 332 0000 38B5     		push	{r3, r4, r5, lr}
 333              	.LCFI4:
 334              		.cfi_def_cfa_offset 16
 335              		.loc 1 181 0
 336 0002 0446     		mov	r4, r0
 337              		.cfi_offset 14, -4
 338              		.cfi_offset 5, -8
ARM GAS  /tmp/cclHd6Jd.s 			page 7


 339              		.cfi_offset 4, -12
 340              		.cfi_offset 3, -16
 341 0004 0D46     		mov	r5, r1
 342              		.loc 1 183 0
 343 0006 FFF7FEFF 		bl	chDbgCheckClassI
 344              	.LVL25:
 345              		.loc 1 184 0
 346 000a BCB1     		cbz	r4, .L25
 347              	.L21:
 348              		.loc 1 186 0
 349 000c 636A     		ldr	r3, [r4, #36]
 350 000e 002B     		cmp	r3, #0
 351 0010 11DD     		ble	.L24
 352              		.loc 1 189 0
 353 0012 A268     		ldr	r2, [r4, #8]
 354              		.loc 1 188 0
 355 0014 013B     		subs	r3, r3, #1
 356              		.loc 1 190 0
 357 0016 6168     		ldr	r1, [r4, #4]
 358              		.loc 1 188 0
 359 0018 6362     		str	r3, [r4, #36]
 360              		.loc 1 189 0
 361 001a 42F8045B 		str	r5, [r2], #4
 362              		.loc 1 190 0
 363 001e 8A42     		cmp	r2, r1
 364              		.loc 1 191 0
 365 0020 28BF     		it	cs
 366 0022 2368     		ldrcs	r3, [r4, #0]
 367              		.loc 1 189 0
 368 0024 A260     		str	r2, [r4, #8]
 369              		.loc 1 192 0
 370 0026 04F11000 		add	r0, r4, #16
 371              		.loc 1 191 0
 372 002a 28BF     		it	cs
 373 002c A360     		strcs	r3, [r4, #8]
 374              		.loc 1 192 0
 375 002e FFF7FEFF 		bl	chSemSignalI
 376              		.loc 1 193 0
 377 0032 0020     		movs	r0, #0
 378 0034 38BD     		pop	{r3, r4, r5, pc}
 379              	.L24:
 380              		.loc 1 187 0
 381 0036 4FF0FF30 		mov	r0, #-1
 382              		.loc 1 194 0
 383 003a 38BD     		pop	{r3, r4, r5, pc}
 384              	.L25:
 385              		.loc 1 184 0 discriminator 1
 386 003c 0148     		ldr	r0, .L26
 387 003e FFF7FEFF 		bl	chDbgPanic
 388 0042 E3E7     		b	.L21
 389              	.L27:
 390              		.align	2
 391              	.L26:
 392 0044 30000000 		.word	.LC3
 393              		.cfi_endproc
 394              	.LFE11:
 395              		.size	chMBPostI, .-chMBPostI
ARM GAS  /tmp/cclHd6Jd.s 			page 8


 396 0048 AFF30080 		.section	.text.chMBPostAheadS,"ax",%progbits
 396      AFF30080 
 397              		.align	2
 398              		.p2align 4,,15
 399              		.global	chMBPostAheadS
 400              		.thumb
 401              		.thumb_func
 402              		.type	chMBPostAheadS, %function
 403              	chMBPostAheadS:
 404              	.LFB13:
 405              		.loc 1 243 0
 406              		.cfi_startproc
 407              		@ args = 0, pretend = 0, frame = 0
 408              		@ frame_needed = 0, uses_anonymous_args = 0
 409              	.LVL26:
 410 0000 70B5     		push	{r4, r5, r6, lr}
 411              	.LCFI5:
 412              		.cfi_def_cfa_offset 16
 413              		.loc 1 243 0
 414 0002 0446     		mov	r4, r0
 415              		.cfi_offset 14, -4
 416              		.cfi_offset 6, -8
 417              		.cfi_offset 5, -12
 418              		.cfi_offset 4, -16
 419 0004 0D46     		mov	r5, r1
 420 0006 1646     		mov	r6, r2
 421              		.loc 1 246 0
 422 0008 FFF7FEFF 		bl	chDbgCheckClassS
 423              	.LVL27:
 424              		.loc 1 247 0
 425 000c CCB1     		cbz	r4, .L32
 426              	.L29:
 427              		.loc 1 249 0
 428 000e 3146     		mov	r1, r6
 429 0010 04F11C00 		add	r0, r4, #28
 430 0014 FFF7FEFF 		bl	chSemWaitTimeoutS
 431              	.LVL28:
 432              		.loc 1 250 0
 433 0018 0646     		mov	r6, r0
 434              	.LVL29:
 435 001a 60B9     		cbnz	r0, .L30
 436              		.loc 1 251 0
 437 001c E368     		ldr	r3, [r4, #12]
 438 001e 2268     		ldr	r2, [r4, #0]
 439 0020 043B     		subs	r3, r3, #4
 440 0022 9342     		cmp	r3, r2
 441 0024 E360     		str	r3, [r4, #12]
 442 0026 08D3     		bcc	.L33
 443              	.LVL30:
 444              	.L31:
 445              		.loc 1 254 0
 446 0028 04F11000 		add	r0, r4, #16
 447              		.loc 1 253 0
 448 002c 1D60     		str	r5, [r3, #0]
 449              		.loc 1 254 0
 450 002e FFF7FEFF 		bl	chSemSignalI
 451              		.loc 1 255 0
ARM GAS  /tmp/cclHd6Jd.s 			page 9


 452 0032 FFF7FEFF 		bl	chSchRescheduleS
 453              	.L30:
 454              		.loc 1 258 0
 455 0036 3046     		mov	r0, r6
 456 0038 70BD     		pop	{r4, r5, r6, pc}
 457              	.L33:
 458              		.loc 1 252 0
 459 003a 6068     		ldr	r0, [r4, #4]
 460 003c 031F     		subs	r3, r0, #4
 461 003e E360     		str	r3, [r4, #12]
 462 0040 F2E7     		b	.L31
 463              	.LVL31:
 464              	.L32:
 465              		.loc 1 247 0 discriminator 1
 466 0042 0248     		ldr	r0, .L34
 467 0044 FFF7FEFF 		bl	chDbgPanic
 468 0048 E1E7     		b	.L29
 469              	.L35:
 470 004a 00BF     		.align	2
 471              	.L34:
 472 004c 40000000 		.word	.LC4
 473              		.cfi_endproc
 474              	.LFE13:
 475              		.size	chMBPostAheadS, .-chMBPostAheadS
 476              		.section	.text.chMBPostAhead,"ax",%progbits
 477              		.align	2
 478              		.p2align 4,,15
 479              		.global	chMBPostAhead
 480              		.thumb
 481              		.thumb_func
 482              		.type	chMBPostAhead, %function
 483              	chMBPostAhead:
 484              	.LFB12:
 485              		.loc 1 215 0
 486              		.cfi_startproc
 487              		@ args = 0, pretend = 0, frame = 0
 488              		@ frame_needed = 0, uses_anonymous_args = 0
 489              	.LVL32:
 490 0000 70B5     		push	{r4, r5, r6, lr}
 491              	.LCFI6:
 492              		.cfi_def_cfa_offset 16
 493              	.LBB7:
 494              		.loc 1 218 0
 495 0002 2023     		movs	r3, #32
 496              	.LVL33:
 497              	.LBE7:
 498              		.loc 1 215 0
 499 0004 0646     		mov	r6, r0
 500              		.cfi_offset 14, -4
 501              		.cfi_offset 6, -8
 502              		.cfi_offset 5, -12
 503              		.cfi_offset 4, -16
 504 0006 0D46     		mov	r5, r1
 505 0008 1446     		mov	r4, r2
 506              	.LBB8:
 507              		.loc 1 218 0
 508              	@ 218 "../chibios_2.4.x/os/kernel/src/chmboxes.c" 1
ARM GAS  /tmp/cclHd6Jd.s 			page 10


 509 000a 83F31188 		msr     BASEPRI, r3
 510              	@ 0 "" 2
 511              	.LVL34:
 512              		.thumb
 513              	.LBE8:
 514 000e FFF7FEFF 		bl	dbg_check_lock
 515              	.LVL35:
 516              		.loc 1 219 0
 517 0012 2246     		mov	r2, r4
 518 0014 2946     		mov	r1, r5
 519 0016 3046     		mov	r0, r6
 520 0018 FFF7FEFF 		bl	chMBPostAheadS
 521 001c 0446     		mov	r4, r0
 522              	.LVL36:
 523              		.loc 1 220 0
 524 001e FFF7FEFF 		bl	dbg_check_unlock
 525              	.LVL37:
 526              	.LBB9:
 527 0022 0023     		movs	r3, #0
 528              	.LVL38:
 529              	@ 220 "../chibios_2.4.x/os/kernel/src/chmboxes.c" 1
 530 0024 83F31188 		msr     BASEPRI, r3
 531              	@ 0 "" 2
 532              	.LVL39:
 533              		.thumb
 534              	.LBE9:
 535              		.loc 1 222 0
 536 0028 2046     		mov	r0, r4
 537 002a 70BD     		pop	{r4, r5, r6, pc}
 538              		.cfi_endproc
 539              	.LFE12:
 540              		.size	chMBPostAhead, .-chMBPostAhead
 541 002c AFF30080 		.section	.text.chMBPostAheadI,"ax",%progbits
 542              		.align	2
 543              		.p2align 4,,15
 544              		.global	chMBPostAheadI
 545              		.thumb
 546              		.thumb_func
 547              		.type	chMBPostAheadI, %function
 548              	chMBPostAheadI:
 549              	.LFB14:
 550              		.loc 1 274 0
 551              		.cfi_startproc
 552              		@ args = 0, pretend = 0, frame = 0
 553              		@ frame_needed = 0, uses_anonymous_args = 0
 554              	.LVL40:
 555 0000 38B5     		push	{r3, r4, r5, lr}
 556              	.LCFI7:
 557              		.cfi_def_cfa_offset 16
 558              		.loc 1 274 0
 559 0002 0446     		mov	r4, r0
 560              		.cfi_offset 14, -4
 561              		.cfi_offset 5, -8
 562              		.cfi_offset 4, -12
 563              		.cfi_offset 3, -16
 564 0004 0D46     		mov	r5, r1
 565              		.loc 1 276 0
ARM GAS  /tmp/cclHd6Jd.s 			page 11


 566 0006 FFF7FEFF 		bl	chDbgCheckClassI
 567              	.LVL41:
 568              		.loc 1 277 0
 569 000a BCB1     		cbz	r4, .L42
 570              	.L38:
 571              		.loc 1 279 0
 572 000c 636A     		ldr	r3, [r4, #36]
 573 000e 002B     		cmp	r3, #0
 574 0010 11DD     		ble	.L41
 575              		.loc 1 282 0
 576 0012 E268     		ldr	r2, [r4, #12]
 577 0014 2168     		ldr	r1, [r4, #0]
 578 0016 043A     		subs	r2, r2, #4
 579              		.loc 1 281 0
 580 0018 013B     		subs	r3, r3, #1
 581              		.loc 1 282 0
 582 001a 8A42     		cmp	r2, r1
 583              		.loc 1 281 0
 584 001c 6362     		str	r3, [r4, #36]
 585              		.loc 1 282 0
 586 001e E260     		str	r2, [r4, #12]
 587 0020 02D2     		bcs	.L40
 588              		.loc 1 283 0
 589 0022 6068     		ldr	r0, [r4, #4]
 590 0024 021F     		subs	r2, r0, #4
 591 0026 E260     		str	r2, [r4, #12]
 592              	.L40:
 593              		.loc 1 285 0
 594 0028 04F11000 		add	r0, r4, #16
 595              		.loc 1 284 0
 596 002c 1560     		str	r5, [r2, #0]
 597              		.loc 1 285 0
 598 002e FFF7FEFF 		bl	chSemSignalI
 599              		.loc 1 286 0
 600 0032 0020     		movs	r0, #0
 601 0034 38BD     		pop	{r3, r4, r5, pc}
 602              	.L41:
 603              		.loc 1 280 0
 604 0036 4FF0FF30 		mov	r0, #-1
 605              		.loc 1 287 0
 606 003a 38BD     		pop	{r3, r4, r5, pc}
 607              	.L42:
 608              		.loc 1 277 0 discriminator 1
 609 003c 0148     		ldr	r0, .L43
 610 003e FFF7FEFF 		bl	chDbgPanic
 611 0042 E3E7     		b	.L38
 612              	.L44:
 613              		.align	2
 614              	.L43:
 615 0044 54000000 		.word	.LC5
 616              		.cfi_endproc
 617              	.LFE14:
 618              		.size	chMBPostAheadI, .-chMBPostAheadI
 619 0048 AFF30080 		.section	.text.chMBFetchS,"ax",%progbits
 619      AFF30080 
 620              		.align	2
 621              		.p2align 4,,15
ARM GAS  /tmp/cclHd6Jd.s 			page 12


 622              		.global	chMBFetchS
 623              		.thumb
 624              		.thumb_func
 625              		.type	chMBFetchS, %function
 626              	chMBFetchS:
 627              	.LFB16:
 628              		.loc 1 336 0
 629              		.cfi_startproc
 630              		@ args = 0, pretend = 0, frame = 0
 631              		@ frame_needed = 0, uses_anonymous_args = 0
 632              	.LVL42:
 633 0000 70B5     		push	{r4, r5, r6, lr}
 634              	.LCFI8:
 635              		.cfi_def_cfa_offset 16
 636              		.loc 1 336 0
 637 0002 0446     		mov	r4, r0
 638              		.cfi_offset 14, -4
 639              		.cfi_offset 6, -8
 640              		.cfi_offset 5, -12
 641              		.cfi_offset 4, -16
 642 0004 0D46     		mov	r5, r1
 643 0006 1646     		mov	r6, r2
 644              		.loc 1 339 0
 645 0008 FFF7FEFF 		bl	chDbgCheckClassS
 646              	.LVL43:
 647              		.loc 1 340 0
 648 000c CCB1     		cbz	r4, .L46
 649              		.loc 1 340 0 is_stmt 0 discriminator 2
 650 000e C5B1     		cbz	r5, .L46
 651              	.L47:
 652              		.loc 1 342 0 is_stmt 1
 653 0010 3146     		mov	r1, r6
 654 0012 04F11000 		add	r0, r4, #16
 655 0016 FFF7FEFF 		bl	chSemWaitTimeoutS
 656              	.LVL44:
 657              		.loc 1 343 0
 658 001a 0646     		mov	r6, r0
 659              	.LVL45:
 660 001c 78B9     		cbnz	r0, .L48
 661              		.loc 1 344 0
 662 001e E368     		ldr	r3, [r4, #12]
 663              		.loc 1 345 0
 664 0020 6268     		ldr	r2, [r4, #4]
 665              		.loc 1 344 0
 666 0022 53F8041B 		ldr	r1, [r3], #4
 667              		.loc 1 347 0
 668 0026 04F11C00 		add	r0, r4, #28
 669              	.LVL46:
 670              		.loc 1 345 0
 671 002a 9342     		cmp	r3, r2
 672              		.loc 1 344 0
 673 002c 2960     		str	r1, [r5, #0]
 674 002e E360     		str	r3, [r4, #12]
 675              		.loc 1 346 0
 676 0030 24BF     		itt	cs
 677 0032 2368     		ldrcs	r3, [r4, #0]
 678 0034 E360     		strcs	r3, [r4, #12]
ARM GAS  /tmp/cclHd6Jd.s 			page 13


 679              		.loc 1 347 0
 680 0036 FFF7FEFF 		bl	chSemSignalI
 681              		.loc 1 348 0
 682 003a FFF7FEFF 		bl	chSchRescheduleS
 683              	.L48:
 684              		.loc 1 351 0
 685 003e 3046     		mov	r0, r6
 686 0040 70BD     		pop	{r4, r5, r6, pc}
 687              	.LVL47:
 688              	.L46:
 689              		.loc 1 340 0 discriminator 1
 690 0042 0248     		ldr	r0, .L50
 691 0044 FFF7FEFF 		bl	chDbgPanic
 692 0048 E2E7     		b	.L47
 693              	.L51:
 694 004a 00BF     		.align	2
 695              	.L50:
 696 004c 68000000 		.word	.LC6
 697              		.cfi_endproc
 698              	.LFE16:
 699              		.size	chMBFetchS, .-chMBFetchS
 700              		.section	.text.chMBFetch,"ax",%progbits
 701              		.align	2
 702              		.p2align 4,,15
 703              		.global	chMBFetch
 704              		.thumb
 705              		.thumb_func
 706              		.type	chMBFetch, %function
 707              	chMBFetch:
 708              	.LFB15:
 709              		.loc 1 308 0
 710              		.cfi_startproc
 711              		@ args = 0, pretend = 0, frame = 0
 712              		@ frame_needed = 0, uses_anonymous_args = 0
 713              	.LVL48:
 714 0000 70B5     		push	{r4, r5, r6, lr}
 715              	.LCFI9:
 716              		.cfi_def_cfa_offset 16
 717              	.LBB10:
 718              		.loc 1 311 0
 719 0002 2023     		movs	r3, #32
 720              	.LVL49:
 721              	.LBE10:
 722              		.loc 1 308 0
 723 0004 0646     		mov	r6, r0
 724              		.cfi_offset 14, -4
 725              		.cfi_offset 6, -8
 726              		.cfi_offset 5, -12
 727              		.cfi_offset 4, -16
 728 0006 0D46     		mov	r5, r1
 729 0008 1446     		mov	r4, r2
 730              	.LBB11:
 731              		.loc 1 311 0
 732              	@ 311 "../chibios_2.4.x/os/kernel/src/chmboxes.c" 1
 733 000a 83F31188 		msr     BASEPRI, r3
 734              	@ 0 "" 2
 735              	.LVL50:
ARM GAS  /tmp/cclHd6Jd.s 			page 14


 736              		.thumb
 737              	.LBE11:
 738 000e FFF7FEFF 		bl	dbg_check_lock
 739              	.LVL51:
 740              		.loc 1 312 0
 741 0012 2246     		mov	r2, r4
 742 0014 2946     		mov	r1, r5
 743 0016 3046     		mov	r0, r6
 744 0018 FFF7FEFF 		bl	chMBFetchS
 745 001c 0446     		mov	r4, r0
 746              	.LVL52:
 747              		.loc 1 313 0
 748 001e FFF7FEFF 		bl	dbg_check_unlock
 749              	.LVL53:
 750              	.LBB12:
 751 0022 0023     		movs	r3, #0
 752              	.LVL54:
 753              	@ 313 "../chibios_2.4.x/os/kernel/src/chmboxes.c" 1
 754 0024 83F31188 		msr     BASEPRI, r3
 755              	@ 0 "" 2
 756              	.LVL55:
 757              		.thumb
 758              	.LBE12:
 759              		.loc 1 315 0
 760 0028 2046     		mov	r0, r4
 761 002a 70BD     		pop	{r4, r5, r6, pc}
 762              		.cfi_endproc
 763              	.LFE15:
 764              		.size	chMBFetch, .-chMBFetch
 765 002c AFF30080 		.section	.text.chMBFetchI,"ax",%progbits
 766              		.align	2
 767              		.p2align 4,,15
 768              		.global	chMBFetchI
 769              		.thumb
 770              		.thumb_func
 771              		.type	chMBFetchI, %function
 772              	chMBFetchI:
 773              	.LFB17:
 774              		.loc 1 367 0
 775              		.cfi_startproc
 776              		@ args = 0, pretend = 0, frame = 0
 777              		@ frame_needed = 0, uses_anonymous_args = 0
 778              	.LVL56:
 779 0000 38B5     		push	{r3, r4, r5, lr}
 780              	.LCFI10:
 781              		.cfi_def_cfa_offset 16
 782              		.loc 1 367 0
 783 0002 0446     		mov	r4, r0
 784              		.cfi_offset 14, -4
 785              		.cfi_offset 5, -8
 786              		.cfi_offset 4, -12
 787              		.cfi_offset 3, -16
 788 0004 0D46     		mov	r5, r1
 789              		.loc 1 369 0
 790 0006 FFF7FEFF 		bl	chDbgCheckClassI
 791              	.LVL57:
 792              		.loc 1 370 0
ARM GAS  /tmp/cclHd6Jd.s 			page 15


 793 000a B4B1     		cbz	r4, .L54
 794              		.loc 1 370 0 is_stmt 0 discriminator 2
 795 000c ADB1     		cbz	r5, .L54
 796              		.loc 1 372 0 is_stmt 1
 797 000e A369     		ldr	r3, [r4, #24]
 798 0010 002B     		cmp	r3, #0
 799 0012 18DD     		ble	.L58
 800              	.L59:
 801              		.loc 1 375 0
 802 0014 E268     		ldr	r2, [r4, #12]
 803              		.loc 1 374 0
 804 0016 581E     		subs	r0, r3, #1
 805 0018 A061     		str	r0, [r4, #24]
 806              		.loc 1 375 0
 807 001a 52F8041B 		ldr	r1, [r2], #4
 808              		.loc 1 376 0
 809 001e 6368     		ldr	r3, [r4, #4]
 810              		.loc 1 378 0
 811 0020 04F11C00 		add	r0, r4, #28
 812              		.loc 1 376 0
 813 0024 9A42     		cmp	r2, r3
 814              		.loc 1 377 0
 815 0026 28BF     		it	cs
 816 0028 2368     		ldrcs	r3, [r4, #0]
 817              		.loc 1 375 0
 818 002a 2960     		str	r1, [r5, #0]
 819 002c E260     		str	r2, [r4, #12]
 820              		.loc 1 377 0
 821 002e 28BF     		it	cs
 822 0030 E360     		strcs	r3, [r4, #12]
 823              		.loc 1 378 0
 824 0032 FFF7FEFF 		bl	chSemSignalI
 825              		.loc 1 379 0
 826 0036 0020     		movs	r0, #0
 827 0038 38BD     		pop	{r3, r4, r5, pc}
 828              	.L54:
 829              		.loc 1 370 0 discriminator 1
 830 003a 0448     		ldr	r0, .L60
 831 003c FFF7FEFF 		bl	chDbgPanic
 832              		.loc 1 372 0 discriminator 1
 833 0040 A369     		ldr	r3, [r4, #24]
 834 0042 002B     		cmp	r3, #0
 835 0044 E6DC     		bgt	.L59
 836              	.L58:
 837              		.loc 1 373 0
 838 0046 4FF0FF30 		mov	r0, #-1
 839              		.loc 1 380 0
 840 004a 38BD     		pop	{r3, r4, r5, pc}
 841              	.L61:
 842              		.align	2
 843              	.L60:
 844 004c 78000000 		.word	.LC7
 845              		.cfi_endproc
 846              	.LFE17:
 847              		.size	chMBFetchI, .-chMBFetchI
 848              		.section	.rodata.str1.4,"aMS",%progbits,1
 849              		.align	2
ARM GAS  /tmp/cclHd6Jd.s 			page 16


 850              	.LC0:
 851 0000 2263684D 		.ascii	"\"chMBInit\"()\000"
 851      42496E69 
 851      74222829 
 851      00
 852 000d 000000   		.space	3
 853              	.LC1:
 854 0010 2263684D 		.ascii	"\"chMBReset\"()\000"
 854      42526573 
 854      65742228 
 854      2900
 855 001e 0000     		.space	2
 856              	.LC2:
 857 0020 2263684D 		.ascii	"\"chMBPostS\"()\000"
 857      42506F73 
 857      74532228 
 857      2900
 858 002e 0000     		.space	2
 859              	.LC3:
 860 0030 2263684D 		.ascii	"\"chMBPostI\"()\000"
 860      42506F73 
 860      74492228 
 860      2900
 861 003e 0000     		.space	2
 862              	.LC4:
 863 0040 2263684D 		.ascii	"\"chMBPostAheadS\"()\000"
 863      42506F73 
 863      74416865 
 863      61645322 
 863      282900
 864 0053 00       		.space	1
 865              	.LC5:
 866 0054 2263684D 		.ascii	"\"chMBPostAheadI\"()\000"
 866      42506F73 
 866      74416865 
 866      61644922 
 866      282900
 867 0067 00       		.space	1
 868              	.LC6:
 869 0068 2263684D 		.ascii	"\"chMBFetchS\"()\000"
 869      42466574 
 869      63685322 
 869      282900
 870 0077 00       		.space	1
 871              	.LC7:
 872 0078 2263684D 		.ascii	"\"chMBFetchI\"()\000"
 872      42466574 
 872      63684922 
 872      282900
 873 0087 00       		.text
 874              	.Letext0: