ARM GAS  /tmp/ccHSvzJC.s 			page 1


   1              		.syntax unified
   2              		.cpu cortex-m3
   3              		.fpu softvfp
   4              		.eabi_attribute 20, 1
   5              		.eabi_attribute 21, 1
   6              		.eabi_attribute 23, 3
   7              		.eabi_attribute 24, 1
   8              		.eabi_attribute 25, 1
   9              		.eabi_attribute 26, 1
  10              		.eabi_attribute 30, 2
  11              		.eabi_attribute 18, 4
  12              		.thumb
  13              		.file	"chmempools.c"
  20 0000 FE010000 		.text
  20      02006401 
  20      00000201 
  20      FB0E0D00 
  20      01010101 
  21              	.Ltext0:
  22              		.cfi_sections	.debug_frame
  23              		.section	.text.chPoolInit,"ax",%progbits
  24              		.align	2
  25              		.p2align 4,,15
  26              		.global	chPoolInit
  27              		.thumb
  28              		.thumb_func
  29              		.type	chPoolInit, %function
  30              	chPoolInit:
  31              	.LFB7:
  32              		.file 1 "../chibios_2.4.x/os/kernel/src/chmempools.c"
  33              		.loc 1 61 0
  34              		.cfi_startproc
  35              		@ args = 0, pretend = 0, frame = 0
  36              		@ frame_needed = 0, uses_anonymous_args = 0
  37              	.LVL0:
  38 0000 70B5     		push	{r4, r5, r6, lr}
  39              	.LCFI0:
  40              		.cfi_def_cfa_offset 16
  41              		.loc 1 63 0
  42 0002 0446     		mov	r4, r0
  43              		.cfi_offset 14, -4
  44              		.cfi_offset 6, -8
  45              		.cfi_offset 5, -12
  46              		.cfi_offset 4, -16
  47              		.loc 1 61 0
  48 0004 0D46     		mov	r5, r1
  49 0006 1646     		mov	r6, r2
  50              		.loc 1 63 0
  51 0008 08B1     		cbz	r0, .L2
  52              		.loc 1 63 0 is_stmt 0 discriminator 2
  53 000a 0329     		cmp	r1, #3
ARM GAS  /tmp/ccHSvzJC.s 			page 2


  54 000c 02D8     		bhi	.L3
  55              	.L2:
  56              		.loc 1 63 0 discriminator 1
  57 000e 0548     		ldr	r0, .L5
  58              	.LVL1:
  59 0010 FFF7FEFF 		bl	chDbgPanic
  60              	.LVL2:
  61              	.L3:
  62              		.loc 1 66 0 is_stmt 1
  63 0014 0735     		adds	r5, r5, #7
  64              	.LVL3:
  65 0016 25F00705 		bic	r5, r5, #7
  66              	.LVL4:
  67              		.loc 1 65 0
  68 001a 0023     		movs	r3, #0
  69 001c 2360     		str	r3, [r4, #0]
  70              		.loc 1 66 0
  71 001e 6560     		str	r5, [r4, #4]
  72              		.loc 1 67 0
  73 0020 A660     		str	r6, [r4, #8]
  74              		.loc 1 68 0
  75 0022 70BD     		pop	{r4, r5, r6, pc}
  76              	.L6:
  77              		.align	2
  78              	.L5:
  79 0024 00000000 		.word	.LC0
  80              		.cfi_endproc
  81              	.LFE7:
  82              		.size	chPoolInit, .-chPoolInit
  83 0028 AFF30080 		.section	.text.chPoolAllocI,"ax",%progbits
  83      AFF30080 
  84              		.align	2
  85              		.p2align 4,,15
  86              		.global	chPoolAllocI
  87              		.thumb
  88              		.thumb_func
  89              		.type	chPoolAllocI, %function
  90              	chPoolAllocI:
  91              	.LFB8:
  92              		.loc 1 79 0
  93              		.cfi_startproc
  94              		@ args = 0, pretend = 0, frame = 0
  95              		@ frame_needed = 0, uses_anonymous_args = 0
  96              	.LVL5:
  97 0000 10B5     		push	{r4, lr}
  98              	.LCFI1:
  99              		.cfi_def_cfa_offset 8
 100              		.loc 1 79 0
 101 0002 0446     		mov	r4, r0
 102              		.cfi_offset 14, -4
 103              		.cfi_offset 4, -8
 104              		.loc 1 82 0
 105 0004 FFF7FEFF 		bl	chDbgCheckClassI
 106              	.LVL6:
 107              		.loc 1 83 0
 108 0008 4CB1     		cbz	r4, .L11
 109              	.L8:
ARM GAS  /tmp/ccHSvzJC.s 			page 3


 110              		.loc 1 85 0
 111 000a 2068     		ldr	r0, [r4, #0]
 112              	.LVL7:
 113 000c 10B1     		cbz	r0, .L9
 114              		.loc 1 86 0
 115 000e 0368     		ldr	r3, [r0, #0]
 116 0010 2360     		str	r3, [r4, #0]
 117 0012 10BD     		pop	{r4, pc}
 118              	.L9:
 119              		.loc 1 87 0
 120 0014 A368     		ldr	r3, [r4, #8]
 121 0016 0BB1     		cbz	r3, .L10
 122              		.loc 1 88 0
 123 0018 6068     		ldr	r0, [r4, #4]
 124 001a 9847     		blx	r3
 125              	.LVL8:
 126              	.L10:
 127              		.loc 1 90 0
 128 001c 10BD     		pop	{r4, pc}
 129              	.LVL9:
 130              	.L11:
 131              		.loc 1 83 0 discriminator 1
 132 001e 0248     		ldr	r0, .L12
 133 0020 FFF7FEFF 		bl	chDbgPanic
 134 0024 F1E7     		b	.L8
 135              	.L13:
 136 0026 00BF     		.align	2
 137              	.L12:
 138 0028 10000000 		.word	.LC1
 139              		.cfi_endproc
 140              	.LFE8:
 141              		.size	chPoolAllocI, .-chPoolAllocI
 142 002c AFF30080 		.section	.text.chPoolAlloc,"ax",%progbits
 143              		.align	2
 144              		.p2align 4,,15
 145              		.global	chPoolAlloc
 146              		.thumb
 147              		.thumb_func
 148              		.type	chPoolAlloc, %function
 149              	chPoolAlloc:
 150              	.LFB9:
 151              		.loc 1 101 0
 152              		.cfi_startproc
 153              		@ args = 0, pretend = 0, frame = 0
 154              		@ frame_needed = 0, uses_anonymous_args = 0
 155              	.LVL10:
 156 0000 10B5     		push	{r4, lr}
 157              	.LCFI2:
 158              		.cfi_def_cfa_offset 8
 159              	.LBB2:
 160              		.loc 1 104 0
 161 0002 2023     		movs	r3, #32
 162              	.LVL11:
 163              	.LBE2:
 164              		.loc 1 101 0
 165 0004 0446     		mov	r4, r0
 166              		.cfi_offset 14, -4
ARM GAS  /tmp/ccHSvzJC.s 			page 4


 167              		.cfi_offset 4, -8
 168              	.LBB3:
 169              		.loc 1 104 0
 170              	@ 104 "../chibios_2.4.x/os/kernel/src/chmempools.c" 1
 171 0006 83F31188 		msr     BASEPRI, r3
 172              	@ 0 "" 2
 173              	.LVL12:
 174              		.thumb
 175              	.LBE3:
 176 000a FFF7FEFF 		bl	dbg_check_lock
 177              	.LVL13:
 178              		.loc 1 105 0
 179 000e 2046     		mov	r0, r4
 180 0010 FFF7FEFF 		bl	chPoolAllocI
 181 0014 0446     		mov	r4, r0
 182              	.LVL14:
 183              		.loc 1 106 0
 184 0016 FFF7FEFF 		bl	dbg_check_unlock
 185              	.LVL15:
 186              	.LBB4:
 187 001a 0023     		movs	r3, #0
 188              	.LVL16:
 189              	@ 106 "../chibios_2.4.x/os/kernel/src/chmempools.c" 1
 190 001c 83F31188 		msr     BASEPRI, r3
 191              	@ 0 "" 2
 192              	.LVL17:
 193              		.thumb
 194              	.LBE4:
 195              		.loc 1 108 0
 196 0020 2046     		mov	r0, r4
 197 0022 10BD     		pop	{r4, pc}
 198              		.cfi_endproc
 199              	.LFE9:
 200              		.size	chPoolAlloc, .-chPoolAlloc
 201 0024 AFF30080 		.section	.text.chPoolFreeI,"ax",%progbits
 201      AFF30080 
 201      AFF30080 
 202              		.align	2
 203              		.p2align 4,,15
 204              		.global	chPoolFreeI
 205              		.thumb
 206              		.thumb_func
 207              		.type	chPoolFreeI, %function
 208              	chPoolFreeI:
 209              	.LFB10:
 210              		.loc 1 122 0
 211              		.cfi_startproc
 212              		@ args = 0, pretend = 0, frame = 0
 213              		@ frame_needed = 0, uses_anonymous_args = 0
 214              	.LVL18:
 215 0000 38B5     		push	{r3, r4, r5, lr}
 216              	.LCFI3:
 217              		.cfi_def_cfa_offset 16
 218              		.loc 1 122 0
 219 0002 0446     		mov	r4, r0
 220              		.cfi_offset 14, -4
 221              		.cfi_offset 5, -8
ARM GAS  /tmp/ccHSvzJC.s 			page 5


 222              		.cfi_offset 4, -12
 223              		.cfi_offset 3, -16
 224 0004 0D46     		mov	r5, r1
 225              	.LVL19:
 226              		.loc 1 125 0
 227 0006 FFF7FEFF 		bl	chDbgCheckClassI
 228              	.LVL20:
 229              		.loc 1 126 0
 230 000a 1CB1     		cbz	r4, .L16
 231              		.loc 1 126 0 is_stmt 0 discriminator 2
 232 000c 15B1     		cbz	r5, .L16
 233              		.loc 1 126 0 discriminator 3
 234 000e 15F0070F 		tst	r5, #7
 235 0012 02D0     		beq	.L17
 236              	.L16:
 237              		.loc 1 126 0 discriminator 1
 238 0014 0348     		ldr	r0, .L18
 239 0016 FFF7FEFF 		bl	chDbgPanic
 240              	.L17:
 241              		.loc 1 129 0 is_stmt 1
 242 001a 2368     		ldr	r3, [r4, #0]
 243 001c 2B60     		str	r3, [r5, #0]
 244              		.loc 1 130 0
 245 001e 2560     		str	r5, [r4, #0]
 246              		.loc 1 131 0
 247 0020 38BD     		pop	{r3, r4, r5, pc}
 248              	.L19:
 249 0022 00BF     		.align	2
 250              	.L18:
 251 0024 24000000 		.word	.LC2
 252              		.cfi_endproc
 253              	.LFE10:
 254              		.size	chPoolFreeI, .-chPoolFreeI
 255 0028 AFF30080 		.section	.text.chPoolFree,"ax",%progbits
 255      AFF30080 
 256              		.align	2
 257              		.p2align 4,,15
 258              		.global	chPoolFree
 259              		.thumb
 260              		.thumb_func
 261              		.type	chPoolFree, %function
 262              	chPoolFree:
 263              	.LFB11:
 264              		.loc 1 145 0
 265              		.cfi_startproc
 266              		@ args = 0, pretend = 0, frame = 0
 267              		@ frame_needed = 0, uses_anonymous_args = 0
 268              	.LVL21:
 269 0000 38B5     		push	{r3, r4, r5, lr}
 270              	.LCFI4:
 271              		.cfi_def_cfa_offset 16
 272              		.loc 1 145 0
 273 0002 0546     		mov	r5, r0
 274              		.cfi_offset 14, -4
 275              		.cfi_offset 5, -8
 276              		.cfi_offset 4, -12
 277              		.cfi_offset 3, -16
ARM GAS  /tmp/ccHSvzJC.s 			page 6


 278 0004 0C46     		mov	r4, r1
 279              	.LBB5:
 280              		.loc 1 147 0
 281 0006 2023     		movs	r3, #32
 282              	.LVL22:
 283              	@ 147 "../chibios_2.4.x/os/kernel/src/chmempools.c" 1
 284 0008 83F31188 		msr     BASEPRI, r3
 285              	@ 0 "" 2
 286              	.LVL23:
 287              		.thumb
 288              	.LBE5:
 289 000c FFF7FEFF 		bl	dbg_check_lock
 290              	.LVL24:
 291              		.loc 1 148 0
 292 0010 2846     		mov	r0, r5
 293 0012 2146     		mov	r1, r4
 294 0014 FFF7FEFF 		bl	chPoolFreeI
 295              		.loc 1 149 0
 296 0018 FFF7FEFF 		bl	dbg_check_unlock
 297              	.LBB6:
 298 001c 0023     		movs	r3, #0
 299              	.LVL25:
 300              	@ 149 "../chibios_2.4.x/os/kernel/src/chmempools.c" 1
 301 001e 83F31188 		msr     BASEPRI, r3
 302              	@ 0 "" 2
 303              	.LVL26:
 304              		.thumb
 305              	.LBE6:
 306              		.loc 1 150 0
 307 0022 38BD     		pop	{r3, r4, r5, pc}
 308              		.cfi_endproc
 309              	.LFE11:
 310              		.size	chPoolFree, .-chPoolFree
 311 0024 AFF30080 		.section	.rodata.str1.4,"aMS",%progbits,1
 311      AFF30080 
 311      AFF30080 
 312              		.align	2
 313              	.LC0:
 314 0000 22636850 		.ascii	"\"chPoolInit\"()\000"
 314      6F6F6C49 
 314      6E697422 
 314      282900
 315 000f 00       		.space	1
 316              	.LC1:
 317 0010 22636850 		.ascii	"\"chPoolAllocI\"()\000"
 317      6F6F6C41 
 317      6C6C6F63 
 317      49222829 
 317      00
 318 0021 000000   		.space	3
 319              	.LC2:
 320 0024 22636850 		.ascii	"\"chPoolFreeI\"()\000"
 320      6F6F6C46 
 320      72656549 
 320      22282900 
 321              		.text
 322              	.Letext0:
ARM GAS  /tmp/ccHSvzJC.s 			page 7

