ARM GAS  C:\Users\z80\AppData\Local\Temp\ccvlwjfZ.s 			page 1


   1              		.syntax unified
   2              		.cpu cortex-m3
   3              		.fpu softvfp
   4              		.eabi_attribute 20, 1
   5              		.eabi_attribute 21, 1
   6              		.eabi_attribute 23, 3
   7              		.eabi_attribute 24, 1
   8              		.eabi_attribute 25, 1
   9              		.eabi_attribute 26, 1
  10              		.eabi_attribute 30, 6
  11              		.eabi_attribute 18, 4
  12              		.thumb
  13              		.file	"chmemcore.c"
  14              		.section	.debug_abbrev,"",%progbits
  15              	.Ldebug_abbrev0:
  16              		.section	.debug_info,"",%progbits
  17              	.Ldebug_info0:
  18              		.section	.debug_line,"",%progbits
  19              	.Ldebug_line0:
  20 0000 2D010000 		.text
  20      0200D400 
  20      00000201 
  20      FB0E0D00 
  20      01010101 
  21              	.Ltext0:
  22              		.cfi_sections	.debug_frame
  23              		.section	.bss.nextmem,"aw",%nobits
  24              		.align	2
  25              		.type	nextmem, %object
  26              		.size	nextmem, 4
  27              	nextmem:
  28 0000 00000000 		.space	4
  29              		.section	.bss.endmem,"aw",%nobits
  30              		.align	2
  31              		.type	endmem, %object
  32              		.size	endmem, 4
  33              	endmem:
  34 0000 00000000 		.space	4
  35              		.section	.text._core_init,"ax",%progbits
  36              		.align	2
  37              		.p2align 4,,15
  38              		.global	_core_init
  39              		.thumb
  40              		.thumb_func
  41              		.type	_core_init, %function
  42              	_core_init:
  43              	.LFB7:
  44              		.file 1 "../chibios_2.4.x/os/kernel/src/chmemcore.c"
  45              		.loc 1 66 0
  46              		.cfi_startproc
  47              		@ args = 0, pretend = 0, frame = 0
  48              		@ frame_needed = 0, uses_anonymous_args = 0
  49              		@ link register save eliminated.
  50              		.loc 1 70 0
  51 0000 40F20003 		movw	r3, #:lower16:__heap_base__
  52 0004 C0F20003 		movt	r3, #:upper16:__heap_base__
  53 0008 03F10703 		add	r3, r3, #7
ARM GAS  C:\Users\z80\AppData\Local\Temp\ccvlwjfZ.s 			page 2


  54 000c 23F00703 		bic	r3, r3, #7
  55 0010 1A46     		mov	r2, r3
  56 0012 40F20003 		movw	r3, #:lower16:nextmem
  57 0016 C0F20003 		movt	r3, #:upper16:nextmem
  58 001a 1A60     		str	r2, [r3, #0]
  59              		.loc 1 71 0
  60 001c 40F20003 		movw	r3, #:lower16:__heap_end__
  61 0020 C0F20003 		movt	r3, #:upper16:__heap_end__
  62 0024 23F00703 		bic	r3, r3, #7
  63 0028 1A46     		mov	r2, r3
  64 002a 40F20003 		movw	r3, #:lower16:endmem
  65 002e C0F20003 		movt	r3, #:upper16:endmem
  66 0032 1A60     		str	r2, [r3, #0]
  67              		.loc 1 77 0
  68 0034 7047     		bx	lr
  69              		.cfi_endproc
  70              	.LFE7:
  71              		.size	_core_init, .-_core_init
  72 0036 00BFAFF3 		.section	.text.chCoreAlloc,"ax",%progbits
  72      0080AFF3 
  72      0080
  73              		.align	2
  74              		.p2align 4,,15
  75              		.global	chCoreAlloc
  76              		.thumb
  77              		.thumb_func
  78              		.type	chCoreAlloc, %function
  79              	chCoreAlloc:
  80              	.LFB8:
  81              		.loc 1 91 0
  82              		.cfi_startproc
  83              		@ args = 0, pretend = 0, frame = 16
  84              		@ frame_needed = 0, uses_anonymous_args = 0
  85 0000 00B5     		push	{lr}
  86              	.LCFI0:
  87              		.cfi_def_cfa_offset 4
  88 0002 85B0     		sub	sp, sp, #20
  89              	.LCFI1:
  90              		.cfi_def_cfa_offset 24
  91 0004 0190     		str	r0, [sp, #4]
  92              	.LBB2:
  93              		.loc 1 94 0
  94 0006 4FF02003 		mov	r3, #32
  95              	@ 94 "../chibios_2.4.x/os/kernel/src/chmemcore.c" 1
  96 000a 83F31188 		msr     BASEPRI, r3
  97              	@ 0 "" 2
  98              		.thumb
  99              	.LBE2:
 100              		.cfi_offset 14, -4
 101 000e FFF7FEFF 		bl	dbg_check_lock
 102              		.loc 1 95 0
 103 0012 0198     		ldr	r0, [sp, #4]
 104 0014 FFF7FEFF 		bl	chCoreAllocI
 105 0018 0346     		mov	r3, r0
 106 001a 0393     		str	r3, [sp, #12]
 107              		.loc 1 96 0
 108 001c FFF7FEFF 		bl	dbg_check_unlock
ARM GAS  C:\Users\z80\AppData\Local\Temp\ccvlwjfZ.s 			page 3


 109              	.LBB3:
 110 0020 4FF00003 		mov	r3, #0
 111              	@ 96 "../chibios_2.4.x/os/kernel/src/chmemcore.c" 1
 112 0024 83F31188 		msr     BASEPRI, r3
 113              	@ 0 "" 2
 114              		.thumb
 115              	.LBE3:
 116              		.loc 1 97 0
 117 0028 039B     		ldr	r3, [sp, #12]
 118              		.loc 1 98 0
 119 002a 1846     		mov	r0, r3
 120 002c 05B0     		add	sp, sp, #20
 121 002e 00BD     		pop	{pc}
 122              		.cfi_endproc
 123              	.LFE8:
 124              		.size	chCoreAlloc, .-chCoreAlloc
 125              		.section	.text.chCoreAllocI,"ax",%progbits
 126              		.align	2
 127              		.p2align 4,,15
 128              		.global	chCoreAllocI
 129              		.thumb
 130              		.thumb_func
 131              		.type	chCoreAllocI, %function
 132              	chCoreAllocI:
 133              	.LFB9:
 134              		.loc 1 112 0
 135              		.cfi_startproc
 136              		@ args = 0, pretend = 0, frame = 16
 137              		@ frame_needed = 0, uses_anonymous_args = 0
 138 0000 00B5     		push	{lr}
 139              	.LCFI2:
 140              		.cfi_def_cfa_offset 4
 141 0002 85B0     		sub	sp, sp, #20
 142              	.LCFI3:
 143              		.cfi_def_cfa_offset 24
 144 0004 0190     		str	r0, [sp, #4]
 145              		.loc 1 115 0
 146              		.cfi_offset 14, -4
 147 0006 FFF7FEFF 		bl	chDbgCheckClassI
 148              		.loc 1 117 0
 149 000a 019B     		ldr	r3, [sp, #4]
 150 000c 03F10703 		add	r3, r3, #7
 151 0010 23F00703 		bic	r3, r3, #7
 152 0014 0193     		str	r3, [sp, #4]
 153              		.loc 1 118 0
 154 0016 40F20003 		movw	r3, #:lower16:endmem
 155 001a C0F20003 		movt	r3, #:upper16:endmem
 156 001e 1B68     		ldr	r3, [r3, #0]
 157 0020 1A46     		mov	r2, r3
 158 0022 40F20003 		movw	r3, #:lower16:nextmem
 159 0026 C0F20003 		movt	r3, #:upper16:nextmem
 160 002a 1B68     		ldr	r3, [r3, #0]
 161 002c C3EB0203 		rsb	r3, r3, r2
 162 0030 1A46     		mov	r2, r3
 163 0032 019B     		ldr	r3, [sp, #4]
 164 0034 9A42     		cmp	r2, r3
 165 0036 02D2     		bcs	.L4
ARM GAS  C:\Users\z80\AppData\Local\Temp\ccvlwjfZ.s 			page 4


 166              		.loc 1 119 0
 167 0038 4FF00003 		mov	r3, #0
 168 003c 12E0     		b	.L5
 169              	.L4:
 170              		.loc 1 120 0
 171 003e 40F20003 		movw	r3, #:lower16:nextmem
 172 0042 C0F20003 		movt	r3, #:upper16:nextmem
 173 0046 1B68     		ldr	r3, [r3, #0]
 174 0048 0393     		str	r3, [sp, #12]
 175              		.loc 1 121 0
 176 004a 40F20003 		movw	r3, #:lower16:nextmem
 177 004e C0F20003 		movt	r3, #:upper16:nextmem
 178 0052 1A68     		ldr	r2, [r3, #0]
 179 0054 019B     		ldr	r3, [sp, #4]
 180 0056 1A44     		add	r2, r2, r3
 181 0058 40F20003 		movw	r3, #:lower16:nextmem
 182 005c C0F20003 		movt	r3, #:upper16:nextmem
 183 0060 1A60     		str	r2, [r3, #0]
 184              		.loc 1 122 0
 185 0062 039B     		ldr	r3, [sp, #12]
 186              	.L5:
 187              		.loc 1 123 0
 188 0064 1846     		mov	r0, r3
 189 0066 05B0     		add	sp, sp, #20
 190 0068 00BD     		pop	{pc}
 191              		.cfi_endproc
 192              	.LFE9:
 193              		.size	chCoreAllocI, .-chCoreAllocI
 194 006a 00BFAFF3 		.section	.text.chCoreStatus,"ax",%progbits
 194      0080
 195              		.align	2
 196              		.p2align 4,,15
 197              		.global	chCoreStatus
 198              		.thumb
 199              		.thumb_func
 200              		.type	chCoreStatus, %function
 201              	chCoreStatus:
 202              	.LFB10:
 203              		.loc 1 132 0
 204              		.cfi_startproc
 205              		@ args = 0, pretend = 0, frame = 0
 206              		@ frame_needed = 0, uses_anonymous_args = 0
 207              		@ link register save eliminated.
 208              		.loc 1 134 0
 209 0000 40F20003 		movw	r3, #:lower16:endmem
 210 0004 C0F20003 		movt	r3, #:upper16:endmem
 211 0008 1B68     		ldr	r3, [r3, #0]
 212 000a 1A46     		mov	r2, r3
 213 000c 40F20003 		movw	r3, #:lower16:nextmem
 214 0010 C0F20003 		movt	r3, #:upper16:nextmem
 215 0014 1B68     		ldr	r3, [r3, #0]
 216 0016 C3EB0203 		rsb	r3, r3, r2
 217              		.loc 1 135 0
 218 001a 1846     		mov	r0, r3
 219 001c 7047     		bx	lr
 220              		.cfi_endproc
 221              	.LFE10:
ARM GAS  C:\Users\z80\AppData\Local\Temp\ccvlwjfZ.s 			page 5


 222              		.size	chCoreStatus, .-chCoreStatus
 223 001e 00BF     		.text
 224              	.Letext0:
 225              		.section	.debug_loc,"",%progbits
 226              	.Ldebug_loc0:
 227              	.LLST0:
 228 0000 00000000 		.4byte	.LFB8
 229 0004 02000000 		.4byte	.LCFI0
 230 0008 0200     		.2byte	0x2
 231 000a 7D       		.byte	0x7d
 232 000b 00       		.sleb128 0
 233 000c 02000000 		.4byte	.LCFI0
 234 0010 04000000 		.4byte	.LCFI1
 235 0014 0200     		.2byte	0x2
 236 0016 7D       		.byte	0x7d
 237 0017 04       		.sleb128 4
 238 0018 04000000 		.4byte	.LCFI1
 239 001c 30000000 		.4byte	.LFE8
 240 0020 0200     		.2byte	0x2
 241 0022 7D       		.byte	0x7d
 242 0023 18       		.sleb128 24
 243 0024 00000000 		.4byte	0x0
 244 0028 00000000 		.4byte	0x0
 245              	.LLST1:
 246 002c 00000000 		.4byte	.LFB9
 247 0030 02000000 		.4byte	.LCFI2
 248 0034 0200     		.2byte	0x2
 249 0036 7D       		.byte	0x7d
 250 0037 00       		.sleb128 0
 251 0038 02000000 		.4byte	.LCFI2
 252 003c 04000000 		.4byte	.LCFI3
 253 0040 0200     		.2byte	0x2
 254 0042 7D       		.byte	0x7d
 255 0043 04       		.sleb128 4
 256 0044 04000000 		.4byte	.LCFI3
 257 0048 6A000000 		.4byte	.LFE9
 258 004c 0200     		.2byte	0x2
 259 004e 7D       		.byte	0x7d
 260 004f 18       		.sleb128 24
 261 0050 00000000 		.4byte	0x0
 262 0054 00000000 		.4byte	0x0
 263              		.file 2 "c:\\programs\\yagarto\\bin\\../lib/gcc/arm-none-eabi/4.5.0/include/stddef.h"
 264              		.file 3 "c:/programs/yagarto/lib/gcc/../../arm-none-eabi/sys-include/stdint.h"
 265              		.section	.debug_info
 266 0000 D3010000 		.4byte	0x1d3
 267 0004 0200     		.2byte	0x2
 268 0006 00000000 		.4byte	.Ldebug_abbrev0
 269 000a 04       		.byte	0x4
 270 000b 01       		.uleb128 0x1
 271 000c 03010000 		.4byte	.LASF20
 272 0010 01       		.byte	0x1
 273 0011 9F000000 		.4byte	.LASF21
 274 0015 74000000 		.4byte	.LASF22
 275 0019 00000000 		.4byte	0x0
 276 001d 00000000 		.4byte	0x0
 277 0021 00000000 		.4byte	.Ldebug_ranges0+0x0
 278 0025 00000000 		.4byte	.Ldebug_line0
ARM GAS  C:\Users\z80\AppData\Local\Temp\ccvlwjfZ.s 			page 6


 279 0029 02       		.uleb128 0x2
 280 002a 04       		.byte	0x4
 281 002b 05       		.byte	0x5
 282 002c 696E7400 		.ascii	"int\000"
 283 0030 03       		.uleb128 0x3
 284 0031 21000000 		.4byte	.LASF2
 285 0035 02       		.byte	0x2
 286 0036 D3       		.byte	0xd3
 287 0037 3B000000 		.4byte	0x3b
 288 003b 04       		.uleb128 0x4
 289 003c 04       		.byte	0x4
 290 003d 07       		.byte	0x7
 291 003e 49010000 		.4byte	.LASF0
 292 0042 04       		.uleb128 0x4
 293 0043 01       		.byte	0x1
 294 0044 06       		.byte	0x6
 295 0045 23010000 		.4byte	.LASF1
 296 0049 03       		.uleb128 0x3
 297 004a CA000000 		.4byte	.LASF3
 298 004e 03       		.byte	0x3
 299 004f 2A       		.byte	0x2a
 300 0050 54000000 		.4byte	0x54
 301 0054 04       		.uleb128 0x4
 302 0055 01       		.byte	0x1
 303 0056 08       		.byte	0x8
 304 0057 D2000000 		.4byte	.LASF4
 305 005b 04       		.uleb128 0x4
 306 005c 02       		.byte	0x2
 307 005d 05       		.byte	0x5
 308 005e 3F010000 		.4byte	.LASF5
 309 0062 04       		.uleb128 0x4
 310 0063 02       		.byte	0x2
 311 0064 07       		.byte	0x7
 312 0065 0E000000 		.4byte	.LASF6
 313 0069 04       		.uleb128 0x4
 314 006a 04       		.byte	0x4
 315 006b 05       		.byte	0x5
 316 006c FA000000 		.4byte	.LASF7
 317 0070 03       		.uleb128 0x3
 318 0071 F1000000 		.4byte	.LASF8
 319 0075 03       		.byte	0x3
 320 0076 50       		.byte	0x50
 321 0077 7B000000 		.4byte	0x7b
 322 007b 04       		.uleb128 0x4
 323 007c 04       		.byte	0x4
 324 007d 07       		.byte	0x7
 325 007e 4B000000 		.4byte	.LASF9
 326 0082 04       		.uleb128 0x4
 327 0083 08       		.byte	0x8
 328 0084 05       		.byte	0x5
 329 0085 00000000 		.4byte	.LASF10
 330 0089 04       		.uleb128 0x4
 331 008a 08       		.byte	0x8
 332 008b 07       		.byte	0x7
 333 008c 5D000000 		.4byte	.LASF11
 334 0090 05       		.uleb128 0x5
 335 0091 04       		.byte	0x4
ARM GAS  C:\Users\z80\AppData\Local\Temp\ccvlwjfZ.s 			page 7


 336 0092 06       		.uleb128 0x6
 337 0093 04       		.byte	0x4
 338 0094 07       		.byte	0x7
 339 0095 04       		.uleb128 0x4
 340 0096 01       		.byte	0x1
 341 0097 08       		.byte	0x8
 342 0098 E0000000 		.4byte	.LASF12
 343 009c 07       		.uleb128 0x7
 344 009d 04       		.byte	0x4
 345 009e 49000000 		.4byte	0x49
 346 00a2 08       		.uleb128 0x8
 347 00a3 01       		.byte	0x1
 348 00a4 34010000 		.4byte	.LASF23
 349 00a8 01       		.byte	0x1
 350 00a9 42       		.byte	0x42
 351 00aa 01       		.byte	0x1
 352 00ab 00000000 		.4byte	.LFB7
 353 00af 36000000 		.4byte	.LFE7
 354 00b3 02       		.byte	0x2
 355 00b4 7D       		.byte	0x7d
 356 00b5 00       		.sleb128 0
 357 00b6 D5000000 		.4byte	0xd5
 358 00ba 09       		.uleb128 0x9
 359 00bb 3D000000 		.4byte	.LASF13
 360 00bf 01       		.byte	0x1
 361 00c0 44       		.byte	0x44
 362 00c1 D5000000 		.4byte	0xd5
 363 00c5 01       		.byte	0x1
 364 00c6 01       		.byte	0x1
 365 00c7 09       		.uleb128 0x9
 366 00c8 30000000 		.4byte	.LASF14
 367 00cc 01       		.byte	0x1
 368 00cd 45       		.byte	0x45
 369 00ce D5000000 		.4byte	0xd5
 370 00d2 01       		.byte	0x1
 371 00d3 01       		.byte	0x1
 372 00d4 00       		.byte	0x0
 373 00d5 0A       		.uleb128 0xa
 374 00d6 49000000 		.4byte	0x49
 375 00da E0000000 		.4byte	0xe0
 376 00de 0B       		.uleb128 0xb
 377 00df 00       		.byte	0x0
 378 00e0 0C       		.uleb128 0xc
 379 00e1 01       		.byte	0x1
 380 00e2 E5000000 		.4byte	.LASF15
 381 00e6 01       		.byte	0x1
 382 00e7 5B       		.byte	0x5b
 383 00e8 01       		.byte	0x1
 384 00e9 90000000 		.4byte	0x90
 385 00ed 00000000 		.4byte	.LFB8
 386 00f1 30000000 		.4byte	.LFE8
 387 00f5 00000000 		.4byte	.LLST0
 388 00f9 4A010000 		.4byte	0x14a
 389 00fd 0D       		.uleb128 0xd
 390 00fe 2F010000 		.4byte	.LASF17
 391 0102 01       		.byte	0x1
 392 0103 5B       		.byte	0x5b
ARM GAS  C:\Users\z80\AppData\Local\Temp\ccvlwjfZ.s 			page 8


 393 0104 30000000 		.4byte	0x30
 394 0108 02       		.byte	0x2
 395 0109 91       		.byte	0x91
 396 010a 6C       		.sleb128 -20
 397 010b 0E       		.uleb128 0xe
 398 010c 7000     		.ascii	"p\000"
 399 010e 01       		.byte	0x1
 400 010f 5C       		.byte	0x5c
 401 0110 90000000 		.4byte	0x90
 402 0114 02       		.byte	0x2
 403 0115 91       		.byte	0x91
 404 0116 74       		.sleb128 -12
 405 0117 0F       		.uleb128 0xf
 406 0118 06000000 		.4byte	.LBB2
 407 011c 0E000000 		.4byte	.LBE2
 408 0120 32010000 		.4byte	0x132
 409 0124 0E       		.uleb128 0xe
 410 0125 746D7000 		.ascii	"tmp\000"
 411 0129 01       		.byte	0x1
 412 012a 5E       		.byte	0x5e
 413 012b 70000000 		.4byte	0x70
 414 012f 01       		.byte	0x1
 415 0130 53       		.byte	0x53
 416 0131 00       		.byte	0x0
 417 0132 10       		.uleb128 0x10
 418 0133 20000000 		.4byte	.LBB3
 419 0137 28000000 		.4byte	.LBE3
 420 013b 0E       		.uleb128 0xe
 421 013c 746D7000 		.ascii	"tmp\000"
 422 0140 01       		.byte	0x1
 423 0141 60       		.byte	0x60
 424 0142 70000000 		.4byte	0x70
 425 0146 01       		.byte	0x1
 426 0147 53       		.byte	0x53
 427 0148 00       		.byte	0x0
 428 0149 00       		.byte	0x0
 429 014a 0C       		.uleb128 0xc
 430 014b 01       		.byte	0x1
 431 014c 16010000 		.4byte	.LASF16
 432 0150 01       		.byte	0x1
 433 0151 70       		.byte	0x70
 434 0152 01       		.byte	0x1
 435 0153 90000000 		.4byte	0x90
 436 0157 00000000 		.4byte	.LFB9
 437 015b 6A000000 		.4byte	.LFE9
 438 015f 2C000000 		.4byte	.LLST1
 439 0163 82010000 		.4byte	0x182
 440 0167 0D       		.uleb128 0xd
 441 0168 2F010000 		.4byte	.LASF17
 442 016c 01       		.byte	0x1
 443 016d 70       		.byte	0x70
 444 016e 30000000 		.4byte	0x30
 445 0172 02       		.byte	0x2
 446 0173 91       		.byte	0x91
 447 0174 6C       		.sleb128 -20
 448 0175 0E       		.uleb128 0xe
 449 0176 7000     		.ascii	"p\000"
ARM GAS  C:\Users\z80\AppData\Local\Temp\ccvlwjfZ.s 			page 9


 450 0178 01       		.byte	0x1
 451 0179 71       		.byte	0x71
 452 017a 90000000 		.4byte	0x90
 453 017e 02       		.byte	0x2
 454 017f 91       		.byte	0x91
 455 0180 74       		.sleb128 -12
 456 0181 00       		.byte	0x0
 457 0182 11       		.uleb128 0x11
 458 0183 01       		.byte	0x1
 459 0184 56010000 		.4byte	.LASF24
 460 0188 01       		.byte	0x1
 461 0189 84       		.byte	0x84
 462 018a 01       		.byte	0x1
 463 018b 30000000 		.4byte	0x30
 464 018f 00000000 		.4byte	.LFB10
 465 0193 1E000000 		.4byte	.LFE10
 466 0197 02       		.byte	0x2
 467 0198 7D       		.byte	0x7d
 468 0199 00       		.sleb128 0
 469 019a 12       		.uleb128 0x12
 470 019b 28000000 		.4byte	.LASF18
 471 019f 01       		.byte	0x1
 472 01a0 3A       		.byte	0x3a
 473 01a1 9C000000 		.4byte	0x9c
 474 01a5 05       		.byte	0x5
 475 01a6 03       		.byte	0x3
 476 01a7 00000000 		.4byte	nextmem
 477 01ab 12       		.uleb128 0x12
 478 01ac 0F010000 		.4byte	.LASF19
 479 01b0 01       		.byte	0x1
 480 01b1 3B       		.byte	0x3b
 481 01b2 9C000000 		.4byte	0x9c
 482 01b6 05       		.byte	0x5
 483 01b7 03       		.byte	0x3
 484 01b8 00000000 		.4byte	endmem
 485 01bc 09       		.uleb128 0x9
 486 01bd 3D000000 		.4byte	.LASF13
 487 01c1 01       		.byte	0x1
 488 01c2 44       		.byte	0x44
 489 01c3 D5000000 		.4byte	0xd5
 490 01c7 01       		.byte	0x1
 491 01c8 01       		.byte	0x1
 492 01c9 09       		.uleb128 0x9
 493 01ca 30000000 		.4byte	.LASF14
 494 01ce 01       		.byte	0x1
 495 01cf 45       		.byte	0x45
 496 01d0 D5000000 		.4byte	0xd5
 497 01d4 01       		.byte	0x1
 498 01d5 01       		.byte	0x1
 499 01d6 00       		.byte	0x0
 500              		.section	.debug_abbrev
 501 0000 01       		.uleb128 0x1
 502 0001 11       		.uleb128 0x11
 503 0002 01       		.byte	0x1
 504 0003 25       		.uleb128 0x25
 505 0004 0E       		.uleb128 0xe
 506 0005 13       		.uleb128 0x13
ARM GAS  C:\Users\z80\AppData\Local\Temp\ccvlwjfZ.s 			page 10


 507 0006 0B       		.uleb128 0xb
 508 0007 03       		.uleb128 0x3
 509 0008 0E       		.uleb128 0xe
 510 0009 1B       		.uleb128 0x1b
 511 000a 0E       		.uleb128 0xe
 512 000b 11       		.uleb128 0x11
 513 000c 01       		.uleb128 0x1
 514 000d 52       		.uleb128 0x52
 515 000e 01       		.uleb128 0x1
 516 000f 55       		.uleb128 0x55
 517 0010 06       		.uleb128 0x6
 518 0011 10       		.uleb128 0x10
 519 0012 06       		.uleb128 0x6
 520 0013 00       		.byte	0x0
 521 0014 00       		.byte	0x0
 522 0015 02       		.uleb128 0x2
 523 0016 24       		.uleb128 0x24
 524 0017 00       		.byte	0x0
 525 0018 0B       		.uleb128 0xb
 526 0019 0B       		.uleb128 0xb
 527 001a 3E       		.uleb128 0x3e
 528 001b 0B       		.uleb128 0xb
 529 001c 03       		.uleb128 0x3
 530 001d 08       		.uleb128 0x8
 531 001e 00       		.byte	0x0
 532 001f 00       		.byte	0x0
 533 0020 03       		.uleb128 0x3
 534 0021 16       		.uleb128 0x16
 535 0022 00       		.byte	0x0
 536 0023 03       		.uleb128 0x3
 537 0024 0E       		.uleb128 0xe
 538 0025 3A       		.uleb128 0x3a
 539 0026 0B       		.uleb128 0xb
 540 0027 3B       		.uleb128 0x3b
 541 0028 0B       		.uleb128 0xb
 542 0029 49       		.uleb128 0x49
 543 002a 13       		.uleb128 0x13
 544 002b 00       		.byte	0x0
 545 002c 00       		.byte	0x0
 546 002d 04       		.uleb128 0x4
 547 002e 24       		.uleb128 0x24
 548 002f 00       		.byte	0x0
 549 0030 0B       		.uleb128 0xb
 550 0031 0B       		.uleb128 0xb
 551 0032 3E       		.uleb128 0x3e
 552 0033 0B       		.uleb128 0xb
 553 0034 03       		.uleb128 0x3
 554 0035 0E       		.uleb128 0xe
 555 0036 00       		.byte	0x0
 556 0037 00       		.byte	0x0
 557 0038 05       		.uleb128 0x5
 558 0039 0F       		.uleb128 0xf
 559 003a 00       		.byte	0x0
 560 003b 0B       		.uleb128 0xb
 561 003c 0B       		.uleb128 0xb
 562 003d 00       		.byte	0x0
 563 003e 00       		.byte	0x0
ARM GAS  C:\Users\z80\AppData\Local\Temp\ccvlwjfZ.s 			page 11


 564 003f 06       		.uleb128 0x6
 565 0040 24       		.uleb128 0x24
 566 0041 00       		.byte	0x0
 567 0042 0B       		.uleb128 0xb
 568 0043 0B       		.uleb128 0xb
 569 0044 3E       		.uleb128 0x3e
 570 0045 0B       		.uleb128 0xb
 571 0046 00       		.byte	0x0
 572 0047 00       		.byte	0x0
 573 0048 07       		.uleb128 0x7
 574 0049 0F       		.uleb128 0xf
 575 004a 00       		.byte	0x0
 576 004b 0B       		.uleb128 0xb
 577 004c 0B       		.uleb128 0xb
 578 004d 49       		.uleb128 0x49
 579 004e 13       		.uleb128 0x13
 580 004f 00       		.byte	0x0
 581 0050 00       		.byte	0x0
 582 0051 08       		.uleb128 0x8
 583 0052 2E       		.uleb128 0x2e
 584 0053 01       		.byte	0x1
 585 0054 3F       		.uleb128 0x3f
 586 0055 0C       		.uleb128 0xc
 587 0056 03       		.uleb128 0x3
 588 0057 0E       		.uleb128 0xe
 589 0058 3A       		.uleb128 0x3a
 590 0059 0B       		.uleb128 0xb
 591 005a 3B       		.uleb128 0x3b
 592 005b 0B       		.uleb128 0xb
 593 005c 27       		.uleb128 0x27
 594 005d 0C       		.uleb128 0xc
 595 005e 11       		.uleb128 0x11
 596 005f 01       		.uleb128 0x1
 597 0060 12       		.uleb128 0x12
 598 0061 01       		.uleb128 0x1
 599 0062 40       		.uleb128 0x40
 600 0063 0A       		.uleb128 0xa
 601 0064 01       		.uleb128 0x1
 602 0065 13       		.uleb128 0x13
 603 0066 00       		.byte	0x0
 604 0067 00       		.byte	0x0
 605 0068 09       		.uleb128 0x9
 606 0069 34       		.uleb128 0x34
 607 006a 00       		.byte	0x0
 608 006b 03       		.uleb128 0x3
 609 006c 0E       		.uleb128 0xe
 610 006d 3A       		.uleb128 0x3a
 611 006e 0B       		.uleb128 0xb
 612 006f 3B       		.uleb128 0x3b
 613 0070 0B       		.uleb128 0xb
 614 0071 49       		.uleb128 0x49
 615 0072 13       		.uleb128 0x13
 616 0073 3F       		.uleb128 0x3f
 617 0074 0C       		.uleb128 0xc
 618 0075 3C       		.uleb128 0x3c
 619 0076 0C       		.uleb128 0xc
 620 0077 00       		.byte	0x0
ARM GAS  C:\Users\z80\AppData\Local\Temp\ccvlwjfZ.s 			page 12


 621 0078 00       		.byte	0x0
 622 0079 0A       		.uleb128 0xa
 623 007a 01       		.uleb128 0x1
 624 007b 01       		.byte	0x1
 625 007c 49       		.uleb128 0x49
 626 007d 13       		.uleb128 0x13
 627 007e 01       		.uleb128 0x1
 628 007f 13       		.uleb128 0x13
 629 0080 00       		.byte	0x0
 630 0081 00       		.byte	0x0
 631 0082 0B       		.uleb128 0xb
 632 0083 21       		.uleb128 0x21
 633 0084 00       		.byte	0x0
 634 0085 00       		.byte	0x0
 635 0086 00       		.byte	0x0
 636 0087 0C       		.uleb128 0xc
 637 0088 2E       		.uleb128 0x2e
 638 0089 01       		.byte	0x1
 639 008a 3F       		.uleb128 0x3f
 640 008b 0C       		.uleb128 0xc
 641 008c 03       		.uleb128 0x3
 642 008d 0E       		.uleb128 0xe
 643 008e 3A       		.uleb128 0x3a
 644 008f 0B       		.uleb128 0xb
 645 0090 3B       		.uleb128 0x3b
 646 0091 0B       		.uleb128 0xb
 647 0092 27       		.uleb128 0x27
 648 0093 0C       		.uleb128 0xc
 649 0094 49       		.uleb128 0x49
 650 0095 13       		.uleb128 0x13
 651 0096 11       		.uleb128 0x11
 652 0097 01       		.uleb128 0x1
 653 0098 12       		.uleb128 0x12
 654 0099 01       		.uleb128 0x1
 655 009a 40       		.uleb128 0x40
 656 009b 06       		.uleb128 0x6
 657 009c 01       		.uleb128 0x1
 658 009d 13       		.uleb128 0x13
 659 009e 00       		.byte	0x0
 660 009f 00       		.byte	0x0
 661 00a0 0D       		.uleb128 0xd
 662 00a1 05       		.uleb128 0x5
 663 00a2 00       		.byte	0x0
 664 00a3 03       		.uleb128 0x3
 665 00a4 0E       		.uleb128 0xe
 666 00a5 3A       		.uleb128 0x3a
 667 00a6 0B       		.uleb128 0xb
 668 00a7 3B       		.uleb128 0x3b
 669 00a8 0B       		.uleb128 0xb
 670 00a9 49       		.uleb128 0x49
 671 00aa 13       		.uleb128 0x13
 672 00ab 02       		.uleb128 0x2
 673 00ac 0A       		.uleb128 0xa
 674 00ad 00       		.byte	0x0
 675 00ae 00       		.byte	0x0
 676 00af 0E       		.uleb128 0xe
 677 00b0 34       		.uleb128 0x34
ARM GAS  C:\Users\z80\AppData\Local\Temp\ccvlwjfZ.s 			page 13


 678 00b1 00       		.byte	0x0
 679 00b2 03       		.uleb128 0x3
 680 00b3 08       		.uleb128 0x8
 681 00b4 3A       		.uleb128 0x3a
 682 00b5 0B       		.uleb128 0xb
 683 00b6 3B       		.uleb128 0x3b
 684 00b7 0B       		.uleb128 0xb
 685 00b8 49       		.uleb128 0x49
 686 00b9 13       		.uleb128 0x13
 687 00ba 02       		.uleb128 0x2
 688 00bb 0A       		.uleb128 0xa
 689 00bc 00       		.byte	0x0
 690 00bd 00       		.byte	0x0
 691 00be 0F       		.uleb128 0xf
 692 00bf 0B       		.uleb128 0xb
 693 00c0 01       		.byte	0x1
 694 00c1 11       		.uleb128 0x11
 695 00c2 01       		.uleb128 0x1
 696 00c3 12       		.uleb128 0x12
 697 00c4 01       		.uleb128 0x1
 698 00c5 01       		.uleb128 0x1
 699 00c6 13       		.uleb128 0x13
 700 00c7 00       		.byte	0x0
 701 00c8 00       		.byte	0x0
 702 00c9 10       		.uleb128 0x10
 703 00ca 0B       		.uleb128 0xb
 704 00cb 01       		.byte	0x1
 705 00cc 11       		.uleb128 0x11
 706 00cd 01       		.uleb128 0x1
 707 00ce 12       		.uleb128 0x12
 708 00cf 01       		.uleb128 0x1
 709 00d0 00       		.byte	0x0
 710 00d1 00       		.byte	0x0
 711 00d2 11       		.uleb128 0x11
 712 00d3 2E       		.uleb128 0x2e
 713 00d4 00       		.byte	0x0
 714 00d5 3F       		.uleb128 0x3f
 715 00d6 0C       		.uleb128 0xc
 716 00d7 03       		.uleb128 0x3
 717 00d8 0E       		.uleb128 0xe
 718 00d9 3A       		.uleb128 0x3a
 719 00da 0B       		.uleb128 0xb
 720 00db 3B       		.uleb128 0x3b
 721 00dc 0B       		.uleb128 0xb
 722 00dd 27       		.uleb128 0x27
 723 00de 0C       		.uleb128 0xc
 724 00df 49       		.uleb128 0x49
 725 00e0 13       		.uleb128 0x13
 726 00e1 11       		.uleb128 0x11
 727 00e2 01       		.uleb128 0x1
 728 00e3 12       		.uleb128 0x12
 729 00e4 01       		.uleb128 0x1
 730 00e5 40       		.uleb128 0x40
 731 00e6 0A       		.uleb128 0xa
 732 00e7 00       		.byte	0x0
 733 00e8 00       		.byte	0x0
 734 00e9 12       		.uleb128 0x12
ARM GAS  C:\Users\z80\AppData\Local\Temp\ccvlwjfZ.s 			page 14


 735 00ea 34       		.uleb128 0x34
 736 00eb 00       		.byte	0x0
 737 00ec 03       		.uleb128 0x3
 738 00ed 0E       		.uleb128 0xe
 739 00ee 3A       		.uleb128 0x3a
 740 00ef 0B       		.uleb128 0xb
 741 00f0 3B       		.uleb128 0x3b
 742 00f1 0B       		.uleb128 0xb
 743 00f2 49       		.uleb128 0x49
 744 00f3 13       		.uleb128 0x13
 745 00f4 02       		.uleb128 0x2
 746 00f5 0A       		.uleb128 0xa
 747 00f6 00       		.byte	0x0
 748 00f7 00       		.byte	0x0
 749 00f8 00       		.byte	0x0
 750              		.section	.debug_pubnames,"",%progbits
 751 0000 4F000000 		.4byte	0x4f
 752 0004 0200     		.2byte	0x2
 753 0006 00000000 		.4byte	.Ldebug_info0
 754 000a D7010000 		.4byte	0x1d7
 755 000e A2000000 		.4byte	0xa2
 756 0012 5F636F72 		.ascii	"_core_init\000"
 756      655F696E 
 756      697400
 757 001d E0000000 		.4byte	0xe0
 758 0021 6368436F 		.ascii	"chCoreAlloc\000"
 758      7265416C 
 758      6C6F6300 
 759 002d 4A010000 		.4byte	0x14a
 760 0031 6368436F 		.ascii	"chCoreAllocI\000"
 760      7265416C 
 760      6C6F6349 
 760      00
 761 003e 82010000 		.4byte	0x182
 762 0042 6368436F 		.ascii	"chCoreStatus\000"
 762      72655374 
 762      61747573 
 762      00
 763 004f 00000000 		.4byte	0x0
 764              		.section	.debug_pubtypes,"",%progbits
 765 0000 32000000 		.4byte	0x32
 766 0004 0200     		.2byte	0x2
 767 0006 00000000 		.4byte	.Ldebug_info0
 768 000a D7010000 		.4byte	0x1d7
 769 000e 30000000 		.4byte	0x30
 770 0012 73697A65 		.ascii	"size_t\000"
 770      5F7400
 771 0019 49000000 		.4byte	0x49
 772 001d 75696E74 		.ascii	"uint8_t\000"
 772      385F7400 
 773 0025 70000000 		.4byte	0x70
 774 0029 75696E74 		.ascii	"uint32_t\000"
 774      33325F74 
 774      00
 775 0032 00000000 		.4byte	0x0
 776              		.section	.debug_aranges,"",%progbits
 777 0000 34000000 		.4byte	0x34
ARM GAS  C:\Users\z80\AppData\Local\Temp\ccvlwjfZ.s 			page 15


 778 0004 0200     		.2byte	0x2
 779 0006 00000000 		.4byte	.Ldebug_info0
 780 000a 04       		.byte	0x4
 781 000b 00       		.byte	0x0
 782 000c 0000     		.2byte	0x0
 783 000e 0000     		.2byte	0x0
 784 0010 00000000 		.4byte	.LFB7
 785 0014 36000000 		.4byte	.LFE7-.LFB7
 786 0018 00000000 		.4byte	.LFB8
 787 001c 30000000 		.4byte	.LFE8-.LFB8
 788 0020 00000000 		.4byte	.LFB9
 789 0024 6A000000 		.4byte	.LFE9-.LFB9
 790 0028 00000000 		.4byte	.LFB10
 791 002c 1E000000 		.4byte	.LFE10-.LFB10
 792 0030 00000000 		.4byte	0x0
 793 0034 00000000 		.4byte	0x0
 794              		.section	.debug_ranges,"",%progbits
 795              	.Ldebug_ranges0:
 796 0000 00000000 		.4byte	.LFB7
 797 0004 36000000 		.4byte	.LFE7
 798 0008 00000000 		.4byte	.LFB8
 799 000c 30000000 		.4byte	.LFE8
 800 0010 00000000 		.4byte	.LFB9
 801 0014 6A000000 		.4byte	.LFE9
 802 0018 00000000 		.4byte	.LFB10
 803 001c 1E000000 		.4byte	.LFE10
 804 0020 00000000 		.4byte	0x0
 805 0024 00000000 		.4byte	0x0
 806              		.section	.debug_str,"MS",%progbits,1
 807              	.LASF10:
 808 0000 6C6F6E67 		.ascii	"long long int\000"
 808      206C6F6E 
 808      6720696E 
 808      7400
 809              	.LASF6:
 810 000e 73686F72 		.ascii	"short unsigned int\000"
 810      7420756E 
 810      7369676E 
 810      65642069 
 810      6E7400
 811              	.LASF2:
 812 0021 73697A65 		.ascii	"size_t\000"
 812      5F7400
 813              	.LASF18:
 814 0028 6E657874 		.ascii	"nextmem\000"
 814      6D656D00 
 815              	.LASF14:
 816 0030 5F5F6865 		.ascii	"__heap_end__\000"
 816      61705F65 
 816      6E645F5F 
 816      00
 817              	.LASF13:
 818 003d 5F5F6865 		.ascii	"__heap_base__\000"
 818      61705F62 
 818      6173655F 
 818      5F00
 819              	.LASF9:
ARM GAS  C:\Users\z80\AppData\Local\Temp\ccvlwjfZ.s 			page 16


 820 004b 6C6F6E67 		.ascii	"long unsigned int\000"
 820      20756E73 
 820      69676E65 
 820      6420696E 
 820      7400
 821              	.LASF11:
 822 005d 6C6F6E67 		.ascii	"long long unsigned int\000"
 822      206C6F6E 
 822      6720756E 
 822      7369676E 
 822      65642069 
 823              	.LASF22:
 824 0074 433A5C70 		.ascii	"C:\\projects\\voltamper.git\\firmware\\voltamp\000"
 824      726F6A65 
 824      6374735C 
 824      766F6C74 
 824      616D7065 
 825              	.LASF21:
 826 009f 2E2E2F63 		.ascii	"../chibios_2.4.x/os/kernel/src/chmemcore.c\000"
 826      68696269 
 826      6F735F32 
 826      2E342E78 
 826      2F6F732F 
 827              	.LASF3:
 828 00ca 75696E74 		.ascii	"uint8_t\000"
 828      385F7400 
 829              	.LASF4:
 830 00d2 756E7369 		.ascii	"unsigned char\000"
 830      676E6564 
 830      20636861 
 830      7200
 831              	.LASF12:
 832 00e0 63686172 		.ascii	"char\000"
 832      00
 833              	.LASF15:
 834 00e5 6368436F 		.ascii	"chCoreAlloc\000"
 834      7265416C 
 834      6C6F6300 
 835              	.LASF8:
 836 00f1 75696E74 		.ascii	"uint32_t\000"
 836      33325F74 
 836      00
 837              	.LASF7:
 838 00fa 6C6F6E67 		.ascii	"long int\000"
 838      20696E74 
 838      00
 839              	.LASF20:
 840 0103 474E5520 		.ascii	"GNU C 4.5.0\000"
 840      4320342E 
 840      352E3000 
 841              	.LASF19:
 842 010f 656E646D 		.ascii	"endmem\000"
 842      656D00
 843              	.LASF16:
 844 0116 6368436F 		.ascii	"chCoreAllocI\000"
 844      7265416C 
 844      6C6F6349 
ARM GAS  C:\Users\z80\AppData\Local\Temp\ccvlwjfZ.s 			page 17


 844      00
 845              	.LASF1:
 846 0123 7369676E 		.ascii	"signed char\000"
 846      65642063 
 846      68617200 
 847              	.LASF17:
 848 012f 73697A65 		.ascii	"size\000"
 848      00
 849              	.LASF23:
 850 0134 5F636F72 		.ascii	"_core_init\000"
 850      655F696E 
 850      697400
 851              	.LASF5:
 852 013f 73686F72 		.ascii	"short int\000"
 852      7420696E 
 852      7400
 853              	.LASF0:
 854 0149 756E7369 		.ascii	"unsigned int\000"
 854      676E6564 
 854      20696E74 
 854      00
 855              	.LASF24:
 856 0156 6368436F 		.ascii	"chCoreStatus\000"
 856      72655374 
 856      61747573 
 856      00
 857              		.ident	"GCC: (GNU) 4.5.0"
ARM GAS  C:\Users\z80\AppData\Local\Temp\ccvlwjfZ.s 			page 18


DEFINED SYMBOLS
                            *ABS*:00000000 chmemcore.c
C:\Users\z80\AppData\Local\Temp\ccvlwjfZ.s:24     .bss.nextmem:00000000 $d
C:\Users\z80\AppData\Local\Temp\ccvlwjfZ.s:27     .bss.nextmem:00000000 nextmem
C:\Users\z80\AppData\Local\Temp\ccvlwjfZ.s:30     .bss.endmem:00000000 $d
C:\Users\z80\AppData\Local\Temp\ccvlwjfZ.s:33     .bss.endmem:00000000 endmem
C:\Users\z80\AppData\Local\Temp\ccvlwjfZ.s:36     .text._core_init:00000000 $t
C:\Users\z80\AppData\Local\Temp\ccvlwjfZ.s:42     .text._core_init:00000000 _core_init
C:\Users\z80\AppData\Local\Temp\ccvlwjfZ.s:73     .text.chCoreAlloc:00000000 $t
C:\Users\z80\AppData\Local\Temp\ccvlwjfZ.s:79     .text.chCoreAlloc:00000000 chCoreAlloc
C:\Users\z80\AppData\Local\Temp\ccvlwjfZ.s:132    .text.chCoreAllocI:00000000 chCoreAllocI
C:\Users\z80\AppData\Local\Temp\ccvlwjfZ.s:126    .text.chCoreAllocI:00000000 $t
C:\Users\z80\AppData\Local\Temp\ccvlwjfZ.s:195    .text.chCoreStatus:00000000 $t
C:\Users\z80\AppData\Local\Temp\ccvlwjfZ.s:201    .text.chCoreStatus:00000000 chCoreStatus
                     .debug_frame:00000010 $d

UNDEFINED SYMBOLS
__heap_base__
__heap_end__
dbg_check_lock
dbg_check_unlock
chDbgCheckClassI
