ARM GAS  /tmp/cc3RiSDH.s 			page 1


   1              		.syntax unified
   2              		.cpu cortex-m3
   3              		.fpu softvfp
   4              		.eabi_attribute 20, 1
   5              		.eabi_attribute 21, 1
   6              		.eabi_attribute 23, 3
   7              		.eabi_attribute 24, 1
   8              		.eabi_attribute 25, 1
   9              		.eabi_attribute 26, 1
  10              		.eabi_attribute 30, 6
  11              		.eabi_attribute 18, 4
  12              		.thumb
  13              		.file	"chmemcore.c"
  20 0000 79010000 		.text
  20      02002101 
  20      00000201 
  20      FB0E0D00 
  20      01010101 
  21              	.Ltext0:
  22              		.cfi_sections	.debug_frame
  23              		.section	.bss.nextmem,"aw",%nobits
  24              		.align	2
  25              		.type	nextmem, %object
  26              		.size	nextmem, 4
  27              	nextmem:
  28 0000 00000000 		.space	4
  29              		.section	.bss.endmem,"aw",%nobits
  30              		.align	2
  31              		.type	endmem, %object
  32              		.size	endmem, 4
  33              	endmem:
  34 0000 00000000 		.space	4
  35              		.section	.text._core_init,"ax",%progbits
  36              		.align	2
  37              		.p2align 4,,15
  38              		.global	_core_init
  39              		.thumb
  40              		.thumb_func
  41              		.type	_core_init, %function
  42              	_core_init:
  43              	.LFB7:
  44              		.file 1 "../chibios_2.4.x/os/kernel/src/chmemcore.c"
  45              		.loc 1 66 0
  46              		.cfi_startproc
  47              		@ args = 0, pretend = 0, frame = 0
  48              		@ frame_needed = 0, uses_anonymous_args = 0
  49              		@ link register save eliminated.
  50              		.loc 1 70 0
  51 0000 074B     		ldr	r3, .L2
  52 0002 03F10703 		add	r3, r3, #7
  53 0006 23F00703 		bic	r3, r3, #7
ARM GAS  /tmp/cc3RiSDH.s 			page 2


  54 000a 1A46     		mov	r2, r3
  55 000c 054B     		ldr	r3, .L2+4
  56 000e 1A60     		str	r2, [r3, #0]
  57              		.loc 1 71 0
  58 0010 054B     		ldr	r3, .L2+8
  59 0012 23F00703 		bic	r3, r3, #7
  60 0016 1A46     		mov	r2, r3
  61 0018 044B     		ldr	r3, .L2+12
  62 001a 1A60     		str	r2, [r3, #0]
  63              		.loc 1 77 0
  64 001c 7047     		bx	lr
  65              	.L3:
  66 001e 00BF     		.align	2
  67              	.L2:
  68 0020 00000000 		.word	__heap_base__
  69 0024 00000000 		.word	nextmem
  70 0028 00000000 		.word	__heap_end__
  71 002c 00000000 		.word	endmem
  72              		.cfi_endproc
  73              	.LFE7:
  74              		.size	_core_init, .-_core_init
  75              		.section	.text.chCoreAlloc,"ax",%progbits
  76              		.align	2
  77              		.p2align 4,,15
  78              		.global	chCoreAlloc
  79              		.thumb
  80              		.thumb_func
  81              		.type	chCoreAlloc, %function
  82              	chCoreAlloc:
  83              	.LFB8:
  84              		.loc 1 91 0
  85              		.cfi_startproc
  86              		@ args = 0, pretend = 0, frame = 16
  87              		@ frame_needed = 0, uses_anonymous_args = 0
  88 0000 00B5     		push	{lr}
  89              	.LCFI0:
  90              		.cfi_def_cfa_offset 4
  91 0002 85B0     		sub	sp, sp, #20
  92              	.LCFI1:
  93              		.cfi_def_cfa_offset 24
  94 0004 0190     		str	r0, [sp, #4]
  95              	.LBB2:
  96              		.loc 1 94 0
  97 0006 4FF02003 		mov	r3, #32
  98              	@ 94 "../chibios_2.4.x/os/kernel/src/chmemcore.c" 1
  99 000a 83F31188 		msr     BASEPRI, r3
 100              	@ 0 "" 2
 101              		.thumb
 102              	.LBE2:
 103              		.cfi_offset 14, -4
 104 000e FFF7FEFF 		bl	dbg_check_lock
 105              		.loc 1 95 0
 106 0012 0198     		ldr	r0, [sp, #4]
 107 0014 FFF7FEFF 		bl	chCoreAllocI
 108 0018 0390     		str	r0, [sp, #12]
 109              		.loc 1 96 0
 110 001a FFF7FEFF 		bl	dbg_check_unlock
ARM GAS  /tmp/cc3RiSDH.s 			page 3


 111              	.LBB3:
 112 001e 4FF00003 		mov	r3, #0
 113              	@ 96 "../chibios_2.4.x/os/kernel/src/chmemcore.c" 1
 114 0022 83F31188 		msr     BASEPRI, r3
 115              	@ 0 "" 2
 116              		.thumb
 117              	.LBE3:
 118              		.loc 1 97 0
 119 0026 039B     		ldr	r3, [sp, #12]
 120              		.loc 1 98 0
 121 0028 1846     		mov	r0, r3
 122 002a 05B0     		add	sp, sp, #20
 123 002c 00BD     		pop	{pc}
 124              		.cfi_endproc
 125              	.LFE8:
 126              		.size	chCoreAlloc, .-chCoreAlloc
 127 002e 00BF     		.section	.text.chCoreAllocI,"ax",%progbits
 128              		.align	2
 129              		.p2align 4,,15
 130              		.global	chCoreAllocI
 131              		.thumb
 132              		.thumb_func
 133              		.type	chCoreAllocI, %function
 134              	chCoreAllocI:
 135              	.LFB9:
 136              		.loc 1 112 0
 137              		.cfi_startproc
 138              		@ args = 0, pretend = 0, frame = 16
 139              		@ frame_needed = 0, uses_anonymous_args = 0
 140 0000 00B5     		push	{lr}
 141              	.LCFI2:
 142              		.cfi_def_cfa_offset 4
 143 0002 85B0     		sub	sp, sp, #20
 144              	.LCFI3:
 145              		.cfi_def_cfa_offset 24
 146 0004 0190     		str	r0, [sp, #4]
 147              		.loc 1 115 0
 148              		.cfi_offset 14, -4
 149 0006 FFF7FEFF 		bl	chDbgCheckClassI
 150              		.loc 1 117 0
 151 000a 019B     		ldr	r3, [sp, #4]
 152 000c 03F10703 		add	r3, r3, #7
 153 0010 23F00703 		bic	r3, r3, #7
 154 0014 0193     		str	r3, [sp, #4]
 155              		.loc 1 118 0
 156 0016 0D4B     		ldr	r3, .L8
 157 0018 1B68     		ldr	r3, [r3, #0]
 158 001a 1A46     		mov	r2, r3
 159 001c 0C4B     		ldr	r3, .L8+4
 160 001e 1B68     		ldr	r3, [r3, #0]
 161 0020 D31A     		subs	r3, r2, r3
 162 0022 1A46     		mov	r2, r3
 163 0024 019B     		ldr	r3, [sp, #4]
 164 0026 9A42     		cmp	r2, r3
 165 0028 02D2     		bcs	.L6
 166              		.loc 1 119 0
 167 002a 4FF00003 		mov	r3, #0
ARM GAS  /tmp/cc3RiSDH.s 			page 4


 168 002e 09E0     		b	.L7
 169              	.L6:
 170              		.loc 1 120 0
 171 0030 074B     		ldr	r3, .L8+4
 172 0032 1B68     		ldr	r3, [r3, #0]
 173 0034 0393     		str	r3, [sp, #12]
 174              		.loc 1 121 0
 175 0036 064B     		ldr	r3, .L8+4
 176 0038 1A68     		ldr	r2, [r3, #0]
 177 003a 019B     		ldr	r3, [sp, #4]
 178 003c D218     		adds	r2, r2, r3
 179 003e 044B     		ldr	r3, .L8+4
 180 0040 1A60     		str	r2, [r3, #0]
 181              		.loc 1 122 0
 182 0042 039B     		ldr	r3, [sp, #12]
 183              	.L7:
 184              		.loc 1 123 0
 185 0044 1846     		mov	r0, r3
 186 0046 05B0     		add	sp, sp, #20
 187 0048 00BD     		pop	{pc}
 188              	.L9:
 189 004a 00BF     		.align	2
 190              	.L8:
 191 004c 00000000 		.word	endmem
 192 0050 00000000 		.word	nextmem
 193              		.cfi_endproc
 194              	.LFE9:
 195              		.size	chCoreAllocI, .-chCoreAllocI
 196 0054 AFF30080 		.section	.text.chCoreStatus,"ax",%progbits
 196      AFF30080 
 196      AFF30080 
 197              		.align	2
 198              		.p2align 4,,15
 199              		.global	chCoreStatus
 200              		.thumb
 201              		.thumb_func
 202              		.type	chCoreStatus, %function
 203              	chCoreStatus:
 204              	.LFB10:
 205              		.loc 1 132 0
 206              		.cfi_startproc
 207              		@ args = 0, pretend = 0, frame = 0
 208              		@ frame_needed = 0, uses_anonymous_args = 0
 209              		@ link register save eliminated.
 210              		.loc 1 134 0
 211 0000 034B     		ldr	r3, .L11
 212 0002 1B68     		ldr	r3, [r3, #0]
 213 0004 1A46     		mov	r2, r3
 214 0006 034B     		ldr	r3, .L11+4
 215 0008 1B68     		ldr	r3, [r3, #0]
 216 000a D31A     		subs	r3, r2, r3
 217              		.loc 1 135 0
 218 000c 1846     		mov	r0, r3
 219 000e 7047     		bx	lr
 220              	.L12:
 221              		.align	2
 222              	.L11:
ARM GAS  /tmp/cc3RiSDH.s 			page 5


 223 0010 00000000 		.word	endmem
 224 0014 00000000 		.word	nextmem
 225              		.cfi_endproc
 226              	.LFE10:
 227              		.size	chCoreStatus, .-chCoreStatus
 228 0018 AFF30080 		.text
 228      AFF30080 
 229              	.Letext0: