ARM GAS  C:\Users\z80\AppData\Local\Temp\ccCopAgh.s 			page 1


   1              		.syntax unified
   2              		.cpu cortex-m3
   3              		.fpu softvfp
   4              		.eabi_attribute 20, 1
   5              		.eabi_attribute 21, 1
   6              		.eabi_attribute 23, 3
   7              		.eabi_attribute 24, 1
   8              		.eabi_attribute 25, 1
   9              		.eabi_attribute 26, 1
  10              		.eabi_attribute 30, 2
  11              		.eabi_attribute 18, 4
  12              		.thumb
  13              		.file	"chmsg.c"
  14              		.section	.debug_abbrev,"",%progbits
  15              	.Ldebug_abbrev0:
  16              		.section	.debug_info,"",%progbits
  17              	.Ldebug_info0:
  18              		.section	.debug_line,"",%progbits
  19              	.Ldebug_line0:
  20 0000 BC010000 		.text
  20      02002B01 
  20      00000201 
  20      FB0E0D00 
  20      01010101 
  21              	.Ltext0:
  22              		.cfi_sections	.debug_frame
  23              		.section	.text.chMsgSend,"ax",%progbits
  24              		.align	2
  25              		.p2align 4,,15
  26              		.global	chMsgSend
  27              		.thumb
  28              		.thumb_func
  29              		.type	chMsgSend, %function
  30              	chMsgSend:
  31              	.LFB7:
  32              		.file 1 "../chibios_2.4.x/os/kernel/src/chmsg.c"
  33              		.loc 1 75 0
  34              		.cfi_startproc
  35              		@ args = 0, pretend = 0, frame = 0
  36              		@ frame_needed = 0, uses_anonymous_args = 0
  37              	.LVL0:
  38              		.loc 1 76 0
  39 0000 154B     		ldr	r3, .L7
  40              		.loc 1 75 0
  41 0002 70B5     		push	{r4, r5, r6, lr}
  42              	.LCFI0:
  43              		.cfi_def_cfa_offset 16
  44              		.loc 1 75 0
  45 0004 0446     		mov	r4, r0
  46              		.cfi_offset 14, -4
  47              		.cfi_offset 6, -8
  48              		.cfi_offset 5, -12
  49              		.cfi_offset 4, -16
  50 0006 0E46     		mov	r6, r1
  51              		.loc 1 76 0
  52 0008 DD69     		ldr	r5, [r3, #28]
  53              	.LVL1:
ARM GAS  C:\Users\z80\AppData\Local\Temp\ccCopAgh.s 			page 2


  54              		.loc 1 78 0
  55 000a 0028     		cmp	r0, #0
  56 000c 20D0     		beq	.L5
  57              	.LVL2:
  58              	.L2:
  59              	.LBB10:
  60              		.loc 1 80 0
  61 000e 2023     		movs	r3, #32
  62              	.LVL3:
  63              	@ 80 "../chibios_2.4.x/os/kernel/src/chmsg.c" 1
  64 0010 83F31188 		msr     BASEPRI, r3
  65              	@ 0 "" 2
  66              	.LVL4:
  67              		.thumb
  68              	.LBE10:
  69 0014 FFF7FEFF 		bl	dbg_check_lock
  70              	.LVL5:
  71              		.loc 1 84 0
  72 0018 94F82010 		ldrb	r1, [r4, #32]	@ zero_extendqisi2
  73              	.LBB11:
  74              	.LBB13:
  75              		.file 2 "../chibios_2.4.x/os/kernel/include/chinline.h"
  76              		.loc 2 55 0
  77 001c 636B     		ldr	r3, [r4, #52]
  78              	.LBE13:
  79              	.LBE11:
  80              		.loc 1 82 0
  81 001e 04F13002 		add	r2, r4, #48
  82              		.loc 1 84 0
  83 0022 0C29     		cmp	r1, #12
  84              	.LBB15:
  85              	.LBB12:
  86              		.loc 2 54 0
  87 0024 2A60     		str	r2, [r5, #0]
  88              	.LBE12:
  89              	.LBE15:
  90              		.loc 1 81 0
  91 0026 AE63     		str	r6, [r5, #56]
  92              		.loc 1 82 0
  93 0028 AA62     		str	r2, [r5, #40]
  94              	.LVL6:
  95              	.LBB16:
  96              	.LBB14:
  97              		.loc 2 55 0
  98 002a 6B60     		str	r3, [r5, #4]
  99              		.loc 2 56 0
 100 002c 6563     		str	r5, [r4, #52]
 101 002e 1D60     		str	r5, [r3, #0]
 102              	.LBE14:
 103              	.LBE16:
 104              		.loc 1 84 0
 105 0030 0AD0     		beq	.L6
 106              	.L3:
 107              		.loc 1 86 0
 108 0032 0A20     		movs	r0, #10
 109 0034 FFF7FEFF 		bl	chSchGoSleepS
 110              		.loc 1 87 0
ARM GAS  C:\Users\z80\AppData\Local\Temp\ccCopAgh.s 			page 3


 111 0038 AC6A     		ldr	r4, [r5, #40]
 112              	.LVL7:
 113              		.loc 1 88 0
 114 003a FFF7FEFF 		bl	dbg_check_unlock
 115              	.LVL8:
 116              	.LBB17:
 117 003e 0023     		movs	r3, #0
 118              	.LVL9:
 119              	@ 88 "../chibios_2.4.x/os/kernel/src/chmsg.c" 1
 120 0040 83F31188 		msr     BASEPRI, r3
 121              	@ 0 "" 2
 122              	.LVL10:
 123              		.thumb
 124              	.LBE17:
 125              		.loc 1 90 0
 126 0044 2046     		mov	r0, r4
 127 0046 70BD     		pop	{r4, r5, r6, pc}
 128              	.LVL11:
 129              	.L6:
 130              		.loc 1 85 0
 131 0048 2046     		mov	r0, r4
 132 004a FFF7FEFF 		bl	chSchReadyI
 133 004e F0E7     		b	.L3
 134              	.LVL12:
 135              	.L5:
 136              		.loc 1 78 0 discriminator 1
 137 0050 0248     		ldr	r0, .L7+4
 138 0052 FFF7FEFF 		bl	chDbgPanic
 139 0056 DAE7     		b	.L2
 140              	.L8:
 141              		.align	2
 142              	.L7:
 143 0058 00000000 		.word	rlist
 144 005c 00000000 		.word	.LC0
 145              		.cfi_endproc
 146              	.LFE7:
 147              		.size	chMsgSend, .-chMsgSend
 148              		.section	.text.chMsgWait,"ax",%progbits
 149              		.align	2
 150              		.p2align 4,,15
 151              		.global	chMsgWait
 152              		.thumb
 153              		.thumb_func
 154              		.type	chMsgWait, %function
 155              	chMsgWait:
 156              	.LFB8:
 157              		.loc 1 106 0
 158              		.cfi_startproc
 159              		@ args = 0, pretend = 0, frame = 0
 160              		@ frame_needed = 0, uses_anonymous_args = 0
 161 0000 38B5     		push	{r3, r4, r5, lr}
 162              	.LCFI1:
 163              		.cfi_def_cfa_offset 16
 164              	.LBB18:
 165              		.loc 1 109 0
 166 0002 2023     		movs	r3, #32
 167              		.cfi_offset 14, -4
ARM GAS  C:\Users\z80\AppData\Local\Temp\ccCopAgh.s 			page 4


 168              		.cfi_offset 5, -8
 169              		.cfi_offset 4, -12
 170              		.cfi_offset 3, -16
 171              	.LVL13:
 172              	@ 109 "../chibios_2.4.x/os/kernel/src/chmsg.c" 1
 173 0004 83F31188 		msr     BASEPRI, r3
 174              	@ 0 "" 2
 175              	.LVL14:
 176              		.thumb
 177              	.LBE18:
 178              		.loc 1 110 0
 179 0008 0E4D     		ldr	r5, .L12
 180              		.loc 1 109 0
 181 000a FFF7FEFF 		bl	dbg_check_lock
 182              	.LVL15:
 183              		.loc 1 110 0
 184 000e EA69     		ldr	r2, [r5, #28]
 185 0010 1346     		mov	r3, r2
 186 0012 53F8304F 		ldr	r4, [r3, #48]!
 187 0016 9C42     		cmp	r4, r3
 188 0018 0CD0     		beq	.L11
 189              	.L10:
 190              	.LVL16:
 191              	.LBB19:
 192              	.LBB20:
 193              		.loc 2 62 0
 194 001a 2168     		ldr	r1, [r4, #0]
 195 001c 4B60     		str	r3, [r1, #4]
 196              	.LBE20:
 197              	.LBE19:
 198              		.loc 1 113 0
 199 001e 0B23     		movs	r3, #11
 200 0020 84F82030 		strb	r3, [r4, #32]
 201              	.LBB22:
 202              	.LBB21:
 203              		.loc 2 62 0
 204 0024 1163     		str	r1, [r2, #48]
 205              	.LBE21:
 206              	.LBE22:
 207              		.loc 1 114 0
 208 0026 FFF7FEFF 		bl	dbg_check_unlock
 209              	.LVL17:
 210              	.LBB23:
 211 002a 0023     		movs	r3, #0
 212              	.LVL18:
 213              	@ 114 "../chibios_2.4.x/os/kernel/src/chmsg.c" 1
 214 002c 83F31188 		msr     BASEPRI, r3
 215              	@ 0 "" 2
 216              	.LVL19:
 217              		.thumb
 218              	.LBE23:
 219              		.loc 1 116 0
 220 0030 2046     		mov	r0, r4
 221 0032 38BD     		pop	{r3, r4, r5, pc}
 222              	.LVL20:
 223              	.L11:
 224              		.loc 1 111 0
ARM GAS  C:\Users\z80\AppData\Local\Temp\ccCopAgh.s 			page 5


 225 0034 0C20     		movs	r0, #12
 226 0036 FFF7FEFF 		bl	chSchGoSleepS
 227 003a EA69     		ldr	r2, [r5, #28]
 228 003c 1346     		mov	r3, r2
 229 003e 53F8304F 		ldr	r4, [r3, #48]!
 230 0042 EAE7     		b	.L10
 231              	.L13:
 232              		.align	2
 233              	.L12:
 234 0044 00000000 		.word	rlist
 235              		.cfi_endproc
 236              	.LFE8:
 237              		.size	chMsgWait, .-chMsgWait
 238 0048 AFF30080 		.section	.text.chMsgRelease,"ax",%progbits
 238      AFF30080 
 239              		.align	2
 240              		.p2align 4,,15
 241              		.global	chMsgRelease
 242              		.thumb
 243              		.thumb_func
 244              		.type	chMsgRelease, %function
 245              	chMsgRelease:
 246              	.LFB9:
 247              		.loc 1 128 0
 248              		.cfi_startproc
 249              		@ args = 0, pretend = 0, frame = 0
 250              		@ frame_needed = 0, uses_anonymous_args = 0
 251              	.LVL21:
 252 0000 38B5     		push	{r3, r4, r5, lr}
 253              	.LCFI2:
 254              		.cfi_def_cfa_offset 16
 255              		.loc 1 128 0
 256 0002 0446     		mov	r4, r0
 257              		.cfi_offset 14, -4
 258              		.cfi_offset 5, -8
 259              		.cfi_offset 4, -12
 260              		.cfi_offset 3, -16
 261 0004 0D46     		mov	r5, r1
 262              	.LBB24:
 263              		.loc 1 130 0
 264 0006 2023     		movs	r3, #32
 265              	.LVL22:
 266              	@ 130 "../chibios_2.4.x/os/kernel/src/chmsg.c" 1
 267 0008 83F31188 		msr     BASEPRI, r3
 268              	@ 0 "" 2
 269              	.LVL23:
 270              		.thumb
 271              	.LBE24:
 272 000c FFF7FEFF 		bl	dbg_check_lock
 273              	.LVL24:
 274              		.loc 1 131 0
 275 0010 94F82030 		ldrb	r3, [r4, #32]	@ zero_extendqisi2
 276 0014 0B2B     		cmp	r3, #11
 277 0016 02D0     		beq	.L15
 278              		.loc 1 131 0 is_stmt 0 discriminator 1
 279 0018 0648     		ldr	r0, .L16
 280 001a FFF7FEFF 		bl	chDbgPanic
ARM GAS  C:\Users\z80\AppData\Local\Temp\ccCopAgh.s 			page 6


 281              	.L15:
 282              		.loc 1 133 0 is_stmt 1
 283 001e 2046     		mov	r0, r4
 284 0020 2946     		mov	r1, r5
 285 0022 FFF7FEFF 		bl	chSchWakeupS
 286              		.loc 1 134 0
 287 0026 FFF7FEFF 		bl	dbg_check_unlock
 288              	.LBB25:
 289 002a 0023     		movs	r3, #0
 290              	.LVL25:
 291              	@ 134 "../chibios_2.4.x/os/kernel/src/chmsg.c" 1
 292 002c 83F31188 		msr     BASEPRI, r3
 293              	@ 0 "" 2
 294              	.LVL26:
 295              		.thumb
 296              	.LBE25:
 297              		.loc 1 135 0
 298 0030 38BD     		pop	{r3, r4, r5, pc}
 299              	.L17:
 300 0032 00BF     		.align	2
 301              	.L16:
 302 0034 10000000 		.word	.LC1
 303              		.cfi_endproc
 304              	.LFE9:
 305              		.size	chMsgRelease, .-chMsgRelease
 306 0038 AFF30080 		.section	.rodata.str1.4,"aMS",%progbits,1
 306      AFF30080 
 307              		.align	2
 308              	.LC0:
 309 0000 2263684D 		.ascii	"\"chMsgSend\"()\000"
 309      73675365 
 309      6E642228 
 309      2900
 310 000e 0000     		.space	2
 311              	.LC1:
 312 0010 63684D73 		.ascii	"chMsgRelease(), #1\000"
 312      6752656C 
 312      65617365 
 312      28292C20 
 312      233100
 313 0023 00       		.text
 314              	.Letext0:
 315              		.section	.debug_loc,"",%progbits
 316              	.Ldebug_loc0:
 317              	.LLST0:
 318 0000 00000000 		.4byte	.LFB7
 319 0004 04000000 		.4byte	.LCFI0
 320 0008 0200     		.2byte	0x2
 321 000a 7D       		.byte	0x7d
 322 000b 00       		.sleb128 0
 323 000c 04000000 		.4byte	.LCFI0
 324 0010 60000000 		.4byte	.LFE7
 325 0014 0200     		.2byte	0x2
 326 0016 7D       		.byte	0x7d
 327 0017 10       		.sleb128 16
 328 0018 00000000 		.4byte	0x0
 329 001c 00000000 		.4byte	0x0
ARM GAS  C:\Users\z80\AppData\Local\Temp\ccCopAgh.s 			page 7


 330              	.LLST1:
 331 0020 00000000 		.4byte	.LVL0
 332 0024 0E000000 		.4byte	.LVL2
 333 0028 0100     		.2byte	0x1
 334 002a 50       		.byte	0x50
 335 002b 0E000000 		.4byte	.LVL2
 336 002f 3A000000 		.4byte	.LVL7
 337 0033 0100     		.2byte	0x1
 338 0035 54       		.byte	0x54
 339 0036 48000000 		.4byte	.LVL11
 340 003a 60000000 		.4byte	.LFE7
 341 003e 0100     		.2byte	0x1
 342 0040 54       		.byte	0x54
 343 0041 00000000 		.4byte	0x0
 344 0045 00000000 		.4byte	0x0
 345              	.LLST2:
 346 0049 00000000 		.4byte	.LVL0
 347 004d 0E000000 		.4byte	.LVL2
 348 0051 0100     		.2byte	0x1
 349 0053 51       		.byte	0x51
 350 0054 0E000000 		.4byte	.LVL2
 351 0058 3A000000 		.4byte	.LVL7
 352 005c 0100     		.2byte	0x1
 353 005e 56       		.byte	0x56
 354 005f 3A000000 		.4byte	.LVL7
 355 0063 3D000000 		.4byte	.LVL8-1
 356 0067 0200     		.2byte	0x2
 357 0069 75       		.byte	0x75
 358 006a 28       		.sleb128 40
 359 006b 3D000000 		.4byte	.LVL8-1
 360 006f 48000000 		.4byte	.LVL11
 361 0073 0100     		.2byte	0x1
 362 0075 54       		.byte	0x54
 363 0076 48000000 		.4byte	.LVL11
 364 007a 60000000 		.4byte	.LFE7
 365 007e 0100     		.2byte	0x1
 366 0080 56       		.byte	0x56
 367 0081 00000000 		.4byte	0x0
 368 0085 00000000 		.4byte	0x0
 369              	.LLST3:
 370 0089 0A000000 		.4byte	.LVL1
 371 008d 0E000000 		.4byte	.LVL2
 372 0091 0200     		.2byte	0x2
 373 0093 73       		.byte	0x73
 374 0094 1C       		.sleb128 28
 375 0095 0E000000 		.4byte	.LVL2
 376 0099 60000000 		.4byte	.LFE7
 377 009d 0100     		.2byte	0x1
 378 009f 55       		.byte	0x55
 379 00a0 00000000 		.4byte	0x0
 380 00a4 00000000 		.4byte	0x0
 381              	.LLST4:
 382 00a8 14000000 		.4byte	.LVL4
 383 00ac 17000000 		.4byte	.LVL5-1
 384 00b0 0100     		.2byte	0x1
 385 00b2 53       		.byte	0x53
 386 00b3 00000000 		.4byte	0x0
ARM GAS  C:\Users\z80\AppData\Local\Temp\ccCopAgh.s 			page 8


 387 00b7 00000000 		.4byte	0x0
 388              	.LLST5:
 389 00bb 2A000000 		.4byte	.LVL6
 390 00bf 50000000 		.4byte	.LVL12
 391 00c3 0100     		.2byte	0x1
 392 00c5 55       		.byte	0x55
 393 00c6 00000000 		.4byte	0x0
 394 00ca 00000000 		.4byte	0x0
 395              	.LLST6:
 396 00ce 44000000 		.4byte	.LVL10
 397 00d2 48000000 		.4byte	.LVL11
 398 00d6 0100     		.2byte	0x1
 399 00d8 53       		.byte	0x53
 400 00d9 00000000 		.4byte	0x0
 401 00dd 00000000 		.4byte	0x0
 402              	.LLST7:
 403 00e1 00000000 		.4byte	.LFB8
 404 00e5 02000000 		.4byte	.LCFI1
 405 00e9 0200     		.2byte	0x2
 406 00eb 7D       		.byte	0x7d
 407 00ec 00       		.sleb128 0
 408 00ed 02000000 		.4byte	.LCFI1
 409 00f1 48000000 		.4byte	.LFE8
 410 00f5 0200     		.2byte	0x2
 411 00f7 7D       		.byte	0x7d
 412 00f8 10       		.sleb128 16
 413 00f9 00000000 		.4byte	0x0
 414 00fd 00000000 		.4byte	0x0
 415              	.LLST8:
 416 0101 08000000 		.4byte	.LVL14
 417 0105 0D000000 		.4byte	.LVL15-1
 418 0109 0100     		.2byte	0x1
 419 010b 53       		.byte	0x53
 420 010c 00000000 		.4byte	0x0
 421 0110 00000000 		.4byte	0x0
 422              	.LLST9:
 423 0114 1A000000 		.4byte	.LVL16
 424 0118 29000000 		.4byte	.LVL17-1
 425 011c 0300     		.2byte	0x3
 426 011e 72       		.byte	0x72
 427 011f 30       		.sleb128 48
 428 0120 9F       		.byte	0x9f
 429 0121 00000000 		.4byte	0x0
 430 0125 00000000 		.4byte	0x0
 431              	.LLST10:
 432 0129 1A000000 		.4byte	.LVL16
 433 012d 34000000 		.4byte	.LVL20
 434 0131 0100     		.2byte	0x1
 435 0133 54       		.byte	0x54
 436 0134 00000000 		.4byte	0x0
 437 0138 00000000 		.4byte	0x0
 438              	.LLST11:
 439 013c 30000000 		.4byte	.LVL19
 440 0140 34000000 		.4byte	.LVL20
 441 0144 0100     		.2byte	0x1
 442 0146 53       		.byte	0x53
 443 0147 00000000 		.4byte	0x0
ARM GAS  C:\Users\z80\AppData\Local\Temp\ccCopAgh.s 			page 9


 444 014b 00000000 		.4byte	0x0
 445              	.LLST12:
 446 014f 00000000 		.4byte	.LFB9
 447 0153 02000000 		.4byte	.LCFI2
 448 0157 0200     		.2byte	0x2
 449 0159 7D       		.byte	0x7d
 450 015a 00       		.sleb128 0
 451 015b 02000000 		.4byte	.LCFI2
 452 015f 38000000 		.4byte	.LFE9
 453 0163 0200     		.2byte	0x2
 454 0165 7D       		.byte	0x7d
 455 0166 10       		.sleb128 16
 456 0167 00000000 		.4byte	0x0
 457 016b 00000000 		.4byte	0x0
 458              	.LLST13:
 459 016f 00000000 		.4byte	.LVL21
 460 0173 0F000000 		.4byte	.LVL24-1
 461 0177 0100     		.2byte	0x1
 462 0179 50       		.byte	0x50
 463 017a 0F000000 		.4byte	.LVL24-1
 464 017e 38000000 		.4byte	.LFE9
 465 0182 0100     		.2byte	0x1
 466 0184 54       		.byte	0x54
 467 0185 00000000 		.4byte	0x0
 468 0189 00000000 		.4byte	0x0
 469              	.LLST14:
 470 018d 00000000 		.4byte	.LVL21
 471 0191 0F000000 		.4byte	.LVL24-1
 472 0195 0100     		.2byte	0x1
 473 0197 51       		.byte	0x51
 474 0198 0F000000 		.4byte	.LVL24-1
 475 019c 38000000 		.4byte	.LFE9
 476 01a0 0100     		.2byte	0x1
 477 01a2 55       		.byte	0x55
 478 01a3 00000000 		.4byte	0x0
 479 01a7 00000000 		.4byte	0x0
 480              	.LLST15:
 481 01ab 0C000000 		.4byte	.LVL23
 482 01af 0F000000 		.4byte	.LVL24-1
 483 01b3 0100     		.2byte	0x1
 484 01b5 53       		.byte	0x53
 485 01b6 00000000 		.4byte	0x0
 486 01ba 00000000 		.4byte	0x0
 487              	.LLST16:
 488 01be 30000000 		.4byte	.LVL26
 489 01c2 38000000 		.4byte	.LFE9
 490 01c6 0100     		.2byte	0x1
 491 01c8 53       		.byte	0x53
 492 01c9 00000000 		.4byte	0x0
 493 01cd 00000000 		.4byte	0x0
 494              		.file 3 "c:/programs/yagarto/lib/gcc/../../arm-none-eabi/sys-include/stdint.h"
 495              		.file 4 "../chibios_2.4.x/os/ports/GCC/ARMCMx/chtypes.h"
 496              		.file 5 "../chibios_2.4.x/os/kernel/include/chlists.h"
 497              		.file 6 "../chibios_2.4.x/os/kernel/include/chthreads.h"
 498              		.file 7 "../chibios_2.4.x/os/ports/GCC/ARMCMx/chcore_v7m.h"
 499              		.file 8 "../chibios_2.4.x/os/kernel/include/chschd.h"
 500              		.file 9 "../chibios_2.4.x/os/kernel/include/chmtx.h"
ARM GAS  C:\Users\z80\AppData\Local\Temp\ccCopAgh.s 			page 10


 501              		.section	.debug_info
 502 0000 5C060000 		.4byte	0x65c
 503 0004 0200     		.2byte	0x2
 504 0006 00000000 		.4byte	.Ldebug_abbrev0
 505 000a 04       		.byte	0x4
 506 000b 01       		.uleb128 0x1
 507 000c AF020000 		.4byte	.LASF67
 508 0010 01       		.byte	0x1
 509 0011 69020000 		.4byte	.LASF68
 510 0015 46010000 		.4byte	.LASF69
 511 0019 00000000 		.4byte	0x0
 512 001d 00000000 		.4byte	0x0
 513 0021 50000000 		.4byte	.Ldebug_ranges0+0x50
 514 0025 00000000 		.4byte	.Ldebug_line0
 515 0029 02       		.uleb128 0x2
 516 002a 04       		.byte	0x4
 517 002b 05       		.byte	0x5
 518 002c 696E7400 		.ascii	"int\000"
 519 0030 03       		.uleb128 0x3
 520 0031 04       		.byte	0x4
 521 0032 07       		.byte	0x7
 522 0033 BA000000 		.4byte	.LASF0
 523 0037 03       		.uleb128 0x3
 524 0038 01       		.byte	0x1
 525 0039 06       		.byte	0x6
 526 003a 58000000 		.4byte	.LASF1
 527 003e 04       		.uleb128 0x4
 528 003f A7020000 		.4byte	.LASF5
 529 0043 03       		.byte	0x3
 530 0044 2A       		.byte	0x2a
 531 0045 49000000 		.4byte	0x49
 532 0049 03       		.uleb128 0x3
 533 004a 01       		.byte	0x1
 534 004b 08       		.byte	0x8
 535 004c A2010000 		.4byte	.LASF2
 536 0050 03       		.uleb128 0x3
 537 0051 02       		.byte	0x2
 538 0052 05       		.byte	0x5
 539 0053 BA010000 		.4byte	.LASF3
 540 0057 03       		.uleb128 0x3
 541 0058 02       		.byte	0x2
 542 0059 07       		.byte	0x7
 543 005a E1000000 		.4byte	.LASF4
 544 005e 04       		.uleb128 0x4
 545 005f 9A010000 		.4byte	.LASF6
 546 0063 03       		.byte	0x3
 547 0064 4F       		.byte	0x4f
 548 0065 69000000 		.4byte	0x69
 549 0069 03       		.uleb128 0x3
 550 006a 04       		.byte	0x4
 551 006b 05       		.byte	0x5
 552 006c 74000000 		.4byte	.LASF7
 553 0070 04       		.uleb128 0x4
 554 0071 08020000 		.4byte	.LASF8
 555 0075 03       		.byte	0x3
 556 0076 50       		.byte	0x50
 557 0077 7B000000 		.4byte	0x7b
ARM GAS  C:\Users\z80\AppData\Local\Temp\ccCopAgh.s 			page 11


 558 007b 03       		.uleb128 0x3
 559 007c 04       		.byte	0x4
 560 007d 07       		.byte	0x7
 561 007e C7000000 		.4byte	.LASF9
 562 0082 03       		.uleb128 0x3
 563 0083 08       		.byte	0x8
 564 0084 05       		.byte	0x5
 565 0085 4A000000 		.4byte	.LASF10
 566 0089 04       		.uleb128 0x4
 567 008a 1A000000 		.4byte	.LASF11
 568 008e 03       		.byte	0x3
 569 008f 78       		.byte	0x78
 570 0090 94000000 		.4byte	0x94
 571 0094 03       		.uleb128 0x3
 572 0095 08       		.byte	0x8
 573 0096 07       		.byte	0x7
 574 0097 23000000 		.4byte	.LASF12
 575 009b 04       		.uleb128 0x4
 576 009c FA000000 		.4byte	.LASF13
 577 00a0 04       		.byte	0x4
 578 00a1 2F       		.byte	0x2f
 579 00a2 3E000000 		.4byte	0x3e
 580 00a6 04       		.uleb128 0x4
 581 00a7 87000000 		.4byte	.LASF14
 582 00ab 04       		.byte	0x4
 583 00ac 30       		.byte	0x30
 584 00ad 3E000000 		.4byte	0x3e
 585 00b1 04       		.uleb128 0x4
 586 00b2 83010000 		.4byte	.LASF15
 587 00b6 04       		.byte	0x4
 588 00b7 31       		.byte	0x31
 589 00b8 3E000000 		.4byte	0x3e
 590 00bc 04       		.uleb128 0x4
 591 00bd 92010000 		.4byte	.LASF16
 592 00c1 04       		.byte	0x4
 593 00c2 32       		.byte	0x32
 594 00c3 70000000 		.4byte	0x70
 595 00c7 04       		.uleb128 0x4
 596 00c8 F4000000 		.4byte	.LASF17
 597 00cc 04       		.byte	0x4
 598 00cd 33       		.byte	0x33
 599 00ce 5E000000 		.4byte	0x5e
 600 00d2 04       		.uleb128 0x4
 601 00d3 0E010000 		.4byte	.LASF18
 602 00d7 04       		.byte	0x4
 603 00d8 35       		.byte	0x35
 604 00d9 70000000 		.4byte	0x70
 605 00dd 04       		.uleb128 0x4
 606 00de 31020000 		.4byte	.LASF19
 607 00e2 04       		.byte	0x4
 608 00e3 36       		.byte	0x36
 609 00e4 70000000 		.4byte	0x70
 610 00e8 04       		.uleb128 0x4
 611 00e9 A9000000 		.4byte	.LASF20
 612 00ed 04       		.byte	0x4
 613 00ee 37       		.byte	0x37
 614 00ef 5E000000 		.4byte	0x5e
ARM GAS  C:\Users\z80\AppData\Local\Temp\ccCopAgh.s 			page 12


 615 00f3 04       		.uleb128 0x4
 616 00f4 E9010000 		.4byte	.LASF21
 617 00f8 05       		.byte	0x5
 618 00f9 2A       		.byte	0x2a
 619 00fa FE000000 		.4byte	0xfe
 620 00fe 05       		.uleb128 0x5
 621 00ff E9010000 		.4byte	.LASF21
 622 0103 4C       		.byte	0x4c
 623 0104 06       		.byte	0x6
 624 0105 5E       		.byte	0x5e
 625 0106 23020000 		.4byte	0x223
 626 010a 06       		.uleb128 0x6
 627 010b DA010000 		.4byte	.LASF22
 628 010f 06       		.byte	0x6
 629 0110 5F       		.byte	0x5f
 630 0111 48020000 		.4byte	0x248
 631 0115 02       		.byte	0x2
 632 0116 23       		.byte	0x23
 633 0117 00       		.uleb128 0x0
 634 0118 06       		.uleb128 0x6
 635 0119 8B010000 		.4byte	.LASF23
 636 011d 06       		.byte	0x6
 637 011e 61       		.byte	0x61
 638 011f 48020000 		.4byte	0x248
 639 0123 02       		.byte	0x2
 640 0124 23       		.byte	0x23
 641 0125 04       		.uleb128 0x4
 642 0126 06       		.uleb128 0x6
 643 0127 43000000 		.4byte	.LASF24
 644 012b 06       		.byte	0x6
 645 012c 63       		.byte	0x63
 646 012d BC000000 		.4byte	0xbc
 647 0131 02       		.byte	0x2
 648 0132 23       		.byte	0x23
 649 0133 08       		.uleb128 0x8
 650 0134 06       		.uleb128 0x6
 651 0135 DB020000 		.4byte	.LASF25
 652 0139 06       		.byte	0x6
 653 013a 64       		.byte	0x64
 654 013b 20030000 		.4byte	0x320
 655 013f 02       		.byte	0x2
 656 0140 23       		.byte	0x23
 657 0141 0C       		.uleb128 0xc
 658 0142 06       		.uleb128 0x6
 659 0143 90000000 		.4byte	.LASF26
 660 0147 06       		.byte	0x6
 661 0148 66       		.byte	0x66
 662 0149 48020000 		.4byte	0x248
 663 014d 02       		.byte	0x2
 664 014e 23       		.byte	0x23
 665 014f 10       		.uleb128 0x10
 666 0150 06       		.uleb128 0x6
 667 0151 2B010000 		.4byte	.LASF27
 668 0155 06       		.byte	0x6
 669 0156 67       		.byte	0x67
 670 0157 48020000 		.4byte	0x248
 671 015b 02       		.byte	0x2
ARM GAS  C:\Users\z80\AppData\Local\Temp\ccCopAgh.s 			page 13


 672 015c 23       		.byte	0x23
 673 015d 14       		.uleb128 0x14
 674 015e 06       		.uleb128 0x6
 675 015f C2020000 		.4byte	.LASF28
 676 0163 06       		.byte	0x6
 677 0164 6E       		.byte	0x6e
 678 0165 3E040000 		.4byte	0x43e
 679 0169 02       		.byte	0x2
 680 016a 23       		.byte	0x23
 681 016b 18       		.uleb128 0x18
 682 016c 06       		.uleb128 0x6
 683 016d AF000000 		.4byte	.LASF29
 684 0171 06       		.byte	0x6
 685 0172 74       		.byte	0x74
 686 0173 50040000 		.4byte	0x450
 687 0177 02       		.byte	0x2
 688 0178 23       		.byte	0x23
 689 0179 1C       		.uleb128 0x1c
 690 017a 06       		.uleb128 0x6
 691 017b C4010000 		.4byte	.LASF30
 692 017f 06       		.byte	0x6
 693 0180 79       		.byte	0x79
 694 0181 A6000000 		.4byte	0xa6
 695 0185 02       		.byte	0x2
 696 0186 23       		.byte	0x23
 697 0187 20       		.uleb128 0x20
 698 0188 06       		.uleb128 0x6
 699 0189 E1010000 		.4byte	.LASF31
 700 018d 06       		.byte	0x6
 701 018e 7D       		.byte	0x7d
 702 018f 9B000000 		.4byte	0x9b
 703 0193 02       		.byte	0x2
 704 0194 23       		.byte	0x23
 705 0195 21       		.uleb128 0x21
 706 0196 06       		.uleb128 0x6
 707 0197 90020000 		.4byte	.LASF32
 708 019b 06       		.byte	0x6
 709 019c 82       		.byte	0x82
 710 019d B1000000 		.4byte	0xb1
 711 01a1 02       		.byte	0x2
 712 01a2 23       		.byte	0x23
 713 01a3 22       		.uleb128 0x22
 714 01a4 06       		.uleb128 0x6
 715 01a5 46020000 		.4byte	.LASF33
 716 01a9 06       		.byte	0x6
 717 01aa 89       		.byte	0x89
 718 01ab 46030000 		.4byte	0x346
 719 01af 02       		.byte	0x2
 720 01b0 23       		.byte	0x23
 721 01b1 24       		.uleb128 0x24
 722 01b2 07       		.uleb128 0x7
 723 01b3 705F7500 		.ascii	"p_u\000"
 724 01b7 06       		.byte	0x6
 725 01b8 AE       		.byte	0xae
 726 01b9 09040000 		.4byte	0x409
 727 01bd 02       		.byte	0x2
 728 01be 23       		.byte	0x23
ARM GAS  C:\Users\z80\AppData\Local\Temp\ccCopAgh.s 			page 14


 729 01bf 28       		.uleb128 0x28
 730 01c0 06       		.uleb128 0x6
 731 01c1 E1020000 		.4byte	.LASF34
 732 01c5 06       		.byte	0x6
 733 01c6 B3       		.byte	0xb3
 734 01c7 70020000 		.4byte	0x270
 735 01cb 02       		.byte	0x2
 736 01cc 23       		.byte	0x23
 737 01cd 2C       		.uleb128 0x2c
 738 01ce 06       		.uleb128 0x6
 739 01cf 54020000 		.4byte	.LASF35
 740 01d3 06       		.byte	0x6
 741 01d4 B9       		.byte	0xb9
 742 01d5 4E020000 		.4byte	0x24e
 743 01d9 02       		.byte	0x2
 744 01da 23       		.byte	0x23
 745 01db 30       		.uleb128 0x30
 746 01dc 06       		.uleb128 0x6
 747 01dd 00000000 		.4byte	.LASF36
 748 01e1 06       		.byte	0x6
 749 01e2 BD       		.byte	0xbd
 750 01e3 C7000000 		.4byte	0xc7
 751 01e7 02       		.byte	0x2
 752 01e8 23       		.byte	0x23
 753 01e9 38       		.uleb128 0x38
 754 01ea 06       		.uleb128 0x6
 755 01eb FD010000 		.4byte	.LASF37
 756 01ef 06       		.byte	0x6
 757 01f0 C3       		.byte	0xc3
 758 01f1 D2000000 		.4byte	0xd2
 759 01f5 02       		.byte	0x2
 760 01f6 23       		.byte	0x23
 761 01f7 3C       		.uleb128 0x3c
 762 01f8 06       		.uleb128 0x6
 763 01f9 B0010000 		.4byte	.LASF38
 764 01fd 06       		.byte	0x6
 765 01fe CA       		.byte	0xca
 766 01ff 56040000 		.4byte	0x456
 767 0203 02       		.byte	0x2
 768 0204 23       		.byte	0x23
 769 0205 40       		.uleb128 0x40
 770 0206 06       		.uleb128 0x6
 771 0207 3B020000 		.4byte	.LASF39
 772 020b 06       		.byte	0x6
 773 020c CE       		.byte	0xce
 774 020d BC000000 		.4byte	0xbc
 775 0211 02       		.byte	0x2
 776 0212 23       		.byte	0x23
 777 0213 44       		.uleb128 0x44
 778 0214 06       		.uleb128 0x6
 779 0215 64000000 		.4byte	.LASF40
 780 0219 06       		.byte	0x6
 781 021a D4       		.byte	0xd4
 782 021b 86020000 		.4byte	0x286
 783 021f 02       		.byte	0x2
 784 0220 23       		.byte	0x23
 785 0221 48       		.uleb128 0x48
ARM GAS  C:\Users\z80\AppData\Local\Temp\ccCopAgh.s 			page 15


 786 0222 00       		.byte	0x0
 787 0223 08       		.uleb128 0x8
 788 0224 08       		.byte	0x8
 789 0225 05       		.byte	0x5
 790 0226 61       		.byte	0x61
 791 0227 48020000 		.4byte	0x248
 792 022b 06       		.uleb128 0x6
 793 022c DA010000 		.4byte	.LASF22
 794 0230 05       		.byte	0x5
 795 0231 62       		.byte	0x62
 796 0232 48020000 		.4byte	0x248
 797 0236 02       		.byte	0x2
 798 0237 23       		.byte	0x23
 799 0238 00       		.uleb128 0x0
 800 0239 06       		.uleb128 0x6
 801 023a 8B010000 		.4byte	.LASF23
 802 023e 05       		.byte	0x5
 803 023f 64       		.byte	0x64
 804 0240 48020000 		.4byte	0x248
 805 0244 02       		.byte	0x2
 806 0245 23       		.byte	0x23
 807 0246 04       		.uleb128 0x4
 808 0247 00       		.byte	0x0
 809 0248 09       		.uleb128 0x9
 810 0249 04       		.byte	0x4
 811 024a F3000000 		.4byte	0xf3
 812 024e 04       		.uleb128 0x4
 813 024f 39010000 		.4byte	.LASF41
 814 0253 05       		.byte	0x5
 815 0254 66       		.byte	0x66
 816 0255 23020000 		.4byte	0x223
 817 0259 08       		.uleb128 0x8
 818 025a 04       		.byte	0x4
 819 025b 05       		.byte	0x5
 820 025c 6B       		.byte	0x6b
 821 025d 70020000 		.4byte	0x270
 822 0261 06       		.uleb128 0x6
 823 0262 DA010000 		.4byte	.LASF22
 824 0266 05       		.byte	0x5
 825 0267 6D       		.byte	0x6d
 826 0268 48020000 		.4byte	0x248
 827 026c 02       		.byte	0x2
 828 026d 23       		.byte	0x23
 829 026e 00       		.uleb128 0x0
 830 026f 00       		.byte	0x0
 831 0270 04       		.uleb128 0x4
 832 0271 02010000 		.4byte	.LASF42
 833 0275 05       		.byte	0x5
 834 0276 70       		.byte	0x70
 835 0277 59020000 		.4byte	0x259
 836 027b 04       		.uleb128 0x4
 837 027c A0000000 		.4byte	.LASF43
 838 0280 07       		.byte	0x7
 839 0281 D7       		.byte	0xd7
 840 0282 86020000 		.4byte	0x286
 841 0286 0A       		.uleb128 0xa
 842 0287 04       		.byte	0x4
ARM GAS  C:\Users\z80\AppData\Local\Temp\ccCopAgh.s 			page 16


 843 0288 04       		.uleb128 0x4
 844 0289 20010000 		.4byte	.LASF44
 845 028d 07       		.byte	0x7
 846 028e DD       		.byte	0xdd
 847 028f 89000000 		.4byte	0x89
 848 0293 05       		.uleb128 0x5
 849 0294 4D020000 		.4byte	.LASF45
 850 0298 24       		.byte	0x24
 851 0299 07       		.byte	0x7
 852 029a FE       		.byte	0xfe
 853 029b 20030000 		.4byte	0x320
 854 029f 0B       		.uleb128 0xb
 855 02a0 723400   		.ascii	"r4\000"
 856 02a3 07       		.byte	0x7
 857 02a4 1101     		.2byte	0x111
 858 02a6 7B020000 		.4byte	0x27b
 859 02aa 02       		.byte	0x2
 860 02ab 23       		.byte	0x23
 861 02ac 00       		.uleb128 0x0
 862 02ad 0B       		.uleb128 0xb
 863 02ae 723500   		.ascii	"r5\000"
 864 02b1 07       		.byte	0x7
 865 02b2 1201     		.2byte	0x112
 866 02b4 7B020000 		.4byte	0x27b
 867 02b8 02       		.byte	0x2
 868 02b9 23       		.byte	0x23
 869 02ba 04       		.uleb128 0x4
 870 02bb 0B       		.uleb128 0xb
 871 02bc 723600   		.ascii	"r6\000"
 872 02bf 07       		.byte	0x7
 873 02c0 1301     		.2byte	0x113
 874 02c2 7B020000 		.4byte	0x27b
 875 02c6 02       		.byte	0x2
 876 02c7 23       		.byte	0x23
 877 02c8 08       		.uleb128 0x8
 878 02c9 0B       		.uleb128 0xb
 879 02ca 723700   		.ascii	"r7\000"
 880 02cd 07       		.byte	0x7
 881 02ce 1401     		.2byte	0x114
 882 02d0 7B020000 		.4byte	0x27b
 883 02d4 02       		.byte	0x2
 884 02d5 23       		.byte	0x23
 885 02d6 0C       		.uleb128 0xc
 886 02d7 0B       		.uleb128 0xb
 887 02d8 723800   		.ascii	"r8\000"
 888 02db 07       		.byte	0x7
 889 02dc 1501     		.2byte	0x115
 890 02de 7B020000 		.4byte	0x27b
 891 02e2 02       		.byte	0x2
 892 02e3 23       		.byte	0x23
 893 02e4 10       		.uleb128 0x10
 894 02e5 0B       		.uleb128 0xb
 895 02e6 723900   		.ascii	"r9\000"
 896 02e9 07       		.byte	0x7
 897 02ea 1601     		.2byte	0x116
 898 02ec 7B020000 		.4byte	0x27b
 899 02f0 02       		.byte	0x2
ARM GAS  C:\Users\z80\AppData\Local\Temp\ccCopAgh.s 			page 17


 900 02f1 23       		.byte	0x23
 901 02f2 14       		.uleb128 0x14
 902 02f3 0B       		.uleb128 0xb
 903 02f4 72313000 		.ascii	"r10\000"
 904 02f8 07       		.byte	0x7
 905 02f9 1701     		.2byte	0x117
 906 02fb 7B020000 		.4byte	0x27b
 907 02ff 02       		.byte	0x2
 908 0300 23       		.byte	0x23
 909 0301 18       		.uleb128 0x18
 910 0302 0B       		.uleb128 0xb
 911 0303 72313100 		.ascii	"r11\000"
 912 0307 07       		.byte	0x7
 913 0308 1801     		.2byte	0x118
 914 030a 7B020000 		.4byte	0x27b
 915 030e 02       		.byte	0x2
 916 030f 23       		.byte	0x23
 917 0310 1C       		.uleb128 0x1c
 918 0311 0B       		.uleb128 0xb
 919 0312 6C7200   		.ascii	"lr\000"
 920 0315 07       		.byte	0x7
 921 0316 1901     		.2byte	0x119
 922 0318 7B020000 		.4byte	0x27b
 923 031c 02       		.byte	0x2
 924 031d 23       		.byte	0x23
 925 031e 20       		.uleb128 0x20
 926 031f 00       		.byte	0x0
 927 0320 0C       		.uleb128 0xc
 928 0321 D9000000 		.4byte	.LASF46
 929 0325 04       		.byte	0x4
 930 0326 07       		.byte	0x7
 931 0327 2301     		.2byte	0x123
 932 0329 3D030000 		.4byte	0x33d
 933 032d 0B       		.uleb128 0xb
 934 032e 72313300 		.ascii	"r13\000"
 935 0332 07       		.byte	0x7
 936 0333 2401     		.2byte	0x124
 937 0335 3D030000 		.4byte	0x33d
 938 0339 02       		.byte	0x2
 939 033a 23       		.byte	0x23
 940 033b 00       		.uleb128 0x0
 941 033c 00       		.byte	0x0
 942 033d 09       		.uleb128 0x9
 943 033e 04       		.byte	0x4
 944 033f 93020000 		.4byte	0x293
 945 0343 0D       		.uleb128 0xd
 946 0344 04       		.byte	0x4
 947 0345 07       		.byte	0x7
 948 0346 0E       		.uleb128 0xe
 949 0347 DD000000 		.4byte	0xdd
 950 034b 08       		.uleb128 0x8
 951 034c 20       		.byte	0x20
 952 034d 08       		.byte	0x8
 953 034e 5E       		.byte	0x5e
 954 034f B6030000 		.4byte	0x3b6
 955 0353 06       		.uleb128 0x6
 956 0354 11020000 		.4byte	.LASF47
ARM GAS  C:\Users\z80\AppData\Local\Temp\ccCopAgh.s 			page 18


 957 0358 08       		.byte	0x8
 958 0359 5F       		.byte	0x5f
 959 035a 4E020000 		.4byte	0x24e
 960 035e 02       		.byte	0x2
 961 035f 23       		.byte	0x23
 962 0360 00       		.uleb128 0x0
 963 0361 06       		.uleb128 0x6
 964 0362 CC010000 		.4byte	.LASF48
 965 0366 08       		.byte	0x8
 966 0367 60       		.byte	0x60
 967 0368 BC000000 		.4byte	0xbc
 968 036c 02       		.byte	0x2
 969 036d 23       		.byte	0x23
 970 036e 08       		.uleb128 0x8
 971 036f 06       		.uleb128 0x6
 972 0370 33010000 		.4byte	.LASF49
 973 0374 08       		.byte	0x8
 974 0375 62       		.byte	0x62
 975 0376 20030000 		.4byte	0x320
 976 037a 02       		.byte	0x2
 977 037b 23       		.byte	0x23
 978 037c 0C       		.uleb128 0xc
 979 037d 06       		.uleb128 0x6
 980 037e 98000000 		.4byte	.LASF50
 981 0382 08       		.byte	0x8
 982 0383 65       		.byte	0x65
 983 0384 48020000 		.4byte	0x248
 984 0388 02       		.byte	0x2
 985 0389 23       		.byte	0x23
 986 038a 10       		.uleb128 0x10
 987 038b 06       		.uleb128 0x6
 988 038c 7B010000 		.4byte	.LASF51
 989 0390 08       		.byte	0x8
 990 0391 66       		.byte	0x66
 991 0392 48020000 		.4byte	0x248
 992 0396 02       		.byte	0x2
 993 0397 23       		.byte	0x23
 994 0398 14       		.uleb128 0x14
 995 0399 06       		.uleb128 0x6
 996 039a C9020000 		.4byte	.LASF52
 997 039e 08       		.byte	0x8
 998 039f 6A       		.byte	0x6a
 999 03a0 E8000000 		.4byte	0xe8
 1000 03a4 02       		.byte	0x2
 1001 03a5 23       		.byte	0x23
 1002 03a6 18       		.uleb128 0x18
 1003 03a7 06       		.uleb128 0x6
 1004 03a8 71010000 		.4byte	.LASF53
 1005 03ac 08       		.byte	0x8
 1006 03ad 6C       		.byte	0x6c
 1007 03ae 48020000 		.4byte	0x248
 1008 03b2 02       		.byte	0x2
 1009 03b3 23       		.byte	0x23
 1010 03b4 1C       		.uleb128 0x1c
 1011 03b5 00       		.byte	0x0
 1012 03b6 04       		.uleb128 0x4
 1013 03b7 97020000 		.4byte	.LASF54
ARM GAS  C:\Users\z80\AppData\Local\Temp\ccCopAgh.s 			page 19


 1014 03bb 08       		.byte	0x8
 1015 03bc 6E       		.byte	0x6e
 1016 03bd 4B030000 		.4byte	0x34b
 1017 03c1 05       		.uleb128 0x5
 1018 03c2 1A010000 		.4byte	.LASF55
 1019 03c6 10       		.byte	0x10
 1020 03c7 09       		.byte	0x9
 1021 03c8 2C       		.byte	0x2c
 1022 03c9 F8030000 		.4byte	0x3f8
 1023 03cd 06       		.uleb128 0x6
 1024 03ce 6C000000 		.4byte	.LASF56
 1025 03d2 09       		.byte	0x9
 1026 03d3 2D       		.byte	0x2d
 1027 03d4 4E020000 		.4byte	0x24e
 1028 03d8 02       		.byte	0x2
 1029 03d9 23       		.byte	0x23
 1030 03da 00       		.uleb128 0x0
 1031 03db 06       		.uleb128 0x6
 1032 03dc D3020000 		.4byte	.LASF57
 1033 03e0 09       		.byte	0x9
 1034 03e1 2F       		.byte	0x2f
 1035 03e2 48020000 		.4byte	0x248
 1036 03e6 02       		.byte	0x2
 1037 03e7 23       		.byte	0x23
 1038 03e8 08       		.uleb128 0x8
 1039 03e9 06       		.uleb128 0x6
 1040 03ea 2A020000 		.4byte	.LASF58
 1041 03ee 09       		.byte	0x9
 1042 03ef 31       		.byte	0x31
 1043 03f0 F8030000 		.4byte	0x3f8
 1044 03f4 02       		.byte	0x2
 1045 03f5 23       		.byte	0x23
 1046 03f6 0C       		.uleb128 0xc
 1047 03f7 00       		.byte	0x0
 1048 03f8 09       		.uleb128 0x9
 1049 03f9 04       		.byte	0x4
 1050 03fa C1030000 		.4byte	0x3c1
 1051 03fe 04       		.uleb128 0x4
 1052 03ff 1A010000 		.4byte	.LASF55
 1053 0403 09       		.byte	0x9
 1054 0404 33       		.byte	0x33
 1055 0405 C1030000 		.4byte	0x3c1
 1056 0409 0F       		.uleb128 0xf
 1057 040a 04       		.byte	0x4
 1058 040b 06       		.byte	0x6
 1059 040c 90       		.byte	0x90
 1060 040d 3E040000 		.4byte	0x43e
 1061 0411 10       		.uleb128 0x10
 1062 0412 13000000 		.4byte	.LASF59
 1063 0416 06       		.byte	0x6
 1064 0417 97       		.byte	0x97
 1065 0418 C7000000 		.4byte	0xc7
 1066 041c 10       		.uleb128 0x10
 1067 041d 3A000000 		.4byte	.LASF60
 1068 0421 06       		.byte	0x6
 1069 0422 9E       		.byte	0x9e
 1070 0423 C7000000 		.4byte	0xc7
ARM GAS  C:\Users\z80\AppData\Local\Temp\ccCopAgh.s 			page 20


 1071 0427 10       		.uleb128 0x10
 1072 0428 BB020000 		.4byte	.LASF61
 1073 042c 06       		.byte	0x6
 1074 042d A5       		.byte	0xa5
 1075 042e 86020000 		.4byte	0x286
 1076 0432 10       		.uleb128 0x10
 1077 0433 D3010000 		.4byte	.LASF62
 1078 0437 06       		.byte	0x6
 1079 0438 AC       		.byte	0xac
 1080 0439 D2000000 		.4byte	0xd2
 1081 043d 00       		.byte	0x0
 1082 043e 09       		.uleb128 0x9
 1083 043f 04       		.byte	0x4
 1084 0440 44040000 		.4byte	0x444
 1085 0444 11       		.uleb128 0x11
 1086 0445 49040000 		.4byte	0x449
 1087 0449 03       		.uleb128 0x3
 1088 044a 01       		.byte	0x1
 1089 044b 08       		.byte	0x8
 1090 044c 19020000 		.4byte	.LASF63
 1091 0450 09       		.uleb128 0x9
 1092 0451 04       		.byte	0x4
 1093 0452 88020000 		.4byte	0x288
 1094 0456 09       		.uleb128 0x9
 1095 0457 04       		.byte	0x4
 1096 0458 FE030000 		.4byte	0x3fe
 1097 045c 12       		.uleb128 0x12
 1098 045d 06000000 		.4byte	.LASF70
 1099 0461 02       		.byte	0x2
 1100 0462 34       		.byte	0x34
 1101 0463 01       		.byte	0x1
 1102 0464 03       		.byte	0x3
 1103 0465 7F040000 		.4byte	0x47f
 1104 0469 13       		.uleb128 0x13
 1105 046a 747000   		.ascii	"tp\000"
 1106 046d 02       		.byte	0x2
 1107 046e 34       		.byte	0x34
 1108 046f 48020000 		.4byte	0x248
 1109 0473 13       		.uleb128 0x13
 1110 0474 74717000 		.ascii	"tqp\000"
 1111 0478 02       		.byte	0x2
 1112 0479 34       		.byte	0x34
 1113 047a 7F040000 		.4byte	0x47f
 1114 047e 00       		.byte	0x0
 1115 047f 09       		.uleb128 0x9
 1116 0480 04       		.byte	0x4
 1117 0481 4E020000 		.4byte	0x24e
 1118 0485 14       		.uleb128 0x14
 1119 0486 1E020000 		.4byte	.LASF71
 1120 048a 02       		.byte	0x2
 1121 048b 3B       		.byte	0x3b
 1122 048c 01       		.byte	0x1
 1123 048d 48020000 		.4byte	0x248
 1124 0491 03       		.byte	0x3
 1125 0492 AC040000 		.4byte	0x4ac
 1126 0496 13       		.uleb128 0x13
 1127 0497 74717000 		.ascii	"tqp\000"
ARM GAS  C:\Users\z80\AppData\Local\Temp\ccCopAgh.s 			page 21


 1128 049b 02       		.byte	0x2
 1129 049c 3B       		.byte	0x3b
 1130 049d 7F040000 		.4byte	0x47f
 1131 04a1 15       		.uleb128 0x15
 1132 04a2 747000   		.ascii	"tp\000"
 1133 04a5 02       		.byte	0x2
 1134 04a6 3C       		.byte	0x3c
 1135 04a7 48020000 		.4byte	0x248
 1136 04ab 00       		.byte	0x0
 1137 04ac 16       		.uleb128 0x16
 1138 04ad 01       		.byte	0x1
 1139 04ae 7D000000 		.4byte	.LASF64
 1140 04b2 01       		.byte	0x1
 1141 04b3 4B       		.byte	0x4b
 1142 04b4 01       		.byte	0x1
 1143 04b5 C7000000 		.4byte	0xc7
 1144 04b9 00000000 		.4byte	.LFB7
 1145 04bd 60000000 		.4byte	.LFE7
 1146 04c1 00000000 		.4byte	.LLST0
 1147 04c5 4E050000 		.4byte	0x54e
 1148 04c9 17       		.uleb128 0x17
 1149 04ca 747000   		.ascii	"tp\000"
 1150 04cd 01       		.byte	0x1
 1151 04ce 4B       		.byte	0x4b
 1152 04cf 48020000 		.4byte	0x248
 1153 04d3 20000000 		.4byte	.LLST1
 1154 04d7 17       		.uleb128 0x17
 1155 04d8 6D736700 		.ascii	"msg\000"
 1156 04dc 01       		.byte	0x1
 1157 04dd 4B       		.byte	0x4b
 1158 04de C7000000 		.4byte	0xc7
 1159 04e2 49000000 		.4byte	.LLST2
 1160 04e6 18       		.uleb128 0x18
 1161 04e7 63747000 		.ascii	"ctp\000"
 1162 04eb 01       		.byte	0x1
 1163 04ec 4C       		.byte	0x4c
 1164 04ed 48020000 		.4byte	0x248
 1165 04f1 89000000 		.4byte	.LLST3
 1166 04f5 19       		.uleb128 0x19
 1167 04f6 0E000000 		.4byte	.LBB10
 1168 04fa 14000000 		.4byte	.LBE10
 1169 04fe 12050000 		.4byte	0x512
 1170 0502 18       		.uleb128 0x18
 1171 0503 746D7000 		.ascii	"tmp\000"
 1172 0507 01       		.byte	0x1
 1173 0508 50       		.byte	0x50
 1174 0509 70000000 		.4byte	0x70
 1175 050d A8000000 		.4byte	.LLST4
 1176 0511 00       		.byte	0x0
 1177 0512 1A       		.uleb128 0x1a
 1178 0513 5C040000 		.4byte	0x45c
 1179 0517 1C000000 		.4byte	.LBB11
 1180 051b 00000000 		.4byte	.Ldebug_ranges0+0x0
 1181 051f 01       		.byte	0x1
 1182 0520 53       		.byte	0x53
 1183 0521 34050000 		.4byte	0x534
 1184 0525 1B       		.uleb128 0x1b
ARM GAS  C:\Users\z80\AppData\Local\Temp\ccCopAgh.s 			page 22


 1185 0526 73040000 		.4byte	0x473
 1186 052a 1C       		.uleb128 0x1c
 1187 052b 69040000 		.4byte	0x469
 1188 052f BB000000 		.4byte	.LLST5
 1189 0533 00       		.byte	0x0
 1190 0534 1D       		.uleb128 0x1d
 1191 0535 3E000000 		.4byte	.LBB17
 1192 0539 44000000 		.4byte	.LBE17
 1193 053d 18       		.uleb128 0x18
 1194 053e 746D7000 		.ascii	"tmp\000"
 1195 0542 01       		.byte	0x1
 1196 0543 58       		.byte	0x58
 1197 0544 70000000 		.4byte	0x70
 1198 0548 CE000000 		.4byte	.LLST6
 1199 054c 00       		.byte	0x0
 1200 054d 00       		.byte	0x0
 1201 054e 16       		.uleb128 0x16
 1202 054f 01       		.byte	0x1
 1203 0550 5F020000 		.4byte	.LASF65
 1204 0554 01       		.byte	0x1
 1205 0555 6A       		.byte	0x6a
 1206 0556 01       		.byte	0x1
 1207 0557 48020000 		.4byte	0x248
 1208 055b 00000000 		.4byte	.LFB8
 1209 055f 48000000 		.4byte	.LFE8
 1210 0563 E1000000 		.4byte	.LLST7
 1211 0567 D8050000 		.4byte	0x5d8
 1212 056b 15       		.uleb128 0x15
 1213 056c 747000   		.ascii	"tp\000"
 1214 056f 01       		.byte	0x1
 1215 0570 6B       		.byte	0x6b
 1216 0571 48020000 		.4byte	0x248
 1217 0575 19       		.uleb128 0x19
 1218 0576 02000000 		.4byte	.LBB18
 1219 057a 08000000 		.4byte	.LBE18
 1220 057e 92050000 		.4byte	0x592
 1221 0582 18       		.uleb128 0x18
 1222 0583 746D7000 		.ascii	"tmp\000"
 1223 0587 01       		.byte	0x1
 1224 0588 6D       		.byte	0x6d
 1225 0589 70000000 		.4byte	0x70
 1226 058d 01010000 		.4byte	.LLST8
 1227 0591 00       		.byte	0x0
 1228 0592 1A       		.uleb128 0x1a
 1229 0593 85040000 		.4byte	0x485
 1230 0597 1A000000 		.4byte	.LBB19
 1231 059b 20000000 		.4byte	.Ldebug_ranges0+0x20
 1232 059f 01       		.byte	0x1
 1233 05a0 70       		.byte	0x70
 1234 05a1 BE050000 		.4byte	0x5be
 1235 05a5 1C       		.uleb128 0x1c
 1236 05a6 96040000 		.4byte	0x496
 1237 05aa 14010000 		.4byte	.LLST9
 1238 05ae 1E       		.uleb128 0x1e
 1239 05af 38000000 		.4byte	.Ldebug_ranges0+0x38
 1240 05b3 1F       		.uleb128 0x1f
 1241 05b4 A1040000 		.4byte	0x4a1
ARM GAS  C:\Users\z80\AppData\Local\Temp\ccCopAgh.s 			page 23


 1242 05b8 29010000 		.4byte	.LLST10
 1243 05bc 00       		.byte	0x0
 1244 05bd 00       		.byte	0x0
 1245 05be 1D       		.uleb128 0x1d
 1246 05bf 2A000000 		.4byte	.LBB23
 1247 05c3 30000000 		.4byte	.LBE23
 1248 05c7 18       		.uleb128 0x18
 1249 05c8 746D7000 		.ascii	"tmp\000"
 1250 05cc 01       		.byte	0x1
 1251 05cd 72       		.byte	0x72
 1252 05ce 70000000 		.4byte	0x70
 1253 05d2 3C010000 		.4byte	.LLST11
 1254 05d6 00       		.byte	0x0
 1255 05d7 00       		.byte	0x0
 1256 05d8 20       		.uleb128 0x20
 1257 05d9 01       		.byte	0x1
 1258 05da F0010000 		.4byte	.LASF72
 1259 05de 01       		.byte	0x1
 1260 05df 80       		.byte	0x80
 1261 05e0 01       		.byte	0x1
 1262 05e1 00000000 		.4byte	.LFB9
 1263 05e5 38000000 		.4byte	.LFE9
 1264 05e9 4F010000 		.4byte	.LLST12
 1265 05ed 45060000 		.4byte	0x645
 1266 05f1 17       		.uleb128 0x17
 1267 05f2 747000   		.ascii	"tp\000"
 1268 05f5 01       		.byte	0x1
 1269 05f6 80       		.byte	0x80
 1270 05f7 48020000 		.4byte	0x248
 1271 05fb 6F010000 		.4byte	.LLST13
 1272 05ff 17       		.uleb128 0x17
 1273 0600 6D736700 		.ascii	"msg\000"
 1274 0604 01       		.byte	0x1
 1275 0605 80       		.byte	0x80
 1276 0606 C7000000 		.4byte	0xc7
 1277 060a 8D010000 		.4byte	.LLST14
 1278 060e 19       		.uleb128 0x19
 1279 060f 06000000 		.4byte	.LBB24
 1280 0613 0C000000 		.4byte	.LBE24
 1281 0617 2B060000 		.4byte	0x62b
 1282 061b 18       		.uleb128 0x18
 1283 061c 746D7000 		.ascii	"tmp\000"
 1284 0620 01       		.byte	0x1
 1285 0621 82       		.byte	0x82
 1286 0622 70000000 		.4byte	0x70
 1287 0626 AB010000 		.4byte	.LLST15
 1288 062a 00       		.byte	0x0
 1289 062b 1D       		.uleb128 0x1d
 1290 062c 2A000000 		.4byte	.LBB25
 1291 0630 30000000 		.4byte	.LBE25
 1292 0634 18       		.uleb128 0x18
 1293 0635 746D7000 		.ascii	"tmp\000"
 1294 0639 01       		.byte	0x1
 1295 063a 86       		.byte	0x86
 1296 063b 70000000 		.4byte	0x70
 1297 063f BE010000 		.4byte	.LLST16
 1298 0643 00       		.byte	0x0
ARM GAS  C:\Users\z80\AppData\Local\Temp\ccCopAgh.s 			page 24


 1299 0644 00       		.byte	0x0
 1300 0645 21       		.uleb128 0x21
 1301 0646 A1020000 		.4byte	.LASF66
 1302 064a 08       		.byte	0x8
 1303 064b 72       		.byte	0x72
 1304 064c B6030000 		.4byte	0x3b6
 1305 0650 01       		.byte	0x1
 1306 0651 01       		.byte	0x1
 1307 0652 21       		.uleb128 0x21
 1308 0653 A1020000 		.4byte	.LASF66
 1309 0657 08       		.byte	0x8
 1310 0658 72       		.byte	0x72
 1311 0659 B6030000 		.4byte	0x3b6
 1312 065d 01       		.byte	0x1
 1313 065e 01       		.byte	0x1
 1314 065f 00       		.byte	0x0
 1315              		.section	.debug_abbrev
 1316 0000 01       		.uleb128 0x1
 1317 0001 11       		.uleb128 0x11
 1318 0002 01       		.byte	0x1
 1319 0003 25       		.uleb128 0x25
 1320 0004 0E       		.uleb128 0xe
 1321 0005 13       		.uleb128 0x13
 1322 0006 0B       		.uleb128 0xb
 1323 0007 03       		.uleb128 0x3
 1324 0008 0E       		.uleb128 0xe
 1325 0009 1B       		.uleb128 0x1b
 1326 000a 0E       		.uleb128 0xe
 1327 000b 11       		.uleb128 0x11
 1328 000c 01       		.uleb128 0x1
 1329 000d 52       		.uleb128 0x52
 1330 000e 01       		.uleb128 0x1
 1331 000f 55       		.uleb128 0x55
 1332 0010 06       		.uleb128 0x6
 1333 0011 10       		.uleb128 0x10
 1334 0012 06       		.uleb128 0x6
 1335 0013 00       		.byte	0x0
 1336 0014 00       		.byte	0x0
 1337 0015 02       		.uleb128 0x2
 1338 0016 24       		.uleb128 0x24
 1339 0017 00       		.byte	0x0
 1340 0018 0B       		.uleb128 0xb
 1341 0019 0B       		.uleb128 0xb
 1342 001a 3E       		.uleb128 0x3e
 1343 001b 0B       		.uleb128 0xb
 1344 001c 03       		.uleb128 0x3
 1345 001d 08       		.uleb128 0x8
 1346 001e 00       		.byte	0x0
 1347 001f 00       		.byte	0x0
 1348 0020 03       		.uleb128 0x3
 1349 0021 24       		.uleb128 0x24
 1350 0022 00       		.byte	0x0
 1351 0023 0B       		.uleb128 0xb
 1352 0024 0B       		.uleb128 0xb
 1353 0025 3E       		.uleb128 0x3e
 1354 0026 0B       		.uleb128 0xb
 1355 0027 03       		.uleb128 0x3
ARM GAS  C:\Users\z80\AppData\Local\Temp\ccCopAgh.s 			page 25


 1356 0028 0E       		.uleb128 0xe
 1357 0029 00       		.byte	0x0
 1358 002a 00       		.byte	0x0
 1359 002b 04       		.uleb128 0x4
 1360 002c 16       		.uleb128 0x16
 1361 002d 00       		.byte	0x0
 1362 002e 03       		.uleb128 0x3
 1363 002f 0E       		.uleb128 0xe
 1364 0030 3A       		.uleb128 0x3a
 1365 0031 0B       		.uleb128 0xb
 1366 0032 3B       		.uleb128 0x3b
 1367 0033 0B       		.uleb128 0xb
 1368 0034 49       		.uleb128 0x49
 1369 0035 13       		.uleb128 0x13
 1370 0036 00       		.byte	0x0
 1371 0037 00       		.byte	0x0
 1372 0038 05       		.uleb128 0x5
 1373 0039 13       		.uleb128 0x13
 1374 003a 01       		.byte	0x1
 1375 003b 03       		.uleb128 0x3
 1376 003c 0E       		.uleb128 0xe
 1377 003d 0B       		.uleb128 0xb
 1378 003e 0B       		.uleb128 0xb
 1379 003f 3A       		.uleb128 0x3a
 1380 0040 0B       		.uleb128 0xb
 1381 0041 3B       		.uleb128 0x3b
 1382 0042 0B       		.uleb128 0xb
 1383 0043 01       		.uleb128 0x1
 1384 0044 13       		.uleb128 0x13
 1385 0045 00       		.byte	0x0
 1386 0046 00       		.byte	0x0
 1387 0047 06       		.uleb128 0x6
 1388 0048 0D       		.uleb128 0xd
 1389 0049 00       		.byte	0x0
 1390 004a 03       		.uleb128 0x3
 1391 004b 0E       		.uleb128 0xe
 1392 004c 3A       		.uleb128 0x3a
 1393 004d 0B       		.uleb128 0xb
 1394 004e 3B       		.uleb128 0x3b
 1395 004f 0B       		.uleb128 0xb
 1396 0050 49       		.uleb128 0x49
 1397 0051 13       		.uleb128 0x13
 1398 0052 38       		.uleb128 0x38
 1399 0053 0A       		.uleb128 0xa
 1400 0054 00       		.byte	0x0
 1401 0055 00       		.byte	0x0
 1402 0056 07       		.uleb128 0x7
 1403 0057 0D       		.uleb128 0xd
 1404 0058 00       		.byte	0x0
 1405 0059 03       		.uleb128 0x3
 1406 005a 08       		.uleb128 0x8
 1407 005b 3A       		.uleb128 0x3a
 1408 005c 0B       		.uleb128 0xb
 1409 005d 3B       		.uleb128 0x3b
 1410 005e 0B       		.uleb128 0xb
 1411 005f 49       		.uleb128 0x49
 1412 0060 13       		.uleb128 0x13
ARM GAS  C:\Users\z80\AppData\Local\Temp\ccCopAgh.s 			page 26


 1413 0061 38       		.uleb128 0x38
 1414 0062 0A       		.uleb128 0xa
 1415 0063 00       		.byte	0x0
 1416 0064 00       		.byte	0x0
 1417 0065 08       		.uleb128 0x8
 1418 0066 13       		.uleb128 0x13
 1419 0067 01       		.byte	0x1
 1420 0068 0B       		.uleb128 0xb
 1421 0069 0B       		.uleb128 0xb
 1422 006a 3A       		.uleb128 0x3a
 1423 006b 0B       		.uleb128 0xb
 1424 006c 3B       		.uleb128 0x3b
 1425 006d 0B       		.uleb128 0xb
 1426 006e 01       		.uleb128 0x1
 1427 006f 13       		.uleb128 0x13
 1428 0070 00       		.byte	0x0
 1429 0071 00       		.byte	0x0
 1430 0072 09       		.uleb128 0x9
 1431 0073 0F       		.uleb128 0xf
 1432 0074 00       		.byte	0x0
 1433 0075 0B       		.uleb128 0xb
 1434 0076 0B       		.uleb128 0xb
 1435 0077 49       		.uleb128 0x49
 1436 0078 13       		.uleb128 0x13
 1437 0079 00       		.byte	0x0
 1438 007a 00       		.byte	0x0
 1439 007b 0A       		.uleb128 0xa
 1440 007c 0F       		.uleb128 0xf
 1441 007d 00       		.byte	0x0
 1442 007e 0B       		.uleb128 0xb
 1443 007f 0B       		.uleb128 0xb
 1444 0080 00       		.byte	0x0
 1445 0081 00       		.byte	0x0
 1446 0082 0B       		.uleb128 0xb
 1447 0083 0D       		.uleb128 0xd
 1448 0084 00       		.byte	0x0
 1449 0085 03       		.uleb128 0x3
 1450 0086 08       		.uleb128 0x8
 1451 0087 3A       		.uleb128 0x3a
 1452 0088 0B       		.uleb128 0xb
 1453 0089 3B       		.uleb128 0x3b
 1454 008a 05       		.uleb128 0x5
 1455 008b 49       		.uleb128 0x49
 1456 008c 13       		.uleb128 0x13
 1457 008d 38       		.uleb128 0x38
 1458 008e 0A       		.uleb128 0xa
 1459 008f 00       		.byte	0x0
 1460 0090 00       		.byte	0x0
 1461 0091 0C       		.uleb128 0xc
 1462 0092 13       		.uleb128 0x13
 1463 0093 01       		.byte	0x1
 1464 0094 03       		.uleb128 0x3
 1465 0095 0E       		.uleb128 0xe
 1466 0096 0B       		.uleb128 0xb
 1467 0097 0B       		.uleb128 0xb
 1468 0098 3A       		.uleb128 0x3a
 1469 0099 0B       		.uleb128 0xb
ARM GAS  C:\Users\z80\AppData\Local\Temp\ccCopAgh.s 			page 27


 1470 009a 3B       		.uleb128 0x3b
 1471 009b 05       		.uleb128 0x5
 1472 009c 01       		.uleb128 0x1
 1473 009d 13       		.uleb128 0x13
 1474 009e 00       		.byte	0x0
 1475 009f 00       		.byte	0x0
 1476 00a0 0D       		.uleb128 0xd
 1477 00a1 24       		.uleb128 0x24
 1478 00a2 00       		.byte	0x0
 1479 00a3 0B       		.uleb128 0xb
 1480 00a4 0B       		.uleb128 0xb
 1481 00a5 3E       		.uleb128 0x3e
 1482 00a6 0B       		.uleb128 0xb
 1483 00a7 00       		.byte	0x0
 1484 00a8 00       		.byte	0x0
 1485 00a9 0E       		.uleb128 0xe
 1486 00aa 35       		.uleb128 0x35
 1487 00ab 00       		.byte	0x0
 1488 00ac 49       		.uleb128 0x49
 1489 00ad 13       		.uleb128 0x13
 1490 00ae 00       		.byte	0x0
 1491 00af 00       		.byte	0x0
 1492 00b0 0F       		.uleb128 0xf
 1493 00b1 17       		.uleb128 0x17
 1494 00b2 01       		.byte	0x1
 1495 00b3 0B       		.uleb128 0xb
 1496 00b4 0B       		.uleb128 0xb
 1497 00b5 3A       		.uleb128 0x3a
 1498 00b6 0B       		.uleb128 0xb
 1499 00b7 3B       		.uleb128 0x3b
 1500 00b8 0B       		.uleb128 0xb
 1501 00b9 01       		.uleb128 0x1
 1502 00ba 13       		.uleb128 0x13
 1503 00bb 00       		.byte	0x0
 1504 00bc 00       		.byte	0x0
 1505 00bd 10       		.uleb128 0x10
 1506 00be 0D       		.uleb128 0xd
 1507 00bf 00       		.byte	0x0
 1508 00c0 03       		.uleb128 0x3
 1509 00c1 0E       		.uleb128 0xe
 1510 00c2 3A       		.uleb128 0x3a
 1511 00c3 0B       		.uleb128 0xb
 1512 00c4 3B       		.uleb128 0x3b
 1513 00c5 0B       		.uleb128 0xb
 1514 00c6 49       		.uleb128 0x49
 1515 00c7 13       		.uleb128 0x13
 1516 00c8 00       		.byte	0x0
 1517 00c9 00       		.byte	0x0
 1518 00ca 11       		.uleb128 0x11
 1519 00cb 26       		.uleb128 0x26
 1520 00cc 00       		.byte	0x0
 1521 00cd 49       		.uleb128 0x49
 1522 00ce 13       		.uleb128 0x13
 1523 00cf 00       		.byte	0x0
 1524 00d0 00       		.byte	0x0
 1525 00d1 12       		.uleb128 0x12
 1526 00d2 2E       		.uleb128 0x2e
ARM GAS  C:\Users\z80\AppData\Local\Temp\ccCopAgh.s 			page 28


 1527 00d3 01       		.byte	0x1
 1528 00d4 03       		.uleb128 0x3
 1529 00d5 0E       		.uleb128 0xe
 1530 00d6 3A       		.uleb128 0x3a
 1531 00d7 0B       		.uleb128 0xb
 1532 00d8 3B       		.uleb128 0x3b
 1533 00d9 0B       		.uleb128 0xb
 1534 00da 27       		.uleb128 0x27
 1535 00db 0C       		.uleb128 0xc
 1536 00dc 20       		.uleb128 0x20
 1537 00dd 0B       		.uleb128 0xb
 1538 00de 01       		.uleb128 0x1
 1539 00df 13       		.uleb128 0x13
 1540 00e0 00       		.byte	0x0
 1541 00e1 00       		.byte	0x0
 1542 00e2 13       		.uleb128 0x13
 1543 00e3 05       		.uleb128 0x5
 1544 00e4 00       		.byte	0x0
 1545 00e5 03       		.uleb128 0x3
 1546 00e6 08       		.uleb128 0x8
 1547 00e7 3A       		.uleb128 0x3a
 1548 00e8 0B       		.uleb128 0xb
 1549 00e9 3B       		.uleb128 0x3b
 1550 00ea 0B       		.uleb128 0xb
 1551 00eb 49       		.uleb128 0x49
 1552 00ec 13       		.uleb128 0x13
 1553 00ed 00       		.byte	0x0
 1554 00ee 00       		.byte	0x0
 1555 00ef 14       		.uleb128 0x14
 1556 00f0 2E       		.uleb128 0x2e
 1557 00f1 01       		.byte	0x1
 1558 00f2 03       		.uleb128 0x3
 1559 00f3 0E       		.uleb128 0xe
 1560 00f4 3A       		.uleb128 0x3a
 1561 00f5 0B       		.uleb128 0xb
 1562 00f6 3B       		.uleb128 0x3b
 1563 00f7 0B       		.uleb128 0xb
 1564 00f8 27       		.uleb128 0x27
 1565 00f9 0C       		.uleb128 0xc
 1566 00fa 49       		.uleb128 0x49
 1567 00fb 13       		.uleb128 0x13
 1568 00fc 20       		.uleb128 0x20
 1569 00fd 0B       		.uleb128 0xb
 1570 00fe 01       		.uleb128 0x1
 1571 00ff 13       		.uleb128 0x13
 1572 0100 00       		.byte	0x0
 1573 0101 00       		.byte	0x0
 1574 0102 15       		.uleb128 0x15
 1575 0103 34       		.uleb128 0x34
 1576 0104 00       		.byte	0x0
 1577 0105 03       		.uleb128 0x3
 1578 0106 08       		.uleb128 0x8
 1579 0107 3A       		.uleb128 0x3a
 1580 0108 0B       		.uleb128 0xb
 1581 0109 3B       		.uleb128 0x3b
 1582 010a 0B       		.uleb128 0xb
 1583 010b 49       		.uleb128 0x49
ARM GAS  C:\Users\z80\AppData\Local\Temp\ccCopAgh.s 			page 29


 1584 010c 13       		.uleb128 0x13
 1585 010d 00       		.byte	0x0
 1586 010e 00       		.byte	0x0
 1587 010f 16       		.uleb128 0x16
 1588 0110 2E       		.uleb128 0x2e
 1589 0111 01       		.byte	0x1
 1590 0112 3F       		.uleb128 0x3f
 1591 0113 0C       		.uleb128 0xc
 1592 0114 03       		.uleb128 0x3
 1593 0115 0E       		.uleb128 0xe
 1594 0116 3A       		.uleb128 0x3a
 1595 0117 0B       		.uleb128 0xb
 1596 0118 3B       		.uleb128 0x3b
 1597 0119 0B       		.uleb128 0xb
 1598 011a 27       		.uleb128 0x27
 1599 011b 0C       		.uleb128 0xc
 1600 011c 49       		.uleb128 0x49
 1601 011d 13       		.uleb128 0x13
 1602 011e 11       		.uleb128 0x11
 1603 011f 01       		.uleb128 0x1
 1604 0120 12       		.uleb128 0x12
 1605 0121 01       		.uleb128 0x1
 1606 0122 40       		.uleb128 0x40
 1607 0123 06       		.uleb128 0x6
 1608 0124 01       		.uleb128 0x1
 1609 0125 13       		.uleb128 0x13
 1610 0126 00       		.byte	0x0
 1611 0127 00       		.byte	0x0
 1612 0128 17       		.uleb128 0x17
 1613 0129 05       		.uleb128 0x5
 1614 012a 00       		.byte	0x0
 1615 012b 03       		.uleb128 0x3
 1616 012c 08       		.uleb128 0x8
 1617 012d 3A       		.uleb128 0x3a
 1618 012e 0B       		.uleb128 0xb
 1619 012f 3B       		.uleb128 0x3b
 1620 0130 0B       		.uleb128 0xb
 1621 0131 49       		.uleb128 0x49
 1622 0132 13       		.uleb128 0x13
 1623 0133 02       		.uleb128 0x2
 1624 0134 06       		.uleb128 0x6
 1625 0135 00       		.byte	0x0
 1626 0136 00       		.byte	0x0
 1627 0137 18       		.uleb128 0x18
 1628 0138 34       		.uleb128 0x34
 1629 0139 00       		.byte	0x0
 1630 013a 03       		.uleb128 0x3
 1631 013b 08       		.uleb128 0x8
 1632 013c 3A       		.uleb128 0x3a
 1633 013d 0B       		.uleb128 0xb
 1634 013e 3B       		.uleb128 0x3b
 1635 013f 0B       		.uleb128 0xb
 1636 0140 49       		.uleb128 0x49
 1637 0141 13       		.uleb128 0x13
 1638 0142 02       		.uleb128 0x2
 1639 0143 06       		.uleb128 0x6
 1640 0144 00       		.byte	0x0
ARM GAS  C:\Users\z80\AppData\Local\Temp\ccCopAgh.s 			page 30


 1641 0145 00       		.byte	0x0
 1642 0146 19       		.uleb128 0x19
 1643 0147 0B       		.uleb128 0xb
 1644 0148 01       		.byte	0x1
 1645 0149 11       		.uleb128 0x11
 1646 014a 01       		.uleb128 0x1
 1647 014b 12       		.uleb128 0x12
 1648 014c 01       		.uleb128 0x1
 1649 014d 01       		.uleb128 0x1
 1650 014e 13       		.uleb128 0x13
 1651 014f 00       		.byte	0x0
 1652 0150 00       		.byte	0x0
 1653 0151 1A       		.uleb128 0x1a
 1654 0152 1D       		.uleb128 0x1d
 1655 0153 01       		.byte	0x1
 1656 0154 31       		.uleb128 0x31
 1657 0155 13       		.uleb128 0x13
 1658 0156 52       		.uleb128 0x52
 1659 0157 01       		.uleb128 0x1
 1660 0158 55       		.uleb128 0x55
 1661 0159 06       		.uleb128 0x6
 1662 015a 58       		.uleb128 0x58
 1663 015b 0B       		.uleb128 0xb
 1664 015c 59       		.uleb128 0x59
 1665 015d 0B       		.uleb128 0xb
 1666 015e 01       		.uleb128 0x1
 1667 015f 13       		.uleb128 0x13
 1668 0160 00       		.byte	0x0
 1669 0161 00       		.byte	0x0
 1670 0162 1B       		.uleb128 0x1b
 1671 0163 05       		.uleb128 0x5
 1672 0164 00       		.byte	0x0
 1673 0165 31       		.uleb128 0x31
 1674 0166 13       		.uleb128 0x13
 1675 0167 00       		.byte	0x0
 1676 0168 00       		.byte	0x0
 1677 0169 1C       		.uleb128 0x1c
 1678 016a 05       		.uleb128 0x5
 1679 016b 00       		.byte	0x0
 1680 016c 31       		.uleb128 0x31
 1681 016d 13       		.uleb128 0x13
 1682 016e 02       		.uleb128 0x2
 1683 016f 06       		.uleb128 0x6
 1684 0170 00       		.byte	0x0
 1685 0171 00       		.byte	0x0
 1686 0172 1D       		.uleb128 0x1d
 1687 0173 0B       		.uleb128 0xb
 1688 0174 01       		.byte	0x1
 1689 0175 11       		.uleb128 0x11
 1690 0176 01       		.uleb128 0x1
 1691 0177 12       		.uleb128 0x12
 1692 0178 01       		.uleb128 0x1
 1693 0179 00       		.byte	0x0
 1694 017a 00       		.byte	0x0
 1695 017b 1E       		.uleb128 0x1e
 1696 017c 0B       		.uleb128 0xb
 1697 017d 01       		.byte	0x1
ARM GAS  C:\Users\z80\AppData\Local\Temp\ccCopAgh.s 			page 31


 1698 017e 55       		.uleb128 0x55
 1699 017f 06       		.uleb128 0x6
 1700 0180 00       		.byte	0x0
 1701 0181 00       		.byte	0x0
 1702 0182 1F       		.uleb128 0x1f
 1703 0183 34       		.uleb128 0x34
 1704 0184 00       		.byte	0x0
 1705 0185 31       		.uleb128 0x31
 1706 0186 13       		.uleb128 0x13
 1707 0187 02       		.uleb128 0x2
 1708 0188 06       		.uleb128 0x6
 1709 0189 00       		.byte	0x0
 1710 018a 00       		.byte	0x0
 1711 018b 20       		.uleb128 0x20
 1712 018c 2E       		.uleb128 0x2e
 1713 018d 01       		.byte	0x1
 1714 018e 3F       		.uleb128 0x3f
 1715 018f 0C       		.uleb128 0xc
 1716 0190 03       		.uleb128 0x3
 1717 0191 0E       		.uleb128 0xe
 1718 0192 3A       		.uleb128 0x3a
 1719 0193 0B       		.uleb128 0xb
 1720 0194 3B       		.uleb128 0x3b
 1721 0195 0B       		.uleb128 0xb
 1722 0196 27       		.uleb128 0x27
 1723 0197 0C       		.uleb128 0xc
 1724 0198 11       		.uleb128 0x11
 1725 0199 01       		.uleb128 0x1
 1726 019a 12       		.uleb128 0x12
 1727 019b 01       		.uleb128 0x1
 1728 019c 40       		.uleb128 0x40
 1729 019d 06       		.uleb128 0x6
 1730 019e 01       		.uleb128 0x1
 1731 019f 13       		.uleb128 0x13
 1732 01a0 00       		.byte	0x0
 1733 01a1 00       		.byte	0x0
 1734 01a2 21       		.uleb128 0x21
 1735 01a3 34       		.uleb128 0x34
 1736 01a4 00       		.byte	0x0
 1737 01a5 03       		.uleb128 0x3
 1738 01a6 0E       		.uleb128 0xe
 1739 01a7 3A       		.uleb128 0x3a
 1740 01a8 0B       		.uleb128 0xb
 1741 01a9 3B       		.uleb128 0x3b
 1742 01aa 0B       		.uleb128 0xb
 1743 01ab 49       		.uleb128 0x49
 1744 01ac 13       		.uleb128 0x13
 1745 01ad 3F       		.uleb128 0x3f
 1746 01ae 0C       		.uleb128 0xc
 1747 01af 3C       		.uleb128 0x3c
 1748 01b0 0C       		.uleb128 0xc
 1749 01b1 00       		.byte	0x0
 1750 01b2 00       		.byte	0x0
 1751 01b3 00       		.byte	0x0
 1752              		.section	.debug_pubnames,"",%progbits
 1753 0000 3B000000 		.4byte	0x3b
 1754 0004 0200     		.2byte	0x2
ARM GAS  C:\Users\z80\AppData\Local\Temp\ccCopAgh.s 			page 32


 1755 0006 00000000 		.4byte	.Ldebug_info0
 1756 000a 60060000 		.4byte	0x660
 1757 000e AC040000 		.4byte	0x4ac
 1758 0012 63684D73 		.ascii	"chMsgSend\000"
 1758      6753656E 
 1758      6400
 1759 001c 4E050000 		.4byte	0x54e
 1760 0020 63684D73 		.ascii	"chMsgWait\000"
 1760      67576169 
 1760      7400
 1761 002a D8050000 		.4byte	0x5d8
 1762 002e 63684D73 		.ascii	"chMsgRelease\000"
 1762      6752656C 
 1762      65617365 
 1762      00
 1763 003b 00000000 		.4byte	0x0
 1764              		.section	.debug_pubtypes,"",%progbits
 1765 0000 2F010000 		.4byte	0x12f
 1766 0004 0200     		.2byte	0x2
 1767 0006 00000000 		.4byte	.Ldebug_info0
 1768 000a 60060000 		.4byte	0x660
 1769 000e 3E000000 		.4byte	0x3e
 1770 0012 75696E74 		.ascii	"uint8_t\000"
 1770      385F7400 
 1771 001a 5E000000 		.4byte	0x5e
 1772 001e 696E7433 		.ascii	"int32_t\000"
 1772      325F7400 
 1773 0026 70000000 		.4byte	0x70
 1774 002a 75696E74 		.ascii	"uint32_t\000"
 1774      33325F74 
 1774      00
 1775 0033 89000000 		.4byte	0x89
 1776 0037 75696E74 		.ascii	"uint64_t\000"
 1776      36345F74 
 1776      00
 1777 0040 9B000000 		.4byte	0x9b
 1778 0044 746D6F64 		.ascii	"tmode_t\000"
 1778      655F7400 
 1779 004c A6000000 		.4byte	0xa6
 1780 0050 74737461 		.ascii	"tstate_t\000"
 1780      74655F74 
 1780      00
 1781 0059 B1000000 		.4byte	0xb1
 1782 005d 74726566 		.ascii	"trefs_t\000"
 1782      735F7400 
 1783 0065 BC000000 		.4byte	0xbc
 1784 0069 74707269 		.ascii	"tprio_t\000"
 1784      6F5F7400 
 1785 0071 C7000000 		.4byte	0xc7
 1786 0075 6D73675F 		.ascii	"msg_t\000"
 1786      7400
 1787 007b D2000000 		.4byte	0xd2
 1788 007f 6576656E 		.ascii	"eventmask_t\000"
 1788      746D6173 
 1788      6B5F7400 
 1789 008b DD000000 		.4byte	0xdd
 1790 008f 73797374 		.ascii	"systime_t\000"
ARM GAS  C:\Users\z80\AppData\Local\Temp\ccCopAgh.s 			page 33


 1790      696D655F 
 1790      7400
 1791 0099 E8000000 		.4byte	0xe8
 1792 009d 636E745F 		.ascii	"cnt_t\000"
 1792      7400
 1793 00a3 F3000000 		.4byte	0xf3
 1794 00a7 54687265 		.ascii	"Thread\000"
 1794      616400
 1795 00ae 4E020000 		.4byte	0x24e
 1796 00b2 54687265 		.ascii	"ThreadsQueue\000"
 1796      61647351 
 1796      75657565 
 1796      00
 1797 00bf 70020000 		.4byte	0x270
 1798 00c3 54687265 		.ascii	"ThreadsList\000"
 1798      6164734C 
 1798      69737400 
 1799 00cf 7B020000 		.4byte	0x27b
 1800 00d3 72656761 		.ascii	"regarm_t\000"
 1800      726D5F74 
 1800      00
 1801 00dc 88020000 		.4byte	0x288
 1802 00e0 73746B61 		.ascii	"stkalign_t\000"
 1802      6C69676E 
 1802      5F7400
 1803 00eb 93020000 		.4byte	0x293
 1804 00ef 696E7463 		.ascii	"intctx\000"
 1804      747800
 1805 00f6 20030000 		.4byte	0x320
 1806 00fa 636F6E74 		.ascii	"context\000"
 1806      65787400 
 1807 0102 B6030000 		.4byte	0x3b6
 1808 0106 52656164 		.ascii	"ReadyList\000"
 1808      794C6973 
 1808      7400
 1809 0110 C1030000 		.4byte	0x3c1
 1810 0114 4D757465 		.ascii	"Mutex\000"
 1810      7800
 1811 011a FE030000 		.4byte	0x3fe
 1812 011e 4D757465 		.ascii	"Mutex\000"
 1812      7800
 1813 0124 FE000000 		.4byte	0xfe
 1814 0128 54687265 		.ascii	"Thread\000"
 1814      616400
 1815 012f 00000000 		.4byte	0x0
 1816              		.section	.debug_aranges,"",%progbits
 1817 0000 2C000000 		.4byte	0x2c
 1818 0004 0200     		.2byte	0x2
 1819 0006 00000000 		.4byte	.Ldebug_info0
 1820 000a 04       		.byte	0x4
 1821 000b 00       		.byte	0x0
 1822 000c 0000     		.2byte	0x0
 1823 000e 0000     		.2byte	0x0
 1824 0010 00000000 		.4byte	.LFB7
 1825 0014 60000000 		.4byte	.LFE7-.LFB7
 1826 0018 00000000 		.4byte	.LFB8
 1827 001c 48000000 		.4byte	.LFE8-.LFB8
ARM GAS  C:\Users\z80\AppData\Local\Temp\ccCopAgh.s 			page 34


 1828 0020 00000000 		.4byte	.LFB9
 1829 0024 38000000 		.4byte	.LFE9-.LFB9
 1830 0028 00000000 		.4byte	0x0
 1831 002c 00000000 		.4byte	0x0
 1832              		.section	.debug_ranges,"",%progbits
 1833              	.Ldebug_ranges0:
 1834 0000 1C000000 		.4byte	.LBB11
 1835 0004 1E000000 		.4byte	.LBE11
 1836 0008 2A000000 		.4byte	.LBB16
 1837 000c 30000000 		.4byte	.LBE16
 1838 0010 24000000 		.4byte	.LBB15
 1839 0014 26000000 		.4byte	.LBE15
 1840 0018 00000000 		.4byte	0x0
 1841 001c 00000000 		.4byte	0x0
 1842 0020 1A000000 		.4byte	.LBB19
 1843 0024 1E000000 		.4byte	.LBE19
 1844 0028 24000000 		.4byte	.LBB22
 1845 002c 26000000 		.4byte	.LBE22
 1846 0030 00000000 		.4byte	0x0
 1847 0034 00000000 		.4byte	0x0
 1848 0038 1A000000 		.4byte	.LBB20
 1849 003c 1E000000 		.4byte	.LBE20
 1850 0040 24000000 		.4byte	.LBB21
 1851 0044 26000000 		.4byte	.LBE21
 1852 0048 00000000 		.4byte	0x0
 1853 004c 00000000 		.4byte	0x0
 1854 0050 00000000 		.4byte	.LFB7
 1855 0054 60000000 		.4byte	.LFE7
 1856 0058 00000000 		.4byte	.LFB8
 1857 005c 48000000 		.4byte	.LFE8
 1858 0060 00000000 		.4byte	.LFB9
 1859 0064 38000000 		.4byte	.LFE9
 1860 0068 00000000 		.4byte	0x0
 1861 006c 00000000 		.4byte	0x0
 1862              		.section	.debug_str,"MS",%progbits,1
 1863              	.LASF36:
 1864 0000 705F6D73 		.ascii	"p_msg\000"
 1864      6700
 1865              	.LASF70:
 1866 0006 71756575 		.ascii	"queue_insert\000"
 1866      655F696E 
 1866      73657274 
 1866      00
 1867              	.LASF59:
 1868 0013 7264796D 		.ascii	"rdymsg\000"
 1868      736700
 1869              	.LASF11:
 1870 001a 75696E74 		.ascii	"uint64_t\000"
 1870      36345F74 
 1870      00
 1871              	.LASF12:
 1872 0023 6C6F6E67 		.ascii	"long long unsigned int\000"
 1872      206C6F6E 
 1872      6720756E 
 1872      7369676E 
 1872      65642069 
 1873              	.LASF60:
ARM GAS  C:\Users\z80\AppData\Local\Temp\ccCopAgh.s 			page 35


 1874 003a 65786974 		.ascii	"exitcode\000"
 1874      636F6465 
 1874      00
 1875              	.LASF24:
 1876 0043 705F7072 		.ascii	"p_prio\000"
 1876      696F00
 1877              	.LASF10:
 1878 004a 6C6F6E67 		.ascii	"long long int\000"
 1878      206C6F6E 
 1878      6720696E 
 1878      7400
 1879              	.LASF1:
 1880 0058 7369676E 		.ascii	"signed char\000"
 1880      65642063 
 1880      68617200 
 1881              	.LASF40:
 1882 0064 705F6D70 		.ascii	"p_mpool\000"
 1882      6F6F6C00 
 1883              	.LASF56:
 1884 006c 6D5F7175 		.ascii	"m_queue\000"
 1884      65756500 
 1885              	.LASF7:
 1886 0074 6C6F6E67 		.ascii	"long int\000"
 1886      20696E74 
 1886      00
 1887              	.LASF64:
 1888 007d 63684D73 		.ascii	"chMsgSend\000"
 1888      6753656E 
 1888      6400
 1889              	.LASF14:
 1890 0087 74737461 		.ascii	"tstate_t\000"
 1890      74655F74 
 1890      00
 1891              	.LASF26:
 1892 0090 705F6E65 		.ascii	"p_newer\000"
 1892      77657200 
 1893              	.LASF50:
 1894 0098 725F6E65 		.ascii	"r_newer\000"
 1894      77657200 
 1895              	.LASF43:
 1896 00a0 72656761 		.ascii	"regarm_t\000"
 1896      726D5F74 
 1896      00
 1897              	.LASF20:
 1898 00a9 636E745F 		.ascii	"cnt_t\000"
 1898      7400
 1899              	.LASF29:
 1900 00af 705F7374 		.ascii	"p_stklimit\000"
 1900      6B6C696D 
 1900      697400
 1901              	.LASF0:
 1902 00ba 756E7369 		.ascii	"unsigned int\000"
 1902      676E6564 
 1902      20696E74 
 1902      00
 1903              	.LASF9:
 1904 00c7 6C6F6E67 		.ascii	"long unsigned int\000"
ARM GAS  C:\Users\z80\AppData\Local\Temp\ccCopAgh.s 			page 36


 1904      20756E73 
 1904      69676E65 
 1904      6420696E 
 1904      7400
 1905              	.LASF46:
 1906 00d9 636F6E74 		.ascii	"context\000"
 1906      65787400 
 1907              	.LASF4:
 1908 00e1 73686F72 		.ascii	"short unsigned int\000"
 1908      7420756E 
 1908      7369676E 
 1908      65642069 
 1908      6E7400
 1909              	.LASF17:
 1910 00f4 6D73675F 		.ascii	"msg_t\000"
 1910      7400
 1911              	.LASF13:
 1912 00fa 746D6F64 		.ascii	"tmode_t\000"
 1912      655F7400 
 1913              	.LASF42:
 1914 0102 54687265 		.ascii	"ThreadsList\000"
 1914      6164734C 
 1914      69737400 
 1915              	.LASF18:
 1916 010e 6576656E 		.ascii	"eventmask_t\000"
 1916      746D6173 
 1916      6B5F7400 
 1917              	.LASF55:
 1918 011a 4D757465 		.ascii	"Mutex\000"
 1918      7800
 1919              	.LASF44:
 1920 0120 73746B61 		.ascii	"stkalign_t\000"
 1920      6C69676E 
 1920      5F7400
 1921              	.LASF27:
 1922 012b 705F6F6C 		.ascii	"p_older\000"
 1922      64657200 
 1923              	.LASF49:
 1924 0133 725F6374 		.ascii	"r_ctx\000"
 1924      7800
 1925              	.LASF41:
 1926 0139 54687265 		.ascii	"ThreadsQueue\000"
 1926      61647351 
 1926      75657565 
 1926      00
 1927              	.LASF69:
 1928 0146 433A5C70 		.ascii	"C:\\projects\\voltamper.git\\firmware\\voltamp\000"
 1928      726F6A65 
 1928      6374735C 
 1928      766F6C74 
 1928      616D7065 
 1929              	.LASF53:
 1930 0171 725F6375 		.ascii	"r_current\000"
 1930      7272656E 
 1930      7400
 1931              	.LASF51:
 1932 017b 725F6F6C 		.ascii	"r_older\000"
ARM GAS  C:\Users\z80\AppData\Local\Temp\ccCopAgh.s 			page 37


 1932      64657200 
 1933              	.LASF15:
 1934 0183 74726566 		.ascii	"trefs_t\000"
 1934      735F7400 
 1935              	.LASF23:
 1936 018b 705F7072 		.ascii	"p_prev\000"
 1936      657600
 1937              	.LASF16:
 1938 0192 74707269 		.ascii	"tprio_t\000"
 1938      6F5F7400 
 1939              	.LASF6:
 1940 019a 696E7433 		.ascii	"int32_t\000"
 1940      325F7400 
 1941              	.LASF2:
 1942 01a2 756E7369 		.ascii	"unsigned char\000"
 1942      676E6564 
 1942      20636861 
 1942      7200
 1943              	.LASF38:
 1944 01b0 705F6D74 		.ascii	"p_mtxlist\000"
 1944      786C6973 
 1944      7400
 1945              	.LASF3:
 1946 01ba 73686F72 		.ascii	"short int\000"
 1946      7420696E 
 1946      7400
 1947              	.LASF30:
 1948 01c4 705F7374 		.ascii	"p_state\000"
 1948      61746500 
 1949              	.LASF48:
 1950 01cc 725F7072 		.ascii	"r_prio\000"
 1950      696F00
 1951              	.LASF62:
 1952 01d3 65776D61 		.ascii	"ewmask\000"
 1952      736B00
 1953              	.LASF22:
 1954 01da 705F6E65 		.ascii	"p_next\000"
 1954      787400
 1955              	.LASF31:
 1956 01e1 705F666C 		.ascii	"p_flags\000"
 1956      61677300 
 1957              	.LASF21:
 1958 01e9 54687265 		.ascii	"Thread\000"
 1958      616400
 1959              	.LASF72:
 1960 01f0 63684D73 		.ascii	"chMsgRelease\000"
 1960      6752656C 
 1960      65617365 
 1960      00
 1961              	.LASF37:
 1962 01fd 705F6570 		.ascii	"p_epending\000"
 1962      656E6469 
 1962      6E6700
 1963              	.LASF8:
 1964 0208 75696E74 		.ascii	"uint32_t\000"
 1964      33325F74 
 1964      00
ARM GAS  C:\Users\z80\AppData\Local\Temp\ccCopAgh.s 			page 38


 1965              	.LASF47:
 1966 0211 725F7175 		.ascii	"r_queue\000"
 1966      65756500 
 1967              	.LASF63:
 1968 0219 63686172 		.ascii	"char\000"
 1968      00
 1969              	.LASF71:
 1970 021e 6669666F 		.ascii	"fifo_remove\000"
 1970      5F72656D 
 1970      6F766500 
 1971              	.LASF58:
 1972 022a 6D5F6E65 		.ascii	"m_next\000"
 1972      787400
 1973              	.LASF19:
 1974 0231 73797374 		.ascii	"systime_t\000"
 1974      696D655F 
 1974      7400
 1975              	.LASF39:
 1976 023b 705F7265 		.ascii	"p_realprio\000"
 1976      616C7072 
 1976      696F00
 1977              	.LASF33:
 1978 0246 705F7469 		.ascii	"p_time\000"
 1978      6D6500
 1979              	.LASF45:
 1980 024d 696E7463 		.ascii	"intctx\000"
 1980      747800
 1981              	.LASF35:
 1982 0254 705F6D73 		.ascii	"p_msgqueue\000"
 1982      67717565 
 1982      756500
 1983              	.LASF65:
 1984 025f 63684D73 		.ascii	"chMsgWait\000"
 1984      67576169 
 1984      7400
 1985              	.LASF68:
 1986 0269 2E2E2F63 		.ascii	"../chibios_2.4.x/os/kernel/src/chmsg.c\000"
 1986      68696269 
 1986      6F735F32 
 1986      2E342E78 
 1986      2F6F732F 
 1987              	.LASF32:
 1988 0290 705F7265 		.ascii	"p_refs\000"
 1988      667300
 1989              	.LASF54:
 1990 0297 52656164 		.ascii	"ReadyList\000"
 1990      794C6973 
 1990      7400
 1991              	.LASF66:
 1992 02a1 726C6973 		.ascii	"rlist\000"
 1992      7400
 1993              	.LASF5:
 1994 02a7 75696E74 		.ascii	"uint8_t\000"
 1994      385F7400 
 1995              	.LASF67:
 1996 02af 474E5520 		.ascii	"GNU C 4.5.0\000"
 1996      4320342E 
ARM GAS  C:\Users\z80\AppData\Local\Temp\ccCopAgh.s 			page 39


 1996      352E3000 
 1997              	.LASF61:
 1998 02bb 77746F62 		.ascii	"wtobjp\000"
 1998      6A7000
 1999              	.LASF28:
 2000 02c2 705F6E61 		.ascii	"p_name\000"
 2000      6D6500
 2001              	.LASF52:
 2002 02c9 725F7072 		.ascii	"r_preempt\000"
 2002      65656D70 
 2002      7400
 2003              	.LASF57:
 2004 02d3 6D5F6F77 		.ascii	"m_owner\000"
 2004      6E657200 
 2005              	.LASF25:
 2006 02db 705F6374 		.ascii	"p_ctx\000"
 2006      7800
 2007              	.LASF34:
 2008 02e1 705F7761 		.ascii	"p_waiting\000"
 2008      6974696E 
 2008      6700
 2009              		.ident	"GCC: (GNU) 4.5.0"
ARM GAS  C:\Users\z80\AppData\Local\Temp\ccCopAgh.s 			page 40


DEFINED SYMBOLS
                            *ABS*:00000000 chmsg.c
C:\Users\z80\AppData\Local\Temp\ccCopAgh.s:24     .text.chMsgSend:00000000 $t
C:\Users\z80\AppData\Local\Temp\ccCopAgh.s:30     .text.chMsgSend:00000000 chMsgSend
C:\Users\z80\AppData\Local\Temp\ccCopAgh.s:143    .text.chMsgSend:00000058 $d
C:\Users\z80\AppData\Local\Temp\ccCopAgh.s:149    .text.chMsgWait:00000000 $t
C:\Users\z80\AppData\Local\Temp\ccCopAgh.s:155    .text.chMsgWait:00000000 chMsgWait
C:\Users\z80\AppData\Local\Temp\ccCopAgh.s:234    .text.chMsgWait:00000044 $d
C:\Users\z80\AppData\Local\Temp\ccCopAgh.s:239    .text.chMsgRelease:00000000 $t
C:\Users\z80\AppData\Local\Temp\ccCopAgh.s:245    .text.chMsgRelease:00000000 chMsgRelease
C:\Users\z80\AppData\Local\Temp\ccCopAgh.s:302    .text.chMsgRelease:00000034 $d
C:\Users\z80\AppData\Local\Temp\ccCopAgh.s:307    .rodata.str1.4:00000000 $d
                     .debug_frame:00000010 $d
C:\Users\z80\AppData\Local\Temp\ccCopAgh.s:238    .text.chMsgWait:00000048 $t
C:\Users\z80\AppData\Local\Temp\ccCopAgh.s:306    .text.chMsgRelease:00000038 $t

UNDEFINED SYMBOLS
dbg_check_lock
chSchGoSleepS
dbg_check_unlock
chSchReadyI
chDbgPanic
rlist
chSchWakeupS
