ARM GAS  /tmp/cc2aWDjg.s 			page 1


   1              		.syntax unified
   2              		.cpu cortex-m3
   3              		.fpu softvfp
   4              		.eabi_attribute 20, 1
   5              		.eabi_attribute 21, 1
   6              		.eabi_attribute 23, 3
   7              		.eabi_attribute 24, 1
   8              		.eabi_attribute 25, 1
   9              		.eabi_attribute 26, 1
  10              		.eabi_attribute 30, 2
  11              		.eabi_attribute 18, 4
  12              		.thumb
  13              		.file	"chmsg.c"
  20 0000 F2010000 		.text
  20      02006001 
  20      00000201 
  20      FB0E0D00 
  20      01010101 
  21              	.Ltext0:
  22              		.cfi_sections	.debug_frame
  23              		.section	.text.chMsgSend,"ax",%progbits
  24              		.align	2
  25              		.p2align 4,,15
  26              		.global	chMsgSend
  27              		.thumb
  28              		.thumb_func
  29              		.type	chMsgSend, %function
  30              	chMsgSend:
  31              	.LFB7:
  32              		.file 1 "../chibios_2.4.x/os/kernel/src/chmsg.c"
  33              		.loc 1 75 0
  34              		.cfi_startproc
  35              		@ args = 0, pretend = 0, frame = 0
  36              		@ frame_needed = 0, uses_anonymous_args = 0
  37              	.LVL0:
  38              		.loc 1 76 0
  39 0000 154B     		ldr	r3, .L7
  40              		.loc 1 75 0
  41 0002 70B5     		push	{r4, r5, r6, lr}
  42              	.LCFI0:
  43              		.cfi_def_cfa_offset 16
  44              		.loc 1 78 0
  45 0004 0446     		mov	r4, r0
  46              		.cfi_offset 14, -4
  47              		.cfi_offset 6, -8
  48              		.cfi_offset 5, -12
  49              		.cfi_offset 4, -16
  50              		.loc 1 75 0
  51 0006 0E46     		mov	r6, r1
  52              		.loc 1 76 0
  53 0008 DD69     		ldr	r5, [r3, #28]
ARM GAS  /tmp/cc2aWDjg.s 			page 2


  54              	.LVL1:
  55              		.loc 1 78 0
  56 000a 00B3     		cbz	r0, .L5
  57              	.LVL2:
  58              	.L2:
  59              	.LBB10:
  60              		.loc 1 80 0
  61 000c 2023     		movs	r3, #32
  62              	.LVL3:
  63              	@ 80 "../chibios_2.4.x/os/kernel/src/chmsg.c" 1
  64 000e 83F31188 		msr     BASEPRI, r3
  65              	@ 0 "" 2
  66              	.LVL4:
  67              		.thumb
  68              	.LBE10:
  69 0012 FFF7FEFF 		bl	dbg_check_lock
  70              	.LVL5:
  71              		.loc 1 84 0
  72 0016 94F82010 		ldrb	r1, [r4, #32]	@ zero_extendqisi2
  73              	.LBB11:
  74              	.LBB13:
  75              		.file 2 "../chibios_2.4.x/os/kernel/include/chinline.h"
  76              		.loc 2 55 0
  77 001a 606B     		ldr	r0, [r4, #52]
  78              	.LBE13:
  79              	.LBE11:
  80              		.loc 1 82 0
  81 001c 04F13002 		add	r2, r4, #48
  82              		.loc 1 84 0
  83 0020 0C29     		cmp	r1, #12
  84              	.LBB15:
  85              	.LBB12:
  86              		.loc 2 54 0
  87 0022 2A60     		str	r2, [r5, #0]
  88              	.LBE12:
  89              	.LBE15:
  90              		.loc 1 81 0
  91 0024 AE63     		str	r6, [r5, #56]
  92              		.loc 1 82 0
  93 0026 AA62     		str	r2, [r5, #40]
  94              	.LVL6:
  95              	.LBB16:
  96              	.LBB14:
  97              		.loc 2 55 0
  98 0028 6860     		str	r0, [r5, #4]
  99              		.loc 2 56 0
 100 002a 6563     		str	r5, [r4, #52]
 101 002c 0560     		str	r5, [r0, #0]
 102              	.LBE14:
 103              	.LBE16:
 104              		.loc 1 84 0
 105 002e 0AD0     		beq	.L6
 106              	.L3:
 107              		.loc 1 86 0
 108 0030 0A20     		movs	r0, #10
 109 0032 FFF7FEFF 		bl	chSchGoSleepS
 110              		.loc 1 87 0
ARM GAS  /tmp/cc2aWDjg.s 			page 3


 111 0036 AC6A     		ldr	r4, [r5, #40]
 112              	.LVL7:
 113              		.loc 1 88 0
 114 0038 FFF7FEFF 		bl	dbg_check_unlock
 115              	.LVL8:
 116              	.LBB17:
 117 003c 0023     		movs	r3, #0
 118              	.LVL9:
 119              	@ 88 "../chibios_2.4.x/os/kernel/src/chmsg.c" 1
 120 003e 83F31188 		msr     BASEPRI, r3
 121              	@ 0 "" 2
 122              	.LVL10:
 123              		.thumb
 124              	.LBE17:
 125              		.loc 1 90 0
 126 0042 2046     		mov	r0, r4
 127 0044 70BD     		pop	{r4, r5, r6, pc}
 128              	.LVL11:
 129              	.L6:
 130              		.loc 1 85 0
 131 0046 2046     		mov	r0, r4
 132 0048 FFF7FEFF 		bl	chSchReadyI
 133 004c F0E7     		b	.L3
 134              	.LVL12:
 135              	.L5:
 136              		.loc 1 78 0 discriminator 1
 137 004e 0348     		ldr	r0, .L7+4
 138 0050 FFF7FEFF 		bl	chDbgPanic
 139 0054 DAE7     		b	.L2
 140              	.L8:
 141 0056 00BF     		.align	2
 142              	.L7:
 143 0058 00000000 		.word	rlist
 144 005c 00000000 		.word	.LC0
 145              		.cfi_endproc
 146              	.LFE7:
 147              		.size	chMsgSend, .-chMsgSend
 148              		.section	.text.chMsgWait,"ax",%progbits
 149              		.align	2
 150              		.p2align 4,,15
 151              		.global	chMsgWait
 152              		.thumb
 153              		.thumb_func
 154              		.type	chMsgWait, %function
 155              	chMsgWait:
 156              	.LFB8:
 157              		.loc 1 106 0
 158              		.cfi_startproc
 159              		@ args = 0, pretend = 0, frame = 0
 160              		@ frame_needed = 0, uses_anonymous_args = 0
 161 0000 38B5     		push	{r3, r4, r5, lr}
 162              	.LCFI1:
 163              		.cfi_def_cfa_offset 16
 164              	.LBB18:
 165              		.loc 1 109 0
 166 0002 2023     		movs	r3, #32
 167              		.cfi_offset 14, -4
ARM GAS  /tmp/cc2aWDjg.s 			page 4


 168              		.cfi_offset 5, -8
 169              		.cfi_offset 4, -12
 170              		.cfi_offset 3, -16
 171              	.LVL13:
 172              	@ 109 "../chibios_2.4.x/os/kernel/src/chmsg.c" 1
 173 0004 83F31188 		msr     BASEPRI, r3
 174              	@ 0 "" 2
 175              	.LVL14:
 176              		.thumb
 177              	.LBE18:
 178              		.loc 1 110 0
 179 0008 0E4D     		ldr	r5, .L12
 180              		.loc 1 109 0
 181 000a FFF7FEFF 		bl	dbg_check_lock
 182              	.LVL15:
 183              		.loc 1 110 0
 184 000e EA69     		ldr	r2, [r5, #28]
 185 0010 1346     		mov	r3, r2
 186 0012 53F8304F 		ldr	r4, [r3, #48]!
 187 0016 9C42     		cmp	r4, r3
 188 0018 0CD0     		beq	.L11
 189              	.L10:
 190              	.LVL16:
 191              	.LBB19:
 192              	.LBB20:
 193              		.loc 2 62 0
 194 001a 2168     		ldr	r1, [r4, #0]
 195 001c 4B60     		str	r3, [r1, #4]
 196              	.LBE20:
 197              	.LBE19:
 198              		.loc 1 113 0
 199 001e 0B23     		movs	r3, #11
 200 0020 84F82030 		strb	r3, [r4, #32]
 201              	.LBB22:
 202              	.LBB21:
 203              		.loc 2 62 0
 204 0024 1163     		str	r1, [r2, #48]
 205              	.LBE21:
 206              	.LBE22:
 207              		.loc 1 114 0
 208 0026 FFF7FEFF 		bl	dbg_check_unlock
 209              	.LVL17:
 210              	.LBB23:
 211 002a 0023     		movs	r3, #0
 212              	.LVL18:
 213              	@ 114 "../chibios_2.4.x/os/kernel/src/chmsg.c" 1
 214 002c 83F31188 		msr     BASEPRI, r3
 215              	@ 0 "" 2
 216              	.LVL19:
 217              		.thumb
 218              	.LBE23:
 219              		.loc 1 116 0
 220 0030 2046     		mov	r0, r4
 221 0032 38BD     		pop	{r3, r4, r5, pc}
 222              	.LVL20:
 223              	.L11:
 224              		.loc 1 111 0
ARM GAS  /tmp/cc2aWDjg.s 			page 5


 225 0034 0C20     		movs	r0, #12
 226 0036 FFF7FEFF 		bl	chSchGoSleepS
 227 003a EA69     		ldr	r2, [r5, #28]
 228 003c 1346     		mov	r3, r2
 229 003e 53F8304F 		ldr	r4, [r3, #48]!
 230 0042 EAE7     		b	.L10
 231              	.L13:
 232              		.align	2
 233              	.L12:
 234 0044 00000000 		.word	rlist
 235              		.cfi_endproc
 236              	.LFE8:
 237              		.size	chMsgWait, .-chMsgWait
 238 0048 AFF30080 		.section	.text.chMsgRelease,"ax",%progbits
 238      AFF30080 
 239              		.align	2
 240              		.p2align 4,,15
 241              		.global	chMsgRelease
 242              		.thumb
 243              		.thumb_func
 244              		.type	chMsgRelease, %function
 245              	chMsgRelease:
 246              	.LFB9:
 247              		.loc 1 128 0
 248              		.cfi_startproc
 249              		@ args = 0, pretend = 0, frame = 0
 250              		@ frame_needed = 0, uses_anonymous_args = 0
 251              	.LVL21:
 252 0000 38B5     		push	{r3, r4, r5, lr}
 253              	.LCFI2:
 254              		.cfi_def_cfa_offset 16
 255              		.loc 1 128 0
 256 0002 0446     		mov	r4, r0
 257              		.cfi_offset 14, -4
 258              		.cfi_offset 5, -8
 259              		.cfi_offset 4, -12
 260              		.cfi_offset 3, -16
 261 0004 0D46     		mov	r5, r1
 262              	.LBB24:
 263              		.loc 1 130 0
 264 0006 2023     		movs	r3, #32
 265              	.LVL22:
 266              	@ 130 "../chibios_2.4.x/os/kernel/src/chmsg.c" 1
 267 0008 83F31188 		msr     BASEPRI, r3
 268              	@ 0 "" 2
 269              	.LVL23:
 270              		.thumb
 271              	.LBE24:
 272 000c FFF7FEFF 		bl	dbg_check_lock
 273              	.LVL24:
 274              		.loc 1 131 0
 275 0010 94F82030 		ldrb	r3, [r4, #32]	@ zero_extendqisi2
 276 0014 0B2B     		cmp	r3, #11
 277 0016 02D0     		beq	.L15
 278              		.loc 1 131 0 is_stmt 0 discriminator 1
 279 0018 0648     		ldr	r0, .L16
 280 001a FFF7FEFF 		bl	chDbgPanic
ARM GAS  /tmp/cc2aWDjg.s 			page 6


 281              	.L15:
 282              		.loc 1 133 0 is_stmt 1
 283 001e 2046     		mov	r0, r4
 284 0020 2946     		mov	r1, r5
 285 0022 FFF7FEFF 		bl	chSchWakeupS
 286              		.loc 1 134 0
 287 0026 FFF7FEFF 		bl	dbg_check_unlock
 288              	.LBB25:
 289 002a 0023     		movs	r3, #0
 290              	.LVL25:
 291              	@ 134 "../chibios_2.4.x/os/kernel/src/chmsg.c" 1
 292 002c 83F31188 		msr     BASEPRI, r3
 293              	@ 0 "" 2
 294              	.LVL26:
 295              		.thumb
 296              	.LBE25:
 297              		.loc 1 135 0
 298 0030 38BD     		pop	{r3, r4, r5, pc}
 299              	.L17:
 300 0032 00BF     		.align	2
 301              	.L16:
 302 0034 10000000 		.word	.LC1
 303              		.cfi_endproc
 304              	.LFE9:
 305              		.size	chMsgRelease, .-chMsgRelease
 306 0038 AFF30080 		.section	.rodata.str1.4,"aMS",%progbits,1
 306      AFF30080 
 307              		.align	2
 308              	.LC0:
 309 0000 2263684D 		.ascii	"\"chMsgSend\"()\000"
 309      73675365 
 309      6E642228 
 309      2900
 310 000e 0000     		.space	2
 311              	.LC1:
 312 0010 63684D73 		.ascii	"chMsgRelease(), #1\000"
 312      6752656C 
 312      65617365 
 312      28292C20 
 312      233100
 313 0023 00       		.text
 314              	.Letext0: