ARM GAS  /tmp/ccwyjMLk.s 			page 1


   1              		.syntax unified
   2              		.cpu cortex-m3
   3              		.fpu softvfp
   4              		.eabi_attribute 20, 1
   5              		.eabi_attribute 21, 1
   6              		.eabi_attribute 23, 3
   7              		.eabi_attribute 24, 1
   8              		.eabi_attribute 25, 1
   9              		.eabi_attribute 26, 1
  10              		.eabi_attribute 30, 6
  11              		.eabi_attribute 18, 4
  12              		.thumb
  13              		.file	"chmtx.c"
  20 0000 16030000 		.text
  20      02006001 
  20      00000201 
  20      FB0E0D00 
  20      01010101 
  21              	.Ltext0:
  22              		.cfi_sections	.debug_frame
  23              		.section	.text.prio_insert,"ax",%progbits
  24              		.align	2
  25              		.p2align 4,,15
  26              		.thumb
  27              		.thumb_func
  28              		.type	prio_insert, %function
  29              	prio_insert:
  30              	.LFB0:
  31              		.file 1 "../chibios_2.4.x/os/kernel/include/chinline.h"
  32              		.loc 1 41 0
  33              		.cfi_startproc
  34              		@ args = 0, pretend = 0, frame = 16
  35              		@ frame_needed = 0, uses_anonymous_args = 0
  36              		@ link register save eliminated.
  37 0000 84B0     		sub	sp, sp, #16
  38              	.LCFI0:
  39              		.cfi_def_cfa_offset 16
  40 0002 0190     		str	r0, [sp, #4]
  41 0004 0091     		str	r1, [sp, #0]
  42              		.loc 1 43 0
  43 0006 009B     		ldr	r3, [sp, #0]
  44 0008 0393     		str	r3, [sp, #12]
  45              	.L3:
  46              		.loc 1 45 0 discriminator 1
  47 000a 039B     		ldr	r3, [sp, #12]
  48 000c 1B68     		ldr	r3, [r3, #0]
  49 000e 0393     		str	r3, [sp, #12]
  50              		.loc 1 46 0 discriminator 1
  51 0010 009B     		ldr	r3, [sp, #0]
  52 0012 039A     		ldr	r2, [sp, #12]
  53 0014 9A42     		cmp	r2, r3
ARM GAS  /tmp/ccwyjMLk.s 			page 2


  54 0016 05D0     		beq	.L2
  55 0018 039B     		ldr	r3, [sp, #12]
  56 001a 9A68     		ldr	r2, [r3, #8]
  57 001c 019B     		ldr	r3, [sp, #4]
  58 001e 9B68     		ldr	r3, [r3, #8]
  59 0020 9A42     		cmp	r2, r3
  60 0022 F2D2     		bcs	.L3
  61              	.L2:
  62              		.loc 1 47 0
  63 0024 019B     		ldr	r3, [sp, #4]
  64 0026 039A     		ldr	r2, [sp, #12]
  65 0028 1A60     		str	r2, [r3, #0]
  66              		.loc 1 48 0
  67 002a 039B     		ldr	r3, [sp, #12]
  68 002c 5A68     		ldr	r2, [r3, #4]
  69 002e 019B     		ldr	r3, [sp, #4]
  70 0030 5A60     		str	r2, [r3, #4]
  71              		.loc 1 49 0
  72 0032 019B     		ldr	r3, [sp, #4]
  73 0034 5B68     		ldr	r3, [r3, #4]
  74 0036 039A     		ldr	r2, [sp, #12]
  75 0038 0199     		ldr	r1, [sp, #4]
  76 003a 5160     		str	r1, [r2, #4]
  77 003c 039A     		ldr	r2, [sp, #12]
  78 003e 5268     		ldr	r2, [r2, #4]
  79 0040 1A60     		str	r2, [r3, #0]
  80              		.loc 1 50 0
  81 0042 04B0     		add	sp, sp, #16
  82 0044 7047     		bx	lr
  83              		.cfi_endproc
  84              	.LFE0:
  85              		.size	prio_insert, .-prio_insert
  86 0046 00BFAFF3 		.section	.text.fifo_remove,"ax",%progbits
  86      0080AFF3 
  86      0080
  87              		.align	2
  88              		.p2align 4,,15
  89              		.thumb
  90              		.thumb_func
  91              		.type	fifo_remove, %function
  92              	fifo_remove:
  93              	.LFB2:
  94              		.loc 1 59 0
  95              		.cfi_startproc
  96              		@ args = 0, pretend = 0, frame = 16
  97              		@ frame_needed = 0, uses_anonymous_args = 0
  98              		@ link register save eliminated.
  99 0000 84B0     		sub	sp, sp, #16
 100              	.LCFI1:
 101              		.cfi_def_cfa_offset 16
 102 0002 0190     		str	r0, [sp, #4]
 103              		.loc 1 60 0
 104 0004 019B     		ldr	r3, [sp, #4]
 105 0006 1B68     		ldr	r3, [r3, #0]
 106 0008 0393     		str	r3, [sp, #12]
 107              		.loc 1 62 0
 108 000a 039B     		ldr	r3, [sp, #12]
ARM GAS  /tmp/ccwyjMLk.s 			page 3


 109 000c 1A68     		ldr	r2, [r3, #0]
 110 000e 019B     		ldr	r3, [sp, #4]
 111 0010 1A60     		str	r2, [r3, #0]
 112 0012 019B     		ldr	r3, [sp, #4]
 113 0014 1B68     		ldr	r3, [r3, #0]
 114 0016 019A     		ldr	r2, [sp, #4]
 115 0018 5A60     		str	r2, [r3, #4]
 116              		.loc 1 63 0
 117 001a 039B     		ldr	r3, [sp, #12]
 118              		.loc 1 64 0
 119 001c 1846     		mov	r0, r3
 120 001e 04B0     		add	sp, sp, #16
 121 0020 7047     		bx	lr
 122              		.cfi_endproc
 123              	.LFE2:
 124              		.size	fifo_remove, .-fifo_remove
 125 0022 00BFAFF3 		.section	.text.dequeue,"ax",%progbits
 125      0080AFF3 
 125      0080AFF3 
 125      0080
 126              		.align	2
 127              		.p2align 4,,15
 128              		.thumb
 129              		.thumb_func
 130              		.type	dequeue, %function
 131              	dequeue:
 132              	.LFB4:
 133              		.loc 1 73 0
 134              		.cfi_startproc
 135              		@ args = 0, pretend = 0, frame = 8
 136              		@ frame_needed = 0, uses_anonymous_args = 0
 137              		@ link register save eliminated.
 138 0000 82B0     		sub	sp, sp, #8
 139              	.LCFI2:
 140              		.cfi_def_cfa_offset 8
 141 0002 0190     		str	r0, [sp, #4]
 142              		.loc 1 75 0
 143 0004 019B     		ldr	r3, [sp, #4]
 144 0006 5B68     		ldr	r3, [r3, #4]
 145 0008 019A     		ldr	r2, [sp, #4]
 146 000a 1268     		ldr	r2, [r2, #0]
 147 000c 1A60     		str	r2, [r3, #0]
 148              		.loc 1 76 0
 149 000e 019B     		ldr	r3, [sp, #4]
 150 0010 1B68     		ldr	r3, [r3, #0]
 151 0012 019A     		ldr	r2, [sp, #4]
 152 0014 5268     		ldr	r2, [r2, #4]
 153 0016 5A60     		str	r2, [r3, #4]
 154              		.loc 1 77 0
 155 0018 019B     		ldr	r3, [sp, #4]
 156              		.loc 1 78 0
 157 001a 1846     		mov	r0, r3
 158 001c 02B0     		add	sp, sp, #8
 159 001e 7047     		bx	lr
 160              		.cfi_endproc
 161              	.LFE4:
 162              		.size	dequeue, .-dequeue
ARM GAS  /tmp/ccwyjMLk.s 			page 4


 163              		.section	.rodata
 164              		.align	2
 165              	.LC0:
 166 0000 2263684D 		.ascii	"\"chMtxInit\"()\000"
 166      7478496E 
 166      69742228 
 166      2900
 167              		.section	.text.chMtxInit,"ax",%progbits
 168              		.align	2
 169              		.p2align 4,,15
 170              		.global	chMtxInit
 171              		.thumb
 172              		.thumb_func
 173              		.type	chMtxInit, %function
 174              	chMtxInit:
 175              	.LFB7:
 176              		.file 2 "../chibios_2.4.x/os/kernel/src/chmtx.c"
 177              		.loc 2 86 0
 178              		.cfi_startproc
 179              		@ args = 0, pretend = 0, frame = 8
 180              		@ frame_needed = 0, uses_anonymous_args = 0
 181 0000 00B5     		push	{lr}
 182              	.LCFI3:
 183              		.cfi_def_cfa_offset 4
 184 0002 83B0     		sub	sp, sp, #12
 185              	.LCFI4:
 186              		.cfi_def_cfa_offset 16
 187 0004 0190     		str	r0, [sp, #4]
 188              		.loc 2 88 0
 189 0006 019B     		ldr	r3, [sp, #4]
 190 0008 002B     		cmp	r3, #0
 191 000a 02D1     		bne	.L7
 192              		.cfi_offset 14, -4
 193              		.loc 2 88 0 is_stmt 0 discriminator 1
 194 000c 0848     		ldr	r0, .L8
 195 000e FFF7FEFF 		bl	chDbgPanic
 196              	.L7:
 197              		.loc 2 90 0 is_stmt 1
 198 0012 019B     		ldr	r3, [sp, #4]
 199 0014 1A46     		mov	r2, r3
 200 0016 019B     		ldr	r3, [sp, #4]
 201 0018 5A60     		str	r2, [r3, #4]
 202 001a 019B     		ldr	r3, [sp, #4]
 203 001c 5A68     		ldr	r2, [r3, #4]
 204 001e 019B     		ldr	r3, [sp, #4]
 205 0020 1A60     		str	r2, [r3, #0]
 206              		.loc 2 91 0
 207 0022 019B     		ldr	r3, [sp, #4]
 208 0024 4FF00002 		mov	r2, #0
 209 0028 9A60     		str	r2, [r3, #8]
 210              		.loc 2 92 0
 211 002a 03B0     		add	sp, sp, #12
 212 002c 00BD     		pop	{pc}
 213              	.L9:
 214 002e 00BF     		.align	2
 215              	.L8:
 216 0030 00000000 		.word	.LC0
ARM GAS  /tmp/ccwyjMLk.s 			page 5


 217              		.cfi_endproc
 218              	.LFE7:
 219              		.size	chMtxInit, .-chMtxInit
 220 0034 AFF30080 		.section	.text.chMtxLock,"ax",%progbits
 220      AFF30080 
 220      AFF30080 
 221              		.align	2
 222              		.p2align 4,,15
 223              		.global	chMtxLock
 224              		.thumb
 225              		.thumb_func
 226              		.type	chMtxLock, %function
 227              	chMtxLock:
 228              	.LFB8:
 229              		.loc 2 103 0
 230              		.cfi_startproc
 231              		@ args = 0, pretend = 0, frame = 8
 232              		@ frame_needed = 0, uses_anonymous_args = 0
 233 0000 00B5     		push	{lr}
 234              	.LCFI5:
 235              		.cfi_def_cfa_offset 4
 236 0002 83B0     		sub	sp, sp, #12
 237              	.LCFI6:
 238              		.cfi_def_cfa_offset 16
 239 0004 0190     		str	r0, [sp, #4]
 240              	.LBB2:
 241              		.loc 2 105 0
 242 0006 4FF02003 		mov	r3, #32
 243              	@ 105 "../chibios_2.4.x/os/kernel/src/chmtx.c" 1
 244 000a 83F31188 		msr     BASEPRI, r3
 245              	@ 0 "" 2
 246              		.thumb
 247              	.LBE2:
 248              		.cfi_offset 14, -4
 249 000e FFF7FEFF 		bl	dbg_check_lock
 250              		.loc 2 107 0
 251 0012 0198     		ldr	r0, [sp, #4]
 252 0014 FFF7FEFF 		bl	chMtxLockS
 253              		.loc 2 109 0
 254 0018 FFF7FEFF 		bl	dbg_check_unlock
 255              	.LBB3:
 256 001c 4FF00003 		mov	r3, #0
 257              	@ 109 "../chibios_2.4.x/os/kernel/src/chmtx.c" 1
 258 0020 83F31188 		msr     BASEPRI, r3
 259              	@ 0 "" 2
 260              		.thumb
 261              	.LBE3:
 262              		.loc 2 110 0
 263 0024 03B0     		add	sp, sp, #12
 264 0026 00BD     		pop	{pc}
 265              		.cfi_endproc
 266              	.LFE8:
 267              		.size	chMtxLock, .-chMtxLock
 268 0028 AFF30080 		.section	.rodata
 268      AFF30080 
 269 000e 0000     		.align	2
 270              	.LC1:
ARM GAS  /tmp/ccwyjMLk.s 			page 6


 271 0010 2263684D 		.ascii	"\"chMtxLockS\"()\000"
 271      74784C6F 
 271      636B5322 
 271      282900
 272 001f 00       		.align	2
 273              	.LC2:
 274 0020 63684D74 		.ascii	"chMtxLockS(), #1\000"
 274      784C6F63 
 274      6B532829 
 274      2C202331 
 274      00
 275 0031 000000   		.align	2
 276              	.LC3:
 277 0034 63684D74 		.ascii	"chMtxLockS(), #2\000"
 277      784C6F63 
 277      6B532829 
 277      2C202332 
 277      00
 278              		.section	.text.chMtxLockS,"ax",%progbits
 279              		.align	2
 280              		.p2align 4,,15
 281              		.global	chMtxLockS
 282              		.thumb
 283              		.thumb_func
 284              		.type	chMtxLockS, %function
 285              	chMtxLockS:
 286              	.LFB9:
 287              		.loc 2 121 0
 288              		.cfi_startproc
 289              		@ args = 0, pretend = 0, frame = 16
 290              		@ frame_needed = 0, uses_anonymous_args = 0
 291 0000 00B5     		push	{lr}
 292              	.LCFI7:
 293              		.cfi_def_cfa_offset 4
 294 0002 85B0     		sub	sp, sp, #20
 295              	.LCFI8:
 296              		.cfi_def_cfa_offset 24
 297 0004 0190     		str	r0, [sp, #4]
 298              		.loc 2 122 0
 299 0006 3C4B     		ldr	r3, .L23
 300 0008 DB69     		ldr	r3, [r3, #28]
 301 000a 0293     		str	r3, [sp, #8]
 302              		.loc 2 124 0
 303              		.cfi_offset 14, -4
 304 000c FFF7FEFF 		bl	chDbgCheckClassS
 305              		.loc 2 125 0
 306 0010 019B     		ldr	r3, [sp, #4]
 307 0012 002B     		cmp	r3, #0
 308 0014 02D1     		bne	.L12
 309              		.loc 2 125 0 is_stmt 0 discriminator 1
 310 0016 3948     		ldr	r0, .L23+4
 311 0018 FFF7FEFF 		bl	chDbgPanic
 312              	.L12:
 313              		.loc 2 128 0 is_stmt 1
 314 001c 019B     		ldr	r3, [sp, #4]
 315 001e 9B68     		ldr	r3, [r3, #8]
 316 0020 002B     		cmp	r3, #0
ARM GAS  /tmp/ccwyjMLk.s 			page 7


 317 0022 5CD0     		beq	.L13
 318              	.LBB4:
 319              		.loc 2 132 0
 320 0024 019B     		ldr	r3, [sp, #4]
 321 0026 9B68     		ldr	r3, [r3, #8]
 322 0028 0393     		str	r3, [sp, #12]
 323              		.loc 2 135 0
 324 002a 35E0     		b	.L14
 325              	.L20:
 326              		.loc 2 137 0
 327 002c 029B     		ldr	r3, [sp, #8]
 328 002e 9A68     		ldr	r2, [r3, #8]
 329 0030 039B     		ldr	r3, [sp, #12]
 330 0032 9A60     		str	r2, [r3, #8]
 331              		.loc 2 139 0
 332 0034 039B     		ldr	r3, [sp, #12]
 333 0036 93F82030 		ldrb	r3, [r3, #32]	@ zero_extendqisi2
 334 003a 042B     		cmp	r3, #4
 335 003c 04D0     		beq	.L17
 336 003e 052B     		cmp	r3, #5
 337 0040 11D0     		beq	.L18
 338 0042 002B     		cmp	r3, #0
 339 0044 1AD0     		beq	.L16
 340              		.loc 2 170 0
 341 0046 2DE0     		b	.L19
 342              	.L17:
 343              		.loc 2 142 0
 344 0048 0398     		ldr	r0, [sp, #12]
 345 004a FFF7FEFF 		bl	dequeue
 346 004e 0246     		mov	r2, r0
 347 0050 039B     		ldr	r3, [sp, #12]
 348 0052 9B6A     		ldr	r3, [r3, #40]
 349 0054 1046     		mov	r0, r2
 350 0056 1946     		mov	r1, r3
 351 0058 FFF7FEFF 		bl	prio_insert
 352              		.loc 2 143 0
 353 005c 039B     		ldr	r3, [sp, #12]
 354 005e 9B6A     		ldr	r3, [r3, #40]
 355 0060 9B68     		ldr	r3, [r3, #8]
 356 0062 0393     		str	r3, [sp, #12]
 357              		.loc 2 144 0
 358 0064 18E0     		b	.L14
 359              	.L18:
 360              		.loc 2 158 0
 361 0066 0398     		ldr	r0, [sp, #12]
 362 0068 FFF7FEFF 		bl	dequeue
 363 006c 0246     		mov	r2, r0
 364 006e 039B     		ldr	r3, [sp, #12]
 365 0070 9B6A     		ldr	r3, [r3, #40]
 366 0072 1046     		mov	r0, r2
 367 0074 1946     		mov	r1, r3
 368 0076 FFF7FEFF 		bl	prio_insert
 369              		.loc 2 159 0
 370 007a 0CE0     		b	.L15
 371              	.L16:
 372              		.loc 2 164 0
 373 007c 039B     		ldr	r3, [sp, #12]
ARM GAS  /tmp/ccwyjMLk.s 			page 8


 374 007e 4FF00102 		mov	r2, #1
 375 0082 83F82020 		strb	r2, [r3, #32]
 376              		.loc 2 167 0
 377 0086 0398     		ldr	r0, [sp, #12]
 378 0088 FFF7FEFF 		bl	dequeue
 379 008c 0346     		mov	r3, r0
 380 008e 1846     		mov	r0, r3
 381 0090 FFF7FEFF 		bl	chSchReadyI
 382              		.loc 2 168 0
 383 0094 00BF     		nop
 384              	.L15:
 385              		.loc 2 170 0
 386 0096 05E0     		b	.L19
 387              	.L14:
 388              		.loc 2 135 0 discriminator 1
 389 0098 039B     		ldr	r3, [sp, #12]
 390 009a 9A68     		ldr	r2, [r3, #8]
 391 009c 029B     		ldr	r3, [sp, #8]
 392 009e 9B68     		ldr	r3, [r3, #8]
 393 00a0 9A42     		cmp	r2, r3
 394 00a2 C3D3     		bcc	.L20
 395              	.L19:
 396              		.loc 2 173 0
 397 00a4 019B     		ldr	r3, [sp, #4]
 398 00a6 0298     		ldr	r0, [sp, #8]
 399 00a8 1946     		mov	r1, r3
 400 00aa FFF7FEFF 		bl	prio_insert
 401              		.loc 2 174 0
 402 00ae 029B     		ldr	r3, [sp, #8]
 403 00b0 019A     		ldr	r2, [sp, #4]
 404 00b2 9A62     		str	r2, [r3, #40]
 405              		.loc 2 175 0
 406 00b4 4FF00400 		mov	r0, #4
 407 00b8 FFF7FEFF 		bl	chSchGoSleepS
 408              		.loc 2 178 0
 409 00bc 019B     		ldr	r3, [sp, #4]
 410 00be 9A68     		ldr	r2, [r3, #8]
 411 00c0 029B     		ldr	r3, [sp, #8]
 412 00c2 9A42     		cmp	r2, r3
 413 00c4 02D0     		beq	.L21
 414              		.loc 2 178 0 is_stmt 0 discriminator 1
 415 00c6 0E48     		ldr	r0, .L23+8
 416 00c8 FFF7FEFF 		bl	chDbgPanic
 417              	.L21:
 418              		.loc 2 179 0 is_stmt 1
 419 00cc 029B     		ldr	r3, [sp, #8]
 420 00ce 1A6C     		ldr	r2, [r3, #64]
 421 00d0 019B     		ldr	r3, [sp, #4]
 422 00d2 9A42     		cmp	r2, r3
 423 00d4 0DD0     		beq	.L11
 424              		.loc 2 179 0 is_stmt 0 discriminator 1
 425 00d6 0B48     		ldr	r0, .L23+12
 426 00d8 FFF7FEFF 		bl	chDbgPanic
 427 00dc 09E0     		b	.L11
 428              	.L13:
 429              	.LBE4:
 430              		.loc 2 183 0 is_stmt 1
ARM GAS  /tmp/ccwyjMLk.s 			page 9


 431 00de 019B     		ldr	r3, [sp, #4]
 432 00e0 029A     		ldr	r2, [sp, #8]
 433 00e2 9A60     		str	r2, [r3, #8]
 434              		.loc 2 184 0
 435 00e4 029B     		ldr	r3, [sp, #8]
 436 00e6 1A6C     		ldr	r2, [r3, #64]
 437 00e8 019B     		ldr	r3, [sp, #4]
 438 00ea DA60     		str	r2, [r3, #12]
 439              		.loc 2 185 0
 440 00ec 029B     		ldr	r3, [sp, #8]
 441 00ee 019A     		ldr	r2, [sp, #4]
 442 00f0 1A64     		str	r2, [r3, #64]
 443              	.L11:
 444              		.loc 2 187 0
 445 00f2 05B0     		add	sp, sp, #20
 446 00f4 00BD     		pop	{pc}
 447              	.L24:
 448 00f6 00BF     		.align	2
 449              	.L23:
 450 00f8 00000000 		.word	rlist
 451 00fc 10000000 		.word	.LC1
 452 0100 20000000 		.word	.LC2
 453 0104 34000000 		.word	.LC3
 454              		.cfi_endproc
 455              	.LFE9:
 456              		.size	chMtxLockS, .-chMtxLockS
 457 0108 AFF30080 		.section	.text.chMtxTryLock,"ax",%progbits
 457      AFF30080 
 458              		.align	2
 459              		.p2align 4,,15
 460              		.global	chMtxTryLock
 461              		.thumb
 462              		.thumb_func
 463              		.type	chMtxTryLock, %function
 464              	chMtxTryLock:
 465              	.LFB10:
 466              		.loc 2 206 0
 467              		.cfi_startproc
 468              		@ args = 0, pretend = 0, frame = 16
 469              		@ frame_needed = 0, uses_anonymous_args = 0
 470 0000 00B5     		push	{lr}
 471              	.LCFI9:
 472              		.cfi_def_cfa_offset 4
 473 0002 85B0     		sub	sp, sp, #20
 474              	.LCFI10:
 475              		.cfi_def_cfa_offset 24
 476 0004 0190     		str	r0, [sp, #4]
 477              	.LBB5:
 478              		.loc 2 209 0
 479 0006 4FF02003 		mov	r3, #32
 480              	@ 209 "../chibios_2.4.x/os/kernel/src/chmtx.c" 1
 481 000a 83F31188 		msr     BASEPRI, r3
 482              	@ 0 "" 2
 483              		.thumb
 484              	.LBE5:
 485              		.cfi_offset 14, -4
 486 000e FFF7FEFF 		bl	dbg_check_lock
ARM GAS  /tmp/ccwyjMLk.s 			page 10


 487              		.loc 2 211 0
 488 0012 0198     		ldr	r0, [sp, #4]
 489 0014 FFF7FEFF 		bl	chMtxTryLockS
 490 0018 0390     		str	r0, [sp, #12]
 491              		.loc 2 213 0
 492 001a FFF7FEFF 		bl	dbg_check_unlock
 493              	.LBB6:
 494 001e 4FF00003 		mov	r3, #0
 495              	@ 213 "../chibios_2.4.x/os/kernel/src/chmtx.c" 1
 496 0022 83F31188 		msr     BASEPRI, r3
 497              	@ 0 "" 2
 498              		.thumb
 499              	.LBE6:
 500              		.loc 2 214 0
 501 0026 039B     		ldr	r3, [sp, #12]
 502              		.loc 2 215 0
 503 0028 1846     		mov	r0, r3
 504 002a 05B0     		add	sp, sp, #20
 505 002c 00BD     		pop	{pc}
 506              		.cfi_endproc
 507              	.LFE10:
 508              		.size	chMtxTryLock, .-chMtxTryLock
 509 002e 00BF     		.section	.rodata
 510 0045 000000   		.align	2
 511              	.LC4:
 512 0048 2263684D 		.ascii	"\"chMtxTryLockS\"()\000"
 512      74785472 
 512      794C6F63 
 512      6B532228 
 512      2900
 513              		.section	.text.chMtxTryLockS,"ax",%progbits
 514              		.align	2
 515              		.p2align 4,,15
 516              		.global	chMtxTryLockS
 517              		.thumb
 518              		.thumb_func
 519              		.type	chMtxTryLockS, %function
 520              	chMtxTryLockS:
 521              	.LFB11:
 522              		.loc 2 234 0
 523              		.cfi_startproc
 524              		@ args = 0, pretend = 0, frame = 8
 525              		@ frame_needed = 0, uses_anonymous_args = 0
 526 0000 00B5     		push	{lr}
 527              	.LCFI11:
 528              		.cfi_def_cfa_offset 4
 529 0002 83B0     		sub	sp, sp, #12
 530              	.LCFI12:
 531              		.cfi_def_cfa_offset 16
 532 0004 0190     		str	r0, [sp, #4]
 533              		.loc 2 236 0
 534              		.cfi_offset 14, -4
 535 0006 FFF7FEFF 		bl	chDbgCheckClassS
 536              		.loc 2 237 0
 537 000a 019B     		ldr	r3, [sp, #4]
 538 000c 002B     		cmp	r3, #0
 539 000e 02D1     		bne	.L27
ARM GAS  /tmp/ccwyjMLk.s 			page 11


 540              		.loc 2 237 0 is_stmt 0 discriminator 1
 541 0010 0D48     		ldr	r0, .L30
 542 0012 FFF7FEFF 		bl	chDbgPanic
 543              	.L27:
 544              		.loc 2 239 0 is_stmt 1
 545 0016 019B     		ldr	r3, [sp, #4]
 546 0018 9B68     		ldr	r3, [r3, #8]
 547 001a 002B     		cmp	r3, #0
 548 001c 02D0     		beq	.L28
 549              		.loc 2 240 0
 550 001e 4FF00003 		mov	r3, #0
 551 0022 0EE0     		b	.L29
 552              	.L28:
 553              		.loc 2 241 0
 554 0024 094B     		ldr	r3, .L30+4
 555 0026 DA69     		ldr	r2, [r3, #28]
 556 0028 019B     		ldr	r3, [sp, #4]
 557 002a 9A60     		str	r2, [r3, #8]
 558              		.loc 2 242 0
 559 002c 074B     		ldr	r3, .L30+4
 560 002e DB69     		ldr	r3, [r3, #28]
 561 0030 1A6C     		ldr	r2, [r3, #64]
 562 0032 019B     		ldr	r3, [sp, #4]
 563 0034 DA60     		str	r2, [r3, #12]
 564              		.loc 2 243 0
 565 0036 054B     		ldr	r3, .L30+4
 566 0038 DB69     		ldr	r3, [r3, #28]
 567 003a 019A     		ldr	r2, [sp, #4]
 568 003c 1A64     		str	r2, [r3, #64]
 569              		.loc 2 244 0
 570 003e 4FF00103 		mov	r3, #1
 571              	.L29:
 572              		.loc 2 245 0
 573 0042 1846     		mov	r0, r3
 574 0044 03B0     		add	sp, sp, #12
 575 0046 00BD     		pop	{pc}
 576              	.L31:
 577              		.align	2
 578              	.L30:
 579 0048 48000000 		.word	.LC4
 580 004c 00000000 		.word	rlist
 581              		.cfi_endproc
 582              	.LFE11:
 583              		.size	chMtxTryLockS, .-chMtxTryLockS
 584              		.section	.rodata
 585 005a 0000     		.align	2
 586              	.LC5:
 587 005c 63684D74 		.ascii	"chMtxUnlock(), #1\000"
 587      78556E6C 
 587      6F636B28 
 587      292C2023 
 587      3100
 588 006e 0000     		.align	2
 589              	.LC6:
 590 0070 63684D74 		.ascii	"chMtxUnlock(), #2\000"
 590      78556E6C 
 590      6F636B28 
ARM GAS  /tmp/ccwyjMLk.s 			page 12


 590      292C2023 
 590      3200
 591              		.section	.text.chMtxUnlock,"ax",%progbits
 592              		.align	2
 593              		.p2align 4,,15
 594              		.global	chMtxUnlock
 595              		.thumb
 596              		.thumb_func
 597              		.type	chMtxUnlock, %function
 598              	chMtxUnlock:
 599              	.LFB12:
 600              		.loc 2 257 0
 601              		.cfi_startproc
 602              		@ args = 0, pretend = 0, frame = 24
 603              		@ frame_needed = 0, uses_anonymous_args = 0
 604 0000 00B5     		push	{lr}
 605              	.LCFI13:
 606              		.cfi_def_cfa_offset 4
 607 0002 87B0     		sub	sp, sp, #28
 608              	.LCFI14:
 609              		.cfi_def_cfa_offset 32
 610              		.loc 2 258 0
 611 0004 334B     		ldr	r3, .L40
 612 0006 DB69     		ldr	r3, [r3, #28]
 613 0008 0393     		str	r3, [sp, #12]
 614              	.LBB7:
 615              		.loc 2 261 0
 616 000a 4FF02003 		mov	r3, #32
 617              	@ 261 "../chibios_2.4.x/os/kernel/src/chmtx.c" 1
 618 000e 83F31188 		msr     BASEPRI, r3
 619              	@ 0 "" 2
 620              		.thumb
 621              	.LBE7:
 622              		.cfi_offset 14, -4
 623 0012 FFF7FEFF 		bl	dbg_check_lock
 624              		.loc 2 262 0
 625 0016 039B     		ldr	r3, [sp, #12]
 626 0018 1B6C     		ldr	r3, [r3, #64]
 627 001a 002B     		cmp	r3, #0
 628 001c 02D1     		bne	.L33
 629              		.loc 2 262 0 is_stmt 0 discriminator 1
 630 001e 2E48     		ldr	r0, .L40+4
 631 0020 FFF7FEFF 		bl	chDbgPanic
 632              	.L33:
 633              		.loc 2 265 0 is_stmt 1
 634 0024 039B     		ldr	r3, [sp, #12]
 635 0026 1B6C     		ldr	r3, [r3, #64]
 636 0028 9A68     		ldr	r2, [r3, #8]
 637 002a 039B     		ldr	r3, [sp, #12]
 638 002c 9A42     		cmp	r2, r3
 639 002e 02D0     		beq	.L34
 640              		.loc 2 265 0 is_stmt 0 discriminator 1
 641 0030 2A48     		ldr	r0, .L40+8
 642 0032 FFF7FEFF 		bl	chDbgPanic
 643              	.L34:
 644              		.loc 2 270 0 is_stmt 1
 645 0036 039B     		ldr	r3, [sp, #12]
ARM GAS  /tmp/ccwyjMLk.s 			page 13


 646 0038 1B6C     		ldr	r3, [r3, #64]
 647 003a 0293     		str	r3, [sp, #8]
 648              		.loc 2 271 0
 649 003c 029B     		ldr	r3, [sp, #8]
 650 003e DA68     		ldr	r2, [r3, #12]
 651 0040 039B     		ldr	r3, [sp, #12]
 652 0042 1A64     		str	r2, [r3, #64]
 653              		.loc 2 273 0
 654 0044 029B     		ldr	r3, [sp, #8]
 655 0046 1A68     		ldr	r2, [r3, #0]
 656 0048 029B     		ldr	r3, [sp, #8]
 657 004a 9A42     		cmp	r2, r3
 658 004c 33D0     		beq	.L35
 659              	.LBB8:
 660              		.loc 2 278 0
 661 004e 039B     		ldr	r3, [sp, #12]
 662 0050 5B6C     		ldr	r3, [r3, #68]
 663 0052 0493     		str	r3, [sp, #16]
 664              		.loc 2 279 0
 665 0054 039B     		ldr	r3, [sp, #12]
 666 0056 1B6C     		ldr	r3, [r3, #64]
 667 0058 0593     		str	r3, [sp, #20]
 668              		.loc 2 280 0
 669 005a 11E0     		b	.L36
 670              	.L38:
 671              		.loc 2 284 0
 672 005c 059B     		ldr	r3, [sp, #20]
 673 005e 1A68     		ldr	r2, [r3, #0]
 674 0060 059B     		ldr	r3, [sp, #20]
 675 0062 9A42     		cmp	r2, r3
 676 0064 09D0     		beq	.L37
 677              		.loc 2 284 0 is_stmt 0 discriminator 1
 678 0066 059B     		ldr	r3, [sp, #20]
 679 0068 1B68     		ldr	r3, [r3, #0]
 680 006a 9A68     		ldr	r2, [r3, #8]
 681 006c 049B     		ldr	r3, [sp, #16]
 682 006e 9A42     		cmp	r2, r3
 683 0070 03D9     		bls	.L37
 684              		.loc 2 285 0 is_stmt 1
 685 0072 059B     		ldr	r3, [sp, #20]
 686 0074 1B68     		ldr	r3, [r3, #0]
 687 0076 9B68     		ldr	r3, [r3, #8]
 688 0078 0493     		str	r3, [sp, #16]
 689              	.L37:
 690              		.loc 2 286 0
 691 007a 059B     		ldr	r3, [sp, #20]
 692 007c DB68     		ldr	r3, [r3, #12]
 693 007e 0593     		str	r3, [sp, #20]
 694              	.L36:
 695              		.loc 2 280 0 discriminator 1
 696 0080 059B     		ldr	r3, [sp, #20]
 697 0082 002B     		cmp	r3, #0
 698 0084 EAD1     		bne	.L38
 699              		.loc 2 290 0
 700 0086 039B     		ldr	r3, [sp, #12]
 701 0088 049A     		ldr	r2, [sp, #16]
 702 008a 9A60     		str	r2, [r3, #8]
ARM GAS  /tmp/ccwyjMLk.s 			page 14


 703              		.loc 2 293 0
 704 008c 029B     		ldr	r3, [sp, #8]
 705 008e 1846     		mov	r0, r3
 706 0090 FFF7FEFF 		bl	fifo_remove
 707 0094 0190     		str	r0, [sp, #4]
 708              		.loc 2 294 0
 709 0096 029B     		ldr	r3, [sp, #8]
 710 0098 019A     		ldr	r2, [sp, #4]
 711 009a 9A60     		str	r2, [r3, #8]
 712              		.loc 2 295 0
 713 009c 019B     		ldr	r3, [sp, #4]
 714 009e 1A6C     		ldr	r2, [r3, #64]
 715 00a0 029B     		ldr	r3, [sp, #8]
 716 00a2 DA60     		str	r2, [r3, #12]
 717              		.loc 2 296 0
 718 00a4 019B     		ldr	r3, [sp, #4]
 719 00a6 029A     		ldr	r2, [sp, #8]
 720 00a8 1A64     		str	r2, [r3, #64]
 721              		.loc 2 297 0
 722 00aa 0198     		ldr	r0, [sp, #4]
 723 00ac 4FF00001 		mov	r1, #0
 724 00b0 FFF7FEFF 		bl	chSchWakeupS
 725 00b4 03E0     		b	.L39
 726              	.L35:
 727              	.LBE8:
 728              		.loc 2 300 0
 729 00b6 029B     		ldr	r3, [sp, #8]
 730 00b8 4FF00002 		mov	r2, #0
 731 00bc 9A60     		str	r2, [r3, #8]
 732              	.L39:
 733              		.loc 2 301 0
 734 00be FFF7FEFF 		bl	dbg_check_unlock
 735              	.LBB9:
 736 00c2 4FF00003 		mov	r3, #0
 737              	@ 301 "../chibios_2.4.x/os/kernel/src/chmtx.c" 1
 738 00c6 83F31188 		msr     BASEPRI, r3
 739              	@ 0 "" 2
 740              		.thumb
 741              	.LBE9:
 742              		.loc 2 302 0
 743 00ca 029B     		ldr	r3, [sp, #8]
 744              		.loc 2 303 0
 745 00cc 1846     		mov	r0, r3
 746 00ce 07B0     		add	sp, sp, #28
 747 00d0 00BD     		pop	{pc}
 748              	.L41:
 749 00d2 00BF     		.align	2
 750              	.L40:
 751 00d4 00000000 		.word	rlist
 752 00d8 5C000000 		.word	.LC5
 753 00dc 70000000 		.word	.LC6
 754              		.cfi_endproc
 755              	.LFE12:
 756              		.size	chMtxUnlock, .-chMtxUnlock
 757              		.section	.rodata
 758 0082 0000     		.align	2
 759              	.LC7:
ARM GAS  /tmp/ccwyjMLk.s 			page 15


 760 0084 63684D74 		.ascii	"chMtxUnlockS(), #1\000"
 760      78556E6C 
 760      6F636B53 
 760      28292C20 
 760      233100
 761 0097 00       		.align	2
 762              	.LC8:
 763 0098 63684D74 		.ascii	"chMtxUnlockS(), #2\000"
 763      78556E6C 
 763      6F636B53 
 763      28292C20 
 763      233200
 764 00ab 00       		.section	.text.chMtxUnlockS,"ax",%progbits
 765              		.align	2
 766              		.p2align 4,,15
 767              		.global	chMtxUnlockS
 768              		.thumb
 769              		.thumb_func
 770              		.type	chMtxUnlockS, %function
 771              	chMtxUnlockS:
 772              	.LFB13:
 773              		.loc 2 317 0
 774              		.cfi_startproc
 775              		@ args = 0, pretend = 0, frame = 24
 776              		@ frame_needed = 0, uses_anonymous_args = 0
 777 0000 00B5     		push	{lr}
 778              	.LCFI15:
 779              		.cfi_def_cfa_offset 4
 780 0002 87B0     		sub	sp, sp, #28
 781              	.LCFI16:
 782              		.cfi_def_cfa_offset 32
 783              		.loc 2 318 0
 784 0004 2D4B     		ldr	r3, .L50
 785 0006 DB69     		ldr	r3, [r3, #28]
 786 0008 0393     		str	r3, [sp, #12]
 787              		.loc 2 321 0
 788              		.cfi_offset 14, -4
 789 000a FFF7FEFF 		bl	chDbgCheckClassS
 790              		.loc 2 322 0
 791 000e 039B     		ldr	r3, [sp, #12]
 792 0010 1B6C     		ldr	r3, [r3, #64]
 793 0012 002B     		cmp	r3, #0
 794 0014 02D1     		bne	.L43
 795              		.loc 2 322 0 is_stmt 0 discriminator 1
 796 0016 2A48     		ldr	r0, .L50+4
 797 0018 FFF7FEFF 		bl	chDbgPanic
 798              	.L43:
 799              		.loc 2 325 0 is_stmt 1
 800 001c 039B     		ldr	r3, [sp, #12]
 801 001e 1B6C     		ldr	r3, [r3, #64]
 802 0020 9A68     		ldr	r2, [r3, #8]
 803 0022 039B     		ldr	r3, [sp, #12]
 804 0024 9A42     		cmp	r2, r3
 805 0026 02D0     		beq	.L44
 806              		.loc 2 325 0 is_stmt 0 discriminator 1
 807 0028 2648     		ldr	r0, .L50+8
 808 002a FFF7FEFF 		bl	chDbgPanic
ARM GAS  /tmp/ccwyjMLk.s 			page 16


 809              	.L44:
 810              		.loc 2 331 0 is_stmt 1
 811 002e 039B     		ldr	r3, [sp, #12]
 812 0030 1B6C     		ldr	r3, [r3, #64]
 813 0032 0293     		str	r3, [sp, #8]
 814              		.loc 2 332 0
 815 0034 029B     		ldr	r3, [sp, #8]
 816 0036 DA68     		ldr	r2, [r3, #12]
 817 0038 039B     		ldr	r3, [sp, #12]
 818 003a 1A64     		str	r2, [r3, #64]
 819              		.loc 2 334 0
 820 003c 029B     		ldr	r3, [sp, #8]
 821 003e 1A68     		ldr	r2, [r3, #0]
 822 0040 029B     		ldr	r3, [sp, #8]
 823 0042 9A42     		cmp	r2, r3
 824 0044 31D0     		beq	.L45
 825              	.LBB10:
 826              		.loc 2 339 0
 827 0046 039B     		ldr	r3, [sp, #12]
 828 0048 5B6C     		ldr	r3, [r3, #68]
 829 004a 0493     		str	r3, [sp, #16]
 830              		.loc 2 340 0
 831 004c 039B     		ldr	r3, [sp, #12]
 832 004e 1B6C     		ldr	r3, [r3, #64]
 833 0050 0593     		str	r3, [sp, #20]
 834              		.loc 2 341 0
 835 0052 11E0     		b	.L46
 836              	.L48:
 837              		.loc 2 345 0
 838 0054 059B     		ldr	r3, [sp, #20]
 839 0056 1A68     		ldr	r2, [r3, #0]
 840 0058 059B     		ldr	r3, [sp, #20]
 841 005a 9A42     		cmp	r2, r3
 842 005c 09D0     		beq	.L47
 843              		.loc 2 345 0 is_stmt 0 discriminator 1
 844 005e 059B     		ldr	r3, [sp, #20]
 845 0060 1B68     		ldr	r3, [r3, #0]
 846 0062 9A68     		ldr	r2, [r3, #8]
 847 0064 049B     		ldr	r3, [sp, #16]
 848 0066 9A42     		cmp	r2, r3
 849 0068 03D9     		bls	.L47
 850              		.loc 2 346 0 is_stmt 1
 851 006a 059B     		ldr	r3, [sp, #20]
 852 006c 1B68     		ldr	r3, [r3, #0]
 853 006e 9B68     		ldr	r3, [r3, #8]
 854 0070 0493     		str	r3, [sp, #16]
 855              	.L47:
 856              		.loc 2 347 0
 857 0072 059B     		ldr	r3, [sp, #20]
 858 0074 DB68     		ldr	r3, [r3, #12]
 859 0076 0593     		str	r3, [sp, #20]
 860              	.L46:
 861              		.loc 2 341 0 discriminator 1
 862 0078 059B     		ldr	r3, [sp, #20]
 863 007a 002B     		cmp	r3, #0
 864 007c EAD1     		bne	.L48
 865              		.loc 2 349 0
ARM GAS  /tmp/ccwyjMLk.s 			page 17


 866 007e 039B     		ldr	r3, [sp, #12]
 867 0080 049A     		ldr	r2, [sp, #16]
 868 0082 9A60     		str	r2, [r3, #8]
 869              		.loc 2 352 0
 870 0084 029B     		ldr	r3, [sp, #8]
 871 0086 1846     		mov	r0, r3
 872 0088 FFF7FEFF 		bl	fifo_remove
 873 008c 0190     		str	r0, [sp, #4]
 874              		.loc 2 353 0
 875 008e 029B     		ldr	r3, [sp, #8]
 876 0090 019A     		ldr	r2, [sp, #4]
 877 0092 9A60     		str	r2, [r3, #8]
 878              		.loc 2 354 0
 879 0094 019B     		ldr	r3, [sp, #4]
 880 0096 1A6C     		ldr	r2, [r3, #64]
 881 0098 029B     		ldr	r3, [sp, #8]
 882 009a DA60     		str	r2, [r3, #12]
 883              		.loc 2 355 0
 884 009c 019B     		ldr	r3, [sp, #4]
 885 009e 029A     		ldr	r2, [sp, #8]
 886 00a0 1A64     		str	r2, [r3, #64]
 887              		.loc 2 356 0
 888 00a2 0198     		ldr	r0, [sp, #4]
 889 00a4 FFF7FEFF 		bl	chSchReadyI
 890 00a8 03E0     		b	.L49
 891              	.L45:
 892              	.LBE10:
 893              		.loc 2 359 0
 894 00aa 029B     		ldr	r3, [sp, #8]
 895 00ac 4FF00002 		mov	r2, #0
 896 00b0 9A60     		str	r2, [r3, #8]
 897              	.L49:
 898              		.loc 2 360 0
 899 00b2 029B     		ldr	r3, [sp, #8]
 900              		.loc 2 361 0
 901 00b4 1846     		mov	r0, r3
 902 00b6 07B0     		add	sp, sp, #28
 903 00b8 00BD     		pop	{pc}
 904              	.L51:
 905 00ba 00BF     		.align	2
 906              	.L50:
 907 00bc 00000000 		.word	rlist
 908 00c0 84000000 		.word	.LC7
 909 00c4 98000000 		.word	.LC8
 910              		.cfi_endproc
 911              	.LFE13:
 912              		.size	chMtxUnlockS, .-chMtxUnlockS
 913 00c8 AFF30080 		.section	.text.chMtxUnlockAll,"ax",%progbits
 913      AFF30080 
 914              		.align	2
 915              		.p2align 4,,15
 916              		.global	chMtxUnlockAll
 917              		.thumb
 918              		.thumb_func
 919              		.type	chMtxUnlockAll, %function
 920              	chMtxUnlockAll:
 921              	.LFB14:
ARM GAS  /tmp/ccwyjMLk.s 			page 18


 922              		.loc 2 374 0
 923              		.cfi_startproc
 924              		@ args = 0, pretend = 0, frame = 16
 925              		@ frame_needed = 0, uses_anonymous_args = 0
 926 0000 00B5     		push	{lr}
 927              	.LCFI17:
 928              		.cfi_def_cfa_offset 4
 929 0002 85B0     		sub	sp, sp, #20
 930              	.LCFI18:
 931              		.cfi_def_cfa_offset 24
 932              		.loc 2 375 0
 933 0004 204B     		ldr	r3, .L57
 934 0006 DB69     		ldr	r3, [r3, #28]
 935 0008 0393     		str	r3, [sp, #12]
 936              	.LBB11:
 937              		.loc 2 377 0
 938 000a 4FF02003 		mov	r3, #32
 939              	@ 377 "../chibios_2.4.x/os/kernel/src/chmtx.c" 1
 940 000e 83F31188 		msr     BASEPRI, r3
 941              	@ 0 "" 2
 942              		.thumb
 943              	.LBE11:
 944              		.cfi_offset 14, -4
 945 0012 FFF7FEFF 		bl	dbg_check_lock
 946              		.loc 2 378 0
 947 0016 039B     		ldr	r3, [sp, #12]
 948 0018 1B6C     		ldr	r3, [r3, #64]
 949 001a 002B     		cmp	r3, #0
 950 001c 2CD0     		beq	.L53
 951              	.L56:
 952              	.LBB12:
 953              		.loc 2 380 0
 954 001e 039B     		ldr	r3, [sp, #12]
 955 0020 1B6C     		ldr	r3, [r3, #64]
 956 0022 0293     		str	r3, [sp, #8]
 957              		.loc 2 381 0
 958 0024 029B     		ldr	r3, [sp, #8]
 959 0026 DA68     		ldr	r2, [r3, #12]
 960 0028 039B     		ldr	r3, [sp, #12]
 961 002a 1A64     		str	r2, [r3, #64]
 962              		.loc 2 382 0
 963 002c 029B     		ldr	r3, [sp, #8]
 964 002e 1A68     		ldr	r2, [r3, #0]
 965 0030 029B     		ldr	r3, [sp, #8]
 966 0032 9A42     		cmp	r2, r3
 967 0034 12D0     		beq	.L54
 968              	.LBB13:
 969              		.loc 2 383 0
 970 0036 029B     		ldr	r3, [sp, #8]
 971 0038 1846     		mov	r0, r3
 972 003a FFF7FEFF 		bl	fifo_remove
 973 003e 0190     		str	r0, [sp, #4]
 974              		.loc 2 384 0
 975 0040 029B     		ldr	r3, [sp, #8]
 976 0042 019A     		ldr	r2, [sp, #4]
 977 0044 9A60     		str	r2, [r3, #8]
 978              		.loc 2 385 0
ARM GAS  /tmp/ccwyjMLk.s 			page 19


 979 0046 019B     		ldr	r3, [sp, #4]
 980 0048 1A6C     		ldr	r2, [r3, #64]
 981 004a 029B     		ldr	r3, [sp, #8]
 982 004c DA60     		str	r2, [r3, #12]
 983              		.loc 2 386 0
 984 004e 019B     		ldr	r3, [sp, #4]
 985 0050 029A     		ldr	r2, [sp, #8]
 986 0052 1A64     		str	r2, [r3, #64]
 987              		.loc 2 387 0
 988 0054 0198     		ldr	r0, [sp, #4]
 989 0056 FFF7FEFF 		bl	chSchReadyI
 990 005a 03E0     		b	.L55
 991              	.L54:
 992              	.LBE13:
 993              		.loc 2 390 0
 994 005c 029B     		ldr	r3, [sp, #8]
 995 005e 4FF00002 		mov	r2, #0
 996 0062 9A60     		str	r2, [r3, #8]
 997              	.L55:
 998              	.LBE12:
 999              		.loc 2 391 0
 1000 0064 039B     		ldr	r3, [sp, #12]
 1001 0066 1B6C     		ldr	r3, [r3, #64]
 1002 0068 002B     		cmp	r3, #0
 1003 006a D8D1     		bne	.L56
 1004              		.loc 2 392 0
 1005 006c 039B     		ldr	r3, [sp, #12]
 1006 006e 5A6C     		ldr	r2, [r3, #68]
 1007 0070 039B     		ldr	r3, [sp, #12]
 1008 0072 9A60     		str	r2, [r3, #8]
 1009              		.loc 2 393 0
 1010 0074 FFF7FEFF 		bl	chSchRescheduleS
 1011              	.L53:
 1012              		.loc 2 395 0
 1013 0078 FFF7FEFF 		bl	dbg_check_unlock
 1014              	.LBB14:
 1015 007c 4FF00003 		mov	r3, #0
 1016              	@ 395 "../chibios_2.4.x/os/kernel/src/chmtx.c" 1
 1017 0080 83F31188 		msr     BASEPRI, r3
 1018              	@ 0 "" 2
 1019              		.thumb
 1020              	.LBE14:
 1021              		.loc 2 396 0
 1022 0084 05B0     		add	sp, sp, #20
 1023 0086 00BD     		pop	{pc}
 1024              	.L58:
 1025              		.align	2
 1026              	.L57:
 1027 0088 00000000 		.word	rlist
 1028              		.cfi_endproc
 1029              	.LFE14:
 1030              		.size	chMtxUnlockAll, .-chMtxUnlockAll
 1031 008c AFF30080 		.text
 1032              	.Letext0: