ARM GAS  /tmp/ccwyjMLk.s 			page 1


   1              		.syntax unified
   2              		.cpu cortex-m3
   3              		.fpu softvfp
   4              		.eabi_attribute 20, 1
   5              		.eabi_attribute 21, 1
   6              		.eabi_attribute 23, 3
   7              		.eabi_attribute 24, 1
   8              		.eabi_attribute 25, 1
   9              		.eabi_attribute 26, 1
  10              		.eabi_attribute 30, 6
  11              		.eabi_attribute 18, 4
  12              		.thumb
  13              		.file	"chmtx.c"
  14              		.section	.debug_abbrev,"",%progbits
  15              	.Ldebug_abbrev0:
  16              		.section	.debug_info,"",%progbits
  17              	.Ldebug_info0:
  18              		.section	.debug_line,"",%progbits
  19              	.Ldebug_line0:
  20 0000 16030000 		.text
  20      02006001 
  20      00000201 
  20      FB0E0D00 
  20      01010101 
  21              	.Ltext0:
  22              		.cfi_sections	.debug_frame
  23              		.section	.text.prio_insert,"ax",%progbits
  24              		.align	2
  25              		.p2align 4,,15
  26              		.thumb
  27              		.thumb_func
  28              		.type	prio_insert, %function
  29              	prio_insert:
  30              	.LFB0:
  31              		.file 1 "../chibios_2.4.x/os/kernel/include/chinline.h"
  32              		.loc 1 41 0
  33              		.cfi_startproc
  34              		@ args = 0, pretend = 0, frame = 16
  35              		@ frame_needed = 0, uses_anonymous_args = 0
  36              		@ link register save eliminated.
  37 0000 84B0     		sub	sp, sp, #16
  38              	.LCFI0:
  39              		.cfi_def_cfa_offset 16
  40 0002 0190     		str	r0, [sp, #4]
  41 0004 0091     		str	r1, [sp, #0]
  42              		.loc 1 43 0
  43 0006 009B     		ldr	r3, [sp, #0]
  44 0008 0393     		str	r3, [sp, #12]
  45              	.L3:
  46              		.loc 1 45 0 discriminator 1
  47 000a 039B     		ldr	r3, [sp, #12]
  48 000c 1B68     		ldr	r3, [r3, #0]
  49 000e 0393     		str	r3, [sp, #12]
  50              		.loc 1 46 0 discriminator 1
  51 0010 009B     		ldr	r3, [sp, #0]
  52 0012 039A     		ldr	r2, [sp, #12]
  53 0014 9A42     		cmp	r2, r3
ARM GAS  /tmp/ccwyjMLk.s 			page 2


  54 0016 05D0     		beq	.L2
  55 0018 039B     		ldr	r3, [sp, #12]
  56 001a 9A68     		ldr	r2, [r3, #8]
  57 001c 019B     		ldr	r3, [sp, #4]
  58 001e 9B68     		ldr	r3, [r3, #8]
  59 0020 9A42     		cmp	r2, r3
  60 0022 F2D2     		bcs	.L3
  61              	.L2:
  62              		.loc 1 47 0
  63 0024 019B     		ldr	r3, [sp, #4]
  64 0026 039A     		ldr	r2, [sp, #12]
  65 0028 1A60     		str	r2, [r3, #0]
  66              		.loc 1 48 0
  67 002a 039B     		ldr	r3, [sp, #12]
  68 002c 5A68     		ldr	r2, [r3, #4]
  69 002e 019B     		ldr	r3, [sp, #4]
  70 0030 5A60     		str	r2, [r3, #4]
  71              		.loc 1 49 0
  72 0032 019B     		ldr	r3, [sp, #4]
  73 0034 5B68     		ldr	r3, [r3, #4]
  74 0036 039A     		ldr	r2, [sp, #12]
  75 0038 0199     		ldr	r1, [sp, #4]
  76 003a 5160     		str	r1, [r2, #4]
  77 003c 039A     		ldr	r2, [sp, #12]
  78 003e 5268     		ldr	r2, [r2, #4]
  79 0040 1A60     		str	r2, [r3, #0]
  80              		.loc 1 50 0
  81 0042 04B0     		add	sp, sp, #16
  82 0044 7047     		bx	lr
  83              		.cfi_endproc
  84              	.LFE0:
  85              		.size	prio_insert, .-prio_insert
  86 0046 00BFAFF3 		.section	.text.fifo_remove,"ax",%progbits
  86      0080AFF3 
  86      0080
  87              		.align	2
  88              		.p2align 4,,15
  89              		.thumb
  90              		.thumb_func
  91              		.type	fifo_remove, %function
  92              	fifo_remove:
  93              	.LFB2:
  94              		.loc 1 59 0
  95              		.cfi_startproc
  96              		@ args = 0, pretend = 0, frame = 16
  97              		@ frame_needed = 0, uses_anonymous_args = 0
  98              		@ link register save eliminated.
  99 0000 84B0     		sub	sp, sp, #16
 100              	.LCFI1:
 101              		.cfi_def_cfa_offset 16
 102 0002 0190     		str	r0, [sp, #4]
 103              		.loc 1 60 0
 104 0004 019B     		ldr	r3, [sp, #4]
 105 0006 1B68     		ldr	r3, [r3, #0]
 106 0008 0393     		str	r3, [sp, #12]
 107              		.loc 1 62 0
 108 000a 039B     		ldr	r3, [sp, #12]
ARM GAS  /tmp/ccwyjMLk.s 			page 3


 109 000c 1A68     		ldr	r2, [r3, #0]
 110 000e 019B     		ldr	r3, [sp, #4]
 111 0010 1A60     		str	r2, [r3, #0]
 112 0012 019B     		ldr	r3, [sp, #4]
 113 0014 1B68     		ldr	r3, [r3, #0]
 114 0016 019A     		ldr	r2, [sp, #4]
 115 0018 5A60     		str	r2, [r3, #4]
 116              		.loc 1 63 0
 117 001a 039B     		ldr	r3, [sp, #12]
 118              		.loc 1 64 0
 119 001c 1846     		mov	r0, r3
 120 001e 04B0     		add	sp, sp, #16
 121 0020 7047     		bx	lr
 122              		.cfi_endproc
 123              	.LFE2:
 124              		.size	fifo_remove, .-fifo_remove
 125 0022 00BFAFF3 		.section	.text.dequeue,"ax",%progbits
 125      0080AFF3 
 125      0080AFF3 
 125      0080
 126              		.align	2
 127              		.p2align 4,,15
 128              		.thumb
 129              		.thumb_func
 130              		.type	dequeue, %function
 131              	dequeue:
 132              	.LFB4:
 133              		.loc 1 73 0
 134              		.cfi_startproc
 135              		@ args = 0, pretend = 0, frame = 8
 136              		@ frame_needed = 0, uses_anonymous_args = 0
 137              		@ link register save eliminated.
 138 0000 82B0     		sub	sp, sp, #8
 139              	.LCFI2:
 140              		.cfi_def_cfa_offset 8
 141 0002 0190     		str	r0, [sp, #4]
 142              		.loc 1 75 0
 143 0004 019B     		ldr	r3, [sp, #4]
 144 0006 5B68     		ldr	r3, [r3, #4]
 145 0008 019A     		ldr	r2, [sp, #4]
 146 000a 1268     		ldr	r2, [r2, #0]
 147 000c 1A60     		str	r2, [r3, #0]
 148              		.loc 1 76 0
 149 000e 019B     		ldr	r3, [sp, #4]
 150 0010 1B68     		ldr	r3, [r3, #0]
 151 0012 019A     		ldr	r2, [sp, #4]
 152 0014 5268     		ldr	r2, [r2, #4]
 153 0016 5A60     		str	r2, [r3, #4]
 154              		.loc 1 77 0
 155 0018 019B     		ldr	r3, [sp, #4]
 156              		.loc 1 78 0
 157 001a 1846     		mov	r0, r3
 158 001c 02B0     		add	sp, sp, #8
 159 001e 7047     		bx	lr
 160              		.cfi_endproc
 161              	.LFE4:
 162              		.size	dequeue, .-dequeue
ARM GAS  /tmp/ccwyjMLk.s 			page 4


 163              		.section	.rodata
 164              		.align	2
 165              	.LC0:
 166 0000 2263684D 		.ascii	"\"chMtxInit\"()\000"
 166      7478496E 
 166      69742228 
 166      2900
 167              		.section	.text.chMtxInit,"ax",%progbits
 168              		.align	2
 169              		.p2align 4,,15
 170              		.global	chMtxInit
 171              		.thumb
 172              		.thumb_func
 173              		.type	chMtxInit, %function
 174              	chMtxInit:
 175              	.LFB7:
 176              		.file 2 "../chibios_2.4.x/os/kernel/src/chmtx.c"
 177              		.loc 2 86 0
 178              		.cfi_startproc
 179              		@ args = 0, pretend = 0, frame = 8
 180              		@ frame_needed = 0, uses_anonymous_args = 0
 181 0000 00B5     		push	{lr}
 182              	.LCFI3:
 183              		.cfi_def_cfa_offset 4
 184 0002 83B0     		sub	sp, sp, #12
 185              	.LCFI4:
 186              		.cfi_def_cfa_offset 16
 187 0004 0190     		str	r0, [sp, #4]
 188              		.loc 2 88 0
 189 0006 019B     		ldr	r3, [sp, #4]
 190 0008 002B     		cmp	r3, #0
 191 000a 02D1     		bne	.L7
 192              		.cfi_offset 14, -4
 193              		.loc 2 88 0 is_stmt 0 discriminator 1
 194 000c 0848     		ldr	r0, .L8
 195 000e FFF7FEFF 		bl	chDbgPanic
 196              	.L7:
 197              		.loc 2 90 0 is_stmt 1
 198 0012 019B     		ldr	r3, [sp, #4]
 199 0014 1A46     		mov	r2, r3
 200 0016 019B     		ldr	r3, [sp, #4]
 201 0018 5A60     		str	r2, [r3, #4]
 202 001a 019B     		ldr	r3, [sp, #4]
 203 001c 5A68     		ldr	r2, [r3, #4]
 204 001e 019B     		ldr	r3, [sp, #4]
 205 0020 1A60     		str	r2, [r3, #0]
 206              		.loc 2 91 0
 207 0022 019B     		ldr	r3, [sp, #4]
 208 0024 4FF00002 		mov	r2, #0
 209 0028 9A60     		str	r2, [r3, #8]
 210              		.loc 2 92 0
 211 002a 03B0     		add	sp, sp, #12
 212 002c 00BD     		pop	{pc}
 213              	.L9:
 214 002e 00BF     		.align	2
 215              	.L8:
 216 0030 00000000 		.word	.LC0
ARM GAS  /tmp/ccwyjMLk.s 			page 5


 217              		.cfi_endproc
 218              	.LFE7:
 219              		.size	chMtxInit, .-chMtxInit
 220 0034 AFF30080 		.section	.text.chMtxLock,"ax",%progbits
 220      AFF30080 
 220      AFF30080 
 221              		.align	2
 222              		.p2align 4,,15
 223              		.global	chMtxLock
 224              		.thumb
 225              		.thumb_func
 226              		.type	chMtxLock, %function
 227              	chMtxLock:
 228              	.LFB8:
 229              		.loc 2 103 0
 230              		.cfi_startproc
 231              		@ args = 0, pretend = 0, frame = 8
 232              		@ frame_needed = 0, uses_anonymous_args = 0
 233 0000 00B5     		push	{lr}
 234              	.LCFI5:
 235              		.cfi_def_cfa_offset 4
 236 0002 83B0     		sub	sp, sp, #12
 237              	.LCFI6:
 238              		.cfi_def_cfa_offset 16
 239 0004 0190     		str	r0, [sp, #4]
 240              	.LBB2:
 241              		.loc 2 105 0
 242 0006 4FF02003 		mov	r3, #32
 243              	@ 105 "../chibios_2.4.x/os/kernel/src/chmtx.c" 1
 244 000a 83F31188 		msr     BASEPRI, r3
 245              	@ 0 "" 2
 246              		.thumb
 247              	.LBE2:
 248              		.cfi_offset 14, -4
 249 000e FFF7FEFF 		bl	dbg_check_lock
 250              		.loc 2 107 0
 251 0012 0198     		ldr	r0, [sp, #4]
 252 0014 FFF7FEFF 		bl	chMtxLockS
 253              		.loc 2 109 0
 254 0018 FFF7FEFF 		bl	dbg_check_unlock
 255              	.LBB3:
 256 001c 4FF00003 		mov	r3, #0
 257              	@ 109 "../chibios_2.4.x/os/kernel/src/chmtx.c" 1
 258 0020 83F31188 		msr     BASEPRI, r3
 259              	@ 0 "" 2
 260              		.thumb
 261              	.LBE3:
 262              		.loc 2 110 0
 263 0024 03B0     		add	sp, sp, #12
 264 0026 00BD     		pop	{pc}
 265              		.cfi_endproc
 266              	.LFE8:
 267              		.size	chMtxLock, .-chMtxLock
 268 0028 AFF30080 		.section	.rodata
 268      AFF30080 
 269 000e 0000     		.align	2
 270              	.LC1:
ARM GAS  /tmp/ccwyjMLk.s 			page 6


 271 0010 2263684D 		.ascii	"\"chMtxLockS\"()\000"
 271      74784C6F 
 271      636B5322 
 271      282900
 272 001f 00       		.align	2
 273              	.LC2:
 274 0020 63684D74 		.ascii	"chMtxLockS(), #1\000"
 274      784C6F63 
 274      6B532829 
 274      2C202331 
 274      00
 275 0031 000000   		.align	2
 276              	.LC3:
 277 0034 63684D74 		.ascii	"chMtxLockS(), #2\000"
 277      784C6F63 
 277      6B532829 
 277      2C202332 
 277      00
 278              		.section	.text.chMtxLockS,"ax",%progbits
 279              		.align	2
 280              		.p2align 4,,15
 281              		.global	chMtxLockS
 282              		.thumb
 283              		.thumb_func
 284              		.type	chMtxLockS, %function
 285              	chMtxLockS:
 286              	.LFB9:
 287              		.loc 2 121 0
 288              		.cfi_startproc
 289              		@ args = 0, pretend = 0, frame = 16
 290              		@ frame_needed = 0, uses_anonymous_args = 0
 291 0000 00B5     		push	{lr}
 292              	.LCFI7:
 293              		.cfi_def_cfa_offset 4
 294 0002 85B0     		sub	sp, sp, #20
 295              	.LCFI8:
 296              		.cfi_def_cfa_offset 24
 297 0004 0190     		str	r0, [sp, #4]
 298              		.loc 2 122 0
 299 0006 3C4B     		ldr	r3, .L23
 300 0008 DB69     		ldr	r3, [r3, #28]
 301 000a 0293     		str	r3, [sp, #8]
 302              		.loc 2 124 0
 303              		.cfi_offset 14, -4
 304 000c FFF7FEFF 		bl	chDbgCheckClassS
 305              		.loc 2 125 0
 306 0010 019B     		ldr	r3, [sp, #4]
 307 0012 002B     		cmp	r3, #0
 308 0014 02D1     		bne	.L12
 309              		.loc 2 125 0 is_stmt 0 discriminator 1
 310 0016 3948     		ldr	r0, .L23+4
 311 0018 FFF7FEFF 		bl	chDbgPanic
 312              	.L12:
 313              		.loc 2 128 0 is_stmt 1
 314 001c 019B     		ldr	r3, [sp, #4]
 315 001e 9B68     		ldr	r3, [r3, #8]
 316 0020 002B     		cmp	r3, #0
ARM GAS  /tmp/ccwyjMLk.s 			page 7


 317 0022 5CD0     		beq	.L13
 318              	.LBB4:
 319              		.loc 2 132 0
 320 0024 019B     		ldr	r3, [sp, #4]
 321 0026 9B68     		ldr	r3, [r3, #8]
 322 0028 0393     		str	r3, [sp, #12]
 323              		.loc 2 135 0
 324 002a 35E0     		b	.L14
 325              	.L20:
 326              		.loc 2 137 0
 327 002c 029B     		ldr	r3, [sp, #8]
 328 002e 9A68     		ldr	r2, [r3, #8]
 329 0030 039B     		ldr	r3, [sp, #12]
 330 0032 9A60     		str	r2, [r3, #8]
 331              		.loc 2 139 0
 332 0034 039B     		ldr	r3, [sp, #12]
 333 0036 93F82030 		ldrb	r3, [r3, #32]	@ zero_extendqisi2
 334 003a 042B     		cmp	r3, #4
 335 003c 04D0     		beq	.L17
 336 003e 052B     		cmp	r3, #5
 337 0040 11D0     		beq	.L18
 338 0042 002B     		cmp	r3, #0
 339 0044 1AD0     		beq	.L16
 340              		.loc 2 170 0
 341 0046 2DE0     		b	.L19
 342              	.L17:
 343              		.loc 2 142 0
 344 0048 0398     		ldr	r0, [sp, #12]
 345 004a FFF7FEFF 		bl	dequeue
 346 004e 0246     		mov	r2, r0
 347 0050 039B     		ldr	r3, [sp, #12]
 348 0052 9B6A     		ldr	r3, [r3, #40]
 349 0054 1046     		mov	r0, r2
 350 0056 1946     		mov	r1, r3
 351 0058 FFF7FEFF 		bl	prio_insert
 352              		.loc 2 143 0
 353 005c 039B     		ldr	r3, [sp, #12]
 354 005e 9B6A     		ldr	r3, [r3, #40]
 355 0060 9B68     		ldr	r3, [r3, #8]
 356 0062 0393     		str	r3, [sp, #12]
 357              		.loc 2 144 0
 358 0064 18E0     		b	.L14
 359              	.L18:
 360              		.loc 2 158 0
 361 0066 0398     		ldr	r0, [sp, #12]
 362 0068 FFF7FEFF 		bl	dequeue
 363 006c 0246     		mov	r2, r0
 364 006e 039B     		ldr	r3, [sp, #12]
 365 0070 9B6A     		ldr	r3, [r3, #40]
 366 0072 1046     		mov	r0, r2
 367 0074 1946     		mov	r1, r3
 368 0076 FFF7FEFF 		bl	prio_insert
 369              		.loc 2 159 0
 370 007a 0CE0     		b	.L15
 371              	.L16:
 372              		.loc 2 164 0
 373 007c 039B     		ldr	r3, [sp, #12]
ARM GAS  /tmp/ccwyjMLk.s 			page 8


 374 007e 4FF00102 		mov	r2, #1
 375 0082 83F82020 		strb	r2, [r3, #32]
 376              		.loc 2 167 0
 377 0086 0398     		ldr	r0, [sp, #12]
 378 0088 FFF7FEFF 		bl	dequeue
 379 008c 0346     		mov	r3, r0
 380 008e 1846     		mov	r0, r3
 381 0090 FFF7FEFF 		bl	chSchReadyI
 382              		.loc 2 168 0
 383 0094 00BF     		nop
 384              	.L15:
 385              		.loc 2 170 0
 386 0096 05E0     		b	.L19
 387              	.L14:
 388              		.loc 2 135 0 discriminator 1
 389 0098 039B     		ldr	r3, [sp, #12]
 390 009a 9A68     		ldr	r2, [r3, #8]
 391 009c 029B     		ldr	r3, [sp, #8]
 392 009e 9B68     		ldr	r3, [r3, #8]
 393 00a0 9A42     		cmp	r2, r3
 394 00a2 C3D3     		bcc	.L20
 395              	.L19:
 396              		.loc 2 173 0
 397 00a4 019B     		ldr	r3, [sp, #4]
 398 00a6 0298     		ldr	r0, [sp, #8]
 399 00a8 1946     		mov	r1, r3
 400 00aa FFF7FEFF 		bl	prio_insert
 401              		.loc 2 174 0
 402 00ae 029B     		ldr	r3, [sp, #8]
 403 00b0 019A     		ldr	r2, [sp, #4]
 404 00b2 9A62     		str	r2, [r3, #40]
 405              		.loc 2 175 0
 406 00b4 4FF00400 		mov	r0, #4
 407 00b8 FFF7FEFF 		bl	chSchGoSleepS
 408              		.loc 2 178 0
 409 00bc 019B     		ldr	r3, [sp, #4]
 410 00be 9A68     		ldr	r2, [r3, #8]
 411 00c0 029B     		ldr	r3, [sp, #8]
 412 00c2 9A42     		cmp	r2, r3
 413 00c4 02D0     		beq	.L21
 414              		.loc 2 178 0 is_stmt 0 discriminator 1
 415 00c6 0E48     		ldr	r0, .L23+8
 416 00c8 FFF7FEFF 		bl	chDbgPanic
 417              	.L21:
 418              		.loc 2 179 0 is_stmt 1
 419 00cc 029B     		ldr	r3, [sp, #8]
 420 00ce 1A6C     		ldr	r2, [r3, #64]
 421 00d0 019B     		ldr	r3, [sp, #4]
 422 00d2 9A42     		cmp	r2, r3
 423 00d4 0DD0     		beq	.L11
 424              		.loc 2 179 0 is_stmt 0 discriminator 1
 425 00d6 0B48     		ldr	r0, .L23+12
 426 00d8 FFF7FEFF 		bl	chDbgPanic
 427 00dc 09E0     		b	.L11
 428              	.L13:
 429              	.LBE4:
 430              		.loc 2 183 0 is_stmt 1
ARM GAS  /tmp/ccwyjMLk.s 			page 9


 431 00de 019B     		ldr	r3, [sp, #4]
 432 00e0 029A     		ldr	r2, [sp, #8]
 433 00e2 9A60     		str	r2, [r3, #8]
 434              		.loc 2 184 0
 435 00e4 029B     		ldr	r3, [sp, #8]
 436 00e6 1A6C     		ldr	r2, [r3, #64]
 437 00e8 019B     		ldr	r3, [sp, #4]
 438 00ea DA60     		str	r2, [r3, #12]
 439              		.loc 2 185 0
 440 00ec 029B     		ldr	r3, [sp, #8]
 441 00ee 019A     		ldr	r2, [sp, #4]
 442 00f0 1A64     		str	r2, [r3, #64]
 443              	.L11:
 444              		.loc 2 187 0
 445 00f2 05B0     		add	sp, sp, #20
 446 00f4 00BD     		pop	{pc}
 447              	.L24:
 448 00f6 00BF     		.align	2
 449              	.L23:
 450 00f8 00000000 		.word	rlist
 451 00fc 10000000 		.word	.LC1
 452 0100 20000000 		.word	.LC2
 453 0104 34000000 		.word	.LC3
 454              		.cfi_endproc
 455              	.LFE9:
 456              		.size	chMtxLockS, .-chMtxLockS
 457 0108 AFF30080 		.section	.text.chMtxTryLock,"ax",%progbits
 457      AFF30080 
 458              		.align	2
 459              		.p2align 4,,15
 460              		.global	chMtxTryLock
 461              		.thumb
 462              		.thumb_func
 463              		.type	chMtxTryLock, %function
 464              	chMtxTryLock:
 465              	.LFB10:
 466              		.loc 2 206 0
 467              		.cfi_startproc
 468              		@ args = 0, pretend = 0, frame = 16
 469              		@ frame_needed = 0, uses_anonymous_args = 0
 470 0000 00B5     		push	{lr}
 471              	.LCFI9:
 472              		.cfi_def_cfa_offset 4
 473 0002 85B0     		sub	sp, sp, #20
 474              	.LCFI10:
 475              		.cfi_def_cfa_offset 24
 476 0004 0190     		str	r0, [sp, #4]
 477              	.LBB5:
 478              		.loc 2 209 0
 479 0006 4FF02003 		mov	r3, #32
 480              	@ 209 "../chibios_2.4.x/os/kernel/src/chmtx.c" 1
 481 000a 83F31188 		msr     BASEPRI, r3
 482              	@ 0 "" 2
 483              		.thumb
 484              	.LBE5:
 485              		.cfi_offset 14, -4
 486 000e FFF7FEFF 		bl	dbg_check_lock
ARM GAS  /tmp/ccwyjMLk.s 			page 10


 487              		.loc 2 211 0
 488 0012 0198     		ldr	r0, [sp, #4]
 489 0014 FFF7FEFF 		bl	chMtxTryLockS
 490 0018 0390     		str	r0, [sp, #12]
 491              		.loc 2 213 0
 492 001a FFF7FEFF 		bl	dbg_check_unlock
 493              	.LBB6:
 494 001e 4FF00003 		mov	r3, #0
 495              	@ 213 "../chibios_2.4.x/os/kernel/src/chmtx.c" 1
 496 0022 83F31188 		msr     BASEPRI, r3
 497              	@ 0 "" 2
 498              		.thumb
 499              	.LBE6:
 500              		.loc 2 214 0
 501 0026 039B     		ldr	r3, [sp, #12]
 502              		.loc 2 215 0
 503 0028 1846     		mov	r0, r3
 504 002a 05B0     		add	sp, sp, #20
 505 002c 00BD     		pop	{pc}
 506              		.cfi_endproc
 507              	.LFE10:
 508              		.size	chMtxTryLock, .-chMtxTryLock
 509 002e 00BF     		.section	.rodata
 510 0045 000000   		.align	2
 511              	.LC4:
 512 0048 2263684D 		.ascii	"\"chMtxTryLockS\"()\000"
 512      74785472 
 512      794C6F63 
 512      6B532228 
 512      2900
 513              		.section	.text.chMtxTryLockS,"ax",%progbits
 514              		.align	2
 515              		.p2align 4,,15
 516              		.global	chMtxTryLockS
 517              		.thumb
 518              		.thumb_func
 519              		.type	chMtxTryLockS, %function
 520              	chMtxTryLockS:
 521              	.LFB11:
 522              		.loc 2 234 0
 523              		.cfi_startproc
 524              		@ args = 0, pretend = 0, frame = 8
 525              		@ frame_needed = 0, uses_anonymous_args = 0
 526 0000 00B5     		push	{lr}
 527              	.LCFI11:
 528              		.cfi_def_cfa_offset 4
 529 0002 83B0     		sub	sp, sp, #12
 530              	.LCFI12:
 531              		.cfi_def_cfa_offset 16
 532 0004 0190     		str	r0, [sp, #4]
 533              		.loc 2 236 0
 534              		.cfi_offset 14, -4
 535 0006 FFF7FEFF 		bl	chDbgCheckClassS
 536              		.loc 2 237 0
 537 000a 019B     		ldr	r3, [sp, #4]
 538 000c 002B     		cmp	r3, #0
 539 000e 02D1     		bne	.L27
ARM GAS  /tmp/ccwyjMLk.s 			page 11


 540              		.loc 2 237 0 is_stmt 0 discriminator 1
 541 0010 0D48     		ldr	r0, .L30
 542 0012 FFF7FEFF 		bl	chDbgPanic
 543              	.L27:
 544              		.loc 2 239 0 is_stmt 1
 545 0016 019B     		ldr	r3, [sp, #4]
 546 0018 9B68     		ldr	r3, [r3, #8]
 547 001a 002B     		cmp	r3, #0
 548 001c 02D0     		beq	.L28
 549              		.loc 2 240 0
 550 001e 4FF00003 		mov	r3, #0
 551 0022 0EE0     		b	.L29
 552              	.L28:
 553              		.loc 2 241 0
 554 0024 094B     		ldr	r3, .L30+4
 555 0026 DA69     		ldr	r2, [r3, #28]
 556 0028 019B     		ldr	r3, [sp, #4]
 557 002a 9A60     		str	r2, [r3, #8]
 558              		.loc 2 242 0
 559 002c 074B     		ldr	r3, .L30+4
 560 002e DB69     		ldr	r3, [r3, #28]
 561 0030 1A6C     		ldr	r2, [r3, #64]
 562 0032 019B     		ldr	r3, [sp, #4]
 563 0034 DA60     		str	r2, [r3, #12]
 564              		.loc 2 243 0
 565 0036 054B     		ldr	r3, .L30+4
 566 0038 DB69     		ldr	r3, [r3, #28]
 567 003a 019A     		ldr	r2, [sp, #4]
 568 003c 1A64     		str	r2, [r3, #64]
 569              		.loc 2 244 0
 570 003e 4FF00103 		mov	r3, #1
 571              	.L29:
 572              		.loc 2 245 0
 573 0042 1846     		mov	r0, r3
 574 0044 03B0     		add	sp, sp, #12
 575 0046 00BD     		pop	{pc}
 576              	.L31:
 577              		.align	2
 578              	.L30:
 579 0048 48000000 		.word	.LC4
 580 004c 00000000 		.word	rlist
 581              		.cfi_endproc
 582              	.LFE11:
 583              		.size	chMtxTryLockS, .-chMtxTryLockS
 584              		.section	.rodata
 585 005a 0000     		.align	2
 586              	.LC5:
 587 005c 63684D74 		.ascii	"chMtxUnlock(), #1\000"
 587      78556E6C 
 587      6F636B28 
 587      292C2023 
 587      3100
 588 006e 0000     		.align	2
 589              	.LC6:
 590 0070 63684D74 		.ascii	"chMtxUnlock(), #2\000"
 590      78556E6C 
 590      6F636B28 
ARM GAS  /tmp/ccwyjMLk.s 			page 12


 590      292C2023 
 590      3200
 591              		.section	.text.chMtxUnlock,"ax",%progbits
 592              		.align	2
 593              		.p2align 4,,15
 594              		.global	chMtxUnlock
 595              		.thumb
 596              		.thumb_func
 597              		.type	chMtxUnlock, %function
 598              	chMtxUnlock:
 599              	.LFB12:
 600              		.loc 2 257 0
 601              		.cfi_startproc
 602              		@ args = 0, pretend = 0, frame = 24
 603              		@ frame_needed = 0, uses_anonymous_args = 0
 604 0000 00B5     		push	{lr}
 605              	.LCFI13:
 606              		.cfi_def_cfa_offset 4
 607 0002 87B0     		sub	sp, sp, #28
 608              	.LCFI14:
 609              		.cfi_def_cfa_offset 32
 610              		.loc 2 258 0
 611 0004 334B     		ldr	r3, .L40
 612 0006 DB69     		ldr	r3, [r3, #28]
 613 0008 0393     		str	r3, [sp, #12]
 614              	.LBB7:
 615              		.loc 2 261 0
 616 000a 4FF02003 		mov	r3, #32
 617              	@ 261 "../chibios_2.4.x/os/kernel/src/chmtx.c" 1
 618 000e 83F31188 		msr     BASEPRI, r3
 619              	@ 0 "" 2
 620              		.thumb
 621              	.LBE7:
 622              		.cfi_offset 14, -4
 623 0012 FFF7FEFF 		bl	dbg_check_lock
 624              		.loc 2 262 0
 625 0016 039B     		ldr	r3, [sp, #12]
 626 0018 1B6C     		ldr	r3, [r3, #64]
 627 001a 002B     		cmp	r3, #0
 628 001c 02D1     		bne	.L33
 629              		.loc 2 262 0 is_stmt 0 discriminator 1
 630 001e 2E48     		ldr	r0, .L40+4
 631 0020 FFF7FEFF 		bl	chDbgPanic
 632              	.L33:
 633              		.loc 2 265 0 is_stmt 1
 634 0024 039B     		ldr	r3, [sp, #12]
 635 0026 1B6C     		ldr	r3, [r3, #64]
 636 0028 9A68     		ldr	r2, [r3, #8]
 637 002a 039B     		ldr	r3, [sp, #12]
 638 002c 9A42     		cmp	r2, r3
 639 002e 02D0     		beq	.L34
 640              		.loc 2 265 0 is_stmt 0 discriminator 1
 641 0030 2A48     		ldr	r0, .L40+8
 642 0032 FFF7FEFF 		bl	chDbgPanic
 643              	.L34:
 644              		.loc 2 270 0 is_stmt 1
 645 0036 039B     		ldr	r3, [sp, #12]
ARM GAS  /tmp/ccwyjMLk.s 			page 13


 646 0038 1B6C     		ldr	r3, [r3, #64]
 647 003a 0293     		str	r3, [sp, #8]
 648              		.loc 2 271 0
 649 003c 029B     		ldr	r3, [sp, #8]
 650 003e DA68     		ldr	r2, [r3, #12]
 651 0040 039B     		ldr	r3, [sp, #12]
 652 0042 1A64     		str	r2, [r3, #64]
 653              		.loc 2 273 0
 654 0044 029B     		ldr	r3, [sp, #8]
 655 0046 1A68     		ldr	r2, [r3, #0]
 656 0048 029B     		ldr	r3, [sp, #8]
 657 004a 9A42     		cmp	r2, r3
 658 004c 33D0     		beq	.L35
 659              	.LBB8:
 660              		.loc 2 278 0
 661 004e 039B     		ldr	r3, [sp, #12]
 662 0050 5B6C     		ldr	r3, [r3, #68]
 663 0052 0493     		str	r3, [sp, #16]
 664              		.loc 2 279 0
 665 0054 039B     		ldr	r3, [sp, #12]
 666 0056 1B6C     		ldr	r3, [r3, #64]
 667 0058 0593     		str	r3, [sp, #20]
 668              		.loc 2 280 0
 669 005a 11E0     		b	.L36
 670              	.L38:
 671              		.loc 2 284 0
 672 005c 059B     		ldr	r3, [sp, #20]
 673 005e 1A68     		ldr	r2, [r3, #0]
 674 0060 059B     		ldr	r3, [sp, #20]
 675 0062 9A42     		cmp	r2, r3
 676 0064 09D0     		beq	.L37
 677              		.loc 2 284 0 is_stmt 0 discriminator 1
 678 0066 059B     		ldr	r3, [sp, #20]
 679 0068 1B68     		ldr	r3, [r3, #0]
 680 006a 9A68     		ldr	r2, [r3, #8]
 681 006c 049B     		ldr	r3, [sp, #16]
 682 006e 9A42     		cmp	r2, r3
 683 0070 03D9     		bls	.L37
 684              		.loc 2 285 0 is_stmt 1
 685 0072 059B     		ldr	r3, [sp, #20]
 686 0074 1B68     		ldr	r3, [r3, #0]
 687 0076 9B68     		ldr	r3, [r3, #8]
 688 0078 0493     		str	r3, [sp, #16]
 689              	.L37:
 690              		.loc 2 286 0
 691 007a 059B     		ldr	r3, [sp, #20]
 692 007c DB68     		ldr	r3, [r3, #12]
 693 007e 0593     		str	r3, [sp, #20]
 694              	.L36:
 695              		.loc 2 280 0 discriminator 1
 696 0080 059B     		ldr	r3, [sp, #20]
 697 0082 002B     		cmp	r3, #0
 698 0084 EAD1     		bne	.L38
 699              		.loc 2 290 0
 700 0086 039B     		ldr	r3, [sp, #12]
 701 0088 049A     		ldr	r2, [sp, #16]
 702 008a 9A60     		str	r2, [r3, #8]
ARM GAS  /tmp/ccwyjMLk.s 			page 14


 703              		.loc 2 293 0
 704 008c 029B     		ldr	r3, [sp, #8]
 705 008e 1846     		mov	r0, r3
 706 0090 FFF7FEFF 		bl	fifo_remove
 707 0094 0190     		str	r0, [sp, #4]
 708              		.loc 2 294 0
 709 0096 029B     		ldr	r3, [sp, #8]
 710 0098 019A     		ldr	r2, [sp, #4]
 711 009a 9A60     		str	r2, [r3, #8]
 712              		.loc 2 295 0
 713 009c 019B     		ldr	r3, [sp, #4]
 714 009e 1A6C     		ldr	r2, [r3, #64]
 715 00a0 029B     		ldr	r3, [sp, #8]
 716 00a2 DA60     		str	r2, [r3, #12]
 717              		.loc 2 296 0
 718 00a4 019B     		ldr	r3, [sp, #4]
 719 00a6 029A     		ldr	r2, [sp, #8]
 720 00a8 1A64     		str	r2, [r3, #64]
 721              		.loc 2 297 0
 722 00aa 0198     		ldr	r0, [sp, #4]
 723 00ac 4FF00001 		mov	r1, #0
 724 00b0 FFF7FEFF 		bl	chSchWakeupS
 725 00b4 03E0     		b	.L39
 726              	.L35:
 727              	.LBE8:
 728              		.loc 2 300 0
 729 00b6 029B     		ldr	r3, [sp, #8]
 730 00b8 4FF00002 		mov	r2, #0
 731 00bc 9A60     		str	r2, [r3, #8]
 732              	.L39:
 733              		.loc 2 301 0
 734 00be FFF7FEFF 		bl	dbg_check_unlock
 735              	.LBB9:
 736 00c2 4FF00003 		mov	r3, #0
 737              	@ 301 "../chibios_2.4.x/os/kernel/src/chmtx.c" 1
 738 00c6 83F31188 		msr     BASEPRI, r3
 739              	@ 0 "" 2
 740              		.thumb
 741              	.LBE9:
 742              		.loc 2 302 0
 743 00ca 029B     		ldr	r3, [sp, #8]
 744              		.loc 2 303 0
 745 00cc 1846     		mov	r0, r3
 746 00ce 07B0     		add	sp, sp, #28
 747 00d0 00BD     		pop	{pc}
 748              	.L41:
 749 00d2 00BF     		.align	2
 750              	.L40:
 751 00d4 00000000 		.word	rlist
 752 00d8 5C000000 		.word	.LC5
 753 00dc 70000000 		.word	.LC6
 754              		.cfi_endproc
 755              	.LFE12:
 756              		.size	chMtxUnlock, .-chMtxUnlock
 757              		.section	.rodata
 758 0082 0000     		.align	2
 759              	.LC7:
ARM GAS  /tmp/ccwyjMLk.s 			page 15


 760 0084 63684D74 		.ascii	"chMtxUnlockS(), #1\000"
 760      78556E6C 
 760      6F636B53 
 760      28292C20 
 760      233100
 761 0097 00       		.align	2
 762              	.LC8:
 763 0098 63684D74 		.ascii	"chMtxUnlockS(), #2\000"
 763      78556E6C 
 763      6F636B53 
 763      28292C20 
 763      233200
 764 00ab 00       		.section	.text.chMtxUnlockS,"ax",%progbits
 765              		.align	2
 766              		.p2align 4,,15
 767              		.global	chMtxUnlockS
 768              		.thumb
 769              		.thumb_func
 770              		.type	chMtxUnlockS, %function
 771              	chMtxUnlockS:
 772              	.LFB13:
 773              		.loc 2 317 0
 774              		.cfi_startproc
 775              		@ args = 0, pretend = 0, frame = 24
 776              		@ frame_needed = 0, uses_anonymous_args = 0
 777 0000 00B5     		push	{lr}
 778              	.LCFI15:
 779              		.cfi_def_cfa_offset 4
 780 0002 87B0     		sub	sp, sp, #28
 781              	.LCFI16:
 782              		.cfi_def_cfa_offset 32
 783              		.loc 2 318 0
 784 0004 2D4B     		ldr	r3, .L50
 785 0006 DB69     		ldr	r3, [r3, #28]
 786 0008 0393     		str	r3, [sp, #12]
 787              		.loc 2 321 0
 788              		.cfi_offset 14, -4
 789 000a FFF7FEFF 		bl	chDbgCheckClassS
 790              		.loc 2 322 0
 791 000e 039B     		ldr	r3, [sp, #12]
 792 0010 1B6C     		ldr	r3, [r3, #64]
 793 0012 002B     		cmp	r3, #0
 794 0014 02D1     		bne	.L43
 795              		.loc 2 322 0 is_stmt 0 discriminator 1
 796 0016 2A48     		ldr	r0, .L50+4
 797 0018 FFF7FEFF 		bl	chDbgPanic
 798              	.L43:
 799              		.loc 2 325 0 is_stmt 1
 800 001c 039B     		ldr	r3, [sp, #12]
 801 001e 1B6C     		ldr	r3, [r3, #64]
 802 0020 9A68     		ldr	r2, [r3, #8]
 803 0022 039B     		ldr	r3, [sp, #12]
 804 0024 9A42     		cmp	r2, r3
 805 0026 02D0     		beq	.L44
 806              		.loc 2 325 0 is_stmt 0 discriminator 1
 807 0028 2648     		ldr	r0, .L50+8
 808 002a FFF7FEFF 		bl	chDbgPanic
ARM GAS  /tmp/ccwyjMLk.s 			page 16


 809              	.L44:
 810              		.loc 2 331 0 is_stmt 1
 811 002e 039B     		ldr	r3, [sp, #12]
 812 0030 1B6C     		ldr	r3, [r3, #64]
 813 0032 0293     		str	r3, [sp, #8]
 814              		.loc 2 332 0
 815 0034 029B     		ldr	r3, [sp, #8]
 816 0036 DA68     		ldr	r2, [r3, #12]
 817 0038 039B     		ldr	r3, [sp, #12]
 818 003a 1A64     		str	r2, [r3, #64]
 819              		.loc 2 334 0
 820 003c 029B     		ldr	r3, [sp, #8]
 821 003e 1A68     		ldr	r2, [r3, #0]
 822 0040 029B     		ldr	r3, [sp, #8]
 823 0042 9A42     		cmp	r2, r3
 824 0044 31D0     		beq	.L45
 825              	.LBB10:
 826              		.loc 2 339 0
 827 0046 039B     		ldr	r3, [sp, #12]
 828 0048 5B6C     		ldr	r3, [r3, #68]
 829 004a 0493     		str	r3, [sp, #16]
 830              		.loc 2 340 0
 831 004c 039B     		ldr	r3, [sp, #12]
 832 004e 1B6C     		ldr	r3, [r3, #64]
 833 0050 0593     		str	r3, [sp, #20]
 834              		.loc 2 341 0
 835 0052 11E0     		b	.L46
 836              	.L48:
 837              		.loc 2 345 0
 838 0054 059B     		ldr	r3, [sp, #20]
 839 0056 1A68     		ldr	r2, [r3, #0]
 840 0058 059B     		ldr	r3, [sp, #20]
 841 005a 9A42     		cmp	r2, r3
 842 005c 09D0     		beq	.L47
 843              		.loc 2 345 0 is_stmt 0 discriminator 1
 844 005e 059B     		ldr	r3, [sp, #20]
 845 0060 1B68     		ldr	r3, [r3, #0]
 846 0062 9A68     		ldr	r2, [r3, #8]
 847 0064 049B     		ldr	r3, [sp, #16]
 848 0066 9A42     		cmp	r2, r3
 849 0068 03D9     		bls	.L47
 850              		.loc 2 346 0 is_stmt 1
 851 006a 059B     		ldr	r3, [sp, #20]
 852 006c 1B68     		ldr	r3, [r3, #0]
 853 006e 9B68     		ldr	r3, [r3, #8]
 854 0070 0493     		str	r3, [sp, #16]
 855              	.L47:
 856              		.loc 2 347 0
 857 0072 059B     		ldr	r3, [sp, #20]
 858 0074 DB68     		ldr	r3, [r3, #12]
 859 0076 0593     		str	r3, [sp, #20]
 860              	.L46:
 861              		.loc 2 341 0 discriminator 1
 862 0078 059B     		ldr	r3, [sp, #20]
 863 007a 002B     		cmp	r3, #0
 864 007c EAD1     		bne	.L48
 865              		.loc 2 349 0
ARM GAS  /tmp/ccwyjMLk.s 			page 17


 866 007e 039B     		ldr	r3, [sp, #12]
 867 0080 049A     		ldr	r2, [sp, #16]
 868 0082 9A60     		str	r2, [r3, #8]
 869              		.loc 2 352 0
 870 0084 029B     		ldr	r3, [sp, #8]
 871 0086 1846     		mov	r0, r3
 872 0088 FFF7FEFF 		bl	fifo_remove
 873 008c 0190     		str	r0, [sp, #4]
 874              		.loc 2 353 0
 875 008e 029B     		ldr	r3, [sp, #8]
 876 0090 019A     		ldr	r2, [sp, #4]
 877 0092 9A60     		str	r2, [r3, #8]
 878              		.loc 2 354 0
 879 0094 019B     		ldr	r3, [sp, #4]
 880 0096 1A6C     		ldr	r2, [r3, #64]
 881 0098 029B     		ldr	r3, [sp, #8]
 882 009a DA60     		str	r2, [r3, #12]
 883              		.loc 2 355 0
 884 009c 019B     		ldr	r3, [sp, #4]
 885 009e 029A     		ldr	r2, [sp, #8]
 886 00a0 1A64     		str	r2, [r3, #64]
 887              		.loc 2 356 0
 888 00a2 0198     		ldr	r0, [sp, #4]
 889 00a4 FFF7FEFF 		bl	chSchReadyI
 890 00a8 03E0     		b	.L49
 891              	.L45:
 892              	.LBE10:
 893              		.loc 2 359 0
 894 00aa 029B     		ldr	r3, [sp, #8]
 895 00ac 4FF00002 		mov	r2, #0
 896 00b0 9A60     		str	r2, [r3, #8]
 897              	.L49:
 898              		.loc 2 360 0
 899 00b2 029B     		ldr	r3, [sp, #8]
 900              		.loc 2 361 0
 901 00b4 1846     		mov	r0, r3
 902 00b6 07B0     		add	sp, sp, #28
 903 00b8 00BD     		pop	{pc}
 904              	.L51:
 905 00ba 00BF     		.align	2
 906              	.L50:
 907 00bc 00000000 		.word	rlist
 908 00c0 84000000 		.word	.LC7
 909 00c4 98000000 		.word	.LC8
 910              		.cfi_endproc
 911              	.LFE13:
 912              		.size	chMtxUnlockS, .-chMtxUnlockS
 913 00c8 AFF30080 		.section	.text.chMtxUnlockAll,"ax",%progbits
 913      AFF30080 
 914              		.align	2
 915              		.p2align 4,,15
 916              		.global	chMtxUnlockAll
 917              		.thumb
 918              		.thumb_func
 919              		.type	chMtxUnlockAll, %function
 920              	chMtxUnlockAll:
 921              	.LFB14:
ARM GAS  /tmp/ccwyjMLk.s 			page 18


 922              		.loc 2 374 0
 923              		.cfi_startproc
 924              		@ args = 0, pretend = 0, frame = 16
 925              		@ frame_needed = 0, uses_anonymous_args = 0
 926 0000 00B5     		push	{lr}
 927              	.LCFI17:
 928              		.cfi_def_cfa_offset 4
 929 0002 85B0     		sub	sp, sp, #20
 930              	.LCFI18:
 931              		.cfi_def_cfa_offset 24
 932              		.loc 2 375 0
 933 0004 204B     		ldr	r3, .L57
 934 0006 DB69     		ldr	r3, [r3, #28]
 935 0008 0393     		str	r3, [sp, #12]
 936              	.LBB11:
 937              		.loc 2 377 0
 938 000a 4FF02003 		mov	r3, #32
 939              	@ 377 "../chibios_2.4.x/os/kernel/src/chmtx.c" 1
 940 000e 83F31188 		msr     BASEPRI, r3
 941              	@ 0 "" 2
 942              		.thumb
 943              	.LBE11:
 944              		.cfi_offset 14, -4
 945 0012 FFF7FEFF 		bl	dbg_check_lock
 946              		.loc 2 378 0
 947 0016 039B     		ldr	r3, [sp, #12]
 948 0018 1B6C     		ldr	r3, [r3, #64]
 949 001a 002B     		cmp	r3, #0
 950 001c 2CD0     		beq	.L53
 951              	.L56:
 952              	.LBB12:
 953              		.loc 2 380 0
 954 001e 039B     		ldr	r3, [sp, #12]
 955 0020 1B6C     		ldr	r3, [r3, #64]
 956 0022 0293     		str	r3, [sp, #8]
 957              		.loc 2 381 0
 958 0024 029B     		ldr	r3, [sp, #8]
 959 0026 DA68     		ldr	r2, [r3, #12]
 960 0028 039B     		ldr	r3, [sp, #12]
 961 002a 1A64     		str	r2, [r3, #64]
 962              		.loc 2 382 0
 963 002c 029B     		ldr	r3, [sp, #8]
 964 002e 1A68     		ldr	r2, [r3, #0]
 965 0030 029B     		ldr	r3, [sp, #8]
 966 0032 9A42     		cmp	r2, r3
 967 0034 12D0     		beq	.L54
 968              	.LBB13:
 969              		.loc 2 383 0
 970 0036 029B     		ldr	r3, [sp, #8]
 971 0038 1846     		mov	r0, r3
 972 003a FFF7FEFF 		bl	fifo_remove
 973 003e 0190     		str	r0, [sp, #4]
 974              		.loc 2 384 0
 975 0040 029B     		ldr	r3, [sp, #8]
 976 0042 019A     		ldr	r2, [sp, #4]
 977 0044 9A60     		str	r2, [r3, #8]
 978              		.loc 2 385 0
ARM GAS  /tmp/ccwyjMLk.s 			page 19


 979 0046 019B     		ldr	r3, [sp, #4]
 980 0048 1A6C     		ldr	r2, [r3, #64]
 981 004a 029B     		ldr	r3, [sp, #8]
 982 004c DA60     		str	r2, [r3, #12]
 983              		.loc 2 386 0
 984 004e 019B     		ldr	r3, [sp, #4]
 985 0050 029A     		ldr	r2, [sp, #8]
 986 0052 1A64     		str	r2, [r3, #64]
 987              		.loc 2 387 0
 988 0054 0198     		ldr	r0, [sp, #4]
 989 0056 FFF7FEFF 		bl	chSchReadyI
 990 005a 03E0     		b	.L55
 991              	.L54:
 992              	.LBE13:
 993              		.loc 2 390 0
 994 005c 029B     		ldr	r3, [sp, #8]
 995 005e 4FF00002 		mov	r2, #0
 996 0062 9A60     		str	r2, [r3, #8]
 997              	.L55:
 998              	.LBE12:
 999              		.loc 2 391 0
 1000 0064 039B     		ldr	r3, [sp, #12]
 1001 0066 1B6C     		ldr	r3, [r3, #64]
 1002 0068 002B     		cmp	r3, #0
 1003 006a D8D1     		bne	.L56
 1004              		.loc 2 392 0
 1005 006c 039B     		ldr	r3, [sp, #12]
 1006 006e 5A6C     		ldr	r2, [r3, #68]
 1007 0070 039B     		ldr	r3, [sp, #12]
 1008 0072 9A60     		str	r2, [r3, #8]
 1009              		.loc 2 393 0
 1010 0074 FFF7FEFF 		bl	chSchRescheduleS
 1011              	.L53:
 1012              		.loc 2 395 0
 1013 0078 FFF7FEFF 		bl	dbg_check_unlock
 1014              	.LBB14:
 1015 007c 4FF00003 		mov	r3, #0
 1016              	@ 395 "../chibios_2.4.x/os/kernel/src/chmtx.c" 1
 1017 0080 83F31188 		msr     BASEPRI, r3
 1018              	@ 0 "" 2
 1019              		.thumb
 1020              	.LBE14:
 1021              		.loc 2 396 0
 1022 0084 05B0     		add	sp, sp, #20
 1023 0086 00BD     		pop	{pc}
 1024              	.L58:
 1025              		.align	2
 1026              	.L57:
 1027 0088 00000000 		.word	rlist
 1028              		.cfi_endproc
 1029              	.LFE14:
 1030              		.size	chMtxUnlockAll, .-chMtxUnlockAll
 1031 008c AFF30080 		.text
 1032              	.Letext0:
 1033              		.section	.debug_loc,"",%progbits
 1034              	.Ldebug_loc0:
 1035              	.LLST0:
ARM GAS  /tmp/ccwyjMLk.s 			page 20


 1036 0000 00000000 		.4byte	.LFB0
 1037 0004 02000000 		.4byte	.LCFI0
 1038 0008 0200     		.2byte	0x2
 1039 000a 7D       		.byte	0x7d
 1040 000b 00       		.sleb128 0
 1041 000c 02000000 		.4byte	.LCFI0
 1042 0010 46000000 		.4byte	.LFE0
 1043 0014 0200     		.2byte	0x2
 1044 0016 7D       		.byte	0x7d
 1045 0017 10       		.sleb128 16
 1046 0018 00000000 		.4byte	0x0
 1047 001c 00000000 		.4byte	0x0
 1048              	.LLST1:
 1049 0020 00000000 		.4byte	.LFB2
 1050 0024 02000000 		.4byte	.LCFI1
 1051 0028 0200     		.2byte	0x2
 1052 002a 7D       		.byte	0x7d
 1053 002b 00       		.sleb128 0
 1054 002c 02000000 		.4byte	.LCFI1
 1055 0030 22000000 		.4byte	.LFE2
 1056 0034 0200     		.2byte	0x2
 1057 0036 7D       		.byte	0x7d
 1058 0037 10       		.sleb128 16
 1059 0038 00000000 		.4byte	0x0
 1060 003c 00000000 		.4byte	0x0
 1061              	.LLST2:
 1062 0040 00000000 		.4byte	.LFB4
 1063 0044 02000000 		.4byte	.LCFI2
 1064 0048 0200     		.2byte	0x2
 1065 004a 7D       		.byte	0x7d
 1066 004b 00       		.sleb128 0
 1067 004c 02000000 		.4byte	.LCFI2
 1068 0050 20000000 		.4byte	.LFE4
 1069 0054 0200     		.2byte	0x2
 1070 0056 7D       		.byte	0x7d
 1071 0057 08       		.sleb128 8
 1072 0058 00000000 		.4byte	0x0
 1073 005c 00000000 		.4byte	0x0
 1074              	.LLST3:
 1075 0060 00000000 		.4byte	.LFB7
 1076 0064 02000000 		.4byte	.LCFI3
 1077 0068 0200     		.2byte	0x2
 1078 006a 7D       		.byte	0x7d
 1079 006b 00       		.sleb128 0
 1080 006c 02000000 		.4byte	.LCFI3
 1081 0070 04000000 		.4byte	.LCFI4
 1082 0074 0200     		.2byte	0x2
 1083 0076 7D       		.byte	0x7d
 1084 0077 04       		.sleb128 4
 1085 0078 04000000 		.4byte	.LCFI4
 1086 007c 34000000 		.4byte	.LFE7
 1087 0080 0200     		.2byte	0x2
 1088 0082 7D       		.byte	0x7d
 1089 0083 10       		.sleb128 16
 1090 0084 00000000 		.4byte	0x0
 1091 0088 00000000 		.4byte	0x0
 1092              	.LLST4:
ARM GAS  /tmp/ccwyjMLk.s 			page 21


 1093 008c 00000000 		.4byte	.LFB8
 1094 0090 02000000 		.4byte	.LCFI5
 1095 0094 0200     		.2byte	0x2
 1096 0096 7D       		.byte	0x7d
 1097 0097 00       		.sleb128 0
 1098 0098 02000000 		.4byte	.LCFI5
 1099 009c 04000000 		.4byte	.LCFI6
 1100 00a0 0200     		.2byte	0x2
 1101 00a2 7D       		.byte	0x7d
 1102 00a3 04       		.sleb128 4
 1103 00a4 04000000 		.4byte	.LCFI6
 1104 00a8 28000000 		.4byte	.LFE8
 1105 00ac 0200     		.2byte	0x2
 1106 00ae 7D       		.byte	0x7d
 1107 00af 10       		.sleb128 16
 1108 00b0 00000000 		.4byte	0x0
 1109 00b4 00000000 		.4byte	0x0
 1110              	.LLST5:
 1111 00b8 00000000 		.4byte	.LFB9
 1112 00bc 02000000 		.4byte	.LCFI7
 1113 00c0 0200     		.2byte	0x2
 1114 00c2 7D       		.byte	0x7d
 1115 00c3 00       		.sleb128 0
 1116 00c4 02000000 		.4byte	.LCFI7
 1117 00c8 04000000 		.4byte	.LCFI8
 1118 00cc 0200     		.2byte	0x2
 1119 00ce 7D       		.byte	0x7d
 1120 00cf 04       		.sleb128 4
 1121 00d0 04000000 		.4byte	.LCFI8
 1122 00d4 08010000 		.4byte	.LFE9
 1123 00d8 0200     		.2byte	0x2
 1124 00da 7D       		.byte	0x7d
 1125 00db 18       		.sleb128 24
 1126 00dc 00000000 		.4byte	0x0
 1127 00e0 00000000 		.4byte	0x0
 1128              	.LLST6:
 1129 00e4 00000000 		.4byte	.LFB10
 1130 00e8 02000000 		.4byte	.LCFI9
 1131 00ec 0200     		.2byte	0x2
 1132 00ee 7D       		.byte	0x7d
 1133 00ef 00       		.sleb128 0
 1134 00f0 02000000 		.4byte	.LCFI9
 1135 00f4 04000000 		.4byte	.LCFI10
 1136 00f8 0200     		.2byte	0x2
 1137 00fa 7D       		.byte	0x7d
 1138 00fb 04       		.sleb128 4
 1139 00fc 04000000 		.4byte	.LCFI10
 1140 0100 2E000000 		.4byte	.LFE10
 1141 0104 0200     		.2byte	0x2
 1142 0106 7D       		.byte	0x7d
 1143 0107 18       		.sleb128 24
 1144 0108 00000000 		.4byte	0x0
 1145 010c 00000000 		.4byte	0x0
 1146              	.LLST7:
 1147 0110 00000000 		.4byte	.LFB11
 1148 0114 02000000 		.4byte	.LCFI11
 1149 0118 0200     		.2byte	0x2
ARM GAS  /tmp/ccwyjMLk.s 			page 22


 1150 011a 7D       		.byte	0x7d
 1151 011b 00       		.sleb128 0
 1152 011c 02000000 		.4byte	.LCFI11
 1153 0120 04000000 		.4byte	.LCFI12
 1154 0124 0200     		.2byte	0x2
 1155 0126 7D       		.byte	0x7d
 1156 0127 04       		.sleb128 4
 1157 0128 04000000 		.4byte	.LCFI12
 1158 012c 50000000 		.4byte	.LFE11
 1159 0130 0200     		.2byte	0x2
 1160 0132 7D       		.byte	0x7d
 1161 0133 10       		.sleb128 16
 1162 0134 00000000 		.4byte	0x0
 1163 0138 00000000 		.4byte	0x0
 1164              	.LLST8:
 1165 013c 00000000 		.4byte	.LFB12
 1166 0140 02000000 		.4byte	.LCFI13
 1167 0144 0200     		.2byte	0x2
 1168 0146 7D       		.byte	0x7d
 1169 0147 00       		.sleb128 0
 1170 0148 02000000 		.4byte	.LCFI13
 1171 014c 04000000 		.4byte	.LCFI14
 1172 0150 0200     		.2byte	0x2
 1173 0152 7D       		.byte	0x7d
 1174 0153 04       		.sleb128 4
 1175 0154 04000000 		.4byte	.LCFI14
 1176 0158 E0000000 		.4byte	.LFE12
 1177 015c 0200     		.2byte	0x2
 1178 015e 7D       		.byte	0x7d
 1179 015f 20       		.sleb128 32
 1180 0160 00000000 		.4byte	0x0
 1181 0164 00000000 		.4byte	0x0
 1182              	.LLST9:
 1183 0168 00000000 		.4byte	.LFB13
 1184 016c 02000000 		.4byte	.LCFI15
 1185 0170 0200     		.2byte	0x2
 1186 0172 7D       		.byte	0x7d
 1187 0173 00       		.sleb128 0
 1188 0174 02000000 		.4byte	.LCFI15
 1189 0178 04000000 		.4byte	.LCFI16
 1190 017c 0200     		.2byte	0x2
 1191 017e 7D       		.byte	0x7d
 1192 017f 04       		.sleb128 4
 1193 0180 04000000 		.4byte	.LCFI16
 1194 0184 C8000000 		.4byte	.LFE13
 1195 0188 0200     		.2byte	0x2
 1196 018a 7D       		.byte	0x7d
 1197 018b 20       		.sleb128 32
 1198 018c 00000000 		.4byte	0x0
 1199 0190 00000000 		.4byte	0x0
 1200              	.LLST10:
 1201 0194 00000000 		.4byte	.LFB14
 1202 0198 02000000 		.4byte	.LCFI17
 1203 019c 0200     		.2byte	0x2
 1204 019e 7D       		.byte	0x7d
 1205 019f 00       		.sleb128 0
 1206 01a0 02000000 		.4byte	.LCFI17
ARM GAS  /tmp/ccwyjMLk.s 			page 23


 1207 01a4 04000000 		.4byte	.LCFI18
 1208 01a8 0200     		.2byte	0x2
 1209 01aa 7D       		.byte	0x7d
 1210 01ab 04       		.sleb128 4
 1211 01ac 04000000 		.4byte	.LCFI18
 1212 01b0 8C000000 		.4byte	.LFE14
 1213 01b4 0200     		.2byte	0x2
 1214 01b6 7D       		.byte	0x7d
 1215 01b7 18       		.sleb128 24
 1216 01b8 00000000 		.4byte	0x0
 1217 01bc 00000000 		.4byte	0x0
 1218              		.file 3 "/home/z80/programs/code-sourcery/2011.03-42/bin/../lib/gcc/arm-none-eabi/4.5.2/../../../.
 1219              		.file 4 "../chibios_2.4.x/os/ports/GCC/ARMCMx/chtypes.h"
 1220              		.file 5 "../chibios_2.4.x/os/kernel/include/chlists.h"
 1221              		.file 6 "../chibios_2.4.x/os/kernel/include/chthreads.h"
 1222              		.file 7 "../chibios_2.4.x/os/ports/GCC/ARMCMx/chcore_v7m.h"
 1223              		.file 8 "../chibios_2.4.x/os/kernel/include/chschd.h"
 1224              		.file 9 "../chibios_2.4.x/os/kernel/include/chmtx.h"
 1225              		.section	.debug_info
 1226 0000 0C080000 		.4byte	0x80c
 1227 0004 0200     		.2byte	0x2
 1228 0006 00000000 		.4byte	.Ldebug_abbrev0
 1229 000a 04       		.byte	0x4
 1230 000b 01       		.uleb128 0x1
 1231 000c FD020000 		.4byte	.LASF74
 1232 0010 01       		.byte	0x1
 1233 0011 EF010000 		.4byte	.LASF75
 1234 0015 AF020000 		.4byte	.LASF76
 1235 0019 00000000 		.4byte	0x0
 1236 001d 00000000 		.4byte	0x0
 1237 0021 00000000 		.4byte	.Ldebug_ranges0+0x0
 1238 0025 00000000 		.4byte	.Ldebug_line0
 1239 0029 02       		.uleb128 0x2
 1240 002a 04       		.byte	0x4
 1241 002b 05       		.byte	0x5
 1242 002c 696E7400 		.ascii	"int\000"
 1243 0030 03       		.uleb128 0x3
 1244 0031 04       		.byte	0x4
 1245 0032 07       		.byte	0x7
 1246 0033 C7000000 		.4byte	.LASF0
 1247 0037 03       		.uleb128 0x3
 1248 0038 01       		.byte	0x1
 1249 0039 06       		.byte	0x6
 1250 003a 57000000 		.4byte	.LASF1
 1251 003e 04       		.uleb128 0x4
 1252 003f E7020000 		.4byte	.LASF5
 1253 0043 03       		.byte	0x3
 1254 0044 2A       		.byte	0x2a
 1255 0045 49000000 		.4byte	0x49
 1256 0049 03       		.uleb128 0x3
 1257 004a 01       		.byte	0x1
 1258 004b 08       		.byte	0x8
 1259 004c BE010000 		.4byte	.LASF2
 1260 0050 03       		.uleb128 0x3
 1261 0051 02       		.byte	0x2
 1262 0052 05       		.byte	0x5
 1263 0053 D6010000 		.4byte	.LASF3
ARM GAS  /tmp/ccwyjMLk.s 			page 24


 1264 0057 03       		.uleb128 0x3
 1265 0058 02       		.byte	0x2
 1266 0059 07       		.byte	0x7
 1267 005a EE000000 		.4byte	.LASF4
 1268 005e 04       		.uleb128 0x4
 1269 005f B6010000 		.4byte	.LASF6
 1270 0063 03       		.byte	0x3
 1271 0064 4F       		.byte	0x4f
 1272 0065 69000000 		.4byte	0x69
 1273 0069 03       		.uleb128 0x3
 1274 006a 04       		.byte	0x4
 1275 006b 05       		.byte	0x5
 1276 006c 72000000 		.4byte	.LASF7
 1277 0070 04       		.uleb128 0x4
 1278 0071 44020000 		.4byte	.LASF8
 1279 0075 03       		.byte	0x3
 1280 0076 50       		.byte	0x50
 1281 0077 7B000000 		.4byte	0x7b
 1282 007b 03       		.uleb128 0x3
 1283 007c 04       		.byte	0x4
 1284 007d 07       		.byte	0x7
 1285 007e D4000000 		.4byte	.LASF9
 1286 0082 03       		.uleb128 0x3
 1287 0083 08       		.byte	0x8
 1288 0084 05       		.byte	0x5
 1289 0085 49000000 		.4byte	.LASF10
 1290 0089 04       		.uleb128 0x4
 1291 008a 0D000000 		.4byte	.LASF11
 1292 008e 03       		.byte	0x3
 1293 008f 78       		.byte	0x78
 1294 0090 94000000 		.4byte	0x94
 1295 0094 03       		.uleb128 0x3
 1296 0095 08       		.byte	0x8
 1297 0096 07       		.byte	0x7
 1298 0097 16000000 		.4byte	.LASF12
 1299 009b 04       		.uleb128 0x4
 1300 009c 63000000 		.4byte	.LASF13
 1301 00a0 04       		.byte	0x4
 1302 00a1 2E       		.byte	0x2e
 1303 00a2 5E000000 		.4byte	0x5e
 1304 00a6 04       		.uleb128 0x4
 1305 00a7 2A010000 		.4byte	.LASF14
 1306 00ab 04       		.byte	0x4
 1307 00ac 2F       		.byte	0x2f
 1308 00ad 3E000000 		.4byte	0x3e
 1309 00b1 04       		.uleb128 0x4
 1310 00b2 7B000000 		.4byte	.LASF15
 1311 00b6 04       		.byte	0x4
 1312 00b7 30       		.byte	0x30
 1313 00b8 3E000000 		.4byte	0x3e
 1314 00bc 04       		.uleb128 0x4
 1315 00bd AE010000 		.4byte	.LASF16
 1316 00c1 04       		.byte	0x4
 1317 00c2 32       		.byte	0x32
 1318 00c3 70000000 		.4byte	0x70
 1319 00c7 04       		.uleb128 0x4
 1320 00c8 01010000 		.4byte	.LASF17
ARM GAS  /tmp/ccwyjMLk.s 			page 25


 1321 00cc 04       		.byte	0x4
 1322 00cd 33       		.byte	0x33
 1323 00ce 5E000000 		.4byte	0x5e
 1324 00d2 04       		.uleb128 0x4
 1325 00d3 3E010000 		.4byte	.LASF18
 1326 00d7 04       		.byte	0x4
 1327 00d8 35       		.byte	0x35
 1328 00d9 70000000 		.4byte	0x70
 1329 00dd 04       		.uleb128 0x4
 1330 00de 6D020000 		.4byte	.LASF19
 1331 00e2 04       		.byte	0x4
 1332 00e3 36       		.byte	0x36
 1333 00e4 70000000 		.4byte	0x70
 1334 00e8 04       		.uleb128 0x4
 1335 00e9 B6000000 		.4byte	.LASF20
 1336 00ed 04       		.byte	0x4
 1337 00ee 37       		.byte	0x37
 1338 00ef 5E000000 		.4byte	0x5e
 1339 00f3 04       		.uleb128 0x4
 1340 00f4 32020000 		.4byte	.LASF21
 1341 00f8 05       		.byte	0x5
 1342 00f9 2A       		.byte	0x2a
 1343 00fa FE000000 		.4byte	0xfe
 1344 00fe 05       		.uleb128 0x5
 1345 00ff 32020000 		.4byte	.LASF21
 1346 0103 48       		.byte	0x48
 1347 0104 06       		.byte	0x6
 1348 0105 5E       		.byte	0x5e
 1349 0106 07020000 		.4byte	0x207
 1350 010a 06       		.uleb128 0x6
 1351 010b 16020000 		.4byte	.LASF22
 1352 010f 06       		.byte	0x6
 1353 0110 5F       		.byte	0x5f
 1354 0111 2C020000 		.4byte	0x22c
 1355 0115 02       		.byte	0x2
 1356 0116 23       		.byte	0x23
 1357 0117 00       		.uleb128 0x0
 1358 0118 06       		.uleb128 0x6
 1359 0119 A7010000 		.4byte	.LASF23
 1360 011d 06       		.byte	0x6
 1361 011e 61       		.byte	0x61
 1362 011f 2C020000 		.4byte	0x22c
 1363 0123 02       		.byte	0x2
 1364 0124 23       		.byte	0x23
 1365 0125 04       		.uleb128 0x4
 1366 0126 06       		.uleb128 0x6
 1367 0127 42000000 		.4byte	.LASF24
 1368 012b 06       		.byte	0x6
 1369 012c 63       		.byte	0x63
 1370 012d BC000000 		.4byte	0xbc
 1371 0131 02       		.byte	0x2
 1372 0132 23       		.byte	0x23
 1373 0133 08       		.uleb128 0x8
 1374 0134 06       		.uleb128 0x6
 1375 0135 22030000 		.4byte	.LASF25
 1376 0139 06       		.byte	0x6
 1377 013a 64       		.byte	0x64
ARM GAS  /tmp/ccwyjMLk.s 			page 26


 1378 013b 04030000 		.4byte	0x304
 1379 013f 02       		.byte	0x2
 1380 0140 23       		.byte	0x23
 1381 0141 0C       		.uleb128 0xc
 1382 0142 06       		.uleb128 0x6
 1383 0143 9D000000 		.4byte	.LASF26
 1384 0147 06       		.byte	0x6
 1385 0148 66       		.byte	0x66
 1386 0149 2C020000 		.4byte	0x22c
 1387 014d 02       		.byte	0x2
 1388 014e 23       		.byte	0x23
 1389 014f 10       		.uleb128 0x10
 1390 0150 06       		.uleb128 0x6
 1391 0151 72010000 		.4byte	.LASF27
 1392 0155 06       		.byte	0x6
 1393 0156 67       		.byte	0x67
 1394 0157 2C020000 		.4byte	0x22c
 1395 015b 02       		.byte	0x2
 1396 015c 23       		.byte	0x23
 1397 015d 14       		.uleb128 0x14
 1398 015e 06       		.uleb128 0x6
 1399 015f 09030000 		.4byte	.LASF28
 1400 0163 06       		.byte	0x6
 1401 0164 6E       		.byte	0x6e
 1402 0165 1F040000 		.4byte	0x41f
 1403 0169 02       		.byte	0x2
 1404 016a 23       		.byte	0x23
 1405 016b 18       		.uleb128 0x18
 1406 016c 06       		.uleb128 0x6
 1407 016d BC000000 		.4byte	.LASF29
 1408 0171 06       		.byte	0x6
 1409 0172 74       		.byte	0x74
 1410 0173 31040000 		.4byte	0x431
 1411 0177 02       		.byte	0x2
 1412 0178 23       		.byte	0x23
 1413 0179 1C       		.uleb128 0x1c
 1414 017a 06       		.uleb128 0x6
 1415 017b E0010000 		.4byte	.LASF30
 1416 017f 06       		.byte	0x6
 1417 0180 79       		.byte	0x79
 1418 0181 B1000000 		.4byte	0xb1
 1419 0185 02       		.byte	0x2
 1420 0186 23       		.byte	0x23
 1421 0187 20       		.uleb128 0x20
 1422 0188 06       		.uleb128 0x6
 1423 0189 1D020000 		.4byte	.LASF31
 1424 018d 06       		.byte	0x6
 1425 018e 7D       		.byte	0x7d
 1426 018f A6000000 		.4byte	0xa6
 1427 0193 02       		.byte	0x2
 1428 0194 23       		.byte	0x23
 1429 0195 21       		.uleb128 0x21
 1430 0196 06       		.uleb128 0x6
 1431 0197 82020000 		.4byte	.LASF32
 1432 019b 06       		.byte	0x6
 1433 019c 89       		.byte	0x89
 1434 019d 27030000 		.4byte	0x327
ARM GAS  /tmp/ccwyjMLk.s 			page 27


 1435 01a1 02       		.byte	0x2
 1436 01a2 23       		.byte	0x23
 1437 01a3 24       		.uleb128 0x24
 1438 01a4 07       		.uleb128 0x7
 1439 01a5 705F7500 		.ascii	"p_u\000"
 1440 01a9 06       		.byte	0x6
 1441 01aa AE       		.byte	0xae
 1442 01ab EA030000 		.4byte	0x3ea
 1443 01af 02       		.byte	0x2
 1444 01b0 23       		.byte	0x23
 1445 01b1 28       		.uleb128 0x28
 1446 01b2 06       		.uleb128 0x6
 1447 01b3 28030000 		.4byte	.LASF33
 1448 01b7 06       		.byte	0x6
 1449 01b8 B3       		.byte	0xb3
 1450 01b9 54020000 		.4byte	0x254
 1451 01bd 02       		.byte	0x2
 1452 01be 23       		.byte	0x23
 1453 01bf 2C       		.uleb128 0x2c
 1454 01c0 06       		.uleb128 0x6
 1455 01c1 90020000 		.4byte	.LASF34
 1456 01c5 06       		.byte	0x6
 1457 01c6 B9       		.byte	0xb9
 1458 01c7 32020000 		.4byte	0x232
 1459 01cb 02       		.byte	0x2
 1460 01cc 23       		.byte	0x23
 1461 01cd 30       		.uleb128 0x30
 1462 01ce 06       		.uleb128 0x6
 1463 01cf 00000000 		.4byte	.LASF35
 1464 01d3 06       		.byte	0x6
 1465 01d4 BD       		.byte	0xbd
 1466 01d5 C7000000 		.4byte	0xc7
 1467 01d9 02       		.byte	0x2
 1468 01da 23       		.byte	0x23
 1469 01db 38       		.uleb128 0x38
 1470 01dc 06       		.uleb128 0x6
 1471 01dd 39020000 		.4byte	.LASF36
 1472 01e1 06       		.byte	0x6
 1473 01e2 C3       		.byte	0xc3
 1474 01e3 D2000000 		.4byte	0xd2
 1475 01e7 02       		.byte	0x2
 1476 01e8 23       		.byte	0x23
 1477 01e9 3C       		.uleb128 0x3c
 1478 01ea 06       		.uleb128 0x6
 1479 01eb CC010000 		.4byte	.LASF37
 1480 01ef 06       		.byte	0x6
 1481 01f0 CA       		.byte	0xca
 1482 01f1 37040000 		.4byte	0x437
 1483 01f5 02       		.byte	0x2
 1484 01f6 23       		.byte	0x23
 1485 01f7 40       		.uleb128 0x40
 1486 01f8 06       		.uleb128 0x6
 1487 01f9 77020000 		.4byte	.LASF38
 1488 01fd 06       		.byte	0x6
 1489 01fe CE       		.byte	0xce
 1490 01ff BC000000 		.4byte	0xbc
 1491 0203 02       		.byte	0x2
ARM GAS  /tmp/ccwyjMLk.s 			page 28


 1492 0204 23       		.byte	0x23
 1493 0205 44       		.uleb128 0x44
 1494 0206 00       		.byte	0x0
 1495 0207 08       		.uleb128 0x8
 1496 0208 08       		.byte	0x8
 1497 0209 05       		.byte	0x5
 1498 020a 61       		.byte	0x61
 1499 020b 2C020000 		.4byte	0x22c
 1500 020f 06       		.uleb128 0x6
 1501 0210 16020000 		.4byte	.LASF22
 1502 0214 05       		.byte	0x5
 1503 0215 62       		.byte	0x62
 1504 0216 2C020000 		.4byte	0x22c
 1505 021a 02       		.byte	0x2
 1506 021b 23       		.byte	0x23
 1507 021c 00       		.uleb128 0x0
 1508 021d 06       		.uleb128 0x6
 1509 021e A7010000 		.4byte	.LASF23
 1510 0222 05       		.byte	0x5
 1511 0223 64       		.byte	0x64
 1512 0224 2C020000 		.4byte	0x22c
 1513 0228 02       		.byte	0x2
 1514 0229 23       		.byte	0x23
 1515 022a 04       		.uleb128 0x4
 1516 022b 00       		.byte	0x0
 1517 022c 09       		.uleb128 0x9
 1518 022d 04       		.byte	0x4
 1519 022e F3000000 		.4byte	0xf3
 1520 0232 04       		.uleb128 0x4
 1521 0233 80010000 		.4byte	.LASF39
 1522 0237 05       		.byte	0x5
 1523 0238 66       		.byte	0x66
 1524 0239 07020000 		.4byte	0x207
 1525 023d 08       		.uleb128 0x8
 1526 023e 04       		.byte	0x4
 1527 023f 05       		.byte	0x5
 1528 0240 6B       		.byte	0x6b
 1529 0241 54020000 		.4byte	0x254
 1530 0245 06       		.uleb128 0x6
 1531 0246 16020000 		.4byte	.LASF22
 1532 024a 05       		.byte	0x5
 1533 024b 6D       		.byte	0x6d
 1534 024c 2C020000 		.4byte	0x22c
 1535 0250 02       		.byte	0x2
 1536 0251 23       		.byte	0x23
 1537 0252 00       		.uleb128 0x0
 1538 0253 00       		.byte	0x0
 1539 0254 04       		.uleb128 0x4
 1540 0255 32010000 		.4byte	.LASF40
 1541 0259 05       		.byte	0x5
 1542 025a 70       		.byte	0x70
 1543 025b 3D020000 		.4byte	0x23d
 1544 025f 04       		.uleb128 0x4
 1545 0260 AD000000 		.4byte	.LASF41
 1546 0264 07       		.byte	0x7
 1547 0265 D7       		.byte	0xd7
 1548 0266 6A020000 		.4byte	0x26a
ARM GAS  /tmp/ccwyjMLk.s 			page 29


 1549 026a 0A       		.uleb128 0xa
 1550 026b 04       		.byte	0x4
 1551 026c 04       		.uleb128 0x4
 1552 026d 5D010000 		.4byte	.LASF42
 1553 0271 07       		.byte	0x7
 1554 0272 DD       		.byte	0xdd
 1555 0273 89000000 		.4byte	0x89
 1556 0277 05       		.uleb128 0x5
 1557 0278 89020000 		.4byte	.LASF43
 1558 027c 24       		.byte	0x24
 1559 027d 07       		.byte	0x7
 1560 027e FE       		.byte	0xfe
 1561 027f 04030000 		.4byte	0x304
 1562 0283 0B       		.uleb128 0xb
 1563 0284 723400   		.ascii	"r4\000"
 1564 0287 07       		.byte	0x7
 1565 0288 1101     		.2byte	0x111
 1566 028a 5F020000 		.4byte	0x25f
 1567 028e 02       		.byte	0x2
 1568 028f 23       		.byte	0x23
 1569 0290 00       		.uleb128 0x0
 1570 0291 0B       		.uleb128 0xb
 1571 0292 723500   		.ascii	"r5\000"
 1572 0295 07       		.byte	0x7
 1573 0296 1201     		.2byte	0x112
 1574 0298 5F020000 		.4byte	0x25f
 1575 029c 02       		.byte	0x2
 1576 029d 23       		.byte	0x23
 1577 029e 04       		.uleb128 0x4
 1578 029f 0B       		.uleb128 0xb
 1579 02a0 723600   		.ascii	"r6\000"
 1580 02a3 07       		.byte	0x7
 1581 02a4 1301     		.2byte	0x113
 1582 02a6 5F020000 		.4byte	0x25f
 1583 02aa 02       		.byte	0x2
 1584 02ab 23       		.byte	0x23
 1585 02ac 08       		.uleb128 0x8
 1586 02ad 0B       		.uleb128 0xb
 1587 02ae 723700   		.ascii	"r7\000"
 1588 02b1 07       		.byte	0x7
 1589 02b2 1401     		.2byte	0x114
 1590 02b4 5F020000 		.4byte	0x25f
 1591 02b8 02       		.byte	0x2
 1592 02b9 23       		.byte	0x23
 1593 02ba 0C       		.uleb128 0xc
 1594 02bb 0B       		.uleb128 0xb
 1595 02bc 723800   		.ascii	"r8\000"
 1596 02bf 07       		.byte	0x7
 1597 02c0 1501     		.2byte	0x115
 1598 02c2 5F020000 		.4byte	0x25f
 1599 02c6 02       		.byte	0x2
 1600 02c7 23       		.byte	0x23
 1601 02c8 10       		.uleb128 0x10
 1602 02c9 0B       		.uleb128 0xb
 1603 02ca 723900   		.ascii	"r9\000"
 1604 02cd 07       		.byte	0x7
 1605 02ce 1601     		.2byte	0x116
ARM GAS  /tmp/ccwyjMLk.s 			page 30


 1606 02d0 5F020000 		.4byte	0x25f
 1607 02d4 02       		.byte	0x2
 1608 02d5 23       		.byte	0x23
 1609 02d6 14       		.uleb128 0x14
 1610 02d7 0B       		.uleb128 0xb
 1611 02d8 72313000 		.ascii	"r10\000"
 1612 02dc 07       		.byte	0x7
 1613 02dd 1701     		.2byte	0x117
 1614 02df 5F020000 		.4byte	0x25f
 1615 02e3 02       		.byte	0x2
 1616 02e4 23       		.byte	0x23
 1617 02e5 18       		.uleb128 0x18
 1618 02e6 0B       		.uleb128 0xb
 1619 02e7 72313100 		.ascii	"r11\000"
 1620 02eb 07       		.byte	0x7
 1621 02ec 1801     		.2byte	0x118
 1622 02ee 5F020000 		.4byte	0x25f
 1623 02f2 02       		.byte	0x2
 1624 02f3 23       		.byte	0x23
 1625 02f4 1C       		.uleb128 0x1c
 1626 02f5 0B       		.uleb128 0xb
 1627 02f6 6C7200   		.ascii	"lr\000"
 1628 02f9 07       		.byte	0x7
 1629 02fa 1901     		.2byte	0x119
 1630 02fc 5F020000 		.4byte	0x25f
 1631 0300 02       		.byte	0x2
 1632 0301 23       		.byte	0x23
 1633 0302 20       		.uleb128 0x20
 1634 0303 00       		.byte	0x0
 1635 0304 0C       		.uleb128 0xc
 1636 0305 E6000000 		.4byte	.LASF44
 1637 0309 04       		.byte	0x4
 1638 030a 07       		.byte	0x7
 1639 030b 2301     		.2byte	0x123
 1640 030d 21030000 		.4byte	0x321
 1641 0311 0B       		.uleb128 0xb
 1642 0312 72313300 		.ascii	"r13\000"
 1643 0316 07       		.byte	0x7
 1644 0317 2401     		.2byte	0x124
 1645 0319 21030000 		.4byte	0x321
 1646 031d 02       		.byte	0x2
 1647 031e 23       		.byte	0x23
 1648 031f 00       		.uleb128 0x0
 1649 0320 00       		.byte	0x0
 1650 0321 09       		.uleb128 0x9
 1651 0322 04       		.byte	0x4
 1652 0323 77020000 		.4byte	0x277
 1653 0327 0D       		.uleb128 0xd
 1654 0328 DD000000 		.4byte	0xdd
 1655 032c 08       		.uleb128 0x8
 1656 032d 20       		.byte	0x20
 1657 032e 08       		.byte	0x8
 1658 032f 5E       		.byte	0x5e
 1659 0330 97030000 		.4byte	0x397
 1660 0334 06       		.uleb128 0x6
 1661 0335 4D020000 		.4byte	.LASF45
 1662 0339 08       		.byte	0x8
ARM GAS  /tmp/ccwyjMLk.s 			page 31


 1663 033a 5F       		.byte	0x5f
 1664 033b 32020000 		.4byte	0x232
 1665 033f 02       		.byte	0x2
 1666 0340 23       		.byte	0x23
 1667 0341 00       		.uleb128 0x0
 1668 0342 06       		.uleb128 0x6
 1669 0343 E8010000 		.4byte	.LASF46
 1670 0347 08       		.byte	0x8
 1671 0348 60       		.byte	0x60
 1672 0349 BC000000 		.4byte	0xbc
 1673 034d 02       		.byte	0x2
 1674 034e 23       		.byte	0x23
 1675 034f 08       		.uleb128 0x8
 1676 0350 06       		.uleb128 0x6
 1677 0351 7A010000 		.4byte	.LASF47
 1678 0355 08       		.byte	0x8
 1679 0356 62       		.byte	0x62
 1680 0357 04030000 		.4byte	0x304
 1681 035b 02       		.byte	0x2
 1682 035c 23       		.byte	0x23
 1683 035d 0C       		.uleb128 0xc
 1684 035e 06       		.uleb128 0x6
 1685 035f A5000000 		.4byte	.LASF48
 1686 0363 08       		.byte	0x8
 1687 0364 65       		.byte	0x65
 1688 0365 2C020000 		.4byte	0x22c
 1689 0369 02       		.byte	0x2
 1690 036a 23       		.byte	0x23
 1691 036b 10       		.uleb128 0x10
 1692 036c 06       		.uleb128 0x6
 1693 036d 9F010000 		.4byte	.LASF49
 1694 0371 08       		.byte	0x8
 1695 0372 66       		.byte	0x66
 1696 0373 2C020000 		.4byte	0x22c
 1697 0377 02       		.byte	0x2
 1698 0378 23       		.byte	0x23
 1699 0379 14       		.uleb128 0x14
 1700 037a 06       		.uleb128 0x6
 1701 037b 10030000 		.4byte	.LASF50
 1702 037f 08       		.byte	0x8
 1703 0380 6A       		.byte	0x6a
 1704 0381 E8000000 		.4byte	0xe8
 1705 0385 02       		.byte	0x2
 1706 0386 23       		.byte	0x23
 1707 0387 18       		.uleb128 0x18
 1708 0388 06       		.uleb128 0x6
 1709 0389 95010000 		.4byte	.LASF51
 1710 038d 08       		.byte	0x8
 1711 038e 6C       		.byte	0x6c
 1712 038f 2C020000 		.4byte	0x22c
 1713 0393 02       		.byte	0x2
 1714 0394 23       		.byte	0x23
 1715 0395 1C       		.uleb128 0x1c
 1716 0396 00       		.byte	0x0
 1717 0397 04       		.uleb128 0x4
 1718 0398 A5020000 		.4byte	.LASF52
 1719 039c 08       		.byte	0x8
ARM GAS  /tmp/ccwyjMLk.s 			page 32


 1720 039d 6E       		.byte	0x6e
 1721 039e 2C030000 		.4byte	0x32c
 1722 03a2 05       		.uleb128 0x5
 1723 03a3 57010000 		.4byte	.LASF53
 1724 03a7 10       		.byte	0x10
 1725 03a8 09       		.byte	0x9
 1726 03a9 2C       		.byte	0x2c
 1727 03aa D9030000 		.4byte	0x3d9
 1728 03ae 06       		.uleb128 0x6
 1729 03af 6A000000 		.4byte	.LASF54
 1730 03b3 09       		.byte	0x9
 1731 03b4 2D       		.byte	0x2d
 1732 03b5 32020000 		.4byte	0x232
 1733 03b9 02       		.byte	0x2
 1734 03ba 23       		.byte	0x23
 1735 03bb 00       		.uleb128 0x0
 1736 03bc 06       		.uleb128 0x6
 1737 03bd 1A030000 		.4byte	.LASF55
 1738 03c1 09       		.byte	0x9
 1739 03c2 2F       		.byte	0x2f
 1740 03c3 2C020000 		.4byte	0x22c
 1741 03c7 02       		.byte	0x2
 1742 03c8 23       		.byte	0x23
 1743 03c9 08       		.uleb128 0x8
 1744 03ca 06       		.uleb128 0x6
 1745 03cb 66020000 		.4byte	.LASF56
 1746 03cf 09       		.byte	0x9
 1747 03d0 31       		.byte	0x31
 1748 03d1 D9030000 		.4byte	0x3d9
 1749 03d5 02       		.byte	0x2
 1750 03d6 23       		.byte	0x23
 1751 03d7 0C       		.uleb128 0xc
 1752 03d8 00       		.byte	0x0
 1753 03d9 09       		.uleb128 0x9
 1754 03da 04       		.byte	0x4
 1755 03db A2030000 		.4byte	0x3a2
 1756 03df 04       		.uleb128 0x4
 1757 03e0 57010000 		.4byte	.LASF53
 1758 03e4 09       		.byte	0x9
 1759 03e5 33       		.byte	0x33
 1760 03e6 A2030000 		.4byte	0x3a2
 1761 03ea 0E       		.uleb128 0xe
 1762 03eb 04       		.byte	0x4
 1763 03ec 06       		.byte	0x6
 1764 03ed 90       		.byte	0x90
 1765 03ee 1F040000 		.4byte	0x41f
 1766 03f2 0F       		.uleb128 0xf
 1767 03f3 06000000 		.4byte	.LASF57
 1768 03f7 06       		.byte	0x6
 1769 03f8 97       		.byte	0x97
 1770 03f9 C7000000 		.4byte	0xc7
 1771 03fd 0F       		.uleb128 0xf
 1772 03fe 2D000000 		.4byte	.LASF58
 1773 0402 06       		.byte	0x6
 1774 0403 9E       		.byte	0x9e
 1775 0404 C7000000 		.4byte	0xc7
 1776 0408 0F       		.uleb128 0xf
ARM GAS  /tmp/ccwyjMLk.s 			page 33


 1777 0409 F6020000 		.4byte	.LASF59
 1778 040d 06       		.byte	0x6
 1779 040e A5       		.byte	0xa5
 1780 040f 6A020000 		.4byte	0x26a
 1781 0413 0F       		.uleb128 0xf
 1782 0414 EF020000 		.4byte	.LASF60
 1783 0418 06       		.byte	0x6
 1784 0419 AC       		.byte	0xac
 1785 041a D2000000 		.4byte	0xd2
 1786 041e 00       		.byte	0x0
 1787 041f 09       		.uleb128 0x9
 1788 0420 04       		.byte	0x4
 1789 0421 25040000 		.4byte	0x425
 1790 0425 10       		.uleb128 0x10
 1791 0426 2A040000 		.4byte	0x42a
 1792 042a 03       		.uleb128 0x3
 1793 042b 01       		.byte	0x1
 1794 042c 08       		.byte	0x8
 1795 042d 55020000 		.4byte	.LASF61
 1796 0431 09       		.uleb128 0x9
 1797 0432 04       		.byte	0x4
 1798 0433 6C020000 		.4byte	0x26c
 1799 0437 09       		.uleb128 0x9
 1800 0438 04       		.byte	0x4
 1801 0439 DF030000 		.4byte	0x3df
 1802 043d 11       		.uleb128 0x11
 1803 043e 07010000 		.4byte	.LASF77
 1804 0442 01       		.byte	0x1
 1805 0443 29       		.byte	0x29
 1806 0444 01       		.byte	0x1
 1807 0445 00000000 		.4byte	.LFB0
 1808 0449 46000000 		.4byte	.LFE0
 1809 044d 00000000 		.4byte	.LLST0
 1810 0451 7E040000 		.4byte	0x47e
 1811 0455 12       		.uleb128 0x12
 1812 0456 747000   		.ascii	"tp\000"
 1813 0459 01       		.byte	0x1
 1814 045a 29       		.byte	0x29
 1815 045b 2C020000 		.4byte	0x22c
 1816 045f 02       		.byte	0x2
 1817 0460 91       		.byte	0x91
 1818 0461 74       		.sleb128 -12
 1819 0462 12       		.uleb128 0x12
 1820 0463 74717000 		.ascii	"tqp\000"
 1821 0467 01       		.byte	0x1
 1822 0468 29       		.byte	0x29
 1823 0469 7E040000 		.4byte	0x47e
 1824 046d 02       		.byte	0x2
 1825 046e 91       		.byte	0x91
 1826 046f 70       		.sleb128 -16
 1827 0470 13       		.uleb128 0x13
 1828 0471 637000   		.ascii	"cp\000"
 1829 0474 01       		.byte	0x1
 1830 0475 2B       		.byte	0x2b
 1831 0476 2C020000 		.4byte	0x22c
 1832 047a 02       		.byte	0x2
 1833 047b 91       		.byte	0x91
ARM GAS  /tmp/ccwyjMLk.s 			page 34


 1834 047c 7C       		.sleb128 -4
 1835 047d 00       		.byte	0x0
 1836 047e 09       		.uleb128 0x9
 1837 047f 04       		.byte	0x4
 1838 0480 32020000 		.4byte	0x232
 1839 0484 14       		.uleb128 0x14
 1840 0485 5A020000 		.4byte	.LASF62
 1841 0489 01       		.byte	0x1
 1842 048a 3B       		.byte	0x3b
 1843 048b 01       		.byte	0x1
 1844 048c 2C020000 		.4byte	0x22c
 1845 0490 00000000 		.4byte	.LFB2
 1846 0494 22000000 		.4byte	.LFE2
 1847 0498 20000000 		.4byte	.LLST1
 1848 049c BC040000 		.4byte	0x4bc
 1849 04a0 12       		.uleb128 0x12
 1850 04a1 74717000 		.ascii	"tqp\000"
 1851 04a5 01       		.byte	0x1
 1852 04a6 3B       		.byte	0x3b
 1853 04a7 7E040000 		.4byte	0x47e
 1854 04ab 02       		.byte	0x2
 1855 04ac 91       		.byte	0x91
 1856 04ad 74       		.sleb128 -12
 1857 04ae 13       		.uleb128 0x13
 1858 04af 747000   		.ascii	"tp\000"
 1859 04b2 01       		.byte	0x1
 1860 04b3 3C       		.byte	0x3c
 1861 04b4 2C020000 		.4byte	0x22c
 1862 04b8 02       		.byte	0x2
 1863 04b9 91       		.byte	0x91
 1864 04ba 7C       		.sleb128 -4
 1865 04bb 00       		.byte	0x0
 1866 04bc 14       		.uleb128 0x14
 1867 04bd 8D010000 		.4byte	.LASF63
 1868 04c1 01       		.byte	0x1
 1869 04c2 49       		.byte	0x49
 1870 04c3 01       		.byte	0x1
 1871 04c4 2C020000 		.4byte	0x22c
 1872 04c8 00000000 		.4byte	.LFB4
 1873 04cc 20000000 		.4byte	.LFE4
 1874 04d0 40000000 		.4byte	.LLST2
 1875 04d4 E6040000 		.4byte	0x4e6
 1876 04d8 12       		.uleb128 0x12
 1877 04d9 747000   		.ascii	"tp\000"
 1878 04dc 01       		.byte	0x1
 1879 04dd 49       		.byte	0x49
 1880 04de 2C020000 		.4byte	0x22c
 1881 04e2 02       		.byte	0x2
 1882 04e3 91       		.byte	0x91
 1883 04e4 7C       		.sleb128 -4
 1884 04e5 00       		.byte	0x0
 1885 04e6 15       		.uleb128 0x15
 1886 04e7 01       		.byte	0x1
 1887 04e8 9B020000 		.4byte	.LASF64
 1888 04ec 02       		.byte	0x2
 1889 04ed 56       		.byte	0x56
 1890 04ee 01       		.byte	0x1
ARM GAS  /tmp/ccwyjMLk.s 			page 35


 1891 04ef 00000000 		.4byte	.LFB7
 1892 04f3 34000000 		.4byte	.LFE7
 1893 04f7 60000000 		.4byte	.LLST3
 1894 04fb 0D050000 		.4byte	0x50d
 1895 04ff 12       		.uleb128 0x12
 1896 0500 6D7000   		.ascii	"mp\000"
 1897 0503 02       		.byte	0x2
 1898 0504 56       		.byte	0x56
 1899 0505 37040000 		.4byte	0x437
 1900 0509 02       		.byte	0x2
 1901 050a 91       		.byte	0x91
 1902 050b 74       		.sleb128 -12
 1903 050c 00       		.byte	0x0
 1904 050d 15       		.uleb128 0x15
 1905 050e 01       		.byte	0x1
 1906 050f 68010000 		.4byte	.LASF65
 1907 0513 02       		.byte	0x2
 1908 0514 67       		.byte	0x67
 1909 0515 01       		.byte	0x1
 1910 0516 00000000 		.4byte	.LFB8
 1911 051a 28000000 		.4byte	.LFE8
 1912 051e 8C000000 		.4byte	.LLST4
 1913 0522 66050000 		.4byte	0x566
 1914 0526 12       		.uleb128 0x12
 1915 0527 6D7000   		.ascii	"mp\000"
 1916 052a 02       		.byte	0x2
 1917 052b 67       		.byte	0x67
 1918 052c 37040000 		.4byte	0x437
 1919 0530 02       		.byte	0x2
 1920 0531 91       		.byte	0x91
 1921 0532 74       		.sleb128 -12
 1922 0533 16       		.uleb128 0x16
 1923 0534 06000000 		.4byte	.LBB2
 1924 0538 0E000000 		.4byte	.LBE2
 1925 053c 4E050000 		.4byte	0x54e
 1926 0540 13       		.uleb128 0x13
 1927 0541 746D7000 		.ascii	"tmp\000"
 1928 0545 02       		.byte	0x2
 1929 0546 69       		.byte	0x69
 1930 0547 70000000 		.4byte	0x70
 1931 054b 01       		.byte	0x1
 1932 054c 53       		.byte	0x53
 1933 054d 00       		.byte	0x0
 1934 054e 17       		.uleb128 0x17
 1935 054f 1C000000 		.4byte	.LBB3
 1936 0553 24000000 		.4byte	.LBE3
 1937 0557 13       		.uleb128 0x13
 1938 0558 746D7000 		.ascii	"tmp\000"
 1939 055c 02       		.byte	0x2
 1940 055d 6D       		.byte	0x6d
 1941 055e 70000000 		.4byte	0x70
 1942 0562 01       		.byte	0x1
 1943 0563 53       		.byte	0x53
 1944 0564 00       		.byte	0x0
 1945 0565 00       		.byte	0x0
 1946 0566 15       		.uleb128 0x15
 1947 0567 01       		.byte	0x1
ARM GAS  /tmp/ccwyjMLk.s 			page 36


 1948 0568 84000000 		.4byte	.LASF66
 1949 056c 02       		.byte	0x2
 1950 056d 79       		.byte	0x79
 1951 056e 01       		.byte	0x1
 1952 056f 00000000 		.4byte	.LFB9
 1953 0573 08010000 		.4byte	.LFE9
 1954 0577 B8000000 		.4byte	.LLST5
 1955 057b B2050000 		.4byte	0x5b2
 1956 057f 12       		.uleb128 0x12
 1957 0580 6D7000   		.ascii	"mp\000"
 1958 0583 02       		.byte	0x2
 1959 0584 79       		.byte	0x79
 1960 0585 37040000 		.4byte	0x437
 1961 0589 02       		.byte	0x2
 1962 058a 91       		.byte	0x91
 1963 058b 6C       		.sleb128 -20
 1964 058c 13       		.uleb128 0x13
 1965 058d 63747000 		.ascii	"ctp\000"
 1966 0591 02       		.byte	0x2
 1967 0592 7A       		.byte	0x7a
 1968 0593 2C020000 		.4byte	0x22c
 1969 0597 02       		.byte	0x2
 1970 0598 91       		.byte	0x91
 1971 0599 70       		.sleb128 -16
 1972 059a 17       		.uleb128 0x17
 1973 059b 24000000 		.4byte	.LBB4
 1974 059f DE000000 		.4byte	.LBE4
 1975 05a3 13       		.uleb128 0x13
 1976 05a4 747000   		.ascii	"tp\000"
 1977 05a7 02       		.byte	0x2
 1978 05a8 84       		.byte	0x84
 1979 05a9 2C020000 		.4byte	0x22c
 1980 05ad 02       		.byte	0x2
 1981 05ae 91       		.byte	0x91
 1982 05af 74       		.sleb128 -12
 1983 05b0 00       		.byte	0x0
 1984 05b1 00       		.byte	0x0
 1985 05b2 18       		.uleb128 0x18
 1986 05b3 01       		.byte	0x1
 1987 05b4 4A010000 		.4byte	.LASF67
 1988 05b8 02       		.byte	0x2
 1989 05b9 CE       		.byte	0xce
 1990 05ba 01       		.byte	0x1
 1991 05bb 9B000000 		.4byte	0x9b
 1992 05bf 00000000 		.4byte	.LFB10
 1993 05c3 2E000000 		.4byte	.LFE10
 1994 05c7 E4000000 		.4byte	.LLST6
 1995 05cb 1B060000 		.4byte	0x61b
 1996 05cf 12       		.uleb128 0x12
 1997 05d0 6D7000   		.ascii	"mp\000"
 1998 05d3 02       		.byte	0x2
 1999 05d4 CE       		.byte	0xce
 2000 05d5 37040000 		.4byte	0x437
 2001 05d9 02       		.byte	0x2
 2002 05da 91       		.byte	0x91
 2003 05db 6C       		.sleb128 -20
 2004 05dc 13       		.uleb128 0x13
ARM GAS  /tmp/ccwyjMLk.s 			page 37


 2005 05dd 6200     		.ascii	"b\000"
 2006 05df 02       		.byte	0x2
 2007 05e0 CF       		.byte	0xcf
 2008 05e1 9B000000 		.4byte	0x9b
 2009 05e5 02       		.byte	0x2
 2010 05e6 91       		.byte	0x91
 2011 05e7 74       		.sleb128 -12
 2012 05e8 16       		.uleb128 0x16
 2013 05e9 06000000 		.4byte	.LBB5
 2014 05ed 0E000000 		.4byte	.LBE5
 2015 05f1 03060000 		.4byte	0x603
 2016 05f5 13       		.uleb128 0x13
 2017 05f6 746D7000 		.ascii	"tmp\000"
 2018 05fa 02       		.byte	0x2
 2019 05fb D1       		.byte	0xd1
 2020 05fc 70000000 		.4byte	0x70
 2021 0600 01       		.byte	0x1
 2022 0601 53       		.byte	0x53
 2023 0602 00       		.byte	0x0
 2024 0603 17       		.uleb128 0x17
 2025 0604 1E000000 		.4byte	.LBB6
 2026 0608 26000000 		.4byte	.LBE6
 2027 060c 13       		.uleb128 0x13
 2028 060d 746D7000 		.ascii	"tmp\000"
 2029 0611 02       		.byte	0x2
 2030 0612 D5       		.byte	0xd5
 2031 0613 70000000 		.4byte	0x70
 2032 0617 01       		.byte	0x1
 2033 0618 53       		.byte	0x53
 2034 0619 00       		.byte	0x0
 2035 061a 00       		.byte	0x0
 2036 061b 18       		.uleb128 0x18
 2037 061c 01       		.byte	0x1
 2038 061d 8F000000 		.4byte	.LASF68
 2039 0621 02       		.byte	0x2
 2040 0622 EA       		.byte	0xea
 2041 0623 01       		.byte	0x1
 2042 0624 9B000000 		.4byte	0x9b
 2043 0628 00000000 		.4byte	.LFB11
 2044 062c 50000000 		.4byte	.LFE11
 2045 0630 10010000 		.4byte	.LLST7
 2046 0634 46060000 		.4byte	0x646
 2047 0638 12       		.uleb128 0x12
 2048 0639 6D7000   		.ascii	"mp\000"
 2049 063c 02       		.byte	0x2
 2050 063d EA       		.byte	0xea
 2051 063e 37040000 		.4byte	0x437
 2052 0642 02       		.byte	0x2
 2053 0643 91       		.byte	0x91
 2054 0644 74       		.sleb128 -12
 2055 0645 00       		.byte	0x0
 2056 0646 19       		.uleb128 0x19
 2057 0647 01       		.byte	0x1
 2058 0648 36000000 		.4byte	.LASF69
 2059 064c 02       		.byte	0x2
 2060 064d 0101     		.2byte	0x101
 2061 064f 01       		.byte	0x1
ARM GAS  /tmp/ccwyjMLk.s 			page 38


 2062 0650 37040000 		.4byte	0x437
 2063 0654 00000000 		.4byte	.LFB12
 2064 0658 E0000000 		.4byte	.LFE12
 2065 065c 3C010000 		.4byte	.LLST8
 2066 0660 F0060000 		.4byte	0x6f0
 2067 0664 1A       		.uleb128 0x1a
 2068 0665 63747000 		.ascii	"ctp\000"
 2069 0669 02       		.byte	0x2
 2070 066a 0201     		.2byte	0x102
 2071 066c 2C020000 		.4byte	0x22c
 2072 0670 02       		.byte	0x2
 2073 0671 91       		.byte	0x91
 2074 0672 6C       		.sleb128 -20
 2075 0673 1A       		.uleb128 0x1a
 2076 0674 756D7000 		.ascii	"ump\000"
 2077 0678 02       		.byte	0x2
 2078 0679 0301     		.2byte	0x103
 2079 067b 37040000 		.4byte	0x437
 2080 067f 02       		.byte	0x2
 2081 0680 91       		.byte	0x91
 2082 0681 68       		.sleb128 -24
 2083 0682 1A       		.uleb128 0x1a
 2084 0683 6D7000   		.ascii	"mp\000"
 2085 0686 02       		.byte	0x2
 2086 0687 0301     		.2byte	0x103
 2087 0689 37040000 		.4byte	0x437
 2088 068d 02       		.byte	0x2
 2089 068e 91       		.byte	0x91
 2090 068f 74       		.sleb128 -12
 2091 0690 16       		.uleb128 0x16
 2092 0691 0A000000 		.4byte	.LBB7
 2093 0695 12000000 		.4byte	.LBE7
 2094 0699 AC060000 		.4byte	0x6ac
 2095 069d 1A       		.uleb128 0x1a
 2096 069e 746D7000 		.ascii	"tmp\000"
 2097 06a2 02       		.byte	0x2
 2098 06a3 0501     		.2byte	0x105
 2099 06a5 70000000 		.4byte	0x70
 2100 06a9 01       		.byte	0x1
 2101 06aa 53       		.byte	0x53
 2102 06ab 00       		.byte	0x0
 2103 06ac 16       		.uleb128 0x16
 2104 06ad 4E000000 		.4byte	.LBB8
 2105 06b1 B6000000 		.4byte	.LBE8
 2106 06b5 D7060000 		.4byte	0x6d7
 2107 06b9 1A       		.uleb128 0x1a
 2108 06ba 747000   		.ascii	"tp\000"
 2109 06bd 02       		.byte	0x2
 2110 06be 1201     		.2byte	0x112
 2111 06c0 2C020000 		.4byte	0x22c
 2112 06c4 02       		.byte	0x2
 2113 06c5 91       		.byte	0x91
 2114 06c6 64       		.sleb128 -28
 2115 06c7 1B       		.uleb128 0x1b
 2116 06c8 22010000 		.4byte	.LASF70
 2117 06cc 02       		.byte	0x2
 2118 06cd 1601     		.2byte	0x116
ARM GAS  /tmp/ccwyjMLk.s 			page 39


 2119 06cf BC000000 		.4byte	0xbc
 2120 06d3 02       		.byte	0x2
 2121 06d4 91       		.byte	0x91
 2122 06d5 70       		.sleb128 -16
 2123 06d6 00       		.byte	0x0
 2124 06d7 17       		.uleb128 0x17
 2125 06d8 C2000000 		.4byte	.LBB9
 2126 06dc CA000000 		.4byte	.LBE9
 2127 06e0 1A       		.uleb128 0x1a
 2128 06e1 746D7000 		.ascii	"tmp\000"
 2129 06e5 02       		.byte	0x2
 2130 06e6 2D01     		.2byte	0x12d
 2131 06e8 70000000 		.4byte	0x70
 2132 06ec 01       		.byte	0x1
 2133 06ed 53       		.byte	0x53
 2134 06ee 00       		.byte	0x0
 2135 06ef 00       		.byte	0x0
 2136 06f0 19       		.uleb128 0x19
 2137 06f1 01       		.byte	0x1
 2138 06f2 25020000 		.4byte	.LASF71
 2139 06f6 02       		.byte	0x2
 2140 06f7 3D01     		.2byte	0x13d
 2141 06f9 01       		.byte	0x1
 2142 06fa 37040000 		.4byte	0x437
 2143 06fe 00000000 		.4byte	.LFB13
 2144 0702 C8000000 		.4byte	.LFE13
 2145 0706 68010000 		.4byte	.LLST9
 2146 070a 62070000 		.4byte	0x762
 2147 070e 1A       		.uleb128 0x1a
 2148 070f 63747000 		.ascii	"ctp\000"
 2149 0713 02       		.byte	0x2
 2150 0714 3E01     		.2byte	0x13e
 2151 0716 2C020000 		.4byte	0x22c
 2152 071a 02       		.byte	0x2
 2153 071b 91       		.byte	0x91
 2154 071c 6C       		.sleb128 -20
 2155 071d 1A       		.uleb128 0x1a
 2156 071e 756D7000 		.ascii	"ump\000"
 2157 0722 02       		.byte	0x2
 2158 0723 3F01     		.2byte	0x13f
 2159 0725 37040000 		.4byte	0x437
 2160 0729 02       		.byte	0x2
 2161 072a 91       		.byte	0x91
 2162 072b 68       		.sleb128 -24
 2163 072c 1A       		.uleb128 0x1a
 2164 072d 6D7000   		.ascii	"mp\000"
 2165 0730 02       		.byte	0x2
 2166 0731 3F01     		.2byte	0x13f
 2167 0733 37040000 		.4byte	0x437
 2168 0737 02       		.byte	0x2
 2169 0738 91       		.byte	0x91
 2170 0739 74       		.sleb128 -12
 2171 073a 17       		.uleb128 0x17
 2172 073b 46000000 		.4byte	.LBB10
 2173 073f AA000000 		.4byte	.LBE10
 2174 0743 1A       		.uleb128 0x1a
 2175 0744 747000   		.ascii	"tp\000"
ARM GAS  /tmp/ccwyjMLk.s 			page 40


 2176 0747 02       		.byte	0x2
 2177 0748 4F01     		.2byte	0x14f
 2178 074a 2C020000 		.4byte	0x22c
 2179 074e 02       		.byte	0x2
 2180 074f 91       		.byte	0x91
 2181 0750 64       		.sleb128 -28
 2182 0751 1B       		.uleb128 0x1b
 2183 0752 22010000 		.4byte	.LASF70
 2184 0756 02       		.byte	0x2
 2185 0757 5301     		.2byte	0x153
 2186 0759 BC000000 		.4byte	0xbc
 2187 075d 02       		.byte	0x2
 2188 075e 91       		.byte	0x91
 2189 075f 70       		.sleb128 -16
 2190 0760 00       		.byte	0x0
 2191 0761 00       		.byte	0x0
 2192 0762 1C       		.uleb128 0x1c
 2193 0763 01       		.byte	0x1
 2194 0764 13010000 		.4byte	.LASF72
 2195 0768 02       		.byte	0x2
 2196 0769 7601     		.2byte	0x176
 2197 076b 01       		.byte	0x1
 2198 076c 00000000 		.4byte	.LFB14
 2199 0770 8C000000 		.4byte	.LFE14
 2200 0774 94010000 		.4byte	.LLST10
 2201 0778 F5070000 		.4byte	0x7f5
 2202 077c 1A       		.uleb128 0x1a
 2203 077d 63747000 		.ascii	"ctp\000"
 2204 0781 02       		.byte	0x2
 2205 0782 7701     		.2byte	0x177
 2206 0784 2C020000 		.4byte	0x22c
 2207 0788 02       		.byte	0x2
 2208 0789 91       		.byte	0x91
 2209 078a 74       		.sleb128 -12
 2210 078b 16       		.uleb128 0x16
 2211 078c 0A000000 		.4byte	.LBB11
 2212 0790 12000000 		.4byte	.LBE11
 2213 0794 A7070000 		.4byte	0x7a7
 2214 0798 1A       		.uleb128 0x1a
 2215 0799 746D7000 		.ascii	"tmp\000"
 2216 079d 02       		.byte	0x2
 2217 079e 7901     		.2byte	0x179
 2218 07a0 70000000 		.4byte	0x70
 2219 07a4 01       		.byte	0x1
 2220 07a5 53       		.byte	0x53
 2221 07a6 00       		.byte	0x0
 2222 07a7 16       		.uleb128 0x16
 2223 07a8 1E000000 		.4byte	.LBB12
 2224 07ac 64000000 		.4byte	.LBE12
 2225 07b0 DC070000 		.4byte	0x7dc
 2226 07b4 1A       		.uleb128 0x1a
 2227 07b5 756D7000 		.ascii	"ump\000"
 2228 07b9 02       		.byte	0x2
 2229 07ba 7C01     		.2byte	0x17c
 2230 07bc 37040000 		.4byte	0x437
 2231 07c0 02       		.byte	0x2
 2232 07c1 91       		.byte	0x91
ARM GAS  /tmp/ccwyjMLk.s 			page 41


 2233 07c2 70       		.sleb128 -16
 2234 07c3 17       		.uleb128 0x17
 2235 07c4 36000000 		.4byte	.LBB13
 2236 07c8 5C000000 		.4byte	.LBE13
 2237 07cc 1A       		.uleb128 0x1a
 2238 07cd 747000   		.ascii	"tp\000"
 2239 07d0 02       		.byte	0x2
 2240 07d1 7F01     		.2byte	0x17f
 2241 07d3 2C020000 		.4byte	0x22c
 2242 07d7 02       		.byte	0x2
 2243 07d8 91       		.byte	0x91
 2244 07d9 6C       		.sleb128 -20
 2245 07da 00       		.byte	0x0
 2246 07db 00       		.byte	0x0
 2247 07dc 17       		.uleb128 0x17
 2248 07dd 7C000000 		.4byte	.LBB14
 2249 07e1 84000000 		.4byte	.LBE14
 2250 07e5 1A       		.uleb128 0x1a
 2251 07e6 746D7000 		.ascii	"tmp\000"
 2252 07ea 02       		.byte	0x2
 2253 07eb 8B01     		.2byte	0x18b
 2254 07ed 70000000 		.4byte	0x70
 2255 07f1 01       		.byte	0x1
 2256 07f2 53       		.byte	0x53
 2257 07f3 00       		.byte	0x0
 2258 07f4 00       		.byte	0x0
 2259 07f5 1D       		.uleb128 0x1d
 2260 07f6 E1020000 		.4byte	.LASF73
 2261 07fa 08       		.byte	0x8
 2262 07fb 72       		.byte	0x72
 2263 07fc 97030000 		.4byte	0x397
 2264 0800 01       		.byte	0x1
 2265 0801 01       		.byte	0x1
 2266 0802 1D       		.uleb128 0x1d
 2267 0803 E1020000 		.4byte	.LASF73
 2268 0807 08       		.byte	0x8
 2269 0808 72       		.byte	0x72
 2270 0809 97030000 		.4byte	0x397
 2271 080d 01       		.byte	0x1
 2272 080e 01       		.byte	0x1
 2273 080f 00       		.byte	0x0
 2274              		.section	.debug_abbrev
 2275 0000 01       		.uleb128 0x1
 2276 0001 11       		.uleb128 0x11
 2277 0002 01       		.byte	0x1
 2278 0003 25       		.uleb128 0x25
 2279 0004 0E       		.uleb128 0xe
 2280 0005 13       		.uleb128 0x13
 2281 0006 0B       		.uleb128 0xb
 2282 0007 03       		.uleb128 0x3
 2283 0008 0E       		.uleb128 0xe
 2284 0009 1B       		.uleb128 0x1b
 2285 000a 0E       		.uleb128 0xe
 2286 000b 11       		.uleb128 0x11
 2287 000c 01       		.uleb128 0x1
 2288 000d 52       		.uleb128 0x52
 2289 000e 01       		.uleb128 0x1
ARM GAS  /tmp/ccwyjMLk.s 			page 42


 2290 000f 55       		.uleb128 0x55
 2291 0010 06       		.uleb128 0x6
 2292 0011 10       		.uleb128 0x10
 2293 0012 06       		.uleb128 0x6
 2294 0013 00       		.byte	0x0
 2295 0014 00       		.byte	0x0
 2296 0015 02       		.uleb128 0x2
 2297 0016 24       		.uleb128 0x24
 2298 0017 00       		.byte	0x0
 2299 0018 0B       		.uleb128 0xb
 2300 0019 0B       		.uleb128 0xb
 2301 001a 3E       		.uleb128 0x3e
 2302 001b 0B       		.uleb128 0xb
 2303 001c 03       		.uleb128 0x3
 2304 001d 08       		.uleb128 0x8
 2305 001e 00       		.byte	0x0
 2306 001f 00       		.byte	0x0
 2307 0020 03       		.uleb128 0x3
 2308 0021 24       		.uleb128 0x24
 2309 0022 00       		.byte	0x0
 2310 0023 0B       		.uleb128 0xb
 2311 0024 0B       		.uleb128 0xb
 2312 0025 3E       		.uleb128 0x3e
 2313 0026 0B       		.uleb128 0xb
 2314 0027 03       		.uleb128 0x3
 2315 0028 0E       		.uleb128 0xe
 2316 0029 00       		.byte	0x0
 2317 002a 00       		.byte	0x0
 2318 002b 04       		.uleb128 0x4
 2319 002c 16       		.uleb128 0x16
 2320 002d 00       		.byte	0x0
 2321 002e 03       		.uleb128 0x3
 2322 002f 0E       		.uleb128 0xe
 2323 0030 3A       		.uleb128 0x3a
 2324 0031 0B       		.uleb128 0xb
 2325 0032 3B       		.uleb128 0x3b
 2326 0033 0B       		.uleb128 0xb
 2327 0034 49       		.uleb128 0x49
 2328 0035 13       		.uleb128 0x13
 2329 0036 00       		.byte	0x0
 2330 0037 00       		.byte	0x0
 2331 0038 05       		.uleb128 0x5
 2332 0039 13       		.uleb128 0x13
 2333 003a 01       		.byte	0x1
 2334 003b 03       		.uleb128 0x3
 2335 003c 0E       		.uleb128 0xe
 2336 003d 0B       		.uleb128 0xb
 2337 003e 0B       		.uleb128 0xb
 2338 003f 3A       		.uleb128 0x3a
 2339 0040 0B       		.uleb128 0xb
 2340 0041 3B       		.uleb128 0x3b
 2341 0042 0B       		.uleb128 0xb
 2342 0043 01       		.uleb128 0x1
 2343 0044 13       		.uleb128 0x13
 2344 0045 00       		.byte	0x0
 2345 0046 00       		.byte	0x0
 2346 0047 06       		.uleb128 0x6
ARM GAS  /tmp/ccwyjMLk.s 			page 43


 2347 0048 0D       		.uleb128 0xd
 2348 0049 00       		.byte	0x0
 2349 004a 03       		.uleb128 0x3
 2350 004b 0E       		.uleb128 0xe
 2351 004c 3A       		.uleb128 0x3a
 2352 004d 0B       		.uleb128 0xb
 2353 004e 3B       		.uleb128 0x3b
 2354 004f 0B       		.uleb128 0xb
 2355 0050 49       		.uleb128 0x49
 2356 0051 13       		.uleb128 0x13
 2357 0052 38       		.uleb128 0x38
 2358 0053 0A       		.uleb128 0xa
 2359 0054 00       		.byte	0x0
 2360 0055 00       		.byte	0x0
 2361 0056 07       		.uleb128 0x7
 2362 0057 0D       		.uleb128 0xd
 2363 0058 00       		.byte	0x0
 2364 0059 03       		.uleb128 0x3
 2365 005a 08       		.uleb128 0x8
 2366 005b 3A       		.uleb128 0x3a
 2367 005c 0B       		.uleb128 0xb
 2368 005d 3B       		.uleb128 0x3b
 2369 005e 0B       		.uleb128 0xb
 2370 005f 49       		.uleb128 0x49
 2371 0060 13       		.uleb128 0x13
 2372 0061 38       		.uleb128 0x38
 2373 0062 0A       		.uleb128 0xa
 2374 0063 00       		.byte	0x0
 2375 0064 00       		.byte	0x0
 2376 0065 08       		.uleb128 0x8
 2377 0066 13       		.uleb128 0x13
 2378 0067 01       		.byte	0x1
 2379 0068 0B       		.uleb128 0xb
 2380 0069 0B       		.uleb128 0xb
 2381 006a 3A       		.uleb128 0x3a
 2382 006b 0B       		.uleb128 0xb
 2383 006c 3B       		.uleb128 0x3b
 2384 006d 0B       		.uleb128 0xb
 2385 006e 01       		.uleb128 0x1
 2386 006f 13       		.uleb128 0x13
 2387 0070 00       		.byte	0x0
 2388 0071 00       		.byte	0x0
 2389 0072 09       		.uleb128 0x9
 2390 0073 0F       		.uleb128 0xf
 2391 0074 00       		.byte	0x0
 2392 0075 0B       		.uleb128 0xb
 2393 0076 0B       		.uleb128 0xb
 2394 0077 49       		.uleb128 0x49
 2395 0078 13       		.uleb128 0x13
 2396 0079 00       		.byte	0x0
 2397 007a 00       		.byte	0x0
 2398 007b 0A       		.uleb128 0xa
 2399 007c 0F       		.uleb128 0xf
 2400 007d 00       		.byte	0x0
 2401 007e 0B       		.uleb128 0xb
 2402 007f 0B       		.uleb128 0xb
 2403 0080 00       		.byte	0x0
ARM GAS  /tmp/ccwyjMLk.s 			page 44


 2404 0081 00       		.byte	0x0
 2405 0082 0B       		.uleb128 0xb
 2406 0083 0D       		.uleb128 0xd
 2407 0084 00       		.byte	0x0
 2408 0085 03       		.uleb128 0x3
 2409 0086 08       		.uleb128 0x8
 2410 0087 3A       		.uleb128 0x3a
 2411 0088 0B       		.uleb128 0xb
 2412 0089 3B       		.uleb128 0x3b
 2413 008a 05       		.uleb128 0x5
 2414 008b 49       		.uleb128 0x49
 2415 008c 13       		.uleb128 0x13
 2416 008d 38       		.uleb128 0x38
 2417 008e 0A       		.uleb128 0xa
 2418 008f 00       		.byte	0x0
 2419 0090 00       		.byte	0x0
 2420 0091 0C       		.uleb128 0xc
 2421 0092 13       		.uleb128 0x13
 2422 0093 01       		.byte	0x1
 2423 0094 03       		.uleb128 0x3
 2424 0095 0E       		.uleb128 0xe
 2425 0096 0B       		.uleb128 0xb
 2426 0097 0B       		.uleb128 0xb
 2427 0098 3A       		.uleb128 0x3a
 2428 0099 0B       		.uleb128 0xb
 2429 009a 3B       		.uleb128 0x3b
 2430 009b 05       		.uleb128 0x5
 2431 009c 01       		.uleb128 0x1
 2432 009d 13       		.uleb128 0x13
 2433 009e 00       		.byte	0x0
 2434 009f 00       		.byte	0x0
 2435 00a0 0D       		.uleb128 0xd
 2436 00a1 35       		.uleb128 0x35
 2437 00a2 00       		.byte	0x0
 2438 00a3 49       		.uleb128 0x49
 2439 00a4 13       		.uleb128 0x13
 2440 00a5 00       		.byte	0x0
 2441 00a6 00       		.byte	0x0
 2442 00a7 0E       		.uleb128 0xe
 2443 00a8 17       		.uleb128 0x17
 2444 00a9 01       		.byte	0x1
 2445 00aa 0B       		.uleb128 0xb
 2446 00ab 0B       		.uleb128 0xb
 2447 00ac 3A       		.uleb128 0x3a
 2448 00ad 0B       		.uleb128 0xb
 2449 00ae 3B       		.uleb128 0x3b
 2450 00af 0B       		.uleb128 0xb
 2451 00b0 01       		.uleb128 0x1
 2452 00b1 13       		.uleb128 0x13
 2453 00b2 00       		.byte	0x0
 2454 00b3 00       		.byte	0x0
 2455 00b4 0F       		.uleb128 0xf
 2456 00b5 0D       		.uleb128 0xd
 2457 00b6 00       		.byte	0x0
 2458 00b7 03       		.uleb128 0x3
 2459 00b8 0E       		.uleb128 0xe
 2460 00b9 3A       		.uleb128 0x3a
ARM GAS  /tmp/ccwyjMLk.s 			page 45


 2461 00ba 0B       		.uleb128 0xb
 2462 00bb 3B       		.uleb128 0x3b
 2463 00bc 0B       		.uleb128 0xb
 2464 00bd 49       		.uleb128 0x49
 2465 00be 13       		.uleb128 0x13
 2466 00bf 00       		.byte	0x0
 2467 00c0 00       		.byte	0x0
 2468 00c1 10       		.uleb128 0x10
 2469 00c2 26       		.uleb128 0x26
 2470 00c3 00       		.byte	0x0
 2471 00c4 49       		.uleb128 0x49
 2472 00c5 13       		.uleb128 0x13
 2473 00c6 00       		.byte	0x0
 2474 00c7 00       		.byte	0x0
 2475 00c8 11       		.uleb128 0x11
 2476 00c9 2E       		.uleb128 0x2e
 2477 00ca 01       		.byte	0x1
 2478 00cb 03       		.uleb128 0x3
 2479 00cc 0E       		.uleb128 0xe
 2480 00cd 3A       		.uleb128 0x3a
 2481 00ce 0B       		.uleb128 0xb
 2482 00cf 3B       		.uleb128 0x3b
 2483 00d0 0B       		.uleb128 0xb
 2484 00d1 27       		.uleb128 0x27
 2485 00d2 0C       		.uleb128 0xc
 2486 00d3 11       		.uleb128 0x11
 2487 00d4 01       		.uleb128 0x1
 2488 00d5 12       		.uleb128 0x12
 2489 00d6 01       		.uleb128 0x1
 2490 00d7 40       		.uleb128 0x40
 2491 00d8 06       		.uleb128 0x6
 2492 00d9 01       		.uleb128 0x1
 2493 00da 13       		.uleb128 0x13
 2494 00db 00       		.byte	0x0
 2495 00dc 00       		.byte	0x0
 2496 00dd 12       		.uleb128 0x12
 2497 00de 05       		.uleb128 0x5
 2498 00df 00       		.byte	0x0
 2499 00e0 03       		.uleb128 0x3
 2500 00e1 08       		.uleb128 0x8
 2501 00e2 3A       		.uleb128 0x3a
 2502 00e3 0B       		.uleb128 0xb
 2503 00e4 3B       		.uleb128 0x3b
 2504 00e5 0B       		.uleb128 0xb
 2505 00e6 49       		.uleb128 0x49
 2506 00e7 13       		.uleb128 0x13
 2507 00e8 02       		.uleb128 0x2
 2508 00e9 0A       		.uleb128 0xa
 2509 00ea 00       		.byte	0x0
 2510 00eb 00       		.byte	0x0
 2511 00ec 13       		.uleb128 0x13
 2512 00ed 34       		.uleb128 0x34
 2513 00ee 00       		.byte	0x0
 2514 00ef 03       		.uleb128 0x3
 2515 00f0 08       		.uleb128 0x8
 2516 00f1 3A       		.uleb128 0x3a
 2517 00f2 0B       		.uleb128 0xb
ARM GAS  /tmp/ccwyjMLk.s 			page 46


 2518 00f3 3B       		.uleb128 0x3b
 2519 00f4 0B       		.uleb128 0xb
 2520 00f5 49       		.uleb128 0x49
 2521 00f6 13       		.uleb128 0x13
 2522 00f7 02       		.uleb128 0x2
 2523 00f8 0A       		.uleb128 0xa
 2524 00f9 00       		.byte	0x0
 2525 00fa 00       		.byte	0x0
 2526 00fb 14       		.uleb128 0x14
 2527 00fc 2E       		.uleb128 0x2e
 2528 00fd 01       		.byte	0x1
 2529 00fe 03       		.uleb128 0x3
 2530 00ff 0E       		.uleb128 0xe
 2531 0100 3A       		.uleb128 0x3a
 2532 0101 0B       		.uleb128 0xb
 2533 0102 3B       		.uleb128 0x3b
 2534 0103 0B       		.uleb128 0xb
 2535 0104 27       		.uleb128 0x27
 2536 0105 0C       		.uleb128 0xc
 2537 0106 49       		.uleb128 0x49
 2538 0107 13       		.uleb128 0x13
 2539 0108 11       		.uleb128 0x11
 2540 0109 01       		.uleb128 0x1
 2541 010a 12       		.uleb128 0x12
 2542 010b 01       		.uleb128 0x1
 2543 010c 40       		.uleb128 0x40
 2544 010d 06       		.uleb128 0x6
 2545 010e 01       		.uleb128 0x1
 2546 010f 13       		.uleb128 0x13
 2547 0110 00       		.byte	0x0
 2548 0111 00       		.byte	0x0
 2549 0112 15       		.uleb128 0x15
 2550 0113 2E       		.uleb128 0x2e
 2551 0114 01       		.byte	0x1
 2552 0115 3F       		.uleb128 0x3f
 2553 0116 0C       		.uleb128 0xc
 2554 0117 03       		.uleb128 0x3
 2555 0118 0E       		.uleb128 0xe
 2556 0119 3A       		.uleb128 0x3a
 2557 011a 0B       		.uleb128 0xb
 2558 011b 3B       		.uleb128 0x3b
 2559 011c 0B       		.uleb128 0xb
 2560 011d 27       		.uleb128 0x27
 2561 011e 0C       		.uleb128 0xc
 2562 011f 11       		.uleb128 0x11
 2563 0120 01       		.uleb128 0x1
 2564 0121 12       		.uleb128 0x12
 2565 0122 01       		.uleb128 0x1
 2566 0123 40       		.uleb128 0x40
 2567 0124 06       		.uleb128 0x6
 2568 0125 01       		.uleb128 0x1
 2569 0126 13       		.uleb128 0x13
 2570 0127 00       		.byte	0x0
 2571 0128 00       		.byte	0x0
 2572 0129 16       		.uleb128 0x16
 2573 012a 0B       		.uleb128 0xb
 2574 012b 01       		.byte	0x1
ARM GAS  /tmp/ccwyjMLk.s 			page 47


 2575 012c 11       		.uleb128 0x11
 2576 012d 01       		.uleb128 0x1
 2577 012e 12       		.uleb128 0x12
 2578 012f 01       		.uleb128 0x1
 2579 0130 01       		.uleb128 0x1
 2580 0131 13       		.uleb128 0x13
 2581 0132 00       		.byte	0x0
 2582 0133 00       		.byte	0x0
 2583 0134 17       		.uleb128 0x17
 2584 0135 0B       		.uleb128 0xb
 2585 0136 01       		.byte	0x1
 2586 0137 11       		.uleb128 0x11
 2587 0138 01       		.uleb128 0x1
 2588 0139 12       		.uleb128 0x12
 2589 013a 01       		.uleb128 0x1
 2590 013b 00       		.byte	0x0
 2591 013c 00       		.byte	0x0
 2592 013d 18       		.uleb128 0x18
 2593 013e 2E       		.uleb128 0x2e
 2594 013f 01       		.byte	0x1
 2595 0140 3F       		.uleb128 0x3f
 2596 0141 0C       		.uleb128 0xc
 2597 0142 03       		.uleb128 0x3
 2598 0143 0E       		.uleb128 0xe
 2599 0144 3A       		.uleb128 0x3a
 2600 0145 0B       		.uleb128 0xb
 2601 0146 3B       		.uleb128 0x3b
 2602 0147 0B       		.uleb128 0xb
 2603 0148 27       		.uleb128 0x27
 2604 0149 0C       		.uleb128 0xc
 2605 014a 49       		.uleb128 0x49
 2606 014b 13       		.uleb128 0x13
 2607 014c 11       		.uleb128 0x11
 2608 014d 01       		.uleb128 0x1
 2609 014e 12       		.uleb128 0x12
 2610 014f 01       		.uleb128 0x1
 2611 0150 40       		.uleb128 0x40
 2612 0151 06       		.uleb128 0x6
 2613 0152 01       		.uleb128 0x1
 2614 0153 13       		.uleb128 0x13
 2615 0154 00       		.byte	0x0
 2616 0155 00       		.byte	0x0
 2617 0156 19       		.uleb128 0x19
 2618 0157 2E       		.uleb128 0x2e
 2619 0158 01       		.byte	0x1
 2620 0159 3F       		.uleb128 0x3f
 2621 015a 0C       		.uleb128 0xc
 2622 015b 03       		.uleb128 0x3
 2623 015c 0E       		.uleb128 0xe
 2624 015d 3A       		.uleb128 0x3a
 2625 015e 0B       		.uleb128 0xb
 2626 015f 3B       		.uleb128 0x3b
 2627 0160 05       		.uleb128 0x5
 2628 0161 27       		.uleb128 0x27
 2629 0162 0C       		.uleb128 0xc
 2630 0163 49       		.uleb128 0x49
 2631 0164 13       		.uleb128 0x13
ARM GAS  /tmp/ccwyjMLk.s 			page 48


 2632 0165 11       		.uleb128 0x11
 2633 0166 01       		.uleb128 0x1
 2634 0167 12       		.uleb128 0x12
 2635 0168 01       		.uleb128 0x1
 2636 0169 40       		.uleb128 0x40
 2637 016a 06       		.uleb128 0x6
 2638 016b 01       		.uleb128 0x1
 2639 016c 13       		.uleb128 0x13
 2640 016d 00       		.byte	0x0
 2641 016e 00       		.byte	0x0
 2642 016f 1A       		.uleb128 0x1a
 2643 0170 34       		.uleb128 0x34
 2644 0171 00       		.byte	0x0
 2645 0172 03       		.uleb128 0x3
 2646 0173 08       		.uleb128 0x8
 2647 0174 3A       		.uleb128 0x3a
 2648 0175 0B       		.uleb128 0xb
 2649 0176 3B       		.uleb128 0x3b
 2650 0177 05       		.uleb128 0x5
 2651 0178 49       		.uleb128 0x49
 2652 0179 13       		.uleb128 0x13
 2653 017a 02       		.uleb128 0x2
 2654 017b 0A       		.uleb128 0xa
 2655 017c 00       		.byte	0x0
 2656 017d 00       		.byte	0x0
 2657 017e 1B       		.uleb128 0x1b
 2658 017f 34       		.uleb128 0x34
 2659 0180 00       		.byte	0x0
 2660 0181 03       		.uleb128 0x3
 2661 0182 0E       		.uleb128 0xe
 2662 0183 3A       		.uleb128 0x3a
 2663 0184 0B       		.uleb128 0xb
 2664 0185 3B       		.uleb128 0x3b
 2665 0186 05       		.uleb128 0x5
 2666 0187 49       		.uleb128 0x49
 2667 0188 13       		.uleb128 0x13
 2668 0189 02       		.uleb128 0x2
 2669 018a 0A       		.uleb128 0xa
 2670 018b 00       		.byte	0x0
 2671 018c 00       		.byte	0x0
 2672 018d 1C       		.uleb128 0x1c
 2673 018e 2E       		.uleb128 0x2e
 2674 018f 01       		.byte	0x1
 2675 0190 3F       		.uleb128 0x3f
 2676 0191 0C       		.uleb128 0xc
 2677 0192 03       		.uleb128 0x3
 2678 0193 0E       		.uleb128 0xe
 2679 0194 3A       		.uleb128 0x3a
 2680 0195 0B       		.uleb128 0xb
 2681 0196 3B       		.uleb128 0x3b
 2682 0197 05       		.uleb128 0x5
 2683 0198 27       		.uleb128 0x27
 2684 0199 0C       		.uleb128 0xc
 2685 019a 11       		.uleb128 0x11
 2686 019b 01       		.uleb128 0x1
 2687 019c 12       		.uleb128 0x12
 2688 019d 01       		.uleb128 0x1
ARM GAS  /tmp/ccwyjMLk.s 			page 49


 2689 019e 40       		.uleb128 0x40
 2690 019f 06       		.uleb128 0x6
 2691 01a0 01       		.uleb128 0x1
 2692 01a1 13       		.uleb128 0x13
 2693 01a2 00       		.byte	0x0
 2694 01a3 00       		.byte	0x0
 2695 01a4 1D       		.uleb128 0x1d
 2696 01a5 34       		.uleb128 0x34
 2697 01a6 00       		.byte	0x0
 2698 01a7 03       		.uleb128 0x3
 2699 01a8 0E       		.uleb128 0xe
 2700 01a9 3A       		.uleb128 0x3a
 2701 01aa 0B       		.uleb128 0xb
 2702 01ab 3B       		.uleb128 0x3b
 2703 01ac 0B       		.uleb128 0xb
 2704 01ad 49       		.uleb128 0x49
 2705 01ae 13       		.uleb128 0x13
 2706 01af 3F       		.uleb128 0x3f
 2707 01b0 0C       		.uleb128 0xc
 2708 01b1 3C       		.uleb128 0x3c
 2709 01b2 0C       		.uleb128 0xc
 2710 01b3 00       		.byte	0x0
 2711 01b4 00       		.byte	0x0
 2712 01b5 00       		.byte	0x0
 2713              		.section	.debug_pubnames,"",%progbits
 2714 0000 90000000 		.4byte	0x90
 2715 0004 0200     		.2byte	0x2
 2716 0006 00000000 		.4byte	.Ldebug_info0
 2717 000a 10080000 		.4byte	0x810
 2718 000e E6040000 		.4byte	0x4e6
 2719 0012 63684D74 		.ascii	"chMtxInit\000"
 2719      78496E69 
 2719      7400
 2720 001c 0D050000 		.4byte	0x50d
 2721 0020 63684D74 		.ascii	"chMtxLock\000"
 2721      784C6F63 
 2721      6B00
 2722 002a 66050000 		.4byte	0x566
 2723 002e 63684D74 		.ascii	"chMtxLockS\000"
 2723      784C6F63 
 2723      6B5300
 2724 0039 B2050000 		.4byte	0x5b2
 2725 003d 63684D74 		.ascii	"chMtxTryLock\000"
 2725      78547279 
 2725      4C6F636B 
 2725      00
 2726 004a 1B060000 		.4byte	0x61b
 2727 004e 63684D74 		.ascii	"chMtxTryLockS\000"
 2727      78547279 
 2727      4C6F636B 
 2727      5300
 2728 005c 46060000 		.4byte	0x646
 2729 0060 63684D74 		.ascii	"chMtxUnlock\000"
 2729      78556E6C 
 2729      6F636B00 
 2730 006c F0060000 		.4byte	0x6f0
 2731 0070 63684D74 		.ascii	"chMtxUnlockS\000"
ARM GAS  /tmp/ccwyjMLk.s 			page 50


 2731      78556E6C 
 2731      6F636B53 
 2731      00
 2732 007d 62070000 		.4byte	0x762
 2733 0081 63684D74 		.ascii	"chMtxUnlockAll\000"
 2733      78556E6C 
 2733      6F636B41 
 2733      6C6C00
 2734 0090 00000000 		.4byte	0x0
 2735              		.section	.debug_pubtypes,"",%progbits
 2736 0000 2E010000 		.4byte	0x12e
 2737 0004 0200     		.2byte	0x2
 2738 0006 00000000 		.4byte	.Ldebug_info0
 2739 000a 10080000 		.4byte	0x810
 2740 000e 3E000000 		.4byte	0x3e
 2741 0012 75696E74 		.ascii	"uint8_t\000"
 2741      385F7400 
 2742 001a 5E000000 		.4byte	0x5e
 2743 001e 696E7433 		.ascii	"int32_t\000"
 2743      325F7400 
 2744 0026 70000000 		.4byte	0x70
 2745 002a 75696E74 		.ascii	"uint32_t\000"
 2745      33325F74 
 2745      00
 2746 0033 89000000 		.4byte	0x89
 2747 0037 75696E74 		.ascii	"uint64_t\000"
 2747      36345F74 
 2747      00
 2748 0040 9B000000 		.4byte	0x9b
 2749 0044 626F6F6C 		.ascii	"bool_t\000"
 2749      5F7400
 2750 004b A6000000 		.4byte	0xa6
 2751 004f 746D6F64 		.ascii	"tmode_t\000"
 2751      655F7400 
 2752 0057 B1000000 		.4byte	0xb1
 2753 005b 74737461 		.ascii	"tstate_t\000"
 2753      74655F74 
 2753      00
 2754 0064 BC000000 		.4byte	0xbc
 2755 0068 74707269 		.ascii	"tprio_t\000"
 2755      6F5F7400 
 2756 0070 C7000000 		.4byte	0xc7
 2757 0074 6D73675F 		.ascii	"msg_t\000"
 2757      7400
 2758 007a D2000000 		.4byte	0xd2
 2759 007e 6576656E 		.ascii	"eventmask_t\000"
 2759      746D6173 
 2759      6B5F7400 
 2760 008a DD000000 		.4byte	0xdd
 2761 008e 73797374 		.ascii	"systime_t\000"
 2761      696D655F 
 2761      7400
 2762 0098 E8000000 		.4byte	0xe8
 2763 009c 636E745F 		.ascii	"cnt_t\000"
 2763      7400
 2764 00a2 F3000000 		.4byte	0xf3
 2765 00a6 54687265 		.ascii	"Thread\000"
ARM GAS  /tmp/ccwyjMLk.s 			page 51


 2765      616400
 2766 00ad 32020000 		.4byte	0x232
 2767 00b1 54687265 		.ascii	"ThreadsQueue\000"
 2767      61647351 
 2767      75657565 
 2767      00
 2768 00be 54020000 		.4byte	0x254
 2769 00c2 54687265 		.ascii	"ThreadsList\000"
 2769      6164734C 
 2769      69737400 
 2770 00ce 5F020000 		.4byte	0x25f
 2771 00d2 72656761 		.ascii	"regarm_t\000"
 2771      726D5F74 
 2771      00
 2772 00db 6C020000 		.4byte	0x26c
 2773 00df 73746B61 		.ascii	"stkalign_t\000"
 2773      6C69676E 
 2773      5F7400
 2774 00ea 77020000 		.4byte	0x277
 2775 00ee 696E7463 		.ascii	"intctx\000"
 2775      747800
 2776 00f5 04030000 		.4byte	0x304
 2777 00f9 636F6E74 		.ascii	"context\000"
 2777      65787400 
 2778 0101 97030000 		.4byte	0x397
 2779 0105 52656164 		.ascii	"ReadyList\000"
 2779      794C6973 
 2779      7400
 2780 010f A2030000 		.4byte	0x3a2
 2781 0113 4D757465 		.ascii	"Mutex\000"
 2781      7800
 2782 0119 DF030000 		.4byte	0x3df
 2783 011d 4D757465 		.ascii	"Mutex\000"
 2783      7800
 2784 0123 FE000000 		.4byte	0xfe
 2785 0127 54687265 		.ascii	"Thread\000"
 2785      616400
 2786 012e 00000000 		.4byte	0x0
 2787              		.section	.debug_aranges,"",%progbits
 2788 0000 6C000000 		.4byte	0x6c
 2789 0004 0200     		.2byte	0x2
 2790 0006 00000000 		.4byte	.Ldebug_info0
 2791 000a 04       		.byte	0x4
 2792 000b 00       		.byte	0x0
 2793 000c 0000     		.2byte	0x0
 2794 000e 0000     		.2byte	0x0
 2795 0010 00000000 		.4byte	.LFB0
 2796 0014 46000000 		.4byte	.LFE0-.LFB0
 2797 0018 00000000 		.4byte	.LFB2
 2798 001c 22000000 		.4byte	.LFE2-.LFB2
 2799 0020 00000000 		.4byte	.LFB4
 2800 0024 20000000 		.4byte	.LFE4-.LFB4
 2801 0028 00000000 		.4byte	.LFB7
 2802 002c 34000000 		.4byte	.LFE7-.LFB7
 2803 0030 00000000 		.4byte	.LFB8
 2804 0034 28000000 		.4byte	.LFE8-.LFB8
 2805 0038 00000000 		.4byte	.LFB9
ARM GAS  /tmp/ccwyjMLk.s 			page 52


 2806 003c 08010000 		.4byte	.LFE9-.LFB9
 2807 0040 00000000 		.4byte	.LFB10
 2808 0044 2E000000 		.4byte	.LFE10-.LFB10
 2809 0048 00000000 		.4byte	.LFB11
 2810 004c 50000000 		.4byte	.LFE11-.LFB11
 2811 0050 00000000 		.4byte	.LFB12
 2812 0054 E0000000 		.4byte	.LFE12-.LFB12
 2813 0058 00000000 		.4byte	.LFB13
 2814 005c C8000000 		.4byte	.LFE13-.LFB13
 2815 0060 00000000 		.4byte	.LFB14
 2816 0064 8C000000 		.4byte	.LFE14-.LFB14
 2817 0068 00000000 		.4byte	0x0
 2818 006c 00000000 		.4byte	0x0
 2819              		.section	.debug_ranges,"",%progbits
 2820              	.Ldebug_ranges0:
 2821 0000 00000000 		.4byte	.LFB0
 2822 0004 46000000 		.4byte	.LFE0
 2823 0008 00000000 		.4byte	.LFB2
 2824 000c 22000000 		.4byte	.LFE2
 2825 0010 00000000 		.4byte	.LFB4
 2826 0014 20000000 		.4byte	.LFE4
 2827 0018 00000000 		.4byte	.LFB7
 2828 001c 34000000 		.4byte	.LFE7
 2829 0020 00000000 		.4byte	.LFB8
 2830 0024 28000000 		.4byte	.LFE8
 2831 0028 00000000 		.4byte	.LFB9
 2832 002c 08010000 		.4byte	.LFE9
 2833 0030 00000000 		.4byte	.LFB10
 2834 0034 2E000000 		.4byte	.LFE10
 2835 0038 00000000 		.4byte	.LFB11
 2836 003c 50000000 		.4byte	.LFE11
 2837 0040 00000000 		.4byte	.LFB12
 2838 0044 E0000000 		.4byte	.LFE12
 2839 0048 00000000 		.4byte	.LFB13
 2840 004c C8000000 		.4byte	.LFE13
 2841 0050 00000000 		.4byte	.LFB14
 2842 0054 8C000000 		.4byte	.LFE14
 2843 0058 00000000 		.4byte	0x0
 2844 005c 00000000 		.4byte	0x0
 2845              		.section	.debug_str,"MS",%progbits,1
 2846              	.LASF35:
 2847 0000 705F6D73 		.ascii	"p_msg\000"
 2847      6700
 2848              	.LASF57:
 2849 0006 7264796D 		.ascii	"rdymsg\000"
 2849      736700
 2850              	.LASF11:
 2851 000d 75696E74 		.ascii	"uint64_t\000"
 2851      36345F74 
 2851      00
 2852              	.LASF12:
 2853 0016 6C6F6E67 		.ascii	"long long unsigned int\000"
 2853      206C6F6E 
 2853      6720756E 
 2853      7369676E 
 2853      65642069 
 2854              	.LASF58:
ARM GAS  /tmp/ccwyjMLk.s 			page 53


 2855 002d 65786974 		.ascii	"exitcode\000"
 2855      636F6465 
 2855      00
 2856              	.LASF69:
 2857 0036 63684D74 		.ascii	"chMtxUnlock\000"
 2857      78556E6C 
 2857      6F636B00 
 2858              	.LASF24:
 2859 0042 705F7072 		.ascii	"p_prio\000"
 2859      696F00
 2860              	.LASF10:
 2861 0049 6C6F6E67 		.ascii	"long long int\000"
 2861      206C6F6E 
 2861      6720696E 
 2861      7400
 2862              	.LASF1:
 2863 0057 7369676E 		.ascii	"signed char\000"
 2863      65642063 
 2863      68617200 
 2864              	.LASF13:
 2865 0063 626F6F6C 		.ascii	"bool_t\000"
 2865      5F7400
 2866              	.LASF54:
 2867 006a 6D5F7175 		.ascii	"m_queue\000"
 2867      65756500 
 2868              	.LASF7:
 2869 0072 6C6F6E67 		.ascii	"long int\000"
 2869      20696E74 
 2869      00
 2870              	.LASF15:
 2871 007b 74737461 		.ascii	"tstate_t\000"
 2871      74655F74 
 2871      00
 2872              	.LASF66:
 2873 0084 63684D74 		.ascii	"chMtxLockS\000"
 2873      784C6F63 
 2873      6B5300
 2874              	.LASF68:
 2875 008f 63684D74 		.ascii	"chMtxTryLockS\000"
 2875      78547279 
 2875      4C6F636B 
 2875      5300
 2876              	.LASF26:
 2877 009d 705F6E65 		.ascii	"p_newer\000"
 2877      77657200 
 2878              	.LASF48:
 2879 00a5 725F6E65 		.ascii	"r_newer\000"
 2879      77657200 
 2880              	.LASF41:
 2881 00ad 72656761 		.ascii	"regarm_t\000"
 2881      726D5F74 
 2881      00
 2882              	.LASF20:
 2883 00b6 636E745F 		.ascii	"cnt_t\000"
 2883      7400
 2884              	.LASF29:
 2885 00bc 705F7374 		.ascii	"p_stklimit\000"
ARM GAS  /tmp/ccwyjMLk.s 			page 54


 2885      6B6C696D 
 2885      697400
 2886              	.LASF0:
 2887 00c7 756E7369 		.ascii	"unsigned int\000"
 2887      676E6564 
 2887      20696E74 
 2887      00
 2888              	.LASF9:
 2889 00d4 6C6F6E67 		.ascii	"long unsigned int\000"
 2889      20756E73 
 2889      69676E65 
 2889      6420696E 
 2889      7400
 2890              	.LASF44:
 2891 00e6 636F6E74 		.ascii	"context\000"
 2891      65787400 
 2892              	.LASF4:
 2893 00ee 73686F72 		.ascii	"short unsigned int\000"
 2893      7420756E 
 2893      7369676E 
 2893      65642069 
 2893      6E7400
 2894              	.LASF17:
 2895 0101 6D73675F 		.ascii	"msg_t\000"
 2895      7400
 2896              	.LASF77:
 2897 0107 7072696F 		.ascii	"prio_insert\000"
 2897      5F696E73 
 2897      65727400 
 2898              	.LASF72:
 2899 0113 63684D74 		.ascii	"chMtxUnlockAll\000"
 2899      78556E6C 
 2899      6F636B41 
 2899      6C6C00
 2900              	.LASF70:
 2901 0122 6E657770 		.ascii	"newprio\000"
 2901      72696F00 
 2902              	.LASF14:
 2903 012a 746D6F64 		.ascii	"tmode_t\000"
 2903      655F7400 
 2904              	.LASF40:
 2905 0132 54687265 		.ascii	"ThreadsList\000"
 2905      6164734C 
 2905      69737400 
 2906              	.LASF18:
 2907 013e 6576656E 		.ascii	"eventmask_t\000"
 2907      746D6173 
 2907      6B5F7400 
 2908              	.LASF67:
 2909 014a 63684D74 		.ascii	"chMtxTryLock\000"
 2909      78547279 
 2909      4C6F636B 
 2909      00
 2910              	.LASF53:
 2911 0157 4D757465 		.ascii	"Mutex\000"
 2911      7800
 2912              	.LASF42:
ARM GAS  /tmp/ccwyjMLk.s 			page 55


 2913 015d 73746B61 		.ascii	"stkalign_t\000"
 2913      6C69676E 
 2913      5F7400
 2914              	.LASF65:
 2915 0168 63684D74 		.ascii	"chMtxLock\000"
 2915      784C6F63 
 2915      6B00
 2916              	.LASF27:
 2917 0172 705F6F6C 		.ascii	"p_older\000"
 2917      64657200 
 2918              	.LASF47:
 2919 017a 725F6374 		.ascii	"r_ctx\000"
 2919      7800
 2920              	.LASF39:
 2921 0180 54687265 		.ascii	"ThreadsQueue\000"
 2921      61647351 
 2921      75657565 
 2921      00
 2922              	.LASF63:
 2923 018d 64657175 		.ascii	"dequeue\000"
 2923      65756500 
 2924              	.LASF51:
 2925 0195 725F6375 		.ascii	"r_current\000"
 2925      7272656E 
 2925      7400
 2926              	.LASF49:
 2927 019f 725F6F6C 		.ascii	"r_older\000"
 2927      64657200 
 2928              	.LASF23:
 2929 01a7 705F7072 		.ascii	"p_prev\000"
 2929      657600
 2930              	.LASF16:
 2931 01ae 74707269 		.ascii	"tprio_t\000"
 2931      6F5F7400 
 2932              	.LASF6:
 2933 01b6 696E7433 		.ascii	"int32_t\000"
 2933      325F7400 
 2934              	.LASF2:
 2935 01be 756E7369 		.ascii	"unsigned char\000"
 2935      676E6564 
 2935      20636861 
 2935      7200
 2936              	.LASF37:
 2937 01cc 705F6D74 		.ascii	"p_mtxlist\000"
 2937      786C6973 
 2937      7400
 2938              	.LASF3:
 2939 01d6 73686F72 		.ascii	"short int\000"
 2939      7420696E 
 2939      7400
 2940              	.LASF30:
 2941 01e0 705F7374 		.ascii	"p_state\000"
 2941      61746500 
 2942              	.LASF46:
 2943 01e8 725F7072 		.ascii	"r_prio\000"
 2943      696F00
 2944              	.LASF75:
ARM GAS  /tmp/ccwyjMLk.s 			page 56


 2945 01ef 2E2E2F63 		.ascii	"../chibios_2.4.x/os/kernel/src/chmtx.c\000"
 2945      68696269 
 2945      6F735F32 
 2945      2E342E78 
 2945      2F6F732F 
 2946              	.LASF22:
 2947 0216 705F6E65 		.ascii	"p_next\000"
 2947      787400
 2948              	.LASF31:
 2949 021d 705F666C 		.ascii	"p_flags\000"
 2949      61677300 
 2950              	.LASF71:
 2951 0225 63684D74 		.ascii	"chMtxUnlockS\000"
 2951      78556E6C 
 2951      6F636B53 
 2951      00
 2952              	.LASF21:
 2953 0232 54687265 		.ascii	"Thread\000"
 2953      616400
 2954              	.LASF36:
 2955 0239 705F6570 		.ascii	"p_epending\000"
 2955      656E6469 
 2955      6E6700
 2956              	.LASF8:
 2957 0244 75696E74 		.ascii	"uint32_t\000"
 2957      33325F74 
 2957      00
 2958              	.LASF45:
 2959 024d 725F7175 		.ascii	"r_queue\000"
 2959      65756500 
 2960              	.LASF61:
 2961 0255 63686172 		.ascii	"char\000"
 2961      00
 2962              	.LASF62:
 2963 025a 6669666F 		.ascii	"fifo_remove\000"
 2963      5F72656D 
 2963      6F766500 
 2964              	.LASF56:
 2965 0266 6D5F6E65 		.ascii	"m_next\000"
 2965      787400
 2966              	.LASF19:
 2967 026d 73797374 		.ascii	"systime_t\000"
 2967      696D655F 
 2967      7400
 2968              	.LASF38:
 2969 0277 705F7265 		.ascii	"p_realprio\000"
 2969      616C7072 
 2969      696F00
 2970              	.LASF32:
 2971 0282 705F7469 		.ascii	"p_time\000"
 2971      6D6500
 2972              	.LASF43:
 2973 0289 696E7463 		.ascii	"intctx\000"
 2973      747800
 2974              	.LASF34:
 2975 0290 705F6D73 		.ascii	"p_msgqueue\000"
 2975      67717565 
ARM GAS  /tmp/ccwyjMLk.s 			page 57


 2975      756500
 2976              	.LASF64:
 2977 029b 63684D74 		.ascii	"chMtxInit\000"
 2977      78496E69 
 2977      7400
 2978              	.LASF52:
 2979 02a5 52656164 		.ascii	"ReadyList\000"
 2979      794C6973 
 2979      7400
 2980              	.LASF76:
 2981 02af 2F686F6D 		.ascii	"/home/z80/projects/voltamper.git/firmware/voltamp\000"
 2981      652F7A38 
 2981      302F7072 
 2981      6F6A6563 
 2981      74732F76 
 2982              	.LASF73:
 2983 02e1 726C6973 		.ascii	"rlist\000"
 2983      7400
 2984              	.LASF5:
 2985 02e7 75696E74 		.ascii	"uint8_t\000"
 2985      385F7400 
 2986              	.LASF60:
 2987 02ef 65776D61 		.ascii	"ewmask\000"
 2987      736B00
 2988              	.LASF59:
 2989 02f6 77746F62 		.ascii	"wtobjp\000"
 2989      6A7000
 2990              	.LASF74:
 2991 02fd 474E5520 		.ascii	"GNU C 4.5.2\000"
 2991      4320342E 
 2991      352E3200 
 2992              	.LASF28:
 2993 0309 705F6E61 		.ascii	"p_name\000"
 2993      6D6500
 2994              	.LASF50:
 2995 0310 725F7072 		.ascii	"r_preempt\000"
 2995      65656D70 
 2995      7400
 2996              	.LASF55:
 2997 031a 6D5F6F77 		.ascii	"m_owner\000"
 2997      6E657200 
 2998              	.LASF25:
 2999 0322 705F6374 		.ascii	"p_ctx\000"
 2999      7800
 3000              	.LASF33:
 3001 0328 705F7761 		.ascii	"p_waiting\000"
 3001      6974696E 
 3001      6700
 3002              		.ident	"GCC: (Sourcery G++ Lite 2011.03-42) 4.5.2"
ARM GAS  /tmp/ccwyjMLk.s 			page 58


DEFINED SYMBOLS
                            *ABS*:00000000 chmtx.c
     /tmp/ccwyjMLk.s:24     .text.prio_insert:00000000 $t
     /tmp/ccwyjMLk.s:29     .text.prio_insert:00000000 prio_insert
     /tmp/ccwyjMLk.s:87     .text.fifo_remove:00000000 $t
     /tmp/ccwyjMLk.s:92     .text.fifo_remove:00000000 fifo_remove
     /tmp/ccwyjMLk.s:126    .text.dequeue:00000000 $t
     /tmp/ccwyjMLk.s:131    .text.dequeue:00000000 dequeue
     /tmp/ccwyjMLk.s:164    .rodata:00000000 $d
     /tmp/ccwyjMLk.s:168    .text.chMtxInit:00000000 $t
     /tmp/ccwyjMLk.s:174    .text.chMtxInit:00000000 chMtxInit
     /tmp/ccwyjMLk.s:216    .text.chMtxInit:00000030 $d
     /tmp/ccwyjMLk.s:221    .text.chMtxLock:00000000 $t
     /tmp/ccwyjMLk.s:227    .text.chMtxLock:00000000 chMtxLock
     /tmp/ccwyjMLk.s:285    .text.chMtxLockS:00000000 chMtxLockS
     /tmp/ccwyjMLk.s:279    .text.chMtxLockS:00000000 $t
     /tmp/ccwyjMLk.s:450    .text.chMtxLockS:000000f8 $d
     /tmp/ccwyjMLk.s:458    .text.chMtxTryLock:00000000 $t
     /tmp/ccwyjMLk.s:464    .text.chMtxTryLock:00000000 chMtxTryLock
     /tmp/ccwyjMLk.s:520    .text.chMtxTryLockS:00000000 chMtxTryLockS
     /tmp/ccwyjMLk.s:514    .text.chMtxTryLockS:00000000 $t
     /tmp/ccwyjMLk.s:579    .text.chMtxTryLockS:00000048 $d
     /tmp/ccwyjMLk.s:592    .text.chMtxUnlock:00000000 $t
     /tmp/ccwyjMLk.s:598    .text.chMtxUnlock:00000000 chMtxUnlock
     /tmp/ccwyjMLk.s:751    .text.chMtxUnlock:000000d4 $d
     /tmp/ccwyjMLk.s:765    .text.chMtxUnlockS:00000000 $t
     /tmp/ccwyjMLk.s:771    .text.chMtxUnlockS:00000000 chMtxUnlockS
     /tmp/ccwyjMLk.s:907    .text.chMtxUnlockS:000000bc $d
     /tmp/ccwyjMLk.s:914    .text.chMtxUnlockAll:00000000 $t
     /tmp/ccwyjMLk.s:920    .text.chMtxUnlockAll:00000000 chMtxUnlockAll
     /tmp/ccwyjMLk.s:1027   .text.chMtxUnlockAll:00000088 $d
                     .debug_frame:00000010 $d
     /tmp/ccwyjMLk.s:220    .text.chMtxInit:00000034 $t
     /tmp/ccwyjMLk.s:457    .text.chMtxLockS:00000108 $t
     /tmp/ccwyjMLk.s:913    .text.chMtxUnlockS:000000c8 $t
     /tmp/ccwyjMLk.s:1031   .text.chMtxUnlockAll:0000008c $t

UNDEFINED SYMBOLS
chDbgPanic
dbg_check_lock
dbg_check_unlock
chDbgCheckClassS
chSchReadyI
chSchGoSleepS
rlist
chSchWakeupS
chSchRescheduleS
