ARM GAS  C:\Users\z80\AppData\Local\Temp\cczVfvz8.s 			page 1


   1              		.syntax unified
   2              		.cpu cortex-m3
   3              		.fpu softvfp
   4              		.eabi_attribute 20, 1
   5              		.eabi_attribute 21, 1
   6              		.eabi_attribute 23, 3
   7              		.eabi_attribute 24, 1
   8              		.eabi_attribute 25, 1
   9              		.eabi_attribute 26, 1
  10              		.eabi_attribute 30, 2
  11              		.eabi_attribute 18, 4
  12              		.thumb
  13              		.file	"chmtx.c"
  14              		.section	.debug_abbrev,"",%progbits
  15              	.Ldebug_abbrev0:
  16              		.section	.debug_info,"",%progbits
  17              	.Ldebug_info0:
  18              		.section	.debug_line,"",%progbits
  19              	.Ldebug_line0:
  20 0000 62030000 		.text
  20      02002B01 
  20      00000201 
  20      FB0E0D00 
  20      01010101 
  21              	.Ltext0:
  22              		.cfi_sections	.debug_frame
  23              		.section	.text.chMtxInit,"ax",%progbits
  24              		.align	2
  25              		.p2align 4,,15
  26              		.global	chMtxInit
  27              		.thumb
  28              		.thumb_func
  29              		.type	chMtxInit, %function
  30              	chMtxInit:
  31              	.LFB7:
  32              		.file 1 "../chibios_2.4.x/os/kernel/src/chmtx.c"
  33              		.loc 1 86 0
  34              		.cfi_startproc
  35              		@ args = 0, pretend = 0, frame = 0
  36              		@ frame_needed = 0, uses_anonymous_args = 0
  37              	.LVL0:
  38 0000 10B5     		push	{r4, lr}
  39              	.LCFI0:
  40              		.cfi_def_cfa_offset 8
  41              		.loc 1 86 0
  42 0002 0446     		mov	r4, r0
  43              		.cfi_offset 14, -4
  44              		.cfi_offset 4, -8
  45              		.loc 1 88 0
  46 0004 20B1     		cbz	r0, .L4
  47              	.LVL1:
  48              	.L2:
  49              		.loc 1 91 0
  50 0006 0023     		movs	r3, #0
  51              		.loc 1 90 0
  52 0008 6460     		str	r4, [r4, #4]
  53 000a 2460     		str	r4, [r4, #0]
ARM GAS  C:\Users\z80\AppData\Local\Temp\cczVfvz8.s 			page 2


  54              		.loc 1 91 0
  55 000c A360     		str	r3, [r4, #8]
  56              		.loc 1 92 0
  57 000e 10BD     		pop	{r4, pc}
  58              	.L4:
  59              		.loc 1 88 0 discriminator 1
  60 0010 0148     		ldr	r0, .L5
  61 0012 FFF7FEFF 		bl	chDbgPanic
  62 0016 F6E7     		b	.L2
  63              	.L6:
  64              		.align	2
  65              	.L5:
  66 0018 00000000 		.word	.LC0
  67              		.cfi_endproc
  68              	.LFE7:
  69              		.size	chMtxInit, .-chMtxInit
  70 001c AFF30080 		.section	.text.chMtxLockS,"ax",%progbits
  71              		.align	2
  72              		.p2align 4,,15
  73              		.global	chMtxLockS
  74              		.thumb
  75              		.thumb_func
  76              		.type	chMtxLockS, %function
  77              	chMtxLockS:
  78              	.LFB9:
  79              		.loc 1 121 0
  80              		.cfi_startproc
  81              		@ args = 0, pretend = 0, frame = 0
  82              		@ frame_needed = 0, uses_anonymous_args = 0
  83              	.LVL2:
  84 0000 38B5     		push	{r3, r4, r5, lr}
  85              	.LCFI1:
  86              		.cfi_def_cfa_offset 16
  87              		.loc 1 122 0
  88 0002 3D4B     		ldr	r3, .L32
  89              		.cfi_offset 14, -4
  90              		.cfi_offset 5, -8
  91              		.cfi_offset 4, -12
  92              		.cfi_offset 3, -16
  93              		.loc 1 121 0
  94 0004 0546     		mov	r5, r0
  95              		.loc 1 122 0
  96 0006 DC69     		ldr	r4, [r3, #28]
  97              	.LVL3:
  98              		.loc 1 124 0
  99 0008 FFF7FEFF 		bl	chDbgCheckClassS
 100              	.LVL4:
 101              		.loc 1 125 0
 102 000c 002D     		cmp	r5, #0
 103 000e 6FD0     		beq	.L31
 104              	.L8:
 105              		.loc 1 128 0
 106 0010 A868     		ldr	r0, [r5, #8]
 107 0012 0028     		cmp	r0, #0
 108 0014 67D0     		beq	.L9
 109              	.LVL5:
 110              	.LBB29:
ARM GAS  C:\Users\z80\AppData\Local\Temp\cczVfvz8.s 			page 3


 111              		.loc 1 135 0 discriminator 1
 112 0016 A268     		ldr	r2, [r4, #8]
 113 0018 8368     		ldr	r3, [r0, #8]
 114 001a 9A42     		cmp	r2, r3
 115 001c 08D9     		bls	.L10
 116              	.LVL6:
 117              	.L26:
 118              		.loc 1 139 0
 119 001e 90F82030 		ldrb	r3, [r0, #32]	@ zero_extendqisi2
 120              		.loc 1 137 0
 121 0022 8260     		str	r2, [r0, #8]
 122              		.loc 1 139 0
 123 0024 042B     		cmp	r3, #4
 124 0026 42D0     		beq	.L12
 125 0028 052B     		cmp	r3, #5
 126 002a 2AD0     		beq	.L13
 127 002c 002B     		cmp	r3, #0
 128 002e 1DD0     		beq	.L11
 129              	.LVL7:
 130              	.L10:
 131              	.LBB31:
 132              	.LBB32:
 133              		.file 2 "../chibios_2.4.x/os/kernel/include/chinline.h"
 134              		.loc 2 43 0
 135 0030 2B46     		mov	r3, r5
 136              	.LVL8:
 137              	.L20:
 138              		.loc 2 45 0
 139 0032 1B68     		ldr	r3, [r3, #0]
 140              	.LVL9:
 141              		.loc 2 46 0
 142 0034 9D42     		cmp	r5, r3
 143 0036 03D0     		beq	.L19
 144 0038 9968     		ldr	r1, [r3, #8]
 145 003a A268     		ldr	r2, [r4, #8]
 146 003c 9142     		cmp	r1, r2
 147 003e F8D2     		bcs	.L20
 148              	.L19:
 149              		.loc 2 48 0
 150 0040 5A68     		ldr	r2, [r3, #4]
 151              		.loc 2 47 0
 152 0042 2360     		str	r3, [r4, #0]
 153              		.loc 2 48 0
 154 0044 6260     		str	r2, [r4, #4]
 155              	.LBE32:
 156              	.LBE31:
 157              		.loc 1 175 0
 158 0046 0420     		movs	r0, #4
 159              	.LBB30:
 160              	.LBB33:
 161              		.loc 2 49 0
 162 0048 5C60     		str	r4, [r3, #4]
 163 004a 1460     		str	r4, [r2, #0]
 164              	.LBE33:
 165              	.LBE30:
 166              		.loc 1 174 0
 167 004c A562     		str	r5, [r4, #40]
ARM GAS  C:\Users\z80\AppData\Local\Temp\cczVfvz8.s 			page 4


 168              		.loc 1 175 0
 169 004e FFF7FEFF 		bl	chSchGoSleepS
 170              	.LVL10:
 171              		.loc 1 178 0
 172 0052 AB68     		ldr	r3, [r5, #8]
 173 0054 A342     		cmp	r3, r4
 174 0056 02D0     		beq	.L21
 175              		.loc 1 178 0 is_stmt 0 discriminator 1
 176 0058 2848     		ldr	r0, .L32+4
 177 005a FFF7FEFF 		bl	chDbgPanic
 178              	.L21:
 179              		.loc 1 179 0 is_stmt 1
 180 005e 236C     		ldr	r3, [r4, #64]
 181 0060 AB42     		cmp	r3, r5
 182 0062 02D0     		beq	.L7
 183              		.loc 1 179 0 is_stmt 0 discriminator 1
 184 0064 2648     		ldr	r0, .L32+8
 185 0066 FFF7FEFF 		bl	chDbgPanic
 186              	.LVL11:
 187              	.L7:
 188              	.LBE29:
 189              		.loc 1 187 0 is_stmt 1
 190 006a 38BD     		pop	{r3, r4, r5, pc}
 191              	.LVL12:
 192              	.L11:
 193              	.LBB62:
 194              	.LBB34:
 195              	.LBB36:
 196              		.loc 2 75 0
 197 006c 4368     		ldr	r3, [r0, #4]
 198 006e 0268     		ldr	r2, [r0, #0]
 199              	.LBE36:
 200              	.LBE34:
 201              		.loc 1 164 0
 202 0070 0121     		movs	r1, #1
 203              	.LBB38:
 204              	.LBB35:
 205              		.loc 2 75 0
 206 0072 1A60     		str	r2, [r3, #0]
 207              		.loc 2 76 0
 208 0074 0268     		ldr	r2, [r0, #0]
 209              	.LBE35:
 210              	.LBE38:
 211              		.loc 1 164 0
 212 0076 80F82010 		strb	r1, [r0, #32]
 213              	.LVL13:
 214              	.LBB39:
 215              	.LBB37:
 216              		.loc 2 76 0
 217 007a 5360     		str	r3, [r2, #4]
 218              	.LBE37:
 219              	.LBE39:
 220              		.loc 1 167 0
 221 007c FFF7FEFF 		bl	chSchReadyI
 222              	.LVL14:
 223              		.loc 1 168 0
 224 0080 D6E7     		b	.L10
ARM GAS  C:\Users\z80\AppData\Local\Temp\cczVfvz8.s 			page 5


 225              	.LVL15:
 226              	.L13:
 227              	.LBB40:
 228              	.LBB42:
 229              		.loc 2 75 0
 230 0082 4168     		ldr	r1, [r0, #4]
 231 0084 0368     		ldr	r3, [r0, #0]
 232              	.LBE42:
 233              	.LBE40:
 234              	.LBB44:
 235              	.LBB46:
 236              		.loc 2 43 0
 237 0086 D0F828C0 		ldr	ip, [r0, #40]
 238              	.LBE46:
 239              	.LBE44:
 240              	.LBB48:
 241              	.LBB41:
 242              		.loc 2 75 0
 243 008a 0B60     		str	r3, [r1, #0]
 244              		.loc 2 76 0
 245 008c D0F800E0 		ldr	lr, [r0, #0]
 246              	.LBE41:
 247              	.LBE48:
 248              	.LBB49:
 249              	.LBB45:
 250              		.loc 2 43 0
 251 0090 6346     		mov	r3, ip
 252              	.LBE45:
 253              	.LBE49:
 254              	.LBB50:
 255              	.LBB43:
 256              		.loc 2 76 0
 257 0092 CEF80410 		str	r1, [lr, #4]
 258              	.LVL16:
 259              	.L18:
 260              	.LBE43:
 261              	.LBE50:
 262              	.LBB51:
 263              	.LBB47:
 264              		.loc 2 45 0
 265 0096 1B68     		ldr	r3, [r3, #0]
 266              	.LVL17:
 267              		.loc 2 46 0
 268 0098 9C45     		cmp	ip, r3
 269 009a 02D0     		beq	.L17
 270 009c 9968     		ldr	r1, [r3, #8]
 271 009e 9142     		cmp	r1, r2
 272 00a0 F9D2     		bcs	.L18
 273              	.L17:
 274              		.loc 2 48 0
 275 00a2 5A68     		ldr	r2, [r3, #4]
 276              		.loc 2 47 0
 277 00a4 0360     		str	r3, [r0, #0]
 278              		.loc 2 48 0
 279 00a6 4260     		str	r2, [r0, #4]
 280              		.loc 2 49 0
 281 00a8 1060     		str	r0, [r2, #0]
ARM GAS  C:\Users\z80\AppData\Local\Temp\cczVfvz8.s 			page 6


 282 00aa 5860     		str	r0, [r3, #4]
 283              	.LBE47:
 284              	.LBE51:
 285              		.loc 1 159 0
 286 00ac C0E7     		b	.L10
 287              	.LVL18:
 288              	.L12:
 289              	.LBB52:
 290              	.LBB54:
 291              		.loc 2 75 0
 292 00ae 4168     		ldr	r1, [r0, #4]
 293 00b0 0368     		ldr	r3, [r0, #0]
 294              	.LBE54:
 295              	.LBE52:
 296              		.loc 1 142 0
 297 00b2 D0F828C0 		ldr	ip, [r0, #40]
 298              	.LVL19:
 299              	.LBB56:
 300              	.LBB53:
 301              		.loc 2 75 0
 302 00b6 0B60     		str	r3, [r1, #0]
 303              		.loc 2 76 0
 304 00b8 D0F800E0 		ldr	lr, [r0, #0]
 305              	.LBE53:
 306              	.LBE56:
 307              	.LBB57:
 308              	.LBB58:
 309              		.loc 2 43 0
 310 00bc 6346     		mov	r3, ip
 311              	.LBE58:
 312              	.LBE57:
 313              	.LBB60:
 314              	.LBB55:
 315              		.loc 2 76 0
 316 00be CEF80410 		str	r1, [lr, #4]
 317              	.LVL20:
 318              	.L15:
 319              	.LBE55:
 320              	.LBE60:
 321              	.LBB61:
 322              	.LBB59:
 323              		.loc 2 45 0
 324 00c2 1B68     		ldr	r3, [r3, #0]
 325              	.LVL21:
 326              		.loc 2 46 0
 327 00c4 9C45     		cmp	ip, r3
 328 00c6 02D0     		beq	.L14
 329 00c8 9968     		ldr	r1, [r3, #8]
 330 00ca 8A42     		cmp	r2, r1
 331 00cc F9D9     		bls	.L15
 332              	.L14:
 333              		.loc 2 48 0
 334 00ce 5A68     		ldr	r2, [r3, #4]
 335              		.loc 2 47 0
 336 00d0 0360     		str	r3, [r0, #0]
 337              		.loc 2 48 0
 338 00d2 4260     		str	r2, [r0, #4]
ARM GAS  C:\Users\z80\AppData\Local\Temp\cczVfvz8.s 			page 7


 339              		.loc 2 49 0
 340 00d4 1060     		str	r0, [r2, #0]
 341 00d6 5860     		str	r0, [r3, #4]
 342              	.LBE59:
 343              	.LBE61:
 344              		.loc 1 143 0
 345 00d8 DCF80800 		ldr	r0, [ip, #8]
 346              	.LVL22:
 347              		.loc 1 135 0
 348 00dc A268     		ldr	r2, [r4, #8]
 349 00de 8368     		ldr	r3, [r0, #8]
 350              	.LVL23:
 351 00e0 9342     		cmp	r3, r2
 352 00e2 9CD3     		bcc	.L26
 353 00e4 A4E7     		b	.L10
 354              	.LVL24:
 355              	.L9:
 356              	.LBE62:
 357              		.loc 1 184 0
 358 00e6 236C     		ldr	r3, [r4, #64]
 359              		.loc 1 183 0
 360 00e8 AC60     		str	r4, [r5, #8]
 361              		.loc 1 184 0
 362 00ea EB60     		str	r3, [r5, #12]
 363              		.loc 1 185 0
 364 00ec 2564     		str	r5, [r4, #64]
 365 00ee BCE7     		b	.L7
 366              	.L31:
 367              		.loc 1 125 0 discriminator 1
 368 00f0 0448     		ldr	r0, .L32+12
 369 00f2 FFF7FEFF 		bl	chDbgPanic
 370 00f6 8BE7     		b	.L8
 371              	.L33:
 372              		.align	2
 373              	.L32:
 374 00f8 00000000 		.word	rlist
 375 00fc 20000000 		.word	.LC2
 376 0100 34000000 		.word	.LC3
 377 0104 10000000 		.word	.LC1
 378              		.cfi_endproc
 379              	.LFE9:
 380              		.size	chMtxLockS, .-chMtxLockS
 381 0108 AFF30080 		.section	.text.chMtxLock,"ax",%progbits
 381      AFF30080 
 382              		.align	2
 383              		.p2align 4,,15
 384              		.global	chMtxLock
 385              		.thumb
 386              		.thumb_func
 387              		.type	chMtxLock, %function
 388              	chMtxLock:
 389              	.LFB8:
 390              		.loc 1 103 0
 391              		.cfi_startproc
 392              		@ args = 0, pretend = 0, frame = 0
 393              		@ frame_needed = 0, uses_anonymous_args = 0
 394              	.LVL25:
ARM GAS  C:\Users\z80\AppData\Local\Temp\cczVfvz8.s 			page 8


 395 0000 10B5     		push	{r4, lr}
 396              	.LCFI2:
 397              		.cfi_def_cfa_offset 8
 398              	.LBB63:
 399              		.loc 1 105 0
 400 0002 2023     		movs	r3, #32
 401              	.LVL26:
 402              	.LBE63:
 403              		.loc 1 103 0
 404 0004 0446     		mov	r4, r0
 405              		.cfi_offset 14, -4
 406              		.cfi_offset 4, -8
 407              	.LBB64:
 408              		.loc 1 105 0
 409              	@ 105 "../chibios_2.4.x/os/kernel/src/chmtx.c" 1
 410 0006 83F31188 		msr     BASEPRI, r3
 411              	@ 0 "" 2
 412              	.LVL27:
 413              		.thumb
 414              	.LBE64:
 415 000a FFF7FEFF 		bl	dbg_check_lock
 416              	.LVL28:
 417              		.loc 1 107 0
 418 000e 2046     		mov	r0, r4
 419 0010 FFF7FEFF 		bl	chMtxLockS
 420              		.loc 1 109 0
 421 0014 FFF7FEFF 		bl	dbg_check_unlock
 422              	.LBB65:
 423 0018 0023     		movs	r3, #0
 424              	.LVL29:
 425              	@ 109 "../chibios_2.4.x/os/kernel/src/chmtx.c" 1
 426 001a 83F31188 		msr     BASEPRI, r3
 427              	@ 0 "" 2
 428              	.LVL30:
 429              		.thumb
 430              	.LBE65:
 431              		.loc 1 110 0
 432 001e 10BD     		pop	{r4, pc}
 433              		.cfi_endproc
 434              	.LFE8:
 435              		.size	chMtxLock, .-chMtxLock
 436              		.section	.text.chMtxTryLockS,"ax",%progbits
 437              		.align	2
 438              		.p2align 4,,15
 439              		.global	chMtxTryLockS
 440              		.thumb
 441              		.thumb_func
 442              		.type	chMtxTryLockS, %function
 443              	chMtxTryLockS:
 444              	.LFB11:
 445              		.loc 1 234 0
 446              		.cfi_startproc
 447              		@ args = 0, pretend = 0, frame = 0
 448              		@ frame_needed = 0, uses_anonymous_args = 0
 449              	.LVL31:
 450 0000 10B5     		push	{r4, lr}
 451              	.LCFI3:
ARM GAS  C:\Users\z80\AppData\Local\Temp\cczVfvz8.s 			page 9


 452              		.cfi_def_cfa_offset 8
 453              		.loc 1 234 0
 454 0002 0446     		mov	r4, r0
 455              		.cfi_offset 14, -4
 456              		.cfi_offset 4, -8
 457              		.loc 1 236 0
 458 0004 FFF7FEFF 		bl	chDbgCheckClassS
 459              	.LVL32:
 460              		.loc 1 237 0
 461 0008 5CB1     		cbz	r4, .L39
 462              	.L36:
 463              		.loc 1 239 0
 464 000a A368     		ldr	r3, [r4, #8]
 465 000c 0BB1     		cbz	r3, .L40
 466              		.loc 1 240 0
 467 000e 0020     		movs	r0, #0
 468              	.L37:
 469              		.loc 1 245 0
 470 0010 10BD     		pop	{r4, pc}
 471              	.L40:
 472              		.loc 1 241 0
 473 0012 064B     		ldr	r3, .L41
 474              		.loc 1 244 0
 475 0014 0120     		movs	r0, #1
 476              		.loc 1 241 0
 477 0016 DB69     		ldr	r3, [r3, #28]
 478              		.loc 1 242 0
 479 0018 1A6C     		ldr	r2, [r3, #64]
 480              		.loc 1 241 0
 481 001a A360     		str	r3, [r4, #8]
 482              		.loc 1 242 0
 483 001c E260     		str	r2, [r4, #12]
 484              		.loc 1 243 0
 485 001e 1C64     		str	r4, [r3, #64]
 486              		.loc 1 244 0
 487 0020 F6E7     		b	.L37
 488              	.L39:
 489              		.loc 1 237 0 discriminator 1
 490 0022 0348     		ldr	r0, .L41+4
 491 0024 FFF7FEFF 		bl	chDbgPanic
 492 0028 EFE7     		b	.L36
 493              	.L42:
 494 002a 00BF     		.align	2
 495              	.L41:
 496 002c 00000000 		.word	rlist
 497 0030 48000000 		.word	.LC4
 498              		.cfi_endproc
 499              	.LFE11:
 500              		.size	chMtxTryLockS, .-chMtxTryLockS
 501 0034 AFF30080 		.section	.text.chMtxTryLock,"ax",%progbits
 501      AFF30080 
 501      AFF30080 
 502              		.align	2
 503              		.p2align 4,,15
 504              		.global	chMtxTryLock
 505              		.thumb
 506              		.thumb_func
ARM GAS  C:\Users\z80\AppData\Local\Temp\cczVfvz8.s 			page 10


 507              		.type	chMtxTryLock, %function
 508              	chMtxTryLock:
 509              	.LFB10:
 510              		.loc 1 206 0
 511              		.cfi_startproc
 512              		@ args = 0, pretend = 0, frame = 0
 513              		@ frame_needed = 0, uses_anonymous_args = 0
 514              	.LVL33:
 515 0000 10B5     		push	{r4, lr}
 516              	.LCFI4:
 517              		.cfi_def_cfa_offset 8
 518              	.LBB66:
 519              		.loc 1 209 0
 520 0002 2023     		movs	r3, #32
 521              	.LVL34:
 522              	.LBE66:
 523              		.loc 1 206 0
 524 0004 0446     		mov	r4, r0
 525              		.cfi_offset 14, -4
 526              		.cfi_offset 4, -8
 527              	.LBB67:
 528              		.loc 1 209 0
 529              	@ 209 "../chibios_2.4.x/os/kernel/src/chmtx.c" 1
 530 0006 83F31188 		msr     BASEPRI, r3
 531              	@ 0 "" 2
 532              	.LVL35:
 533              		.thumb
 534              	.LBE67:
 535 000a FFF7FEFF 		bl	dbg_check_lock
 536              	.LVL36:
 537              		.loc 1 211 0
 538 000e 2046     		mov	r0, r4
 539 0010 FFF7FEFF 		bl	chMtxTryLockS
 540 0014 0446     		mov	r4, r0
 541              	.LVL37:
 542              		.loc 1 213 0
 543 0016 FFF7FEFF 		bl	dbg_check_unlock
 544              	.LVL38:
 545              	.LBB68:
 546 001a 0023     		movs	r3, #0
 547              	.LVL39:
 548              	@ 213 "../chibios_2.4.x/os/kernel/src/chmtx.c" 1
 549 001c 83F31188 		msr     BASEPRI, r3
 550              	@ 0 "" 2
 551              	.LVL40:
 552              		.thumb
 553              	.LBE68:
 554              		.loc 1 215 0
 555 0020 2046     		mov	r0, r4
 556 0022 10BD     		pop	{r4, pc}
 557              		.cfi_endproc
 558              	.LFE10:
 559              		.size	chMtxTryLock, .-chMtxTryLock
 560 0024 AFF30080 		.section	.text.chMtxUnlock,"ax",%progbits
 560      AFF30080 
 560      AFF30080 
 561              		.align	2
ARM GAS  C:\Users\z80\AppData\Local\Temp\cczVfvz8.s 			page 11


 562              		.p2align 4,,15
 563              		.global	chMtxUnlock
 564              		.thumb
 565              		.thumb_func
 566              		.type	chMtxUnlock, %function
 567              	chMtxUnlock:
 568              	.LFB12:
 569              		.loc 1 257 0
 570              		.cfi_startproc
 571              		@ args = 0, pretend = 0, frame = 0
 572              		@ frame_needed = 0, uses_anonymous_args = 0
 573              		.loc 1 258 0
 574 0000 1E4A     		ldr	r2, .L55
 575              		.loc 1 257 0
 576 0002 38B5     		push	{r3, r4, r5, lr}
 577              	.LCFI5:
 578              		.cfi_def_cfa_offset 16
 579              		.loc 1 258 0
 580 0004 D569     		ldr	r5, [r2, #28]
 581              		.cfi_offset 14, -4
 582              		.cfi_offset 5, -8
 583              		.cfi_offset 4, -12
 584              		.cfi_offset 3, -16
 585              	.LVL41:
 586              	.LBB69:
 587              		.loc 1 261 0
 588 0006 2023     		movs	r3, #32
 589              	.LVL42:
 590              	@ 261 "../chibios_2.4.x/os/kernel/src/chmtx.c" 1
 591 0008 83F31188 		msr     BASEPRI, r3
 592              	@ 0 "" 2
 593              	.LVL43:
 594              		.thumb
 595              	.LBE69:
 596 000c FFF7FEFF 		bl	dbg_check_lock
 597              	.LVL44:
 598              		.loc 1 262 0
 599 0010 2C6C     		ldr	r4, [r5, #64]
 600 0012 002C     		cmp	r4, #0
 601 0014 2CD0     		beq	.L54
 602              	.L45:
 603              		.loc 1 265 0
 604 0016 A368     		ldr	r3, [r4, #8]
 605 0018 AB42     		cmp	r3, r5
 606 001a 03D0     		beq	.L46
 607              		.loc 1 265 0 is_stmt 0 discriminator 1
 608 001c 1848     		ldr	r0, .L55+4
 609 001e FFF7FEFF 		bl	chDbgPanic
 610 0022 2C6C     		ldr	r4, [r5, #64]
 611              	.L46:
 612              	.LVL45:
 613              		.loc 1 273 0 is_stmt 1
 614 0024 2068     		ldr	r0, [r4, #0]
 615              		.loc 1 271 0
 616 0026 E368     		ldr	r3, [r4, #12]
 617              		.loc 1 273 0
 618 0028 A042     		cmp	r0, r4
ARM GAS  C:\Users\z80\AppData\Local\Temp\cczVfvz8.s 			page 12


 619              		.loc 1 271 0
 620 002a 2B64     		str	r3, [r5, #64]
 621              		.loc 1 273 0
 622 002c 1DD0     		beq	.L47
 623              	.LBB70:
 624              		.loc 1 278 0
 625 002e 696C     		ldr	r1, [r5, #68]
 626              	.LVL46:
 627              		.loc 1 280 0
 628 0030 4BB1     		cbz	r3, .L48
 629              	.LVL47:
 630              	.L52:
 631              		.loc 1 284 0
 632 0032 1A68     		ldr	r2, [r3, #0]
 633 0034 9A42     		cmp	r2, r3
 634 0036 03D0     		beq	.L49
 635              		.loc 1 284 0 is_stmt 0 discriminator 1
 636 0038 9268     		ldr	r2, [r2, #8]
 637 003a 9142     		cmp	r1, r2
 638 003c 38BF     		it	cc
 639 003e 1146     		movcc	r1, r2
 640              	.LVL48:
 641              	.L49:
 642              		.loc 1 286 0 is_stmt 1
 643 0040 DB68     		ldr	r3, [r3, #12]
 644              	.LVL49:
 645              		.loc 1 280 0
 646 0042 002B     		cmp	r3, #0
 647 0044 F5D1     		bne	.L52
 648              	.L48:
 649              	.LBB71:
 650              	.LBB73:
 651              		.loc 2 62 0
 652 0046 0368     		ldr	r3, [r0, #0]
 653              	.LVL50:
 654              	.LBE73:
 655              	.LBE71:
 656              		.loc 1 295 0
 657 0048 026C     		ldr	r2, [r0, #64]
 658              		.loc 1 290 0
 659 004a A960     		str	r1, [r5, #8]
 660              	.LVL51:
 661              	.LBB75:
 662              	.LBB72:
 663              		.loc 2 62 0
 664 004c 2360     		str	r3, [r4, #0]
 665              	.LBE72:
 666              	.LBE75:
 667              		.loc 1 297 0
 668 004e 0021     		movs	r1, #0
 669              	.LVL52:
 670              	.LBB76:
 671              	.LBB74:
 672              		.loc 2 62 0
 673 0050 5C60     		str	r4, [r3, #4]
 674              	.LBE74:
 675              	.LBE76:
ARM GAS  C:\Users\z80\AppData\Local\Temp\cczVfvz8.s 			page 13


 676              		.loc 1 294 0
 677 0052 A060     		str	r0, [r4, #8]
 678              		.loc 1 295 0
 679 0054 E260     		str	r2, [r4, #12]
 680              		.loc 1 296 0
 681 0056 0464     		str	r4, [r0, #64]
 682              		.loc 1 297 0
 683 0058 FFF7FEFF 		bl	chSchWakeupS
 684              	.LVL53:
 685              	.L51:
 686              	.LBE70:
 687              		.loc 1 301 0
 688 005c FFF7FEFF 		bl	dbg_check_unlock
 689              	.LBB77:
 690 0060 0023     		movs	r3, #0
 691              	.LVL54:
 692              	@ 301 "../chibios_2.4.x/os/kernel/src/chmtx.c" 1
 693 0062 83F31188 		msr     BASEPRI, r3
 694              	@ 0 "" 2
 695              	.LVL55:
 696              		.thumb
 697              	.LBE77:
 698              		.loc 1 303 0
 699 0066 2046     		mov	r0, r4
 700 0068 38BD     		pop	{r3, r4, r5, pc}
 701              	.LVL56:
 702              	.L47:
 703              		.loc 1 300 0
 704 006a 0023     		movs	r3, #0
 705 006c A360     		str	r3, [r4, #8]
 706 006e F5E7     		b	.L51
 707              	.LVL57:
 708              	.L54:
 709              		.loc 1 262 0 discriminator 1
 710 0070 0448     		ldr	r0, .L55+8
 711 0072 FFF7FEFF 		bl	chDbgPanic
 712 0076 2C6C     		ldr	r4, [r5, #64]
 713 0078 CDE7     		b	.L45
 714              	.L56:
 715 007a 00BF     		.align	2
 716              	.L55:
 717 007c 00000000 		.word	rlist
 718 0080 70000000 		.word	.LC6
 719 0084 5C000000 		.word	.LC5
 720              		.cfi_endproc
 721              	.LFE12:
 722              		.size	chMtxUnlock, .-chMtxUnlock
 723 0088 AFF30080 		.section	.text.chMtxUnlockS,"ax",%progbits
 723      AFF30080 
 724              		.align	2
 725              		.p2align 4,,15
 726              		.global	chMtxUnlockS
 727              		.thumb
 728              		.thumb_func
 729              		.type	chMtxUnlockS, %function
 730              	chMtxUnlockS:
 731              	.LFB13:
ARM GAS  C:\Users\z80\AppData\Local\Temp\cczVfvz8.s 			page 14


 732              		.loc 1 317 0
 733              		.cfi_startproc
 734              		@ args = 0, pretend = 0, frame = 0
 735              		@ frame_needed = 0, uses_anonymous_args = 0
 736 0000 38B5     		push	{r3, r4, r5, lr}
 737              	.LCFI6:
 738              		.cfi_def_cfa_offset 16
 739              		.loc 1 318 0
 740 0002 194B     		ldr	r3, .L68
 741              		.cfi_offset 14, -4
 742              		.cfi_offset 5, -8
 743              		.cfi_offset 4, -12
 744              		.cfi_offset 3, -16
 745 0004 DD69     		ldr	r5, [r3, #28]
 746              	.LVL58:
 747              		.loc 1 321 0
 748 0006 FFF7FEFF 		bl	chDbgCheckClassS
 749              	.LVL59:
 750              		.loc 1 322 0
 751 000a 2C6C     		ldr	r4, [r5, #64]
 752 000c 002C     		cmp	r4, #0
 753 000e 26D0     		beq	.L67
 754              	.L58:
 755              		.loc 1 325 0
 756 0010 A368     		ldr	r3, [r4, #8]
 757 0012 AB42     		cmp	r3, r5
 758 0014 03D0     		beq	.L59
 759              		.loc 1 325 0 is_stmt 0 discriminator 1
 760 0016 1548     		ldr	r0, .L68+4
 761 0018 FFF7FEFF 		bl	chDbgPanic
 762 001c 2C6C     		ldr	r4, [r5, #64]
 763              	.L59:
 764              	.LVL60:
 765              		.loc 1 334 0 is_stmt 1
 766 001e 2068     		ldr	r0, [r4, #0]
 767              		.loc 1 332 0
 768 0020 E368     		ldr	r3, [r4, #12]
 769              		.loc 1 334 0
 770 0022 A042     		cmp	r0, r4
 771              		.loc 1 332 0
 772 0024 2B64     		str	r3, [r5, #64]
 773              		.loc 1 334 0
 774 0026 17D0     		beq	.L60
 775              	.LBB78:
 776              		.loc 1 339 0
 777 0028 696C     		ldr	r1, [r5, #68]
 778              	.LVL61:
 779              		.loc 1 341 0
 780 002a 4BB1     		cbz	r3, .L61
 781              	.LVL62:
 782              	.L65:
 783              		.loc 1 345 0
 784 002c 1A68     		ldr	r2, [r3, #0]
 785 002e 9A42     		cmp	r2, r3
 786 0030 03D0     		beq	.L62
 787              		.loc 1 345 0 is_stmt 0 discriminator 1
 788 0032 9268     		ldr	r2, [r2, #8]
ARM GAS  C:\Users\z80\AppData\Local\Temp\cczVfvz8.s 			page 15


 789 0034 9142     		cmp	r1, r2
 790 0036 38BF     		it	cc
 791 0038 1146     		movcc	r1, r2
 792              	.LVL63:
 793              	.L62:
 794              		.loc 1 347 0 is_stmt 1
 795 003a DB68     		ldr	r3, [r3, #12]
 796              	.LVL64:
 797              		.loc 1 341 0
 798 003c 002B     		cmp	r3, #0
 799 003e F5D1     		bne	.L65
 800              	.L61:
 801              	.LBB79:
 802              	.LBB80:
 803              		.loc 2 62 0
 804 0040 0368     		ldr	r3, [r0, #0]
 805              	.LVL65:
 806              	.LBE80:
 807              	.LBE79:
 808              		.loc 1 354 0
 809 0042 026C     		ldr	r2, [r0, #64]
 810              		.loc 1 349 0
 811 0044 A960     		str	r1, [r5, #8]
 812              	.LVL66:
 813              	.LBB82:
 814              	.LBB81:
 815              		.loc 2 62 0
 816 0046 2360     		str	r3, [r4, #0]
 817 0048 5C60     		str	r4, [r3, #4]
 818              	.LBE81:
 819              	.LBE82:
 820              		.loc 1 353 0
 821 004a A060     		str	r0, [r4, #8]
 822              		.loc 1 354 0
 823 004c E260     		str	r2, [r4, #12]
 824              		.loc 1 355 0
 825 004e 0464     		str	r4, [r0, #64]
 826              		.loc 1 356 0
 827 0050 FFF7FEFF 		bl	chSchReadyI
 828              	.LVL67:
 829              	.L64:
 830              	.LBE78:
 831              		.loc 1 361 0
 832 0054 2046     		mov	r0, r4
 833 0056 38BD     		pop	{r3, r4, r5, pc}
 834              	.L60:
 835              		.loc 1 359 0
 836 0058 0023     		movs	r3, #0
 837 005a A360     		str	r3, [r4, #8]
 838 005c FAE7     		b	.L64
 839              	.LVL68:
 840              	.L67:
 841              		.loc 1 322 0 discriminator 1
 842 005e 0448     		ldr	r0, .L68+8
 843 0060 FFF7FEFF 		bl	chDbgPanic
 844 0064 2C6C     		ldr	r4, [r5, #64]
 845 0066 D3E7     		b	.L58
ARM GAS  C:\Users\z80\AppData\Local\Temp\cczVfvz8.s 			page 16


 846              	.L69:
 847              		.align	2
 848              	.L68:
 849 0068 00000000 		.word	rlist
 850 006c 98000000 		.word	.LC8
 851 0070 84000000 		.word	.LC7
 852              		.cfi_endproc
 853              	.LFE13:
 854              		.size	chMtxUnlockS, .-chMtxUnlockS
 855 0074 AFF30080 		.section	.text.chMtxUnlockAll,"ax",%progbits
 855      AFF30080 
 855      AFF30080 
 856              		.align	2
 857              		.p2align 4,,15
 858              		.global	chMtxUnlockAll
 859              		.thumb
 860              		.thumb_func
 861              		.type	chMtxUnlockAll, %function
 862              	chMtxUnlockAll:
 863              	.LFB14:
 864              		.loc 1 374 0
 865              		.cfi_startproc
 866              		@ args = 0, pretend = 0, frame = 0
 867              		@ frame_needed = 0, uses_anonymous_args = 0
 868              		.loc 1 375 0
 869 0000 154A     		ldr	r2, .L77
 870              		.loc 1 374 0
 871 0002 38B5     		push	{r3, r4, r5, lr}
 872              	.LCFI7:
 873              		.cfi_def_cfa_offset 16
 874              		.loc 1 375 0
 875 0004 D469     		ldr	r4, [r2, #28]
 876              		.cfi_offset 14, -4
 877              		.cfi_offset 5, -8
 878              		.cfi_offset 4, -12
 879              		.cfi_offset 3, -16
 880              	.LVL69:
 881              	.LBB83:
 882              		.loc 1 377 0
 883 0006 2023     		movs	r3, #32
 884              	.LVL70:
 885              	@ 377 "../chibios_2.4.x/os/kernel/src/chmtx.c" 1
 886 0008 83F31188 		msr     BASEPRI, r3
 887              	@ 0 "" 2
 888              	.LVL71:
 889              		.thumb
 890              	.LBE83:
 891 000c FFF7FEFF 		bl	dbg_check_lock
 892              	.LVL72:
 893              		.loc 1 378 0
 894 0010 236C     		ldr	r3, [r4, #64]
 895 0012 DBB1     		cbz	r3, .L71
 896              	.LBB84:
 897              		.loc 1 390 0
 898 0014 0025     		movs	r5, #0
 899              	.L75:
 900              	.LVL73:
ARM GAS  C:\Users\z80\AppData\Local\Temp\cczVfvz8.s 			page 17


 901              		.loc 1 382 0
 902 0016 1A68     		ldr	r2, [r3, #0]
 903              		.loc 1 381 0
 904 0018 D968     		ldr	r1, [r3, #12]
 905              		.loc 1 382 0
 906 001a 9A42     		cmp	r2, r3
 907              		.loc 1 381 0
 908 001c 2164     		str	r1, [r4, #64]
 909              	.LBB85:
 910              		.loc 1 387 0
 911 001e 1046     		mov	r0, r2
 912              	.LBE85:
 913              		.loc 1 390 0
 914 0020 04BF     		itt	eq
 915 0022 9D60     		streq	r5, [r3, #8]
 916 0024 0B46     		moveq	r3, r1
 917              	.LVL74:
 918              		.loc 1 382 0
 919 0026 0BD0     		beq	.L73
 920              	.LVL75:
 921              	.LBB90:
 922              	.LBB86:
 923              	.LBB87:
 924              		.loc 2 62 0
 925 0028 1168     		ldr	r1, [r2, #0]
 926              	.LBE87:
 927              	.LBE86:
 928              		.loc 1 385 0
 929 002a D2F840C0 		ldr	ip, [r2, #64]
 930              	.LBB89:
 931              	.LBB88:
 932              		.loc 2 62 0
 933 002e 1960     		str	r1, [r3, #0]
 934 0030 4B60     		str	r3, [r1, #4]
 935              	.LBE88:
 936              	.LBE89:
 937              		.loc 1 384 0
 938 0032 9A60     		str	r2, [r3, #8]
 939              		.loc 1 385 0
 940 0034 C3F80CC0 		str	ip, [r3, #12]
 941              		.loc 1 386 0
 942 0038 1364     		str	r3, [r2, #64]
 943              		.loc 1 387 0
 944 003a FFF7FEFF 		bl	chSchReadyI
 945              	.LVL76:
 946 003e 236C     		ldr	r3, [r4, #64]
 947              	.LVL77:
 948              	.L73:
 949              	.LBE90:
 950              	.LBE84:
 951              		.loc 1 391 0
 952 0040 002B     		cmp	r3, #0
 953 0042 E8D1     		bne	.L75
 954              		.loc 1 392 0
 955 0044 636C     		ldr	r3, [r4, #68]
 956 0046 A360     		str	r3, [r4, #8]
 957              		.loc 1 393 0
ARM GAS  C:\Users\z80\AppData\Local\Temp\cczVfvz8.s 			page 18


 958 0048 FFF7FEFF 		bl	chSchRescheduleS
 959              	.L71:
 960              		.loc 1 395 0
 961 004c FFF7FEFF 		bl	dbg_check_unlock
 962              	.LBB91:
 963 0050 0023     		movs	r3, #0
 964              	.LVL78:
 965              	@ 395 "../chibios_2.4.x/os/kernel/src/chmtx.c" 1
 966 0052 83F31188 		msr     BASEPRI, r3
 967              	@ 0 "" 2
 968              	.LVL79:
 969              		.thumb
 970              	.LBE91:
 971              		.loc 1 396 0
 972 0056 38BD     		pop	{r3, r4, r5, pc}
 973              	.L78:
 974              		.align	2
 975              	.L77:
 976 0058 00000000 		.word	rlist
 977              		.cfi_endproc
 978              	.LFE14:
 979              		.size	chMtxUnlockAll, .-chMtxUnlockAll
 980 005c AFF30080 		.section	.rodata.str1.4,"aMS",%progbits,1
 981              		.align	2
 982              	.LC0:
 983 0000 2263684D 		.ascii	"\"chMtxInit\"()\000"
 983      7478496E 
 983      69742228 
 983      2900
 984 000e 0000     		.space	2
 985              	.LC1:
 986 0010 2263684D 		.ascii	"\"chMtxLockS\"()\000"
 986      74784C6F 
 986      636B5322 
 986      282900
 987 001f 00       		.space	1
 988              	.LC2:
 989 0020 63684D74 		.ascii	"chMtxLockS(), #1\000"
 989      784C6F63 
 989      6B532829 
 989      2C202331 
 989      00
 990 0031 000000   		.space	3
 991              	.LC3:
 992 0034 63684D74 		.ascii	"chMtxLockS(), #2\000"
 992      784C6F63 
 992      6B532829 
 992      2C202332 
 992      00
 993 0045 000000   		.space	3
 994              	.LC4:
 995 0048 2263684D 		.ascii	"\"chMtxTryLockS\"()\000"
 995      74785472 
 995      794C6F63 
 995      6B532228 
 995      2900
 996 005a 0000     		.space	2
ARM GAS  C:\Users\z80\AppData\Local\Temp\cczVfvz8.s 			page 19


 997              	.LC5:
 998 005c 63684D74 		.ascii	"chMtxUnlock(), #1\000"
 998      78556E6C 
 998      6F636B28 
 998      292C2023 
 998      3100
 999 006e 0000     		.space	2
 1000              	.LC6:
 1001 0070 63684D74 		.ascii	"chMtxUnlock(), #2\000"
 1001      78556E6C 
 1001      6F636B28 
 1001      292C2023 
 1001      3200
 1002 0082 0000     		.space	2
 1003              	.LC7:
 1004 0084 63684D74 		.ascii	"chMtxUnlockS(), #1\000"
 1004      78556E6C 
 1004      6F636B53 
 1004      28292C20 
 1004      233100
 1005 0097 00       		.space	1
 1006              	.LC8:
 1007 0098 63684D74 		.ascii	"chMtxUnlockS(), #2\000"
 1007      78556E6C 
 1007      6F636B53 
 1007      28292C20 
 1007      233200
 1008 00ab 00       		.text
 1009              	.Letext0:
 1010              		.section	.debug_loc,"",%progbits
 1011              	.Ldebug_loc0:
 1012              	.LLST0:
 1013 0000 00000000 		.4byte	.LFB7
 1014 0004 02000000 		.4byte	.LCFI0
 1015 0008 0200     		.2byte	0x2
 1016 000a 7D       		.byte	0x7d
 1017 000b 00       		.sleb128 0
 1018 000c 02000000 		.4byte	.LCFI0
 1019 0010 1C000000 		.4byte	.LFE7
 1020 0014 0200     		.2byte	0x2
 1021 0016 7D       		.byte	0x7d
 1022 0017 08       		.sleb128 8
 1023 0018 00000000 		.4byte	0x0
 1024 001c 00000000 		.4byte	0x0
 1025              	.LLST1:
 1026 0020 00000000 		.4byte	.LVL0
 1027 0024 06000000 		.4byte	.LVL1
 1028 0028 0100     		.2byte	0x1
 1029 002a 50       		.byte	0x50
 1030 002b 06000000 		.4byte	.LVL1
 1031 002f 1C000000 		.4byte	.LFE7
 1032 0033 0100     		.2byte	0x1
 1033 0035 54       		.byte	0x54
 1034 0036 00000000 		.4byte	0x0
 1035 003a 00000000 		.4byte	0x0
 1036              	.LLST2:
 1037 003e 00000000 		.4byte	.LFB9
ARM GAS  C:\Users\z80\AppData\Local\Temp\cczVfvz8.s 			page 20


 1038 0042 02000000 		.4byte	.LCFI1
 1039 0046 0200     		.2byte	0x2
 1040 0048 7D       		.byte	0x7d
 1041 0049 00       		.sleb128 0
 1042 004a 02000000 		.4byte	.LCFI1
 1043 004e 08010000 		.4byte	.LFE9
 1044 0052 0200     		.2byte	0x2
 1045 0054 7D       		.byte	0x7d
 1046 0055 10       		.sleb128 16
 1047 0056 00000000 		.4byte	0x0
 1048 005a 00000000 		.4byte	0x0
 1049              	.LLST3:
 1050 005e 00000000 		.4byte	.LVL2
 1051 0062 0B000000 		.4byte	.LVL4-1
 1052 0066 0100     		.2byte	0x1
 1053 0068 50       		.byte	0x50
 1054 0069 0B000000 		.4byte	.LVL4-1
 1055 006d 08010000 		.4byte	.LFE9
 1056 0071 0100     		.2byte	0x1
 1057 0073 55       		.byte	0x55
 1058 0074 00000000 		.4byte	0x0
 1059 0078 00000000 		.4byte	0x0
 1060              	.LLST4:
 1061 007c 08000000 		.4byte	.LVL3
 1062 0080 0B000000 		.4byte	.LVL4-1
 1063 0084 0200     		.2byte	0x2
 1064 0086 73       		.byte	0x73
 1065 0087 1C       		.sleb128 28
 1066 0088 0B000000 		.4byte	.LVL4-1
 1067 008c 08010000 		.4byte	.LFE9
 1068 0090 0100     		.2byte	0x1
 1069 0092 54       		.byte	0x54
 1070 0093 00000000 		.4byte	0x0
 1071 0097 00000000 		.4byte	0x0
 1072              	.LLST5:
 1073 009b 16000000 		.4byte	.LVL5
 1074 009f 1E000000 		.4byte	.LVL6
 1075 00a3 0200     		.2byte	0x2
 1076 00a5 75       		.byte	0x75
 1077 00a6 08       		.sleb128 8
 1078 00a7 1E000000 		.4byte	.LVL6
 1079 00ab 30000000 		.4byte	.LVL7
 1080 00af 0100     		.2byte	0x1
 1081 00b1 50       		.byte	0x50
 1082 00b2 6C000000 		.4byte	.LVL12
 1083 00b6 7F000000 		.4byte	.LVL14-1
 1084 00ba 0100     		.2byte	0x1
 1085 00bc 50       		.byte	0x50
 1086 00bd 82000000 		.4byte	.LVL15
 1087 00c1 DC000000 		.4byte	.LVL22
 1088 00c5 0100     		.2byte	0x1
 1089 00c7 50       		.byte	0x50
 1090 00c8 DC000000 		.4byte	.LVL22
 1091 00cc E6000000 		.4byte	.LVL24
 1092 00d0 0200     		.2byte	0x2
 1093 00d2 7C       		.byte	0x7c
 1094 00d3 08       		.sleb128 8
ARM GAS  C:\Users\z80\AppData\Local\Temp\cczVfvz8.s 			page 21


 1095 00d4 00000000 		.4byte	0x0
 1096 00d8 00000000 		.4byte	0x0
 1097              	.LLST6:
 1098 00dc 30000000 		.4byte	.LVL7
 1099 00e0 6A000000 		.4byte	.LVL11
 1100 00e4 0100     		.2byte	0x1
 1101 00e6 55       		.byte	0x55
 1102 00e7 00000000 		.4byte	0x0
 1103 00eb 00000000 		.4byte	0x0
 1104              	.LLST7:
 1105 00ef 30000000 		.4byte	.LVL7
 1106 00f3 6A000000 		.4byte	.LVL11
 1107 00f7 0100     		.2byte	0x1
 1108 00f9 54       		.byte	0x54
 1109 00fa 00000000 		.4byte	0x0
 1110 00fe 00000000 		.4byte	0x0
 1111              	.LLST8:
 1112 0102 30000000 		.4byte	.LVL7
 1113 0106 32000000 		.4byte	.LVL8
 1114 010a 0100     		.2byte	0x1
 1115 010c 55       		.byte	0x55
 1116 010d 32000000 		.4byte	.LVL8
 1117 0111 34000000 		.4byte	.LVL9
 1118 0115 0100     		.2byte	0x1
 1119 0117 53       		.byte	0x53
 1120 0118 34000000 		.4byte	.LVL9
 1121 011c 51000000 		.4byte	.LVL10-1
 1122 0120 0100     		.2byte	0x1
 1123 0122 53       		.byte	0x53
 1124 0123 00000000 		.4byte	0x0
 1125 0127 00000000 		.4byte	0x0
 1126              	.LLST9:
 1127 012b 7A000000 		.4byte	.LVL13
 1128 012f 7F000000 		.4byte	.LVL14-1
 1129 0133 0100     		.2byte	0x1
 1130 0135 50       		.byte	0x50
 1131 0136 00000000 		.4byte	0x0
 1132 013a 00000000 		.4byte	0x0
 1133              	.LLST10:
 1134 013e 82000000 		.4byte	.LVL15
 1135 0142 AE000000 		.4byte	.LVL18
 1136 0146 0100     		.2byte	0x1
 1137 0148 50       		.byte	0x50
 1138 0149 00000000 		.4byte	0x0
 1139 014d 00000000 		.4byte	0x0
 1140              	.LLST11:
 1141 0151 96000000 		.4byte	.LVL16
 1142 0155 AE000000 		.4byte	.LVL18
 1143 0159 0200     		.2byte	0x2
 1144 015b 70       		.byte	0x70
 1145 015c 28       		.sleb128 40
 1146 015d 00000000 		.4byte	0x0
 1147 0161 00000000 		.4byte	0x0
 1148              	.LLST12:
 1149 0165 96000000 		.4byte	.LVL16
 1150 0169 AE000000 		.4byte	.LVL18
 1151 016d 0100     		.2byte	0x1
ARM GAS  C:\Users\z80\AppData\Local\Temp\cczVfvz8.s 			page 22


 1152 016f 50       		.byte	0x50
 1153 0170 00000000 		.4byte	0x0
 1154 0174 00000000 		.4byte	0x0
 1155              	.LLST13:
 1156 0178 96000000 		.4byte	.LVL16
 1157 017c 98000000 		.4byte	.LVL17
 1158 0180 0100     		.2byte	0x1
 1159 0182 53       		.byte	0x53
 1160 0183 98000000 		.4byte	.LVL17
 1161 0187 AE000000 		.4byte	.LVL18
 1162 018b 0100     		.2byte	0x1
 1163 018d 53       		.byte	0x53
 1164 018e 00000000 		.4byte	0x0
 1165 0192 00000000 		.4byte	0x0
 1166              	.LLST14:
 1167 0196 AE000000 		.4byte	.LVL18
 1168 019a DC000000 		.4byte	.LVL22
 1169 019e 0100     		.2byte	0x1
 1170 01a0 50       		.byte	0x50
 1171 01a1 DC000000 		.4byte	.LVL22
 1172 01a5 E0000000 		.4byte	.LVL23
 1173 01a9 0200     		.2byte	0x2
 1174 01ab 73       		.byte	0x73
 1175 01ac 04       		.sleb128 4
 1176 01ad 00000000 		.4byte	0x0
 1177 01b1 00000000 		.4byte	0x0
 1178              	.LLST15:
 1179 01b5 B6000000 		.4byte	.LVL19
 1180 01b9 DC000000 		.4byte	.LVL22
 1181 01bd 0200     		.2byte	0x2
 1182 01bf 70       		.byte	0x70
 1183 01c0 28       		.sleb128 40
 1184 01c1 DC000000 		.4byte	.LVL22
 1185 01c5 E6000000 		.4byte	.LVL24
 1186 01c9 0100     		.2byte	0x1
 1187 01cb 5C       		.byte	0x5c
 1188 01cc 00000000 		.4byte	0x0
 1189 01d0 00000000 		.4byte	0x0
 1190              	.LLST16:
 1191 01d4 B6000000 		.4byte	.LVL19
 1192 01d8 DC000000 		.4byte	.LVL22
 1193 01dc 0100     		.2byte	0x1
 1194 01de 50       		.byte	0x50
 1195 01df DC000000 		.4byte	.LVL22
 1196 01e3 E0000000 		.4byte	.LVL23
 1197 01e7 0200     		.2byte	0x2
 1198 01e9 73       		.byte	0x73
 1199 01ea 04       		.sleb128 4
 1200 01eb 00000000 		.4byte	0x0
 1201 01ef 00000000 		.4byte	0x0
 1202              	.LLST17:
 1203 01f3 B6000000 		.4byte	.LVL19
 1204 01f7 C2000000 		.4byte	.LVL20
 1205 01fb 0200     		.2byte	0x2
 1206 01fd 70       		.byte	0x70
 1207 01fe 28       		.sleb128 40
 1208 01ff C2000000 		.4byte	.LVL20
ARM GAS  C:\Users\z80\AppData\Local\Temp\cczVfvz8.s 			page 23


 1209 0203 C4000000 		.4byte	.LVL21
 1210 0207 0100     		.2byte	0x1
 1211 0209 53       		.byte	0x53
 1212 020a C4000000 		.4byte	.LVL21
 1213 020e E0000000 		.4byte	.LVL23
 1214 0212 0100     		.2byte	0x1
 1215 0214 53       		.byte	0x53
 1216 0215 00000000 		.4byte	0x0
 1217 0219 00000000 		.4byte	0x0
 1218              	.LLST18:
 1219 021d 00000000 		.4byte	.LFB8
 1220 0221 02000000 		.4byte	.LCFI2
 1221 0225 0200     		.2byte	0x2
 1222 0227 7D       		.byte	0x7d
 1223 0228 00       		.sleb128 0
 1224 0229 02000000 		.4byte	.LCFI2
 1225 022d 20000000 		.4byte	.LFE8
 1226 0231 0200     		.2byte	0x2
 1227 0233 7D       		.byte	0x7d
 1228 0234 08       		.sleb128 8
 1229 0235 00000000 		.4byte	0x0
 1230 0239 00000000 		.4byte	0x0
 1231              	.LLST19:
 1232 023d 00000000 		.4byte	.LVL25
 1233 0241 0D000000 		.4byte	.LVL28-1
 1234 0245 0100     		.2byte	0x1
 1235 0247 50       		.byte	0x50
 1236 0248 0D000000 		.4byte	.LVL28-1
 1237 024c 20000000 		.4byte	.LFE8
 1238 0250 0100     		.2byte	0x1
 1239 0252 54       		.byte	0x54
 1240 0253 00000000 		.4byte	0x0
 1241 0257 00000000 		.4byte	0x0
 1242              	.LLST20:
 1243 025b 0A000000 		.4byte	.LVL27
 1244 025f 0D000000 		.4byte	.LVL28-1
 1245 0263 0100     		.2byte	0x1
 1246 0265 53       		.byte	0x53
 1247 0266 00000000 		.4byte	0x0
 1248 026a 00000000 		.4byte	0x0
 1249              	.LLST21:
 1250 026e 1E000000 		.4byte	.LVL30
 1251 0272 20000000 		.4byte	.LFE8
 1252 0276 0100     		.2byte	0x1
 1253 0278 53       		.byte	0x53
 1254 0279 00000000 		.4byte	0x0
 1255 027d 00000000 		.4byte	0x0
 1256              	.LLST22:
 1257 0281 00000000 		.4byte	.LFB11
 1258 0285 02000000 		.4byte	.LCFI3
 1259 0289 0200     		.2byte	0x2
 1260 028b 7D       		.byte	0x7d
 1261 028c 00       		.sleb128 0
 1262 028d 02000000 		.4byte	.LCFI3
 1263 0291 34000000 		.4byte	.LFE11
 1264 0295 0200     		.2byte	0x2
 1265 0297 7D       		.byte	0x7d
ARM GAS  C:\Users\z80\AppData\Local\Temp\cczVfvz8.s 			page 24


 1266 0298 08       		.sleb128 8
 1267 0299 00000000 		.4byte	0x0
 1268 029d 00000000 		.4byte	0x0
 1269              	.LLST23:
 1270 02a1 00000000 		.4byte	.LVL31
 1271 02a5 07000000 		.4byte	.LVL32-1
 1272 02a9 0100     		.2byte	0x1
 1273 02ab 50       		.byte	0x50
 1274 02ac 07000000 		.4byte	.LVL32-1
 1275 02b0 34000000 		.4byte	.LFE11
 1276 02b4 0100     		.2byte	0x1
 1277 02b6 54       		.byte	0x54
 1278 02b7 00000000 		.4byte	0x0
 1279 02bb 00000000 		.4byte	0x0
 1280              	.LLST24:
 1281 02bf 00000000 		.4byte	.LFB10
 1282 02c3 02000000 		.4byte	.LCFI4
 1283 02c7 0200     		.2byte	0x2
 1284 02c9 7D       		.byte	0x7d
 1285 02ca 00       		.sleb128 0
 1286 02cb 02000000 		.4byte	.LCFI4
 1287 02cf 24000000 		.4byte	.LFE10
 1288 02d3 0200     		.2byte	0x2
 1289 02d5 7D       		.byte	0x7d
 1290 02d6 08       		.sleb128 8
 1291 02d7 00000000 		.4byte	0x0
 1292 02db 00000000 		.4byte	0x0
 1293              	.LLST25:
 1294 02df 00000000 		.4byte	.LVL33
 1295 02e3 0D000000 		.4byte	.LVL36-1
 1296 02e7 0100     		.2byte	0x1
 1297 02e9 50       		.byte	0x50
 1298 02ea 0D000000 		.4byte	.LVL36-1
 1299 02ee 16000000 		.4byte	.LVL37
 1300 02f2 0100     		.2byte	0x1
 1301 02f4 54       		.byte	0x54
 1302 02f5 00000000 		.4byte	0x0
 1303 02f9 00000000 		.4byte	0x0
 1304              	.LLST26:
 1305 02fd 16000000 		.4byte	.LVL37
 1306 0301 19000000 		.4byte	.LVL38-1
 1307 0305 0100     		.2byte	0x1
 1308 0307 50       		.byte	0x50
 1309 0308 19000000 		.4byte	.LVL38-1
 1310 030c 24000000 		.4byte	.LFE10
 1311 0310 0100     		.2byte	0x1
 1312 0312 54       		.byte	0x54
 1313 0313 00000000 		.4byte	0x0
 1314 0317 00000000 		.4byte	0x0
 1315              	.LLST27:
 1316 031b 0A000000 		.4byte	.LVL35
 1317 031f 0D000000 		.4byte	.LVL36-1
 1318 0323 0100     		.2byte	0x1
 1319 0325 53       		.byte	0x53
 1320 0326 00000000 		.4byte	0x0
 1321 032a 00000000 		.4byte	0x0
 1322              	.LLST28:
ARM GAS  C:\Users\z80\AppData\Local\Temp\cczVfvz8.s 			page 25


 1323 032e 20000000 		.4byte	.LVL40
 1324 0332 24000000 		.4byte	.LFE10
 1325 0336 0100     		.2byte	0x1
 1326 0338 53       		.byte	0x53
 1327 0339 00000000 		.4byte	0x0
 1328 033d 00000000 		.4byte	0x0
 1329              	.LLST29:
 1330 0341 00000000 		.4byte	.LFB12
 1331 0345 04000000 		.4byte	.LCFI5
 1332 0349 0200     		.2byte	0x2
 1333 034b 7D       		.byte	0x7d
 1334 034c 00       		.sleb128 0
 1335 034d 04000000 		.4byte	.LCFI5
 1336 0351 88000000 		.4byte	.LFE12
 1337 0355 0200     		.2byte	0x2
 1338 0357 7D       		.byte	0x7d
 1339 0358 10       		.sleb128 16
 1340 0359 00000000 		.4byte	0x0
 1341 035d 00000000 		.4byte	0x0
 1342              	.LLST30:
 1343 0361 06000000 		.4byte	.LVL41
 1344 0365 0F000000 		.4byte	.LVL44-1
 1345 0369 0200     		.2byte	0x2
 1346 036b 72       		.byte	0x72
 1347 036c 1C       		.sleb128 28
 1348 036d 0F000000 		.4byte	.LVL44-1
 1349 0371 88000000 		.4byte	.LFE12
 1350 0375 0100     		.2byte	0x1
 1351 0377 55       		.byte	0x55
 1352 0378 00000000 		.4byte	0x0
 1353 037c 00000000 		.4byte	0x0
 1354              	.LLST31:
 1355 0380 24000000 		.4byte	.LVL45
 1356 0384 70000000 		.4byte	.LVL57
 1357 0388 0100     		.2byte	0x1
 1358 038a 54       		.byte	0x54
 1359 038b 00000000 		.4byte	0x0
 1360 038f 00000000 		.4byte	0x0
 1361              	.LLST32:
 1362 0393 30000000 		.4byte	.LVL46
 1363 0397 32000000 		.4byte	.LVL47
 1364 039b 0200     		.2byte	0x2
 1365 039d 74       		.byte	0x74
 1366 039e 0C       		.sleb128 12
 1367 039f 32000000 		.4byte	.LVL47
 1368 03a3 42000000 		.4byte	.LVL49
 1369 03a7 0100     		.2byte	0x1
 1370 03a9 53       		.byte	0x53
 1371 03aa 42000000 		.4byte	.LVL49
 1372 03ae 48000000 		.4byte	.LVL50
 1373 03b2 0100     		.2byte	0x1
 1374 03b4 53       		.byte	0x53
 1375 03b5 00000000 		.4byte	0x0
 1376 03b9 00000000 		.4byte	0x0
 1377              	.LLST33:
 1378 03bd 0C000000 		.4byte	.LVL43
 1379 03c1 0F000000 		.4byte	.LVL44-1
ARM GAS  C:\Users\z80\AppData\Local\Temp\cczVfvz8.s 			page 26


 1380 03c5 0100     		.2byte	0x1
 1381 03c7 53       		.byte	0x53
 1382 03c8 00000000 		.4byte	0x0
 1383 03cc 00000000 		.4byte	0x0
 1384              	.LLST34:
 1385 03d0 30000000 		.4byte	.LVL46
 1386 03d4 32000000 		.4byte	.LVL47
 1387 03d8 0300     		.2byte	0x3
 1388 03da 75       		.byte	0x75
 1389 03db C400     		.sleb128 68
 1390 03dd 32000000 		.4byte	.LVL47
 1391 03e1 40000000 		.4byte	.LVL48
 1392 03e5 0100     		.2byte	0x1
 1393 03e7 51       		.byte	0x51
 1394 03e8 40000000 		.4byte	.LVL48
 1395 03ec 50000000 		.4byte	.LVL52
 1396 03f0 0100     		.2byte	0x1
 1397 03f2 51       		.byte	0x51
 1398 03f3 50000000 		.4byte	.LVL52
 1399 03f7 5B000000 		.4byte	.LVL53-1
 1400 03fb 0200     		.2byte	0x2
 1401 03fd 75       		.byte	0x75
 1402 03fe 08       		.sleb128 8
 1403 03ff 00000000 		.4byte	0x0
 1404 0403 00000000 		.4byte	0x0
 1405              	.LLST35:
 1406 0407 4C000000 		.4byte	.LVL51
 1407 040b 5C000000 		.4byte	.LVL53
 1408 040f 0100     		.2byte	0x1
 1409 0411 54       		.byte	0x54
 1410 0412 00000000 		.4byte	0x0
 1411 0416 00000000 		.4byte	0x0
 1412              	.LLST36:
 1413 041a 4C000000 		.4byte	.LVL51
 1414 041e 5B000000 		.4byte	.LVL53-1
 1415 0422 0200     		.2byte	0x2
 1416 0424 74       		.byte	0x74
 1417 0425 00       		.sleb128 0
 1418 0426 00000000 		.4byte	0x0
 1419 042a 00000000 		.4byte	0x0
 1420              	.LLST37:
 1421 042e 66000000 		.4byte	.LVL55
 1422 0432 6A000000 		.4byte	.LVL56
 1423 0436 0100     		.2byte	0x1
 1424 0438 53       		.byte	0x53
 1425 0439 00000000 		.4byte	0x0
 1426 043d 00000000 		.4byte	0x0
 1427              	.LLST38:
 1428 0441 00000000 		.4byte	.LFB13
 1429 0445 02000000 		.4byte	.LCFI6
 1430 0449 0200     		.2byte	0x2
 1431 044b 7D       		.byte	0x7d
 1432 044c 00       		.sleb128 0
 1433 044d 02000000 		.4byte	.LCFI6
 1434 0451 74000000 		.4byte	.LFE13
 1435 0455 0200     		.2byte	0x2
 1436 0457 7D       		.byte	0x7d
ARM GAS  C:\Users\z80\AppData\Local\Temp\cczVfvz8.s 			page 27


 1437 0458 10       		.sleb128 16
 1438 0459 00000000 		.4byte	0x0
 1439 045d 00000000 		.4byte	0x0
 1440              	.LLST39:
 1441 0461 06000000 		.4byte	.LVL58
 1442 0465 09000000 		.4byte	.LVL59-1
 1443 0469 0200     		.2byte	0x2
 1444 046b 73       		.byte	0x73
 1445 046c 1C       		.sleb128 28
 1446 046d 09000000 		.4byte	.LVL59-1
 1447 0471 74000000 		.4byte	.LFE13
 1448 0475 0100     		.2byte	0x1
 1449 0477 55       		.byte	0x55
 1450 0478 00000000 		.4byte	0x0
 1451 047c 00000000 		.4byte	0x0
 1452              	.LLST40:
 1453 0480 1E000000 		.4byte	.LVL60
 1454 0484 5E000000 		.4byte	.LVL68
 1455 0488 0100     		.2byte	0x1
 1456 048a 54       		.byte	0x54
 1457 048b 00000000 		.4byte	0x0
 1458 048f 00000000 		.4byte	0x0
 1459              	.LLST41:
 1460 0493 2A000000 		.4byte	.LVL61
 1461 0497 2C000000 		.4byte	.LVL62
 1462 049b 0200     		.2byte	0x2
 1463 049d 74       		.byte	0x74
 1464 049e 0C       		.sleb128 12
 1465 049f 2C000000 		.4byte	.LVL62
 1466 04a3 3C000000 		.4byte	.LVL64
 1467 04a7 0100     		.2byte	0x1
 1468 04a9 53       		.byte	0x53
 1469 04aa 3C000000 		.4byte	.LVL64
 1470 04ae 42000000 		.4byte	.LVL65
 1471 04b2 0100     		.2byte	0x1
 1472 04b4 53       		.byte	0x53
 1473 04b5 00000000 		.4byte	0x0
 1474 04b9 00000000 		.4byte	0x0
 1475              	.LLST42:
 1476 04bd 2A000000 		.4byte	.LVL61
 1477 04c1 2C000000 		.4byte	.LVL62
 1478 04c5 0300     		.2byte	0x3
 1479 04c7 75       		.byte	0x75
 1480 04c8 C400     		.sleb128 68
 1481 04ca 2C000000 		.4byte	.LVL62
 1482 04ce 3A000000 		.4byte	.LVL63
 1483 04d2 0100     		.2byte	0x1
 1484 04d4 51       		.byte	0x51
 1485 04d5 3A000000 		.4byte	.LVL63
 1486 04d9 53000000 		.4byte	.LVL67-1
 1487 04dd 0100     		.2byte	0x1
 1488 04df 51       		.byte	0x51
 1489 04e0 00000000 		.4byte	0x0
 1490 04e4 00000000 		.4byte	0x0
 1491              	.LLST43:
 1492 04e8 46000000 		.4byte	.LVL66
 1493 04ec 54000000 		.4byte	.LVL67
ARM GAS  C:\Users\z80\AppData\Local\Temp\cczVfvz8.s 			page 28


 1494 04f0 0100     		.2byte	0x1
 1495 04f2 54       		.byte	0x54
 1496 04f3 00000000 		.4byte	0x0
 1497 04f7 00000000 		.4byte	0x0
 1498              	.LLST44:
 1499 04fb 46000000 		.4byte	.LVL66
 1500 04ff 53000000 		.4byte	.LVL67-1
 1501 0503 0200     		.2byte	0x2
 1502 0505 74       		.byte	0x74
 1503 0506 00       		.sleb128 0
 1504 0507 00000000 		.4byte	0x0
 1505 050b 00000000 		.4byte	0x0
 1506              	.LLST45:
 1507 050f 00000000 		.4byte	.LFB14
 1508 0513 04000000 		.4byte	.LCFI7
 1509 0517 0200     		.2byte	0x2
 1510 0519 7D       		.byte	0x7d
 1511 051a 00       		.sleb128 0
 1512 051b 04000000 		.4byte	.LCFI7
 1513 051f 5C000000 		.4byte	.LFE14
 1514 0523 0200     		.2byte	0x2
 1515 0525 7D       		.byte	0x7d
 1516 0526 10       		.sleb128 16
 1517 0527 00000000 		.4byte	0x0
 1518 052b 00000000 		.4byte	0x0
 1519              	.LLST46:
 1520 052f 06000000 		.4byte	.LVL69
 1521 0533 0F000000 		.4byte	.LVL72-1
 1522 0537 0200     		.2byte	0x2
 1523 0539 72       		.byte	0x72
 1524 053a 1C       		.sleb128 28
 1525 053b 0F000000 		.4byte	.LVL72-1
 1526 053f 5C000000 		.4byte	.LFE14
 1527 0543 0100     		.2byte	0x1
 1528 0545 54       		.byte	0x54
 1529 0546 00000000 		.4byte	0x0
 1530 054a 00000000 		.4byte	0x0
 1531              	.LLST47:
 1532 054e 0C000000 		.4byte	.LVL71
 1533 0552 0F000000 		.4byte	.LVL72-1
 1534 0556 0100     		.2byte	0x1
 1535 0558 53       		.byte	0x53
 1536 0559 00000000 		.4byte	0x0
 1537 055d 00000000 		.4byte	0x0
 1538              	.LLST48:
 1539 0561 16000000 		.4byte	.LVL73
 1540 0565 26000000 		.4byte	.LVL74
 1541 0569 0100     		.2byte	0x1
 1542 056b 53       		.byte	0x53
 1543 056c 00000000 		.4byte	0x0
 1544 0570 00000000 		.4byte	0x0
 1545              	.LLST49:
 1546 0574 28000000 		.4byte	.LVL75
 1547 0578 3D000000 		.4byte	.LVL76-1
 1548 057c 0100     		.2byte	0x1
 1549 057e 50       		.byte	0x50
 1550 057f 00000000 		.4byte	0x0
ARM GAS  C:\Users\z80\AppData\Local\Temp\cczVfvz8.s 			page 29


 1551 0583 00000000 		.4byte	0x0
 1552              	.LLST50:
 1553 0587 56000000 		.4byte	.LVL79
 1554 058b 5C000000 		.4byte	.LFE14
 1555 058f 0100     		.2byte	0x1
 1556 0591 53       		.byte	0x53
 1557 0592 00000000 		.4byte	0x0
 1558 0596 00000000 		.4byte	0x0
 1559              		.file 3 "c:/programs/yagarto/lib/gcc/../../arm-none-eabi/sys-include/stdint.h"
 1560              		.file 4 "../chibios_2.4.x/os/ports/GCC/ARMCMx/chtypes.h"
 1561              		.file 5 "../chibios_2.4.x/os/kernel/include/chlists.h"
 1562              		.file 6 "../chibios_2.4.x/os/kernel/include/chthreads.h"
 1563              		.file 7 "../chibios_2.4.x/os/ports/GCC/ARMCMx/chcore_v7m.h"
 1564              		.file 8 "../chibios_2.4.x/os/kernel/include/chschd.h"
 1565              		.file 9 "../chibios_2.4.x/os/kernel/include/chmtx.h"
 1566              		.section	.debug_info
 1567 0000 4E090000 		.4byte	0x94e
 1568 0004 0200     		.2byte	0x2
 1569 0006 00000000 		.4byte	.Ldebug_abbrev0
 1570 000a 04       		.byte	0x4
 1571 000b 01       		.uleb128 0x1
 1572 000c EF020000 		.4byte	.LASF74
 1573 0010 01       		.byte	0x1
 1574 0011 1A020000 		.4byte	.LASF75
 1575 0015 8D010000 		.4byte	.LASF76
 1576 0019 00000000 		.4byte	0x0
 1577 001d 00000000 		.4byte	0x0
 1578 0021 00020000 		.4byte	.Ldebug_ranges0+0x200
 1579 0025 00000000 		.4byte	.Ldebug_line0
 1580 0029 02       		.uleb128 0x2
 1581 002a 04       		.byte	0x4
 1582 002b 05       		.byte	0x5
 1583 002c 696E7400 		.ascii	"int\000"
 1584 0030 03       		.uleb128 0x3
 1585 0031 04       		.byte	0x4
 1586 0032 07       		.byte	0x7
 1587 0033 C7000000 		.4byte	.LASF0
 1588 0037 03       		.uleb128 0x3
 1589 0038 01       		.byte	0x1
 1590 0039 06       		.byte	0x6
 1591 003a 57000000 		.4byte	.LASF1
 1592 003e 04       		.uleb128 0x4
 1593 003f E0020000 		.4byte	.LASF5
 1594 0043 03       		.byte	0x3
 1595 0044 2A       		.byte	0x2a
 1596 0045 49000000 		.4byte	0x49
 1597 0049 03       		.uleb128 0x3
 1598 004a 01       		.byte	0x1
 1599 004b 08       		.byte	0x8
 1600 004c E9010000 		.4byte	.LASF2
 1601 0050 03       		.uleb128 0x3
 1602 0051 02       		.byte	0x2
 1603 0052 05       		.byte	0x5
 1604 0053 01020000 		.4byte	.LASF3
 1605 0057 03       		.uleb128 0x3
 1606 0058 02       		.byte	0x2
 1607 0059 07       		.byte	0x7
ARM GAS  C:\Users\z80\AppData\Local\Temp\cczVfvz8.s 			page 30


 1608 005a EE000000 		.4byte	.LASF4
 1609 005e 04       		.uleb128 0x4
 1610 005f E1010000 		.4byte	.LASF6
 1611 0063 03       		.byte	0x3
 1612 0064 4F       		.byte	0x4f
 1613 0065 69000000 		.4byte	0x69
 1614 0069 03       		.uleb128 0x3
 1615 006a 04       		.byte	0x4
 1616 006b 05       		.byte	0x5
 1617 006c 72000000 		.4byte	.LASF7
 1618 0070 04       		.uleb128 0x4
 1619 0071 6F020000 		.4byte	.LASF8
 1620 0075 03       		.byte	0x3
 1621 0076 50       		.byte	0x50
 1622 0077 7B000000 		.4byte	0x7b
 1623 007b 03       		.uleb128 0x3
 1624 007c 04       		.byte	0x4
 1625 007d 07       		.byte	0x7
 1626 007e D4000000 		.4byte	.LASF9
 1627 0082 03       		.uleb128 0x3
 1628 0083 08       		.byte	0x8
 1629 0084 05       		.byte	0x5
 1630 0085 49000000 		.4byte	.LASF10
 1631 0089 04       		.uleb128 0x4
 1632 008a 0D000000 		.4byte	.LASF11
 1633 008e 03       		.byte	0x3
 1634 008f 78       		.byte	0x78
 1635 0090 94000000 		.4byte	0x94
 1636 0094 03       		.uleb128 0x3
 1637 0095 08       		.byte	0x8
 1638 0096 07       		.byte	0x7
 1639 0097 16000000 		.4byte	.LASF12
 1640 009b 04       		.uleb128 0x4
 1641 009c 63000000 		.4byte	.LASF13
 1642 00a0 04       		.byte	0x4
 1643 00a1 2E       		.byte	0x2e
 1644 00a2 5E000000 		.4byte	0x5e
 1645 00a6 04       		.uleb128 0x4
 1646 00a7 2A010000 		.4byte	.LASF14
 1647 00ab 04       		.byte	0x4
 1648 00ac 2F       		.byte	0x2f
 1649 00ad 3E000000 		.4byte	0x3e
 1650 00b1 04       		.uleb128 0x4
 1651 00b2 7B000000 		.4byte	.LASF15
 1652 00b6 04       		.byte	0x4
 1653 00b7 30       		.byte	0x30
 1654 00b8 3E000000 		.4byte	0x3e
 1655 00bc 04       		.uleb128 0x4
 1656 00bd D9010000 		.4byte	.LASF16
 1657 00c1 04       		.byte	0x4
 1658 00c2 32       		.byte	0x32
 1659 00c3 70000000 		.4byte	0x70
 1660 00c7 04       		.uleb128 0x4
 1661 00c8 01010000 		.4byte	.LASF17
 1662 00cc 04       		.byte	0x4
 1663 00cd 33       		.byte	0x33
 1664 00ce 5E000000 		.4byte	0x5e
ARM GAS  C:\Users\z80\AppData\Local\Temp\cczVfvz8.s 			page 31


 1665 00d2 04       		.uleb128 0x4
 1666 00d3 3E010000 		.4byte	.LASF18
 1667 00d7 04       		.byte	0x4
 1668 00d8 35       		.byte	0x35
 1669 00d9 70000000 		.4byte	0x70
 1670 00dd 04       		.uleb128 0x4
 1671 00de 98020000 		.4byte	.LASF19
 1672 00e2 04       		.byte	0x4
 1673 00e3 36       		.byte	0x36
 1674 00e4 70000000 		.4byte	0x70
 1675 00e8 04       		.uleb128 0x4
 1676 00e9 B6000000 		.4byte	.LASF20
 1677 00ed 04       		.byte	0x4
 1678 00ee 37       		.byte	0x37
 1679 00ef 5E000000 		.4byte	0x5e
 1680 00f3 04       		.uleb128 0x4
 1681 00f4 5D020000 		.4byte	.LASF21
 1682 00f8 05       		.byte	0x5
 1683 00f9 2A       		.byte	0x2a
 1684 00fa FE000000 		.4byte	0xfe
 1685 00fe 05       		.uleb128 0x5
 1686 00ff 5D020000 		.4byte	.LASF21
 1687 0103 48       		.byte	0x48
 1688 0104 06       		.byte	0x6
 1689 0105 5E       		.byte	0x5e
 1690 0106 07020000 		.4byte	0x207
 1691 010a 06       		.uleb128 0x6
 1692 010b 41020000 		.4byte	.LASF22
 1693 010f 06       		.byte	0x6
 1694 0110 5F       		.byte	0x5f
 1695 0111 2C020000 		.4byte	0x22c
 1696 0115 02       		.byte	0x2
 1697 0116 23       		.byte	0x23
 1698 0117 00       		.uleb128 0x0
 1699 0118 06       		.uleb128 0x6
 1700 0119 D2010000 		.4byte	.LASF23
 1701 011d 06       		.byte	0x6
 1702 011e 61       		.byte	0x61
 1703 011f 2C020000 		.4byte	0x22c
 1704 0123 02       		.byte	0x2
 1705 0124 23       		.byte	0x23
 1706 0125 04       		.uleb128 0x4
 1707 0126 06       		.uleb128 0x6
 1708 0127 42000000 		.4byte	.LASF24
 1709 012b 06       		.byte	0x6
 1710 012c 63       		.byte	0x63
 1711 012d BC000000 		.4byte	0xbc
 1712 0131 02       		.byte	0x2
 1713 0132 23       		.byte	0x23
 1714 0133 08       		.uleb128 0x8
 1715 0134 06       		.uleb128 0x6
 1716 0135 1B030000 		.4byte	.LASF25
 1717 0139 06       		.byte	0x6
 1718 013a 64       		.byte	0x64
 1719 013b 04030000 		.4byte	0x304
 1720 013f 02       		.byte	0x2
 1721 0140 23       		.byte	0x23
ARM GAS  C:\Users\z80\AppData\Local\Temp\cczVfvz8.s 			page 32


 1722 0141 0C       		.uleb128 0xc
 1723 0142 06       		.uleb128 0x6
 1724 0143 9D000000 		.4byte	.LASF26
 1725 0147 06       		.byte	0x6
 1726 0148 66       		.byte	0x66
 1727 0149 2C020000 		.4byte	0x22c
 1728 014d 02       		.byte	0x2
 1729 014e 23       		.byte	0x23
 1730 014f 10       		.uleb128 0x10
 1731 0150 06       		.uleb128 0x6
 1732 0151 72010000 		.4byte	.LASF27
 1733 0155 06       		.byte	0x6
 1734 0156 67       		.byte	0x67
 1735 0157 2C020000 		.4byte	0x22c
 1736 015b 02       		.byte	0x2
 1737 015c 23       		.byte	0x23
 1738 015d 14       		.uleb128 0x14
 1739 015e 06       		.uleb128 0x6
 1740 015f 02030000 		.4byte	.LASF28
 1741 0163 06       		.byte	0x6
 1742 0164 6E       		.byte	0x6e
 1743 0165 22040000 		.4byte	0x422
 1744 0169 02       		.byte	0x2
 1745 016a 23       		.byte	0x23
 1746 016b 18       		.uleb128 0x18
 1747 016c 06       		.uleb128 0x6
 1748 016d BC000000 		.4byte	.LASF29
 1749 0171 06       		.byte	0x6
 1750 0172 74       		.byte	0x74
 1751 0173 34040000 		.4byte	0x434
 1752 0177 02       		.byte	0x2
 1753 0178 23       		.byte	0x23
 1754 0179 1C       		.uleb128 0x1c
 1755 017a 06       		.uleb128 0x6
 1756 017b 0B020000 		.4byte	.LASF30
 1757 017f 06       		.byte	0x6
 1758 0180 79       		.byte	0x79
 1759 0181 B1000000 		.4byte	0xb1
 1760 0185 02       		.byte	0x2
 1761 0186 23       		.byte	0x23
 1762 0187 20       		.uleb128 0x20
 1763 0188 06       		.uleb128 0x6
 1764 0189 48020000 		.4byte	.LASF31
 1765 018d 06       		.byte	0x6
 1766 018e 7D       		.byte	0x7d
 1767 018f A6000000 		.4byte	0xa6
 1768 0193 02       		.byte	0x2
 1769 0194 23       		.byte	0x23
 1770 0195 21       		.uleb128 0x21
 1771 0196 06       		.uleb128 0x6
 1772 0197 AD020000 		.4byte	.LASF32
 1773 019b 06       		.byte	0x6
 1774 019c 89       		.byte	0x89
 1775 019d 2A030000 		.4byte	0x32a
 1776 01a1 02       		.byte	0x2
 1777 01a2 23       		.byte	0x23
 1778 01a3 24       		.uleb128 0x24
ARM GAS  C:\Users\z80\AppData\Local\Temp\cczVfvz8.s 			page 33


 1779 01a4 07       		.uleb128 0x7
 1780 01a5 705F7500 		.ascii	"p_u\000"
 1781 01a9 06       		.byte	0x6
 1782 01aa AE       		.byte	0xae
 1783 01ab ED030000 		.4byte	0x3ed
 1784 01af 02       		.byte	0x2
 1785 01b0 23       		.byte	0x23
 1786 01b1 28       		.uleb128 0x28
 1787 01b2 06       		.uleb128 0x6
 1788 01b3 21030000 		.4byte	.LASF33
 1789 01b7 06       		.byte	0x6
 1790 01b8 B3       		.byte	0xb3
 1791 01b9 54020000 		.4byte	0x254
 1792 01bd 02       		.byte	0x2
 1793 01be 23       		.byte	0x23
 1794 01bf 2C       		.uleb128 0x2c
 1795 01c0 06       		.uleb128 0x6
 1796 01c1 BB020000 		.4byte	.LASF34
 1797 01c5 06       		.byte	0x6
 1798 01c6 B9       		.byte	0xb9
 1799 01c7 32020000 		.4byte	0x232
 1800 01cb 02       		.byte	0x2
 1801 01cc 23       		.byte	0x23
 1802 01cd 30       		.uleb128 0x30
 1803 01ce 06       		.uleb128 0x6
 1804 01cf 00000000 		.4byte	.LASF35
 1805 01d3 06       		.byte	0x6
 1806 01d4 BD       		.byte	0xbd
 1807 01d5 C7000000 		.4byte	0xc7
 1808 01d9 02       		.byte	0x2
 1809 01da 23       		.byte	0x23
 1810 01db 38       		.uleb128 0x38
 1811 01dc 06       		.uleb128 0x6
 1812 01dd 64020000 		.4byte	.LASF36
 1813 01e1 06       		.byte	0x6
 1814 01e2 C3       		.byte	0xc3
 1815 01e3 D2000000 		.4byte	0xd2
 1816 01e7 02       		.byte	0x2
 1817 01e8 23       		.byte	0x23
 1818 01e9 3C       		.uleb128 0x3c
 1819 01ea 06       		.uleb128 0x6
 1820 01eb F7010000 		.4byte	.LASF37
 1821 01ef 06       		.byte	0x6
 1822 01f0 CA       		.byte	0xca
 1823 01f1 3A040000 		.4byte	0x43a
 1824 01f5 02       		.byte	0x2
 1825 01f6 23       		.byte	0x23
 1826 01f7 40       		.uleb128 0x40
 1827 01f8 06       		.uleb128 0x6
 1828 01f9 A2020000 		.4byte	.LASF38
 1829 01fd 06       		.byte	0x6
 1830 01fe CE       		.byte	0xce
 1831 01ff BC000000 		.4byte	0xbc
 1832 0203 02       		.byte	0x2
 1833 0204 23       		.byte	0x23
 1834 0205 44       		.uleb128 0x44
 1835 0206 00       		.byte	0x0
ARM GAS  C:\Users\z80\AppData\Local\Temp\cczVfvz8.s 			page 34


 1836 0207 08       		.uleb128 0x8
 1837 0208 08       		.byte	0x8
 1838 0209 05       		.byte	0x5
 1839 020a 61       		.byte	0x61
 1840 020b 2C020000 		.4byte	0x22c
 1841 020f 06       		.uleb128 0x6
 1842 0210 41020000 		.4byte	.LASF22
 1843 0214 05       		.byte	0x5
 1844 0215 62       		.byte	0x62
 1845 0216 2C020000 		.4byte	0x22c
 1846 021a 02       		.byte	0x2
 1847 021b 23       		.byte	0x23
 1848 021c 00       		.uleb128 0x0
 1849 021d 06       		.uleb128 0x6
 1850 021e D2010000 		.4byte	.LASF23
 1851 0222 05       		.byte	0x5
 1852 0223 64       		.byte	0x64
 1853 0224 2C020000 		.4byte	0x22c
 1854 0228 02       		.byte	0x2
 1855 0229 23       		.byte	0x23
 1856 022a 04       		.uleb128 0x4
 1857 022b 00       		.byte	0x0
 1858 022c 09       		.uleb128 0x9
 1859 022d 04       		.byte	0x4
 1860 022e F3000000 		.4byte	0xf3
 1861 0232 04       		.uleb128 0x4
 1862 0233 80010000 		.4byte	.LASF39
 1863 0237 05       		.byte	0x5
 1864 0238 66       		.byte	0x66
 1865 0239 07020000 		.4byte	0x207
 1866 023d 08       		.uleb128 0x8
 1867 023e 04       		.byte	0x4
 1868 023f 05       		.byte	0x5
 1869 0240 6B       		.byte	0x6b
 1870 0241 54020000 		.4byte	0x254
 1871 0245 06       		.uleb128 0x6
 1872 0246 41020000 		.4byte	.LASF22
 1873 024a 05       		.byte	0x5
 1874 024b 6D       		.byte	0x6d
 1875 024c 2C020000 		.4byte	0x22c
 1876 0250 02       		.byte	0x2
 1877 0251 23       		.byte	0x23
 1878 0252 00       		.uleb128 0x0
 1879 0253 00       		.byte	0x0
 1880 0254 04       		.uleb128 0x4
 1881 0255 32010000 		.4byte	.LASF40
 1882 0259 05       		.byte	0x5
 1883 025a 70       		.byte	0x70
 1884 025b 3D020000 		.4byte	0x23d
 1885 025f 04       		.uleb128 0x4
 1886 0260 AD000000 		.4byte	.LASF41
 1887 0264 07       		.byte	0x7
 1888 0265 D7       		.byte	0xd7
 1889 0266 6A020000 		.4byte	0x26a
 1890 026a 0A       		.uleb128 0xa
 1891 026b 04       		.byte	0x4
 1892 026c 04       		.uleb128 0x4
ARM GAS  C:\Users\z80\AppData\Local\Temp\cczVfvz8.s 			page 35


 1893 026d 5D010000 		.4byte	.LASF42
 1894 0271 07       		.byte	0x7
 1895 0272 DD       		.byte	0xdd
 1896 0273 89000000 		.4byte	0x89
 1897 0277 05       		.uleb128 0x5
 1898 0278 B4020000 		.4byte	.LASF43
 1899 027c 24       		.byte	0x24
 1900 027d 07       		.byte	0x7
 1901 027e FE       		.byte	0xfe
 1902 027f 04030000 		.4byte	0x304
 1903 0283 0B       		.uleb128 0xb
 1904 0284 723400   		.ascii	"r4\000"
 1905 0287 07       		.byte	0x7
 1906 0288 1101     		.2byte	0x111
 1907 028a 5F020000 		.4byte	0x25f
 1908 028e 02       		.byte	0x2
 1909 028f 23       		.byte	0x23
 1910 0290 00       		.uleb128 0x0
 1911 0291 0B       		.uleb128 0xb
 1912 0292 723500   		.ascii	"r5\000"
 1913 0295 07       		.byte	0x7
 1914 0296 1201     		.2byte	0x112
 1915 0298 5F020000 		.4byte	0x25f
 1916 029c 02       		.byte	0x2
 1917 029d 23       		.byte	0x23
 1918 029e 04       		.uleb128 0x4
 1919 029f 0B       		.uleb128 0xb
 1920 02a0 723600   		.ascii	"r6\000"
 1921 02a3 07       		.byte	0x7
 1922 02a4 1301     		.2byte	0x113
 1923 02a6 5F020000 		.4byte	0x25f
 1924 02aa 02       		.byte	0x2
 1925 02ab 23       		.byte	0x23
 1926 02ac 08       		.uleb128 0x8
 1927 02ad 0B       		.uleb128 0xb
 1928 02ae 723700   		.ascii	"r7\000"
 1929 02b1 07       		.byte	0x7
 1930 02b2 1401     		.2byte	0x114
 1931 02b4 5F020000 		.4byte	0x25f
 1932 02b8 02       		.byte	0x2
 1933 02b9 23       		.byte	0x23
 1934 02ba 0C       		.uleb128 0xc
 1935 02bb 0B       		.uleb128 0xb
 1936 02bc 723800   		.ascii	"r8\000"
 1937 02bf 07       		.byte	0x7
 1938 02c0 1501     		.2byte	0x115
 1939 02c2 5F020000 		.4byte	0x25f
 1940 02c6 02       		.byte	0x2
 1941 02c7 23       		.byte	0x23
 1942 02c8 10       		.uleb128 0x10
 1943 02c9 0B       		.uleb128 0xb
 1944 02ca 723900   		.ascii	"r9\000"
 1945 02cd 07       		.byte	0x7
 1946 02ce 1601     		.2byte	0x116
 1947 02d0 5F020000 		.4byte	0x25f
 1948 02d4 02       		.byte	0x2
 1949 02d5 23       		.byte	0x23
ARM GAS  C:\Users\z80\AppData\Local\Temp\cczVfvz8.s 			page 36


 1950 02d6 14       		.uleb128 0x14
 1951 02d7 0B       		.uleb128 0xb
 1952 02d8 72313000 		.ascii	"r10\000"
 1953 02dc 07       		.byte	0x7
 1954 02dd 1701     		.2byte	0x117
 1955 02df 5F020000 		.4byte	0x25f
 1956 02e3 02       		.byte	0x2
 1957 02e4 23       		.byte	0x23
 1958 02e5 18       		.uleb128 0x18
 1959 02e6 0B       		.uleb128 0xb
 1960 02e7 72313100 		.ascii	"r11\000"
 1961 02eb 07       		.byte	0x7
 1962 02ec 1801     		.2byte	0x118
 1963 02ee 5F020000 		.4byte	0x25f
 1964 02f2 02       		.byte	0x2
 1965 02f3 23       		.byte	0x23
 1966 02f4 1C       		.uleb128 0x1c
 1967 02f5 0B       		.uleb128 0xb
 1968 02f6 6C7200   		.ascii	"lr\000"
 1969 02f9 07       		.byte	0x7
 1970 02fa 1901     		.2byte	0x119
 1971 02fc 5F020000 		.4byte	0x25f
 1972 0300 02       		.byte	0x2
 1973 0301 23       		.byte	0x23
 1974 0302 20       		.uleb128 0x20
 1975 0303 00       		.byte	0x0
 1976 0304 0C       		.uleb128 0xc
 1977 0305 E6000000 		.4byte	.LASF44
 1978 0309 04       		.byte	0x4
 1979 030a 07       		.byte	0x7
 1980 030b 2301     		.2byte	0x123
 1981 030d 21030000 		.4byte	0x321
 1982 0311 0B       		.uleb128 0xb
 1983 0312 72313300 		.ascii	"r13\000"
 1984 0316 07       		.byte	0x7
 1985 0317 2401     		.2byte	0x124
 1986 0319 21030000 		.4byte	0x321
 1987 031d 02       		.byte	0x2
 1988 031e 23       		.byte	0x23
 1989 031f 00       		.uleb128 0x0
 1990 0320 00       		.byte	0x0
 1991 0321 09       		.uleb128 0x9
 1992 0322 04       		.byte	0x4
 1993 0323 77020000 		.4byte	0x277
 1994 0327 0D       		.uleb128 0xd
 1995 0328 04       		.byte	0x4
 1996 0329 07       		.byte	0x7
 1997 032a 0E       		.uleb128 0xe
 1998 032b DD000000 		.4byte	0xdd
 1999 032f 08       		.uleb128 0x8
 2000 0330 20       		.byte	0x20
 2001 0331 08       		.byte	0x8
 2002 0332 5E       		.byte	0x5e
 2003 0333 9A030000 		.4byte	0x39a
 2004 0337 06       		.uleb128 0x6
 2005 0338 78020000 		.4byte	.LASF45
 2006 033c 08       		.byte	0x8
ARM GAS  C:\Users\z80\AppData\Local\Temp\cczVfvz8.s 			page 37


 2007 033d 5F       		.byte	0x5f
 2008 033e 32020000 		.4byte	0x232
 2009 0342 02       		.byte	0x2
 2010 0343 23       		.byte	0x23
 2011 0344 00       		.uleb128 0x0
 2012 0345 06       		.uleb128 0x6
 2013 0346 13020000 		.4byte	.LASF46
 2014 034a 08       		.byte	0x8
 2015 034b 60       		.byte	0x60
 2016 034c BC000000 		.4byte	0xbc
 2017 0350 02       		.byte	0x2
 2018 0351 23       		.byte	0x23
 2019 0352 08       		.uleb128 0x8
 2020 0353 06       		.uleb128 0x6
 2021 0354 7A010000 		.4byte	.LASF47
 2022 0358 08       		.byte	0x8
 2023 0359 62       		.byte	0x62
 2024 035a 04030000 		.4byte	0x304
 2025 035e 02       		.byte	0x2
 2026 035f 23       		.byte	0x23
 2027 0360 0C       		.uleb128 0xc
 2028 0361 06       		.uleb128 0x6
 2029 0362 A5000000 		.4byte	.LASF48
 2030 0366 08       		.byte	0x8
 2031 0367 65       		.byte	0x65
 2032 0368 2C020000 		.4byte	0x22c
 2033 036c 02       		.byte	0x2
 2034 036d 23       		.byte	0x23
 2035 036e 10       		.uleb128 0x10
 2036 036f 06       		.uleb128 0x6
 2037 0370 CA010000 		.4byte	.LASF49
 2038 0374 08       		.byte	0x8
 2039 0375 66       		.byte	0x66
 2040 0376 2C020000 		.4byte	0x22c
 2041 037a 02       		.byte	0x2
 2042 037b 23       		.byte	0x23
 2043 037c 14       		.uleb128 0x14
 2044 037d 06       		.uleb128 0x6
 2045 037e 09030000 		.4byte	.LASF50
 2046 0382 08       		.byte	0x8
 2047 0383 6A       		.byte	0x6a
 2048 0384 E8000000 		.4byte	0xe8
 2049 0388 02       		.byte	0x2
 2050 0389 23       		.byte	0x23
 2051 038a 18       		.uleb128 0x18
 2052 038b 06       		.uleb128 0x6
 2053 038c C0010000 		.4byte	.LASF51
 2054 0390 08       		.byte	0x8
 2055 0391 6C       		.byte	0x6c
 2056 0392 2C020000 		.4byte	0x22c
 2057 0396 02       		.byte	0x2
 2058 0397 23       		.byte	0x23
 2059 0398 1C       		.uleb128 0x1c
 2060 0399 00       		.byte	0x0
 2061 039a 04       		.uleb128 0x4
 2062 039b D0020000 		.4byte	.LASF52
 2063 039f 08       		.byte	0x8
ARM GAS  C:\Users\z80\AppData\Local\Temp\cczVfvz8.s 			page 38


 2064 03a0 6E       		.byte	0x6e
 2065 03a1 2F030000 		.4byte	0x32f
 2066 03a5 05       		.uleb128 0x5
 2067 03a6 57010000 		.4byte	.LASF53
 2068 03aa 10       		.byte	0x10
 2069 03ab 09       		.byte	0x9
 2070 03ac 2C       		.byte	0x2c
 2071 03ad DC030000 		.4byte	0x3dc
 2072 03b1 06       		.uleb128 0x6
 2073 03b2 6A000000 		.4byte	.LASF54
 2074 03b6 09       		.byte	0x9
 2075 03b7 2D       		.byte	0x2d
 2076 03b8 32020000 		.4byte	0x232
 2077 03bc 02       		.byte	0x2
 2078 03bd 23       		.byte	0x23
 2079 03be 00       		.uleb128 0x0
 2080 03bf 06       		.uleb128 0x6
 2081 03c0 13030000 		.4byte	.LASF55
 2082 03c4 09       		.byte	0x9
 2083 03c5 2F       		.byte	0x2f
 2084 03c6 2C020000 		.4byte	0x22c
 2085 03ca 02       		.byte	0x2
 2086 03cb 23       		.byte	0x23
 2087 03cc 08       		.uleb128 0x8
 2088 03cd 06       		.uleb128 0x6
 2089 03ce 91020000 		.4byte	.LASF56
 2090 03d2 09       		.byte	0x9
 2091 03d3 31       		.byte	0x31
 2092 03d4 DC030000 		.4byte	0x3dc
 2093 03d8 02       		.byte	0x2
 2094 03d9 23       		.byte	0x23
 2095 03da 0C       		.uleb128 0xc
 2096 03db 00       		.byte	0x0
 2097 03dc 09       		.uleb128 0x9
 2098 03dd 04       		.byte	0x4
 2099 03de A5030000 		.4byte	0x3a5
 2100 03e2 04       		.uleb128 0x4
 2101 03e3 57010000 		.4byte	.LASF53
 2102 03e7 09       		.byte	0x9
 2103 03e8 33       		.byte	0x33
 2104 03e9 A5030000 		.4byte	0x3a5
 2105 03ed 0F       		.uleb128 0xf
 2106 03ee 04       		.byte	0x4
 2107 03ef 06       		.byte	0x6
 2108 03f0 90       		.byte	0x90
 2109 03f1 22040000 		.4byte	0x422
 2110 03f5 10       		.uleb128 0x10
 2111 03f6 06000000 		.4byte	.LASF57
 2112 03fa 06       		.byte	0x6
 2113 03fb 97       		.byte	0x97
 2114 03fc C7000000 		.4byte	0xc7
 2115 0400 10       		.uleb128 0x10
 2116 0401 2D000000 		.4byte	.LASF58
 2117 0405 06       		.byte	0x6
 2118 0406 9E       		.byte	0x9e
 2119 0407 C7000000 		.4byte	0xc7
 2120 040b 10       		.uleb128 0x10
ARM GAS  C:\Users\z80\AppData\Local\Temp\cczVfvz8.s 			page 39


 2121 040c FB020000 		.4byte	.LASF59
 2122 0410 06       		.byte	0x6
 2123 0411 A5       		.byte	0xa5
 2124 0412 6A020000 		.4byte	0x26a
 2125 0416 10       		.uleb128 0x10
 2126 0417 E8020000 		.4byte	.LASF60
 2127 041b 06       		.byte	0x6
 2128 041c AC       		.byte	0xac
 2129 041d D2000000 		.4byte	0xd2
 2130 0421 00       		.byte	0x0
 2131 0422 09       		.uleb128 0x9
 2132 0423 04       		.byte	0x4
 2133 0424 28040000 		.4byte	0x428
 2134 0428 11       		.uleb128 0x11
 2135 0429 2D040000 		.4byte	0x42d
 2136 042d 03       		.uleb128 0x3
 2137 042e 01       		.byte	0x1
 2138 042f 08       		.byte	0x8
 2139 0430 80020000 		.4byte	.LASF61
 2140 0434 09       		.uleb128 0x9
 2141 0435 04       		.byte	0x4
 2142 0436 6C020000 		.4byte	0x26c
 2143 043a 09       		.uleb128 0x9
 2144 043b 04       		.byte	0x4
 2145 043c E2030000 		.4byte	0x3e2
 2146 0440 12       		.uleb128 0x12
 2147 0441 B8010000 		.4byte	.LASF62
 2148 0445 02       		.byte	0x2
 2149 0446 49       		.byte	0x49
 2150 0447 01       		.byte	0x1
 2151 0448 2C020000 		.4byte	0x22c
 2152 044c 03       		.byte	0x3
 2153 044d 5C040000 		.4byte	0x45c
 2154 0451 13       		.uleb128 0x13
 2155 0452 747000   		.ascii	"tp\000"
 2156 0455 02       		.byte	0x2
 2157 0456 49       		.byte	0x49
 2158 0457 2C020000 		.4byte	0x22c
 2159 045b 00       		.byte	0x0
 2160 045c 14       		.uleb128 0x14
 2161 045d 07010000 		.4byte	.LASF77
 2162 0461 02       		.byte	0x2
 2163 0462 29       		.byte	0x29
 2164 0463 01       		.byte	0x1
 2165 0464 03       		.byte	0x3
 2166 0465 89040000 		.4byte	0x489
 2167 0469 13       		.uleb128 0x13
 2168 046a 747000   		.ascii	"tp\000"
 2169 046d 02       		.byte	0x2
 2170 046e 29       		.byte	0x29
 2171 046f 2C020000 		.4byte	0x22c
 2172 0473 13       		.uleb128 0x13
 2173 0474 74717000 		.ascii	"tqp\000"
 2174 0478 02       		.byte	0x2
 2175 0479 29       		.byte	0x29
 2176 047a 89040000 		.4byte	0x489
 2177 047e 15       		.uleb128 0x15
ARM GAS  C:\Users\z80\AppData\Local\Temp\cczVfvz8.s 			page 40


 2178 047f 637000   		.ascii	"cp\000"
 2179 0482 02       		.byte	0x2
 2180 0483 2B       		.byte	0x2b
 2181 0484 2C020000 		.4byte	0x22c
 2182 0488 00       		.byte	0x0
 2183 0489 09       		.uleb128 0x9
 2184 048a 04       		.byte	0x4
 2185 048b 32020000 		.4byte	0x232
 2186 048f 12       		.uleb128 0x12
 2187 0490 85020000 		.4byte	.LASF63
 2188 0494 02       		.byte	0x2
 2189 0495 3B       		.byte	0x3b
 2190 0496 01       		.byte	0x1
 2191 0497 2C020000 		.4byte	0x22c
 2192 049b 03       		.byte	0x3
 2193 049c B6040000 		.4byte	0x4b6
 2194 04a0 13       		.uleb128 0x13
 2195 04a1 74717000 		.ascii	"tqp\000"
 2196 04a5 02       		.byte	0x2
 2197 04a6 3B       		.byte	0x3b
 2198 04a7 89040000 		.4byte	0x489
 2199 04ab 15       		.uleb128 0x15
 2200 04ac 747000   		.ascii	"tp\000"
 2201 04af 02       		.byte	0x2
 2202 04b0 3C       		.byte	0x3c
 2203 04b1 2C020000 		.4byte	0x22c
 2204 04b5 00       		.byte	0x0
 2205 04b6 16       		.uleb128 0x16
 2206 04b7 01       		.byte	0x1
 2207 04b8 C6020000 		.4byte	.LASF64
 2208 04bc 01       		.byte	0x1
 2209 04bd 56       		.byte	0x56
 2210 04be 01       		.byte	0x1
 2211 04bf 00000000 		.4byte	.LFB7
 2212 04c3 1C000000 		.4byte	.LFE7
 2213 04c7 00000000 		.4byte	.LLST0
 2214 04cb DE040000 		.4byte	0x4de
 2215 04cf 17       		.uleb128 0x17
 2216 04d0 6D7000   		.ascii	"mp\000"
 2217 04d3 01       		.byte	0x1
 2218 04d4 56       		.byte	0x56
 2219 04d5 3A040000 		.4byte	0x43a
 2220 04d9 20000000 		.4byte	.LLST1
 2221 04dd 00       		.byte	0x0
 2222 04de 16       		.uleb128 0x16
 2223 04df 01       		.byte	0x1
 2224 04e0 84000000 		.4byte	.LASF65
 2225 04e4 01       		.byte	0x1
 2226 04e5 79       		.byte	0x79
 2227 04e6 01       		.byte	0x1
 2228 04e7 00000000 		.4byte	.LFB9
 2229 04eb 08010000 		.4byte	.LFE9
 2230 04ef 3E000000 		.4byte	.LLST2
 2231 04f3 1B060000 		.4byte	0x61b
 2232 04f7 17       		.uleb128 0x17
 2233 04f8 6D7000   		.ascii	"mp\000"
 2234 04fb 01       		.byte	0x1
ARM GAS  C:\Users\z80\AppData\Local\Temp\cczVfvz8.s 			page 41


 2235 04fc 79       		.byte	0x79
 2236 04fd 3A040000 		.4byte	0x43a
 2237 0501 5E000000 		.4byte	.LLST3
 2238 0505 18       		.uleb128 0x18
 2239 0506 63747000 		.ascii	"ctp\000"
 2240 050a 01       		.byte	0x1
 2241 050b 7A       		.byte	0x7a
 2242 050c 2C020000 		.4byte	0x22c
 2243 0510 7C000000 		.4byte	.LLST4
 2244 0514 19       		.uleb128 0x19
 2245 0515 00000000 		.4byte	.Ldebug_ranges0+0x0
 2246 0519 18       		.uleb128 0x18
 2247 051a 747000   		.ascii	"tp\000"
 2248 051d 01       		.byte	0x1
 2249 051e 84       		.byte	0x84
 2250 051f 2C020000 		.4byte	0x22c
 2251 0523 9B000000 		.4byte	.LLST5
 2252 0527 1A       		.uleb128 0x1a
 2253 0528 5C040000 		.4byte	0x45c
 2254 052c 30000000 		.4byte	.LBB31
 2255 0530 18000000 		.4byte	.Ldebug_ranges0+0x18
 2256 0534 01       		.byte	0x1
 2257 0535 AD       		.byte	0xad
 2258 0536 5C050000 		.4byte	0x55c
 2259 053a 1B       		.uleb128 0x1b
 2260 053b 73040000 		.4byte	0x473
 2261 053f DC000000 		.4byte	.LLST6
 2262 0543 1B       		.uleb128 0x1b
 2263 0544 69040000 		.4byte	0x469
 2264 0548 EF000000 		.4byte	.LLST7
 2265 054c 19       		.uleb128 0x19
 2266 054d 30000000 		.4byte	.Ldebug_ranges0+0x30
 2267 0551 1C       		.uleb128 0x1c
 2268 0552 7E040000 		.4byte	0x47e
 2269 0556 02010000 		.4byte	.LLST8
 2270 055a 00       		.byte	0x0
 2271 055b 00       		.byte	0x0
 2272 055c 1A       		.uleb128 0x1a
 2273 055d 40040000 		.4byte	0x440
 2274 0561 6C000000 		.4byte	.LBB34
 2275 0565 48000000 		.4byte	.Ldebug_ranges0+0x48
 2276 0569 01       		.byte	0x1
 2277 056a A7       		.byte	0xa7
 2278 056b 79050000 		.4byte	0x579
 2279 056f 1B       		.uleb128 0x1b
 2280 0570 51040000 		.4byte	0x451
 2281 0574 2B010000 		.4byte	.LLST9
 2282 0578 00       		.byte	0x0
 2283 0579 1A       		.uleb128 0x1a
 2284 057a 40040000 		.4byte	0x440
 2285 057e 82000000 		.4byte	.LBB40
 2286 0582 68000000 		.4byte	.Ldebug_ranges0+0x68
 2287 0586 01       		.byte	0x1
 2288 0587 9E       		.byte	0x9e
 2289 0588 96050000 		.4byte	0x596
 2290 058c 1B       		.uleb128 0x1b
 2291 058d 51040000 		.4byte	0x451
ARM GAS  C:\Users\z80\AppData\Local\Temp\cczVfvz8.s 			page 42


 2292 0591 3E010000 		.4byte	.LLST10
 2293 0595 00       		.byte	0x0
 2294 0596 1A       		.uleb128 0x1a
 2295 0597 5C040000 		.4byte	0x45c
 2296 059b 86000000 		.4byte	.LBB44
 2297 059f 88000000 		.4byte	.Ldebug_ranges0+0x88
 2298 05a3 01       		.byte	0x1
 2299 05a4 9E       		.byte	0x9e
 2300 05a5 CB050000 		.4byte	0x5cb
 2301 05a9 1B       		.uleb128 0x1b
 2302 05aa 73040000 		.4byte	0x473
 2303 05ae 51010000 		.4byte	.LLST11
 2304 05b2 1B       		.uleb128 0x1b
 2305 05b3 69040000 		.4byte	0x469
 2306 05b7 65010000 		.4byte	.LLST12
 2307 05bb 19       		.uleb128 0x19
 2308 05bc A8000000 		.4byte	.Ldebug_ranges0+0xa8
 2309 05c0 1C       		.uleb128 0x1c
 2310 05c1 7E040000 		.4byte	0x47e
 2311 05c5 78010000 		.4byte	.LLST13
 2312 05c9 00       		.byte	0x0
 2313 05ca 00       		.byte	0x0
 2314 05cb 1A       		.uleb128 0x1a
 2315 05cc 40040000 		.4byte	0x440
 2316 05d0 AE000000 		.4byte	.LBB52
 2317 05d4 C8000000 		.4byte	.Ldebug_ranges0+0xc8
 2318 05d8 01       		.byte	0x1
 2319 05d9 8E       		.byte	0x8e
 2320 05da E8050000 		.4byte	0x5e8
 2321 05de 1B       		.uleb128 0x1b
 2322 05df 51040000 		.4byte	0x451
 2323 05e3 96010000 		.4byte	.LLST14
 2324 05e7 00       		.byte	0x0
 2325 05e8 1D       		.uleb128 0x1d
 2326 05e9 5C040000 		.4byte	0x45c
 2327 05ed BC000000 		.4byte	.LBB57
 2328 05f1 E8000000 		.4byte	.Ldebug_ranges0+0xe8
 2329 05f5 01       		.byte	0x1
 2330 05f6 8E       		.byte	0x8e
 2331 05f7 1B       		.uleb128 0x1b
 2332 05f8 73040000 		.4byte	0x473
 2333 05fc B5010000 		.4byte	.LLST15
 2334 0600 1B       		.uleb128 0x1b
 2335 0601 69040000 		.4byte	0x469
 2336 0605 D4010000 		.4byte	.LLST16
 2337 0609 19       		.uleb128 0x19
 2338 060a 00010000 		.4byte	.Ldebug_ranges0+0x100
 2339 060e 1C       		.uleb128 0x1c
 2340 060f 7E040000 		.4byte	0x47e
 2341 0613 F3010000 		.4byte	.LLST17
 2342 0617 00       		.byte	0x0
 2343 0618 00       		.byte	0x0
 2344 0619 00       		.byte	0x0
 2345 061a 00       		.byte	0x0
 2346 061b 16       		.uleb128 0x16
 2347 061c 01       		.byte	0x1
 2348 061d 68010000 		.4byte	.LASF66
ARM GAS  C:\Users\z80\AppData\Local\Temp\cczVfvz8.s 			page 43


 2349 0621 01       		.byte	0x1
 2350 0622 67       		.byte	0x67
 2351 0623 01       		.byte	0x1
 2352 0624 00000000 		.4byte	.LFB8
 2353 0628 20000000 		.4byte	.LFE8
 2354 062c 1D020000 		.4byte	.LLST18
 2355 0630 75060000 		.4byte	0x675
 2356 0634 17       		.uleb128 0x17
 2357 0635 6D7000   		.ascii	"mp\000"
 2358 0638 01       		.byte	0x1
 2359 0639 67       		.byte	0x67
 2360 063a 3A040000 		.4byte	0x43a
 2361 063e 3D020000 		.4byte	.LLST19
 2362 0642 1E       		.uleb128 0x1e
 2363 0643 18010000 		.4byte	.Ldebug_ranges0+0x118
 2364 0647 5B060000 		.4byte	0x65b
 2365 064b 18       		.uleb128 0x18
 2366 064c 746D7000 		.ascii	"tmp\000"
 2367 0650 01       		.byte	0x1
 2368 0651 69       		.byte	0x69
 2369 0652 70000000 		.4byte	0x70
 2370 0656 5B020000 		.4byte	.LLST20
 2371 065a 00       		.byte	0x0
 2372 065b 1F       		.uleb128 0x1f
 2373 065c 18000000 		.4byte	.LBB65
 2374 0660 1E000000 		.4byte	.LBE65
 2375 0664 18       		.uleb128 0x18
 2376 0665 746D7000 		.ascii	"tmp\000"
 2377 0669 01       		.byte	0x1
 2378 066a 6D       		.byte	0x6d
 2379 066b 70000000 		.4byte	0x70
 2380 066f 6E020000 		.4byte	.LLST21
 2381 0673 00       		.byte	0x0
 2382 0674 00       		.byte	0x0
 2383 0675 20       		.uleb128 0x20
 2384 0676 01       		.byte	0x1
 2385 0677 8F000000 		.4byte	.LASF67
 2386 067b 01       		.byte	0x1
 2387 067c EA       		.byte	0xea
 2388 067d 01       		.byte	0x1
 2389 067e 9B000000 		.4byte	0x9b
 2390 0682 00000000 		.4byte	.LFB11
 2391 0686 34000000 		.4byte	.LFE11
 2392 068a 81020000 		.4byte	.LLST22
 2393 068e A1060000 		.4byte	0x6a1
 2394 0692 17       		.uleb128 0x17
 2395 0693 6D7000   		.ascii	"mp\000"
 2396 0696 01       		.byte	0x1
 2397 0697 EA       		.byte	0xea
 2398 0698 3A040000 		.4byte	0x43a
 2399 069c A1020000 		.4byte	.LLST23
 2400 06a0 00       		.byte	0x0
 2401 06a1 20       		.uleb128 0x20
 2402 06a2 01       		.byte	0x1
 2403 06a3 4A010000 		.4byte	.LASF68
 2404 06a7 01       		.byte	0x1
 2405 06a8 CE       		.byte	0xce
ARM GAS  C:\Users\z80\AppData\Local\Temp\cczVfvz8.s 			page 44


 2406 06a9 01       		.byte	0x1
 2407 06aa 9B000000 		.4byte	0x9b
 2408 06ae 00000000 		.4byte	.LFB10
 2409 06b2 24000000 		.4byte	.LFE10
 2410 06b6 BF020000 		.4byte	.LLST24
 2411 06ba 0C070000 		.4byte	0x70c
 2412 06be 17       		.uleb128 0x17
 2413 06bf 6D7000   		.ascii	"mp\000"
 2414 06c2 01       		.byte	0x1
 2415 06c3 CE       		.byte	0xce
 2416 06c4 3A040000 		.4byte	0x43a
 2417 06c8 DF020000 		.4byte	.LLST25
 2418 06cc 18       		.uleb128 0x18
 2419 06cd 6200     		.ascii	"b\000"
 2420 06cf 01       		.byte	0x1
 2421 06d0 CF       		.byte	0xcf
 2422 06d1 9B000000 		.4byte	0x9b
 2423 06d5 FD020000 		.4byte	.LLST26
 2424 06d9 1E       		.uleb128 0x1e
 2425 06da 30010000 		.4byte	.Ldebug_ranges0+0x130
 2426 06de F2060000 		.4byte	0x6f2
 2427 06e2 18       		.uleb128 0x18
 2428 06e3 746D7000 		.ascii	"tmp\000"
 2429 06e7 01       		.byte	0x1
 2430 06e8 D1       		.byte	0xd1
 2431 06e9 70000000 		.4byte	0x70
 2432 06ed 1B030000 		.4byte	.LLST27
 2433 06f1 00       		.byte	0x0
 2434 06f2 1F       		.uleb128 0x1f
 2435 06f3 1A000000 		.4byte	.LBB68
 2436 06f7 20000000 		.4byte	.LBE68
 2437 06fb 18       		.uleb128 0x18
 2438 06fc 746D7000 		.ascii	"tmp\000"
 2439 0700 01       		.byte	0x1
 2440 0701 D5       		.byte	0xd5
 2441 0702 70000000 		.4byte	0x70
 2442 0706 2E030000 		.4byte	.LLST28
 2443 070a 00       		.byte	0x0
 2444 070b 00       		.byte	0x0
 2445 070c 21       		.uleb128 0x21
 2446 070d 01       		.byte	0x1
 2447 070e 36000000 		.4byte	.LASF69
 2448 0712 01       		.byte	0x1
 2449 0713 0101     		.2byte	0x101
 2450 0715 01       		.byte	0x1
 2451 0716 3A040000 		.4byte	0x43a
 2452 071a 00000000 		.4byte	.LFB12
 2453 071e 88000000 		.4byte	.LFE12
 2454 0722 41030000 		.4byte	.LLST29
 2455 0726 E4070000 		.4byte	0x7e4
 2456 072a 22       		.uleb128 0x22
 2457 072b 63747000 		.ascii	"ctp\000"
 2458 072f 01       		.byte	0x1
 2459 0730 0201     		.2byte	0x102
 2460 0732 2C020000 		.4byte	0x22c
 2461 0736 61030000 		.4byte	.LLST30
 2462 073a 22       		.uleb128 0x22
ARM GAS  C:\Users\z80\AppData\Local\Temp\cczVfvz8.s 			page 45


 2463 073b 756D7000 		.ascii	"ump\000"
 2464 073f 01       		.byte	0x1
 2465 0740 0301     		.2byte	0x103
 2466 0742 3A040000 		.4byte	0x43a
 2467 0746 80030000 		.4byte	.LLST31
 2468 074a 22       		.uleb128 0x22
 2469 074b 6D7000   		.ascii	"mp\000"
 2470 074e 01       		.byte	0x1
 2471 074f 0301     		.2byte	0x103
 2472 0751 3A040000 		.4byte	0x43a
 2473 0755 93030000 		.4byte	.LLST32
 2474 0759 23       		.uleb128 0x23
 2475 075a 06000000 		.4byte	.LBB69
 2476 075e 0C000000 		.4byte	.LBE69
 2477 0762 77070000 		.4byte	0x777
 2478 0766 22       		.uleb128 0x22
 2479 0767 746D7000 		.ascii	"tmp\000"
 2480 076b 01       		.byte	0x1
 2481 076c 0501     		.2byte	0x105
 2482 076e 70000000 		.4byte	0x70
 2483 0772 BD030000 		.4byte	.LLST33
 2484 0776 00       		.byte	0x0
 2485 0777 23       		.uleb128 0x23
 2486 0778 2E000000 		.4byte	.LBB70
 2487 077c 5C000000 		.4byte	.LBE70
 2488 0780 C9070000 		.4byte	0x7c9
 2489 0784 24       		.uleb128 0x24
 2490 0785 747000   		.ascii	"tp\000"
 2491 0788 01       		.byte	0x1
 2492 0789 1201     		.2byte	0x112
 2493 078b 2C020000 		.4byte	0x22c
 2494 078f 25       		.uleb128 0x25
 2495 0790 22010000 		.4byte	.LASF70
 2496 0794 01       		.byte	0x1
 2497 0795 1601     		.2byte	0x116
 2498 0797 BC000000 		.4byte	0xbc
 2499 079b D0030000 		.4byte	.LLST34
 2500 079f 26       		.uleb128 0x26
 2501 07a0 8F040000 		.4byte	0x48f
 2502 07a4 46000000 		.4byte	.LBB71
 2503 07a8 48010000 		.4byte	.Ldebug_ranges0+0x148
 2504 07ac 01       		.byte	0x1
 2505 07ad 2501     		.2byte	0x125
 2506 07af 1B       		.uleb128 0x1b
 2507 07b0 A0040000 		.4byte	0x4a0
 2508 07b4 07040000 		.4byte	.LLST35
 2509 07b8 19       		.uleb128 0x19
 2510 07b9 68010000 		.4byte	.Ldebug_ranges0+0x168
 2511 07bd 1C       		.uleb128 0x1c
 2512 07be AB040000 		.4byte	0x4ab
 2513 07c2 1A040000 		.4byte	.LLST36
 2514 07c6 00       		.byte	0x0
 2515 07c7 00       		.byte	0x0
 2516 07c8 00       		.byte	0x0
 2517 07c9 1F       		.uleb128 0x1f
 2518 07ca 60000000 		.4byte	.LBB77
 2519 07ce 66000000 		.4byte	.LBE77
ARM GAS  C:\Users\z80\AppData\Local\Temp\cczVfvz8.s 			page 46


 2520 07d2 22       		.uleb128 0x22
 2521 07d3 746D7000 		.ascii	"tmp\000"
 2522 07d7 01       		.byte	0x1
 2523 07d8 2D01     		.2byte	0x12d
 2524 07da 70000000 		.4byte	0x70
 2525 07de 2E040000 		.4byte	.LLST37
 2526 07e2 00       		.byte	0x0
 2527 07e3 00       		.byte	0x0
 2528 07e4 21       		.uleb128 0x21
 2529 07e5 01       		.byte	0x1
 2530 07e6 50020000 		.4byte	.LASF71
 2531 07ea 01       		.byte	0x1
 2532 07eb 3D01     		.2byte	0x13d
 2533 07ed 01       		.byte	0x1
 2534 07ee 3A040000 		.4byte	0x43a
 2535 07f2 00000000 		.4byte	.LFB13
 2536 07f6 74000000 		.4byte	.LFE13
 2537 07fa 41040000 		.4byte	.LLST38
 2538 07fe 80080000 		.4byte	0x880
 2539 0802 22       		.uleb128 0x22
 2540 0803 63747000 		.ascii	"ctp\000"
 2541 0807 01       		.byte	0x1
 2542 0808 3E01     		.2byte	0x13e
 2543 080a 2C020000 		.4byte	0x22c
 2544 080e 61040000 		.4byte	.LLST39
 2545 0812 22       		.uleb128 0x22
 2546 0813 756D7000 		.ascii	"ump\000"
 2547 0817 01       		.byte	0x1
 2548 0818 3F01     		.2byte	0x13f
 2549 081a 3A040000 		.4byte	0x43a
 2550 081e 80040000 		.4byte	.LLST40
 2551 0822 22       		.uleb128 0x22
 2552 0823 6D7000   		.ascii	"mp\000"
 2553 0826 01       		.byte	0x1
 2554 0827 3F01     		.2byte	0x13f
 2555 0829 3A040000 		.4byte	0x43a
 2556 082d 93040000 		.4byte	.LLST41
 2557 0831 1F       		.uleb128 0x1f
 2558 0832 28000000 		.4byte	.LBB78
 2559 0836 54000000 		.4byte	.LBE78
 2560 083a 24       		.uleb128 0x24
 2561 083b 747000   		.ascii	"tp\000"
 2562 083e 01       		.byte	0x1
 2563 083f 4F01     		.2byte	0x14f
 2564 0841 2C020000 		.4byte	0x22c
 2565 0845 25       		.uleb128 0x25
 2566 0846 22010000 		.4byte	.LASF70
 2567 084a 01       		.byte	0x1
 2568 084b 5301     		.2byte	0x153
 2569 084d BC000000 		.4byte	0xbc
 2570 0851 BD040000 		.4byte	.LLST42
 2571 0855 26       		.uleb128 0x26
 2572 0856 8F040000 		.4byte	0x48f
 2573 085a 40000000 		.4byte	.LBB79
 2574 085e 88010000 		.4byte	.Ldebug_ranges0+0x188
 2575 0862 01       		.byte	0x1
 2576 0863 6001     		.2byte	0x160
ARM GAS  C:\Users\z80\AppData\Local\Temp\cczVfvz8.s 			page 47


 2577 0865 1B       		.uleb128 0x1b
 2578 0866 A0040000 		.4byte	0x4a0
 2579 086a E8040000 		.4byte	.LLST43
 2580 086e 19       		.uleb128 0x19
 2581 086f A0010000 		.4byte	.Ldebug_ranges0+0x1a0
 2582 0873 1C       		.uleb128 0x1c
 2583 0874 AB040000 		.4byte	0x4ab
 2584 0878 FB040000 		.4byte	.LLST44
 2585 087c 00       		.byte	0x0
 2586 087d 00       		.byte	0x0
 2587 087e 00       		.byte	0x0
 2588 087f 00       		.byte	0x0
 2589 0880 27       		.uleb128 0x27
 2590 0881 01       		.byte	0x1
 2591 0882 13010000 		.4byte	.LASF72
 2592 0886 01       		.byte	0x1
 2593 0887 7601     		.2byte	0x176
 2594 0889 01       		.byte	0x1
 2595 088a 00000000 		.4byte	.LFB14
 2596 088e 5C000000 		.4byte	.LFE14
 2597 0892 0F050000 		.4byte	.LLST45
 2598 0896 37090000 		.4byte	0x937
 2599 089a 22       		.uleb128 0x22
 2600 089b 63747000 		.ascii	"ctp\000"
 2601 089f 01       		.byte	0x1
 2602 08a0 7701     		.2byte	0x177
 2603 08a2 2C020000 		.4byte	0x22c
 2604 08a6 2F050000 		.4byte	.LLST46
 2605 08aa 23       		.uleb128 0x23
 2606 08ab 06000000 		.4byte	.LBB83
 2607 08af 0C000000 		.4byte	.LBE83
 2608 08b3 C8080000 		.4byte	0x8c8
 2609 08b7 22       		.uleb128 0x22
 2610 08b8 746D7000 		.ascii	"tmp\000"
 2611 08bc 01       		.byte	0x1
 2612 08bd 7901     		.2byte	0x179
 2613 08bf 70000000 		.4byte	0x70
 2614 08c3 4E050000 		.4byte	.LLST47
 2615 08c7 00       		.byte	0x0
 2616 08c8 23       		.uleb128 0x23
 2617 08c9 14000000 		.4byte	.LBB84
 2618 08cd 40000000 		.4byte	.LBE84
 2619 08d1 1C090000 		.4byte	0x91c
 2620 08d5 22       		.uleb128 0x22
 2621 08d6 756D7000 		.ascii	"ump\000"
 2622 08da 01       		.byte	0x1
 2623 08db 7C01     		.2byte	0x17c
 2624 08dd 3A040000 		.4byte	0x43a
 2625 08e1 61050000 		.4byte	.LLST48
 2626 08e5 19       		.uleb128 0x19
 2627 08e6 B8010000 		.4byte	.Ldebug_ranges0+0x1b8
 2628 08ea 24       		.uleb128 0x24
 2629 08eb 747000   		.ascii	"tp\000"
 2630 08ee 01       		.byte	0x1
 2631 08ef 7F01     		.2byte	0x17f
 2632 08f1 2C020000 		.4byte	0x22c
 2633 08f5 26       		.uleb128 0x26
ARM GAS  C:\Users\z80\AppData\Local\Temp\cczVfvz8.s 			page 48


 2634 08f6 8F040000 		.4byte	0x48f
 2635 08fa 28000000 		.4byte	.LBB86
 2636 08fe D0010000 		.4byte	.Ldebug_ranges0+0x1d0
 2637 0902 01       		.byte	0x1
 2638 0903 7F01     		.2byte	0x17f
 2639 0905 28       		.uleb128 0x28
 2640 0906 A0040000 		.4byte	0x4a0
 2641 090a 19       		.uleb128 0x19
 2642 090b E8010000 		.4byte	.Ldebug_ranges0+0x1e8
 2643 090f 1C       		.uleb128 0x1c
 2644 0910 AB040000 		.4byte	0x4ab
 2645 0914 74050000 		.4byte	.LLST49
 2646 0918 00       		.byte	0x0
 2647 0919 00       		.byte	0x0
 2648 091a 00       		.byte	0x0
 2649 091b 00       		.byte	0x0
 2650 091c 1F       		.uleb128 0x1f
 2651 091d 50000000 		.4byte	.LBB91
 2652 0921 56000000 		.4byte	.LBE91
 2653 0925 22       		.uleb128 0x22
 2654 0926 746D7000 		.ascii	"tmp\000"
 2655 092a 01       		.byte	0x1
 2656 092b 8B01     		.2byte	0x18b
 2657 092d 70000000 		.4byte	0x70
 2658 0931 87050000 		.4byte	.LLST50
 2659 0935 00       		.byte	0x0
 2660 0936 00       		.byte	0x0
 2661 0937 29       		.uleb128 0x29
 2662 0938 DA020000 		.4byte	.LASF73
 2663 093c 08       		.byte	0x8
 2664 093d 72       		.byte	0x72
 2665 093e 9A030000 		.4byte	0x39a
 2666 0942 01       		.byte	0x1
 2667 0943 01       		.byte	0x1
 2668 0944 29       		.uleb128 0x29
 2669 0945 DA020000 		.4byte	.LASF73
 2670 0949 08       		.byte	0x8
 2671 094a 72       		.byte	0x72
 2672 094b 9A030000 		.4byte	0x39a
 2673 094f 01       		.byte	0x1
 2674 0950 01       		.byte	0x1
 2675 0951 00       		.byte	0x0
 2676              		.section	.debug_abbrev
 2677 0000 01       		.uleb128 0x1
 2678 0001 11       		.uleb128 0x11
 2679 0002 01       		.byte	0x1
 2680 0003 25       		.uleb128 0x25
 2681 0004 0E       		.uleb128 0xe
 2682 0005 13       		.uleb128 0x13
 2683 0006 0B       		.uleb128 0xb
 2684 0007 03       		.uleb128 0x3
 2685 0008 0E       		.uleb128 0xe
 2686 0009 1B       		.uleb128 0x1b
 2687 000a 0E       		.uleb128 0xe
 2688 000b 11       		.uleb128 0x11
 2689 000c 01       		.uleb128 0x1
 2690 000d 52       		.uleb128 0x52
ARM GAS  C:\Users\z80\AppData\Local\Temp\cczVfvz8.s 			page 49


 2691 000e 01       		.uleb128 0x1
 2692 000f 55       		.uleb128 0x55
 2693 0010 06       		.uleb128 0x6
 2694 0011 10       		.uleb128 0x10
 2695 0012 06       		.uleb128 0x6
 2696 0013 00       		.byte	0x0
 2697 0014 00       		.byte	0x0
 2698 0015 02       		.uleb128 0x2
 2699 0016 24       		.uleb128 0x24
 2700 0017 00       		.byte	0x0
 2701 0018 0B       		.uleb128 0xb
 2702 0019 0B       		.uleb128 0xb
 2703 001a 3E       		.uleb128 0x3e
 2704 001b 0B       		.uleb128 0xb
 2705 001c 03       		.uleb128 0x3
 2706 001d 08       		.uleb128 0x8
 2707 001e 00       		.byte	0x0
 2708 001f 00       		.byte	0x0
 2709 0020 03       		.uleb128 0x3
 2710 0021 24       		.uleb128 0x24
 2711 0022 00       		.byte	0x0
 2712 0023 0B       		.uleb128 0xb
 2713 0024 0B       		.uleb128 0xb
 2714 0025 3E       		.uleb128 0x3e
 2715 0026 0B       		.uleb128 0xb
 2716 0027 03       		.uleb128 0x3
 2717 0028 0E       		.uleb128 0xe
 2718 0029 00       		.byte	0x0
 2719 002a 00       		.byte	0x0
 2720 002b 04       		.uleb128 0x4
 2721 002c 16       		.uleb128 0x16
 2722 002d 00       		.byte	0x0
 2723 002e 03       		.uleb128 0x3
 2724 002f 0E       		.uleb128 0xe
 2725 0030 3A       		.uleb128 0x3a
 2726 0031 0B       		.uleb128 0xb
 2727 0032 3B       		.uleb128 0x3b
 2728 0033 0B       		.uleb128 0xb
 2729 0034 49       		.uleb128 0x49
 2730 0035 13       		.uleb128 0x13
 2731 0036 00       		.byte	0x0
 2732 0037 00       		.byte	0x0
 2733 0038 05       		.uleb128 0x5
 2734 0039 13       		.uleb128 0x13
 2735 003a 01       		.byte	0x1
 2736 003b 03       		.uleb128 0x3
 2737 003c 0E       		.uleb128 0xe
 2738 003d 0B       		.uleb128 0xb
 2739 003e 0B       		.uleb128 0xb
 2740 003f 3A       		.uleb128 0x3a
 2741 0040 0B       		.uleb128 0xb
 2742 0041 3B       		.uleb128 0x3b
 2743 0042 0B       		.uleb128 0xb
 2744 0043 01       		.uleb128 0x1
 2745 0044 13       		.uleb128 0x13
 2746 0045 00       		.byte	0x0
 2747 0046 00       		.byte	0x0
ARM GAS  C:\Users\z80\AppData\Local\Temp\cczVfvz8.s 			page 50


 2748 0047 06       		.uleb128 0x6
 2749 0048 0D       		.uleb128 0xd
 2750 0049 00       		.byte	0x0
 2751 004a 03       		.uleb128 0x3
 2752 004b 0E       		.uleb128 0xe
 2753 004c 3A       		.uleb128 0x3a
 2754 004d 0B       		.uleb128 0xb
 2755 004e 3B       		.uleb128 0x3b
 2756 004f 0B       		.uleb128 0xb
 2757 0050 49       		.uleb128 0x49
 2758 0051 13       		.uleb128 0x13
 2759 0052 38       		.uleb128 0x38
 2760 0053 0A       		.uleb128 0xa
 2761 0054 00       		.byte	0x0
 2762 0055 00       		.byte	0x0
 2763 0056 07       		.uleb128 0x7
 2764 0057 0D       		.uleb128 0xd
 2765 0058 00       		.byte	0x0
 2766 0059 03       		.uleb128 0x3
 2767 005a 08       		.uleb128 0x8
 2768 005b 3A       		.uleb128 0x3a
 2769 005c 0B       		.uleb128 0xb
 2770 005d 3B       		.uleb128 0x3b
 2771 005e 0B       		.uleb128 0xb
 2772 005f 49       		.uleb128 0x49
 2773 0060 13       		.uleb128 0x13
 2774 0061 38       		.uleb128 0x38
 2775 0062 0A       		.uleb128 0xa
 2776 0063 00       		.byte	0x0
 2777 0064 00       		.byte	0x0
 2778 0065 08       		.uleb128 0x8
 2779 0066 13       		.uleb128 0x13
 2780 0067 01       		.byte	0x1
 2781 0068 0B       		.uleb128 0xb
 2782 0069 0B       		.uleb128 0xb
 2783 006a 3A       		.uleb128 0x3a
 2784 006b 0B       		.uleb128 0xb
 2785 006c 3B       		.uleb128 0x3b
 2786 006d 0B       		.uleb128 0xb
 2787 006e 01       		.uleb128 0x1
 2788 006f 13       		.uleb128 0x13
 2789 0070 00       		.byte	0x0
 2790 0071 00       		.byte	0x0
 2791 0072 09       		.uleb128 0x9
 2792 0073 0F       		.uleb128 0xf
 2793 0074 00       		.byte	0x0
 2794 0075 0B       		.uleb128 0xb
 2795 0076 0B       		.uleb128 0xb
 2796 0077 49       		.uleb128 0x49
 2797 0078 13       		.uleb128 0x13
 2798 0079 00       		.byte	0x0
 2799 007a 00       		.byte	0x0
 2800 007b 0A       		.uleb128 0xa
 2801 007c 0F       		.uleb128 0xf
 2802 007d 00       		.byte	0x0
 2803 007e 0B       		.uleb128 0xb
 2804 007f 0B       		.uleb128 0xb
ARM GAS  C:\Users\z80\AppData\Local\Temp\cczVfvz8.s 			page 51


 2805 0080 00       		.byte	0x0
 2806 0081 00       		.byte	0x0
 2807 0082 0B       		.uleb128 0xb
 2808 0083 0D       		.uleb128 0xd
 2809 0084 00       		.byte	0x0
 2810 0085 03       		.uleb128 0x3
 2811 0086 08       		.uleb128 0x8
 2812 0087 3A       		.uleb128 0x3a
 2813 0088 0B       		.uleb128 0xb
 2814 0089 3B       		.uleb128 0x3b
 2815 008a 05       		.uleb128 0x5
 2816 008b 49       		.uleb128 0x49
 2817 008c 13       		.uleb128 0x13
 2818 008d 38       		.uleb128 0x38
 2819 008e 0A       		.uleb128 0xa
 2820 008f 00       		.byte	0x0
 2821 0090 00       		.byte	0x0
 2822 0091 0C       		.uleb128 0xc
 2823 0092 13       		.uleb128 0x13
 2824 0093 01       		.byte	0x1
 2825 0094 03       		.uleb128 0x3
 2826 0095 0E       		.uleb128 0xe
 2827 0096 0B       		.uleb128 0xb
 2828 0097 0B       		.uleb128 0xb
 2829 0098 3A       		.uleb128 0x3a
 2830 0099 0B       		.uleb128 0xb
 2831 009a 3B       		.uleb128 0x3b
 2832 009b 05       		.uleb128 0x5
 2833 009c 01       		.uleb128 0x1
 2834 009d 13       		.uleb128 0x13
 2835 009e 00       		.byte	0x0
 2836 009f 00       		.byte	0x0
 2837 00a0 0D       		.uleb128 0xd
 2838 00a1 24       		.uleb128 0x24
 2839 00a2 00       		.byte	0x0
 2840 00a3 0B       		.uleb128 0xb
 2841 00a4 0B       		.uleb128 0xb
 2842 00a5 3E       		.uleb128 0x3e
 2843 00a6 0B       		.uleb128 0xb
 2844 00a7 00       		.byte	0x0
 2845 00a8 00       		.byte	0x0
 2846 00a9 0E       		.uleb128 0xe
 2847 00aa 35       		.uleb128 0x35
 2848 00ab 00       		.byte	0x0
 2849 00ac 49       		.uleb128 0x49
 2850 00ad 13       		.uleb128 0x13
 2851 00ae 00       		.byte	0x0
 2852 00af 00       		.byte	0x0
 2853 00b0 0F       		.uleb128 0xf
 2854 00b1 17       		.uleb128 0x17
 2855 00b2 01       		.byte	0x1
 2856 00b3 0B       		.uleb128 0xb
 2857 00b4 0B       		.uleb128 0xb
 2858 00b5 3A       		.uleb128 0x3a
 2859 00b6 0B       		.uleb128 0xb
 2860 00b7 3B       		.uleb128 0x3b
 2861 00b8 0B       		.uleb128 0xb
ARM GAS  C:\Users\z80\AppData\Local\Temp\cczVfvz8.s 			page 52


 2862 00b9 01       		.uleb128 0x1
 2863 00ba 13       		.uleb128 0x13
 2864 00bb 00       		.byte	0x0
 2865 00bc 00       		.byte	0x0
 2866 00bd 10       		.uleb128 0x10
 2867 00be 0D       		.uleb128 0xd
 2868 00bf 00       		.byte	0x0
 2869 00c0 03       		.uleb128 0x3
 2870 00c1 0E       		.uleb128 0xe
 2871 00c2 3A       		.uleb128 0x3a
 2872 00c3 0B       		.uleb128 0xb
 2873 00c4 3B       		.uleb128 0x3b
 2874 00c5 0B       		.uleb128 0xb
 2875 00c6 49       		.uleb128 0x49
 2876 00c7 13       		.uleb128 0x13
 2877 00c8 00       		.byte	0x0
 2878 00c9 00       		.byte	0x0
 2879 00ca 11       		.uleb128 0x11
 2880 00cb 26       		.uleb128 0x26
 2881 00cc 00       		.byte	0x0
 2882 00cd 49       		.uleb128 0x49
 2883 00ce 13       		.uleb128 0x13
 2884 00cf 00       		.byte	0x0
 2885 00d0 00       		.byte	0x0
 2886 00d1 12       		.uleb128 0x12
 2887 00d2 2E       		.uleb128 0x2e
 2888 00d3 01       		.byte	0x1
 2889 00d4 03       		.uleb128 0x3
 2890 00d5 0E       		.uleb128 0xe
 2891 00d6 3A       		.uleb128 0x3a
 2892 00d7 0B       		.uleb128 0xb
 2893 00d8 3B       		.uleb128 0x3b
 2894 00d9 0B       		.uleb128 0xb
 2895 00da 27       		.uleb128 0x27
 2896 00db 0C       		.uleb128 0xc
 2897 00dc 49       		.uleb128 0x49
 2898 00dd 13       		.uleb128 0x13
 2899 00de 20       		.uleb128 0x20
 2900 00df 0B       		.uleb128 0xb
 2901 00e0 01       		.uleb128 0x1
 2902 00e1 13       		.uleb128 0x13
 2903 00e2 00       		.byte	0x0
 2904 00e3 00       		.byte	0x0
 2905 00e4 13       		.uleb128 0x13
 2906 00e5 05       		.uleb128 0x5
 2907 00e6 00       		.byte	0x0
 2908 00e7 03       		.uleb128 0x3
 2909 00e8 08       		.uleb128 0x8
 2910 00e9 3A       		.uleb128 0x3a
 2911 00ea 0B       		.uleb128 0xb
 2912 00eb 3B       		.uleb128 0x3b
 2913 00ec 0B       		.uleb128 0xb
 2914 00ed 49       		.uleb128 0x49
 2915 00ee 13       		.uleb128 0x13
 2916 00ef 00       		.byte	0x0
 2917 00f0 00       		.byte	0x0
 2918 00f1 14       		.uleb128 0x14
ARM GAS  C:\Users\z80\AppData\Local\Temp\cczVfvz8.s 			page 53


 2919 00f2 2E       		.uleb128 0x2e
 2920 00f3 01       		.byte	0x1
 2921 00f4 03       		.uleb128 0x3
 2922 00f5 0E       		.uleb128 0xe
 2923 00f6 3A       		.uleb128 0x3a
 2924 00f7 0B       		.uleb128 0xb
 2925 00f8 3B       		.uleb128 0x3b
 2926 00f9 0B       		.uleb128 0xb
 2927 00fa 27       		.uleb128 0x27
 2928 00fb 0C       		.uleb128 0xc
 2929 00fc 20       		.uleb128 0x20
 2930 00fd 0B       		.uleb128 0xb
 2931 00fe 01       		.uleb128 0x1
 2932 00ff 13       		.uleb128 0x13
 2933 0100 00       		.byte	0x0
 2934 0101 00       		.byte	0x0
 2935 0102 15       		.uleb128 0x15
 2936 0103 34       		.uleb128 0x34
 2937 0104 00       		.byte	0x0
 2938 0105 03       		.uleb128 0x3
 2939 0106 08       		.uleb128 0x8
 2940 0107 3A       		.uleb128 0x3a
 2941 0108 0B       		.uleb128 0xb
 2942 0109 3B       		.uleb128 0x3b
 2943 010a 0B       		.uleb128 0xb
 2944 010b 49       		.uleb128 0x49
 2945 010c 13       		.uleb128 0x13
 2946 010d 00       		.byte	0x0
 2947 010e 00       		.byte	0x0
 2948 010f 16       		.uleb128 0x16
 2949 0110 2E       		.uleb128 0x2e
 2950 0111 01       		.byte	0x1
 2951 0112 3F       		.uleb128 0x3f
 2952 0113 0C       		.uleb128 0xc
 2953 0114 03       		.uleb128 0x3
 2954 0115 0E       		.uleb128 0xe
 2955 0116 3A       		.uleb128 0x3a
 2956 0117 0B       		.uleb128 0xb
 2957 0118 3B       		.uleb128 0x3b
 2958 0119 0B       		.uleb128 0xb
 2959 011a 27       		.uleb128 0x27
 2960 011b 0C       		.uleb128 0xc
 2961 011c 11       		.uleb128 0x11
 2962 011d 01       		.uleb128 0x1
 2963 011e 12       		.uleb128 0x12
 2964 011f 01       		.uleb128 0x1
 2965 0120 40       		.uleb128 0x40
 2966 0121 06       		.uleb128 0x6
 2967 0122 01       		.uleb128 0x1
 2968 0123 13       		.uleb128 0x13
 2969 0124 00       		.byte	0x0
 2970 0125 00       		.byte	0x0
 2971 0126 17       		.uleb128 0x17
 2972 0127 05       		.uleb128 0x5
 2973 0128 00       		.byte	0x0
 2974 0129 03       		.uleb128 0x3
 2975 012a 08       		.uleb128 0x8
ARM GAS  C:\Users\z80\AppData\Local\Temp\cczVfvz8.s 			page 54


 2976 012b 3A       		.uleb128 0x3a
 2977 012c 0B       		.uleb128 0xb
 2978 012d 3B       		.uleb128 0x3b
 2979 012e 0B       		.uleb128 0xb
 2980 012f 49       		.uleb128 0x49
 2981 0130 13       		.uleb128 0x13
 2982 0131 02       		.uleb128 0x2
 2983 0132 06       		.uleb128 0x6
 2984 0133 00       		.byte	0x0
 2985 0134 00       		.byte	0x0
 2986 0135 18       		.uleb128 0x18
 2987 0136 34       		.uleb128 0x34
 2988 0137 00       		.byte	0x0
 2989 0138 03       		.uleb128 0x3
 2990 0139 08       		.uleb128 0x8
 2991 013a 3A       		.uleb128 0x3a
 2992 013b 0B       		.uleb128 0xb
 2993 013c 3B       		.uleb128 0x3b
 2994 013d 0B       		.uleb128 0xb
 2995 013e 49       		.uleb128 0x49
 2996 013f 13       		.uleb128 0x13
 2997 0140 02       		.uleb128 0x2
 2998 0141 06       		.uleb128 0x6
 2999 0142 00       		.byte	0x0
 3000 0143 00       		.byte	0x0
 3001 0144 19       		.uleb128 0x19
 3002 0145 0B       		.uleb128 0xb
 3003 0146 01       		.byte	0x1
 3004 0147 55       		.uleb128 0x55
 3005 0148 06       		.uleb128 0x6
 3006 0149 00       		.byte	0x0
 3007 014a 00       		.byte	0x0
 3008 014b 1A       		.uleb128 0x1a
 3009 014c 1D       		.uleb128 0x1d
 3010 014d 01       		.byte	0x1
 3011 014e 31       		.uleb128 0x31
 3012 014f 13       		.uleb128 0x13
 3013 0150 52       		.uleb128 0x52
 3014 0151 01       		.uleb128 0x1
 3015 0152 55       		.uleb128 0x55
 3016 0153 06       		.uleb128 0x6
 3017 0154 58       		.uleb128 0x58
 3018 0155 0B       		.uleb128 0xb
 3019 0156 59       		.uleb128 0x59
 3020 0157 0B       		.uleb128 0xb
 3021 0158 01       		.uleb128 0x1
 3022 0159 13       		.uleb128 0x13
 3023 015a 00       		.byte	0x0
 3024 015b 00       		.byte	0x0
 3025 015c 1B       		.uleb128 0x1b
 3026 015d 05       		.uleb128 0x5
 3027 015e 00       		.byte	0x0
 3028 015f 31       		.uleb128 0x31
 3029 0160 13       		.uleb128 0x13
 3030 0161 02       		.uleb128 0x2
 3031 0162 06       		.uleb128 0x6
 3032 0163 00       		.byte	0x0
ARM GAS  C:\Users\z80\AppData\Local\Temp\cczVfvz8.s 			page 55


 3033 0164 00       		.byte	0x0
 3034 0165 1C       		.uleb128 0x1c
 3035 0166 34       		.uleb128 0x34
 3036 0167 00       		.byte	0x0
 3037 0168 31       		.uleb128 0x31
 3038 0169 13       		.uleb128 0x13
 3039 016a 02       		.uleb128 0x2
 3040 016b 06       		.uleb128 0x6
 3041 016c 00       		.byte	0x0
 3042 016d 00       		.byte	0x0
 3043 016e 1D       		.uleb128 0x1d
 3044 016f 1D       		.uleb128 0x1d
 3045 0170 01       		.byte	0x1
 3046 0171 31       		.uleb128 0x31
 3047 0172 13       		.uleb128 0x13
 3048 0173 52       		.uleb128 0x52
 3049 0174 01       		.uleb128 0x1
 3050 0175 55       		.uleb128 0x55
 3051 0176 06       		.uleb128 0x6
 3052 0177 58       		.uleb128 0x58
 3053 0178 0B       		.uleb128 0xb
 3054 0179 59       		.uleb128 0x59
 3055 017a 0B       		.uleb128 0xb
 3056 017b 00       		.byte	0x0
 3057 017c 00       		.byte	0x0
 3058 017d 1E       		.uleb128 0x1e
 3059 017e 0B       		.uleb128 0xb
 3060 017f 01       		.byte	0x1
 3061 0180 55       		.uleb128 0x55
 3062 0181 06       		.uleb128 0x6
 3063 0182 01       		.uleb128 0x1
 3064 0183 13       		.uleb128 0x13
 3065 0184 00       		.byte	0x0
 3066 0185 00       		.byte	0x0
 3067 0186 1F       		.uleb128 0x1f
 3068 0187 0B       		.uleb128 0xb
 3069 0188 01       		.byte	0x1
 3070 0189 11       		.uleb128 0x11
 3071 018a 01       		.uleb128 0x1
 3072 018b 12       		.uleb128 0x12
 3073 018c 01       		.uleb128 0x1
 3074 018d 00       		.byte	0x0
 3075 018e 00       		.byte	0x0
 3076 018f 20       		.uleb128 0x20
 3077 0190 2E       		.uleb128 0x2e
 3078 0191 01       		.byte	0x1
 3079 0192 3F       		.uleb128 0x3f
 3080 0193 0C       		.uleb128 0xc
 3081 0194 03       		.uleb128 0x3
 3082 0195 0E       		.uleb128 0xe
 3083 0196 3A       		.uleb128 0x3a
 3084 0197 0B       		.uleb128 0xb
 3085 0198 3B       		.uleb128 0x3b
 3086 0199 0B       		.uleb128 0xb
 3087 019a 27       		.uleb128 0x27
 3088 019b 0C       		.uleb128 0xc
 3089 019c 49       		.uleb128 0x49
ARM GAS  C:\Users\z80\AppData\Local\Temp\cczVfvz8.s 			page 56


 3090 019d 13       		.uleb128 0x13
 3091 019e 11       		.uleb128 0x11
 3092 019f 01       		.uleb128 0x1
 3093 01a0 12       		.uleb128 0x12
 3094 01a1 01       		.uleb128 0x1
 3095 01a2 40       		.uleb128 0x40
 3096 01a3 06       		.uleb128 0x6
 3097 01a4 01       		.uleb128 0x1
 3098 01a5 13       		.uleb128 0x13
 3099 01a6 00       		.byte	0x0
 3100 01a7 00       		.byte	0x0
 3101 01a8 21       		.uleb128 0x21
 3102 01a9 2E       		.uleb128 0x2e
 3103 01aa 01       		.byte	0x1
 3104 01ab 3F       		.uleb128 0x3f
 3105 01ac 0C       		.uleb128 0xc
 3106 01ad 03       		.uleb128 0x3
 3107 01ae 0E       		.uleb128 0xe
 3108 01af 3A       		.uleb128 0x3a
 3109 01b0 0B       		.uleb128 0xb
 3110 01b1 3B       		.uleb128 0x3b
 3111 01b2 05       		.uleb128 0x5
 3112 01b3 27       		.uleb128 0x27
 3113 01b4 0C       		.uleb128 0xc
 3114 01b5 49       		.uleb128 0x49
 3115 01b6 13       		.uleb128 0x13
 3116 01b7 11       		.uleb128 0x11
 3117 01b8 01       		.uleb128 0x1
 3118 01b9 12       		.uleb128 0x12
 3119 01ba 01       		.uleb128 0x1
 3120 01bb 40       		.uleb128 0x40
 3121 01bc 06       		.uleb128 0x6
 3122 01bd 01       		.uleb128 0x1
 3123 01be 13       		.uleb128 0x13
 3124 01bf 00       		.byte	0x0
 3125 01c0 00       		.byte	0x0
 3126 01c1 22       		.uleb128 0x22
 3127 01c2 34       		.uleb128 0x34
 3128 01c3 00       		.byte	0x0
 3129 01c4 03       		.uleb128 0x3
 3130 01c5 08       		.uleb128 0x8
 3131 01c6 3A       		.uleb128 0x3a
 3132 01c7 0B       		.uleb128 0xb
 3133 01c8 3B       		.uleb128 0x3b
 3134 01c9 05       		.uleb128 0x5
 3135 01ca 49       		.uleb128 0x49
 3136 01cb 13       		.uleb128 0x13
 3137 01cc 02       		.uleb128 0x2
 3138 01cd 06       		.uleb128 0x6
 3139 01ce 00       		.byte	0x0
 3140 01cf 00       		.byte	0x0
 3141 01d0 23       		.uleb128 0x23
 3142 01d1 0B       		.uleb128 0xb
 3143 01d2 01       		.byte	0x1
 3144 01d3 11       		.uleb128 0x11
 3145 01d4 01       		.uleb128 0x1
 3146 01d5 12       		.uleb128 0x12
ARM GAS  C:\Users\z80\AppData\Local\Temp\cczVfvz8.s 			page 57


 3147 01d6 01       		.uleb128 0x1
 3148 01d7 01       		.uleb128 0x1
 3149 01d8 13       		.uleb128 0x13
 3150 01d9 00       		.byte	0x0
 3151 01da 00       		.byte	0x0
 3152 01db 24       		.uleb128 0x24
 3153 01dc 34       		.uleb128 0x34
 3154 01dd 00       		.byte	0x0
 3155 01de 03       		.uleb128 0x3
 3156 01df 08       		.uleb128 0x8
 3157 01e0 3A       		.uleb128 0x3a
 3158 01e1 0B       		.uleb128 0xb
 3159 01e2 3B       		.uleb128 0x3b
 3160 01e3 05       		.uleb128 0x5
 3161 01e4 49       		.uleb128 0x49
 3162 01e5 13       		.uleb128 0x13
 3163 01e6 00       		.byte	0x0
 3164 01e7 00       		.byte	0x0
 3165 01e8 25       		.uleb128 0x25
 3166 01e9 34       		.uleb128 0x34
 3167 01ea 00       		.byte	0x0
 3168 01eb 03       		.uleb128 0x3
 3169 01ec 0E       		.uleb128 0xe
 3170 01ed 3A       		.uleb128 0x3a
 3171 01ee 0B       		.uleb128 0xb
 3172 01ef 3B       		.uleb128 0x3b
 3173 01f0 05       		.uleb128 0x5
 3174 01f1 49       		.uleb128 0x49
 3175 01f2 13       		.uleb128 0x13
 3176 01f3 02       		.uleb128 0x2
 3177 01f4 06       		.uleb128 0x6
 3178 01f5 00       		.byte	0x0
 3179 01f6 00       		.byte	0x0
 3180 01f7 26       		.uleb128 0x26
 3181 01f8 1D       		.uleb128 0x1d
 3182 01f9 01       		.byte	0x1
 3183 01fa 31       		.uleb128 0x31
 3184 01fb 13       		.uleb128 0x13
 3185 01fc 52       		.uleb128 0x52
 3186 01fd 01       		.uleb128 0x1
 3187 01fe 55       		.uleb128 0x55
 3188 01ff 06       		.uleb128 0x6
 3189 0200 58       		.uleb128 0x58
 3190 0201 0B       		.uleb128 0xb
 3191 0202 59       		.uleb128 0x59
 3192 0203 05       		.uleb128 0x5
 3193 0204 00       		.byte	0x0
 3194 0205 00       		.byte	0x0
 3195 0206 27       		.uleb128 0x27
 3196 0207 2E       		.uleb128 0x2e
 3197 0208 01       		.byte	0x1
 3198 0209 3F       		.uleb128 0x3f
 3199 020a 0C       		.uleb128 0xc
 3200 020b 03       		.uleb128 0x3
 3201 020c 0E       		.uleb128 0xe
 3202 020d 3A       		.uleb128 0x3a
 3203 020e 0B       		.uleb128 0xb
ARM GAS  C:\Users\z80\AppData\Local\Temp\cczVfvz8.s 			page 58


 3204 020f 3B       		.uleb128 0x3b
 3205 0210 05       		.uleb128 0x5
 3206 0211 27       		.uleb128 0x27
 3207 0212 0C       		.uleb128 0xc
 3208 0213 11       		.uleb128 0x11
 3209 0214 01       		.uleb128 0x1
 3210 0215 12       		.uleb128 0x12
 3211 0216 01       		.uleb128 0x1
 3212 0217 40       		.uleb128 0x40
 3213 0218 06       		.uleb128 0x6
 3214 0219 01       		.uleb128 0x1
 3215 021a 13       		.uleb128 0x13
 3216 021b 00       		.byte	0x0
 3217 021c 00       		.byte	0x0
 3218 021d 28       		.uleb128 0x28
 3219 021e 05       		.uleb128 0x5
 3220 021f 00       		.byte	0x0
 3221 0220 31       		.uleb128 0x31
 3222 0221 13       		.uleb128 0x13
 3223 0222 00       		.byte	0x0
 3224 0223 00       		.byte	0x0
 3225 0224 29       		.uleb128 0x29
 3226 0225 34       		.uleb128 0x34
 3227 0226 00       		.byte	0x0
 3228 0227 03       		.uleb128 0x3
 3229 0228 0E       		.uleb128 0xe
 3230 0229 3A       		.uleb128 0x3a
 3231 022a 0B       		.uleb128 0xb
 3232 022b 3B       		.uleb128 0x3b
 3233 022c 0B       		.uleb128 0xb
 3234 022d 49       		.uleb128 0x49
 3235 022e 13       		.uleb128 0x13
 3236 022f 3F       		.uleb128 0x3f
 3237 0230 0C       		.uleb128 0xc
 3238 0231 3C       		.uleb128 0x3c
 3239 0232 0C       		.uleb128 0xc
 3240 0233 00       		.byte	0x0
 3241 0234 00       		.byte	0x0
 3242 0235 00       		.byte	0x0
 3243              		.section	.debug_pubnames,"",%progbits
 3244 0000 90000000 		.4byte	0x90
 3245 0004 0200     		.2byte	0x2
 3246 0006 00000000 		.4byte	.Ldebug_info0
 3247 000a 52090000 		.4byte	0x952
 3248 000e B6040000 		.4byte	0x4b6
 3249 0012 63684D74 		.ascii	"chMtxInit\000"
 3249      78496E69 
 3249      7400
 3250 001c DE040000 		.4byte	0x4de
 3251 0020 63684D74 		.ascii	"chMtxLockS\000"
 3251      784C6F63 
 3251      6B5300
 3252 002b 1B060000 		.4byte	0x61b
 3253 002f 63684D74 		.ascii	"chMtxLock\000"
 3253      784C6F63 
 3253      6B00
 3254 0039 75060000 		.4byte	0x675
ARM GAS  C:\Users\z80\AppData\Local\Temp\cczVfvz8.s 			page 59


 3255 003d 63684D74 		.ascii	"chMtxTryLockS\000"
 3255      78547279 
 3255      4C6F636B 
 3255      5300
 3256 004b A1060000 		.4byte	0x6a1
 3257 004f 63684D74 		.ascii	"chMtxTryLock\000"
 3257      78547279 
 3257      4C6F636B 
 3257      00
 3258 005c 0C070000 		.4byte	0x70c
 3259 0060 63684D74 		.ascii	"chMtxUnlock\000"
 3259      78556E6C 
 3259      6F636B00 
 3260 006c E4070000 		.4byte	0x7e4
 3261 0070 63684D74 		.ascii	"chMtxUnlockS\000"
 3261      78556E6C 
 3261      6F636B53 
 3261      00
 3262 007d 80080000 		.4byte	0x880
 3263 0081 63684D74 		.ascii	"chMtxUnlockAll\000"
 3263      78556E6C 
 3263      6F636B41 
 3263      6C6C00
 3264 0090 00000000 		.4byte	0x0
 3265              		.section	.debug_pubtypes,"",%progbits
 3266 0000 2E010000 		.4byte	0x12e
 3267 0004 0200     		.2byte	0x2
 3268 0006 00000000 		.4byte	.Ldebug_info0
 3269 000a 52090000 		.4byte	0x952
 3270 000e 3E000000 		.4byte	0x3e
 3271 0012 75696E74 		.ascii	"uint8_t\000"
 3271      385F7400 
 3272 001a 5E000000 		.4byte	0x5e
 3273 001e 696E7433 		.ascii	"int32_t\000"
 3273      325F7400 
 3274 0026 70000000 		.4byte	0x70
 3275 002a 75696E74 		.ascii	"uint32_t\000"
 3275      33325F74 
 3275      00
 3276 0033 89000000 		.4byte	0x89
 3277 0037 75696E74 		.ascii	"uint64_t\000"
 3277      36345F74 
 3277      00
 3278 0040 9B000000 		.4byte	0x9b
 3279 0044 626F6F6C 		.ascii	"bool_t\000"
 3279      5F7400
 3280 004b A6000000 		.4byte	0xa6
 3281 004f 746D6F64 		.ascii	"tmode_t\000"
 3281      655F7400 
 3282 0057 B1000000 		.4byte	0xb1
 3283 005b 74737461 		.ascii	"tstate_t\000"
 3283      74655F74 
 3283      00
 3284 0064 BC000000 		.4byte	0xbc
 3285 0068 74707269 		.ascii	"tprio_t\000"
 3285      6F5F7400 
 3286 0070 C7000000 		.4byte	0xc7
ARM GAS  C:\Users\z80\AppData\Local\Temp\cczVfvz8.s 			page 60


 3287 0074 6D73675F 		.ascii	"msg_t\000"
 3287      7400
 3288 007a D2000000 		.4byte	0xd2
 3289 007e 6576656E 		.ascii	"eventmask_t\000"
 3289      746D6173 
 3289      6B5F7400 
 3290 008a DD000000 		.4byte	0xdd
 3291 008e 73797374 		.ascii	"systime_t\000"
 3291      696D655F 
 3291      7400
 3292 0098 E8000000 		.4byte	0xe8
 3293 009c 636E745F 		.ascii	"cnt_t\000"
 3293      7400
 3294 00a2 F3000000 		.4byte	0xf3
 3295 00a6 54687265 		.ascii	"Thread\000"
 3295      616400
 3296 00ad 32020000 		.4byte	0x232
 3297 00b1 54687265 		.ascii	"ThreadsQueue\000"
 3297      61647351 
 3297      75657565 
 3297      00
 3298 00be 54020000 		.4byte	0x254
 3299 00c2 54687265 		.ascii	"ThreadsList\000"
 3299      6164734C 
 3299      69737400 
 3300 00ce 5F020000 		.4byte	0x25f
 3301 00d2 72656761 		.ascii	"regarm_t\000"
 3301      726D5F74 
 3301      00
 3302 00db 6C020000 		.4byte	0x26c
 3303 00df 73746B61 		.ascii	"stkalign_t\000"
 3303      6C69676E 
 3303      5F7400
 3304 00ea 77020000 		.4byte	0x277
 3305 00ee 696E7463 		.ascii	"intctx\000"
 3305      747800
 3306 00f5 04030000 		.4byte	0x304
 3307 00f9 636F6E74 		.ascii	"context\000"
 3307      65787400 
 3308 0101 9A030000 		.4byte	0x39a
 3309 0105 52656164 		.ascii	"ReadyList\000"
 3309      794C6973 
 3309      7400
 3310 010f A5030000 		.4byte	0x3a5
 3311 0113 4D757465 		.ascii	"Mutex\000"
 3311      7800
 3312 0119 E2030000 		.4byte	0x3e2
 3313 011d 4D757465 		.ascii	"Mutex\000"
 3313      7800
 3314 0123 FE000000 		.4byte	0xfe
 3315 0127 54687265 		.ascii	"Thread\000"
 3315      616400
 3316 012e 00000000 		.4byte	0x0
 3317              		.section	.debug_aranges,"",%progbits
 3318 0000 54000000 		.4byte	0x54
 3319 0004 0200     		.2byte	0x2
 3320 0006 00000000 		.4byte	.Ldebug_info0
ARM GAS  C:\Users\z80\AppData\Local\Temp\cczVfvz8.s 			page 61


 3321 000a 04       		.byte	0x4
 3322 000b 00       		.byte	0x0
 3323 000c 0000     		.2byte	0x0
 3324 000e 0000     		.2byte	0x0
 3325 0010 00000000 		.4byte	.LFB7
 3326 0014 1C000000 		.4byte	.LFE7-.LFB7
 3327 0018 00000000 		.4byte	.LFB9
 3328 001c 08010000 		.4byte	.LFE9-.LFB9
 3329 0020 00000000 		.4byte	.LFB8
 3330 0024 20000000 		.4byte	.LFE8-.LFB8
 3331 0028 00000000 		.4byte	.LFB11
 3332 002c 34000000 		.4byte	.LFE11-.LFB11
 3333 0030 00000000 		.4byte	.LFB10
 3334 0034 24000000 		.4byte	.LFE10-.LFB10
 3335 0038 00000000 		.4byte	.LFB12
 3336 003c 88000000 		.4byte	.LFE12-.LFB12
 3337 0040 00000000 		.4byte	.LFB13
 3338 0044 74000000 		.4byte	.LFE13-.LFB13
 3339 0048 00000000 		.4byte	.LFB14
 3340 004c 5C000000 		.4byte	.LFE14-.LFB14
 3341 0050 00000000 		.4byte	0x0
 3342 0054 00000000 		.4byte	0x0
 3343              		.section	.debug_ranges,"",%progbits
 3344              	.Ldebug_ranges0:
 3345 0000 16000000 		.4byte	.LBB29
 3346 0004 6A000000 		.4byte	.LBE29
 3347 0008 6C000000 		.4byte	.LBB62
 3348 000c E6000000 		.4byte	.LBE62
 3349 0010 00000000 		.4byte	0x0
 3350 0014 00000000 		.4byte	0x0
 3351 0018 30000000 		.4byte	.LBB31
 3352 001c 46000000 		.4byte	.LBE31
 3353 0020 48000000 		.4byte	.LBB30
 3354 0024 4C000000 		.4byte	.LBE30
 3355 0028 00000000 		.4byte	0x0
 3356 002c 00000000 		.4byte	0x0
 3357 0030 30000000 		.4byte	.LBB32
 3358 0034 46000000 		.4byte	.LBE32
 3359 0038 48000000 		.4byte	.LBB33
 3360 003c 4C000000 		.4byte	.LBE33
 3361 0040 00000000 		.4byte	0x0
 3362 0044 00000000 		.4byte	0x0
 3363 0048 6C000000 		.4byte	.LBB34
 3364 004c 70000000 		.4byte	.LBE34
 3365 0050 7A000000 		.4byte	.LBB39
 3366 0054 7C000000 		.4byte	.LBE39
 3367 0058 72000000 		.4byte	.LBB38
 3368 005c 76000000 		.4byte	.LBE38
 3369 0060 00000000 		.4byte	0x0
 3370 0064 00000000 		.4byte	0x0
 3371 0068 82000000 		.4byte	.LBB40
 3372 006c 86000000 		.4byte	.LBE40
 3373 0070 92000000 		.4byte	.LBB50
 3374 0074 96000000 		.4byte	.LBE50
 3375 0078 8A000000 		.4byte	.LBB48
 3376 007c 90000000 		.4byte	.LBE48
 3377 0080 00000000 		.4byte	0x0
ARM GAS  C:\Users\z80\AppData\Local\Temp\cczVfvz8.s 			page 62


 3378 0084 00000000 		.4byte	0x0
 3379 0088 86000000 		.4byte	.LBB44
 3380 008c 8A000000 		.4byte	.LBE44
 3381 0090 96000000 		.4byte	.LBB51
 3382 0094 AC000000 		.4byte	.LBE51
 3383 0098 90000000 		.4byte	.LBB49
 3384 009c 92000000 		.4byte	.LBE49
 3385 00a0 00000000 		.4byte	0x0
 3386 00a4 00000000 		.4byte	0x0
 3387 00a8 86000000 		.4byte	.LBB46
 3388 00ac 8A000000 		.4byte	.LBE46
 3389 00b0 96000000 		.4byte	.LBB47
 3390 00b4 AC000000 		.4byte	.LBE47
 3391 00b8 90000000 		.4byte	.LBB45
 3392 00bc 92000000 		.4byte	.LBE45
 3393 00c0 00000000 		.4byte	0x0
 3394 00c4 00000000 		.4byte	0x0
 3395 00c8 AE000000 		.4byte	.LBB52
 3396 00cc B2000000 		.4byte	.LBE52
 3397 00d0 BE000000 		.4byte	.LBB60
 3398 00d4 C2000000 		.4byte	.LBE60
 3399 00d8 B6000000 		.4byte	.LBB56
 3400 00dc BC000000 		.4byte	.LBE56
 3401 00e0 00000000 		.4byte	0x0
 3402 00e4 00000000 		.4byte	0x0
 3403 00e8 BC000000 		.4byte	.LBB57
 3404 00ec BE000000 		.4byte	.LBE57
 3405 00f0 C2000000 		.4byte	.LBB61
 3406 00f4 D8000000 		.4byte	.LBE61
 3407 00f8 00000000 		.4byte	0x0
 3408 00fc 00000000 		.4byte	0x0
 3409 0100 BC000000 		.4byte	.LBB58
 3410 0104 BE000000 		.4byte	.LBE58
 3411 0108 C2000000 		.4byte	.LBB59
 3412 010c D8000000 		.4byte	.LBE59
 3413 0110 00000000 		.4byte	0x0
 3414 0114 00000000 		.4byte	0x0
 3415 0118 02000000 		.4byte	.LBB63
 3416 011c 04000000 		.4byte	.LBE63
 3417 0120 06000000 		.4byte	.LBB64
 3418 0124 0A000000 		.4byte	.LBE64
 3419 0128 00000000 		.4byte	0x0
 3420 012c 00000000 		.4byte	0x0
 3421 0130 02000000 		.4byte	.LBB66
 3422 0134 04000000 		.4byte	.LBE66
 3423 0138 06000000 		.4byte	.LBB67
 3424 013c 0A000000 		.4byte	.LBE67
 3425 0140 00000000 		.4byte	0x0
 3426 0144 00000000 		.4byte	0x0
 3427 0148 46000000 		.4byte	.LBB71
 3428 014c 48000000 		.4byte	.LBE71
 3429 0150 50000000 		.4byte	.LBB76
 3430 0154 52000000 		.4byte	.LBE76
 3431 0158 4C000000 		.4byte	.LBB75
 3432 015c 4E000000 		.4byte	.LBE75
 3433 0160 00000000 		.4byte	0x0
 3434 0164 00000000 		.4byte	0x0
ARM GAS  C:\Users\z80\AppData\Local\Temp\cczVfvz8.s 			page 63


 3435 0168 46000000 		.4byte	.LBB73
 3436 016c 48000000 		.4byte	.LBE73
 3437 0170 50000000 		.4byte	.LBB74
 3438 0174 52000000 		.4byte	.LBE74
 3439 0178 4C000000 		.4byte	.LBB72
 3440 017c 4E000000 		.4byte	.LBE72
 3441 0180 00000000 		.4byte	0x0
 3442 0184 00000000 		.4byte	0x0
 3443 0188 40000000 		.4byte	.LBB79
 3444 018c 42000000 		.4byte	.LBE79
 3445 0190 46000000 		.4byte	.LBB82
 3446 0194 4A000000 		.4byte	.LBE82
 3447 0198 00000000 		.4byte	0x0
 3448 019c 00000000 		.4byte	0x0
 3449 01a0 40000000 		.4byte	.LBB80
 3450 01a4 42000000 		.4byte	.LBE80
 3451 01a8 46000000 		.4byte	.LBB81
 3452 01ac 4A000000 		.4byte	.LBE81
 3453 01b0 00000000 		.4byte	0x0
 3454 01b4 00000000 		.4byte	0x0
 3455 01b8 1E000000 		.4byte	.LBB85
 3456 01bc 20000000 		.4byte	.LBE85
 3457 01c0 28000000 		.4byte	.LBB90
 3458 01c4 40000000 		.4byte	.LBE90
 3459 01c8 00000000 		.4byte	0x0
 3460 01cc 00000000 		.4byte	0x0
 3461 01d0 28000000 		.4byte	.LBB86
 3462 01d4 2A000000 		.4byte	.LBE86
 3463 01d8 2E000000 		.4byte	.LBB89
 3464 01dc 32000000 		.4byte	.LBE89
 3465 01e0 00000000 		.4byte	0x0
 3466 01e4 00000000 		.4byte	0x0
 3467 01e8 28000000 		.4byte	.LBB87
 3468 01ec 2A000000 		.4byte	.LBE87
 3469 01f0 2E000000 		.4byte	.LBB88
 3470 01f4 32000000 		.4byte	.LBE88
 3471 01f8 00000000 		.4byte	0x0
 3472 01fc 00000000 		.4byte	0x0
 3473 0200 00000000 		.4byte	.LFB7
 3474 0204 1C000000 		.4byte	.LFE7
 3475 0208 00000000 		.4byte	.LFB9
 3476 020c 08010000 		.4byte	.LFE9
 3477 0210 00000000 		.4byte	.LFB8
 3478 0214 20000000 		.4byte	.LFE8
 3479 0218 00000000 		.4byte	.LFB11
 3480 021c 34000000 		.4byte	.LFE11
 3481 0220 00000000 		.4byte	.LFB10
 3482 0224 24000000 		.4byte	.LFE10
 3483 0228 00000000 		.4byte	.LFB12
 3484 022c 88000000 		.4byte	.LFE12
 3485 0230 00000000 		.4byte	.LFB13
 3486 0234 74000000 		.4byte	.LFE13
 3487 0238 00000000 		.4byte	.LFB14
 3488 023c 5C000000 		.4byte	.LFE14
 3489 0240 00000000 		.4byte	0x0
 3490 0244 00000000 		.4byte	0x0
 3491              		.section	.debug_str,"MS",%progbits,1
ARM GAS  C:\Users\z80\AppData\Local\Temp\cczVfvz8.s 			page 64


 3492              	.LASF35:
 3493 0000 705F6D73 		.ascii	"p_msg\000"
 3493      6700
 3494              	.LASF57:
 3495 0006 7264796D 		.ascii	"rdymsg\000"
 3495      736700
 3496              	.LASF11:
 3497 000d 75696E74 		.ascii	"uint64_t\000"
 3497      36345F74 
 3497      00
 3498              	.LASF12:
 3499 0016 6C6F6E67 		.ascii	"long long unsigned int\000"
 3499      206C6F6E 
 3499      6720756E 
 3499      7369676E 
 3499      65642069 
 3500              	.LASF58:
 3501 002d 65786974 		.ascii	"exitcode\000"
 3501      636F6465 
 3501      00
 3502              	.LASF69:
 3503 0036 63684D74 		.ascii	"chMtxUnlock\000"
 3503      78556E6C 
 3503      6F636B00 
 3504              	.LASF24:
 3505 0042 705F7072 		.ascii	"p_prio\000"
 3505      696F00
 3506              	.LASF10:
 3507 0049 6C6F6E67 		.ascii	"long long int\000"
 3507      206C6F6E 
 3507      6720696E 
 3507      7400
 3508              	.LASF1:
 3509 0057 7369676E 		.ascii	"signed char\000"
 3509      65642063 
 3509      68617200 
 3510              	.LASF13:
 3511 0063 626F6F6C 		.ascii	"bool_t\000"
 3511      5F7400
 3512              	.LASF54:
 3513 006a 6D5F7175 		.ascii	"m_queue\000"
 3513      65756500 
 3514              	.LASF7:
 3515 0072 6C6F6E67 		.ascii	"long int\000"
 3515      20696E74 
 3515      00
 3516              	.LASF15:
 3517 007b 74737461 		.ascii	"tstate_t\000"
 3517      74655F74 
 3517      00
 3518              	.LASF65:
 3519 0084 63684D74 		.ascii	"chMtxLockS\000"
 3519      784C6F63 
 3519      6B5300
 3520              	.LASF67:
 3521 008f 63684D74 		.ascii	"chMtxTryLockS\000"
 3521      78547279 
ARM GAS  C:\Users\z80\AppData\Local\Temp\cczVfvz8.s 			page 65


 3521      4C6F636B 
 3521      5300
 3522              	.LASF26:
 3523 009d 705F6E65 		.ascii	"p_newer\000"
 3523      77657200 
 3524              	.LASF48:
 3525 00a5 725F6E65 		.ascii	"r_newer\000"
 3525      77657200 
 3526              	.LASF41:
 3527 00ad 72656761 		.ascii	"regarm_t\000"
 3527      726D5F74 
 3527      00
 3528              	.LASF20:
 3529 00b6 636E745F 		.ascii	"cnt_t\000"
 3529      7400
 3530              	.LASF29:
 3531 00bc 705F7374 		.ascii	"p_stklimit\000"
 3531      6B6C696D 
 3531      697400
 3532              	.LASF0:
 3533 00c7 756E7369 		.ascii	"unsigned int\000"
 3533      676E6564 
 3533      20696E74 
 3533      00
 3534              	.LASF9:
 3535 00d4 6C6F6E67 		.ascii	"long unsigned int\000"
 3535      20756E73 
 3535      69676E65 
 3535      6420696E 
 3535      7400
 3536              	.LASF44:
 3537 00e6 636F6E74 		.ascii	"context\000"
 3537      65787400 
 3538              	.LASF4:
 3539 00ee 73686F72 		.ascii	"short unsigned int\000"
 3539      7420756E 
 3539      7369676E 
 3539      65642069 
 3539      6E7400
 3540              	.LASF17:
 3541 0101 6D73675F 		.ascii	"msg_t\000"
 3541      7400
 3542              	.LASF77:
 3543 0107 7072696F 		.ascii	"prio_insert\000"
 3543      5F696E73 
 3543      65727400 
 3544              	.LASF72:
 3545 0113 63684D74 		.ascii	"chMtxUnlockAll\000"
 3545      78556E6C 
 3545      6F636B41 
 3545      6C6C00
 3546              	.LASF70:
 3547 0122 6E657770 		.ascii	"newprio\000"
 3547      72696F00 
 3548              	.LASF14:
 3549 012a 746D6F64 		.ascii	"tmode_t\000"
 3549      655F7400 
ARM GAS  C:\Users\z80\AppData\Local\Temp\cczVfvz8.s 			page 66


 3550              	.LASF40:
 3551 0132 54687265 		.ascii	"ThreadsList\000"
 3551      6164734C 
 3551      69737400 
 3552              	.LASF18:
 3553 013e 6576656E 		.ascii	"eventmask_t\000"
 3553      746D6173 
 3553      6B5F7400 
 3554              	.LASF68:
 3555 014a 63684D74 		.ascii	"chMtxTryLock\000"
 3555      78547279 
 3555      4C6F636B 
 3555      00
 3556              	.LASF53:
 3557 0157 4D757465 		.ascii	"Mutex\000"
 3557      7800
 3558              	.LASF42:
 3559 015d 73746B61 		.ascii	"stkalign_t\000"
 3559      6C69676E 
 3559      5F7400
 3560              	.LASF66:
 3561 0168 63684D74 		.ascii	"chMtxLock\000"
 3561      784C6F63 
 3561      6B00
 3562              	.LASF27:
 3563 0172 705F6F6C 		.ascii	"p_older\000"
 3563      64657200 
 3564              	.LASF47:
 3565 017a 725F6374 		.ascii	"r_ctx\000"
 3565      7800
 3566              	.LASF39:
 3567 0180 54687265 		.ascii	"ThreadsQueue\000"
 3567      61647351 
 3567      75657565 
 3567      00
 3568              	.LASF76:
 3569 018d 433A5C70 		.ascii	"C:\\projects\\voltamper.git\\firmware\\voltamp\000"
 3569      726F6A65 
 3569      6374735C 
 3569      766F6C74 
 3569      616D7065 
 3570              	.LASF62:
 3571 01b8 64657175 		.ascii	"dequeue\000"
 3571      65756500 
 3572              	.LASF51:
 3573 01c0 725F6375 		.ascii	"r_current\000"
 3573      7272656E 
 3573      7400
 3574              	.LASF49:
 3575 01ca 725F6F6C 		.ascii	"r_older\000"
 3575      64657200 
 3576              	.LASF23:
 3577 01d2 705F7072 		.ascii	"p_prev\000"
 3577      657600
 3578              	.LASF16:
 3579 01d9 74707269 		.ascii	"tprio_t\000"
 3579      6F5F7400 
ARM GAS  C:\Users\z80\AppData\Local\Temp\cczVfvz8.s 			page 67


 3580              	.LASF6:
 3581 01e1 696E7433 		.ascii	"int32_t\000"
 3581      325F7400 
 3582              	.LASF2:
 3583 01e9 756E7369 		.ascii	"unsigned char\000"
 3583      676E6564 
 3583      20636861 
 3583      7200
 3584              	.LASF37:
 3585 01f7 705F6D74 		.ascii	"p_mtxlist\000"
 3585      786C6973 
 3585      7400
 3586              	.LASF3:
 3587 0201 73686F72 		.ascii	"short int\000"
 3587      7420696E 
 3587      7400
 3588              	.LASF30:
 3589 020b 705F7374 		.ascii	"p_state\000"
 3589      61746500 
 3590              	.LASF46:
 3591 0213 725F7072 		.ascii	"r_prio\000"
 3591      696F00
 3592              	.LASF75:
 3593 021a 2E2E2F63 		.ascii	"../chibios_2.4.x/os/kernel/src/chmtx.c\000"
 3593      68696269 
 3593      6F735F32 
 3593      2E342E78 
 3593      2F6F732F 
 3594              	.LASF22:
 3595 0241 705F6E65 		.ascii	"p_next\000"
 3595      787400
 3596              	.LASF31:
 3597 0248 705F666C 		.ascii	"p_flags\000"
 3597      61677300 
 3598              	.LASF71:
 3599 0250 63684D74 		.ascii	"chMtxUnlockS\000"
 3599      78556E6C 
 3599      6F636B53 
 3599      00
 3600              	.LASF21:
 3601 025d 54687265 		.ascii	"Thread\000"
 3601      616400
 3602              	.LASF36:
 3603 0264 705F6570 		.ascii	"p_epending\000"
 3603      656E6469 
 3603      6E6700
 3604              	.LASF8:
 3605 026f 75696E74 		.ascii	"uint32_t\000"
 3605      33325F74 
 3605      00
 3606              	.LASF45:
 3607 0278 725F7175 		.ascii	"r_queue\000"
 3607      65756500 
 3608              	.LASF61:
 3609 0280 63686172 		.ascii	"char\000"
 3609      00
 3610              	.LASF63:
ARM GAS  C:\Users\z80\AppData\Local\Temp\cczVfvz8.s 			page 68


 3611 0285 6669666F 		.ascii	"fifo_remove\000"
 3611      5F72656D 
 3611      6F766500 
 3612              	.LASF56:
 3613 0291 6D5F6E65 		.ascii	"m_next\000"
 3613      787400
 3614              	.LASF19:
 3615 0298 73797374 		.ascii	"systime_t\000"
 3615      696D655F 
 3615      7400
 3616              	.LASF38:
 3617 02a2 705F7265 		.ascii	"p_realprio\000"
 3617      616C7072 
 3617      696F00
 3618              	.LASF32:
 3619 02ad 705F7469 		.ascii	"p_time\000"
 3619      6D6500
 3620              	.LASF43:
 3621 02b4 696E7463 		.ascii	"intctx\000"
 3621      747800
 3622              	.LASF34:
 3623 02bb 705F6D73 		.ascii	"p_msgqueue\000"
 3623      67717565 
 3623      756500
 3624              	.LASF64:
 3625 02c6 63684D74 		.ascii	"chMtxInit\000"
 3625      78496E69 
 3625      7400
 3626              	.LASF52:
 3627 02d0 52656164 		.ascii	"ReadyList\000"
 3627      794C6973 
 3627      7400
 3628              	.LASF73:
 3629 02da 726C6973 		.ascii	"rlist\000"
 3629      7400
 3630              	.LASF5:
 3631 02e0 75696E74 		.ascii	"uint8_t\000"
 3631      385F7400 
 3632              	.LASF60:
 3633 02e8 65776D61 		.ascii	"ewmask\000"
 3633      736B00
 3634              	.LASF74:
 3635 02ef 474E5520 		.ascii	"GNU C 4.5.0\000"
 3635      4320342E 
 3635      352E3000 
 3636              	.LASF59:
 3637 02fb 77746F62 		.ascii	"wtobjp\000"
 3637      6A7000
 3638              	.LASF28:
 3639 0302 705F6E61 		.ascii	"p_name\000"
 3639      6D6500
 3640              	.LASF50:
 3641 0309 725F7072 		.ascii	"r_preempt\000"
 3641      65656D70 
 3641      7400
 3642              	.LASF55:
 3643 0313 6D5F6F77 		.ascii	"m_owner\000"
ARM GAS  C:\Users\z80\AppData\Local\Temp\cczVfvz8.s 			page 69


 3643      6E657200 
 3644              	.LASF25:
 3645 031b 705F6374 		.ascii	"p_ctx\000"
 3645      7800
 3646              	.LASF33:
 3647 0321 705F7761 		.ascii	"p_waiting\000"
 3647      6974696E 
 3647      6700
 3648              		.ident	"GCC: (GNU) 4.5.0"
ARM GAS  C:\Users\z80\AppData\Local\Temp\cczVfvz8.s 			page 70


DEFINED SYMBOLS
                            *ABS*:00000000 chmtx.c
C:\Users\z80\AppData\Local\Temp\cczVfvz8.s:24     .text.chMtxInit:00000000 $t
C:\Users\z80\AppData\Local\Temp\cczVfvz8.s:30     .text.chMtxInit:00000000 chMtxInit
C:\Users\z80\AppData\Local\Temp\cczVfvz8.s:66     .text.chMtxInit:00000018 $d
C:\Users\z80\AppData\Local\Temp\cczVfvz8.s:71     .text.chMtxLockS:00000000 $t
C:\Users\z80\AppData\Local\Temp\cczVfvz8.s:77     .text.chMtxLockS:00000000 chMtxLockS
C:\Users\z80\AppData\Local\Temp\cczVfvz8.s:374    .text.chMtxLockS:000000f8 $d
C:\Users\z80\AppData\Local\Temp\cczVfvz8.s:382    .text.chMtxLock:00000000 $t
C:\Users\z80\AppData\Local\Temp\cczVfvz8.s:388    .text.chMtxLock:00000000 chMtxLock
C:\Users\z80\AppData\Local\Temp\cczVfvz8.s:437    .text.chMtxTryLockS:00000000 $t
C:\Users\z80\AppData\Local\Temp\cczVfvz8.s:443    .text.chMtxTryLockS:00000000 chMtxTryLockS
C:\Users\z80\AppData\Local\Temp\cczVfvz8.s:496    .text.chMtxTryLockS:0000002c $d
C:\Users\z80\AppData\Local\Temp\cczVfvz8.s:502    .text.chMtxTryLock:00000000 $t
C:\Users\z80\AppData\Local\Temp\cczVfvz8.s:508    .text.chMtxTryLock:00000000 chMtxTryLock
C:\Users\z80\AppData\Local\Temp\cczVfvz8.s:561    .text.chMtxUnlock:00000000 $t
C:\Users\z80\AppData\Local\Temp\cczVfvz8.s:567    .text.chMtxUnlock:00000000 chMtxUnlock
C:\Users\z80\AppData\Local\Temp\cczVfvz8.s:717    .text.chMtxUnlock:0000007c $d
C:\Users\z80\AppData\Local\Temp\cczVfvz8.s:724    .text.chMtxUnlockS:00000000 $t
C:\Users\z80\AppData\Local\Temp\cczVfvz8.s:730    .text.chMtxUnlockS:00000000 chMtxUnlockS
C:\Users\z80\AppData\Local\Temp\cczVfvz8.s:849    .text.chMtxUnlockS:00000068 $d
C:\Users\z80\AppData\Local\Temp\cczVfvz8.s:856    .text.chMtxUnlockAll:00000000 $t
C:\Users\z80\AppData\Local\Temp\cczVfvz8.s:862    .text.chMtxUnlockAll:00000000 chMtxUnlockAll
C:\Users\z80\AppData\Local\Temp\cczVfvz8.s:976    .text.chMtxUnlockAll:00000058 $d
C:\Users\z80\AppData\Local\Temp\cczVfvz8.s:981    .rodata.str1.4:00000000 $d
                     .debug_frame:00000010 $d
C:\Users\z80\AppData\Local\Temp\cczVfvz8.s:70     .text.chMtxInit:0000001c $t
C:\Users\z80\AppData\Local\Temp\cczVfvz8.s:381    .text.chMtxLockS:00000108 $t
C:\Users\z80\AppData\Local\Temp\cczVfvz8.s:501    .text.chMtxTryLockS:00000034 $t
C:\Users\z80\AppData\Local\Temp\cczVfvz8.s:723    .text.chMtxUnlock:00000088 $t
C:\Users\z80\AppData\Local\Temp\cczVfvz8.s:855    .text.chMtxUnlockS:00000074 $t
C:\Users\z80\AppData\Local\Temp\cczVfvz8.s:980    .text.chMtxUnlockAll:0000005c $t

UNDEFINED SYMBOLS
chDbgPanic
chDbgCheckClassS
chSchGoSleepS
chSchReadyI
rlist
dbg_check_lock
dbg_check_unlock
chSchWakeupS
chSchRescheduleS
