ARM GAS  C:\Users\z80\AppData\Local\Temp\cck6btKT.s 			page 1


   1              		.syntax unified
   2              		.cpu cortex-m3
   3              		.fpu softvfp
   4              		.eabi_attribute 20, 1
   5              		.eabi_attribute 21, 1
   6              		.eabi_attribute 23, 3
   7              		.eabi_attribute 24, 1
   8              		.eabi_attribute 25, 1
   9              		.eabi_attribute 26, 1
  10              		.eabi_attribute 30, 2
  11              		.eabi_attribute 18, 4
  12              		.thumb
  13              		.file	"chprintf.c"
  20 0000 62020000 		.text
  20      02003D01 
  20      00000201 
  20      FB0E0D00 
  20      01010101 
  21              	.Ltext0:
  22              		.cfi_sections	.debug_frame
  23              		.section	.text.ltoa,"ax",%progbits
  24              		.align	2
  25              		.p2align 4,,15
  26              		.thumb
  27              		.thumb_func
  28              		.type	ltoa, %function
  29              	ltoa:
  30              	.LFB7:
  31              		.file 1 "../chibios_2.4.x/os/various/chprintf.c"
  32              		.loc 1 42 0
  33              		.cfi_startproc
  34              		@ args = 0, pretend = 0, frame = 0
  35              		@ frame_needed = 0, uses_anonymous_args = 0
  36              		@ link register save eliminated.
  37              	.LVL0:
  38 0000 70B4     		push	{r4, r5, r6}
  39              	.LCFI0:
  40              		.cfi_def_cfa_offset 12
  41              		.loc 1 46 0
  42 0002 00F10B06 		add	r6, r0, #11
  43              		.cfi_offset 6, -4
  44              		.cfi_offset 5, -8
  45              		.cfi_offset 4, -12
  46              	.LVL1:
  47              		.loc 1 42 0
  48 0006 00F10A04 		add	r4, r0, #10
  49              	.LVL2:
  50              	.L3:
  51              		.loc 1 48 0
  52 000a B1FBF2F3 		udiv	r3, r1, r2
  53 000e 02FB1311 		mls	r1, r2, r3, r1
ARM GAS  C:\Users\z80\AppData\Local\Temp\cck6btKT.s 			page 2


  54              	.LVL3:
  55              		.loc 1 49 0
  56 0012 01F1300C 		add	ip, r1, #48
  57              	.LVL4:
  58              		.loc 1 50 0
  59 0016 BCF1390F 		cmp	ip, #57
  60              		.loc 1 51 0
  61 001a C8BF     		it	gt
  62 001c 01F1370C 		addgt	ip, r1, #55
  63              	.LVL5:
  64              		.loc 1 52 0
  65 0020 5FFA8CFC 		uxtb	ip, ip
  66              	.LVL6:
  67              		.loc 1 51 0
  68 0024 2546     		mov	r5, r4
  69              	.LVL7:
  70              		.loc 1 53 0
  71 0026 1946     		mov	r1, r3
  72              	.LVL8:
  73              		.loc 1 52 0
  74 0028 04F801C9 		strb	ip, [r4], #-1
  75              	.LVL9:
  76              		.loc 1 53 0
  77 002c 002B     		cmp	r3, #0
  78 002e ECD1     		bne	.L3
  79              	.LVL10:
  80 0030 2A46     		mov	r2, r5
  81              	.LVL11:
  82              		.loc 1 55 0
  83 0032 711B     		subs	r1, r6, r5
  84 0034 01E0     		b	.L5
  85              	.LVL12:
  86              	.L8:
  87              		.loc 1 58 0
  88 0036 12F801CF 		ldrb	ip, [r2, #1]!	@ zero_extendqisi2
  89              	.L5:
  90              		.loc 1 57 0 discriminator 1
  91 003a 00F803C0 		strb	ip, [r0, r3]
  92 003e 0133     		adds	r3, r3, #1
  93              		.loc 1 58 0 discriminator 1
  94 0040 8B42     		cmp	r3, r1
  95 0042 F8D1     		bne	.L8
  96              		.loc 1 58 0 is_stmt 0
  97 0044 C018     		adds	r0, r0, r3
  98              		.loc 1 61 0 is_stmt 1
  99 0046 70BC     		pop	{r4, r5, r6}
 100 0048 7047     		bx	lr
 101              		.cfi_endproc
 102              	.LFE7:
 103              		.size	ltoa, .-ltoa
 104 004a 00BFAFF3 		.section	.text.chprintf,"ax",%progbits
 104      0080
 105              		.align	2
 106              		.p2align 4,,15
 107              		.global	chprintf
 108              		.thumb
 109              		.thumb_func
ARM GAS  C:\Users\z80\AppData\Local\Temp\cck6btKT.s 			page 3


 110              		.type	chprintf, %function
 111              	chprintf:
 112              	.LFB8:
 113              		.loc 1 86 0
 114              		.cfi_startproc
 115              		@ args = 4, pretend = 12, frame = 16
 116              		@ frame_needed = 0, uses_anonymous_args = 1
 117              	.LVL13:
 118 0000 0EB4     		push	{r1, r2, r3}
 119              	.LCFI1:
 120              		.cfi_def_cfa_offset 12
 121 0002 2DE9F04F 		push	{r4, r5, r6, r7, r8, r9, sl, fp, lr}
 122              	.LCFI2:
 123              		.cfi_def_cfa_offset 48
 124 0006 84B0     		sub	sp, sp, #16
 125              	.LCFI3:
 126              		.cfi_def_cfa_offset 64
 127              		.loc 1 86 0
 128 0008 0DAB     		add	r3, sp, #52
 129              		.cfi_offset 14, -16
 130              		.cfi_offset 11, -20
 131              		.cfi_offset 10, -24
 132              		.cfi_offset 9, -28
 133              		.cfi_offset 8, -32
 134              		.cfi_offset 7, -36
 135              		.cfi_offset 6, -40
 136              		.cfi_offset 5, -44
 137              		.cfi_offset 4, -48
 138              		.cfi_offset 3, -4
 139              		.cfi_offset 2, -8
 140              		.cfi_offset 1, -12
 141 000a 53F8044B 		ldr	r4, [r3], #4
 142 000e 0546     		mov	r5, r0
 143              		.loc 1 94 0
 144 0010 0393     		str	r3, [sp, #12]
 145              		.loc 1 106 0
 146 0012 EB46     		mov	fp, sp
 147              	.LVL14:
 148              	.L67:
 149              		.loc 1 96 0
 150 0014 2178     		ldrb	r1, [r4, #0]	@ zero_extendqisi2
 151              	.LVL15:
 152              		.loc 1 97 0
 153 0016 59B1     		cbz	r1, .L68
 154              	.LVL16:
 155              	.L71:
 156              		.loc 1 96 0
 157 0018 0134     		adds	r4, r4, #1
 158              		.loc 1 101 0
 159 001a 2529     		cmp	r1, #37
 160 001c 0DD0     		beq	.L12
 161              		.loc 1 102 0
 162 001e 2B68     		ldr	r3, [r5, #0]
 163 0020 2846     		mov	r0, r5
 164 0022 1B69     		ldr	r3, [r3, #16]
 165 0024 4FF0FF32 		mov	r2, #-1
 166 0028 9847     		blx	r3
ARM GAS  C:\Users\z80\AppData\Local\Temp\cck6btKT.s 			page 4


 167              	.LVL17:
 168              		.loc 1 96 0
 169 002a 2178     		ldrb	r1, [r4, #0]	@ zero_extendqisi2
 170              	.LVL18:
 171              		.loc 1 97 0
 172 002c 0029     		cmp	r1, #0
 173 002e F3D1     		bne	.L71
 174              	.LVL19:
 175              	.L68:
 176              		.loc 1 222 0
 177 0030 04B0     		add	sp, sp, #16
 178 0032 BDE8F04F 		pop	{r4, r5, r6, r7, r8, r9, sl, fp, lr}
 179 0036 03B0     		add	sp, sp, #12
 180 0038 7047     		bx	lr
 181              	.L12:
 182              	.LVL20:
 183              		.loc 1 108 0
 184 003a 2378     		ldrb	r3, [r4, #0]	@ zero_extendqisi2
 185              		.loc 1 114 0
 186 003c 0398     		ldr	r0, [sp, #12]
 187              		.loc 1 108 0
 188 003e 2D2B     		cmp	r3, #45
 189              	.LVL21:
 190              		.loc 1 109 0
 191 0040 06BF     		itte	eq
 192 0042 14F8013F 		ldrbeq	r3, [r4, #1]!	@ zero_extendqisi2
 193              	.LVL22:
 194              		.loc 1 110 0
 195 0046 4FF00109 		moveq	r9, #1
 196              		.loc 1 107 0
 197 004a 4FF00009 		movne	r9, #0
 198              	.LVL23:
 199              		.loc 1 113 0
 200 004e 2E2B     		cmp	r3, #46
 201              	.LVL24:
 202              		.loc 1 114 0
 203 0050 06BF     		itte	eq
 204 0052 14F8013F 		ldrbeq	r3, [r4, #1]!	@ zero_extendqisi2
 205              	.LVL25:
 206              		.loc 1 115 0
 207 0056 4FF0300A 		moveq	sl, #48
 208              		.loc 1 112 0
 209 005a 4FF0200A 		movne	sl, #32
 210              	.LVL26:
 211              		.loc 1 86 0
 212 005e 611C     		adds	r1, r4, #1
 213              		.loc 1 117 0
 214 0060 0026     		movs	r6, #0
 215 0062 07E0     		b	.L18
 216              	.LVL27:
 217              	.L72:
 218              		.loc 1 123 0
 219 0064 0278     		ldrb	r2, [r0, #0]	@ zero_extendqisi2
 220              	.LVL28:
 221 0066 0430     		adds	r0, r0, #4
 222              	.LVL29:
 223              	.L16:
ARM GAS  C:\Users\z80\AppData\Local\Temp\cck6btKT.s 			page 5


 224              		.loc 1 126 0
 225 0068 06EB8606 		add	r6, r6, r6, lsl #2
 226              	.LVL30:
 227 006c 11F8013B 		ldrb	r3, [r1], #1	@ zero_extendqisi2
 228              	.LVL31:
 229 0070 02EB4606 		add	r6, r2, r6, lsl #1
 230              	.LVL32:
 231              	.L18:
 232              		.loc 1 120 0
 233 0074 A3F13002 		sub	r2, r3, #48
 234 0078 D2B2     		uxtb	r2, r2
 235 007a 092A     		cmp	r2, #9
 236              		.loc 1 114 0
 237 007c 0C46     		mov	r4, r1
 238              	.LVL33:
 239              		.loc 1 120 0
 240 007e F3D9     		bls	.L16
 241              		.loc 1 122 0
 242 0080 2A2B     		cmp	r3, #42
 243 0082 EFD0     		beq	.L72
 244              		.loc 1 129 0
 245 0084 2E2B     		cmp	r3, #46
 246              		.loc 1 127 0
 247 0086 0390     		str	r0, [sp, #12]
 248              	.LVL34:
 249              		.loc 1 128 0
 250 0088 18BF     		it	ne
 251 008a 4FF0000C 		movne	ip, #0
 252              		.loc 1 129 0
 253 008e 00F0D380 		beq	.L73
 254              	.LVL35:
 255              	.L19:
 256              		.loc 1 143 0
 257 0092 6C2B     		cmp	r3, #108
 258 0094 14BF     		ite	ne
 259 0096 0022     		movne	r2, #0
 260 0098 0122     		moveq	r2, #1
 261 009a 4C2B     		cmp	r3, #76
 262 009c 08BF     		it	eq
 263 009e 42F00102 		orreq	r2, r2, #1
 264 00a2 002A     		cmp	r2, #0
 265 00a4 00F0C080 		beq	.L23
 266              	.LVL36:
 267              		.loc 1 145 0
 268 00a8 2278     		ldrb	r2, [r4, #0]	@ zero_extendqisi2
 269 00aa 002A     		cmp	r2, #0
 270 00ac 00F0DA80 		beq	.L51
 271              	.LVL37:
 272              		.loc 1 146 0
 273 00b0 0134     		adds	r4, r4, #1
 274              	.LVL38:
 275 00b2 1346     		mov	r3, r2
 276              		.loc 1 144 0
 277 00b4 0121     		movs	r1, #1
 278              	.LVL39:
 279              	.L24:
 280              		.loc 1 152 0
ARM GAS  C:\Users\z80\AppData\Local\Temp\cck6btKT.s 			page 6


 281 00b6 A3F14402 		sub	r2, r3, #68
 282 00ba 342A     		cmp	r2, #52
 283 00bc 00F29D80 		bhi	.L25
 284 00c0 DFE802F0 		tbb	[pc, r2]
 285              	.L32:
 286 00c4 A3       		.byte	(.L26-.L32)/2
 287 00c5 9B       		.byte	(.L25-.L32)/2
 288 00c6 9B       		.byte	(.L25-.L32)/2
 289 00c7 9B       		.byte	(.L25-.L32)/2
 290 00c8 9B       		.byte	(.L25-.L32)/2
 291 00c9 9B       		.byte	(.L25-.L32)/2
 292 00ca 9B       		.byte	(.L25-.L32)/2
 293 00cb 9B       		.byte	(.L25-.L32)/2
 294 00cc 9B       		.byte	(.L25-.L32)/2
 295 00cd 9B       		.byte	(.L25-.L32)/2
 296 00ce 9B       		.byte	(.L25-.L32)/2
 297 00cf A1       		.byte	(.L27-.L32)/2
 298 00d0 9B       		.byte	(.L25-.L32)/2
 299 00d1 9B       		.byte	(.L25-.L32)/2
 300 00d2 9B       		.byte	(.L25-.L32)/2
 301 00d3 9B       		.byte	(.L25-.L32)/2
 302 00d4 9B       		.byte	(.L25-.L32)/2
 303 00d5 93       		.byte	(.L52-.L32)/2
 304 00d6 9B       		.byte	(.L25-.L32)/2
 305 00d7 9B       		.byte	(.L25-.L32)/2
 306 00d8 88       		.byte	(.L29-.L32)/2
 307 00d9 9B       		.byte	(.L25-.L32)/2
 308 00da 9B       		.byte	(.L25-.L32)/2
 309 00db 9B       		.byte	(.L25-.L32)/2
 310 00dc 9B       		.byte	(.L25-.L32)/2
 311 00dd 9B       		.byte	(.L25-.L32)/2
 312 00de 9B       		.byte	(.L25-.L32)/2
 313 00df 9B       		.byte	(.L25-.L32)/2
 314 00e0 9B       		.byte	(.L25-.L32)/2
 315 00e1 9B       		.byte	(.L25-.L32)/2
 316 00e2 9B       		.byte	(.L25-.L32)/2
 317 00e3 40       		.byte	(.L30-.L32)/2
 318 00e4 A3       		.byte	(.L26-.L32)/2
 319 00e5 9B       		.byte	(.L25-.L32)/2
 320 00e6 9B       		.byte	(.L25-.L32)/2
 321 00e7 9B       		.byte	(.L25-.L32)/2
 322 00e8 9B       		.byte	(.L25-.L32)/2
 323 00e9 9B       		.byte	(.L25-.L32)/2
 324 00ea 9B       		.byte	(.L25-.L32)/2
 325 00eb 9B       		.byte	(.L25-.L32)/2
 326 00ec 9B       		.byte	(.L25-.L32)/2
 327 00ed 9B       		.byte	(.L25-.L32)/2
 328 00ee 9B       		.byte	(.L25-.L32)/2
 329 00ef A1       		.byte	(.L27-.L32)/2
 330 00f0 9B       		.byte	(.L25-.L32)/2
 331 00f1 9B       		.byte	(.L25-.L32)/2
 332 00f2 9B       		.byte	(.L25-.L32)/2
 333 00f3 1B       		.byte	(.L31-.L32)/2
 334 00f4 9B       		.byte	(.L25-.L32)/2
 335 00f5 93       		.byte	(.L52-.L32)/2
 336 00f6 9B       		.byte	(.L25-.L32)/2
 337 00f7 9B       		.byte	(.L25-.L32)/2
ARM GAS  C:\Users\z80\AppData\Local\Temp\cck6btKT.s 			page 7


 338 00f8 88       		.byte	(.L29-.L32)/2
 339 00f9 00       		.align	1
 340              	.L31:
 341              	.LVL40:
 342              		.loc 1 159 0
 343 00fa 039B     		ldr	r3, [sp, #12]
 344              	.LVL41:
 345              		.loc 1 162 0
 346 00fc 47F6FF72 		movw	r2, #32767
 347              	.LVL42:
 348              		.loc 1 159 0
 349 0100 1F68     		ldr	r7, [r3, #0]
 350              	.LVL43:
 351 0102 0433     		adds	r3, r3, #4
 352 0104 0393     		str	r3, [sp, #12]
 353              		.loc 1 160 0
 354 0106 40F20003 		movw	r3, #:lower16:.LC0
 355 010a C0F20003 		movt	r3, #:upper16:.LC0
 356 010e 002F     		cmp	r7, #0
 357 0110 08BF     		it	eq
 358 0112 1F46     		moveq	r7, r3
 359              	.LVL44:
 360              		.loc 1 163 0
 361 0114 3B78     		ldrb	r3, [r7, #0]	@ zero_extendqisi2
 362              		.loc 1 162 0
 363 0116 BCF1000F 		cmp	ip, #0
 364 011a 08BF     		it	eq
 365 011c 9446     		moveq	ip, r2
 366              	.LVL45:
 367              		.loc 1 163 0
 368 011e 3846     		mov	r0, r7
 369              		.loc 1 158 0
 370 0120 4FF0200A 		mov	sl, #32
 371              		.loc 1 163 0
 372 0124 CBB1     		cbz	r3, .L33
 373 0126 0CF1FF3C 		add	ip, ip, #-1
 374              	.LVL46:
 375              		.loc 1 86 0
 376 012a 7B1C     		adds	r3, r7, #1
 377 012c 02E0     		b	.L36
 378              	.LVL47:
 379              	.L74:
 380              		.loc 1 163 0 discriminator 2
 381 012e 1CF1FF3C 		adds	ip, ip, #-1
 382              	.LVL48:
 383 0132 04D4     		bmi	.L56
 384              	.L36:
 385              		.loc 1 163 0 is_stmt 0 discriminator 1
 386 0134 1A78     		ldrb	r2, [r3, #0]	@ zero_extendqisi2
 387 0136 1846     		mov	r0, r3
 388              	.LVL49:
 389 0138 0133     		adds	r3, r3, #1
 390              	.LVL50:
 391 013a 002A     		cmp	r2, #0
 392 013c F7D1     		bne	.L74
 393              	.L56:
 394              		.loc 1 158 0 is_stmt 1
ARM GAS  C:\Users\z80\AppData\Local\Temp\cck6btKT.s 			page 8


 395 013e 4FF0200A 		mov	sl, #32
 396 0142 0AE0     		b	.L33
 397              	.LVL51:
 398              	.L30:
 399              		.loc 1 155 0
 400 0144 039B     		ldr	r3, [sp, #12]
 401              	.LVL52:
 402              		.loc 1 154 0
 403 0146 4FF0200A 		mov	sl, #32
 404              		.loc 1 155 0
 405 014a 1A68     		ldr	r2, [r3, #0]
 406              	.LVL53:
 407 014c 0433     		adds	r3, r3, #4
 408 014e 0393     		str	r3, [sp, #12]
 409 0150 8DF80020 		strb	r2, [sp, #0]
 410              	.LVL54:
 411              		.loc 1 106 0
 412 0154 5F46     		mov	r7, fp
 413              		.loc 1 155 0
 414 0156 0BF10100 		add	r0, fp, #1
 415              	.LVL55:
 416              	.L33:
 417              		.loc 1 200 0
 418 015a C7EB0008 		rsb	r8, r7, r0
 419              	.LVL56:
 420              		.loc 1 201 0
 421 015e C8EB0606 		rsb	r6, r8, r6
 422              	.LVL57:
 423 0162 26EAE676 		bic	r6, r6, r6, asr #31
 424              	.LVL58:
 425              		.loc 1 203 0
 426 0166 B9F1000F 		cmp	r9, #0
 427 016a 22D1     		bne	.L70
 428              		.loc 1 204 0
 429 016c 7642     		negs	r6, r6
 430              	.LVL59:
 431              		.loc 1 205 0
 432 016e 06B3     		cbz	r6, .L70
 433              		.loc 1 206 0
 434 0170 3A78     		ldrb	r2, [r7, #0]	@ zero_extendqisi2
 435 0172 BAF1300F 		cmp	sl, #48
 436 0176 14BF     		ite	ne
 437 0178 0023     		movne	r3, #0
 438 017a 0123     		moveq	r3, #1
 439 017c 2D2A     		cmp	r2, #45
 440 017e 14BF     		ite	ne
 441 0180 0023     		movne	r3, #0
 442 0182 03F00103 		andeq	r3, r3, #1
 443 0186 002B     		cmp	r3, #0
 444 0188 7DD1     		bne	.L75
 445              	.LVL60:
 446              	.L61:
 447              		.loc 1 211 0 discriminator 1
 448 018a 2B68     		ldr	r3, [r5, #0]
 449 018c 2846     		mov	r0, r5
 450 018e 1B69     		ldr	r3, [r3, #16]
 451 0190 5146     		mov	r1, sl
ARM GAS  C:\Users\z80\AppData\Local\Temp\cck6btKT.s 			page 9


 452 0192 4FF0FF32 		mov	r2, #-1
 453 0196 9847     		blx	r3
 454              	.LVL61:
 455              		.loc 1 212 0 discriminator 1
 456 0198 0136     		adds	r6, r6, #1
 457              	.LVL62:
 458 019a F6D1     		bne	.L61
 459              	.LVL63:
 460              		.loc 1 214 0
 461 019c 18F1FF38 		adds	r8, r8, #-1
 462              	.LVL64:
 463 01a0 0AD4     		bmi	.L76
 464              	.L60:
 465              		.loc 1 215 0
 466 01a2 2B68     		ldr	r3, [r5, #0]
 467 01a4 17F8011B 		ldrb	r1, [r7], #1	@ zero_extendqisi2
 468              	.LVL65:
 469 01a8 1B69     		ldr	r3, [r3, #16]
 470 01aa 2846     		mov	r0, r5
 471 01ac 4FF0FF32 		mov	r2, #-1
 472 01b0 9847     		blx	r3
 473              	.L70:
 474              	.LVL66:
 475              		.loc 1 214 0
 476 01b2 18F1FF38 		adds	r8, r8, #-1
 477              	.LVL67:
 478 01b6 F4D5     		bpl	.L60
 479              	.L76:
 480              		.loc 1 217 0 discriminator 1
 481 01b8 002E     		cmp	r6, #0
 482 01ba 3FF42BAF 		beq	.L67
 483              	.L59:
 484              		.loc 1 218 0
 485 01be 2B68     		ldr	r3, [r5, #0]
 486 01c0 2846     		mov	r0, r5
 487 01c2 1B69     		ldr	r3, [r3, #16]
 488 01c4 5146     		mov	r1, sl
 489 01c6 4FF0FF32 		mov	r2, #-1
 490 01ca 9847     		blx	r3
 491              	.LVL68:
 492              		.loc 1 217 0
 493 01cc 16F1FF36 		adds	r6, r6, #-1
 494              	.LVL69:
 495 01d0 F5D1     		bne	.L59
 496 01d2 1FE7     		b	.L67
 497              	.LVL70:
 498              	.L29:
 499              		.loc 1 152 0
 500 01d4 1022     		movs	r2, #16
 501              	.LVL71:
 502              	.L28:
 503              		.loc 1 190 0
 504 01d6 59B1     		cbz	r1, .L40
 505              	.L77:
 506              		.loc 1 191 0
 507 01d8 039B     		ldr	r3, [sp, #12]
 508 01da 191D     		adds	r1, r3, #4
ARM GAS  C:\Users\z80\AppData\Local\Temp\cck6btKT.s 			page 10


 509              	.LVL72:
 510 01dc 0391     		str	r1, [sp, #12]
 511 01de 1968     		ldr	r1, [r3, #0]
 512              	.LVL73:
 513              	.L41:
 514              		.loc 1 194 0
 515 01e0 6846     		mov	r0, sp
 516 01e2 FFF7FEFF 		bl	ltoa
 517              	.LVL74:
 518              		.loc 1 106 0
 519 01e6 6F46     		mov	r7, sp
 520              		.loc 1 195 0
 521 01e8 B7E7     		b	.L33
 522              	.LVL75:
 523              	.L52:
 524              		.loc 1 152 0
 525 01ea 0A22     		movs	r2, #10
 526              	.LVL76:
 527              		.loc 1 190 0
 528 01ec 0029     		cmp	r1, #0
 529 01ee F3D1     		bne	.L77
 530              	.L40:
 531              		.loc 1 193 0
 532 01f0 039B     		ldr	r3, [sp, #12]
 533 01f2 181D     		adds	r0, r3, #4
 534 01f4 1968     		ldr	r1, [r3, #0]
 535              	.LVL77:
 536 01f6 0390     		str	r0, [sp, #12]
 537              	.LVL78:
 538 01f8 F2E7     		b	.L41
 539              	.LVL79:
 540              	.L25:
 541              		.loc 1 197 0
 542 01fa 8DF80030 		strb	r3, [sp, #0]
 543              	.LVL80:
 544              		.loc 1 106 0
 545 01fe 5F46     		mov	r7, fp
 546              		.loc 1 197 0
 547 0200 0BF10100 		add	r0, fp, #1
 548              		.loc 1 198 0
 549 0204 A9E7     		b	.L33
 550              	.LVL81:
 551              	.L27:
 552 0206 0822     		movs	r2, #8
 553 0208 E5E7     		b	.L28
 554              	.LVL82:
 555              	.L26:
 556              		.loc 1 168 0
 557 020a 0029     		cmp	r1, #0
 558 020c 2CD1     		bne	.L78
 559              		.loc 1 171 0
 560 020e 039B     		ldr	r3, [sp, #12]
 561              	.LVL83:
 562 0210 1968     		ldr	r1, [r3, #0]
 563              	.LVL84:
 564 0212 1A1D     		adds	r2, r3, #4
 565              	.LVL85:
ARM GAS  C:\Users\z80\AppData\Local\Temp\cck6btKT.s 			page 11


 566              		.loc 1 172 0
 567 0214 0029     		cmp	r1, #0
 568              		.loc 1 171 0
 569 0216 0392     		str	r2, [sp, #12]
 570              	.LVL86:
 571              		.loc 1 105 0
 572 0218 A8BF     		it	ge
 573 021a 6846     		movge	r0, sp
 574              		.loc 1 172 0
 575 021c 2CDB     		blt	.L79
 576              	.LVL87:
 577              	.L39:
 578              		.loc 1 176 0
 579 021e 0A22     		movs	r2, #10
 580 0220 FFF7FEFF 		bl	ltoa
 581              	.LVL88:
 582              		.loc 1 106 0
 583 0224 6F46     		mov	r7, sp
 584              		.loc 1 177 0
 585 0226 98E7     		b	.L33
 586              	.LVL89:
 587              	.L23:
 588              		.loc 1 149 0
 589 0228 A3F14101 		sub	r1, r3, #65
 590              	.LVL90:
 591 022c C9B2     		uxtb	r1, r1
 592 022e 1929     		cmp	r1, #25
 593 0230 8CBF     		ite	hi
 594 0232 0021     		movhi	r1, #0
 595 0234 0121     		movls	r1, #1
 596              	.LVL91:
 597 0236 3EE7     		b	.L24
 598              	.LVL92:
 599              	.L73:
 600              		.loc 1 129 0
 601 0238 4FF0000C 		mov	ip, #0
 602              	.LVL93:
 603              	.L22:
 604              		.loc 1 131 0
 605 023c 0C46     		mov	r4, r1
 606 023e 14F8013B 		ldrb	r3, [r4], #1	@ zero_extendqisi2
 607              	.LVL94:
 608              		.loc 1 138 0
 609 0242 0CEB8C07 		add	r7, ip, ip, lsl #2
 610              		.loc 1 132 0
 611 0246 A3F13002 		sub	r2, r3, #48
 612 024a D2B2     		uxtb	r2, r2
 613 024c 092A     		cmp	r2, #9
 614              		.loc 1 131 0
 615 024e 2146     		mov	r1, r4
 616              	.LVL95:
 617              		.loc 1 132 0
 618 0250 03D9     		bls	.L20
 619              		.loc 1 134 0
 620 0252 2A2B     		cmp	r3, #42
 621 0254 04D1     		bne	.L80
 622              		.loc 1 135 0
ARM GAS  C:\Users\z80\AppData\Local\Temp\cck6btKT.s 			page 12


 623 0256 0278     		ldrb	r2, [r0, #0]	@ zero_extendqisi2
 624              	.LVL96:
 625 0258 0430     		adds	r0, r0, #4
 626              	.LVL97:
 627              	.L20:
 628              		.loc 1 139 0
 629 025a 02EB470C 		add	ip, r2, r7, lsl #1
 630              	.LVL98:
 631              		.loc 1 140 0
 632 025e EDE7     		b	.L22
 633              	.LVL99:
 634              	.L80:
 635              		.loc 1 134 0
 636 0260 0390     		str	r0, [sp, #12]
 637 0262 16E7     		b	.L19
 638              	.LVL100:
 639              	.L51:
 640              		.loc 1 144 0
 641 0264 0121     		movs	r1, #1
 642              	.LVL101:
 643 0266 26E7     		b	.L24
 644              	.LVL102:
 645              	.L78:
 646              		.loc 1 169 0
 647 0268 039B     		ldr	r3, [sp, #12]
 648              	.LVL103:
 649 026a 1968     		ldr	r1, [r3, #0]
 650              	.LVL104:
 651 026c 1A1D     		adds	r2, r3, #4
 652              	.LVL105:
 653              		.loc 1 172 0
 654 026e 0029     		cmp	r1, #0
 655              		.loc 1 169 0
 656 0270 0392     		str	r2, [sp, #12]
 657              		.loc 1 105 0
 658 0272 A8BF     		it	ge
 659 0274 6846     		movge	r0, sp
 660              		.loc 1 172 0
 661 0276 D2DA     		bge	.L39
 662              	.LVL106:
 663              	.L79:
 664              		.loc 1 173 0
 665 0278 2D23     		movs	r3, #45
 666 027a 8DF80030 		strb	r3, [sp, #0]
 667              	.LVL107:
 668              		.loc 1 174 0
 669 027e 4942     		negs	r1, r1
 670              	.LVL108:
 671              		.loc 1 173 0
 672 0280 0BF10100 		add	r0, fp, #1
 673 0284 CBE7     		b	.L39
 674              	.LVL109:
 675              	.L75:
 676              		.loc 1 207 0
 677 0286 2B68     		ldr	r3, [r5, #0]
 678 0288 2846     		mov	r0, r5
 679              	.LVL110:
ARM GAS  C:\Users\z80\AppData\Local\Temp\cck6btKT.s 			page 13


 680 028a 1B69     		ldr	r3, [r3, #16]
 681 028c 2D21     		movs	r1, #45
 682 028e 4FF0FF32 		mov	r2, #-1
 683 0292 9847     		blx	r3
 684 0294 0137     		adds	r7, r7, #1
 685              	.LVL111:
 686              		.loc 1 208 0
 687 0296 08F1FF38 		add	r8, r8, #-1
 688              	.LVL112:
 689 029a 76E7     		b	.L61
 690              		.cfi_endproc
 691              	.LFE8:
 692              		.size	chprintf, .-chprintf
 693 029c AFF30080 		.section	.rodata.str1.4,"aMS",%progbits,1
 694              		.align	2
 695              	.LC0:
 696 0000 286E756C 		.ascii	"(null)\000"
 696      6C2900
 697 0007 00       		.text
 698              	.Letext0: