ARM GAS  C:\Users\z80\AppData\Local\Temp\cck6btKT.s 			page 1


   1              		.syntax unified
   2              		.cpu cortex-m3
   3              		.fpu softvfp
   4              		.eabi_attribute 20, 1
   5              		.eabi_attribute 21, 1
   6              		.eabi_attribute 23, 3
   7              		.eabi_attribute 24, 1
   8              		.eabi_attribute 25, 1
   9              		.eabi_attribute 26, 1
  10              		.eabi_attribute 30, 2
  11              		.eabi_attribute 18, 4
  12              		.thumb
  13              		.file	"chprintf.c"
  14              		.section	.debug_abbrev,"",%progbits
  15              	.Ldebug_abbrev0:
  16              		.section	.debug_info,"",%progbits
  17              	.Ldebug_info0:
  18              		.section	.debug_line,"",%progbits
  19              	.Ldebug_line0:
  20 0000 62020000 		.text
  20      02003D01 
  20      00000201 
  20      FB0E0D00 
  20      01010101 
  21              	.Ltext0:
  22              		.cfi_sections	.debug_frame
  23              		.section	.text.ltoa,"ax",%progbits
  24              		.align	2
  25              		.p2align 4,,15
  26              		.thumb
  27              		.thumb_func
  28              		.type	ltoa, %function
  29              	ltoa:
  30              	.LFB7:
  31              		.file 1 "../chibios_2.4.x/os/various/chprintf.c"
  32              		.loc 1 42 0
  33              		.cfi_startproc
  34              		@ args = 0, pretend = 0, frame = 0
  35              		@ frame_needed = 0, uses_anonymous_args = 0
  36              		@ link register save eliminated.
  37              	.LVL0:
  38 0000 70B4     		push	{r4, r5, r6}
  39              	.LCFI0:
  40              		.cfi_def_cfa_offset 12
  41              		.loc 1 46 0
  42 0002 00F10B06 		add	r6, r0, #11
  43              		.cfi_offset 6, -4
  44              		.cfi_offset 5, -8
  45              		.cfi_offset 4, -12
  46              	.LVL1:
  47              		.loc 1 42 0
  48 0006 00F10A04 		add	r4, r0, #10
  49              	.LVL2:
  50              	.L3:
  51              		.loc 1 48 0
  52 000a B1FBF2F3 		udiv	r3, r1, r2
  53 000e 02FB1311 		mls	r1, r2, r3, r1
ARM GAS  C:\Users\z80\AppData\Local\Temp\cck6btKT.s 			page 2


  54              	.LVL3:
  55              		.loc 1 49 0
  56 0012 01F1300C 		add	ip, r1, #48
  57              	.LVL4:
  58              		.loc 1 50 0
  59 0016 BCF1390F 		cmp	ip, #57
  60              		.loc 1 51 0
  61 001a C8BF     		it	gt
  62 001c 01F1370C 		addgt	ip, r1, #55
  63              	.LVL5:
  64              		.loc 1 52 0
  65 0020 5FFA8CFC 		uxtb	ip, ip
  66              	.LVL6:
  67              		.loc 1 51 0
  68 0024 2546     		mov	r5, r4
  69              	.LVL7:
  70              		.loc 1 53 0
  71 0026 1946     		mov	r1, r3
  72              	.LVL8:
  73              		.loc 1 52 0
  74 0028 04F801C9 		strb	ip, [r4], #-1
  75              	.LVL9:
  76              		.loc 1 53 0
  77 002c 002B     		cmp	r3, #0
  78 002e ECD1     		bne	.L3
  79              	.LVL10:
  80 0030 2A46     		mov	r2, r5
  81              	.LVL11:
  82              		.loc 1 55 0
  83 0032 711B     		subs	r1, r6, r5
  84 0034 01E0     		b	.L5
  85              	.LVL12:
  86              	.L8:
  87              		.loc 1 58 0
  88 0036 12F801CF 		ldrb	ip, [r2, #1]!	@ zero_extendqisi2
  89              	.L5:
  90              		.loc 1 57 0 discriminator 1
  91 003a 00F803C0 		strb	ip, [r0, r3]
  92 003e 0133     		adds	r3, r3, #1
  93              		.loc 1 58 0 discriminator 1
  94 0040 8B42     		cmp	r3, r1
  95 0042 F8D1     		bne	.L8
  96              		.loc 1 58 0 is_stmt 0
  97 0044 C018     		adds	r0, r0, r3
  98              		.loc 1 61 0 is_stmt 1
  99 0046 70BC     		pop	{r4, r5, r6}
 100 0048 7047     		bx	lr
 101              		.cfi_endproc
 102              	.LFE7:
 103              		.size	ltoa, .-ltoa
 104 004a 00BFAFF3 		.section	.text.chprintf,"ax",%progbits
 104      0080
 105              		.align	2
 106              		.p2align 4,,15
 107              		.global	chprintf
 108              		.thumb
 109              		.thumb_func
ARM GAS  C:\Users\z80\AppData\Local\Temp\cck6btKT.s 			page 3


 110              		.type	chprintf, %function
 111              	chprintf:
 112              	.LFB8:
 113              		.loc 1 86 0
 114              		.cfi_startproc
 115              		@ args = 4, pretend = 12, frame = 16
 116              		@ frame_needed = 0, uses_anonymous_args = 1
 117              	.LVL13:
 118 0000 0EB4     		push	{r1, r2, r3}
 119              	.LCFI1:
 120              		.cfi_def_cfa_offset 12
 121 0002 2DE9F04F 		push	{r4, r5, r6, r7, r8, r9, sl, fp, lr}
 122              	.LCFI2:
 123              		.cfi_def_cfa_offset 48
 124 0006 84B0     		sub	sp, sp, #16
 125              	.LCFI3:
 126              		.cfi_def_cfa_offset 64
 127              		.loc 1 86 0
 128 0008 0DAB     		add	r3, sp, #52
 129              		.cfi_offset 14, -16
 130              		.cfi_offset 11, -20
 131              		.cfi_offset 10, -24
 132              		.cfi_offset 9, -28
 133              		.cfi_offset 8, -32
 134              		.cfi_offset 7, -36
 135              		.cfi_offset 6, -40
 136              		.cfi_offset 5, -44
 137              		.cfi_offset 4, -48
 138              		.cfi_offset 3, -4
 139              		.cfi_offset 2, -8
 140              		.cfi_offset 1, -12
 141 000a 53F8044B 		ldr	r4, [r3], #4
 142 000e 0546     		mov	r5, r0
 143              		.loc 1 94 0
 144 0010 0393     		str	r3, [sp, #12]
 145              		.loc 1 106 0
 146 0012 EB46     		mov	fp, sp
 147              	.LVL14:
 148              	.L67:
 149              		.loc 1 96 0
 150 0014 2178     		ldrb	r1, [r4, #0]	@ zero_extendqisi2
 151              	.LVL15:
 152              		.loc 1 97 0
 153 0016 59B1     		cbz	r1, .L68
 154              	.LVL16:
 155              	.L71:
 156              		.loc 1 96 0
 157 0018 0134     		adds	r4, r4, #1
 158              		.loc 1 101 0
 159 001a 2529     		cmp	r1, #37
 160 001c 0DD0     		beq	.L12
 161              		.loc 1 102 0
 162 001e 2B68     		ldr	r3, [r5, #0]
 163 0020 2846     		mov	r0, r5
 164 0022 1B69     		ldr	r3, [r3, #16]
 165 0024 4FF0FF32 		mov	r2, #-1
 166 0028 9847     		blx	r3
ARM GAS  C:\Users\z80\AppData\Local\Temp\cck6btKT.s 			page 4


 167              	.LVL17:
 168              		.loc 1 96 0
 169 002a 2178     		ldrb	r1, [r4, #0]	@ zero_extendqisi2
 170              	.LVL18:
 171              		.loc 1 97 0
 172 002c 0029     		cmp	r1, #0
 173 002e F3D1     		bne	.L71
 174              	.LVL19:
 175              	.L68:
 176              		.loc 1 222 0
 177 0030 04B0     		add	sp, sp, #16
 178 0032 BDE8F04F 		pop	{r4, r5, r6, r7, r8, r9, sl, fp, lr}
 179 0036 03B0     		add	sp, sp, #12
 180 0038 7047     		bx	lr
 181              	.L12:
 182              	.LVL20:
 183              		.loc 1 108 0
 184 003a 2378     		ldrb	r3, [r4, #0]	@ zero_extendqisi2
 185              		.loc 1 114 0
 186 003c 0398     		ldr	r0, [sp, #12]
 187              		.loc 1 108 0
 188 003e 2D2B     		cmp	r3, #45
 189              	.LVL21:
 190              		.loc 1 109 0
 191 0040 06BF     		itte	eq
 192 0042 14F8013F 		ldrbeq	r3, [r4, #1]!	@ zero_extendqisi2
 193              	.LVL22:
 194              		.loc 1 110 0
 195 0046 4FF00109 		moveq	r9, #1
 196              		.loc 1 107 0
 197 004a 4FF00009 		movne	r9, #0
 198              	.LVL23:
 199              		.loc 1 113 0
 200 004e 2E2B     		cmp	r3, #46
 201              	.LVL24:
 202              		.loc 1 114 0
 203 0050 06BF     		itte	eq
 204 0052 14F8013F 		ldrbeq	r3, [r4, #1]!	@ zero_extendqisi2
 205              	.LVL25:
 206              		.loc 1 115 0
 207 0056 4FF0300A 		moveq	sl, #48
 208              		.loc 1 112 0
 209 005a 4FF0200A 		movne	sl, #32
 210              	.LVL26:
 211              		.loc 1 86 0
 212 005e 611C     		adds	r1, r4, #1
 213              		.loc 1 117 0
 214 0060 0026     		movs	r6, #0
 215 0062 07E0     		b	.L18
 216              	.LVL27:
 217              	.L72:
 218              		.loc 1 123 0
 219 0064 0278     		ldrb	r2, [r0, #0]	@ zero_extendqisi2
 220              	.LVL28:
 221 0066 0430     		adds	r0, r0, #4
 222              	.LVL29:
 223              	.L16:
ARM GAS  C:\Users\z80\AppData\Local\Temp\cck6btKT.s 			page 5


 224              		.loc 1 126 0
 225 0068 06EB8606 		add	r6, r6, r6, lsl #2
 226              	.LVL30:
 227 006c 11F8013B 		ldrb	r3, [r1], #1	@ zero_extendqisi2
 228              	.LVL31:
 229 0070 02EB4606 		add	r6, r2, r6, lsl #1
 230              	.LVL32:
 231              	.L18:
 232              		.loc 1 120 0
 233 0074 A3F13002 		sub	r2, r3, #48
 234 0078 D2B2     		uxtb	r2, r2
 235 007a 092A     		cmp	r2, #9
 236              		.loc 1 114 0
 237 007c 0C46     		mov	r4, r1
 238              	.LVL33:
 239              		.loc 1 120 0
 240 007e F3D9     		bls	.L16
 241              		.loc 1 122 0
 242 0080 2A2B     		cmp	r3, #42
 243 0082 EFD0     		beq	.L72
 244              		.loc 1 129 0
 245 0084 2E2B     		cmp	r3, #46
 246              		.loc 1 127 0
 247 0086 0390     		str	r0, [sp, #12]
 248              	.LVL34:
 249              		.loc 1 128 0
 250 0088 18BF     		it	ne
 251 008a 4FF0000C 		movne	ip, #0
 252              		.loc 1 129 0
 253 008e 00F0D380 		beq	.L73
 254              	.LVL35:
 255              	.L19:
 256              		.loc 1 143 0
 257 0092 6C2B     		cmp	r3, #108
 258 0094 14BF     		ite	ne
 259 0096 0022     		movne	r2, #0
 260 0098 0122     		moveq	r2, #1
 261 009a 4C2B     		cmp	r3, #76
 262 009c 08BF     		it	eq
 263 009e 42F00102 		orreq	r2, r2, #1
 264 00a2 002A     		cmp	r2, #0
 265 00a4 00F0C080 		beq	.L23
 266              	.LVL36:
 267              		.loc 1 145 0
 268 00a8 2278     		ldrb	r2, [r4, #0]	@ zero_extendqisi2
 269 00aa 002A     		cmp	r2, #0
 270 00ac 00F0DA80 		beq	.L51
 271              	.LVL37:
 272              		.loc 1 146 0
 273 00b0 0134     		adds	r4, r4, #1
 274              	.LVL38:
 275 00b2 1346     		mov	r3, r2
 276              		.loc 1 144 0
 277 00b4 0121     		movs	r1, #1
 278              	.LVL39:
 279              	.L24:
 280              		.loc 1 152 0
ARM GAS  C:\Users\z80\AppData\Local\Temp\cck6btKT.s 			page 6


 281 00b6 A3F14402 		sub	r2, r3, #68
 282 00ba 342A     		cmp	r2, #52
 283 00bc 00F29D80 		bhi	.L25
 284 00c0 DFE802F0 		tbb	[pc, r2]
 285              	.L32:
 286 00c4 A3       		.byte	(.L26-.L32)/2
 287 00c5 9B       		.byte	(.L25-.L32)/2
 288 00c6 9B       		.byte	(.L25-.L32)/2
 289 00c7 9B       		.byte	(.L25-.L32)/2
 290 00c8 9B       		.byte	(.L25-.L32)/2
 291 00c9 9B       		.byte	(.L25-.L32)/2
 292 00ca 9B       		.byte	(.L25-.L32)/2
 293 00cb 9B       		.byte	(.L25-.L32)/2
 294 00cc 9B       		.byte	(.L25-.L32)/2
 295 00cd 9B       		.byte	(.L25-.L32)/2
 296 00ce 9B       		.byte	(.L25-.L32)/2
 297 00cf A1       		.byte	(.L27-.L32)/2
 298 00d0 9B       		.byte	(.L25-.L32)/2
 299 00d1 9B       		.byte	(.L25-.L32)/2
 300 00d2 9B       		.byte	(.L25-.L32)/2
 301 00d3 9B       		.byte	(.L25-.L32)/2
 302 00d4 9B       		.byte	(.L25-.L32)/2
 303 00d5 93       		.byte	(.L52-.L32)/2
 304 00d6 9B       		.byte	(.L25-.L32)/2
 305 00d7 9B       		.byte	(.L25-.L32)/2
 306 00d8 88       		.byte	(.L29-.L32)/2
 307 00d9 9B       		.byte	(.L25-.L32)/2
 308 00da 9B       		.byte	(.L25-.L32)/2
 309 00db 9B       		.byte	(.L25-.L32)/2
 310 00dc 9B       		.byte	(.L25-.L32)/2
 311 00dd 9B       		.byte	(.L25-.L32)/2
 312 00de 9B       		.byte	(.L25-.L32)/2
 313 00df 9B       		.byte	(.L25-.L32)/2
 314 00e0 9B       		.byte	(.L25-.L32)/2
 315 00e1 9B       		.byte	(.L25-.L32)/2
 316 00e2 9B       		.byte	(.L25-.L32)/2
 317 00e3 40       		.byte	(.L30-.L32)/2
 318 00e4 A3       		.byte	(.L26-.L32)/2
 319 00e5 9B       		.byte	(.L25-.L32)/2
 320 00e6 9B       		.byte	(.L25-.L32)/2
 321 00e7 9B       		.byte	(.L25-.L32)/2
 322 00e8 9B       		.byte	(.L25-.L32)/2
 323 00e9 9B       		.byte	(.L25-.L32)/2
 324 00ea 9B       		.byte	(.L25-.L32)/2
 325 00eb 9B       		.byte	(.L25-.L32)/2
 326 00ec 9B       		.byte	(.L25-.L32)/2
 327 00ed 9B       		.byte	(.L25-.L32)/2
 328 00ee 9B       		.byte	(.L25-.L32)/2
 329 00ef A1       		.byte	(.L27-.L32)/2
 330 00f0 9B       		.byte	(.L25-.L32)/2
 331 00f1 9B       		.byte	(.L25-.L32)/2
 332 00f2 9B       		.byte	(.L25-.L32)/2
 333 00f3 1B       		.byte	(.L31-.L32)/2
 334 00f4 9B       		.byte	(.L25-.L32)/2
 335 00f5 93       		.byte	(.L52-.L32)/2
 336 00f6 9B       		.byte	(.L25-.L32)/2
 337 00f7 9B       		.byte	(.L25-.L32)/2
ARM GAS  C:\Users\z80\AppData\Local\Temp\cck6btKT.s 			page 7


 338 00f8 88       		.byte	(.L29-.L32)/2
 339 00f9 00       		.align	1
 340              	.L31:
 341              	.LVL40:
 342              		.loc 1 159 0
 343 00fa 039B     		ldr	r3, [sp, #12]
 344              	.LVL41:
 345              		.loc 1 162 0
 346 00fc 47F6FF72 		movw	r2, #32767
 347              	.LVL42:
 348              		.loc 1 159 0
 349 0100 1F68     		ldr	r7, [r3, #0]
 350              	.LVL43:
 351 0102 0433     		adds	r3, r3, #4
 352 0104 0393     		str	r3, [sp, #12]
 353              		.loc 1 160 0
 354 0106 40F20003 		movw	r3, #:lower16:.LC0
 355 010a C0F20003 		movt	r3, #:upper16:.LC0
 356 010e 002F     		cmp	r7, #0
 357 0110 08BF     		it	eq
 358 0112 1F46     		moveq	r7, r3
 359              	.LVL44:
 360              		.loc 1 163 0
 361 0114 3B78     		ldrb	r3, [r7, #0]	@ zero_extendqisi2
 362              		.loc 1 162 0
 363 0116 BCF1000F 		cmp	ip, #0
 364 011a 08BF     		it	eq
 365 011c 9446     		moveq	ip, r2
 366              	.LVL45:
 367              		.loc 1 163 0
 368 011e 3846     		mov	r0, r7
 369              		.loc 1 158 0
 370 0120 4FF0200A 		mov	sl, #32
 371              		.loc 1 163 0
 372 0124 CBB1     		cbz	r3, .L33
 373 0126 0CF1FF3C 		add	ip, ip, #-1
 374              	.LVL46:
 375              		.loc 1 86 0
 376 012a 7B1C     		adds	r3, r7, #1
 377 012c 02E0     		b	.L36
 378              	.LVL47:
 379              	.L74:
 380              		.loc 1 163 0 discriminator 2
 381 012e 1CF1FF3C 		adds	ip, ip, #-1
 382              	.LVL48:
 383 0132 04D4     		bmi	.L56
 384              	.L36:
 385              		.loc 1 163 0 is_stmt 0 discriminator 1
 386 0134 1A78     		ldrb	r2, [r3, #0]	@ zero_extendqisi2
 387 0136 1846     		mov	r0, r3
 388              	.LVL49:
 389 0138 0133     		adds	r3, r3, #1
 390              	.LVL50:
 391 013a 002A     		cmp	r2, #0
 392 013c F7D1     		bne	.L74
 393              	.L56:
 394              		.loc 1 158 0 is_stmt 1
ARM GAS  C:\Users\z80\AppData\Local\Temp\cck6btKT.s 			page 8


 395 013e 4FF0200A 		mov	sl, #32
 396 0142 0AE0     		b	.L33
 397              	.LVL51:
 398              	.L30:
 399              		.loc 1 155 0
 400 0144 039B     		ldr	r3, [sp, #12]
 401              	.LVL52:
 402              		.loc 1 154 0
 403 0146 4FF0200A 		mov	sl, #32
 404              		.loc 1 155 0
 405 014a 1A68     		ldr	r2, [r3, #0]
 406              	.LVL53:
 407 014c 0433     		adds	r3, r3, #4
 408 014e 0393     		str	r3, [sp, #12]
 409 0150 8DF80020 		strb	r2, [sp, #0]
 410              	.LVL54:
 411              		.loc 1 106 0
 412 0154 5F46     		mov	r7, fp
 413              		.loc 1 155 0
 414 0156 0BF10100 		add	r0, fp, #1
 415              	.LVL55:
 416              	.L33:
 417              		.loc 1 200 0
 418 015a C7EB0008 		rsb	r8, r7, r0
 419              	.LVL56:
 420              		.loc 1 201 0
 421 015e C8EB0606 		rsb	r6, r8, r6
 422              	.LVL57:
 423 0162 26EAE676 		bic	r6, r6, r6, asr #31
 424              	.LVL58:
 425              		.loc 1 203 0
 426 0166 B9F1000F 		cmp	r9, #0
 427 016a 22D1     		bne	.L70
 428              		.loc 1 204 0
 429 016c 7642     		negs	r6, r6
 430              	.LVL59:
 431              		.loc 1 205 0
 432 016e 06B3     		cbz	r6, .L70
 433              		.loc 1 206 0
 434 0170 3A78     		ldrb	r2, [r7, #0]	@ zero_extendqisi2
 435 0172 BAF1300F 		cmp	sl, #48
 436 0176 14BF     		ite	ne
 437 0178 0023     		movne	r3, #0
 438 017a 0123     		moveq	r3, #1
 439 017c 2D2A     		cmp	r2, #45
 440 017e 14BF     		ite	ne
 441 0180 0023     		movne	r3, #0
 442 0182 03F00103 		andeq	r3, r3, #1
 443 0186 002B     		cmp	r3, #0
 444 0188 7DD1     		bne	.L75
 445              	.LVL60:
 446              	.L61:
 447              		.loc 1 211 0 discriminator 1
 448 018a 2B68     		ldr	r3, [r5, #0]
 449 018c 2846     		mov	r0, r5
 450 018e 1B69     		ldr	r3, [r3, #16]
 451 0190 5146     		mov	r1, sl
ARM GAS  C:\Users\z80\AppData\Local\Temp\cck6btKT.s 			page 9


 452 0192 4FF0FF32 		mov	r2, #-1
 453 0196 9847     		blx	r3
 454              	.LVL61:
 455              		.loc 1 212 0 discriminator 1
 456 0198 0136     		adds	r6, r6, #1
 457              	.LVL62:
 458 019a F6D1     		bne	.L61
 459              	.LVL63:
 460              		.loc 1 214 0
 461 019c 18F1FF38 		adds	r8, r8, #-1
 462              	.LVL64:
 463 01a0 0AD4     		bmi	.L76
 464              	.L60:
 465              		.loc 1 215 0
 466 01a2 2B68     		ldr	r3, [r5, #0]
 467 01a4 17F8011B 		ldrb	r1, [r7], #1	@ zero_extendqisi2
 468              	.LVL65:
 469 01a8 1B69     		ldr	r3, [r3, #16]
 470 01aa 2846     		mov	r0, r5
 471 01ac 4FF0FF32 		mov	r2, #-1
 472 01b0 9847     		blx	r3
 473              	.L70:
 474              	.LVL66:
 475              		.loc 1 214 0
 476 01b2 18F1FF38 		adds	r8, r8, #-1
 477              	.LVL67:
 478 01b6 F4D5     		bpl	.L60
 479              	.L76:
 480              		.loc 1 217 0 discriminator 1
 481 01b8 002E     		cmp	r6, #0
 482 01ba 3FF42BAF 		beq	.L67
 483              	.L59:
 484              		.loc 1 218 0
 485 01be 2B68     		ldr	r3, [r5, #0]
 486 01c0 2846     		mov	r0, r5
 487 01c2 1B69     		ldr	r3, [r3, #16]
 488 01c4 5146     		mov	r1, sl
 489 01c6 4FF0FF32 		mov	r2, #-1
 490 01ca 9847     		blx	r3
 491              	.LVL68:
 492              		.loc 1 217 0
 493 01cc 16F1FF36 		adds	r6, r6, #-1
 494              	.LVL69:
 495 01d0 F5D1     		bne	.L59
 496 01d2 1FE7     		b	.L67
 497              	.LVL70:
 498              	.L29:
 499              		.loc 1 152 0
 500 01d4 1022     		movs	r2, #16
 501              	.LVL71:
 502              	.L28:
 503              		.loc 1 190 0
 504 01d6 59B1     		cbz	r1, .L40
 505              	.L77:
 506              		.loc 1 191 0
 507 01d8 039B     		ldr	r3, [sp, #12]
 508 01da 191D     		adds	r1, r3, #4
ARM GAS  C:\Users\z80\AppData\Local\Temp\cck6btKT.s 			page 10


 509              	.LVL72:
 510 01dc 0391     		str	r1, [sp, #12]
 511 01de 1968     		ldr	r1, [r3, #0]
 512              	.LVL73:
 513              	.L41:
 514              		.loc 1 194 0
 515 01e0 6846     		mov	r0, sp
 516 01e2 FFF7FEFF 		bl	ltoa
 517              	.LVL74:
 518              		.loc 1 106 0
 519 01e6 6F46     		mov	r7, sp
 520              		.loc 1 195 0
 521 01e8 B7E7     		b	.L33
 522              	.LVL75:
 523              	.L52:
 524              		.loc 1 152 0
 525 01ea 0A22     		movs	r2, #10
 526              	.LVL76:
 527              		.loc 1 190 0
 528 01ec 0029     		cmp	r1, #0
 529 01ee F3D1     		bne	.L77
 530              	.L40:
 531              		.loc 1 193 0
 532 01f0 039B     		ldr	r3, [sp, #12]
 533 01f2 181D     		adds	r0, r3, #4
 534 01f4 1968     		ldr	r1, [r3, #0]
 535              	.LVL77:
 536 01f6 0390     		str	r0, [sp, #12]
 537              	.LVL78:
 538 01f8 F2E7     		b	.L41
 539              	.LVL79:
 540              	.L25:
 541              		.loc 1 197 0
 542 01fa 8DF80030 		strb	r3, [sp, #0]
 543              	.LVL80:
 544              		.loc 1 106 0
 545 01fe 5F46     		mov	r7, fp
 546              		.loc 1 197 0
 547 0200 0BF10100 		add	r0, fp, #1
 548              		.loc 1 198 0
 549 0204 A9E7     		b	.L33
 550              	.LVL81:
 551              	.L27:
 552 0206 0822     		movs	r2, #8
 553 0208 E5E7     		b	.L28
 554              	.LVL82:
 555              	.L26:
 556              		.loc 1 168 0
 557 020a 0029     		cmp	r1, #0
 558 020c 2CD1     		bne	.L78
 559              		.loc 1 171 0
 560 020e 039B     		ldr	r3, [sp, #12]
 561              	.LVL83:
 562 0210 1968     		ldr	r1, [r3, #0]
 563              	.LVL84:
 564 0212 1A1D     		adds	r2, r3, #4
 565              	.LVL85:
ARM GAS  C:\Users\z80\AppData\Local\Temp\cck6btKT.s 			page 11


 566              		.loc 1 172 0
 567 0214 0029     		cmp	r1, #0
 568              		.loc 1 171 0
 569 0216 0392     		str	r2, [sp, #12]
 570              	.LVL86:
 571              		.loc 1 105 0
 572 0218 A8BF     		it	ge
 573 021a 6846     		movge	r0, sp
 574              		.loc 1 172 0
 575 021c 2CDB     		blt	.L79
 576              	.LVL87:
 577              	.L39:
 578              		.loc 1 176 0
 579 021e 0A22     		movs	r2, #10
 580 0220 FFF7FEFF 		bl	ltoa
 581              	.LVL88:
 582              		.loc 1 106 0
 583 0224 6F46     		mov	r7, sp
 584              		.loc 1 177 0
 585 0226 98E7     		b	.L33
 586              	.LVL89:
 587              	.L23:
 588              		.loc 1 149 0
 589 0228 A3F14101 		sub	r1, r3, #65
 590              	.LVL90:
 591 022c C9B2     		uxtb	r1, r1
 592 022e 1929     		cmp	r1, #25
 593 0230 8CBF     		ite	hi
 594 0232 0021     		movhi	r1, #0
 595 0234 0121     		movls	r1, #1
 596              	.LVL91:
 597 0236 3EE7     		b	.L24
 598              	.LVL92:
 599              	.L73:
 600              		.loc 1 129 0
 601 0238 4FF0000C 		mov	ip, #0
 602              	.LVL93:
 603              	.L22:
 604              		.loc 1 131 0
 605 023c 0C46     		mov	r4, r1
 606 023e 14F8013B 		ldrb	r3, [r4], #1	@ zero_extendqisi2
 607              	.LVL94:
 608              		.loc 1 138 0
 609 0242 0CEB8C07 		add	r7, ip, ip, lsl #2
 610              		.loc 1 132 0
 611 0246 A3F13002 		sub	r2, r3, #48
 612 024a D2B2     		uxtb	r2, r2
 613 024c 092A     		cmp	r2, #9
 614              		.loc 1 131 0
 615 024e 2146     		mov	r1, r4
 616              	.LVL95:
 617              		.loc 1 132 0
 618 0250 03D9     		bls	.L20
 619              		.loc 1 134 0
 620 0252 2A2B     		cmp	r3, #42
 621 0254 04D1     		bne	.L80
 622              		.loc 1 135 0
ARM GAS  C:\Users\z80\AppData\Local\Temp\cck6btKT.s 			page 12


 623 0256 0278     		ldrb	r2, [r0, #0]	@ zero_extendqisi2
 624              	.LVL96:
 625 0258 0430     		adds	r0, r0, #4
 626              	.LVL97:
 627              	.L20:
 628              		.loc 1 139 0
 629 025a 02EB470C 		add	ip, r2, r7, lsl #1
 630              	.LVL98:
 631              		.loc 1 140 0
 632 025e EDE7     		b	.L22
 633              	.LVL99:
 634              	.L80:
 635              		.loc 1 134 0
 636 0260 0390     		str	r0, [sp, #12]
 637 0262 16E7     		b	.L19
 638              	.LVL100:
 639              	.L51:
 640              		.loc 1 144 0
 641 0264 0121     		movs	r1, #1
 642              	.LVL101:
 643 0266 26E7     		b	.L24
 644              	.LVL102:
 645              	.L78:
 646              		.loc 1 169 0
 647 0268 039B     		ldr	r3, [sp, #12]
 648              	.LVL103:
 649 026a 1968     		ldr	r1, [r3, #0]
 650              	.LVL104:
 651 026c 1A1D     		adds	r2, r3, #4
 652              	.LVL105:
 653              		.loc 1 172 0
 654 026e 0029     		cmp	r1, #0
 655              		.loc 1 169 0
 656 0270 0392     		str	r2, [sp, #12]
 657              		.loc 1 105 0
 658 0272 A8BF     		it	ge
 659 0274 6846     		movge	r0, sp
 660              		.loc 1 172 0
 661 0276 D2DA     		bge	.L39
 662              	.LVL106:
 663              	.L79:
 664              		.loc 1 173 0
 665 0278 2D23     		movs	r3, #45
 666 027a 8DF80030 		strb	r3, [sp, #0]
 667              	.LVL107:
 668              		.loc 1 174 0
 669 027e 4942     		negs	r1, r1
 670              	.LVL108:
 671              		.loc 1 173 0
 672 0280 0BF10100 		add	r0, fp, #1
 673 0284 CBE7     		b	.L39
 674              	.LVL109:
 675              	.L75:
 676              		.loc 1 207 0
 677 0286 2B68     		ldr	r3, [r5, #0]
 678 0288 2846     		mov	r0, r5
 679              	.LVL110:
ARM GAS  C:\Users\z80\AppData\Local\Temp\cck6btKT.s 			page 13


 680 028a 1B69     		ldr	r3, [r3, #16]
 681 028c 2D21     		movs	r1, #45
 682 028e 4FF0FF32 		mov	r2, #-1
 683 0292 9847     		blx	r3
 684 0294 0137     		adds	r7, r7, #1
 685              	.LVL111:
 686              		.loc 1 208 0
 687 0296 08F1FF38 		add	r8, r8, #-1
 688              	.LVL112:
 689 029a 76E7     		b	.L61
 690              		.cfi_endproc
 691              	.LFE8:
 692              		.size	chprintf, .-chprintf
 693 029c AFF30080 		.section	.rodata.str1.4,"aMS",%progbits,1
 694              		.align	2
 695              	.LC0:
 696 0000 286E756C 		.ascii	"(null)\000"
 696      6C2900
 697 0007 00       		.text
 698              	.Letext0:
 699              		.section	.debug_loc,"",%progbits
 700              	.Ldebug_loc0:
 701              	.LLST0:
 702 0000 00000000 		.4byte	.LFB7
 703 0004 02000000 		.4byte	.LCFI0
 704 0008 0200     		.2byte	0x2
 705 000a 7D       		.byte	0x7d
 706 000b 00       		.sleb128 0
 707 000c 02000000 		.4byte	.LCFI0
 708 0010 4A000000 		.4byte	.LFE7
 709 0014 0200     		.2byte	0x2
 710 0016 7D       		.byte	0x7d
 711 0017 0C       		.sleb128 12
 712 0018 00000000 		.4byte	0x0
 713 001c 00000000 		.4byte	0x0
 714              	.LLST1:
 715 0020 00000000 		.4byte	.LVL0
 716 0024 36000000 		.4byte	.LVL12
 717 0028 0100     		.2byte	0x1
 718 002a 50       		.byte	0x50
 719 002b 00000000 		.4byte	0x0
 720 002f 00000000 		.4byte	0x0
 721              	.LLST2:
 722 0033 00000000 		.4byte	.LVL0
 723 0037 12000000 		.4byte	.LVL3
 724 003b 0100     		.2byte	0x1
 725 003d 51       		.byte	0x51
 726 003e 28000000 		.4byte	.LVL8
 727 0042 36000000 		.4byte	.LVL12
 728 0046 0100     		.2byte	0x1
 729 0048 53       		.byte	0x53
 730 0049 00000000 		.4byte	0x0
 731 004d 00000000 		.4byte	0x0
 732              	.LLST3:
 733 0051 00000000 		.4byte	.LVL0
 734 0055 32000000 		.4byte	.LVL11
 735 0059 0100     		.2byte	0x1
ARM GAS  C:\Users\z80\AppData\Local\Temp\cck6btKT.s 			page 14


 736 005b 52       		.byte	0x52
 737 005c 00000000 		.4byte	0x0
 738 0060 00000000 		.4byte	0x0
 739              	.LLST4:
 740 0064 12000000 		.4byte	.LVL3
 741 0068 16000000 		.4byte	.LVL4
 742 006c 0100     		.2byte	0x1
 743 006e 51       		.byte	0x51
 744 006f 16000000 		.4byte	.LVL4
 745 0073 20000000 		.4byte	.LVL5
 746 0077 0100     		.2byte	0x1
 747 0079 5C       		.byte	0x5c
 748 007a 20000000 		.4byte	.LVL5
 749 007e 24000000 		.4byte	.LVL6
 750 0082 0100     		.2byte	0x1
 751 0084 5C       		.byte	0x5c
 752 0085 30000000 		.4byte	.LVL10
 753 0089 36000000 		.4byte	.LVL12
 754 008d 0600     		.2byte	0x6
 755 008f 76       		.byte	0x76
 756 0090 00       		.sleb128 0
 757 0091 75       		.byte	0x75
 758 0092 00       		.sleb128 0
 759 0093 1C       		.byte	0x1c
 760 0094 9F       		.byte	0x9f
 761 0095 00000000 		.4byte	0x0
 762 0099 00000000 		.4byte	0x0
 763              	.LLST5:
 764 009d 06000000 		.4byte	.LVL1
 765 00a1 0A000000 		.4byte	.LVL2
 766 00a5 0100     		.2byte	0x1
 767 00a7 56       		.byte	0x56
 768 00a8 26000000 		.4byte	.LVL7
 769 00ac 2C000000 		.4byte	.LVL9
 770 00b0 0100     		.2byte	0x1
 771 00b2 54       		.byte	0x54
 772 00b3 2C000000 		.4byte	.LVL9
 773 00b7 36000000 		.4byte	.LVL12
 774 00bb 0100     		.2byte	0x1
 775 00bd 55       		.byte	0x55
 776 00be 00000000 		.4byte	0x0
 777 00c2 00000000 		.4byte	0x0
 778              	.LLST6:
 779 00c6 00000000 		.4byte	.LFB8
 780 00ca 02000000 		.4byte	.LCFI1
 781 00ce 0200     		.2byte	0x2
 782 00d0 7D       		.byte	0x7d
 783 00d1 00       		.sleb128 0
 784 00d2 02000000 		.4byte	.LCFI1
 785 00d6 06000000 		.4byte	.LCFI2
 786 00da 0200     		.2byte	0x2
 787 00dc 7D       		.byte	0x7d
 788 00dd 0C       		.sleb128 12
 789 00de 06000000 		.4byte	.LCFI2
 790 00e2 08000000 		.4byte	.LCFI3
 791 00e6 0200     		.2byte	0x2
 792 00e8 7D       		.byte	0x7d
ARM GAS  C:\Users\z80\AppData\Local\Temp\cck6btKT.s 			page 15


 793 00e9 30       		.sleb128 48
 794 00ea 08000000 		.4byte	.LCFI3
 795 00ee 9C020000 		.4byte	.LFE8
 796 00f2 0300     		.2byte	0x3
 797 00f4 7D       		.byte	0x7d
 798 00f5 C000     		.sleb128 64
 799 00f7 00000000 		.4byte	0x0
 800 00fb 00000000 		.4byte	0x0
 801              	.LLST7:
 802 00ff 00000000 		.4byte	.LVL13
 803 0103 14000000 		.4byte	.LVL14
 804 0107 0100     		.2byte	0x1
 805 0109 50       		.byte	0x50
 806 010a 14000000 		.4byte	.LVL14
 807 010e 9C020000 		.4byte	.LFE8
 808 0112 0100     		.2byte	0x1
 809 0114 55       		.byte	0x55
 810 0115 00000000 		.4byte	0x0
 811 0119 00000000 		.4byte	0x0
 812              	.LLST8:
 813 011d 00000000 		.4byte	.LVL13
 814 0121 14000000 		.4byte	.LVL14
 815 0125 0200     		.2byte	0x2
 816 0127 91       		.byte	0x91
 817 0128 74       		.sleb128 -12
 818 0129 14000000 		.4byte	.LVL14
 819 012d 16000000 		.4byte	.LVL15
 820 0131 0100     		.2byte	0x1
 821 0133 54       		.byte	0x54
 822 0134 16000000 		.4byte	.LVL15
 823 0138 18000000 		.4byte	.LVL16
 824 013c 0300     		.2byte	0x3
 825 013e 74       		.byte	0x74
 826 013f 01       		.sleb128 1
 827 0140 9F       		.byte	0x9f
 828 0141 2A000000 		.4byte	.LVL17
 829 0145 2C000000 		.4byte	.LVL18
 830 0149 0100     		.2byte	0x1
 831 014b 54       		.byte	0x54
 832 014c 2C000000 		.4byte	.LVL18
 833 0150 30000000 		.4byte	.LVL19
 834 0154 0300     		.2byte	0x3
 835 0156 74       		.byte	0x74
 836 0157 01       		.sleb128 1
 837 0158 9F       		.byte	0x9f
 838 0159 40000000 		.4byte	.LVL21
 839 015d 46000000 		.4byte	.LVL22
 840 0161 0100     		.2byte	0x1
 841 0163 54       		.byte	0x54
 842 0164 4E000000 		.4byte	.LVL23
 843 0168 56000000 		.4byte	.LVL25
 844 016c 0100     		.2byte	0x1
 845 016e 54       		.byte	0x54
 846 016f 5E000000 		.4byte	.LVL26
 847 0173 64000000 		.4byte	.LVL27
 848 0177 0100     		.2byte	0x1
 849 0179 54       		.byte	0x54
ARM GAS  C:\Users\z80\AppData\Local\Temp\cck6btKT.s 			page 16


 850 017a 64000000 		.4byte	.LVL27
 851 017e 70000000 		.4byte	.LVL31
 852 0182 0100     		.2byte	0x1
 853 0184 51       		.byte	0x51
 854 0185 70000000 		.4byte	.LVL31
 855 0189 74000000 		.4byte	.LVL32
 856 018d 0100     		.2byte	0x1
 857 018f 54       		.byte	0x54
 858 0190 7E000000 		.4byte	.LVL33
 859 0194 B2000000 		.4byte	.LVL38
 860 0198 0100     		.2byte	0x1
 861 019a 51       		.byte	0x51
 862 019b B2000000 		.4byte	.LVL38
 863 019f 28020000 		.4byte	.LVL89
 864 01a3 0100     		.2byte	0x1
 865 01a5 54       		.byte	0x54
 866 01a6 28020000 		.4byte	.LVL89
 867 01aa 2C020000 		.4byte	.LVL90
 868 01ae 0100     		.2byte	0x1
 869 01b0 51       		.byte	0x51
 870 01b1 2C020000 		.4byte	.LVL90
 871 01b5 38020000 		.4byte	.LVL92
 872 01b9 0100     		.2byte	0x1
 873 01bb 54       		.byte	0x54
 874 01bc 38020000 		.4byte	.LVL92
 875 01c0 3C020000 		.4byte	.LVL93
 876 01c4 0100     		.2byte	0x1
 877 01c6 51       		.byte	0x51
 878 01c7 50020000 		.4byte	.LVL95
 879 01cb 64020000 		.4byte	.LVL100
 880 01cf 0100     		.2byte	0x1
 881 01d1 54       		.byte	0x54
 882 01d2 64020000 		.4byte	.LVL100
 883 01d6 66020000 		.4byte	.LVL101
 884 01da 0100     		.2byte	0x1
 885 01dc 51       		.byte	0x51
 886 01dd 66020000 		.4byte	.LVL101
 887 01e1 9C020000 		.4byte	.LFE8
 888 01e5 0100     		.2byte	0x1
 889 01e7 54       		.byte	0x54
 890 01e8 00000000 		.4byte	0x0
 891 01ec 00000000 		.4byte	0x0
 892              	.LLST9:
 893 01f0 3A000000 		.4byte	.LVL20
 894 01f4 1E010000 		.4byte	.LVL45
 895 01f8 0100     		.2byte	0x1
 896 01fa 5D       		.byte	0x5d
 897 01fb 1E010000 		.4byte	.LVL45
 898 01ff 2E010000 		.4byte	.LVL47
 899 0203 0100     		.2byte	0x1
 900 0205 57       		.byte	0x57
 901 0206 2E010000 		.4byte	.LVL47
 902 020a 38010000 		.4byte	.LVL49
 903 020e 0100     		.2byte	0x1
 904 0210 50       		.byte	0x50
 905 0211 38010000 		.4byte	.LVL49
 906 0215 3A010000 		.4byte	.LVL50
ARM GAS  C:\Users\z80\AppData\Local\Temp\cck6btKT.s 			page 17


 907 0219 0100     		.2byte	0x1
 908 021b 53       		.byte	0x53
 909 021c 3A010000 		.4byte	.LVL50
 910 0220 44010000 		.4byte	.LVL51
 911 0224 0100     		.2byte	0x1
 912 0226 50       		.byte	0x50
 913 0227 44010000 		.4byte	.LVL51
 914 022b 54010000 		.4byte	.LVL54
 915 022f 0100     		.2byte	0x1
 916 0231 5D       		.byte	0x5d
 917 0232 54010000 		.4byte	.LVL54
 918 0236 5A010000 		.4byte	.LVL55
 919 023a 0300     		.2byte	0x3
 920 023c 7D       		.byte	0x7d
 921 023d 01       		.sleb128 1
 922 023e 9F       		.byte	0x9f
 923 023f 5A010000 		.4byte	.LVL55
 924 0243 8A010000 		.4byte	.LVL60
 925 0247 0100     		.2byte	0x1
 926 0249 50       		.byte	0x50
 927 024a D4010000 		.4byte	.LVL70
 928 024e E6010000 		.4byte	.LVL74
 929 0252 0100     		.2byte	0x1
 930 0254 5D       		.byte	0x5d
 931 0255 E6010000 		.4byte	.LVL74
 932 0259 EA010000 		.4byte	.LVL75
 933 025d 0100     		.2byte	0x1
 934 025f 50       		.byte	0x50
 935 0260 EA010000 		.4byte	.LVL75
 936 0264 FE010000 		.4byte	.LVL80
 937 0268 0100     		.2byte	0x1
 938 026a 5D       		.byte	0x5d
 939 026b FE010000 		.4byte	.LVL80
 940 026f 06020000 		.4byte	.LVL81
 941 0273 0300     		.2byte	0x3
 942 0275 7D       		.byte	0x7d
 943 0276 01       		.sleb128 1
 944 0277 9F       		.byte	0x9f
 945 0278 06020000 		.4byte	.LVL81
 946 027c 1E020000 		.4byte	.LVL87
 947 0280 0100     		.2byte	0x1
 948 0282 5D       		.byte	0x5d
 949 0283 1E020000 		.4byte	.LVL87
 950 0287 23020000 		.4byte	.LVL88-1
 951 028b 0100     		.2byte	0x1
 952 028d 50       		.byte	0x50
 953 028e 24020000 		.4byte	.LVL88
 954 0292 28020000 		.4byte	.LVL89
 955 0296 0100     		.2byte	0x1
 956 0298 50       		.byte	0x50
 957 0299 28020000 		.4byte	.LVL89
 958 029d 7E020000 		.4byte	.LVL107
 959 02a1 0100     		.2byte	0x1
 960 02a3 5D       		.byte	0x5d
 961 02a4 7E020000 		.4byte	.LVL107
 962 02a8 86020000 		.4byte	.LVL109
 963 02ac 0300     		.2byte	0x3
ARM GAS  C:\Users\z80\AppData\Local\Temp\cck6btKT.s 			page 18


 964 02ae 7D       		.byte	0x7d
 965 02af 01       		.sleb128 1
 966 02b0 9F       		.byte	0x9f
 967 02b1 86020000 		.4byte	.LVL109
 968 02b5 8A020000 		.4byte	.LVL110
 969 02b9 0100     		.2byte	0x1
 970 02bb 50       		.byte	0x50
 971 02bc 00000000 		.4byte	0x0
 972 02c0 00000000 		.4byte	0x0
 973              	.LLST10:
 974 02c4 3A000000 		.4byte	.LVL20
 975 02c8 02010000 		.4byte	.LVL43
 976 02cc 0100     		.2byte	0x1
 977 02ce 5D       		.byte	0x5d
 978 02cf 02010000 		.4byte	.LVL43
 979 02d3 14010000 		.4byte	.LVL44
 980 02d7 0400     		.2byte	0x4
 981 02d9 91       		.byte	0x91
 982 02da B47F     		.sleb128 -76
 983 02dc 06       		.byte	0x6
 984 02dd 14010000 		.4byte	.LVL44
 985 02e1 44010000 		.4byte	.LVL51
 986 02e5 0100     		.2byte	0x1
 987 02e7 57       		.byte	0x57
 988 02e8 44010000 		.4byte	.LVL51
 989 02ec 5A010000 		.4byte	.LVL55
 990 02f0 0100     		.2byte	0x1
 991 02f2 5D       		.byte	0x5d
 992 02f3 5A010000 		.4byte	.LVL55
 993 02f7 A8010000 		.4byte	.LVL65
 994 02fb 0100     		.2byte	0x1
 995 02fd 57       		.byte	0x57
 996 02fe A8010000 		.4byte	.LVL65
 997 0302 D4010000 		.4byte	.LVL70
 998 0306 0100     		.2byte	0x1
 999 0308 57       		.byte	0x57
 1000 0309 D4010000 		.4byte	.LVL70
 1001 030d 86020000 		.4byte	.LVL109
 1002 0311 0100     		.2byte	0x1
 1003 0313 5D       		.byte	0x5d
 1004 0314 86020000 		.4byte	.LVL109
 1005 0318 96020000 		.4byte	.LVL111
 1006 031c 0100     		.2byte	0x1
 1007 031e 57       		.byte	0x57
 1008 031f 96020000 		.4byte	.LVL111
 1009 0323 9C020000 		.4byte	.LFE8
 1010 0327 0100     		.2byte	0x1
 1011 0329 57       		.byte	0x57
 1012 032a 00000000 		.4byte	0x0
 1013 032e 00000000 		.4byte	0x0
 1014              	.LLST11:
 1015 0332 16000000 		.4byte	.LVL15
 1016 0336 18000000 		.4byte	.LVL16
 1017 033a 0100     		.2byte	0x1
 1018 033c 51       		.byte	0x51
 1019 033d 2C000000 		.4byte	.LVL18
 1020 0341 30000000 		.4byte	.LVL19
ARM GAS  C:\Users\z80\AppData\Local\Temp\cck6btKT.s 			page 19


 1021 0345 0100     		.2byte	0x1
 1022 0347 51       		.byte	0x51
 1023 0348 64000000 		.4byte	.LVL27
 1024 034c 66000000 		.4byte	.LVL28
 1025 0350 0100     		.2byte	0x1
 1026 0352 53       		.byte	0x53
 1027 0353 66000000 		.4byte	.LVL28
 1028 0357 68000000 		.4byte	.LVL29
 1029 035b 0100     		.2byte	0x1
 1030 035d 52       		.byte	0x52
 1031 035e 68000000 		.4byte	.LVL29
 1032 0362 74000000 		.4byte	.LVL32
 1033 0366 0100     		.2byte	0x1
 1034 0368 52       		.byte	0x52
 1035 0369 74000000 		.4byte	.LVL32
 1036 036d 92000000 		.4byte	.LVL35
 1037 0371 0100     		.2byte	0x1
 1038 0373 53       		.byte	0x53
 1039 0374 92000000 		.4byte	.LVL35
 1040 0378 B0000000 		.4byte	.LVL37
 1041 037c 0100     		.2byte	0x1
 1042 037e 53       		.byte	0x53
 1043 037f B0000000 		.4byte	.LVL37
 1044 0383 B6000000 		.4byte	.LVL39
 1045 0387 0100     		.2byte	0x1
 1046 0389 52       		.byte	0x52
 1047 038a B6000000 		.4byte	.LVL39
 1048 038e FC000000 		.4byte	.LVL41
 1049 0392 0100     		.2byte	0x1
 1050 0394 53       		.byte	0x53
 1051 0395 44010000 		.4byte	.LVL51
 1052 0399 46010000 		.4byte	.LVL52
 1053 039d 0100     		.2byte	0x1
 1054 039f 53       		.byte	0x53
 1055 03a0 D4010000 		.4byte	.LVL70
 1056 03a4 D6010000 		.4byte	.LVL71
 1057 03a8 0100     		.2byte	0x1
 1058 03aa 53       		.byte	0x53
 1059 03ab EA010000 		.4byte	.LVL75
 1060 03af EC010000 		.4byte	.LVL76
 1061 03b3 0100     		.2byte	0x1
 1062 03b5 53       		.byte	0x53
 1063 03b6 FA010000 		.4byte	.LVL79
 1064 03ba 06020000 		.4byte	.LVL81
 1065 03be 0100     		.2byte	0x1
 1066 03c0 53       		.byte	0x53
 1067 03c1 06020000 		.4byte	.LVL81
 1068 03c5 0A020000 		.4byte	.LVL82
 1069 03c9 0200     		.2byte	0x2
 1070 03cb 38       		.byte	0x38
 1071 03cc 9F       		.byte	0x9f
 1072 03cd 0A020000 		.4byte	.LVL82
 1073 03d1 10020000 		.4byte	.LVL83
 1074 03d5 0100     		.2byte	0x1
 1075 03d7 53       		.byte	0x53
 1076 03d8 28020000 		.4byte	.LVL89
 1077 03dc 3C020000 		.4byte	.LVL93
ARM GAS  C:\Users\z80\AppData\Local\Temp\cck6btKT.s 			page 20


 1078 03e0 0100     		.2byte	0x1
 1079 03e2 53       		.byte	0x53
 1080 03e3 42020000 		.4byte	.LVL94
 1081 03e7 58020000 		.4byte	.LVL96
 1082 03eb 0100     		.2byte	0x1
 1083 03ed 53       		.byte	0x53
 1084 03ee 58020000 		.4byte	.LVL96
 1085 03f2 5A020000 		.4byte	.LVL97
 1086 03f6 0100     		.2byte	0x1
 1087 03f8 52       		.byte	0x52
 1088 03f9 5A020000 		.4byte	.LVL97
 1089 03fd 60020000 		.4byte	.LVL99
 1090 0401 0100     		.2byte	0x1
 1091 0403 52       		.byte	0x52
 1092 0404 60020000 		.4byte	.LVL99
 1093 0408 6A020000 		.4byte	.LVL103
 1094 040c 0100     		.2byte	0x1
 1095 040e 53       		.byte	0x53
 1096 040f 00000000 		.4byte	0x0
 1097 0413 00000000 		.4byte	0x0
 1098              	.LLST12:
 1099 0417 4E000000 		.4byte	.LVL23
 1100 041b 50000000 		.4byte	.LVL24
 1101 041f 0300     		.2byte	0x3
 1102 0421 08       		.byte	0x8
 1103 0422 20       		.byte	0x20
 1104 0423 9F       		.byte	0x9f
 1105 0424 50000000 		.4byte	.LVL24
 1106 0428 5E000000 		.4byte	.LVL26
 1107 042c 0300     		.2byte	0x3
 1108 042e 08       		.byte	0x8
 1109 042f 30       		.byte	0x30
 1110 0430 9F       		.byte	0x9f
 1111 0431 5E000000 		.4byte	.LVL26
 1112 0435 FA000000 		.4byte	.LVL40
 1113 0439 0100     		.2byte	0x1
 1114 043b 5A       		.byte	0x5a
 1115 043c FA000000 		.4byte	.LVL40
 1116 0440 44010000 		.4byte	.LVL51
 1117 0444 0300     		.2byte	0x3
 1118 0446 08       		.byte	0x8
 1119 0447 20       		.byte	0x20
 1120 0448 9F       		.byte	0x9f
 1121 0449 44010000 		.4byte	.LVL51
 1122 044d 5A010000 		.4byte	.LVL55
 1123 0451 0300     		.2byte	0x3
 1124 0453 08       		.byte	0x8
 1125 0454 20       		.byte	0x20
 1126 0455 9F       		.byte	0x9f
 1127 0456 5A010000 		.4byte	.LVL55
 1128 045a 9C020000 		.4byte	.LFE8
 1129 045e 0100     		.2byte	0x1
 1130 0460 5A       		.byte	0x5a
 1131 0461 00000000 		.4byte	0x0
 1132 0465 00000000 		.4byte	0x0
 1133              	.LLST13:
 1134 0469 5E010000 		.4byte	.LVL56
ARM GAS  C:\Users\z80\AppData\Local\Temp\cck6btKT.s 			page 21


 1135 046d 9C010000 		.4byte	.LVL63
 1136 0471 0100     		.2byte	0x1
 1137 0473 58       		.byte	0x58
 1138 0474 9C010000 		.4byte	.LVL63
 1139 0478 A0010000 		.4byte	.LVL64
 1140 047c 0300     		.2byte	0x3
 1141 047e 78       		.byte	0x78
 1142 047f 7F       		.sleb128 -1
 1143 0480 9F       		.byte	0x9f
 1144 0481 A0010000 		.4byte	.LVL64
 1145 0485 B2010000 		.4byte	.LVL66
 1146 0489 0100     		.2byte	0x1
 1147 048b 58       		.byte	0x58
 1148 048c B2010000 		.4byte	.LVL66
 1149 0490 B6010000 		.4byte	.LVL67
 1150 0494 0300     		.2byte	0x3
 1151 0496 78       		.byte	0x78
 1152 0497 7F       		.sleb128 -1
 1153 0498 9F       		.byte	0x9f
 1154 0499 B6010000 		.4byte	.LVL67
 1155 049d D4010000 		.4byte	.LVL70
 1156 04a1 0100     		.2byte	0x1
 1157 04a3 58       		.byte	0x58
 1158 04a4 86020000 		.4byte	.LVL109
 1159 04a8 9A020000 		.4byte	.LVL112
 1160 04ac 0100     		.2byte	0x1
 1161 04ae 58       		.byte	0x58
 1162 04af 9A020000 		.4byte	.LVL112
 1163 04b3 9C020000 		.4byte	.LFE8
 1164 04b7 0100     		.2byte	0x1
 1165 04b9 58       		.byte	0x58
 1166 04ba 00000000 		.4byte	0x0
 1167 04be 00000000 		.4byte	0x0
 1168              	.LLST14:
 1169 04c2 88000000 		.4byte	.LVL34
 1170 04c6 92000000 		.4byte	.LVL35
 1171 04ca 0200     		.2byte	0x2
 1172 04cc 30       		.byte	0x30
 1173 04cd 9F       		.byte	0x9f
 1174 04ce 92000000 		.4byte	.LVL35
 1175 04d2 1E010000 		.4byte	.LVL45
 1176 04d6 0100     		.2byte	0x1
 1177 04d8 5C       		.byte	0x5c
 1178 04d9 1E010000 		.4byte	.LVL45
 1179 04dd 2A010000 		.4byte	.LVL46
 1180 04e1 0100     		.2byte	0x1
 1181 04e3 5C       		.byte	0x5c
 1182 04e4 2A010000 		.4byte	.LVL46
 1183 04e8 2E010000 		.4byte	.LVL47
 1184 04ec 0100     		.2byte	0x1
 1185 04ee 5C       		.byte	0x5c
 1186 04ef 2E010000 		.4byte	.LVL47
 1187 04f3 32010000 		.4byte	.LVL48
 1188 04f7 0300     		.2byte	0x3
 1189 04f9 7C       		.byte	0x7c
 1190 04fa 7F       		.sleb128 -1
 1191 04fb 9F       		.byte	0x9f
ARM GAS  C:\Users\z80\AppData\Local\Temp\cck6btKT.s 			page 22


 1192 04fc 32010000 		.4byte	.LVL48
 1193 0500 5A010000 		.4byte	.LVL55
 1194 0504 0100     		.2byte	0x1
 1195 0506 5C       		.byte	0x5c
 1196 0507 D4010000 		.4byte	.LVL70
 1197 050b E5010000 		.4byte	.LVL74-1
 1198 050f 0100     		.2byte	0x1
 1199 0511 5C       		.byte	0x5c
 1200 0512 EA010000 		.4byte	.LVL75
 1201 0516 23020000 		.4byte	.LVL88-1
 1202 051a 0100     		.2byte	0x1
 1203 051c 5C       		.byte	0x5c
 1204 051d 28020000 		.4byte	.LVL89
 1205 0521 38020000 		.4byte	.LVL92
 1206 0525 0100     		.2byte	0x1
 1207 0527 5C       		.byte	0x5c
 1208 0528 38020000 		.4byte	.LVL92
 1209 052c 3C020000 		.4byte	.LVL93
 1210 0530 0200     		.2byte	0x2
 1211 0532 30       		.byte	0x30
 1212 0533 9F       		.byte	0x9f
 1213 0534 3C020000 		.4byte	.LVL93
 1214 0538 5A020000 		.4byte	.LVL97
 1215 053c 0100     		.2byte	0x1
 1216 053e 5C       		.byte	0x5c
 1217 053f 5A020000 		.4byte	.LVL97
 1218 0543 5E020000 		.4byte	.LVL98
 1219 0547 0500     		.2byte	0x5
 1220 0549 77       		.byte	0x77
 1221 054a 00       		.sleb128 0
 1222 054b 31       		.byte	0x31
 1223 054c 24       		.byte	0x24
 1224 054d 9F       		.byte	0x9f
 1225 054e 5E020000 		.4byte	.LVL98
 1226 0552 86020000 		.4byte	.LVL109
 1227 0556 0100     		.2byte	0x1
 1228 0558 5C       		.byte	0x5c
 1229 0559 00000000 		.4byte	0x0
 1230 055d 00000000 		.4byte	0x0
 1231              	.LLST15:
 1232 0561 5E000000 		.4byte	.LVL26
 1233 0565 64000000 		.4byte	.LVL27
 1234 0569 0200     		.2byte	0x2
 1235 056b 30       		.byte	0x30
 1236 056c 9F       		.byte	0x9f
 1237 056d 64000000 		.4byte	.LVL27
 1238 0571 6C000000 		.4byte	.LVL30
 1239 0575 0100     		.2byte	0x1
 1240 0577 56       		.byte	0x56
 1241 0578 74000000 		.4byte	.LVL32
 1242 057c 62010000 		.4byte	.LVL57
 1243 0580 0100     		.2byte	0x1
 1244 0582 56       		.byte	0x56
 1245 0583 62010000 		.4byte	.LVL57
 1246 0587 66010000 		.4byte	.LVL58
 1247 058b 0100     		.2byte	0x1
 1248 058d 56       		.byte	0x56
ARM GAS  C:\Users\z80\AppData\Local\Temp\cck6btKT.s 			page 23


 1249 058e 66010000 		.4byte	.LVL58
 1250 0592 6E010000 		.4byte	.LVL59
 1251 0596 0100     		.2byte	0x1
 1252 0598 56       		.byte	0x56
 1253 0599 6E010000 		.4byte	.LVL59
 1254 059d 98010000 		.4byte	.LVL61
 1255 05a1 0100     		.2byte	0x1
 1256 05a3 56       		.byte	0x56
 1257 05a4 98010000 		.4byte	.LVL61
 1258 05a8 9A010000 		.4byte	.LVL62
 1259 05ac 0300     		.2byte	0x3
 1260 05ae 76       		.byte	0x76
 1261 05af 01       		.sleb128 1
 1262 05b0 9F       		.byte	0x9f
 1263 05b1 9A010000 		.4byte	.LVL62
 1264 05b5 CC010000 		.4byte	.LVL68
 1265 05b9 0100     		.2byte	0x1
 1266 05bb 56       		.byte	0x56
 1267 05bc CC010000 		.4byte	.LVL68
 1268 05c0 D0010000 		.4byte	.LVL69
 1269 05c4 0300     		.2byte	0x3
 1270 05c6 76       		.byte	0x76
 1271 05c7 7F       		.sleb128 -1
 1272 05c8 9F       		.byte	0x9f
 1273 05c9 D0010000 		.4byte	.LVL69
 1274 05cd 9C020000 		.4byte	.LFE8
 1275 05d1 0100     		.2byte	0x1
 1276 05d3 56       		.byte	0x56
 1277 05d4 00000000 		.4byte	0x0
 1278 05d8 00000000 		.4byte	0x0
 1279              	.LLST16:
 1280 05dc A8000000 		.4byte	.LVL36
 1281 05e0 B6000000 		.4byte	.LVL39
 1282 05e4 0200     		.2byte	0x2
 1283 05e6 31       		.byte	0x31
 1284 05e7 9F       		.byte	0x9f
 1285 05e8 B6000000 		.4byte	.LVL39
 1286 05ec 5A010000 		.4byte	.LVL55
 1287 05f0 0100     		.2byte	0x1
 1288 05f2 51       		.byte	0x51
 1289 05f3 D4010000 		.4byte	.LVL70
 1290 05f7 DC010000 		.4byte	.LVL72
 1291 05fb 0100     		.2byte	0x1
 1292 05fd 51       		.byte	0x51
 1293 05fe EA010000 		.4byte	.LVL75
 1294 0602 F6010000 		.4byte	.LVL77
 1295 0606 0100     		.2byte	0x1
 1296 0608 51       		.byte	0x51
 1297 0609 FA010000 		.4byte	.LVL79
 1298 060d 12020000 		.4byte	.LVL84
 1299 0611 0100     		.2byte	0x1
 1300 0613 51       		.byte	0x51
 1301 0614 36020000 		.4byte	.LVL91
 1302 0618 38020000 		.4byte	.LVL92
 1303 061c 0100     		.2byte	0x1
 1304 061e 51       		.byte	0x51
 1305 061f 64020000 		.4byte	.LVL100
ARM GAS  C:\Users\z80\AppData\Local\Temp\cck6btKT.s 			page 24


 1306 0623 68020000 		.4byte	.LVL102
 1307 0627 0200     		.2byte	0x2
 1308 0629 31       		.byte	0x31
 1309 062a 9F       		.byte	0x9f
 1310 062b 68020000 		.4byte	.LVL102
 1311 062f 6C020000 		.4byte	.LVL104
 1312 0633 0100     		.2byte	0x1
 1313 0635 51       		.byte	0x51
 1314 0636 00000000 		.4byte	0x0
 1315 063a 00000000 		.4byte	0x0
 1316              	.LLST17:
 1317 063e 3A000000 		.4byte	.LVL20
 1318 0642 40000000 		.4byte	.LVL21
 1319 0646 0200     		.2byte	0x2
 1320 0648 30       		.byte	0x30
 1321 0649 9F       		.byte	0x9f
 1322 064a 40000000 		.4byte	.LVL21
 1323 064e 4E000000 		.4byte	.LVL23
 1324 0652 0200     		.2byte	0x2
 1325 0654 31       		.byte	0x31
 1326 0655 9F       		.byte	0x9f
 1327 0656 4E000000 		.4byte	.LVL23
 1328 065a 9C020000 		.4byte	.LFE8
 1329 065e 0100     		.2byte	0x1
 1330 0660 59       		.byte	0x59
 1331 0661 00000000 		.4byte	0x0
 1332 0665 00000000 		.4byte	0x0
 1333              	.LLST18:
 1334 0669 E0010000 		.4byte	.LVL73
 1335 066d E5010000 		.4byte	.LVL74-1
 1336 0671 0100     		.2byte	0x1
 1337 0673 51       		.byte	0x51
 1338 0674 F8010000 		.4byte	.LVL78
 1339 0678 FA010000 		.4byte	.LVL79
 1340 067c 0400     		.2byte	0x4
 1341 067e 91       		.byte	0x91
 1342 067f B47F     		.sleb128 -76
 1343 0681 06       		.byte	0x6
 1344 0682 18020000 		.4byte	.LVL86
 1345 0686 1E020000 		.4byte	.LVL87
 1346 068a 0400     		.2byte	0x4
 1347 068c 91       		.byte	0x91
 1348 068d B47F     		.sleb128 -76
 1349 068f 06       		.byte	0x6
 1350 0690 1E020000 		.4byte	.LVL87
 1351 0694 23020000 		.4byte	.LVL88-1
 1352 0698 0100     		.2byte	0x1
 1353 069a 51       		.byte	0x51
 1354 069b 6C020000 		.4byte	.LVL104
 1355 069f 78020000 		.4byte	.LVL106
 1356 06a3 0400     		.2byte	0x4
 1357 06a5 91       		.byte	0x91
 1358 06a6 B47F     		.sleb128 -76
 1359 06a8 06       		.byte	0x6
 1360 06a9 78020000 		.4byte	.LVL106
 1361 06ad 80020000 		.4byte	.LVL108
 1362 06b1 0100     		.2byte	0x1
ARM GAS  C:\Users\z80\AppData\Local\Temp\cck6btKT.s 			page 25


 1363 06b3 51       		.byte	0x51
 1364 06b4 80020000 		.4byte	.LVL108
 1365 06b8 86020000 		.4byte	.LVL109
 1366 06bc 0100     		.2byte	0x1
 1367 06be 51       		.byte	0x51
 1368 06bf 00000000 		.4byte	0x0
 1369 06c3 00000000 		.4byte	0x0
 1370              		.file 2 "c:\\programs\\yagarto\\bin\\../lib/gcc/arm-none-eabi/4.5.0/include/stdarg.h"
 1371              		.file 3 "c:\\programs\\yagarto\\bin\\../lib/gcc/arm-none-eabi/4.5.0/include/stddef.h"
 1372              		.file 4 "c:/programs/yagarto/lib/gcc/../../arm-none-eabi/sys-include/stdint.h"
 1373              		.file 5 "../chibios_2.4.x/os/ports/GCC/ARMCMx/chtypes.h"
 1374              		.file 6 "../chibios_2.4.x/os/kernel/include/chioch.h"
 1375              		.section	.debug_info
 1376 0000 F9030000 		.4byte	0x3f9
 1377 0004 0200     		.2byte	0x2
 1378 0006 00000000 		.4byte	.Ldebug_abbrev0
 1379 000a 04       		.byte	0x4
 1380 000b 01       		.uleb128 0x1
 1381 000c 07000000 		.4byte	.LASF33
 1382 0010 01       		.byte	0x1
 1383 0011 DC000000 		.4byte	.LASF34
 1384 0015 7E010000 		.4byte	.LASF35
 1385 0019 00000000 		.4byte	0x0
 1386 001d 00000000 		.4byte	0x0
 1387 0021 00000000 		.4byte	.Ldebug_ranges0+0x0
 1388 0025 00000000 		.4byte	.Ldebug_line0
 1389 0029 02       		.uleb128 0x2
 1390 002a 9D000000 		.4byte	.LASF0
 1391 002e 02       		.byte	0x2
 1392 002f 28       		.byte	0x28
 1393 0030 34000000 		.4byte	0x34
 1394 0034 03       		.uleb128 0x3
 1395 0035 3A010000 		.4byte	.LASF36
 1396 0039 04       		.byte	0x4
 1397 003a 4C000000 		.4byte	0x4c
 1398 003e 04       		.uleb128 0x4
 1399 003f 03010000 		.4byte	.LASF37
 1400 0043 4C000000 		.4byte	0x4c
 1401 0047 02       		.byte	0x2
 1402 0048 23       		.byte	0x23
 1403 0049 00       		.uleb128 0x0
 1404 004a 01       		.byte	0x1
 1405 004b 00       		.byte	0x0
 1406 004c 05       		.uleb128 0x5
 1407 004d 04       		.byte	0x4
 1408 004e 02       		.uleb128 0x2
 1409 004f 39000000 		.4byte	.LASF1
 1410 0053 02       		.byte	0x2
 1411 0054 66       		.byte	0x66
 1412 0055 29000000 		.4byte	0x29
 1413 0059 06       		.uleb128 0x6
 1414 005a 04       		.byte	0x4
 1415 005b 05       		.byte	0x5
 1416 005c 696E7400 		.ascii	"int\000"
 1417 0060 02       		.uleb128 0x2
 1418 0061 00000000 		.4byte	.LASF2
 1419 0065 03       		.byte	0x3
ARM GAS  C:\Users\z80\AppData\Local\Temp\cck6btKT.s 			page 26


 1420 0066 D3       		.byte	0xd3
 1421 0067 6B000000 		.4byte	0x6b
 1422 006b 07       		.uleb128 0x7
 1423 006c 04       		.byte	0x4
 1424 006d 07       		.byte	0x7
 1425 006e B8000000 		.4byte	.LASF3
 1426 0072 07       		.uleb128 0x7
 1427 0073 01       		.byte	0x1
 1428 0074 06       		.byte	0x6
 1429 0075 CB010000 		.4byte	.LASF4
 1430 0079 02       		.uleb128 0x2
 1431 007a 76010000 		.4byte	.LASF5
 1432 007e 04       		.byte	0x4
 1433 007f 2A       		.byte	0x2a
 1434 0080 84000000 		.4byte	0x84
 1435 0084 07       		.uleb128 0x7
 1436 0085 01       		.byte	0x1
 1437 0086 08       		.byte	0x8
 1438 0087 41000000 		.4byte	.LASF6
 1439 008b 07       		.uleb128 0x7
 1440 008c 02       		.byte	0x2
 1441 008d 05       		.byte	0x5
 1442 008e 6C010000 		.4byte	.LASF7
 1443 0092 07       		.uleb128 0x7
 1444 0093 02       		.byte	0x2
 1445 0094 07       		.byte	0x7
 1446 0095 67000000 		.4byte	.LASF8
 1447 0099 02       		.uleb128 0x2
 1448 009a 2B010000 		.4byte	.LASF9
 1449 009e 04       		.byte	0x4
 1450 009f 4F       		.byte	0x4f
 1451 00a0 A4000000 		.4byte	0xa4
 1452 00a4 07       		.uleb128 0x7
 1453 00a5 04       		.byte	0x4
 1454 00a6 05       		.byte	0x5
 1455 00a7 C2010000 		.4byte	.LASF10
 1456 00ab 02       		.uleb128 0x2
 1457 00ac B9010000 		.4byte	.LASF11
 1458 00b0 04       		.byte	0x4
 1459 00b1 50       		.byte	0x50
 1460 00b2 B6000000 		.4byte	0xb6
 1461 00b6 07       		.uleb128 0x7
 1462 00b7 04       		.byte	0x4
 1463 00b8 07       		.byte	0x7
 1464 00b9 55000000 		.4byte	.LASF12
 1465 00bd 07       		.uleb128 0x7
 1466 00be 08       		.byte	0x8
 1467 00bf 05       		.byte	0x5
 1468 00c0 44010000 		.4byte	.LASF13
 1469 00c4 07       		.uleb128 0x7
 1470 00c5 08       		.byte	0x8
 1471 00c6 07       		.byte	0x7
 1472 00c7 C5000000 		.4byte	.LASF14
 1473 00cb 02       		.uleb128 0x2
 1474 00cc 2B000000 		.4byte	.LASF15
 1475 00d0 05       		.byte	0x5
 1476 00d1 2E       		.byte	0x2e
ARM GAS  C:\Users\z80\AppData\Local\Temp\cck6btKT.s 			page 27


 1477 00d2 99000000 		.4byte	0x99
 1478 00d6 02       		.uleb128 0x2
 1479 00d7 16010000 		.4byte	.LASF16
 1480 00db 05       		.byte	0x5
 1481 00dc 33       		.byte	0x33
 1482 00dd 99000000 		.4byte	0x99
 1483 00e1 02       		.uleb128 0x2
 1484 00e2 13000000 		.4byte	.LASF17
 1485 00e6 05       		.byte	0x5
 1486 00e7 36       		.byte	0x36
 1487 00e8 AB000000 		.4byte	0xab
 1488 00ec 08       		.uleb128 0x8
 1489 00ed 04       		.byte	0x4
 1490 00ee 07       		.byte	0x7
 1491 00ef 09       		.uleb128 0x9
 1492 00f0 04       		.byte	0x4
 1493 00f1 F5000000 		.4byte	0xf5
 1494 00f5 0A       		.uleb128 0xa
 1495 00f6 FA000000 		.4byte	0xfa
 1496 00fa 07       		.uleb128 0x7
 1497 00fb 01       		.byte	0x1
 1498 00fc 08       		.byte	0x8
 1499 00fd 5C010000 		.4byte	.LASF18
 1500 0101 09       		.uleb128 0x9
 1501 0102 04       		.byte	0x4
 1502 0103 79000000 		.4byte	0x79
 1503 0107 0B       		.uleb128 0xb
 1504 0108 01       		.byte	0x1
 1505 0109 60000000 		.4byte	0x60
 1506 010d 21010000 		.4byte	0x121
 1507 0111 0C       		.uleb128 0xc
 1508 0112 4C000000 		.4byte	0x4c
 1509 0116 0C       		.uleb128 0xc
 1510 0117 21010000 		.4byte	0x121
 1511 011b 0C       		.uleb128 0xc
 1512 011c 60000000 		.4byte	0x60
 1513 0120 00       		.byte	0x0
 1514 0121 09       		.uleb128 0x9
 1515 0122 04       		.byte	0x4
 1516 0123 27010000 		.4byte	0x127
 1517 0127 0A       		.uleb128 0xa
 1518 0128 79000000 		.4byte	0x79
 1519 012c 09       		.uleb128 0x9
 1520 012d 04       		.byte	0x4
 1521 012e 07010000 		.4byte	0x107
 1522 0132 0B       		.uleb128 0xb
 1523 0133 01       		.byte	0x1
 1524 0134 60000000 		.4byte	0x60
 1525 0138 4C010000 		.4byte	0x14c
 1526 013c 0C       		.uleb128 0xc
 1527 013d 4C000000 		.4byte	0x4c
 1528 0141 0C       		.uleb128 0xc
 1529 0142 01010000 		.4byte	0x101
 1530 0146 0C       		.uleb128 0xc
 1531 0147 60000000 		.4byte	0x60
 1532 014b 00       		.byte	0x0
 1533 014c 09       		.uleb128 0x9
ARM GAS  C:\Users\z80\AppData\Local\Temp\cck6btKT.s 			page 28


 1534 014d 04       		.byte	0x4
 1535 014e 32010000 		.4byte	0x132
 1536 0152 0D       		.uleb128 0xd
 1537 0153 1C010000 		.4byte	.LASF38
 1538 0157 20       		.byte	0x20
 1539 0158 06       		.byte	0x6
 1540 0159 51       		.byte	0x51
 1541 015a CF010000 		.4byte	0x1cf
 1542 015e 0E       		.uleb128 0xe
 1543 015f 7A000000 		.4byte	.LASF19
 1544 0163 06       		.byte	0x6
 1545 0164 52       		.byte	0x52
 1546 0165 2C010000 		.4byte	0x12c
 1547 0169 02       		.byte	0x2
 1548 016a 23       		.byte	0x23
 1549 016b 00       		.uleb128 0x0
 1550 016c 0E       		.uleb128 0xe
 1551 016d AC000000 		.4byte	.LASF20
 1552 0171 06       		.byte	0x6
 1553 0172 52       		.byte	0x52
 1554 0173 4C010000 		.4byte	0x14c
 1555 0177 02       		.byte	0x2
 1556 0178 23       		.byte	0x23
 1557 0179 04       		.uleb128 0x4
 1558 017a 0E       		.uleb128 0xe
 1559 017b 8F000000 		.4byte	.LASF21
 1560 017f 06       		.byte	0x6
 1561 0180 52       		.byte	0x52
 1562 0181 DF010000 		.4byte	0x1df
 1563 0185 02       		.byte	0x2
 1564 0186 23       		.byte	0x23
 1565 0187 08       		.uleb128 0x8
 1566 0188 0E       		.uleb128 0xe
 1567 0189 08010000 		.4byte	.LASF22
 1568 018d 06       		.byte	0x6
 1569 018e 52       		.byte	0x52
 1570 018f DF010000 		.4byte	0x1df
 1571 0193 02       		.byte	0x2
 1572 0194 23       		.byte	0x23
 1573 0195 0C       		.uleb128 0xc
 1574 0196 0F       		.uleb128 0xf
 1575 0197 70757400 		.ascii	"put\000"
 1576 019b 06       		.byte	0x6
 1577 019c 52       		.byte	0x52
 1578 019d FF010000 		.4byte	0x1ff
 1579 01a1 02       		.byte	0x2
 1580 01a2 23       		.byte	0x23
 1581 01a3 10       		.uleb128 0x10
 1582 01a4 0F       		.uleb128 0xf
 1583 01a5 67657400 		.ascii	"get\000"
 1584 01a9 06       		.byte	0x6
 1585 01aa 52       		.byte	0x52
 1586 01ab 1A020000 		.4byte	0x21a
 1587 01af 02       		.byte	0x2
 1588 01b0 23       		.byte	0x23
 1589 01b1 14       		.uleb128 0x14
 1590 01b2 0E       		.uleb128 0xe
ARM GAS  C:\Users\z80\AppData\Local\Temp\cck6btKT.s 			page 29


 1591 01b3 32000000 		.4byte	.LASF23
 1592 01b7 06       		.byte	0x6
 1593 01b8 52       		.byte	0x52
 1594 01b9 3F020000 		.4byte	0x23f
 1595 01bd 02       		.byte	0x2
 1596 01be 23       		.byte	0x23
 1597 01bf 18       		.uleb128 0x18
 1598 01c0 0E       		.uleb128 0xe
 1599 01c1 4F000000 		.4byte	.LASF24
 1600 01c5 06       		.byte	0x6
 1601 01c6 52       		.byte	0x52
 1602 01c7 64020000 		.4byte	0x264
 1603 01cb 02       		.byte	0x2
 1604 01cc 23       		.byte	0x23
 1605 01cd 1C       		.uleb128 0x1c
 1606 01ce 00       		.byte	0x0
 1607 01cf 0B       		.uleb128 0xb
 1608 01d0 01       		.byte	0x1
 1609 01d1 CB000000 		.4byte	0xcb
 1610 01d5 DF010000 		.4byte	0x1df
 1611 01d9 0C       		.uleb128 0xc
 1612 01da 4C000000 		.4byte	0x4c
 1613 01de 00       		.byte	0x0
 1614 01df 09       		.uleb128 0x9
 1615 01e0 04       		.byte	0x4
 1616 01e1 CF010000 		.4byte	0x1cf
 1617 01e5 0B       		.uleb128 0xb
 1618 01e6 01       		.byte	0x1
 1619 01e7 D6000000 		.4byte	0xd6
 1620 01eb FF010000 		.4byte	0x1ff
 1621 01ef 0C       		.uleb128 0xc
 1622 01f0 4C000000 		.4byte	0x4c
 1623 01f4 0C       		.uleb128 0xc
 1624 01f5 79000000 		.4byte	0x79
 1625 01f9 0C       		.uleb128 0xc
 1626 01fa E1000000 		.4byte	0xe1
 1627 01fe 00       		.byte	0x0
 1628 01ff 09       		.uleb128 0x9
 1629 0200 04       		.byte	0x4
 1630 0201 E5010000 		.4byte	0x1e5
 1631 0205 0B       		.uleb128 0xb
 1632 0206 01       		.byte	0x1
 1633 0207 D6000000 		.4byte	0xd6
 1634 020b 1A020000 		.4byte	0x21a
 1635 020f 0C       		.uleb128 0xc
 1636 0210 4C000000 		.4byte	0x4c
 1637 0214 0C       		.uleb128 0xc
 1638 0215 E1000000 		.4byte	0xe1
 1639 0219 00       		.byte	0x0
 1640 021a 09       		.uleb128 0x9
 1641 021b 04       		.byte	0x4
 1642 021c 05020000 		.4byte	0x205
 1643 0220 0B       		.uleb128 0xb
 1644 0221 01       		.byte	0x1
 1645 0222 60000000 		.4byte	0x60
 1646 0226 3F020000 		.4byte	0x23f
 1647 022a 0C       		.uleb128 0xc
ARM GAS  C:\Users\z80\AppData\Local\Temp\cck6btKT.s 			page 30


 1648 022b 4C000000 		.4byte	0x4c
 1649 022f 0C       		.uleb128 0xc
 1650 0230 21010000 		.4byte	0x121
 1651 0234 0C       		.uleb128 0xc
 1652 0235 60000000 		.4byte	0x60
 1653 0239 0C       		.uleb128 0xc
 1654 023a E1000000 		.4byte	0xe1
 1655 023e 00       		.byte	0x0
 1656 023f 09       		.uleb128 0x9
 1657 0240 04       		.byte	0x4
 1658 0241 20020000 		.4byte	0x220
 1659 0245 0B       		.uleb128 0xb
 1660 0246 01       		.byte	0x1
 1661 0247 60000000 		.4byte	0x60
 1662 024b 64020000 		.4byte	0x264
 1663 024f 0C       		.uleb128 0xc
 1664 0250 4C000000 		.4byte	0x4c
 1665 0254 0C       		.uleb128 0xc
 1666 0255 01010000 		.4byte	0x101
 1667 0259 0C       		.uleb128 0xc
 1668 025a 60000000 		.4byte	0x60
 1669 025e 0C       		.uleb128 0xc
 1670 025f E1000000 		.4byte	0xe1
 1671 0263 00       		.byte	0x0
 1672 0264 09       		.uleb128 0x9
 1673 0265 04       		.byte	0x4
 1674 0266 45020000 		.4byte	0x245
 1675 026a 10       		.uleb128 0x10
 1676 026b 04       		.byte	0x4
 1677 026c 06       		.byte	0x6
 1678 026d 5C       		.byte	0x5c
 1679 026e 81020000 		.4byte	0x281
 1680 0272 0F       		.uleb128 0xf
 1681 0273 766D7400 		.ascii	"vmt\000"
 1682 0277 06       		.byte	0x6
 1683 0278 5E       		.byte	0x5e
 1684 0279 81020000 		.4byte	0x281
 1685 027d 02       		.byte	0x2
 1686 027e 23       		.byte	0x23
 1687 027f 00       		.uleb128 0x0
 1688 0280 00       		.byte	0x0
 1689 0281 09       		.uleb128 0x9
 1690 0282 04       		.byte	0x4
 1691 0283 87020000 		.4byte	0x287
 1692 0287 0A       		.uleb128 0xa
 1693 0288 52010000 		.4byte	0x152
 1694 028c 02       		.uleb128 0x2
 1695 028d DC010000 		.4byte	.LASF25
 1696 0291 06       		.byte	0x6
 1697 0292 60       		.byte	0x60
 1698 0293 6A020000 		.4byte	0x26a
 1699 0297 11       		.uleb128 0x11
 1700 0298 D7010000 		.4byte	.LASF39
 1701 029c 01       		.byte	0x1
 1702 029d 2A       		.byte	0x2a
 1703 029e 01       		.byte	0x1
 1704 029f F9020000 		.4byte	0x2f9
ARM GAS  C:\Users\z80\AppData\Local\Temp\cck6btKT.s 			page 31


 1705 02a3 00000000 		.4byte	.LFB7
 1706 02a7 4A000000 		.4byte	.LFE7
 1707 02ab 00000000 		.4byte	.LLST0
 1708 02af F9020000 		.4byte	0x2f9
 1709 02b3 12       		.uleb128 0x12
 1710 02b4 7000     		.ascii	"p\000"
 1711 02b6 01       		.byte	0x1
 1712 02b7 2A       		.byte	0x2a
 1713 02b8 F9020000 		.4byte	0x2f9
 1714 02bc 20000000 		.4byte	.LLST1
 1715 02c0 12       		.uleb128 0x12
 1716 02c1 6E756D00 		.ascii	"num\000"
 1717 02c5 01       		.byte	0x1
 1718 02c6 2A       		.byte	0x2a
 1719 02c7 A4000000 		.4byte	0xa4
 1720 02cb 33000000 		.4byte	.LLST2
 1721 02cf 13       		.uleb128 0x13
 1722 02d0 25000000 		.4byte	.LASF26
 1723 02d4 01       		.byte	0x1
 1724 02d5 2A       		.byte	0x2a
 1725 02d6 6B000000 		.4byte	0x6b
 1726 02da 51000000 		.4byte	.LLST3
 1727 02de 14       		.uleb128 0x14
 1728 02df 6900     		.ascii	"i\000"
 1729 02e1 01       		.byte	0x1
 1730 02e2 2B       		.byte	0x2b
 1731 02e3 59000000 		.4byte	0x59
 1732 02e7 64000000 		.4byte	.LLST4
 1733 02eb 14       		.uleb128 0x14
 1734 02ec 7100     		.ascii	"q\000"
 1735 02ee 01       		.byte	0x1
 1736 02ef 2C       		.byte	0x2c
 1737 02f0 F9020000 		.4byte	0x2f9
 1738 02f4 9D000000 		.4byte	.LLST5
 1739 02f8 00       		.byte	0x0
 1740 02f9 09       		.uleb128 0x9
 1741 02fa 04       		.byte	0x4
 1742 02fb FA000000 		.4byte	0xfa
 1743 02ff 15       		.uleb128 0x15
 1744 0300 01       		.byte	0x1
 1745 0301 86000000 		.4byte	.LASF40
 1746 0305 01       		.byte	0x1
 1747 0306 56       		.byte	0x56
 1748 0307 01       		.byte	0x1
 1749 0308 00000000 		.4byte	.LFB8
 1750 030c 9C020000 		.4byte	.LFE8
 1751 0310 C6000000 		.4byte	.LLST6
 1752 0314 EA030000 		.4byte	0x3ea
 1753 0318 12       		.uleb128 0x12
 1754 0319 63687000 		.ascii	"chp\000"
 1755 031d 01       		.byte	0x1
 1756 031e 56       		.byte	0x56
 1757 031f EA030000 		.4byte	0x3ea
 1758 0323 FF000000 		.4byte	.LLST7
 1759 0327 12       		.uleb128 0x12
 1760 0328 666D7400 		.ascii	"fmt\000"
 1761 032c 01       		.byte	0x1
ARM GAS  C:\Users\z80\AppData\Local\Temp\cck6btKT.s 			page 32


 1762 032d 56       		.byte	0x56
 1763 032e EF000000 		.4byte	0xef
 1764 0332 1D010000 		.4byte	.LLST8
 1765 0336 16       		.uleb128 0x16
 1766 0337 17       		.uleb128 0x17
 1767 0338 617000   		.ascii	"ap\000"
 1768 033b 01       		.byte	0x1
 1769 033c 57       		.byte	0x57
 1770 033d 4E000000 		.4byte	0x4e
 1771 0341 02       		.byte	0x2
 1772 0342 91       		.byte	0x91
 1773 0343 4C       		.sleb128 -52
 1774 0344 18       		.uleb128 0x18
 1775 0345 33010000 		.4byte	.LASF27
 1776 0349 01       		.byte	0x1
 1777 034a 58       		.byte	0x58
 1778 034b F0030000 		.4byte	0x3f0
 1779 034f 02       		.byte	0x2
 1780 0350 91       		.byte	0x91
 1781 0351 40       		.sleb128 -64
 1782 0352 14       		.uleb128 0x14
 1783 0353 7000     		.ascii	"p\000"
 1784 0355 01       		.byte	0x1
 1785 0356 59       		.byte	0x59
 1786 0357 F9020000 		.4byte	0x2f9
 1787 035b F0010000 		.4byte	.LLST9
 1788 035f 14       		.uleb128 0x14
 1789 0360 7300     		.ascii	"s\000"
 1790 0362 01       		.byte	0x1
 1791 0363 59       		.byte	0x59
 1792 0364 F9020000 		.4byte	0x2f9
 1793 0368 C4020000 		.4byte	.LLST10
 1794 036c 14       		.uleb128 0x14
 1795 036d 6300     		.ascii	"c\000"
 1796 036f 01       		.byte	0x1
 1797 0370 59       		.byte	0x59
 1798 0371 FA000000 		.4byte	0xfa
 1799 0375 32030000 		.4byte	.LLST11
 1800 0379 19       		.uleb128 0x19
 1801 037a B1000000 		.4byte	.LASF28
 1802 037e 01       		.byte	0x1
 1803 037f 59       		.byte	0x59
 1804 0380 FA000000 		.4byte	0xfa
 1805 0384 17040000 		.4byte	.LLST12
 1806 0388 14       		.uleb128 0x14
 1807 0389 6900     		.ascii	"i\000"
 1808 038b 01       		.byte	0x1
 1809 038c 5A       		.byte	0x5a
 1810 038d 59000000 		.4byte	0x59
 1811 0391 69040000 		.4byte	.LLST13
 1812 0395 19       		.uleb128 0x19
 1813 0396 52010000 		.4byte	.LASF29
 1814 039a 01       		.byte	0x1
 1815 039b 5A       		.byte	0x5a
 1816 039c 59000000 		.4byte	0x59
 1817 03a0 C2040000 		.4byte	.LLST14
 1818 03a4 19       		.uleb128 0x19
ARM GAS  C:\Users\z80\AppData\Local\Temp\cck6btKT.s 			page 33


 1819 03a5 80000000 		.4byte	.LASF30
 1820 03a9 01       		.byte	0x1
 1821 03aa 5A       		.byte	0x5a
 1822 03ab 59000000 		.4byte	0x59
 1823 03af 61050000 		.4byte	.LLST15
 1824 03b3 19       		.uleb128 0x19
 1825 03b4 1D000000 		.4byte	.LASF31
 1826 03b8 01       		.byte	0x1
 1827 03b9 5B       		.byte	0x5b
 1828 03ba CB000000 		.4byte	0xcb
 1829 03be DC050000 		.4byte	.LLST16
 1830 03c2 19       		.uleb128 0x19
 1831 03c3 61010000 		.4byte	.LASF32
 1832 03c7 01       		.byte	0x1
 1833 03c8 5B       		.byte	0x5b
 1834 03c9 CB000000 		.4byte	0xcb
 1835 03cd 3E060000 		.4byte	.LLST17
 1836 03d1 14       		.uleb128 0x14
 1837 03d2 6C00     		.ascii	"l\000"
 1838 03d4 01       		.byte	0x1
 1839 03d5 5C       		.byte	0x5c
 1840 03d6 A4000000 		.4byte	0xa4
 1841 03da 69060000 		.4byte	.LLST18
 1842 03de 1A       		.uleb128 0x1a
 1843 03df A9010000 		.4byte	.LASF41
 1844 03e3 01       		.byte	0x1
 1845 03e4 BD       		.byte	0xbd
 1846 03e5 D6010000 		.4byte	.L28
 1847 03e9 00       		.byte	0x0
 1848 03ea 09       		.uleb128 0x9
 1849 03eb 04       		.byte	0x4
 1850 03ec 8C020000 		.4byte	0x28c
 1851 03f0 1B       		.uleb128 0x1b
 1852 03f1 FA000000 		.4byte	0xfa
 1853 03f5 1C       		.uleb128 0x1c
 1854 03f6 EC000000 		.4byte	0xec
 1855 03fa 0B       		.byte	0xb
 1856 03fb 00       		.byte	0x0
 1857 03fc 00       		.byte	0x0
 1858              		.section	.debug_abbrev
 1859 0000 01       		.uleb128 0x1
 1860 0001 11       		.uleb128 0x11
 1861 0002 01       		.byte	0x1
 1862 0003 25       		.uleb128 0x25
 1863 0004 0E       		.uleb128 0xe
 1864 0005 13       		.uleb128 0x13
 1865 0006 0B       		.uleb128 0xb
 1866 0007 03       		.uleb128 0x3
 1867 0008 0E       		.uleb128 0xe
 1868 0009 1B       		.uleb128 0x1b
 1869 000a 0E       		.uleb128 0xe
 1870 000b 11       		.uleb128 0x11
 1871 000c 01       		.uleb128 0x1
 1872 000d 52       		.uleb128 0x52
 1873 000e 01       		.uleb128 0x1
 1874 000f 55       		.uleb128 0x55
 1875 0010 06       		.uleb128 0x6
ARM GAS  C:\Users\z80\AppData\Local\Temp\cck6btKT.s 			page 34


 1876 0011 10       		.uleb128 0x10
 1877 0012 06       		.uleb128 0x6
 1878 0013 00       		.byte	0x0
 1879 0014 00       		.byte	0x0
 1880 0015 02       		.uleb128 0x2
 1881 0016 16       		.uleb128 0x16
 1882 0017 00       		.byte	0x0
 1883 0018 03       		.uleb128 0x3
 1884 0019 0E       		.uleb128 0xe
 1885 001a 3A       		.uleb128 0x3a
 1886 001b 0B       		.uleb128 0xb
 1887 001c 3B       		.uleb128 0x3b
 1888 001d 0B       		.uleb128 0xb
 1889 001e 49       		.uleb128 0x49
 1890 001f 13       		.uleb128 0x13
 1891 0020 00       		.byte	0x0
 1892 0021 00       		.byte	0x0
 1893 0022 03       		.uleb128 0x3
 1894 0023 13       		.uleb128 0x13
 1895 0024 01       		.byte	0x1
 1896 0025 03       		.uleb128 0x3
 1897 0026 0E       		.uleb128 0xe
 1898 0027 0B       		.uleb128 0xb
 1899 0028 0B       		.uleb128 0xb
 1900 0029 01       		.uleb128 0x1
 1901 002a 13       		.uleb128 0x13
 1902 002b 00       		.byte	0x0
 1903 002c 00       		.byte	0x0
 1904 002d 04       		.uleb128 0x4
 1905 002e 0D       		.uleb128 0xd
 1906 002f 00       		.byte	0x0
 1907 0030 03       		.uleb128 0x3
 1908 0031 0E       		.uleb128 0xe
 1909 0032 49       		.uleb128 0x49
 1910 0033 13       		.uleb128 0x13
 1911 0034 38       		.uleb128 0x38
 1912 0035 0A       		.uleb128 0xa
 1913 0036 34       		.uleb128 0x34
 1914 0037 0C       		.uleb128 0xc
 1915 0038 00       		.byte	0x0
 1916 0039 00       		.byte	0x0
 1917 003a 05       		.uleb128 0x5
 1918 003b 0F       		.uleb128 0xf
 1919 003c 00       		.byte	0x0
 1920 003d 0B       		.uleb128 0xb
 1921 003e 0B       		.uleb128 0xb
 1922 003f 00       		.byte	0x0
 1923 0040 00       		.byte	0x0
 1924 0041 06       		.uleb128 0x6
 1925 0042 24       		.uleb128 0x24
 1926 0043 00       		.byte	0x0
 1927 0044 0B       		.uleb128 0xb
 1928 0045 0B       		.uleb128 0xb
 1929 0046 3E       		.uleb128 0x3e
 1930 0047 0B       		.uleb128 0xb
 1931 0048 03       		.uleb128 0x3
 1932 0049 08       		.uleb128 0x8
ARM GAS  C:\Users\z80\AppData\Local\Temp\cck6btKT.s 			page 35


 1933 004a 00       		.byte	0x0
 1934 004b 00       		.byte	0x0
 1935 004c 07       		.uleb128 0x7
 1936 004d 24       		.uleb128 0x24
 1937 004e 00       		.byte	0x0
 1938 004f 0B       		.uleb128 0xb
 1939 0050 0B       		.uleb128 0xb
 1940 0051 3E       		.uleb128 0x3e
 1941 0052 0B       		.uleb128 0xb
 1942 0053 03       		.uleb128 0x3
 1943 0054 0E       		.uleb128 0xe
 1944 0055 00       		.byte	0x0
 1945 0056 00       		.byte	0x0
 1946 0057 08       		.uleb128 0x8
 1947 0058 24       		.uleb128 0x24
 1948 0059 00       		.byte	0x0
 1949 005a 0B       		.uleb128 0xb
 1950 005b 0B       		.uleb128 0xb
 1951 005c 3E       		.uleb128 0x3e
 1952 005d 0B       		.uleb128 0xb
 1953 005e 00       		.byte	0x0
 1954 005f 00       		.byte	0x0
 1955 0060 09       		.uleb128 0x9
 1956 0061 0F       		.uleb128 0xf
 1957 0062 00       		.byte	0x0
 1958 0063 0B       		.uleb128 0xb
 1959 0064 0B       		.uleb128 0xb
 1960 0065 49       		.uleb128 0x49
 1961 0066 13       		.uleb128 0x13
 1962 0067 00       		.byte	0x0
 1963 0068 00       		.byte	0x0
 1964 0069 0A       		.uleb128 0xa
 1965 006a 26       		.uleb128 0x26
 1966 006b 00       		.byte	0x0
 1967 006c 49       		.uleb128 0x49
 1968 006d 13       		.uleb128 0x13
 1969 006e 00       		.byte	0x0
 1970 006f 00       		.byte	0x0
 1971 0070 0B       		.uleb128 0xb
 1972 0071 15       		.uleb128 0x15
 1973 0072 01       		.byte	0x1
 1974 0073 27       		.uleb128 0x27
 1975 0074 0C       		.uleb128 0xc
 1976 0075 49       		.uleb128 0x49
 1977 0076 13       		.uleb128 0x13
 1978 0077 01       		.uleb128 0x1
 1979 0078 13       		.uleb128 0x13
 1980 0079 00       		.byte	0x0
 1981 007a 00       		.byte	0x0
 1982 007b 0C       		.uleb128 0xc
 1983 007c 05       		.uleb128 0x5
 1984 007d 00       		.byte	0x0
 1985 007e 49       		.uleb128 0x49
 1986 007f 13       		.uleb128 0x13
 1987 0080 00       		.byte	0x0
 1988 0081 00       		.byte	0x0
 1989 0082 0D       		.uleb128 0xd
ARM GAS  C:\Users\z80\AppData\Local\Temp\cck6btKT.s 			page 36


 1990 0083 13       		.uleb128 0x13
 1991 0084 01       		.byte	0x1
 1992 0085 03       		.uleb128 0x3
 1993 0086 0E       		.uleb128 0xe
 1994 0087 0B       		.uleb128 0xb
 1995 0088 0B       		.uleb128 0xb
 1996 0089 3A       		.uleb128 0x3a
 1997 008a 0B       		.uleb128 0xb
 1998 008b 3B       		.uleb128 0x3b
 1999 008c 0B       		.uleb128 0xb
 2000 008d 01       		.uleb128 0x1
 2001 008e 13       		.uleb128 0x13
 2002 008f 00       		.byte	0x0
 2003 0090 00       		.byte	0x0
 2004 0091 0E       		.uleb128 0xe
 2005 0092 0D       		.uleb128 0xd
 2006 0093 00       		.byte	0x0
 2007 0094 03       		.uleb128 0x3
 2008 0095 0E       		.uleb128 0xe
 2009 0096 3A       		.uleb128 0x3a
 2010 0097 0B       		.uleb128 0xb
 2011 0098 3B       		.uleb128 0x3b
 2012 0099 0B       		.uleb128 0xb
 2013 009a 49       		.uleb128 0x49
 2014 009b 13       		.uleb128 0x13
 2015 009c 38       		.uleb128 0x38
 2016 009d 0A       		.uleb128 0xa
 2017 009e 00       		.byte	0x0
 2018 009f 00       		.byte	0x0
 2019 00a0 0F       		.uleb128 0xf
 2020 00a1 0D       		.uleb128 0xd
 2021 00a2 00       		.byte	0x0
 2022 00a3 03       		.uleb128 0x3
 2023 00a4 08       		.uleb128 0x8
 2024 00a5 3A       		.uleb128 0x3a
 2025 00a6 0B       		.uleb128 0xb
 2026 00a7 3B       		.uleb128 0x3b
 2027 00a8 0B       		.uleb128 0xb
 2028 00a9 49       		.uleb128 0x49
 2029 00aa 13       		.uleb128 0x13
 2030 00ab 38       		.uleb128 0x38
 2031 00ac 0A       		.uleb128 0xa
 2032 00ad 00       		.byte	0x0
 2033 00ae 00       		.byte	0x0
 2034 00af 10       		.uleb128 0x10
 2035 00b0 13       		.uleb128 0x13
 2036 00b1 01       		.byte	0x1
 2037 00b2 0B       		.uleb128 0xb
 2038 00b3 0B       		.uleb128 0xb
 2039 00b4 3A       		.uleb128 0x3a
 2040 00b5 0B       		.uleb128 0xb
 2041 00b6 3B       		.uleb128 0x3b
 2042 00b7 0B       		.uleb128 0xb
 2043 00b8 01       		.uleb128 0x1
 2044 00b9 13       		.uleb128 0x13
 2045 00ba 00       		.byte	0x0
 2046 00bb 00       		.byte	0x0
ARM GAS  C:\Users\z80\AppData\Local\Temp\cck6btKT.s 			page 37


 2047 00bc 11       		.uleb128 0x11
 2048 00bd 2E       		.uleb128 0x2e
 2049 00be 01       		.byte	0x1
 2050 00bf 03       		.uleb128 0x3
 2051 00c0 0E       		.uleb128 0xe
 2052 00c1 3A       		.uleb128 0x3a
 2053 00c2 0B       		.uleb128 0xb
 2054 00c3 3B       		.uleb128 0x3b
 2055 00c4 0B       		.uleb128 0xb
 2056 00c5 27       		.uleb128 0x27
 2057 00c6 0C       		.uleb128 0xc
 2058 00c7 49       		.uleb128 0x49
 2059 00c8 13       		.uleb128 0x13
 2060 00c9 11       		.uleb128 0x11
 2061 00ca 01       		.uleb128 0x1
 2062 00cb 12       		.uleb128 0x12
 2063 00cc 01       		.uleb128 0x1
 2064 00cd 40       		.uleb128 0x40
 2065 00ce 06       		.uleb128 0x6
 2066 00cf 01       		.uleb128 0x1
 2067 00d0 13       		.uleb128 0x13
 2068 00d1 00       		.byte	0x0
 2069 00d2 00       		.byte	0x0
 2070 00d3 12       		.uleb128 0x12
 2071 00d4 05       		.uleb128 0x5
 2072 00d5 00       		.byte	0x0
 2073 00d6 03       		.uleb128 0x3
 2074 00d7 08       		.uleb128 0x8
 2075 00d8 3A       		.uleb128 0x3a
 2076 00d9 0B       		.uleb128 0xb
 2077 00da 3B       		.uleb128 0x3b
 2078 00db 0B       		.uleb128 0xb
 2079 00dc 49       		.uleb128 0x49
 2080 00dd 13       		.uleb128 0x13
 2081 00de 02       		.uleb128 0x2
 2082 00df 06       		.uleb128 0x6
 2083 00e0 00       		.byte	0x0
 2084 00e1 00       		.byte	0x0
 2085 00e2 13       		.uleb128 0x13
 2086 00e3 05       		.uleb128 0x5
 2087 00e4 00       		.byte	0x0
 2088 00e5 03       		.uleb128 0x3
 2089 00e6 0E       		.uleb128 0xe
 2090 00e7 3A       		.uleb128 0x3a
 2091 00e8 0B       		.uleb128 0xb
 2092 00e9 3B       		.uleb128 0x3b
 2093 00ea 0B       		.uleb128 0xb
 2094 00eb 49       		.uleb128 0x49
 2095 00ec 13       		.uleb128 0x13
 2096 00ed 02       		.uleb128 0x2
 2097 00ee 06       		.uleb128 0x6
 2098 00ef 00       		.byte	0x0
 2099 00f0 00       		.byte	0x0
 2100 00f1 14       		.uleb128 0x14
 2101 00f2 34       		.uleb128 0x34
 2102 00f3 00       		.byte	0x0
 2103 00f4 03       		.uleb128 0x3
ARM GAS  C:\Users\z80\AppData\Local\Temp\cck6btKT.s 			page 38


 2104 00f5 08       		.uleb128 0x8
 2105 00f6 3A       		.uleb128 0x3a
 2106 00f7 0B       		.uleb128 0xb
 2107 00f8 3B       		.uleb128 0x3b
 2108 00f9 0B       		.uleb128 0xb
 2109 00fa 49       		.uleb128 0x49
 2110 00fb 13       		.uleb128 0x13
 2111 00fc 02       		.uleb128 0x2
 2112 00fd 06       		.uleb128 0x6
 2113 00fe 00       		.byte	0x0
 2114 00ff 00       		.byte	0x0
 2115 0100 15       		.uleb128 0x15
 2116 0101 2E       		.uleb128 0x2e
 2117 0102 01       		.byte	0x1
 2118 0103 3F       		.uleb128 0x3f
 2119 0104 0C       		.uleb128 0xc
 2120 0105 03       		.uleb128 0x3
 2121 0106 0E       		.uleb128 0xe
 2122 0107 3A       		.uleb128 0x3a
 2123 0108 0B       		.uleb128 0xb
 2124 0109 3B       		.uleb128 0x3b
 2125 010a 0B       		.uleb128 0xb
 2126 010b 27       		.uleb128 0x27
 2127 010c 0C       		.uleb128 0xc
 2128 010d 11       		.uleb128 0x11
 2129 010e 01       		.uleb128 0x1
 2130 010f 12       		.uleb128 0x12
 2131 0110 01       		.uleb128 0x1
 2132 0111 40       		.uleb128 0x40
 2133 0112 06       		.uleb128 0x6
 2134 0113 01       		.uleb128 0x1
 2135 0114 13       		.uleb128 0x13
 2136 0115 00       		.byte	0x0
 2137 0116 00       		.byte	0x0
 2138 0117 16       		.uleb128 0x16
 2139 0118 18       		.uleb128 0x18
 2140 0119 00       		.byte	0x0
 2141 011a 00       		.byte	0x0
 2142 011b 00       		.byte	0x0
 2143 011c 17       		.uleb128 0x17
 2144 011d 34       		.uleb128 0x34
 2145 011e 00       		.byte	0x0
 2146 011f 03       		.uleb128 0x3
 2147 0120 08       		.uleb128 0x8
 2148 0121 3A       		.uleb128 0x3a
 2149 0122 0B       		.uleb128 0xb
 2150 0123 3B       		.uleb128 0x3b
 2151 0124 0B       		.uleb128 0xb
 2152 0125 49       		.uleb128 0x49
 2153 0126 13       		.uleb128 0x13
 2154 0127 02       		.uleb128 0x2
 2155 0128 0A       		.uleb128 0xa
 2156 0129 00       		.byte	0x0
 2157 012a 00       		.byte	0x0
 2158 012b 18       		.uleb128 0x18
 2159 012c 34       		.uleb128 0x34
 2160 012d 00       		.byte	0x0
ARM GAS  C:\Users\z80\AppData\Local\Temp\cck6btKT.s 			page 39


 2161 012e 03       		.uleb128 0x3
 2162 012f 0E       		.uleb128 0xe
 2163 0130 3A       		.uleb128 0x3a
 2164 0131 0B       		.uleb128 0xb
 2165 0132 3B       		.uleb128 0x3b
 2166 0133 0B       		.uleb128 0xb
 2167 0134 49       		.uleb128 0x49
 2168 0135 13       		.uleb128 0x13
 2169 0136 02       		.uleb128 0x2
 2170 0137 0A       		.uleb128 0xa
 2171 0138 00       		.byte	0x0
 2172 0139 00       		.byte	0x0
 2173 013a 19       		.uleb128 0x19
 2174 013b 34       		.uleb128 0x34
 2175 013c 00       		.byte	0x0
 2176 013d 03       		.uleb128 0x3
 2177 013e 0E       		.uleb128 0xe
 2178 013f 3A       		.uleb128 0x3a
 2179 0140 0B       		.uleb128 0xb
 2180 0141 3B       		.uleb128 0x3b
 2181 0142 0B       		.uleb128 0xb
 2182 0143 49       		.uleb128 0x49
 2183 0144 13       		.uleb128 0x13
 2184 0145 02       		.uleb128 0x2
 2185 0146 06       		.uleb128 0x6
 2186 0147 00       		.byte	0x0
 2187 0148 00       		.byte	0x0
 2188 0149 1A       		.uleb128 0x1a
 2189 014a 0A       		.uleb128 0xa
 2190 014b 00       		.byte	0x0
 2191 014c 03       		.uleb128 0x3
 2192 014d 0E       		.uleb128 0xe
 2193 014e 3A       		.uleb128 0x3a
 2194 014f 0B       		.uleb128 0xb
 2195 0150 3B       		.uleb128 0x3b
 2196 0151 0B       		.uleb128 0xb
 2197 0152 11       		.uleb128 0x11
 2198 0153 01       		.uleb128 0x1
 2199 0154 00       		.byte	0x0
 2200 0155 00       		.byte	0x0
 2201 0156 1B       		.uleb128 0x1b
 2202 0157 01       		.uleb128 0x1
 2203 0158 01       		.byte	0x1
 2204 0159 49       		.uleb128 0x49
 2205 015a 13       		.uleb128 0x13
 2206 015b 00       		.byte	0x0
 2207 015c 00       		.byte	0x0
 2208 015d 1C       		.uleb128 0x1c
 2209 015e 21       		.uleb128 0x21
 2210 015f 00       		.byte	0x0
 2211 0160 49       		.uleb128 0x49
 2212 0161 13       		.uleb128 0x13
 2213 0162 2F       		.uleb128 0x2f
 2214 0163 0B       		.uleb128 0xb
 2215 0164 00       		.byte	0x0
 2216 0165 00       		.byte	0x0
 2217 0166 00       		.byte	0x0
ARM GAS  C:\Users\z80\AppData\Local\Temp\cck6btKT.s 			page 40


 2218              		.section	.debug_pubnames,"",%progbits
 2219 0000 1B000000 		.4byte	0x1b
 2220 0004 0200     		.2byte	0x2
 2221 0006 00000000 		.4byte	.Ldebug_info0
 2222 000a FD030000 		.4byte	0x3fd
 2223 000e FF020000 		.4byte	0x2ff
 2224 0012 63687072 		.ascii	"chprintf\000"
 2224      696E7466 
 2224      00
 2225 001b 00000000 		.4byte	0x0
 2226              		.section	.debug_pubtypes,"",%progbits
 2227 0000 B1000000 		.4byte	0xb1
 2228 0004 0200     		.2byte	0x2
 2229 0006 00000000 		.4byte	.Ldebug_info0
 2230 000a FD030000 		.4byte	0x3fd
 2231 000e 34000000 		.4byte	0x34
 2232 0012 5F5F7661 		.ascii	"__va_list\000"
 2232      5F6C6973 
 2232      7400
 2233 001c 29000000 		.4byte	0x29
 2234 0020 5F5F676E 		.ascii	"__gnuc_va_list\000"
 2234      75635F76 
 2234      615F6C69 
 2234      737400
 2235 002f 4E000000 		.4byte	0x4e
 2236 0033 76615F6C 		.ascii	"va_list\000"
 2236      69737400 
 2237 003b 60000000 		.4byte	0x60
 2238 003f 73697A65 		.ascii	"size_t\000"
 2238      5F7400
 2239 0046 79000000 		.4byte	0x79
 2240 004a 75696E74 		.ascii	"uint8_t\000"
 2240      385F7400 
 2241 0052 99000000 		.4byte	0x99
 2242 0056 696E7433 		.ascii	"int32_t\000"
 2242      325F7400 
 2243 005e AB000000 		.4byte	0xab
 2244 0062 75696E74 		.ascii	"uint32_t\000"
 2244      33325F74 
 2244      00
 2245 006b CB000000 		.4byte	0xcb
 2246 006f 626F6F6C 		.ascii	"bool_t\000"
 2246      5F7400
 2247 0076 D6000000 		.4byte	0xd6
 2248 007a 6D73675F 		.ascii	"msg_t\000"
 2248      7400
 2249 0080 E1000000 		.4byte	0xe1
 2250 0084 73797374 		.ascii	"systime_t\000"
 2250      696D655F 
 2250      7400
 2251 008e 52010000 		.4byte	0x152
 2252 0092 42617365 		.ascii	"BaseChannelVMT\000"
 2252      4368616E 
 2252      6E656C56 
 2252      4D5400
 2253 00a1 8C020000 		.4byte	0x28c
 2254 00a5 42617365 		.ascii	"BaseChannel\000"
ARM GAS  C:\Users\z80\AppData\Local\Temp\cck6btKT.s 			page 41


 2254      4368616E 
 2254      6E656C00 
 2255 00b1 00000000 		.4byte	0x0
 2256              		.section	.debug_aranges,"",%progbits
 2257 0000 24000000 		.4byte	0x24
 2258 0004 0200     		.2byte	0x2
 2259 0006 00000000 		.4byte	.Ldebug_info0
 2260 000a 04       		.byte	0x4
 2261 000b 00       		.byte	0x0
 2262 000c 0000     		.2byte	0x0
 2263 000e 0000     		.2byte	0x0
 2264 0010 00000000 		.4byte	.LFB7
 2265 0014 4A000000 		.4byte	.LFE7-.LFB7
 2266 0018 00000000 		.4byte	.LFB8
 2267 001c 9C020000 		.4byte	.LFE8-.LFB8
 2268 0020 00000000 		.4byte	0x0
 2269 0024 00000000 		.4byte	0x0
 2270              		.section	.debug_ranges,"",%progbits
 2271              	.Ldebug_ranges0:
 2272 0000 00000000 		.4byte	.LFB7
 2273 0004 4A000000 		.4byte	.LFE7
 2274 0008 00000000 		.4byte	.LFB8
 2275 000c 9C020000 		.4byte	.LFE8
 2276 0010 00000000 		.4byte	0x0
 2277 0014 00000000 		.4byte	0x0
 2278              		.section	.debug_str,"MS",%progbits,1
 2279              	.LASF2:
 2280 0000 73697A65 		.ascii	"size_t\000"
 2280      5F7400
 2281              	.LASF33:
 2282 0007 474E5520 		.ascii	"GNU C 4.5.0\000"
 2282      4320342E 
 2282      352E3000 
 2283              	.LASF17:
 2284 0013 73797374 		.ascii	"systime_t\000"
 2284      696D655F 
 2284      7400
 2285              	.LASF31:
 2286 001d 69735F6C 		.ascii	"is_long\000"
 2286      6F6E6700 
 2287              	.LASF26:
 2288 0025 72616469 		.ascii	"radix\000"
 2288      7800
 2289              	.LASF15:
 2290 002b 626F6F6C 		.ascii	"bool_t\000"
 2290      5F7400
 2291              	.LASF23:
 2292 0032 77726974 		.ascii	"writet\000"
 2292      657400
 2293              	.LASF1:
 2294 0039 76615F6C 		.ascii	"va_list\000"
 2294      69737400 
 2295              	.LASF6:
 2296 0041 756E7369 		.ascii	"unsigned char\000"
 2296      676E6564 
 2296      20636861 
 2296      7200
ARM GAS  C:\Users\z80\AppData\Local\Temp\cck6btKT.s 			page 42


 2297              	.LASF24:
 2298 004f 72656164 		.ascii	"readt\000"
 2298      7400
 2299              	.LASF12:
 2300 0055 6C6F6E67 		.ascii	"long unsigned int\000"
 2300      20756E73 
 2300      69676E65 
 2300      6420696E 
 2300      7400
 2301              	.LASF8:
 2302 0067 73686F72 		.ascii	"short unsigned int\000"
 2302      7420756E 
 2302      7369676E 
 2302      65642069 
 2302      6E7400
 2303              	.LASF19:
 2304 007a 77726974 		.ascii	"write\000"
 2304      6500
 2305              	.LASF30:
 2306 0080 77696474 		.ascii	"width\000"
 2306      6800
 2307              	.LASF40:
 2308 0086 63687072 		.ascii	"chprintf\000"
 2308      696E7466 
 2308      00
 2309              	.LASF21:
 2310 008f 70757477 		.ascii	"putwouldblock\000"
 2310      6F756C64 
 2310      626C6F63 
 2310      6B00
 2311              	.LASF0:
 2312 009d 5F5F676E 		.ascii	"__gnuc_va_list\000"
 2312      75635F76 
 2312      615F6C69 
 2312      737400
 2313              	.LASF20:
 2314 00ac 72656164 		.ascii	"read\000"
 2314      00
 2315              	.LASF28:
 2316 00b1 66696C6C 		.ascii	"filler\000"
 2316      657200
 2317              	.LASF3:
 2318 00b8 756E7369 		.ascii	"unsigned int\000"
 2318      676E6564 
 2318      20696E74 
 2318      00
 2319              	.LASF14:
 2320 00c5 6C6F6E67 		.ascii	"long long unsigned int\000"
 2320      206C6F6E 
 2320      6720756E 
 2320      7369676E 
 2320      65642069 
 2321              	.LASF34:
 2322 00dc 2E2E2F63 		.ascii	"../chibios_2.4.x/os/various/chprintf.c\000"
 2322      68696269 
 2322      6F735F32 
 2322      2E342E78 
ARM GAS  C:\Users\z80\AppData\Local\Temp\cck6btKT.s 			page 43


 2322      2F6F732F 
 2323              	.LASF37:
 2324 0103 5F5F6170 		.ascii	"__ap\000"
 2324      00
 2325              	.LASF22:
 2326 0108 67657477 		.ascii	"getwouldblock\000"
 2326      6F756C64 
 2326      626C6F63 
 2326      6B00
 2327              	.LASF16:
 2328 0116 6D73675F 		.ascii	"msg_t\000"
 2328      7400
 2329              	.LASF38:
 2330 011c 42617365 		.ascii	"BaseChannelVMT\000"
 2330      4368616E 
 2330      6E656C56 
 2330      4D5400
 2331              	.LASF9:
 2332 012b 696E7433 		.ascii	"int32_t\000"
 2332      325F7400 
 2333              	.LASF27:
 2334 0133 746D7062 		.ascii	"tmpbuf\000"
 2334      756600
 2335              	.LASF36:
 2336 013a 5F5F7661 		.ascii	"__va_list\000"
 2336      5F6C6973 
 2336      7400
 2337              	.LASF13:
 2338 0144 6C6F6E67 		.ascii	"long long int\000"
 2338      206C6F6E 
 2338      6720696E 
 2338      7400
 2339              	.LASF29:
 2340 0152 70726563 		.ascii	"precision\000"
 2340      6973696F 
 2340      6E00
 2341              	.LASF18:
 2342 015c 63686172 		.ascii	"char\000"
 2342      00
 2343              	.LASF32:
 2344 0161 6C656674 		.ascii	"left_align\000"
 2344      5F616C69 
 2344      676E00
 2345              	.LASF7:
 2346 016c 73686F72 		.ascii	"short int\000"
 2346      7420696E 
 2346      7400
 2347              	.LASF5:
 2348 0176 75696E74 		.ascii	"uint8_t\000"
 2348      385F7400 
 2349              	.LASF35:
 2350 017e 433A5C70 		.ascii	"C:\\projects\\voltamper.git\\firmware\\voltamp\000"
 2350      726F6A65 
 2350      6374735C 
 2350      766F6C74 
 2350      616D7065 
 2351              	.LASF41:
ARM GAS  C:\Users\z80\AppData\Local\Temp\cck6btKT.s 			page 44


 2352 01a9 756E7369 		.ascii	"unsigned_common\000"
 2352      676E6564 
 2352      5F636F6D 
 2352      6D6F6E00 
 2353              	.LASF11:
 2354 01b9 75696E74 		.ascii	"uint32_t\000"
 2354      33325F74 
 2354      00
 2355              	.LASF10:
 2356 01c2 6C6F6E67 		.ascii	"long int\000"
 2356      20696E74 
 2356      00
 2357              	.LASF4:
 2358 01cb 7369676E 		.ascii	"signed char\000"
 2358      65642063 
 2358      68617200 
 2359              	.LASF39:
 2360 01d7 6C746F61 		.ascii	"ltoa\000"
 2360      00
 2361              	.LASF25:
 2362 01dc 42617365 		.ascii	"BaseChannel\000"
 2362      4368616E 
 2362      6E656C00 
 2363              		.ident	"GCC: (GNU) 4.5.0"
ARM GAS  C:\Users\z80\AppData\Local\Temp\cck6btKT.s 			page 45


DEFINED SYMBOLS
                            *ABS*:00000000 chprintf.c
C:\Users\z80\AppData\Local\Temp\cck6btKT.s:24     .text.ltoa:00000000 $t
C:\Users\z80\AppData\Local\Temp\cck6btKT.s:29     .text.ltoa:00000000 ltoa
C:\Users\z80\AppData\Local\Temp\cck6btKT.s:105    .text.chprintf:00000000 $t
C:\Users\z80\AppData\Local\Temp\cck6btKT.s:111    .text.chprintf:00000000 chprintf
C:\Users\z80\AppData\Local\Temp\cck6btKT.s:286    .text.chprintf:000000c4 $d
C:\Users\z80\AppData\Local\Temp\cck6btKT.s:695    .rodata.str1.4:00000000 .LC0
C:\Users\z80\AppData\Local\Temp\cck6btKT.s:694    .rodata.str1.4:00000000 $d
                     .debug_frame:00000010 $d
C:\Users\z80\AppData\Local\Temp\cck6btKT.s:339    .text.chprintf:000000f9 $d
C:\Users\z80\AppData\Local\Temp\cck6btKT.s:339    .text.chprintf:000000fa $t

NO UNDEFINED SYMBOLS
