ARM GAS  /tmp/cc1Wnpol.s 			page 1


   1              		.syntax unified
   2              		.cpu cortex-m3
   3              		.fpu softvfp
   4              		.eabi_attribute 20, 1
   5              		.eabi_attribute 21, 1
   6              		.eabi_attribute 23, 3
   7              		.eabi_attribute 24, 1
   8              		.eabi_attribute 25, 1
   9              		.eabi_attribute 26, 1
  10              		.eabi_attribute 30, 2
  11              		.eabi_attribute 18, 4
  12              		.thumb
  13              		.file	"chqueues.c"
  14              		.section	.debug_abbrev,"",%progbits
  15              	.Ldebug_abbrev0:
  16              		.section	.debug_info,"",%progbits
  17              	.Ldebug_info0:
  18              		.section	.debug_line,"",%progbits
  19              	.Ldebug_line0:
  20 0000 E4030000 		.text
  20      0200D401 
  20      00000201 
  20      FB0E0D00 
  20      01010101 
  21              	.Ltext0:
  22              		.cfi_sections	.debug_frame
  23              		.section	.text.qwait,"ax",%progbits
  24              		.align	2
  25              		.p2align 4,,15
  26              		.thumb
  27              		.thumb_func
  28              		.type	qwait, %function
  29              	qwait:
  30              	.LFB7:
  31              		.file 1 "../chibios_2.4.x/os/kernel/src/chqueues.c"
  32              		.loc 1 72 0
  33              		.cfi_startproc
  34              		@ args = 0, pretend = 0, frame = 0
  35              		@ frame_needed = 0, uses_anonymous_args = 0
  36              		@ link register save eliminated.
  37              	.LVL0:
  38 0000 10B4     		push	{r4}
  39              	.LCFI0:
  40              		.cfi_def_cfa_offset 4
  41              		.loc 1 72 0
  42 0002 0346     		mov	r3, r0
  43              		.loc 1 74 0
  44 0004 19B9     		cbnz	r1, .L4
  45              		.cfi_offset 4, -4
  46              		.loc 1 79 0
  47 0006 4FF0FF30 		mov	r0, #-1
  48              	.LVL1:
  49 000a 10BC     		pop	{r4}
  50 000c 7047     		bx	lr
  51              	.L4:
  52              		.loc 1 76 0
  53 000e 064C     		ldr	r4, .L5
ARM GAS  /tmp/cc1Wnpol.s 			page 2


  54              		.loc 1 78 0
  55 0010 0D20     		movs	r0, #13
  56              		.loc 1 76 0
  57 0012 E269     		ldr	r2, [r4, #28]
  58 0014 9362     		str	r3, [r2, #40]
  59              	.LVL2:
  60              	.LBB12:
  61              	.LBB13:
  62              		.file 2 "../chibios_2.4.x/os/kernel/include/chinline.h"
  63              		.loc 2 55 0
  64 0016 5C68     		ldr	r4, [r3, #4]
  65              	.LVL3:
  66              		.loc 2 54 0
  67 0018 1360     		str	r3, [r2, #0]
  68              		.loc 2 55 0
  69 001a 5460     		str	r4, [r2, #4]
  70              		.loc 2 56 0
  71 001c 5A60     		str	r2, [r3, #4]
  72 001e 2260     		str	r2, [r4, #0]
  73              	.LBE13:
  74              	.LBE12:
  75              		.loc 1 79 0
  76 0020 10BC     		pop	{r4}
  77              		.loc 1 78 0
  78 0022 FFF7FEBF 		b	chSchGoSleepTimeoutS
  79              	.LVL4:
  80              	.L6:
  81 0026 00BF     		.align	2
  82              	.L5:
  83 0028 00000000 		.word	rlist
  84              		.cfi_endproc
  85              	.LFE7:
  86              		.size	qwait, .-qwait
  87 002c AFF30080 		.section	.text.chIQInit,"ax",%progbits
  88              		.align	2
  89              		.p2align 4,,15
  90              		.global	chIQInit
  91              		.thumb
  92              		.thumb_func
  93              		.type	chIQInit, %function
  94              	chIQInit:
  95              	.LFB8:
  96              		.loc 1 96 0
  97              		.cfi_startproc
  98              		@ args = 0, pretend = 0, frame = 0
  99              		@ frame_needed = 0, uses_anonymous_args = 0
 100              		@ link register save eliminated.
 101              	.LVL5:
 102 0000 10B4     		push	{r4}
 103              	.LCFI1:
 104              		.cfi_def_cfa_offset 4
 105              		.loc 1 101 0
 106 0002 8A18     		adds	r2, r1, r2
 107              	.LVL6:
 108              		.loc 1 99 0
 109 0004 0024     		movs	r4, #0
 110              		.cfi_offset 4, -4
ARM GAS  /tmp/cc1Wnpol.s 			page 3


 111              		.loc 1 98 0
 112 0006 4060     		str	r0, [r0, #4]
 113 0008 0060     		str	r0, [r0, #0]
 114              		.loc 1 99 0
 115 000a 8460     		str	r4, [r0, #8]
 116              		.loc 1 100 0
 117 000c 4161     		str	r1, [r0, #20]
 118 000e 8161     		str	r1, [r0, #24]
 119 0010 C160     		str	r1, [r0, #12]
 120              		.loc 1 101 0
 121 0012 0261     		str	r2, [r0, #16]
 122              		.loc 1 102 0
 123 0014 C361     		str	r3, [r0, #28]
 124              		.loc 1 103 0
 125 0016 10BC     		pop	{r4}
 126 0018 7047     		bx	lr
 127              		.cfi_endproc
 128              	.LFE8:
 129              		.size	chIQInit, .-chIQInit
 130              		.section	.text.chIQResetI,"ax",%progbits
 131              		.align	2
 132              		.p2align 4,,15
 133              		.global	chIQResetI
 134              		.thumb
 135              		.thumb_func
 136              		.type	chIQResetI, %function
 137              	chIQResetI:
 138              	.LFB9:
 139              		.loc 1 116 0
 140              		.cfi_startproc
 141              		@ args = 0, pretend = 0, frame = 0
 142              		@ frame_needed = 0, uses_anonymous_args = 0
 143              	.LVL7:
 144 0000 38B5     		push	{r3, r4, r5, lr}
 145              	.LCFI2:
 146              		.cfi_def_cfa_offset 16
 147              		.loc 1 116 0
 148 0002 0446     		mov	r4, r0
 149              		.cfi_offset 14, -4
 150              		.cfi_offset 5, -8
 151              		.cfi_offset 4, -12
 152              		.cfi_offset 3, -16
 153              		.loc 1 118 0
 154 0004 FFF7FEFF 		bl	chDbgCheckClassI
 155              	.LVL8:
 156              		.loc 1 122 0
 157 0008 2068     		ldr	r0, [r4, #0]
 158              		.loc 1 120 0
 159 000a E168     		ldr	r1, [r4, #12]
 160              		.loc 1 121 0
 161 000c 0023     		movs	r3, #0
 162              		.loc 1 122 0
 163 000e A042     		cmp	r0, r4
 164              		.loc 1 120 0
 165 0010 6161     		str	r1, [r4, #20]
 166 0012 A161     		str	r1, [r4, #24]
 167              		.loc 1 121 0
ARM GAS  /tmp/cc1Wnpol.s 			page 4


 168 0014 A360     		str	r3, [r4, #8]
 169              		.loc 1 122 0
 170 0016 0AD0     		beq	.L8
 171              		.loc 1 123 0
 172 0018 6FF00105 		mvn	r5, #1
 173              	.L11:
 174              	.LVL9:
 175              	.LBB14:
 176              	.LBB15:
 177              		.loc 2 62 0
 178 001c 0268     		ldr	r2, [r0, #0]
 179 001e 2260     		str	r2, [r4, #0]
 180 0020 5460     		str	r4, [r2, #4]
 181              	.LBE15:
 182              	.LBE14:
 183              		.loc 1 123 0
 184 0022 FFF7FEFF 		bl	chSchReadyI
 185              	.LVL10:
 186 0026 8562     		str	r5, [r0, #40]
 187              		.loc 1 122 0
 188 0028 2068     		ldr	r0, [r4, #0]
 189 002a A042     		cmp	r0, r4
 190 002c F6D1     		bne	.L11
 191              	.LVL11:
 192              	.L8:
 193 002e 38BD     		pop	{r3, r4, r5, pc}
 194              		.cfi_endproc
 195              	.LFE9:
 196              		.size	chIQResetI, .-chIQResetI
 197              		.section	.text.chIQPutI,"ax",%progbits
 198              		.align	2
 199              		.p2align 4,,15
 200              		.global	chIQPutI
 201              		.thumb
 202              		.thumb_func
 203              		.type	chIQPutI, %function
 204              	chIQPutI:
 205              	.LFB10:
 206              		.loc 1 139 0
 207              		.cfi_startproc
 208              		@ args = 0, pretend = 0, frame = 0
 209              		@ frame_needed = 0, uses_anonymous_args = 0
 210              	.LVL12:
 211 0000 38B5     		push	{r3, r4, r5, lr}
 212              	.LCFI3:
 213              		.cfi_def_cfa_offset 16
 214              		.loc 1 139 0
 215 0002 0446     		mov	r4, r0
 216              		.cfi_offset 14, -4
 217              		.cfi_offset 5, -8
 218              		.cfi_offset 4, -12
 219              		.cfi_offset 3, -16
 220 0004 0D46     		mov	r5, r1
 221              		.loc 1 141 0
 222 0006 FFF7FEFF 		bl	chDbgCheckClassI
 223              	.LVL13:
 224              		.loc 1 143 0
ARM GAS  /tmp/cc1Wnpol.s 			page 5


 225 000a 6369     		ldr	r3, [r4, #20]
 226 000c A269     		ldr	r2, [r4, #24]
 227 000e 9342     		cmp	r3, r2
 228 0010 19D0     		beq	.L14
 229 0012 A268     		ldr	r2, [r4, #8]
 230              	.L15:
 231              		.loc 1 146 0
 232 0014 511C     		adds	r1, r2, #1
 233 0016 A160     		str	r1, [r4, #8]
 234              		.loc 1 147 0
 235 0018 03F8015B 		strb	r5, [r3], #1
 236              		.loc 1 148 0
 237 001c 2069     		ldr	r0, [r4, #16]
 238              		.loc 1 147 0
 239 001e 6361     		str	r3, [r4, #20]
 240              		.loc 1 148 0
 241 0020 8342     		cmp	r3, r0
 242              		.loc 1 149 0
 243 0022 28BF     		it	cs
 244 0024 E368     		ldrcs	r3, [r4, #12]
 245              		.loc 1 151 0
 246 0026 2068     		ldr	r0, [r4, #0]
 247              		.loc 1 149 0
 248 0028 28BF     		it	cs
 249 002a 6361     		strcs	r3, [r4, #20]
 250              		.loc 1 151 0
 251 002c A042     		cmp	r0, r4
 252 002e 08D0     		beq	.L19
 253              	.LVL14:
 254              	.LBB16:
 255              	.LBB17:
 256              		.loc 2 62 0
 257 0030 0268     		ldr	r2, [r0, #0]
 258 0032 2260     		str	r2, [r4, #0]
 259 0034 5460     		str	r4, [r2, #4]
 260              	.LBE17:
 261              	.LBE16:
 262              		.loc 1 152 0
 263 0036 FFF7FEFF 		bl	chSchReadyI
 264              	.LVL15:
 265 003a 0023     		movs	r3, #0
 266 003c 8362     		str	r3, [r0, #40]
 267              		.loc 1 154 0
 268 003e 1846     		mov	r0, r3
 269 0040 38BD     		pop	{r3, r4, r5, pc}
 270              	.LVL16:
 271              	.L19:
 272 0042 0020     		movs	r0, #0
 273              		.loc 1 155 0
 274 0044 38BD     		pop	{r3, r4, r5, pc}
 275              	.L14:
 276              		.loc 1 143 0 discriminator 1
 277 0046 A268     		ldr	r2, [r4, #8]
 278 0048 002A     		cmp	r2, #0
 279 004a E3D0     		beq	.L15
 280              		.loc 1 144 0
 281 004c 6FF00300 		mvn	r0, #3
ARM GAS  /tmp/cc1Wnpol.s 			page 6


 282 0050 38BD     		pop	{r3, r4, r5, pc}
 283              		.cfi_endproc
 284              	.LFE10:
 285              		.size	chIQPutI, .-chIQPutI
 286 0052 00BFAFF3 		.section	.text.chIQGetTimeout,"ax",%progbits
 286      0080AFF3 
 286      0080AFF3 
 286      0080
 287              		.align	2
 288              		.p2align 4,,15
 289              		.global	chIQGetTimeout
 290              		.thumb
 291              		.thumb_func
 292              		.type	chIQGetTimeout, %function
 293              	chIQGetTimeout:
 294              	.LFB11:
 295              		.loc 1 177 0
 296              		.cfi_startproc
 297              		@ args = 0, pretend = 0, frame = 0
 298              		@ frame_needed = 0, uses_anonymous_args = 0
 299              	.LVL17:
 300 0000 F8B5     		push	{r3, r4, r5, r6, r7, lr}
 301              	.LCFI4:
 302              		.cfi_def_cfa_offset 24
 303              		.loc 1 177 0
 304 0002 0446     		mov	r4, r0
 305              		.cfi_offset 14, -4
 306              		.cfi_offset 7, -8
 307              		.cfi_offset 6, -12
 308              		.cfi_offset 5, -16
 309              		.cfi_offset 4, -20
 310              		.cfi_offset 3, -24
 311 0004 0D46     		mov	r5, r1
 312              	.LBB18:
 313              		.loc 1 180 0
 314 0006 2023     		movs	r3, #32
 315              	.LVL18:
 316              	@ 180 "../chibios_2.4.x/os/kernel/src/chqueues.c" 1
 317 0008 83F31188 		msr     BASEPRI, r3
 318              	@ 0 "" 2
 319              	.LVL19:
 320              		.thumb
 321              	.LBE18:
 322 000c FFF7FEFF 		bl	dbg_check_lock
 323              	.LVL20:
 324              		.loc 1 181 0
 325 0010 E369     		ldr	r3, [r4, #28]
 326 0012 0BB1     		cbz	r3, .L26
 327              		.loc 1 182 0
 328 0014 2046     		mov	r0, r4
 329 0016 9847     		blx	r3
 330              	.L26:
 331              		.loc 1 184 0 discriminator 1
 332 0018 A668     		ldr	r6, [r4, #8]
 333              	.LBB19:
 334              		.loc 1 186 0 discriminator 1
 335 001a 2046     		mov	r0, r4
ARM GAS  /tmp/cc1Wnpol.s 			page 7


 336 001c 2946     		mov	r1, r5
 337              	.LBE19:
 338              		.loc 1 184 0 discriminator 1
 339 001e 56B9     		cbnz	r6, .L28
 340              	.LBB21:
 341              		.loc 1 186 0
 342 0020 FFF7FEFF 		bl	qwait
 343              	.LVL21:
 344 0024 071E     		subs	r7, r0, #0
 345 0026 F7DA     		bge	.L26
 346              		.loc 1 187 0
 347 0028 FFF7FEFF 		bl	dbg_check_unlock
 348              	.LVL22:
 349              	.LBB20:
 350 002c 3346     		mov	r3, r6
 351              	.LVL23:
 352              	@ 187 "../chibios_2.4.x/os/kernel/src/chqueues.c" 1
 353 002e 83F31188 		msr     BASEPRI, r3
 354              	@ 0 "" 2
 355              	.LVL24:
 356              		.thumb
 357              	.LBE20:
 358              	.LBE21:
 359              		.loc 1 199 0
 360 0032 3846     		mov	r0, r7
 361 0034 F8BD     		pop	{r3, r4, r5, r6, r7, pc}
 362              	.LVL25:
 363              	.L28:
 364              		.loc 1 193 0
 365 0036 A369     		ldr	r3, [r4, #24]
 366              		.loc 1 192 0
 367 0038 013E     		subs	r6, r6, #1
 368 003a A660     		str	r6, [r4, #8]
 369              		.loc 1 193 0
 370 003c 13F8017B 		ldrb	r7, [r3], #1	@ zero_extendqisi2
 371              	.LVL26:
 372              		.loc 1 194 0
 373 0040 2269     		ldr	r2, [r4, #16]
 374              		.loc 1 193 0
 375 0042 A361     		str	r3, [r4, #24]
 376              		.loc 1 194 0
 377 0044 9342     		cmp	r3, r2
 378              		.loc 1 195 0
 379 0046 24BF     		itt	cs
 380 0048 E368     		ldrcs	r3, [r4, #12]
 381 004a A361     		strcs	r3, [r4, #24]
 382              		.loc 1 197 0
 383 004c FFF7FEFF 		bl	dbg_check_unlock
 384              	.LBB22:
 385 0050 0023     		movs	r3, #0
 386              	.LVL27:
 387              	@ 197 "../chibios_2.4.x/os/kernel/src/chqueues.c" 1
 388 0052 83F31188 		msr     BASEPRI, r3
 389              	@ 0 "" 2
 390              	.LVL28:
 391              		.thumb
 392              	.LBE22:
ARM GAS  /tmp/cc1Wnpol.s 			page 8


 393              		.loc 1 199 0
 394 0056 3846     		mov	r0, r7
 395 0058 F8BD     		pop	{r3, r4, r5, r6, r7, pc}
 396              		.cfi_endproc
 397              	.LFE11:
 398              		.size	chIQGetTimeout, .-chIQGetTimeout
 399 005a 00BFAFF3 		.section	.text.chIQReadTimeout,"ax",%progbits
 399      0080
 400              		.align	2
 401              		.p2align 4,,15
 402              		.global	chIQReadTimeout
 403              		.thumb
 404              		.thumb_func
 405              		.type	chIQReadTimeout, %function
 406              	chIQReadTimeout:
 407              	.LFB12:
 408              		.loc 1 226 0
 409              		.cfi_startproc
 410              		@ args = 0, pretend = 0, frame = 0
 411              		@ frame_needed = 0, uses_anonymous_args = 0
 412              	.LVL29:
 413 0000 2DE9F047 		push	{r4, r5, r6, r7, r8, r9, sl, lr}
 414              	.LCFI5:
 415              		.cfi_def_cfa_offset 32
 416              		.loc 1 226 0
 417 0004 0446     		mov	r4, r0
 418              		.cfi_offset 14, -4
 419              		.cfi_offset 10, -8
 420              		.cfi_offset 9, -12
 421              		.cfi_offset 8, -16
 422              		.cfi_offset 7, -20
 423              		.cfi_offset 6, -24
 424              		.cfi_offset 5, -28
 425              		.cfi_offset 4, -32
 426              		.loc 1 230 0
 427 0006 9046     		mov	r8, r2
 428              		.loc 1 226 0
 429 0008 8946     		mov	r9, r1
 430 000a 1D46     		mov	r5, r3
 431              		.loc 1 227 0
 432 000c C769     		ldr	r7, [r0, #28]
 433              	.LVL30:
 434              		.loc 1 230 0
 435 000e 002A     		cmp	r2, #0
 436 0010 37D0     		beq	.L39
 437              	.LVL31:
 438              	.L30:
 439              	.LBB23:
 440              		.loc 1 232 0
 441 0012 2023     		movs	r3, #32
 442              	.LVL32:
 443              	@ 232 "../chibios_2.4.x/os/kernel/src/chqueues.c" 1
 444 0014 83F31188 		msr     BASEPRI, r3
 445              	@ 0 "" 2
 446              	.LVL33:
 447              		.thumb
 448              	.LBE23:
ARM GAS  /tmp/cc1Wnpol.s 			page 9


 449 0018 FFF7FEFF 		bl	dbg_check_lock
 450              	.LVL34:
 451              		.loc 1 228 0
 452 001c 0026     		movs	r6, #0
 453              	.LVL35:
 454              	.L36:
 455              		.loc 1 234 0
 456 001e 0FB1     		cbz	r7, .L37
 457              		.loc 1 235 0
 458 0020 2046     		mov	r0, r4
 459 0022 B847     		blx	r7
 460              	.L37:
 461              		.loc 1 237 0 discriminator 1
 462 0024 D4F808A0 		ldr	sl, [r4, #8]
 463              		.loc 1 238 0 discriminator 1
 464 0028 2046     		mov	r0, r4
 465 002a 2946     		mov	r1, r5
 466              		.loc 1 237 0 discriminator 1
 467 002c BAF1000F 		cmp	sl, #0
 468 0030 0BD1     		bne	.L40
 469              		.loc 1 238 0
 470 0032 FFF7FEFF 		bl	qwait
 471 0036 0028     		cmp	r0, #0
 472 0038 F4D0     		beq	.L37
 473              		.loc 1 239 0
 474 003a FFF7FEFF 		bl	dbg_check_unlock
 475              	.LBB24:
 476 003e 5346     		mov	r3, sl
 477              	.LVL36:
 478              	@ 239 "../chibios_2.4.x/os/kernel/src/chqueues.c" 1
 479 0040 83F31188 		msr     BASEPRI, r3
 480              	@ 0 "" 2
 481              	.LVL37:
 482              		.thumb
 483              	.L33:
 484              	.LBE24:
 485              		.loc 1 256 0
 486 0044 3046     		mov	r0, r6
 487 0046 BDE8F087 		pop	{r4, r5, r6, r7, r8, r9, sl, pc}
 488              	.LVL38:
 489              	.L40:
 490              		.loc 1 245 0
 491 004a A369     		ldr	r3, [r4, #24]
 492              		.loc 1 244 0
 493 004c 0AF1FF31 		add	r1, sl, #-1
 494 0050 A160     		str	r1, [r4, #8]
 495              		.loc 1 245 0
 496 0052 13F8010B 		ldrb	r0, [r3], #1	@ zero_extendqisi2
 497 0056 09F80600 		strb	r0, [r9, r6]
 498              		.loc 1 246 0
 499 005a 2269     		ldr	r2, [r4, #16]
 500              		.loc 1 245 0
 501 005c A361     		str	r3, [r4, #24]
 502              		.loc 1 246 0
 503 005e 9342     		cmp	r3, r2
 504              		.loc 1 247 0
 505 0060 24BF     		itt	cs
ARM GAS  /tmp/cc1Wnpol.s 			page 10


 506 0062 E368     		ldrcs	r3, [r4, #12]
 507 0064 A361     		strcs	r3, [r4, #24]
 508              		.loc 1 249 0
 509 0066 FFF7FEFF 		bl	dbg_check_unlock
 510              	.LBB25:
 511 006a 0023     		movs	r3, #0
 512              	@ 249 "../chibios_2.4.x/os/kernel/src/chqueues.c" 1
 513 006c 83F31188 		msr     BASEPRI, r3
 514              	@ 0 "" 2
 515              	.LVL39:
 516              		.thumb
 517              	.LBE25:
 518              		.loc 1 250 0
 519 0070 0136     		adds	r6, r6, #1
 520              	.LVL40:
 521              		.loc 1 251 0
 522 0072 4645     		cmp	r6, r8
 523 0074 E6D0     		beq	.L33
 524              	.LBB26:
 525              		.loc 1 254 0
 526 0076 2023     		movs	r3, #32
 527              	.LVL41:
 528              	@ 254 "../chibios_2.4.x/os/kernel/src/chqueues.c" 1
 529 0078 83F31188 		msr     BASEPRI, r3
 530              	@ 0 "" 2
 531              	.LVL42:
 532              		.thumb
 533              	.LBE26:
 534 007c FFF7FEFF 		bl	dbg_check_lock
 535              	.LVL43:
 536              		.loc 1 255 0
 537 0080 CDE7     		b	.L36
 538              	.LVL44:
 539              	.L39:
 540              		.loc 1 230 0 discriminator 1
 541 0082 0248     		ldr	r0, .L41
 542 0084 FFF7FEFF 		bl	chDbgPanic
 543 0088 C3E7     		b	.L30
 544              	.L42:
 545 008a 00BF     		.align	2
 546              	.L41:
 547 008c 00000000 		.word	.LC0
 548              		.cfi_endproc
 549              	.LFE12:
 550              		.size	chIQReadTimeout, .-chIQReadTimeout
 551              		.section	.text.chOQInit,"ax",%progbits
 552              		.align	2
 553              		.p2align 4,,15
 554              		.global	chOQInit
 555              		.thumb
 556              		.thumb_func
 557              		.type	chOQInit, %function
 558              	chOQInit:
 559              	.LFB13:
 560              		.loc 1 273 0
 561              		.cfi_startproc
 562              		@ args = 0, pretend = 0, frame = 0
ARM GAS  /tmp/cc1Wnpol.s 			page 11


 563              		@ frame_needed = 0, uses_anonymous_args = 0
 564              		@ link register save eliminated.
 565              	.LVL45:
 566 0000 10B4     		push	{r4}
 567              	.LCFI6:
 568              		.cfi_def_cfa_offset 4
 569              		.loc 1 278 0
 570 0002 8C18     		adds	r4, r1, r2
 571              		.cfi_offset 4, -4
 572              		.loc 1 275 0
 573 0004 4060     		str	r0, [r0, #4]
 574 0006 0060     		str	r0, [r0, #0]
 575              		.loc 1 276 0
 576 0008 8260     		str	r2, [r0, #8]
 577              		.loc 1 277 0
 578 000a 4161     		str	r1, [r0, #20]
 579 000c 8161     		str	r1, [r0, #24]
 580 000e C160     		str	r1, [r0, #12]
 581              		.loc 1 278 0
 582 0010 0461     		str	r4, [r0, #16]
 583              		.loc 1 279 0
 584 0012 C361     		str	r3, [r0, #28]
 585              		.loc 1 280 0
 586 0014 10BC     		pop	{r4}
 587 0016 7047     		bx	lr
 588              		.cfi_endproc
 589              	.LFE13:
 590              		.size	chOQInit, .-chOQInit
 591 0018 AFF30080 		.section	.text.chOQResetI,"ax",%progbits
 591      AFF30080 
 592              		.align	2
 593              		.p2align 4,,15
 594              		.global	chOQResetI
 595              		.thumb
 596              		.thumb_func
 597              		.type	chOQResetI, %function
 598              	chOQResetI:
 599              	.LFB14:
 600              		.loc 1 293 0
 601              		.cfi_startproc
 602              		@ args = 0, pretend = 0, frame = 0
 603              		@ frame_needed = 0, uses_anonymous_args = 0
 604              	.LVL46:
 605 0000 38B5     		push	{r3, r4, r5, lr}
 606              	.LCFI7:
 607              		.cfi_def_cfa_offset 16
 608              		.loc 1 293 0
 609 0002 0446     		mov	r4, r0
 610              		.cfi_offset 14, -4
 611              		.cfi_offset 5, -8
 612              		.cfi_offset 4, -12
 613              		.cfi_offset 3, -16
 614              		.loc 1 295 0
 615 0004 FFF7FEFF 		bl	chDbgCheckClassI
 616              	.LVL47:
 617              		.loc 1 297 0
 618 0008 E368     		ldr	r3, [r4, #12]
ARM GAS  /tmp/cc1Wnpol.s 			page 12


 619              		.loc 1 298 0
 620 000a 2169     		ldr	r1, [r4, #16]
 621              		.loc 1 299 0
 622 000c 2068     		ldr	r0, [r4, #0]
 623              		.loc 1 298 0
 624 000e CA1A     		subs	r2, r1, r3
 625              		.loc 1 299 0
 626 0010 A042     		cmp	r0, r4
 627              		.loc 1 297 0
 628 0012 6361     		str	r3, [r4, #20]
 629 0014 A361     		str	r3, [r4, #24]
 630              		.loc 1 298 0
 631 0016 A260     		str	r2, [r4, #8]
 632              		.loc 1 299 0
 633 0018 0AD0     		beq	.L44
 634              		.loc 1 300 0
 635 001a 6FF00105 		mvn	r5, #1
 636              	.L47:
 637              	.LVL48:
 638              	.LBB27:
 639              	.LBB28:
 640              		.loc 2 62 0
 641 001e 0268     		ldr	r2, [r0, #0]
 642 0020 2260     		str	r2, [r4, #0]
 643 0022 5460     		str	r4, [r2, #4]
 644              	.LBE28:
 645              	.LBE27:
 646              		.loc 1 300 0
 647 0024 FFF7FEFF 		bl	chSchReadyI
 648              	.LVL49:
 649 0028 8562     		str	r5, [r0, #40]
 650              		.loc 1 299 0
 651 002a 2068     		ldr	r0, [r4, #0]
 652 002c A042     		cmp	r0, r4
 653 002e F6D1     		bne	.L47
 654              	.LVL50:
 655              	.L44:
 656 0030 38BD     		pop	{r3, r4, r5, pc}
 657              		.cfi_endproc
 658              	.LFE14:
 659              		.size	chOQResetI, .-chOQResetI
 660 0032 00BFAFF3 		.section	.text.chOQPutTimeout,"ax",%progbits
 660      0080AFF3 
 660      0080AFF3 
 660      0080
 661              		.align	2
 662              		.p2align 4,,15
 663              		.global	chOQPutTimeout
 664              		.thumb
 665              		.thumb_func
 666              		.type	chOQPutTimeout, %function
 667              	chOQPutTimeout:
 668              	.LFB15:
 669              		.loc 1 325 0
 670              		.cfi_startproc
 671              		@ args = 0, pretend = 0, frame = 0
 672              		@ frame_needed = 0, uses_anonymous_args = 0
ARM GAS  /tmp/cc1Wnpol.s 			page 13


 673              	.LVL51:
 674 0000 2DE9F041 		push	{r4, r5, r6, r7, r8, lr}
 675              	.LCFI8:
 676              		.cfi_def_cfa_offset 24
 677              	.LBB29:
 678              		.loc 1 327 0
 679 0004 2023     		movs	r3, #32
 680              	.LVL52:
 681              	.LBE29:
 682              		.loc 1 325 0
 683 0006 0446     		mov	r4, r0
 684              		.cfi_offset 14, -4
 685              		.cfi_offset 8, -8
 686              		.cfi_offset 7, -12
 687              		.cfi_offset 6, -16
 688              		.cfi_offset 5, -20
 689              		.cfi_offset 4, -24
 690 0008 0D46     		mov	r5, r1
 691 000a 1646     		mov	r6, r2
 692              	.LBB30:
 693              		.loc 1 327 0
 694              	@ 327 "../chibios_2.4.x/os/kernel/src/chqueues.c" 1
 695 000c 83F31188 		msr     BASEPRI, r3
 696              	@ 0 "" 2
 697              	.LVL53:
 698              		.thumb
 699              	.LBE30:
 700 0010 FFF7FEFF 		bl	dbg_check_lock
 701              	.LVL54:
 702              	.L50:
 703              		.loc 1 328 0 discriminator 1
 704 0014 A768     		ldr	r7, [r4, #8]
 705              	.LBB31:
 706              		.loc 1 331 0 discriminator 1
 707 0016 2046     		mov	r0, r4
 708 0018 3146     		mov	r1, r6
 709              	.LBE31:
 710              		.loc 1 328 0 discriminator 1
 711 001a 67B9     		cbnz	r7, .L56
 712              	.LBB33:
 713              		.loc 1 331 0
 714 001c FFF7FEFF 		bl	qwait
 715              	.LVL55:
 716 0020 B0F10008 		subs	r8, r0, #0
 717 0024 F6DA     		bge	.L50
 718              		.loc 1 332 0
 719 0026 FFF7FEFF 		bl	dbg_check_unlock
 720              	.LVL56:
 721              	.LBB32:
 722 002a 3B46     		mov	r3, r7
 723              	.LVL57:
 724              	@ 332 "../chibios_2.4.x/os/kernel/src/chqueues.c" 1
 725 002c 83F31188 		msr     BASEPRI, r3
 726              	@ 0 "" 2
 727              	.LVL58:
 728              		.thumb
 729              	.LBE32:
ARM GAS  /tmp/cc1Wnpol.s 			page 14


 730              	.LBE33:
 731              		.loc 1 347 0
 732 0030 4046     		mov	r0, r8
 733 0032 BDE8F081 		pop	{r4, r5, r6, r7, r8, pc}
 734              	.LVL59:
 735              	.L56:
 736              		.loc 1 338 0
 737 0036 6369     		ldr	r3, [r4, #20]
 738              		.loc 1 337 0
 739 0038 013F     		subs	r7, r7, #1
 740 003a A760     		str	r7, [r4, #8]
 741              		.loc 1 338 0
 742 003c 03F8015B 		strb	r5, [r3], #1
 743              		.loc 1 339 0
 744 0040 2269     		ldr	r2, [r4, #16]
 745              		.loc 1 338 0
 746 0042 6361     		str	r3, [r4, #20]
 747              		.loc 1 339 0
 748 0044 9342     		cmp	r3, r2
 749              		.loc 1 340 0
 750 0046 24BF     		itt	cs
 751 0048 E368     		ldrcs	r3, [r4, #12]
 752 004a 6361     		strcs	r3, [r4, #20]
 753              		.loc 1 342 0
 754 004c E369     		ldr	r3, [r4, #28]
 755 004e 0BB1     		cbz	r3, .L54
 756              		.loc 1 343 0
 757 0050 2046     		mov	r0, r4
 758 0052 9847     		blx	r3
 759              	.L54:
 760              		.loc 1 345 0
 761 0054 FFF7FEFF 		bl	dbg_check_unlock
 762              	.LBB34:
 763 0058 0023     		movs	r3, #0
 764              	.LVL60:
 765              	@ 345 "../chibios_2.4.x/os/kernel/src/chqueues.c" 1
 766 005a 83F31188 		msr     BASEPRI, r3
 767              	@ 0 "" 2
 768              	.LVL61:
 769              		.thumb
 770              	.LBE34:
 771              		.loc 1 346 0
 772 005e 9846     		mov	r8, r3
 773              		.loc 1 347 0
 774 0060 4046     		mov	r0, r8
 775 0062 BDE8F081 		pop	{r4, r5, r6, r7, r8, pc}
 776              		.cfi_endproc
 777              	.LFE15:
 778              		.size	chOQPutTimeout, .-chOQPutTimeout
 779 0066 00BFAFF3 		.section	.text.chOQGetI,"ax",%progbits
 779      0080AFF3 
 779      0080
 780              		.align	2
 781              		.p2align 4,,15
 782              		.global	chOQGetI
 783              		.thumb
 784              		.thumb_func
ARM GAS  /tmp/cc1Wnpol.s 			page 15


 785              		.type	chOQGetI, %function
 786              	chOQGetI:
 787              	.LFB16:
 788              		.loc 1 359 0
 789              		.cfi_startproc
 790              		@ args = 0, pretend = 0, frame = 0
 791              		@ frame_needed = 0, uses_anonymous_args = 0
 792              	.LVL62:
 793 0000 38B5     		push	{r3, r4, r5, lr}
 794              	.LCFI9:
 795              		.cfi_def_cfa_offset 16
 796              		.loc 1 359 0
 797 0002 0446     		mov	r4, r0
 798              		.cfi_offset 14, -4
 799              		.cfi_offset 5, -8
 800              		.cfi_offset 4, -12
 801              		.cfi_offset 3, -16
 802              		.loc 1 362 0
 803 0004 FFF7FEFF 		bl	chDbgCheckClassI
 804              	.LVL63:
 805              		.loc 1 364 0
 806 0008 A369     		ldr	r3, [r4, #24]
 807 000a 6269     		ldr	r2, [r4, #20]
 808 000c 9A42     		cmp	r2, r3
 809 000e 17D0     		beq	.L58
 810 0010 A268     		ldr	r2, [r4, #8]
 811              	.L59:
 812              		.loc 1 367 0
 813 0012 511C     		adds	r1, r2, #1
 814 0014 A160     		str	r1, [r4, #8]
 815              		.loc 1 368 0
 816 0016 13F8015B 		ldrb	r5, [r3], #1	@ zero_extendqisi2
 817              	.LVL64:
 818              		.loc 1 369 0
 819 001a 2069     		ldr	r0, [r4, #16]
 820              		.loc 1 368 0
 821 001c A361     		str	r3, [r4, #24]
 822              		.loc 1 369 0
 823 001e 8342     		cmp	r3, r0
 824              		.loc 1 370 0
 825 0020 28BF     		it	cs
 826 0022 E368     		ldrcs	r3, [r4, #12]
 827              		.loc 1 372 0
 828 0024 2068     		ldr	r0, [r4, #0]
 829              		.loc 1 370 0
 830 0026 28BF     		it	cs
 831 0028 A361     		strcs	r3, [r4, #24]
 832              		.loc 1 372 0
 833 002a A042     		cmp	r0, r4
 834 002c 06D0     		beq	.L62
 835              	.LVL65:
 836              	.LBB35:
 837              	.LBB36:
 838              		.loc 2 62 0
 839 002e 0268     		ldr	r2, [r0, #0]
 840 0030 2260     		str	r2, [r4, #0]
 841 0032 5460     		str	r4, [r2, #4]
ARM GAS  /tmp/cc1Wnpol.s 			page 16


 842              	.LBE36:
 843              	.LBE35:
 844              		.loc 1 373 0
 845 0034 FFF7FEFF 		bl	chSchReadyI
 846              	.LVL66:
 847 0038 0023     		movs	r3, #0
 848 003a 8362     		str	r3, [r0, #40]
 849              	.LVL67:
 850              	.L62:
 851              		.loc 1 375 0
 852 003c 2846     		mov	r0, r5
 853 003e 38BD     		pop	{r3, r4, r5, pc}
 854              	.LVL68:
 855              	.L58:
 856              		.loc 1 364 0 discriminator 1
 857 0040 A268     		ldr	r2, [r4, #8]
 858 0042 002A     		cmp	r2, #0
 859 0044 E5D0     		beq	.L59
 860              		.loc 1 365 0
 861 0046 6FF00200 		mvn	r0, #2
 862              		.loc 1 376 0
 863 004a 38BD     		pop	{r3, r4, r5, pc}
 864              		.cfi_endproc
 865              	.LFE16:
 866              		.size	chOQGetI, .-chOQGetI
 867 004c AFF30080 		.section	.text.chOQWriteTimeout,"ax",%progbits
 868              		.align	2
 869              		.p2align 4,,15
 870              		.global	chOQWriteTimeout
 871              		.thumb
 872              		.thumb_func
 873              		.type	chOQWriteTimeout, %function
 874              	chOQWriteTimeout:
 875              	.LFB17:
 876              		.loc 1 403 0
 877              		.cfi_startproc
 878              		@ args = 0, pretend = 0, frame = 0
 879              		@ frame_needed = 0, uses_anonymous_args = 0
 880              	.LVL69:
 881 0000 2DE9F047 		push	{r4, r5, r6, r7, r8, r9, sl, lr}
 882              	.LCFI10:
 883              		.cfi_def_cfa_offset 32
 884              		.loc 1 403 0
 885 0004 0446     		mov	r4, r0
 886              		.cfi_offset 14, -4
 887              		.cfi_offset 10, -8
 888              		.cfi_offset 9, -12
 889              		.cfi_offset 8, -16
 890              		.cfi_offset 7, -20
 891              		.cfi_offset 6, -24
 892              		.cfi_offset 5, -28
 893              		.cfi_offset 4, -32
 894              		.loc 1 407 0
 895 0006 1546     		mov	r5, r2
 896              		.loc 1 403 0
 897 0008 0E46     		mov	r6, r1
 898 000a 9946     		mov	r9, r3
ARM GAS  /tmp/cc1Wnpol.s 			page 17


 899              		.loc 1 404 0
 900 000c D0F81C80 		ldr	r8, [r0, #28]
 901              	.LVL70:
 902              		.loc 1 407 0
 903 0010 002A     		cmp	r2, #0
 904 0012 40D0     		beq	.L75
 905              	.LVL71:
 906              	.L65:
 907              	.LBB37:
 908              		.loc 1 409 0
 909 0014 2023     		movs	r3, #32
 910              	.LVL72:
 911              	@ 409 "../chibios_2.4.x/os/kernel/src/chqueues.c" 1
 912 0016 83F31188 		msr     BASEPRI, r3
 913              	@ 0 "" 2
 914              	.LVL73:
 915              		.thumb
 916              	.LBE37:
 917 001a FFF7FEFF 		bl	dbg_check_lock
 918              	.LVL74:
 919              		.loc 1 405 0
 920 001e 0027     		movs	r7, #0
 921              	.LVL75:
 922              	.L74:
 923              		.loc 1 411 0 discriminator 1
 924 0020 D4F808A0 		ldr	sl, [r4, #8]
 925              		.loc 1 423 0 discriminator 1
 926 0024 2046     		mov	r0, r4
 927              		.loc 1 417 0 discriminator 1
 928 0026 0AF1FF33 		add	r3, sl, #-1
 929              		.loc 1 411 0 discriminator 1
 930 002a BAF1000F 		cmp	sl, #0
 931 002e 24D0     		beq	.L69
 932              	.L76:
 933              		.loc 1 417 0
 934 0030 A360     		str	r3, [r4, #8]
 935              		.loc 1 418 0
 936 0032 3178     		ldrb	r1, [r6, #0]	@ zero_extendqisi2
 937 0034 6369     		ldr	r3, [r4, #20]
 938 0036 03F8011B 		strb	r1, [r3], #1
 939              		.loc 1 419 0
 940 003a 2269     		ldr	r2, [r4, #16]
 941              		.loc 1 418 0
 942 003c 6361     		str	r3, [r4, #20]
 943              	.LVL76:
 944              		.loc 1 419 0
 945 003e 9342     		cmp	r3, r2
 946              		.loc 1 420 0
 947 0040 24BF     		itt	cs
 948 0042 E368     		ldrcs	r3, [r4, #12]
 949 0044 6361     		strcs	r3, [r4, #20]
 950              		.loc 1 422 0
 951 0046 B8F1000F 		cmp	r8, #0
 952 004a 00D0     		beq	.L71
 953              		.loc 1 423 0
 954 004c C047     		blx	r8
 955              	.L71:
ARM GAS  /tmp/cc1Wnpol.s 			page 18


 956              		.loc 1 425 0
 957 004e FFF7FEFF 		bl	dbg_check_unlock
 958              	.LBB38:
 959 0052 0023     		movs	r3, #0
 960              	.LVL77:
 961              	@ 425 "../chibios_2.4.x/os/kernel/src/chqueues.c" 1
 962 0054 83F31188 		msr     BASEPRI, r3
 963              	@ 0 "" 2
 964              	.LVL78:
 965              		.thumb
 966              	.LBE38:
 967              		.loc 1 426 0
 968 0058 0137     		adds	r7, r7, #1
 969              	.LVL79:
 970              		.loc 1 427 0
 971 005a 013D     		subs	r5, r5, #1
 972              	.LVL80:
 973 005c 18D0     		beq	.L68
 974              		.loc 1 418 0
 975 005e 0136     		adds	r6, r6, #1
 976              	.LVL81:
 977              	.LBB39:
 978              		.loc 1 429 0
 979 0060 2023     		movs	r3, #32
 980              	.LVL82:
 981              	@ 429 "../chibios_2.4.x/os/kernel/src/chqueues.c" 1
 982 0062 83F31188 		msr     BASEPRI, r3
 983              	@ 0 "" 2
 984              	.LVL83:
 985              		.thumb
 986              	.LBE39:
 987 0066 FFF7FEFF 		bl	dbg_check_lock
 988              	.LVL84:
 989              		.loc 1 411 0
 990 006a D4F808A0 		ldr	sl, [r4, #8]
 991              		.loc 1 423 0
 992 006e 2046     		mov	r0, r4
 993              		.loc 1 417 0
 994 0070 0AF1FF33 		add	r3, sl, #-1
 995              		.loc 1 411 0
 996 0074 BAF1000F 		cmp	sl, #0
 997 0078 DAD1     		bne	.L76
 998              	.L69:
 999              		.loc 1 412 0
 1000 007a 2046     		mov	r0, r4
 1001 007c 4946     		mov	r1, r9
 1002 007e FFF7FEFF 		bl	qwait
 1003 0082 0028     		cmp	r0, #0
 1004 0084 CCD0     		beq	.L74
 1005              		.loc 1 413 0
 1006 0086 FFF7FEFF 		bl	dbg_check_unlock
 1007              	.LBB40:
 1008 008a 5346     		mov	r3, sl
 1009              	.LVL85:
 1010              	@ 413 "../chibios_2.4.x/os/kernel/src/chqueues.c" 1
 1011 008c 83F31188 		msr     BASEPRI, r3
 1012              	@ 0 "" 2
ARM GAS  /tmp/cc1Wnpol.s 			page 19


 1013              	.LVL86:
 1014              		.thumb
 1015              	.L68:
 1016              	.LBE40:
 1017              		.loc 1 431 0
 1018 0090 3846     		mov	r0, r7
 1019 0092 BDE8F087 		pop	{r4, r5, r6, r7, r8, r9, sl, pc}
 1020              	.LVL87:
 1021              	.L75:
 1022              		.loc 1 407 0 discriminator 1
 1023 0096 0248     		ldr	r0, .L77
 1024 0098 FFF7FEFF 		bl	chDbgPanic
 1025              	.LVL88:
 1026 009c BAE7     		b	.L65
 1027              	.L78:
 1028 009e 00BF     		.align	2
 1029              	.L77:
 1030 00a0 14000000 		.word	.LC1
 1031              		.cfi_endproc
 1032              	.LFE17:
 1033              		.size	chOQWriteTimeout, .-chOQWriteTimeout
 1034 00a4 AFF30080 		.section	.rodata.str1.4,"aMS",%progbits,1
 1034      AFF30080 
 1034      AFF30080 
 1035              		.align	2
 1036              	.LC0:
 1037 0000 22636849 		.ascii	"\"chIQReadTimeout\"()\000"
 1037      51526561 
 1037      6454696D 
 1037      656F7574 
 1037      22282900 
 1038              	.LC1:
 1039 0014 2263684F 		.ascii	"\"chOQWriteTimeout\"()\000"
 1039      51577269 
 1039      74655469 
 1039      6D656F75 
 1039      74222829 
 1040 0029 000000   		.text
 1041              	.Letext0:
 1042              		.section	.debug_loc,"",%progbits
 1043              	.Ldebug_loc0:
 1044              	.LLST0:
 1045 0000 00000000 		.4byte	.LFB7
 1046 0004 02000000 		.4byte	.LCFI0
 1047 0008 0200     		.2byte	0x2
 1048 000a 7D       		.byte	0x7d
 1049 000b 00       		.sleb128 0
 1050 000c 02000000 		.4byte	.LCFI0
 1051 0010 2C000000 		.4byte	.LFE7
 1052 0014 0200     		.2byte	0x2
 1053 0016 7D       		.byte	0x7d
 1054 0017 04       		.sleb128 4
 1055 0018 00000000 		.4byte	0x0
 1056 001c 00000000 		.4byte	0x0
 1057              	.LLST1:
 1058 0020 00000000 		.4byte	.LVL0
 1059 0024 0A000000 		.4byte	.LVL1
ARM GAS  /tmp/cc1Wnpol.s 			page 20


 1060 0028 0100     		.2byte	0x1
 1061 002a 50       		.byte	0x50
 1062 002b 0A000000 		.4byte	.LVL1
 1063 002f 25000000 		.4byte	.LVL4-1
 1064 0033 0100     		.2byte	0x1
 1065 0035 53       		.byte	0x53
 1066 0036 00000000 		.4byte	0x0
 1067 003a 00000000 		.4byte	0x0
 1068              	.LLST2:
 1069 003e 00000000 		.4byte	.LVL0
 1070 0042 25000000 		.4byte	.LVL4-1
 1071 0046 0100     		.2byte	0x1
 1072 0048 51       		.byte	0x51
 1073 0049 00000000 		.4byte	0x0
 1074 004d 00000000 		.4byte	0x0
 1075              	.LLST3:
 1076 0051 16000000 		.4byte	.LVL2
 1077 0055 25000000 		.4byte	.LVL4-1
 1078 0059 0100     		.2byte	0x1
 1079 005b 53       		.byte	0x53
 1080 005c 00000000 		.4byte	0x0
 1081 0060 00000000 		.4byte	0x0
 1082              	.LLST4:
 1083 0064 16000000 		.4byte	.LVL2
 1084 0068 18000000 		.4byte	.LVL3
 1085 006c 0200     		.2byte	0x2
 1086 006e 74       		.byte	0x74
 1087 006f 1C       		.sleb128 28
 1088 0070 00000000 		.4byte	0x0
 1089 0074 00000000 		.4byte	0x0
 1090              	.LLST5:
 1091 0078 00000000 		.4byte	.LFB8
 1092 007c 02000000 		.4byte	.LCFI1
 1093 0080 0200     		.2byte	0x2
 1094 0082 7D       		.byte	0x7d
 1095 0083 00       		.sleb128 0
 1096 0084 02000000 		.4byte	.LCFI1
 1097 0088 1A000000 		.4byte	.LFE8
 1098 008c 0200     		.2byte	0x2
 1099 008e 7D       		.byte	0x7d
 1100 008f 04       		.sleb128 4
 1101 0090 00000000 		.4byte	0x0
 1102 0094 00000000 		.4byte	0x0
 1103              	.LLST6:
 1104 0098 00000000 		.4byte	.LVL5
 1105 009c 04000000 		.4byte	.LVL6
 1106 00a0 0100     		.2byte	0x1
 1107 00a2 52       		.byte	0x52
 1108 00a3 00000000 		.4byte	0x0
 1109 00a7 00000000 		.4byte	0x0
 1110              	.LLST7:
 1111 00ab 00000000 		.4byte	.LFB9
 1112 00af 02000000 		.4byte	.LCFI2
 1113 00b3 0200     		.2byte	0x2
 1114 00b5 7D       		.byte	0x7d
 1115 00b6 00       		.sleb128 0
 1116 00b7 02000000 		.4byte	.LCFI2
ARM GAS  /tmp/cc1Wnpol.s 			page 21


 1117 00bb 30000000 		.4byte	.LFE9
 1118 00bf 0200     		.2byte	0x2
 1119 00c1 7D       		.byte	0x7d
 1120 00c2 10       		.sleb128 16
 1121 00c3 00000000 		.4byte	0x0
 1122 00c7 00000000 		.4byte	0x0
 1123              	.LLST8:
 1124 00cb 00000000 		.4byte	.LVL7
 1125 00cf 07000000 		.4byte	.LVL8-1
 1126 00d3 0100     		.2byte	0x1
 1127 00d5 50       		.byte	0x50
 1128 00d6 07000000 		.4byte	.LVL8-1
 1129 00da 30000000 		.4byte	.LFE9
 1130 00de 0100     		.2byte	0x1
 1131 00e0 54       		.byte	0x54
 1132 00e1 00000000 		.4byte	0x0
 1133 00e5 00000000 		.4byte	0x0
 1134              	.LLST9:
 1135 00e9 1C000000 		.4byte	.LVL9
 1136 00ed 2E000000 		.4byte	.LVL11
 1137 00f1 0100     		.2byte	0x1
 1138 00f3 54       		.byte	0x54
 1139 00f4 00000000 		.4byte	0x0
 1140 00f8 00000000 		.4byte	0x0
 1141              	.LLST10:
 1142 00fc 1C000000 		.4byte	.LVL9
 1143 0100 25000000 		.4byte	.LVL10-1
 1144 0104 0100     		.2byte	0x1
 1145 0106 50       		.byte	0x50
 1146 0107 00000000 		.4byte	0x0
 1147 010b 00000000 		.4byte	0x0
 1148              	.LLST11:
 1149 010f 00000000 		.4byte	.LFB10
 1150 0113 02000000 		.4byte	.LCFI3
 1151 0117 0200     		.2byte	0x2
 1152 0119 7D       		.byte	0x7d
 1153 011a 00       		.sleb128 0
 1154 011b 02000000 		.4byte	.LCFI3
 1155 011f 52000000 		.4byte	.LFE10
 1156 0123 0200     		.2byte	0x2
 1157 0125 7D       		.byte	0x7d
 1158 0126 10       		.sleb128 16
 1159 0127 00000000 		.4byte	0x0
 1160 012b 00000000 		.4byte	0x0
 1161              	.LLST12:
 1162 012f 00000000 		.4byte	.LVL12
 1163 0133 09000000 		.4byte	.LVL13-1
 1164 0137 0100     		.2byte	0x1
 1165 0139 50       		.byte	0x50
 1166 013a 09000000 		.4byte	.LVL13-1
 1167 013e 52000000 		.4byte	.LFE10
 1168 0142 0100     		.2byte	0x1
 1169 0144 54       		.byte	0x54
 1170 0145 00000000 		.4byte	0x0
 1171 0149 00000000 		.4byte	0x0
 1172              	.LLST13:
 1173 014d 00000000 		.4byte	.LVL12
ARM GAS  /tmp/cc1Wnpol.s 			page 22


 1174 0151 09000000 		.4byte	.LVL13-1
 1175 0155 0100     		.2byte	0x1
 1176 0157 51       		.byte	0x51
 1177 0158 00000000 		.4byte	0x0
 1178 015c 00000000 		.4byte	0x0
 1179              	.LLST14:
 1180 0160 30000000 		.4byte	.LVL14
 1181 0164 42000000 		.4byte	.LVL16
 1182 0168 0100     		.2byte	0x1
 1183 016a 54       		.byte	0x54
 1184 016b 00000000 		.4byte	0x0
 1185 016f 00000000 		.4byte	0x0
 1186              	.LLST15:
 1187 0173 30000000 		.4byte	.LVL14
 1188 0177 39000000 		.4byte	.LVL15-1
 1189 017b 0200     		.2byte	0x2
 1190 017d 74       		.byte	0x74
 1191 017e 00       		.sleb128 0
 1192 017f 00000000 		.4byte	0x0
 1193 0183 00000000 		.4byte	0x0
 1194              	.LLST16:
 1195 0187 00000000 		.4byte	.LFB11
 1196 018b 02000000 		.4byte	.LCFI4
 1197 018f 0200     		.2byte	0x2
 1198 0191 7D       		.byte	0x7d
 1199 0192 00       		.sleb128 0
 1200 0193 02000000 		.4byte	.LCFI4
 1201 0197 5A000000 		.4byte	.LFE11
 1202 019b 0200     		.2byte	0x2
 1203 019d 7D       		.byte	0x7d
 1204 019e 18       		.sleb128 24
 1205 019f 00000000 		.4byte	0x0
 1206 01a3 00000000 		.4byte	0x0
 1207              	.LLST17:
 1208 01a7 00000000 		.4byte	.LVL17
 1209 01ab 0F000000 		.4byte	.LVL20-1
 1210 01af 0100     		.2byte	0x1
 1211 01b1 50       		.byte	0x50
 1212 01b2 0F000000 		.4byte	.LVL20-1
 1213 01b6 5A000000 		.4byte	.LFE11
 1214 01ba 0100     		.2byte	0x1
 1215 01bc 54       		.byte	0x54
 1216 01bd 00000000 		.4byte	0x0
 1217 01c1 00000000 		.4byte	0x0
 1218              	.LLST18:
 1219 01c5 00000000 		.4byte	.LVL17
 1220 01c9 0F000000 		.4byte	.LVL20-1
 1221 01cd 0100     		.2byte	0x1
 1222 01cf 51       		.byte	0x51
 1223 01d0 0F000000 		.4byte	.LVL20-1
 1224 01d4 5A000000 		.4byte	.LFE11
 1225 01d8 0100     		.2byte	0x1
 1226 01da 55       		.byte	0x55
 1227 01db 00000000 		.4byte	0x0
 1228 01df 00000000 		.4byte	0x0
 1229              	.LLST19:
 1230 01e3 0C000000 		.4byte	.LVL19
ARM GAS  /tmp/cc1Wnpol.s 			page 23


 1231 01e7 0F000000 		.4byte	.LVL20-1
 1232 01eb 0100     		.2byte	0x1
 1233 01ed 53       		.byte	0x53
 1234 01ee 00000000 		.4byte	0x0
 1235 01f2 00000000 		.4byte	0x0
 1236              	.LLST20:
 1237 01f6 24000000 		.4byte	.LVL21
 1238 01fa 2B000000 		.4byte	.LVL22-1
 1239 01fe 0100     		.2byte	0x1
 1240 0200 50       		.byte	0x50
 1241 0201 2B000000 		.4byte	.LVL22-1
 1242 0205 36000000 		.4byte	.LVL25
 1243 0209 0100     		.2byte	0x1
 1244 020b 57       		.byte	0x57
 1245 020c 00000000 		.4byte	0x0
 1246 0210 00000000 		.4byte	0x0
 1247              	.LLST21:
 1248 0214 32000000 		.4byte	.LVL24
 1249 0218 36000000 		.4byte	.LVL25
 1250 021c 0100     		.2byte	0x1
 1251 021e 53       		.byte	0x53
 1252 021f 00000000 		.4byte	0x0
 1253 0223 00000000 		.4byte	0x0
 1254              	.LLST22:
 1255 0227 56000000 		.4byte	.LVL28
 1256 022b 5A000000 		.4byte	.LFE11
 1257 022f 0100     		.2byte	0x1
 1258 0231 53       		.byte	0x53
 1259 0232 00000000 		.4byte	0x0
 1260 0236 00000000 		.4byte	0x0
 1261              	.LLST23:
 1262 023a 00000000 		.4byte	.LFB12
 1263 023e 04000000 		.4byte	.LCFI5
 1264 0242 0200     		.2byte	0x2
 1265 0244 7D       		.byte	0x7d
 1266 0245 00       		.sleb128 0
 1267 0246 04000000 		.4byte	.LCFI5
 1268 024a 90000000 		.4byte	.LFE12
 1269 024e 0200     		.2byte	0x2
 1270 0250 7D       		.byte	0x7d
 1271 0251 20       		.sleb128 32
 1272 0252 00000000 		.4byte	0x0
 1273 0256 00000000 		.4byte	0x0
 1274              	.LLST24:
 1275 025a 00000000 		.4byte	.LVL29
 1276 025e 12000000 		.4byte	.LVL31
 1277 0262 0100     		.2byte	0x1
 1278 0264 50       		.byte	0x50
 1279 0265 12000000 		.4byte	.LVL31
 1280 0269 90000000 		.4byte	.LFE12
 1281 026d 0100     		.2byte	0x1
 1282 026f 54       		.byte	0x54
 1283 0270 00000000 		.4byte	0x0
 1284 0274 00000000 		.4byte	0x0
 1285              	.LLST25:
 1286 0278 00000000 		.4byte	.LVL29
 1287 027c 12000000 		.4byte	.LVL31
ARM GAS  /tmp/cc1Wnpol.s 			page 24


 1288 0280 0100     		.2byte	0x1
 1289 0282 51       		.byte	0x51
 1290 0283 12000000 		.4byte	.LVL31
 1291 0287 1E000000 		.4byte	.LVL35
 1292 028b 0100     		.2byte	0x1
 1293 028d 59       		.byte	0x59
 1294 028e 82000000 		.4byte	.LVL44
 1295 0292 90000000 		.4byte	.LFE12
 1296 0296 0100     		.2byte	0x1
 1297 0298 59       		.byte	0x59
 1298 0299 00000000 		.4byte	0x0
 1299 029d 00000000 		.4byte	0x0
 1300              	.LLST26:
 1301 02a1 00000000 		.4byte	.LVL29
 1302 02a5 12000000 		.4byte	.LVL31
 1303 02a9 0100     		.2byte	0x1
 1304 02ab 52       		.byte	0x52
 1305 02ac 12000000 		.4byte	.LVL31
 1306 02b0 1E000000 		.4byte	.LVL35
 1307 02b4 0100     		.2byte	0x1
 1308 02b6 58       		.byte	0x58
 1309 02b7 82000000 		.4byte	.LVL44
 1310 02bb 90000000 		.4byte	.LFE12
 1311 02bf 0100     		.2byte	0x1
 1312 02c1 58       		.byte	0x58
 1313 02c2 00000000 		.4byte	0x0
 1314 02c6 00000000 		.4byte	0x0
 1315              	.LLST27:
 1316 02ca 00000000 		.4byte	.LVL29
 1317 02ce 12000000 		.4byte	.LVL31
 1318 02d2 0100     		.2byte	0x1
 1319 02d4 53       		.byte	0x53
 1320 02d5 12000000 		.4byte	.LVL31
 1321 02d9 90000000 		.4byte	.LFE12
 1322 02dd 0100     		.2byte	0x1
 1323 02df 55       		.byte	0x55
 1324 02e0 00000000 		.4byte	0x0
 1325 02e4 00000000 		.4byte	0x0
 1326              	.LLST28:
 1327 02e8 0E000000 		.4byte	.LVL30
 1328 02ec 12000000 		.4byte	.LVL31
 1329 02f0 0200     		.2byte	0x2
 1330 02f2 70       		.byte	0x70
 1331 02f3 1C       		.sleb128 28
 1332 02f4 12000000 		.4byte	.LVL31
 1333 02f8 90000000 		.4byte	.LFE12
 1334 02fc 0100     		.2byte	0x1
 1335 02fe 57       		.byte	0x57
 1336 02ff 00000000 		.4byte	0x0
 1337 0303 00000000 		.4byte	0x0
 1338              	.LLST29:
 1339 0307 0E000000 		.4byte	.LVL30
 1340 030b 1E000000 		.4byte	.LVL35
 1341 030f 0200     		.2byte	0x2
 1342 0311 30       		.byte	0x30
 1343 0312 9F       		.byte	0x9f
 1344 0313 1E000000 		.4byte	.LVL35
ARM GAS  /tmp/cc1Wnpol.s 			page 25


 1345 0317 72000000 		.4byte	.LVL40
 1346 031b 0100     		.2byte	0x1
 1347 031d 56       		.byte	0x56
 1348 031e 72000000 		.4byte	.LVL40
 1349 0322 82000000 		.4byte	.LVL44
 1350 0326 0100     		.2byte	0x1
 1351 0328 56       		.byte	0x56
 1352 0329 82000000 		.4byte	.LVL44
 1353 032d 90000000 		.4byte	.LFE12
 1354 0331 0200     		.2byte	0x2
 1355 0333 30       		.byte	0x30
 1356 0334 9F       		.byte	0x9f
 1357 0335 00000000 		.4byte	0x0
 1358 0339 00000000 		.4byte	0x0
 1359              	.LLST30:
 1360 033d 18000000 		.4byte	.LVL33
 1361 0341 1B000000 		.4byte	.LVL34-1
 1362 0345 0100     		.2byte	0x1
 1363 0347 53       		.byte	0x53
 1364 0348 00000000 		.4byte	0x0
 1365 034c 00000000 		.4byte	0x0
 1366              	.LLST31:
 1367 0350 44000000 		.4byte	.LVL37
 1368 0354 4A000000 		.4byte	.LVL38
 1369 0358 0100     		.2byte	0x1
 1370 035a 53       		.byte	0x53
 1371 035b 00000000 		.4byte	0x0
 1372 035f 00000000 		.4byte	0x0
 1373              	.LLST32:
 1374 0363 44000000 		.4byte	.LVL37
 1375 0367 4A000000 		.4byte	.LVL38
 1376 036b 0100     		.2byte	0x1
 1377 036d 53       		.byte	0x53
 1378 036e 70000000 		.4byte	.LVL39
 1379 0372 78000000 		.4byte	.LVL41
 1380 0376 0100     		.2byte	0x1
 1381 0378 53       		.byte	0x53
 1382 0379 00000000 		.4byte	0x0
 1383 037d 00000000 		.4byte	0x0
 1384              	.LLST33:
 1385 0381 7C000000 		.4byte	.LVL42
 1386 0385 7F000000 		.4byte	.LVL43-1
 1387 0389 0100     		.2byte	0x1
 1388 038b 53       		.byte	0x53
 1389 038c 00000000 		.4byte	0x0
 1390 0390 00000000 		.4byte	0x0
 1391              	.LLST34:
 1392 0394 00000000 		.4byte	.LFB13
 1393 0398 02000000 		.4byte	.LCFI6
 1394 039c 0200     		.2byte	0x2
 1395 039e 7D       		.byte	0x7d
 1396 039f 00       		.sleb128 0
 1397 03a0 02000000 		.4byte	.LCFI6
 1398 03a4 18000000 		.4byte	.LFE13
 1399 03a8 0200     		.2byte	0x2
 1400 03aa 7D       		.byte	0x7d
 1401 03ab 04       		.sleb128 4
ARM GAS  /tmp/cc1Wnpol.s 			page 26


 1402 03ac 00000000 		.4byte	0x0
 1403 03b0 00000000 		.4byte	0x0
 1404              	.LLST35:
 1405 03b4 00000000 		.4byte	.LFB14
 1406 03b8 02000000 		.4byte	.LCFI7
 1407 03bc 0200     		.2byte	0x2
 1408 03be 7D       		.byte	0x7d
 1409 03bf 00       		.sleb128 0
 1410 03c0 02000000 		.4byte	.LCFI7
 1411 03c4 32000000 		.4byte	.LFE14
 1412 03c8 0200     		.2byte	0x2
 1413 03ca 7D       		.byte	0x7d
 1414 03cb 10       		.sleb128 16
 1415 03cc 00000000 		.4byte	0x0
 1416 03d0 00000000 		.4byte	0x0
 1417              	.LLST36:
 1418 03d4 00000000 		.4byte	.LVL46
 1419 03d8 07000000 		.4byte	.LVL47-1
 1420 03dc 0100     		.2byte	0x1
 1421 03de 50       		.byte	0x50
 1422 03df 07000000 		.4byte	.LVL47-1
 1423 03e3 32000000 		.4byte	.LFE14
 1424 03e7 0100     		.2byte	0x1
 1425 03e9 54       		.byte	0x54
 1426 03ea 00000000 		.4byte	0x0
 1427 03ee 00000000 		.4byte	0x0
 1428              	.LLST37:
 1429 03f2 1E000000 		.4byte	.LVL48
 1430 03f6 30000000 		.4byte	.LVL50
 1431 03fa 0100     		.2byte	0x1
 1432 03fc 54       		.byte	0x54
 1433 03fd 00000000 		.4byte	0x0
 1434 0401 00000000 		.4byte	0x0
 1435              	.LLST38:
 1436 0405 1E000000 		.4byte	.LVL48
 1437 0409 27000000 		.4byte	.LVL49-1
 1438 040d 0100     		.2byte	0x1
 1439 040f 50       		.byte	0x50
 1440 0410 00000000 		.4byte	0x0
 1441 0414 00000000 		.4byte	0x0
 1442              	.LLST39:
 1443 0418 00000000 		.4byte	.LFB15
 1444 041c 04000000 		.4byte	.LCFI8
 1445 0420 0200     		.2byte	0x2
 1446 0422 7D       		.byte	0x7d
 1447 0423 00       		.sleb128 0
 1448 0424 04000000 		.4byte	.LCFI8
 1449 0428 66000000 		.4byte	.LFE15
 1450 042c 0200     		.2byte	0x2
 1451 042e 7D       		.byte	0x7d
 1452 042f 18       		.sleb128 24
 1453 0430 00000000 		.4byte	0x0
 1454 0434 00000000 		.4byte	0x0
 1455              	.LLST40:
 1456 0438 00000000 		.4byte	.LVL51
 1457 043c 13000000 		.4byte	.LVL54-1
 1458 0440 0100     		.2byte	0x1
ARM GAS  /tmp/cc1Wnpol.s 			page 27


 1459 0442 50       		.byte	0x50
 1460 0443 13000000 		.4byte	.LVL54-1
 1461 0447 66000000 		.4byte	.LFE15
 1462 044b 0100     		.2byte	0x1
 1463 044d 54       		.byte	0x54
 1464 044e 00000000 		.4byte	0x0
 1465 0452 00000000 		.4byte	0x0
 1466              	.LLST41:
 1467 0456 00000000 		.4byte	.LVL51
 1468 045a 13000000 		.4byte	.LVL54-1
 1469 045e 0100     		.2byte	0x1
 1470 0460 51       		.byte	0x51
 1471 0461 00000000 		.4byte	0x0
 1472 0465 00000000 		.4byte	0x0
 1473              	.LLST42:
 1474 0469 00000000 		.4byte	.LVL51
 1475 046d 13000000 		.4byte	.LVL54-1
 1476 0471 0100     		.2byte	0x1
 1477 0473 52       		.byte	0x52
 1478 0474 13000000 		.4byte	.LVL54-1
 1479 0478 66000000 		.4byte	.LFE15
 1480 047c 0100     		.2byte	0x1
 1481 047e 56       		.byte	0x56
 1482 047f 00000000 		.4byte	0x0
 1483 0483 00000000 		.4byte	0x0
 1484              	.LLST43:
 1485 0487 10000000 		.4byte	.LVL53
 1486 048b 13000000 		.4byte	.LVL54-1
 1487 048f 0100     		.2byte	0x1
 1488 0491 53       		.byte	0x53
 1489 0492 00000000 		.4byte	0x0
 1490 0496 00000000 		.4byte	0x0
 1491              	.LLST44:
 1492 049a 20000000 		.4byte	.LVL55
 1493 049e 29000000 		.4byte	.LVL56-1
 1494 04a2 0100     		.2byte	0x1
 1495 04a4 50       		.byte	0x50
 1496 04a5 29000000 		.4byte	.LVL56-1
 1497 04a9 36000000 		.4byte	.LVL59
 1498 04ad 0100     		.2byte	0x1
 1499 04af 58       		.byte	0x58
 1500 04b0 00000000 		.4byte	0x0
 1501 04b4 00000000 		.4byte	0x0
 1502              	.LLST45:
 1503 04b8 30000000 		.4byte	.LVL58
 1504 04bc 36000000 		.4byte	.LVL59
 1505 04c0 0100     		.2byte	0x1
 1506 04c2 53       		.byte	0x53
 1507 04c3 00000000 		.4byte	0x0
 1508 04c7 00000000 		.4byte	0x0
 1509              	.LLST46:
 1510 04cb 5E000000 		.4byte	.LVL61
 1511 04cf 66000000 		.4byte	.LFE15
 1512 04d3 0100     		.2byte	0x1
 1513 04d5 53       		.byte	0x53
 1514 04d6 00000000 		.4byte	0x0
 1515 04da 00000000 		.4byte	0x0
ARM GAS  /tmp/cc1Wnpol.s 			page 28


 1516              	.LLST47:
 1517 04de 00000000 		.4byte	.LFB16
 1518 04e2 02000000 		.4byte	.LCFI9
 1519 04e6 0200     		.2byte	0x2
 1520 04e8 7D       		.byte	0x7d
 1521 04e9 00       		.sleb128 0
 1522 04ea 02000000 		.4byte	.LCFI9
 1523 04ee 4C000000 		.4byte	.LFE16
 1524 04f2 0200     		.2byte	0x2
 1525 04f4 7D       		.byte	0x7d
 1526 04f5 10       		.sleb128 16
 1527 04f6 00000000 		.4byte	0x0
 1528 04fa 00000000 		.4byte	0x0
 1529              	.LLST48:
 1530 04fe 00000000 		.4byte	.LVL62
 1531 0502 07000000 		.4byte	.LVL63-1
 1532 0506 0100     		.2byte	0x1
 1533 0508 50       		.byte	0x50
 1534 0509 07000000 		.4byte	.LVL63-1
 1535 050d 4C000000 		.4byte	.LFE16
 1536 0511 0100     		.2byte	0x1
 1537 0513 54       		.byte	0x54
 1538 0514 00000000 		.4byte	0x0
 1539 0518 00000000 		.4byte	0x0
 1540              	.LLST49:
 1541 051c 1A000000 		.4byte	.LVL64
 1542 0520 40000000 		.4byte	.LVL68
 1543 0524 0100     		.2byte	0x1
 1544 0526 55       		.byte	0x55
 1545 0527 00000000 		.4byte	0x0
 1546 052b 00000000 		.4byte	0x0
 1547              	.LLST50:
 1548 052f 2E000000 		.4byte	.LVL65
 1549 0533 3C000000 		.4byte	.LVL67
 1550 0537 0100     		.2byte	0x1
 1551 0539 54       		.byte	0x54
 1552 053a 00000000 		.4byte	0x0
 1553 053e 00000000 		.4byte	0x0
 1554              	.LLST51:
 1555 0542 2E000000 		.4byte	.LVL65
 1556 0546 37000000 		.4byte	.LVL66-1
 1557 054a 0200     		.2byte	0x2
 1558 054c 74       		.byte	0x74
 1559 054d 00       		.sleb128 0
 1560 054e 00000000 		.4byte	0x0
 1561 0552 00000000 		.4byte	0x0
 1562              	.LLST52:
 1563 0556 00000000 		.4byte	.LFB17
 1564 055a 04000000 		.4byte	.LCFI10
 1565 055e 0200     		.2byte	0x2
 1566 0560 7D       		.byte	0x7d
 1567 0561 00       		.sleb128 0
 1568 0562 04000000 		.4byte	.LCFI10
 1569 0566 A4000000 		.4byte	.LFE17
 1570 056a 0200     		.2byte	0x2
 1571 056c 7D       		.byte	0x7d
 1572 056d 20       		.sleb128 32
ARM GAS  /tmp/cc1Wnpol.s 			page 29


 1573 056e 00000000 		.4byte	0x0
 1574 0572 00000000 		.4byte	0x0
 1575              	.LLST53:
 1576 0576 00000000 		.4byte	.LVL69
 1577 057a 14000000 		.4byte	.LVL71
 1578 057e 0100     		.2byte	0x1
 1579 0580 50       		.byte	0x50
 1580 0581 14000000 		.4byte	.LVL71
 1581 0585 A4000000 		.4byte	.LFE17
 1582 0589 0100     		.2byte	0x1
 1583 058b 54       		.byte	0x54
 1584 058c 00000000 		.4byte	0x0
 1585 0590 00000000 		.4byte	0x0
 1586              	.LLST54:
 1587 0594 00000000 		.4byte	.LVL69
 1588 0598 14000000 		.4byte	.LVL71
 1589 059c 0100     		.2byte	0x1
 1590 059e 51       		.byte	0x51
 1591 059f 14000000 		.4byte	.LVL71
 1592 05a3 3E000000 		.4byte	.LVL76
 1593 05a7 0100     		.2byte	0x1
 1594 05a9 56       		.byte	0x56
 1595 05aa 3E000000 		.4byte	.LVL76
 1596 05ae 60000000 		.4byte	.LVL81
 1597 05b2 0300     		.2byte	0x3
 1598 05b4 76       		.byte	0x76
 1599 05b5 01       		.sleb128 1
 1600 05b6 9F       		.byte	0x9f
 1601 05b7 60000000 		.4byte	.LVL81
 1602 05bb 90000000 		.4byte	.LVL86
 1603 05bf 0100     		.2byte	0x1
 1604 05c1 56       		.byte	0x56
 1605 05c2 96000000 		.4byte	.LVL87
 1606 05c6 9B000000 		.4byte	.LVL88-1
 1607 05ca 0100     		.2byte	0x1
 1608 05cc 51       		.byte	0x51
 1609 05cd 9B000000 		.4byte	.LVL88-1
 1610 05d1 A4000000 		.4byte	.LFE17
 1611 05d5 0100     		.2byte	0x1
 1612 05d7 56       		.byte	0x56
 1613 05d8 00000000 		.4byte	0x0
 1614 05dc 00000000 		.4byte	0x0
 1615              	.LLST55:
 1616 05e0 00000000 		.4byte	.LVL69
 1617 05e4 14000000 		.4byte	.LVL71
 1618 05e8 0100     		.2byte	0x1
 1619 05ea 52       		.byte	0x52
 1620 05eb 14000000 		.4byte	.LVL71
 1621 05ef 5A000000 		.4byte	.LVL79
 1622 05f3 0100     		.2byte	0x1
 1623 05f5 55       		.byte	0x55
 1624 05f6 5A000000 		.4byte	.LVL79
 1625 05fa 5C000000 		.4byte	.LVL80
 1626 05fe 0300     		.2byte	0x3
 1627 0600 75       		.byte	0x75
 1628 0601 7F       		.sleb128 -1
 1629 0602 9F       		.byte	0x9f
ARM GAS  /tmp/cc1Wnpol.s 			page 30


 1630 0603 5C000000 		.4byte	.LVL80
 1631 0607 96000000 		.4byte	.LVL87
 1632 060b 0100     		.2byte	0x1
 1633 060d 55       		.byte	0x55
 1634 060e 96000000 		.4byte	.LVL87
 1635 0612 9B000000 		.4byte	.LVL88-1
 1636 0616 0100     		.2byte	0x1
 1637 0618 52       		.byte	0x52
 1638 0619 9B000000 		.4byte	.LVL88-1
 1639 061d A4000000 		.4byte	.LFE17
 1640 0621 0100     		.2byte	0x1
 1641 0623 55       		.byte	0x55
 1642 0624 00000000 		.4byte	0x0
 1643 0628 00000000 		.4byte	0x0
 1644              	.LLST56:
 1645 062c 00000000 		.4byte	.LVL69
 1646 0630 14000000 		.4byte	.LVL71
 1647 0634 0100     		.2byte	0x1
 1648 0636 53       		.byte	0x53
 1649 0637 14000000 		.4byte	.LVL71
 1650 063b A4000000 		.4byte	.LFE17
 1651 063f 0100     		.2byte	0x1
 1652 0641 59       		.byte	0x59
 1653 0642 00000000 		.4byte	0x0
 1654 0646 00000000 		.4byte	0x0
 1655              	.LLST57:
 1656 064a 10000000 		.4byte	.LVL70
 1657 064e 14000000 		.4byte	.LVL71
 1658 0652 0200     		.2byte	0x2
 1659 0654 70       		.byte	0x70
 1660 0655 1C       		.sleb128 28
 1661 0656 14000000 		.4byte	.LVL71
 1662 065a A4000000 		.4byte	.LFE17
 1663 065e 0100     		.2byte	0x1
 1664 0660 58       		.byte	0x58
 1665 0661 00000000 		.4byte	0x0
 1666 0665 00000000 		.4byte	0x0
 1667              	.LLST58:
 1668 0669 10000000 		.4byte	.LVL70
 1669 066d 20000000 		.4byte	.LVL75
 1670 0671 0200     		.2byte	0x2
 1671 0673 30       		.byte	0x30
 1672 0674 9F       		.byte	0x9f
 1673 0675 20000000 		.4byte	.LVL75
 1674 0679 5A000000 		.4byte	.LVL79
 1675 067d 0100     		.2byte	0x1
 1676 067f 57       		.byte	0x57
 1677 0680 5A000000 		.4byte	.LVL79
 1678 0684 96000000 		.4byte	.LVL87
 1679 0688 0100     		.2byte	0x1
 1680 068a 57       		.byte	0x57
 1681 068b 96000000 		.4byte	.LVL87
 1682 068f A4000000 		.4byte	.LFE17
 1683 0693 0200     		.2byte	0x2
 1684 0695 30       		.byte	0x30
 1685 0696 9F       		.byte	0x9f
 1686 0697 00000000 		.4byte	0x0
ARM GAS  /tmp/cc1Wnpol.s 			page 31


 1687 069b 00000000 		.4byte	0x0
 1688              	.LLST59:
 1689 069f 1A000000 		.4byte	.LVL73
 1690 06a3 1D000000 		.4byte	.LVL74-1
 1691 06a7 0100     		.2byte	0x1
 1692 06a9 53       		.byte	0x53
 1693 06aa 00000000 		.4byte	0x0
 1694 06ae 00000000 		.4byte	0x0
 1695              	.LLST60:
 1696 06b2 58000000 		.4byte	.LVL78
 1697 06b6 62000000 		.4byte	.LVL82
 1698 06ba 0100     		.2byte	0x1
 1699 06bc 53       		.byte	0x53
 1700 06bd 90000000 		.4byte	.LVL86
 1701 06c1 96000000 		.4byte	.LVL87
 1702 06c5 0100     		.2byte	0x1
 1703 06c7 53       		.byte	0x53
 1704 06c8 00000000 		.4byte	0x0
 1705 06cc 00000000 		.4byte	0x0
 1706              	.LLST61:
 1707 06d0 66000000 		.4byte	.LVL83
 1708 06d4 69000000 		.4byte	.LVL84-1
 1709 06d8 0100     		.2byte	0x1
 1710 06da 53       		.byte	0x53
 1711 06db 00000000 		.4byte	0x0
 1712 06df 00000000 		.4byte	0x0
 1713              	.LLST62:
 1714 06e3 90000000 		.4byte	.LVL86
 1715 06e7 96000000 		.4byte	.LVL87
 1716 06eb 0100     		.2byte	0x1
 1717 06ed 53       		.byte	0x53
 1718 06ee 00000000 		.4byte	0x0
 1719 06f2 00000000 		.4byte	0x0
 1720              		.file 3 "/home/z80/programs/code-sourcery/2011.03-42/bin/../lib/gcc/arm-none-eabi/4.5.2/include/st
 1721              		.file 4 "/home/z80/programs/code-sourcery/2011.03-42/bin/../lib/gcc/arm-none-eabi/4.5.2/../../../.
 1722              		.file 5 "../chibios_2.4.x/os/ports/GCC/ARMCMx/chtypes.h"
 1723              		.file 6 "../chibios_2.4.x/os/kernel/include/chlists.h"
 1724              		.file 7 "../chibios_2.4.x/os/kernel/include/chthreads.h"
 1725              		.file 8 "../chibios_2.4.x/os/ports/GCC/ARMCMx/chcore_v7m.h"
 1726              		.file 9 "../chibios_2.4.x/os/kernel/include/chschd.h"
 1727              		.file 10 "../chibios_2.4.x/os/kernel/include/chmtx.h"
 1728              		.file 11 "../chibios_2.4.x/os/kernel/include/chqueues.h"
 1729              		.section	.debug_info
 1730 0000 550B0000 		.4byte	0xb55
 1731 0004 0200     		.2byte	0x2
 1732 0006 00000000 		.4byte	.Ldebug_abbrev0
 1733 000a 04       		.byte	0x4
 1734 000b 01       		.uleb128 0x1
 1735 000c 76030000 		.4byte	.LASF92
 1736 0010 01       		.byte	0x1
 1737 0011 93030000 		.4byte	.LASF93
 1738 0015 83010000 		.4byte	.LASF94
 1739 0019 00000000 		.4byte	0x0
 1740 001d 00000000 		.4byte	0x0
 1741 0021 48000000 		.4byte	.Ldebug_ranges0+0x48
 1742 0025 00000000 		.4byte	.Ldebug_line0
 1743 0029 02       		.uleb128 0x2
ARM GAS  /tmp/cc1Wnpol.s 			page 32


 1744 002a 04       		.byte	0x4
 1745 002b 05       		.byte	0x5
 1746 002c 696E7400 		.ascii	"int\000"
 1747 0030 03       		.uleb128 0x3
 1748 0031 21000000 		.4byte	.LASF2
 1749 0035 03       		.byte	0x3
 1750 0036 D3       		.byte	0xd3
 1751 0037 3B000000 		.4byte	0x3b
 1752 003b 04       		.uleb128 0x4
 1753 003c 04       		.byte	0x4
 1754 003d 07       		.byte	0x7
 1755 003e 33010000 		.4byte	.LASF0
 1756 0042 04       		.uleb128 0x4
 1757 0043 01       		.byte	0x1
 1758 0044 06       		.byte	0x6
 1759 0045 9C000000 		.4byte	.LASF1
 1760 0049 03       		.uleb128 0x3
 1761 004a 67030000 		.4byte	.LASF3
 1762 004e 04       		.byte	0x4
 1763 004f 2A       		.byte	0x2a
 1764 0050 54000000 		.4byte	0x54
 1765 0054 04       		.uleb128 0x4
 1766 0055 01       		.byte	0x1
 1767 0056 08       		.byte	0x8
 1768 0057 79020000 		.4byte	.LASF4
 1769 005b 04       		.uleb128 0x4
 1770 005c 02       		.byte	0x2
 1771 005d 05       		.byte	0x5
 1772 005e 91020000 		.4byte	.LASF5
 1773 0062 04       		.uleb128 0x4
 1774 0063 02       		.byte	0x2
 1775 0064 07       		.byte	0x7
 1776 0065 6A010000 		.4byte	.LASF6
 1777 0069 03       		.uleb128 0x3
 1778 006a 71020000 		.4byte	.LASF7
 1779 006e 04       		.byte	0x4
 1780 006f 4F       		.byte	0x4f
 1781 0070 74000000 		.4byte	0x74
 1782 0074 04       		.uleb128 0x4
 1783 0075 04       		.byte	0x4
 1784 0076 05       		.byte	0x5
 1785 0077 C5000000 		.4byte	.LASF8
 1786 007b 03       		.uleb128 0x3
 1787 007c D7020000 		.4byte	.LASF9
 1788 0080 04       		.byte	0x4
 1789 0081 50       		.byte	0x50
 1790 0082 86000000 		.4byte	0x86
 1791 0086 04       		.uleb128 0x4
 1792 0087 04       		.byte	0x4
 1793 0088 07       		.byte	0x7
 1794 0089 4B010000 		.4byte	.LASF10
 1795 008d 04       		.uleb128 0x4
 1796 008e 08       		.byte	0x8
 1797 008f 05       		.byte	0x5
 1798 0090 8E000000 		.4byte	.LASF11
 1799 0094 03       		.uleb128 0x3
 1800 0095 38000000 		.4byte	.LASF12
ARM GAS  /tmp/cc1Wnpol.s 			page 33


 1801 0099 04       		.byte	0x4
 1802 009a 78       		.byte	0x78
 1803 009b 9F000000 		.4byte	0x9f
 1804 009f 04       		.uleb128 0x4
 1805 00a0 08       		.byte	0x8
 1806 00a1 07       		.byte	0x7
 1807 00a2 5D000000 		.4byte	.LASF13
 1808 00a6 03       		.uleb128 0x3
 1809 00a7 B0000000 		.4byte	.LASF14
 1810 00ab 05       		.byte	0x5
 1811 00ac 2E       		.byte	0x2e
 1812 00ad 69000000 		.4byte	0x69
 1813 00b1 03       		.uleb128 0x3
 1814 00b2 B2010000 		.4byte	.LASF15
 1815 00b6 05       		.byte	0x5
 1816 00b7 2F       		.byte	0x2f
 1817 00b8 49000000 		.4byte	0x49
 1818 00bc 03       		.uleb128 0x3
 1819 00bd CE000000 		.4byte	.LASF16
 1820 00c1 05       		.byte	0x5
 1821 00c2 30       		.byte	0x30
 1822 00c3 49000000 		.4byte	0x49
 1823 00c7 03       		.uleb128 0x3
 1824 00c8 48020000 		.4byte	.LASF17
 1825 00cc 05       		.byte	0x5
 1826 00cd 31       		.byte	0x31
 1827 00ce 49000000 		.4byte	0x49
 1828 00d2 03       		.uleb128 0x3
 1829 00d3 61020000 		.4byte	.LASF18
 1830 00d7 05       		.byte	0x5
 1831 00d8 32       		.byte	0x32
 1832 00d9 7B000000 		.4byte	0x7b
 1833 00dd 03       		.uleb128 0x3
 1834 00de 7D010000 		.4byte	.LASF19
 1835 00e2 05       		.byte	0x5
 1836 00e3 33       		.byte	0x33
 1837 00e4 69000000 		.4byte	0x69
 1838 00e8 03       		.uleb128 0x3
 1839 00e9 C6010000 		.4byte	.LASF20
 1840 00ed 05       		.byte	0x5
 1841 00ee 35       		.byte	0x35
 1842 00ef 7B000000 		.4byte	0x7b
 1843 00f3 03       		.uleb128 0x3
 1844 00f4 00030000 		.4byte	.LASF21
 1845 00f8 05       		.byte	0x5
 1846 00f9 36       		.byte	0x36
 1847 00fa 7B000000 		.4byte	0x7b
 1848 00fe 03       		.uleb128 0x3
 1849 00ff 22010000 		.4byte	.LASF22
 1850 0103 05       		.byte	0x5
 1851 0104 37       		.byte	0x37
 1852 0105 69000000 		.4byte	0x69
 1853 0109 03       		.uleb128 0x3
 1854 010a C5020000 		.4byte	.LASF23
 1855 010e 06       		.byte	0x6
 1856 010f 2A       		.byte	0x2a
 1857 0110 14010000 		.4byte	0x114
ARM GAS  /tmp/cc1Wnpol.s 			page 34


 1858 0114 05       		.uleb128 0x5
 1859 0115 C5020000 		.4byte	.LASF23
 1860 0119 4C       		.byte	0x4c
 1861 011a 07       		.byte	0x7
 1862 011b 5E       		.byte	0x5e
 1863 011c 39020000 		.4byte	0x239
 1864 0120 06       		.uleb128 0x6
 1865 0121 B1020000 		.4byte	.LASF24
 1866 0125 07       		.byte	0x7
 1867 0126 5F       		.byte	0x5f
 1868 0127 5E020000 		.4byte	0x25e
 1869 012b 02       		.byte	0x2
 1870 012c 23       		.byte	0x23
 1871 012d 00       		.uleb128 0x0
 1872 012e 06       		.uleb128 0x6
 1873 012f 5A020000 		.4byte	.LASF25
 1874 0133 07       		.byte	0x7
 1875 0134 61       		.byte	0x61
 1876 0135 5E020000 		.4byte	0x25e
 1877 0139 02       		.byte	0x2
 1878 013a 23       		.byte	0x23
 1879 013b 04       		.uleb128 0x4
 1880 013c 06       		.uleb128 0x6
 1881 013d 7D000000 		.4byte	.LASF26
 1882 0141 07       		.byte	0x7
 1883 0142 63       		.byte	0x63
 1884 0143 D2000000 		.4byte	0xd2
 1885 0147 02       		.byte	0x2
 1886 0148 23       		.byte	0x23
 1887 0149 08       		.uleb128 0x8
 1888 014a 06       		.uleb128 0x6
 1889 014b BD030000 		.4byte	.LASF27
 1890 014f 07       		.byte	0x7
 1891 0150 64       		.byte	0x64
 1892 0151 36030000 		.4byte	0x336
 1893 0155 02       		.byte	0x2
 1894 0156 23       		.byte	0x23
 1895 0157 0C       		.uleb128 0xc
 1896 0158 06       		.uleb128 0x6
 1897 0159 F1000000 		.4byte	.LASF28
 1898 015d 07       		.byte	0x7
 1899 015e 66       		.byte	0x66
 1900 015f 5E020000 		.4byte	0x25e
 1901 0163 02       		.byte	0x2
 1902 0164 23       		.byte	0x23
 1903 0165 10       		.uleb128 0x10
 1904 0166 06       		.uleb128 0x6
 1905 0167 16020000 		.4byte	.LASF29
 1906 016b 07       		.byte	0x7
 1907 016c 67       		.byte	0x67
 1908 016d 5E020000 		.4byte	0x25e
 1909 0171 02       		.byte	0x2
 1910 0172 23       		.byte	0x23
 1911 0173 14       		.uleb128 0x14
 1912 0174 06       		.uleb128 0x6
 1913 0175 82030000 		.4byte	.LASF30
 1914 0179 07       		.byte	0x7
ARM GAS  /tmp/cc1Wnpol.s 			page 35


 1915 017a 6E       		.byte	0x6e
 1916 017b 51040000 		.4byte	0x451
 1917 017f 02       		.byte	0x2
 1918 0180 23       		.byte	0x23
 1919 0181 18       		.uleb128 0x18
 1920 0182 06       		.uleb128 0x6
 1921 0183 28010000 		.4byte	.LASF31
 1922 0187 07       		.byte	0x7
 1923 0188 74       		.byte	0x74
 1924 0189 63040000 		.4byte	0x463
 1925 018d 02       		.byte	0x2
 1926 018e 23       		.byte	0x23
 1927 018f 1C       		.uleb128 0x1c
 1928 0190 06       		.uleb128 0x6
 1929 0191 9B020000 		.4byte	.LASF32
 1930 0195 07       		.byte	0x7
 1931 0196 79       		.byte	0x79
 1932 0197 BC000000 		.4byte	0xbc
 1933 019b 02       		.byte	0x2
 1934 019c 23       		.byte	0x23
 1935 019d 20       		.uleb128 0x20
 1936 019e 06       		.uleb128 0x6
 1937 019f BD020000 		.4byte	.LASF33
 1938 01a3 07       		.byte	0x7
 1939 01a4 7D       		.byte	0x7d
 1940 01a5 B1000000 		.4byte	0xb1
 1941 01a9 02       		.byte	0x2
 1942 01aa 23       		.byte	0x23
 1943 01ab 21       		.uleb128 0x21
 1944 01ac 06       		.uleb128 0x6
 1945 01ad 3F030000 		.4byte	.LASF34
 1946 01b1 07       		.byte	0x7
 1947 01b2 82       		.byte	0x82
 1948 01b3 C7000000 		.4byte	0xc7
 1949 01b7 02       		.byte	0x2
 1950 01b8 23       		.byte	0x23
 1951 01b9 22       		.uleb128 0x22
 1952 01ba 06       		.uleb128 0x6
 1953 01bb 20030000 		.4byte	.LASF35
 1954 01bf 07       		.byte	0x7
 1955 01c0 89       		.byte	0x89
 1956 01c1 59030000 		.4byte	0x359
 1957 01c5 02       		.byte	0x2
 1958 01c6 23       		.byte	0x23
 1959 01c7 24       		.uleb128 0x24
 1960 01c8 07       		.uleb128 0x7
 1961 01c9 705F7500 		.ascii	"p_u\000"
 1962 01cd 07       		.byte	0x7
 1963 01ce AE       		.byte	0xae
 1964 01cf 1C040000 		.4byte	0x41c
 1965 01d3 02       		.byte	0x2
 1966 01d4 23       		.byte	0x23
 1967 01d5 28       		.uleb128 0x28
 1968 01d6 06       		.uleb128 0x6
 1969 01d7 C3030000 		.4byte	.LASF36
 1970 01db 07       		.byte	0x7
 1971 01dc B3       		.byte	0xb3
ARM GAS  /tmp/cc1Wnpol.s 			page 36


 1972 01dd 86020000 		.4byte	0x286
 1973 01e1 02       		.byte	0x2
 1974 01e2 23       		.byte	0x23
 1975 01e3 2C       		.uleb128 0x2c
 1976 01e4 06       		.uleb128 0x6
 1977 01e5 2E030000 		.4byte	.LASF37
 1978 01e9 07       		.byte	0x7
 1979 01ea B9       		.byte	0xb9
 1980 01eb 64020000 		.4byte	0x264
 1981 01ef 02       		.byte	0x2
 1982 01f0 23       		.byte	0x23
 1983 01f1 30       		.uleb128 0x30
 1984 01f2 06       		.uleb128 0x6
 1985 01f3 09000000 		.4byte	.LASF38
 1986 01f7 07       		.byte	0x7
 1987 01f8 BD       		.byte	0xbd
 1988 01f9 DD000000 		.4byte	0xdd
 1989 01fd 02       		.byte	0x2
 1990 01fe 23       		.byte	0x23
 1991 01ff 38       		.uleb128 0x38
 1992 0200 06       		.uleb128 0x6
 1993 0201 CC020000 		.4byte	.LASF39
 1994 0205 07       		.byte	0x7
 1995 0206 C3       		.byte	0xc3
 1996 0207 E8000000 		.4byte	0xe8
 1997 020b 02       		.byte	0x2
 1998 020c 23       		.byte	0x23
 1999 020d 3C       		.uleb128 0x3c
 2000 020e 06       		.uleb128 0x6
 2001 020f 87020000 		.4byte	.LASF40
 2002 0213 07       		.byte	0x7
 2003 0214 CA       		.byte	0xca
 2004 0215 69040000 		.4byte	0x469
 2005 0219 02       		.byte	0x2
 2006 021a 23       		.byte	0x23
 2007 021b 40       		.uleb128 0x40
 2008 021c 06       		.uleb128 0x6
 2009 021d 0A030000 		.4byte	.LASF41
 2010 0221 07       		.byte	0x7
 2011 0222 CE       		.byte	0xce
 2012 0223 D2000000 		.4byte	0xd2
 2013 0227 02       		.byte	0x2
 2014 0228 23       		.byte	0x23
 2015 0229 44       		.uleb128 0x44
 2016 022a 06       		.uleb128 0x6
 2017 022b A8000000 		.4byte	.LASF42
 2018 022f 07       		.byte	0x7
 2019 0230 D4       		.byte	0xd4
 2020 0231 9C020000 		.4byte	0x29c
 2021 0235 02       		.byte	0x2
 2022 0236 23       		.byte	0x23
 2023 0237 48       		.uleb128 0x48
 2024 0238 00       		.byte	0x0
 2025 0239 08       		.uleb128 0x8
 2026 023a 08       		.byte	0x8
 2027 023b 06       		.byte	0x6
 2028 023c 61       		.byte	0x61
ARM GAS  /tmp/cc1Wnpol.s 			page 37


 2029 023d 5E020000 		.4byte	0x25e
 2030 0241 06       		.uleb128 0x6
 2031 0242 B1020000 		.4byte	.LASF24
 2032 0246 06       		.byte	0x6
 2033 0247 62       		.byte	0x62
 2034 0248 5E020000 		.4byte	0x25e
 2035 024c 02       		.byte	0x2
 2036 024d 23       		.byte	0x23
 2037 024e 00       		.uleb128 0x0
 2038 024f 06       		.uleb128 0x6
 2039 0250 5A020000 		.4byte	.LASF25
 2040 0254 06       		.byte	0x6
 2041 0255 64       		.byte	0x64
 2042 0256 5E020000 		.4byte	0x25e
 2043 025a 02       		.byte	0x2
 2044 025b 23       		.byte	0x23
 2045 025c 04       		.uleb128 0x4
 2046 025d 00       		.byte	0x0
 2047 025e 09       		.uleb128 0x9
 2048 025f 04       		.byte	0x4
 2049 0260 09010000 		.4byte	0x109
 2050 0264 03       		.uleb128 0x3
 2051 0265 24020000 		.4byte	.LASF43
 2052 0269 06       		.byte	0x6
 2053 026a 66       		.byte	0x66
 2054 026b 39020000 		.4byte	0x239
 2055 026f 08       		.uleb128 0x8
 2056 0270 04       		.byte	0x4
 2057 0271 06       		.byte	0x6
 2058 0272 6B       		.byte	0x6b
 2059 0273 86020000 		.4byte	0x286
 2060 0277 06       		.uleb128 0x6
 2061 0278 B1020000 		.4byte	.LASF24
 2062 027c 06       		.byte	0x6
 2063 027d 6D       		.byte	0x6d
 2064 027e 5E020000 		.4byte	0x25e
 2065 0282 02       		.byte	0x2
 2066 0283 23       		.byte	0x23
 2067 0284 00       		.uleb128 0x0
 2068 0285 00       		.byte	0x0
 2069 0286 03       		.uleb128 0x3
 2070 0287 BA010000 		.4byte	.LASF44
 2071 028b 06       		.byte	0x6
 2072 028c 70       		.byte	0x70
 2073 028d 6F020000 		.4byte	0x26f
 2074 0291 03       		.uleb128 0x3
 2075 0292 01010000 		.4byte	.LASF45
 2076 0296 08       		.byte	0x8
 2077 0297 D7       		.byte	0xd7
 2078 0298 9C020000 		.4byte	0x29c
 2079 029c 0A       		.uleb128 0xa
 2080 029d 04       		.byte	0x4
 2081 029e 03       		.uleb128 0x3
 2082 029f F0010000 		.4byte	.LASF46
 2083 02a3 08       		.byte	0x8
 2084 02a4 DD       		.byte	0xdd
 2085 02a5 94000000 		.4byte	0x94
ARM GAS  /tmp/cc1Wnpol.s 			page 38


 2086 02a9 05       		.uleb128 0x5
 2087 02aa 27030000 		.4byte	.LASF47
 2088 02ae 24       		.byte	0x24
 2089 02af 08       		.byte	0x8
 2090 02b0 FE       		.byte	0xfe
 2091 02b1 36030000 		.4byte	0x336
 2092 02b5 0B       		.uleb128 0xb
 2093 02b6 723400   		.ascii	"r4\000"
 2094 02b9 08       		.byte	0x8
 2095 02ba 1101     		.2byte	0x111
 2096 02bc 91020000 		.4byte	0x291
 2097 02c0 02       		.byte	0x2
 2098 02c1 23       		.byte	0x23
 2099 02c2 00       		.uleb128 0x0
 2100 02c3 0B       		.uleb128 0xb
 2101 02c4 723500   		.ascii	"r5\000"
 2102 02c7 08       		.byte	0x8
 2103 02c8 1201     		.2byte	0x112
 2104 02ca 91020000 		.4byte	0x291
 2105 02ce 02       		.byte	0x2
 2106 02cf 23       		.byte	0x23
 2107 02d0 04       		.uleb128 0x4
 2108 02d1 0B       		.uleb128 0xb
 2109 02d2 723600   		.ascii	"r6\000"
 2110 02d5 08       		.byte	0x8
 2111 02d6 1301     		.2byte	0x113
 2112 02d8 91020000 		.4byte	0x291
 2113 02dc 02       		.byte	0x2
 2114 02dd 23       		.byte	0x23
 2115 02de 08       		.uleb128 0x8
 2116 02df 0B       		.uleb128 0xb
 2117 02e0 723700   		.ascii	"r7\000"
 2118 02e3 08       		.byte	0x8
 2119 02e4 1401     		.2byte	0x114
 2120 02e6 91020000 		.4byte	0x291
 2121 02ea 02       		.byte	0x2
 2122 02eb 23       		.byte	0x23
 2123 02ec 0C       		.uleb128 0xc
 2124 02ed 0B       		.uleb128 0xb
 2125 02ee 723800   		.ascii	"r8\000"
 2126 02f1 08       		.byte	0x8
 2127 02f2 1501     		.2byte	0x115
 2128 02f4 91020000 		.4byte	0x291
 2129 02f8 02       		.byte	0x2
 2130 02f9 23       		.byte	0x23
 2131 02fa 10       		.uleb128 0x10
 2132 02fb 0B       		.uleb128 0xb
 2133 02fc 723900   		.ascii	"r9\000"
 2134 02ff 08       		.byte	0x8
 2135 0300 1601     		.2byte	0x116
 2136 0302 91020000 		.4byte	0x291
 2137 0306 02       		.byte	0x2
 2138 0307 23       		.byte	0x23
 2139 0308 14       		.uleb128 0x14
 2140 0309 0B       		.uleb128 0xb
 2141 030a 72313000 		.ascii	"r10\000"
 2142 030e 08       		.byte	0x8
ARM GAS  /tmp/cc1Wnpol.s 			page 39


 2143 030f 1701     		.2byte	0x117
 2144 0311 91020000 		.4byte	0x291
 2145 0315 02       		.byte	0x2
 2146 0316 23       		.byte	0x23
 2147 0317 18       		.uleb128 0x18
 2148 0318 0B       		.uleb128 0xb
 2149 0319 72313100 		.ascii	"r11\000"
 2150 031d 08       		.byte	0x8
 2151 031e 1801     		.2byte	0x118
 2152 0320 91020000 		.4byte	0x291
 2153 0324 02       		.byte	0x2
 2154 0325 23       		.byte	0x23
 2155 0326 1C       		.uleb128 0x1c
 2156 0327 0B       		.uleb128 0xb
 2157 0328 6C7200   		.ascii	"lr\000"
 2158 032b 08       		.byte	0x8
 2159 032c 1901     		.2byte	0x119
 2160 032e 91020000 		.4byte	0x291
 2161 0332 02       		.byte	0x2
 2162 0333 23       		.byte	0x23
 2163 0334 20       		.uleb128 0x20
 2164 0335 00       		.byte	0x0
 2165 0336 0C       		.uleb128 0xc
 2166 0337 5D010000 		.4byte	.LASF48
 2167 033b 04       		.byte	0x4
 2168 033c 08       		.byte	0x8
 2169 033d 2301     		.2byte	0x123
 2170 033f 53030000 		.4byte	0x353
 2171 0343 0B       		.uleb128 0xb
 2172 0344 72313300 		.ascii	"r13\000"
 2173 0348 08       		.byte	0x8
 2174 0349 2401     		.2byte	0x124
 2175 034b 53030000 		.4byte	0x353
 2176 034f 02       		.byte	0x2
 2177 0350 23       		.byte	0x23
 2178 0351 00       		.uleb128 0x0
 2179 0352 00       		.byte	0x0
 2180 0353 09       		.uleb128 0x9
 2181 0354 04       		.byte	0x4
 2182 0355 A9020000 		.4byte	0x2a9
 2183 0359 0D       		.uleb128 0xd
 2184 035a F3000000 		.4byte	0xf3
 2185 035e 08       		.uleb128 0x8
 2186 035f 20       		.byte	0x20
 2187 0360 09       		.byte	0x9
 2188 0361 5E       		.byte	0x5e
 2189 0362 C9030000 		.4byte	0x3c9
 2190 0366 06       		.uleb128 0x6
 2191 0367 E0020000 		.4byte	.LASF49
 2192 036b 09       		.byte	0x9
 2193 036c 5F       		.byte	0x5f
 2194 036d 64020000 		.4byte	0x264
 2195 0371 02       		.byte	0x2
 2196 0372 23       		.byte	0x23
 2197 0373 00       		.uleb128 0x0
 2198 0374 06       		.uleb128 0x6
 2199 0375 A3020000 		.4byte	.LASF50
ARM GAS  /tmp/cc1Wnpol.s 			page 40


 2200 0379 09       		.byte	0x9
 2201 037a 60       		.byte	0x60
 2202 037b D2000000 		.4byte	0xd2
 2203 037f 02       		.byte	0x2
 2204 0380 23       		.byte	0x23
 2205 0381 08       		.uleb128 0x8
 2206 0382 06       		.uleb128 0x6
 2207 0383 1E020000 		.4byte	.LASF51
 2208 0387 09       		.byte	0x9
 2209 0388 62       		.byte	0x62
 2210 0389 36030000 		.4byte	0x336
 2211 038d 02       		.byte	0x2
 2212 038e 23       		.byte	0x23
 2213 038f 0C       		.uleb128 0xc
 2214 0390 06       		.uleb128 0x6
 2215 0391 F9000000 		.4byte	.LASF52
 2216 0395 09       		.byte	0x9
 2217 0396 65       		.byte	0x65
 2218 0397 5E020000 		.4byte	0x25e
 2219 039b 02       		.byte	0x2
 2220 039c 23       		.byte	0x23
 2221 039d 10       		.uleb128 0x10
 2222 039e 06       		.uleb128 0x6
 2223 039f 40020000 		.4byte	.LASF53
 2224 03a3 09       		.byte	0x9
 2225 03a4 66       		.byte	0x66
 2226 03a5 5E020000 		.4byte	0x25e
 2227 03a9 02       		.byte	0x2
 2228 03aa 23       		.byte	0x23
 2229 03ab 14       		.uleb128 0x14
 2230 03ac 06       		.uleb128 0x6
 2231 03ad 89030000 		.4byte	.LASF54
 2232 03b1 09       		.byte	0x9
 2233 03b2 6A       		.byte	0x6a
 2234 03b3 FE000000 		.4byte	0xfe
 2235 03b7 02       		.byte	0x2
 2236 03b8 23       		.byte	0x23
 2237 03b9 18       		.uleb128 0x18
 2238 03ba 06       		.uleb128 0x6
 2239 03bb 36020000 		.4byte	.LASF55
 2240 03bf 09       		.byte	0x9
 2241 03c0 6C       		.byte	0x6c
 2242 03c1 5E020000 		.4byte	0x25e
 2243 03c5 02       		.byte	0x2
 2244 03c6 23       		.byte	0x23
 2245 03c7 1C       		.uleb128 0x1c
 2246 03c8 00       		.byte	0x0
 2247 03c9 03       		.uleb128 0x3
 2248 03ca 46030000 		.4byte	.LASF56
 2249 03ce 09       		.byte	0x9
 2250 03cf 6E       		.byte	0x6e
 2251 03d0 5E030000 		.4byte	0x35e
 2252 03d4 05       		.uleb128 0x5
 2253 03d5 DD010000 		.4byte	.LASF57
 2254 03d9 10       		.byte	0x10
 2255 03da 0A       		.byte	0xa
 2256 03db 2C       		.byte	0x2c
ARM GAS  /tmp/cc1Wnpol.s 			page 41


 2257 03dc 0B040000 		.4byte	0x40b
 2258 03e0 06       		.uleb128 0x6
 2259 03e1 B7000000 		.4byte	.LASF58
 2260 03e5 0A       		.byte	0xa
 2261 03e6 2D       		.byte	0x2d
 2262 03e7 64020000 		.4byte	0x264
 2263 03eb 02       		.byte	0x2
 2264 03ec 23       		.byte	0x23
 2265 03ed 00       		.uleb128 0x0
 2266 03ee 06       		.uleb128 0x6
 2267 03ef 5F030000 		.4byte	.LASF59
 2268 03f3 0A       		.byte	0xa
 2269 03f4 2F       		.byte	0x2f
 2270 03f5 5E020000 		.4byte	0x25e
 2271 03f9 02       		.byte	0x2
 2272 03fa 23       		.byte	0x23
 2273 03fb 08       		.uleb128 0x8
 2274 03fc 06       		.uleb128 0x6
 2275 03fd F9020000 		.4byte	.LASF60
 2276 0401 0A       		.byte	0xa
 2277 0402 31       		.byte	0x31
 2278 0403 0B040000 		.4byte	0x40b
 2279 0407 02       		.byte	0x2
 2280 0408 23       		.byte	0x23
 2281 0409 0C       		.uleb128 0xc
 2282 040a 00       		.byte	0x0
 2283 040b 09       		.uleb128 0x9
 2284 040c 04       		.byte	0x4
 2285 040d D4030000 		.4byte	0x3d4
 2286 0411 03       		.uleb128 0x3
 2287 0412 DD010000 		.4byte	.LASF57
 2288 0416 0A       		.byte	0xa
 2289 0417 33       		.byte	0x33
 2290 0418 D4030000 		.4byte	0x3d4
 2291 041c 0E       		.uleb128 0xe
 2292 041d 04       		.byte	0x4
 2293 041e 07       		.byte	0x7
 2294 041f 90       		.byte	0x90
 2295 0420 51040000 		.4byte	0x451
 2296 0424 0F       		.uleb128 0xf
 2297 0425 28000000 		.4byte	.LASF61
 2298 0429 07       		.byte	0x7
 2299 042a 97       		.byte	0x97
 2300 042b DD000000 		.4byte	0xdd
 2301 042f 0F       		.uleb128 0xf
 2302 0430 74000000 		.4byte	.LASF62
 2303 0434 07       		.byte	0x7
 2304 0435 9E       		.byte	0x9e
 2305 0436 DD000000 		.4byte	0xdd
 2306 043a 0F       		.uleb128 0xf
 2307 043b 6F030000 		.4byte	.LASF63
 2308 043f 07       		.byte	0x7
 2309 0440 A5       		.byte	0xa5
 2310 0441 9C020000 		.4byte	0x29c
 2311 0445 0F       		.uleb128 0xf
 2312 0446 AA020000 		.4byte	.LASF64
 2313 044a 07       		.byte	0x7
ARM GAS  /tmp/cc1Wnpol.s 			page 42


 2314 044b AC       		.byte	0xac
 2315 044c E8000000 		.4byte	0xe8
 2316 0450 00       		.byte	0x0
 2317 0451 09       		.uleb128 0x9
 2318 0452 04       		.byte	0x4
 2319 0453 57040000 		.4byte	0x457
 2320 0457 10       		.uleb128 0x10
 2321 0458 5C040000 		.4byte	0x45c
 2322 045c 04       		.uleb128 0x4
 2323 045d 01       		.byte	0x1
 2324 045e 08       		.byte	0x8
 2325 045f E8020000 		.4byte	.LASF65
 2326 0463 09       		.uleb128 0x9
 2327 0464 04       		.byte	0x4
 2328 0465 9E020000 		.4byte	0x29e
 2329 0469 09       		.uleb128 0x9
 2330 046a 04       		.byte	0x4
 2331 046b 11040000 		.4byte	0x411
 2332 046f 03       		.uleb128 0x3
 2333 0470 E3010000 		.4byte	.LASF66
 2334 0474 0B       		.byte	0xb
 2335 0475 37       		.byte	0x37
 2336 0476 7A040000 		.4byte	0x47a
 2337 047a 05       		.uleb128 0x5
 2338 047b E3010000 		.4byte	.LASF66
 2339 047f 20       		.byte	0x20
 2340 0480 0B       		.byte	0xb
 2341 0481 45       		.byte	0x45
 2342 0482 E9040000 		.4byte	0x4e9
 2343 0486 06       		.uleb128 0x6
 2344 0487 84000000 		.4byte	.LASF67
 2345 048b 0B       		.byte	0xb
 2346 048c 46       		.byte	0x46
 2347 048d 64020000 		.4byte	0x264
 2348 0491 02       		.byte	0x2
 2349 0492 23       		.byte	0x23
 2350 0493 00       		.uleb128 0x0
 2351 0494 06       		.uleb128 0x6
 2352 0495 0C020000 		.4byte	.LASF68
 2353 0499 0B       		.byte	0xb
 2354 049a 47       		.byte	0x47
 2355 049b 30000000 		.4byte	0x30
 2356 049f 02       		.byte	0x2
 2357 04a0 23       		.byte	0x23
 2358 04a1 08       		.uleb128 0x8
 2359 04a2 06       		.uleb128 0x6
 2360 04a3 E0000000 		.4byte	.LASF69
 2361 04a7 0B       		.byte	0xb
 2362 04a8 48       		.byte	0x48
 2363 04a9 0C050000 		.4byte	0x50c
 2364 04ad 02       		.byte	0x2
 2365 04ae 23       		.byte	0x23
 2366 04af 0C       		.uleb128 0xc
 2367 04b0 06       		.uleb128 0x6
 2368 04b1 39030000 		.4byte	.LASF70
 2369 04b5 0B       		.byte	0xb
 2370 04b6 49       		.byte	0x49
ARM GAS  /tmp/cc1Wnpol.s 			page 43


 2371 04b7 0C050000 		.4byte	0x50c
 2372 04bb 02       		.byte	0x2
 2373 04bc 23       		.byte	0x23
 2374 04bd 10       		.uleb128 0x10
 2375 04be 06       		.uleb128 0x6
 2376 04bf E9000000 		.4byte	.LASF71
 2377 04c3 0B       		.byte	0xb
 2378 04c4 4B       		.byte	0x4b
 2379 04c5 0C050000 		.4byte	0x50c
 2380 04c9 02       		.byte	0x2
 2381 04ca 23       		.byte	0x23
 2382 04cb 14       		.uleb128 0x14
 2383 04cc 06       		.uleb128 0x6
 2384 04cd 69020000 		.4byte	.LASF72
 2385 04d1 0B       		.byte	0xb
 2386 04d2 4C       		.byte	0x4c
 2387 04d3 0C050000 		.4byte	0x50c
 2388 04d7 02       		.byte	0x2
 2389 04d8 23       		.byte	0x23
 2390 04d9 18       		.uleb128 0x18
 2391 04da 06       		.uleb128 0x6
 2392 04db 50030000 		.4byte	.LASF73
 2393 04df 0B       		.byte	0xb
 2394 04e0 4D       		.byte	0x4d
 2395 04e1 E9040000 		.4byte	0x4e9
 2396 04e5 02       		.byte	0x2
 2397 04e6 23       		.byte	0x23
 2398 04e7 1C       		.uleb128 0x1c
 2399 04e8 00       		.byte	0x0
 2400 04e9 03       		.uleb128 0x3
 2401 04ea 50020000 		.4byte	.LASF74
 2402 04ee 0B       		.byte	0xb
 2403 04ef 3A       		.byte	0x3a
 2404 04f0 F4040000 		.4byte	0x4f4
 2405 04f4 09       		.uleb128 0x9
 2406 04f5 04       		.byte	0x4
 2407 04f6 FA040000 		.4byte	0x4fa
 2408 04fa 11       		.uleb128 0x11
 2409 04fb 01       		.byte	0x1
 2410 04fc 06050000 		.4byte	0x506
 2411 0500 12       		.uleb128 0x12
 2412 0501 06050000 		.4byte	0x506
 2413 0505 00       		.byte	0x0
 2414 0506 09       		.uleb128 0x9
 2415 0507 04       		.byte	0x4
 2416 0508 6F040000 		.4byte	0x46f
 2417 050c 09       		.uleb128 0x9
 2418 050d 04       		.byte	0x4
 2419 050e 49000000 		.4byte	0x49
 2420 0512 03       		.uleb128 0x3
 2421 0513 D2010000 		.4byte	.LASF75
 2422 0517 0B       		.byte	0xb
 2423 0518 76       		.byte	0x76
 2424 0519 6F040000 		.4byte	0x46f
 2425 051d 03       		.uleb128 0x3
 2426 051e 41000000 		.4byte	.LASF76
 2427 0522 0B       		.byte	0xb
ARM GAS  /tmp/cc1Wnpol.s 			page 44


 2428 0523 E6       		.byte	0xe6
 2429 0524 6F040000 		.4byte	0x46f
 2430 0528 09       		.uleb128 0x9
 2431 0529 04       		.byte	0x4
 2432 052a 2E050000 		.4byte	0x52e
 2433 052e 10       		.uleb128 0x10
 2434 052f 49000000 		.4byte	0x49
 2435 0533 13       		.uleb128 0x13
 2436 0534 0F000000 		.4byte	.LASF95
 2437 0538 02       		.byte	0x2
 2438 0539 34       		.byte	0x34
 2439 053a 01       		.byte	0x1
 2440 053b 03       		.byte	0x3
 2441 053c 56050000 		.4byte	0x556
 2442 0540 14       		.uleb128 0x14
 2443 0541 747000   		.ascii	"tp\000"
 2444 0544 02       		.byte	0x2
 2445 0545 34       		.byte	0x34
 2446 0546 5E020000 		.4byte	0x25e
 2447 054a 14       		.uleb128 0x14
 2448 054b 74717000 		.ascii	"tqp\000"
 2449 054f 02       		.byte	0x2
 2450 0550 34       		.byte	0x34
 2451 0551 56050000 		.4byte	0x556
 2452 0555 00       		.byte	0x0
 2453 0556 09       		.uleb128 0x9
 2454 0557 04       		.byte	0x4
 2455 0558 64020000 		.4byte	0x264
 2456 055c 15       		.uleb128 0x15
 2457 055d ED020000 		.4byte	.LASF96
 2458 0561 02       		.byte	0x2
 2459 0562 3B       		.byte	0x3b
 2460 0563 01       		.byte	0x1
 2461 0564 5E020000 		.4byte	0x25e
 2462 0568 03       		.byte	0x3
 2463 0569 83050000 		.4byte	0x583
 2464 056d 14       		.uleb128 0x14
 2465 056e 74717000 		.ascii	"tqp\000"
 2466 0572 02       		.byte	0x2
 2467 0573 3B       		.byte	0x3b
 2468 0574 56050000 		.4byte	0x556
 2469 0578 16       		.uleb128 0x16
 2470 0579 747000   		.ascii	"tp\000"
 2471 057c 02       		.byte	0x2
 2472 057d 3C       		.byte	0x3c
 2473 057e 5E020000 		.4byte	0x25e
 2474 0582 00       		.byte	0x0
 2475 0583 17       		.uleb128 0x17
 2476 0584 BF000000 		.4byte	.LASF97
 2477 0588 01       		.byte	0x1
 2478 0589 48       		.byte	0x48
 2479 058a 01       		.byte	0x1
 2480 058b DD000000 		.4byte	0xdd
 2481 058f 00000000 		.4byte	.LFB7
 2482 0593 2C000000 		.4byte	.LFE7
 2483 0597 00000000 		.4byte	.LLST0
 2484 059b DF050000 		.4byte	0x5df
ARM GAS  /tmp/cc1Wnpol.s 			page 45


 2485 059f 18       		.uleb128 0x18
 2486 05a0 717000   		.ascii	"qp\000"
 2487 05a3 01       		.byte	0x1
 2488 05a4 48       		.byte	0x48
 2489 05a5 06050000 		.4byte	0x506
 2490 05a9 20000000 		.4byte	.LLST1
 2491 05ad 19       		.uleb128 0x19
 2492 05ae 31020000 		.4byte	.LASF77
 2493 05b2 01       		.byte	0x1
 2494 05b3 48       		.byte	0x48
 2495 05b4 F3000000 		.4byte	0xf3
 2496 05b8 3E000000 		.4byte	.LLST2
 2497 05bc 1A       		.uleb128 0x1a
 2498 05bd 33050000 		.4byte	0x533
 2499 05c1 16000000 		.4byte	.LBB12
 2500 05c5 20000000 		.4byte	.LBE12
 2501 05c9 01       		.byte	0x1
 2502 05ca 4D       		.byte	0x4d
 2503 05cb 1B       		.uleb128 0x1b
 2504 05cc 4A050000 		.4byte	0x54a
 2505 05d0 51000000 		.4byte	.LLST3
 2506 05d4 1B       		.uleb128 0x1b
 2507 05d5 40050000 		.4byte	0x540
 2508 05d9 64000000 		.4byte	.LLST4
 2509 05dd 00       		.byte	0x0
 2510 05de 00       		.byte	0x0
 2511 05df 1C       		.uleb128 0x1c
 2512 05e0 01       		.byte	0x1
 2513 05e1 2F000000 		.4byte	.LASF80
 2514 05e5 01       		.byte	0x1
 2515 05e6 60       		.byte	0x60
 2516 05e7 01       		.byte	0x1
 2517 05e8 00000000 		.4byte	.LFB8
 2518 05ec 1A000000 		.4byte	.LFE8
 2519 05f0 78000000 		.4byte	.LLST5
 2520 05f4 2E060000 		.4byte	0x62e
 2521 05f8 1D       		.uleb128 0x1d
 2522 05f9 69717000 		.ascii	"iqp\000"
 2523 05fd 01       		.byte	0x1
 2524 05fe 60       		.byte	0x60
 2525 05ff 2E060000 		.4byte	0x62e
 2526 0603 01       		.byte	0x1
 2527 0604 50       		.byte	0x50
 2528 0605 1D       		.uleb128 0x1d
 2529 0606 627000   		.ascii	"bp\000"
 2530 0609 01       		.byte	0x1
 2531 060a 60       		.byte	0x60
 2532 060b 0C050000 		.4byte	0x50c
 2533 060f 01       		.byte	0x1
 2534 0610 51       		.byte	0x51
 2535 0611 19       		.uleb128 0x19
 2536 0612 65010000 		.4byte	.LASF78
 2537 0616 01       		.byte	0x1
 2538 0617 60       		.byte	0x60
 2539 0618 30000000 		.4byte	0x30
 2540 061c 98000000 		.4byte	.LLST6
 2541 0620 1E       		.uleb128 0x1e
ARM GAS  /tmp/cc1Wnpol.s 			page 46


 2542 0621 B8020000 		.4byte	.LASF79
 2543 0625 01       		.byte	0x1
 2544 0626 60       		.byte	0x60
 2545 0627 E9040000 		.4byte	0x4e9
 2546 062b 01       		.byte	0x1
 2547 062c 53       		.byte	0x53
 2548 062d 00       		.byte	0x0
 2549 062e 09       		.uleb128 0x9
 2550 062f 04       		.byte	0x4
 2551 0630 12050000 		.4byte	0x512
 2552 0634 1C       		.uleb128 0x1c
 2553 0635 01       		.byte	0x1
 2554 0636 40010000 		.4byte	.LASF81
 2555 063a 01       		.byte	0x1
 2556 063b 74       		.byte	0x74
 2557 063c 01       		.byte	0x1
 2558 063d 00000000 		.4byte	.LFB9
 2559 0641 30000000 		.4byte	.LFE9
 2560 0645 AB000000 		.4byte	.LLST7
 2561 0649 89060000 		.4byte	0x689
 2562 064d 18       		.uleb128 0x18
 2563 064e 69717000 		.ascii	"iqp\000"
 2564 0652 01       		.byte	0x1
 2565 0653 74       		.byte	0x74
 2566 0654 2E060000 		.4byte	0x62e
 2567 0658 CB000000 		.4byte	.LLST8
 2568 065c 1A       		.uleb128 0x1a
 2569 065d 5C050000 		.4byte	0x55c
 2570 0661 1C000000 		.4byte	.LBB14
 2571 0665 22000000 		.4byte	.LBE14
 2572 0669 01       		.byte	0x1
 2573 066a 7B       		.byte	0x7b
 2574 066b 1B       		.uleb128 0x1b
 2575 066c 6D050000 		.4byte	0x56d
 2576 0670 E9000000 		.4byte	.LLST9
 2577 0674 1F       		.uleb128 0x1f
 2578 0675 1C000000 		.4byte	.LBB15
 2579 0679 22000000 		.4byte	.LBE15
 2580 067d 20       		.uleb128 0x20
 2581 067e 78050000 		.4byte	0x578
 2582 0682 FC000000 		.4byte	.LLST10
 2583 0686 00       		.byte	0x0
 2584 0687 00       		.byte	0x0
 2585 0688 00       		.byte	0x0
 2586 0689 21       		.uleb128 0x21
 2587 068a 01       		.byte	0x1
 2588 068b 19010000 		.4byte	.LASF82
 2589 068f 01       		.byte	0x1
 2590 0690 8B       		.byte	0x8b
 2591 0691 01       		.byte	0x1
 2592 0692 DD000000 		.4byte	0xdd
 2593 0696 00000000 		.4byte	.LFB10
 2594 069a 52000000 		.4byte	.LFE10
 2595 069e 0F010000 		.4byte	.LLST11
 2596 06a2 EF060000 		.4byte	0x6ef
 2597 06a6 18       		.uleb128 0x18
 2598 06a7 69717000 		.ascii	"iqp\000"
ARM GAS  /tmp/cc1Wnpol.s 			page 47


 2599 06ab 01       		.byte	0x1
 2600 06ac 8B       		.byte	0x8b
 2601 06ad 2E060000 		.4byte	0x62e
 2602 06b1 2F010000 		.4byte	.LLST12
 2603 06b5 18       		.uleb128 0x18
 2604 06b6 6200     		.ascii	"b\000"
 2605 06b8 01       		.byte	0x1
 2606 06b9 8B       		.byte	0x8b
 2607 06ba 49000000 		.4byte	0x49
 2608 06be 4D010000 		.4byte	.LLST13
 2609 06c2 1A       		.uleb128 0x1a
 2610 06c3 5C050000 		.4byte	0x55c
 2611 06c7 30000000 		.4byte	.LBB16
 2612 06cb 36000000 		.4byte	.LBE16
 2613 06cf 01       		.byte	0x1
 2614 06d0 98       		.byte	0x98
 2615 06d1 1B       		.uleb128 0x1b
 2616 06d2 6D050000 		.4byte	0x56d
 2617 06d6 60010000 		.4byte	.LLST14
 2618 06da 1F       		.uleb128 0x1f
 2619 06db 30000000 		.4byte	.LBB17
 2620 06df 36000000 		.4byte	.LBE17
 2621 06e3 20       		.uleb128 0x20
 2622 06e4 78050000 		.4byte	0x578
 2623 06e8 73010000 		.4byte	.LLST15
 2624 06ec 00       		.byte	0x0
 2625 06ed 00       		.byte	0x0
 2626 06ee 00       		.byte	0x0
 2627 06ef 21       		.uleb128 0x21
 2628 06f0 01       		.byte	0x1
 2629 06f1 CD030000 		.4byte	.LASF83
 2630 06f5 01       		.byte	0x1
 2631 06f6 B1       		.byte	0xb1
 2632 06f7 01       		.byte	0x1
 2633 06f8 DD000000 		.4byte	0xdd
 2634 06fc 00000000 		.4byte	.LFB11
 2635 0700 5A000000 		.4byte	.LFE11
 2636 0704 87010000 		.4byte	.LLST16
 2637 0708 9E070000 		.4byte	0x79e
 2638 070c 18       		.uleb128 0x18
 2639 070d 69717000 		.ascii	"iqp\000"
 2640 0711 01       		.byte	0x1
 2641 0712 B1       		.byte	0xb1
 2642 0713 2E060000 		.4byte	0x62e
 2643 0717 A7010000 		.4byte	.LLST17
 2644 071b 19       		.uleb128 0x19
 2645 071c 31020000 		.4byte	.LASF77
 2646 0720 01       		.byte	0x1
 2647 0721 B1       		.byte	0xb1
 2648 0722 F3000000 		.4byte	0xf3
 2649 0726 C5010000 		.4byte	.LLST18
 2650 072a 22       		.uleb128 0x22
 2651 072b 6200     		.ascii	"b\000"
 2652 072d 01       		.byte	0x1
 2653 072e B2       		.byte	0xb2
 2654 072f 49000000 		.4byte	0x49
 2655 0733 01       		.byte	0x1
ARM GAS  /tmp/cc1Wnpol.s 			page 48


 2656 0734 57       		.byte	0x57
 2657 0735 23       		.uleb128 0x23
 2658 0736 06000000 		.4byte	.LBB18
 2659 073a 0C000000 		.4byte	.LBE18
 2660 073e 52070000 		.4byte	0x752
 2661 0742 24       		.uleb128 0x24
 2662 0743 746D7000 		.ascii	"tmp\000"
 2663 0747 01       		.byte	0x1
 2664 0748 B4       		.byte	0xb4
 2665 0749 7B000000 		.4byte	0x7b
 2666 074d E3010000 		.4byte	.LLST19
 2667 0751 00       		.byte	0x0
 2668 0752 25       		.uleb128 0x25
 2669 0753 00000000 		.4byte	.Ldebug_ranges0+0x0
 2670 0757 84070000 		.4byte	0x784
 2671 075b 24       		.uleb128 0x24
 2672 075c 6D736700 		.ascii	"msg\000"
 2673 0760 01       		.byte	0x1
 2674 0761 B9       		.byte	0xb9
 2675 0762 DD000000 		.4byte	0xdd
 2676 0766 F6010000 		.4byte	.LLST20
 2677 076a 1F       		.uleb128 0x1f
 2678 076b 2C000000 		.4byte	.LBB20
 2679 076f 32000000 		.4byte	.LBE20
 2680 0773 24       		.uleb128 0x24
 2681 0774 746D7000 		.ascii	"tmp\000"
 2682 0778 01       		.byte	0x1
 2683 0779 BB       		.byte	0xbb
 2684 077a 7B000000 		.4byte	0x7b
 2685 077e 14020000 		.4byte	.LLST21
 2686 0782 00       		.byte	0x0
 2687 0783 00       		.byte	0x0
 2688 0784 1F       		.uleb128 0x1f
 2689 0785 50000000 		.4byte	.LBB22
 2690 0789 56000000 		.4byte	.LBE22
 2691 078d 24       		.uleb128 0x24
 2692 078e 746D7000 		.ascii	"tmp\000"
 2693 0792 01       		.byte	0x1
 2694 0793 C5       		.byte	0xc5
 2695 0794 7B000000 		.4byte	0x7b
 2696 0798 27020000 		.4byte	.LLST22
 2697 079c 00       		.byte	0x0
 2698 079d 00       		.byte	0x0
 2699 079e 21       		.uleb128 0x21
 2700 079f 01       		.byte	0x1
 2701 07a0 4D000000 		.4byte	.LASF84
 2702 07a4 01       		.byte	0x1
 2703 07a5 E1       		.byte	0xe1
 2704 07a6 01       		.byte	0x1
 2705 07a7 30000000 		.4byte	0x30
 2706 07ab 00000000 		.4byte	.LFB12
 2707 07af 90000000 		.4byte	.LFE12
 2708 07b3 3A020000 		.4byte	.LLST23
 2709 07b7 81080000 		.4byte	0x881
 2710 07bb 18       		.uleb128 0x18
 2711 07bc 69717000 		.ascii	"iqp\000"
 2712 07c0 01       		.byte	0x1
ARM GAS  /tmp/cc1Wnpol.s 			page 49


 2713 07c1 E1       		.byte	0xe1
 2714 07c2 2E060000 		.4byte	0x62e
 2715 07c6 5A020000 		.4byte	.LLST24
 2716 07ca 18       		.uleb128 0x18
 2717 07cb 627000   		.ascii	"bp\000"
 2718 07ce 01       		.byte	0x1
 2719 07cf E1       		.byte	0xe1
 2720 07d0 0C050000 		.4byte	0x50c
 2721 07d4 78020000 		.4byte	.LLST25
 2722 07d8 18       		.uleb128 0x18
 2723 07d9 6E00     		.ascii	"n\000"
 2724 07db 01       		.byte	0x1
 2725 07dc E2       		.byte	0xe2
 2726 07dd 30000000 		.4byte	0x30
 2727 07e1 A1020000 		.4byte	.LLST26
 2728 07e5 19       		.uleb128 0x19
 2729 07e6 31020000 		.4byte	.LASF77
 2730 07ea 01       		.byte	0x1
 2731 07eb E2       		.byte	0xe2
 2732 07ec F3000000 		.4byte	0xf3
 2733 07f0 CA020000 		.4byte	.LLST27
 2734 07f4 24       		.uleb128 0x24
 2735 07f5 6E667900 		.ascii	"nfy\000"
 2736 07f9 01       		.byte	0x1
 2737 07fa E3       		.byte	0xe3
 2738 07fb E9040000 		.4byte	0x4e9
 2739 07ff E8020000 		.4byte	.LLST28
 2740 0803 24       		.uleb128 0x24
 2741 0804 7200     		.ascii	"r\000"
 2742 0806 01       		.byte	0x1
 2743 0807 E4       		.byte	0xe4
 2744 0808 30000000 		.4byte	0x30
 2745 080c 07030000 		.4byte	.LLST29
 2746 0810 23       		.uleb128 0x23
 2747 0811 12000000 		.4byte	.LBB23
 2748 0815 18000000 		.4byte	.LBE23
 2749 0819 2D080000 		.4byte	0x82d
 2750 081d 24       		.uleb128 0x24
 2751 081e 746D7000 		.ascii	"tmp\000"
 2752 0822 01       		.byte	0x1
 2753 0823 E8       		.byte	0xe8
 2754 0824 7B000000 		.4byte	0x7b
 2755 0828 3D030000 		.4byte	.LLST30
 2756 082c 00       		.byte	0x0
 2757 082d 23       		.uleb128 0x23
 2758 082e 3E000000 		.4byte	.LBB24
 2759 0832 44000000 		.4byte	.LBE24
 2760 0836 4A080000 		.4byte	0x84a
 2761 083a 24       		.uleb128 0x24
 2762 083b 746D7000 		.ascii	"tmp\000"
 2763 083f 01       		.byte	0x1
 2764 0840 EF       		.byte	0xef
 2765 0841 7B000000 		.4byte	0x7b
 2766 0845 50030000 		.4byte	.LLST31
 2767 0849 00       		.byte	0x0
 2768 084a 23       		.uleb128 0x23
 2769 084b 6A000000 		.4byte	.LBB25
ARM GAS  /tmp/cc1Wnpol.s 			page 50


 2770 084f 70000000 		.4byte	.LBE25
 2771 0853 67080000 		.4byte	0x867
 2772 0857 24       		.uleb128 0x24
 2773 0858 746D7000 		.ascii	"tmp\000"
 2774 085c 01       		.byte	0x1
 2775 085d F9       		.byte	0xf9
 2776 085e 7B000000 		.4byte	0x7b
 2777 0862 63030000 		.4byte	.LLST32
 2778 0866 00       		.byte	0x0
 2779 0867 1F       		.uleb128 0x1f
 2780 0868 76000000 		.4byte	.LBB26
 2781 086c 7C000000 		.4byte	.LBE26
 2782 0870 24       		.uleb128 0x24
 2783 0871 746D7000 		.ascii	"tmp\000"
 2784 0875 01       		.byte	0x1
 2785 0876 FE       		.byte	0xfe
 2786 0877 7B000000 		.4byte	0x7b
 2787 087b 81030000 		.4byte	.LLST33
 2788 087f 00       		.byte	0x0
 2789 0880 00       		.byte	0x0
 2790 0881 26       		.uleb128 0x26
 2791 0882 01       		.byte	0x1
 2792 0883 00000000 		.4byte	.LASF85
 2793 0887 01       		.byte	0x1
 2794 0888 1101     		.2byte	0x111
 2795 088a 01       		.byte	0x1
 2796 088b 00000000 		.4byte	.LFB13
 2797 088f 18000000 		.4byte	.LFE13
 2798 0893 94030000 		.4byte	.LLST34
 2799 0897 D3080000 		.4byte	0x8d3
 2800 089b 27       		.uleb128 0x27
 2801 089c 6F717000 		.ascii	"oqp\000"
 2802 08a0 01       		.byte	0x1
 2803 08a1 1101     		.2byte	0x111
 2804 08a3 D3080000 		.4byte	0x8d3
 2805 08a7 01       		.byte	0x1
 2806 08a8 50       		.byte	0x50
 2807 08a9 27       		.uleb128 0x27
 2808 08aa 627000   		.ascii	"bp\000"
 2809 08ad 01       		.byte	0x1
 2810 08ae 1101     		.2byte	0x111
 2811 08b0 0C050000 		.4byte	0x50c
 2812 08b4 01       		.byte	0x1
 2813 08b5 51       		.byte	0x51
 2814 08b6 28       		.uleb128 0x28
 2815 08b7 65010000 		.4byte	.LASF78
 2816 08bb 01       		.byte	0x1
 2817 08bc 1101     		.2byte	0x111
 2818 08be 30000000 		.4byte	0x30
 2819 08c2 01       		.byte	0x1
 2820 08c3 52       		.byte	0x52
 2821 08c4 28       		.uleb128 0x28
 2822 08c5 1C000000 		.4byte	.LASF86
 2823 08c9 01       		.byte	0x1
 2824 08ca 1101     		.2byte	0x111
 2825 08cc E9040000 		.4byte	0x4e9
 2826 08d0 01       		.byte	0x1
ARM GAS  /tmp/cc1Wnpol.s 			page 51


 2827 08d1 53       		.byte	0x53
 2828 08d2 00       		.byte	0x0
 2829 08d3 09       		.uleb128 0x9
 2830 08d4 04       		.byte	0x4
 2831 08d5 1D050000 		.4byte	0x51d
 2832 08d9 26       		.uleb128 0x26
 2833 08da 01       		.byte	0x1
 2834 08db 15030000 		.4byte	.LASF87
 2835 08df 01       		.byte	0x1
 2836 08e0 2501     		.2byte	0x125
 2837 08e2 01       		.byte	0x1
 2838 08e3 00000000 		.4byte	.LFB14
 2839 08e7 32000000 		.4byte	.LFE14
 2840 08eb B4030000 		.4byte	.LLST35
 2841 08ef 31090000 		.4byte	0x931
 2842 08f3 29       		.uleb128 0x29
 2843 08f4 6F717000 		.ascii	"oqp\000"
 2844 08f8 01       		.byte	0x1
 2845 08f9 2501     		.2byte	0x125
 2846 08fb D3080000 		.4byte	0x8d3
 2847 08ff D4030000 		.4byte	.LLST36
 2848 0903 2A       		.uleb128 0x2a
 2849 0904 5C050000 		.4byte	0x55c
 2850 0908 1E000000 		.4byte	.LBB27
 2851 090c 24000000 		.4byte	.LBE27
 2852 0910 01       		.byte	0x1
 2853 0911 2C01     		.2byte	0x12c
 2854 0913 1B       		.uleb128 0x1b
 2855 0914 6D050000 		.4byte	0x56d
 2856 0918 F2030000 		.4byte	.LLST37
 2857 091c 1F       		.uleb128 0x1f
 2858 091d 1E000000 		.4byte	.LBB28
 2859 0921 24000000 		.4byte	.LBE28
 2860 0925 20       		.uleb128 0x20
 2861 0926 78050000 		.4byte	0x578
 2862 092a 05040000 		.4byte	.LLST38
 2863 092e 00       		.byte	0x0
 2864 092f 00       		.byte	0x0
 2865 0930 00       		.byte	0x0
 2866 0931 2B       		.uleb128 0x2b
 2867 0932 01       		.byte	0x1
 2868 0933 0A010000 		.4byte	.LASF88
 2869 0937 01       		.byte	0x1
 2870 0938 4501     		.2byte	0x145
 2871 093a 01       		.byte	0x1
 2872 093b DD000000 		.4byte	0xdd
 2873 093f 00000000 		.4byte	.LFB15
 2874 0943 66000000 		.4byte	.LFE15
 2875 0947 18040000 		.4byte	.LLST39
 2876 094b E6090000 		.4byte	0x9e6
 2877 094f 29       		.uleb128 0x29
 2878 0950 6F717000 		.ascii	"oqp\000"
 2879 0954 01       		.byte	0x1
 2880 0955 4501     		.2byte	0x145
 2881 0957 D3080000 		.4byte	0x8d3
 2882 095b 38040000 		.4byte	.LLST40
 2883 095f 29       		.uleb128 0x29
ARM GAS  /tmp/cc1Wnpol.s 			page 52


 2884 0960 6200     		.ascii	"b\000"
 2885 0962 01       		.byte	0x1
 2886 0963 4501     		.2byte	0x145
 2887 0965 49000000 		.4byte	0x49
 2888 0969 56040000 		.4byte	.LLST41
 2889 096d 2C       		.uleb128 0x2c
 2890 096e 31020000 		.4byte	.LASF77
 2891 0972 01       		.byte	0x1
 2892 0973 4501     		.2byte	0x145
 2893 0975 F3000000 		.4byte	0xf3
 2894 0979 69040000 		.4byte	.LLST42
 2895 097d 25       		.uleb128 0x25
 2896 097e 18000000 		.4byte	.Ldebug_ranges0+0x18
 2897 0982 97090000 		.4byte	0x997
 2898 0986 2D       		.uleb128 0x2d
 2899 0987 746D7000 		.ascii	"tmp\000"
 2900 098b 01       		.byte	0x1
 2901 098c 4701     		.2byte	0x147
 2902 098e 7B000000 		.4byte	0x7b
 2903 0992 87040000 		.4byte	.LLST43
 2904 0996 00       		.byte	0x0
 2905 0997 25       		.uleb128 0x25
 2906 0998 30000000 		.4byte	.Ldebug_ranges0+0x30
 2907 099c CB090000 		.4byte	0x9cb
 2908 09a0 2D       		.uleb128 0x2d
 2909 09a1 6D736700 		.ascii	"msg\000"
 2910 09a5 01       		.byte	0x1
 2911 09a6 4901     		.2byte	0x149
 2912 09a8 DD000000 		.4byte	0xdd
 2913 09ac 9A040000 		.4byte	.LLST44
 2914 09b0 1F       		.uleb128 0x1f
 2915 09b1 2A000000 		.4byte	.LBB32
 2916 09b5 30000000 		.4byte	.LBE32
 2917 09b9 2D       		.uleb128 0x2d
 2918 09ba 746D7000 		.ascii	"tmp\000"
 2919 09be 01       		.byte	0x1
 2920 09bf 4C01     		.2byte	0x14c
 2921 09c1 7B000000 		.4byte	0x7b
 2922 09c5 B8040000 		.4byte	.LLST45
 2923 09c9 00       		.byte	0x0
 2924 09ca 00       		.byte	0x0
 2925 09cb 1F       		.uleb128 0x1f
 2926 09cc 58000000 		.4byte	.LBB34
 2927 09d0 5E000000 		.4byte	.LBE34
 2928 09d4 2D       		.uleb128 0x2d
 2929 09d5 746D7000 		.ascii	"tmp\000"
 2930 09d9 01       		.byte	0x1
 2931 09da 5901     		.2byte	0x159
 2932 09dc 7B000000 		.4byte	0x7b
 2933 09e0 CB040000 		.4byte	.LLST46
 2934 09e4 00       		.byte	0x0
 2935 09e5 00       		.byte	0x0
 2936 09e6 2B       		.uleb128 0x2b
 2937 09e7 01       		.byte	0x1
 2938 09e8 D7000000 		.4byte	.LASF89
 2939 09ec 01       		.byte	0x1
 2940 09ed 6701     		.2byte	0x167
ARM GAS  /tmp/cc1Wnpol.s 			page 53


 2941 09ef 01       		.byte	0x1
 2942 09f0 DD000000 		.4byte	0xdd
 2943 09f4 00000000 		.4byte	.LFB16
 2944 09f8 4C000000 		.4byte	.LFE16
 2945 09fc DE040000 		.4byte	.LLST47
 2946 0a00 500A0000 		.4byte	0xa50
 2947 0a04 29       		.uleb128 0x29
 2948 0a05 6F717000 		.ascii	"oqp\000"
 2949 0a09 01       		.byte	0x1
 2950 0a0a 6701     		.2byte	0x167
 2951 0a0c D3080000 		.4byte	0x8d3
 2952 0a10 FE040000 		.4byte	.LLST48
 2953 0a14 2D       		.uleb128 0x2d
 2954 0a15 6200     		.ascii	"b\000"
 2955 0a17 01       		.byte	0x1
 2956 0a18 6801     		.2byte	0x168
 2957 0a1a 49000000 		.4byte	0x49
 2958 0a1e 1C050000 		.4byte	.LLST49
 2959 0a22 2A       		.uleb128 0x2a
 2960 0a23 5C050000 		.4byte	0x55c
 2961 0a27 2E000000 		.4byte	.LBB35
 2962 0a2b 34000000 		.4byte	.LBE35
 2963 0a2f 01       		.byte	0x1
 2964 0a30 7501     		.2byte	0x175
 2965 0a32 1B       		.uleb128 0x1b
 2966 0a33 6D050000 		.4byte	0x56d
 2967 0a37 2F050000 		.4byte	.LLST50
 2968 0a3b 1F       		.uleb128 0x1f
 2969 0a3c 2E000000 		.4byte	.LBB36
 2970 0a40 34000000 		.4byte	.LBE36
 2971 0a44 20       		.uleb128 0x20
 2972 0a45 78050000 		.4byte	0x578
 2973 0a49 42050000 		.4byte	.LLST51
 2974 0a4d 00       		.byte	0x0
 2975 0a4e 00       		.byte	0x0
 2976 0a4f 00       		.byte	0x0
 2977 0a50 2B       		.uleb128 0x2b
 2978 0a51 01       		.byte	0x1
 2979 0a52 FB010000 		.4byte	.LASF90
 2980 0a56 01       		.byte	0x1
 2981 0a57 9201     		.2byte	0x192
 2982 0a59 01       		.byte	0x1
 2983 0a5a 30000000 		.4byte	0x30
 2984 0a5e 00000000 		.4byte	.LFB17
 2985 0a62 A4000000 		.4byte	.LFE17
 2986 0a66 56050000 		.4byte	.LLST52
 2987 0a6a 3E0B0000 		.4byte	0xb3e
 2988 0a6e 29       		.uleb128 0x29
 2989 0a6f 6F717000 		.ascii	"oqp\000"
 2990 0a73 01       		.byte	0x1
 2991 0a74 9201     		.2byte	0x192
 2992 0a76 D3080000 		.4byte	0x8d3
 2993 0a7a 76050000 		.4byte	.LLST53
 2994 0a7e 29       		.uleb128 0x29
 2995 0a7f 627000   		.ascii	"bp\000"
 2996 0a82 01       		.byte	0x1
 2997 0a83 9201     		.2byte	0x192
ARM GAS  /tmp/cc1Wnpol.s 			page 54


 2998 0a85 28050000 		.4byte	0x528
 2999 0a89 94050000 		.4byte	.LLST54
 3000 0a8d 29       		.uleb128 0x29
 3001 0a8e 6E00     		.ascii	"n\000"
 3002 0a90 01       		.byte	0x1
 3003 0a91 9301     		.2byte	0x193
 3004 0a93 30000000 		.4byte	0x30
 3005 0a97 E0050000 		.4byte	.LLST55
 3006 0a9b 2C       		.uleb128 0x2c
 3007 0a9c 31020000 		.4byte	.LASF77
 3008 0aa0 01       		.byte	0x1
 3009 0aa1 9301     		.2byte	0x193
 3010 0aa3 F3000000 		.4byte	0xf3
 3011 0aa7 2C060000 		.4byte	.LLST56
 3012 0aab 2D       		.uleb128 0x2d
 3013 0aac 6E667900 		.ascii	"nfy\000"
 3014 0ab0 01       		.byte	0x1
 3015 0ab1 9401     		.2byte	0x194
 3016 0ab3 E9040000 		.4byte	0x4e9
 3017 0ab7 4A060000 		.4byte	.LLST57
 3018 0abb 2D       		.uleb128 0x2d
 3019 0abc 7700     		.ascii	"w\000"
 3020 0abe 01       		.byte	0x1
 3021 0abf 9501     		.2byte	0x195
 3022 0ac1 30000000 		.4byte	0x30
 3023 0ac5 69060000 		.4byte	.LLST58
 3024 0ac9 23       		.uleb128 0x23
 3025 0aca 14000000 		.4byte	.LBB37
 3026 0ace 1A000000 		.4byte	.LBE37
 3027 0ad2 E70A0000 		.4byte	0xae7
 3028 0ad6 2D       		.uleb128 0x2d
 3029 0ad7 746D7000 		.ascii	"tmp\000"
 3030 0adb 01       		.byte	0x1
 3031 0adc 9901     		.2byte	0x199
 3032 0ade 7B000000 		.4byte	0x7b
 3033 0ae2 9F060000 		.4byte	.LLST59
 3034 0ae6 00       		.byte	0x0
 3035 0ae7 23       		.uleb128 0x23
 3036 0ae8 52000000 		.4byte	.LBB38
 3037 0aec 58000000 		.4byte	.LBE38
 3038 0af0 050B0000 		.4byte	0xb05
 3039 0af4 2D       		.uleb128 0x2d
 3040 0af5 746D7000 		.ascii	"tmp\000"
 3041 0af9 01       		.byte	0x1
 3042 0afa A901     		.2byte	0x1a9
 3043 0afc 7B000000 		.4byte	0x7b
 3044 0b00 B2060000 		.4byte	.LLST60
 3045 0b04 00       		.byte	0x0
 3046 0b05 23       		.uleb128 0x23
 3047 0b06 60000000 		.4byte	.LBB39
 3048 0b0a 66000000 		.4byte	.LBE39
 3049 0b0e 230B0000 		.4byte	0xb23
 3050 0b12 2D       		.uleb128 0x2d
 3051 0b13 746D7000 		.ascii	"tmp\000"
 3052 0b17 01       		.byte	0x1
 3053 0b18 AD01     		.2byte	0x1ad
 3054 0b1a 7B000000 		.4byte	0x7b
ARM GAS  /tmp/cc1Wnpol.s 			page 55


 3055 0b1e D0060000 		.4byte	.LLST61
 3056 0b22 00       		.byte	0x0
 3057 0b23 1F       		.uleb128 0x1f
 3058 0b24 8A000000 		.4byte	.LBB40
 3059 0b28 90000000 		.4byte	.LBE40
 3060 0b2c 2D       		.uleb128 0x2d
 3061 0b2d 746D7000 		.ascii	"tmp\000"
 3062 0b31 01       		.byte	0x1
 3063 0b32 9D01     		.2byte	0x19d
 3064 0b34 7B000000 		.4byte	0x7b
 3065 0b38 E3060000 		.4byte	.LLST62
 3066 0b3c 00       		.byte	0x0
 3067 0b3d 00       		.byte	0x0
 3068 0b3e 2E       		.uleb128 0x2e
 3069 0b3f 59030000 		.4byte	.LASF91
 3070 0b43 09       		.byte	0x9
 3071 0b44 72       		.byte	0x72
 3072 0b45 C9030000 		.4byte	0x3c9
 3073 0b49 01       		.byte	0x1
 3074 0b4a 01       		.byte	0x1
 3075 0b4b 2E       		.uleb128 0x2e
 3076 0b4c 59030000 		.4byte	.LASF91
 3077 0b50 09       		.byte	0x9
 3078 0b51 72       		.byte	0x72
 3079 0b52 C9030000 		.4byte	0x3c9
 3080 0b56 01       		.byte	0x1
 3081 0b57 01       		.byte	0x1
 3082 0b58 00       		.byte	0x0
 3083              		.section	.debug_abbrev
 3084 0000 01       		.uleb128 0x1
 3085 0001 11       		.uleb128 0x11
 3086 0002 01       		.byte	0x1
 3087 0003 25       		.uleb128 0x25
 3088 0004 0E       		.uleb128 0xe
 3089 0005 13       		.uleb128 0x13
 3090 0006 0B       		.uleb128 0xb
 3091 0007 03       		.uleb128 0x3
 3092 0008 0E       		.uleb128 0xe
 3093 0009 1B       		.uleb128 0x1b
 3094 000a 0E       		.uleb128 0xe
 3095 000b 11       		.uleb128 0x11
 3096 000c 01       		.uleb128 0x1
 3097 000d 52       		.uleb128 0x52
 3098 000e 01       		.uleb128 0x1
 3099 000f 55       		.uleb128 0x55
 3100 0010 06       		.uleb128 0x6
 3101 0011 10       		.uleb128 0x10
 3102 0012 06       		.uleb128 0x6
 3103 0013 00       		.byte	0x0
 3104 0014 00       		.byte	0x0
 3105 0015 02       		.uleb128 0x2
 3106 0016 24       		.uleb128 0x24
 3107 0017 00       		.byte	0x0
 3108 0018 0B       		.uleb128 0xb
 3109 0019 0B       		.uleb128 0xb
 3110 001a 3E       		.uleb128 0x3e
 3111 001b 0B       		.uleb128 0xb
ARM GAS  /tmp/cc1Wnpol.s 			page 56


 3112 001c 03       		.uleb128 0x3
 3113 001d 08       		.uleb128 0x8
 3114 001e 00       		.byte	0x0
 3115 001f 00       		.byte	0x0
 3116 0020 03       		.uleb128 0x3
 3117 0021 16       		.uleb128 0x16
 3118 0022 00       		.byte	0x0
 3119 0023 03       		.uleb128 0x3
 3120 0024 0E       		.uleb128 0xe
 3121 0025 3A       		.uleb128 0x3a
 3122 0026 0B       		.uleb128 0xb
 3123 0027 3B       		.uleb128 0x3b
 3124 0028 0B       		.uleb128 0xb
 3125 0029 49       		.uleb128 0x49
 3126 002a 13       		.uleb128 0x13
 3127 002b 00       		.byte	0x0
 3128 002c 00       		.byte	0x0
 3129 002d 04       		.uleb128 0x4
 3130 002e 24       		.uleb128 0x24
 3131 002f 00       		.byte	0x0
 3132 0030 0B       		.uleb128 0xb
 3133 0031 0B       		.uleb128 0xb
 3134 0032 3E       		.uleb128 0x3e
 3135 0033 0B       		.uleb128 0xb
 3136 0034 03       		.uleb128 0x3
 3137 0035 0E       		.uleb128 0xe
 3138 0036 00       		.byte	0x0
 3139 0037 00       		.byte	0x0
 3140 0038 05       		.uleb128 0x5
 3141 0039 13       		.uleb128 0x13
 3142 003a 01       		.byte	0x1
 3143 003b 03       		.uleb128 0x3
 3144 003c 0E       		.uleb128 0xe
 3145 003d 0B       		.uleb128 0xb
 3146 003e 0B       		.uleb128 0xb
 3147 003f 3A       		.uleb128 0x3a
 3148 0040 0B       		.uleb128 0xb
 3149 0041 3B       		.uleb128 0x3b
 3150 0042 0B       		.uleb128 0xb
 3151 0043 01       		.uleb128 0x1
 3152 0044 13       		.uleb128 0x13
 3153 0045 00       		.byte	0x0
 3154 0046 00       		.byte	0x0
 3155 0047 06       		.uleb128 0x6
 3156 0048 0D       		.uleb128 0xd
 3157 0049 00       		.byte	0x0
 3158 004a 03       		.uleb128 0x3
 3159 004b 0E       		.uleb128 0xe
 3160 004c 3A       		.uleb128 0x3a
 3161 004d 0B       		.uleb128 0xb
 3162 004e 3B       		.uleb128 0x3b
 3163 004f 0B       		.uleb128 0xb
 3164 0050 49       		.uleb128 0x49
 3165 0051 13       		.uleb128 0x13
 3166 0052 38       		.uleb128 0x38
 3167 0053 0A       		.uleb128 0xa
 3168 0054 00       		.byte	0x0
ARM GAS  /tmp/cc1Wnpol.s 			page 57


 3169 0055 00       		.byte	0x0
 3170 0056 07       		.uleb128 0x7
 3171 0057 0D       		.uleb128 0xd
 3172 0058 00       		.byte	0x0
 3173 0059 03       		.uleb128 0x3
 3174 005a 08       		.uleb128 0x8
 3175 005b 3A       		.uleb128 0x3a
 3176 005c 0B       		.uleb128 0xb
 3177 005d 3B       		.uleb128 0x3b
 3178 005e 0B       		.uleb128 0xb
 3179 005f 49       		.uleb128 0x49
 3180 0060 13       		.uleb128 0x13
 3181 0061 38       		.uleb128 0x38
 3182 0062 0A       		.uleb128 0xa
 3183 0063 00       		.byte	0x0
 3184 0064 00       		.byte	0x0
 3185 0065 08       		.uleb128 0x8
 3186 0066 13       		.uleb128 0x13
 3187 0067 01       		.byte	0x1
 3188 0068 0B       		.uleb128 0xb
 3189 0069 0B       		.uleb128 0xb
 3190 006a 3A       		.uleb128 0x3a
 3191 006b 0B       		.uleb128 0xb
 3192 006c 3B       		.uleb128 0x3b
 3193 006d 0B       		.uleb128 0xb
 3194 006e 01       		.uleb128 0x1
 3195 006f 13       		.uleb128 0x13
 3196 0070 00       		.byte	0x0
 3197 0071 00       		.byte	0x0
 3198 0072 09       		.uleb128 0x9
 3199 0073 0F       		.uleb128 0xf
 3200 0074 00       		.byte	0x0
 3201 0075 0B       		.uleb128 0xb
 3202 0076 0B       		.uleb128 0xb
 3203 0077 49       		.uleb128 0x49
 3204 0078 13       		.uleb128 0x13
 3205 0079 00       		.byte	0x0
 3206 007a 00       		.byte	0x0
 3207 007b 0A       		.uleb128 0xa
 3208 007c 0F       		.uleb128 0xf
 3209 007d 00       		.byte	0x0
 3210 007e 0B       		.uleb128 0xb
 3211 007f 0B       		.uleb128 0xb
 3212 0080 00       		.byte	0x0
 3213 0081 00       		.byte	0x0
 3214 0082 0B       		.uleb128 0xb
 3215 0083 0D       		.uleb128 0xd
 3216 0084 00       		.byte	0x0
 3217 0085 03       		.uleb128 0x3
 3218 0086 08       		.uleb128 0x8
 3219 0087 3A       		.uleb128 0x3a
 3220 0088 0B       		.uleb128 0xb
 3221 0089 3B       		.uleb128 0x3b
 3222 008a 05       		.uleb128 0x5
 3223 008b 49       		.uleb128 0x49
 3224 008c 13       		.uleb128 0x13
 3225 008d 38       		.uleb128 0x38
ARM GAS  /tmp/cc1Wnpol.s 			page 58


 3226 008e 0A       		.uleb128 0xa
 3227 008f 00       		.byte	0x0
 3228 0090 00       		.byte	0x0
 3229 0091 0C       		.uleb128 0xc
 3230 0092 13       		.uleb128 0x13
 3231 0093 01       		.byte	0x1
 3232 0094 03       		.uleb128 0x3
 3233 0095 0E       		.uleb128 0xe
 3234 0096 0B       		.uleb128 0xb
 3235 0097 0B       		.uleb128 0xb
 3236 0098 3A       		.uleb128 0x3a
 3237 0099 0B       		.uleb128 0xb
 3238 009a 3B       		.uleb128 0x3b
 3239 009b 05       		.uleb128 0x5
 3240 009c 01       		.uleb128 0x1
 3241 009d 13       		.uleb128 0x13
 3242 009e 00       		.byte	0x0
 3243 009f 00       		.byte	0x0
 3244 00a0 0D       		.uleb128 0xd
 3245 00a1 35       		.uleb128 0x35
 3246 00a2 00       		.byte	0x0
 3247 00a3 49       		.uleb128 0x49
 3248 00a4 13       		.uleb128 0x13
 3249 00a5 00       		.byte	0x0
 3250 00a6 00       		.byte	0x0
 3251 00a7 0E       		.uleb128 0xe
 3252 00a8 17       		.uleb128 0x17
 3253 00a9 01       		.byte	0x1
 3254 00aa 0B       		.uleb128 0xb
 3255 00ab 0B       		.uleb128 0xb
 3256 00ac 3A       		.uleb128 0x3a
 3257 00ad 0B       		.uleb128 0xb
 3258 00ae 3B       		.uleb128 0x3b
 3259 00af 0B       		.uleb128 0xb
 3260 00b0 01       		.uleb128 0x1
 3261 00b1 13       		.uleb128 0x13
 3262 00b2 00       		.byte	0x0
 3263 00b3 00       		.byte	0x0
 3264 00b4 0F       		.uleb128 0xf
 3265 00b5 0D       		.uleb128 0xd
 3266 00b6 00       		.byte	0x0
 3267 00b7 03       		.uleb128 0x3
 3268 00b8 0E       		.uleb128 0xe
 3269 00b9 3A       		.uleb128 0x3a
 3270 00ba 0B       		.uleb128 0xb
 3271 00bb 3B       		.uleb128 0x3b
 3272 00bc 0B       		.uleb128 0xb
 3273 00bd 49       		.uleb128 0x49
 3274 00be 13       		.uleb128 0x13
 3275 00bf 00       		.byte	0x0
 3276 00c0 00       		.byte	0x0
 3277 00c1 10       		.uleb128 0x10
 3278 00c2 26       		.uleb128 0x26
 3279 00c3 00       		.byte	0x0
 3280 00c4 49       		.uleb128 0x49
 3281 00c5 13       		.uleb128 0x13
 3282 00c6 00       		.byte	0x0
ARM GAS  /tmp/cc1Wnpol.s 			page 59


 3283 00c7 00       		.byte	0x0
 3284 00c8 11       		.uleb128 0x11
 3285 00c9 15       		.uleb128 0x15
 3286 00ca 01       		.byte	0x1
 3287 00cb 27       		.uleb128 0x27
 3288 00cc 0C       		.uleb128 0xc
 3289 00cd 01       		.uleb128 0x1
 3290 00ce 13       		.uleb128 0x13
 3291 00cf 00       		.byte	0x0
 3292 00d0 00       		.byte	0x0
 3293 00d1 12       		.uleb128 0x12
 3294 00d2 05       		.uleb128 0x5
 3295 00d3 00       		.byte	0x0
 3296 00d4 49       		.uleb128 0x49
 3297 00d5 13       		.uleb128 0x13
 3298 00d6 00       		.byte	0x0
 3299 00d7 00       		.byte	0x0
 3300 00d8 13       		.uleb128 0x13
 3301 00d9 2E       		.uleb128 0x2e
 3302 00da 01       		.byte	0x1
 3303 00db 03       		.uleb128 0x3
 3304 00dc 0E       		.uleb128 0xe
 3305 00dd 3A       		.uleb128 0x3a
 3306 00de 0B       		.uleb128 0xb
 3307 00df 3B       		.uleb128 0x3b
 3308 00e0 0B       		.uleb128 0xb
 3309 00e1 27       		.uleb128 0x27
 3310 00e2 0C       		.uleb128 0xc
 3311 00e3 20       		.uleb128 0x20
 3312 00e4 0B       		.uleb128 0xb
 3313 00e5 01       		.uleb128 0x1
 3314 00e6 13       		.uleb128 0x13
 3315 00e7 00       		.byte	0x0
 3316 00e8 00       		.byte	0x0
 3317 00e9 14       		.uleb128 0x14
 3318 00ea 05       		.uleb128 0x5
 3319 00eb 00       		.byte	0x0
 3320 00ec 03       		.uleb128 0x3
 3321 00ed 08       		.uleb128 0x8
 3322 00ee 3A       		.uleb128 0x3a
 3323 00ef 0B       		.uleb128 0xb
 3324 00f0 3B       		.uleb128 0x3b
 3325 00f1 0B       		.uleb128 0xb
 3326 00f2 49       		.uleb128 0x49
 3327 00f3 13       		.uleb128 0x13
 3328 00f4 00       		.byte	0x0
 3329 00f5 00       		.byte	0x0
 3330 00f6 15       		.uleb128 0x15
 3331 00f7 2E       		.uleb128 0x2e
 3332 00f8 01       		.byte	0x1
 3333 00f9 03       		.uleb128 0x3
 3334 00fa 0E       		.uleb128 0xe
 3335 00fb 3A       		.uleb128 0x3a
 3336 00fc 0B       		.uleb128 0xb
 3337 00fd 3B       		.uleb128 0x3b
 3338 00fe 0B       		.uleb128 0xb
 3339 00ff 27       		.uleb128 0x27
ARM GAS  /tmp/cc1Wnpol.s 			page 60


 3340 0100 0C       		.uleb128 0xc
 3341 0101 49       		.uleb128 0x49
 3342 0102 13       		.uleb128 0x13
 3343 0103 20       		.uleb128 0x20
 3344 0104 0B       		.uleb128 0xb
 3345 0105 01       		.uleb128 0x1
 3346 0106 13       		.uleb128 0x13
 3347 0107 00       		.byte	0x0
 3348 0108 00       		.byte	0x0
 3349 0109 16       		.uleb128 0x16
 3350 010a 34       		.uleb128 0x34
 3351 010b 00       		.byte	0x0
 3352 010c 03       		.uleb128 0x3
 3353 010d 08       		.uleb128 0x8
 3354 010e 3A       		.uleb128 0x3a
 3355 010f 0B       		.uleb128 0xb
 3356 0110 3B       		.uleb128 0x3b
 3357 0111 0B       		.uleb128 0xb
 3358 0112 49       		.uleb128 0x49
 3359 0113 13       		.uleb128 0x13
 3360 0114 00       		.byte	0x0
 3361 0115 00       		.byte	0x0
 3362 0116 17       		.uleb128 0x17
 3363 0117 2E       		.uleb128 0x2e
 3364 0118 01       		.byte	0x1
 3365 0119 03       		.uleb128 0x3
 3366 011a 0E       		.uleb128 0xe
 3367 011b 3A       		.uleb128 0x3a
 3368 011c 0B       		.uleb128 0xb
 3369 011d 3B       		.uleb128 0x3b
 3370 011e 0B       		.uleb128 0xb
 3371 011f 27       		.uleb128 0x27
 3372 0120 0C       		.uleb128 0xc
 3373 0121 49       		.uleb128 0x49
 3374 0122 13       		.uleb128 0x13
 3375 0123 11       		.uleb128 0x11
 3376 0124 01       		.uleb128 0x1
 3377 0125 12       		.uleb128 0x12
 3378 0126 01       		.uleb128 0x1
 3379 0127 40       		.uleb128 0x40
 3380 0128 06       		.uleb128 0x6
 3381 0129 01       		.uleb128 0x1
 3382 012a 13       		.uleb128 0x13
 3383 012b 00       		.byte	0x0
 3384 012c 00       		.byte	0x0
 3385 012d 18       		.uleb128 0x18
 3386 012e 05       		.uleb128 0x5
 3387 012f 00       		.byte	0x0
 3388 0130 03       		.uleb128 0x3
 3389 0131 08       		.uleb128 0x8
 3390 0132 3A       		.uleb128 0x3a
 3391 0133 0B       		.uleb128 0xb
 3392 0134 3B       		.uleb128 0x3b
 3393 0135 0B       		.uleb128 0xb
 3394 0136 49       		.uleb128 0x49
 3395 0137 13       		.uleb128 0x13
 3396 0138 02       		.uleb128 0x2
ARM GAS  /tmp/cc1Wnpol.s 			page 61


 3397 0139 06       		.uleb128 0x6
 3398 013a 00       		.byte	0x0
 3399 013b 00       		.byte	0x0
 3400 013c 19       		.uleb128 0x19
 3401 013d 05       		.uleb128 0x5
 3402 013e 00       		.byte	0x0
 3403 013f 03       		.uleb128 0x3
 3404 0140 0E       		.uleb128 0xe
 3405 0141 3A       		.uleb128 0x3a
 3406 0142 0B       		.uleb128 0xb
 3407 0143 3B       		.uleb128 0x3b
 3408 0144 0B       		.uleb128 0xb
 3409 0145 49       		.uleb128 0x49
 3410 0146 13       		.uleb128 0x13
 3411 0147 02       		.uleb128 0x2
 3412 0148 06       		.uleb128 0x6
 3413 0149 00       		.byte	0x0
 3414 014a 00       		.byte	0x0
 3415 014b 1A       		.uleb128 0x1a
 3416 014c 1D       		.uleb128 0x1d
 3417 014d 01       		.byte	0x1
 3418 014e 31       		.uleb128 0x31
 3419 014f 13       		.uleb128 0x13
 3420 0150 11       		.uleb128 0x11
 3421 0151 01       		.uleb128 0x1
 3422 0152 12       		.uleb128 0x12
 3423 0153 01       		.uleb128 0x1
 3424 0154 58       		.uleb128 0x58
 3425 0155 0B       		.uleb128 0xb
 3426 0156 59       		.uleb128 0x59
 3427 0157 0B       		.uleb128 0xb
 3428 0158 00       		.byte	0x0
 3429 0159 00       		.byte	0x0
 3430 015a 1B       		.uleb128 0x1b
 3431 015b 05       		.uleb128 0x5
 3432 015c 00       		.byte	0x0
 3433 015d 31       		.uleb128 0x31
 3434 015e 13       		.uleb128 0x13
 3435 015f 02       		.uleb128 0x2
 3436 0160 06       		.uleb128 0x6
 3437 0161 00       		.byte	0x0
 3438 0162 00       		.byte	0x0
 3439 0163 1C       		.uleb128 0x1c
 3440 0164 2E       		.uleb128 0x2e
 3441 0165 01       		.byte	0x1
 3442 0166 3F       		.uleb128 0x3f
 3443 0167 0C       		.uleb128 0xc
 3444 0168 03       		.uleb128 0x3
 3445 0169 0E       		.uleb128 0xe
 3446 016a 3A       		.uleb128 0x3a
 3447 016b 0B       		.uleb128 0xb
 3448 016c 3B       		.uleb128 0x3b
 3449 016d 0B       		.uleb128 0xb
 3450 016e 27       		.uleb128 0x27
 3451 016f 0C       		.uleb128 0xc
 3452 0170 11       		.uleb128 0x11
 3453 0171 01       		.uleb128 0x1
ARM GAS  /tmp/cc1Wnpol.s 			page 62


 3454 0172 12       		.uleb128 0x12
 3455 0173 01       		.uleb128 0x1
 3456 0174 40       		.uleb128 0x40
 3457 0175 06       		.uleb128 0x6
 3458 0176 01       		.uleb128 0x1
 3459 0177 13       		.uleb128 0x13
 3460 0178 00       		.byte	0x0
 3461 0179 00       		.byte	0x0
 3462 017a 1D       		.uleb128 0x1d
 3463 017b 05       		.uleb128 0x5
 3464 017c 00       		.byte	0x0
 3465 017d 03       		.uleb128 0x3
 3466 017e 08       		.uleb128 0x8
 3467 017f 3A       		.uleb128 0x3a
 3468 0180 0B       		.uleb128 0xb
 3469 0181 3B       		.uleb128 0x3b
 3470 0182 0B       		.uleb128 0xb
 3471 0183 49       		.uleb128 0x49
 3472 0184 13       		.uleb128 0x13
 3473 0185 02       		.uleb128 0x2
 3474 0186 0A       		.uleb128 0xa
 3475 0187 00       		.byte	0x0
 3476 0188 00       		.byte	0x0
 3477 0189 1E       		.uleb128 0x1e
 3478 018a 05       		.uleb128 0x5
 3479 018b 00       		.byte	0x0
 3480 018c 03       		.uleb128 0x3
 3481 018d 0E       		.uleb128 0xe
 3482 018e 3A       		.uleb128 0x3a
 3483 018f 0B       		.uleb128 0xb
 3484 0190 3B       		.uleb128 0x3b
 3485 0191 0B       		.uleb128 0xb
 3486 0192 49       		.uleb128 0x49
 3487 0193 13       		.uleb128 0x13
 3488 0194 02       		.uleb128 0x2
 3489 0195 0A       		.uleb128 0xa
 3490 0196 00       		.byte	0x0
 3491 0197 00       		.byte	0x0
 3492 0198 1F       		.uleb128 0x1f
 3493 0199 0B       		.uleb128 0xb
 3494 019a 01       		.byte	0x1
 3495 019b 11       		.uleb128 0x11
 3496 019c 01       		.uleb128 0x1
 3497 019d 12       		.uleb128 0x12
 3498 019e 01       		.uleb128 0x1
 3499 019f 00       		.byte	0x0
 3500 01a0 00       		.byte	0x0
 3501 01a1 20       		.uleb128 0x20
 3502 01a2 34       		.uleb128 0x34
 3503 01a3 00       		.byte	0x0
 3504 01a4 31       		.uleb128 0x31
 3505 01a5 13       		.uleb128 0x13
 3506 01a6 02       		.uleb128 0x2
 3507 01a7 06       		.uleb128 0x6
 3508 01a8 00       		.byte	0x0
 3509 01a9 00       		.byte	0x0
 3510 01aa 21       		.uleb128 0x21
ARM GAS  /tmp/cc1Wnpol.s 			page 63


 3511 01ab 2E       		.uleb128 0x2e
 3512 01ac 01       		.byte	0x1
 3513 01ad 3F       		.uleb128 0x3f
 3514 01ae 0C       		.uleb128 0xc
 3515 01af 03       		.uleb128 0x3
 3516 01b0 0E       		.uleb128 0xe
 3517 01b1 3A       		.uleb128 0x3a
 3518 01b2 0B       		.uleb128 0xb
 3519 01b3 3B       		.uleb128 0x3b
 3520 01b4 0B       		.uleb128 0xb
 3521 01b5 27       		.uleb128 0x27
 3522 01b6 0C       		.uleb128 0xc
 3523 01b7 49       		.uleb128 0x49
 3524 01b8 13       		.uleb128 0x13
 3525 01b9 11       		.uleb128 0x11
 3526 01ba 01       		.uleb128 0x1
 3527 01bb 12       		.uleb128 0x12
 3528 01bc 01       		.uleb128 0x1
 3529 01bd 40       		.uleb128 0x40
 3530 01be 06       		.uleb128 0x6
 3531 01bf 01       		.uleb128 0x1
 3532 01c0 13       		.uleb128 0x13
 3533 01c1 00       		.byte	0x0
 3534 01c2 00       		.byte	0x0
 3535 01c3 22       		.uleb128 0x22
 3536 01c4 34       		.uleb128 0x34
 3537 01c5 00       		.byte	0x0
 3538 01c6 03       		.uleb128 0x3
 3539 01c7 08       		.uleb128 0x8
 3540 01c8 3A       		.uleb128 0x3a
 3541 01c9 0B       		.uleb128 0xb
 3542 01ca 3B       		.uleb128 0x3b
 3543 01cb 0B       		.uleb128 0xb
 3544 01cc 49       		.uleb128 0x49
 3545 01cd 13       		.uleb128 0x13
 3546 01ce 02       		.uleb128 0x2
 3547 01cf 0A       		.uleb128 0xa
 3548 01d0 00       		.byte	0x0
 3549 01d1 00       		.byte	0x0
 3550 01d2 23       		.uleb128 0x23
 3551 01d3 0B       		.uleb128 0xb
 3552 01d4 01       		.byte	0x1
 3553 01d5 11       		.uleb128 0x11
 3554 01d6 01       		.uleb128 0x1
 3555 01d7 12       		.uleb128 0x12
 3556 01d8 01       		.uleb128 0x1
 3557 01d9 01       		.uleb128 0x1
 3558 01da 13       		.uleb128 0x13
 3559 01db 00       		.byte	0x0
 3560 01dc 00       		.byte	0x0
 3561 01dd 24       		.uleb128 0x24
 3562 01de 34       		.uleb128 0x34
 3563 01df 00       		.byte	0x0
 3564 01e0 03       		.uleb128 0x3
 3565 01e1 08       		.uleb128 0x8
 3566 01e2 3A       		.uleb128 0x3a
 3567 01e3 0B       		.uleb128 0xb
ARM GAS  /tmp/cc1Wnpol.s 			page 64


 3568 01e4 3B       		.uleb128 0x3b
 3569 01e5 0B       		.uleb128 0xb
 3570 01e6 49       		.uleb128 0x49
 3571 01e7 13       		.uleb128 0x13
 3572 01e8 02       		.uleb128 0x2
 3573 01e9 06       		.uleb128 0x6
 3574 01ea 00       		.byte	0x0
 3575 01eb 00       		.byte	0x0
 3576 01ec 25       		.uleb128 0x25
 3577 01ed 0B       		.uleb128 0xb
 3578 01ee 01       		.byte	0x1
 3579 01ef 55       		.uleb128 0x55
 3580 01f0 06       		.uleb128 0x6
 3581 01f1 01       		.uleb128 0x1
 3582 01f2 13       		.uleb128 0x13
 3583 01f3 00       		.byte	0x0
 3584 01f4 00       		.byte	0x0
 3585 01f5 26       		.uleb128 0x26
 3586 01f6 2E       		.uleb128 0x2e
 3587 01f7 01       		.byte	0x1
 3588 01f8 3F       		.uleb128 0x3f
 3589 01f9 0C       		.uleb128 0xc
 3590 01fa 03       		.uleb128 0x3
 3591 01fb 0E       		.uleb128 0xe
 3592 01fc 3A       		.uleb128 0x3a
 3593 01fd 0B       		.uleb128 0xb
 3594 01fe 3B       		.uleb128 0x3b
 3595 01ff 05       		.uleb128 0x5
 3596 0200 27       		.uleb128 0x27
 3597 0201 0C       		.uleb128 0xc
 3598 0202 11       		.uleb128 0x11
 3599 0203 01       		.uleb128 0x1
 3600 0204 12       		.uleb128 0x12
 3601 0205 01       		.uleb128 0x1
 3602 0206 40       		.uleb128 0x40
 3603 0207 06       		.uleb128 0x6
 3604 0208 01       		.uleb128 0x1
 3605 0209 13       		.uleb128 0x13
 3606 020a 00       		.byte	0x0
 3607 020b 00       		.byte	0x0
 3608 020c 27       		.uleb128 0x27
 3609 020d 05       		.uleb128 0x5
 3610 020e 00       		.byte	0x0
 3611 020f 03       		.uleb128 0x3
 3612 0210 08       		.uleb128 0x8
 3613 0211 3A       		.uleb128 0x3a
 3614 0212 0B       		.uleb128 0xb
 3615 0213 3B       		.uleb128 0x3b
 3616 0214 05       		.uleb128 0x5
 3617 0215 49       		.uleb128 0x49
 3618 0216 13       		.uleb128 0x13
 3619 0217 02       		.uleb128 0x2
 3620 0218 0A       		.uleb128 0xa
 3621 0219 00       		.byte	0x0
 3622 021a 00       		.byte	0x0
 3623 021b 28       		.uleb128 0x28
 3624 021c 05       		.uleb128 0x5
ARM GAS  /tmp/cc1Wnpol.s 			page 65


 3625 021d 00       		.byte	0x0
 3626 021e 03       		.uleb128 0x3
 3627 021f 0E       		.uleb128 0xe
 3628 0220 3A       		.uleb128 0x3a
 3629 0221 0B       		.uleb128 0xb
 3630 0222 3B       		.uleb128 0x3b
 3631 0223 05       		.uleb128 0x5
 3632 0224 49       		.uleb128 0x49
 3633 0225 13       		.uleb128 0x13
 3634 0226 02       		.uleb128 0x2
 3635 0227 0A       		.uleb128 0xa
 3636 0228 00       		.byte	0x0
 3637 0229 00       		.byte	0x0
 3638 022a 29       		.uleb128 0x29
 3639 022b 05       		.uleb128 0x5
 3640 022c 00       		.byte	0x0
 3641 022d 03       		.uleb128 0x3
 3642 022e 08       		.uleb128 0x8
 3643 022f 3A       		.uleb128 0x3a
 3644 0230 0B       		.uleb128 0xb
 3645 0231 3B       		.uleb128 0x3b
 3646 0232 05       		.uleb128 0x5
 3647 0233 49       		.uleb128 0x49
 3648 0234 13       		.uleb128 0x13
 3649 0235 02       		.uleb128 0x2
 3650 0236 06       		.uleb128 0x6
 3651 0237 00       		.byte	0x0
 3652 0238 00       		.byte	0x0
 3653 0239 2A       		.uleb128 0x2a
 3654 023a 1D       		.uleb128 0x1d
 3655 023b 01       		.byte	0x1
 3656 023c 31       		.uleb128 0x31
 3657 023d 13       		.uleb128 0x13
 3658 023e 11       		.uleb128 0x11
 3659 023f 01       		.uleb128 0x1
 3660 0240 12       		.uleb128 0x12
 3661 0241 01       		.uleb128 0x1
 3662 0242 58       		.uleb128 0x58
 3663 0243 0B       		.uleb128 0xb
 3664 0244 59       		.uleb128 0x59
 3665 0245 05       		.uleb128 0x5
 3666 0246 00       		.byte	0x0
 3667 0247 00       		.byte	0x0
 3668 0248 2B       		.uleb128 0x2b
 3669 0249 2E       		.uleb128 0x2e
 3670 024a 01       		.byte	0x1
 3671 024b 3F       		.uleb128 0x3f
 3672 024c 0C       		.uleb128 0xc
 3673 024d 03       		.uleb128 0x3
 3674 024e 0E       		.uleb128 0xe
 3675 024f 3A       		.uleb128 0x3a
 3676 0250 0B       		.uleb128 0xb
 3677 0251 3B       		.uleb128 0x3b
 3678 0252 05       		.uleb128 0x5
 3679 0253 27       		.uleb128 0x27
 3680 0254 0C       		.uleb128 0xc
 3681 0255 49       		.uleb128 0x49
ARM GAS  /tmp/cc1Wnpol.s 			page 66


 3682 0256 13       		.uleb128 0x13
 3683 0257 11       		.uleb128 0x11
 3684 0258 01       		.uleb128 0x1
 3685 0259 12       		.uleb128 0x12
 3686 025a 01       		.uleb128 0x1
 3687 025b 40       		.uleb128 0x40
 3688 025c 06       		.uleb128 0x6
 3689 025d 01       		.uleb128 0x1
 3690 025e 13       		.uleb128 0x13
 3691 025f 00       		.byte	0x0
 3692 0260 00       		.byte	0x0
 3693 0261 2C       		.uleb128 0x2c
 3694 0262 05       		.uleb128 0x5
 3695 0263 00       		.byte	0x0
 3696 0264 03       		.uleb128 0x3
 3697 0265 0E       		.uleb128 0xe
 3698 0266 3A       		.uleb128 0x3a
 3699 0267 0B       		.uleb128 0xb
 3700 0268 3B       		.uleb128 0x3b
 3701 0269 05       		.uleb128 0x5
 3702 026a 49       		.uleb128 0x49
 3703 026b 13       		.uleb128 0x13
 3704 026c 02       		.uleb128 0x2
 3705 026d 06       		.uleb128 0x6
 3706 026e 00       		.byte	0x0
 3707 026f 00       		.byte	0x0
 3708 0270 2D       		.uleb128 0x2d
 3709 0271 34       		.uleb128 0x34
 3710 0272 00       		.byte	0x0
 3711 0273 03       		.uleb128 0x3
 3712 0274 08       		.uleb128 0x8
 3713 0275 3A       		.uleb128 0x3a
 3714 0276 0B       		.uleb128 0xb
 3715 0277 3B       		.uleb128 0x3b
 3716 0278 05       		.uleb128 0x5
 3717 0279 49       		.uleb128 0x49
 3718 027a 13       		.uleb128 0x13
 3719 027b 02       		.uleb128 0x2
 3720 027c 06       		.uleb128 0x6
 3721 027d 00       		.byte	0x0
 3722 027e 00       		.byte	0x0
 3723 027f 2E       		.uleb128 0x2e
 3724 0280 34       		.uleb128 0x34
 3725 0281 00       		.byte	0x0
 3726 0282 03       		.uleb128 0x3
 3727 0283 0E       		.uleb128 0xe
 3728 0284 3A       		.uleb128 0x3a
 3729 0285 0B       		.uleb128 0xb
 3730 0286 3B       		.uleb128 0x3b
 3731 0287 0B       		.uleb128 0xb
 3732 0288 49       		.uleb128 0x49
 3733 0289 13       		.uleb128 0x13
 3734 028a 3F       		.uleb128 0x3f
 3735 028b 0C       		.uleb128 0xc
 3736 028c 3C       		.uleb128 0x3c
 3737 028d 0C       		.uleb128 0xc
 3738 028e 00       		.byte	0x0
ARM GAS  /tmp/cc1Wnpol.s 			page 67


 3739 028f 00       		.byte	0x0
 3740 0290 00       		.byte	0x0
 3741              		.section	.debug_pubnames,"",%progbits
 3742 0000 AF000000 		.4byte	0xaf
 3743 0004 0200     		.2byte	0x2
 3744 0006 00000000 		.4byte	.Ldebug_info0
 3745 000a 590B0000 		.4byte	0xb59
 3746 000e DF050000 		.4byte	0x5df
 3747 0012 63684951 		.ascii	"chIQInit\000"
 3747      496E6974 
 3747      00
 3748 001b 34060000 		.4byte	0x634
 3749 001f 63684951 		.ascii	"chIQResetI\000"
 3749      52657365 
 3749      744900
 3750 002a 89060000 		.4byte	0x689
 3751 002e 63684951 		.ascii	"chIQPutI\000"
 3751      50757449 
 3751      00
 3752 0037 EF060000 		.4byte	0x6ef
 3753 003b 63684951 		.ascii	"chIQGetTimeout\000"
 3753      47657454 
 3753      696D656F 
 3753      757400
 3754 004a 9E070000 		.4byte	0x79e
 3755 004e 63684951 		.ascii	"chIQReadTimeout\000"
 3755      52656164 
 3755      54696D65 
 3755      6F757400 
 3756 005e 81080000 		.4byte	0x881
 3757 0062 63684F51 		.ascii	"chOQInit\000"
 3757      496E6974 
 3757      00
 3758 006b D9080000 		.4byte	0x8d9
 3759 006f 63684F51 		.ascii	"chOQResetI\000"
 3759      52657365 
 3759      744900
 3760 007a 31090000 		.4byte	0x931
 3761 007e 63684F51 		.ascii	"chOQPutTimeout\000"
 3761      50757454 
 3761      696D656F 
 3761      757400
 3762 008d E6090000 		.4byte	0x9e6
 3763 0091 63684F51 		.ascii	"chOQGetI\000"
 3763      47657449 
 3763      00
 3764 009a 500A0000 		.4byte	0xa50
 3765 009e 63684F51 		.ascii	"chOQWriteTimeout\000"
 3765      57726974 
 3765      6554696D 
 3765      656F7574 
 3765      00
 3766 00af 00000000 		.4byte	0x0
 3767              		.section	.debug_pubtypes,"",%progbits
 3768 0000 94010000 		.4byte	0x194
 3769 0004 0200     		.2byte	0x2
 3770 0006 00000000 		.4byte	.Ldebug_info0
ARM GAS  /tmp/cc1Wnpol.s 			page 68


 3771 000a 590B0000 		.4byte	0xb59
 3772 000e 30000000 		.4byte	0x30
 3773 0012 73697A65 		.ascii	"size_t\000"
 3773      5F7400
 3774 0019 49000000 		.4byte	0x49
 3775 001d 75696E74 		.ascii	"uint8_t\000"
 3775      385F7400 
 3776 0025 69000000 		.4byte	0x69
 3777 0029 696E7433 		.ascii	"int32_t\000"
 3777      325F7400 
 3778 0031 7B000000 		.4byte	0x7b
 3779 0035 75696E74 		.ascii	"uint32_t\000"
 3779      33325F74 
 3779      00
 3780 003e 94000000 		.4byte	0x94
 3781 0042 75696E74 		.ascii	"uint64_t\000"
 3781      36345F74 
 3781      00
 3782 004b A6000000 		.4byte	0xa6
 3783 004f 626F6F6C 		.ascii	"bool_t\000"
 3783      5F7400
 3784 0056 B1000000 		.4byte	0xb1
 3785 005a 746D6F64 		.ascii	"tmode_t\000"
 3785      655F7400 
 3786 0062 BC000000 		.4byte	0xbc
 3787 0066 74737461 		.ascii	"tstate_t\000"
 3787      74655F74 
 3787      00
 3788 006f C7000000 		.4byte	0xc7
 3789 0073 74726566 		.ascii	"trefs_t\000"
 3789      735F7400 
 3790 007b D2000000 		.4byte	0xd2
 3791 007f 74707269 		.ascii	"tprio_t\000"
 3791      6F5F7400 
 3792 0087 DD000000 		.4byte	0xdd
 3793 008b 6D73675F 		.ascii	"msg_t\000"
 3793      7400
 3794 0091 E8000000 		.4byte	0xe8
 3795 0095 6576656E 		.ascii	"eventmask_t\000"
 3795      746D6173 
 3795      6B5F7400 
 3796 00a1 F3000000 		.4byte	0xf3
 3797 00a5 73797374 		.ascii	"systime_t\000"
 3797      696D655F 
 3797      7400
 3798 00af FE000000 		.4byte	0xfe
 3799 00b3 636E745F 		.ascii	"cnt_t\000"
 3799      7400
 3800 00b9 09010000 		.4byte	0x109
 3801 00bd 54687265 		.ascii	"Thread\000"
 3801      616400
 3802 00c4 64020000 		.4byte	0x264
 3803 00c8 54687265 		.ascii	"ThreadsQueue\000"
 3803      61647351 
 3803      75657565 
 3803      00
 3804 00d5 86020000 		.4byte	0x286
ARM GAS  /tmp/cc1Wnpol.s 			page 69


 3805 00d9 54687265 		.ascii	"ThreadsList\000"
 3805      6164734C 
 3805      69737400 
 3806 00e5 91020000 		.4byte	0x291
 3807 00e9 72656761 		.ascii	"regarm_t\000"
 3807      726D5F74 
 3807      00
 3808 00f2 9E020000 		.4byte	0x29e
 3809 00f6 73746B61 		.ascii	"stkalign_t\000"
 3809      6C69676E 
 3809      5F7400
 3810 0101 A9020000 		.4byte	0x2a9
 3811 0105 696E7463 		.ascii	"intctx\000"
 3811      747800
 3812 010c 36030000 		.4byte	0x336
 3813 0110 636F6E74 		.ascii	"context\000"
 3813      65787400 
 3814 0118 C9030000 		.4byte	0x3c9
 3815 011c 52656164 		.ascii	"ReadyList\000"
 3815      794C6973 
 3815      7400
 3816 0126 D4030000 		.4byte	0x3d4
 3817 012a 4D757465 		.ascii	"Mutex\000"
 3817      7800
 3818 0130 11040000 		.4byte	0x411
 3819 0134 4D757465 		.ascii	"Mutex\000"
 3819      7800
 3820 013a 14010000 		.4byte	0x114
 3821 013e 54687265 		.ascii	"Thread\000"
 3821      616400
 3822 0145 6F040000 		.4byte	0x46f
 3823 0149 47656E65 		.ascii	"GenericQueue\000"
 3823      72696351 
 3823      75657565 
 3823      00
 3824 0156 E9040000 		.4byte	0x4e9
 3825 015a 716E6F74 		.ascii	"qnotify_t\000"
 3825      6966795F 
 3825      7400
 3826 0164 7A040000 		.4byte	0x47a
 3827 0168 47656E65 		.ascii	"GenericQueue\000"
 3827      72696351 
 3827      75657565 
 3827      00
 3828 0175 12050000 		.4byte	0x512
 3829 0179 496E7075 		.ascii	"InputQueue\000"
 3829      74517565 
 3829      756500
 3830 0184 1D050000 		.4byte	0x51d
 3831 0188 4F757470 		.ascii	"OutputQueue\000"
 3831      75745175 
 3831      65756500 
 3832 0194 00000000 		.4byte	0x0
 3833              		.section	.debug_aranges,"",%progbits
 3834 0000 6C000000 		.4byte	0x6c
 3835 0004 0200     		.2byte	0x2
 3836 0006 00000000 		.4byte	.Ldebug_info0
ARM GAS  /tmp/cc1Wnpol.s 			page 70


 3837 000a 04       		.byte	0x4
 3838 000b 00       		.byte	0x0
 3839 000c 0000     		.2byte	0x0
 3840 000e 0000     		.2byte	0x0
 3841 0010 00000000 		.4byte	.LFB7
 3842 0014 2C000000 		.4byte	.LFE7-.LFB7
 3843 0018 00000000 		.4byte	.LFB8
 3844 001c 1A000000 		.4byte	.LFE8-.LFB8
 3845 0020 00000000 		.4byte	.LFB9
 3846 0024 30000000 		.4byte	.LFE9-.LFB9
 3847 0028 00000000 		.4byte	.LFB10
 3848 002c 52000000 		.4byte	.LFE10-.LFB10
 3849 0030 00000000 		.4byte	.LFB11
 3850 0034 5A000000 		.4byte	.LFE11-.LFB11
 3851 0038 00000000 		.4byte	.LFB12
 3852 003c 90000000 		.4byte	.LFE12-.LFB12
 3853 0040 00000000 		.4byte	.LFB13
 3854 0044 18000000 		.4byte	.LFE13-.LFB13
 3855 0048 00000000 		.4byte	.LFB14
 3856 004c 32000000 		.4byte	.LFE14-.LFB14
 3857 0050 00000000 		.4byte	.LFB15
 3858 0054 66000000 		.4byte	.LFE15-.LFB15
 3859 0058 00000000 		.4byte	.LFB16
 3860 005c 4C000000 		.4byte	.LFE16-.LFB16
 3861 0060 00000000 		.4byte	.LFB17
 3862 0064 A4000000 		.4byte	.LFE17-.LFB17
 3863 0068 00000000 		.4byte	0x0
 3864 006c 00000000 		.4byte	0x0
 3865              		.section	.debug_ranges,"",%progbits
 3866              	.Ldebug_ranges0:
 3867 0000 1A000000 		.4byte	.LBB19
 3868 0004 1E000000 		.4byte	.LBE19
 3869 0008 20000000 		.4byte	.LBB21
 3870 000c 32000000 		.4byte	.LBE21
 3871 0010 00000000 		.4byte	0x0
 3872 0014 00000000 		.4byte	0x0
 3873 0018 04000000 		.4byte	.LBB29
 3874 001c 06000000 		.4byte	.LBE29
 3875 0020 0C000000 		.4byte	.LBB30
 3876 0024 10000000 		.4byte	.LBE30
 3877 0028 00000000 		.4byte	0x0
 3878 002c 00000000 		.4byte	0x0
 3879 0030 16000000 		.4byte	.LBB31
 3880 0034 1A000000 		.4byte	.LBE31
 3881 0038 1C000000 		.4byte	.LBB33
 3882 003c 30000000 		.4byte	.LBE33
 3883 0040 00000000 		.4byte	0x0
 3884 0044 00000000 		.4byte	0x0
 3885 0048 00000000 		.4byte	.LFB7
 3886 004c 2C000000 		.4byte	.LFE7
 3887 0050 00000000 		.4byte	.LFB8
 3888 0054 1A000000 		.4byte	.LFE8
 3889 0058 00000000 		.4byte	.LFB9
 3890 005c 30000000 		.4byte	.LFE9
 3891 0060 00000000 		.4byte	.LFB10
 3892 0064 52000000 		.4byte	.LFE10
 3893 0068 00000000 		.4byte	.LFB11
ARM GAS  /tmp/cc1Wnpol.s 			page 71


 3894 006c 5A000000 		.4byte	.LFE11
 3895 0070 00000000 		.4byte	.LFB12
 3896 0074 90000000 		.4byte	.LFE12
 3897 0078 00000000 		.4byte	.LFB13
 3898 007c 18000000 		.4byte	.LFE13
 3899 0080 00000000 		.4byte	.LFB14
 3900 0084 32000000 		.4byte	.LFE14
 3901 0088 00000000 		.4byte	.LFB15
 3902 008c 66000000 		.4byte	.LFE15
 3903 0090 00000000 		.4byte	.LFB16
 3904 0094 4C000000 		.4byte	.LFE16
 3905 0098 00000000 		.4byte	.LFB17
 3906 009c A4000000 		.4byte	.LFE17
 3907 00a0 00000000 		.4byte	0x0
 3908 00a4 00000000 		.4byte	0x0
 3909              		.section	.debug_str,"MS",%progbits,1
 3910              	.LASF85:
 3911 0000 63684F51 		.ascii	"chOQInit\000"
 3911      496E6974 
 3911      00
 3912              	.LASF38:
 3913 0009 705F6D73 		.ascii	"p_msg\000"
 3913      6700
 3914              	.LASF95:
 3915 000f 71756575 		.ascii	"queue_insert\000"
 3915      655F696E 
 3915      73657274 
 3915      00
 3916              	.LASF86:
 3917 001c 6F6E6679 		.ascii	"onfy\000"
 3917      00
 3918              	.LASF2:
 3919 0021 73697A65 		.ascii	"size_t\000"
 3919      5F7400
 3920              	.LASF61:
 3921 0028 7264796D 		.ascii	"rdymsg\000"
 3921      736700
 3922              	.LASF80:
 3923 002f 63684951 		.ascii	"chIQInit\000"
 3923      496E6974 
 3923      00
 3924              	.LASF12:
 3925 0038 75696E74 		.ascii	"uint64_t\000"
 3925      36345F74 
 3925      00
 3926              	.LASF76:
 3927 0041 4F757470 		.ascii	"OutputQueue\000"
 3927      75745175 
 3927      65756500 
 3928              	.LASF84:
 3929 004d 63684951 		.ascii	"chIQReadTimeout\000"
 3929      52656164 
 3929      54696D65 
 3929      6F757400 
 3930              	.LASF13:
 3931 005d 6C6F6E67 		.ascii	"long long unsigned int\000"
 3931      206C6F6E 
ARM GAS  /tmp/cc1Wnpol.s 			page 72


 3931      6720756E 
 3931      7369676E 
 3931      65642069 
 3932              	.LASF62:
 3933 0074 65786974 		.ascii	"exitcode\000"
 3933      636F6465 
 3933      00
 3934              	.LASF26:
 3935 007d 705F7072 		.ascii	"p_prio\000"
 3935      696F00
 3936              	.LASF67:
 3937 0084 715F7761 		.ascii	"q_waiting\000"
 3937      6974696E 
 3937      6700
 3938              	.LASF11:
 3939 008e 6C6F6E67 		.ascii	"long long int\000"
 3939      206C6F6E 
 3939      6720696E 
 3939      7400
 3940              	.LASF1:
 3941 009c 7369676E 		.ascii	"signed char\000"
 3941      65642063 
 3941      68617200 
 3942              	.LASF42:
 3943 00a8 705F6D70 		.ascii	"p_mpool\000"
 3943      6F6F6C00 
 3944              	.LASF14:
 3945 00b0 626F6F6C 		.ascii	"bool_t\000"
 3945      5F7400
 3946              	.LASF58:
 3947 00b7 6D5F7175 		.ascii	"m_queue\000"
 3947      65756500 
 3948              	.LASF97:
 3949 00bf 71776169 		.ascii	"qwait\000"
 3949      7400
 3950              	.LASF8:
 3951 00c5 6C6F6E67 		.ascii	"long int\000"
 3951      20696E74 
 3951      00
 3952              	.LASF16:
 3953 00ce 74737461 		.ascii	"tstate_t\000"
 3953      74655F74 
 3953      00
 3954              	.LASF89:
 3955 00d7 63684F51 		.ascii	"chOQGetI\000"
 3955      47657449 
 3955      00
 3956              	.LASF69:
 3957 00e0 715F6275 		.ascii	"q_buffer\000"
 3957      66666572 
 3957      00
 3958              	.LASF71:
 3959 00e9 715F7772 		.ascii	"q_wrptr\000"
 3959      70747200 
 3960              	.LASF28:
 3961 00f1 705F6E65 		.ascii	"p_newer\000"
 3961      77657200 
ARM GAS  /tmp/cc1Wnpol.s 			page 73


 3962              	.LASF52:
 3963 00f9 725F6E65 		.ascii	"r_newer\000"
 3963      77657200 
 3964              	.LASF45:
 3965 0101 72656761 		.ascii	"regarm_t\000"
 3965      726D5F74 
 3965      00
 3966              	.LASF88:
 3967 010a 63684F51 		.ascii	"chOQPutTimeout\000"
 3967      50757454 
 3967      696D656F 
 3967      757400
 3968              	.LASF82:
 3969 0119 63684951 		.ascii	"chIQPutI\000"
 3969      50757449 
 3969      00
 3970              	.LASF22:
 3971 0122 636E745F 		.ascii	"cnt_t\000"
 3971      7400
 3972              	.LASF31:
 3973 0128 705F7374 		.ascii	"p_stklimit\000"
 3973      6B6C696D 
 3973      697400
 3974              	.LASF0:
 3975 0133 756E7369 		.ascii	"unsigned int\000"
 3975      676E6564 
 3975      20696E74 
 3975      00
 3976              	.LASF81:
 3977 0140 63684951 		.ascii	"chIQResetI\000"
 3977      52657365 
 3977      744900
 3978              	.LASF10:
 3979 014b 6C6F6E67 		.ascii	"long unsigned int\000"
 3979      20756E73 
 3979      69676E65 
 3979      6420696E 
 3979      7400
 3980              	.LASF48:
 3981 015d 636F6E74 		.ascii	"context\000"
 3981      65787400 
 3982              	.LASF78:
 3983 0165 73697A65 		.ascii	"size\000"
 3983      00
 3984              	.LASF6:
 3985 016a 73686F72 		.ascii	"short unsigned int\000"
 3985      7420756E 
 3985      7369676E 
 3985      65642069 
 3985      6E7400
 3986              	.LASF19:
 3987 017d 6D73675F 		.ascii	"msg_t\000"
 3987      7400
 3988              	.LASF94:
 3989 0183 2F686F6D 		.ascii	"/home/z80/projects/ipm.git/soft/firmware/valve\000"
 3989      652F7A38 
 3989      302F7072 
ARM GAS  /tmp/cc1Wnpol.s 			page 74


 3989      6F6A6563 
 3989      74732F69 
 3990              	.LASF15:
 3991 01b2 746D6F64 		.ascii	"tmode_t\000"
 3991      655F7400 
 3992              	.LASF44:
 3993 01ba 54687265 		.ascii	"ThreadsList\000"
 3993      6164734C 
 3993      69737400 
 3994              	.LASF20:
 3995 01c6 6576656E 		.ascii	"eventmask_t\000"
 3995      746D6173 
 3995      6B5F7400 
 3996              	.LASF75:
 3997 01d2 496E7075 		.ascii	"InputQueue\000"
 3997      74517565 
 3997      756500
 3998              	.LASF57:
 3999 01dd 4D757465 		.ascii	"Mutex\000"
 3999      7800
 4000              	.LASF66:
 4001 01e3 47656E65 		.ascii	"GenericQueue\000"
 4001      72696351 
 4001      75657565 
 4001      00
 4002              	.LASF46:
 4003 01f0 73746B61 		.ascii	"stkalign_t\000"
 4003      6C69676E 
 4003      5F7400
 4004              	.LASF90:
 4005 01fb 63684F51 		.ascii	"chOQWriteTimeout\000"
 4005      57726974 
 4005      6554696D 
 4005      656F7574 
 4005      00
 4006              	.LASF68:
 4007 020c 715F636F 		.ascii	"q_counter\000"
 4007      756E7465 
 4007      7200
 4008              	.LASF29:
 4009 0216 705F6F6C 		.ascii	"p_older\000"
 4009      64657200 
 4010              	.LASF51:
 4011 021e 725F6374 		.ascii	"r_ctx\000"
 4011      7800
 4012              	.LASF43:
 4013 0224 54687265 		.ascii	"ThreadsQueue\000"
 4013      61647351 
 4013      75657565 
 4013      00
 4014              	.LASF77:
 4015 0231 74696D65 		.ascii	"time\000"
 4015      00
 4016              	.LASF55:
 4017 0236 725F6375 		.ascii	"r_current\000"
 4017      7272656E 
 4017      7400
ARM GAS  /tmp/cc1Wnpol.s 			page 75


 4018              	.LASF53:
 4019 0240 725F6F6C 		.ascii	"r_older\000"
 4019      64657200 
 4020              	.LASF17:
 4021 0248 74726566 		.ascii	"trefs_t\000"
 4021      735F7400 
 4022              	.LASF74:
 4023 0250 716E6F74 		.ascii	"qnotify_t\000"
 4023      6966795F 
 4023      7400
 4024              	.LASF25:
 4025 025a 705F7072 		.ascii	"p_prev\000"
 4025      657600
 4026              	.LASF18:
 4027 0261 74707269 		.ascii	"tprio_t\000"
 4027      6F5F7400 
 4028              	.LASF72:
 4029 0269 715F7264 		.ascii	"q_rdptr\000"
 4029      70747200 
 4030              	.LASF7:
 4031 0271 696E7433 		.ascii	"int32_t\000"
 4031      325F7400 
 4032              	.LASF4:
 4033 0279 756E7369 		.ascii	"unsigned char\000"
 4033      676E6564 
 4033      20636861 
 4033      7200
 4034              	.LASF40:
 4035 0287 705F6D74 		.ascii	"p_mtxlist\000"
 4035      786C6973 
 4035      7400
 4036              	.LASF5:
 4037 0291 73686F72 		.ascii	"short int\000"
 4037      7420696E 
 4037      7400
 4038              	.LASF32:
 4039 029b 705F7374 		.ascii	"p_state\000"
 4039      61746500 
 4040              	.LASF50:
 4041 02a3 725F7072 		.ascii	"r_prio\000"
 4041      696F00
 4042              	.LASF64:
 4043 02aa 65776D61 		.ascii	"ewmask\000"
 4043      736B00
 4044              	.LASF24:
 4045 02b1 705F6E65 		.ascii	"p_next\000"
 4045      787400
 4046              	.LASF79:
 4047 02b8 696E6679 		.ascii	"infy\000"
 4047      00
 4048              	.LASF33:
 4049 02bd 705F666C 		.ascii	"p_flags\000"
 4049      61677300 
 4050              	.LASF23:
 4051 02c5 54687265 		.ascii	"Thread\000"
 4051      616400
 4052              	.LASF39:
ARM GAS  /tmp/cc1Wnpol.s 			page 76


 4053 02cc 705F6570 		.ascii	"p_epending\000"
 4053      656E6469 
 4053      6E6700
 4054              	.LASF9:
 4055 02d7 75696E74 		.ascii	"uint32_t\000"
 4055      33325F74 
 4055      00
 4056              	.LASF49:
 4057 02e0 725F7175 		.ascii	"r_queue\000"
 4057      65756500 
 4058              	.LASF65:
 4059 02e8 63686172 		.ascii	"char\000"
 4059      00
 4060              	.LASF96:
 4061 02ed 6669666F 		.ascii	"fifo_remove\000"
 4061      5F72656D 
 4061      6F766500 
 4062              	.LASF60:
 4063 02f9 6D5F6E65 		.ascii	"m_next\000"
 4063      787400
 4064              	.LASF21:
 4065 0300 73797374 		.ascii	"systime_t\000"
 4065      696D655F 
 4065      7400
 4066              	.LASF41:
 4067 030a 705F7265 		.ascii	"p_realprio\000"
 4067      616C7072 
 4067      696F00
 4068              	.LASF87:
 4069 0315 63684F51 		.ascii	"chOQResetI\000"
 4069      52657365 
 4069      744900
 4070              	.LASF35:
 4071 0320 705F7469 		.ascii	"p_time\000"
 4071      6D6500
 4072              	.LASF47:
 4073 0327 696E7463 		.ascii	"intctx\000"
 4073      747800
 4074              	.LASF37:
 4075 032e 705F6D73 		.ascii	"p_msgqueue\000"
 4075      67717565 
 4075      756500
 4076              	.LASF70:
 4077 0339 715F746F 		.ascii	"q_top\000"
 4077      7000
 4078              	.LASF34:
 4079 033f 705F7265 		.ascii	"p_refs\000"
 4079      667300
 4080              	.LASF56:
 4081 0346 52656164 		.ascii	"ReadyList\000"
 4081      794C6973 
 4081      7400
 4082              	.LASF73:
 4083 0350 715F6E6F 		.ascii	"q_notify\000"
 4083      74696679 
 4083      00
 4084              	.LASF91:
ARM GAS  /tmp/cc1Wnpol.s 			page 77


 4085 0359 726C6973 		.ascii	"rlist\000"
 4085      7400
 4086              	.LASF59:
 4087 035f 6D5F6F77 		.ascii	"m_owner\000"
 4087      6E657200 
 4088              	.LASF3:
 4089 0367 75696E74 		.ascii	"uint8_t\000"
 4089      385F7400 
 4090              	.LASF63:
 4091 036f 77746F62 		.ascii	"wtobjp\000"
 4091      6A7000
 4092              	.LASF92:
 4093 0376 474E5520 		.ascii	"GNU C 4.5.2\000"
 4093      4320342E 
 4093      352E3200 
 4094              	.LASF30:
 4095 0382 705F6E61 		.ascii	"p_name\000"
 4095      6D6500
 4096              	.LASF54:
 4097 0389 725F7072 		.ascii	"r_preempt\000"
 4097      65656D70 
 4097      7400
 4098              	.LASF93:
 4099 0393 2E2E2F63 		.ascii	"../chibios_2.4.x/os/kernel/src/chqueues.c\000"
 4099      68696269 
 4099      6F735F32 
 4099      2E342E78 
 4099      2F6F732F 
 4100              	.LASF27:
 4101 03bd 705F6374 		.ascii	"p_ctx\000"
 4101      7800
 4102              	.LASF36:
 4103 03c3 705F7761 		.ascii	"p_waiting\000"
 4103      6974696E 
 4103      6700
 4104              	.LASF83:
 4105 03cd 63684951 		.ascii	"chIQGetTimeout\000"
 4105      47657454 
 4105      696D656F 
 4105      757400
 4106              		.ident	"GCC: (Sourcery G++ Lite 2011.03-42) 4.5.2"
ARM GAS  /tmp/cc1Wnpol.s 			page 78


DEFINED SYMBOLS
                            *ABS*:00000000 chqueues.c
     /tmp/cc1Wnpol.s:24     .text.qwait:00000000 $t
     /tmp/cc1Wnpol.s:29     .text.qwait:00000000 qwait
     /tmp/cc1Wnpol.s:83     .text.qwait:00000028 $d
     /tmp/cc1Wnpol.s:88     .text.chIQInit:00000000 $t
     /tmp/cc1Wnpol.s:94     .text.chIQInit:00000000 chIQInit
     /tmp/cc1Wnpol.s:131    .text.chIQResetI:00000000 $t
     /tmp/cc1Wnpol.s:137    .text.chIQResetI:00000000 chIQResetI
     /tmp/cc1Wnpol.s:198    .text.chIQPutI:00000000 $t
     /tmp/cc1Wnpol.s:204    .text.chIQPutI:00000000 chIQPutI
     /tmp/cc1Wnpol.s:287    .text.chIQGetTimeout:00000000 $t
     /tmp/cc1Wnpol.s:293    .text.chIQGetTimeout:00000000 chIQGetTimeout
     /tmp/cc1Wnpol.s:400    .text.chIQReadTimeout:00000000 $t
     /tmp/cc1Wnpol.s:406    .text.chIQReadTimeout:00000000 chIQReadTimeout
     /tmp/cc1Wnpol.s:547    .text.chIQReadTimeout:0000008c $d
     /tmp/cc1Wnpol.s:552    .text.chOQInit:00000000 $t
     /tmp/cc1Wnpol.s:558    .text.chOQInit:00000000 chOQInit
     /tmp/cc1Wnpol.s:592    .text.chOQResetI:00000000 $t
     /tmp/cc1Wnpol.s:598    .text.chOQResetI:00000000 chOQResetI
     /tmp/cc1Wnpol.s:661    .text.chOQPutTimeout:00000000 $t
     /tmp/cc1Wnpol.s:667    .text.chOQPutTimeout:00000000 chOQPutTimeout
     /tmp/cc1Wnpol.s:780    .text.chOQGetI:00000000 $t
     /tmp/cc1Wnpol.s:786    .text.chOQGetI:00000000 chOQGetI
     /tmp/cc1Wnpol.s:868    .text.chOQWriteTimeout:00000000 $t
     /tmp/cc1Wnpol.s:874    .text.chOQWriteTimeout:00000000 chOQWriteTimeout
     /tmp/cc1Wnpol.s:1030   .text.chOQWriteTimeout:000000a0 $d
     /tmp/cc1Wnpol.s:1035   .rodata.str1.4:00000000 $d
                     .debug_frame:00000010 $d
     /tmp/cc1Wnpol.s:87     .text.qwait:0000002c $t
     /tmp/cc1Wnpol.s:1034   .text.chOQWriteTimeout:000000a4 $t

UNDEFINED SYMBOLS
chSchGoSleepTimeoutS
rlist
chDbgCheckClassI
chSchReadyI
dbg_check_lock
dbg_check_unlock
chDbgPanic
