ARM GAS  /tmp/cc1Wnpol.s 			page 1


   1              		.syntax unified
   2              		.cpu cortex-m3
   3              		.fpu softvfp
   4              		.eabi_attribute 20, 1
   5              		.eabi_attribute 21, 1
   6              		.eabi_attribute 23, 3
   7              		.eabi_attribute 24, 1
   8              		.eabi_attribute 25, 1
   9              		.eabi_attribute 26, 1
  10              		.eabi_attribute 30, 2
  11              		.eabi_attribute 18, 4
  12              		.thumb
  13              		.file	"chqueues.c"
  20 0000 E4030000 		.text
  20      0200D401 
  20      00000201 
  20      FB0E0D00 
  20      01010101 
  21              	.Ltext0:
  22              		.cfi_sections	.debug_frame
  23              		.section	.text.qwait,"ax",%progbits
  24              		.align	2
  25              		.p2align 4,,15
  26              		.thumb
  27              		.thumb_func
  28              		.type	qwait, %function
  29              	qwait:
  30              	.LFB7:
  31              		.file 1 "../chibios_2.4.x/os/kernel/src/chqueues.c"
  32              		.loc 1 72 0
  33              		.cfi_startproc
  34              		@ args = 0, pretend = 0, frame = 0
  35              		@ frame_needed = 0, uses_anonymous_args = 0
  36              		@ link register save eliminated.
  37              	.LVL0:
  38 0000 10B4     		push	{r4}
  39              	.LCFI0:
  40              		.cfi_def_cfa_offset 4
  41              		.loc 1 72 0
  42 0002 0346     		mov	r3, r0
  43              		.loc 1 74 0
  44 0004 19B9     		cbnz	r1, .L4
  45              		.cfi_offset 4, -4
  46              		.loc 1 79 0
  47 0006 4FF0FF30 		mov	r0, #-1
  48              	.LVL1:
  49 000a 10BC     		pop	{r4}
  50 000c 7047     		bx	lr
  51              	.L4:
  52              		.loc 1 76 0
  53 000e 064C     		ldr	r4, .L5
ARM GAS  /tmp/cc1Wnpol.s 			page 2


  54              		.loc 1 78 0
  55 0010 0D20     		movs	r0, #13
  56              		.loc 1 76 0
  57 0012 E269     		ldr	r2, [r4, #28]
  58 0014 9362     		str	r3, [r2, #40]
  59              	.LVL2:
  60              	.LBB12:
  61              	.LBB13:
  62              		.file 2 "../chibios_2.4.x/os/kernel/include/chinline.h"
  63              		.loc 2 55 0
  64 0016 5C68     		ldr	r4, [r3, #4]
  65              	.LVL3:
  66              		.loc 2 54 0
  67 0018 1360     		str	r3, [r2, #0]
  68              		.loc 2 55 0
  69 001a 5460     		str	r4, [r2, #4]
  70              		.loc 2 56 0
  71 001c 5A60     		str	r2, [r3, #4]
  72 001e 2260     		str	r2, [r4, #0]
  73              	.LBE13:
  74              	.LBE12:
  75              		.loc 1 79 0
  76 0020 10BC     		pop	{r4}
  77              		.loc 1 78 0
  78 0022 FFF7FEBF 		b	chSchGoSleepTimeoutS
  79              	.LVL4:
  80              	.L6:
  81 0026 00BF     		.align	2
  82              	.L5:
  83 0028 00000000 		.word	rlist
  84              		.cfi_endproc
  85              	.LFE7:
  86              		.size	qwait, .-qwait
  87 002c AFF30080 		.section	.text.chIQInit,"ax",%progbits
  88              		.align	2
  89              		.p2align 4,,15
  90              		.global	chIQInit
  91              		.thumb
  92              		.thumb_func
  93              		.type	chIQInit, %function
  94              	chIQInit:
  95              	.LFB8:
  96              		.loc 1 96 0
  97              		.cfi_startproc
  98              		@ args = 0, pretend = 0, frame = 0
  99              		@ frame_needed = 0, uses_anonymous_args = 0
 100              		@ link register save eliminated.
 101              	.LVL5:
 102 0000 10B4     		push	{r4}
 103              	.LCFI1:
 104              		.cfi_def_cfa_offset 4
 105              		.loc 1 101 0
 106 0002 8A18     		adds	r2, r1, r2
 107              	.LVL6:
 108              		.loc 1 99 0
 109 0004 0024     		movs	r4, #0
 110              		.cfi_offset 4, -4
ARM GAS  /tmp/cc1Wnpol.s 			page 3


 111              		.loc 1 98 0
 112 0006 4060     		str	r0, [r0, #4]
 113 0008 0060     		str	r0, [r0, #0]
 114              		.loc 1 99 0
 115 000a 8460     		str	r4, [r0, #8]
 116              		.loc 1 100 0
 117 000c 4161     		str	r1, [r0, #20]
 118 000e 8161     		str	r1, [r0, #24]
 119 0010 C160     		str	r1, [r0, #12]
 120              		.loc 1 101 0
 121 0012 0261     		str	r2, [r0, #16]
 122              		.loc 1 102 0
 123 0014 C361     		str	r3, [r0, #28]
 124              		.loc 1 103 0
 125 0016 10BC     		pop	{r4}
 126 0018 7047     		bx	lr
 127              		.cfi_endproc
 128              	.LFE8:
 129              		.size	chIQInit, .-chIQInit
 130              		.section	.text.chIQResetI,"ax",%progbits
 131              		.align	2
 132              		.p2align 4,,15
 133              		.global	chIQResetI
 134              		.thumb
 135              		.thumb_func
 136              		.type	chIQResetI, %function
 137              	chIQResetI:
 138              	.LFB9:
 139              		.loc 1 116 0
 140              		.cfi_startproc
 141              		@ args = 0, pretend = 0, frame = 0
 142              		@ frame_needed = 0, uses_anonymous_args = 0
 143              	.LVL7:
 144 0000 38B5     		push	{r3, r4, r5, lr}
 145              	.LCFI2:
 146              		.cfi_def_cfa_offset 16
 147              		.loc 1 116 0
 148 0002 0446     		mov	r4, r0
 149              		.cfi_offset 14, -4
 150              		.cfi_offset 5, -8
 151              		.cfi_offset 4, -12
 152              		.cfi_offset 3, -16
 153              		.loc 1 118 0
 154 0004 FFF7FEFF 		bl	chDbgCheckClassI
 155              	.LVL8:
 156              		.loc 1 122 0
 157 0008 2068     		ldr	r0, [r4, #0]
 158              		.loc 1 120 0
 159 000a E168     		ldr	r1, [r4, #12]
 160              		.loc 1 121 0
 161 000c 0023     		movs	r3, #0
 162              		.loc 1 122 0
 163 000e A042     		cmp	r0, r4
 164              		.loc 1 120 0
 165 0010 6161     		str	r1, [r4, #20]
 166 0012 A161     		str	r1, [r4, #24]
 167              		.loc 1 121 0
ARM GAS  /tmp/cc1Wnpol.s 			page 4


 168 0014 A360     		str	r3, [r4, #8]
 169              		.loc 1 122 0
 170 0016 0AD0     		beq	.L8
 171              		.loc 1 123 0
 172 0018 6FF00105 		mvn	r5, #1
 173              	.L11:
 174              	.LVL9:
 175              	.LBB14:
 176              	.LBB15:
 177              		.loc 2 62 0
 178 001c 0268     		ldr	r2, [r0, #0]
 179 001e 2260     		str	r2, [r4, #0]
 180 0020 5460     		str	r4, [r2, #4]
 181              	.LBE15:
 182              	.LBE14:
 183              		.loc 1 123 0
 184 0022 FFF7FEFF 		bl	chSchReadyI
 185              	.LVL10:
 186 0026 8562     		str	r5, [r0, #40]
 187              		.loc 1 122 0
 188 0028 2068     		ldr	r0, [r4, #0]
 189 002a A042     		cmp	r0, r4
 190 002c F6D1     		bne	.L11
 191              	.LVL11:
 192              	.L8:
 193 002e 38BD     		pop	{r3, r4, r5, pc}
 194              		.cfi_endproc
 195              	.LFE9:
 196              		.size	chIQResetI, .-chIQResetI
 197              		.section	.text.chIQPutI,"ax",%progbits
 198              		.align	2
 199              		.p2align 4,,15
 200              		.global	chIQPutI
 201              		.thumb
 202              		.thumb_func
 203              		.type	chIQPutI, %function
 204              	chIQPutI:
 205              	.LFB10:
 206              		.loc 1 139 0
 207              		.cfi_startproc
 208              		@ args = 0, pretend = 0, frame = 0
 209              		@ frame_needed = 0, uses_anonymous_args = 0
 210              	.LVL12:
 211 0000 38B5     		push	{r3, r4, r5, lr}
 212              	.LCFI3:
 213              		.cfi_def_cfa_offset 16
 214              		.loc 1 139 0
 215 0002 0446     		mov	r4, r0
 216              		.cfi_offset 14, -4
 217              		.cfi_offset 5, -8
 218              		.cfi_offset 4, -12
 219              		.cfi_offset 3, -16
 220 0004 0D46     		mov	r5, r1
 221              		.loc 1 141 0
 222 0006 FFF7FEFF 		bl	chDbgCheckClassI
 223              	.LVL13:
 224              		.loc 1 143 0
ARM GAS  /tmp/cc1Wnpol.s 			page 5


 225 000a 6369     		ldr	r3, [r4, #20]
 226 000c A269     		ldr	r2, [r4, #24]
 227 000e 9342     		cmp	r3, r2
 228 0010 19D0     		beq	.L14
 229 0012 A268     		ldr	r2, [r4, #8]
 230              	.L15:
 231              		.loc 1 146 0
 232 0014 511C     		adds	r1, r2, #1
 233 0016 A160     		str	r1, [r4, #8]
 234              		.loc 1 147 0
 235 0018 03F8015B 		strb	r5, [r3], #1
 236              		.loc 1 148 0
 237 001c 2069     		ldr	r0, [r4, #16]
 238              		.loc 1 147 0
 239 001e 6361     		str	r3, [r4, #20]
 240              		.loc 1 148 0
 241 0020 8342     		cmp	r3, r0
 242              		.loc 1 149 0
 243 0022 28BF     		it	cs
 244 0024 E368     		ldrcs	r3, [r4, #12]
 245              		.loc 1 151 0
 246 0026 2068     		ldr	r0, [r4, #0]
 247              		.loc 1 149 0
 248 0028 28BF     		it	cs
 249 002a 6361     		strcs	r3, [r4, #20]
 250              		.loc 1 151 0
 251 002c A042     		cmp	r0, r4
 252 002e 08D0     		beq	.L19
 253              	.LVL14:
 254              	.LBB16:
 255              	.LBB17:
 256              		.loc 2 62 0
 257 0030 0268     		ldr	r2, [r0, #0]
 258 0032 2260     		str	r2, [r4, #0]
 259 0034 5460     		str	r4, [r2, #4]
 260              	.LBE17:
 261              	.LBE16:
 262              		.loc 1 152 0
 263 0036 FFF7FEFF 		bl	chSchReadyI
 264              	.LVL15:
 265 003a 0023     		movs	r3, #0
 266 003c 8362     		str	r3, [r0, #40]
 267              		.loc 1 154 0
 268 003e 1846     		mov	r0, r3
 269 0040 38BD     		pop	{r3, r4, r5, pc}
 270              	.LVL16:
 271              	.L19:
 272 0042 0020     		movs	r0, #0
 273              		.loc 1 155 0
 274 0044 38BD     		pop	{r3, r4, r5, pc}
 275              	.L14:
 276              		.loc 1 143 0 discriminator 1
 277 0046 A268     		ldr	r2, [r4, #8]
 278 0048 002A     		cmp	r2, #0
 279 004a E3D0     		beq	.L15
 280              		.loc 1 144 0
 281 004c 6FF00300 		mvn	r0, #3
ARM GAS  /tmp/cc1Wnpol.s 			page 6


 282 0050 38BD     		pop	{r3, r4, r5, pc}
 283              		.cfi_endproc
 284              	.LFE10:
 285              		.size	chIQPutI, .-chIQPutI
 286 0052 00BFAFF3 		.section	.text.chIQGetTimeout,"ax",%progbits
 286      0080AFF3 
 286      0080AFF3 
 286      0080
 287              		.align	2
 288              		.p2align 4,,15
 289              		.global	chIQGetTimeout
 290              		.thumb
 291              		.thumb_func
 292              		.type	chIQGetTimeout, %function
 293              	chIQGetTimeout:
 294              	.LFB11:
 295              		.loc 1 177 0
 296              		.cfi_startproc
 297              		@ args = 0, pretend = 0, frame = 0
 298              		@ frame_needed = 0, uses_anonymous_args = 0
 299              	.LVL17:
 300 0000 F8B5     		push	{r3, r4, r5, r6, r7, lr}
 301              	.LCFI4:
 302              		.cfi_def_cfa_offset 24
 303              		.loc 1 177 0
 304 0002 0446     		mov	r4, r0
 305              		.cfi_offset 14, -4
 306              		.cfi_offset 7, -8
 307              		.cfi_offset 6, -12
 308              		.cfi_offset 5, -16
 309              		.cfi_offset 4, -20
 310              		.cfi_offset 3, -24
 311 0004 0D46     		mov	r5, r1
 312              	.LBB18:
 313              		.loc 1 180 0
 314 0006 2023     		movs	r3, #32
 315              	.LVL18:
 316              	@ 180 "../chibios_2.4.x/os/kernel/src/chqueues.c" 1
 317 0008 83F31188 		msr     BASEPRI, r3
 318              	@ 0 "" 2
 319              	.LVL19:
 320              		.thumb
 321              	.LBE18:
 322 000c FFF7FEFF 		bl	dbg_check_lock
 323              	.LVL20:
 324              		.loc 1 181 0
 325 0010 E369     		ldr	r3, [r4, #28]
 326 0012 0BB1     		cbz	r3, .L26
 327              		.loc 1 182 0
 328 0014 2046     		mov	r0, r4
 329 0016 9847     		blx	r3
 330              	.L26:
 331              		.loc 1 184 0 discriminator 1
 332 0018 A668     		ldr	r6, [r4, #8]
 333              	.LBB19:
 334              		.loc 1 186 0 discriminator 1
 335 001a 2046     		mov	r0, r4
ARM GAS  /tmp/cc1Wnpol.s 			page 7


 336 001c 2946     		mov	r1, r5
 337              	.LBE19:
 338              		.loc 1 184 0 discriminator 1
 339 001e 56B9     		cbnz	r6, .L28
 340              	.LBB21:
 341              		.loc 1 186 0
 342 0020 FFF7FEFF 		bl	qwait
 343              	.LVL21:
 344 0024 071E     		subs	r7, r0, #0
 345 0026 F7DA     		bge	.L26
 346              		.loc 1 187 0
 347 0028 FFF7FEFF 		bl	dbg_check_unlock
 348              	.LVL22:
 349              	.LBB20:
 350 002c 3346     		mov	r3, r6
 351              	.LVL23:
 352              	@ 187 "../chibios_2.4.x/os/kernel/src/chqueues.c" 1
 353 002e 83F31188 		msr     BASEPRI, r3
 354              	@ 0 "" 2
 355              	.LVL24:
 356              		.thumb
 357              	.LBE20:
 358              	.LBE21:
 359              		.loc 1 199 0
 360 0032 3846     		mov	r0, r7
 361 0034 F8BD     		pop	{r3, r4, r5, r6, r7, pc}
 362              	.LVL25:
 363              	.L28:
 364              		.loc 1 193 0
 365 0036 A369     		ldr	r3, [r4, #24]
 366              		.loc 1 192 0
 367 0038 013E     		subs	r6, r6, #1
 368 003a A660     		str	r6, [r4, #8]
 369              		.loc 1 193 0
 370 003c 13F8017B 		ldrb	r7, [r3], #1	@ zero_extendqisi2
 371              	.LVL26:
 372              		.loc 1 194 0
 373 0040 2269     		ldr	r2, [r4, #16]
 374              		.loc 1 193 0
 375 0042 A361     		str	r3, [r4, #24]
 376              		.loc 1 194 0
 377 0044 9342     		cmp	r3, r2
 378              		.loc 1 195 0
 379 0046 24BF     		itt	cs
 380 0048 E368     		ldrcs	r3, [r4, #12]
 381 004a A361     		strcs	r3, [r4, #24]
 382              		.loc 1 197 0
 383 004c FFF7FEFF 		bl	dbg_check_unlock
 384              	.LBB22:
 385 0050 0023     		movs	r3, #0
 386              	.LVL27:
 387              	@ 197 "../chibios_2.4.x/os/kernel/src/chqueues.c" 1
 388 0052 83F31188 		msr     BASEPRI, r3
 389              	@ 0 "" 2
 390              	.LVL28:
 391              		.thumb
 392              	.LBE22:
ARM GAS  /tmp/cc1Wnpol.s 			page 8


 393              		.loc 1 199 0
 394 0056 3846     		mov	r0, r7
 395 0058 F8BD     		pop	{r3, r4, r5, r6, r7, pc}
 396              		.cfi_endproc
 397              	.LFE11:
 398              		.size	chIQGetTimeout, .-chIQGetTimeout
 399 005a 00BFAFF3 		.section	.text.chIQReadTimeout,"ax",%progbits
 399      0080
 400              		.align	2
 401              		.p2align 4,,15
 402              		.global	chIQReadTimeout
 403              		.thumb
 404              		.thumb_func
 405              		.type	chIQReadTimeout, %function
 406              	chIQReadTimeout:
 407              	.LFB12:
 408              		.loc 1 226 0
 409              		.cfi_startproc
 410              		@ args = 0, pretend = 0, frame = 0
 411              		@ frame_needed = 0, uses_anonymous_args = 0
 412              	.LVL29:
 413 0000 2DE9F047 		push	{r4, r5, r6, r7, r8, r9, sl, lr}
 414              	.LCFI5:
 415              		.cfi_def_cfa_offset 32
 416              		.loc 1 226 0
 417 0004 0446     		mov	r4, r0
 418              		.cfi_offset 14, -4
 419              		.cfi_offset 10, -8
 420              		.cfi_offset 9, -12
 421              		.cfi_offset 8, -16
 422              		.cfi_offset 7, -20
 423              		.cfi_offset 6, -24
 424              		.cfi_offset 5, -28
 425              		.cfi_offset 4, -32
 426              		.loc 1 230 0
 427 0006 9046     		mov	r8, r2
 428              		.loc 1 226 0
 429 0008 8946     		mov	r9, r1
 430 000a 1D46     		mov	r5, r3
 431              		.loc 1 227 0
 432 000c C769     		ldr	r7, [r0, #28]
 433              	.LVL30:
 434              		.loc 1 230 0
 435 000e 002A     		cmp	r2, #0
 436 0010 37D0     		beq	.L39
 437              	.LVL31:
 438              	.L30:
 439              	.LBB23:
 440              		.loc 1 232 0
 441 0012 2023     		movs	r3, #32
 442              	.LVL32:
 443              	@ 232 "../chibios_2.4.x/os/kernel/src/chqueues.c" 1
 444 0014 83F31188 		msr     BASEPRI, r3
 445              	@ 0 "" 2
 446              	.LVL33:
 447              		.thumb
 448              	.LBE23:
ARM GAS  /tmp/cc1Wnpol.s 			page 9


 449 0018 FFF7FEFF 		bl	dbg_check_lock
 450              	.LVL34:
 451              		.loc 1 228 0
 452 001c 0026     		movs	r6, #0
 453              	.LVL35:
 454              	.L36:
 455              		.loc 1 234 0
 456 001e 0FB1     		cbz	r7, .L37
 457              		.loc 1 235 0
 458 0020 2046     		mov	r0, r4
 459 0022 B847     		blx	r7
 460              	.L37:
 461              		.loc 1 237 0 discriminator 1
 462 0024 D4F808A0 		ldr	sl, [r4, #8]
 463              		.loc 1 238 0 discriminator 1
 464 0028 2046     		mov	r0, r4
 465 002a 2946     		mov	r1, r5
 466              		.loc 1 237 0 discriminator 1
 467 002c BAF1000F 		cmp	sl, #0
 468 0030 0BD1     		bne	.L40
 469              		.loc 1 238 0
 470 0032 FFF7FEFF 		bl	qwait
 471 0036 0028     		cmp	r0, #0
 472 0038 F4D0     		beq	.L37
 473              		.loc 1 239 0
 474 003a FFF7FEFF 		bl	dbg_check_unlock
 475              	.LBB24:
 476 003e 5346     		mov	r3, sl
 477              	.LVL36:
 478              	@ 239 "../chibios_2.4.x/os/kernel/src/chqueues.c" 1
 479 0040 83F31188 		msr     BASEPRI, r3
 480              	@ 0 "" 2
 481              	.LVL37:
 482              		.thumb
 483              	.L33:
 484              	.LBE24:
 485              		.loc 1 256 0
 486 0044 3046     		mov	r0, r6
 487 0046 BDE8F087 		pop	{r4, r5, r6, r7, r8, r9, sl, pc}
 488              	.LVL38:
 489              	.L40:
 490              		.loc 1 245 0
 491 004a A369     		ldr	r3, [r4, #24]
 492              		.loc 1 244 0
 493 004c 0AF1FF31 		add	r1, sl, #-1
 494 0050 A160     		str	r1, [r4, #8]
 495              		.loc 1 245 0
 496 0052 13F8010B 		ldrb	r0, [r3], #1	@ zero_extendqisi2
 497 0056 09F80600 		strb	r0, [r9, r6]
 498              		.loc 1 246 0
 499 005a 2269     		ldr	r2, [r4, #16]
 500              		.loc 1 245 0
 501 005c A361     		str	r3, [r4, #24]
 502              		.loc 1 246 0
 503 005e 9342     		cmp	r3, r2
 504              		.loc 1 247 0
 505 0060 24BF     		itt	cs
ARM GAS  /tmp/cc1Wnpol.s 			page 10


 506 0062 E368     		ldrcs	r3, [r4, #12]
 507 0064 A361     		strcs	r3, [r4, #24]
 508              		.loc 1 249 0
 509 0066 FFF7FEFF 		bl	dbg_check_unlock
 510              	.LBB25:
 511 006a 0023     		movs	r3, #0
 512              	@ 249 "../chibios_2.4.x/os/kernel/src/chqueues.c" 1
 513 006c 83F31188 		msr     BASEPRI, r3
 514              	@ 0 "" 2
 515              	.LVL39:
 516              		.thumb
 517              	.LBE25:
 518              		.loc 1 250 0
 519 0070 0136     		adds	r6, r6, #1
 520              	.LVL40:
 521              		.loc 1 251 0
 522 0072 4645     		cmp	r6, r8
 523 0074 E6D0     		beq	.L33
 524              	.LBB26:
 525              		.loc 1 254 0
 526 0076 2023     		movs	r3, #32
 527              	.LVL41:
 528              	@ 254 "../chibios_2.4.x/os/kernel/src/chqueues.c" 1
 529 0078 83F31188 		msr     BASEPRI, r3
 530              	@ 0 "" 2
 531              	.LVL42:
 532              		.thumb
 533              	.LBE26:
 534 007c FFF7FEFF 		bl	dbg_check_lock
 535              	.LVL43:
 536              		.loc 1 255 0
 537 0080 CDE7     		b	.L36
 538              	.LVL44:
 539              	.L39:
 540              		.loc 1 230 0 discriminator 1
 541 0082 0248     		ldr	r0, .L41
 542 0084 FFF7FEFF 		bl	chDbgPanic
 543 0088 C3E7     		b	.L30
 544              	.L42:
 545 008a 00BF     		.align	2
 546              	.L41:
 547 008c 00000000 		.word	.LC0
 548              		.cfi_endproc
 549              	.LFE12:
 550              		.size	chIQReadTimeout, .-chIQReadTimeout
 551              		.section	.text.chOQInit,"ax",%progbits
 552              		.align	2
 553              		.p2align 4,,15
 554              		.global	chOQInit
 555              		.thumb
 556              		.thumb_func
 557              		.type	chOQInit, %function
 558              	chOQInit:
 559              	.LFB13:
 560              		.loc 1 273 0
 561              		.cfi_startproc
 562              		@ args = 0, pretend = 0, frame = 0
ARM GAS  /tmp/cc1Wnpol.s 			page 11


 563              		@ frame_needed = 0, uses_anonymous_args = 0
 564              		@ link register save eliminated.
 565              	.LVL45:
 566 0000 10B4     		push	{r4}
 567              	.LCFI6:
 568              		.cfi_def_cfa_offset 4
 569              		.loc 1 278 0
 570 0002 8C18     		adds	r4, r1, r2
 571              		.cfi_offset 4, -4
 572              		.loc 1 275 0
 573 0004 4060     		str	r0, [r0, #4]
 574 0006 0060     		str	r0, [r0, #0]
 575              		.loc 1 276 0
 576 0008 8260     		str	r2, [r0, #8]
 577              		.loc 1 277 0
 578 000a 4161     		str	r1, [r0, #20]
 579 000c 8161     		str	r1, [r0, #24]
 580 000e C160     		str	r1, [r0, #12]
 581              		.loc 1 278 0
 582 0010 0461     		str	r4, [r0, #16]
 583              		.loc 1 279 0
 584 0012 C361     		str	r3, [r0, #28]
 585              		.loc 1 280 0
 586 0014 10BC     		pop	{r4}
 587 0016 7047     		bx	lr
 588              		.cfi_endproc
 589              	.LFE13:
 590              		.size	chOQInit, .-chOQInit
 591 0018 AFF30080 		.section	.text.chOQResetI,"ax",%progbits
 591      AFF30080 
 592              		.align	2
 593              		.p2align 4,,15
 594              		.global	chOQResetI
 595              		.thumb
 596              		.thumb_func
 597              		.type	chOQResetI, %function
 598              	chOQResetI:
 599              	.LFB14:
 600              		.loc 1 293 0
 601              		.cfi_startproc
 602              		@ args = 0, pretend = 0, frame = 0
 603              		@ frame_needed = 0, uses_anonymous_args = 0
 604              	.LVL46:
 605 0000 38B5     		push	{r3, r4, r5, lr}
 606              	.LCFI7:
 607              		.cfi_def_cfa_offset 16
 608              		.loc 1 293 0
 609 0002 0446     		mov	r4, r0
 610              		.cfi_offset 14, -4
 611              		.cfi_offset 5, -8
 612              		.cfi_offset 4, -12
 613              		.cfi_offset 3, -16
 614              		.loc 1 295 0
 615 0004 FFF7FEFF 		bl	chDbgCheckClassI
 616              	.LVL47:
 617              		.loc 1 297 0
 618 0008 E368     		ldr	r3, [r4, #12]
ARM GAS  /tmp/cc1Wnpol.s 			page 12


 619              		.loc 1 298 0
 620 000a 2169     		ldr	r1, [r4, #16]
 621              		.loc 1 299 0
 622 000c 2068     		ldr	r0, [r4, #0]
 623              		.loc 1 298 0
 624 000e CA1A     		subs	r2, r1, r3
 625              		.loc 1 299 0
 626 0010 A042     		cmp	r0, r4
 627              		.loc 1 297 0
 628 0012 6361     		str	r3, [r4, #20]
 629 0014 A361     		str	r3, [r4, #24]
 630              		.loc 1 298 0
 631 0016 A260     		str	r2, [r4, #8]
 632              		.loc 1 299 0
 633 0018 0AD0     		beq	.L44
 634              		.loc 1 300 0
 635 001a 6FF00105 		mvn	r5, #1
 636              	.L47:
 637              	.LVL48:
 638              	.LBB27:
 639              	.LBB28:
 640              		.loc 2 62 0
 641 001e 0268     		ldr	r2, [r0, #0]
 642 0020 2260     		str	r2, [r4, #0]
 643 0022 5460     		str	r4, [r2, #4]
 644              	.LBE28:
 645              	.LBE27:
 646              		.loc 1 300 0
 647 0024 FFF7FEFF 		bl	chSchReadyI
 648              	.LVL49:
 649 0028 8562     		str	r5, [r0, #40]
 650              		.loc 1 299 0
 651 002a 2068     		ldr	r0, [r4, #0]
 652 002c A042     		cmp	r0, r4
 653 002e F6D1     		bne	.L47
 654              	.LVL50:
 655              	.L44:
 656 0030 38BD     		pop	{r3, r4, r5, pc}
 657              		.cfi_endproc
 658              	.LFE14:
 659              		.size	chOQResetI, .-chOQResetI
 660 0032 00BFAFF3 		.section	.text.chOQPutTimeout,"ax",%progbits
 660      0080AFF3 
 660      0080AFF3 
 660      0080
 661              		.align	2
 662              		.p2align 4,,15
 663              		.global	chOQPutTimeout
 664              		.thumb
 665              		.thumb_func
 666              		.type	chOQPutTimeout, %function
 667              	chOQPutTimeout:
 668              	.LFB15:
 669              		.loc 1 325 0
 670              		.cfi_startproc
 671              		@ args = 0, pretend = 0, frame = 0
 672              		@ frame_needed = 0, uses_anonymous_args = 0
ARM GAS  /tmp/cc1Wnpol.s 			page 13


 673              	.LVL51:
 674 0000 2DE9F041 		push	{r4, r5, r6, r7, r8, lr}
 675              	.LCFI8:
 676              		.cfi_def_cfa_offset 24
 677              	.LBB29:
 678              		.loc 1 327 0
 679 0004 2023     		movs	r3, #32
 680              	.LVL52:
 681              	.LBE29:
 682              		.loc 1 325 0
 683 0006 0446     		mov	r4, r0
 684              		.cfi_offset 14, -4
 685              		.cfi_offset 8, -8
 686              		.cfi_offset 7, -12
 687              		.cfi_offset 6, -16
 688              		.cfi_offset 5, -20
 689              		.cfi_offset 4, -24
 690 0008 0D46     		mov	r5, r1
 691 000a 1646     		mov	r6, r2
 692              	.LBB30:
 693              		.loc 1 327 0
 694              	@ 327 "../chibios_2.4.x/os/kernel/src/chqueues.c" 1
 695 000c 83F31188 		msr     BASEPRI, r3
 696              	@ 0 "" 2
 697              	.LVL53:
 698              		.thumb
 699              	.LBE30:
 700 0010 FFF7FEFF 		bl	dbg_check_lock
 701              	.LVL54:
 702              	.L50:
 703              		.loc 1 328 0 discriminator 1
 704 0014 A768     		ldr	r7, [r4, #8]
 705              	.LBB31:
 706              		.loc 1 331 0 discriminator 1
 707 0016 2046     		mov	r0, r4
 708 0018 3146     		mov	r1, r6
 709              	.LBE31:
 710              		.loc 1 328 0 discriminator 1
 711 001a 67B9     		cbnz	r7, .L56
 712              	.LBB33:
 713              		.loc 1 331 0
 714 001c FFF7FEFF 		bl	qwait
 715              	.LVL55:
 716 0020 B0F10008 		subs	r8, r0, #0
 717 0024 F6DA     		bge	.L50
 718              		.loc 1 332 0
 719 0026 FFF7FEFF 		bl	dbg_check_unlock
 720              	.LVL56:
 721              	.LBB32:
 722 002a 3B46     		mov	r3, r7
 723              	.LVL57:
 724              	@ 332 "../chibios_2.4.x/os/kernel/src/chqueues.c" 1
 725 002c 83F31188 		msr     BASEPRI, r3
 726              	@ 0 "" 2
 727              	.LVL58:
 728              		.thumb
 729              	.LBE32:
ARM GAS  /tmp/cc1Wnpol.s 			page 14


 730              	.LBE33:
 731              		.loc 1 347 0
 732 0030 4046     		mov	r0, r8
 733 0032 BDE8F081 		pop	{r4, r5, r6, r7, r8, pc}
 734              	.LVL59:
 735              	.L56:
 736              		.loc 1 338 0
 737 0036 6369     		ldr	r3, [r4, #20]
 738              		.loc 1 337 0
 739 0038 013F     		subs	r7, r7, #1
 740 003a A760     		str	r7, [r4, #8]
 741              		.loc 1 338 0
 742 003c 03F8015B 		strb	r5, [r3], #1
 743              		.loc 1 339 0
 744 0040 2269     		ldr	r2, [r4, #16]
 745              		.loc 1 338 0
 746 0042 6361     		str	r3, [r4, #20]
 747              		.loc 1 339 0
 748 0044 9342     		cmp	r3, r2
 749              		.loc 1 340 0
 750 0046 24BF     		itt	cs
 751 0048 E368     		ldrcs	r3, [r4, #12]
 752 004a 6361     		strcs	r3, [r4, #20]
 753              		.loc 1 342 0
 754 004c E369     		ldr	r3, [r4, #28]
 755 004e 0BB1     		cbz	r3, .L54
 756              		.loc 1 343 0
 757 0050 2046     		mov	r0, r4
 758 0052 9847     		blx	r3
 759              	.L54:
 760              		.loc 1 345 0
 761 0054 FFF7FEFF 		bl	dbg_check_unlock
 762              	.LBB34:
 763 0058 0023     		movs	r3, #0
 764              	.LVL60:
 765              	@ 345 "../chibios_2.4.x/os/kernel/src/chqueues.c" 1
 766 005a 83F31188 		msr     BASEPRI, r3
 767              	@ 0 "" 2
 768              	.LVL61:
 769              		.thumb
 770              	.LBE34:
 771              		.loc 1 346 0
 772 005e 9846     		mov	r8, r3
 773              		.loc 1 347 0
 774 0060 4046     		mov	r0, r8
 775 0062 BDE8F081 		pop	{r4, r5, r6, r7, r8, pc}
 776              		.cfi_endproc
 777              	.LFE15:
 778              		.size	chOQPutTimeout, .-chOQPutTimeout
 779 0066 00BFAFF3 		.section	.text.chOQGetI,"ax",%progbits
 779      0080AFF3 
 779      0080
 780              		.align	2
 781              		.p2align 4,,15
 782              		.global	chOQGetI
 783              		.thumb
 784              		.thumb_func
ARM GAS  /tmp/cc1Wnpol.s 			page 15


 785              		.type	chOQGetI, %function
 786              	chOQGetI:
 787              	.LFB16:
 788              		.loc 1 359 0
 789              		.cfi_startproc
 790              		@ args = 0, pretend = 0, frame = 0
 791              		@ frame_needed = 0, uses_anonymous_args = 0
 792              	.LVL62:
 793 0000 38B5     		push	{r3, r4, r5, lr}
 794              	.LCFI9:
 795              		.cfi_def_cfa_offset 16
 796              		.loc 1 359 0
 797 0002 0446     		mov	r4, r0
 798              		.cfi_offset 14, -4
 799              		.cfi_offset 5, -8
 800              		.cfi_offset 4, -12
 801              		.cfi_offset 3, -16
 802              		.loc 1 362 0
 803 0004 FFF7FEFF 		bl	chDbgCheckClassI
 804              	.LVL63:
 805              		.loc 1 364 0
 806 0008 A369     		ldr	r3, [r4, #24]
 807 000a 6269     		ldr	r2, [r4, #20]
 808 000c 9A42     		cmp	r2, r3
 809 000e 17D0     		beq	.L58
 810 0010 A268     		ldr	r2, [r4, #8]
 811              	.L59:
 812              		.loc 1 367 0
 813 0012 511C     		adds	r1, r2, #1
 814 0014 A160     		str	r1, [r4, #8]
 815              		.loc 1 368 0
 816 0016 13F8015B 		ldrb	r5, [r3], #1	@ zero_extendqisi2
 817              	.LVL64:
 818              		.loc 1 369 0
 819 001a 2069     		ldr	r0, [r4, #16]
 820              		.loc 1 368 0
 821 001c A361     		str	r3, [r4, #24]
 822              		.loc 1 369 0
 823 001e 8342     		cmp	r3, r0
 824              		.loc 1 370 0
 825 0020 28BF     		it	cs
 826 0022 E368     		ldrcs	r3, [r4, #12]
 827              		.loc 1 372 0
 828 0024 2068     		ldr	r0, [r4, #0]
 829              		.loc 1 370 0
 830 0026 28BF     		it	cs
 831 0028 A361     		strcs	r3, [r4, #24]
 832              		.loc 1 372 0
 833 002a A042     		cmp	r0, r4
 834 002c 06D0     		beq	.L62
 835              	.LVL65:
 836              	.LBB35:
 837              	.LBB36:
 838              		.loc 2 62 0
 839 002e 0268     		ldr	r2, [r0, #0]
 840 0030 2260     		str	r2, [r4, #0]
 841 0032 5460     		str	r4, [r2, #4]
ARM GAS  /tmp/cc1Wnpol.s 			page 16


 842              	.LBE36:
 843              	.LBE35:
 844              		.loc 1 373 0
 845 0034 FFF7FEFF 		bl	chSchReadyI
 846              	.LVL66:
 847 0038 0023     		movs	r3, #0
 848 003a 8362     		str	r3, [r0, #40]
 849              	.LVL67:
 850              	.L62:
 851              		.loc 1 375 0
 852 003c 2846     		mov	r0, r5
 853 003e 38BD     		pop	{r3, r4, r5, pc}
 854              	.LVL68:
 855              	.L58:
 856              		.loc 1 364 0 discriminator 1
 857 0040 A268     		ldr	r2, [r4, #8]
 858 0042 002A     		cmp	r2, #0
 859 0044 E5D0     		beq	.L59
 860              		.loc 1 365 0
 861 0046 6FF00200 		mvn	r0, #2
 862              		.loc 1 376 0
 863 004a 38BD     		pop	{r3, r4, r5, pc}
 864              		.cfi_endproc
 865              	.LFE16:
 866              		.size	chOQGetI, .-chOQGetI
 867 004c AFF30080 		.section	.text.chOQWriteTimeout,"ax",%progbits
 868              		.align	2
 869              		.p2align 4,,15
 870              		.global	chOQWriteTimeout
 871              		.thumb
 872              		.thumb_func
 873              		.type	chOQWriteTimeout, %function
 874              	chOQWriteTimeout:
 875              	.LFB17:
 876              		.loc 1 403 0
 877              		.cfi_startproc
 878              		@ args = 0, pretend = 0, frame = 0
 879              		@ frame_needed = 0, uses_anonymous_args = 0
 880              	.LVL69:
 881 0000 2DE9F047 		push	{r4, r5, r6, r7, r8, r9, sl, lr}
 882              	.LCFI10:
 883              		.cfi_def_cfa_offset 32
 884              		.loc 1 403 0
 885 0004 0446     		mov	r4, r0
 886              		.cfi_offset 14, -4
 887              		.cfi_offset 10, -8
 888              		.cfi_offset 9, -12
 889              		.cfi_offset 8, -16
 890              		.cfi_offset 7, -20
 891              		.cfi_offset 6, -24
 892              		.cfi_offset 5, -28
 893              		.cfi_offset 4, -32
 894              		.loc 1 407 0
 895 0006 1546     		mov	r5, r2
 896              		.loc 1 403 0
 897 0008 0E46     		mov	r6, r1
 898 000a 9946     		mov	r9, r3
ARM GAS  /tmp/cc1Wnpol.s 			page 17


 899              		.loc 1 404 0
 900 000c D0F81C80 		ldr	r8, [r0, #28]
 901              	.LVL70:
 902              		.loc 1 407 0
 903 0010 002A     		cmp	r2, #0
 904 0012 40D0     		beq	.L75
 905              	.LVL71:
 906              	.L65:
 907              	.LBB37:
 908              		.loc 1 409 0
 909 0014 2023     		movs	r3, #32
 910              	.LVL72:
 911              	@ 409 "../chibios_2.4.x/os/kernel/src/chqueues.c" 1
 912 0016 83F31188 		msr     BASEPRI, r3
 913              	@ 0 "" 2
 914              	.LVL73:
 915              		.thumb
 916              	.LBE37:
 917 001a FFF7FEFF 		bl	dbg_check_lock
 918              	.LVL74:
 919              		.loc 1 405 0
 920 001e 0027     		movs	r7, #0
 921              	.LVL75:
 922              	.L74:
 923              		.loc 1 411 0 discriminator 1
 924 0020 D4F808A0 		ldr	sl, [r4, #8]
 925              		.loc 1 423 0 discriminator 1
 926 0024 2046     		mov	r0, r4
 927              		.loc 1 417 0 discriminator 1
 928 0026 0AF1FF33 		add	r3, sl, #-1
 929              		.loc 1 411 0 discriminator 1
 930 002a BAF1000F 		cmp	sl, #0
 931 002e 24D0     		beq	.L69
 932              	.L76:
 933              		.loc 1 417 0
 934 0030 A360     		str	r3, [r4, #8]
 935              		.loc 1 418 0
 936 0032 3178     		ldrb	r1, [r6, #0]	@ zero_extendqisi2
 937 0034 6369     		ldr	r3, [r4, #20]
 938 0036 03F8011B 		strb	r1, [r3], #1
 939              		.loc 1 419 0
 940 003a 2269     		ldr	r2, [r4, #16]
 941              		.loc 1 418 0
 942 003c 6361     		str	r3, [r4, #20]
 943              	.LVL76:
 944              		.loc 1 419 0
 945 003e 9342     		cmp	r3, r2
 946              		.loc 1 420 0
 947 0040 24BF     		itt	cs
 948 0042 E368     		ldrcs	r3, [r4, #12]
 949 0044 6361     		strcs	r3, [r4, #20]
 950              		.loc 1 422 0
 951 0046 B8F1000F 		cmp	r8, #0
 952 004a 00D0     		beq	.L71
 953              		.loc 1 423 0
 954 004c C047     		blx	r8
 955              	.L71:
ARM GAS  /tmp/cc1Wnpol.s 			page 18


 956              		.loc 1 425 0
 957 004e FFF7FEFF 		bl	dbg_check_unlock
 958              	.LBB38:
 959 0052 0023     		movs	r3, #0
 960              	.LVL77:
 961              	@ 425 "../chibios_2.4.x/os/kernel/src/chqueues.c" 1
 962 0054 83F31188 		msr     BASEPRI, r3
 963              	@ 0 "" 2
 964              	.LVL78:
 965              		.thumb
 966              	.LBE38:
 967              		.loc 1 426 0
 968 0058 0137     		adds	r7, r7, #1
 969              	.LVL79:
 970              		.loc 1 427 0
 971 005a 013D     		subs	r5, r5, #1
 972              	.LVL80:
 973 005c 18D0     		beq	.L68
 974              		.loc 1 418 0
 975 005e 0136     		adds	r6, r6, #1
 976              	.LVL81:
 977              	.LBB39:
 978              		.loc 1 429 0
 979 0060 2023     		movs	r3, #32
 980              	.LVL82:
 981              	@ 429 "../chibios_2.4.x/os/kernel/src/chqueues.c" 1
 982 0062 83F31188 		msr     BASEPRI, r3
 983              	@ 0 "" 2
 984              	.LVL83:
 985              		.thumb
 986              	.LBE39:
 987 0066 FFF7FEFF 		bl	dbg_check_lock
 988              	.LVL84:
 989              		.loc 1 411 0
 990 006a D4F808A0 		ldr	sl, [r4, #8]
 991              		.loc 1 423 0
 992 006e 2046     		mov	r0, r4
 993              		.loc 1 417 0
 994 0070 0AF1FF33 		add	r3, sl, #-1
 995              		.loc 1 411 0
 996 0074 BAF1000F 		cmp	sl, #0
 997 0078 DAD1     		bne	.L76
 998              	.L69:
 999              		.loc 1 412 0
 1000 007a 2046     		mov	r0, r4
 1001 007c 4946     		mov	r1, r9
 1002 007e FFF7FEFF 		bl	qwait
 1003 0082 0028     		cmp	r0, #0
 1004 0084 CCD0     		beq	.L74
 1005              		.loc 1 413 0
 1006 0086 FFF7FEFF 		bl	dbg_check_unlock
 1007              	.LBB40:
 1008 008a 5346     		mov	r3, sl
 1009              	.LVL85:
 1010              	@ 413 "../chibios_2.4.x/os/kernel/src/chqueues.c" 1
 1011 008c 83F31188 		msr     BASEPRI, r3
 1012              	@ 0 "" 2
ARM GAS  /tmp/cc1Wnpol.s 			page 19


 1013              	.LVL86:
 1014              		.thumb
 1015              	.L68:
 1016              	.LBE40:
 1017              		.loc 1 431 0
 1018 0090 3846     		mov	r0, r7
 1019 0092 BDE8F087 		pop	{r4, r5, r6, r7, r8, r9, sl, pc}
 1020              	.LVL87:
 1021              	.L75:
 1022              		.loc 1 407 0 discriminator 1
 1023 0096 0248     		ldr	r0, .L77
 1024 0098 FFF7FEFF 		bl	chDbgPanic
 1025              	.LVL88:
 1026 009c BAE7     		b	.L65
 1027              	.L78:
 1028 009e 00BF     		.align	2
 1029              	.L77:
 1030 00a0 14000000 		.word	.LC1
 1031              		.cfi_endproc
 1032              	.LFE17:
 1033              		.size	chOQWriteTimeout, .-chOQWriteTimeout
 1034 00a4 AFF30080 		.section	.rodata.str1.4,"aMS",%progbits,1
 1034      AFF30080 
 1034      AFF30080 
 1035              		.align	2
 1036              	.LC0:
 1037 0000 22636849 		.ascii	"\"chIQReadTimeout\"()\000"
 1037      51526561 
 1037      6454696D 
 1037      656F7574 
 1037      22282900 
 1038              	.LC1:
 1039 0014 2263684F 		.ascii	"\"chOQWriteTimeout\"()\000"
 1039      51577269 
 1039      74655469 
 1039      6D656F75 
 1039      74222829 
 1040 0029 000000   		.text
 1041              	.Letext0: