ARM GAS  /tmp/ccwY2SuC.s 			page 1


   1              		.syntax unified
   2              		.cpu cortex-m3
   3              		.fpu softvfp
   4              		.eabi_attribute 20, 1
   5              		.eabi_attribute 21, 1
   6              		.eabi_attribute 23, 3
   7              		.eabi_attribute 24, 1
   8              		.eabi_attribute 25, 1
   9              		.eabi_attribute 26, 1
  10              		.eabi_attribute 30, 2
  11              		.eabi_attribute 18, 4
  12              		.thumb
  13              		.file	"chregistry.c"
  20 0000 93010000 		.text
  20      02005701 
  20      00000201 
  20      FB0E0D00 
  20      01010101 
  21              	.Ltext0:
  22              		.cfi_sections	.debug_frame
  23              		.section	.text.chRegFirstThread,"ax",%progbits
  24              		.align	2
  25              		.p2align 4,,15
  26              		.global	chRegFirstThread
  27              		.thumb
  28              		.thumb_func
  29              		.type	chRegFirstThread, %function
  30              	chRegFirstThread:
  31              	.LFB7:
  32              		.file 1 "../chibios_2.4.x/os/kernel/src/chregistry.c"
  33              		.loc 1 72 0
  34              		.cfi_startproc
  35              		@ args = 0, pretend = 0, frame = 0
  36              		@ frame_needed = 0, uses_anonymous_args = 0
  37 0000 10B5     		push	{r4, lr}
  38              	.LCFI0:
  39              		.cfi_def_cfa_offset 8
  40              	.LBB2:
  41              		.loc 1 75 0
  42 0002 2023     		movs	r3, #32
  43              	.LVL0:
  44              	@ 75 "../chibios_2.4.x/os/kernel/src/chregistry.c" 1
  45 0004 83F31188 		msr     BASEPRI, r3
  46              	@ 0 "" 2
  47              	.LVL1:
  48              		.thumb
  49              	.LBE2:
  50              		.cfi_offset 14, -4
  51              		.cfi_offset 4, -8
  52 0008 FFF7FEFF 		bl	dbg_check_lock
  53              	.LVL2:
ARM GAS  /tmp/ccwY2SuC.s 			page 2


  54              		.loc 1 76 0
  55 000c 0649     		ldr	r1, .L2
  56 000e 0C69     		ldr	r4, [r1, #16]
  57              	.LVL3:
  58              		.loc 1 78 0
  59 0010 94F82200 		ldrb	r0, [r4, #34]	@ zero_extendqisi2
  60 0014 431C     		adds	r3, r0, #1
  61 0016 84F82230 		strb	r3, [r4, #34]
  62              		.loc 1 80 0
  63 001a FFF7FEFF 		bl	dbg_check_unlock
  64              	.LVL4:
  65              	.LBB3:
  66 001e 0023     		movs	r3, #0
  67              	.LVL5:
  68              	@ 80 "../chibios_2.4.x/os/kernel/src/chregistry.c" 1
  69 0020 83F31188 		msr     BASEPRI, r3
  70              	@ 0 "" 2
  71              	.LVL6:
  72              		.thumb
  73              	.LBE3:
  74              		.loc 1 82 0
  75 0024 2046     		mov	r0, r4
  76 0026 10BD     		pop	{r4, pc}
  77              	.L3:
  78              		.align	2
  79              	.L2:
  80 0028 00000000 		.word	rlist
  81              		.cfi_endproc
  82              	.LFE7:
  83              		.size	chRegFirstThread, .-chRegFirstThread
  84 002c AFF30080 		.section	.text.chRegNextThread,"ax",%progbits
  85              		.align	2
  86              		.p2align 4,,15
  87              		.global	chRegNextThread
  88              		.thumb
  89              		.thumb_func
  90              		.type	chRegNextThread, %function
  91              	chRegNextThread:
  92              	.LFB8:
  93              		.loc 1 95 0
  94              		.cfi_startproc
  95              		@ args = 0, pretend = 0, frame = 0
  96              		@ frame_needed = 0, uses_anonymous_args = 0
  97              	.LVL7:
  98 0000 38B5     		push	{r3, r4, r5, lr}
  99              	.LCFI1:
 100              		.cfi_def_cfa_offset 16
 101              		.loc 1 95 0
 102 0002 0546     		mov	r5, r0
 103              		.cfi_offset 14, -4
 104              		.cfi_offset 5, -8
 105              		.cfi_offset 4, -12
 106              		.cfi_offset 3, -16
 107              	.LBB4:
 108              		.loc 1 98 0
 109 0004 2023     		movs	r3, #32
 110              	.LVL8:
ARM GAS  /tmp/ccwY2SuC.s 			page 3


 111              	@ 98 "../chibios_2.4.x/os/kernel/src/chregistry.c" 1
 112 0006 83F31188 		msr     BASEPRI, r3
 113              	@ 0 "" 2
 114              	.LVL9:
 115              		.thumb
 116              	.LBE4:
 117 000a FFF7FEFF 		bl	dbg_check_lock
 118              	.LVL10:
 119              		.loc 1 99 0
 120 000e 2C69     		ldr	r4, [r5, #16]
 121              	.LVL11:
 122              		.loc 1 100 0
 123 0010 0D4B     		ldr	r3, .L10
 124 0012 9C42     		cmp	r4, r3
 125 0014 16D0     		beq	.L7
 126              		.loc 1 104 0
 127 0016 94F82230 		ldrb	r3, [r4, #34]	@ zero_extendqisi2
 128 001a FF2B     		cmp	r3, #255
 129 001c 0CD0     		beq	.L9
 130              	.LVL12:
 131              	.L6:
 132              		.loc 1 106 0
 133 001e 581C     		adds	r0, r3, #1
 134 0020 84F82200 		strb	r0, [r4, #34]
 135              	.LVL13:
 136              	.L5:
 137              		.loc 1 109 0
 138 0024 FFF7FEFF 		bl	dbg_check_unlock
 139              	.LBB5:
 140 0028 0023     		movs	r3, #0
 141              	.LVL14:
 142              	@ 109 "../chibios_2.4.x/os/kernel/src/chregistry.c" 1
 143 002a 83F31188 		msr     BASEPRI, r3
 144              	@ 0 "" 2
 145              	.LVL15:
 146              		.thumb
 147              	.LBE5:
 148              		.loc 1 111 0
 149 002e 2846     		mov	r0, r5
 150 0030 FFF7FEFF 		bl	chThdRelease
 151              	.LVL16:
 152              		.loc 1 114 0
 153 0034 2046     		mov	r0, r4
 154 0036 38BD     		pop	{r3, r4, r5, pc}
 155              	.L9:
 156              		.loc 1 104 0 discriminator 1
 157 0038 0448     		ldr	r0, .L10+4
 158 003a FFF7FEFF 		bl	chDbgPanic
 159 003e 94F82230 		ldrb	r3, [r4, #34]	@ zero_extendqisi2
 160 0042 ECE7     		b	.L6
 161              	.L7:
 162              		.loc 1 101 0
 163 0044 0024     		movs	r4, #0
 164              	.LVL17:
 165 0046 EDE7     		b	.L5
 166              	.L11:
 167              		.align	2
ARM GAS  /tmp/ccwY2SuC.s 			page 4


 168              	.L10:
 169 0048 00000000 		.word	rlist
 170 004c 00000000 		.word	.LC0
 171              		.cfi_endproc
 172              	.LFE8:
 173              		.size	chRegNextThread, .-chRegNextThread
 174              		.section	.rodata.str1.4,"aMS",%progbits,1
 175              		.align	2
 176              	.LC0:
 177 0000 63685265 		.ascii	"chRegNextThread(), #1\000"
 177      674E6578 
 177      74546872 
 177      65616428 
 177      292C2023 
 178 0016 0000     		.text
 179              	.Letext0: