ARM GAS  C:\Users\z80\AppData\Local\Temp\ccU2g4X7.s 			page 1


   1              		.syntax unified
   2              		.cpu cortex-m3
   3              		.fpu softvfp
   4              		.eabi_attribute 20, 1
   5              		.eabi_attribute 21, 1
   6              		.eabi_attribute 23, 3
   7              		.eabi_attribute 24, 1
   8              		.eabi_attribute 25, 1
   9              		.eabi_attribute 26, 1
  10              		.eabi_attribute 30, 2
  11              		.eabi_attribute 18, 4
  12              		.thumb
  13              		.file	"chschd.c"
  20 0000 B4020000 		.text
  20      02004101 
  20      00000201 
  20      FB0E0D00 
  20      01010101 
  21              	.Ltext0:
  22              		.cfi_sections	.debug_frame
  23              		.section	.text._scheduler_init,"ax",%progbits
  24              		.align	2
  25              		.p2align 4,,15
  26              		.global	_scheduler_init
  27              		.thumb
  28              		.thumb_func
  29              		.type	_scheduler_init, %function
  30              	_scheduler_init:
  31              	.LFB7:
  32              		.file 1 "../chibios_2.4.x/os/kernel/src/chschd.c"
  33              		.loc 1 55 0
  34              		.cfi_startproc
  35              		@ args = 0, pretend = 0, frame = 0
  36              		@ frame_needed = 0, uses_anonymous_args = 0
  37              		@ link register save eliminated.
  38              		.loc 1 57 0
  39 0000 40F20003 		movw	r3, #:lower16:.LANCHOR0
  40 0004 C0F20003 		movt	r3, #:upper16:.LANCHOR0
  41              		.loc 1 58 0
  42 0008 0022     		movs	r2, #0
  43 000a 9A60     		str	r2, [r3, #8]
  44              		.loc 1 60 0
  45 000c 1422     		movs	r2, #20
  46              		.loc 1 57 0
  47 000e 5B60     		str	r3, [r3, #4]
  48 0010 1B60     		str	r3, [r3, #0]
  49              		.loc 1 60 0
  50 0012 9A61     		str	r2, [r3, #24]
  51              		.loc 1 63 0
  52 0014 5B61     		str	r3, [r3, #20]
  53 0016 1B61     		str	r3, [r3, #16]
ARM GAS  C:\Users\z80\AppData\Local\Temp\ccU2g4X7.s 			page 2


  54              		.loc 1 65 0
  55 0018 7047     		bx	lr
  56              		.cfi_endproc
  57              	.LFE7:
  58              		.size	_scheduler_init, .-_scheduler_init
  59 001a 00BFAFF3 		.section	.text.chSchReadyI,"ax",%progbits
  59      0080
  60              		.align	2
  61              		.p2align 4,,15
  62              		.global	chSchReadyI
  63              		.thumb
  64              		.thumb_func
  65              		.type	chSchReadyI, %function
  66              	chSchReadyI:
  67              	.LFB8:
  68              		.loc 1 82 0
  69              		.cfi_startproc
  70              		@ args = 0, pretend = 0, frame = 0
  71              		@ frame_needed = 0, uses_anonymous_args = 0
  72              	.LVL0:
  73 0000 10B5     		push	{r4, lr}
  74              	.LCFI0:
  75              		.cfi_def_cfa_offset 8
  76              		.loc 1 86 0
  77 0002 90F82030 		ldrb	r3, [r0, #32]	@ zero_extendqisi2
  78              		.loc 1 82 0
  79 0006 0446     		mov	r4, r0
  80              		.cfi_offset 14, -4
  81              		.cfi_offset 4, -8
  82              		.loc 1 86 0
  83 0008 D3F10102 		rsbs	r2, r3, #1
  84 000c 38BF     		it	cc
  85 000e 0022     		movcc	r2, #0
  86 0010 0E2B     		cmp	r3, #14
  87 0012 14BF     		ite	ne
  88 0014 1346     		movne	r3, r2
  89 0016 42F00103 		orreq	r3, r2, #1
  90 001a 7BB9     		cbnz	r3, .L7
  91              	.LVL1:
  92              	.L3:
  93              		.loc 1 91 0
  94 001c 0022     		movs	r2, #0
  95              		.loc 1 92 0
  96 001e 094B     		ldr	r3, .L8
  97              	.LVL2:
  98 0020 A168     		ldr	r1, [r4, #8]
  99              		.loc 1 91 0
 100 0022 84F82020 		strb	r2, [r4, #32]
 101              	.L4:
 102              		.loc 1 94 0 discriminator 1
 103 0026 1B68     		ldr	r3, [r3, #0]
 104              	.LVL3:
 105              		.loc 1 95 0 discriminator 1
 106 0028 9A68     		ldr	r2, [r3, #8]
 107 002a 8A42     		cmp	r2, r1
 108 002c FBD2     		bcs	.L4
 109              		.loc 1 98 0
ARM GAS  C:\Users\z80\AppData\Local\Temp\ccU2g4X7.s 			page 3


 110 002e 5A68     		ldr	r2, [r3, #4]
 111              		.loc 1 97 0
 112 0030 2360     		str	r3, [r4, #0]
 113              		.loc 1 98 0
 114 0032 6260     		str	r2, [r4, #4]
 115              		.loc 1 99 0
 116 0034 1460     		str	r4, [r2, #0]
 117 0036 5C60     		str	r4, [r3, #4]
 118              		.loc 1 101 0
 119 0038 2046     		mov	r0, r4
 120 003a 10BD     		pop	{r4, pc}
 121              	.LVL4:
 122              	.L7:
 123              		.loc 1 86 0 discriminator 1
 124 003c 0248     		ldr	r0, .L8+4
 125 003e FFF7FEFF 		bl	chDbgPanic
 126 0042 EBE7     		b	.L3
 127              	.L9:
 128              		.align	2
 129              	.L8:
 130 0044 00000000 		.word	.LANCHOR0
 131 0048 00000000 		.word	.LC0
 132              		.cfi_endproc
 133              	.LFE8:
 134              		.size	chSchReadyI, .-chSchReadyI
 135 004c AFF30080 		.section	.text.wakeup,"ax",%progbits
 136              		.align	2
 137              		.p2align 4,,15
 138              		.thumb
 139              		.thumb_func
 140              		.type	wakeup, %function
 141              	wakeup:
 142              	.LFB10:
 143              		.loc 1 133 0
 144              		.cfi_startproc
 145              		@ args = 0, pretend = 0, frame = 0
 146              		@ frame_needed = 0, uses_anonymous_args = 0
 147              	.LVL5:
 148 0000 08B5     		push	{r3, lr}
 149              	.LCFI1:
 150              		.cfi_def_cfa_offset 8
 151              		.loc 1 136 0
 152 0002 90F82030 		ldrb	r3, [r0, #32]	@ zero_extendqisi2
 153              		.cfi_offset 14, -4
 154              		.cfi_offset 3, -8
 155 0006 0D2B     		cmp	r3, #13
 156 0008 11D8     		bhi	.L11
 157 000a DFE803F0 		tbb	[pc, r3]
 158              	.L15:
 159 000e 15       		.byte	(.L10-.L15)/2
 160 000f 10       		.byte	(.L11-.L15)/2
 161 0010 10       		.byte	(.L11-.L15)/2
 162 0011 07       		.byte	(.L13-.L15)/2
 163 0012 10       		.byte	(.L11-.L15)/2
 164 0013 0B       		.byte	(.L14-.L15)/2
 165 0014 10       		.byte	(.L11-.L15)/2
 166 0015 10       		.byte	(.L11-.L15)/2
ARM GAS  C:\Users\z80\AppData\Local\Temp\ccU2g4X7.s 			page 4


 167 0016 10       		.byte	(.L11-.L15)/2
 168 0017 10       		.byte	(.L11-.L15)/2
 169 0018 10       		.byte	(.L11-.L15)/2
 170 0019 10       		.byte	(.L11-.L15)/2
 171 001a 10       		.byte	(.L11-.L15)/2
 172 001b 0B       		.byte	(.L14-.L15)/2
 173              		.align	1
 174              	.L13:
 175              		.loc 1 145 0
 176 001c 836A     		ldr	r3, [r0, #40]
 177 001e 9A68     		ldr	r2, [r3, #8]
 178 0020 0132     		adds	r2, r2, #1
 179 0022 9A60     		str	r2, [r3, #8]
 180              	.L14:
 181              	.LVL6:
 182              	.LBB10:
 183              	.LBB11:
 184              		.file 2 "../chibios_2.4.x/os/kernel/include/chinline.h"
 185              		.loc 2 75 0
 186 0024 4368     		ldr	r3, [r0, #4]
 187 0026 0268     		ldr	r2, [r0, #0]
 188 0028 1A60     		str	r2, [r3, #0]
 189              		.loc 2 76 0
 190 002a 0268     		ldr	r2, [r0, #0]
 191 002c 5360     		str	r3, [r2, #4]
 192              	.LVL7:
 193              	.L11:
 194              	.LBE11:
 195              	.LBE10:
 196              		.loc 1 158 0
 197 002e 4FF0FF33 		mov	r3, #-1
 198 0032 8362     		str	r3, [r0, #40]
 199              		.loc 1 159 0
 200 0034 FFF7FEFF 		bl	chSchReadyI
 201              	.LVL8:
 202              	.L10:
 203              		.loc 1 160 0
 204 0038 08BD     		pop	{r3, pc}
 205              		.cfi_endproc
 206              	.LFE10:
 207              		.size	wakeup, .-wakeup
 208 003a 00BFAFF3 		.section	.text.chSchGoSleepS,"ax",%progbits
 208      0080
 209              		.align	2
 210              		.p2align 4,,15
 211              		.global	chSchGoSleepS
 212              		.thumb
 213              		.thumb_func
 214              		.type	chSchGoSleepS, %function
 215              	chSchGoSleepS:
 216              	.LFB9:
 217              		.loc 1 114 0
 218              		.cfi_startproc
 219              		@ args = 0, pretend = 0, frame = 0
 220              		@ frame_needed = 0, uses_anonymous_args = 0
 221              	.LVL9:
 222 0000 70B5     		push	{r4, r5, r6, lr}
ARM GAS  C:\Users\z80\AppData\Local\Temp\ccU2g4X7.s 			page 5


 223              	.LCFI2:
 224              		.cfi_def_cfa_offset 16
 225              		.loc 1 119 0
 226 0002 104C     		ldr	r4, .L18
 227              		.cfi_offset 14, -4
 228              		.cfi_offset 6, -8
 229              		.cfi_offset 5, -12
 230              		.cfi_offset 4, -16
 231              		.loc 1 114 0
 232 0004 0646     		mov	r6, r0
 233              		.loc 1 117 0
 234 0006 FFF7FEFF 		bl	chDbgCheckClassS
 235              	.LVL10:
 236              		.loc 1 119 0
 237 000a E569     		ldr	r5, [r4, #28]
 238              	.LVL11:
 239              		.loc 1 121 0
 240 000c 1421     		movs	r1, #20
 241              		.loc 1 119 0
 242 000e 85F82060 		strb	r6, [r5, #32]
 243              	.LBB12:
 244              	.LBB14:
 245              		.loc 2 60 0
 246 0012 2368     		ldr	r3, [r4, #0]
 247              	.LBE14:
 248              	.LBE12:
 249              		.loc 1 125 0
 250 0014 2846     		mov	r0, r5
 251              	.LBB17:
 252              	.LBB15:
 253              		.loc 2 62 0
 254 0016 1A68     		ldr	r2, [r3, #0]
 255              	.LBE15:
 256              	.LBE17:
 257              		.loc 1 121 0
 258 0018 A161     		str	r1, [r4, #24]
 259              	.LVL12:
 260              		.loc 1 124 0
 261 001a 0121     		movs	r1, #1
 262              	.LBB18:
 263              	.LBB13:
 264              		.loc 2 62 0
 265 001c 5460     		str	r4, [r2, #4]
 266              	.LBE13:
 267              	.LBE18:
 268              		.loc 1 124 0
 269 001e 83F82010 		strb	r1, [r3, #32]
 270              	.LBB19:
 271              	.LBB16:
 272              		.loc 2 62 0
 273 0022 2260     		str	r2, [r4, #0]
 274              	.LBE16:
 275              	.LBE19:
 276              		.loc 1 123 0
 277 0024 E361     		str	r3, [r4, #28]
 278              		.loc 1 125 0
 279 0026 FFF7FEFF 		bl	dbg_trace
ARM GAS  C:\Users\z80\AppData\Local\Temp\ccU2g4X7.s 			page 6


 280              	.LVL13:
 281              	.LBB20:
 282 002a EA69     		ldr	r2, [r5, #28]
 283 002c ADF12403 		sub	r3, sp, #36
 284 0030 9A42     		cmp	r2, r3
 285 0032 02D9     		bls	.L17
 286              		.loc 1 125 0 is_stmt 0 discriminator 1
 287 0034 0448     		ldr	r0, .L18+4
 288 0036 FFF7FEFF 		bl	chDbgPanic
 289              	.L17:
 290              		.loc 1 125 0 discriminator 2
 291 003a E069     		ldr	r0, [r4, #28]
 292 003c 2946     		mov	r1, r5
 293 003e FFF7FEFF 		bl	_port_switch
 294              	.LBE20:
 295              		.loc 1 126 0 is_stmt 1 discriminator 2
 296 0042 70BD     		pop	{r4, r5, r6, pc}
 297              	.L19:
 298              		.align	2
 299              	.L18:
 300 0044 00000000 		.word	.LANCHOR0
 301 0048 14000000 		.word	.LC1
 302              		.cfi_endproc
 303              	.LFE9:
 304              		.size	chSchGoSleepS, .-chSchGoSleepS
 305 004c AFF30080 		.section	.text.chSchGoSleepTimeoutS,"ax",%progbits
 306              		.align	2
 307              		.p2align 4,,15
 308              		.global	chSchGoSleepTimeoutS
 309              		.thumb
 310              		.thumb_func
 311              		.type	chSchGoSleepTimeoutS, %function
 312              	chSchGoSleepTimeoutS:
 313              	.LFB11:
 314              		.loc 1 183 0
 315              		.cfi_startproc
 316              		@ args = 0, pretend = 0, frame = 24
 317              		@ frame_needed = 0, uses_anonymous_args = 0
 318              	.LVL14:
 319 0000 F0B5     		push	{r4, r5, r6, r7, lr}
 320              	.LCFI3:
 321              		.cfi_def_cfa_offset 20
 322 0002 0F46     		mov	r7, r1
 323              		.cfi_offset 14, -4
 324              		.cfi_offset 7, -8
 325              		.cfi_offset 6, -12
 326              		.cfi_offset 5, -16
 327              		.cfi_offset 4, -20
 328 0004 87B0     		sub	sp, sp, #28
 329              	.LCFI4:
 330              		.cfi_def_cfa_offset 48
 331              		.loc 1 183 0
 332 0006 0546     		mov	r5, r0
 333              		.loc 1 185 0
 334 0008 FFF7FEFF 		bl	chDbgCheckClassS
 335              	.LVL15:
 336              		.loc 1 187 0
ARM GAS  C:\Users\z80\AppData\Local\Temp\ccU2g4X7.s 			page 7


 337 000c B7F1FF3F 		cmp	r7, #-1
 338 0010 13D0     		beq	.L21
 339              	.LBB21:
 340              		.loc 1 190 0
 341 0012 0C4C     		ldr	r4, .L23
 342 0014 01AE     		add	r6, sp, #4
 343 0016 E369     		ldr	r3, [r4, #28]
 344 0018 3946     		mov	r1, r7
 345 001a 0B4A     		ldr	r2, .L23+4
 346 001c 3046     		mov	r0, r6
 347 001e FFF7FEFF 		bl	chVTSetI
 348              		.loc 1 191 0
 349 0022 2846     		mov	r0, r5
 350 0024 FFF7FEFF 		bl	chSchGoSleepS
 351              		.loc 1 192 0
 352 0028 049B     		ldr	r3, [sp, #16]
 353 002a 13B1     		cbz	r3, .L22
 354              		.loc 1 193 0
 355 002c 3046     		mov	r0, r6
 356 002e FFF7FEFF 		bl	chVTResetI
 357              	.L22:
 358              	.LBE21:
 359              		.loc 1 197 0
 360 0032 E369     		ldr	r3, [r4, #28]
 361              		.loc 1 196 0
 362 0034 986A     		ldr	r0, [r3, #40]
 363              		.loc 1 198 0
 364 0036 07B0     		add	sp, sp, #28
 365 0038 F0BD     		pop	{r4, r5, r6, r7, pc}
 366              	.L21:
 367              		.loc 1 196 0
 368 003a 2846     		mov	r0, r5
 369 003c FFF7FEFF 		bl	chSchGoSleepS
 370 0040 004C     		ldr	r4, .L23
 371 0042 F6E7     		b	.L22
 372              	.L24:
 373              		.align	2
 374              	.L23:
 375 0044 00000000 		.word	.LANCHOR0
 376 0048 00000000 		.word	wakeup
 377              		.cfi_endproc
 378              	.LFE11:
 379              		.size	chSchGoSleepTimeoutS, .-chSchGoSleepTimeoutS
 380 004c AFF30080 		.section	.text.chSchWakeupS,"ax",%progbits
 381              		.align	2
 382              		.p2align 4,,15
 383              		.global	chSchWakeupS
 384              		.thumb
 385              		.thumb_func
 386              		.type	chSchWakeupS, %function
 387              	chSchWakeupS:
 388              	.LFB12:
 389              		.loc 1 219 0
 390              		.cfi_startproc
 391              		@ args = 0, pretend = 0, frame = 0
 392              		@ frame_needed = 0, uses_anonymous_args = 0
 393              	.LVL16:
ARM GAS  C:\Users\z80\AppData\Local\Temp\ccU2g4X7.s 			page 8


 394 0000 70B5     		push	{r4, r5, r6, lr}
 395              	.LCFI5:
 396              		.cfi_def_cfa_offset 16
 397              		.loc 1 228 0
 398 0002 144D     		ldr	r5, .L31
 399              		.cfi_offset 14, -4
 400              		.cfi_offset 6, -8
 401              		.cfi_offset 5, -12
 402              		.cfi_offset 4, -16
 403              		.loc 1 219 0
 404 0004 0446     		mov	r4, r0
 405 0006 0E46     		mov	r6, r1
 406              		.loc 1 221 0
 407 0008 FFF7FEFF 		bl	chDbgCheckClassS
 408              	.LVL17:
 409              		.loc 1 228 0
 410 000c E869     		ldr	r0, [r5, #28]
 411 000e A268     		ldr	r2, [r4, #8]
 412 0010 8368     		ldr	r3, [r0, #8]
 413              		.loc 1 223 0
 414 0012 A662     		str	r6, [r4, #40]
 415              		.loc 1 228 0
 416 0014 9A42     		cmp	r2, r3
 417 0016 14D9     		bls	.L29
 418              	.LBB22:
 419              		.loc 1 231 0
 420 0018 FFF7FEFF 		bl	chSchReadyI
 421              		.loc 1 236 0
 422 001c 0123     		movs	r3, #1
 423              		.loc 1 231 0
 424 001e 0646     		mov	r6, r0
 425              	.LVL18:
 426              		.loc 1 236 0
 427 0020 84F82030 		strb	r3, [r4, #32]
 428              		.loc 1 233 0
 429 0024 1423     		movs	r3, #20
 430 0026 AB61     		str	r3, [r5, #24]
 431              		.loc 1 235 0
 432 0028 EC61     		str	r4, [r5, #28]
 433              		.loc 1 237 0
 434 002a FFF7FEFF 		bl	dbg_trace
 435              	.LVL19:
 436              	.LBB23:
 437 002e F269     		ldr	r2, [r6, #28]
 438 0030 ADF12403 		sub	r3, sp, #36
 439 0034 9A42     		cmp	r2, r3
 440 0036 08D8     		bhi	.L30
 441              	.L28:
 442              		.loc 1 237 0 is_stmt 0 discriminator 2
 443 0038 2046     		mov	r0, r4
 444 003a 3146     		mov	r1, r6
 445 003c FFF7FEFF 		bl	_port_switch
 446              	.LVL20:
 447              	.L25:
 448              	.LBE23:
 449              	.LBE22:
 450              		.loc 1 239 0 is_stmt 1
ARM GAS  C:\Users\z80\AppData\Local\Temp\ccU2g4X7.s 			page 9


 451 0040 70BD     		pop	{r4, r5, r6, pc}
 452              	.LVL21:
 453              	.L29:
 454              		.loc 1 229 0
 455 0042 2046     		mov	r0, r4
 456 0044 FFF7FEFF 		bl	chSchReadyI
 457 0048 FAE7     		b	.L25
 458              	.LVL22:
 459              	.L30:
 460              	.LBB25:
 461              	.LBB24:
 462              		.loc 1 237 0 discriminator 1
 463 004a 0348     		ldr	r0, .L31+4
 464 004c FFF7FEFF 		bl	chDbgPanic
 465 0050 F2E7     		b	.L28
 466              	.L32:
 467 0052 00BF     		.align	2
 468              	.L31:
 469 0054 00000000 		.word	.LANCHOR0
 470 0058 14000000 		.word	.LC1
 471              	.LBE24:
 472              	.LBE25:
 473              		.cfi_endproc
 474              	.LFE12:
 475              		.size	chSchWakeupS, .-chSchWakeupS
 476 005c AFF30080 		.section	.text.chSchDoReschedule,"ax",%progbits
 477              		.align	2
 478              		.p2align 4,,15
 479              		.global	chSchDoReschedule
 480              		.thumb
 481              		.thumb_func
 482              		.type	chSchDoReschedule, %function
 483              	chSchDoReschedule:
 484              	.LFB14:
 485              		.loc 1 298 0
 486              		.cfi_startproc
 487              		@ args = 0, pretend = 0, frame = 0
 488              		@ frame_needed = 0, uses_anonymous_args = 0
 489 0000 38B5     		push	{r3, r4, r5, lr}
 490              	.LCFI6:
 491              		.cfi_def_cfa_offset 16
 492              		.loc 1 302 0
 493 0002 0F4C     		ldr	r4, .L35
 494              		.cfi_offset 14, -4
 495              		.cfi_offset 5, -8
 496              		.cfi_offset 4, -12
 497              		.cfi_offset 3, -16
 498 0004 1421     		movs	r1, #20
 499              	.LBB26:
 500              	.LBB28:
 501              		.loc 2 60 0
 502 0006 2368     		ldr	r3, [r4, #0]
 503              	.LBE28:
 504              	.LBE26:
 505              		.loc 1 304 0
 506 0008 E569     		ldr	r5, [r4, #28]
 507              	.LVL23:
ARM GAS  C:\Users\z80\AppData\Local\Temp\ccU2g4X7.s 			page 10


 508              	.LBB31:
 509              	.LBB29:
 510              		.loc 2 62 0
 511 000a 1A68     		ldr	r2, [r3, #0]
 512              	.LBE29:
 513              	.LBE31:
 514              		.loc 1 302 0
 515 000c A161     		str	r1, [r4, #24]
 516              		.loc 1 307 0
 517 000e 0121     		movs	r1, #1
 518              	.LBB32:
 519              	.LBB27:
 520              		.loc 2 62 0
 521 0010 5460     		str	r4, [r2, #4]
 522              	.LBE27:
 523              	.LBE32:
 524              		.loc 1 307 0
 525 0012 83F82010 		strb	r1, [r3, #32]
 526              		.loc 1 308 0
 527 0016 2846     		mov	r0, r5
 528              	.LBB33:
 529              	.LBB30:
 530              		.loc 2 62 0
 531 0018 2260     		str	r2, [r4, #0]
 532              	.LBE30:
 533              	.LBE33:
 534              		.loc 1 306 0
 535 001a E361     		str	r3, [r4, #28]
 536              		.loc 1 308 0
 537 001c FFF7FEFF 		bl	chSchReadyI
 538              	.LVL24:
 539              		.loc 1 309 0
 540 0020 2846     		mov	r0, r5
 541 0022 FFF7FEFF 		bl	dbg_trace
 542              	.LBB34:
 543 0026 EA69     		ldr	r2, [r5, #28]
 544 0028 ADF12403 		sub	r3, sp, #36
 545 002c 9A42     		cmp	r2, r3
 546 002e 02D9     		bls	.L34
 547              		.loc 1 309 0 is_stmt 0 discriminator 1
 548 0030 0448     		ldr	r0, .L35+4
 549 0032 FFF7FEFF 		bl	chDbgPanic
 550              	.L34:
 551              		.loc 1 309 0 discriminator 2
 552 0036 E069     		ldr	r0, [r4, #28]
 553 0038 2946     		mov	r1, r5
 554 003a FFF7FEFF 		bl	_port_switch
 555              	.LBE34:
 556              		.loc 1 310 0 is_stmt 1 discriminator 2
 557 003e 38BD     		pop	{r3, r4, r5, pc}
 558              	.L36:
 559              		.align	2
 560              	.L35:
 561 0040 00000000 		.word	.LANCHOR0
 562 0044 14000000 		.word	.LC1
 563              		.cfi_endproc
 564              	.LFE14:
ARM GAS  C:\Users\z80\AppData\Local\Temp\ccU2g4X7.s 			page 11


 565              		.size	chSchDoReschedule, .-chSchDoReschedule
 566              		.section	.text.chSchRescheduleS,"ax",%progbits
 567              		.align	2
 568              		.p2align 4,,15
 569              		.global	chSchRescheduleS
 570              		.thumb
 571              		.thumb_func
 572              		.type	chSchRescheduleS, %function
 573              	chSchRescheduleS:
 574              	.LFB13:
 575              		.loc 1 250 0
 576              		.cfi_startproc
 577              		@ args = 0, pretend = 0, frame = 0
 578              		@ frame_needed = 0, uses_anonymous_args = 0
 579 0000 08B5     		push	{r3, lr}
 580              	.LCFI7:
 581              		.cfi_def_cfa_offset 8
 582              		.loc 1 252 0
 583              		.cfi_offset 14, -4
 584              		.cfi_offset 3, -8
 585 0002 FFF7FEFF 		bl	chDbgCheckClassS
 586              		.loc 1 254 0
 587 0006 054B     		ldr	r3, .L39
 588 0008 1A68     		ldr	r2, [r3, #0]
 589 000a DB69     		ldr	r3, [r3, #28]
 590 000c 9268     		ldr	r2, [r2, #8]
 591 000e 9B68     		ldr	r3, [r3, #8]
 592 0010 9A42     		cmp	r2, r3
 593 0012 01D9     		bls	.L37
 594              		.loc 1 255 0
 595 0014 FFF7FEFF 		bl	chSchDoReschedule
 596              	.L37:
 597              		.loc 1 256 0
 598 0018 08BD     		pop	{r3, pc}
 599              	.L40:
 600 001a 00BF     		.align	2
 601              	.L39:
 602 001c 00000000 		.word	.LANCHOR0
 603              		.cfi_endproc
 604              	.LFE13:
 605              		.size	chSchRescheduleS, .-chSchRescheduleS
 606              		.global	rlist
 607              		.section	.rodata.str1.4,"aMS",%progbits,1
 608              		.align	2
 609              	.LC0:
 610 0000 63685363 		.ascii	"chSchReadyI(), #1\000"
 610      68526561 
 610      64794928 
 610      292C2023 
 610      3100
 611 0012 0000     		.space	2
 612              	.LC1:
 613 0014 73746163 		.ascii	"stack overflow\000"
 613      6B206F76 
 613      6572666C 
 613      6F7700
 614 0023 00       		.section	.bss.rlist,"aw",%nobits
ARM GAS  C:\Users\z80\AppData\Local\Temp\ccU2g4X7.s 			page 12


 615              		.align	2
 616              		.set	.LANCHOR0,. + 0
 617              		.type	rlist, %object
 618              		.size	rlist, 32
 619              	rlist:
 620 0000 00000000 		.space	32
 620      00000000 
 620      00000000 
 620      00000000 
 620      00000000 
 621              		.text
 622              	.Letext0: