ARM GAS  C:\Users\z80\AppData\Local\Temp\ccU2g4X7.s 			page 1


   1              		.syntax unified
   2              		.cpu cortex-m3
   3              		.fpu softvfp
   4              		.eabi_attribute 20, 1
   5              		.eabi_attribute 21, 1
   6              		.eabi_attribute 23, 3
   7              		.eabi_attribute 24, 1
   8              		.eabi_attribute 25, 1
   9              		.eabi_attribute 26, 1
  10              		.eabi_attribute 30, 2
  11              		.eabi_attribute 18, 4
  12              		.thumb
  13              		.file	"chschd.c"
  14              		.section	.debug_abbrev,"",%progbits
  15              	.Ldebug_abbrev0:
  16              		.section	.debug_info,"",%progbits
  17              	.Ldebug_info0:
  18              		.section	.debug_line,"",%progbits
  19              	.Ldebug_line0:
  20 0000 B4020000 		.text
  20      02004101 
  20      00000201 
  20      FB0E0D00 
  20      01010101 
  21              	.Ltext0:
  22              		.cfi_sections	.debug_frame
  23              		.section	.text._scheduler_init,"ax",%progbits
  24              		.align	2
  25              		.p2align 4,,15
  26              		.global	_scheduler_init
  27              		.thumb
  28              		.thumb_func
  29              		.type	_scheduler_init, %function
  30              	_scheduler_init:
  31              	.LFB7:
  32              		.file 1 "../chibios_2.4.x/os/kernel/src/chschd.c"
  33              		.loc 1 55 0
  34              		.cfi_startproc
  35              		@ args = 0, pretend = 0, frame = 0
  36              		@ frame_needed = 0, uses_anonymous_args = 0
  37              		@ link register save eliminated.
  38              		.loc 1 57 0
  39 0000 40F20003 		movw	r3, #:lower16:.LANCHOR0
  40 0004 C0F20003 		movt	r3, #:upper16:.LANCHOR0
  41              		.loc 1 58 0
  42 0008 0022     		movs	r2, #0
  43 000a 9A60     		str	r2, [r3, #8]
  44              		.loc 1 60 0
  45 000c 1422     		movs	r2, #20
  46              		.loc 1 57 0
  47 000e 5B60     		str	r3, [r3, #4]
  48 0010 1B60     		str	r3, [r3, #0]
  49              		.loc 1 60 0
  50 0012 9A61     		str	r2, [r3, #24]
  51              		.loc 1 63 0
  52 0014 5B61     		str	r3, [r3, #20]
  53 0016 1B61     		str	r3, [r3, #16]
ARM GAS  C:\Users\z80\AppData\Local\Temp\ccU2g4X7.s 			page 2


  54              		.loc 1 65 0
  55 0018 7047     		bx	lr
  56              		.cfi_endproc
  57              	.LFE7:
  58              		.size	_scheduler_init, .-_scheduler_init
  59 001a 00BFAFF3 		.section	.text.chSchReadyI,"ax",%progbits
  59      0080
  60              		.align	2
  61              		.p2align 4,,15
  62              		.global	chSchReadyI
  63              		.thumb
  64              		.thumb_func
  65              		.type	chSchReadyI, %function
  66              	chSchReadyI:
  67              	.LFB8:
  68              		.loc 1 82 0
  69              		.cfi_startproc
  70              		@ args = 0, pretend = 0, frame = 0
  71              		@ frame_needed = 0, uses_anonymous_args = 0
  72              	.LVL0:
  73 0000 10B5     		push	{r4, lr}
  74              	.LCFI0:
  75              		.cfi_def_cfa_offset 8
  76              		.loc 1 86 0
  77 0002 90F82030 		ldrb	r3, [r0, #32]	@ zero_extendqisi2
  78              		.loc 1 82 0
  79 0006 0446     		mov	r4, r0
  80              		.cfi_offset 14, -4
  81              		.cfi_offset 4, -8
  82              		.loc 1 86 0
  83 0008 D3F10102 		rsbs	r2, r3, #1
  84 000c 38BF     		it	cc
  85 000e 0022     		movcc	r2, #0
  86 0010 0E2B     		cmp	r3, #14
  87 0012 14BF     		ite	ne
  88 0014 1346     		movne	r3, r2
  89 0016 42F00103 		orreq	r3, r2, #1
  90 001a 7BB9     		cbnz	r3, .L7
  91              	.LVL1:
  92              	.L3:
  93              		.loc 1 91 0
  94 001c 0022     		movs	r2, #0
  95              		.loc 1 92 0
  96 001e 094B     		ldr	r3, .L8
  97              	.LVL2:
  98 0020 A168     		ldr	r1, [r4, #8]
  99              		.loc 1 91 0
 100 0022 84F82020 		strb	r2, [r4, #32]
 101              	.L4:
 102              		.loc 1 94 0 discriminator 1
 103 0026 1B68     		ldr	r3, [r3, #0]
 104              	.LVL3:
 105              		.loc 1 95 0 discriminator 1
 106 0028 9A68     		ldr	r2, [r3, #8]
 107 002a 8A42     		cmp	r2, r1
 108 002c FBD2     		bcs	.L4
 109              		.loc 1 98 0
ARM GAS  C:\Users\z80\AppData\Local\Temp\ccU2g4X7.s 			page 3


 110 002e 5A68     		ldr	r2, [r3, #4]
 111              		.loc 1 97 0
 112 0030 2360     		str	r3, [r4, #0]
 113              		.loc 1 98 0
 114 0032 6260     		str	r2, [r4, #4]
 115              		.loc 1 99 0
 116 0034 1460     		str	r4, [r2, #0]
 117 0036 5C60     		str	r4, [r3, #4]
 118              		.loc 1 101 0
 119 0038 2046     		mov	r0, r4
 120 003a 10BD     		pop	{r4, pc}
 121              	.LVL4:
 122              	.L7:
 123              		.loc 1 86 0 discriminator 1
 124 003c 0248     		ldr	r0, .L8+4
 125 003e FFF7FEFF 		bl	chDbgPanic
 126 0042 EBE7     		b	.L3
 127              	.L9:
 128              		.align	2
 129              	.L8:
 130 0044 00000000 		.word	.LANCHOR0
 131 0048 00000000 		.word	.LC0
 132              		.cfi_endproc
 133              	.LFE8:
 134              		.size	chSchReadyI, .-chSchReadyI
 135 004c AFF30080 		.section	.text.wakeup,"ax",%progbits
 136              		.align	2
 137              		.p2align 4,,15
 138              		.thumb
 139              		.thumb_func
 140              		.type	wakeup, %function
 141              	wakeup:
 142              	.LFB10:
 143              		.loc 1 133 0
 144              		.cfi_startproc
 145              		@ args = 0, pretend = 0, frame = 0
 146              		@ frame_needed = 0, uses_anonymous_args = 0
 147              	.LVL5:
 148 0000 08B5     		push	{r3, lr}
 149              	.LCFI1:
 150              		.cfi_def_cfa_offset 8
 151              		.loc 1 136 0
 152 0002 90F82030 		ldrb	r3, [r0, #32]	@ zero_extendqisi2
 153              		.cfi_offset 14, -4
 154              		.cfi_offset 3, -8
 155 0006 0D2B     		cmp	r3, #13
 156 0008 11D8     		bhi	.L11
 157 000a DFE803F0 		tbb	[pc, r3]
 158              	.L15:
 159 000e 15       		.byte	(.L10-.L15)/2
 160 000f 10       		.byte	(.L11-.L15)/2
 161 0010 10       		.byte	(.L11-.L15)/2
 162 0011 07       		.byte	(.L13-.L15)/2
 163 0012 10       		.byte	(.L11-.L15)/2
 164 0013 0B       		.byte	(.L14-.L15)/2
 165 0014 10       		.byte	(.L11-.L15)/2
 166 0015 10       		.byte	(.L11-.L15)/2
ARM GAS  C:\Users\z80\AppData\Local\Temp\ccU2g4X7.s 			page 4


 167 0016 10       		.byte	(.L11-.L15)/2
 168 0017 10       		.byte	(.L11-.L15)/2
 169 0018 10       		.byte	(.L11-.L15)/2
 170 0019 10       		.byte	(.L11-.L15)/2
 171 001a 10       		.byte	(.L11-.L15)/2
 172 001b 0B       		.byte	(.L14-.L15)/2
 173              		.align	1
 174              	.L13:
 175              		.loc 1 145 0
 176 001c 836A     		ldr	r3, [r0, #40]
 177 001e 9A68     		ldr	r2, [r3, #8]
 178 0020 0132     		adds	r2, r2, #1
 179 0022 9A60     		str	r2, [r3, #8]
 180              	.L14:
 181              	.LVL6:
 182              	.LBB10:
 183              	.LBB11:
 184              		.file 2 "../chibios_2.4.x/os/kernel/include/chinline.h"
 185              		.loc 2 75 0
 186 0024 4368     		ldr	r3, [r0, #4]
 187 0026 0268     		ldr	r2, [r0, #0]
 188 0028 1A60     		str	r2, [r3, #0]
 189              		.loc 2 76 0
 190 002a 0268     		ldr	r2, [r0, #0]
 191 002c 5360     		str	r3, [r2, #4]
 192              	.LVL7:
 193              	.L11:
 194              	.LBE11:
 195              	.LBE10:
 196              		.loc 1 158 0
 197 002e 4FF0FF33 		mov	r3, #-1
 198 0032 8362     		str	r3, [r0, #40]
 199              		.loc 1 159 0
 200 0034 FFF7FEFF 		bl	chSchReadyI
 201              	.LVL8:
 202              	.L10:
 203              		.loc 1 160 0
 204 0038 08BD     		pop	{r3, pc}
 205              		.cfi_endproc
 206              	.LFE10:
 207              		.size	wakeup, .-wakeup
 208 003a 00BFAFF3 		.section	.text.chSchGoSleepS,"ax",%progbits
 208      0080
 209              		.align	2
 210              		.p2align 4,,15
 211              		.global	chSchGoSleepS
 212              		.thumb
 213              		.thumb_func
 214              		.type	chSchGoSleepS, %function
 215              	chSchGoSleepS:
 216              	.LFB9:
 217              		.loc 1 114 0
 218              		.cfi_startproc
 219              		@ args = 0, pretend = 0, frame = 0
 220              		@ frame_needed = 0, uses_anonymous_args = 0
 221              	.LVL9:
 222 0000 70B5     		push	{r4, r5, r6, lr}
ARM GAS  C:\Users\z80\AppData\Local\Temp\ccU2g4X7.s 			page 5


 223              	.LCFI2:
 224              		.cfi_def_cfa_offset 16
 225              		.loc 1 119 0
 226 0002 104C     		ldr	r4, .L18
 227              		.cfi_offset 14, -4
 228              		.cfi_offset 6, -8
 229              		.cfi_offset 5, -12
 230              		.cfi_offset 4, -16
 231              		.loc 1 114 0
 232 0004 0646     		mov	r6, r0
 233              		.loc 1 117 0
 234 0006 FFF7FEFF 		bl	chDbgCheckClassS
 235              	.LVL10:
 236              		.loc 1 119 0
 237 000a E569     		ldr	r5, [r4, #28]
 238              	.LVL11:
 239              		.loc 1 121 0
 240 000c 1421     		movs	r1, #20
 241              		.loc 1 119 0
 242 000e 85F82060 		strb	r6, [r5, #32]
 243              	.LBB12:
 244              	.LBB14:
 245              		.loc 2 60 0
 246 0012 2368     		ldr	r3, [r4, #0]
 247              	.LBE14:
 248              	.LBE12:
 249              		.loc 1 125 0
 250 0014 2846     		mov	r0, r5
 251              	.LBB17:
 252              	.LBB15:
 253              		.loc 2 62 0
 254 0016 1A68     		ldr	r2, [r3, #0]
 255              	.LBE15:
 256              	.LBE17:
 257              		.loc 1 121 0
 258 0018 A161     		str	r1, [r4, #24]
 259              	.LVL12:
 260              		.loc 1 124 0
 261 001a 0121     		movs	r1, #1
 262              	.LBB18:
 263              	.LBB13:
 264              		.loc 2 62 0
 265 001c 5460     		str	r4, [r2, #4]
 266              	.LBE13:
 267              	.LBE18:
 268              		.loc 1 124 0
 269 001e 83F82010 		strb	r1, [r3, #32]
 270              	.LBB19:
 271              	.LBB16:
 272              		.loc 2 62 0
 273 0022 2260     		str	r2, [r4, #0]
 274              	.LBE16:
 275              	.LBE19:
 276              		.loc 1 123 0
 277 0024 E361     		str	r3, [r4, #28]
 278              		.loc 1 125 0
 279 0026 FFF7FEFF 		bl	dbg_trace
ARM GAS  C:\Users\z80\AppData\Local\Temp\ccU2g4X7.s 			page 6


 280              	.LVL13:
 281              	.LBB20:
 282 002a EA69     		ldr	r2, [r5, #28]
 283 002c ADF12403 		sub	r3, sp, #36
 284 0030 9A42     		cmp	r2, r3
 285 0032 02D9     		bls	.L17
 286              		.loc 1 125 0 is_stmt 0 discriminator 1
 287 0034 0448     		ldr	r0, .L18+4
 288 0036 FFF7FEFF 		bl	chDbgPanic
 289              	.L17:
 290              		.loc 1 125 0 discriminator 2
 291 003a E069     		ldr	r0, [r4, #28]
 292 003c 2946     		mov	r1, r5
 293 003e FFF7FEFF 		bl	_port_switch
 294              	.LBE20:
 295              		.loc 1 126 0 is_stmt 1 discriminator 2
 296 0042 70BD     		pop	{r4, r5, r6, pc}
 297              	.L19:
 298              		.align	2
 299              	.L18:
 300 0044 00000000 		.word	.LANCHOR0
 301 0048 14000000 		.word	.LC1
 302              		.cfi_endproc
 303              	.LFE9:
 304              		.size	chSchGoSleepS, .-chSchGoSleepS
 305 004c AFF30080 		.section	.text.chSchGoSleepTimeoutS,"ax",%progbits
 306              		.align	2
 307              		.p2align 4,,15
 308              		.global	chSchGoSleepTimeoutS
 309              		.thumb
 310              		.thumb_func
 311              		.type	chSchGoSleepTimeoutS, %function
 312              	chSchGoSleepTimeoutS:
 313              	.LFB11:
 314              		.loc 1 183 0
 315              		.cfi_startproc
 316              		@ args = 0, pretend = 0, frame = 24
 317              		@ frame_needed = 0, uses_anonymous_args = 0
 318              	.LVL14:
 319 0000 F0B5     		push	{r4, r5, r6, r7, lr}
 320              	.LCFI3:
 321              		.cfi_def_cfa_offset 20
 322 0002 0F46     		mov	r7, r1
 323              		.cfi_offset 14, -4
 324              		.cfi_offset 7, -8
 325              		.cfi_offset 6, -12
 326              		.cfi_offset 5, -16
 327              		.cfi_offset 4, -20
 328 0004 87B0     		sub	sp, sp, #28
 329              	.LCFI4:
 330              		.cfi_def_cfa_offset 48
 331              		.loc 1 183 0
 332 0006 0546     		mov	r5, r0
 333              		.loc 1 185 0
 334 0008 FFF7FEFF 		bl	chDbgCheckClassS
 335              	.LVL15:
 336              		.loc 1 187 0
ARM GAS  C:\Users\z80\AppData\Local\Temp\ccU2g4X7.s 			page 7


 337 000c B7F1FF3F 		cmp	r7, #-1
 338 0010 13D0     		beq	.L21
 339              	.LBB21:
 340              		.loc 1 190 0
 341 0012 0C4C     		ldr	r4, .L23
 342 0014 01AE     		add	r6, sp, #4
 343 0016 E369     		ldr	r3, [r4, #28]
 344 0018 3946     		mov	r1, r7
 345 001a 0B4A     		ldr	r2, .L23+4
 346 001c 3046     		mov	r0, r6
 347 001e FFF7FEFF 		bl	chVTSetI
 348              		.loc 1 191 0
 349 0022 2846     		mov	r0, r5
 350 0024 FFF7FEFF 		bl	chSchGoSleepS
 351              		.loc 1 192 0
 352 0028 049B     		ldr	r3, [sp, #16]
 353 002a 13B1     		cbz	r3, .L22
 354              		.loc 1 193 0
 355 002c 3046     		mov	r0, r6
 356 002e FFF7FEFF 		bl	chVTResetI
 357              	.L22:
 358              	.LBE21:
 359              		.loc 1 197 0
 360 0032 E369     		ldr	r3, [r4, #28]
 361              		.loc 1 196 0
 362 0034 986A     		ldr	r0, [r3, #40]
 363              		.loc 1 198 0
 364 0036 07B0     		add	sp, sp, #28
 365 0038 F0BD     		pop	{r4, r5, r6, r7, pc}
 366              	.L21:
 367              		.loc 1 196 0
 368 003a 2846     		mov	r0, r5
 369 003c FFF7FEFF 		bl	chSchGoSleepS
 370 0040 004C     		ldr	r4, .L23
 371 0042 F6E7     		b	.L22
 372              	.L24:
 373              		.align	2
 374              	.L23:
 375 0044 00000000 		.word	.LANCHOR0
 376 0048 00000000 		.word	wakeup
 377              		.cfi_endproc
 378              	.LFE11:
 379              		.size	chSchGoSleepTimeoutS, .-chSchGoSleepTimeoutS
 380 004c AFF30080 		.section	.text.chSchWakeupS,"ax",%progbits
 381              		.align	2
 382              		.p2align 4,,15
 383              		.global	chSchWakeupS
 384              		.thumb
 385              		.thumb_func
 386              		.type	chSchWakeupS, %function
 387              	chSchWakeupS:
 388              	.LFB12:
 389              		.loc 1 219 0
 390              		.cfi_startproc
 391              		@ args = 0, pretend = 0, frame = 0
 392              		@ frame_needed = 0, uses_anonymous_args = 0
 393              	.LVL16:
ARM GAS  C:\Users\z80\AppData\Local\Temp\ccU2g4X7.s 			page 8


 394 0000 70B5     		push	{r4, r5, r6, lr}
 395              	.LCFI5:
 396              		.cfi_def_cfa_offset 16
 397              		.loc 1 228 0
 398 0002 144D     		ldr	r5, .L31
 399              		.cfi_offset 14, -4
 400              		.cfi_offset 6, -8
 401              		.cfi_offset 5, -12
 402              		.cfi_offset 4, -16
 403              		.loc 1 219 0
 404 0004 0446     		mov	r4, r0
 405 0006 0E46     		mov	r6, r1
 406              		.loc 1 221 0
 407 0008 FFF7FEFF 		bl	chDbgCheckClassS
 408              	.LVL17:
 409              		.loc 1 228 0
 410 000c E869     		ldr	r0, [r5, #28]
 411 000e A268     		ldr	r2, [r4, #8]
 412 0010 8368     		ldr	r3, [r0, #8]
 413              		.loc 1 223 0
 414 0012 A662     		str	r6, [r4, #40]
 415              		.loc 1 228 0
 416 0014 9A42     		cmp	r2, r3
 417 0016 14D9     		bls	.L29
 418              	.LBB22:
 419              		.loc 1 231 0
 420 0018 FFF7FEFF 		bl	chSchReadyI
 421              		.loc 1 236 0
 422 001c 0123     		movs	r3, #1
 423              		.loc 1 231 0
 424 001e 0646     		mov	r6, r0
 425              	.LVL18:
 426              		.loc 1 236 0
 427 0020 84F82030 		strb	r3, [r4, #32]
 428              		.loc 1 233 0
 429 0024 1423     		movs	r3, #20
 430 0026 AB61     		str	r3, [r5, #24]
 431              		.loc 1 235 0
 432 0028 EC61     		str	r4, [r5, #28]
 433              		.loc 1 237 0
 434 002a FFF7FEFF 		bl	dbg_trace
 435              	.LVL19:
 436              	.LBB23:
 437 002e F269     		ldr	r2, [r6, #28]
 438 0030 ADF12403 		sub	r3, sp, #36
 439 0034 9A42     		cmp	r2, r3
 440 0036 08D8     		bhi	.L30
 441              	.L28:
 442              		.loc 1 237 0 is_stmt 0 discriminator 2
 443 0038 2046     		mov	r0, r4
 444 003a 3146     		mov	r1, r6
 445 003c FFF7FEFF 		bl	_port_switch
 446              	.LVL20:
 447              	.L25:
 448              	.LBE23:
 449              	.LBE22:
 450              		.loc 1 239 0 is_stmt 1
ARM GAS  C:\Users\z80\AppData\Local\Temp\ccU2g4X7.s 			page 9


 451 0040 70BD     		pop	{r4, r5, r6, pc}
 452              	.LVL21:
 453              	.L29:
 454              		.loc 1 229 0
 455 0042 2046     		mov	r0, r4
 456 0044 FFF7FEFF 		bl	chSchReadyI
 457 0048 FAE7     		b	.L25
 458              	.LVL22:
 459              	.L30:
 460              	.LBB25:
 461              	.LBB24:
 462              		.loc 1 237 0 discriminator 1
 463 004a 0348     		ldr	r0, .L31+4
 464 004c FFF7FEFF 		bl	chDbgPanic
 465 0050 F2E7     		b	.L28
 466              	.L32:
 467 0052 00BF     		.align	2
 468              	.L31:
 469 0054 00000000 		.word	.LANCHOR0
 470 0058 14000000 		.word	.LC1
 471              	.LBE24:
 472              	.LBE25:
 473              		.cfi_endproc
 474              	.LFE12:
 475              		.size	chSchWakeupS, .-chSchWakeupS
 476 005c AFF30080 		.section	.text.chSchDoReschedule,"ax",%progbits
 477              		.align	2
 478              		.p2align 4,,15
 479              		.global	chSchDoReschedule
 480              		.thumb
 481              		.thumb_func
 482              		.type	chSchDoReschedule, %function
 483              	chSchDoReschedule:
 484              	.LFB14:
 485              		.loc 1 298 0
 486              		.cfi_startproc
 487              		@ args = 0, pretend = 0, frame = 0
 488              		@ frame_needed = 0, uses_anonymous_args = 0
 489 0000 38B5     		push	{r3, r4, r5, lr}
 490              	.LCFI6:
 491              		.cfi_def_cfa_offset 16
 492              		.loc 1 302 0
 493 0002 0F4C     		ldr	r4, .L35
 494              		.cfi_offset 14, -4
 495              		.cfi_offset 5, -8
 496              		.cfi_offset 4, -12
 497              		.cfi_offset 3, -16
 498 0004 1421     		movs	r1, #20
 499              	.LBB26:
 500              	.LBB28:
 501              		.loc 2 60 0
 502 0006 2368     		ldr	r3, [r4, #0]
 503              	.LBE28:
 504              	.LBE26:
 505              		.loc 1 304 0
 506 0008 E569     		ldr	r5, [r4, #28]
 507              	.LVL23:
ARM GAS  C:\Users\z80\AppData\Local\Temp\ccU2g4X7.s 			page 10


 508              	.LBB31:
 509              	.LBB29:
 510              		.loc 2 62 0
 511 000a 1A68     		ldr	r2, [r3, #0]
 512              	.LBE29:
 513              	.LBE31:
 514              		.loc 1 302 0
 515 000c A161     		str	r1, [r4, #24]
 516              		.loc 1 307 0
 517 000e 0121     		movs	r1, #1
 518              	.LBB32:
 519              	.LBB27:
 520              		.loc 2 62 0
 521 0010 5460     		str	r4, [r2, #4]
 522              	.LBE27:
 523              	.LBE32:
 524              		.loc 1 307 0
 525 0012 83F82010 		strb	r1, [r3, #32]
 526              		.loc 1 308 0
 527 0016 2846     		mov	r0, r5
 528              	.LBB33:
 529              	.LBB30:
 530              		.loc 2 62 0
 531 0018 2260     		str	r2, [r4, #0]
 532              	.LBE30:
 533              	.LBE33:
 534              		.loc 1 306 0
 535 001a E361     		str	r3, [r4, #28]
 536              		.loc 1 308 0
 537 001c FFF7FEFF 		bl	chSchReadyI
 538              	.LVL24:
 539              		.loc 1 309 0
 540 0020 2846     		mov	r0, r5
 541 0022 FFF7FEFF 		bl	dbg_trace
 542              	.LBB34:
 543 0026 EA69     		ldr	r2, [r5, #28]
 544 0028 ADF12403 		sub	r3, sp, #36
 545 002c 9A42     		cmp	r2, r3
 546 002e 02D9     		bls	.L34
 547              		.loc 1 309 0 is_stmt 0 discriminator 1
 548 0030 0448     		ldr	r0, .L35+4
 549 0032 FFF7FEFF 		bl	chDbgPanic
 550              	.L34:
 551              		.loc 1 309 0 discriminator 2
 552 0036 E069     		ldr	r0, [r4, #28]
 553 0038 2946     		mov	r1, r5
 554 003a FFF7FEFF 		bl	_port_switch
 555              	.LBE34:
 556              		.loc 1 310 0 is_stmt 1 discriminator 2
 557 003e 38BD     		pop	{r3, r4, r5, pc}
 558              	.L36:
 559              		.align	2
 560              	.L35:
 561 0040 00000000 		.word	.LANCHOR0
 562 0044 14000000 		.word	.LC1
 563              		.cfi_endproc
 564              	.LFE14:
ARM GAS  C:\Users\z80\AppData\Local\Temp\ccU2g4X7.s 			page 11


 565              		.size	chSchDoReschedule, .-chSchDoReschedule
 566              		.section	.text.chSchRescheduleS,"ax",%progbits
 567              		.align	2
 568              		.p2align 4,,15
 569              		.global	chSchRescheduleS
 570              		.thumb
 571              		.thumb_func
 572              		.type	chSchRescheduleS, %function
 573              	chSchRescheduleS:
 574              	.LFB13:
 575              		.loc 1 250 0
 576              		.cfi_startproc
 577              		@ args = 0, pretend = 0, frame = 0
 578              		@ frame_needed = 0, uses_anonymous_args = 0
 579 0000 08B5     		push	{r3, lr}
 580              	.LCFI7:
 581              		.cfi_def_cfa_offset 8
 582              		.loc 1 252 0
 583              		.cfi_offset 14, -4
 584              		.cfi_offset 3, -8
 585 0002 FFF7FEFF 		bl	chDbgCheckClassS
 586              		.loc 1 254 0
 587 0006 054B     		ldr	r3, .L39
 588 0008 1A68     		ldr	r2, [r3, #0]
 589 000a DB69     		ldr	r3, [r3, #28]
 590 000c 9268     		ldr	r2, [r2, #8]
 591 000e 9B68     		ldr	r3, [r3, #8]
 592 0010 9A42     		cmp	r2, r3
 593 0012 01D9     		bls	.L37
 594              		.loc 1 255 0
 595 0014 FFF7FEFF 		bl	chSchDoReschedule
 596              	.L37:
 597              		.loc 1 256 0
 598 0018 08BD     		pop	{r3, pc}
 599              	.L40:
 600 001a 00BF     		.align	2
 601              	.L39:
 602 001c 00000000 		.word	.LANCHOR0
 603              		.cfi_endproc
 604              	.LFE13:
 605              		.size	chSchRescheduleS, .-chSchRescheduleS
 606              		.global	rlist
 607              		.section	.rodata.str1.4,"aMS",%progbits,1
 608              		.align	2
 609              	.LC0:
 610 0000 63685363 		.ascii	"chSchReadyI(), #1\000"
 610      68526561 
 610      64794928 
 610      292C2023 
 610      3100
 611 0012 0000     		.space	2
 612              	.LC1:
 613 0014 73746163 		.ascii	"stack overflow\000"
 613      6B206F76 
 613      6572666C 
 613      6F7700
 614 0023 00       		.section	.bss.rlist,"aw",%nobits
ARM GAS  C:\Users\z80\AppData\Local\Temp\ccU2g4X7.s 			page 12


 615              		.align	2
 616              		.set	.LANCHOR0,. + 0
 617              		.type	rlist, %object
 618              		.size	rlist, 32
 619              	rlist:
 620 0000 00000000 		.space	32
 620      00000000 
 620      00000000 
 620      00000000 
 620      00000000 
 621              		.text
 622              	.Letext0:
 623              		.section	.debug_loc,"",%progbits
 624              	.Ldebug_loc0:
 625              	.LLST0:
 626 0000 00000000 		.4byte	.LFB8
 627 0004 02000000 		.4byte	.LCFI0
 628 0008 0200     		.2byte	0x2
 629 000a 7D       		.byte	0x7d
 630 000b 00       		.sleb128 0
 631 000c 02000000 		.4byte	.LCFI0
 632 0010 4C000000 		.4byte	.LFE8
 633 0014 0200     		.2byte	0x2
 634 0016 7D       		.byte	0x7d
 635 0017 08       		.sleb128 8
 636 0018 00000000 		.4byte	0x0
 637 001c 00000000 		.4byte	0x0
 638              	.LLST1:
 639 0020 00000000 		.4byte	.LVL0
 640 0024 1C000000 		.4byte	.LVL1
 641 0028 0100     		.2byte	0x1
 642 002a 50       		.byte	0x50
 643 002b 1C000000 		.4byte	.LVL1
 644 002f 4C000000 		.4byte	.LFE8
 645 0033 0100     		.2byte	0x1
 646 0035 54       		.byte	0x54
 647 0036 00000000 		.4byte	0x0
 648 003a 00000000 		.4byte	0x0
 649              	.LLST2:
 650 003e 20000000 		.4byte	.LVL2
 651 0042 28000000 		.4byte	.LVL3
 652 0046 0100     		.2byte	0x1
 653 0048 53       		.byte	0x53
 654 0049 28000000 		.4byte	.LVL3
 655 004d 3C000000 		.4byte	.LVL4
 656 0051 0100     		.2byte	0x1
 657 0053 53       		.byte	0x53
 658 0054 00000000 		.4byte	0x0
 659 0058 00000000 		.4byte	0x0
 660              	.LLST3:
 661 005c 00000000 		.4byte	.LFB10
 662 0060 02000000 		.4byte	.LCFI1
 663 0064 0200     		.2byte	0x2
 664 0066 7D       		.byte	0x7d
 665 0067 00       		.sleb128 0
 666 0068 02000000 		.4byte	.LCFI1
 667 006c 3A000000 		.4byte	.LFE10
ARM GAS  C:\Users\z80\AppData\Local\Temp\ccU2g4X7.s 			page 13


 668 0070 0200     		.2byte	0x2
 669 0072 7D       		.byte	0x7d
 670 0073 08       		.sleb128 8
 671 0074 00000000 		.4byte	0x0
 672 0078 00000000 		.4byte	0x0
 673              	.LLST4:
 674 007c 00000000 		.4byte	.LVL5
 675 0080 37000000 		.4byte	.LVL8-1
 676 0084 0100     		.2byte	0x1
 677 0086 50       		.byte	0x50
 678 0087 00000000 		.4byte	0x0
 679 008b 00000000 		.4byte	0x0
 680              	.LLST5:
 681 008f 00000000 		.4byte	.LVL5
 682 0093 37000000 		.4byte	.LVL8-1
 683 0097 0100     		.2byte	0x1
 684 0099 50       		.byte	0x50
 685 009a 00000000 		.4byte	0x0
 686 009e 00000000 		.4byte	0x0
 687              	.LLST6:
 688 00a2 24000000 		.4byte	.LVL6
 689 00a6 2E000000 		.4byte	.LVL7
 690 00aa 0100     		.2byte	0x1
 691 00ac 50       		.byte	0x50
 692 00ad 00000000 		.4byte	0x0
 693 00b1 00000000 		.4byte	0x0
 694              	.LLST7:
 695 00b5 00000000 		.4byte	.LFB9
 696 00b9 02000000 		.4byte	.LCFI2
 697 00bd 0200     		.2byte	0x2
 698 00bf 7D       		.byte	0x7d
 699 00c0 00       		.sleb128 0
 700 00c1 02000000 		.4byte	.LCFI2
 701 00c5 4C000000 		.4byte	.LFE9
 702 00c9 0200     		.2byte	0x2
 703 00cb 7D       		.byte	0x7d
 704 00cc 10       		.sleb128 16
 705 00cd 00000000 		.4byte	0x0
 706 00d1 00000000 		.4byte	0x0
 707              	.LLST8:
 708 00d5 00000000 		.4byte	.LVL9
 709 00d9 09000000 		.4byte	.LVL10-1
 710 00dd 0100     		.2byte	0x1
 711 00df 50       		.byte	0x50
 712 00e0 00000000 		.4byte	0x0
 713 00e4 00000000 		.4byte	0x0
 714              	.LLST9:
 715 00e8 0C000000 		.4byte	.LVL11
 716 00ec 29000000 		.4byte	.LVL13-1
 717 00f0 0500     		.2byte	0x5
 718 00f2 03       		.byte	0x3
 719 00f3 1C000000 		.4byte	rlist+28
 720 00f7 29000000 		.4byte	.LVL13-1
 721 00fb 4C000000 		.4byte	.LFE9
 722 00ff 0100     		.2byte	0x1
 723 0101 55       		.byte	0x55
 724 0102 00000000 		.4byte	0x0
ARM GAS  C:\Users\z80\AppData\Local\Temp\ccU2g4X7.s 			page 14


 725 0106 00000000 		.4byte	0x0
 726              	.LLST10:
 727 010a 1A000000 		.4byte	.LVL12
 728 010e 29000000 		.4byte	.LVL13-1
 729 0112 0500     		.2byte	0x5
 730 0114 03       		.byte	0x3
 731 0115 00000000 		.4byte	rlist
 732 0119 00000000 		.4byte	0x0
 733 011d 00000000 		.4byte	0x0
 734              	.LLST11:
 735 0121 00000000 		.4byte	.LFB11
 736 0125 02000000 		.4byte	.LCFI3
 737 0129 0200     		.2byte	0x2
 738 012b 7D       		.byte	0x7d
 739 012c 00       		.sleb128 0
 740 012d 02000000 		.4byte	.LCFI3
 741 0131 06000000 		.4byte	.LCFI4
 742 0135 0200     		.2byte	0x2
 743 0137 7D       		.byte	0x7d
 744 0138 14       		.sleb128 20
 745 0139 06000000 		.4byte	.LCFI4
 746 013d 4C000000 		.4byte	.LFE11
 747 0141 0200     		.2byte	0x2
 748 0143 7D       		.byte	0x7d
 749 0144 30       		.sleb128 48
 750 0145 00000000 		.4byte	0x0
 751 0149 00000000 		.4byte	0x0
 752              	.LLST12:
 753 014d 00000000 		.4byte	.LVL14
 754 0151 0B000000 		.4byte	.LVL15-1
 755 0155 0100     		.2byte	0x1
 756 0157 50       		.byte	0x50
 757 0158 00000000 		.4byte	0x0
 758 015c 00000000 		.4byte	0x0
 759              	.LLST13:
 760 0160 00000000 		.4byte	.LVL14
 761 0164 0B000000 		.4byte	.LVL15-1
 762 0168 0100     		.2byte	0x1
 763 016a 51       		.byte	0x51
 764 016b 0B000000 		.4byte	.LVL15-1
 765 016f 4C000000 		.4byte	.LFE11
 766 0173 0100     		.2byte	0x1
 767 0175 57       		.byte	0x57
 768 0176 00000000 		.4byte	0x0
 769 017a 00000000 		.4byte	0x0
 770              	.LLST14:
 771 017e 00000000 		.4byte	.LFB12
 772 0182 02000000 		.4byte	.LCFI5
 773 0186 0200     		.2byte	0x2
 774 0188 7D       		.byte	0x7d
 775 0189 00       		.sleb128 0
 776 018a 02000000 		.4byte	.LCFI5
 777 018e 5C000000 		.4byte	.LFE12
 778 0192 0200     		.2byte	0x2
 779 0194 7D       		.byte	0x7d
 780 0195 10       		.sleb128 16
 781 0196 00000000 		.4byte	0x0
ARM GAS  C:\Users\z80\AppData\Local\Temp\ccU2g4X7.s 			page 15


 782 019a 00000000 		.4byte	0x0
 783              	.LLST15:
 784 019e 00000000 		.4byte	.LVL16
 785 01a2 0B000000 		.4byte	.LVL17-1
 786 01a6 0100     		.2byte	0x1
 787 01a8 50       		.byte	0x50
 788 01a9 0B000000 		.4byte	.LVL17-1
 789 01ad 5C000000 		.4byte	.LFE12
 790 01b1 0100     		.2byte	0x1
 791 01b3 54       		.byte	0x54
 792 01b4 00000000 		.4byte	0x0
 793 01b8 00000000 		.4byte	0x0
 794              	.LLST16:
 795 01bc 00000000 		.4byte	.LVL16
 796 01c0 0B000000 		.4byte	.LVL17-1
 797 01c4 0100     		.2byte	0x1
 798 01c6 51       		.byte	0x51
 799 01c7 0B000000 		.4byte	.LVL17-1
 800 01cb 20000000 		.4byte	.LVL18
 801 01cf 0100     		.2byte	0x1
 802 01d1 56       		.byte	0x56
 803 01d2 42000000 		.4byte	.LVL21
 804 01d6 4A000000 		.4byte	.LVL22
 805 01da 0100     		.2byte	0x1
 806 01dc 56       		.byte	0x56
 807 01dd 00000000 		.4byte	0x0
 808 01e1 00000000 		.4byte	0x0
 809              	.LLST17:
 810 01e5 20000000 		.4byte	.LVL18
 811 01e9 2D000000 		.4byte	.LVL19-1
 812 01ed 0100     		.2byte	0x1
 813 01ef 50       		.byte	0x50
 814 01f0 2D000000 		.4byte	.LVL19-1
 815 01f4 40000000 		.4byte	.LVL20
 816 01f8 0100     		.2byte	0x1
 817 01fa 56       		.byte	0x56
 818 01fb 4A000000 		.4byte	.LVL22
 819 01ff 5C000000 		.4byte	.LFE12
 820 0203 0100     		.2byte	0x1
 821 0205 56       		.byte	0x56
 822 0206 00000000 		.4byte	0x0
 823 020a 00000000 		.4byte	0x0
 824              	.LLST18:
 825 020e 00000000 		.4byte	.LFB14
 826 0212 02000000 		.4byte	.LCFI6
 827 0216 0200     		.2byte	0x2
 828 0218 7D       		.byte	0x7d
 829 0219 00       		.sleb128 0
 830 021a 02000000 		.4byte	.LCFI6
 831 021e 48000000 		.4byte	.LFE14
 832 0222 0200     		.2byte	0x2
 833 0224 7D       		.byte	0x7d
 834 0225 10       		.sleb128 16
 835 0226 00000000 		.4byte	0x0
 836 022a 00000000 		.4byte	0x0
 837              	.LLST19:
 838 022e 0A000000 		.4byte	.LVL23
ARM GAS  C:\Users\z80\AppData\Local\Temp\ccU2g4X7.s 			page 16


 839 0232 1F000000 		.4byte	.LVL24-1
 840 0236 0500     		.2byte	0x5
 841 0238 03       		.byte	0x3
 842 0239 1C000000 		.4byte	rlist+28
 843 023d 1F000000 		.4byte	.LVL24-1
 844 0241 48000000 		.4byte	.LFE14
 845 0245 0100     		.2byte	0x1
 846 0247 55       		.byte	0x55
 847 0248 00000000 		.4byte	0x0
 848 024c 00000000 		.4byte	0x0
 849              	.LLST20:
 850 0250 0A000000 		.4byte	.LVL23
 851 0254 1F000000 		.4byte	.LVL24-1
 852 0258 0500     		.2byte	0x5
 853 025a 03       		.byte	0x3
 854 025b 00000000 		.4byte	rlist
 855 025f 00000000 		.4byte	0x0
 856 0263 00000000 		.4byte	0x0
 857              	.LLST21:
 858 0267 00000000 		.4byte	.LFB13
 859 026b 02000000 		.4byte	.LCFI7
 860 026f 0200     		.2byte	0x2
 861 0271 7D       		.byte	0x7d
 862 0272 00       		.sleb128 0
 863 0273 02000000 		.4byte	.LCFI7
 864 0277 20000000 		.4byte	.LFE13
 865 027b 0200     		.2byte	0x2
 866 027d 7D       		.byte	0x7d
 867 027e 08       		.sleb128 8
 868 027f 00000000 		.4byte	0x0
 869 0283 00000000 		.4byte	0x0
 870              		.file 3 "c:/programs/yagarto/lib/gcc/../../arm-none-eabi/sys-include/stdint.h"
 871              		.file 4 "../chibios_2.4.x/os/ports/GCC/ARMCMx/chtypes.h"
 872              		.file 5 "../chibios_2.4.x/os/kernel/include/chlists.h"
 873              		.file 6 "../chibios_2.4.x/os/kernel/include/chthreads.h"
 874              		.file 7 "../chibios_2.4.x/os/ports/GCC/ARMCMx/chcore_v7m.h"
 875              		.file 8 "../chibios_2.4.x/os/kernel/include/chvt.h"
 876              		.file 9 "../chibios_2.4.x/os/kernel/include/chschd.h"
 877              		.file 10 "../chibios_2.4.x/os/kernel/include/chsem.h"
 878              		.file 11 "../chibios_2.4.x/os/kernel/include/chmtx.h"
 879              		.section	.debug_info
 880 0000 CA070000 		.4byte	0x7ca
 881 0004 0200     		.2byte	0x2
 882 0006 00000000 		.4byte	.Ldebug_abbrev0
 883 000a 04       		.byte	0x4
 884 000b 01       		.uleb128 0x1
 885 000c 46030000 		.4byte	.LASF86
 886 0010 01       		.byte	0x1
 887 0011 1A010000 		.4byte	.LASF87
 888 0015 C4010000 		.4byte	.LASF88
 889 0019 00000000 		.4byte	0x0
 890 001d 00000000 		.4byte	0x0
 891 0021 D0000000 		.4byte	.Ldebug_ranges0+0xd0
 892 0025 00000000 		.4byte	.Ldebug_line0
 893 0029 02       		.uleb128 0x2
 894 002a 04       		.byte	0x4
 895 002b 05       		.byte	0x5
ARM GAS  C:\Users\z80\AppData\Local\Temp\ccU2g4X7.s 			page 17


 896 002c 696E7400 		.ascii	"int\000"
 897 0030 03       		.uleb128 0x3
 898 0031 04       		.byte	0x4
 899 0032 07       		.byte	0x7
 900 0033 E6000000 		.4byte	.LASF0
 901 0037 03       		.uleb128 0x3
 902 0038 01       		.byte	0x1
 903 0039 06       		.byte	0x6
 904 003a 5B000000 		.4byte	.LASF1
 905 003e 04       		.uleb128 0x4
 906 003f 3E030000 		.4byte	.LASF5
 907 0043 03       		.byte	0x3
 908 0044 2A       		.byte	0x2a
 909 0045 49000000 		.4byte	0x49
 910 0049 03       		.uleb128 0x3
 911 004a 01       		.byte	0x1
 912 004b 08       		.byte	0x8
 913 004c 28020000 		.4byte	.LASF2
 914 0050 03       		.uleb128 0x3
 915 0051 02       		.byte	0x2
 916 0052 05       		.byte	0x5
 917 0053 49020000 		.4byte	.LASF3
 918 0057 03       		.uleb128 0x3
 919 0058 02       		.byte	0x2
 920 0059 07       		.byte	0x7
 921 005a 42010000 		.4byte	.LASF4
 922 005e 04       		.uleb128 0x4
 923 005f 20020000 		.4byte	.LASF6
 924 0063 03       		.byte	0x3
 925 0064 4F       		.byte	0x4f
 926 0065 69000000 		.4byte	0x69
 927 0069 03       		.uleb128 0x3
 928 006a 04       		.byte	0x4
 929 006b 05       		.byte	0x5
 930 006c 77000000 		.4byte	.LASF7
 931 0070 04       		.uleb128 0x4
 932 0071 98020000 		.4byte	.LASF8
 933 0075 03       		.byte	0x3
 934 0076 50       		.byte	0x50
 935 0077 7B000000 		.4byte	0x7b
 936 007b 03       		.uleb128 0x3
 937 007c 04       		.byte	0x4
 938 007d 07       		.byte	0x7
 939 007e 02010000 		.4byte	.LASF9
 940 0082 03       		.uleb128 0x3
 941 0083 08       		.byte	0x8
 942 0084 05       		.byte	0x5
 943 0085 4D000000 		.4byte	.LASF10
 944 0089 04       		.uleb128 0x4
 945 008a 0D000000 		.4byte	.LASF11
 946 008e 03       		.byte	0x3
 947 008f 78       		.byte	0x78
 948 0090 94000000 		.4byte	0x94
 949 0094 03       		.uleb128 0x3
 950 0095 08       		.byte	0x8
 951 0096 07       		.byte	0x7
 952 0097 16000000 		.4byte	.LASF12
ARM GAS  C:\Users\z80\AppData\Local\Temp\ccU2g4X7.s 			page 18


 953 009b 04       		.uleb128 0x4
 954 009c 68010000 		.4byte	.LASF13
 955 00a0 04       		.byte	0x4
 956 00a1 2F       		.byte	0x2f
 957 00a2 3E000000 		.4byte	0x3e
 958 00a6 04       		.uleb128 0x4
 959 00a7 80000000 		.4byte	.LASF14
 960 00ab 04       		.byte	0x4
 961 00ac 30       		.byte	0x30
 962 00ad 3E000000 		.4byte	0x3e
 963 00b1 04       		.uleb128 0x4
 964 00b2 09020000 		.4byte	.LASF15
 965 00b6 04       		.byte	0x4
 966 00b7 31       		.byte	0x31
 967 00b8 3E000000 		.4byte	0x3e
 968 00bc 04       		.uleb128 0x4
 969 00bd 18020000 		.4byte	.LASF16
 970 00c1 04       		.byte	0x4
 971 00c2 32       		.byte	0x32
 972 00c3 70000000 		.4byte	0x70
 973 00c7 04       		.uleb128 0x4
 974 00c8 62010000 		.4byte	.LASF17
 975 00cc 04       		.byte	0x4
 976 00cd 33       		.byte	0x33
 977 00ce 5E000000 		.4byte	0x5e
 978 00d2 04       		.uleb128 0x4
 979 00d3 7C010000 		.4byte	.LASF18
 980 00d7 04       		.byte	0x4
 981 00d8 35       		.byte	0x35
 982 00d9 70000000 		.4byte	0x70
 983 00dd 04       		.uleb128 0x4
 984 00de DA020000 		.4byte	.LASF19
 985 00e2 04       		.byte	0x4
 986 00e3 36       		.byte	0x36
 987 00e4 70000000 		.4byte	0x70
 988 00e8 04       		.uleb128 0x4
 989 00e9 D5000000 		.4byte	.LASF20
 990 00ed 04       		.byte	0x4
 991 00ee 37       		.byte	0x37
 992 00ef 5E000000 		.4byte	0x5e
 993 00f3 04       		.uleb128 0x4
 994 00f4 78020000 		.4byte	.LASF21
 995 00f8 05       		.byte	0x5
 996 00f9 2A       		.byte	0x2a
 997 00fa FE000000 		.4byte	0xfe
 998 00fe 05       		.uleb128 0x5
 999 00ff 78020000 		.4byte	.LASF21
 1000 0103 4C       		.byte	0x4c
 1001 0104 06       		.byte	0x6
 1002 0105 5E       		.byte	0x5e
 1003 0106 23020000 		.4byte	0x223
 1004 010a 06       		.uleb128 0x6
 1005 010b 69020000 		.4byte	.LASF22
 1006 010f 06       		.byte	0x6
 1007 0110 5F       		.byte	0x5f
 1008 0111 48020000 		.4byte	0x248
 1009 0115 02       		.byte	0x2
ARM GAS  C:\Users\z80\AppData\Local\Temp\ccU2g4X7.s 			page 19


 1010 0116 23       		.byte	0x23
 1011 0117 00       		.uleb128 0x0
 1012 0118 06       		.uleb128 0x6
 1013 0119 11020000 		.4byte	.LASF23
 1014 011d 06       		.byte	0x6
 1015 011e 61       		.byte	0x61
 1016 011f 48020000 		.4byte	0x248
 1017 0123 02       		.byte	0x2
 1018 0124 23       		.byte	0x23
 1019 0125 04       		.uleb128 0x4
 1020 0126 06       		.uleb128 0x6
 1021 0127 36000000 		.4byte	.LASF24
 1022 012b 06       		.byte	0x6
 1023 012c 63       		.byte	0x63
 1024 012d BC000000 		.4byte	0xbc
 1025 0131 02       		.byte	0x2
 1026 0132 23       		.byte	0x23
 1027 0133 08       		.uleb128 0x8
 1028 0134 06       		.uleb128 0x6
 1029 0135 8F030000 		.4byte	.LASF25
 1030 0139 06       		.byte	0x6
 1031 013a 64       		.byte	0x64
 1032 013b 20030000 		.4byte	0x320
 1033 013f 02       		.byte	0x2
 1034 0140 23       		.byte	0x23
 1035 0141 0C       		.uleb128 0xc
 1036 0142 06       		.uleb128 0x6
 1037 0143 89000000 		.4byte	.LASF26
 1038 0147 06       		.byte	0x6
 1039 0148 66       		.byte	0x66
 1040 0149 48020000 		.4byte	0x248
 1041 014d 02       		.byte	0x2
 1042 014e 23       		.byte	0x23
 1043 014f 10       		.uleb128 0x10
 1044 0150 06       		.uleb128 0x6
 1045 0151 A9010000 		.4byte	.LASF27
 1046 0155 06       		.byte	0x6
 1047 0156 67       		.byte	0x67
 1048 0157 48020000 		.4byte	0x248
 1049 015b 02       		.byte	0x2
 1050 015c 23       		.byte	0x23
 1051 015d 14       		.uleb128 0x14
 1052 015e 06       		.uleb128 0x6
 1053 015f 59030000 		.4byte	.LASF28
 1054 0163 06       		.byte	0x6
 1055 0164 6E       		.byte	0x6e
 1056 0165 F3040000 		.4byte	0x4f3
 1057 0169 02       		.byte	0x2
 1058 016a 23       		.byte	0x23
 1059 016b 18       		.uleb128 0x18
 1060 016c 06       		.uleb128 0x6
 1061 016d DB000000 		.4byte	.LASF29
 1062 0171 06       		.byte	0x6
 1063 0172 74       		.byte	0x74
 1064 0173 05050000 		.4byte	0x505
 1065 0177 02       		.byte	0x2
 1066 0178 23       		.byte	0x23
ARM GAS  C:\Users\z80\AppData\Local\Temp\ccU2g4X7.s 			page 20


 1067 0179 1C       		.uleb128 0x1c
 1068 017a 06       		.uleb128 0x6
 1069 017b 53020000 		.4byte	.LASF30
 1070 017f 06       		.byte	0x6
 1071 0180 79       		.byte	0x79
 1072 0181 A6000000 		.4byte	0xa6
 1073 0185 02       		.byte	0x2
 1074 0186 23       		.byte	0x23
 1075 0187 20       		.uleb128 0x20
 1076 0188 06       		.uleb128 0x6
 1077 0189 70020000 		.4byte	.LASF31
 1078 018d 06       		.byte	0x6
 1079 018e 7D       		.byte	0x7d
 1080 018f 9B000000 		.4byte	0x9b
 1081 0193 02       		.byte	0x2
 1082 0194 23       		.byte	0x23
 1083 0195 21       		.uleb128 0x21
 1084 0196 06       		.uleb128 0x6
 1085 0197 27030000 		.4byte	.LASF32
 1086 019b 06       		.byte	0x6
 1087 019c 82       		.byte	0x82
 1088 019d B1000000 		.4byte	0xb1
 1089 01a1 02       		.byte	0x2
 1090 01a2 23       		.byte	0x23
 1091 01a3 22       		.uleb128 0x22
 1092 01a4 06       		.uleb128 0x6
 1093 01a5 F8020000 		.4byte	.LASF33
 1094 01a9 06       		.byte	0x6
 1095 01aa 89       		.byte	0x89
 1096 01ab C7030000 		.4byte	0x3c7
 1097 01af 02       		.byte	0x2
 1098 01b0 23       		.byte	0x23
 1099 01b1 24       		.uleb128 0x24
 1100 01b2 07       		.uleb128 0x7
 1101 01b3 705F7500 		.ascii	"p_u\000"
 1102 01b7 06       		.byte	0x6
 1103 01b8 AE       		.byte	0xae
 1104 01b9 BE040000 		.4byte	0x4be
 1105 01bd 02       		.byte	0x2
 1106 01be 23       		.byte	0x23
 1107 01bf 28       		.uleb128 0x28
 1108 01c0 06       		.uleb128 0x6
 1109 01c1 95030000 		.4byte	.LASF34
 1110 01c5 06       		.byte	0x6
 1111 01c6 B3       		.byte	0xb3
 1112 01c7 70020000 		.4byte	0x270
 1113 01cb 02       		.byte	0x2
 1114 01cc 23       		.byte	0x23
 1115 01cd 2C       		.uleb128 0x2c
 1116 01ce 06       		.uleb128 0x6
 1117 01cf 06030000 		.4byte	.LASF35
 1118 01d3 06       		.byte	0x6
 1119 01d4 B9       		.byte	0xb9
 1120 01d5 4E020000 		.4byte	0x24e
 1121 01d9 02       		.byte	0x2
 1122 01da 23       		.byte	0x23
 1123 01db 30       		.uleb128 0x30
ARM GAS  C:\Users\z80\AppData\Local\Temp\ccU2g4X7.s 			page 21


 1124 01dc 06       		.uleb128 0x6
 1125 01dd 00000000 		.4byte	.LASF36
 1126 01e1 06       		.byte	0x6
 1127 01e2 BD       		.byte	0xbd
 1128 01e3 C7000000 		.4byte	0xc7
 1129 01e7 02       		.byte	0x2
 1130 01e8 23       		.byte	0x23
 1131 01e9 38       		.uleb128 0x38
 1132 01ea 06       		.uleb128 0x6
 1133 01eb 8D020000 		.4byte	.LASF37
 1134 01ef 06       		.byte	0x6
 1135 01f0 C3       		.byte	0xc3
 1136 01f1 D2000000 		.4byte	0xd2
 1137 01f5 02       		.byte	0x2
 1138 01f6 23       		.byte	0x23
 1139 01f7 3C       		.uleb128 0x3c
 1140 01f8 06       		.uleb128 0x6
 1141 01f9 3F020000 		.4byte	.LASF38
 1142 01fd 06       		.byte	0x6
 1143 01fe CA       		.byte	0xca
 1144 01ff 0B050000 		.4byte	0x50b
 1145 0203 02       		.byte	0x2
 1146 0204 23       		.byte	0x23
 1147 0205 40       		.uleb128 0x40
 1148 0206 06       		.uleb128 0x6
 1149 0207 E4020000 		.4byte	.LASF39
 1150 020b 06       		.byte	0x6
 1151 020c CE       		.byte	0xce
 1152 020d BC000000 		.4byte	0xbc
 1153 0211 02       		.byte	0x2
 1154 0212 23       		.byte	0x23
 1155 0213 44       		.uleb128 0x44
 1156 0214 06       		.uleb128 0x6
 1157 0215 67000000 		.4byte	.LASF40
 1158 0219 06       		.byte	0x6
 1159 021a D4       		.byte	0xd4
 1160 021b 86020000 		.4byte	0x286
 1161 021f 02       		.byte	0x2
 1162 0220 23       		.byte	0x23
 1163 0221 48       		.uleb128 0x48
 1164 0222 00       		.byte	0x0
 1165 0223 08       		.uleb128 0x8
 1166 0224 08       		.byte	0x8
 1167 0225 05       		.byte	0x5
 1168 0226 61       		.byte	0x61
 1169 0227 48020000 		.4byte	0x248
 1170 022b 06       		.uleb128 0x6
 1171 022c 69020000 		.4byte	.LASF22
 1172 0230 05       		.byte	0x5
 1173 0231 62       		.byte	0x62
 1174 0232 48020000 		.4byte	0x248
 1175 0236 02       		.byte	0x2
 1176 0237 23       		.byte	0x23
 1177 0238 00       		.uleb128 0x0
 1178 0239 06       		.uleb128 0x6
 1179 023a 11020000 		.4byte	.LASF23
 1180 023e 05       		.byte	0x5
ARM GAS  C:\Users\z80\AppData\Local\Temp\ccU2g4X7.s 			page 22


 1181 023f 64       		.byte	0x64
 1182 0240 48020000 		.4byte	0x248
 1183 0244 02       		.byte	0x2
 1184 0245 23       		.byte	0x23
 1185 0246 04       		.uleb128 0x4
 1186 0247 00       		.byte	0x0
 1187 0248 09       		.uleb128 0x9
 1188 0249 04       		.byte	0x4
 1189 024a F3000000 		.4byte	0xf3
 1190 024e 04       		.uleb128 0x4
 1191 024f B7010000 		.4byte	.LASF41
 1192 0253 05       		.byte	0x5
 1193 0254 66       		.byte	0x66
 1194 0255 23020000 		.4byte	0x223
 1195 0259 08       		.uleb128 0x8
 1196 025a 04       		.byte	0x4
 1197 025b 05       		.byte	0x5
 1198 025c 6B       		.byte	0x6b
 1199 025d 70020000 		.4byte	0x270
 1200 0261 06       		.uleb128 0x6
 1201 0262 69020000 		.4byte	.LASF22
 1202 0266 05       		.byte	0x5
 1203 0267 6D       		.byte	0x6d
 1204 0268 48020000 		.4byte	0x248
 1205 026c 02       		.byte	0x2
 1206 026d 23       		.byte	0x23
 1207 026e 00       		.uleb128 0x0
 1208 026f 00       		.byte	0x0
 1209 0270 04       		.uleb128 0x4
 1210 0271 70010000 		.4byte	.LASF42
 1211 0275 05       		.byte	0x5
 1212 0276 70       		.byte	0x70
 1213 0277 59020000 		.4byte	0x259
 1214 027b 04       		.uleb128 0x4
 1215 027c B2000000 		.4byte	.LASF43
 1216 0280 07       		.byte	0x7
 1217 0281 D7       		.byte	0xd7
 1218 0282 86020000 		.4byte	0x286
 1219 0286 0A       		.uleb128 0xa
 1220 0287 04       		.byte	0x4
 1221 0288 04       		.uleb128 0x4
 1222 0289 8E010000 		.4byte	.LASF44
 1223 028d 07       		.byte	0x7
 1224 028e DD       		.byte	0xdd
 1225 028f 89000000 		.4byte	0x89
 1226 0293 05       		.uleb128 0x5
 1227 0294 FF020000 		.4byte	.LASF45
 1228 0298 24       		.byte	0x24
 1229 0299 07       		.byte	0x7
 1230 029a FE       		.byte	0xfe
 1231 029b 20030000 		.4byte	0x320
 1232 029f 0B       		.uleb128 0xb
 1233 02a0 723400   		.ascii	"r4\000"
 1234 02a3 07       		.byte	0x7
 1235 02a4 1101     		.2byte	0x111
 1236 02a6 7B020000 		.4byte	0x27b
 1237 02aa 02       		.byte	0x2
ARM GAS  C:\Users\z80\AppData\Local\Temp\ccU2g4X7.s 			page 23


 1238 02ab 23       		.byte	0x23
 1239 02ac 00       		.uleb128 0x0
 1240 02ad 0B       		.uleb128 0xb
 1241 02ae 723500   		.ascii	"r5\000"
 1242 02b1 07       		.byte	0x7
 1243 02b2 1201     		.2byte	0x112
 1244 02b4 7B020000 		.4byte	0x27b
 1245 02b8 02       		.byte	0x2
 1246 02b9 23       		.byte	0x23
 1247 02ba 04       		.uleb128 0x4
 1248 02bb 0B       		.uleb128 0xb
 1249 02bc 723600   		.ascii	"r6\000"
 1250 02bf 07       		.byte	0x7
 1251 02c0 1301     		.2byte	0x113
 1252 02c2 7B020000 		.4byte	0x27b
 1253 02c6 02       		.byte	0x2
 1254 02c7 23       		.byte	0x23
 1255 02c8 08       		.uleb128 0x8
 1256 02c9 0B       		.uleb128 0xb
 1257 02ca 723700   		.ascii	"r7\000"
 1258 02cd 07       		.byte	0x7
 1259 02ce 1401     		.2byte	0x114
 1260 02d0 7B020000 		.4byte	0x27b
 1261 02d4 02       		.byte	0x2
 1262 02d5 23       		.byte	0x23
 1263 02d6 0C       		.uleb128 0xc
 1264 02d7 0B       		.uleb128 0xb
 1265 02d8 723800   		.ascii	"r8\000"
 1266 02db 07       		.byte	0x7
 1267 02dc 1501     		.2byte	0x115
 1268 02de 7B020000 		.4byte	0x27b
 1269 02e2 02       		.byte	0x2
 1270 02e3 23       		.byte	0x23
 1271 02e4 10       		.uleb128 0x10
 1272 02e5 0B       		.uleb128 0xb
 1273 02e6 723900   		.ascii	"r9\000"
 1274 02e9 07       		.byte	0x7
 1275 02ea 1601     		.2byte	0x116
 1276 02ec 7B020000 		.4byte	0x27b
 1277 02f0 02       		.byte	0x2
 1278 02f1 23       		.byte	0x23
 1279 02f2 14       		.uleb128 0x14
 1280 02f3 0B       		.uleb128 0xb
 1281 02f4 72313000 		.ascii	"r10\000"
 1282 02f8 07       		.byte	0x7
 1283 02f9 1701     		.2byte	0x117
 1284 02fb 7B020000 		.4byte	0x27b
 1285 02ff 02       		.byte	0x2
 1286 0300 23       		.byte	0x23
 1287 0301 18       		.uleb128 0x18
 1288 0302 0B       		.uleb128 0xb
 1289 0303 72313100 		.ascii	"r11\000"
 1290 0307 07       		.byte	0x7
 1291 0308 1801     		.2byte	0x118
 1292 030a 7B020000 		.4byte	0x27b
 1293 030e 02       		.byte	0x2
 1294 030f 23       		.byte	0x23
ARM GAS  C:\Users\z80\AppData\Local\Temp\ccU2g4X7.s 			page 24


 1295 0310 1C       		.uleb128 0x1c
 1296 0311 0B       		.uleb128 0xb
 1297 0312 6C7200   		.ascii	"lr\000"
 1298 0315 07       		.byte	0x7
 1299 0316 1901     		.2byte	0x119
 1300 0318 7B020000 		.4byte	0x27b
 1301 031c 02       		.byte	0x2
 1302 031d 23       		.byte	0x23
 1303 031e 20       		.uleb128 0x20
 1304 031f 00       		.byte	0x0
 1305 0320 0C       		.uleb128 0xc
 1306 0321 60030000 		.4byte	.LASF46
 1307 0325 04       		.byte	0x4
 1308 0326 07       		.byte	0x7
 1309 0327 2301     		.2byte	0x123
 1310 0329 3D030000 		.4byte	0x33d
 1311 032d 0B       		.uleb128 0xb
 1312 032e 72313300 		.ascii	"r13\000"
 1313 0332 07       		.byte	0x7
 1314 0333 2401     		.2byte	0x124
 1315 0335 3D030000 		.4byte	0x33d
 1316 0339 02       		.byte	0x2
 1317 033a 23       		.byte	0x23
 1318 033b 00       		.uleb128 0x0
 1319 033c 00       		.byte	0x0
 1320 033d 09       		.uleb128 0x9
 1321 033e 04       		.byte	0x4
 1322 033f 93020000 		.4byte	0x293
 1323 0343 0D       		.uleb128 0xd
 1324 0344 04       		.byte	0x4
 1325 0345 07       		.byte	0x7
 1326 0346 04       		.uleb128 0x4
 1327 0347 EF020000 		.4byte	.LASF47
 1328 034b 08       		.byte	0x8
 1329 034c 53       		.byte	0x53
 1330 034d 51030000 		.4byte	0x351
 1331 0351 09       		.uleb128 0x9
 1332 0352 04       		.byte	0x4
 1333 0353 57030000 		.4byte	0x357
 1334 0357 0E       		.uleb128 0xe
 1335 0358 01       		.byte	0x1
 1336 0359 63030000 		.4byte	0x363
 1337 035d 0F       		.uleb128 0xf
 1338 035e 86020000 		.4byte	0x286
 1339 0362 00       		.byte	0x0
 1340 0363 04       		.uleb128 0x4
 1341 0364 A9020000 		.4byte	.LASF48
 1342 0368 08       		.byte	0x8
 1343 0369 58       		.byte	0x58
 1344 036a 6E030000 		.4byte	0x36e
 1345 036e 05       		.uleb128 0x5
 1346 036f A9020000 		.4byte	.LASF48
 1347 0373 14       		.byte	0x14
 1348 0374 08       		.byte	0x8
 1349 0375 5F       		.byte	0x5f
 1350 0376 C1030000 		.4byte	0x3c1
 1351 037a 06       		.uleb128 0x6
ARM GAS  C:\Users\z80\AppData\Local\Temp\ccU2g4X7.s 			page 25


 1352 037b FA000000 		.4byte	.LASF49
 1353 037f 08       		.byte	0x8
 1354 0380 60       		.byte	0x60
 1355 0381 C1030000 		.4byte	0x3c1
 1356 0385 02       		.byte	0x2
 1357 0386 23       		.byte	0x23
 1358 0387 00       		.uleb128 0x0
 1359 0388 06       		.uleb128 0x6
 1360 0389 BB000000 		.4byte	.LASF50
 1361 038d 08       		.byte	0x8
 1362 038e 62       		.byte	0x62
 1363 038f C1030000 		.4byte	0x3c1
 1364 0393 02       		.byte	0x2
 1365 0394 23       		.byte	0x23
 1366 0395 04       		.uleb128 0x4
 1367 0396 06       		.uleb128 0x6
 1368 0397 99010000 		.4byte	.LASF51
 1369 039b 08       		.byte	0x8
 1370 039c 64       		.byte	0x64
 1371 039d DD000000 		.4byte	0xdd
 1372 03a1 02       		.byte	0x2
 1373 03a2 23       		.byte	0x23
 1374 03a3 08       		.uleb128 0x8
 1375 03a4 06       		.uleb128 0x6
 1376 03a5 A1010000 		.4byte	.LASF52
 1377 03a9 08       		.byte	0x8
 1378 03aa 65       		.byte	0x65
 1379 03ab 46030000 		.4byte	0x346
 1380 03af 02       		.byte	0x2
 1381 03b0 23       		.byte	0x23
 1382 03b1 0C       		.uleb128 0xc
 1383 03b2 06       		.uleb128 0x6
 1384 03b3 16030000 		.4byte	.LASF53
 1385 03b7 08       		.byte	0x8
 1386 03b8 67       		.byte	0x67
 1387 03b9 86020000 		.4byte	0x286
 1388 03bd 02       		.byte	0x2
 1389 03be 23       		.byte	0x23
 1390 03bf 10       		.uleb128 0x10
 1391 03c0 00       		.byte	0x0
 1392 03c1 09       		.uleb128 0x9
 1393 03c2 04       		.byte	0x4
 1394 03c3 63030000 		.4byte	0x363
 1395 03c7 10       		.uleb128 0x10
 1396 03c8 DD000000 		.4byte	0xdd
 1397 03cc 08       		.uleb128 0x8
 1398 03cd 20       		.byte	0x20
 1399 03ce 09       		.byte	0x9
 1400 03cf 5E       		.byte	0x5e
 1401 03d0 37040000 		.4byte	0x437
 1402 03d4 06       		.uleb128 0x6
 1403 03d5 A1020000 		.4byte	.LASF54
 1404 03d9 09       		.byte	0x9
 1405 03da 5F       		.byte	0x5f
 1406 03db 4E020000 		.4byte	0x24e
 1407 03df 02       		.byte	0x2
 1408 03e0 23       		.byte	0x23
ARM GAS  C:\Users\z80\AppData\Local\Temp\ccU2g4X7.s 			page 26


 1409 03e1 00       		.uleb128 0x0
 1410 03e2 06       		.uleb128 0x6
 1411 03e3 5B020000 		.4byte	.LASF55
 1412 03e7 09       		.byte	0x9
 1413 03e8 60       		.byte	0x60
 1414 03e9 BC000000 		.4byte	0xbc
 1415 03ed 02       		.byte	0x2
 1416 03ee 23       		.byte	0x23
 1417 03ef 08       		.uleb128 0x8
 1418 03f0 06       		.uleb128 0x6
 1419 03f1 B1010000 		.4byte	.LASF56
 1420 03f5 09       		.byte	0x9
 1421 03f6 62       		.byte	0x62
 1422 03f7 20030000 		.4byte	0x320
 1423 03fb 02       		.byte	0x2
 1424 03fc 23       		.byte	0x23
 1425 03fd 0C       		.uleb128 0xc
 1426 03fe 06       		.uleb128 0x6
 1427 03ff AA000000 		.4byte	.LASF57
 1428 0403 09       		.byte	0x9
 1429 0404 65       		.byte	0x65
 1430 0405 48020000 		.4byte	0x248
 1431 0409 02       		.byte	0x2
 1432 040a 23       		.byte	0x23
 1433 040b 10       		.uleb128 0x10
 1434 040c 06       		.uleb128 0x6
 1435 040d 01020000 		.4byte	.LASF58
 1436 0411 09       		.byte	0x9
 1437 0412 66       		.byte	0x66
 1438 0413 48020000 		.4byte	0x248
 1439 0417 02       		.byte	0x2
 1440 0418 23       		.byte	0x23
 1441 0419 14       		.uleb128 0x14
 1442 041a 06       		.uleb128 0x6
 1443 041b 7D030000 		.4byte	.LASF59
 1444 041f 09       		.byte	0x9
 1445 0420 6A       		.byte	0x6a
 1446 0421 E8000000 		.4byte	0xe8
 1447 0425 02       		.byte	0x2
 1448 0426 23       		.byte	0x23
 1449 0427 18       		.uleb128 0x18
 1450 0428 06       		.uleb128 0x6
 1451 0429 F7010000 		.4byte	.LASF60
 1452 042d 09       		.byte	0x9
 1453 042e 6C       		.byte	0x6c
 1454 042f 48020000 		.4byte	0x248
 1455 0433 02       		.byte	0x2
 1456 0434 23       		.byte	0x23
 1457 0435 1C       		.uleb128 0x1c
 1458 0436 00       		.byte	0x0
 1459 0437 04       		.uleb128 0x4
 1460 0438 2E030000 		.4byte	.LASF61
 1461 043c 09       		.byte	0x9
 1462 043d 6E       		.byte	0x6e
 1463 043e CC030000 		.4byte	0x3cc
 1464 0442 05       		.uleb128 0x5
 1465 0443 1D030000 		.4byte	.LASF62
ARM GAS  C:\Users\z80\AppData\Local\Temp\ccU2g4X7.s 			page 27


 1466 0447 0C       		.byte	0xc
 1467 0448 0A       		.byte	0xa
 1468 0449 2C       		.byte	0x2c
 1469 044a 6B040000 		.4byte	0x46b
 1470 044e 06       		.uleb128 0x6
 1471 044f 91000000 		.4byte	.LASF63
 1472 0453 0A       		.byte	0xa
 1473 0454 2D       		.byte	0x2d
 1474 0455 4E020000 		.4byte	0x24e
 1475 0459 02       		.byte	0x2
 1476 045a 23       		.byte	0x23
 1477 045b 00       		.uleb128 0x0
 1478 045c 06       		.uleb128 0x6
 1479 045d 14010000 		.4byte	.LASF64
 1480 0461 0A       		.byte	0xa
 1481 0462 2F       		.byte	0x2f
 1482 0463 E8000000 		.4byte	0xe8
 1483 0467 02       		.byte	0x2
 1484 0468 23       		.byte	0x23
 1485 0469 08       		.uleb128 0x8
 1486 046a 00       		.byte	0x0
 1487 046b 04       		.uleb128 0x4
 1488 046c 1D030000 		.4byte	.LASF62
 1489 0470 0A       		.byte	0xa
 1490 0471 30       		.byte	0x30
 1491 0472 42040000 		.4byte	0x442
 1492 0476 05       		.uleb128 0x5
 1493 0477 88010000 		.4byte	.LASF65
 1494 047b 10       		.byte	0x10
 1495 047c 0B       		.byte	0xb
 1496 047d 2C       		.byte	0x2c
 1497 047e AD040000 		.4byte	0x4ad
 1498 0482 06       		.uleb128 0x6
 1499 0483 6F000000 		.4byte	.LASF66
 1500 0487 0B       		.byte	0xb
 1501 0488 2D       		.byte	0x2d
 1502 0489 4E020000 		.4byte	0x24e
 1503 048d 02       		.byte	0x2
 1504 048e 23       		.byte	0x23
 1505 048f 00       		.uleb128 0x0
 1506 0490 06       		.uleb128 0x6
 1507 0491 87030000 		.4byte	.LASF67
 1508 0495 0B       		.byte	0xb
 1509 0496 2F       		.byte	0x2f
 1510 0497 48020000 		.4byte	0x248
 1511 049b 02       		.byte	0x2
 1512 049c 23       		.byte	0x23
 1513 049d 08       		.uleb128 0x8
 1514 049e 06       		.uleb128 0x6
 1515 049f D3020000 		.4byte	.LASF68
 1516 04a3 0B       		.byte	0xb
 1517 04a4 31       		.byte	0x31
 1518 04a5 AD040000 		.4byte	0x4ad
 1519 04a9 02       		.byte	0x2
 1520 04aa 23       		.byte	0x23
 1521 04ab 0C       		.uleb128 0xc
 1522 04ac 00       		.byte	0x0
ARM GAS  C:\Users\z80\AppData\Local\Temp\ccU2g4X7.s 			page 28


 1523 04ad 09       		.uleb128 0x9
 1524 04ae 04       		.byte	0x4
 1525 04af 76040000 		.4byte	0x476
 1526 04b3 04       		.uleb128 0x4
 1527 04b4 88010000 		.4byte	.LASF65
 1528 04b8 0B       		.byte	0xb
 1529 04b9 33       		.byte	0x33
 1530 04ba 76040000 		.4byte	0x476
 1531 04be 11       		.uleb128 0x11
 1532 04bf 04       		.byte	0x4
 1533 04c0 06       		.byte	0x6
 1534 04c1 90       		.byte	0x90
 1535 04c2 F3040000 		.4byte	0x4f3
 1536 04c6 12       		.uleb128 0x12
 1537 04c7 06000000 		.4byte	.LASF69
 1538 04cb 06       		.byte	0x6
 1539 04cc 97       		.byte	0x97
 1540 04cd C7000000 		.4byte	0xc7
 1541 04d1 12       		.uleb128 0x12
 1542 04d2 2D000000 		.4byte	.LASF70
 1543 04d6 06       		.byte	0x6
 1544 04d7 9E       		.byte	0x9e
 1545 04d8 C7000000 		.4byte	0xc7
 1546 04dc 12       		.uleb128 0x12
 1547 04dd 52030000 		.4byte	.LASF71
 1548 04e1 06       		.byte	0x6
 1549 04e2 A5       		.byte	0xa5
 1550 04e3 86020000 		.4byte	0x286
 1551 04e7 12       		.uleb128 0x12
 1552 04e8 62020000 		.4byte	.LASF72
 1553 04ec 06       		.byte	0x6
 1554 04ed AC       		.byte	0xac
 1555 04ee D2000000 		.4byte	0xd2
 1556 04f2 00       		.byte	0x0
 1557 04f3 09       		.uleb128 0x9
 1558 04f4 04       		.byte	0x4
 1559 04f5 F9040000 		.4byte	0x4f9
 1560 04f9 13       		.uleb128 0x13
 1561 04fa FE040000 		.4byte	0x4fe
 1562 04fe 03       		.uleb128 0x3
 1563 04ff 01       		.byte	0x1
 1564 0500 08       		.byte	0x8
 1565 0501 B6020000 		.4byte	.LASF73
 1566 0505 09       		.uleb128 0x9
 1567 0506 04       		.byte	0x4
 1568 0507 88020000 		.4byte	0x288
 1569 050b 09       		.uleb128 0x9
 1570 050c 04       		.byte	0x4
 1571 050d B3040000 		.4byte	0x4b3
 1572 0511 14       		.uleb128 0x14
 1573 0512 EF010000 		.4byte	.LASF74
 1574 0516 02       		.byte	0x2
 1575 0517 49       		.byte	0x49
 1576 0518 01       		.byte	0x1
 1577 0519 48020000 		.4byte	0x248
 1578 051d 03       		.byte	0x3
 1579 051e 2D050000 		.4byte	0x52d
ARM GAS  C:\Users\z80\AppData\Local\Temp\ccU2g4X7.s 			page 29


 1580 0522 15       		.uleb128 0x15
 1581 0523 747000   		.ascii	"tp\000"
 1582 0526 02       		.byte	0x2
 1583 0527 49       		.byte	0x49
 1584 0528 48020000 		.4byte	0x248
 1585 052c 00       		.byte	0x0
 1586 052d 14       		.uleb128 0x14
 1587 052e BB020000 		.4byte	.LASF75
 1588 0532 02       		.byte	0x2
 1589 0533 3B       		.byte	0x3b
 1590 0534 01       		.byte	0x1
 1591 0535 48020000 		.4byte	0x248
 1592 0539 03       		.byte	0x3
 1593 053a 54050000 		.4byte	0x554
 1594 053e 15       		.uleb128 0x15
 1595 053f 74717000 		.ascii	"tqp\000"
 1596 0543 02       		.byte	0x2
 1597 0544 3B       		.byte	0x3b
 1598 0545 54050000 		.4byte	0x554
 1599 0549 16       		.uleb128 0x16
 1600 054a 747000   		.ascii	"tp\000"
 1601 054d 02       		.byte	0x2
 1602 054e 3C       		.byte	0x3c
 1603 054f 48020000 		.4byte	0x248
 1604 0553 00       		.byte	0x0
 1605 0554 09       		.uleb128 0x9
 1606 0555 04       		.byte	0x4
 1607 0556 4E020000 		.4byte	0x24e
 1608 055a 17       		.uleb128 0x17
 1609 055b 01       		.byte	0x1
 1610 055c 3D000000 		.4byte	.LASF83
 1611 0560 01       		.byte	0x1
 1612 0561 37       		.byte	0x37
 1613 0562 01       		.byte	0x1
 1614 0563 00000000 		.4byte	.LFB7
 1615 0567 1A000000 		.4byte	.LFE7
 1616 056b 02       		.byte	0x2
 1617 056c 7D       		.byte	0x7d
 1618 056d 00       		.sleb128 0
 1619 056e 18       		.uleb128 0x18
 1620 056f 01       		.byte	0x1
 1621 0570 C7020000 		.4byte	.LASF77
 1622 0574 01       		.byte	0x1
 1623 0575 52       		.byte	0x52
 1624 0576 01       		.byte	0x1
 1625 0577 48020000 		.4byte	0x248
 1626 057b 00000000 		.4byte	.LFB8
 1627 057f 4C000000 		.4byte	.LFE8
 1628 0583 00000000 		.4byte	.LLST0
 1629 0587 A8050000 		.4byte	0x5a8
 1630 058b 19       		.uleb128 0x19
 1631 058c 747000   		.ascii	"tp\000"
 1632 058f 01       		.byte	0x1
 1633 0590 52       		.byte	0x52
 1634 0591 48020000 		.4byte	0x248
 1635 0595 20000000 		.4byte	.LLST1
 1636 0599 1A       		.uleb128 0x1a
ARM GAS  C:\Users\z80\AppData\Local\Temp\ccU2g4X7.s 			page 30


 1637 059a 637000   		.ascii	"cp\000"
 1638 059d 01       		.byte	0x1
 1639 059e 53       		.byte	0x53
 1640 059f 48020000 		.4byte	0x248
 1641 05a3 3E000000 		.4byte	.LLST2
 1642 05a7 00       		.byte	0x0
 1643 05a8 1B       		.uleb128 0x1b
 1644 05a9 F3000000 		.4byte	.LASF89
 1645 05ad 01       		.byte	0x1
 1646 05ae 85       		.byte	0x85
 1647 05af 01       		.byte	0x1
 1648 05b0 00000000 		.4byte	.LFB10
 1649 05b4 3A000000 		.4byte	.LFE10
 1650 05b8 5C000000 		.4byte	.LLST3
 1651 05bc F5050000 		.4byte	0x5f5
 1652 05c0 19       		.uleb128 0x19
 1653 05c1 7000     		.ascii	"p\000"
 1654 05c3 01       		.byte	0x1
 1655 05c4 85       		.byte	0x85
 1656 05c5 86020000 		.4byte	0x286
 1657 05c9 7C000000 		.4byte	.LLST4
 1658 05cd 1A       		.uleb128 0x1a
 1659 05ce 747000   		.ascii	"tp\000"
 1660 05d1 01       		.byte	0x1
 1661 05d2 86       		.byte	0x86
 1662 05d3 48020000 		.4byte	0x248
 1663 05d7 8F000000 		.4byte	.LLST5
 1664 05db 1C       		.uleb128 0x1c
 1665 05dc 11050000 		.4byte	0x511
 1666 05e0 24000000 		.4byte	.LBB10
 1667 05e4 2E000000 		.4byte	.LBE10
 1668 05e8 01       		.byte	0x1
 1669 05e9 9B       		.byte	0x9b
 1670 05ea 1D       		.uleb128 0x1d
 1671 05eb 22050000 		.4byte	0x522
 1672 05ef A2000000 		.4byte	.LLST6
 1673 05f3 00       		.byte	0x0
 1674 05f4 00       		.byte	0x0
 1675 05f5 1E       		.uleb128 0x1e
 1676 05f6 01       		.byte	0x1
 1677 05f7 7F020000 		.4byte	.LASF80
 1678 05fb 01       		.byte	0x1
 1679 05fc 72       		.byte	0x72
 1680 05fd 01       		.byte	0x1
 1681 05fe 00000000 		.4byte	.LFB9
 1682 0602 4C000000 		.4byte	.LFE9
 1683 0606 B5000000 		.4byte	.LLST7
 1684 060a 73060000 		.4byte	0x673
 1685 060e 1F       		.uleb128 0x1f
 1686 060f 36020000 		.4byte	.LASF76
 1687 0613 01       		.byte	0x1
 1688 0614 72       		.byte	0x72
 1689 0615 A6000000 		.4byte	0xa6
 1690 0619 D5000000 		.4byte	.LLST8
 1691 061d 1A       		.uleb128 0x1a
 1692 061e 6F747000 		.ascii	"otp\000"
 1693 0622 01       		.byte	0x1
ARM GAS  C:\Users\z80\AppData\Local\Temp\ccU2g4X7.s 			page 31


 1694 0623 73       		.byte	0x73
 1695 0624 48020000 		.4byte	0x248
 1696 0628 E8000000 		.4byte	.LLST9
 1697 062c 20       		.uleb128 0x20
 1698 062d 2D050000 		.4byte	0x52d
 1699 0631 12000000 		.4byte	.LBB12
 1700 0635 00000000 		.4byte	.Ldebug_ranges0+0x0
 1701 0639 01       		.byte	0x1
 1702 063a 7B       		.byte	0x7b
 1703 063b 5B060000 		.4byte	0x65b
 1704 063f 21       		.uleb128 0x21
 1705 0640 3E050000 		.4byte	0x53e
 1706 0644 06       		.byte	0x6
 1707 0645 03       		.byte	0x3
 1708 0646 00000000 		.4byte	rlist
 1709 064a 9F       		.byte	0x9f
 1710 064b 22       		.uleb128 0x22
 1711 064c 28000000 		.4byte	.Ldebug_ranges0+0x28
 1712 0650 23       		.uleb128 0x23
 1713 0651 49050000 		.4byte	0x549
 1714 0655 0A010000 		.4byte	.LLST10
 1715 0659 00       		.byte	0x0
 1716 065a 00       		.byte	0x0
 1717 065b 24       		.uleb128 0x24
 1718 065c 2A000000 		.4byte	.LBB20
 1719 0660 42000000 		.4byte	.LBE20
 1720 0664 25       		.uleb128 0x25
 1721 0665 72313300 		.ascii	"r13\000"
 1722 0669 01       		.byte	0x1
 1723 066a 7D       		.byte	0x7d
 1724 066b 3D030000 		.4byte	0x33d
 1725 066f 01       		.byte	0x1
 1726 0670 5D       		.byte	0x5d
 1727 0671 00       		.byte	0x0
 1728 0672 00       		.byte	0x0
 1729 0673 18       		.uleb128 0x18
 1730 0674 01       		.byte	0x1
 1731 0675 68030000 		.4byte	.LASF78
 1732 0679 01       		.byte	0x1
 1733 067a B7       		.byte	0xb7
 1734 067b 01       		.byte	0x1
 1735 067c C7000000 		.4byte	0xc7
 1736 0680 00000000 		.4byte	.LFB11
 1737 0684 4C000000 		.4byte	.LFE11
 1738 0688 21010000 		.4byte	.LLST11
 1739 068c C6060000 		.4byte	0x6c6
 1740 0690 1F       		.uleb128 0x1f
 1741 0691 36020000 		.4byte	.LASF76
 1742 0695 01       		.byte	0x1
 1743 0696 B7       		.byte	0xb7
 1744 0697 A6000000 		.4byte	0xa6
 1745 069b 4D010000 		.4byte	.LLST12
 1746 069f 1F       		.uleb128 0x1f
 1747 06a0 11030000 		.4byte	.LASF79
 1748 06a4 01       		.byte	0x1
 1749 06a5 B7       		.byte	0xb7
 1750 06a6 DD000000 		.4byte	0xdd
ARM GAS  C:\Users\z80\AppData\Local\Temp\ccU2g4X7.s 			page 32


 1751 06aa 60010000 		.4byte	.LLST13
 1752 06ae 24       		.uleb128 0x24
 1753 06af 12000000 		.4byte	.LBB21
 1754 06b3 32000000 		.4byte	.LBE21
 1755 06b7 25       		.uleb128 0x25
 1756 06b8 767400   		.ascii	"vt\000"
 1757 06bb 01       		.byte	0x1
 1758 06bc BC       		.byte	0xbc
 1759 06bd 63030000 		.4byte	0x363
 1760 06c1 02       		.byte	0x2
 1761 06c2 91       		.byte	0x91
 1762 06c3 54       		.sleb128 -44
 1763 06c4 00       		.byte	0x0
 1764 06c5 00       		.byte	0x0
 1765 06c6 1E       		.uleb128 0x1e
 1766 06c7 01       		.byte	0x1
 1767 06c8 55010000 		.4byte	.LASF81
 1768 06cc 01       		.byte	0x1
 1769 06cd DB       		.byte	0xdb
 1770 06ce 01       		.byte	0x1
 1771 06cf 00000000 		.4byte	.LFB12
 1772 06d3 5C000000 		.4byte	.LFE12
 1773 06d7 7E010000 		.4byte	.LLST14
 1774 06db 26070000 		.4byte	0x726
 1775 06df 19       		.uleb128 0x19
 1776 06e0 6E747000 		.ascii	"ntp\000"
 1777 06e4 01       		.byte	0x1
 1778 06e5 DB       		.byte	0xdb
 1779 06e6 48020000 		.4byte	0x248
 1780 06ea 9E010000 		.4byte	.LLST15
 1781 06ee 19       		.uleb128 0x19
 1782 06ef 6D736700 		.ascii	"msg\000"
 1783 06f3 01       		.byte	0x1
 1784 06f4 DB       		.byte	0xdb
 1785 06f5 C7000000 		.4byte	0xc7
 1786 06f9 BC010000 		.4byte	.LLST16
 1787 06fd 22       		.uleb128 0x22
 1788 06fe 50000000 		.4byte	.Ldebug_ranges0+0x50
 1789 0702 1A       		.uleb128 0x1a
 1790 0703 6F747000 		.ascii	"otp\000"
 1791 0707 01       		.byte	0x1
 1792 0708 E7       		.byte	0xe7
 1793 0709 48020000 		.4byte	0x248
 1794 070d E5010000 		.4byte	.LLST17
 1795 0711 22       		.uleb128 0x22
 1796 0712 68000000 		.4byte	.Ldebug_ranges0+0x68
 1797 0716 25       		.uleb128 0x25
 1798 0717 72313300 		.ascii	"r13\000"
 1799 071b 01       		.byte	0x1
 1800 071c ED       		.byte	0xed
 1801 071d 3D030000 		.4byte	0x33d
 1802 0721 01       		.byte	0x1
 1803 0722 5D       		.byte	0x5d
 1804 0723 00       		.byte	0x0
 1805 0724 00       		.byte	0x0
 1806 0725 00       		.byte	0x0
 1807 0726 26       		.uleb128 0x26
ARM GAS  C:\Users\z80\AppData\Local\Temp\ccU2g4X7.s 			page 33


 1808 0727 01       		.byte	0x1
 1809 0728 C3000000 		.4byte	.LASF82
 1810 072c 01       		.byte	0x1
 1811 072d 2A01     		.2byte	0x12a
 1812 072f 01       		.byte	0x1
 1813 0730 00000000 		.4byte	.LFB14
 1814 0734 48000000 		.4byte	.LFE14
 1815 0738 0E020000 		.4byte	.LLST18
 1816 073c 99070000 		.4byte	0x799
 1817 0740 27       		.uleb128 0x27
 1818 0741 6F747000 		.ascii	"otp\000"
 1819 0745 01       		.byte	0x1
 1820 0746 2B01     		.2byte	0x12b
 1821 0748 48020000 		.4byte	0x248
 1822 074c 2E020000 		.4byte	.LLST19
 1823 0750 28       		.uleb128 0x28
 1824 0751 2D050000 		.4byte	0x52d
 1825 0755 06000000 		.4byte	.LBB26
 1826 0759 80000000 		.4byte	.Ldebug_ranges0+0x80
 1827 075d 01       		.byte	0x1
 1828 075e 3201     		.2byte	0x132
 1829 0760 80070000 		.4byte	0x780
 1830 0764 21       		.uleb128 0x21
 1831 0765 3E050000 		.4byte	0x53e
 1832 0769 06       		.byte	0x6
 1833 076a 03       		.byte	0x3
 1834 076b 00000000 		.4byte	rlist
 1835 076f 9F       		.byte	0x9f
 1836 0770 22       		.uleb128 0x22
 1837 0771 A8000000 		.4byte	.Ldebug_ranges0+0xa8
 1838 0775 23       		.uleb128 0x23
 1839 0776 49050000 		.4byte	0x549
 1840 077a 50020000 		.4byte	.LLST20
 1841 077e 00       		.byte	0x0
 1842 077f 00       		.byte	0x0
 1843 0780 24       		.uleb128 0x24
 1844 0781 26000000 		.4byte	.LBB34
 1845 0785 3E000000 		.4byte	.LBE34
 1846 0789 29       		.uleb128 0x29
 1847 078a 72313300 		.ascii	"r13\000"
 1848 078e 01       		.byte	0x1
 1849 078f 3501     		.2byte	0x135
 1850 0791 3D030000 		.4byte	0x33d
 1851 0795 01       		.byte	0x1
 1852 0796 5D       		.byte	0x5d
 1853 0797 00       		.byte	0x0
 1854 0798 00       		.byte	0x0
 1855 0799 2A       		.uleb128 0x2a
 1856 079a 01       		.byte	0x1
 1857 079b 99000000 		.4byte	.LASF84
 1858 079f 01       		.byte	0x1
 1859 07a0 FA       		.byte	0xfa
 1860 07a1 01       		.byte	0x1
 1861 07a2 00000000 		.4byte	.LFB13
 1862 07a6 20000000 		.4byte	.LFE13
 1863 07aa 67020000 		.4byte	.LLST21
 1864 07ae 2B       		.uleb128 0x2b
ARM GAS  C:\Users\z80\AppData\Local\Temp\ccU2g4X7.s 			page 34


 1865 07af 38030000 		.4byte	.LASF85
 1866 07b3 09       		.byte	0x9
 1867 07b4 72       		.byte	0x72
 1868 07b5 37040000 		.4byte	0x437
 1869 07b9 01       		.byte	0x1
 1870 07ba 01       		.byte	0x1
 1871 07bb 2C       		.uleb128 0x2c
 1872 07bc 38030000 		.4byte	.LASF85
 1873 07c0 01       		.byte	0x1
 1874 07c1 2F       		.byte	0x2f
 1875 07c2 37040000 		.4byte	0x437
 1876 07c6 01       		.byte	0x1
 1877 07c7 05       		.byte	0x5
 1878 07c8 03       		.byte	0x3
 1879 07c9 00000000 		.4byte	rlist
 1880 07cd 00       		.byte	0x0
 1881              		.section	.debug_abbrev
 1882 0000 01       		.uleb128 0x1
 1883 0001 11       		.uleb128 0x11
 1884 0002 01       		.byte	0x1
 1885 0003 25       		.uleb128 0x25
 1886 0004 0E       		.uleb128 0xe
 1887 0005 13       		.uleb128 0x13
 1888 0006 0B       		.uleb128 0xb
 1889 0007 03       		.uleb128 0x3
 1890 0008 0E       		.uleb128 0xe
 1891 0009 1B       		.uleb128 0x1b
 1892 000a 0E       		.uleb128 0xe
 1893 000b 11       		.uleb128 0x11
 1894 000c 01       		.uleb128 0x1
 1895 000d 52       		.uleb128 0x52
 1896 000e 01       		.uleb128 0x1
 1897 000f 55       		.uleb128 0x55
 1898 0010 06       		.uleb128 0x6
 1899 0011 10       		.uleb128 0x10
 1900 0012 06       		.uleb128 0x6
 1901 0013 00       		.byte	0x0
 1902 0014 00       		.byte	0x0
 1903 0015 02       		.uleb128 0x2
 1904 0016 24       		.uleb128 0x24
 1905 0017 00       		.byte	0x0
 1906 0018 0B       		.uleb128 0xb
 1907 0019 0B       		.uleb128 0xb
 1908 001a 3E       		.uleb128 0x3e
 1909 001b 0B       		.uleb128 0xb
 1910 001c 03       		.uleb128 0x3
 1911 001d 08       		.uleb128 0x8
 1912 001e 00       		.byte	0x0
 1913 001f 00       		.byte	0x0
 1914 0020 03       		.uleb128 0x3
 1915 0021 24       		.uleb128 0x24
 1916 0022 00       		.byte	0x0
 1917 0023 0B       		.uleb128 0xb
 1918 0024 0B       		.uleb128 0xb
 1919 0025 3E       		.uleb128 0x3e
 1920 0026 0B       		.uleb128 0xb
 1921 0027 03       		.uleb128 0x3
ARM GAS  C:\Users\z80\AppData\Local\Temp\ccU2g4X7.s 			page 35


 1922 0028 0E       		.uleb128 0xe
 1923 0029 00       		.byte	0x0
 1924 002a 00       		.byte	0x0
 1925 002b 04       		.uleb128 0x4
 1926 002c 16       		.uleb128 0x16
 1927 002d 00       		.byte	0x0
 1928 002e 03       		.uleb128 0x3
 1929 002f 0E       		.uleb128 0xe
 1930 0030 3A       		.uleb128 0x3a
 1931 0031 0B       		.uleb128 0xb
 1932 0032 3B       		.uleb128 0x3b
 1933 0033 0B       		.uleb128 0xb
 1934 0034 49       		.uleb128 0x49
 1935 0035 13       		.uleb128 0x13
 1936 0036 00       		.byte	0x0
 1937 0037 00       		.byte	0x0
 1938 0038 05       		.uleb128 0x5
 1939 0039 13       		.uleb128 0x13
 1940 003a 01       		.byte	0x1
 1941 003b 03       		.uleb128 0x3
 1942 003c 0E       		.uleb128 0xe
 1943 003d 0B       		.uleb128 0xb
 1944 003e 0B       		.uleb128 0xb
 1945 003f 3A       		.uleb128 0x3a
 1946 0040 0B       		.uleb128 0xb
 1947 0041 3B       		.uleb128 0x3b
 1948 0042 0B       		.uleb128 0xb
 1949 0043 01       		.uleb128 0x1
 1950 0044 13       		.uleb128 0x13
 1951 0045 00       		.byte	0x0
 1952 0046 00       		.byte	0x0
 1953 0047 06       		.uleb128 0x6
 1954 0048 0D       		.uleb128 0xd
 1955 0049 00       		.byte	0x0
 1956 004a 03       		.uleb128 0x3
 1957 004b 0E       		.uleb128 0xe
 1958 004c 3A       		.uleb128 0x3a
 1959 004d 0B       		.uleb128 0xb
 1960 004e 3B       		.uleb128 0x3b
 1961 004f 0B       		.uleb128 0xb
 1962 0050 49       		.uleb128 0x49
 1963 0051 13       		.uleb128 0x13
 1964 0052 38       		.uleb128 0x38
 1965 0053 0A       		.uleb128 0xa
 1966 0054 00       		.byte	0x0
 1967 0055 00       		.byte	0x0
 1968 0056 07       		.uleb128 0x7
 1969 0057 0D       		.uleb128 0xd
 1970 0058 00       		.byte	0x0
 1971 0059 03       		.uleb128 0x3
 1972 005a 08       		.uleb128 0x8
 1973 005b 3A       		.uleb128 0x3a
 1974 005c 0B       		.uleb128 0xb
 1975 005d 3B       		.uleb128 0x3b
 1976 005e 0B       		.uleb128 0xb
 1977 005f 49       		.uleb128 0x49
 1978 0060 13       		.uleb128 0x13
ARM GAS  C:\Users\z80\AppData\Local\Temp\ccU2g4X7.s 			page 36


 1979 0061 38       		.uleb128 0x38
 1980 0062 0A       		.uleb128 0xa
 1981 0063 00       		.byte	0x0
 1982 0064 00       		.byte	0x0
 1983 0065 08       		.uleb128 0x8
 1984 0066 13       		.uleb128 0x13
 1985 0067 01       		.byte	0x1
 1986 0068 0B       		.uleb128 0xb
 1987 0069 0B       		.uleb128 0xb
 1988 006a 3A       		.uleb128 0x3a
 1989 006b 0B       		.uleb128 0xb
 1990 006c 3B       		.uleb128 0x3b
 1991 006d 0B       		.uleb128 0xb
 1992 006e 01       		.uleb128 0x1
 1993 006f 13       		.uleb128 0x13
 1994 0070 00       		.byte	0x0
 1995 0071 00       		.byte	0x0
 1996 0072 09       		.uleb128 0x9
 1997 0073 0F       		.uleb128 0xf
 1998 0074 00       		.byte	0x0
 1999 0075 0B       		.uleb128 0xb
 2000 0076 0B       		.uleb128 0xb
 2001 0077 49       		.uleb128 0x49
 2002 0078 13       		.uleb128 0x13
 2003 0079 00       		.byte	0x0
 2004 007a 00       		.byte	0x0
 2005 007b 0A       		.uleb128 0xa
 2006 007c 0F       		.uleb128 0xf
 2007 007d 00       		.byte	0x0
 2008 007e 0B       		.uleb128 0xb
 2009 007f 0B       		.uleb128 0xb
 2010 0080 00       		.byte	0x0
 2011 0081 00       		.byte	0x0
 2012 0082 0B       		.uleb128 0xb
 2013 0083 0D       		.uleb128 0xd
 2014 0084 00       		.byte	0x0
 2015 0085 03       		.uleb128 0x3
 2016 0086 08       		.uleb128 0x8
 2017 0087 3A       		.uleb128 0x3a
 2018 0088 0B       		.uleb128 0xb
 2019 0089 3B       		.uleb128 0x3b
 2020 008a 05       		.uleb128 0x5
 2021 008b 49       		.uleb128 0x49
 2022 008c 13       		.uleb128 0x13
 2023 008d 38       		.uleb128 0x38
 2024 008e 0A       		.uleb128 0xa
 2025 008f 00       		.byte	0x0
 2026 0090 00       		.byte	0x0
 2027 0091 0C       		.uleb128 0xc
 2028 0092 13       		.uleb128 0x13
 2029 0093 01       		.byte	0x1
 2030 0094 03       		.uleb128 0x3
 2031 0095 0E       		.uleb128 0xe
 2032 0096 0B       		.uleb128 0xb
 2033 0097 0B       		.uleb128 0xb
 2034 0098 3A       		.uleb128 0x3a
 2035 0099 0B       		.uleb128 0xb
ARM GAS  C:\Users\z80\AppData\Local\Temp\ccU2g4X7.s 			page 37


 2036 009a 3B       		.uleb128 0x3b
 2037 009b 05       		.uleb128 0x5
 2038 009c 01       		.uleb128 0x1
 2039 009d 13       		.uleb128 0x13
 2040 009e 00       		.byte	0x0
 2041 009f 00       		.byte	0x0
 2042 00a0 0D       		.uleb128 0xd
 2043 00a1 24       		.uleb128 0x24
 2044 00a2 00       		.byte	0x0
 2045 00a3 0B       		.uleb128 0xb
 2046 00a4 0B       		.uleb128 0xb
 2047 00a5 3E       		.uleb128 0x3e
 2048 00a6 0B       		.uleb128 0xb
 2049 00a7 00       		.byte	0x0
 2050 00a8 00       		.byte	0x0
 2051 00a9 0E       		.uleb128 0xe
 2052 00aa 15       		.uleb128 0x15
 2053 00ab 01       		.byte	0x1
 2054 00ac 27       		.uleb128 0x27
 2055 00ad 0C       		.uleb128 0xc
 2056 00ae 01       		.uleb128 0x1
 2057 00af 13       		.uleb128 0x13
 2058 00b0 00       		.byte	0x0
 2059 00b1 00       		.byte	0x0
 2060 00b2 0F       		.uleb128 0xf
 2061 00b3 05       		.uleb128 0x5
 2062 00b4 00       		.byte	0x0
 2063 00b5 49       		.uleb128 0x49
 2064 00b6 13       		.uleb128 0x13
 2065 00b7 00       		.byte	0x0
 2066 00b8 00       		.byte	0x0
 2067 00b9 10       		.uleb128 0x10
 2068 00ba 35       		.uleb128 0x35
 2069 00bb 00       		.byte	0x0
 2070 00bc 49       		.uleb128 0x49
 2071 00bd 13       		.uleb128 0x13
 2072 00be 00       		.byte	0x0
 2073 00bf 00       		.byte	0x0
 2074 00c0 11       		.uleb128 0x11
 2075 00c1 17       		.uleb128 0x17
 2076 00c2 01       		.byte	0x1
 2077 00c3 0B       		.uleb128 0xb
 2078 00c4 0B       		.uleb128 0xb
 2079 00c5 3A       		.uleb128 0x3a
 2080 00c6 0B       		.uleb128 0xb
 2081 00c7 3B       		.uleb128 0x3b
 2082 00c8 0B       		.uleb128 0xb
 2083 00c9 01       		.uleb128 0x1
 2084 00ca 13       		.uleb128 0x13
 2085 00cb 00       		.byte	0x0
 2086 00cc 00       		.byte	0x0
 2087 00cd 12       		.uleb128 0x12
 2088 00ce 0D       		.uleb128 0xd
 2089 00cf 00       		.byte	0x0
 2090 00d0 03       		.uleb128 0x3
 2091 00d1 0E       		.uleb128 0xe
 2092 00d2 3A       		.uleb128 0x3a
ARM GAS  C:\Users\z80\AppData\Local\Temp\ccU2g4X7.s 			page 38


 2093 00d3 0B       		.uleb128 0xb
 2094 00d4 3B       		.uleb128 0x3b
 2095 00d5 0B       		.uleb128 0xb
 2096 00d6 49       		.uleb128 0x49
 2097 00d7 13       		.uleb128 0x13
 2098 00d8 00       		.byte	0x0
 2099 00d9 00       		.byte	0x0
 2100 00da 13       		.uleb128 0x13
 2101 00db 26       		.uleb128 0x26
 2102 00dc 00       		.byte	0x0
 2103 00dd 49       		.uleb128 0x49
 2104 00de 13       		.uleb128 0x13
 2105 00df 00       		.byte	0x0
 2106 00e0 00       		.byte	0x0
 2107 00e1 14       		.uleb128 0x14
 2108 00e2 2E       		.uleb128 0x2e
 2109 00e3 01       		.byte	0x1
 2110 00e4 03       		.uleb128 0x3
 2111 00e5 0E       		.uleb128 0xe
 2112 00e6 3A       		.uleb128 0x3a
 2113 00e7 0B       		.uleb128 0xb
 2114 00e8 3B       		.uleb128 0x3b
 2115 00e9 0B       		.uleb128 0xb
 2116 00ea 27       		.uleb128 0x27
 2117 00eb 0C       		.uleb128 0xc
 2118 00ec 49       		.uleb128 0x49
 2119 00ed 13       		.uleb128 0x13
 2120 00ee 20       		.uleb128 0x20
 2121 00ef 0B       		.uleb128 0xb
 2122 00f0 01       		.uleb128 0x1
 2123 00f1 13       		.uleb128 0x13
 2124 00f2 00       		.byte	0x0
 2125 00f3 00       		.byte	0x0
 2126 00f4 15       		.uleb128 0x15
 2127 00f5 05       		.uleb128 0x5
 2128 00f6 00       		.byte	0x0
 2129 00f7 03       		.uleb128 0x3
 2130 00f8 08       		.uleb128 0x8
 2131 00f9 3A       		.uleb128 0x3a
 2132 00fa 0B       		.uleb128 0xb
 2133 00fb 3B       		.uleb128 0x3b
 2134 00fc 0B       		.uleb128 0xb
 2135 00fd 49       		.uleb128 0x49
 2136 00fe 13       		.uleb128 0x13
 2137 00ff 00       		.byte	0x0
 2138 0100 00       		.byte	0x0
 2139 0101 16       		.uleb128 0x16
 2140 0102 34       		.uleb128 0x34
 2141 0103 00       		.byte	0x0
 2142 0104 03       		.uleb128 0x3
 2143 0105 08       		.uleb128 0x8
 2144 0106 3A       		.uleb128 0x3a
 2145 0107 0B       		.uleb128 0xb
 2146 0108 3B       		.uleb128 0x3b
 2147 0109 0B       		.uleb128 0xb
 2148 010a 49       		.uleb128 0x49
 2149 010b 13       		.uleb128 0x13
ARM GAS  C:\Users\z80\AppData\Local\Temp\ccU2g4X7.s 			page 39


 2150 010c 00       		.byte	0x0
 2151 010d 00       		.byte	0x0
 2152 010e 17       		.uleb128 0x17
 2153 010f 2E       		.uleb128 0x2e
 2154 0110 00       		.byte	0x0
 2155 0111 3F       		.uleb128 0x3f
 2156 0112 0C       		.uleb128 0xc
 2157 0113 03       		.uleb128 0x3
 2158 0114 0E       		.uleb128 0xe
 2159 0115 3A       		.uleb128 0x3a
 2160 0116 0B       		.uleb128 0xb
 2161 0117 3B       		.uleb128 0x3b
 2162 0118 0B       		.uleb128 0xb
 2163 0119 27       		.uleb128 0x27
 2164 011a 0C       		.uleb128 0xc
 2165 011b 11       		.uleb128 0x11
 2166 011c 01       		.uleb128 0x1
 2167 011d 12       		.uleb128 0x12
 2168 011e 01       		.uleb128 0x1
 2169 011f 40       		.uleb128 0x40
 2170 0120 0A       		.uleb128 0xa
 2171 0121 00       		.byte	0x0
 2172 0122 00       		.byte	0x0
 2173 0123 18       		.uleb128 0x18
 2174 0124 2E       		.uleb128 0x2e
 2175 0125 01       		.byte	0x1
 2176 0126 3F       		.uleb128 0x3f
 2177 0127 0C       		.uleb128 0xc
 2178 0128 03       		.uleb128 0x3
 2179 0129 0E       		.uleb128 0xe
 2180 012a 3A       		.uleb128 0x3a
 2181 012b 0B       		.uleb128 0xb
 2182 012c 3B       		.uleb128 0x3b
 2183 012d 0B       		.uleb128 0xb
 2184 012e 27       		.uleb128 0x27
 2185 012f 0C       		.uleb128 0xc
 2186 0130 49       		.uleb128 0x49
 2187 0131 13       		.uleb128 0x13
 2188 0132 11       		.uleb128 0x11
 2189 0133 01       		.uleb128 0x1
 2190 0134 12       		.uleb128 0x12
 2191 0135 01       		.uleb128 0x1
 2192 0136 40       		.uleb128 0x40
 2193 0137 06       		.uleb128 0x6
 2194 0138 01       		.uleb128 0x1
 2195 0139 13       		.uleb128 0x13
 2196 013a 00       		.byte	0x0
 2197 013b 00       		.byte	0x0
 2198 013c 19       		.uleb128 0x19
 2199 013d 05       		.uleb128 0x5
 2200 013e 00       		.byte	0x0
 2201 013f 03       		.uleb128 0x3
 2202 0140 08       		.uleb128 0x8
 2203 0141 3A       		.uleb128 0x3a
 2204 0142 0B       		.uleb128 0xb
 2205 0143 3B       		.uleb128 0x3b
 2206 0144 0B       		.uleb128 0xb
ARM GAS  C:\Users\z80\AppData\Local\Temp\ccU2g4X7.s 			page 40


 2207 0145 49       		.uleb128 0x49
 2208 0146 13       		.uleb128 0x13
 2209 0147 02       		.uleb128 0x2
 2210 0148 06       		.uleb128 0x6
 2211 0149 00       		.byte	0x0
 2212 014a 00       		.byte	0x0
 2213 014b 1A       		.uleb128 0x1a
 2214 014c 34       		.uleb128 0x34
 2215 014d 00       		.byte	0x0
 2216 014e 03       		.uleb128 0x3
 2217 014f 08       		.uleb128 0x8
 2218 0150 3A       		.uleb128 0x3a
 2219 0151 0B       		.uleb128 0xb
 2220 0152 3B       		.uleb128 0x3b
 2221 0153 0B       		.uleb128 0xb
 2222 0154 49       		.uleb128 0x49
 2223 0155 13       		.uleb128 0x13
 2224 0156 02       		.uleb128 0x2
 2225 0157 06       		.uleb128 0x6
 2226 0158 00       		.byte	0x0
 2227 0159 00       		.byte	0x0
 2228 015a 1B       		.uleb128 0x1b
 2229 015b 2E       		.uleb128 0x2e
 2230 015c 01       		.byte	0x1
 2231 015d 03       		.uleb128 0x3
 2232 015e 0E       		.uleb128 0xe
 2233 015f 3A       		.uleb128 0x3a
 2234 0160 0B       		.uleb128 0xb
 2235 0161 3B       		.uleb128 0x3b
 2236 0162 0B       		.uleb128 0xb
 2237 0163 27       		.uleb128 0x27
 2238 0164 0C       		.uleb128 0xc
 2239 0165 11       		.uleb128 0x11
 2240 0166 01       		.uleb128 0x1
 2241 0167 12       		.uleb128 0x12
 2242 0168 01       		.uleb128 0x1
 2243 0169 40       		.uleb128 0x40
 2244 016a 06       		.uleb128 0x6
 2245 016b 01       		.uleb128 0x1
 2246 016c 13       		.uleb128 0x13
 2247 016d 00       		.byte	0x0
 2248 016e 00       		.byte	0x0
 2249 016f 1C       		.uleb128 0x1c
 2250 0170 1D       		.uleb128 0x1d
 2251 0171 01       		.byte	0x1
 2252 0172 31       		.uleb128 0x31
 2253 0173 13       		.uleb128 0x13
 2254 0174 11       		.uleb128 0x11
 2255 0175 01       		.uleb128 0x1
 2256 0176 12       		.uleb128 0x12
 2257 0177 01       		.uleb128 0x1
 2258 0178 58       		.uleb128 0x58
 2259 0179 0B       		.uleb128 0xb
 2260 017a 59       		.uleb128 0x59
 2261 017b 0B       		.uleb128 0xb
 2262 017c 00       		.byte	0x0
 2263 017d 00       		.byte	0x0
ARM GAS  C:\Users\z80\AppData\Local\Temp\ccU2g4X7.s 			page 41


 2264 017e 1D       		.uleb128 0x1d
 2265 017f 05       		.uleb128 0x5
 2266 0180 00       		.byte	0x0
 2267 0181 31       		.uleb128 0x31
 2268 0182 13       		.uleb128 0x13
 2269 0183 02       		.uleb128 0x2
 2270 0184 06       		.uleb128 0x6
 2271 0185 00       		.byte	0x0
 2272 0186 00       		.byte	0x0
 2273 0187 1E       		.uleb128 0x1e
 2274 0188 2E       		.uleb128 0x2e
 2275 0189 01       		.byte	0x1
 2276 018a 3F       		.uleb128 0x3f
 2277 018b 0C       		.uleb128 0xc
 2278 018c 03       		.uleb128 0x3
 2279 018d 0E       		.uleb128 0xe
 2280 018e 3A       		.uleb128 0x3a
 2281 018f 0B       		.uleb128 0xb
 2282 0190 3B       		.uleb128 0x3b
 2283 0191 0B       		.uleb128 0xb
 2284 0192 27       		.uleb128 0x27
 2285 0193 0C       		.uleb128 0xc
 2286 0194 11       		.uleb128 0x11
 2287 0195 01       		.uleb128 0x1
 2288 0196 12       		.uleb128 0x12
 2289 0197 01       		.uleb128 0x1
 2290 0198 40       		.uleb128 0x40
 2291 0199 06       		.uleb128 0x6
 2292 019a 01       		.uleb128 0x1
 2293 019b 13       		.uleb128 0x13
 2294 019c 00       		.byte	0x0
 2295 019d 00       		.byte	0x0
 2296 019e 1F       		.uleb128 0x1f
 2297 019f 05       		.uleb128 0x5
 2298 01a0 00       		.byte	0x0
 2299 01a1 03       		.uleb128 0x3
 2300 01a2 0E       		.uleb128 0xe
 2301 01a3 3A       		.uleb128 0x3a
 2302 01a4 0B       		.uleb128 0xb
 2303 01a5 3B       		.uleb128 0x3b
 2304 01a6 0B       		.uleb128 0xb
 2305 01a7 49       		.uleb128 0x49
 2306 01a8 13       		.uleb128 0x13
 2307 01a9 02       		.uleb128 0x2
 2308 01aa 06       		.uleb128 0x6
 2309 01ab 00       		.byte	0x0
 2310 01ac 00       		.byte	0x0
 2311 01ad 20       		.uleb128 0x20
 2312 01ae 1D       		.uleb128 0x1d
 2313 01af 01       		.byte	0x1
 2314 01b0 31       		.uleb128 0x31
 2315 01b1 13       		.uleb128 0x13
 2316 01b2 52       		.uleb128 0x52
 2317 01b3 01       		.uleb128 0x1
 2318 01b4 55       		.uleb128 0x55
 2319 01b5 06       		.uleb128 0x6
 2320 01b6 58       		.uleb128 0x58
ARM GAS  C:\Users\z80\AppData\Local\Temp\ccU2g4X7.s 			page 42


 2321 01b7 0B       		.uleb128 0xb
 2322 01b8 59       		.uleb128 0x59
 2323 01b9 0B       		.uleb128 0xb
 2324 01ba 01       		.uleb128 0x1
 2325 01bb 13       		.uleb128 0x13
 2326 01bc 00       		.byte	0x0
 2327 01bd 00       		.byte	0x0
 2328 01be 21       		.uleb128 0x21
 2329 01bf 05       		.uleb128 0x5
 2330 01c0 00       		.byte	0x0
 2331 01c1 31       		.uleb128 0x31
 2332 01c2 13       		.uleb128 0x13
 2333 01c3 02       		.uleb128 0x2
 2334 01c4 0A       		.uleb128 0xa
 2335 01c5 00       		.byte	0x0
 2336 01c6 00       		.byte	0x0
 2337 01c7 22       		.uleb128 0x22
 2338 01c8 0B       		.uleb128 0xb
 2339 01c9 01       		.byte	0x1
 2340 01ca 55       		.uleb128 0x55
 2341 01cb 06       		.uleb128 0x6
 2342 01cc 00       		.byte	0x0
 2343 01cd 00       		.byte	0x0
 2344 01ce 23       		.uleb128 0x23
 2345 01cf 34       		.uleb128 0x34
 2346 01d0 00       		.byte	0x0
 2347 01d1 31       		.uleb128 0x31
 2348 01d2 13       		.uleb128 0x13
 2349 01d3 02       		.uleb128 0x2
 2350 01d4 06       		.uleb128 0x6
 2351 01d5 00       		.byte	0x0
 2352 01d6 00       		.byte	0x0
 2353 01d7 24       		.uleb128 0x24
 2354 01d8 0B       		.uleb128 0xb
 2355 01d9 01       		.byte	0x1
 2356 01da 11       		.uleb128 0x11
 2357 01db 01       		.uleb128 0x1
 2358 01dc 12       		.uleb128 0x12
 2359 01dd 01       		.uleb128 0x1
 2360 01de 00       		.byte	0x0
 2361 01df 00       		.byte	0x0
 2362 01e0 25       		.uleb128 0x25
 2363 01e1 34       		.uleb128 0x34
 2364 01e2 00       		.byte	0x0
 2365 01e3 03       		.uleb128 0x3
 2366 01e4 08       		.uleb128 0x8
 2367 01e5 3A       		.uleb128 0x3a
 2368 01e6 0B       		.uleb128 0xb
 2369 01e7 3B       		.uleb128 0x3b
 2370 01e8 0B       		.uleb128 0xb
 2371 01e9 49       		.uleb128 0x49
 2372 01ea 13       		.uleb128 0x13
 2373 01eb 02       		.uleb128 0x2
 2374 01ec 0A       		.uleb128 0xa
 2375 01ed 00       		.byte	0x0
 2376 01ee 00       		.byte	0x0
 2377 01ef 26       		.uleb128 0x26
ARM GAS  C:\Users\z80\AppData\Local\Temp\ccU2g4X7.s 			page 43


 2378 01f0 2E       		.uleb128 0x2e
 2379 01f1 01       		.byte	0x1
 2380 01f2 3F       		.uleb128 0x3f
 2381 01f3 0C       		.uleb128 0xc
 2382 01f4 03       		.uleb128 0x3
 2383 01f5 0E       		.uleb128 0xe
 2384 01f6 3A       		.uleb128 0x3a
 2385 01f7 0B       		.uleb128 0xb
 2386 01f8 3B       		.uleb128 0x3b
 2387 01f9 05       		.uleb128 0x5
 2388 01fa 27       		.uleb128 0x27
 2389 01fb 0C       		.uleb128 0xc
 2390 01fc 11       		.uleb128 0x11
 2391 01fd 01       		.uleb128 0x1
 2392 01fe 12       		.uleb128 0x12
 2393 01ff 01       		.uleb128 0x1
 2394 0200 40       		.uleb128 0x40
 2395 0201 06       		.uleb128 0x6
 2396 0202 01       		.uleb128 0x1
 2397 0203 13       		.uleb128 0x13
 2398 0204 00       		.byte	0x0
 2399 0205 00       		.byte	0x0
 2400 0206 27       		.uleb128 0x27
 2401 0207 34       		.uleb128 0x34
 2402 0208 00       		.byte	0x0
 2403 0209 03       		.uleb128 0x3
 2404 020a 08       		.uleb128 0x8
 2405 020b 3A       		.uleb128 0x3a
 2406 020c 0B       		.uleb128 0xb
 2407 020d 3B       		.uleb128 0x3b
 2408 020e 05       		.uleb128 0x5
 2409 020f 49       		.uleb128 0x49
 2410 0210 13       		.uleb128 0x13
 2411 0211 02       		.uleb128 0x2
 2412 0212 06       		.uleb128 0x6
 2413 0213 00       		.byte	0x0
 2414 0214 00       		.byte	0x0
 2415 0215 28       		.uleb128 0x28
 2416 0216 1D       		.uleb128 0x1d
 2417 0217 01       		.byte	0x1
 2418 0218 31       		.uleb128 0x31
 2419 0219 13       		.uleb128 0x13
 2420 021a 52       		.uleb128 0x52
 2421 021b 01       		.uleb128 0x1
 2422 021c 55       		.uleb128 0x55
 2423 021d 06       		.uleb128 0x6
 2424 021e 58       		.uleb128 0x58
 2425 021f 0B       		.uleb128 0xb
 2426 0220 59       		.uleb128 0x59
 2427 0221 05       		.uleb128 0x5
 2428 0222 01       		.uleb128 0x1
 2429 0223 13       		.uleb128 0x13
 2430 0224 00       		.byte	0x0
 2431 0225 00       		.byte	0x0
 2432 0226 29       		.uleb128 0x29
 2433 0227 34       		.uleb128 0x34
 2434 0228 00       		.byte	0x0
ARM GAS  C:\Users\z80\AppData\Local\Temp\ccU2g4X7.s 			page 44


 2435 0229 03       		.uleb128 0x3
 2436 022a 08       		.uleb128 0x8
 2437 022b 3A       		.uleb128 0x3a
 2438 022c 0B       		.uleb128 0xb
 2439 022d 3B       		.uleb128 0x3b
 2440 022e 05       		.uleb128 0x5
 2441 022f 49       		.uleb128 0x49
 2442 0230 13       		.uleb128 0x13
 2443 0231 02       		.uleb128 0x2
 2444 0232 0A       		.uleb128 0xa
 2445 0233 00       		.byte	0x0
 2446 0234 00       		.byte	0x0
 2447 0235 2A       		.uleb128 0x2a
 2448 0236 2E       		.uleb128 0x2e
 2449 0237 00       		.byte	0x0
 2450 0238 3F       		.uleb128 0x3f
 2451 0239 0C       		.uleb128 0xc
 2452 023a 03       		.uleb128 0x3
 2453 023b 0E       		.uleb128 0xe
 2454 023c 3A       		.uleb128 0x3a
 2455 023d 0B       		.uleb128 0xb
 2456 023e 3B       		.uleb128 0x3b
 2457 023f 0B       		.uleb128 0xb
 2458 0240 27       		.uleb128 0x27
 2459 0241 0C       		.uleb128 0xc
 2460 0242 11       		.uleb128 0x11
 2461 0243 01       		.uleb128 0x1
 2462 0244 12       		.uleb128 0x12
 2463 0245 01       		.uleb128 0x1
 2464 0246 40       		.uleb128 0x40
 2465 0247 06       		.uleb128 0x6
 2466 0248 00       		.byte	0x0
 2467 0249 00       		.byte	0x0
 2468 024a 2B       		.uleb128 0x2b
 2469 024b 34       		.uleb128 0x34
 2470 024c 00       		.byte	0x0
 2471 024d 03       		.uleb128 0x3
 2472 024e 0E       		.uleb128 0xe
 2473 024f 3A       		.uleb128 0x3a
 2474 0250 0B       		.uleb128 0xb
 2475 0251 3B       		.uleb128 0x3b
 2476 0252 0B       		.uleb128 0xb
 2477 0253 49       		.uleb128 0x49
 2478 0254 13       		.uleb128 0x13
 2479 0255 3F       		.uleb128 0x3f
 2480 0256 0C       		.uleb128 0xc
 2481 0257 3C       		.uleb128 0x3c
 2482 0258 0C       		.uleb128 0xc
 2483 0259 00       		.byte	0x0
 2484 025a 00       		.byte	0x0
 2485 025b 2C       		.uleb128 0x2c
 2486 025c 34       		.uleb128 0x34
 2487 025d 00       		.byte	0x0
 2488 025e 03       		.uleb128 0x3
 2489 025f 0E       		.uleb128 0xe
 2490 0260 3A       		.uleb128 0x3a
 2491 0261 0B       		.uleb128 0xb
ARM GAS  C:\Users\z80\AppData\Local\Temp\ccU2g4X7.s 			page 45


 2492 0262 3B       		.uleb128 0x3b
 2493 0263 0B       		.uleb128 0xb
 2494 0264 49       		.uleb128 0x49
 2495 0265 13       		.uleb128 0x13
 2496 0266 3F       		.uleb128 0x3f
 2497 0267 0C       		.uleb128 0xc
 2498 0268 02       		.uleb128 0x2
 2499 0269 0A       		.uleb128 0xa
 2500 026a 00       		.byte	0x0
 2501 026b 00       		.byte	0x0
 2502 026c 00       		.byte	0x0
 2503              		.section	.debug_pubnames,"",%progbits
 2504 0000 A3000000 		.4byte	0xa3
 2505 0004 0200     		.2byte	0x2
 2506 0006 00000000 		.4byte	.Ldebug_info0
 2507 000a CE070000 		.4byte	0x7ce
 2508 000e 5A050000 		.4byte	0x55a
 2509 0012 5F736368 		.ascii	"_scheduler_init\000"
 2509      6564756C 
 2509      65725F69 
 2509      6E697400 
 2510 0022 6E050000 		.4byte	0x56e
 2511 0026 63685363 		.ascii	"chSchReadyI\000"
 2511      68526561 
 2511      64794900 
 2512 0032 F5050000 		.4byte	0x5f5
 2513 0036 63685363 		.ascii	"chSchGoSleepS\000"
 2513      68476F53 
 2513      6C656570 
 2513      5300
 2514 0044 73060000 		.4byte	0x673
 2515 0048 63685363 		.ascii	"chSchGoSleepTimeoutS\000"
 2515      68476F53 
 2515      6C656570 
 2515      54696D65 
 2515      6F757453 
 2516 005d C6060000 		.4byte	0x6c6
 2517 0061 63685363 		.ascii	"chSchWakeupS\000"
 2517      6857616B 
 2517      65757053 
 2517      00
 2518 006e 26070000 		.4byte	0x726
 2519 0072 63685363 		.ascii	"chSchDoReschedule\000"
 2519      68446F52 
 2519      65736368 
 2519      6564756C 
 2519      6500
 2520 0084 99070000 		.4byte	0x799
 2521 0088 63685363 		.ascii	"chSchRescheduleS\000"
 2521      68526573 
 2521      63686564 
 2521      756C6553 
 2521      00
 2522 0099 BB070000 		.4byte	0x7bb
 2523 009d 726C6973 		.ascii	"rlist\000"
 2523      7400
 2524 00a3 00000000 		.4byte	0x0
ARM GAS  C:\Users\z80\AppData\Local\Temp\ccU2g4X7.s 			page 46


 2525              		.section	.debug_pubtypes,"",%progbits
 2526 0000 7A010000 		.4byte	0x17a
 2527 0004 0200     		.2byte	0x2
 2528 0006 00000000 		.4byte	.Ldebug_info0
 2529 000a CE070000 		.4byte	0x7ce
 2530 000e 3E000000 		.4byte	0x3e
 2531 0012 75696E74 		.ascii	"uint8_t\000"
 2531      385F7400 
 2532 001a 5E000000 		.4byte	0x5e
 2533 001e 696E7433 		.ascii	"int32_t\000"
 2533      325F7400 
 2534 0026 70000000 		.4byte	0x70
 2535 002a 75696E74 		.ascii	"uint32_t\000"
 2535      33325F74 
 2535      00
 2536 0033 89000000 		.4byte	0x89
 2537 0037 75696E74 		.ascii	"uint64_t\000"
 2537      36345F74 
 2537      00
 2538 0040 9B000000 		.4byte	0x9b
 2539 0044 746D6F64 		.ascii	"tmode_t\000"
 2539      655F7400 
 2540 004c A6000000 		.4byte	0xa6
 2541 0050 74737461 		.ascii	"tstate_t\000"
 2541      74655F74 
 2541      00
 2542 0059 B1000000 		.4byte	0xb1
 2543 005d 74726566 		.ascii	"trefs_t\000"
 2543      735F7400 
 2544 0065 BC000000 		.4byte	0xbc
 2545 0069 74707269 		.ascii	"tprio_t\000"
 2545      6F5F7400 
 2546 0071 C7000000 		.4byte	0xc7
 2547 0075 6D73675F 		.ascii	"msg_t\000"
 2547      7400
 2548 007b D2000000 		.4byte	0xd2
 2549 007f 6576656E 		.ascii	"eventmask_t\000"
 2549      746D6173 
 2549      6B5F7400 
 2550 008b DD000000 		.4byte	0xdd
 2551 008f 73797374 		.ascii	"systime_t\000"
 2551      696D655F 
 2551      7400
 2552 0099 E8000000 		.4byte	0xe8
 2553 009d 636E745F 		.ascii	"cnt_t\000"
 2553      7400
 2554 00a3 F3000000 		.4byte	0xf3
 2555 00a7 54687265 		.ascii	"Thread\000"
 2555      616400
 2556 00ae 4E020000 		.4byte	0x24e
 2557 00b2 54687265 		.ascii	"ThreadsQueue\000"
 2557      61647351 
 2557      75657565 
 2557      00
 2558 00bf 70020000 		.4byte	0x270
 2559 00c3 54687265 		.ascii	"ThreadsList\000"
 2559      6164734C 
ARM GAS  C:\Users\z80\AppData\Local\Temp\ccU2g4X7.s 			page 47


 2559      69737400 
 2560 00cf 7B020000 		.4byte	0x27b
 2561 00d3 72656761 		.ascii	"regarm_t\000"
 2561      726D5F74 
 2561      00
 2562 00dc 88020000 		.4byte	0x288
 2563 00e0 73746B61 		.ascii	"stkalign_t\000"
 2563      6C69676E 
 2563      5F7400
 2564 00eb 93020000 		.4byte	0x293
 2565 00ef 696E7463 		.ascii	"intctx\000"
 2565      747800
 2566 00f6 20030000 		.4byte	0x320
 2567 00fa 636F6E74 		.ascii	"context\000"
 2567      65787400 
 2568 0102 46030000 		.4byte	0x346
 2569 0106 76746675 		.ascii	"vtfunc_t\000"
 2569      6E635F74 
 2569      00
 2570 010f 63030000 		.4byte	0x363
 2571 0113 56697274 		.ascii	"VirtualTimer\000"
 2571      75616C54 
 2571      696D6572 
 2571      00
 2572 0120 6E030000 		.4byte	0x36e
 2573 0124 56697274 		.ascii	"VirtualTimer\000"
 2573      75616C54 
 2573      696D6572 
 2573      00
 2574 0131 37040000 		.4byte	0x437
 2575 0135 52656164 		.ascii	"ReadyList\000"
 2575      794C6973 
 2575      7400
 2576 013f 42040000 		.4byte	0x442
 2577 0143 53656D61 		.ascii	"Semaphore\000"
 2577      70686F72 
 2577      6500
 2578 014d 6B040000 		.4byte	0x46b
 2579 0151 53656D61 		.ascii	"Semaphore\000"
 2579      70686F72 
 2579      6500
 2580 015b 76040000 		.4byte	0x476
 2581 015f 4D757465 		.ascii	"Mutex\000"
 2581      7800
 2582 0165 B3040000 		.4byte	0x4b3
 2583 0169 4D757465 		.ascii	"Mutex\000"
 2583      7800
 2584 016f FE000000 		.4byte	0xfe
 2585 0173 54687265 		.ascii	"Thread\000"
 2585      616400
 2586 017a 00000000 		.4byte	0x0
 2587              		.section	.debug_aranges,"",%progbits
 2588 0000 54000000 		.4byte	0x54
 2589 0004 0200     		.2byte	0x2
 2590 0006 00000000 		.4byte	.Ldebug_info0
 2591 000a 04       		.byte	0x4
 2592 000b 00       		.byte	0x0
ARM GAS  C:\Users\z80\AppData\Local\Temp\ccU2g4X7.s 			page 48


 2593 000c 0000     		.2byte	0x0
 2594 000e 0000     		.2byte	0x0
 2595 0010 00000000 		.4byte	.LFB7
 2596 0014 1A000000 		.4byte	.LFE7-.LFB7
 2597 0018 00000000 		.4byte	.LFB8
 2598 001c 4C000000 		.4byte	.LFE8-.LFB8
 2599 0020 00000000 		.4byte	.LFB10
 2600 0024 3A000000 		.4byte	.LFE10-.LFB10
 2601 0028 00000000 		.4byte	.LFB9
 2602 002c 4C000000 		.4byte	.LFE9-.LFB9
 2603 0030 00000000 		.4byte	.LFB11
 2604 0034 4C000000 		.4byte	.LFE11-.LFB11
 2605 0038 00000000 		.4byte	.LFB12
 2606 003c 5C000000 		.4byte	.LFE12-.LFB12
 2607 0040 00000000 		.4byte	.LFB14
 2608 0044 48000000 		.4byte	.LFE14-.LFB14
 2609 0048 00000000 		.4byte	.LFB13
 2610 004c 20000000 		.4byte	.LFE13-.LFB13
 2611 0050 00000000 		.4byte	0x0
 2612 0054 00000000 		.4byte	0x0
 2613              		.section	.debug_ranges,"",%progbits
 2614              	.Ldebug_ranges0:
 2615 0000 12000000 		.4byte	.LBB12
 2616 0004 14000000 		.4byte	.LBE12
 2617 0008 22000000 		.4byte	.LBB19
 2618 000c 24000000 		.4byte	.LBE19
 2619 0010 1C000000 		.4byte	.LBB18
 2620 0014 1E000000 		.4byte	.LBE18
 2621 0018 16000000 		.4byte	.LBB17
 2622 001c 18000000 		.4byte	.LBE17
 2623 0020 00000000 		.4byte	0x0
 2624 0024 00000000 		.4byte	0x0
 2625 0028 12000000 		.4byte	.LBB14
 2626 002c 14000000 		.4byte	.LBE14
 2627 0030 22000000 		.4byte	.LBB16
 2628 0034 24000000 		.4byte	.LBE16
 2629 0038 1C000000 		.4byte	.LBB13
 2630 003c 1E000000 		.4byte	.LBE13
 2631 0040 16000000 		.4byte	.LBB15
 2632 0044 18000000 		.4byte	.LBE15
 2633 0048 00000000 		.4byte	0x0
 2634 004c 00000000 		.4byte	0x0
 2635 0050 18000000 		.4byte	.LBB22
 2636 0054 40000000 		.4byte	.LBE22
 2637 0058 4A000000 		.4byte	.LBB25
 2638 005c 5C000000 		.4byte	.LBE25
 2639 0060 00000000 		.4byte	0x0
 2640 0064 00000000 		.4byte	0x0
 2641 0068 2E000000 		.4byte	.LBB23
 2642 006c 40000000 		.4byte	.LBE23
 2643 0070 4A000000 		.4byte	.LBB24
 2644 0074 5C000000 		.4byte	.LBE24
 2645 0078 00000000 		.4byte	0x0
 2646 007c 00000000 		.4byte	0x0
 2647 0080 06000000 		.4byte	.LBB26
 2648 0084 08000000 		.4byte	.LBE26
 2649 0088 18000000 		.4byte	.LBB33
ARM GAS  C:\Users\z80\AppData\Local\Temp\ccU2g4X7.s 			page 49


 2650 008c 1A000000 		.4byte	.LBE33
 2651 0090 10000000 		.4byte	.LBB32
 2652 0094 12000000 		.4byte	.LBE32
 2653 0098 0A000000 		.4byte	.LBB31
 2654 009c 0C000000 		.4byte	.LBE31
 2655 00a0 00000000 		.4byte	0x0
 2656 00a4 00000000 		.4byte	0x0
 2657 00a8 06000000 		.4byte	.LBB28
 2658 00ac 08000000 		.4byte	.LBE28
 2659 00b0 18000000 		.4byte	.LBB30
 2660 00b4 1A000000 		.4byte	.LBE30
 2661 00b8 10000000 		.4byte	.LBB27
 2662 00bc 12000000 		.4byte	.LBE27
 2663 00c0 0A000000 		.4byte	.LBB29
 2664 00c4 0C000000 		.4byte	.LBE29
 2665 00c8 00000000 		.4byte	0x0
 2666 00cc 00000000 		.4byte	0x0
 2667 00d0 00000000 		.4byte	.LFB7
 2668 00d4 1A000000 		.4byte	.LFE7
 2669 00d8 00000000 		.4byte	.LFB8
 2670 00dc 4C000000 		.4byte	.LFE8
 2671 00e0 00000000 		.4byte	.LFB10
 2672 00e4 3A000000 		.4byte	.LFE10
 2673 00e8 00000000 		.4byte	.LFB9
 2674 00ec 4C000000 		.4byte	.LFE9
 2675 00f0 00000000 		.4byte	.LFB11
 2676 00f4 4C000000 		.4byte	.LFE11
 2677 00f8 00000000 		.4byte	.LFB12
 2678 00fc 5C000000 		.4byte	.LFE12
 2679 0100 00000000 		.4byte	.LFB14
 2680 0104 48000000 		.4byte	.LFE14
 2681 0108 00000000 		.4byte	.LFB13
 2682 010c 20000000 		.4byte	.LFE13
 2683 0110 00000000 		.4byte	0x0
 2684 0114 00000000 		.4byte	0x0
 2685              		.section	.debug_str,"MS",%progbits,1
 2686              	.LASF36:
 2687 0000 705F6D73 		.ascii	"p_msg\000"
 2687      6700
 2688              	.LASF69:
 2689 0006 7264796D 		.ascii	"rdymsg\000"
 2689      736700
 2690              	.LASF11:
 2691 000d 75696E74 		.ascii	"uint64_t\000"
 2691      36345F74 
 2691      00
 2692              	.LASF12:
 2693 0016 6C6F6E67 		.ascii	"long long unsigned int\000"
 2693      206C6F6E 
 2693      6720756E 
 2693      7369676E 
 2693      65642069 
 2694              	.LASF70:
 2695 002d 65786974 		.ascii	"exitcode\000"
 2695      636F6465 
 2695      00
 2696              	.LASF24:
ARM GAS  C:\Users\z80\AppData\Local\Temp\ccU2g4X7.s 			page 50


 2697 0036 705F7072 		.ascii	"p_prio\000"
 2697      696F00
 2698              	.LASF83:
 2699 003d 5F736368 		.ascii	"_scheduler_init\000"
 2699      6564756C 
 2699      65725F69 
 2699      6E697400 
 2700              	.LASF10:
 2701 004d 6C6F6E67 		.ascii	"long long int\000"
 2701      206C6F6E 
 2701      6720696E 
 2701      7400
 2702              	.LASF1:
 2703 005b 7369676E 		.ascii	"signed char\000"
 2703      65642063 
 2703      68617200 
 2704              	.LASF40:
 2705 0067 705F6D70 		.ascii	"p_mpool\000"
 2705      6F6F6C00 
 2706              	.LASF66:
 2707 006f 6D5F7175 		.ascii	"m_queue\000"
 2707      65756500 
 2708              	.LASF7:
 2709 0077 6C6F6E67 		.ascii	"long int\000"
 2709      20696E74 
 2709      00
 2710              	.LASF14:
 2711 0080 74737461 		.ascii	"tstate_t\000"
 2711      74655F74 
 2711      00
 2712              	.LASF26:
 2713 0089 705F6E65 		.ascii	"p_newer\000"
 2713      77657200 
 2714              	.LASF63:
 2715 0091 735F7175 		.ascii	"s_queue\000"
 2715      65756500 
 2716              	.LASF84:
 2717 0099 63685363 		.ascii	"chSchRescheduleS\000"
 2717      68526573 
 2717      63686564 
 2717      756C6553 
 2717      00
 2718              	.LASF57:
 2719 00aa 725F6E65 		.ascii	"r_newer\000"
 2719      77657200 
 2720              	.LASF43:
 2721 00b2 72656761 		.ascii	"regarm_t\000"
 2721      726D5F74 
 2721      00
 2722              	.LASF50:
 2723 00bb 76745F70 		.ascii	"vt_prev\000"
 2723      72657600 
 2724              	.LASF82:
 2725 00c3 63685363 		.ascii	"chSchDoReschedule\000"
 2725      68446F52 
 2725      65736368 
 2725      6564756C 
ARM GAS  C:\Users\z80\AppData\Local\Temp\ccU2g4X7.s 			page 51


 2725      6500
 2726              	.LASF20:
 2727 00d5 636E745F 		.ascii	"cnt_t\000"
 2727      7400
 2728              	.LASF29:
 2729 00db 705F7374 		.ascii	"p_stklimit\000"
 2729      6B6C696D 
 2729      697400
 2730              	.LASF0:
 2731 00e6 756E7369 		.ascii	"unsigned int\000"
 2731      676E6564 
 2731      20696E74 
 2731      00
 2732              	.LASF89:
 2733 00f3 77616B65 		.ascii	"wakeup\000"
 2733      757000
 2734              	.LASF49:
 2735 00fa 76745F6E 		.ascii	"vt_next\000"
 2735      65787400 
 2736              	.LASF9:
 2737 0102 6C6F6E67 		.ascii	"long unsigned int\000"
 2737      20756E73 
 2737      69676E65 
 2737      6420696E 
 2737      7400
 2738              	.LASF64:
 2739 0114 735F636E 		.ascii	"s_cnt\000"
 2739      7400
 2740              	.LASF87:
 2741 011a 2E2E2F63 		.ascii	"../chibios_2.4.x/os/kernel/src/chschd.c\000"
 2741      68696269 
 2741      6F735F32 
 2741      2E342E78 
 2741      2F6F732F 
 2742              	.LASF4:
 2743 0142 73686F72 		.ascii	"short unsigned int\000"
 2743      7420756E 
 2743      7369676E 
 2743      65642069 
 2743      6E7400
 2744              	.LASF81:
 2745 0155 63685363 		.ascii	"chSchWakeupS\000"
 2745      6857616B 
 2745      65757053 
 2745      00
 2746              	.LASF17:
 2747 0162 6D73675F 		.ascii	"msg_t\000"
 2747      7400
 2748              	.LASF13:
 2749 0168 746D6F64 		.ascii	"tmode_t\000"
 2749      655F7400 
 2750              	.LASF42:
 2751 0170 54687265 		.ascii	"ThreadsList\000"
 2751      6164734C 
 2751      69737400 
 2752              	.LASF18:
 2753 017c 6576656E 		.ascii	"eventmask_t\000"
ARM GAS  C:\Users\z80\AppData\Local\Temp\ccU2g4X7.s 			page 52


 2753      746D6173 
 2753      6B5F7400 
 2754              	.LASF65:
 2755 0188 4D757465 		.ascii	"Mutex\000"
 2755      7800
 2756              	.LASF44:
 2757 018e 73746B61 		.ascii	"stkalign_t\000"
 2757      6C69676E 
 2757      5F7400
 2758              	.LASF51:
 2759 0199 76745F74 		.ascii	"vt_time\000"
 2759      696D6500 
 2760              	.LASF52:
 2761 01a1 76745F66 		.ascii	"vt_func\000"
 2761      756E6300 
 2762              	.LASF27:
 2763 01a9 705F6F6C 		.ascii	"p_older\000"
 2763      64657200 
 2764              	.LASF56:
 2765 01b1 725F6374 		.ascii	"r_ctx\000"
 2765      7800
 2766              	.LASF41:
 2767 01b7 54687265 		.ascii	"ThreadsQueue\000"
 2767      61647351 
 2767      75657565 
 2767      00
 2768              	.LASF88:
 2769 01c4 433A5C70 		.ascii	"C:\\projects\\voltamper.git\\firmware\\voltamp\000"
 2769      726F6A65 
 2769      6374735C 
 2769      766F6C74 
 2769      616D7065 
 2770              	.LASF74:
 2771 01ef 64657175 		.ascii	"dequeue\000"
 2771      65756500 
 2772              	.LASF60:
 2773 01f7 725F6375 		.ascii	"r_current\000"
 2773      7272656E 
 2773      7400
 2774              	.LASF58:
 2775 0201 725F6F6C 		.ascii	"r_older\000"
 2775      64657200 
 2776              	.LASF15:
 2777 0209 74726566 		.ascii	"trefs_t\000"
 2777      735F7400 
 2778              	.LASF23:
 2779 0211 705F7072 		.ascii	"p_prev\000"
 2779      657600
 2780              	.LASF16:
 2781 0218 74707269 		.ascii	"tprio_t\000"
 2781      6F5F7400 
 2782              	.LASF6:
 2783 0220 696E7433 		.ascii	"int32_t\000"
 2783      325F7400 
 2784              	.LASF2:
 2785 0228 756E7369 		.ascii	"unsigned char\000"
 2785      676E6564 
ARM GAS  C:\Users\z80\AppData\Local\Temp\ccU2g4X7.s 			page 53


 2785      20636861 
 2785      7200
 2786              	.LASF76:
 2787 0236 6E657773 		.ascii	"newstate\000"
 2787      74617465 
 2787      00
 2788              	.LASF38:
 2789 023f 705F6D74 		.ascii	"p_mtxlist\000"
 2789      786C6973 
 2789      7400
 2790              	.LASF3:
 2791 0249 73686F72 		.ascii	"short int\000"
 2791      7420696E 
 2791      7400
 2792              	.LASF30:
 2793 0253 705F7374 		.ascii	"p_state\000"
 2793      61746500 
 2794              	.LASF55:
 2795 025b 725F7072 		.ascii	"r_prio\000"
 2795      696F00
 2796              	.LASF72:
 2797 0262 65776D61 		.ascii	"ewmask\000"
 2797      736B00
 2798              	.LASF22:
 2799 0269 705F6E65 		.ascii	"p_next\000"
 2799      787400
 2800              	.LASF31:
 2801 0270 705F666C 		.ascii	"p_flags\000"
 2801      61677300 
 2802              	.LASF21:
 2803 0278 54687265 		.ascii	"Thread\000"
 2803      616400
 2804              	.LASF80:
 2805 027f 63685363 		.ascii	"chSchGoSleepS\000"
 2805      68476F53 
 2805      6C656570 
 2805      5300
 2806              	.LASF37:
 2807 028d 705F6570 		.ascii	"p_epending\000"
 2807      656E6469 
 2807      6E6700
 2808              	.LASF8:
 2809 0298 75696E74 		.ascii	"uint32_t\000"
 2809      33325F74 
 2809      00
 2810              	.LASF54:
 2811 02a1 725F7175 		.ascii	"r_queue\000"
 2811      65756500 
 2812              	.LASF48:
 2813 02a9 56697274 		.ascii	"VirtualTimer\000"
 2813      75616C54 
 2813      696D6572 
 2813      00
 2814              	.LASF73:
 2815 02b6 63686172 		.ascii	"char\000"
 2815      00
 2816              	.LASF75:
ARM GAS  C:\Users\z80\AppData\Local\Temp\ccU2g4X7.s 			page 54


 2817 02bb 6669666F 		.ascii	"fifo_remove\000"
 2817      5F72656D 
 2817      6F766500 
 2818              	.LASF77:
 2819 02c7 63685363 		.ascii	"chSchReadyI\000"
 2819      68526561 
 2819      64794900 
 2820              	.LASF68:
 2821 02d3 6D5F6E65 		.ascii	"m_next\000"
 2821      787400
 2822              	.LASF19:
 2823 02da 73797374 		.ascii	"systime_t\000"
 2823      696D655F 
 2823      7400
 2824              	.LASF39:
 2825 02e4 705F7265 		.ascii	"p_realprio\000"
 2825      616C7072 
 2825      696F00
 2826              	.LASF47:
 2827 02ef 76746675 		.ascii	"vtfunc_t\000"
 2827      6E635F74 
 2827      00
 2828              	.LASF33:
 2829 02f8 705F7469 		.ascii	"p_time\000"
 2829      6D6500
 2830              	.LASF45:
 2831 02ff 696E7463 		.ascii	"intctx\000"
 2831      747800
 2832              	.LASF35:
 2833 0306 705F6D73 		.ascii	"p_msgqueue\000"
 2833      67717565 
 2833      756500
 2834              	.LASF79:
 2835 0311 74696D65 		.ascii	"time\000"
 2835      00
 2836              	.LASF53:
 2837 0316 76745F70 		.ascii	"vt_par\000"
 2837      617200
 2838              	.LASF62:
 2839 031d 53656D61 		.ascii	"Semaphore\000"
 2839      70686F72 
 2839      6500
 2840              	.LASF32:
 2841 0327 705F7265 		.ascii	"p_refs\000"
 2841      667300
 2842              	.LASF61:
 2843 032e 52656164 		.ascii	"ReadyList\000"
 2843      794C6973 
 2843      7400
 2844              	.LASF85:
 2845 0338 726C6973 		.ascii	"rlist\000"
 2845      7400
 2846              	.LASF5:
 2847 033e 75696E74 		.ascii	"uint8_t\000"
 2847      385F7400 
 2848              	.LASF86:
 2849 0346 474E5520 		.ascii	"GNU C 4.5.0\000"
ARM GAS  C:\Users\z80\AppData\Local\Temp\ccU2g4X7.s 			page 55


 2849      4320342E 
 2849      352E3000 
 2850              	.LASF71:
 2851 0352 77746F62 		.ascii	"wtobjp\000"
 2851      6A7000
 2852              	.LASF28:
 2853 0359 705F6E61 		.ascii	"p_name\000"
 2853      6D6500
 2854              	.LASF46:
 2855 0360 636F6E74 		.ascii	"context\000"
 2855      65787400 
 2856              	.LASF78:
 2857 0368 63685363 		.ascii	"chSchGoSleepTimeoutS\000"
 2857      68476F53 
 2857      6C656570 
 2857      54696D65 
 2857      6F757453 
 2858              	.LASF59:
 2859 037d 725F7072 		.ascii	"r_preempt\000"
 2859      65656D70 
 2859      7400
 2860              	.LASF67:
 2861 0387 6D5F6F77 		.ascii	"m_owner\000"
 2861      6E657200 
 2862              	.LASF25:
 2863 038f 705F6374 		.ascii	"p_ctx\000"
 2863      7800
 2864              	.LASF34:
 2865 0395 705F7761 		.ascii	"p_waiting\000"
 2865      6974696E 
 2865      6700
 2866              		.ident	"GCC: (GNU) 4.5.0"
ARM GAS  C:\Users\z80\AppData\Local\Temp\ccU2g4X7.s 			page 56


DEFINED SYMBOLS
                            *ABS*:00000000 chschd.c
C:\Users\z80\AppData\Local\Temp\ccU2g4X7.s:24     .text._scheduler_init:00000000 $t
C:\Users\z80\AppData\Local\Temp\ccU2g4X7.s:30     .text._scheduler_init:00000000 _scheduler_init
C:\Users\z80\AppData\Local\Temp\ccU2g4X7.s:616    .bss.rlist:00000000 .LANCHOR0
C:\Users\z80\AppData\Local\Temp\ccU2g4X7.s:60     .text.chSchReadyI:00000000 $t
C:\Users\z80\AppData\Local\Temp\ccU2g4X7.s:66     .text.chSchReadyI:00000000 chSchReadyI
C:\Users\z80\AppData\Local\Temp\ccU2g4X7.s:130    .text.chSchReadyI:00000044 $d
C:\Users\z80\AppData\Local\Temp\ccU2g4X7.s:136    .text.wakeup:00000000 $t
C:\Users\z80\AppData\Local\Temp\ccU2g4X7.s:141    .text.wakeup:00000000 wakeup
C:\Users\z80\AppData\Local\Temp\ccU2g4X7.s:159    .text.wakeup:0000000e $d
C:\Users\z80\AppData\Local\Temp\ccU2g4X7.s:173    .text.wakeup:0000001c $t
C:\Users\z80\AppData\Local\Temp\ccU2g4X7.s:209    .text.chSchGoSleepS:00000000 $t
C:\Users\z80\AppData\Local\Temp\ccU2g4X7.s:215    .text.chSchGoSleepS:00000000 chSchGoSleepS
C:\Users\z80\AppData\Local\Temp\ccU2g4X7.s:300    .text.chSchGoSleepS:00000044 $d
C:\Users\z80\AppData\Local\Temp\ccU2g4X7.s:306    .text.chSchGoSleepTimeoutS:00000000 $t
C:\Users\z80\AppData\Local\Temp\ccU2g4X7.s:312    .text.chSchGoSleepTimeoutS:00000000 chSchGoSleepTimeoutS
C:\Users\z80\AppData\Local\Temp\ccU2g4X7.s:375    .text.chSchGoSleepTimeoutS:00000044 $d
C:\Users\z80\AppData\Local\Temp\ccU2g4X7.s:381    .text.chSchWakeupS:00000000 $t
C:\Users\z80\AppData\Local\Temp\ccU2g4X7.s:387    .text.chSchWakeupS:00000000 chSchWakeupS
C:\Users\z80\AppData\Local\Temp\ccU2g4X7.s:469    .text.chSchWakeupS:00000054 $d
C:\Users\z80\AppData\Local\Temp\ccU2g4X7.s:477    .text.chSchDoReschedule:00000000 $t
C:\Users\z80\AppData\Local\Temp\ccU2g4X7.s:483    .text.chSchDoReschedule:00000000 chSchDoReschedule
C:\Users\z80\AppData\Local\Temp\ccU2g4X7.s:561    .text.chSchDoReschedule:00000040 $d
C:\Users\z80\AppData\Local\Temp\ccU2g4X7.s:567    .text.chSchRescheduleS:00000000 $t
C:\Users\z80\AppData\Local\Temp\ccU2g4X7.s:573    .text.chSchRescheduleS:00000000 chSchRescheduleS
C:\Users\z80\AppData\Local\Temp\ccU2g4X7.s:602    .text.chSchRescheduleS:0000001c $d
C:\Users\z80\AppData\Local\Temp\ccU2g4X7.s:619    .bss.rlist:00000000 rlist
C:\Users\z80\AppData\Local\Temp\ccU2g4X7.s:608    .rodata.str1.4:00000000 $d
C:\Users\z80\AppData\Local\Temp\ccU2g4X7.s:615    .bss.rlist:00000000 $d
                     .debug_frame:00000010 $d
C:\Users\z80\AppData\Local\Temp\ccU2g4X7.s:135    .text.chSchReadyI:0000004c $t
C:\Users\z80\AppData\Local\Temp\ccU2g4X7.s:305    .text.chSchGoSleepS:0000004c $t
C:\Users\z80\AppData\Local\Temp\ccU2g4X7.s:380    .text.chSchGoSleepTimeoutS:0000004c $t
C:\Users\z80\AppData\Local\Temp\ccU2g4X7.s:476    .text.chSchWakeupS:0000005c $t
C:\Users\z80\AppData\Local\Temp\ccU2g4X7.s:2866   .text.chSchDoReschedule:00000048 $t

UNDEFINED SYMBOLS
chDbgPanic
chDbgCheckClassS
dbg_trace
_port_switch
chVTSetI
chVTResetI
