ARM GAS  /tmp/ccrfM572.s 			page 1


   1              		.syntax unified
   2              		.cpu cortex-m3
   3              		.fpu softvfp
   4              		.eabi_attribute 20, 1
   5              		.eabi_attribute 21, 1
   6              		.eabi_attribute 23, 3
   7              		.eabi_attribute 24, 1
   8              		.eabi_attribute 25, 1
   9              		.eabi_attribute 26, 1
  10              		.eabi_attribute 30, 2
  11              		.eabi_attribute 18, 4
  12              		.thumb
  13              		.file	"chsys.c"
  14              		.section	.debug_abbrev,"",%progbits
  15              	.Ldebug_abbrev0:
  16              		.section	.debug_info,"",%progbits
  17              	.Ldebug_info0:
  18              		.section	.debug_line,"",%progbits
  19              	.Ldebug_line0:
  20 0000 C5010000 		.text
  20      02006401 
  20      00000201 
  20      FB0E0D00 
  20      01010101 
  21              	.Ltext0:
  22              		.cfi_sections	.debug_frame
  23              		.section	.text._idle_thread,"ax",%progbits
  24              		.align	2
  25              		.p2align 4,,15
  26              		.global	_idle_thread
  27              		.thumb
  28              		.thumb_func
  29              		.type	_idle_thread, %function
  30              	_idle_thread:
  31              	.LFB7:
  32              		.file 1 "../chibios_2.4.x/os/kernel/src/chsys.c"
  33              		.loc 1 59 0
  34              		.cfi_startproc
  35              		@ args = 0, pretend = 0, frame = 0
  36              		@ frame_needed = 0, uses_anonymous_args = 0
  37              		@ link register save eliminated.
  38              	.LVL0:
  39              		.loc 1 62 0
  40 0000 0248     		ldr	r0, .L4
  41              	.LVL1:
  42 0002 034A     		ldr	r2, .L4+4
  43 0004 C369     		ldr	r3, [r0, #28]
  44 0006 9A61     		str	r2, [r3, #24]
  45              	.L2:
  46 0008 FEE7     		b	.L2
  47              	.L5:
  48 000a 00BF     		.align	2
  49              	.L4:
  50 000c 00000000 		.word	rlist
  51 0010 00000000 		.word	.LC0
  52              		.cfi_endproc
  53              	.LFE7:
ARM GAS  /tmp/ccrfM572.s 			page 2


  54              		.size	_idle_thread, .-_idle_thread
  55 0014 AFF30080 		.section	.text.chSysInit,"ax",%progbits
  55      AFF30080 
  55      AFF30080 
  56              		.align	2
  57              		.p2align 4,,15
  58              		.global	chSysInit
  59              		.thumb
  60              		.thumb_func
  61              		.type	chSysInit, %function
  62              	chSysInit:
  63              	.LFB8:
  64              		.loc 1 82 0
  65              		.cfi_startproc
  66              		@ args = 0, pretend = 0, frame = 0
  67              		@ frame_needed = 0, uses_anonymous_args = 0
  68 0000 30B5     		push	{r4, r5, lr}
  69              	.LCFI0:
  70              		.cfi_def_cfa_offset 12
  71 0002 83B0     		sub	sp, sp, #12
  72              	.LCFI1:
  73              		.cfi_def_cfa_offset 24
  74              		.loc 1 88 0
  75              		.cfi_offset 14, -4
  76              		.cfi_offset 5, -8
  77              		.cfi_offset 4, -12
  78 0004 FFF7FEFF 		bl	_port_init
  79              		.loc 1 89 0
  80 0008 FFF7FEFF 		bl	_scheduler_init
  81              		.loc 1 90 0
  82 000c FFF7FEFF 		bl	_vt_init
  83              		.loc 1 92 0
  84 0010 FFF7FEFF 		bl	_core_init
  85              		.loc 1 98 0
  86 0014 FFF7FEFF 		bl	_trace_init
  87              		.loc 1 102 0
  88 0018 4021     		movs	r1, #64
  89 001a 0E48     		ldr	r0, .L7
  90 001c FFF7FEFF 		bl	_thread_init
  91 0020 0D4D     		ldr	r5, .L7+4
  92              		.loc 1 107 0
  93 0022 0E49     		ldr	r1, .L7+8
  94              		.loc 1 103 0
  95 0024 0124     		movs	r4, #1
  96              		.loc 1 102 0
  97 0026 E861     		str	r0, [r5, #28]
  98              		.loc 1 103 0
  99 0028 80F82040 		strb	r4, [r0, #32]
 100              		.loc 1 107 0
 101 002c C161     		str	r1, [r0, #28]
 102              		.loc 1 109 0
 103 002e FFF7FEFF 		bl	dbg_check_enable
 104              	.LBB2:
 105 0032 0023     		movs	r3, #0
 106              	.LVL2:
 107              	@ 109 "../chibios_2.4.x/os/kernel/src/chsys.c" 1
 108 0034 83F31188 		msr     BASEPRI, r3                    
ARM GAS  /tmp/ccrfM572.s 			page 3


 109 0038 62B6     		cpsie   i
 110              	@ 0 "" 2
 111              	.LVL3:
 112              		.thumb
 113              	.LBE2:
 114              		.loc 1 111 0
 115 003a EA69     		ldr	r2, [r5, #28]
 116              		.loc 1 117 0
 117 003c 1D46     		mov	r5, r3
 118              		.loc 1 111 0
 119 003e 084B     		ldr	r3, .L7+12
 120              	.LVL4:
 121              		.loc 1 117 0
 122 0040 C021     		movs	r1, #192
 123              		.loc 1 111 0
 124 0042 9361     		str	r3, [r2, #24]
 125              		.loc 1 117 0
 126 0044 0748     		ldr	r0, .L7+16
 127 0046 2246     		mov	r2, r4
 128 0048 074B     		ldr	r3, .L7+20
 129 004a 0095     		str	r5, [sp, #0]
 130              	.LVL5:
 131 004c FFF7FEFF 		bl	chThdCreateStatic
 132              		.loc 1 120 0
 133 0050 03B0     		add	sp, sp, #12
 134 0052 30BD     		pop	{r4, r5, pc}
 135              	.L8:
 136              		.align	2
 137              	.L7:
 138 0054 00000000 		.word	.LANCHOR0
 139 0058 00000000 		.word	rlist
 140 005c 00000000 		.word	__main_thread_stack_base__
 141 0060 08000000 		.word	.LC1
 142 0064 00000000 		.word	.LANCHOR1
 143 0068 00000000 		.word	_idle_thread
 144              		.cfi_endproc
 145              	.LFE8:
 146              		.size	chSysInit, .-chSysInit
 147 006c AFF30080 		.section	.text.chSysTimerHandlerI,"ax",%progbits
 148              		.align	2
 149              		.p2align 4,,15
 150              		.global	chSysTimerHandlerI
 151              		.thumb
 152              		.thumb_func
 153              		.type	chSysTimerHandlerI, %function
 154              	chSysTimerHandlerI:
 155              	.LFB9:
 156              		.loc 1 133 0
 157              		.cfi_startproc
 158              		@ args = 0, pretend = 0, frame = 0
 159              		@ frame_needed = 0, uses_anonymous_args = 0
 160 0000 70B5     		push	{r4, r5, r6, lr}
 161              	.LCFI2:
 162              		.cfi_def_cfa_offset 16
 163              		.loc 1 135 0
 164              		.cfi_offset 14, -4
 165              		.cfi_offset 6, -8
ARM GAS  /tmp/ccrfM572.s 			page 4


 166              		.cfi_offset 5, -12
 167              		.cfi_offset 4, -16
 168 0002 FFF7FEFF 		bl	chDbgCheckClassI
 169              		.loc 1 139 0
 170 0006 114B     		ldr	r3, .L14
 171 0008 9A69     		ldr	r2, [r3, #24]
 172 000a 002A     		cmp	r2, #0
 173 000c 01DD     		ble	.L10
 174              		.loc 1 141 0
 175 000e 013A     		subs	r2, r2, #1
 176 0010 9A61     		str	r2, [r3, #24]
 177              	.L10:
 178              		.loc 1 144 0
 179 0012 DA69     		ldr	r2, [r3, #28]
 180              		.loc 1 146 0
 181 0014 0E4C     		ldr	r4, .L14+4
 182              		.loc 1 144 0
 183 0016 516A     		ldr	r1, [r2, #36]
 184              		.loc 1 146 0
 185 0018 2368     		ldr	r3, [r4, #0]
 186              		.loc 1 144 0
 187 001a 481C     		adds	r0, r1, #1
 188 001c 5062     		str	r0, [r2, #36]
 189              		.loc 1 146 0
 190 001e E168     		ldr	r1, [r4, #12]
 191 0020 481C     		adds	r0, r1, #1
 192 0022 A342     		cmp	r3, r4
 193 0024 E060     		str	r0, [r4, #12]
 194 0026 0FD0     		beq	.L9
 195              	.LBB3:
 196              		.loc 1 146 0 is_stmt 0 discriminator 1
 197 0028 9D68     		ldr	r5, [r3, #8]
 198 002a 013D     		subs	r5, r5, #1
 199 002c 9D60     		str	r5, [r3, #8]
 200              	.LVL6:
 201 002e 5DB9     		cbnz	r5, .L9
 202              		.loc 1 146 0
 203 0030 2646     		mov	r6, r4
 204              	.LVL7:
 205              	.L12:
 206              	.LBB4:
 207              		.loc 1 146 0 discriminator 3
 208 0032 1968     		ldr	r1, [r3, #0]
 209 0034 DA68     		ldr	r2, [r3, #12]
 210              	.LVL8:
 211 0036 1869     		ldr	r0, [r3, #16]
 212 0038 DD60     		str	r5, [r3, #12]
 213 003a 4E60     		str	r6, [r1, #4]
 214 003c 2160     		str	r1, [r4, #0]
 215 003e 9047     		blx	r2
 216              	.LVL9:
 217              	.LBE4:
 218 0040 2368     		ldr	r3, [r4, #0]
 219              	.LVL10:
 220 0042 9868     		ldr	r0, [r3, #8]
 221 0044 0028     		cmp	r0, #0
 222 0046 F4D0     		beq	.L12
ARM GAS  /tmp/ccrfM572.s 			page 5


 223              	.LVL11:
 224              	.L9:
 225 0048 70BD     		pop	{r4, r5, r6, pc}
 226              	.L15:
 227 004a 00BF     		.align	2
 228              	.L14:
 229 004c 00000000 		.word	rlist
 230 0050 00000000 		.word	vtlist
 231              	.LBE3:
 232              		.cfi_endproc
 233              	.LFE9:
 234              		.size	chSysTimerHandlerI, .-chSysTimerHandlerI
 235              		.global	_idle_thread_wa
 236 0054 AFF30080 		.section	.bss.mainthread.4646,"aw",%nobits
 236      AFF30080 
 236      AFF30080 
 237              		.align	2
 238              		.set	.LANCHOR0,. + 0
 239              		.type	mainthread.4646, %object
 240              		.size	mainthread.4646, 72
 241              	mainthread.4646:
 242 0000 00000000 		.space	72
 242      00000000 
 242      00000000 
 242      00000000 
 242      00000000 
 243              		.section	.rodata.str1.4,"aMS",%progbits,1
 244              		.align	2
 245              	.LC0:
 246 0000 69646C65 		.ascii	"idle\000"
 246      00
 247 0005 000000   		.space	3
 248              	.LC1:
 249 0008 6D61696E 		.ascii	"main\000"
 249      00
 250 000d 000000   		.section	.bss._idle_thread_wa,"aw",%nobits
 251              		.align	3
 252              		.set	.LANCHOR1,. + 0
 253              		.type	_idle_thread_wa, %object
 254              		.size	_idle_thread_wa, 192
 255              	_idle_thread_wa:
 256 0000 00000000 		.space	192
 256      00000000 
 256      00000000 
 256      00000000 
 256      00000000 
 257              		.text
 258              	.Letext0:
 259              		.section	.debug_loc,"",%progbits
 260              	.Ldebug_loc0:
 261              	.LLST0:
 262 0000 00000000 		.4byte	.LVL0
 263 0004 02000000 		.4byte	.LVL1
 264 0008 0100     		.2byte	0x1
 265 000a 50       		.byte	0x50
 266 000b 00000000 		.4byte	0x0
 267 000f 00000000 		.4byte	0x0
ARM GAS  /tmp/ccrfM572.s 			page 6


 268              	.LLST1:
 269 0013 00000000 		.4byte	.LFB8
 270 0017 02000000 		.4byte	.LCFI0
 271 001b 0200     		.2byte	0x2
 272 001d 7D       		.byte	0x7d
 273 001e 00       		.sleb128 0
 274 001f 02000000 		.4byte	.LCFI0
 275 0023 04000000 		.4byte	.LCFI1
 276 0027 0200     		.2byte	0x2
 277 0029 7D       		.byte	0x7d
 278 002a 0C       		.sleb128 12
 279 002b 04000000 		.4byte	.LCFI1
 280 002f 6C000000 		.4byte	.LFE8
 281 0033 0200     		.2byte	0x2
 282 0035 7D       		.byte	0x7d
 283 0036 18       		.sleb128 24
 284 0037 00000000 		.4byte	0x0
 285 003b 00000000 		.4byte	0x0
 286              	.LLST2:
 287 003f 3A000000 		.4byte	.LVL3
 288 0043 40000000 		.4byte	.LVL4
 289 0047 0100     		.2byte	0x1
 290 0049 53       		.byte	0x53
 291 004a 4C000000 		.4byte	.LVL5
 292 004e 6C000000 		.4byte	.LFE8
 293 0052 0100     		.2byte	0x1
 294 0054 55       		.byte	0x55
 295 0055 00000000 		.4byte	0x0
 296 0059 00000000 		.4byte	0x0
 297              	.LLST3:
 298 005d 00000000 		.4byte	.LFB9
 299 0061 02000000 		.4byte	.LCFI2
 300 0065 0200     		.2byte	0x2
 301 0067 7D       		.byte	0x7d
 302 0068 00       		.sleb128 0
 303 0069 02000000 		.4byte	.LCFI2
 304 006d 54000000 		.4byte	.LFE9
 305 0071 0200     		.2byte	0x2
 306 0073 7D       		.byte	0x7d
 307 0074 10       		.sleb128 16
 308 0075 00000000 		.4byte	0x0
 309 0079 00000000 		.4byte	0x0
 310              	.LLST4:
 311 007d 2E000000 		.4byte	.LVL6
 312 0081 32000000 		.4byte	.LVL7
 313 0085 0200     		.2byte	0x2
 314 0087 74       		.byte	0x74
 315 0088 00       		.sleb128 0
 316 0089 32000000 		.4byte	.LVL7
 317 008d 3F000000 		.4byte	.LVL9-1
 318 0091 0100     		.2byte	0x1
 319 0093 53       		.byte	0x53
 320 0094 42000000 		.4byte	.LVL10
 321 0098 48000000 		.4byte	.LVL11
 322 009c 0200     		.2byte	0x2
 323 009e 74       		.byte	0x74
 324 009f 00       		.sleb128 0
ARM GAS  /tmp/ccrfM572.s 			page 7


 325 00a0 00000000 		.4byte	0x0
 326 00a4 00000000 		.4byte	0x0
 327              	.LLST5:
 328 00a8 36000000 		.4byte	.LVL8
 329 00ac 3F000000 		.4byte	.LVL9-1
 330 00b0 0200     		.2byte	0x2
 331 00b2 73       		.byte	0x73
 332 00b3 0C       		.sleb128 12
 333 00b4 00000000 		.4byte	0x0
 334 00b8 00000000 		.4byte	0x0
 335              		.file 2 "/home/z80/programs/code-sourcery/2011.03-42/bin/../lib/gcc/arm-none-eabi/4.5.2/../../../.
 336              		.file 3 "../chibios_2.4.x/os/ports/GCC/ARMCMx/chtypes.h"
 337              		.file 4 "../chibios_2.4.x/os/kernel/include/chlists.h"
 338              		.file 5 "../chibios_2.4.x/os/kernel/include/chthreads.h"
 339              		.file 6 "../chibios_2.4.x/os/ports/GCC/ARMCMx/chcore_v7m.h"
 340              		.file 7 "../chibios_2.4.x/os/kernel/include/chvt.h"
 341              		.file 8 "../chibios_2.4.x/os/kernel/include/chschd.h"
 342              		.file 9 "../chibios_2.4.x/os/kernel/include/chmtx.h"
 343              		.file 10 "../chibios_2.4.x/os/kernel/include/ch.h"
 344              		.section	.debug_info
 345 0000 4F060000 		.4byte	0x64f
 346 0004 0200     		.2byte	0x2
 347 0006 00000000 		.4byte	.Ldebug_abbrev0
 348 000a 04       		.byte	0x4
 349 000b 01       		.uleb128 0x1
 350 000c 18030000 		.4byte	.LASF79
 351 0010 01       		.byte	0x1
 352 0011 80020000 		.4byte	.LASF80
 353 0015 D1020000 		.4byte	.LASF81
 354 0019 00000000 		.4byte	0x0
 355 001d 00000000 		.4byte	0x0
 356 0021 00000000 		.4byte	.Ldebug_ranges0+0x0
 357 0025 00000000 		.4byte	.Ldebug_line0
 358 0029 02       		.uleb128 0x2
 359 002a 04       		.byte	0x4
 360 002b 05       		.byte	0x5
 361 002c 696E7400 		.ascii	"int\000"
 362 0030 03       		.uleb128 0x3
 363 0031 04       		.byte	0x4
 364 0032 07       		.byte	0x7
 365 0033 EA000000 		.4byte	.LASF0
 366 0037 03       		.uleb128 0x3
 367 0038 01       		.byte	0x1
 368 0039 06       		.byte	0x6
 369 003a 78000000 		.4byte	.LASF1
 370 003e 04       		.uleb128 0x4
 371 003f 09030000 		.4byte	.LASF5
 372 0043 02       		.byte	0x2
 373 0044 2A       		.byte	0x2a
 374 0045 49000000 		.4byte	0x49
 375 0049 03       		.uleb128 0x3
 376 004a 01       		.byte	0x1
 377 004b 08       		.byte	0x8
 378 004c C4010000 		.4byte	.LASF2
 379 0050 03       		.uleb128 0x3
 380 0051 02       		.byte	0x2
 381 0052 05       		.byte	0x5
ARM GAS  /tmp/ccrfM572.s 			page 8


 382 0053 DC010000 		.4byte	.LASF3
 383 0057 03       		.uleb128 0x3
 384 0058 02       		.byte	0x2
 385 0059 07       		.byte	0x7
 386 005a 19010000 		.4byte	.LASF4
 387 005e 04       		.uleb128 0x4
 388 005f BC010000 		.4byte	.LASF6
 389 0063 02       		.byte	0x2
 390 0064 4F       		.byte	0x4f
 391 0065 69000000 		.4byte	0x69
 392 0069 03       		.uleb128 0x3
 393 006a 04       		.byte	0x4
 394 006b 05       		.byte	0x5
 395 006c 96000000 		.4byte	.LASF7
 396 0070 04       		.uleb128 0x4
 397 0071 1D020000 		.4byte	.LASF8
 398 0075 02       		.byte	0x2
 399 0076 50       		.byte	0x50
 400 0077 7B000000 		.4byte	0x7b
 401 007b 03       		.uleb128 0x3
 402 007c 04       		.byte	0x4
 403 007d 07       		.byte	0x7
 404 007e FF000000 		.4byte	.LASF9
 405 0082 03       		.uleb128 0x3
 406 0083 08       		.byte	0x8
 407 0084 05       		.byte	0x5
 408 0085 6A000000 		.4byte	.LASF10
 409 0089 04       		.uleb128 0x4
 410 008a 15000000 		.4byte	.LASF11
 411 008e 02       		.byte	0x2
 412 008f 78       		.byte	0x78
 413 0090 94000000 		.4byte	0x94
 414 0094 03       		.uleb128 0x3
 415 0095 08       		.byte	0x8
 416 0096 07       		.byte	0x7
 417 0097 38000000 		.4byte	.LASF12
 418 009b 04       		.uleb128 0x4
 419 009c 32010000 		.4byte	.LASF13
 420 00a0 03       		.byte	0x3
 421 00a1 2F       		.byte	0x2f
 422 00a2 3E000000 		.4byte	0x3e
 423 00a6 04       		.uleb128 0x4
 424 00a7 9F000000 		.4byte	.LASF14
 425 00ab 03       		.byte	0x3
 426 00ac 30       		.byte	0x30
 427 00ad 3E000000 		.4byte	0x3e
 428 00b1 04       		.uleb128 0x4
 429 00b2 B4010000 		.4byte	.LASF15
 430 00b6 03       		.byte	0x3
 431 00b7 32       		.byte	0x32
 432 00b8 70000000 		.4byte	0x70
 433 00bc 04       		.uleb128 0x4
 434 00bd 2C010000 		.4byte	.LASF16
 435 00c1 03       		.byte	0x3
 436 00c2 33       		.byte	0x33
 437 00c3 5E000000 		.4byte	0x5e
 438 00c7 04       		.uleb128 0x4
ARM GAS  /tmp/ccrfM572.s 			page 9


 439 00c8 46010000 		.4byte	.LASF17
 440 00cc 03       		.byte	0x3
 441 00cd 35       		.byte	0x35
 442 00ce 70000000 		.4byte	0x70
 443 00d2 04       		.uleb128 0x4
 444 00d3 62020000 		.4byte	.LASF18
 445 00d7 03       		.byte	0x3
 446 00d8 36       		.byte	0x36
 447 00d9 70000000 		.4byte	0x70
 448 00dd 04       		.uleb128 0x4
 449 00de D9000000 		.4byte	.LASF19
 450 00e2 03       		.byte	0x3
 451 00e3 37       		.byte	0x37
 452 00e4 5E000000 		.4byte	0x5e
 453 00e8 04       		.uleb128 0x4
 454 00e9 0B020000 		.4byte	.LASF20
 455 00ed 04       		.byte	0x4
 456 00ee 2A       		.byte	0x2a
 457 00ef F3000000 		.4byte	0xf3
 458 00f3 05       		.uleb128 0x5
 459 00f4 0B020000 		.4byte	.LASF20
 460 00f8 48       		.byte	0x48
 461 00f9 05       		.byte	0x5
 462 00fa 5E       		.byte	0x5e
 463 00fb FC010000 		.4byte	0x1fc
 464 00ff 06       		.uleb128 0x6
 465 0100 FC010000 		.4byte	.LASF21
 466 0104 05       		.byte	0x5
 467 0105 5F       		.byte	0x5f
 468 0106 21020000 		.4byte	0x221
 469 010a 02       		.byte	0x2
 470 010b 23       		.byte	0x23
 471 010c 00       		.uleb128 0x0
 472 010d 06       		.uleb128 0x6
 473 010e AD010000 		.4byte	.LASF22
 474 0112 05       		.byte	0x5
 475 0113 61       		.byte	0x61
 476 0114 21020000 		.4byte	0x221
 477 0118 02       		.byte	0x2
 478 0119 23       		.byte	0x23
 479 011a 04       		.uleb128 0x4
 480 011b 06       		.uleb128 0x6
 481 011c 63000000 		.4byte	.LASF23
 482 0120 05       		.byte	0x5
 483 0121 63       		.byte	0x63
 484 0122 B1000000 		.4byte	0xb1
 485 0126 02       		.byte	0x2
 486 0127 23       		.byte	0x23
 487 0128 08       		.uleb128 0x8
 488 0129 06       		.uleb128 0x6
 489 012a 4F030000 		.4byte	.LASF24
 490 012e 05       		.byte	0x5
 491 012f 64       		.byte	0x64
 492 0130 F9020000 		.4byte	0x2f9
 493 0134 02       		.byte	0x2
 494 0135 23       		.byte	0x23
 495 0136 0C       		.uleb128 0xc
ARM GAS  /tmp/ccrfM572.s 			page 10


 496 0137 06       		.uleb128 0x6
 497 0138 A8000000 		.4byte	.LASF25
 498 013c 05       		.byte	0x5
 499 013d 66       		.byte	0x66
 500 013e 21020000 		.4byte	0x221
 501 0142 02       		.byte	0x2
 502 0143 23       		.byte	0x23
 503 0144 10       		.uleb128 0x10
 504 0145 06       		.uleb128 0x6
 505 0146 73010000 		.4byte	.LASF26
 506 014a 05       		.byte	0x5
 507 014b 67       		.byte	0x67
 508 014c 21020000 		.4byte	0x221
 509 0150 02       		.byte	0x2
 510 0151 23       		.byte	0x23
 511 0152 14       		.uleb128 0x14
 512 0153 06       		.uleb128 0x6
 513 0154 24030000 		.4byte	.LASF27
 514 0158 05       		.byte	0x5
 515 0159 6E       		.byte	0x6e
 516 015a E1040000 		.4byte	0x4e1
 517 015e 02       		.byte	0x2
 518 015f 23       		.byte	0x23
 519 0160 18       		.uleb128 0x18
 520 0161 06       		.uleb128 0x6
 521 0162 DF000000 		.4byte	.LASF28
 522 0166 05       		.byte	0x5
 523 0167 74       		.byte	0x74
 524 0168 F3040000 		.4byte	0x4f3
 525 016c 02       		.byte	0x2
 526 016d 23       		.byte	0x23
 527 016e 1C       		.uleb128 0x1c
 528 016f 06       		.uleb128 0x6
 529 0170 E6010000 		.4byte	.LASF29
 530 0174 05       		.byte	0x5
 531 0175 79       		.byte	0x79
 532 0176 A6000000 		.4byte	0xa6
 533 017a 02       		.byte	0x2
 534 017b 23       		.byte	0x23
 535 017c 20       		.uleb128 0x20
 536 017d 06       		.uleb128 0x6
 537 017e 03020000 		.4byte	.LASF30
 538 0182 05       		.byte	0x5
 539 0183 7D       		.byte	0x7d
 540 0184 9B000000 		.4byte	0x9b
 541 0188 02       		.byte	0x2
 542 0189 23       		.byte	0x23
 543 018a 21       		.uleb128 0x21
 544 018b 06       		.uleb128 0x6
 545 018c A7020000 		.4byte	.LASF31
 546 0190 05       		.byte	0x5
 547 0191 89       		.byte	0x89
 548 0192 DE030000 		.4byte	0x3de
 549 0196 02       		.byte	0x2
 550 0197 23       		.byte	0x23
 551 0198 24       		.uleb128 0x24
 552 0199 07       		.uleb128 0x7
ARM GAS  /tmp/ccrfM572.s 			page 11


 553 019a 705F7500 		.ascii	"p_u\000"
 554 019e 05       		.byte	0x5
 555 019f AE       		.byte	0xae
 556 01a0 AC040000 		.4byte	0x4ac
 557 01a4 02       		.byte	0x2
 558 01a5 23       		.byte	0x23
 559 01a6 28       		.uleb128 0x28
 560 01a7 06       		.uleb128 0x6
 561 01a8 55030000 		.4byte	.LASF32
 562 01ac 05       		.byte	0x5
 563 01ad B3       		.byte	0xb3
 564 01ae 49020000 		.4byte	0x249
 565 01b2 02       		.byte	0x2
 566 01b3 23       		.byte	0x23
 567 01b4 2C       		.uleb128 0x2c
 568 01b5 06       		.uleb128 0x6
 569 01b6 B5020000 		.4byte	.LASF33
 570 01ba 05       		.byte	0x5
 571 01bb B9       		.byte	0xb9
 572 01bc 27020000 		.4byte	0x227
 573 01c0 02       		.byte	0x2
 574 01c1 23       		.byte	0x23
 575 01c2 30       		.uleb128 0x30
 576 01c3 06       		.uleb128 0x6
 577 01c4 08000000 		.4byte	.LASF34
 578 01c8 05       		.byte	0x5
 579 01c9 BD       		.byte	0xbd
 580 01ca BC000000 		.4byte	0xbc
 581 01ce 02       		.byte	0x2
 582 01cf 23       		.byte	0x23
 583 01d0 38       		.uleb128 0x38
 584 01d1 06       		.uleb128 0x6
 585 01d2 12020000 		.4byte	.LASF35
 586 01d6 05       		.byte	0x5
 587 01d7 C3       		.byte	0xc3
 588 01d8 C7000000 		.4byte	0xc7
 589 01dc 02       		.byte	0x2
 590 01dd 23       		.byte	0x23
 591 01de 3C       		.uleb128 0x3c
 592 01df 06       		.uleb128 0x6
 593 01e0 D2010000 		.4byte	.LASF36
 594 01e4 05       		.byte	0x5
 595 01e5 CA       		.byte	0xca
 596 01e6 F9040000 		.4byte	0x4f9
 597 01ea 02       		.byte	0x2
 598 01eb 23       		.byte	0x23
 599 01ec 40       		.uleb128 0x40
 600 01ed 06       		.uleb128 0x6
 601 01ee 6C020000 		.4byte	.LASF37
 602 01f2 05       		.byte	0x5
 603 01f3 CE       		.byte	0xce
 604 01f4 B1000000 		.4byte	0xb1
 605 01f8 02       		.byte	0x2
 606 01f9 23       		.byte	0x23
 607 01fa 44       		.uleb128 0x44
 608 01fb 00       		.byte	0x0
 609 01fc 08       		.uleb128 0x8
ARM GAS  /tmp/ccrfM572.s 			page 12


 610 01fd 08       		.byte	0x8
 611 01fe 04       		.byte	0x4
 612 01ff 61       		.byte	0x61
 613 0200 21020000 		.4byte	0x221
 614 0204 06       		.uleb128 0x6
 615 0205 FC010000 		.4byte	.LASF21
 616 0209 04       		.byte	0x4
 617 020a 62       		.byte	0x62
 618 020b 21020000 		.4byte	0x221
 619 020f 02       		.byte	0x2
 620 0210 23       		.byte	0x23
 621 0211 00       		.uleb128 0x0
 622 0212 06       		.uleb128 0x6
 623 0213 AD010000 		.4byte	.LASF22
 624 0217 04       		.byte	0x4
 625 0218 64       		.byte	0x64
 626 0219 21020000 		.4byte	0x221
 627 021d 02       		.byte	0x2
 628 021e 23       		.byte	0x23
 629 021f 04       		.uleb128 0x4
 630 0220 00       		.byte	0x0
 631 0221 09       		.uleb128 0x9
 632 0222 04       		.byte	0x4
 633 0223 E8000000 		.4byte	0xe8
 634 0227 04       		.uleb128 0x4
 635 0228 81010000 		.4byte	.LASF38
 636 022c 04       		.byte	0x4
 637 022d 66       		.byte	0x66
 638 022e FC010000 		.4byte	0x1fc
 639 0232 08       		.uleb128 0x8
 640 0233 04       		.byte	0x4
 641 0234 04       		.byte	0x4
 642 0235 6B       		.byte	0x6b
 643 0236 49020000 		.4byte	0x249
 644 023a 06       		.uleb128 0x6
 645 023b FC010000 		.4byte	.LASF21
 646 023f 04       		.byte	0x4
 647 0240 6D       		.byte	0x6d
 648 0241 21020000 		.4byte	0x221
 649 0245 02       		.byte	0x2
 650 0246 23       		.byte	0x23
 651 0247 00       		.uleb128 0x0
 652 0248 00       		.byte	0x0
 653 0249 04       		.uleb128 0x4
 654 024a 3A010000 		.4byte	.LASF39
 655 024e 04       		.byte	0x4
 656 024f 70       		.byte	0x70
 657 0250 32020000 		.4byte	0x232
 658 0254 04       		.uleb128 0x4
 659 0255 C8000000 		.4byte	.LASF40
 660 0259 06       		.byte	0x6
 661 025a D7       		.byte	0xd7
 662 025b 5F020000 		.4byte	0x25f
 663 025f 0A       		.uleb128 0xa
 664 0260 04       		.byte	0x4
 665 0261 04       		.uleb128 0x4
 666 0262 58010000 		.4byte	.LASF41
ARM GAS  /tmp/ccrfM572.s 			page 13


 667 0266 06       		.byte	0x6
 668 0267 DD       		.byte	0xdd
 669 0268 89000000 		.4byte	0x89
 670 026c 05       		.uleb128 0x5
 671 026d AE020000 		.4byte	.LASF42
 672 0271 24       		.byte	0x24
 673 0272 06       		.byte	0x6
 674 0273 FE       		.byte	0xfe
 675 0274 F9020000 		.4byte	0x2f9
 676 0278 0B       		.uleb128 0xb
 677 0279 723400   		.ascii	"r4\000"
 678 027c 06       		.byte	0x6
 679 027d 1101     		.2byte	0x111
 680 027f 54020000 		.4byte	0x254
 681 0283 02       		.byte	0x2
 682 0284 23       		.byte	0x23
 683 0285 00       		.uleb128 0x0
 684 0286 0B       		.uleb128 0xb
 685 0287 723500   		.ascii	"r5\000"
 686 028a 06       		.byte	0x6
 687 028b 1201     		.2byte	0x112
 688 028d 54020000 		.4byte	0x254
 689 0291 02       		.byte	0x2
 690 0292 23       		.byte	0x23
 691 0293 04       		.uleb128 0x4
 692 0294 0B       		.uleb128 0xb
 693 0295 723600   		.ascii	"r6\000"
 694 0298 06       		.byte	0x6
 695 0299 1301     		.2byte	0x113
 696 029b 54020000 		.4byte	0x254
 697 029f 02       		.byte	0x2
 698 02a0 23       		.byte	0x23
 699 02a1 08       		.uleb128 0x8
 700 02a2 0B       		.uleb128 0xb
 701 02a3 723700   		.ascii	"r7\000"
 702 02a6 06       		.byte	0x6
 703 02a7 1401     		.2byte	0x114
 704 02a9 54020000 		.4byte	0x254
 705 02ad 02       		.byte	0x2
 706 02ae 23       		.byte	0x23
 707 02af 0C       		.uleb128 0xc
 708 02b0 0B       		.uleb128 0xb
 709 02b1 723800   		.ascii	"r8\000"
 710 02b4 06       		.byte	0x6
 711 02b5 1501     		.2byte	0x115
 712 02b7 54020000 		.4byte	0x254
 713 02bb 02       		.byte	0x2
 714 02bc 23       		.byte	0x23
 715 02bd 10       		.uleb128 0x10
 716 02be 0B       		.uleb128 0xb
 717 02bf 723900   		.ascii	"r9\000"
 718 02c2 06       		.byte	0x6
 719 02c3 1601     		.2byte	0x116
 720 02c5 54020000 		.4byte	0x254
 721 02c9 02       		.byte	0x2
 722 02ca 23       		.byte	0x23
 723 02cb 14       		.uleb128 0x14
ARM GAS  /tmp/ccrfM572.s 			page 14


 724 02cc 0B       		.uleb128 0xb
 725 02cd 72313000 		.ascii	"r10\000"
 726 02d1 06       		.byte	0x6
 727 02d2 1701     		.2byte	0x117
 728 02d4 54020000 		.4byte	0x254
 729 02d8 02       		.byte	0x2
 730 02d9 23       		.byte	0x23
 731 02da 18       		.uleb128 0x18
 732 02db 0B       		.uleb128 0xb
 733 02dc 72313100 		.ascii	"r11\000"
 734 02e0 06       		.byte	0x6
 735 02e1 1801     		.2byte	0x118
 736 02e3 54020000 		.4byte	0x254
 737 02e7 02       		.byte	0x2
 738 02e8 23       		.byte	0x23
 739 02e9 1C       		.uleb128 0x1c
 740 02ea 0B       		.uleb128 0xb
 741 02eb 6C7200   		.ascii	"lr\000"
 742 02ee 06       		.byte	0x6
 743 02ef 1901     		.2byte	0x119
 744 02f1 54020000 		.4byte	0x254
 745 02f5 02       		.byte	0x2
 746 02f6 23       		.byte	0x23
 747 02f7 20       		.uleb128 0x20
 748 02f8 00       		.byte	0x0
 749 02f9 0C       		.uleb128 0xc
 750 02fa 11010000 		.4byte	.LASF43
 751 02fe 04       		.byte	0x4
 752 02ff 06       		.byte	0x6
 753 0300 2301     		.2byte	0x123
 754 0302 16030000 		.4byte	0x316
 755 0306 0B       		.uleb128 0xb
 756 0307 72313300 		.ascii	"r13\000"
 757 030b 06       		.byte	0x6
 758 030c 2401     		.2byte	0x124
 759 030e 16030000 		.4byte	0x316
 760 0312 02       		.byte	0x2
 761 0313 23       		.byte	0x23
 762 0314 00       		.uleb128 0x0
 763 0315 00       		.byte	0x0
 764 0316 09       		.uleb128 0x9
 765 0317 04       		.byte	0x4
 766 0318 6C020000 		.4byte	0x26c
 767 031c 04       		.uleb128 0x4
 768 031d 77020000 		.4byte	.LASF44
 769 0321 07       		.byte	0x7
 770 0322 53       		.byte	0x53
 771 0323 27030000 		.4byte	0x327
 772 0327 09       		.uleb128 0x9
 773 0328 04       		.byte	0x4
 774 0329 2D030000 		.4byte	0x32d
 775 032d 0D       		.uleb128 0xd
 776 032e 01       		.byte	0x1
 777 032f 39030000 		.4byte	0x339
 778 0333 0E       		.uleb128 0xe
 779 0334 5F020000 		.4byte	0x25f
 780 0338 00       		.byte	0x0
ARM GAS  /tmp/ccrfM572.s 			page 15


 781 0339 04       		.uleb128 0x4
 782 033a 2E020000 		.4byte	.LASF45
 783 033e 07       		.byte	0x7
 784 033f 58       		.byte	0x58
 785 0340 44030000 		.4byte	0x344
 786 0344 05       		.uleb128 0x5
 787 0345 2E020000 		.4byte	.LASF45
 788 0349 14       		.byte	0x14
 789 034a 07       		.byte	0x7
 790 034b 5F       		.byte	0x5f
 791 034c 97030000 		.4byte	0x397
 792 0350 06       		.uleb128 0x6
 793 0351 F7000000 		.4byte	.LASF46
 794 0355 07       		.byte	0x7
 795 0356 60       		.byte	0x60
 796 0357 97030000 		.4byte	0x397
 797 035b 02       		.byte	0x2
 798 035c 23       		.byte	0x23
 799 035d 00       		.uleb128 0x0
 800 035e 06       		.uleb128 0x6
 801 035f D1000000 		.4byte	.LASF47
 802 0363 07       		.byte	0x7
 803 0364 62       		.byte	0x62
 804 0365 97030000 		.4byte	0x397
 805 0369 02       		.byte	0x2
 806 036a 23       		.byte	0x23
 807 036b 04       		.uleb128 0x4
 808 036c 06       		.uleb128 0x6
 809 036d 63010000 		.4byte	.LASF48
 810 0371 07       		.byte	0x7
 811 0372 64       		.byte	0x64
 812 0373 D2000000 		.4byte	0xd2
 813 0377 02       		.byte	0x2
 814 0378 23       		.byte	0x23
 815 0379 08       		.uleb128 0x8
 816 037a 06       		.uleb128 0x6
 817 037b 6B010000 		.4byte	.LASF49
 818 037f 07       		.byte	0x7
 819 0380 65       		.byte	0x65
 820 0381 1C030000 		.4byte	0x31c
 821 0385 02       		.byte	0x2
 822 0386 23       		.byte	0x23
 823 0387 0C       		.uleb128 0xc
 824 0388 06       		.uleb128 0x6
 825 0389 C0020000 		.4byte	.LASF50
 826 038d 07       		.byte	0x7
 827 038e 67       		.byte	0x67
 828 038f 5F020000 		.4byte	0x25f
 829 0393 02       		.byte	0x2
 830 0394 23       		.byte	0x23
 831 0395 10       		.uleb128 0x10
 832 0396 00       		.byte	0x0
 833 0397 09       		.uleb128 0x9
 834 0398 04       		.byte	0x4
 835 0399 39030000 		.4byte	0x339
 836 039d 08       		.uleb128 0x8
 837 039e 10       		.byte	0x10
ARM GAS  /tmp/ccrfM572.s 			page 16


 838 039f 07       		.byte	0x7
 839 03a0 71       		.byte	0x71
 840 03a1 DE030000 		.4byte	0x3de
 841 03a5 06       		.uleb128 0x6
 842 03a6 F7000000 		.4byte	.LASF46
 843 03aa 07       		.byte	0x7
 844 03ab 72       		.byte	0x72
 845 03ac 97030000 		.4byte	0x397
 846 03b0 02       		.byte	0x2
 847 03b1 23       		.byte	0x23
 848 03b2 00       		.uleb128 0x0
 849 03b3 06       		.uleb128 0x6
 850 03b4 D1000000 		.4byte	.LASF47
 851 03b8 07       		.byte	0x7
 852 03b9 74       		.byte	0x74
 853 03ba 97030000 		.4byte	0x397
 854 03be 02       		.byte	0x2
 855 03bf 23       		.byte	0x23
 856 03c0 04       		.uleb128 0x4
 857 03c1 06       		.uleb128 0x6
 858 03c2 63010000 		.4byte	.LASF48
 859 03c6 07       		.byte	0x7
 860 03c7 76       		.byte	0x76
 861 03c8 D2000000 		.4byte	0xd2
 862 03cc 02       		.byte	0x2
 863 03cd 23       		.byte	0x23
 864 03ce 08       		.uleb128 0x8
 865 03cf 06       		.uleb128 0x6
 866 03d0 2B030000 		.4byte	.LASF51
 867 03d4 07       		.byte	0x7
 868 03d5 77       		.byte	0x77
 869 03d6 DE030000 		.4byte	0x3de
 870 03da 02       		.byte	0x2
 871 03db 23       		.byte	0x23
 872 03dc 0C       		.uleb128 0xc
 873 03dd 00       		.byte	0x0
 874 03de 0F       		.uleb128 0xf
 875 03df D2000000 		.4byte	0xd2
 876 03e3 04       		.uleb128 0x4
 877 03e4 36030000 		.4byte	.LASF52
 878 03e8 07       		.byte	0x7
 879 03e9 78       		.byte	0x78
 880 03ea 9D030000 		.4byte	0x39d
 881 03ee 08       		.uleb128 0x8
 882 03ef 20       		.byte	0x20
 883 03f0 08       		.byte	0x8
 884 03f1 5E       		.byte	0x5e
 885 03f2 59040000 		.4byte	0x459
 886 03f6 06       		.uleb128 0x6
 887 03f7 26020000 		.4byte	.LASF53
 888 03fb 08       		.byte	0x8
 889 03fc 5F       		.byte	0x5f
 890 03fd 27020000 		.4byte	0x227
 891 0401 02       		.byte	0x2
 892 0402 23       		.byte	0x23
 893 0403 00       		.uleb128 0x0
 894 0404 06       		.uleb128 0x6
ARM GAS  /tmp/ccrfM572.s 			page 17


 895 0405 EE010000 		.4byte	.LASF54
 896 0409 08       		.byte	0x8
 897 040a 60       		.byte	0x60
 898 040b B1000000 		.4byte	0xb1
 899 040f 02       		.byte	0x2
 900 0410 23       		.byte	0x23
 901 0411 08       		.uleb128 0x8
 902 0412 06       		.uleb128 0x6
 903 0413 7B010000 		.4byte	.LASF55
 904 0417 08       		.byte	0x8
 905 0418 62       		.byte	0x62
 906 0419 F9020000 		.4byte	0x2f9
 907 041d 02       		.byte	0x2
 908 041e 23       		.byte	0x23
 909 041f 0C       		.uleb128 0xc
 910 0420 06       		.uleb128 0x6
 911 0421 C0000000 		.4byte	.LASF56
 912 0425 08       		.byte	0x8
 913 0426 65       		.byte	0x65
 914 0427 21020000 		.4byte	0x221
 915 042b 02       		.byte	0x2
 916 042c 23       		.byte	0x23
 917 042d 10       		.uleb128 0x10
 918 042e 06       		.uleb128 0x6
 919 042f 98010000 		.4byte	.LASF57
 920 0433 08       		.byte	0x8
 921 0434 66       		.byte	0x66
 922 0435 21020000 		.4byte	0x221
 923 0439 02       		.byte	0x2
 924 043a 23       		.byte	0x23
 925 043b 14       		.uleb128 0x14
 926 043c 06       		.uleb128 0x6
 927 043d 3D030000 		.4byte	.LASF58
 928 0441 08       		.byte	0x8
 929 0442 6A       		.byte	0x6a
 930 0443 DD000000 		.4byte	0xdd
 931 0447 02       		.byte	0x2
 932 0448 23       		.byte	0x23
 933 0449 18       		.uleb128 0x18
 934 044a 06       		.uleb128 0x6
 935 044b 8E010000 		.4byte	.LASF59
 936 044f 08       		.byte	0x8
 937 0450 6C       		.byte	0x6c
 938 0451 21020000 		.4byte	0x221
 939 0455 02       		.byte	0x2
 940 0456 23       		.byte	0x23
 941 0457 1C       		.uleb128 0x1c
 942 0458 00       		.byte	0x0
 943 0459 04       		.uleb128 0x4
 944 045a C7020000 		.4byte	.LASF60
 945 045e 08       		.byte	0x8
 946 045f 6E       		.byte	0x6e
 947 0460 EE030000 		.4byte	0x3ee
 948 0464 05       		.uleb128 0x5
 949 0465 52010000 		.4byte	.LASF61
 950 0469 10       		.byte	0x10
 951 046a 09       		.byte	0x9
ARM GAS  /tmp/ccrfM572.s 			page 18


 952 046b 2C       		.byte	0x2c
 953 046c 9B040000 		.4byte	0x49b
 954 0470 06       		.uleb128 0x6
 955 0471 8E000000 		.4byte	.LASF62
 956 0475 09       		.byte	0x9
 957 0476 2D       		.byte	0x2d
 958 0477 27020000 		.4byte	0x227
 959 047b 02       		.byte	0x2
 960 047c 23       		.byte	0x23
 961 047d 00       		.uleb128 0x0
 962 047e 06       		.uleb128 0x6
 963 047f 47030000 		.4byte	.LASF63
 964 0483 09       		.byte	0x9
 965 0484 2F       		.byte	0x2f
 966 0485 21020000 		.4byte	0x221
 967 0489 02       		.byte	0x2
 968 048a 23       		.byte	0x23
 969 048b 08       		.uleb128 0x8
 970 048c 06       		.uleb128 0x6
 971 048d 5B020000 		.4byte	.LASF64
 972 0491 09       		.byte	0x9
 973 0492 31       		.byte	0x31
 974 0493 9B040000 		.4byte	0x49b
 975 0497 02       		.byte	0x2
 976 0498 23       		.byte	0x23
 977 0499 0C       		.uleb128 0xc
 978 049a 00       		.byte	0x0
 979 049b 09       		.uleb128 0x9
 980 049c 04       		.byte	0x4
 981 049d 64040000 		.4byte	0x464
 982 04a1 04       		.uleb128 0x4
 983 04a2 52010000 		.4byte	.LASF61
 984 04a6 09       		.byte	0x9
 985 04a7 33       		.byte	0x33
 986 04a8 64040000 		.4byte	0x464
 987 04ac 10       		.uleb128 0x10
 988 04ad 04       		.byte	0x4
 989 04ae 05       		.byte	0x5
 990 04af 90       		.byte	0x90
 991 04b0 E1040000 		.4byte	0x4e1
 992 04b4 11       		.uleb128 0x11
 993 04b5 0E000000 		.4byte	.LASF65
 994 04b9 05       		.byte	0x5
 995 04ba 97       		.byte	0x97
 996 04bb BC000000 		.4byte	0xbc
 997 04bf 11       		.uleb128 0x11
 998 04c0 4F000000 		.4byte	.LASF66
 999 04c4 05       		.byte	0x5
 1000 04c5 9E       		.byte	0x9e
 1001 04c6 BC000000 		.4byte	0xbc
 1002 04ca 11       		.uleb128 0x11
 1003 04cb 11030000 		.4byte	.LASF67
 1004 04cf 05       		.byte	0x5
 1005 04d0 A5       		.byte	0xa5
 1006 04d1 5F020000 		.4byte	0x25f
 1007 04d5 11       		.uleb128 0x11
 1008 04d6 F5010000 		.4byte	.LASF68
ARM GAS  /tmp/ccrfM572.s 			page 19


 1009 04da 05       		.byte	0x5
 1010 04db AC       		.byte	0xac
 1011 04dc C7000000 		.4byte	0xc7
 1012 04e0 00       		.byte	0x0
 1013 04e1 09       		.uleb128 0x9
 1014 04e2 04       		.byte	0x4
 1015 04e3 E7040000 		.4byte	0x4e7
 1016 04e7 12       		.uleb128 0x12
 1017 04e8 EC040000 		.4byte	0x4ec
 1018 04ec 03       		.uleb128 0x3
 1019 04ed 01       		.byte	0x1
 1020 04ee 08       		.byte	0x8
 1021 04ef 3B020000 		.4byte	.LASF69
 1022 04f3 09       		.uleb128 0x9
 1023 04f4 04       		.byte	0x4
 1024 04f5 61020000 		.4byte	0x261
 1025 04f9 09       		.uleb128 0x9
 1026 04fa 04       		.byte	0x4
 1027 04fb A1040000 		.4byte	0x4a1
 1028 04ff 04       		.uleb128 0x4
 1029 0500 00000000 		.4byte	.LASF70
 1030 0504 05       		.byte	0x5
 1031 0505 DF       		.byte	0xdf
 1032 0506 0A050000 		.4byte	0x50a
 1033 050a 09       		.uleb128 0x9
 1034 050b 04       		.byte	0x4
 1035 050c 10050000 		.4byte	0x510
 1036 0510 13       		.uleb128 0x13
 1037 0511 01       		.byte	0x1
 1038 0512 BC000000 		.4byte	0xbc
 1039 0516 20050000 		.4byte	0x520
 1040 051a 0E       		.uleb128 0xe
 1041 051b 5F020000 		.4byte	0x25f
 1042 051f 00       		.byte	0x0
 1043 0520 14       		.uleb128 0x14
 1044 0521 01       		.byte	0x1
 1045 0522 A0010000 		.4byte	.LASF71
 1046 0526 01       		.byte	0x1
 1047 0527 3B       		.byte	0x3b
 1048 0528 01       		.byte	0x1
 1049 0529 00000000 		.4byte	.LFB7
 1050 052d 14000000 		.4byte	.LFE7
 1051 0531 02       		.byte	0x2
 1052 0532 7D       		.byte	0x7d
 1053 0533 00       		.sleb128 0
 1054 0534 46050000 		.4byte	0x546
 1055 0538 15       		.uleb128 0x15
 1056 0539 7000     		.ascii	"p\000"
 1057 053b 01       		.byte	0x1
 1058 053c 3B       		.byte	0x3b
 1059 053d 5F020000 		.4byte	0x25f
 1060 0541 00000000 		.4byte	.LLST0
 1061 0545 00       		.byte	0x0
 1062 0546 16       		.uleb128 0x16
 1063 0547 01       		.byte	0x1
 1064 0548 84000000 		.4byte	.LASF72
 1065 054c 01       		.byte	0x1
ARM GAS  /tmp/ccrfM572.s 			page 20


 1066 054d 52       		.byte	0x52
 1067 054e 01       		.byte	0x1
 1068 054f 00000000 		.4byte	.LFB8
 1069 0553 6C000000 		.4byte	.LFE8
 1070 0557 13000000 		.4byte	.LLST1
 1071 055b 97050000 		.4byte	0x597
 1072 055f 17       		.uleb128 0x17
 1073 0560 58000000 		.4byte	.LASF73
 1074 0564 01       		.byte	0x1
 1075 0565 53       		.byte	0x53
 1076 0566 E8000000 		.4byte	0xe8
 1077 056a 05       		.byte	0x5
 1078 056b 03       		.byte	0x3
 1079 056c 00000000 		.4byte	mainthread.4646
 1080 0570 18       		.uleb128 0x18
 1081 0571 40020000 		.4byte	.LASF75
 1082 0575 01       		.byte	0x1
 1083 0576 55       		.byte	0x55
 1084 0577 61020000 		.4byte	0x261
 1085 057b 01       		.byte	0x1
 1086 057c 01       		.byte	0x1
 1087 057d 19       		.uleb128 0x19
 1088 057e 32000000 		.4byte	.LBB2
 1089 0582 3A000000 		.4byte	.LBE2
 1090 0586 1A       		.uleb128 0x1a
 1091 0587 746D7000 		.ascii	"tmp\000"
 1092 058b 01       		.byte	0x1
 1093 058c 6D       		.byte	0x6d
 1094 058d 70000000 		.4byte	0x70
 1095 0591 3F000000 		.4byte	.LLST2
 1096 0595 00       		.byte	0x0
 1097 0596 00       		.byte	0x0
 1098 0597 16       		.uleb128 0x16
 1099 0598 01       		.byte	0x1
 1100 0599 25000000 		.4byte	.LASF74
 1101 059d 01       		.byte	0x1
 1102 059e 85       		.byte	0x85
 1103 059f 01       		.byte	0x1
 1104 05a0 00000000 		.4byte	.LFB9
 1105 05a4 54000000 		.4byte	.LFE9
 1106 05a8 5D000000 		.4byte	.LLST3
 1107 05ac E2050000 		.4byte	0x5e2
 1108 05b0 19       		.uleb128 0x19
 1109 05b1 28000000 		.4byte	.LBB3
 1110 05b5 54000000 		.4byte	.LBE3
 1111 05b9 1A       		.uleb128 0x1a
 1112 05ba 76747000 		.ascii	"vtp\000"
 1113 05be 01       		.byte	0x1
 1114 05bf 92       		.byte	0x92
 1115 05c0 97030000 		.4byte	0x397
 1116 05c4 7D000000 		.4byte	.LLST4
 1117 05c8 19       		.uleb128 0x19
 1118 05c9 32000000 		.4byte	.LBB4
 1119 05cd 40000000 		.4byte	.LBE4
 1120 05d1 1A       		.uleb128 0x1a
 1121 05d2 666E00   		.ascii	"fn\000"
 1122 05d5 01       		.byte	0x1
ARM GAS  /tmp/ccrfM572.s 			page 21


 1123 05d6 92       		.byte	0x92
 1124 05d7 1C030000 		.4byte	0x31c
 1125 05db A8000000 		.4byte	.LLST5
 1126 05df 00       		.byte	0x0
 1127 05e0 00       		.byte	0x0
 1128 05e1 00       		.byte	0x0
 1129 05e2 18       		.uleb128 0x18
 1130 05e3 1E000000 		.4byte	.LASF76
 1131 05e7 07       		.byte	0x7
 1132 05e8 7A       		.byte	0x7a
 1133 05e9 E3030000 		.4byte	0x3e3
 1134 05ed 01       		.byte	0x1
 1135 05ee 01       		.byte	0x1
 1136 05ef 18       		.uleb128 0x18
 1137 05f0 03030000 		.4byte	.LASF77
 1138 05f4 08       		.byte	0x8
 1139 05f5 72       		.byte	0x72
 1140 05f6 59040000 		.4byte	0x459
 1141 05fa 01       		.byte	0x1
 1142 05fb 01       		.byte	0x1
 1143 05fc 1B       		.uleb128 0x1b
 1144 05fd 61020000 		.4byte	0x261
 1145 0601 0C060000 		.4byte	0x60c
 1146 0605 1C       		.uleb128 0x1c
 1147 0606 30000000 		.4byte	0x30
 1148 060a 17       		.byte	0x17
 1149 060b 00       		.byte	0x0
 1150 060c 18       		.uleb128 0x18
 1151 060d B0000000 		.4byte	.LASF78
 1152 0611 0A       		.byte	0xa
 1153 0612 6E       		.byte	0x6e
 1154 0613 FC050000 		.4byte	0x5fc
 1155 0617 01       		.byte	0x1
 1156 0618 01       		.byte	0x1
 1157 0619 18       		.uleb128 0x18
 1158 061a 1E000000 		.4byte	.LASF76
 1159 061e 07       		.byte	0x7
 1160 061f 7A       		.byte	0x7a
 1161 0620 E3030000 		.4byte	0x3e3
 1162 0624 01       		.byte	0x1
 1163 0625 01       		.byte	0x1
 1164 0626 18       		.uleb128 0x18
 1165 0627 03030000 		.4byte	.LASF77
 1166 062b 08       		.byte	0x8
 1167 062c 72       		.byte	0x72
 1168 062d 59040000 		.4byte	0x459
 1169 0631 01       		.byte	0x1
 1170 0632 01       		.byte	0x1
 1171 0633 1D       		.uleb128 0x1d
 1172 0634 B0000000 		.4byte	.LASF78
 1173 0638 01       		.byte	0x1
 1174 0639 2F       		.byte	0x2f
 1175 063a FC050000 		.4byte	0x5fc
 1176 063e 01       		.byte	0x1
 1177 063f 05       		.byte	0x5
 1178 0640 03       		.byte	0x3
 1179 0641 00000000 		.4byte	_idle_thread_wa
ARM GAS  /tmp/ccrfM572.s 			page 22


 1180 0645 18       		.uleb128 0x18
 1181 0646 40020000 		.4byte	.LASF75
 1182 064a 01       		.byte	0x1
 1183 064b 55       		.byte	0x55
 1184 064c 61020000 		.4byte	0x261
 1185 0650 01       		.byte	0x1
 1186 0651 01       		.byte	0x1
 1187 0652 00       		.byte	0x0
 1188              		.section	.debug_abbrev
 1189 0000 01       		.uleb128 0x1
 1190 0001 11       		.uleb128 0x11
 1191 0002 01       		.byte	0x1
 1192 0003 25       		.uleb128 0x25
 1193 0004 0E       		.uleb128 0xe
 1194 0005 13       		.uleb128 0x13
 1195 0006 0B       		.uleb128 0xb
 1196 0007 03       		.uleb128 0x3
 1197 0008 0E       		.uleb128 0xe
 1198 0009 1B       		.uleb128 0x1b
 1199 000a 0E       		.uleb128 0xe
 1200 000b 11       		.uleb128 0x11
 1201 000c 01       		.uleb128 0x1
 1202 000d 52       		.uleb128 0x52
 1203 000e 01       		.uleb128 0x1
 1204 000f 55       		.uleb128 0x55
 1205 0010 06       		.uleb128 0x6
 1206 0011 10       		.uleb128 0x10
 1207 0012 06       		.uleb128 0x6
 1208 0013 00       		.byte	0x0
 1209 0014 00       		.byte	0x0
 1210 0015 02       		.uleb128 0x2
 1211 0016 24       		.uleb128 0x24
 1212 0017 00       		.byte	0x0
 1213 0018 0B       		.uleb128 0xb
 1214 0019 0B       		.uleb128 0xb
 1215 001a 3E       		.uleb128 0x3e
 1216 001b 0B       		.uleb128 0xb
 1217 001c 03       		.uleb128 0x3
 1218 001d 08       		.uleb128 0x8
 1219 001e 00       		.byte	0x0
 1220 001f 00       		.byte	0x0
 1221 0020 03       		.uleb128 0x3
 1222 0021 24       		.uleb128 0x24
 1223 0022 00       		.byte	0x0
 1224 0023 0B       		.uleb128 0xb
 1225 0024 0B       		.uleb128 0xb
 1226 0025 3E       		.uleb128 0x3e
 1227 0026 0B       		.uleb128 0xb
 1228 0027 03       		.uleb128 0x3
 1229 0028 0E       		.uleb128 0xe
 1230 0029 00       		.byte	0x0
 1231 002a 00       		.byte	0x0
 1232 002b 04       		.uleb128 0x4
 1233 002c 16       		.uleb128 0x16
 1234 002d 00       		.byte	0x0
 1235 002e 03       		.uleb128 0x3
 1236 002f 0E       		.uleb128 0xe
ARM GAS  /tmp/ccrfM572.s 			page 23


 1237 0030 3A       		.uleb128 0x3a
 1238 0031 0B       		.uleb128 0xb
 1239 0032 3B       		.uleb128 0x3b
 1240 0033 0B       		.uleb128 0xb
 1241 0034 49       		.uleb128 0x49
 1242 0035 13       		.uleb128 0x13
 1243 0036 00       		.byte	0x0
 1244 0037 00       		.byte	0x0
 1245 0038 05       		.uleb128 0x5
 1246 0039 13       		.uleb128 0x13
 1247 003a 01       		.byte	0x1
 1248 003b 03       		.uleb128 0x3
 1249 003c 0E       		.uleb128 0xe
 1250 003d 0B       		.uleb128 0xb
 1251 003e 0B       		.uleb128 0xb
 1252 003f 3A       		.uleb128 0x3a
 1253 0040 0B       		.uleb128 0xb
 1254 0041 3B       		.uleb128 0x3b
 1255 0042 0B       		.uleb128 0xb
 1256 0043 01       		.uleb128 0x1
 1257 0044 13       		.uleb128 0x13
 1258 0045 00       		.byte	0x0
 1259 0046 00       		.byte	0x0
 1260 0047 06       		.uleb128 0x6
 1261 0048 0D       		.uleb128 0xd
 1262 0049 00       		.byte	0x0
 1263 004a 03       		.uleb128 0x3
 1264 004b 0E       		.uleb128 0xe
 1265 004c 3A       		.uleb128 0x3a
 1266 004d 0B       		.uleb128 0xb
 1267 004e 3B       		.uleb128 0x3b
 1268 004f 0B       		.uleb128 0xb
 1269 0050 49       		.uleb128 0x49
 1270 0051 13       		.uleb128 0x13
 1271 0052 38       		.uleb128 0x38
 1272 0053 0A       		.uleb128 0xa
 1273 0054 00       		.byte	0x0
 1274 0055 00       		.byte	0x0
 1275 0056 07       		.uleb128 0x7
 1276 0057 0D       		.uleb128 0xd
 1277 0058 00       		.byte	0x0
 1278 0059 03       		.uleb128 0x3
 1279 005a 08       		.uleb128 0x8
 1280 005b 3A       		.uleb128 0x3a
 1281 005c 0B       		.uleb128 0xb
 1282 005d 3B       		.uleb128 0x3b
 1283 005e 0B       		.uleb128 0xb
 1284 005f 49       		.uleb128 0x49
 1285 0060 13       		.uleb128 0x13
 1286 0061 38       		.uleb128 0x38
 1287 0062 0A       		.uleb128 0xa
 1288 0063 00       		.byte	0x0
 1289 0064 00       		.byte	0x0
 1290 0065 08       		.uleb128 0x8
 1291 0066 13       		.uleb128 0x13
 1292 0067 01       		.byte	0x1
 1293 0068 0B       		.uleb128 0xb
ARM GAS  /tmp/ccrfM572.s 			page 24


 1294 0069 0B       		.uleb128 0xb
 1295 006a 3A       		.uleb128 0x3a
 1296 006b 0B       		.uleb128 0xb
 1297 006c 3B       		.uleb128 0x3b
 1298 006d 0B       		.uleb128 0xb
 1299 006e 01       		.uleb128 0x1
 1300 006f 13       		.uleb128 0x13
 1301 0070 00       		.byte	0x0
 1302 0071 00       		.byte	0x0
 1303 0072 09       		.uleb128 0x9
 1304 0073 0F       		.uleb128 0xf
 1305 0074 00       		.byte	0x0
 1306 0075 0B       		.uleb128 0xb
 1307 0076 0B       		.uleb128 0xb
 1308 0077 49       		.uleb128 0x49
 1309 0078 13       		.uleb128 0x13
 1310 0079 00       		.byte	0x0
 1311 007a 00       		.byte	0x0
 1312 007b 0A       		.uleb128 0xa
 1313 007c 0F       		.uleb128 0xf
 1314 007d 00       		.byte	0x0
 1315 007e 0B       		.uleb128 0xb
 1316 007f 0B       		.uleb128 0xb
 1317 0080 00       		.byte	0x0
 1318 0081 00       		.byte	0x0
 1319 0082 0B       		.uleb128 0xb
 1320 0083 0D       		.uleb128 0xd
 1321 0084 00       		.byte	0x0
 1322 0085 03       		.uleb128 0x3
 1323 0086 08       		.uleb128 0x8
 1324 0087 3A       		.uleb128 0x3a
 1325 0088 0B       		.uleb128 0xb
 1326 0089 3B       		.uleb128 0x3b
 1327 008a 05       		.uleb128 0x5
 1328 008b 49       		.uleb128 0x49
 1329 008c 13       		.uleb128 0x13
 1330 008d 38       		.uleb128 0x38
 1331 008e 0A       		.uleb128 0xa
 1332 008f 00       		.byte	0x0
 1333 0090 00       		.byte	0x0
 1334 0091 0C       		.uleb128 0xc
 1335 0092 13       		.uleb128 0x13
 1336 0093 01       		.byte	0x1
 1337 0094 03       		.uleb128 0x3
 1338 0095 0E       		.uleb128 0xe
 1339 0096 0B       		.uleb128 0xb
 1340 0097 0B       		.uleb128 0xb
 1341 0098 3A       		.uleb128 0x3a
 1342 0099 0B       		.uleb128 0xb
 1343 009a 3B       		.uleb128 0x3b
 1344 009b 05       		.uleb128 0x5
 1345 009c 01       		.uleb128 0x1
 1346 009d 13       		.uleb128 0x13
 1347 009e 00       		.byte	0x0
 1348 009f 00       		.byte	0x0
 1349 00a0 0D       		.uleb128 0xd
 1350 00a1 15       		.uleb128 0x15
ARM GAS  /tmp/ccrfM572.s 			page 25


 1351 00a2 01       		.byte	0x1
 1352 00a3 27       		.uleb128 0x27
 1353 00a4 0C       		.uleb128 0xc
 1354 00a5 01       		.uleb128 0x1
 1355 00a6 13       		.uleb128 0x13
 1356 00a7 00       		.byte	0x0
 1357 00a8 00       		.byte	0x0
 1358 00a9 0E       		.uleb128 0xe
 1359 00aa 05       		.uleb128 0x5
 1360 00ab 00       		.byte	0x0
 1361 00ac 49       		.uleb128 0x49
 1362 00ad 13       		.uleb128 0x13
 1363 00ae 00       		.byte	0x0
 1364 00af 00       		.byte	0x0
 1365 00b0 0F       		.uleb128 0xf
 1366 00b1 35       		.uleb128 0x35
 1367 00b2 00       		.byte	0x0
 1368 00b3 49       		.uleb128 0x49
 1369 00b4 13       		.uleb128 0x13
 1370 00b5 00       		.byte	0x0
 1371 00b6 00       		.byte	0x0
 1372 00b7 10       		.uleb128 0x10
 1373 00b8 17       		.uleb128 0x17
 1374 00b9 01       		.byte	0x1
 1375 00ba 0B       		.uleb128 0xb
 1376 00bb 0B       		.uleb128 0xb
 1377 00bc 3A       		.uleb128 0x3a
 1378 00bd 0B       		.uleb128 0xb
 1379 00be 3B       		.uleb128 0x3b
 1380 00bf 0B       		.uleb128 0xb
 1381 00c0 01       		.uleb128 0x1
 1382 00c1 13       		.uleb128 0x13
 1383 00c2 00       		.byte	0x0
 1384 00c3 00       		.byte	0x0
 1385 00c4 11       		.uleb128 0x11
 1386 00c5 0D       		.uleb128 0xd
 1387 00c6 00       		.byte	0x0
 1388 00c7 03       		.uleb128 0x3
 1389 00c8 0E       		.uleb128 0xe
 1390 00c9 3A       		.uleb128 0x3a
 1391 00ca 0B       		.uleb128 0xb
 1392 00cb 3B       		.uleb128 0x3b
 1393 00cc 0B       		.uleb128 0xb
 1394 00cd 49       		.uleb128 0x49
 1395 00ce 13       		.uleb128 0x13
 1396 00cf 00       		.byte	0x0
 1397 00d0 00       		.byte	0x0
 1398 00d1 12       		.uleb128 0x12
 1399 00d2 26       		.uleb128 0x26
 1400 00d3 00       		.byte	0x0
 1401 00d4 49       		.uleb128 0x49
 1402 00d5 13       		.uleb128 0x13
 1403 00d6 00       		.byte	0x0
 1404 00d7 00       		.byte	0x0
 1405 00d8 13       		.uleb128 0x13
 1406 00d9 15       		.uleb128 0x15
 1407 00da 01       		.byte	0x1
ARM GAS  /tmp/ccrfM572.s 			page 26


 1408 00db 27       		.uleb128 0x27
 1409 00dc 0C       		.uleb128 0xc
 1410 00dd 49       		.uleb128 0x49
 1411 00de 13       		.uleb128 0x13
 1412 00df 01       		.uleb128 0x1
 1413 00e0 13       		.uleb128 0x13
 1414 00e1 00       		.byte	0x0
 1415 00e2 00       		.byte	0x0
 1416 00e3 14       		.uleb128 0x14
 1417 00e4 2E       		.uleb128 0x2e
 1418 00e5 01       		.byte	0x1
 1419 00e6 3F       		.uleb128 0x3f
 1420 00e7 0C       		.uleb128 0xc
 1421 00e8 03       		.uleb128 0x3
 1422 00e9 0E       		.uleb128 0xe
 1423 00ea 3A       		.uleb128 0x3a
 1424 00eb 0B       		.uleb128 0xb
 1425 00ec 3B       		.uleb128 0x3b
 1426 00ed 0B       		.uleb128 0xb
 1427 00ee 27       		.uleb128 0x27
 1428 00ef 0C       		.uleb128 0xc
 1429 00f0 11       		.uleb128 0x11
 1430 00f1 01       		.uleb128 0x1
 1431 00f2 12       		.uleb128 0x12
 1432 00f3 01       		.uleb128 0x1
 1433 00f4 40       		.uleb128 0x40
 1434 00f5 0A       		.uleb128 0xa
 1435 00f6 01       		.uleb128 0x1
 1436 00f7 13       		.uleb128 0x13
 1437 00f8 00       		.byte	0x0
 1438 00f9 00       		.byte	0x0
 1439 00fa 15       		.uleb128 0x15
 1440 00fb 05       		.uleb128 0x5
 1441 00fc 00       		.byte	0x0
 1442 00fd 03       		.uleb128 0x3
 1443 00fe 08       		.uleb128 0x8
 1444 00ff 3A       		.uleb128 0x3a
 1445 0100 0B       		.uleb128 0xb
 1446 0101 3B       		.uleb128 0x3b
 1447 0102 0B       		.uleb128 0xb
 1448 0103 49       		.uleb128 0x49
 1449 0104 13       		.uleb128 0x13
 1450 0105 02       		.uleb128 0x2
 1451 0106 06       		.uleb128 0x6
 1452 0107 00       		.byte	0x0
 1453 0108 00       		.byte	0x0
 1454 0109 16       		.uleb128 0x16
 1455 010a 2E       		.uleb128 0x2e
 1456 010b 01       		.byte	0x1
 1457 010c 3F       		.uleb128 0x3f
 1458 010d 0C       		.uleb128 0xc
 1459 010e 03       		.uleb128 0x3
 1460 010f 0E       		.uleb128 0xe
 1461 0110 3A       		.uleb128 0x3a
 1462 0111 0B       		.uleb128 0xb
 1463 0112 3B       		.uleb128 0x3b
 1464 0113 0B       		.uleb128 0xb
ARM GAS  /tmp/ccrfM572.s 			page 27


 1465 0114 27       		.uleb128 0x27
 1466 0115 0C       		.uleb128 0xc
 1467 0116 11       		.uleb128 0x11
 1468 0117 01       		.uleb128 0x1
 1469 0118 12       		.uleb128 0x12
 1470 0119 01       		.uleb128 0x1
 1471 011a 40       		.uleb128 0x40
 1472 011b 06       		.uleb128 0x6
 1473 011c 01       		.uleb128 0x1
 1474 011d 13       		.uleb128 0x13
 1475 011e 00       		.byte	0x0
 1476 011f 00       		.byte	0x0
 1477 0120 17       		.uleb128 0x17
 1478 0121 34       		.uleb128 0x34
 1479 0122 00       		.byte	0x0
 1480 0123 03       		.uleb128 0x3
 1481 0124 0E       		.uleb128 0xe
 1482 0125 3A       		.uleb128 0x3a
 1483 0126 0B       		.uleb128 0xb
 1484 0127 3B       		.uleb128 0x3b
 1485 0128 0B       		.uleb128 0xb
 1486 0129 49       		.uleb128 0x49
 1487 012a 13       		.uleb128 0x13
 1488 012b 02       		.uleb128 0x2
 1489 012c 0A       		.uleb128 0xa
 1490 012d 00       		.byte	0x0
 1491 012e 00       		.byte	0x0
 1492 012f 18       		.uleb128 0x18
 1493 0130 34       		.uleb128 0x34
 1494 0131 00       		.byte	0x0
 1495 0132 03       		.uleb128 0x3
 1496 0133 0E       		.uleb128 0xe
 1497 0134 3A       		.uleb128 0x3a
 1498 0135 0B       		.uleb128 0xb
 1499 0136 3B       		.uleb128 0x3b
 1500 0137 0B       		.uleb128 0xb
 1501 0138 49       		.uleb128 0x49
 1502 0139 13       		.uleb128 0x13
 1503 013a 3F       		.uleb128 0x3f
 1504 013b 0C       		.uleb128 0xc
 1505 013c 3C       		.uleb128 0x3c
 1506 013d 0C       		.uleb128 0xc
 1507 013e 00       		.byte	0x0
 1508 013f 00       		.byte	0x0
 1509 0140 19       		.uleb128 0x19
 1510 0141 0B       		.uleb128 0xb
 1511 0142 01       		.byte	0x1
 1512 0143 11       		.uleb128 0x11
 1513 0144 01       		.uleb128 0x1
 1514 0145 12       		.uleb128 0x12
 1515 0146 01       		.uleb128 0x1
 1516 0147 00       		.byte	0x0
 1517 0148 00       		.byte	0x0
 1518 0149 1A       		.uleb128 0x1a
 1519 014a 34       		.uleb128 0x34
 1520 014b 00       		.byte	0x0
 1521 014c 03       		.uleb128 0x3
ARM GAS  /tmp/ccrfM572.s 			page 28


 1522 014d 08       		.uleb128 0x8
 1523 014e 3A       		.uleb128 0x3a
 1524 014f 0B       		.uleb128 0xb
 1525 0150 3B       		.uleb128 0x3b
 1526 0151 0B       		.uleb128 0xb
 1527 0152 49       		.uleb128 0x49
 1528 0153 13       		.uleb128 0x13
 1529 0154 02       		.uleb128 0x2
 1530 0155 06       		.uleb128 0x6
 1531 0156 00       		.byte	0x0
 1532 0157 00       		.byte	0x0
 1533 0158 1B       		.uleb128 0x1b
 1534 0159 01       		.uleb128 0x1
 1535 015a 01       		.byte	0x1
 1536 015b 49       		.uleb128 0x49
 1537 015c 13       		.uleb128 0x13
 1538 015d 01       		.uleb128 0x1
 1539 015e 13       		.uleb128 0x13
 1540 015f 00       		.byte	0x0
 1541 0160 00       		.byte	0x0
 1542 0161 1C       		.uleb128 0x1c
 1543 0162 21       		.uleb128 0x21
 1544 0163 00       		.byte	0x0
 1545 0164 49       		.uleb128 0x49
 1546 0165 13       		.uleb128 0x13
 1547 0166 2F       		.uleb128 0x2f
 1548 0167 0B       		.uleb128 0xb
 1549 0168 00       		.byte	0x0
 1550 0169 00       		.byte	0x0
 1551 016a 1D       		.uleb128 0x1d
 1552 016b 34       		.uleb128 0x34
 1553 016c 00       		.byte	0x0
 1554 016d 03       		.uleb128 0x3
 1555 016e 0E       		.uleb128 0xe
 1556 016f 3A       		.uleb128 0x3a
 1557 0170 0B       		.uleb128 0xb
 1558 0171 3B       		.uleb128 0x3b
 1559 0172 0B       		.uleb128 0xb
 1560 0173 49       		.uleb128 0x49
 1561 0174 13       		.uleb128 0x13
 1562 0175 3F       		.uleb128 0x3f
 1563 0176 0C       		.uleb128 0xc
 1564 0177 02       		.uleb128 0x2
 1565 0178 0A       		.uleb128 0xa
 1566 0179 00       		.byte	0x0
 1567 017a 00       		.byte	0x0
 1568 017b 00       		.byte	0x0
 1569              		.section	.debug_pubnames,"",%progbits
 1570 0000 58000000 		.4byte	0x58
 1571 0004 0200     		.2byte	0x2
 1572 0006 00000000 		.4byte	.Ldebug_info0
 1573 000a 53060000 		.4byte	0x653
 1574 000e 20050000 		.4byte	0x520
 1575 0012 5F69646C 		.ascii	"_idle_thread\000"
 1575      655F7468 
 1575      72656164 
 1575      00
ARM GAS  /tmp/ccrfM572.s 			page 29


 1576 001f 46050000 		.4byte	0x546
 1577 0023 63685379 		.ascii	"chSysInit\000"
 1577      73496E69 
 1577      7400
 1578 002d 97050000 		.4byte	0x597
 1579 0031 63685379 		.ascii	"chSysTimerHandlerI\000"
 1579      7354696D 
 1579      65724861 
 1579      6E646C65 
 1579      724900
 1580 0044 33060000 		.4byte	0x633
 1581 0048 5F69646C 		.ascii	"_idle_thread_wa\000"
 1581      655F7468 
 1581      72656164 
 1581      5F776100 
 1582 0058 00000000 		.4byte	0x0
 1583              		.section	.debug_pubtypes,"",%progbits
 1584 0000 69010000 		.4byte	0x169
 1585 0004 0200     		.2byte	0x2
 1586 0006 00000000 		.4byte	.Ldebug_info0
 1587 000a 53060000 		.4byte	0x653
 1588 000e 3E000000 		.4byte	0x3e
 1589 0012 75696E74 		.ascii	"uint8_t\000"
 1589      385F7400 
 1590 001a 5E000000 		.4byte	0x5e
 1591 001e 696E7433 		.ascii	"int32_t\000"
 1591      325F7400 
 1592 0026 70000000 		.4byte	0x70
 1593 002a 75696E74 		.ascii	"uint32_t\000"
 1593      33325F74 
 1593      00
 1594 0033 89000000 		.4byte	0x89
 1595 0037 75696E74 		.ascii	"uint64_t\000"
 1595      36345F74 
 1595      00
 1596 0040 9B000000 		.4byte	0x9b
 1597 0044 746D6F64 		.ascii	"tmode_t\000"
 1597      655F7400 
 1598 004c A6000000 		.4byte	0xa6
 1599 0050 74737461 		.ascii	"tstate_t\000"
 1599      74655F74 
 1599      00
 1600 0059 B1000000 		.4byte	0xb1
 1601 005d 74707269 		.ascii	"tprio_t\000"
 1601      6F5F7400 
 1602 0065 BC000000 		.4byte	0xbc
 1603 0069 6D73675F 		.ascii	"msg_t\000"
 1603      7400
 1604 006f C7000000 		.4byte	0xc7
 1605 0073 6576656E 		.ascii	"eventmask_t\000"
 1605      746D6173 
 1605      6B5F7400 
 1606 007f D2000000 		.4byte	0xd2
 1607 0083 73797374 		.ascii	"systime_t\000"
 1607      696D655F 
 1607      7400
 1608 008d DD000000 		.4byte	0xdd
ARM GAS  /tmp/ccrfM572.s 			page 30


 1609 0091 636E745F 		.ascii	"cnt_t\000"
 1609      7400
 1610 0097 E8000000 		.4byte	0xe8
 1611 009b 54687265 		.ascii	"Thread\000"
 1611      616400
 1612 00a2 27020000 		.4byte	0x227
 1613 00a6 54687265 		.ascii	"ThreadsQueue\000"
 1613      61647351 
 1613      75657565 
 1613      00
 1614 00b3 49020000 		.4byte	0x249
 1615 00b7 54687265 		.ascii	"ThreadsList\000"
 1615      6164734C 
 1615      69737400 
 1616 00c3 54020000 		.4byte	0x254
 1617 00c7 72656761 		.ascii	"regarm_t\000"
 1617      726D5F74 
 1617      00
 1618 00d0 61020000 		.4byte	0x261
 1619 00d4 73746B61 		.ascii	"stkalign_t\000"
 1619      6C69676E 
 1619      5F7400
 1620 00df 6C020000 		.4byte	0x26c
 1621 00e3 696E7463 		.ascii	"intctx\000"
 1621      747800
 1622 00ea F9020000 		.4byte	0x2f9
 1623 00ee 636F6E74 		.ascii	"context\000"
 1623      65787400 
 1624 00f6 1C030000 		.4byte	0x31c
 1625 00fa 76746675 		.ascii	"vtfunc_t\000"
 1625      6E635F74 
 1625      00
 1626 0103 39030000 		.4byte	0x339
 1627 0107 56697274 		.ascii	"VirtualTimer\000"
 1627      75616C54 
 1627      696D6572 
 1627      00
 1628 0114 44030000 		.4byte	0x344
 1629 0118 56697274 		.ascii	"VirtualTimer\000"
 1629      75616C54 
 1629      696D6572 
 1629      00
 1630 0125 E3030000 		.4byte	0x3e3
 1631 0129 56544C69 		.ascii	"VTList\000"
 1631      737400
 1632 0130 59040000 		.4byte	0x459
 1633 0134 52656164 		.ascii	"ReadyList\000"
 1633      794C6973 
 1633      7400
 1634 013e 64040000 		.4byte	0x464
 1635 0142 4D757465 		.ascii	"Mutex\000"
 1635      7800
 1636 0148 A1040000 		.4byte	0x4a1
 1637 014c 4D757465 		.ascii	"Mutex\000"
 1637      7800
 1638 0152 F3000000 		.4byte	0xf3
 1639 0156 54687265 		.ascii	"Thread\000"
ARM GAS  /tmp/ccrfM572.s 			page 31


 1639      616400
 1640 015d FF040000 		.4byte	0x4ff
 1641 0161 7466756E 		.ascii	"tfunc_t\000"
 1641      635F7400 
 1642 0169 00000000 		.4byte	0x0
 1643              		.section	.debug_aranges,"",%progbits
 1644 0000 2C000000 		.4byte	0x2c
 1645 0004 0200     		.2byte	0x2
 1646 0006 00000000 		.4byte	.Ldebug_info0
 1647 000a 04       		.byte	0x4
 1648 000b 00       		.byte	0x0
 1649 000c 0000     		.2byte	0x0
 1650 000e 0000     		.2byte	0x0
 1651 0010 00000000 		.4byte	.LFB7
 1652 0014 14000000 		.4byte	.LFE7-.LFB7
 1653 0018 00000000 		.4byte	.LFB8
 1654 001c 6C000000 		.4byte	.LFE8-.LFB8
 1655 0020 00000000 		.4byte	.LFB9
 1656 0024 54000000 		.4byte	.LFE9-.LFB9
 1657 0028 00000000 		.4byte	0x0
 1658 002c 00000000 		.4byte	0x0
 1659              		.section	.debug_ranges,"",%progbits
 1660              	.Ldebug_ranges0:
 1661 0000 00000000 		.4byte	.LFB7
 1662 0004 14000000 		.4byte	.LFE7
 1663 0008 00000000 		.4byte	.LFB8
 1664 000c 6C000000 		.4byte	.LFE8
 1665 0010 00000000 		.4byte	.LFB9
 1666 0014 54000000 		.4byte	.LFE9
 1667 0018 00000000 		.4byte	0x0
 1668 001c 00000000 		.4byte	0x0
 1669              		.section	.debug_str,"MS",%progbits,1
 1670              	.LASF70:
 1671 0000 7466756E 		.ascii	"tfunc_t\000"
 1671      635F7400 
 1672              	.LASF34:
 1673 0008 705F6D73 		.ascii	"p_msg\000"
 1673      6700
 1674              	.LASF65:
 1675 000e 7264796D 		.ascii	"rdymsg\000"
 1675      736700
 1676              	.LASF11:
 1677 0015 75696E74 		.ascii	"uint64_t\000"
 1677      36345F74 
 1677      00
 1678              	.LASF76:
 1679 001e 76746C69 		.ascii	"vtlist\000"
 1679      737400
 1680              	.LASF74:
 1681 0025 63685379 		.ascii	"chSysTimerHandlerI\000"
 1681      7354696D 
 1681      65724861 
 1681      6E646C65 
 1681      724900
 1682              	.LASF12:
 1683 0038 6C6F6E67 		.ascii	"long long unsigned int\000"
 1683      206C6F6E 
ARM GAS  /tmp/ccrfM572.s 			page 32


 1683      6720756E 
 1683      7369676E 
 1683      65642069 
 1684              	.LASF66:
 1685 004f 65786974 		.ascii	"exitcode\000"
 1685      636F6465 
 1685      00
 1686              	.LASF73:
 1687 0058 6D61696E 		.ascii	"mainthread\000"
 1687      74687265 
 1687      616400
 1688              	.LASF23:
 1689 0063 705F7072 		.ascii	"p_prio\000"
 1689      696F00
 1690              	.LASF10:
 1691 006a 6C6F6E67 		.ascii	"long long int\000"
 1691      206C6F6E 
 1691      6720696E 
 1691      7400
 1692              	.LASF1:
 1693 0078 7369676E 		.ascii	"signed char\000"
 1693      65642063 
 1693      68617200 
 1694              	.LASF72:
 1695 0084 63685379 		.ascii	"chSysInit\000"
 1695      73496E69 
 1695      7400
 1696              	.LASF62:
 1697 008e 6D5F7175 		.ascii	"m_queue\000"
 1697      65756500 
 1698              	.LASF7:
 1699 0096 6C6F6E67 		.ascii	"long int\000"
 1699      20696E74 
 1699      00
 1700              	.LASF14:
 1701 009f 74737461 		.ascii	"tstate_t\000"
 1701      74655F74 
 1701      00
 1702              	.LASF25:
 1703 00a8 705F6E65 		.ascii	"p_newer\000"
 1703      77657200 
 1704              	.LASF78:
 1705 00b0 5F69646C 		.ascii	"_idle_thread_wa\000"
 1705      655F7468 
 1705      72656164 
 1705      5F776100 
 1706              	.LASF56:
 1707 00c0 725F6E65 		.ascii	"r_newer\000"
 1707      77657200 
 1708              	.LASF40:
 1709 00c8 72656761 		.ascii	"regarm_t\000"
 1709      726D5F74 
 1709      00
 1710              	.LASF47:
 1711 00d1 76745F70 		.ascii	"vt_prev\000"
 1711      72657600 
 1712              	.LASF19:
ARM GAS  /tmp/ccrfM572.s 			page 33


 1713 00d9 636E745F 		.ascii	"cnt_t\000"
 1713      7400
 1714              	.LASF28:
 1715 00df 705F7374 		.ascii	"p_stklimit\000"
 1715      6B6C696D 
 1715      697400
 1716              	.LASF0:
 1717 00ea 756E7369 		.ascii	"unsigned int\000"
 1717      676E6564 
 1717      20696E74 
 1717      00
 1718              	.LASF46:
 1719 00f7 76745F6E 		.ascii	"vt_next\000"
 1719      65787400 
 1720              	.LASF9:
 1721 00ff 6C6F6E67 		.ascii	"long unsigned int\000"
 1721      20756E73 
 1721      69676E65 
 1721      6420696E 
 1721      7400
 1722              	.LASF43:
 1723 0111 636F6E74 		.ascii	"context\000"
 1723      65787400 
 1724              	.LASF4:
 1725 0119 73686F72 		.ascii	"short unsigned int\000"
 1725      7420756E 
 1725      7369676E 
 1725      65642069 
 1725      6E7400
 1726              	.LASF16:
 1727 012c 6D73675F 		.ascii	"msg_t\000"
 1727      7400
 1728              	.LASF13:
 1729 0132 746D6F64 		.ascii	"tmode_t\000"
 1729      655F7400 
 1730              	.LASF39:
 1731 013a 54687265 		.ascii	"ThreadsList\000"
 1731      6164734C 
 1731      69737400 
 1732              	.LASF17:
 1733 0146 6576656E 		.ascii	"eventmask_t\000"
 1733      746D6173 
 1733      6B5F7400 
 1734              	.LASF61:
 1735 0152 4D757465 		.ascii	"Mutex\000"
 1735      7800
 1736              	.LASF41:
 1737 0158 73746B61 		.ascii	"stkalign_t\000"
 1737      6C69676E 
 1737      5F7400
 1738              	.LASF48:
 1739 0163 76745F74 		.ascii	"vt_time\000"
 1739      696D6500 
 1740              	.LASF49:
 1741 016b 76745F66 		.ascii	"vt_func\000"
 1741      756E6300 
 1742              	.LASF26:
ARM GAS  /tmp/ccrfM572.s 			page 34


 1743 0173 705F6F6C 		.ascii	"p_older\000"
 1743      64657200 
 1744              	.LASF55:
 1745 017b 725F6374 		.ascii	"r_ctx\000"
 1745      7800
 1746              	.LASF38:
 1747 0181 54687265 		.ascii	"ThreadsQueue\000"
 1747      61647351 
 1747      75657565 
 1747      00
 1748              	.LASF59:
 1749 018e 725F6375 		.ascii	"r_current\000"
 1749      7272656E 
 1749      7400
 1750              	.LASF57:
 1751 0198 725F6F6C 		.ascii	"r_older\000"
 1751      64657200 
 1752              	.LASF71:
 1753 01a0 5F69646C 		.ascii	"_idle_thread\000"
 1753      655F7468 
 1753      72656164 
 1753      00
 1754              	.LASF22:
 1755 01ad 705F7072 		.ascii	"p_prev\000"
 1755      657600
 1756              	.LASF15:
 1757 01b4 74707269 		.ascii	"tprio_t\000"
 1757      6F5F7400 
 1758              	.LASF6:
 1759 01bc 696E7433 		.ascii	"int32_t\000"
 1759      325F7400 
 1760              	.LASF2:
 1761 01c4 756E7369 		.ascii	"unsigned char\000"
 1761      676E6564 
 1761      20636861 
 1761      7200
 1762              	.LASF36:
 1763 01d2 705F6D74 		.ascii	"p_mtxlist\000"
 1763      786C6973 
 1763      7400
 1764              	.LASF3:
 1765 01dc 73686F72 		.ascii	"short int\000"
 1765      7420696E 
 1765      7400
 1766              	.LASF29:
 1767 01e6 705F7374 		.ascii	"p_state\000"
 1767      61746500 
 1768              	.LASF54:
 1769 01ee 725F7072 		.ascii	"r_prio\000"
 1769      696F00
 1770              	.LASF68:
 1771 01f5 65776D61 		.ascii	"ewmask\000"
 1771      736B00
 1772              	.LASF21:
 1773 01fc 705F6E65 		.ascii	"p_next\000"
 1773      787400
 1774              	.LASF30:
ARM GAS  /tmp/ccrfM572.s 			page 35


 1775 0203 705F666C 		.ascii	"p_flags\000"
 1775      61677300 
 1776              	.LASF20:
 1777 020b 54687265 		.ascii	"Thread\000"
 1777      616400
 1778              	.LASF35:
 1779 0212 705F6570 		.ascii	"p_epending\000"
 1779      656E6469 
 1779      6E6700
 1780              	.LASF8:
 1781 021d 75696E74 		.ascii	"uint32_t\000"
 1781      33325F74 
 1781      00
 1782              	.LASF53:
 1783 0226 725F7175 		.ascii	"r_queue\000"
 1783      65756500 
 1784              	.LASF45:
 1785 022e 56697274 		.ascii	"VirtualTimer\000"
 1785      75616C54 
 1785      696D6572 
 1785      00
 1786              	.LASF69:
 1787 023b 63686172 		.ascii	"char\000"
 1787      00
 1788              	.LASF75:
 1789 0240 5F5F6D61 		.ascii	"__main_thread_stack_base__\000"
 1789      696E5F74 
 1789      68726561 
 1789      645F7374 
 1789      61636B5F 
 1790              	.LASF64:
 1791 025b 6D5F6E65 		.ascii	"m_next\000"
 1791      787400
 1792              	.LASF18:
 1793 0262 73797374 		.ascii	"systime_t\000"
 1793      696D655F 
 1793      7400
 1794              	.LASF37:
 1795 026c 705F7265 		.ascii	"p_realprio\000"
 1795      616C7072 
 1795      696F00
 1796              	.LASF44:
 1797 0277 76746675 		.ascii	"vtfunc_t\000"
 1797      6E635F74 
 1797      00
 1798              	.LASF80:
 1799 0280 2E2E2F63 		.ascii	"../chibios_2.4.x/os/kernel/src/chsys.c\000"
 1799      68696269 
 1799      6F735F32 
 1799      2E342E78 
 1799      2F6F732F 
 1800              	.LASF31:
 1801 02a7 705F7469 		.ascii	"p_time\000"
 1801      6D6500
 1802              	.LASF42:
 1803 02ae 696E7463 		.ascii	"intctx\000"
 1803      747800
ARM GAS  /tmp/ccrfM572.s 			page 36


 1804              	.LASF33:
 1805 02b5 705F6D73 		.ascii	"p_msgqueue\000"
 1805      67717565 
 1805      756500
 1806              	.LASF50:
 1807 02c0 76745F70 		.ascii	"vt_par\000"
 1807      617200
 1808              	.LASF60:
 1809 02c7 52656164 		.ascii	"ReadyList\000"
 1809      794C6973 
 1809      7400
 1810              	.LASF81:
 1811 02d1 2F686F6D 		.ascii	"/home/z80/projects/voltamper.git/firmware/voltamp\000"
 1811      652F7A38 
 1811      302F7072 
 1811      6F6A6563 
 1811      74732F76 
 1812              	.LASF77:
 1813 0303 726C6973 		.ascii	"rlist\000"
 1813      7400
 1814              	.LASF5:
 1815 0309 75696E74 		.ascii	"uint8_t\000"
 1815      385F7400 
 1816              	.LASF67:
 1817 0311 77746F62 		.ascii	"wtobjp\000"
 1817      6A7000
 1818              	.LASF79:
 1819 0318 474E5520 		.ascii	"GNU C 4.5.2\000"
 1819      4320342E 
 1819      352E3200 
 1820              	.LASF27:
 1821 0324 705F6E61 		.ascii	"p_name\000"
 1821      6D6500
 1822              	.LASF51:
 1823 032b 76745F73 		.ascii	"vt_systime\000"
 1823      79737469 
 1823      6D6500
 1824              	.LASF52:
 1825 0336 56544C69 		.ascii	"VTList\000"
 1825      737400
 1826              	.LASF58:
 1827 033d 725F7072 		.ascii	"r_preempt\000"
 1827      65656D70 
 1827      7400
 1828              	.LASF63:
 1829 0347 6D5F6F77 		.ascii	"m_owner\000"
 1829      6E657200 
 1830              	.LASF24:
 1831 034f 705F6374 		.ascii	"p_ctx\000"
 1831      7800
 1832              	.LASF32:
 1833 0355 705F7761 		.ascii	"p_waiting\000"
 1833      6974696E 
 1833      6700
 1834              		.ident	"GCC: (Sourcery G++ Lite 2011.03-42) 4.5.2"
ARM GAS  /tmp/ccrfM572.s 			page 37


DEFINED SYMBOLS
                            *ABS*:00000000 chsys.c
     /tmp/ccrfM572.s:24     .text._idle_thread:00000000 $t
     /tmp/ccrfM572.s:30     .text._idle_thread:00000000 _idle_thread
     /tmp/ccrfM572.s:50     .text._idle_thread:0000000c $d
     /tmp/ccrfM572.s:56     .text.chSysInit:00000000 $t
     /tmp/ccrfM572.s:62     .text.chSysInit:00000000 chSysInit
     /tmp/ccrfM572.s:138    .text.chSysInit:00000054 $d
     /tmp/ccrfM572.s:148    .text.chSysTimerHandlerI:00000000 $t
     /tmp/ccrfM572.s:154    .text.chSysTimerHandlerI:00000000 chSysTimerHandlerI
     /tmp/ccrfM572.s:229    .text.chSysTimerHandlerI:0000004c $d
     /tmp/ccrfM572.s:255    .bss._idle_thread_wa:00000000 _idle_thread_wa
     /tmp/ccrfM572.s:237    .bss.mainthread.4646:00000000 $d
     /tmp/ccrfM572.s:241    .bss.mainthread.4646:00000000 mainthread.4646
     /tmp/ccrfM572.s:244    .rodata.str1.4:00000000 $d
     /tmp/ccrfM572.s:251    .bss._idle_thread_wa:00000000 $d
                     .debug_frame:00000010 $d
     /tmp/ccrfM572.s:55     .text._idle_thread:00000014 $t
     /tmp/ccrfM572.s:147    .text.chSysInit:0000006c $t
     /tmp/ccrfM572.s:236    .text.chSysTimerHandlerI:00000054 $t

UNDEFINED SYMBOLS
rlist
_port_init
_scheduler_init
_vt_init
_core_init
_trace_init
_thread_init
dbg_check_enable
chThdCreateStatic
__main_thread_stack_base__
chDbgCheckClassI
vtlist
