ARM GAS  C:\Users\z80\AppData\Local\Temp\ccM1QJXX.s 			page 1


   1              		.syntax unified
   2              		.cpu cortex-m3
   3              		.fpu softvfp
   4              		.eabi_attribute 20, 1
   5              		.eabi_attribute 21, 1
   6              		.eabi_attribute 23, 3
   7              		.eabi_attribute 24, 1
   8              		.eabi_attribute 25, 1
   9              		.eabi_attribute 26, 1
  10              		.eabi_attribute 30, 2
  11              		.eabi_attribute 18, 4
  12              		.thumb
  13              		.file	"chthreads.c"
  14              		.section	.debug_abbrev,"",%progbits
  15              	.Ldebug_abbrev0:
  16              		.section	.debug_info,"",%progbits
  17              	.Ldebug_info0:
  18              		.section	.debug_line,"",%progbits
  19              	.Ldebug_line0:
  20 0000 8B030000 		.text
  20      02008401 
  20      00000201 
  20      FB0E0D00 
  20      01010101 
  21              	.Ltext0:
  22              		.cfi_sections	.debug_frame
  23              		.section	.text._thread_init,"ax",%progbits
  24              		.align	2
  25              		.p2align 4,,15
  26              		.global	_thread_init
  27              		.thumb
  28              		.thumb_func
  29              		.type	_thread_init, %function
  30              	_thread_init:
  31              	.LFB7:
  32              		.file 1 "../chibios_2.4.x/os/kernel/src/chthreads.c"
  33              		.loc 1 76 0
  34              		.cfi_startproc
  35              		@ args = 0, pretend = 0, frame = 0
  36              		@ frame_needed = 0, uses_anonymous_args = 0
  37              		@ link register save eliminated.
  38              	.LVL0:
  39              		.loc 1 79 0
  40 0000 4FF0020C 		mov	ip, #2
  41              		.loc 1 80 0
  42 0004 0023     		movs	r3, #0
  43              		.loc 1 79 0
  44 0006 80F820C0 		strb	ip, [r0, #32]
  45              		.loc 1 96 0
  46 000a 40F20002 		movw	r2, #:lower16:rlist
  47              		.loc 1 92 0
  48 000e 4FF0010C 		mov	ip, #1
  49              		.loc 1 96 0
  50 0012 C0F20002 		movt	r2, #:upper16:rlist
  51              		.loc 1 80 0
  52 0016 80F82130 		strb	r3, [r0, #33]
  53              		.loc 1 92 0
ARM GAS  C:\Users\z80\AppData\Local\Temp\ccM1QJXX.s 			page 2


  54 001a 80F822C0 		strb	ip, [r0, #34]
  55              		.loc 1 96 0
  56 001e D2F814C0 		ldr	ip, [r2, #20]
  57              		.loc 1 76 0
  58 0022 70B4     		push	{r4, r5, r6}
  59              	.LCFI0:
  60              		.cfi_def_cfa_offset 12
  61              		.loc 1 102 0
  62 0024 00F13004 		add	r4, r0, #48
  63              		.cfi_offset 6, -4
  64              		.cfi_offset 5, -8
  65              		.cfi_offset 4, -12
  66              		.loc 1 99 0
  67 0028 00F12C06 		add	r6, r0, #44
  68              		.loc 1 105 0
  69 002c 00F14C05 		add	r5, r0, #76
  70              		.loc 1 96 0
  71 0030 0261     		str	r2, [r0, #16]
  72              		.loc 1 78 0
  73 0032 8160     		str	r1, [r0, #8]
  74              		.loc 1 96 0
  75 0034 C0F814C0 		str	ip, [r0, #20]
  76              		.loc 1 82 0
  77 0038 4164     		str	r1, [r0, #68]
  78              		.loc 1 96 0
  79 003a 5061     		str	r0, [r2, #20]
  80              		.loc 1 83 0
  81 003c 0364     		str	r3, [r0, #64]
  82              		.loc 1 86 0
  83 003e C363     		str	r3, [r0, #60]
  84              		.loc 1 89 0
  85 0040 4362     		str	r3, [r0, #36]
  86              		.loc 1 95 0
  87 0042 8361     		str	r3, [r0, #24]
  88              		.loc 1 96 0
  89 0044 CCF81000 		str	r0, [ip, #16]
  90              		.loc 1 99 0
  91 0048 C662     		str	r6, [r0, #44]
  92              		.loc 1 102 0
  93 004a 4463     		str	r4, [r0, #52]
  94 004c 0463     		str	r4, [r0, #48]
  95              		.loc 1 105 0
  96 004e C561     		str	r5, [r0, #28]
  97              		.loc 1 111 0
  98 0050 70BC     		pop	{r4, r5, r6}
  99 0052 7047     		bx	lr
 100              		.cfi_endproc
 101              	.LFE7:
 102              		.size	_thread_init, .-_thread_init
 103 0054 AFF30080 		.section	.text._thread_memfill,"ax",%progbits
 103      AFF30080 
 103      AFF30080 
 104              		.align	2
 105              		.p2align 4,,15
 106              		.global	_thread_memfill
 107              		.thumb
 108              		.thumb_func
ARM GAS  C:\Users\z80\AppData\Local\Temp\ccM1QJXX.s 			page 3


 109              		.type	_thread_memfill, %function
 110              	_thread_memfill:
 111              	.LFB8:
 112              		.loc 1 123 0
 113              		.cfi_startproc
 114              		@ args = 0, pretend = 0, frame = 0
 115              		@ frame_needed = 0, uses_anonymous_args = 0
 116              		@ link register save eliminated.
 117              	.LVL1:
 118              		.loc 1 125 0
 119 0000 8842     		cmp	r0, r1
 120 0002 03D2     		bcs	.L2
 121              	.L5:
 122              		.loc 1 126 0
 123 0004 00F8012B 		strb	r2, [r0], #1
 124              	.LVL2:
 125              		.loc 1 125 0
 126 0008 8142     		cmp	r1, r0
 127 000a FBD8     		bhi	.L5
 128              	.L2:
 129              		.loc 1 127 0
 130 000c 7047     		bx	lr
 131              		.cfi_endproc
 132              	.LFE8:
 133              		.size	_thread_memfill, .-_thread_memfill
 134 000e 00BF     		.section	.text.chThdCreateI,"ax",%progbits
 135              		.align	2
 136              		.p2align 4,,15
 137              		.global	chThdCreateI
 138              		.thumb
 139              		.thumb_func
 140              		.type	chThdCreateI, %function
 141              	chThdCreateI:
 142              	.LFB9:
 143              		.loc 1 155 0
 144              		.cfi_startproc
 145              		@ args = 4, pretend = 0, frame = 0
 146              		@ frame_needed = 0, uses_anonymous_args = 0
 147              	.LVL3:
 148 0000 F8B5     		push	{r3, r4, r5, r6, r7, lr}
 149              	.LCFI1:
 150              		.cfi_def_cfa_offset 24
 151              		.loc 1 155 0
 152 0002 0446     		mov	r4, r0
 153              		.cfi_offset 14, -4
 154              		.cfi_offset 7, -8
 155              		.cfi_offset 6, -12
 156              		.cfi_offset 5, -16
 157              		.cfi_offset 4, -20
 158              		.cfi_offset 3, -24
 159              	.LVL4:
 160 0004 0D46     		mov	r5, r1
 161 0006 1F46     		mov	r7, r3
 162 0008 1646     		mov	r6, r2
 163              		.loc 1 159 0
 164 000a FFF7FEFF 		bl	chDbgCheckClassI
 165              	.LVL5:
ARM GAS  C:\Users\z80\AppData\Local\Temp\ccM1QJXX.s 			page 4


 166              		.loc 1 161 0
 167 000e D4F10103 		rsbs	r3, r4, #1
 168 0012 38BF     		it	cc
 169 0014 0023     		movcc	r3, #0
 170 0016 AF2D     		cmp	r5, #175
 171 0018 98BF     		it	ls
 172 001a 43F00103 		orrls	r3, r3, #1
 173 001e 43B9     		cbnz	r3, .L9
 174              		.loc 1 161 0 is_stmt 0 discriminator 2
 175 0020 7F2E     		cmp	r6, #127
 176 0022 94BF     		ite	ls
 177 0024 0023     		movls	r3, #0
 178 0026 0123     		movhi	r3, #1
 179 0028 002F     		cmp	r7, #0
 180 002a 08BF     		it	eq
 181 002c 43F00103 		orreq	r3, r3, #1
 182 0030 13B1     		cbz	r3, .L10
 183              	.L9:
 184              		.loc 1 161 0 discriminator 1
 185 0032 1648     		ldr	r0, .L11
 186 0034 FFF7FEFF 		bl	chDbgPanic
 187              	.L10:
 188              		.loc 1 164 0 is_stmt 1
 189 0038 243D     		subs	r5, r5, #36
 190              	.LVL6:
 191 003a 0698     		ldr	r0, [sp, #24]
 192 003c 6119     		adds	r1, r4, r5
 193 003e E160     		str	r1, [r4, #12]
 194 0040 4860     		str	r0, [r1, #4]
 195 0042 1348     		ldr	r0, .L11+4
 196 0044 6751     		str	r7, [r4, r5]
 197 0046 0862     		str	r0, [r1, #32]
 198              	.LVL7:
 199              	.LBB16:
 200              	.LBB17:
 201              		.loc 1 79 0
 202 0048 0221     		movs	r1, #2
 203              		.loc 1 80 0
 204 004a 0023     		movs	r3, #0
 205              		.loc 1 96 0
 206 004c 114A     		ldr	r2, .L11+8
 207              		.loc 1 79 0
 208 004e 84F82010 		strb	r1, [r4, #32]
 209              		.loc 1 92 0
 210 0052 0121     		movs	r1, #1
 211 0054 84F82210 		strb	r1, [r4, #34]
 212              		.loc 1 80 0
 213 0058 84F82130 		strb	r3, [r4, #33]
 214              		.loc 1 96 0
 215 005c 5069     		ldr	r0, [r2, #20]
 216              		.loc 1 102 0
 217 005e 04F13001 		add	r1, r4, #48
 218              		.loc 1 99 0
 219 0062 04F12C05 		add	r5, r4, #44
 220              	.LVL8:
 221              		.loc 1 105 0
 222 0066 04F14C0C 		add	ip, r4, #76
ARM GAS  C:\Users\z80\AppData\Local\Temp\ccM1QJXX.s 			page 5


 223              		.loc 1 96 0
 224 006a 2261     		str	r2, [r4, #16]
 225 006c 6061     		str	r0, [r4, #20]
 226              		.loc 1 78 0
 227 006e A660     		str	r6, [r4, #8]
 228              		.loc 1 82 0
 229 0070 6664     		str	r6, [r4, #68]
 230              		.loc 1 96 0
 231 0072 5461     		str	r4, [r2, #20]
 232              		.loc 1 83 0
 233 0074 2364     		str	r3, [r4, #64]
 234              		.loc 1 96 0
 235 0076 0461     		str	r4, [r0, #16]
 236              		.loc 1 86 0
 237 0078 E363     		str	r3, [r4, #60]
 238              		.loc 1 89 0
 239 007a 6362     		str	r3, [r4, #36]
 240              		.loc 1 95 0
 241 007c A361     		str	r3, [r4, #24]
 242              		.loc 1 99 0
 243 007e E562     		str	r5, [r4, #44]
 244              		.loc 1 102 0
 245 0080 6163     		str	r1, [r4, #52]
 246 0082 2163     		str	r1, [r4, #48]
 247              		.loc 1 105 0
 248 0084 C4F81CC0 		str	ip, [r4, #28]
 249              	.LBE17:
 250              	.LBE16:
 251              		.loc 1 166 0
 252 0088 2046     		mov	r0, r4
 253 008a F8BD     		pop	{r3, r4, r5, r6, r7, pc}
 254              	.L12:
 255              		.align	2
 256              	.L11:
 257 008c 00000000 		.word	.LC0
 258 0090 00000000 		.word	_port_thread_start
 259 0094 00000000 		.word	rlist
 260              		.cfi_endproc
 261              	.LFE9:
 262              		.size	chThdCreateI, .-chThdCreateI
 263 0098 AFF30080 		.section	.text.chThdCreateStatic,"ax",%progbits
 263      AFF30080 
 264              		.align	2
 265              		.p2align 4,,15
 266              		.global	chThdCreateStatic
 267              		.thumb
 268              		.thumb_func
 269              		.type	chThdCreateStatic, %function
 270              	chThdCreateStatic:
 271              	.LFB10:
 272              		.loc 1 185 0
 273              		.cfi_startproc
 274              		@ args = 4, pretend = 0, frame = 0
 275              		@ frame_needed = 0, uses_anonymous_args = 0
 276              	.LVL9:
 277 0000 F0B5     		push	{r4, r5, r6, r7, lr}
 278              	.LCFI2:
ARM GAS  C:\Users\z80\AppData\Local\Temp\ccM1QJXX.s 			page 6


 279              		.cfi_def_cfa_offset 20
 280 0002 0D46     		mov	r5, r1
 281              		.cfi_offset 14, -4
 282              		.cfi_offset 7, -8
 283              		.cfi_offset 6, -12
 284              		.cfi_offset 5, -16
 285              		.cfi_offset 4, -20
 286 0004 1646     		mov	r6, r2
 287 0006 1F46     		mov	r7, r3
 288 0008 83B0     		sub	sp, sp, #12
 289              	.LCFI3:
 290              		.cfi_def_cfa_offset 32
 291              		.loc 1 185 0
 292 000a 0446     		mov	r4, r0
 293              		.loc 1 189 0
 294 000c 00F14C02 		add	r2, r0, #76
 295              	.LVL10:
 296              		.loc 1 184 0
 297 0010 0346     		mov	r3, r0
 298              	.LVL11:
 299              	.LBB18:
 300              	.LBB19:
 301              		.loc 1 126 0
 302 0012 FF21     		movs	r1, #255
 303              	.LVL12:
 304              	.L14:
 305 0014 03F8011B 		strb	r1, [r3], #1
 306              	.LVL13:
 307              		.loc 1 125 0
 308 0018 9342     		cmp	r3, r2
 309 001a FBD1     		bne	.L14
 310              	.LBE19:
 311              	.LBE18:
 312              		.loc 1 192 0
 313 001c 6319     		adds	r3, r4, r5
 314              	.LVL14:
 315              	.LBB20:
 316              	.LBB21:
 317              		.loc 1 125 0
 318 001e 9A42     		cmp	r2, r3
 319 0020 04D2     		bcs	.L15
 320              		.loc 1 126 0
 321 0022 5521     		movs	r1, #85
 322              	.LVL15:
 323              	.L17:
 324 0024 02F8011B 		strb	r1, [r2], #1
 325              	.LVL16:
 326              		.loc 1 125 0
 327 0028 9A42     		cmp	r2, r3
 328 002a FBD1     		bne	.L17
 329              	.L15:
 330              	.LBE21:
 331              	.LBE20:
 332              	.LBB22:
 333              		.loc 1 196 0
 334 002c 2023     		movs	r3, #32
 335              	.LVL17:
ARM GAS  C:\Users\z80\AppData\Local\Temp\ccM1QJXX.s 			page 7


 336              	@ 196 "../chibios_2.4.x/os/kernel/src/chthreads.c" 1
 337 002e 83F31188 		msr     BASEPRI, r3
 338              	@ 0 "" 2
 339              	.LVL18:
 340              		.thumb
 341              	.LBE22:
 342 0032 FFF7FEFF 		bl	dbg_check_lock
 343              	.LVL19:
 344              		.loc 1 197 0
 345 0036 DDF820C0 		ldr	ip, [sp, #32]
 346 003a 3B46     		mov	r3, r7
 347 003c 3246     		mov	r2, r6
 348 003e 2946     		mov	r1, r5
 349 0040 2046     		mov	r0, r4
 350 0042 CDF800C0 		str	ip, [sp, #0]
 351 0046 FFF7FEFF 		bl	chThdCreateI
 352 004a 0021     		movs	r1, #0
 353 004c 0446     		mov	r4, r0
 354              	.LVL20:
 355 004e FFF7FEFF 		bl	chSchWakeupS
 356              	.LVL21:
 357              		.loc 1 198 0
 358 0052 FFF7FEFF 		bl	dbg_check_unlock
 359              	.LBB23:
 360 0056 0023     		movs	r3, #0
 361              	.LVL22:
 362              	@ 198 "../chibios_2.4.x/os/kernel/src/chthreads.c" 1
 363 0058 83F31188 		msr     BASEPRI, r3
 364              	@ 0 "" 2
 365              	.LVL23:
 366              		.thumb
 367              	.LBE23:
 368              		.loc 1 200 0
 369 005c 2046     		mov	r0, r4
 370 005e 03B0     		add	sp, sp, #12
 371 0060 F0BD     		pop	{r4, r5, r6, r7, pc}
 372              		.cfi_endproc
 373              	.LFE10:
 374              		.size	chThdCreateStatic, .-chThdCreateStatic
 375 0062 00BFAFF3 		.section	.text.chThdSetPriority,"ax",%progbits
 375      0080AFF3 
 375      0080AFF3 
 375      0080
 376              		.align	2
 377              		.p2align 4,,15
 378              		.global	chThdSetPriority
 379              		.thumb
 380              		.thumb_func
 381              		.type	chThdSetPriority, %function
 382              	chThdSetPriority:
 383              	.LFB11:
 384              		.loc 1 214 0
 385              		.cfi_startproc
 386              		@ args = 0, pretend = 0, frame = 0
 387              		@ frame_needed = 0, uses_anonymous_args = 0
 388              	.LVL24:
 389              		.loc 1 217 0
ARM GAS  C:\Users\z80\AppData\Local\Temp\ccM1QJXX.s 			page 8


 390 0000 7F28     		cmp	r0, #127
 391              		.loc 1 214 0
 392 0002 38B5     		push	{r3, r4, r5, lr}
 393              	.LCFI4:
 394              		.cfi_def_cfa_offset 16
 395              		.loc 1 214 0
 396 0004 0446     		mov	r4, r0
 397              		.cfi_offset 14, -4
 398              		.cfi_offset 5, -8
 399              		.cfi_offset 4, -12
 400              		.cfi_offset 3, -16
 401              		.loc 1 217 0
 402 0006 17D8     		bhi	.L24
 403              	.LVL25:
 404              	.L21:
 405              	.LBB24:
 406              		.loc 1 219 0
 407 0008 2023     		movs	r3, #32
 408              	.LVL26:
 409              	@ 219 "../chibios_2.4.x/os/kernel/src/chthreads.c" 1
 410 000a 83F31188 		msr     BASEPRI, r3
 411              	@ 0 "" 2
 412              	.LVL27:
 413              		.thumb
 414              	.LBE24:
 415 000e FFF7FEFF 		bl	dbg_check_lock
 416              	.LVL28:
 417              		.loc 1 221 0
 418 0012 0B4B     		ldr	r3, .L25
 419 0014 DB69     		ldr	r3, [r3, #28]
 420 0016 5D6C     		ldr	r5, [r3, #68]
 421              	.LVL29:
 422              		.loc 1 222 0
 423 0018 9A68     		ldr	r2, [r3, #8]
 424 001a 9542     		cmp	r5, r2
 425 001c 01D0     		beq	.L22
 426              		.loc 1 222 0 is_stmt 0 discriminator 1
 427 001e 9442     		cmp	r4, r2
 428 0020 00D9     		bls	.L23
 429              	.L22:
 430              		.loc 1 223 0 is_stmt 1
 431 0022 9C60     		str	r4, [r3, #8]
 432              	.L23:
 433              		.loc 1 224 0
 434 0024 5C64     		str	r4, [r3, #68]
 435              		.loc 1 229 0
 436 0026 FFF7FEFF 		bl	chSchRescheduleS
 437              		.loc 1 230 0
 438 002a FFF7FEFF 		bl	dbg_check_unlock
 439              	.LBB25:
 440 002e 0023     		movs	r3, #0
 441              	.LVL30:
 442              	@ 230 "../chibios_2.4.x/os/kernel/src/chthreads.c" 1
 443 0030 83F31188 		msr     BASEPRI, r3
 444              	@ 0 "" 2
 445              	.LVL31:
 446              		.thumb
ARM GAS  C:\Users\z80\AppData\Local\Temp\ccM1QJXX.s 			page 9


 447              	.LBE25:
 448              		.loc 1 232 0
 449 0034 2846     		mov	r0, r5
 450 0036 38BD     		pop	{r3, r4, r5, pc}
 451              	.LVL32:
 452              	.L24:
 453              		.loc 1 217 0 discriminator 1
 454 0038 0248     		ldr	r0, .L25+4
 455 003a FFF7FEFF 		bl	chDbgPanic
 456 003e E3E7     		b	.L21
 457              	.L26:
 458              		.align	2
 459              	.L25:
 460 0040 00000000 		.word	rlist
 461 0044 14000000 		.word	.LC1
 462              		.cfi_endproc
 463              	.LFE11:
 464              		.size	chThdSetPriority, .-chThdSetPriority
 465 0048 AFF30080 		.section	.text.chThdResume,"ax",%progbits
 465      AFF30080 
 466              		.align	2
 467              		.p2align 4,,15
 468              		.global	chThdResume
 469              		.thumb
 470              		.thumb_func
 471              		.type	chThdResume, %function
 472              	chThdResume:
 473              	.LFB12:
 474              		.loc 1 247 0
 475              		.cfi_startproc
 476              		@ args = 0, pretend = 0, frame = 0
 477              		@ frame_needed = 0, uses_anonymous_args = 0
 478              	.LVL33:
 479 0000 10B5     		push	{r4, lr}
 480              	.LCFI5:
 481              		.cfi_def_cfa_offset 8
 482              	.LBB26:
 483              		.loc 1 249 0
 484 0002 2023     		movs	r3, #32
 485              	.LVL34:
 486              	.LBE26:
 487              		.loc 1 247 0
 488 0004 0446     		mov	r4, r0
 489              		.cfi_offset 14, -4
 490              		.cfi_offset 4, -8
 491              	.LBB27:
 492              		.loc 1 249 0
 493              	@ 249 "../chibios_2.4.x/os/kernel/src/chthreads.c" 1
 494 0006 83F31188 		msr     BASEPRI, r3
 495              	@ 0 "" 2
 496              	.LVL35:
 497              		.thumb
 498              	.LBE27:
 499 000a FFF7FEFF 		bl	dbg_check_lock
 500              	.LVL36:
 501              		.loc 1 250 0
 502 000e 94F82030 		ldrb	r3, [r4, #32]	@ zero_extendqisi2
ARM GAS  C:\Users\z80\AppData\Local\Temp\ccM1QJXX.s 			page 10


 503 0012 022B     		cmp	r3, #2
 504 0014 02D0     		beq	.L28
 505              		.loc 1 250 0 is_stmt 0 discriminator 1
 506 0016 0748     		ldr	r0, .L29
 507 0018 FFF7FEFF 		bl	chDbgPanic
 508              	.L28:
 509              		.loc 1 253 0 is_stmt 1
 510 001c 2046     		mov	r0, r4
 511 001e 0021     		movs	r1, #0
 512 0020 FFF7FEFF 		bl	chSchWakeupS
 513              		.loc 1 254 0
 514 0024 FFF7FEFF 		bl	dbg_check_unlock
 515              	.LBB28:
 516 0028 0023     		movs	r3, #0
 517              	.LVL37:
 518              	@ 254 "../chibios_2.4.x/os/kernel/src/chthreads.c" 1
 519 002a 83F31188 		msr     BASEPRI, r3
 520              	@ 0 "" 2
 521              	.LVL38:
 522              		.thumb
 523              	.LBE28:
 524              		.loc 1 256 0
 525 002e 2046     		mov	r0, r4
 526 0030 10BD     		pop	{r4, pc}
 527              	.L30:
 528 0032 00BF     		.align	2
 529              	.L29:
 530 0034 2C000000 		.word	.LC2
 531              		.cfi_endproc
 532              	.LFE12:
 533              		.size	chThdResume, .-chThdResume
 534 0038 AFF30080 		.section	.text.chThdTerminate,"ax",%progbits
 534      AFF30080 
 535              		.align	2
 536              		.p2align 4,,15
 537              		.global	chThdTerminate
 538              		.thumb
 539              		.thumb_func
 540              		.type	chThdTerminate, %function
 541              	chThdTerminate:
 542              	.LFB13:
 543              		.loc 1 270 0
 544              		.cfi_startproc
 545              		@ args = 0, pretend = 0, frame = 0
 546              		@ frame_needed = 0, uses_anonymous_args = 0
 547              	.LVL39:
 548 0000 10B5     		push	{r4, lr}
 549              	.LCFI6:
 550              		.cfi_def_cfa_offset 8
 551              	.LBB29:
 552              		.loc 1 272 0
 553 0002 2023     		movs	r3, #32
 554              	.LVL40:
 555              	.LBE29:
 556              		.loc 1 270 0
 557 0004 0446     		mov	r4, r0
 558              		.cfi_offset 14, -4
ARM GAS  C:\Users\z80\AppData\Local\Temp\ccM1QJXX.s 			page 11


 559              		.cfi_offset 4, -8
 560              	.LBB30:
 561              		.loc 1 272 0
 562              	@ 272 "../chibios_2.4.x/os/kernel/src/chthreads.c" 1
 563 0006 83F31188 		msr     BASEPRI, r3
 564              	@ 0 "" 2
 565              	.LVL41:
 566              		.thumb
 567              	.LBE30:
 568 000a FFF7FEFF 		bl	dbg_check_lock
 569              	.LVL42:
 570              		.loc 1 273 0
 571 000e 94F82130 		ldrb	r3, [r4, #33]	@ zero_extendqisi2
 572 0012 43F00403 		orr	r3, r3, #4
 573 0016 84F82130 		strb	r3, [r4, #33]
 574              		.loc 1 274 0
 575 001a FFF7FEFF 		bl	dbg_check_unlock
 576              	.LBB31:
 577 001e 0023     		movs	r3, #0
 578              	.LVL43:
 579              	@ 274 "../chibios_2.4.x/os/kernel/src/chthreads.c" 1
 580 0020 83F31188 		msr     BASEPRI, r3
 581              	@ 0 "" 2
 582              	.LVL44:
 583              		.thumb
 584              	.LBE31:
 585              		.loc 1 275 0
 586 0024 10BD     		pop	{r4, pc}
 587              		.cfi_endproc
 588              	.LFE13:
 589              		.size	chThdTerminate, .-chThdTerminate
 590 0026 00BFAFF3 		.section	.text.chThdSleep,"ax",%progbits
 590      0080AFF3 
 590      0080
 591              		.align	2
 592              		.p2align 4,,15
 593              		.global	chThdSleep
 594              		.thumb
 595              		.thumb_func
 596              		.type	chThdSleep, %function
 597              	chThdSleep:
 598              	.LFB14:
 599              		.loc 1 289 0
 600              		.cfi_startproc
 601              		@ args = 0, pretend = 0, frame = 0
 602              		@ frame_needed = 0, uses_anonymous_args = 0
 603              	.LVL45:
 604 0000 10B5     		push	{r4, lr}
 605              	.LCFI7:
 606              		.cfi_def_cfa_offset 8
 607              		.loc 1 289 0
 608 0002 0446     		mov	r4, r0
 609              		.cfi_offset 14, -4
 610              		.cfi_offset 4, -8
 611              		.loc 1 291 0
 612 0004 10B9     		cbnz	r0, .L33
 613              		.loc 1 291 0 is_stmt 0 discriminator 1
ARM GAS  C:\Users\z80\AppData\Local\Temp\ccM1QJXX.s 			page 12


 614 0006 0948     		ldr	r0, .L34
 615              	.LVL46:
 616 0008 FFF7FEFF 		bl	chDbgPanic
 617              	.L33:
 618              	.LBB32:
 619              		.loc 1 293 0 is_stmt 1
 620 000c 2023     		movs	r3, #32
 621              	.LVL47:
 622              	@ 293 "../chibios_2.4.x/os/kernel/src/chthreads.c" 1
 623 000e 83F31188 		msr     BASEPRI, r3
 624              	@ 0 "" 2
 625              	.LVL48:
 626              		.thumb
 627              	.LBE32:
 628 0012 FFF7FEFF 		bl	dbg_check_lock
 629              	.LVL49:
 630              		.loc 1 294 0
 631 0016 2146     		mov	r1, r4
 632 0018 0620     		movs	r0, #6
 633 001a FFF7FEFF 		bl	chSchGoSleepTimeoutS
 634              		.loc 1 295 0
 635 001e FFF7FEFF 		bl	dbg_check_unlock
 636              	.LBB33:
 637 0022 0023     		movs	r3, #0
 638              	.LVL50:
 639              	@ 295 "../chibios_2.4.x/os/kernel/src/chthreads.c" 1
 640 0024 83F31188 		msr     BASEPRI, r3
 641              	@ 0 "" 2
 642              	.LVL51:
 643              		.thumb
 644              	.LBE33:
 645              		.loc 1 296 0
 646 0028 10BD     		pop	{r4, pc}
 647              	.L35:
 648 002a 00BF     		.align	2
 649              	.L34:
 650 002c 40000000 		.word	.LC3
 651              		.cfi_endproc
 652              	.LFE14:
 653              		.size	chThdSleep, .-chThdSleep
 654              		.section	.text.chThdSleepUntil,"ax",%progbits
 655              		.align	2
 656              		.p2align 4,,15
 657              		.global	chThdSleepUntil
 658              		.thumb
 659              		.thumb_func
 660              		.type	chThdSleepUntil, %function
 661              	chThdSleepUntil:
 662              	.LFB15:
 663              		.loc 1 306 0
 664              		.cfi_startproc
 665              		@ args = 0, pretend = 0, frame = 0
 666              		@ frame_needed = 0, uses_anonymous_args = 0
 667              	.LVL52:
 668 0000 10B5     		push	{r4, lr}
 669              	.LCFI8:
 670              		.cfi_def_cfa_offset 8
ARM GAS  C:\Users\z80\AppData\Local\Temp\ccM1QJXX.s 			page 13


 671              	.LBB34:
 672              		.loc 1 308 0
 673 0002 2023     		movs	r3, #32
 674              	.LVL53:
 675              	.LBE34:
 676              		.loc 1 306 0
 677 0004 0446     		mov	r4, r0
 678              		.cfi_offset 14, -4
 679              		.cfi_offset 4, -8
 680              	.LBB35:
 681              		.loc 1 308 0
 682              	@ 308 "../chibios_2.4.x/os/kernel/src/chthreads.c" 1
 683 0006 83F31188 		msr     BASEPRI, r3
 684              	@ 0 "" 2
 685              	.LVL54:
 686              		.thumb
 687              	.LBE35:
 688 000a FFF7FEFF 		bl	dbg_check_lock
 689              	.LVL55:
 690              		.loc 1 309 0
 691 000e 064B     		ldr	r3, .L38
 692 0010 D968     		ldr	r1, [r3, #12]
 693              	.LVL56:
 694 0012 611A     		subs	r1, r4, r1
 695              	.LVL57:
 696 0014 02D0     		beq	.L37
 697              		.loc 1 310 0
 698 0016 0620     		movs	r0, #6
 699 0018 FFF7FEFF 		bl	chSchGoSleepTimeoutS
 700              	.LVL58:
 701              	.L37:
 702              		.loc 1 311 0
 703 001c FFF7FEFF 		bl	dbg_check_unlock
 704              	.LBB36:
 705 0020 0023     		movs	r3, #0
 706              	.LVL59:
 707              	@ 311 "../chibios_2.4.x/os/kernel/src/chthreads.c" 1
 708 0022 83F31188 		msr     BASEPRI, r3
 709              	@ 0 "" 2
 710              	.LVL60:
 711              		.thumb
 712              	.LBE36:
 713              		.loc 1 312 0
 714 0026 10BD     		pop	{r4, pc}
 715              	.L39:
 716              		.align	2
 717              	.L38:
 718 0028 00000000 		.word	vtlist
 719              		.cfi_endproc
 720              	.LFE15:
 721              		.size	chThdSleepUntil, .-chThdSleepUntil
 722 002c AFF30080 		.section	.text.chThdYield,"ax",%progbits
 723              		.align	2
 724              		.p2align 4,,15
 725              		.global	chThdYield
 726              		.thumb
 727              		.thumb_func
ARM GAS  C:\Users\z80\AppData\Local\Temp\ccM1QJXX.s 			page 14


 728              		.type	chThdYield, %function
 729              	chThdYield:
 730              	.LFB16:
 731              		.loc 1 321 0
 732              		.cfi_startproc
 733              		@ args = 0, pretend = 0, frame = 0
 734              		@ frame_needed = 0, uses_anonymous_args = 0
 735 0000 08B5     		push	{r3, lr}
 736              	.LCFI9:
 737              		.cfi_def_cfa_offset 8
 738              	.LBB37:
 739              		.loc 1 323 0
 740 0002 2023     		movs	r3, #32
 741              		.cfi_offset 14, -4
 742              		.cfi_offset 3, -8
 743              	.LVL61:
 744              	@ 323 "../chibios_2.4.x/os/kernel/src/chthreads.c" 1
 745 0004 83F31188 		msr     BASEPRI, r3
 746              	@ 0 "" 2
 747              	.LVL62:
 748              		.thumb
 749              	.LBE37:
 750 0008 FFF7FEFF 		bl	dbg_check_lock
 751              	.LVL63:
 752              		.loc 1 324 0
 753 000c 074B     		ldr	r3, .L42
 754 000e 1A68     		ldr	r2, [r3, #0]
 755 0010 DB69     		ldr	r3, [r3, #28]
 756 0012 9268     		ldr	r2, [r2, #8]
 757 0014 9B68     		ldr	r3, [r3, #8]
 758 0016 9A42     		cmp	r2, r3
 759 0018 01D3     		bcc	.L41
 760              		.loc 1 324 0 is_stmt 0 discriminator 1
 761 001a FFF7FEFF 		bl	chSchDoReschedule
 762              	.L41:
 763              		.loc 1 325 0 is_stmt 1
 764 001e FFF7FEFF 		bl	dbg_check_unlock
 765              	.LBB38:
 766 0022 0023     		movs	r3, #0
 767              	.LVL64:
 768              	@ 325 "../chibios_2.4.x/os/kernel/src/chthreads.c" 1
 769 0024 83F31188 		msr     BASEPRI, r3
 770              	@ 0 "" 2
 771              	.LVL65:
 772              		.thumb
 773              	.LBE38:
 774              		.loc 1 326 0
 775 0028 08BD     		pop	{r3, pc}
 776              	.L43:
 777 002a 00BF     		.align	2
 778              	.L42:
 779 002c 00000000 		.word	rlist
 780              		.cfi_endproc
 781              	.LFE16:
 782              		.size	chThdYield, .-chThdYield
 783              		.section	.text.chThdExitS,"ax",%progbits
 784              		.align	2
ARM GAS  C:\Users\z80\AppData\Local\Temp\ccM1QJXX.s 			page 15


 785              		.p2align 4,,15
 786              		.global	chThdExitS
 787              		.thumb
 788              		.thumb_func
 789              		.type	chThdExitS, %function
 790              	chThdExitS:
 791              	.LFB18:
 792              		.loc 1 363 0
 793              		.cfi_startproc
 794              		@ args = 0, pretend = 0, frame = 0
 795              		@ frame_needed = 0, uses_anonymous_args = 0
 796              	.LVL66:
 797              		.loc 1 364 0
 798 0000 114A     		ldr	r2, .L50
 799              		.loc 1 363 0
 800 0002 38B5     		push	{r3, r4, r5, lr}
 801              	.LCFI10:
 802              		.cfi_def_cfa_offset 16
 803              		.loc 1 364 0
 804 0004 D469     		ldr	r4, [r2, #28]
 805              		.cfi_offset 14, -4
 806              		.cfi_offset 5, -8
 807              		.cfi_offset 4, -12
 808              		.cfi_offset 3, -16
 809              	.LVL67:
 810              		.loc 1 363 0
 811 0006 0346     		mov	r3, r0
 812              		.loc 1 371 0
 813 0008 2546     		mov	r5, r4
 814 000a 55F82C0F 		ldr	r0, [r5, #44]!
 815              	.LVL68:
 816              		.loc 1 366 0
 817 000e A362     		str	r3, [r4, #40]
 818              		.loc 1 371 0
 819 0010 A842     		cmp	r0, r5
 820 0012 06D0     		beq	.L45
 821              	.LVL69:
 822              	.L48:
 823              	.LBB39:
 824              	.LBB40:
 825              		.file 2 "../chibios_2.4.x/os/kernel/include/chinline.h"
 826              		.loc 2 89 0
 827 0014 0368     		ldr	r3, [r0, #0]
 828 0016 E362     		str	r3, [r4, #44]
 829              	.LBE40:
 830              	.LBE39:
 831              		.loc 1 372 0
 832 0018 FFF7FEFF 		bl	chSchReadyI
 833              	.LVL70:
 834              		.loc 1 371 0
 835 001c E06A     		ldr	r0, [r4, #44]
 836 001e A842     		cmp	r0, r5
 837 0020 F8D1     		bne	.L48
 838              	.LVL71:
 839              	.L45:
 840              		.loc 1 377 0
 841 0022 94F82130 		ldrb	r3, [r4, #33]	@ zero_extendqisi2
ARM GAS  C:\Users\z80\AppData\Local\Temp\ccM1QJXX.s 			page 16


 842 0026 13F0030F 		tst	r3, #3
 843              		.loc 1 378 0
 844 002a 01BF     		itttt	eq
 845 002c 2269     		ldreq	r2, [r4, #16]
 846 002e 6369     		ldreq	r3, [r4, #20]
 847 0030 1A61     		streq	r2, [r3, #16]
 848 0032 2269     		ldreq	r2, [r4, #16]
 849 0034 08BF     		it	eq
 850 0036 5361     		streq	r3, [r2, #20]
 851              		.loc 1 380 0
 852 0038 0E20     		movs	r0, #14
 853 003a FFF7FEFF 		bl	chSchGoSleepS
 854              		.loc 1 382 0
 855 003e 0348     		ldr	r0, .L50+4
 856 0040 FFF7FEFF 		bl	chDbgPanic
 857              		.loc 1 383 0
 858 0044 38BD     		pop	{r3, r4, r5, pc}
 859              	.L51:
 860 0046 00BF     		.align	2
 861              	.L50:
 862 0048 00000000 		.word	rlist
 863 004c 50000000 		.word	.LC4
 864              		.cfi_endproc
 865              	.LFE18:
 866              		.size	chThdExitS, .-chThdExitS
 867              		.section	.text.chThdExit,"ax",%progbits
 868              		.align	2
 869              		.p2align 4,,15
 870              		.global	chThdExit
 871              		.thumb
 872              		.thumb_func
 873              		.type	chThdExit, %function
 874              	chThdExit:
 875              	.LFB17:
 876              		.loc 1 342 0
 877              		.cfi_startproc
 878              		@ args = 0, pretend = 0, frame = 0
 879              		@ frame_needed = 0, uses_anonymous_args = 0
 880              	.LVL72:
 881 0000 10B5     		push	{r4, lr}
 882              	.LCFI11:
 883              		.cfi_def_cfa_offset 8
 884              	.LBB41:
 885              		.loc 1 344 0
 886 0002 2023     		movs	r3, #32
 887              	.LVL73:
 888              	.LBE41:
 889              		.loc 1 342 0
 890 0004 0446     		mov	r4, r0
 891              		.cfi_offset 14, -4
 892              		.cfi_offset 4, -8
 893              	.LBB42:
 894              		.loc 1 344 0
 895              	@ 344 "../chibios_2.4.x/os/kernel/src/chthreads.c" 1
 896 0006 83F31188 		msr     BASEPRI, r3
 897              	@ 0 "" 2
 898              	.LVL74:
ARM GAS  C:\Users\z80\AppData\Local\Temp\ccM1QJXX.s 			page 17


 899              		.thumb
 900              	.LBE42:
 901 000a FFF7FEFF 		bl	dbg_check_lock
 902              	.LVL75:
 903              		.loc 1 345 0
 904 000e 2046     		mov	r0, r4
 905 0010 FFF7FEFF 		bl	chThdExitS
 906              		.loc 1 347 0
 907 0014 10BD     		pop	{r4, pc}
 908              		.cfi_endproc
 909              	.LFE17:
 910              		.size	chThdExit, .-chThdExit
 911 0016 00BFAFF3 		.section	.text.chThdWait,"ax",%progbits
 911      0080AFF3 
 911      0080
 912              		.align	2
 913              		.p2align 4,,15
 914              		.global	chThdWait
 915              		.thumb
 916              		.thumb_func
 917              		.type	chThdWait, %function
 918              	chThdWait:
 919              	.LFB19:
 920              		.loc 1 417 0
 921              		.cfi_startproc
 922              		@ args = 0, pretend = 0, frame = 0
 923              		@ frame_needed = 0, uses_anonymous_args = 0
 924              	.LVL76:
 925 0000 38B5     		push	{r3, r4, r5, lr}
 926              	.LCFI12:
 927              		.cfi_def_cfa_offset 16
 928              		.loc 1 417 0
 929 0002 0446     		mov	r4, r0
 930              		.cfi_offset 14, -4
 931              		.cfi_offset 5, -8
 932              		.cfi_offset 4, -12
 933              		.cfi_offset 3, -16
 934              		.loc 1 420 0
 935 0004 0028     		cmp	r0, #0
 936 0006 29D0     		beq	.L58
 937              	.LVL77:
 938              	.L54:
 939              	.LBB43:
 940              		.loc 1 422 0
 941 0008 2023     		movs	r3, #32
 942              	.LVL78:
 943              	@ 422 "../chibios_2.4.x/os/kernel/src/chthreads.c" 1
 944 000a 83F31188 		msr     BASEPRI, r3
 945              	@ 0 "" 2
 946              	.LVL79:
 947              		.thumb
 948              	.LBE43:
 949              		.loc 1 423 0
 950 000e 154D     		ldr	r5, .L61
 951              		.loc 1 422 0
 952 0010 FFF7FEFF 		bl	dbg_check_lock
 953              	.LVL80:
ARM GAS  C:\Users\z80\AppData\Local\Temp\ccM1QJXX.s 			page 18


 954              		.loc 1 423 0
 955 0014 EB69     		ldr	r3, [r5, #28]
 956 0016 A342     		cmp	r3, r4
 957 0018 1CD0     		beq	.L59
 958              	.L55:
 959              		.loc 1 425 0
 960 001a 94F82230 		ldrb	r3, [r4, #34]	@ zero_extendqisi2
 961 001e ABB1     		cbz	r3, .L60
 962              	.L56:
 963              		.loc 1 427 0
 964 0020 94F82030 		ldrb	r3, [r4, #32]	@ zero_extendqisi2
 965 0024 0E2B     		cmp	r3, #14
 966 0026 06D0     		beq	.L57
 967              		.loc 1 428 0
 968 0028 EB69     		ldr	r3, [r5, #28]
 969              	.LVL81:
 970              	.LBB44:
 971              	.LBB45:
 972              		.loc 2 82 0
 973 002a E26A     		ldr	r2, [r4, #44]
 974              	.LBE45:
 975              	.LBE44:
 976              		.loc 1 429 0
 977 002c 0720     		movs	r0, #7
 978              	.LBB47:
 979              	.LBB46:
 980              		.loc 2 83 0
 981 002e E362     		str	r3, [r4, #44]
 982              		.loc 2 82 0
 983 0030 1A60     		str	r2, [r3, #0]
 984              	.LBE46:
 985              	.LBE47:
 986              		.loc 1 429 0
 987 0032 FFF7FEFF 		bl	chSchGoSleepS
 988              	.LVL82:
 989              	.L57:
 990              		.loc 1 431 0
 991 0036 A56A     		ldr	r5, [r4, #40]
 992              	.LVL83:
 993              		.loc 1 432 0
 994 0038 FFF7FEFF 		bl	dbg_check_unlock
 995              	.LVL84:
 996              	.LBB48:
 997 003c 0023     		movs	r3, #0
 998              	.LVL85:
 999              	@ 432 "../chibios_2.4.x/os/kernel/src/chthreads.c" 1
 1000 003e 83F31188 		msr     BASEPRI, r3
 1001              	@ 0 "" 2
 1002              	.LVL86:
 1003              		.thumb
 1004              	.LBE48:
 1005              		.loc 1 434 0
 1006 0042 2046     		mov	r0, r4
 1007 0044 FFF7FEFF 		bl	chThdRelease
 1008              	.LVL87:
 1009              		.loc 1 437 0
 1010 0048 2846     		mov	r0, r5
ARM GAS  C:\Users\z80\AppData\Local\Temp\ccM1QJXX.s 			page 19


 1011 004a 38BD     		pop	{r3, r4, r5, pc}
 1012              	.LVL88:
 1013              	.L60:
 1014              		.loc 1 425 0 discriminator 1
 1015 004c 0648     		ldr	r0, .L61+4
 1016 004e FFF7FEFF 		bl	chDbgPanic
 1017 0052 E5E7     		b	.L56
 1018              	.L59:
 1019              		.loc 1 423 0 discriminator 1
 1020 0054 0548     		ldr	r0, .L61+8
 1021 0056 FFF7FEFF 		bl	chDbgPanic
 1022 005a DEE7     		b	.L55
 1023              	.L58:
 1024              		.loc 1 420 0 discriminator 1
 1025 005c 0448     		ldr	r0, .L61+12
 1026 005e FFF7FEFF 		bl	chDbgPanic
 1027 0062 D1E7     		b	.L54
 1028              	.L62:
 1029              		.align	2
 1030              	.L61:
 1031 0064 00000000 		.word	rlist
 1032 0068 84000000 		.word	.LC7
 1033 006c 74000000 		.word	.LC6
 1034 0070 64000000 		.word	.LC5
 1035              		.cfi_endproc
 1036              	.LFE19:
 1037              		.size	chThdWait, .-chThdWait
 1038 0074 AFF30080 		.section	.rodata.str1.4,"aMS",%progbits,1
 1038      AFF30080 
 1038      AFF30080 
 1039              		.align	2
 1040              	.LC0:
 1041 0000 22636854 		.ascii	"\"chThdCreateI\"()\000"
 1041      68644372 
 1041      65617465 
 1041      49222829 
 1041      00
 1042 0011 000000   		.space	3
 1043              	.LC1:
 1044 0014 22636854 		.ascii	"\"chThdSetPriority\"()\000"
 1044      68645365 
 1044      74507269 
 1044      6F726974 
 1044      79222829 
 1045 0029 000000   		.space	3
 1046              	.LC2:
 1047 002c 63685468 		.ascii	"chThdResume(), #1\000"
 1047      64526573 
 1047      756D6528 
 1047      292C2023 
 1047      3100
 1048 003e 0000     		.space	2
 1049              	.LC3:
 1050 0040 22636854 		.ascii	"\"chThdSleep\"()\000"
 1050      6864536C 
 1050      65657022 
 1050      282900
ARM GAS  C:\Users\z80\AppData\Local\Temp\ccM1QJXX.s 			page 20


 1051 004f 00       		.space	1
 1052              	.LC4:
 1053 0050 63685468 		.ascii	"chThdExitS(), #1\000"
 1053      64457869 
 1053      74532829 
 1053      2C202331 
 1053      00
 1054 0061 000000   		.space	3
 1055              	.LC5:
 1056 0064 22636854 		.ascii	"\"chThdWait\"()\000"
 1056      68645761 
 1056      69742228 
 1056      2900
 1057 0072 0000     		.space	2
 1058              	.LC6:
 1059 0074 63685468 		.ascii	"chThdWait(), #1\000"
 1059      64576169 
 1059      7428292C 
 1059      20233100 
 1060              	.LC7:
 1061 0084 63685468 		.ascii	"chThdWait(), #2\000"
 1061      64576169 
 1061      7428292C 
 1061      20233200 
 1062              		.text
 1063              	.Letext0:
 1064              		.section	.debug_loc,"",%progbits
 1065              	.Ldebug_loc0:
 1066              	.LLST0:
 1067 0000 00000000 		.4byte	.LFB7
 1068 0004 24000000 		.4byte	.LCFI0
 1069 0008 0200     		.2byte	0x2
 1070 000a 7D       		.byte	0x7d
 1071 000b 00       		.sleb128 0
 1072 000c 24000000 		.4byte	.LCFI0
 1073 0010 54000000 		.4byte	.LFE7
 1074 0014 0200     		.2byte	0x2
 1075 0016 7D       		.byte	0x7d
 1076 0017 0C       		.sleb128 12
 1077 0018 00000000 		.4byte	0x0
 1078 001c 00000000 		.4byte	0x0
 1079              	.LLST1:
 1080 0020 00000000 		.4byte	.LVL1
 1081 0024 08000000 		.4byte	.LVL2
 1082 0028 0100     		.2byte	0x1
 1083 002a 50       		.byte	0x50
 1084 002b 08000000 		.4byte	.LVL2
 1085 002f 0E000000 		.4byte	.LFE8
 1086 0033 0100     		.2byte	0x1
 1087 0035 50       		.byte	0x50
 1088 0036 00000000 		.4byte	0x0
 1089 003a 00000000 		.4byte	0x0
 1090              	.LLST2:
 1091 003e 00000000 		.4byte	.LFB9
 1092 0042 02000000 		.4byte	.LCFI1
 1093 0046 0200     		.2byte	0x2
 1094 0048 7D       		.byte	0x7d
ARM GAS  C:\Users\z80\AppData\Local\Temp\ccM1QJXX.s 			page 21


 1095 0049 00       		.sleb128 0
 1096 004a 02000000 		.4byte	.LCFI1
 1097 004e 98000000 		.4byte	.LFE9
 1098 0052 0200     		.2byte	0x2
 1099 0054 7D       		.byte	0x7d
 1100 0055 18       		.sleb128 24
 1101 0056 00000000 		.4byte	0x0
 1102 005a 00000000 		.4byte	0x0
 1103              	.LLST3:
 1104 005e 00000000 		.4byte	.LVL3
 1105 0062 0D000000 		.4byte	.LVL5-1
 1106 0066 0100     		.2byte	0x1
 1107 0068 50       		.byte	0x50
 1108 0069 0D000000 		.4byte	.LVL5-1
 1109 006d 98000000 		.4byte	.LFE9
 1110 0071 0100     		.2byte	0x1
 1111 0073 54       		.byte	0x54
 1112 0074 00000000 		.4byte	0x0
 1113 0078 00000000 		.4byte	0x0
 1114              	.LLST4:
 1115 007c 00000000 		.4byte	.LVL3
 1116 0080 0D000000 		.4byte	.LVL5-1
 1117 0084 0100     		.2byte	0x1
 1118 0086 51       		.byte	0x51
 1119 0087 0D000000 		.4byte	.LVL5-1
 1120 008b 3A000000 		.4byte	.LVL6
 1121 008f 0100     		.2byte	0x1
 1122 0091 55       		.byte	0x55
 1123 0092 3A000000 		.4byte	.LVL6
 1124 0096 66000000 		.4byte	.LVL8
 1125 009a 0300     		.2byte	0x3
 1126 009c 75       		.byte	0x75
 1127 009d 24       		.sleb128 36
 1128 009e 9F       		.byte	0x9f
 1129 009f 00000000 		.4byte	0x0
 1130 00a3 00000000 		.4byte	0x0
 1131              	.LLST5:
 1132 00a7 00000000 		.4byte	.LVL3
 1133 00ab 0D000000 		.4byte	.LVL5-1
 1134 00af 0100     		.2byte	0x1
 1135 00b1 52       		.byte	0x52
 1136 00b2 0D000000 		.4byte	.LVL5-1
 1137 00b6 98000000 		.4byte	.LFE9
 1138 00ba 0100     		.2byte	0x1
 1139 00bc 56       		.byte	0x56
 1140 00bd 00000000 		.4byte	0x0
 1141 00c1 00000000 		.4byte	0x0
 1142              	.LLST6:
 1143 00c5 00000000 		.4byte	.LVL3
 1144 00c9 0D000000 		.4byte	.LVL5-1
 1145 00cd 0100     		.2byte	0x1
 1146 00cf 53       		.byte	0x53
 1147 00d0 0D000000 		.4byte	.LVL5-1
 1148 00d4 98000000 		.4byte	.LFE9
 1149 00d8 0100     		.2byte	0x1
 1150 00da 57       		.byte	0x57
 1151 00db 00000000 		.4byte	0x0
ARM GAS  C:\Users\z80\AppData\Local\Temp\ccM1QJXX.s 			page 22


 1152 00df 00000000 		.4byte	0x0
 1153              	.LLST7:
 1154 00e3 04000000 		.4byte	.LVL4
 1155 00e7 0D000000 		.4byte	.LVL5-1
 1156 00eb 0100     		.2byte	0x1
 1157 00ed 50       		.byte	0x50
 1158 00ee 0D000000 		.4byte	.LVL5-1
 1159 00f2 98000000 		.4byte	.LFE9
 1160 00f6 0100     		.2byte	0x1
 1161 00f8 54       		.byte	0x54
 1162 00f9 00000000 		.4byte	0x0
 1163 00fd 00000000 		.4byte	0x0
 1164              	.LLST8:
 1165 0101 00000000 		.4byte	.LFB10
 1166 0105 02000000 		.4byte	.LCFI2
 1167 0109 0200     		.2byte	0x2
 1168 010b 7D       		.byte	0x7d
 1169 010c 00       		.sleb128 0
 1170 010d 02000000 		.4byte	.LCFI2
 1171 0111 0A000000 		.4byte	.LCFI3
 1172 0115 0200     		.2byte	0x2
 1173 0117 7D       		.byte	0x7d
 1174 0118 14       		.sleb128 20
 1175 0119 0A000000 		.4byte	.LCFI3
 1176 011d 62000000 		.4byte	.LFE10
 1177 0121 0200     		.2byte	0x2
 1178 0123 7D       		.byte	0x7d
 1179 0124 20       		.sleb128 32
 1180 0125 00000000 		.4byte	0x0
 1181 0129 00000000 		.4byte	0x0
 1182              	.LLST9:
 1183 012d 00000000 		.4byte	.LVL9
 1184 0131 35000000 		.4byte	.LVL19-1
 1185 0135 0100     		.2byte	0x1
 1186 0137 50       		.byte	0x50
 1187 0138 35000000 		.4byte	.LVL19-1
 1188 013c 4E000000 		.4byte	.LVL20
 1189 0140 0100     		.2byte	0x1
 1190 0142 54       		.byte	0x54
 1191 0143 00000000 		.4byte	0x0
 1192 0147 00000000 		.4byte	0x0
 1193              	.LLST10:
 1194 014b 00000000 		.4byte	.LVL9
 1195 014f 14000000 		.4byte	.LVL12
 1196 0153 0100     		.2byte	0x1
 1197 0155 51       		.byte	0x51
 1198 0156 14000000 		.4byte	.LVL12
 1199 015a 62000000 		.4byte	.LFE10
 1200 015e 0100     		.2byte	0x1
 1201 0160 55       		.byte	0x55
 1202 0161 00000000 		.4byte	0x0
 1203 0165 00000000 		.4byte	0x0
 1204              	.LLST11:
 1205 0169 00000000 		.4byte	.LVL9
 1206 016d 10000000 		.4byte	.LVL10
 1207 0171 0100     		.2byte	0x1
 1208 0173 52       		.byte	0x52
ARM GAS  C:\Users\z80\AppData\Local\Temp\ccM1QJXX.s 			page 23


 1209 0174 10000000 		.4byte	.LVL10
 1210 0178 62000000 		.4byte	.LFE10
 1211 017c 0100     		.2byte	0x1
 1212 017e 56       		.byte	0x56
 1213 017f 00000000 		.4byte	0x0
 1214 0183 00000000 		.4byte	0x0
 1215              	.LLST12:
 1216 0187 00000000 		.4byte	.LVL9
 1217 018b 12000000 		.4byte	.LVL11
 1218 018f 0100     		.2byte	0x1
 1219 0191 53       		.byte	0x53
 1220 0192 12000000 		.4byte	.LVL11
 1221 0196 62000000 		.4byte	.LFE10
 1222 019a 0100     		.2byte	0x1
 1223 019c 57       		.byte	0x57
 1224 019d 00000000 		.4byte	0x0
 1225 01a1 00000000 		.4byte	0x0
 1226              	.LLST13:
 1227 01a5 4E000000 		.4byte	.LVL20
 1228 01a9 51000000 		.4byte	.LVL21-1
 1229 01ad 0100     		.2byte	0x1
 1230 01af 50       		.byte	0x50
 1231 01b0 51000000 		.4byte	.LVL21-1
 1232 01b4 62000000 		.4byte	.LFE10
 1233 01b8 0100     		.2byte	0x1
 1234 01ba 54       		.byte	0x54
 1235 01bb 00000000 		.4byte	0x0
 1236 01bf 00000000 		.4byte	0x0
 1237              	.LLST14:
 1238 01c3 10000000 		.4byte	.LVL10
 1239 01c7 24000000 		.4byte	.LVL15
 1240 01cb 0100     		.2byte	0x1
 1241 01cd 52       		.byte	0x52
 1242 01ce 00000000 		.4byte	0x0
 1243 01d2 00000000 		.4byte	0x0
 1244              	.LLST15:
 1245 01d6 10000000 		.4byte	.LVL10
 1246 01da 14000000 		.4byte	.LVL12
 1247 01de 0100     		.2byte	0x1
 1248 01e0 50       		.byte	0x50
 1249 01e1 14000000 		.4byte	.LVL12
 1250 01e5 18000000 		.4byte	.LVL13
 1251 01e9 0100     		.2byte	0x1
 1252 01eb 53       		.byte	0x53
 1253 01ec 18000000 		.4byte	.LVL13
 1254 01f0 1E000000 		.4byte	.LVL14
 1255 01f4 0100     		.2byte	0x1
 1256 01f6 53       		.byte	0x53
 1257 01f7 00000000 		.4byte	0x0
 1258 01fb 00000000 		.4byte	0x0
 1259              	.LLST16:
 1260 01ff 1E000000 		.4byte	.LVL14
 1261 0203 2E000000 		.4byte	.LVL17
 1262 0207 0100     		.2byte	0x1
 1263 0209 53       		.byte	0x53
 1264 020a 00000000 		.4byte	0x0
 1265 020e 00000000 		.4byte	0x0
ARM GAS  C:\Users\z80\AppData\Local\Temp\ccM1QJXX.s 			page 24


 1266              	.LLST17:
 1267 0212 1E000000 		.4byte	.LVL14
 1268 0216 28000000 		.4byte	.LVL16
 1269 021a 0100     		.2byte	0x1
 1270 021c 52       		.byte	0x52
 1271 021d 28000000 		.4byte	.LVL16
 1272 0221 35000000 		.4byte	.LVL19-1
 1273 0225 0100     		.2byte	0x1
 1274 0227 52       		.byte	0x52
 1275 0228 00000000 		.4byte	0x0
 1276 022c 00000000 		.4byte	0x0
 1277              	.LLST18:
 1278 0230 32000000 		.4byte	.LVL18
 1279 0234 35000000 		.4byte	.LVL19-1
 1280 0238 0100     		.2byte	0x1
 1281 023a 53       		.byte	0x53
 1282 023b 00000000 		.4byte	0x0
 1283 023f 00000000 		.4byte	0x0
 1284              	.LLST19:
 1285 0243 5C000000 		.4byte	.LVL23
 1286 0247 62000000 		.4byte	.LFE10
 1287 024b 0100     		.2byte	0x1
 1288 024d 53       		.byte	0x53
 1289 024e 00000000 		.4byte	0x0
 1290 0252 00000000 		.4byte	0x0
 1291              	.LLST20:
 1292 0256 00000000 		.4byte	.LFB11
 1293 025a 04000000 		.4byte	.LCFI4
 1294 025e 0200     		.2byte	0x2
 1295 0260 7D       		.byte	0x7d
 1296 0261 00       		.sleb128 0
 1297 0262 04000000 		.4byte	.LCFI4
 1298 0266 48000000 		.4byte	.LFE11
 1299 026a 0200     		.2byte	0x2
 1300 026c 7D       		.byte	0x7d
 1301 026d 10       		.sleb128 16
 1302 026e 00000000 		.4byte	0x0
 1303 0272 00000000 		.4byte	0x0
 1304              	.LLST21:
 1305 0276 00000000 		.4byte	.LVL24
 1306 027a 08000000 		.4byte	.LVL25
 1307 027e 0100     		.2byte	0x1
 1308 0280 50       		.byte	0x50
 1309 0281 08000000 		.4byte	.LVL25
 1310 0285 48000000 		.4byte	.LFE11
 1311 0289 0100     		.2byte	0x1
 1312 028b 54       		.byte	0x54
 1313 028c 00000000 		.4byte	0x0
 1314 0290 00000000 		.4byte	0x0
 1315              	.LLST22:
 1316 0294 18000000 		.4byte	.LVL29
 1317 0298 38000000 		.4byte	.LVL32
 1318 029c 0100     		.2byte	0x1
 1319 029e 55       		.byte	0x55
 1320 029f 00000000 		.4byte	0x0
 1321 02a3 00000000 		.4byte	0x0
 1322              	.LLST23:
ARM GAS  C:\Users\z80\AppData\Local\Temp\ccM1QJXX.s 			page 25


 1323 02a7 0E000000 		.4byte	.LVL27
 1324 02ab 11000000 		.4byte	.LVL28-1
 1325 02af 0100     		.2byte	0x1
 1326 02b1 53       		.byte	0x53
 1327 02b2 00000000 		.4byte	0x0
 1328 02b6 00000000 		.4byte	0x0
 1329              	.LLST24:
 1330 02ba 34000000 		.4byte	.LVL31
 1331 02be 38000000 		.4byte	.LVL32
 1332 02c2 0100     		.2byte	0x1
 1333 02c4 53       		.byte	0x53
 1334 02c5 00000000 		.4byte	0x0
 1335 02c9 00000000 		.4byte	0x0
 1336              	.LLST25:
 1337 02cd 00000000 		.4byte	.LFB12
 1338 02d1 02000000 		.4byte	.LCFI5
 1339 02d5 0200     		.2byte	0x2
 1340 02d7 7D       		.byte	0x7d
 1341 02d8 00       		.sleb128 0
 1342 02d9 02000000 		.4byte	.LCFI5
 1343 02dd 38000000 		.4byte	.LFE12
 1344 02e1 0200     		.2byte	0x2
 1345 02e3 7D       		.byte	0x7d
 1346 02e4 08       		.sleb128 8
 1347 02e5 00000000 		.4byte	0x0
 1348 02e9 00000000 		.4byte	0x0
 1349              	.LLST26:
 1350 02ed 00000000 		.4byte	.LVL33
 1351 02f1 0D000000 		.4byte	.LVL36-1
 1352 02f5 0100     		.2byte	0x1
 1353 02f7 50       		.byte	0x50
 1354 02f8 0D000000 		.4byte	.LVL36-1
 1355 02fc 38000000 		.4byte	.LFE12
 1356 0300 0100     		.2byte	0x1
 1357 0302 54       		.byte	0x54
 1358 0303 00000000 		.4byte	0x0
 1359 0307 00000000 		.4byte	0x0
 1360              	.LLST27:
 1361 030b 0A000000 		.4byte	.LVL35
 1362 030f 0D000000 		.4byte	.LVL36-1
 1363 0313 0100     		.2byte	0x1
 1364 0315 53       		.byte	0x53
 1365 0316 00000000 		.4byte	0x0
 1366 031a 00000000 		.4byte	0x0
 1367              	.LLST28:
 1368 031e 2E000000 		.4byte	.LVL38
 1369 0322 38000000 		.4byte	.LFE12
 1370 0326 0100     		.2byte	0x1
 1371 0328 53       		.byte	0x53
 1372 0329 00000000 		.4byte	0x0
 1373 032d 00000000 		.4byte	0x0
 1374              	.LLST29:
 1375 0331 00000000 		.4byte	.LFB13
 1376 0335 02000000 		.4byte	.LCFI6
 1377 0339 0200     		.2byte	0x2
 1378 033b 7D       		.byte	0x7d
 1379 033c 00       		.sleb128 0
ARM GAS  C:\Users\z80\AppData\Local\Temp\ccM1QJXX.s 			page 26


 1380 033d 02000000 		.4byte	.LCFI6
 1381 0341 26000000 		.4byte	.LFE13
 1382 0345 0200     		.2byte	0x2
 1383 0347 7D       		.byte	0x7d
 1384 0348 08       		.sleb128 8
 1385 0349 00000000 		.4byte	0x0
 1386 034d 00000000 		.4byte	0x0
 1387              	.LLST30:
 1388 0351 00000000 		.4byte	.LVL39
 1389 0355 0D000000 		.4byte	.LVL42-1
 1390 0359 0100     		.2byte	0x1
 1391 035b 50       		.byte	0x50
 1392 035c 0D000000 		.4byte	.LVL42-1
 1393 0360 26000000 		.4byte	.LFE13
 1394 0364 0100     		.2byte	0x1
 1395 0366 54       		.byte	0x54
 1396 0367 00000000 		.4byte	0x0
 1397 036b 00000000 		.4byte	0x0
 1398              	.LLST31:
 1399 036f 0A000000 		.4byte	.LVL41
 1400 0373 0D000000 		.4byte	.LVL42-1
 1401 0377 0100     		.2byte	0x1
 1402 0379 53       		.byte	0x53
 1403 037a 00000000 		.4byte	0x0
 1404 037e 00000000 		.4byte	0x0
 1405              	.LLST32:
 1406 0382 24000000 		.4byte	.LVL44
 1407 0386 26000000 		.4byte	.LFE13
 1408 038a 0100     		.2byte	0x1
 1409 038c 53       		.byte	0x53
 1410 038d 00000000 		.4byte	0x0
 1411 0391 00000000 		.4byte	0x0
 1412              	.LLST33:
 1413 0395 00000000 		.4byte	.LFB14
 1414 0399 02000000 		.4byte	.LCFI7
 1415 039d 0200     		.2byte	0x2
 1416 039f 7D       		.byte	0x7d
 1417 03a0 00       		.sleb128 0
 1418 03a1 02000000 		.4byte	.LCFI7
 1419 03a5 30000000 		.4byte	.LFE14
 1420 03a9 0200     		.2byte	0x2
 1421 03ab 7D       		.byte	0x7d
 1422 03ac 08       		.sleb128 8
 1423 03ad 00000000 		.4byte	0x0
 1424 03b1 00000000 		.4byte	0x0
 1425              	.LLST34:
 1426 03b5 00000000 		.4byte	.LVL45
 1427 03b9 08000000 		.4byte	.LVL46
 1428 03bd 0100     		.2byte	0x1
 1429 03bf 50       		.byte	0x50
 1430 03c0 08000000 		.4byte	.LVL46
 1431 03c4 30000000 		.4byte	.LFE14
 1432 03c8 0100     		.2byte	0x1
 1433 03ca 54       		.byte	0x54
 1434 03cb 00000000 		.4byte	0x0
 1435 03cf 00000000 		.4byte	0x0
 1436              	.LLST35:
ARM GAS  C:\Users\z80\AppData\Local\Temp\ccM1QJXX.s 			page 27


 1437 03d3 12000000 		.4byte	.LVL48
 1438 03d7 15000000 		.4byte	.LVL49-1
 1439 03db 0100     		.2byte	0x1
 1440 03dd 53       		.byte	0x53
 1441 03de 00000000 		.4byte	0x0
 1442 03e2 00000000 		.4byte	0x0
 1443              	.LLST36:
 1444 03e6 28000000 		.4byte	.LVL51
 1445 03ea 30000000 		.4byte	.LFE14
 1446 03ee 0100     		.2byte	0x1
 1447 03f0 53       		.byte	0x53
 1448 03f1 00000000 		.4byte	0x0
 1449 03f5 00000000 		.4byte	0x0
 1450              	.LLST37:
 1451 03f9 00000000 		.4byte	.LFB15
 1452 03fd 02000000 		.4byte	.LCFI8
 1453 0401 0200     		.2byte	0x2
 1454 0403 7D       		.byte	0x7d
 1455 0404 00       		.sleb128 0
 1456 0405 02000000 		.4byte	.LCFI8
 1457 0409 2C000000 		.4byte	.LFE15
 1458 040d 0200     		.2byte	0x2
 1459 040f 7D       		.byte	0x7d
 1460 0410 08       		.sleb128 8
 1461 0411 00000000 		.4byte	0x0
 1462 0415 00000000 		.4byte	0x0
 1463              	.LLST38:
 1464 0419 00000000 		.4byte	.LVL52
 1465 041d 0D000000 		.4byte	.LVL55-1
 1466 0421 0100     		.2byte	0x1
 1467 0423 50       		.byte	0x50
 1468 0424 0D000000 		.4byte	.LVL55-1
 1469 0428 12000000 		.4byte	.LVL56
 1470 042c 0100     		.2byte	0x1
 1471 042e 54       		.byte	0x54
 1472 042f 12000000 		.4byte	.LVL56
 1473 0433 14000000 		.4byte	.LVL57
 1474 0437 0600     		.2byte	0x6
 1475 0439 74       		.byte	0x74
 1476 043a 00       		.sleb128 0
 1477 043b 71       		.byte	0x71
 1478 043c 00       		.sleb128 0
 1479 043d 1C       		.byte	0x1c
 1480 043e 9F       		.byte	0x9f
 1481 043f 14000000 		.4byte	.LVL57
 1482 0443 1B000000 		.4byte	.LVL58-1
 1483 0447 0100     		.2byte	0x1
 1484 0449 51       		.byte	0x51
 1485 044a 00000000 		.4byte	0x0
 1486 044e 00000000 		.4byte	0x0
 1487              	.LLST39:
 1488 0452 0A000000 		.4byte	.LVL54
 1489 0456 0D000000 		.4byte	.LVL55-1
 1490 045a 0100     		.2byte	0x1
 1491 045c 53       		.byte	0x53
 1492 045d 00000000 		.4byte	0x0
 1493 0461 00000000 		.4byte	0x0
ARM GAS  C:\Users\z80\AppData\Local\Temp\ccM1QJXX.s 			page 28


 1494              	.LLST40:
 1495 0465 26000000 		.4byte	.LVL60
 1496 0469 2C000000 		.4byte	.LFE15
 1497 046d 0100     		.2byte	0x1
 1498 046f 53       		.byte	0x53
 1499 0470 00000000 		.4byte	0x0
 1500 0474 00000000 		.4byte	0x0
 1501              	.LLST41:
 1502 0478 00000000 		.4byte	.LFB16
 1503 047c 02000000 		.4byte	.LCFI9
 1504 0480 0200     		.2byte	0x2
 1505 0482 7D       		.byte	0x7d
 1506 0483 00       		.sleb128 0
 1507 0484 02000000 		.4byte	.LCFI9
 1508 0488 30000000 		.4byte	.LFE16
 1509 048c 0200     		.2byte	0x2
 1510 048e 7D       		.byte	0x7d
 1511 048f 08       		.sleb128 8
 1512 0490 00000000 		.4byte	0x0
 1513 0494 00000000 		.4byte	0x0
 1514              	.LLST42:
 1515 0498 08000000 		.4byte	.LVL62
 1516 049c 0B000000 		.4byte	.LVL63-1
 1517 04a0 0100     		.2byte	0x1
 1518 04a2 53       		.byte	0x53
 1519 04a3 00000000 		.4byte	0x0
 1520 04a7 00000000 		.4byte	0x0
 1521              	.LLST43:
 1522 04ab 28000000 		.4byte	.LVL65
 1523 04af 30000000 		.4byte	.LFE16
 1524 04b3 0100     		.2byte	0x1
 1525 04b5 53       		.byte	0x53
 1526 04b6 00000000 		.4byte	0x0
 1527 04ba 00000000 		.4byte	0x0
 1528              	.LLST44:
 1529 04be 00000000 		.4byte	.LFB18
 1530 04c2 04000000 		.4byte	.LCFI10
 1531 04c6 0200     		.2byte	0x2
 1532 04c8 7D       		.byte	0x7d
 1533 04c9 00       		.sleb128 0
 1534 04ca 04000000 		.4byte	.LCFI10
 1535 04ce 50000000 		.4byte	.LFE18
 1536 04d2 0200     		.2byte	0x2
 1537 04d4 7D       		.byte	0x7d
 1538 04d5 10       		.sleb128 16
 1539 04d6 00000000 		.4byte	0x0
 1540 04da 00000000 		.4byte	0x0
 1541              	.LLST45:
 1542 04de 00000000 		.4byte	.LVL66
 1543 04e2 0E000000 		.4byte	.LVL68
 1544 04e6 0100     		.2byte	0x1
 1545 04e8 50       		.byte	0x50
 1546 04e9 0E000000 		.4byte	.LVL68
 1547 04ed 14000000 		.4byte	.LVL69
 1548 04f1 0100     		.2byte	0x1
 1549 04f3 53       		.byte	0x53
 1550 04f4 00000000 		.4byte	0x0
ARM GAS  C:\Users\z80\AppData\Local\Temp\ccM1QJXX.s 			page 29


 1551 04f8 00000000 		.4byte	0x0
 1552              	.LLST46:
 1553 04fc 06000000 		.4byte	.LVL67
 1554 0500 14000000 		.4byte	.LVL69
 1555 0504 0200     		.2byte	0x2
 1556 0506 72       		.byte	0x72
 1557 0507 1C       		.sleb128 28
 1558 0508 14000000 		.4byte	.LVL69
 1559 050c 50000000 		.4byte	.LFE18
 1560 0510 0100     		.2byte	0x1
 1561 0512 54       		.byte	0x54
 1562 0513 00000000 		.4byte	0x0
 1563 0517 00000000 		.4byte	0x0
 1564              	.LLST47:
 1565 051b 14000000 		.4byte	.LVL69
 1566 051f 22000000 		.4byte	.LVL71
 1567 0523 0300     		.2byte	0x3
 1568 0525 74       		.byte	0x74
 1569 0526 2C       		.sleb128 44
 1570 0527 9F       		.byte	0x9f
 1571 0528 00000000 		.4byte	0x0
 1572 052c 00000000 		.4byte	0x0
 1573              	.LLST48:
 1574 0530 14000000 		.4byte	.LVL69
 1575 0534 1B000000 		.4byte	.LVL70-1
 1576 0538 0100     		.2byte	0x1
 1577 053a 50       		.byte	0x50
 1578 053b 00000000 		.4byte	0x0
 1579 053f 00000000 		.4byte	0x0
 1580              	.LLST49:
 1581 0543 00000000 		.4byte	.LFB17
 1582 0547 02000000 		.4byte	.LCFI11
 1583 054b 0200     		.2byte	0x2
 1584 054d 7D       		.byte	0x7d
 1585 054e 00       		.sleb128 0
 1586 054f 02000000 		.4byte	.LCFI11
 1587 0553 16000000 		.4byte	.LFE17
 1588 0557 0200     		.2byte	0x2
 1589 0559 7D       		.byte	0x7d
 1590 055a 08       		.sleb128 8
 1591 055b 00000000 		.4byte	0x0
 1592 055f 00000000 		.4byte	0x0
 1593              	.LLST50:
 1594 0563 00000000 		.4byte	.LVL72
 1595 0567 0D000000 		.4byte	.LVL75-1
 1596 056b 0100     		.2byte	0x1
 1597 056d 50       		.byte	0x50
 1598 056e 0D000000 		.4byte	.LVL75-1
 1599 0572 16000000 		.4byte	.LFE17
 1600 0576 0100     		.2byte	0x1
 1601 0578 54       		.byte	0x54
 1602 0579 00000000 		.4byte	0x0
 1603 057d 00000000 		.4byte	0x0
 1604              	.LLST51:
 1605 0581 0A000000 		.4byte	.LVL74
 1606 0585 0D000000 		.4byte	.LVL75-1
 1607 0589 0100     		.2byte	0x1
ARM GAS  C:\Users\z80\AppData\Local\Temp\ccM1QJXX.s 			page 30


 1608 058b 53       		.byte	0x53
 1609 058c 00000000 		.4byte	0x0
 1610 0590 00000000 		.4byte	0x0
 1611              	.LLST52:
 1612 0594 00000000 		.4byte	.LFB19
 1613 0598 02000000 		.4byte	.LCFI12
 1614 059c 0200     		.2byte	0x2
 1615 059e 7D       		.byte	0x7d
 1616 059f 00       		.sleb128 0
 1617 05a0 02000000 		.4byte	.LCFI12
 1618 05a4 74000000 		.4byte	.LFE19
 1619 05a8 0200     		.2byte	0x2
 1620 05aa 7D       		.byte	0x7d
 1621 05ab 10       		.sleb128 16
 1622 05ac 00000000 		.4byte	0x0
 1623 05b0 00000000 		.4byte	0x0
 1624              	.LLST53:
 1625 05b4 00000000 		.4byte	.LVL76
 1626 05b8 08000000 		.4byte	.LVL77
 1627 05bc 0100     		.2byte	0x1
 1628 05be 50       		.byte	0x50
 1629 05bf 08000000 		.4byte	.LVL77
 1630 05c3 74000000 		.4byte	.LFE19
 1631 05c7 0100     		.2byte	0x1
 1632 05c9 54       		.byte	0x54
 1633 05ca 00000000 		.4byte	0x0
 1634 05ce 00000000 		.4byte	0x0
 1635              	.LLST54:
 1636 05d2 38000000 		.4byte	.LVL83
 1637 05d6 3B000000 		.4byte	.LVL84-1
 1638 05da 0200     		.2byte	0x2
 1639 05dc 74       		.byte	0x74
 1640 05dd 28       		.sleb128 40
 1641 05de 3B000000 		.4byte	.LVL84-1
 1642 05e2 4C000000 		.4byte	.LVL88
 1643 05e6 0100     		.2byte	0x1
 1644 05e8 55       		.byte	0x55
 1645 05e9 00000000 		.4byte	0x0
 1646 05ed 00000000 		.4byte	0x0
 1647              	.LLST55:
 1648 05f1 0E000000 		.4byte	.LVL79
 1649 05f5 13000000 		.4byte	.LVL80-1
 1650 05f9 0100     		.2byte	0x1
 1651 05fb 53       		.byte	0x53
 1652 05fc 00000000 		.4byte	0x0
 1653 0600 00000000 		.4byte	0x0
 1654              	.LLST56:
 1655 0604 2A000000 		.4byte	.LVL81
 1656 0608 36000000 		.4byte	.LVL82
 1657 060c 0300     		.2byte	0x3
 1658 060e 74       		.byte	0x74
 1659 060f 2C       		.sleb128 44
 1660 0610 9F       		.byte	0x9f
 1661 0611 00000000 		.4byte	0x0
 1662 0615 00000000 		.4byte	0x0
 1663              	.LLST57:
 1664 0619 2A000000 		.4byte	.LVL81
ARM GAS  C:\Users\z80\AppData\Local\Temp\ccM1QJXX.s 			page 31


 1665 061d 35000000 		.4byte	.LVL82-1
 1666 0621 0200     		.2byte	0x2
 1667 0623 75       		.byte	0x75
 1668 0624 1C       		.sleb128 28
 1669 0625 00000000 		.4byte	0x0
 1670 0629 00000000 		.4byte	0x0
 1671              	.LLST58:
 1672 062d 42000000 		.4byte	.LVL86
 1673 0631 47000000 		.4byte	.LVL87-1
 1674 0635 0100     		.2byte	0x1
 1675 0637 53       		.byte	0x53
 1676 0638 00000000 		.4byte	0x0
 1677 063c 00000000 		.4byte	0x0
 1678              		.file 3 "c:\\programs\\yagarto\\bin\\../lib/gcc/arm-none-eabi/4.5.0/include/stddef.h"
 1679              		.file 4 "c:/programs/yagarto/lib/gcc/../../arm-none-eabi/sys-include/stdint.h"
 1680              		.file 5 "../chibios_2.4.x/os/ports/GCC/ARMCMx/chtypes.h"
 1681              		.file 6 "../chibios_2.4.x/os/kernel/include/chlists.h"
 1682              		.file 7 "../chibios_2.4.x/os/kernel/include/chthreads.h"
 1683              		.file 8 "../chibios_2.4.x/os/ports/GCC/ARMCMx/chcore_v7m.h"
 1684              		.file 9 "../chibios_2.4.x/os/kernel/include/chvt.h"
 1685              		.file 10 "../chibios_2.4.x/os/kernel/include/chschd.h"
 1686              		.file 11 "../chibios_2.4.x/os/kernel/include/chmtx.h"
 1687              		.section	.debug_info
 1688 0000 A00B0000 		.4byte	0xba0
 1689 0004 0200     		.2byte	0x2
 1690 0006 00000000 		.4byte	.Ldebug_abbrev0
 1691 000a 04       		.byte	0x4
 1692 000b 01       		.uleb128 0x1
 1693 000c BC030000 		.4byte	.LASF95
 1694 0010 01       		.byte	0x1
 1695 0011 91030000 		.4byte	.LASF96
 1696 0015 F2010000 		.4byte	.LASF97
 1697 0019 00000000 		.4byte	0x0
 1698 001d 00000000 		.4byte	0x0
 1699 0021 78000000 		.4byte	.Ldebug_ranges0+0x78
 1700 0025 00000000 		.4byte	.Ldebug_line0
 1701 0029 02       		.uleb128 0x2
 1702 002a 04       		.byte	0x4
 1703 002b 05       		.byte	0x5
 1704 002c 696E7400 		.ascii	"int\000"
 1705 0030 03       		.uleb128 0x3
 1706 0031 0E000000 		.4byte	.LASF2
 1707 0035 03       		.byte	0x3
 1708 0036 D3       		.byte	0xd3
 1709 0037 3B000000 		.4byte	0x3b
 1710 003b 04       		.uleb128 0x4
 1711 003c 04       		.byte	0x4
 1712 003d 07       		.byte	0x7
 1713 003e 05010000 		.4byte	.LASF0
 1714 0042 04       		.uleb128 0x4
 1715 0043 01       		.byte	0x1
 1716 0044 06       		.byte	0x6
 1717 0045 71000000 		.4byte	.LASF1
 1718 0049 03       		.uleb128 0x3
 1719 004a 89030000 		.4byte	.LASF3
 1720 004e 04       		.byte	0x4
 1721 004f 2A       		.byte	0x2a
ARM GAS  C:\Users\z80\AppData\Local\Temp\ccM1QJXX.s 			page 32


 1722 0050 54000000 		.4byte	0x54
 1723 0054 04       		.uleb128 0x4
 1724 0055 01       		.byte	0x1
 1725 0056 08       		.byte	0x8
 1726 0057 6F020000 		.4byte	.LASF4
 1727 005b 04       		.uleb128 0x4
 1728 005c 02       		.byte	0x2
 1729 005d 05       		.byte	0x5
 1730 005e 87020000 		.4byte	.LASF5
 1731 0062 04       		.uleb128 0x4
 1732 0063 02       		.byte	0x2
 1733 0064 07       		.byte	0x7
 1734 0065 39010000 		.4byte	.LASF6
 1735 0069 03       		.uleb128 0x3
 1736 006a 67020000 		.4byte	.LASF7
 1737 006e 04       		.byte	0x4
 1738 006f 4F       		.byte	0x4f
 1739 0070 74000000 		.4byte	0x74
 1740 0074 04       		.uleb128 0x4
 1741 0075 04       		.byte	0x4
 1742 0076 05       		.byte	0x5
 1743 0077 A4000000 		.4byte	.LASF8
 1744 007b 03       		.uleb128 0x3
 1745 007c D8020000 		.4byte	.LASF9
 1746 0080 04       		.byte	0x4
 1747 0081 50       		.byte	0x50
 1748 0082 86000000 		.4byte	0x86
 1749 0086 04       		.uleb128 0x4
 1750 0087 04       		.byte	0x4
 1751 0088 07       		.byte	0x7
 1752 0089 1A010000 		.4byte	.LASF10
 1753 008d 04       		.uleb128 0x4
 1754 008e 08       		.byte	0x8
 1755 008f 05       		.byte	0x5
 1756 0090 63000000 		.4byte	.LASF11
 1757 0094 03       		.uleb128 0x3
 1758 0095 21000000 		.4byte	.LASF12
 1759 0099 04       		.byte	0x4
 1760 009a 78       		.byte	0x78
 1761 009b 9F000000 		.4byte	0x9f
 1762 009f 04       		.uleb128 0x4
 1763 00a0 08       		.byte	0x8
 1764 00a1 07       		.byte	0x7
 1765 00a2 3C000000 		.4byte	.LASF13
 1766 00a6 03       		.uleb128 0x3
 1767 00a7 5A010000 		.4byte	.LASF14
 1768 00ab 05       		.byte	0x5
 1769 00ac 2F       		.byte	0x2f
 1770 00ad 49000000 		.4byte	0x49
 1771 00b1 03       		.uleb128 0x3
 1772 00b2 AD000000 		.4byte	.LASF15
 1773 00b6 05       		.byte	0x5
 1774 00b7 30       		.byte	0x30
 1775 00b8 49000000 		.4byte	0x49
 1776 00bc 03       		.uleb128 0x3
 1777 00bd 50020000 		.4byte	.LASF16
 1778 00c1 05       		.byte	0x5
ARM GAS  C:\Users\z80\AppData\Local\Temp\ccM1QJXX.s 			page 33


 1779 00c2 31       		.byte	0x31
 1780 00c3 49000000 		.4byte	0x49
 1781 00c7 03       		.uleb128 0x3
 1782 00c8 5F020000 		.4byte	.LASF17
 1783 00cc 05       		.byte	0x5
 1784 00cd 32       		.byte	0x32
 1785 00ce 7B000000 		.4byte	0x7b
 1786 00d2 03       		.uleb128 0x3
 1787 00d3 4C010000 		.4byte	.LASF18
 1788 00d7 05       		.byte	0x5
 1789 00d8 33       		.byte	0x33
 1790 00d9 69000000 		.4byte	0x69
 1791 00dd 03       		.uleb128 0x3
 1792 00de 7D010000 		.4byte	.LASF19
 1793 00e2 05       		.byte	0x5
 1794 00e3 35       		.byte	0x35
 1795 00e4 7B000000 		.4byte	0x7b
 1796 00e8 03       		.uleb128 0x3
 1797 00e9 0F030000 		.4byte	.LASF20
 1798 00ed 05       		.byte	0x5
 1799 00ee 36       		.byte	0x36
 1800 00ef 7B000000 		.4byte	0x7b
 1801 00f3 03       		.uleb128 0x3
 1802 00f4 F4000000 		.4byte	.LASF21
 1803 00f8 05       		.byte	0x5
 1804 00f9 37       		.byte	0x37
 1805 00fa 69000000 		.4byte	0x69
 1806 00fe 03       		.uleb128 0x3
 1807 00ff C6020000 		.4byte	.LASF22
 1808 0103 06       		.byte	0x6
 1809 0104 2A       		.byte	0x2a
 1810 0105 09010000 		.4byte	0x109
 1811 0109 05       		.uleb128 0x5
 1812 010a C6020000 		.4byte	.LASF22
 1813 010e 4C       		.byte	0x4c
 1814 010f 07       		.byte	0x7
 1815 0110 5E       		.byte	0x5e
 1816 0111 2E020000 		.4byte	0x22e
 1817 0115 06       		.uleb128 0x6
 1818 0116 A7020000 		.4byte	.LASF23
 1819 011a 07       		.byte	0x7
 1820 011b 5F       		.byte	0x5f
 1821 011c 53020000 		.4byte	0x253
 1822 0120 02       		.byte	0x2
 1823 0121 23       		.byte	0x23
 1824 0122 00       		.uleb128 0x0
 1825 0123 06       		.uleb128 0x6
 1826 0124 58020000 		.4byte	.LASF24
 1827 0128 07       		.byte	0x7
 1828 0129 61       		.byte	0x61
 1829 012a 53020000 		.4byte	0x253
 1830 012e 02       		.byte	0x2
 1831 012f 23       		.byte	0x23
 1832 0130 04       		.uleb128 0x4
 1833 0131 06       		.uleb128 0x6
 1834 0132 5C000000 		.4byte	.LASF25
 1835 0136 07       		.byte	0x7
ARM GAS  C:\Users\z80\AppData\Local\Temp\ccM1QJXX.s 			page 34


 1836 0137 63       		.byte	0x63
 1837 0138 C7000000 		.4byte	0xc7
 1838 013c 02       		.byte	0x2
 1839 013d 23       		.byte	0x23
 1840 013e 08       		.uleb128 0x8
 1841 013f 06       		.uleb128 0x6
 1842 0140 FA030000 		.4byte	.LASF26
 1843 0144 07       		.byte	0x7
 1844 0145 64       		.byte	0x64
 1845 0146 2B030000 		.4byte	0x32b
 1846 014a 02       		.byte	0x2
 1847 014b 23       		.byte	0x23
 1848 014c 0C       		.uleb128 0xc
 1849 014d 06       		.uleb128 0x6
 1850 014e B6000000 		.4byte	.LASF27
 1851 0152 07       		.byte	0x7
 1852 0153 66       		.byte	0x66
 1853 0154 53020000 		.4byte	0x253
 1854 0158 02       		.byte	0x2
 1855 0159 23       		.byte	0x23
 1856 015a 10       		.uleb128 0x10
 1857 015b 06       		.uleb128 0x6
 1858 015c D7010000 		.4byte	.LASF28
 1859 0160 07       		.byte	0x7
 1860 0161 67       		.byte	0x67
 1861 0162 53020000 		.4byte	0x253
 1862 0166 02       		.byte	0x2
 1863 0167 23       		.byte	0x23
 1864 0168 14       		.uleb128 0x14
 1865 0169 06       		.uleb128 0x6
 1866 016a CF030000 		.4byte	.LASF29
 1867 016e 07       		.byte	0x7
 1868 016f 6E       		.byte	0x6e
 1869 0170 16050000 		.4byte	0x516
 1870 0174 02       		.byte	0x2
 1871 0175 23       		.byte	0x23
 1872 0176 18       		.uleb128 0x18
 1873 0177 06       		.uleb128 0x6
 1874 0178 FA000000 		.4byte	.LASF30
 1875 017c 07       		.byte	0x7
 1876 017d 74       		.byte	0x74
 1877 017e 28050000 		.4byte	0x528
 1878 0182 02       		.byte	0x2
 1879 0183 23       		.byte	0x23
 1880 0184 1C       		.uleb128 0x1c
 1881 0185 06       		.uleb128 0x6
 1882 0186 91020000 		.4byte	.LASF31
 1883 018a 07       		.byte	0x7
 1884 018b 79       		.byte	0x79
 1885 018c B1000000 		.4byte	0xb1
 1886 0190 02       		.byte	0x2
 1887 0191 23       		.byte	0x23
 1888 0192 20       		.uleb128 0x20
 1889 0193 06       		.uleb128 0x6
 1890 0194 AE020000 		.4byte	.LASF32
 1891 0198 07       		.byte	0x7
 1892 0199 7D       		.byte	0x7d
ARM GAS  C:\Users\z80\AppData\Local\Temp\ccM1QJXX.s 			page 35


 1893 019a A6000000 		.4byte	0xa6
 1894 019e 02       		.byte	0x2
 1895 019f 23       		.byte	0x23
 1896 01a0 21       		.uleb128 0x21
 1897 01a1 06       		.uleb128 0x6
 1898 01a2 72030000 		.4byte	.LASF33
 1899 01a6 07       		.byte	0x7
 1900 01a7 82       		.byte	0x82
 1901 01a8 BC000000 		.4byte	0xbc
 1902 01ac 02       		.byte	0x2
 1903 01ad 23       		.byte	0x23
 1904 01ae 22       		.uleb128 0x22
 1905 01af 06       		.uleb128 0x6
 1906 01b0 38030000 		.4byte	.LASF34
 1907 01b4 07       		.byte	0x7
 1908 01b5 89       		.byte	0x89
 1909 01b6 13040000 		.4byte	0x413
 1910 01ba 02       		.byte	0x2
 1911 01bb 23       		.byte	0x23
 1912 01bc 24       		.uleb128 0x24
 1913 01bd 07       		.uleb128 0x7
 1914 01be 705F7500 		.ascii	"p_u\000"
 1915 01c2 07       		.byte	0x7
 1916 01c3 AE       		.byte	0xae
 1917 01c4 E1040000 		.4byte	0x4e1
 1918 01c8 02       		.byte	0x2
 1919 01c9 23       		.byte	0x23
 1920 01ca 28       		.uleb128 0x28
 1921 01cb 06       		.uleb128 0x6
 1922 01cc 00040000 		.4byte	.LASF35
 1923 01d0 07       		.byte	0x7
 1924 01d1 B3       		.byte	0xb3
 1925 01d2 7B020000 		.4byte	0x27b
 1926 01d6 02       		.byte	0x2
 1927 01d7 23       		.byte	0x23
 1928 01d8 2C       		.uleb128 0x2c
 1929 01d9 06       		.uleb128 0x6
 1930 01da 46030000 		.4byte	.LASF36
 1931 01de 07       		.byte	0x7
 1932 01df B9       		.byte	0xb9
 1933 01e0 59020000 		.4byte	0x259
 1934 01e4 02       		.byte	0x2
 1935 01e5 23       		.byte	0x23
 1936 01e6 30       		.uleb128 0x30
 1937 01e7 06       		.uleb128 0x6
 1938 01e8 08000000 		.4byte	.LASF37
 1939 01ec 07       		.byte	0x7
 1940 01ed BD       		.byte	0xbd
 1941 01ee D2000000 		.4byte	0xd2
 1942 01f2 02       		.byte	0x2
 1943 01f3 23       		.byte	0x23
 1944 01f4 38       		.uleb128 0x38
 1945 01f5 06       		.uleb128 0x6
 1946 01f6 CD020000 		.4byte	.LASF38
 1947 01fa 07       		.byte	0x7
 1948 01fb C3       		.byte	0xc3
 1949 01fc DD000000 		.4byte	0xdd
ARM GAS  C:\Users\z80\AppData\Local\Temp\ccM1QJXX.s 			page 36


 1950 0200 02       		.byte	0x2
 1951 0201 23       		.byte	0x23
 1952 0202 3C       		.uleb128 0x3c
 1953 0203 06       		.uleb128 0x6
 1954 0204 7D020000 		.4byte	.LASF39
 1955 0208 07       		.byte	0x7
 1956 0209 CA       		.byte	0xca
 1957 020a 2E050000 		.4byte	0x52e
 1958 020e 02       		.byte	0x2
 1959 020f 23       		.byte	0x23
 1960 0210 40       		.uleb128 0x40
 1961 0211 06       		.uleb128 0x6
 1962 0212 19030000 		.4byte	.LASF40
 1963 0216 07       		.byte	0x7
 1964 0217 CE       		.byte	0xce
 1965 0218 C7000000 		.4byte	0xc7
 1966 021c 02       		.byte	0x2
 1967 021d 23       		.byte	0x23
 1968 021e 44       		.uleb128 0x44
 1969 021f 06       		.uleb128 0x6
 1970 0220 87000000 		.4byte	.LASF41
 1971 0224 07       		.byte	0x7
 1972 0225 D4       		.byte	0xd4
 1973 0226 91020000 		.4byte	0x291
 1974 022a 02       		.byte	0x2
 1975 022b 23       		.byte	0x23
 1976 022c 48       		.uleb128 0x48
 1977 022d 00       		.byte	0x0
 1978 022e 08       		.uleb128 0x8
 1979 022f 08       		.byte	0x8
 1980 0230 06       		.byte	0x6
 1981 0231 61       		.byte	0x61
 1982 0232 53020000 		.4byte	0x253
 1983 0236 06       		.uleb128 0x6
 1984 0237 A7020000 		.4byte	.LASF23
 1985 023b 06       		.byte	0x6
 1986 023c 62       		.byte	0x62
 1987 023d 53020000 		.4byte	0x253
 1988 0241 02       		.byte	0x2
 1989 0242 23       		.byte	0x23
 1990 0243 00       		.uleb128 0x0
 1991 0244 06       		.uleb128 0x6
 1992 0245 58020000 		.4byte	.LASF24
 1993 0249 06       		.byte	0x6
 1994 024a 64       		.byte	0x64
 1995 024b 53020000 		.4byte	0x253
 1996 024f 02       		.byte	0x2
 1997 0250 23       		.byte	0x23
 1998 0251 04       		.uleb128 0x4
 1999 0252 00       		.byte	0x0
 2000 0253 09       		.uleb128 0x9
 2001 0254 04       		.byte	0x4
 2002 0255 FE000000 		.4byte	0xfe
 2003 0259 03       		.uleb128 0x3
 2004 025a E5010000 		.4byte	.LASF42
 2005 025e 06       		.byte	0x6
 2006 025f 66       		.byte	0x66
ARM GAS  C:\Users\z80\AppData\Local\Temp\ccM1QJXX.s 			page 37


 2007 0260 2E020000 		.4byte	0x22e
 2008 0264 08       		.uleb128 0x8
 2009 0265 04       		.byte	0x4
 2010 0266 06       		.byte	0x6
 2011 0267 6B       		.byte	0x6b
 2012 0268 7B020000 		.4byte	0x27b
 2013 026c 06       		.uleb128 0x6
 2014 026d A7020000 		.4byte	.LASF23
 2015 0271 06       		.byte	0x6
 2016 0272 6D       		.byte	0x6d
 2017 0273 53020000 		.4byte	0x253
 2018 0277 02       		.byte	0x2
 2019 0278 23       		.byte	0x23
 2020 0279 00       		.uleb128 0x0
 2021 027a 00       		.byte	0x0
 2022 027b 03       		.uleb128 0x3
 2023 027c 71010000 		.4byte	.LASF43
 2024 0280 06       		.byte	0x6
 2025 0281 70       		.byte	0x70
 2026 0282 64020000 		.4byte	0x264
 2027 0286 03       		.uleb128 0x3
 2028 0287 D2000000 		.4byte	.LASF44
 2029 028b 08       		.byte	0x8
 2030 028c D7       		.byte	0xd7
 2031 028d 91020000 		.4byte	0x291
 2032 0291 0A       		.uleb128 0xa
 2033 0292 04       		.byte	0x4
 2034 0293 03       		.uleb128 0x3
 2035 0294 97010000 		.4byte	.LASF45
 2036 0298 08       		.byte	0x8
 2037 0299 DD       		.byte	0xdd
 2038 029a 94000000 		.4byte	0x94
 2039 029e 05       		.uleb128 0x5
 2040 029f 3F030000 		.4byte	.LASF46
 2041 02a3 24       		.byte	0x24
 2042 02a4 08       		.byte	0x8
 2043 02a5 FE       		.byte	0xfe
 2044 02a6 2B030000 		.4byte	0x32b
 2045 02aa 0B       		.uleb128 0xb
 2046 02ab 723400   		.ascii	"r4\000"
 2047 02ae 08       		.byte	0x8
 2048 02af 1101     		.2byte	0x111
 2049 02b1 86020000 		.4byte	0x286
 2050 02b5 02       		.byte	0x2
 2051 02b6 23       		.byte	0x23
 2052 02b7 00       		.uleb128 0x0
 2053 02b8 0B       		.uleb128 0xb
 2054 02b9 723500   		.ascii	"r5\000"
 2055 02bc 08       		.byte	0x8
 2056 02bd 1201     		.2byte	0x112
 2057 02bf 86020000 		.4byte	0x286
 2058 02c3 02       		.byte	0x2
 2059 02c4 23       		.byte	0x23
 2060 02c5 04       		.uleb128 0x4
 2061 02c6 0B       		.uleb128 0xb
 2062 02c7 723600   		.ascii	"r6\000"
 2063 02ca 08       		.byte	0x8
ARM GAS  C:\Users\z80\AppData\Local\Temp\ccM1QJXX.s 			page 38


 2064 02cb 1301     		.2byte	0x113
 2065 02cd 86020000 		.4byte	0x286
 2066 02d1 02       		.byte	0x2
 2067 02d2 23       		.byte	0x23
 2068 02d3 08       		.uleb128 0x8
 2069 02d4 0B       		.uleb128 0xb
 2070 02d5 723700   		.ascii	"r7\000"
 2071 02d8 08       		.byte	0x8
 2072 02d9 1401     		.2byte	0x114
 2073 02db 86020000 		.4byte	0x286
 2074 02df 02       		.byte	0x2
 2075 02e0 23       		.byte	0x23
 2076 02e1 0C       		.uleb128 0xc
 2077 02e2 0B       		.uleb128 0xb
 2078 02e3 723800   		.ascii	"r8\000"
 2079 02e6 08       		.byte	0x8
 2080 02e7 1501     		.2byte	0x115
 2081 02e9 86020000 		.4byte	0x286
 2082 02ed 02       		.byte	0x2
 2083 02ee 23       		.byte	0x23
 2084 02ef 10       		.uleb128 0x10
 2085 02f0 0B       		.uleb128 0xb
 2086 02f1 723900   		.ascii	"r9\000"
 2087 02f4 08       		.byte	0x8
 2088 02f5 1601     		.2byte	0x116
 2089 02f7 86020000 		.4byte	0x286
 2090 02fb 02       		.byte	0x2
 2091 02fc 23       		.byte	0x23
 2092 02fd 14       		.uleb128 0x14
 2093 02fe 0B       		.uleb128 0xb
 2094 02ff 72313000 		.ascii	"r10\000"
 2095 0303 08       		.byte	0x8
 2096 0304 1701     		.2byte	0x117
 2097 0306 86020000 		.4byte	0x286
 2098 030a 02       		.byte	0x2
 2099 030b 23       		.byte	0x23
 2100 030c 18       		.uleb128 0x18
 2101 030d 0B       		.uleb128 0xb
 2102 030e 72313100 		.ascii	"r11\000"
 2103 0312 08       		.byte	0x8
 2104 0313 1801     		.2byte	0x118
 2105 0315 86020000 		.4byte	0x286
 2106 0319 02       		.byte	0x2
 2107 031a 23       		.byte	0x23
 2108 031b 1C       		.uleb128 0x1c
 2109 031c 0B       		.uleb128 0xb
 2110 031d 6C7200   		.ascii	"lr\000"
 2111 0320 08       		.byte	0x8
 2112 0321 1901     		.2byte	0x119
 2113 0323 86020000 		.4byte	0x286
 2114 0327 02       		.byte	0x2
 2115 0328 23       		.byte	0x23
 2116 0329 20       		.uleb128 0x20
 2117 032a 00       		.byte	0x0
 2118 032b 0C       		.uleb128 0xc
 2119 032c 2C010000 		.4byte	.LASF47
 2120 0330 04       		.byte	0x4
ARM GAS  C:\Users\z80\AppData\Local\Temp\ccM1QJXX.s 			page 39


 2121 0331 08       		.byte	0x8
 2122 0332 2301     		.2byte	0x123
 2123 0334 48030000 		.4byte	0x348
 2124 0338 0B       		.uleb128 0xb
 2125 0339 72313300 		.ascii	"r13\000"
 2126 033d 08       		.byte	0x8
 2127 033e 2401     		.2byte	0x124
 2128 0340 48030000 		.4byte	0x348
 2129 0344 02       		.byte	0x2
 2130 0345 23       		.byte	0x23
 2131 0346 00       		.uleb128 0x0
 2132 0347 00       		.byte	0x0
 2133 0348 09       		.uleb128 0x9
 2134 0349 04       		.byte	0x4
 2135 034a 9E020000 		.4byte	0x29e
 2136 034e 0D       		.uleb128 0xd
 2137 034f 04       		.byte	0x4
 2138 0350 07       		.byte	0x7
 2139 0351 03       		.uleb128 0x3
 2140 0352 24030000 		.4byte	.LASF48
 2141 0356 09       		.byte	0x9
 2142 0357 53       		.byte	0x53
 2143 0358 5C030000 		.4byte	0x35c
 2144 035c 09       		.uleb128 0x9
 2145 035d 04       		.byte	0x4
 2146 035e 62030000 		.4byte	0x362
 2147 0362 0E       		.uleb128 0xe
 2148 0363 01       		.byte	0x1
 2149 0364 6E030000 		.4byte	0x36e
 2150 0368 0F       		.uleb128 0xf
 2151 0369 91020000 		.4byte	0x291
 2152 036d 00       		.byte	0x0
 2153 036e 03       		.uleb128 0x3
 2154 036f F6020000 		.4byte	.LASF49
 2155 0373 09       		.byte	0x9
 2156 0374 58       		.byte	0x58
 2157 0375 79030000 		.4byte	0x379
 2158 0379 05       		.uleb128 0x5
 2159 037a F6020000 		.4byte	.LASF49
 2160 037e 14       		.byte	0x14
 2161 037f 09       		.byte	0x9
 2162 0380 5F       		.byte	0x5f
 2163 0381 CC030000 		.4byte	0x3cc
 2164 0385 06       		.uleb128 0x6
 2165 0386 12010000 		.4byte	.LASF50
 2166 038a 09       		.byte	0x9
 2167 038b 60       		.byte	0x60
 2168 038c CC030000 		.4byte	0x3cc
 2169 0390 02       		.byte	0x2
 2170 0391 23       		.byte	0x23
 2171 0392 00       		.uleb128 0x0
 2172 0393 06       		.uleb128 0x6
 2173 0394 DB000000 		.4byte	.LASF51
 2174 0398 09       		.byte	0x9
 2175 0399 62       		.byte	0x62
 2176 039a CC030000 		.4byte	0x3cc
 2177 039e 02       		.byte	0x2
ARM GAS  C:\Users\z80\AppData\Local\Temp\ccM1QJXX.s 			page 40


 2178 039f 23       		.byte	0x23
 2179 03a0 04       		.uleb128 0x4
 2180 03a1 06       		.uleb128 0x6
 2181 03a2 B4010000 		.4byte	.LASF52
 2182 03a6 09       		.byte	0x9
 2183 03a7 64       		.byte	0x64
 2184 03a8 E8000000 		.4byte	0xe8
 2185 03ac 02       		.byte	0x2
 2186 03ad 23       		.byte	0x23
 2187 03ae 08       		.uleb128 0x8
 2188 03af 06       		.uleb128 0x6
 2189 03b0 BC010000 		.4byte	.LASF53
 2190 03b4 09       		.byte	0x9
 2191 03b5 65       		.byte	0x65
 2192 03b6 51030000 		.4byte	0x351
 2193 03ba 02       		.byte	0x2
 2194 03bb 23       		.byte	0x23
 2195 03bc 0C       		.uleb128 0xc
 2196 03bd 06       		.uleb128 0x6
 2197 03be 60030000 		.4byte	.LASF54
 2198 03c2 09       		.byte	0x9
 2199 03c3 67       		.byte	0x67
 2200 03c4 91020000 		.4byte	0x291
 2201 03c8 02       		.byte	0x2
 2202 03c9 23       		.byte	0x23
 2203 03ca 10       		.uleb128 0x10
 2204 03cb 00       		.byte	0x0
 2205 03cc 09       		.uleb128 0x9
 2206 03cd 04       		.byte	0x4
 2207 03ce 6E030000 		.4byte	0x36e
 2208 03d2 08       		.uleb128 0x8
 2209 03d3 10       		.byte	0x10
 2210 03d4 09       		.byte	0x9
 2211 03d5 71       		.byte	0x71
 2212 03d6 13040000 		.4byte	0x413
 2213 03da 06       		.uleb128 0x6
 2214 03db 12010000 		.4byte	.LASF50
 2215 03df 09       		.byte	0x9
 2216 03e0 72       		.byte	0x72
 2217 03e1 CC030000 		.4byte	0x3cc
 2218 03e5 02       		.byte	0x2
 2219 03e6 23       		.byte	0x23
 2220 03e7 00       		.uleb128 0x0
 2221 03e8 06       		.uleb128 0x6
 2222 03e9 DB000000 		.4byte	.LASF51
 2223 03ed 09       		.byte	0x9
 2224 03ee 74       		.byte	0x74
 2225 03ef CC030000 		.4byte	0x3cc
 2226 03f3 02       		.byte	0x2
 2227 03f4 23       		.byte	0x23
 2228 03f5 04       		.uleb128 0x4
 2229 03f6 06       		.uleb128 0x6
 2230 03f7 B4010000 		.4byte	.LASF52
 2231 03fb 09       		.byte	0x9
 2232 03fc 76       		.byte	0x76
 2233 03fd E8000000 		.4byte	0xe8
 2234 0401 02       		.byte	0x2
ARM GAS  C:\Users\z80\AppData\Local\Temp\ccM1QJXX.s 			page 41


 2235 0402 23       		.byte	0x23
 2236 0403 08       		.uleb128 0x8
 2237 0404 06       		.uleb128 0x6
 2238 0405 D6030000 		.4byte	.LASF55
 2239 0409 09       		.byte	0x9
 2240 040a 77       		.byte	0x77
 2241 040b 13040000 		.4byte	0x413
 2242 040f 02       		.byte	0x2
 2243 0410 23       		.byte	0x23
 2244 0411 0C       		.uleb128 0xc
 2245 0412 00       		.byte	0x0
 2246 0413 10       		.uleb128 0x10
 2247 0414 E8000000 		.4byte	0xe8
 2248 0418 03       		.uleb128 0x3
 2249 0419 E1030000 		.4byte	.LASF56
 2250 041d 09       		.byte	0x9
 2251 041e 78       		.byte	0x78
 2252 041f D2030000 		.4byte	0x3d2
 2253 0423 08       		.uleb128 0x8
 2254 0424 20       		.byte	0x20
 2255 0425 0A       		.byte	0xa
 2256 0426 5E       		.byte	0x5e
 2257 0427 8E040000 		.4byte	0x48e
 2258 042b 06       		.uleb128 0x6
 2259 042c EE020000 		.4byte	.LASF57
 2260 0430 0A       		.byte	0xa
 2261 0431 5F       		.byte	0x5f
 2262 0432 59020000 		.4byte	0x259
 2263 0436 02       		.byte	0x2
 2264 0437 23       		.byte	0x23
 2265 0438 00       		.uleb128 0x0
 2266 0439 06       		.uleb128 0x6
 2267 043a 99020000 		.4byte	.LASF58
 2268 043e 0A       		.byte	0xa
 2269 043f 60       		.byte	0x60
 2270 0440 C7000000 		.4byte	0xc7
 2271 0444 02       		.byte	0x2
 2272 0445 23       		.byte	0x23
 2273 0446 08       		.uleb128 0x8
 2274 0447 06       		.uleb128 0x6
 2275 0448 DF010000 		.4byte	.LASF59
 2276 044c 0A       		.byte	0xa
 2277 044d 62       		.byte	0x62
 2278 044e 2B030000 		.4byte	0x32b
 2279 0452 02       		.byte	0x2
 2280 0453 23       		.byte	0x23
 2281 0454 0C       		.uleb128 0xc
 2282 0455 06       		.uleb128 0x6
 2283 0456 CA000000 		.4byte	.LASF60
 2284 045a 0A       		.byte	0xa
 2285 045b 65       		.byte	0x65
 2286 045c 53020000 		.4byte	0x253
 2287 0460 02       		.byte	0x2
 2288 0461 23       		.byte	0x23
 2289 0462 10       		.uleb128 0x10
 2290 0463 06       		.uleb128 0x6
 2291 0464 38020000 		.4byte	.LASF61
ARM GAS  C:\Users\z80\AppData\Local\Temp\ccM1QJXX.s 			page 42


 2292 0468 0A       		.byte	0xa
 2293 0469 66       		.byte	0x66
 2294 046a 53020000 		.4byte	0x253
 2295 046e 02       		.byte	0x2
 2296 046f 23       		.byte	0x23
 2297 0470 14       		.uleb128 0x14
 2298 0471 06       		.uleb128 0x6
 2299 0472 E8030000 		.4byte	.LASF62
 2300 0476 0A       		.byte	0xa
 2301 0477 6A       		.byte	0x6a
 2302 0478 F3000000 		.4byte	0xf3
 2303 047c 02       		.byte	0x2
 2304 047d 23       		.byte	0x23
 2305 047e 18       		.uleb128 0x18
 2306 047f 06       		.uleb128 0x6
 2307 0480 2E020000 		.4byte	.LASF63
 2308 0484 0A       		.byte	0xa
 2309 0485 6C       		.byte	0x6c
 2310 0486 53020000 		.4byte	0x253
 2311 048a 02       		.byte	0x2
 2312 048b 23       		.byte	0x23
 2313 048c 1C       		.uleb128 0x1c
 2314 048d 00       		.byte	0x0
 2315 048e 03       		.uleb128 0x3
 2316 048f 79030000 		.4byte	.LASF64
 2317 0493 0A       		.byte	0xa
 2318 0494 6E       		.byte	0x6e
 2319 0495 23040000 		.4byte	0x423
 2320 0499 05       		.uleb128 0x5
 2321 049a 89010000 		.4byte	.LASF65
 2322 049e 10       		.byte	0x10
 2323 049f 0B       		.byte	0xb
 2324 04a0 2C       		.byte	0x2c
 2325 04a1 D0040000 		.4byte	0x4d0
 2326 04a5 06       		.uleb128 0x6
 2327 04a6 8F000000 		.4byte	.LASF66
 2328 04aa 0B       		.byte	0xb
 2329 04ab 2D       		.byte	0x2d
 2330 04ac 59020000 		.4byte	0x259
 2331 04b0 02       		.byte	0x2
 2332 04b1 23       		.byte	0x23
 2333 04b2 00       		.uleb128 0x0
 2334 04b3 06       		.uleb128 0x6
 2335 04b4 F2030000 		.4byte	.LASF67
 2336 04b8 0B       		.byte	0xb
 2337 04b9 2F       		.byte	0x2f
 2338 04ba 53020000 		.4byte	0x253
 2339 04be 02       		.byte	0x2
 2340 04bf 23       		.byte	0x23
 2341 04c0 08       		.uleb128 0x8
 2342 04c1 06       		.uleb128 0x6
 2343 04c2 08030000 		.4byte	.LASF68
 2344 04c6 0B       		.byte	0xb
 2345 04c7 31       		.byte	0x31
 2346 04c8 D0040000 		.4byte	0x4d0
 2347 04cc 02       		.byte	0x2
 2348 04cd 23       		.byte	0x23
ARM GAS  C:\Users\z80\AppData\Local\Temp\ccM1QJXX.s 			page 43


 2349 04ce 0C       		.uleb128 0xc
 2350 04cf 00       		.byte	0x0
 2351 04d0 09       		.uleb128 0x9
 2352 04d1 04       		.byte	0x4
 2353 04d2 99040000 		.4byte	0x499
 2354 04d6 03       		.uleb128 0x3
 2355 04d7 89010000 		.4byte	.LASF65
 2356 04db 0B       		.byte	0xb
 2357 04dc 33       		.byte	0x33
 2358 04dd 99040000 		.4byte	0x499
 2359 04e1 11       		.uleb128 0x11
 2360 04e2 04       		.byte	0x4
 2361 04e3 07       		.byte	0x7
 2362 04e4 90       		.byte	0x90
 2363 04e5 16050000 		.4byte	0x516
 2364 04e9 12       		.uleb128 0x12
 2365 04ea 1A000000 		.4byte	.LASF69
 2366 04ee 07       		.byte	0x7
 2367 04ef 97       		.byte	0x97
 2368 04f0 D2000000 		.4byte	0xd2
 2369 04f4 12       		.uleb128 0x12
 2370 04f5 53000000 		.4byte	.LASF70
 2371 04f9 07       		.byte	0x7
 2372 04fa 9E       		.byte	0x9e
 2373 04fb D2000000 		.4byte	0xd2
 2374 04ff 12       		.uleb128 0x12
 2375 0500 C8030000 		.4byte	.LASF71
 2376 0504 07       		.byte	0x7
 2377 0505 A5       		.byte	0xa5
 2378 0506 91020000 		.4byte	0x291
 2379 050a 12       		.uleb128 0x12
 2380 050b A0020000 		.4byte	.LASF72
 2381 050f 07       		.byte	0x7
 2382 0510 AC       		.byte	0xac
 2383 0511 DD000000 		.4byte	0xdd
 2384 0515 00       		.byte	0x0
 2385 0516 09       		.uleb128 0x9
 2386 0517 04       		.byte	0x4
 2387 0518 1C050000 		.4byte	0x51c
 2388 051c 13       		.uleb128 0x13
 2389 051d 21050000 		.4byte	0x521
 2390 0521 04       		.uleb128 0x4
 2391 0522 01       		.byte	0x1
 2392 0523 08       		.byte	0x8
 2393 0524 03030000 		.4byte	.LASF73
 2394 0528 09       		.uleb128 0x9
 2395 0529 04       		.byte	0x4
 2396 052a 93020000 		.4byte	0x293
 2397 052e 09       		.uleb128 0x9
 2398 052f 04       		.byte	0x4
 2399 0530 D6040000 		.4byte	0x4d6
 2400 0534 03       		.uleb128 0x3
 2401 0535 00000000 		.4byte	.LASF74
 2402 0539 07       		.byte	0x7
 2403 053a DF       		.byte	0xdf
 2404 053b 3F050000 		.4byte	0x53f
 2405 053f 09       		.uleb128 0x9
ARM GAS  C:\Users\z80\AppData\Local\Temp\ccM1QJXX.s 			page 44


 2406 0540 04       		.byte	0x4
 2407 0541 45050000 		.4byte	0x545
 2408 0545 14       		.uleb128 0x14
 2409 0546 01       		.byte	0x1
 2410 0547 D2000000 		.4byte	0xd2
 2411 054b 55050000 		.4byte	0x555
 2412 054f 0F       		.uleb128 0xf
 2413 0550 91020000 		.4byte	0x291
 2414 0554 00       		.byte	0x0
 2415 0555 09       		.uleb128 0x9
 2416 0556 04       		.byte	0x4
 2417 0557 49000000 		.4byte	0x49
 2418 055b 15       		.uleb128 0x15
 2419 055c 01       		.byte	0x1
 2420 055d E1020000 		.4byte	.LASF98
 2421 0561 01       		.byte	0x1
 2422 0562 4C       		.byte	0x4c
 2423 0563 01       		.byte	0x1
 2424 0564 53020000 		.4byte	0x253
 2425 0568 01       		.byte	0x1
 2426 0569 83050000 		.4byte	0x583
 2427 056d 16       		.uleb128 0x16
 2428 056e 747000   		.ascii	"tp\000"
 2429 0571 01       		.byte	0x1
 2430 0572 4C       		.byte	0x4c
 2431 0573 53020000 		.4byte	0x253
 2432 0577 17       		.uleb128 0x17
 2433 0578 15000000 		.4byte	.LASF75
 2434 057c 01       		.byte	0x1
 2435 057d 4C       		.byte	0x4c
 2436 057e C7000000 		.4byte	0xc7
 2437 0582 00       		.byte	0x0
 2438 0583 18       		.uleb128 0x18
 2439 0584 01       		.byte	0x1
 2440 0585 B6020000 		.4byte	.LASF99
 2441 0589 01       		.byte	0x1
 2442 058a 7B       		.byte	0x7b
 2443 058b 01       		.byte	0x1
 2444 058c 01       		.byte	0x1
 2445 058d B1050000 		.4byte	0x5b1
 2446 0591 17       		.uleb128 0x17
 2447 0592 D0010000 		.4byte	.LASF76
 2448 0596 01       		.byte	0x1
 2449 0597 7B       		.byte	0x7b
 2450 0598 55050000 		.4byte	0x555
 2451 059c 17       		.uleb128 0x17
 2452 059d 51030000 		.4byte	.LASF77
 2453 05a1 01       		.byte	0x1
 2454 05a2 7B       		.byte	0x7b
 2455 05a3 55050000 		.4byte	0x555
 2456 05a7 16       		.uleb128 0x16
 2457 05a8 7600     		.ascii	"v\000"
 2458 05aa 01       		.byte	0x1
 2459 05ab 7B       		.byte	0x7b
 2460 05ac 49000000 		.4byte	0x49
 2461 05b0 00       		.byte	0x0
 2462 05b1 19       		.uleb128 0x19
ARM GAS  C:\Users\z80\AppData\Local\Temp\ccM1QJXX.s 			page 45


 2463 05b2 BE000000 		.4byte	.LASF100
 2464 05b6 02       		.byte	0x2
 2465 05b7 56       		.byte	0x56
 2466 05b8 01       		.byte	0x1
 2467 05b9 53020000 		.4byte	0x253
 2468 05bd 03       		.byte	0x3
 2469 05be D8050000 		.4byte	0x5d8
 2470 05c2 16       		.uleb128 0x16
 2471 05c3 746C7000 		.ascii	"tlp\000"
 2472 05c7 02       		.byte	0x2
 2473 05c8 56       		.byte	0x56
 2474 05c9 D8050000 		.4byte	0x5d8
 2475 05cd 1A       		.uleb128 0x1a
 2476 05ce 747000   		.ascii	"tp\000"
 2477 05d1 02       		.byte	0x2
 2478 05d2 58       		.byte	0x58
 2479 05d3 53020000 		.4byte	0x253
 2480 05d7 00       		.byte	0x0
 2481 05d8 09       		.uleb128 0x9
 2482 05d9 04       		.byte	0x4
 2483 05da 7B020000 		.4byte	0x27b
 2484 05de 1B       		.uleb128 0x1b
 2485 05df 22020000 		.4byte	.LASF101
 2486 05e3 02       		.byte	0x2
 2487 05e4 50       		.byte	0x50
 2488 05e5 01       		.byte	0x1
 2489 05e6 03       		.byte	0x3
 2490 05e7 01060000 		.4byte	0x601
 2491 05eb 16       		.uleb128 0x16
 2492 05ec 747000   		.ascii	"tp\000"
 2493 05ef 02       		.byte	0x2
 2494 05f0 50       		.byte	0x50
 2495 05f1 53020000 		.4byte	0x253
 2496 05f5 16       		.uleb128 0x16
 2497 05f6 746C7000 		.ascii	"tlp\000"
 2498 05fa 02       		.byte	0x2
 2499 05fb 50       		.byte	0x50
 2500 05fc D8050000 		.4byte	0x5d8
 2501 0600 00       		.byte	0x0
 2502 0601 1C       		.uleb128 0x1c
 2503 0602 5B050000 		.4byte	0x55b
 2504 0606 00000000 		.4byte	.LFB7
 2505 060a 54000000 		.4byte	.LFE7
 2506 060e 00000000 		.4byte	.LLST0
 2507 0612 25060000 		.4byte	0x625
 2508 0616 1D       		.uleb128 0x1d
 2509 0617 6D050000 		.4byte	0x56d
 2510 061b 01       		.byte	0x1
 2511 061c 50       		.byte	0x50
 2512 061d 1D       		.uleb128 0x1d
 2513 061e 77050000 		.4byte	0x577
 2514 0622 01       		.byte	0x1
 2515 0623 51       		.byte	0x51
 2516 0624 00       		.byte	0x0
 2517 0625 1E       		.uleb128 0x1e
 2518 0626 83050000 		.4byte	0x583
 2519 062a 00000000 		.4byte	.LFB8
ARM GAS  C:\Users\z80\AppData\Local\Temp\ccM1QJXX.s 			page 46


 2520 062e 0E000000 		.4byte	.LFE8
 2521 0632 02       		.byte	0x2
 2522 0633 7D       		.byte	0x7d
 2523 0634 00       		.sleb128 0
 2524 0635 51060000 		.4byte	0x651
 2525 0639 1F       		.uleb128 0x1f
 2526 063a 91050000 		.4byte	0x591
 2527 063e 20000000 		.4byte	.LLST1
 2528 0642 1D       		.uleb128 0x1d
 2529 0643 9C050000 		.4byte	0x59c
 2530 0647 01       		.byte	0x1
 2531 0648 51       		.byte	0x51
 2532 0649 1D       		.uleb128 0x1d
 2533 064a A7050000 		.4byte	0x5a7
 2534 064e 01       		.byte	0x1
 2535 064f 52       		.byte	0x52
 2536 0650 00       		.byte	0x0
 2537 0651 20       		.uleb128 0x20
 2538 0652 01       		.byte	0x1
 2539 0653 97000000 		.4byte	.LASF79
 2540 0657 01       		.byte	0x1
 2541 0658 9A       		.byte	0x9a
 2542 0659 01       		.byte	0x1
 2543 065a 53020000 		.4byte	0x253
 2544 065e 00000000 		.4byte	.LFB9
 2545 0662 98000000 		.4byte	.LFE9
 2546 0666 3E000000 		.4byte	.LLST2
 2547 066a E4060000 		.4byte	0x6e4
 2548 066e 21       		.uleb128 0x21
 2549 066f 77737000 		.ascii	"wsp\000"
 2550 0673 01       		.byte	0x1
 2551 0674 9A       		.byte	0x9a
 2552 0675 91020000 		.4byte	0x291
 2553 0679 5E000000 		.4byte	.LLST3
 2554 067d 22       		.uleb128 0x22
 2555 067e 34010000 		.4byte	.LASF78
 2556 0682 01       		.byte	0x1
 2557 0683 9A       		.byte	0x9a
 2558 0684 30000000 		.4byte	0x30
 2559 0688 7C000000 		.4byte	.LLST4
 2560 068c 22       		.uleb128 0x22
 2561 068d 15000000 		.4byte	.LASF75
 2562 0691 01       		.byte	0x1
 2563 0692 9B       		.byte	0x9b
 2564 0693 C7000000 		.4byte	0xc7
 2565 0697 A7000000 		.4byte	.LLST5
 2566 069b 21       		.uleb128 0x21
 2567 069c 706600   		.ascii	"pf\000"
 2568 069f 01       		.byte	0x1
 2569 06a0 9B       		.byte	0x9b
 2570 06a1 34050000 		.4byte	0x534
 2571 06a5 C5000000 		.4byte	.LLST6
 2572 06a9 23       		.uleb128 0x23
 2573 06aa 61726700 		.ascii	"arg\000"
 2574 06ae 01       		.byte	0x1
 2575 06af 9B       		.byte	0x9b
 2576 06b0 91020000 		.4byte	0x291
ARM GAS  C:\Users\z80\AppData\Local\Temp\ccM1QJXX.s 			page 47


 2577 06b4 02       		.byte	0x2
 2578 06b5 91       		.byte	0x91
 2579 06b6 00       		.sleb128 0
 2580 06b7 24       		.uleb128 0x24
 2581 06b8 747000   		.ascii	"tp\000"
 2582 06bb 01       		.byte	0x1
 2583 06bc 9D       		.byte	0x9d
 2584 06bd 53020000 		.4byte	0x253
 2585 06c1 E3000000 		.4byte	.LLST7
 2586 06c5 25       		.uleb128 0x25
 2587 06c6 5B050000 		.4byte	0x55b
 2588 06ca 48000000 		.4byte	.LBB16
 2589 06ce 88000000 		.4byte	.LBE16
 2590 06d2 01       		.byte	0x1
 2591 06d3 A5       		.byte	0xa5
 2592 06d4 1D       		.uleb128 0x1d
 2593 06d5 77050000 		.4byte	0x577
 2594 06d9 01       		.byte	0x1
 2595 06da 56       		.byte	0x56
 2596 06db 1D       		.uleb128 0x1d
 2597 06dc 6D050000 		.4byte	0x56d
 2598 06e0 01       		.byte	0x1
 2599 06e1 54       		.byte	0x54
 2600 06e2 00       		.byte	0x0
 2601 06e3 00       		.byte	0x0
 2602 06e4 20       		.uleb128 0x20
 2603 06e5 01       		.byte	0x1
 2604 06e6 A2010000 		.4byte	.LASF80
 2605 06ea 01       		.byte	0x1
 2606 06eb B8       		.byte	0xb8
 2607 06ec 01       		.byte	0x1
 2608 06ed 53020000 		.4byte	0x253
 2609 06f1 00000000 		.4byte	.LFB10
 2610 06f5 62000000 		.4byte	.LFE10
 2611 06f9 01010000 		.4byte	.LLST8
 2612 06fd E7070000 		.4byte	0x7e7
 2613 0701 21       		.uleb128 0x21
 2614 0702 77737000 		.ascii	"wsp\000"
 2615 0706 01       		.byte	0x1
 2616 0707 B8       		.byte	0xb8
 2617 0708 91020000 		.4byte	0x291
 2618 070c 2D010000 		.4byte	.LLST9
 2619 0710 22       		.uleb128 0x22
 2620 0711 34010000 		.4byte	.LASF78
 2621 0715 01       		.byte	0x1
 2622 0716 B8       		.byte	0xb8
 2623 0717 30000000 		.4byte	0x30
 2624 071b 4B010000 		.4byte	.LLST10
 2625 071f 22       		.uleb128 0x22
 2626 0720 15000000 		.4byte	.LASF75
 2627 0724 01       		.byte	0x1
 2628 0725 B9       		.byte	0xb9
 2629 0726 C7000000 		.4byte	0xc7
 2630 072a 69010000 		.4byte	.LLST11
 2631 072e 21       		.uleb128 0x21
 2632 072f 706600   		.ascii	"pf\000"
 2633 0732 01       		.byte	0x1
ARM GAS  C:\Users\z80\AppData\Local\Temp\ccM1QJXX.s 			page 48


 2634 0733 B9       		.byte	0xb9
 2635 0734 34050000 		.4byte	0x534
 2636 0738 87010000 		.4byte	.LLST12
 2637 073c 23       		.uleb128 0x23
 2638 073d 61726700 		.ascii	"arg\000"
 2639 0741 01       		.byte	0x1
 2640 0742 B9       		.byte	0xb9
 2641 0743 91020000 		.4byte	0x291
 2642 0747 02       		.byte	0x2
 2643 0748 91       		.byte	0x91
 2644 0749 00       		.sleb128 0
 2645 074a 24       		.uleb128 0x24
 2646 074b 747000   		.ascii	"tp\000"
 2647 074e 01       		.byte	0x1
 2648 074f BA       		.byte	0xba
 2649 0750 53020000 		.4byte	0x253
 2650 0754 A5010000 		.4byte	.LLST13
 2651 0758 26       		.uleb128 0x26
 2652 0759 83050000 		.4byte	0x583
 2653 075d 12000000 		.4byte	.LBB18
 2654 0761 1C000000 		.4byte	.LBE18
 2655 0765 01       		.byte	0x1
 2656 0766 BD       		.byte	0xbd
 2657 0767 84070000 		.4byte	0x784
 2658 076b 27       		.uleb128 0x27
 2659 076c A7050000 		.4byte	0x5a7
 2660 0770 7F       		.sleb128 -1
 2661 0771 1F       		.uleb128 0x1f
 2662 0772 9C050000 		.4byte	0x59c
 2663 0776 C3010000 		.4byte	.LLST14
 2664 077a 1F       		.uleb128 0x1f
 2665 077b 91050000 		.4byte	0x591
 2666 077f D6010000 		.4byte	.LLST15
 2667 0783 00       		.byte	0x0
 2668 0784 26       		.uleb128 0x26
 2669 0785 83050000 		.4byte	0x583
 2670 0789 1E000000 		.4byte	.LBB20
 2671 078d 2C000000 		.4byte	.LBE20
 2672 0791 01       		.byte	0x1
 2673 0792 C0       		.byte	0xc0
 2674 0793 B0070000 		.4byte	0x7b0
 2675 0797 28       		.uleb128 0x28
 2676 0798 A7050000 		.4byte	0x5a7
 2677 079c 55       		.byte	0x55
 2678 079d 1F       		.uleb128 0x1f
 2679 079e 9C050000 		.4byte	0x59c
 2680 07a2 FF010000 		.4byte	.LLST16
 2681 07a6 1F       		.uleb128 0x1f
 2682 07a7 91050000 		.4byte	0x591
 2683 07ab 12020000 		.4byte	.LLST17
 2684 07af 00       		.byte	0x0
 2685 07b0 29       		.uleb128 0x29
 2686 07b1 2C000000 		.4byte	.LBB22
 2687 07b5 32000000 		.4byte	.LBE22
 2688 07b9 CD070000 		.4byte	0x7cd
 2689 07bd 24       		.uleb128 0x24
 2690 07be 746D7000 		.ascii	"tmp\000"
ARM GAS  C:\Users\z80\AppData\Local\Temp\ccM1QJXX.s 			page 49


 2691 07c2 01       		.byte	0x1
 2692 07c3 C4       		.byte	0xc4
 2693 07c4 7B000000 		.4byte	0x7b
 2694 07c8 30020000 		.4byte	.LLST18
 2695 07cc 00       		.byte	0x0
 2696 07cd 2A       		.uleb128 0x2a
 2697 07ce 56000000 		.4byte	.LBB23
 2698 07d2 5C000000 		.4byte	.LBE23
 2699 07d6 24       		.uleb128 0x24
 2700 07d7 746D7000 		.ascii	"tmp\000"
 2701 07db 01       		.byte	0x1
 2702 07dc C6       		.byte	0xc6
 2703 07dd 7B000000 		.4byte	0x7b
 2704 07e1 43020000 		.4byte	.LLST19
 2705 07e5 00       		.byte	0x0
 2706 07e6 00       		.byte	0x0
 2707 07e7 20       		.uleb128 0x20
 2708 07e8 01       		.byte	0x1
 2709 07e9 E3000000 		.4byte	.LASF81
 2710 07ed 01       		.byte	0x1
 2711 07ee D6       		.byte	0xd6
 2712 07ef 01       		.byte	0x1
 2713 07f0 C7000000 		.4byte	0xc7
 2714 07f4 00000000 		.4byte	.LFB11
 2715 07f8 48000000 		.4byte	.LFE11
 2716 07fc 56020000 		.4byte	.LLST20
 2717 0800 59080000 		.4byte	0x859
 2718 0804 22       		.uleb128 0x22
 2719 0805 52010000 		.4byte	.LASF82
 2720 0809 01       		.byte	0x1
 2721 080a D6       		.byte	0xd6
 2722 080b C7000000 		.4byte	0xc7
 2723 080f 76020000 		.4byte	.LLST21
 2724 0813 2B       		.uleb128 0x2b
 2725 0814 8F010000 		.4byte	.LASF83
 2726 0818 01       		.byte	0x1
 2727 0819 D7       		.byte	0xd7
 2728 081a C7000000 		.4byte	0xc7
 2729 081e 94020000 		.4byte	.LLST22
 2730 0822 29       		.uleb128 0x29
 2731 0823 08000000 		.4byte	.LBB24
 2732 0827 0E000000 		.4byte	.LBE24
 2733 082b 3F080000 		.4byte	0x83f
 2734 082f 24       		.uleb128 0x24
 2735 0830 746D7000 		.ascii	"tmp\000"
 2736 0834 01       		.byte	0x1
 2737 0835 DB       		.byte	0xdb
 2738 0836 7B000000 		.4byte	0x7b
 2739 083a A7020000 		.4byte	.LLST23
 2740 083e 00       		.byte	0x0
 2741 083f 2A       		.uleb128 0x2a
 2742 0840 2E000000 		.4byte	.LBB25
 2743 0844 34000000 		.4byte	.LBE25
 2744 0848 24       		.uleb128 0x24
 2745 0849 746D7000 		.ascii	"tmp\000"
 2746 084d 01       		.byte	0x1
 2747 084e E6       		.byte	0xe6
ARM GAS  C:\Users\z80\AppData\Local\Temp\ccM1QJXX.s 			page 50


 2748 084f 7B000000 		.4byte	0x7b
 2749 0853 BA020000 		.4byte	.LLST24
 2750 0857 00       		.byte	0x0
 2751 0858 00       		.byte	0x0
 2752 0859 20       		.uleb128 0x20
 2753 085a 01       		.byte	0x1
 2754 085b C4010000 		.4byte	.LASF84
 2755 085f 01       		.byte	0x1
 2756 0860 F7       		.byte	0xf7
 2757 0861 01       		.byte	0x1
 2758 0862 53020000 		.4byte	0x253
 2759 0866 00000000 		.4byte	.LFB12
 2760 086a 38000000 		.4byte	.LFE12
 2761 086e CD020000 		.4byte	.LLST25
 2762 0872 B7080000 		.4byte	0x8b7
 2763 0876 21       		.uleb128 0x21
 2764 0877 747000   		.ascii	"tp\000"
 2765 087a 01       		.byte	0x1
 2766 087b F7       		.byte	0xf7
 2767 087c 53020000 		.4byte	0x253
 2768 0880 ED020000 		.4byte	.LLST26
 2769 0884 2C       		.uleb128 0x2c
 2770 0885 00000000 		.4byte	.Ldebug_ranges0+0x0
 2771 0889 9D080000 		.4byte	0x89d
 2772 088d 24       		.uleb128 0x24
 2773 088e 746D7000 		.ascii	"tmp\000"
 2774 0892 01       		.byte	0x1
 2775 0893 F9       		.byte	0xf9
 2776 0894 7B000000 		.4byte	0x7b
 2777 0898 0B030000 		.4byte	.LLST27
 2778 089c 00       		.byte	0x0
 2779 089d 2A       		.uleb128 0x2a
 2780 089e 28000000 		.4byte	.LBB28
 2781 08a2 2E000000 		.4byte	.LBE28
 2782 08a6 24       		.uleb128 0x24
 2783 08a7 746D7000 		.ascii	"tmp\000"
 2784 08ab 01       		.byte	0x1
 2785 08ac FE       		.byte	0xfe
 2786 08ad 7B000000 		.4byte	0x7b
 2787 08b1 1E030000 		.4byte	.LLST28
 2788 08b5 00       		.byte	0x0
 2789 08b6 00       		.byte	0x0
 2790 08b7 2D       		.uleb128 0x2d
 2791 08b8 01       		.byte	0x1
 2792 08b9 62010000 		.4byte	.LASF85
 2793 08bd 01       		.byte	0x1
 2794 08be 0E01     		.2byte	0x10e
 2795 08c0 01       		.byte	0x1
 2796 08c1 00000000 		.4byte	.LFB13
 2797 08c5 26000000 		.4byte	.LFE13
 2798 08c9 31030000 		.4byte	.LLST29
 2799 08cd 15090000 		.4byte	0x915
 2800 08d1 2E       		.uleb128 0x2e
 2801 08d2 747000   		.ascii	"tp\000"
 2802 08d5 01       		.byte	0x1
 2803 08d6 0E01     		.2byte	0x10e
 2804 08d8 53020000 		.4byte	0x253
ARM GAS  C:\Users\z80\AppData\Local\Temp\ccM1QJXX.s 			page 51


 2805 08dc 51030000 		.4byte	.LLST30
 2806 08e0 2C       		.uleb128 0x2c
 2807 08e1 18000000 		.4byte	.Ldebug_ranges0+0x18
 2808 08e5 FA080000 		.4byte	0x8fa
 2809 08e9 2F       		.uleb128 0x2f
 2810 08ea 746D7000 		.ascii	"tmp\000"
 2811 08ee 01       		.byte	0x1
 2812 08ef 1001     		.2byte	0x110
 2813 08f1 7B000000 		.4byte	0x7b
 2814 08f5 6F030000 		.4byte	.LLST31
 2815 08f9 00       		.byte	0x0
 2816 08fa 2A       		.uleb128 0x2a
 2817 08fb 1E000000 		.4byte	.LBB31
 2818 08ff 24000000 		.4byte	.LBE31
 2819 0903 2F       		.uleb128 0x2f
 2820 0904 746D7000 		.ascii	"tmp\000"
 2821 0908 01       		.byte	0x1
 2822 0909 1201     		.2byte	0x112
 2823 090b 7B000000 		.4byte	0x7b
 2824 090f 82030000 		.4byte	.LLST32
 2825 0913 00       		.byte	0x0
 2826 0914 00       		.byte	0x0
 2827 0915 2D       		.uleb128 0x2d
 2828 0916 01       		.byte	0x1
 2829 0917 67030000 		.4byte	.LASF86
 2830 091b 01       		.byte	0x1
 2831 091c 2101     		.2byte	0x121
 2832 091e 01       		.byte	0x1
 2833 091f 00000000 		.4byte	.LFB14
 2834 0923 30000000 		.4byte	.LFE14
 2835 0927 95030000 		.4byte	.LLST33
 2836 092b 78090000 		.4byte	0x978
 2837 092f 30       		.uleb128 0x30
 2838 0930 1D020000 		.4byte	.LASF87
 2839 0934 01       		.byte	0x1
 2840 0935 2101     		.2byte	0x121
 2841 0937 E8000000 		.4byte	0xe8
 2842 093b B5030000 		.4byte	.LLST34
 2843 093f 29       		.uleb128 0x29
 2844 0940 0C000000 		.4byte	.LBB32
 2845 0944 12000000 		.4byte	.LBE32
 2846 0948 5D090000 		.4byte	0x95d
 2847 094c 2F       		.uleb128 0x2f
 2848 094d 746D7000 		.ascii	"tmp\000"
 2849 0951 01       		.byte	0x1
 2850 0952 2501     		.2byte	0x125
 2851 0954 7B000000 		.4byte	0x7b
 2852 0958 D3030000 		.4byte	.LLST35
 2853 095c 00       		.byte	0x0
 2854 095d 2A       		.uleb128 0x2a
 2855 095e 22000000 		.4byte	.LBB33
 2856 0962 28000000 		.4byte	.LBE33
 2857 0966 2F       		.uleb128 0x2f
 2858 0967 746D7000 		.ascii	"tmp\000"
 2859 096b 01       		.byte	0x1
 2860 096c 2701     		.2byte	0x127
 2861 096e 7B000000 		.4byte	0x7b
ARM GAS  C:\Users\z80\AppData\Local\Temp\ccM1QJXX.s 			page 52


 2862 0972 E6030000 		.4byte	.LLST36
 2863 0976 00       		.byte	0x0
 2864 0977 00       		.byte	0x0
 2865 0978 2D       		.uleb128 0x2d
 2866 0979 01       		.byte	0x1
 2867 097a 40020000 		.4byte	.LASF88
 2868 097e 01       		.byte	0x1
 2869 097f 3201     		.2byte	0x132
 2870 0981 01       		.byte	0x1
 2871 0982 00000000 		.4byte	.LFB15
 2872 0986 2C000000 		.4byte	.LFE15
 2873 098a F9030000 		.4byte	.LLST37
 2874 098e D7090000 		.4byte	0x9d7
 2875 0992 30       		.uleb128 0x30
 2876 0993 1D020000 		.4byte	.LASF87
 2877 0997 01       		.byte	0x1
 2878 0998 3201     		.2byte	0x132
 2879 099a E8000000 		.4byte	0xe8
 2880 099e 19040000 		.4byte	.LLST38
 2881 09a2 2C       		.uleb128 0x2c
 2882 09a3 30000000 		.4byte	.Ldebug_ranges0+0x30
 2883 09a7 BC090000 		.4byte	0x9bc
 2884 09ab 2F       		.uleb128 0x2f
 2885 09ac 746D7000 		.ascii	"tmp\000"
 2886 09b0 01       		.byte	0x1
 2887 09b1 3401     		.2byte	0x134
 2888 09b3 7B000000 		.4byte	0x7b
 2889 09b7 52040000 		.4byte	.LLST39
 2890 09bb 00       		.byte	0x0
 2891 09bc 2A       		.uleb128 0x2a
 2892 09bd 20000000 		.4byte	.LBB36
 2893 09c1 26000000 		.4byte	.LBE36
 2894 09c5 2F       		.uleb128 0x2f
 2895 09c6 746D7000 		.ascii	"tmp\000"
 2896 09ca 01       		.byte	0x1
 2897 09cb 3701     		.2byte	0x137
 2898 09cd 7B000000 		.4byte	0x7b
 2899 09d1 65040000 		.4byte	.LLST40
 2900 09d5 00       		.byte	0x0
 2901 09d6 00       		.byte	0x0
 2902 09d7 2D       		.uleb128 0x2d
 2903 09d8 01       		.byte	0x1
 2904 09d9 2D030000 		.4byte	.LASF89
 2905 09dd 01       		.byte	0x1
 2906 09de 4101     		.2byte	0x141
 2907 09e0 01       		.byte	0x1
 2908 09e1 00000000 		.4byte	.LFB16
 2909 09e5 30000000 		.4byte	.LFE16
 2910 09e9 78040000 		.4byte	.LLST41
 2911 09ed 2A0A0000 		.4byte	0xa2a
 2912 09f1 29       		.uleb128 0x29
 2913 09f2 02000000 		.4byte	.LBB37
 2914 09f6 08000000 		.4byte	.LBE37
 2915 09fa 0F0A0000 		.4byte	0xa0f
 2916 09fe 2F       		.uleb128 0x2f
 2917 09ff 746D7000 		.ascii	"tmp\000"
 2918 0a03 01       		.byte	0x1
ARM GAS  C:\Users\z80\AppData\Local\Temp\ccM1QJXX.s 			page 53


 2919 0a04 4301     		.2byte	0x143
 2920 0a06 7B000000 		.4byte	0x7b
 2921 0a0a 98040000 		.4byte	.LLST42
 2922 0a0e 00       		.byte	0x0
 2923 0a0f 2A       		.uleb128 0x2a
 2924 0a10 22000000 		.4byte	.LBB38
 2925 0a14 28000000 		.4byte	.LBE38
 2926 0a18 2F       		.uleb128 0x2f
 2927 0a19 746D7000 		.ascii	"tmp\000"
 2928 0a1d 01       		.byte	0x1
 2929 0a1e 4501     		.2byte	0x145
 2930 0a20 7B000000 		.4byte	0x7b
 2931 0a24 AB040000 		.4byte	.LLST43
 2932 0a28 00       		.byte	0x0
 2933 0a29 00       		.byte	0x0
 2934 0a2a 2D       		.uleb128 0x2d
 2935 0a2b 01       		.byte	0x1
 2936 0a2c 31000000 		.4byte	.LASF90
 2937 0a30 01       		.byte	0x1
 2938 0a31 6B01     		.2byte	0x16b
 2939 0a33 01       		.byte	0x1
 2940 0a34 00000000 		.4byte	.LFB18
 2941 0a38 50000000 		.4byte	.LFE18
 2942 0a3c BE040000 		.4byte	.LLST44
 2943 0a40 910A0000 		.4byte	0xa91
 2944 0a44 2E       		.uleb128 0x2e
 2945 0a45 6D736700 		.ascii	"msg\000"
 2946 0a49 01       		.byte	0x1
 2947 0a4a 6B01     		.2byte	0x16b
 2948 0a4c D2000000 		.4byte	0xd2
 2949 0a50 DE040000 		.4byte	.LLST45
 2950 0a54 2F       		.uleb128 0x2f
 2951 0a55 747000   		.ascii	"tp\000"
 2952 0a58 01       		.byte	0x1
 2953 0a59 6C01     		.2byte	0x16c
 2954 0a5b 53020000 		.4byte	0x253
 2955 0a5f FC040000 		.4byte	.LLST46
 2956 0a63 31       		.uleb128 0x31
 2957 0a64 B1050000 		.4byte	0x5b1
 2958 0a68 14000000 		.4byte	.LBB39
 2959 0a6c 18000000 		.4byte	.LBE39
 2960 0a70 01       		.byte	0x1
 2961 0a71 7401     		.2byte	0x174
 2962 0a73 1F       		.uleb128 0x1f
 2963 0a74 C2050000 		.4byte	0x5c2
 2964 0a78 1B050000 		.4byte	.LLST47
 2965 0a7c 2A       		.uleb128 0x2a
 2966 0a7d 14000000 		.4byte	.LBB40
 2967 0a81 18000000 		.4byte	.LBE40
 2968 0a85 32       		.uleb128 0x32
 2969 0a86 CD050000 		.4byte	0x5cd
 2970 0a8a 30050000 		.4byte	.LLST48
 2971 0a8e 00       		.byte	0x0
 2972 0a8f 00       		.byte	0x0
 2973 0a90 00       		.byte	0x0
 2974 0a91 2D       		.uleb128 0x2d
 2975 0a92 01       		.byte	0x1
ARM GAS  C:\Users\z80\AppData\Local\Temp\ccM1QJXX.s 			page 54


 2976 0a93 7D000000 		.4byte	.LASF91
 2977 0a97 01       		.byte	0x1
 2978 0a98 5601     		.2byte	0x156
 2979 0a9a 01       		.byte	0x1
 2980 0a9b 00000000 		.4byte	.LFB17
 2981 0a9f 16000000 		.4byte	.LFE17
 2982 0aa3 43050000 		.4byte	.LLST49
 2983 0aa7 D20A0000 		.4byte	0xad2
 2984 0aab 2E       		.uleb128 0x2e
 2985 0aac 6D736700 		.ascii	"msg\000"
 2986 0ab0 01       		.byte	0x1
 2987 0ab1 5601     		.2byte	0x156
 2988 0ab3 D2000000 		.4byte	0xd2
 2989 0ab7 63050000 		.4byte	.LLST50
 2990 0abb 33       		.uleb128 0x33
 2991 0abc 48000000 		.4byte	.Ldebug_ranges0+0x48
 2992 0ac0 2F       		.uleb128 0x2f
 2993 0ac1 746D7000 		.ascii	"tmp\000"
 2994 0ac5 01       		.byte	0x1
 2995 0ac6 5801     		.2byte	0x158
 2996 0ac8 7B000000 		.4byte	0x7b
 2997 0acc 81050000 		.4byte	.LLST51
 2998 0ad0 00       		.byte	0x0
 2999 0ad1 00       		.byte	0x0
 3000 0ad2 34       		.uleb128 0x34
 3001 0ad3 01       		.byte	0x1
 3002 0ad4 56030000 		.4byte	.LASF92
 3003 0ad8 01       		.byte	0x1
 3004 0ad9 A101     		.2byte	0x1a1
 3005 0adb 01       		.byte	0x1
 3006 0adc D2000000 		.4byte	0xd2
 3007 0ae0 00000000 		.4byte	.LFB19
 3008 0ae4 74000000 		.4byte	.LFE19
 3009 0ae8 94050000 		.4byte	.LLST52
 3010 0aec 6F0B0000 		.4byte	0xb6f
 3011 0af0 2E       		.uleb128 0x2e
 3012 0af1 747000   		.ascii	"tp\000"
 3013 0af4 01       		.byte	0x1
 3014 0af5 A101     		.2byte	0x1a1
 3015 0af7 53020000 		.4byte	0x253
 3016 0afb B4050000 		.4byte	.LLST53
 3017 0aff 2F       		.uleb128 0x2f
 3018 0b00 6D736700 		.ascii	"msg\000"
 3019 0b04 01       		.byte	0x1
 3020 0b05 A201     		.2byte	0x1a2
 3021 0b07 D2000000 		.4byte	0xd2
 3022 0b0b D2050000 		.4byte	.LLST54
 3023 0b0f 29       		.uleb128 0x29
 3024 0b10 08000000 		.4byte	.LBB43
 3025 0b14 0E000000 		.4byte	.LBE43
 3026 0b18 2D0B0000 		.4byte	0xb2d
 3027 0b1c 2F       		.uleb128 0x2f
 3028 0b1d 746D7000 		.ascii	"tmp\000"
 3029 0b21 01       		.byte	0x1
 3030 0b22 A601     		.2byte	0x1a6
 3031 0b24 7B000000 		.4byte	0x7b
 3032 0b28 F1050000 		.4byte	.LLST55
ARM GAS  C:\Users\z80\AppData\Local\Temp\ccM1QJXX.s 			page 55


 3033 0b2c 00       		.byte	0x0
 3034 0b2d 35       		.uleb128 0x35
 3035 0b2e DE050000 		.4byte	0x5de
 3036 0b32 2A000000 		.4byte	.LBB44
 3037 0b36 60000000 		.4byte	.Ldebug_ranges0+0x60
 3038 0b3a 01       		.byte	0x1
 3039 0b3b AC01     		.2byte	0x1ac
 3040 0b3d 540B0000 		.4byte	0xb54
 3041 0b41 1F       		.uleb128 0x1f
 3042 0b42 F5050000 		.4byte	0x5f5
 3043 0b46 04060000 		.4byte	.LLST56
 3044 0b4a 1F       		.uleb128 0x1f
 3045 0b4b EB050000 		.4byte	0x5eb
 3046 0b4f 19060000 		.4byte	.LLST57
 3047 0b53 00       		.byte	0x0
 3048 0b54 2A       		.uleb128 0x2a
 3049 0b55 3C000000 		.4byte	.LBB48
 3050 0b59 42000000 		.4byte	.LBE48
 3051 0b5d 2F       		.uleb128 0x2f
 3052 0b5e 746D7000 		.ascii	"tmp\000"
 3053 0b62 01       		.byte	0x1
 3054 0b63 B001     		.2byte	0x1b0
 3055 0b65 7B000000 		.4byte	0x7b
 3056 0b69 2D060000 		.4byte	.LLST58
 3057 0b6d 00       		.byte	0x0
 3058 0b6e 00       		.byte	0x0
 3059 0b6f 36       		.uleb128 0x36
 3060 0b70 2A000000 		.4byte	.LASF93
 3061 0b74 09       		.byte	0x9
 3062 0b75 7A       		.byte	0x7a
 3063 0b76 18040000 		.4byte	0x418
 3064 0b7a 01       		.byte	0x1
 3065 0b7b 01       		.byte	0x1
 3066 0b7c 36       		.uleb128 0x36
 3067 0b7d 83030000 		.4byte	.LASF94
 3068 0b81 0A       		.byte	0xa
 3069 0b82 72       		.byte	0x72
 3070 0b83 8E040000 		.4byte	0x48e
 3071 0b87 01       		.byte	0x1
 3072 0b88 01       		.byte	0x1
 3073 0b89 36       		.uleb128 0x36
 3074 0b8a 2A000000 		.4byte	.LASF93
 3075 0b8e 09       		.byte	0x9
 3076 0b8f 7A       		.byte	0x7a
 3077 0b90 18040000 		.4byte	0x418
 3078 0b94 01       		.byte	0x1
 3079 0b95 01       		.byte	0x1
 3080 0b96 36       		.uleb128 0x36
 3081 0b97 83030000 		.4byte	.LASF94
 3082 0b9b 0A       		.byte	0xa
 3083 0b9c 72       		.byte	0x72
 3084 0b9d 8E040000 		.4byte	0x48e
 3085 0ba1 01       		.byte	0x1
 3086 0ba2 01       		.byte	0x1
 3087 0ba3 00       		.byte	0x0
 3088              		.section	.debug_abbrev
 3089 0000 01       		.uleb128 0x1
ARM GAS  C:\Users\z80\AppData\Local\Temp\ccM1QJXX.s 			page 56


 3090 0001 11       		.uleb128 0x11
 3091 0002 01       		.byte	0x1
 3092 0003 25       		.uleb128 0x25
 3093 0004 0E       		.uleb128 0xe
 3094 0005 13       		.uleb128 0x13
 3095 0006 0B       		.uleb128 0xb
 3096 0007 03       		.uleb128 0x3
 3097 0008 0E       		.uleb128 0xe
 3098 0009 1B       		.uleb128 0x1b
 3099 000a 0E       		.uleb128 0xe
 3100 000b 11       		.uleb128 0x11
 3101 000c 01       		.uleb128 0x1
 3102 000d 52       		.uleb128 0x52
 3103 000e 01       		.uleb128 0x1
 3104 000f 55       		.uleb128 0x55
 3105 0010 06       		.uleb128 0x6
 3106 0011 10       		.uleb128 0x10
 3107 0012 06       		.uleb128 0x6
 3108 0013 00       		.byte	0x0
 3109 0014 00       		.byte	0x0
 3110 0015 02       		.uleb128 0x2
 3111 0016 24       		.uleb128 0x24
 3112 0017 00       		.byte	0x0
 3113 0018 0B       		.uleb128 0xb
 3114 0019 0B       		.uleb128 0xb
 3115 001a 3E       		.uleb128 0x3e
 3116 001b 0B       		.uleb128 0xb
 3117 001c 03       		.uleb128 0x3
 3118 001d 08       		.uleb128 0x8
 3119 001e 00       		.byte	0x0
 3120 001f 00       		.byte	0x0
 3121 0020 03       		.uleb128 0x3
 3122 0021 16       		.uleb128 0x16
 3123 0022 00       		.byte	0x0
 3124 0023 03       		.uleb128 0x3
 3125 0024 0E       		.uleb128 0xe
 3126 0025 3A       		.uleb128 0x3a
 3127 0026 0B       		.uleb128 0xb
 3128 0027 3B       		.uleb128 0x3b
 3129 0028 0B       		.uleb128 0xb
 3130 0029 49       		.uleb128 0x49
 3131 002a 13       		.uleb128 0x13
 3132 002b 00       		.byte	0x0
 3133 002c 00       		.byte	0x0
 3134 002d 04       		.uleb128 0x4
 3135 002e 24       		.uleb128 0x24
 3136 002f 00       		.byte	0x0
 3137 0030 0B       		.uleb128 0xb
 3138 0031 0B       		.uleb128 0xb
 3139 0032 3E       		.uleb128 0x3e
 3140 0033 0B       		.uleb128 0xb
 3141 0034 03       		.uleb128 0x3
 3142 0035 0E       		.uleb128 0xe
 3143 0036 00       		.byte	0x0
 3144 0037 00       		.byte	0x0
 3145 0038 05       		.uleb128 0x5
 3146 0039 13       		.uleb128 0x13
ARM GAS  C:\Users\z80\AppData\Local\Temp\ccM1QJXX.s 			page 57


 3147 003a 01       		.byte	0x1
 3148 003b 03       		.uleb128 0x3
 3149 003c 0E       		.uleb128 0xe
 3150 003d 0B       		.uleb128 0xb
 3151 003e 0B       		.uleb128 0xb
 3152 003f 3A       		.uleb128 0x3a
 3153 0040 0B       		.uleb128 0xb
 3154 0041 3B       		.uleb128 0x3b
 3155 0042 0B       		.uleb128 0xb
 3156 0043 01       		.uleb128 0x1
 3157 0044 13       		.uleb128 0x13
 3158 0045 00       		.byte	0x0
 3159 0046 00       		.byte	0x0
 3160 0047 06       		.uleb128 0x6
 3161 0048 0D       		.uleb128 0xd
 3162 0049 00       		.byte	0x0
 3163 004a 03       		.uleb128 0x3
 3164 004b 0E       		.uleb128 0xe
 3165 004c 3A       		.uleb128 0x3a
 3166 004d 0B       		.uleb128 0xb
 3167 004e 3B       		.uleb128 0x3b
 3168 004f 0B       		.uleb128 0xb
 3169 0050 49       		.uleb128 0x49
 3170 0051 13       		.uleb128 0x13
 3171 0052 38       		.uleb128 0x38
 3172 0053 0A       		.uleb128 0xa
 3173 0054 00       		.byte	0x0
 3174 0055 00       		.byte	0x0
 3175 0056 07       		.uleb128 0x7
 3176 0057 0D       		.uleb128 0xd
 3177 0058 00       		.byte	0x0
 3178 0059 03       		.uleb128 0x3
 3179 005a 08       		.uleb128 0x8
 3180 005b 3A       		.uleb128 0x3a
 3181 005c 0B       		.uleb128 0xb
 3182 005d 3B       		.uleb128 0x3b
 3183 005e 0B       		.uleb128 0xb
 3184 005f 49       		.uleb128 0x49
 3185 0060 13       		.uleb128 0x13
 3186 0061 38       		.uleb128 0x38
 3187 0062 0A       		.uleb128 0xa
 3188 0063 00       		.byte	0x0
 3189 0064 00       		.byte	0x0
 3190 0065 08       		.uleb128 0x8
 3191 0066 13       		.uleb128 0x13
 3192 0067 01       		.byte	0x1
 3193 0068 0B       		.uleb128 0xb
 3194 0069 0B       		.uleb128 0xb
 3195 006a 3A       		.uleb128 0x3a
 3196 006b 0B       		.uleb128 0xb
 3197 006c 3B       		.uleb128 0x3b
 3198 006d 0B       		.uleb128 0xb
 3199 006e 01       		.uleb128 0x1
 3200 006f 13       		.uleb128 0x13
 3201 0070 00       		.byte	0x0
 3202 0071 00       		.byte	0x0
 3203 0072 09       		.uleb128 0x9
ARM GAS  C:\Users\z80\AppData\Local\Temp\ccM1QJXX.s 			page 58


 3204 0073 0F       		.uleb128 0xf
 3205 0074 00       		.byte	0x0
 3206 0075 0B       		.uleb128 0xb
 3207 0076 0B       		.uleb128 0xb
 3208 0077 49       		.uleb128 0x49
 3209 0078 13       		.uleb128 0x13
 3210 0079 00       		.byte	0x0
 3211 007a 00       		.byte	0x0
 3212 007b 0A       		.uleb128 0xa
 3213 007c 0F       		.uleb128 0xf
 3214 007d 00       		.byte	0x0
 3215 007e 0B       		.uleb128 0xb
 3216 007f 0B       		.uleb128 0xb
 3217 0080 00       		.byte	0x0
 3218 0081 00       		.byte	0x0
 3219 0082 0B       		.uleb128 0xb
 3220 0083 0D       		.uleb128 0xd
 3221 0084 00       		.byte	0x0
 3222 0085 03       		.uleb128 0x3
 3223 0086 08       		.uleb128 0x8
 3224 0087 3A       		.uleb128 0x3a
 3225 0088 0B       		.uleb128 0xb
 3226 0089 3B       		.uleb128 0x3b
 3227 008a 05       		.uleb128 0x5
 3228 008b 49       		.uleb128 0x49
 3229 008c 13       		.uleb128 0x13
 3230 008d 38       		.uleb128 0x38
 3231 008e 0A       		.uleb128 0xa
 3232 008f 00       		.byte	0x0
 3233 0090 00       		.byte	0x0
 3234 0091 0C       		.uleb128 0xc
 3235 0092 13       		.uleb128 0x13
 3236 0093 01       		.byte	0x1
 3237 0094 03       		.uleb128 0x3
 3238 0095 0E       		.uleb128 0xe
 3239 0096 0B       		.uleb128 0xb
 3240 0097 0B       		.uleb128 0xb
 3241 0098 3A       		.uleb128 0x3a
 3242 0099 0B       		.uleb128 0xb
 3243 009a 3B       		.uleb128 0x3b
 3244 009b 05       		.uleb128 0x5
 3245 009c 01       		.uleb128 0x1
 3246 009d 13       		.uleb128 0x13
 3247 009e 00       		.byte	0x0
 3248 009f 00       		.byte	0x0
 3249 00a0 0D       		.uleb128 0xd
 3250 00a1 24       		.uleb128 0x24
 3251 00a2 00       		.byte	0x0
 3252 00a3 0B       		.uleb128 0xb
 3253 00a4 0B       		.uleb128 0xb
 3254 00a5 3E       		.uleb128 0x3e
 3255 00a6 0B       		.uleb128 0xb
 3256 00a7 00       		.byte	0x0
 3257 00a8 00       		.byte	0x0
 3258 00a9 0E       		.uleb128 0xe
 3259 00aa 15       		.uleb128 0x15
 3260 00ab 01       		.byte	0x1
ARM GAS  C:\Users\z80\AppData\Local\Temp\ccM1QJXX.s 			page 59


 3261 00ac 27       		.uleb128 0x27
 3262 00ad 0C       		.uleb128 0xc
 3263 00ae 01       		.uleb128 0x1
 3264 00af 13       		.uleb128 0x13
 3265 00b0 00       		.byte	0x0
 3266 00b1 00       		.byte	0x0
 3267 00b2 0F       		.uleb128 0xf
 3268 00b3 05       		.uleb128 0x5
 3269 00b4 00       		.byte	0x0
 3270 00b5 49       		.uleb128 0x49
 3271 00b6 13       		.uleb128 0x13
 3272 00b7 00       		.byte	0x0
 3273 00b8 00       		.byte	0x0
 3274 00b9 10       		.uleb128 0x10
 3275 00ba 35       		.uleb128 0x35
 3276 00bb 00       		.byte	0x0
 3277 00bc 49       		.uleb128 0x49
 3278 00bd 13       		.uleb128 0x13
 3279 00be 00       		.byte	0x0
 3280 00bf 00       		.byte	0x0
 3281 00c0 11       		.uleb128 0x11
 3282 00c1 17       		.uleb128 0x17
 3283 00c2 01       		.byte	0x1
 3284 00c3 0B       		.uleb128 0xb
 3285 00c4 0B       		.uleb128 0xb
 3286 00c5 3A       		.uleb128 0x3a
 3287 00c6 0B       		.uleb128 0xb
 3288 00c7 3B       		.uleb128 0x3b
 3289 00c8 0B       		.uleb128 0xb
 3290 00c9 01       		.uleb128 0x1
 3291 00ca 13       		.uleb128 0x13
 3292 00cb 00       		.byte	0x0
 3293 00cc 00       		.byte	0x0
 3294 00cd 12       		.uleb128 0x12
 3295 00ce 0D       		.uleb128 0xd
 3296 00cf 00       		.byte	0x0
 3297 00d0 03       		.uleb128 0x3
 3298 00d1 0E       		.uleb128 0xe
 3299 00d2 3A       		.uleb128 0x3a
 3300 00d3 0B       		.uleb128 0xb
 3301 00d4 3B       		.uleb128 0x3b
 3302 00d5 0B       		.uleb128 0xb
 3303 00d6 49       		.uleb128 0x49
 3304 00d7 13       		.uleb128 0x13
 3305 00d8 00       		.byte	0x0
 3306 00d9 00       		.byte	0x0
 3307 00da 13       		.uleb128 0x13
 3308 00db 26       		.uleb128 0x26
 3309 00dc 00       		.byte	0x0
 3310 00dd 49       		.uleb128 0x49
 3311 00de 13       		.uleb128 0x13
 3312 00df 00       		.byte	0x0
 3313 00e0 00       		.byte	0x0
 3314 00e1 14       		.uleb128 0x14
 3315 00e2 15       		.uleb128 0x15
 3316 00e3 01       		.byte	0x1
 3317 00e4 27       		.uleb128 0x27
ARM GAS  C:\Users\z80\AppData\Local\Temp\ccM1QJXX.s 			page 60


 3318 00e5 0C       		.uleb128 0xc
 3319 00e6 49       		.uleb128 0x49
 3320 00e7 13       		.uleb128 0x13
 3321 00e8 01       		.uleb128 0x1
 3322 00e9 13       		.uleb128 0x13
 3323 00ea 00       		.byte	0x0
 3324 00eb 00       		.byte	0x0
 3325 00ec 15       		.uleb128 0x15
 3326 00ed 2E       		.uleb128 0x2e
 3327 00ee 01       		.byte	0x1
 3328 00ef 3F       		.uleb128 0x3f
 3329 00f0 0C       		.uleb128 0xc
 3330 00f1 03       		.uleb128 0x3
 3331 00f2 0E       		.uleb128 0xe
 3332 00f3 3A       		.uleb128 0x3a
 3333 00f4 0B       		.uleb128 0xb
 3334 00f5 3B       		.uleb128 0x3b
 3335 00f6 0B       		.uleb128 0xb
 3336 00f7 27       		.uleb128 0x27
 3337 00f8 0C       		.uleb128 0xc
 3338 00f9 49       		.uleb128 0x49
 3339 00fa 13       		.uleb128 0x13
 3340 00fb 20       		.uleb128 0x20
 3341 00fc 0B       		.uleb128 0xb
 3342 00fd 01       		.uleb128 0x1
 3343 00fe 13       		.uleb128 0x13
 3344 00ff 00       		.byte	0x0
 3345 0100 00       		.byte	0x0
 3346 0101 16       		.uleb128 0x16
 3347 0102 05       		.uleb128 0x5
 3348 0103 00       		.byte	0x0
 3349 0104 03       		.uleb128 0x3
 3350 0105 08       		.uleb128 0x8
 3351 0106 3A       		.uleb128 0x3a
 3352 0107 0B       		.uleb128 0xb
 3353 0108 3B       		.uleb128 0x3b
 3354 0109 0B       		.uleb128 0xb
 3355 010a 49       		.uleb128 0x49
 3356 010b 13       		.uleb128 0x13
 3357 010c 00       		.byte	0x0
 3358 010d 00       		.byte	0x0
 3359 010e 17       		.uleb128 0x17
 3360 010f 05       		.uleb128 0x5
 3361 0110 00       		.byte	0x0
 3362 0111 03       		.uleb128 0x3
 3363 0112 0E       		.uleb128 0xe
 3364 0113 3A       		.uleb128 0x3a
 3365 0114 0B       		.uleb128 0xb
 3366 0115 3B       		.uleb128 0x3b
 3367 0116 0B       		.uleb128 0xb
 3368 0117 49       		.uleb128 0x49
 3369 0118 13       		.uleb128 0x13
 3370 0119 00       		.byte	0x0
 3371 011a 00       		.byte	0x0
 3372 011b 18       		.uleb128 0x18
 3373 011c 2E       		.uleb128 0x2e
 3374 011d 01       		.byte	0x1
ARM GAS  C:\Users\z80\AppData\Local\Temp\ccM1QJXX.s 			page 61


 3375 011e 3F       		.uleb128 0x3f
 3376 011f 0C       		.uleb128 0xc
 3377 0120 03       		.uleb128 0x3
 3378 0121 0E       		.uleb128 0xe
 3379 0122 3A       		.uleb128 0x3a
 3380 0123 0B       		.uleb128 0xb
 3381 0124 3B       		.uleb128 0x3b
 3382 0125 0B       		.uleb128 0xb
 3383 0126 27       		.uleb128 0x27
 3384 0127 0C       		.uleb128 0xc
 3385 0128 20       		.uleb128 0x20
 3386 0129 0B       		.uleb128 0xb
 3387 012a 01       		.uleb128 0x1
 3388 012b 13       		.uleb128 0x13
 3389 012c 00       		.byte	0x0
 3390 012d 00       		.byte	0x0
 3391 012e 19       		.uleb128 0x19
 3392 012f 2E       		.uleb128 0x2e
 3393 0130 01       		.byte	0x1
 3394 0131 03       		.uleb128 0x3
 3395 0132 0E       		.uleb128 0xe
 3396 0133 3A       		.uleb128 0x3a
 3397 0134 0B       		.uleb128 0xb
 3398 0135 3B       		.uleb128 0x3b
 3399 0136 0B       		.uleb128 0xb
 3400 0137 27       		.uleb128 0x27
 3401 0138 0C       		.uleb128 0xc
 3402 0139 49       		.uleb128 0x49
 3403 013a 13       		.uleb128 0x13
 3404 013b 20       		.uleb128 0x20
 3405 013c 0B       		.uleb128 0xb
 3406 013d 01       		.uleb128 0x1
 3407 013e 13       		.uleb128 0x13
 3408 013f 00       		.byte	0x0
 3409 0140 00       		.byte	0x0
 3410 0141 1A       		.uleb128 0x1a
 3411 0142 34       		.uleb128 0x34
 3412 0143 00       		.byte	0x0
 3413 0144 03       		.uleb128 0x3
 3414 0145 08       		.uleb128 0x8
 3415 0146 3A       		.uleb128 0x3a
 3416 0147 0B       		.uleb128 0xb
 3417 0148 3B       		.uleb128 0x3b
 3418 0149 0B       		.uleb128 0xb
 3419 014a 49       		.uleb128 0x49
 3420 014b 13       		.uleb128 0x13
 3421 014c 00       		.byte	0x0
 3422 014d 00       		.byte	0x0
 3423 014e 1B       		.uleb128 0x1b
 3424 014f 2E       		.uleb128 0x2e
 3425 0150 01       		.byte	0x1
 3426 0151 03       		.uleb128 0x3
 3427 0152 0E       		.uleb128 0xe
 3428 0153 3A       		.uleb128 0x3a
 3429 0154 0B       		.uleb128 0xb
 3430 0155 3B       		.uleb128 0x3b
 3431 0156 0B       		.uleb128 0xb
ARM GAS  C:\Users\z80\AppData\Local\Temp\ccM1QJXX.s 			page 62


 3432 0157 27       		.uleb128 0x27
 3433 0158 0C       		.uleb128 0xc
 3434 0159 20       		.uleb128 0x20
 3435 015a 0B       		.uleb128 0xb
 3436 015b 01       		.uleb128 0x1
 3437 015c 13       		.uleb128 0x13
 3438 015d 00       		.byte	0x0
 3439 015e 00       		.byte	0x0
 3440 015f 1C       		.uleb128 0x1c
 3441 0160 2E       		.uleb128 0x2e
 3442 0161 01       		.byte	0x1
 3443 0162 31       		.uleb128 0x31
 3444 0163 13       		.uleb128 0x13
 3445 0164 11       		.uleb128 0x11
 3446 0165 01       		.uleb128 0x1
 3447 0166 12       		.uleb128 0x12
 3448 0167 01       		.uleb128 0x1
 3449 0168 40       		.uleb128 0x40
 3450 0169 06       		.uleb128 0x6
 3451 016a 01       		.uleb128 0x1
 3452 016b 13       		.uleb128 0x13
 3453 016c 00       		.byte	0x0
 3454 016d 00       		.byte	0x0
 3455 016e 1D       		.uleb128 0x1d
 3456 016f 05       		.uleb128 0x5
 3457 0170 00       		.byte	0x0
 3458 0171 31       		.uleb128 0x31
 3459 0172 13       		.uleb128 0x13
 3460 0173 02       		.uleb128 0x2
 3461 0174 0A       		.uleb128 0xa
 3462 0175 00       		.byte	0x0
 3463 0176 00       		.byte	0x0
 3464 0177 1E       		.uleb128 0x1e
 3465 0178 2E       		.uleb128 0x2e
 3466 0179 01       		.byte	0x1
 3467 017a 31       		.uleb128 0x31
 3468 017b 13       		.uleb128 0x13
 3469 017c 11       		.uleb128 0x11
 3470 017d 01       		.uleb128 0x1
 3471 017e 12       		.uleb128 0x12
 3472 017f 01       		.uleb128 0x1
 3473 0180 40       		.uleb128 0x40
 3474 0181 0A       		.uleb128 0xa
 3475 0182 01       		.uleb128 0x1
 3476 0183 13       		.uleb128 0x13
 3477 0184 00       		.byte	0x0
 3478 0185 00       		.byte	0x0
 3479 0186 1F       		.uleb128 0x1f
 3480 0187 05       		.uleb128 0x5
 3481 0188 00       		.byte	0x0
 3482 0189 31       		.uleb128 0x31
 3483 018a 13       		.uleb128 0x13
 3484 018b 02       		.uleb128 0x2
 3485 018c 06       		.uleb128 0x6
 3486 018d 00       		.byte	0x0
 3487 018e 00       		.byte	0x0
 3488 018f 20       		.uleb128 0x20
ARM GAS  C:\Users\z80\AppData\Local\Temp\ccM1QJXX.s 			page 63


 3489 0190 2E       		.uleb128 0x2e
 3490 0191 01       		.byte	0x1
 3491 0192 3F       		.uleb128 0x3f
 3492 0193 0C       		.uleb128 0xc
 3493 0194 03       		.uleb128 0x3
 3494 0195 0E       		.uleb128 0xe
 3495 0196 3A       		.uleb128 0x3a
 3496 0197 0B       		.uleb128 0xb
 3497 0198 3B       		.uleb128 0x3b
 3498 0199 0B       		.uleb128 0xb
 3499 019a 27       		.uleb128 0x27
 3500 019b 0C       		.uleb128 0xc
 3501 019c 49       		.uleb128 0x49
 3502 019d 13       		.uleb128 0x13
 3503 019e 11       		.uleb128 0x11
 3504 019f 01       		.uleb128 0x1
 3505 01a0 12       		.uleb128 0x12
 3506 01a1 01       		.uleb128 0x1
 3507 01a2 40       		.uleb128 0x40
 3508 01a3 06       		.uleb128 0x6
 3509 01a4 01       		.uleb128 0x1
 3510 01a5 13       		.uleb128 0x13
 3511 01a6 00       		.byte	0x0
 3512 01a7 00       		.byte	0x0
 3513 01a8 21       		.uleb128 0x21
 3514 01a9 05       		.uleb128 0x5
 3515 01aa 00       		.byte	0x0
 3516 01ab 03       		.uleb128 0x3
 3517 01ac 08       		.uleb128 0x8
 3518 01ad 3A       		.uleb128 0x3a
 3519 01ae 0B       		.uleb128 0xb
 3520 01af 3B       		.uleb128 0x3b
 3521 01b0 0B       		.uleb128 0xb
 3522 01b1 49       		.uleb128 0x49
 3523 01b2 13       		.uleb128 0x13
 3524 01b3 02       		.uleb128 0x2
 3525 01b4 06       		.uleb128 0x6
 3526 01b5 00       		.byte	0x0
 3527 01b6 00       		.byte	0x0
 3528 01b7 22       		.uleb128 0x22
 3529 01b8 05       		.uleb128 0x5
 3530 01b9 00       		.byte	0x0
 3531 01ba 03       		.uleb128 0x3
 3532 01bb 0E       		.uleb128 0xe
 3533 01bc 3A       		.uleb128 0x3a
 3534 01bd 0B       		.uleb128 0xb
 3535 01be 3B       		.uleb128 0x3b
 3536 01bf 0B       		.uleb128 0xb
 3537 01c0 49       		.uleb128 0x49
 3538 01c1 13       		.uleb128 0x13
 3539 01c2 02       		.uleb128 0x2
 3540 01c3 06       		.uleb128 0x6
 3541 01c4 00       		.byte	0x0
 3542 01c5 00       		.byte	0x0
 3543 01c6 23       		.uleb128 0x23
 3544 01c7 05       		.uleb128 0x5
 3545 01c8 00       		.byte	0x0
ARM GAS  C:\Users\z80\AppData\Local\Temp\ccM1QJXX.s 			page 64


 3546 01c9 03       		.uleb128 0x3
 3547 01ca 08       		.uleb128 0x8
 3548 01cb 3A       		.uleb128 0x3a
 3549 01cc 0B       		.uleb128 0xb
 3550 01cd 3B       		.uleb128 0x3b
 3551 01ce 0B       		.uleb128 0xb
 3552 01cf 49       		.uleb128 0x49
 3553 01d0 13       		.uleb128 0x13
 3554 01d1 02       		.uleb128 0x2
 3555 01d2 0A       		.uleb128 0xa
 3556 01d3 00       		.byte	0x0
 3557 01d4 00       		.byte	0x0
 3558 01d5 24       		.uleb128 0x24
 3559 01d6 34       		.uleb128 0x34
 3560 01d7 00       		.byte	0x0
 3561 01d8 03       		.uleb128 0x3
 3562 01d9 08       		.uleb128 0x8
 3563 01da 3A       		.uleb128 0x3a
 3564 01db 0B       		.uleb128 0xb
 3565 01dc 3B       		.uleb128 0x3b
 3566 01dd 0B       		.uleb128 0xb
 3567 01de 49       		.uleb128 0x49
 3568 01df 13       		.uleb128 0x13
 3569 01e0 02       		.uleb128 0x2
 3570 01e1 06       		.uleb128 0x6
 3571 01e2 00       		.byte	0x0
 3572 01e3 00       		.byte	0x0
 3573 01e4 25       		.uleb128 0x25
 3574 01e5 1D       		.uleb128 0x1d
 3575 01e6 01       		.byte	0x1
 3576 01e7 31       		.uleb128 0x31
 3577 01e8 13       		.uleb128 0x13
 3578 01e9 11       		.uleb128 0x11
 3579 01ea 01       		.uleb128 0x1
 3580 01eb 12       		.uleb128 0x12
 3581 01ec 01       		.uleb128 0x1
 3582 01ed 58       		.uleb128 0x58
 3583 01ee 0B       		.uleb128 0xb
 3584 01ef 59       		.uleb128 0x59
 3585 01f0 0B       		.uleb128 0xb
 3586 01f1 00       		.byte	0x0
 3587 01f2 00       		.byte	0x0
 3588 01f3 26       		.uleb128 0x26
 3589 01f4 1D       		.uleb128 0x1d
 3590 01f5 01       		.byte	0x1
 3591 01f6 31       		.uleb128 0x31
 3592 01f7 13       		.uleb128 0x13
 3593 01f8 11       		.uleb128 0x11
 3594 01f9 01       		.uleb128 0x1
 3595 01fa 12       		.uleb128 0x12
 3596 01fb 01       		.uleb128 0x1
 3597 01fc 58       		.uleb128 0x58
 3598 01fd 0B       		.uleb128 0xb
 3599 01fe 59       		.uleb128 0x59
 3600 01ff 0B       		.uleb128 0xb
 3601 0200 01       		.uleb128 0x1
 3602 0201 13       		.uleb128 0x13
ARM GAS  C:\Users\z80\AppData\Local\Temp\ccM1QJXX.s 			page 65


 3603 0202 00       		.byte	0x0
 3604 0203 00       		.byte	0x0
 3605 0204 27       		.uleb128 0x27
 3606 0205 05       		.uleb128 0x5
 3607 0206 00       		.byte	0x0
 3608 0207 31       		.uleb128 0x31
 3609 0208 13       		.uleb128 0x13
 3610 0209 1C       		.uleb128 0x1c
 3611 020a 0D       		.uleb128 0xd
 3612 020b 00       		.byte	0x0
 3613 020c 00       		.byte	0x0
 3614 020d 28       		.uleb128 0x28
 3615 020e 05       		.uleb128 0x5
 3616 020f 00       		.byte	0x0
 3617 0210 31       		.uleb128 0x31
 3618 0211 13       		.uleb128 0x13
 3619 0212 1C       		.uleb128 0x1c
 3620 0213 0B       		.uleb128 0xb
 3621 0214 00       		.byte	0x0
 3622 0215 00       		.byte	0x0
 3623 0216 29       		.uleb128 0x29
 3624 0217 0B       		.uleb128 0xb
 3625 0218 01       		.byte	0x1
 3626 0219 11       		.uleb128 0x11
 3627 021a 01       		.uleb128 0x1
 3628 021b 12       		.uleb128 0x12
 3629 021c 01       		.uleb128 0x1
 3630 021d 01       		.uleb128 0x1
 3631 021e 13       		.uleb128 0x13
 3632 021f 00       		.byte	0x0
 3633 0220 00       		.byte	0x0
 3634 0221 2A       		.uleb128 0x2a
 3635 0222 0B       		.uleb128 0xb
 3636 0223 01       		.byte	0x1
 3637 0224 11       		.uleb128 0x11
 3638 0225 01       		.uleb128 0x1
 3639 0226 12       		.uleb128 0x12
 3640 0227 01       		.uleb128 0x1
 3641 0228 00       		.byte	0x0
 3642 0229 00       		.byte	0x0
 3643 022a 2B       		.uleb128 0x2b
 3644 022b 34       		.uleb128 0x34
 3645 022c 00       		.byte	0x0
 3646 022d 03       		.uleb128 0x3
 3647 022e 0E       		.uleb128 0xe
 3648 022f 3A       		.uleb128 0x3a
 3649 0230 0B       		.uleb128 0xb
 3650 0231 3B       		.uleb128 0x3b
 3651 0232 0B       		.uleb128 0xb
 3652 0233 49       		.uleb128 0x49
 3653 0234 13       		.uleb128 0x13
 3654 0235 02       		.uleb128 0x2
 3655 0236 06       		.uleb128 0x6
 3656 0237 00       		.byte	0x0
 3657 0238 00       		.byte	0x0
 3658 0239 2C       		.uleb128 0x2c
 3659 023a 0B       		.uleb128 0xb
ARM GAS  C:\Users\z80\AppData\Local\Temp\ccM1QJXX.s 			page 66


 3660 023b 01       		.byte	0x1
 3661 023c 55       		.uleb128 0x55
 3662 023d 06       		.uleb128 0x6
 3663 023e 01       		.uleb128 0x1
 3664 023f 13       		.uleb128 0x13
 3665 0240 00       		.byte	0x0
 3666 0241 00       		.byte	0x0
 3667 0242 2D       		.uleb128 0x2d
 3668 0243 2E       		.uleb128 0x2e
 3669 0244 01       		.byte	0x1
 3670 0245 3F       		.uleb128 0x3f
 3671 0246 0C       		.uleb128 0xc
 3672 0247 03       		.uleb128 0x3
 3673 0248 0E       		.uleb128 0xe
 3674 0249 3A       		.uleb128 0x3a
 3675 024a 0B       		.uleb128 0xb
 3676 024b 3B       		.uleb128 0x3b
 3677 024c 05       		.uleb128 0x5
 3678 024d 27       		.uleb128 0x27
 3679 024e 0C       		.uleb128 0xc
 3680 024f 11       		.uleb128 0x11
 3681 0250 01       		.uleb128 0x1
 3682 0251 12       		.uleb128 0x12
 3683 0252 01       		.uleb128 0x1
 3684 0253 40       		.uleb128 0x40
 3685 0254 06       		.uleb128 0x6
 3686 0255 01       		.uleb128 0x1
 3687 0256 13       		.uleb128 0x13
 3688 0257 00       		.byte	0x0
 3689 0258 00       		.byte	0x0
 3690 0259 2E       		.uleb128 0x2e
 3691 025a 05       		.uleb128 0x5
 3692 025b 00       		.byte	0x0
 3693 025c 03       		.uleb128 0x3
 3694 025d 08       		.uleb128 0x8
 3695 025e 3A       		.uleb128 0x3a
 3696 025f 0B       		.uleb128 0xb
 3697 0260 3B       		.uleb128 0x3b
 3698 0261 05       		.uleb128 0x5
 3699 0262 49       		.uleb128 0x49
 3700 0263 13       		.uleb128 0x13
 3701 0264 02       		.uleb128 0x2
 3702 0265 06       		.uleb128 0x6
 3703 0266 00       		.byte	0x0
 3704 0267 00       		.byte	0x0
 3705 0268 2F       		.uleb128 0x2f
 3706 0269 34       		.uleb128 0x34
 3707 026a 00       		.byte	0x0
 3708 026b 03       		.uleb128 0x3
 3709 026c 08       		.uleb128 0x8
 3710 026d 3A       		.uleb128 0x3a
 3711 026e 0B       		.uleb128 0xb
 3712 026f 3B       		.uleb128 0x3b
 3713 0270 05       		.uleb128 0x5
 3714 0271 49       		.uleb128 0x49
 3715 0272 13       		.uleb128 0x13
 3716 0273 02       		.uleb128 0x2
ARM GAS  C:\Users\z80\AppData\Local\Temp\ccM1QJXX.s 			page 67


 3717 0274 06       		.uleb128 0x6
 3718 0275 00       		.byte	0x0
 3719 0276 00       		.byte	0x0
 3720 0277 30       		.uleb128 0x30
 3721 0278 05       		.uleb128 0x5
 3722 0279 00       		.byte	0x0
 3723 027a 03       		.uleb128 0x3
 3724 027b 0E       		.uleb128 0xe
 3725 027c 3A       		.uleb128 0x3a
 3726 027d 0B       		.uleb128 0xb
 3727 027e 3B       		.uleb128 0x3b
 3728 027f 05       		.uleb128 0x5
 3729 0280 49       		.uleb128 0x49
 3730 0281 13       		.uleb128 0x13
 3731 0282 02       		.uleb128 0x2
 3732 0283 06       		.uleb128 0x6
 3733 0284 00       		.byte	0x0
 3734 0285 00       		.byte	0x0
 3735 0286 31       		.uleb128 0x31
 3736 0287 1D       		.uleb128 0x1d
 3737 0288 01       		.byte	0x1
 3738 0289 31       		.uleb128 0x31
 3739 028a 13       		.uleb128 0x13
 3740 028b 11       		.uleb128 0x11
 3741 028c 01       		.uleb128 0x1
 3742 028d 12       		.uleb128 0x12
 3743 028e 01       		.uleb128 0x1
 3744 028f 58       		.uleb128 0x58
 3745 0290 0B       		.uleb128 0xb
 3746 0291 59       		.uleb128 0x59
 3747 0292 05       		.uleb128 0x5
 3748 0293 00       		.byte	0x0
 3749 0294 00       		.byte	0x0
 3750 0295 32       		.uleb128 0x32
 3751 0296 34       		.uleb128 0x34
 3752 0297 00       		.byte	0x0
 3753 0298 31       		.uleb128 0x31
 3754 0299 13       		.uleb128 0x13
 3755 029a 02       		.uleb128 0x2
 3756 029b 06       		.uleb128 0x6
 3757 029c 00       		.byte	0x0
 3758 029d 00       		.byte	0x0
 3759 029e 33       		.uleb128 0x33
 3760 029f 0B       		.uleb128 0xb
 3761 02a0 01       		.byte	0x1
 3762 02a1 55       		.uleb128 0x55
 3763 02a2 06       		.uleb128 0x6
 3764 02a3 00       		.byte	0x0
 3765 02a4 00       		.byte	0x0
 3766 02a5 34       		.uleb128 0x34
 3767 02a6 2E       		.uleb128 0x2e
 3768 02a7 01       		.byte	0x1
 3769 02a8 3F       		.uleb128 0x3f
 3770 02a9 0C       		.uleb128 0xc
 3771 02aa 03       		.uleb128 0x3
 3772 02ab 0E       		.uleb128 0xe
 3773 02ac 3A       		.uleb128 0x3a
ARM GAS  C:\Users\z80\AppData\Local\Temp\ccM1QJXX.s 			page 68


 3774 02ad 0B       		.uleb128 0xb
 3775 02ae 3B       		.uleb128 0x3b
 3776 02af 05       		.uleb128 0x5
 3777 02b0 27       		.uleb128 0x27
 3778 02b1 0C       		.uleb128 0xc
 3779 02b2 49       		.uleb128 0x49
 3780 02b3 13       		.uleb128 0x13
 3781 02b4 11       		.uleb128 0x11
 3782 02b5 01       		.uleb128 0x1
 3783 02b6 12       		.uleb128 0x12
 3784 02b7 01       		.uleb128 0x1
 3785 02b8 40       		.uleb128 0x40
 3786 02b9 06       		.uleb128 0x6
 3787 02ba 01       		.uleb128 0x1
 3788 02bb 13       		.uleb128 0x13
 3789 02bc 00       		.byte	0x0
 3790 02bd 00       		.byte	0x0
 3791 02be 35       		.uleb128 0x35
 3792 02bf 1D       		.uleb128 0x1d
 3793 02c0 01       		.byte	0x1
 3794 02c1 31       		.uleb128 0x31
 3795 02c2 13       		.uleb128 0x13
 3796 02c3 52       		.uleb128 0x52
 3797 02c4 01       		.uleb128 0x1
 3798 02c5 55       		.uleb128 0x55
 3799 02c6 06       		.uleb128 0x6
 3800 02c7 58       		.uleb128 0x58
 3801 02c8 0B       		.uleb128 0xb
 3802 02c9 59       		.uleb128 0x59
 3803 02ca 05       		.uleb128 0x5
 3804 02cb 01       		.uleb128 0x1
 3805 02cc 13       		.uleb128 0x13
 3806 02cd 00       		.byte	0x0
 3807 02ce 00       		.byte	0x0
 3808 02cf 36       		.uleb128 0x36
 3809 02d0 34       		.uleb128 0x34
 3810 02d1 00       		.byte	0x0
 3811 02d2 03       		.uleb128 0x3
 3812 02d3 0E       		.uleb128 0xe
 3813 02d4 3A       		.uleb128 0x3a
 3814 02d5 0B       		.uleb128 0xb
 3815 02d6 3B       		.uleb128 0x3b
 3816 02d7 0B       		.uleb128 0xb
 3817 02d8 49       		.uleb128 0x49
 3818 02d9 13       		.uleb128 0x13
 3819 02da 3F       		.uleb128 0x3f
 3820 02db 0C       		.uleb128 0xc
 3821 02dc 3C       		.uleb128 0x3c
 3822 02dd 0C       		.uleb128 0xc
 3823 02de 00       		.byte	0x0
 3824 02df 00       		.byte	0x0
 3825 02e0 00       		.byte	0x0
 3826              		.section	.debug_pubnames,"",%progbits
 3827 0000 EF000000 		.4byte	0xef
 3828 0004 0200     		.2byte	0x2
 3829 0006 00000000 		.4byte	.Ldebug_info0
 3830 000a A40B0000 		.4byte	0xba4
ARM GAS  C:\Users\z80\AppData\Local\Temp\ccM1QJXX.s 			page 69


 3831 000e 01060000 		.4byte	0x601
 3832 0012 5F746872 		.ascii	"_thread_init\000"
 3832      6561645F 
 3832      696E6974 
 3832      00
 3833 001f 25060000 		.4byte	0x625
 3834 0023 5F746872 		.ascii	"_thread_memfill\000"
 3834      6561645F 
 3834      6D656D66 
 3834      696C6C00 
 3835 0033 51060000 		.4byte	0x651
 3836 0037 63685468 		.ascii	"chThdCreateI\000"
 3836      64437265 
 3836      61746549 
 3836      00
 3837 0044 E4060000 		.4byte	0x6e4
 3838 0048 63685468 		.ascii	"chThdCreateStatic\000"
 3838      64437265 
 3838      61746553 
 3838      74617469 
 3838      6300
 3839 005a E7070000 		.4byte	0x7e7
 3840 005e 63685468 		.ascii	"chThdSetPriority\000"
 3840      64536574 
 3840      5072696F 
 3840      72697479 
 3840      00
 3841 006f 59080000 		.4byte	0x859
 3842 0073 63685468 		.ascii	"chThdResume\000"
 3842      64526573 
 3842      756D6500 
 3843 007f B7080000 		.4byte	0x8b7
 3844 0083 63685468 		.ascii	"chThdTerminate\000"
 3844      64546572 
 3844      6D696E61 
 3844      746500
 3845 0092 15090000 		.4byte	0x915
 3846 0096 63685468 		.ascii	"chThdSleep\000"
 3846      64536C65 
 3846      657000
 3847 00a1 78090000 		.4byte	0x978
 3848 00a5 63685468 		.ascii	"chThdSleepUntil\000"
 3848      64536C65 
 3848      6570556E 
 3848      74696C00 
 3849 00b5 D7090000 		.4byte	0x9d7
 3850 00b9 63685468 		.ascii	"chThdYield\000"
 3850      64596965 
 3850      6C6400
 3851 00c4 2A0A0000 		.4byte	0xa2a
 3852 00c8 63685468 		.ascii	"chThdExitS\000"
 3852      64457869 
 3852      745300
 3853 00d3 910A0000 		.4byte	0xa91
 3854 00d7 63685468 		.ascii	"chThdExit\000"
 3854      64457869 
 3854      7400
ARM GAS  C:\Users\z80\AppData\Local\Temp\ccM1QJXX.s 			page 70


 3855 00e1 D20A0000 		.4byte	0xad2
 3856 00e5 63685468 		.ascii	"chThdWait\000"
 3856      64576169 
 3856      7400
 3857 00ef 00000000 		.4byte	0x0
 3858              		.section	.debug_pubtypes,"",%progbits
 3859 0000 80010000 		.4byte	0x180
 3860 0004 0200     		.2byte	0x2
 3861 0006 00000000 		.4byte	.Ldebug_info0
 3862 000a A40B0000 		.4byte	0xba4
 3863 000e 30000000 		.4byte	0x30
 3864 0012 73697A65 		.ascii	"size_t\000"
 3864      5F7400
 3865 0019 49000000 		.4byte	0x49
 3866 001d 75696E74 		.ascii	"uint8_t\000"
 3866      385F7400 
 3867 0025 69000000 		.4byte	0x69
 3868 0029 696E7433 		.ascii	"int32_t\000"
 3868      325F7400 
 3869 0031 7B000000 		.4byte	0x7b
 3870 0035 75696E74 		.ascii	"uint32_t\000"
 3870      33325F74 
 3870      00
 3871 003e 94000000 		.4byte	0x94
 3872 0042 75696E74 		.ascii	"uint64_t\000"
 3872      36345F74 
 3872      00
 3873 004b A6000000 		.4byte	0xa6
 3874 004f 746D6F64 		.ascii	"tmode_t\000"
 3874      655F7400 
 3875 0057 B1000000 		.4byte	0xb1
 3876 005b 74737461 		.ascii	"tstate_t\000"
 3876      74655F74 
 3876      00
 3877 0064 BC000000 		.4byte	0xbc
 3878 0068 74726566 		.ascii	"trefs_t\000"
 3878      735F7400 
 3879 0070 C7000000 		.4byte	0xc7
 3880 0074 74707269 		.ascii	"tprio_t\000"
 3880      6F5F7400 
 3881 007c D2000000 		.4byte	0xd2
 3882 0080 6D73675F 		.ascii	"msg_t\000"
 3882      7400
 3883 0086 DD000000 		.4byte	0xdd
 3884 008a 6576656E 		.ascii	"eventmask_t\000"
 3884      746D6173 
 3884      6B5F7400 
 3885 0096 E8000000 		.4byte	0xe8
 3886 009a 73797374 		.ascii	"systime_t\000"
 3886      696D655F 
 3886      7400
 3887 00a4 F3000000 		.4byte	0xf3
 3888 00a8 636E745F 		.ascii	"cnt_t\000"
 3888      7400
 3889 00ae FE000000 		.4byte	0xfe
 3890 00b2 54687265 		.ascii	"Thread\000"
 3890      616400
ARM GAS  C:\Users\z80\AppData\Local\Temp\ccM1QJXX.s 			page 71


 3891 00b9 59020000 		.4byte	0x259
 3892 00bd 54687265 		.ascii	"ThreadsQueue\000"
 3892      61647351 
 3892      75657565 
 3892      00
 3893 00ca 7B020000 		.4byte	0x27b
 3894 00ce 54687265 		.ascii	"ThreadsList\000"
 3894      6164734C 
 3894      69737400 
 3895 00da 86020000 		.4byte	0x286
 3896 00de 72656761 		.ascii	"regarm_t\000"
 3896      726D5F74 
 3896      00
 3897 00e7 93020000 		.4byte	0x293
 3898 00eb 73746B61 		.ascii	"stkalign_t\000"
 3898      6C69676E 
 3898      5F7400
 3899 00f6 9E020000 		.4byte	0x29e
 3900 00fa 696E7463 		.ascii	"intctx\000"
 3900      747800
 3901 0101 2B030000 		.4byte	0x32b
 3902 0105 636F6E74 		.ascii	"context\000"
 3902      65787400 
 3903 010d 51030000 		.4byte	0x351
 3904 0111 76746675 		.ascii	"vtfunc_t\000"
 3904      6E635F74 
 3904      00
 3905 011a 6E030000 		.4byte	0x36e
 3906 011e 56697274 		.ascii	"VirtualTimer\000"
 3906      75616C54 
 3906      696D6572 
 3906      00
 3907 012b 79030000 		.4byte	0x379
 3908 012f 56697274 		.ascii	"VirtualTimer\000"
 3908      75616C54 
 3908      696D6572 
 3908      00
 3909 013c 18040000 		.4byte	0x418
 3910 0140 56544C69 		.ascii	"VTList\000"
 3910      737400
 3911 0147 8E040000 		.4byte	0x48e
 3912 014b 52656164 		.ascii	"ReadyList\000"
 3912      794C6973 
 3912      7400
 3913 0155 99040000 		.4byte	0x499
 3914 0159 4D757465 		.ascii	"Mutex\000"
 3914      7800
 3915 015f D6040000 		.4byte	0x4d6
 3916 0163 4D757465 		.ascii	"Mutex\000"
 3916      7800
 3917 0169 09010000 		.4byte	0x109
 3918 016d 54687265 		.ascii	"Thread\000"
 3918      616400
 3919 0174 34050000 		.4byte	0x534
 3920 0178 7466756E 		.ascii	"tfunc_t\000"
 3920      635F7400 
 3921 0180 00000000 		.4byte	0x0
ARM GAS  C:\Users\z80\AppData\Local\Temp\ccM1QJXX.s 			page 72


 3922              		.section	.debug_aranges,"",%progbits
 3923 0000 7C000000 		.4byte	0x7c
 3924 0004 0200     		.2byte	0x2
 3925 0006 00000000 		.4byte	.Ldebug_info0
 3926 000a 04       		.byte	0x4
 3927 000b 00       		.byte	0x0
 3928 000c 0000     		.2byte	0x0
 3929 000e 0000     		.2byte	0x0
 3930 0010 00000000 		.4byte	.LFB7
 3931 0014 54000000 		.4byte	.LFE7-.LFB7
 3932 0018 00000000 		.4byte	.LFB8
 3933 001c 0E000000 		.4byte	.LFE8-.LFB8
 3934 0020 00000000 		.4byte	.LFB9
 3935 0024 98000000 		.4byte	.LFE9-.LFB9
 3936 0028 00000000 		.4byte	.LFB10
 3937 002c 62000000 		.4byte	.LFE10-.LFB10
 3938 0030 00000000 		.4byte	.LFB11
 3939 0034 48000000 		.4byte	.LFE11-.LFB11
 3940 0038 00000000 		.4byte	.LFB12
 3941 003c 38000000 		.4byte	.LFE12-.LFB12
 3942 0040 00000000 		.4byte	.LFB13
 3943 0044 26000000 		.4byte	.LFE13-.LFB13
 3944 0048 00000000 		.4byte	.LFB14
 3945 004c 30000000 		.4byte	.LFE14-.LFB14
 3946 0050 00000000 		.4byte	.LFB15
 3947 0054 2C000000 		.4byte	.LFE15-.LFB15
 3948 0058 00000000 		.4byte	.LFB16
 3949 005c 30000000 		.4byte	.LFE16-.LFB16
 3950 0060 00000000 		.4byte	.LFB18
 3951 0064 50000000 		.4byte	.LFE18-.LFB18
 3952 0068 00000000 		.4byte	.LFB17
 3953 006c 16000000 		.4byte	.LFE17-.LFB17
 3954 0070 00000000 		.4byte	.LFB19
 3955 0074 74000000 		.4byte	.LFE19-.LFB19
 3956 0078 00000000 		.4byte	0x0
 3957 007c 00000000 		.4byte	0x0
 3958              		.section	.debug_ranges,"",%progbits
 3959              	.Ldebug_ranges0:
 3960 0000 02000000 		.4byte	.LBB26
 3961 0004 04000000 		.4byte	.LBE26
 3962 0008 06000000 		.4byte	.LBB27
 3963 000c 0A000000 		.4byte	.LBE27
 3964 0010 00000000 		.4byte	0x0
 3965 0014 00000000 		.4byte	0x0
 3966 0018 02000000 		.4byte	.LBB29
 3967 001c 04000000 		.4byte	.LBE29
 3968 0020 06000000 		.4byte	.LBB30
 3969 0024 0A000000 		.4byte	.LBE30
 3970 0028 00000000 		.4byte	0x0
 3971 002c 00000000 		.4byte	0x0
 3972 0030 02000000 		.4byte	.LBB34
 3973 0034 04000000 		.4byte	.LBE34
 3974 0038 06000000 		.4byte	.LBB35
 3975 003c 0A000000 		.4byte	.LBE35
 3976 0040 00000000 		.4byte	0x0
 3977 0044 00000000 		.4byte	0x0
 3978 0048 02000000 		.4byte	.LBB41
ARM GAS  C:\Users\z80\AppData\Local\Temp\ccM1QJXX.s 			page 73


 3979 004c 04000000 		.4byte	.LBE41
 3980 0050 06000000 		.4byte	.LBB42
 3981 0054 0A000000 		.4byte	.LBE42
 3982 0058 00000000 		.4byte	0x0
 3983 005c 00000000 		.4byte	0x0
 3984 0060 2A000000 		.4byte	.LBB44
 3985 0064 2C000000 		.4byte	.LBE44
 3986 0068 2E000000 		.4byte	.LBB47
 3987 006c 32000000 		.4byte	.LBE47
 3988 0070 00000000 		.4byte	0x0
 3989 0074 00000000 		.4byte	0x0
 3990 0078 00000000 		.4byte	.LFB7
 3991 007c 54000000 		.4byte	.LFE7
 3992 0080 00000000 		.4byte	.LFB8
 3993 0084 0E000000 		.4byte	.LFE8
 3994 0088 00000000 		.4byte	.LFB9
 3995 008c 98000000 		.4byte	.LFE9
 3996 0090 00000000 		.4byte	.LFB10
 3997 0094 62000000 		.4byte	.LFE10
 3998 0098 00000000 		.4byte	.LFB11
 3999 009c 48000000 		.4byte	.LFE11
 4000 00a0 00000000 		.4byte	.LFB12
 4001 00a4 38000000 		.4byte	.LFE12
 4002 00a8 00000000 		.4byte	.LFB13
 4003 00ac 26000000 		.4byte	.LFE13
 4004 00b0 00000000 		.4byte	.LFB14
 4005 00b4 30000000 		.4byte	.LFE14
 4006 00b8 00000000 		.4byte	.LFB15
 4007 00bc 2C000000 		.4byte	.LFE15
 4008 00c0 00000000 		.4byte	.LFB16
 4009 00c4 30000000 		.4byte	.LFE16
 4010 00c8 00000000 		.4byte	.LFB18
 4011 00cc 50000000 		.4byte	.LFE18
 4012 00d0 00000000 		.4byte	.LFB17
 4013 00d4 16000000 		.4byte	.LFE17
 4014 00d8 00000000 		.4byte	.LFB19
 4015 00dc 74000000 		.4byte	.LFE19
 4016 00e0 00000000 		.4byte	0x0
 4017 00e4 00000000 		.4byte	0x0
 4018              		.section	.debug_str,"MS",%progbits,1
 4019              	.LASF74:
 4020 0000 7466756E 		.ascii	"tfunc_t\000"
 4020      635F7400 
 4021              	.LASF37:
 4022 0008 705F6D73 		.ascii	"p_msg\000"
 4022      6700
 4023              	.LASF2:
 4024 000e 73697A65 		.ascii	"size_t\000"
 4024      5F7400
 4025              	.LASF75:
 4026 0015 7072696F 		.ascii	"prio\000"
 4026      00
 4027              	.LASF69:
 4028 001a 7264796D 		.ascii	"rdymsg\000"
 4028      736700
 4029              	.LASF12:
 4030 0021 75696E74 		.ascii	"uint64_t\000"
ARM GAS  C:\Users\z80\AppData\Local\Temp\ccM1QJXX.s 			page 74


 4030      36345F74 
 4030      00
 4031              	.LASF93:
 4032 002a 76746C69 		.ascii	"vtlist\000"
 4032      737400
 4033              	.LASF90:
 4034 0031 63685468 		.ascii	"chThdExitS\000"
 4034      64457869 
 4034      745300
 4035              	.LASF13:
 4036 003c 6C6F6E67 		.ascii	"long long unsigned int\000"
 4036      206C6F6E 
 4036      6720756E 
 4036      7369676E 
 4036      65642069 
 4037              	.LASF70:
 4038 0053 65786974 		.ascii	"exitcode\000"
 4038      636F6465 
 4038      00
 4039              	.LASF25:
 4040 005c 705F7072 		.ascii	"p_prio\000"
 4040      696F00
 4041              	.LASF11:
 4042 0063 6C6F6E67 		.ascii	"long long int\000"
 4042      206C6F6E 
 4042      6720696E 
 4042      7400
 4043              	.LASF1:
 4044 0071 7369676E 		.ascii	"signed char\000"
 4044      65642063 
 4044      68617200 
 4045              	.LASF91:
 4046 007d 63685468 		.ascii	"chThdExit\000"
 4046      64457869 
 4046      7400
 4047              	.LASF41:
 4048 0087 705F6D70 		.ascii	"p_mpool\000"
 4048      6F6F6C00 
 4049              	.LASF66:
 4050 008f 6D5F7175 		.ascii	"m_queue\000"
 4050      65756500 
 4051              	.LASF79:
 4052 0097 63685468 		.ascii	"chThdCreateI\000"
 4052      64437265 
 4052      61746549 
 4052      00
 4053              	.LASF8:
 4054 00a4 6C6F6E67 		.ascii	"long int\000"
 4054      20696E74 
 4054      00
 4055              	.LASF15:
 4056 00ad 74737461 		.ascii	"tstate_t\000"
 4056      74655F74 
 4056      00
 4057              	.LASF27:
 4058 00b6 705F6E65 		.ascii	"p_newer\000"
 4058      77657200 
ARM GAS  C:\Users\z80\AppData\Local\Temp\ccM1QJXX.s 			page 75


 4059              	.LASF100:
 4060 00be 6C697374 		.ascii	"list_remove\000"
 4060      5F72656D 
 4060      6F766500 
 4061              	.LASF60:
 4062 00ca 725F6E65 		.ascii	"r_newer\000"
 4062      77657200 
 4063              	.LASF44:
 4064 00d2 72656761 		.ascii	"regarm_t\000"
 4064      726D5F74 
 4064      00
 4065              	.LASF51:
 4066 00db 76745F70 		.ascii	"vt_prev\000"
 4066      72657600 
 4067              	.LASF81:
 4068 00e3 63685468 		.ascii	"chThdSetPriority\000"
 4068      64536574 
 4068      5072696F 
 4068      72697479 
 4068      00
 4069              	.LASF21:
 4070 00f4 636E745F 		.ascii	"cnt_t\000"
 4070      7400
 4071              	.LASF30:
 4072 00fa 705F7374 		.ascii	"p_stklimit\000"
 4072      6B6C696D 
 4072      697400
 4073              	.LASF0:
 4074 0105 756E7369 		.ascii	"unsigned int\000"
 4074      676E6564 
 4074      20696E74 
 4074      00
 4075              	.LASF50:
 4076 0112 76745F6E 		.ascii	"vt_next\000"
 4076      65787400 
 4077              	.LASF10:
 4078 011a 6C6F6E67 		.ascii	"long unsigned int\000"
 4078      20756E73 
 4078      69676E65 
 4078      6420696E 
 4078      7400
 4079              	.LASF47:
 4080 012c 636F6E74 		.ascii	"context\000"
 4080      65787400 
 4081              	.LASF78:
 4082 0134 73697A65 		.ascii	"size\000"
 4082      00
 4083              	.LASF6:
 4084 0139 73686F72 		.ascii	"short unsigned int\000"
 4084      7420756E 
 4084      7369676E 
 4084      65642069 
 4084      6E7400
 4085              	.LASF18:
 4086 014c 6D73675F 		.ascii	"msg_t\000"
 4086      7400
 4087              	.LASF82:
ARM GAS  C:\Users\z80\AppData\Local\Temp\ccM1QJXX.s 			page 76


 4088 0152 6E657770 		.ascii	"newprio\000"
 4088      72696F00 
 4089              	.LASF14:
 4090 015a 746D6F64 		.ascii	"tmode_t\000"
 4090      655F7400 
 4091              	.LASF85:
 4092 0162 63685468 		.ascii	"chThdTerminate\000"
 4092      64546572 
 4092      6D696E61 
 4092      746500
 4093              	.LASF43:
 4094 0171 54687265 		.ascii	"ThreadsList\000"
 4094      6164734C 
 4094      69737400 
 4095              	.LASF19:
 4096 017d 6576656E 		.ascii	"eventmask_t\000"
 4096      746D6173 
 4096      6B5F7400 
 4097              	.LASF65:
 4098 0189 4D757465 		.ascii	"Mutex\000"
 4098      7800
 4099              	.LASF83:
 4100 018f 6F6C6470 		.ascii	"oldprio\000"
 4100      72696F00 
 4101              	.LASF45:
 4102 0197 73746B61 		.ascii	"stkalign_t\000"
 4102      6C69676E 
 4102      5F7400
 4103              	.LASF80:
 4104 01a2 63685468 		.ascii	"chThdCreateStatic\000"
 4104      64437265 
 4104      61746553 
 4104      74617469 
 4104      6300
 4105              	.LASF52:
 4106 01b4 76745F74 		.ascii	"vt_time\000"
 4106      696D6500 
 4107              	.LASF53:
 4108 01bc 76745F66 		.ascii	"vt_func\000"
 4108      756E6300 
 4109              	.LASF84:
 4110 01c4 63685468 		.ascii	"chThdResume\000"
 4110      64526573 
 4110      756D6500 
 4111              	.LASF76:
 4112 01d0 73746172 		.ascii	"startp\000"
 4112      747000
 4113              	.LASF28:
 4114 01d7 705F6F6C 		.ascii	"p_older\000"
 4114      64657200 
 4115              	.LASF59:
 4116 01df 725F6374 		.ascii	"r_ctx\000"
 4116      7800
 4117              	.LASF42:
 4118 01e5 54687265 		.ascii	"ThreadsQueue\000"
 4118      61647351 
 4118      75657565 
ARM GAS  C:\Users\z80\AppData\Local\Temp\ccM1QJXX.s 			page 77


 4118      00
 4119              	.LASF97:
 4120 01f2 433A5C70 		.ascii	"C:\\projects\\voltamper.git\\firmware\\voltamp\000"
 4120      726F6A65 
 4120      6374735C 
 4120      766F6C74 
 4120      616D7065 
 4121              	.LASF87:
 4122 021d 74696D65 		.ascii	"time\000"
 4122      00
 4123              	.LASF101:
 4124 0222 6C697374 		.ascii	"list_insert\000"
 4124      5F696E73 
 4124      65727400 
 4125              	.LASF63:
 4126 022e 725F6375 		.ascii	"r_current\000"
 4126      7272656E 
 4126      7400
 4127              	.LASF61:
 4128 0238 725F6F6C 		.ascii	"r_older\000"
 4128      64657200 
 4129              	.LASF88:
 4130 0240 63685468 		.ascii	"chThdSleepUntil\000"
 4130      64536C65 
 4130      6570556E 
 4130      74696C00 
 4131              	.LASF16:
 4132 0250 74726566 		.ascii	"trefs_t\000"
 4132      735F7400 
 4133              	.LASF24:
 4134 0258 705F7072 		.ascii	"p_prev\000"
 4134      657600
 4135              	.LASF17:
 4136 025f 74707269 		.ascii	"tprio_t\000"
 4136      6F5F7400 
 4137              	.LASF7:
 4138 0267 696E7433 		.ascii	"int32_t\000"
 4138      325F7400 
 4139              	.LASF4:
 4140 026f 756E7369 		.ascii	"unsigned char\000"
 4140      676E6564 
 4140      20636861 
 4140      7200
 4141              	.LASF39:
 4142 027d 705F6D74 		.ascii	"p_mtxlist\000"
 4142      786C6973 
 4142      7400
 4143              	.LASF5:
 4144 0287 73686F72 		.ascii	"short int\000"
 4144      7420696E 
 4144      7400
 4145              	.LASF31:
 4146 0291 705F7374 		.ascii	"p_state\000"
 4146      61746500 
 4147              	.LASF58:
 4148 0299 725F7072 		.ascii	"r_prio\000"
 4148      696F00
ARM GAS  C:\Users\z80\AppData\Local\Temp\ccM1QJXX.s 			page 78


 4149              	.LASF72:
 4150 02a0 65776D61 		.ascii	"ewmask\000"
 4150      736B00
 4151              	.LASF23:
 4152 02a7 705F6E65 		.ascii	"p_next\000"
 4152      787400
 4153              	.LASF32:
 4154 02ae 705F666C 		.ascii	"p_flags\000"
 4154      61677300 
 4155              	.LASF99:
 4156 02b6 5F746872 		.ascii	"_thread_memfill\000"
 4156      6561645F 
 4156      6D656D66 
 4156      696C6C00 
 4157              	.LASF22:
 4158 02c6 54687265 		.ascii	"Thread\000"
 4158      616400
 4159              	.LASF38:
 4160 02cd 705F6570 		.ascii	"p_epending\000"
 4160      656E6469 
 4160      6E6700
 4161              	.LASF9:
 4162 02d8 75696E74 		.ascii	"uint32_t\000"
 4162      33325F74 
 4162      00
 4163              	.LASF98:
 4164 02e1 5F746872 		.ascii	"_thread_init\000"
 4164      6561645F 
 4164      696E6974 
 4164      00
 4165              	.LASF57:
 4166 02ee 725F7175 		.ascii	"r_queue\000"
 4166      65756500 
 4167              	.LASF49:
 4168 02f6 56697274 		.ascii	"VirtualTimer\000"
 4168      75616C54 
 4168      696D6572 
 4168      00
 4169              	.LASF73:
 4170 0303 63686172 		.ascii	"char\000"
 4170      00
 4171              	.LASF68:
 4172 0308 6D5F6E65 		.ascii	"m_next\000"
 4172      787400
 4173              	.LASF20:
 4174 030f 73797374 		.ascii	"systime_t\000"
 4174      696D655F 
 4174      7400
 4175              	.LASF40:
 4176 0319 705F7265 		.ascii	"p_realprio\000"
 4176      616C7072 
 4176      696F00
 4177              	.LASF48:
 4178 0324 76746675 		.ascii	"vtfunc_t\000"
 4178      6E635F74 
 4178      00
 4179              	.LASF89:
ARM GAS  C:\Users\z80\AppData\Local\Temp\ccM1QJXX.s 			page 79


 4180 032d 63685468 		.ascii	"chThdYield\000"
 4180      64596965 
 4180      6C6400
 4181              	.LASF34:
 4182 0338 705F7469 		.ascii	"p_time\000"
 4182      6D6500
 4183              	.LASF46:
 4184 033f 696E7463 		.ascii	"intctx\000"
 4184      747800
 4185              	.LASF36:
 4186 0346 705F6D73 		.ascii	"p_msgqueue\000"
 4186      67717565 
 4186      756500
 4187              	.LASF77:
 4188 0351 656E6470 		.ascii	"endp\000"
 4188      00
 4189              	.LASF92:
 4190 0356 63685468 		.ascii	"chThdWait\000"
 4190      64576169 
 4190      7400
 4191              	.LASF54:
 4192 0360 76745F70 		.ascii	"vt_par\000"
 4192      617200
 4193              	.LASF86:
 4194 0367 63685468 		.ascii	"chThdSleep\000"
 4194      64536C65 
 4194      657000
 4195              	.LASF33:
 4196 0372 705F7265 		.ascii	"p_refs\000"
 4196      667300
 4197              	.LASF64:
 4198 0379 52656164 		.ascii	"ReadyList\000"
 4198      794C6973 
 4198      7400
 4199              	.LASF94:
 4200 0383 726C6973 		.ascii	"rlist\000"
 4200      7400
 4201              	.LASF3:
 4202 0389 75696E74 		.ascii	"uint8_t\000"
 4202      385F7400 
 4203              	.LASF96:
 4204 0391 2E2E2F63 		.ascii	"../chibios_2.4.x/os/kernel/src/chthreads.c\000"
 4204      68696269 
 4204      6F735F32 
 4204      2E342E78 
 4204      2F6F732F 
 4205              	.LASF95:
 4206 03bc 474E5520 		.ascii	"GNU C 4.5.0\000"
 4206      4320342E 
 4206      352E3000 
 4207              	.LASF71:
 4208 03c8 77746F62 		.ascii	"wtobjp\000"
 4208      6A7000
 4209              	.LASF29:
 4210 03cf 705F6E61 		.ascii	"p_name\000"
 4210      6D6500
 4211              	.LASF55:
ARM GAS  C:\Users\z80\AppData\Local\Temp\ccM1QJXX.s 			page 80


 4212 03d6 76745F73 		.ascii	"vt_systime\000"
 4212      79737469 
 4212      6D6500
 4213              	.LASF56:
 4214 03e1 56544C69 		.ascii	"VTList\000"
 4214      737400
 4215              	.LASF62:
 4216 03e8 725F7072 		.ascii	"r_preempt\000"
 4216      65656D70 
 4216      7400
 4217              	.LASF67:
 4218 03f2 6D5F6F77 		.ascii	"m_owner\000"
 4218      6E657200 
 4219              	.LASF26:
 4220 03fa 705F6374 		.ascii	"p_ctx\000"
 4220      7800
 4221              	.LASF35:
 4222 0400 705F7761 		.ascii	"p_waiting\000"
 4222      6974696E 
 4222      6700
 4223              		.ident	"GCC: (GNU) 4.5.0"
ARM GAS  C:\Users\z80\AppData\Local\Temp\ccM1QJXX.s 			page 81


DEFINED SYMBOLS
                            *ABS*:00000000 chthreads.c
C:\Users\z80\AppData\Local\Temp\ccM1QJXX.s:24     .text._thread_init:00000000 $t
C:\Users\z80\AppData\Local\Temp\ccM1QJXX.s:30     .text._thread_init:00000000 _thread_init
C:\Users\z80\AppData\Local\Temp\ccM1QJXX.s:104    .text._thread_memfill:00000000 $t
C:\Users\z80\AppData\Local\Temp\ccM1QJXX.s:110    .text._thread_memfill:00000000 _thread_memfill
C:\Users\z80\AppData\Local\Temp\ccM1QJXX.s:135    .text.chThdCreateI:00000000 $t
C:\Users\z80\AppData\Local\Temp\ccM1QJXX.s:141    .text.chThdCreateI:00000000 chThdCreateI
C:\Users\z80\AppData\Local\Temp\ccM1QJXX.s:257    .text.chThdCreateI:0000008c $d
C:\Users\z80\AppData\Local\Temp\ccM1QJXX.s:264    .text.chThdCreateStatic:00000000 $t
C:\Users\z80\AppData\Local\Temp\ccM1QJXX.s:270    .text.chThdCreateStatic:00000000 chThdCreateStatic
C:\Users\z80\AppData\Local\Temp\ccM1QJXX.s:376    .text.chThdSetPriority:00000000 $t
C:\Users\z80\AppData\Local\Temp\ccM1QJXX.s:382    .text.chThdSetPriority:00000000 chThdSetPriority
C:\Users\z80\AppData\Local\Temp\ccM1QJXX.s:460    .text.chThdSetPriority:00000040 $d
C:\Users\z80\AppData\Local\Temp\ccM1QJXX.s:466    .text.chThdResume:00000000 $t
C:\Users\z80\AppData\Local\Temp\ccM1QJXX.s:472    .text.chThdResume:00000000 chThdResume
C:\Users\z80\AppData\Local\Temp\ccM1QJXX.s:530    .text.chThdResume:00000034 $d
C:\Users\z80\AppData\Local\Temp\ccM1QJXX.s:535    .text.chThdTerminate:00000000 $t
C:\Users\z80\AppData\Local\Temp\ccM1QJXX.s:541    .text.chThdTerminate:00000000 chThdTerminate
C:\Users\z80\AppData\Local\Temp\ccM1QJXX.s:591    .text.chThdSleep:00000000 $t
C:\Users\z80\AppData\Local\Temp\ccM1QJXX.s:597    .text.chThdSleep:00000000 chThdSleep
C:\Users\z80\AppData\Local\Temp\ccM1QJXX.s:650    .text.chThdSleep:0000002c $d
C:\Users\z80\AppData\Local\Temp\ccM1QJXX.s:655    .text.chThdSleepUntil:00000000 $t
C:\Users\z80\AppData\Local\Temp\ccM1QJXX.s:661    .text.chThdSleepUntil:00000000 chThdSleepUntil
C:\Users\z80\AppData\Local\Temp\ccM1QJXX.s:718    .text.chThdSleepUntil:00000028 $d
C:\Users\z80\AppData\Local\Temp\ccM1QJXX.s:723    .text.chThdYield:00000000 $t
C:\Users\z80\AppData\Local\Temp\ccM1QJXX.s:729    .text.chThdYield:00000000 chThdYield
C:\Users\z80\AppData\Local\Temp\ccM1QJXX.s:779    .text.chThdYield:0000002c $d
C:\Users\z80\AppData\Local\Temp\ccM1QJXX.s:784    .text.chThdExitS:00000000 $t
C:\Users\z80\AppData\Local\Temp\ccM1QJXX.s:790    .text.chThdExitS:00000000 chThdExitS
C:\Users\z80\AppData\Local\Temp\ccM1QJXX.s:862    .text.chThdExitS:00000048 $d
C:\Users\z80\AppData\Local\Temp\ccM1QJXX.s:868    .text.chThdExit:00000000 $t
C:\Users\z80\AppData\Local\Temp\ccM1QJXX.s:874    .text.chThdExit:00000000 chThdExit
C:\Users\z80\AppData\Local\Temp\ccM1QJXX.s:912    .text.chThdWait:00000000 $t
C:\Users\z80\AppData\Local\Temp\ccM1QJXX.s:918    .text.chThdWait:00000000 chThdWait
C:\Users\z80\AppData\Local\Temp\ccM1QJXX.s:1031   .text.chThdWait:00000064 $d
C:\Users\z80\AppData\Local\Temp\ccM1QJXX.s:1039   .rodata.str1.4:00000000 $d
                     .debug_frame:00000010 $d
C:\Users\z80\AppData\Local\Temp\ccM1QJXX.s:263    .text.chThdCreateI:00000098 $t
C:\Users\z80\AppData\Local\Temp\ccM1QJXX.s:465    .text.chThdSetPriority:00000048 $t
C:\Users\z80\AppData\Local\Temp\ccM1QJXX.s:534    .text.chThdResume:00000038 $t
C:\Users\z80\AppData\Local\Temp\ccM1QJXX.s:722    .text.chThdSleepUntil:0000002c $t
C:\Users\z80\AppData\Local\Temp\ccM1QJXX.s:1038   .text.chThdWait:00000074 $t

UNDEFINED SYMBOLS
rlist
chDbgCheckClassI
chDbgPanic
_port_thread_start
dbg_check_lock
chSchWakeupS
dbg_check_unlock
chSchRescheduleS
chSchGoSleepTimeoutS
vtlist
chSchDoReschedule
chSchReadyI
ARM GAS  C:\Users\z80\AppData\Local\Temp\ccM1QJXX.s 			page 82


chSchGoSleepS
chThdRelease
