ARM GAS  C:\Users\z80\AppData\Local\Temp\ccM1QJXX.s 			page 1


   1              		.syntax unified
   2              		.cpu cortex-m3
   3              		.fpu softvfp
   4              		.eabi_attribute 20, 1
   5              		.eabi_attribute 21, 1
   6              		.eabi_attribute 23, 3
   7              		.eabi_attribute 24, 1
   8              		.eabi_attribute 25, 1
   9              		.eabi_attribute 26, 1
  10              		.eabi_attribute 30, 2
  11              		.eabi_attribute 18, 4
  12              		.thumb
  13              		.file	"chthreads.c"
  20 0000 8B030000 		.text
  20      02008401 
  20      00000201 
  20      FB0E0D00 
  20      01010101 
  21              	.Ltext0:
  22              		.cfi_sections	.debug_frame
  23              		.section	.text._thread_init,"ax",%progbits
  24              		.align	2
  25              		.p2align 4,,15
  26              		.global	_thread_init
  27              		.thumb
  28              		.thumb_func
  29              		.type	_thread_init, %function
  30              	_thread_init:
  31              	.LFB7:
  32              		.file 1 "../chibios_2.4.x/os/kernel/src/chthreads.c"
  33              		.loc 1 76 0
  34              		.cfi_startproc
  35              		@ args = 0, pretend = 0, frame = 0
  36              		@ frame_needed = 0, uses_anonymous_args = 0
  37              		@ link register save eliminated.
  38              	.LVL0:
  39              		.loc 1 79 0
  40 0000 4FF0020C 		mov	ip, #2
  41              		.loc 1 80 0
  42 0004 0023     		movs	r3, #0
  43              		.loc 1 79 0
  44 0006 80F820C0 		strb	ip, [r0, #32]
  45              		.loc 1 96 0
  46 000a 40F20002 		movw	r2, #:lower16:rlist
  47              		.loc 1 92 0
  48 000e 4FF0010C 		mov	ip, #1
  49              		.loc 1 96 0
  50 0012 C0F20002 		movt	r2, #:upper16:rlist
  51              		.loc 1 80 0
  52 0016 80F82130 		strb	r3, [r0, #33]
  53              		.loc 1 92 0
ARM GAS  C:\Users\z80\AppData\Local\Temp\ccM1QJXX.s 			page 2


  54 001a 80F822C0 		strb	ip, [r0, #34]
  55              		.loc 1 96 0
  56 001e D2F814C0 		ldr	ip, [r2, #20]
  57              		.loc 1 76 0
  58 0022 70B4     		push	{r4, r5, r6}
  59              	.LCFI0:
  60              		.cfi_def_cfa_offset 12
  61              		.loc 1 102 0
  62 0024 00F13004 		add	r4, r0, #48
  63              		.cfi_offset 6, -4
  64              		.cfi_offset 5, -8
  65              		.cfi_offset 4, -12
  66              		.loc 1 99 0
  67 0028 00F12C06 		add	r6, r0, #44
  68              		.loc 1 105 0
  69 002c 00F14C05 		add	r5, r0, #76
  70              		.loc 1 96 0
  71 0030 0261     		str	r2, [r0, #16]
  72              		.loc 1 78 0
  73 0032 8160     		str	r1, [r0, #8]
  74              		.loc 1 96 0
  75 0034 C0F814C0 		str	ip, [r0, #20]
  76              		.loc 1 82 0
  77 0038 4164     		str	r1, [r0, #68]
  78              		.loc 1 96 0
  79 003a 5061     		str	r0, [r2, #20]
  80              		.loc 1 83 0
  81 003c 0364     		str	r3, [r0, #64]
  82              		.loc 1 86 0
  83 003e C363     		str	r3, [r0, #60]
  84              		.loc 1 89 0
  85 0040 4362     		str	r3, [r0, #36]
  86              		.loc 1 95 0
  87 0042 8361     		str	r3, [r0, #24]
  88              		.loc 1 96 0
  89 0044 CCF81000 		str	r0, [ip, #16]
  90              		.loc 1 99 0
  91 0048 C662     		str	r6, [r0, #44]
  92              		.loc 1 102 0
  93 004a 4463     		str	r4, [r0, #52]
  94 004c 0463     		str	r4, [r0, #48]
  95              		.loc 1 105 0
  96 004e C561     		str	r5, [r0, #28]
  97              		.loc 1 111 0
  98 0050 70BC     		pop	{r4, r5, r6}
  99 0052 7047     		bx	lr
 100              		.cfi_endproc
 101              	.LFE7:
 102              		.size	_thread_init, .-_thread_init
 103 0054 AFF30080 		.section	.text._thread_memfill,"ax",%progbits
 103      AFF30080 
 103      AFF30080 
 104              		.align	2
 105              		.p2align 4,,15
 106              		.global	_thread_memfill
 107              		.thumb
 108              		.thumb_func
ARM GAS  C:\Users\z80\AppData\Local\Temp\ccM1QJXX.s 			page 3


 109              		.type	_thread_memfill, %function
 110              	_thread_memfill:
 111              	.LFB8:
 112              		.loc 1 123 0
 113              		.cfi_startproc
 114              		@ args = 0, pretend = 0, frame = 0
 115              		@ frame_needed = 0, uses_anonymous_args = 0
 116              		@ link register save eliminated.
 117              	.LVL1:
 118              		.loc 1 125 0
 119 0000 8842     		cmp	r0, r1
 120 0002 03D2     		bcs	.L2
 121              	.L5:
 122              		.loc 1 126 0
 123 0004 00F8012B 		strb	r2, [r0], #1
 124              	.LVL2:
 125              		.loc 1 125 0
 126 0008 8142     		cmp	r1, r0
 127 000a FBD8     		bhi	.L5
 128              	.L2:
 129              		.loc 1 127 0
 130 000c 7047     		bx	lr
 131              		.cfi_endproc
 132              	.LFE8:
 133              		.size	_thread_memfill, .-_thread_memfill
 134 000e 00BF     		.section	.text.chThdCreateI,"ax",%progbits
 135              		.align	2
 136              		.p2align 4,,15
 137              		.global	chThdCreateI
 138              		.thumb
 139              		.thumb_func
 140              		.type	chThdCreateI, %function
 141              	chThdCreateI:
 142              	.LFB9:
 143              		.loc 1 155 0
 144              		.cfi_startproc
 145              		@ args = 4, pretend = 0, frame = 0
 146              		@ frame_needed = 0, uses_anonymous_args = 0
 147              	.LVL3:
 148 0000 F8B5     		push	{r3, r4, r5, r6, r7, lr}
 149              	.LCFI1:
 150              		.cfi_def_cfa_offset 24
 151              		.loc 1 155 0
 152 0002 0446     		mov	r4, r0
 153              		.cfi_offset 14, -4
 154              		.cfi_offset 7, -8
 155              		.cfi_offset 6, -12
 156              		.cfi_offset 5, -16
 157              		.cfi_offset 4, -20
 158              		.cfi_offset 3, -24
 159              	.LVL4:
 160 0004 0D46     		mov	r5, r1
 161 0006 1F46     		mov	r7, r3
 162 0008 1646     		mov	r6, r2
 163              		.loc 1 159 0
 164 000a FFF7FEFF 		bl	chDbgCheckClassI
 165              	.LVL5:
ARM GAS  C:\Users\z80\AppData\Local\Temp\ccM1QJXX.s 			page 4


 166              		.loc 1 161 0
 167 000e D4F10103 		rsbs	r3, r4, #1
 168 0012 38BF     		it	cc
 169 0014 0023     		movcc	r3, #0
 170 0016 AF2D     		cmp	r5, #175
 171 0018 98BF     		it	ls
 172 001a 43F00103 		orrls	r3, r3, #1
 173 001e 43B9     		cbnz	r3, .L9
 174              		.loc 1 161 0 is_stmt 0 discriminator 2
 175 0020 7F2E     		cmp	r6, #127
 176 0022 94BF     		ite	ls
 177 0024 0023     		movls	r3, #0
 178 0026 0123     		movhi	r3, #1
 179 0028 002F     		cmp	r7, #0
 180 002a 08BF     		it	eq
 181 002c 43F00103 		orreq	r3, r3, #1
 182 0030 13B1     		cbz	r3, .L10
 183              	.L9:
 184              		.loc 1 161 0 discriminator 1
 185 0032 1648     		ldr	r0, .L11
 186 0034 FFF7FEFF 		bl	chDbgPanic
 187              	.L10:
 188              		.loc 1 164 0 is_stmt 1
 189 0038 243D     		subs	r5, r5, #36
 190              	.LVL6:
 191 003a 0698     		ldr	r0, [sp, #24]
 192 003c 6119     		adds	r1, r4, r5
 193 003e E160     		str	r1, [r4, #12]
 194 0040 4860     		str	r0, [r1, #4]
 195 0042 1348     		ldr	r0, .L11+4
 196 0044 6751     		str	r7, [r4, r5]
 197 0046 0862     		str	r0, [r1, #32]
 198              	.LVL7:
 199              	.LBB16:
 200              	.LBB17:
 201              		.loc 1 79 0
 202 0048 0221     		movs	r1, #2
 203              		.loc 1 80 0
 204 004a 0023     		movs	r3, #0
 205              		.loc 1 96 0
 206 004c 114A     		ldr	r2, .L11+8
 207              		.loc 1 79 0
 208 004e 84F82010 		strb	r1, [r4, #32]
 209              		.loc 1 92 0
 210 0052 0121     		movs	r1, #1
 211 0054 84F82210 		strb	r1, [r4, #34]
 212              		.loc 1 80 0
 213 0058 84F82130 		strb	r3, [r4, #33]
 214              		.loc 1 96 0
 215 005c 5069     		ldr	r0, [r2, #20]
 216              		.loc 1 102 0
 217 005e 04F13001 		add	r1, r4, #48
 218              		.loc 1 99 0
 219 0062 04F12C05 		add	r5, r4, #44
 220              	.LVL8:
 221              		.loc 1 105 0
 222 0066 04F14C0C 		add	ip, r4, #76
ARM GAS  C:\Users\z80\AppData\Local\Temp\ccM1QJXX.s 			page 5


 223              		.loc 1 96 0
 224 006a 2261     		str	r2, [r4, #16]
 225 006c 6061     		str	r0, [r4, #20]
 226              		.loc 1 78 0
 227 006e A660     		str	r6, [r4, #8]
 228              		.loc 1 82 0
 229 0070 6664     		str	r6, [r4, #68]
 230              		.loc 1 96 0
 231 0072 5461     		str	r4, [r2, #20]
 232              		.loc 1 83 0
 233 0074 2364     		str	r3, [r4, #64]
 234              		.loc 1 96 0
 235 0076 0461     		str	r4, [r0, #16]
 236              		.loc 1 86 0
 237 0078 E363     		str	r3, [r4, #60]
 238              		.loc 1 89 0
 239 007a 6362     		str	r3, [r4, #36]
 240              		.loc 1 95 0
 241 007c A361     		str	r3, [r4, #24]
 242              		.loc 1 99 0
 243 007e E562     		str	r5, [r4, #44]
 244              		.loc 1 102 0
 245 0080 6163     		str	r1, [r4, #52]
 246 0082 2163     		str	r1, [r4, #48]
 247              		.loc 1 105 0
 248 0084 C4F81CC0 		str	ip, [r4, #28]
 249              	.LBE17:
 250              	.LBE16:
 251              		.loc 1 166 0
 252 0088 2046     		mov	r0, r4
 253 008a F8BD     		pop	{r3, r4, r5, r6, r7, pc}
 254              	.L12:
 255              		.align	2
 256              	.L11:
 257 008c 00000000 		.word	.LC0
 258 0090 00000000 		.word	_port_thread_start
 259 0094 00000000 		.word	rlist
 260              		.cfi_endproc
 261              	.LFE9:
 262              		.size	chThdCreateI, .-chThdCreateI
 263 0098 AFF30080 		.section	.text.chThdCreateStatic,"ax",%progbits
 263      AFF30080 
 264              		.align	2
 265              		.p2align 4,,15
 266              		.global	chThdCreateStatic
 267              		.thumb
 268              		.thumb_func
 269              		.type	chThdCreateStatic, %function
 270              	chThdCreateStatic:
 271              	.LFB10:
 272              		.loc 1 185 0
 273              		.cfi_startproc
 274              		@ args = 4, pretend = 0, frame = 0
 275              		@ frame_needed = 0, uses_anonymous_args = 0
 276              	.LVL9:
 277 0000 F0B5     		push	{r4, r5, r6, r7, lr}
 278              	.LCFI2:
ARM GAS  C:\Users\z80\AppData\Local\Temp\ccM1QJXX.s 			page 6


 279              		.cfi_def_cfa_offset 20
 280 0002 0D46     		mov	r5, r1
 281              		.cfi_offset 14, -4
 282              		.cfi_offset 7, -8
 283              		.cfi_offset 6, -12
 284              		.cfi_offset 5, -16
 285              		.cfi_offset 4, -20
 286 0004 1646     		mov	r6, r2
 287 0006 1F46     		mov	r7, r3
 288 0008 83B0     		sub	sp, sp, #12
 289              	.LCFI3:
 290              		.cfi_def_cfa_offset 32
 291              		.loc 1 185 0
 292 000a 0446     		mov	r4, r0
 293              		.loc 1 189 0
 294 000c 00F14C02 		add	r2, r0, #76
 295              	.LVL10:
 296              		.loc 1 184 0
 297 0010 0346     		mov	r3, r0
 298              	.LVL11:
 299              	.LBB18:
 300              	.LBB19:
 301              		.loc 1 126 0
 302 0012 FF21     		movs	r1, #255
 303              	.LVL12:
 304              	.L14:
 305 0014 03F8011B 		strb	r1, [r3], #1
 306              	.LVL13:
 307              		.loc 1 125 0
 308 0018 9342     		cmp	r3, r2
 309 001a FBD1     		bne	.L14
 310              	.LBE19:
 311              	.LBE18:
 312              		.loc 1 192 0
 313 001c 6319     		adds	r3, r4, r5
 314              	.LVL14:
 315              	.LBB20:
 316              	.LBB21:
 317              		.loc 1 125 0
 318 001e 9A42     		cmp	r2, r3
 319 0020 04D2     		bcs	.L15
 320              		.loc 1 126 0
 321 0022 5521     		movs	r1, #85
 322              	.LVL15:
 323              	.L17:
 324 0024 02F8011B 		strb	r1, [r2], #1
 325              	.LVL16:
 326              		.loc 1 125 0
 327 0028 9A42     		cmp	r2, r3
 328 002a FBD1     		bne	.L17
 329              	.L15:
 330              	.LBE21:
 331              	.LBE20:
 332              	.LBB22:
 333              		.loc 1 196 0
 334 002c 2023     		movs	r3, #32
 335              	.LVL17:
ARM GAS  C:\Users\z80\AppData\Local\Temp\ccM1QJXX.s 			page 7


 336              	@ 196 "../chibios_2.4.x/os/kernel/src/chthreads.c" 1
 337 002e 83F31188 		msr     BASEPRI, r3
 338              	@ 0 "" 2
 339              	.LVL18:
 340              		.thumb
 341              	.LBE22:
 342 0032 FFF7FEFF 		bl	dbg_check_lock
 343              	.LVL19:
 344              		.loc 1 197 0
 345 0036 DDF820C0 		ldr	ip, [sp, #32]
 346 003a 3B46     		mov	r3, r7
 347 003c 3246     		mov	r2, r6
 348 003e 2946     		mov	r1, r5
 349 0040 2046     		mov	r0, r4
 350 0042 CDF800C0 		str	ip, [sp, #0]
 351 0046 FFF7FEFF 		bl	chThdCreateI
 352 004a 0021     		movs	r1, #0
 353 004c 0446     		mov	r4, r0
 354              	.LVL20:
 355 004e FFF7FEFF 		bl	chSchWakeupS
 356              	.LVL21:
 357              		.loc 1 198 0
 358 0052 FFF7FEFF 		bl	dbg_check_unlock
 359              	.LBB23:
 360 0056 0023     		movs	r3, #0
 361              	.LVL22:
 362              	@ 198 "../chibios_2.4.x/os/kernel/src/chthreads.c" 1
 363 0058 83F31188 		msr     BASEPRI, r3
 364              	@ 0 "" 2
 365              	.LVL23:
 366              		.thumb
 367              	.LBE23:
 368              		.loc 1 200 0
 369 005c 2046     		mov	r0, r4
 370 005e 03B0     		add	sp, sp, #12
 371 0060 F0BD     		pop	{r4, r5, r6, r7, pc}
 372              		.cfi_endproc
 373              	.LFE10:
 374              		.size	chThdCreateStatic, .-chThdCreateStatic
 375 0062 00BFAFF3 		.section	.text.chThdSetPriority,"ax",%progbits
 375      0080AFF3 
 375      0080AFF3 
 375      0080
 376              		.align	2
 377              		.p2align 4,,15
 378              		.global	chThdSetPriority
 379              		.thumb
 380              		.thumb_func
 381              		.type	chThdSetPriority, %function
 382              	chThdSetPriority:
 383              	.LFB11:
 384              		.loc 1 214 0
 385              		.cfi_startproc
 386              		@ args = 0, pretend = 0, frame = 0
 387              		@ frame_needed = 0, uses_anonymous_args = 0
 388              	.LVL24:
 389              		.loc 1 217 0
ARM GAS  C:\Users\z80\AppData\Local\Temp\ccM1QJXX.s 			page 8


 390 0000 7F28     		cmp	r0, #127
 391              		.loc 1 214 0
 392 0002 38B5     		push	{r3, r4, r5, lr}
 393              	.LCFI4:
 394              		.cfi_def_cfa_offset 16
 395              		.loc 1 214 0
 396 0004 0446     		mov	r4, r0
 397              		.cfi_offset 14, -4
 398              		.cfi_offset 5, -8
 399              		.cfi_offset 4, -12
 400              		.cfi_offset 3, -16
 401              		.loc 1 217 0
 402 0006 17D8     		bhi	.L24
 403              	.LVL25:
 404              	.L21:
 405              	.LBB24:
 406              		.loc 1 219 0
 407 0008 2023     		movs	r3, #32
 408              	.LVL26:
 409              	@ 219 "../chibios_2.4.x/os/kernel/src/chthreads.c" 1
 410 000a 83F31188 		msr     BASEPRI, r3
 411              	@ 0 "" 2
 412              	.LVL27:
 413              		.thumb
 414              	.LBE24:
 415 000e FFF7FEFF 		bl	dbg_check_lock
 416              	.LVL28:
 417              		.loc 1 221 0
 418 0012 0B4B     		ldr	r3, .L25
 419 0014 DB69     		ldr	r3, [r3, #28]
 420 0016 5D6C     		ldr	r5, [r3, #68]
 421              	.LVL29:
 422              		.loc 1 222 0
 423 0018 9A68     		ldr	r2, [r3, #8]
 424 001a 9542     		cmp	r5, r2
 425 001c 01D0     		beq	.L22
 426              		.loc 1 222 0 is_stmt 0 discriminator 1
 427 001e 9442     		cmp	r4, r2
 428 0020 00D9     		bls	.L23
 429              	.L22:
 430              		.loc 1 223 0 is_stmt 1
 431 0022 9C60     		str	r4, [r3, #8]
 432              	.L23:
 433              		.loc 1 224 0
 434 0024 5C64     		str	r4, [r3, #68]
 435              		.loc 1 229 0
 436 0026 FFF7FEFF 		bl	chSchRescheduleS
 437              		.loc 1 230 0
 438 002a FFF7FEFF 		bl	dbg_check_unlock
 439              	.LBB25:
 440 002e 0023     		movs	r3, #0
 441              	.LVL30:
 442              	@ 230 "../chibios_2.4.x/os/kernel/src/chthreads.c" 1
 443 0030 83F31188 		msr     BASEPRI, r3
 444              	@ 0 "" 2
 445              	.LVL31:
 446              		.thumb
ARM GAS  C:\Users\z80\AppData\Local\Temp\ccM1QJXX.s 			page 9


 447              	.LBE25:
 448              		.loc 1 232 0
 449 0034 2846     		mov	r0, r5
 450 0036 38BD     		pop	{r3, r4, r5, pc}
 451              	.LVL32:
 452              	.L24:
 453              		.loc 1 217 0 discriminator 1
 454 0038 0248     		ldr	r0, .L25+4
 455 003a FFF7FEFF 		bl	chDbgPanic
 456 003e E3E7     		b	.L21
 457              	.L26:
 458              		.align	2
 459              	.L25:
 460 0040 00000000 		.word	rlist
 461 0044 14000000 		.word	.LC1
 462              		.cfi_endproc
 463              	.LFE11:
 464              		.size	chThdSetPriority, .-chThdSetPriority
 465 0048 AFF30080 		.section	.text.chThdResume,"ax",%progbits
 465      AFF30080 
 466              		.align	2
 467              		.p2align 4,,15
 468              		.global	chThdResume
 469              		.thumb
 470              		.thumb_func
 471              		.type	chThdResume, %function
 472              	chThdResume:
 473              	.LFB12:
 474              		.loc 1 247 0
 475              		.cfi_startproc
 476              		@ args = 0, pretend = 0, frame = 0
 477              		@ frame_needed = 0, uses_anonymous_args = 0
 478              	.LVL33:
 479 0000 10B5     		push	{r4, lr}
 480              	.LCFI5:
 481              		.cfi_def_cfa_offset 8
 482              	.LBB26:
 483              		.loc 1 249 0
 484 0002 2023     		movs	r3, #32
 485              	.LVL34:
 486              	.LBE26:
 487              		.loc 1 247 0
 488 0004 0446     		mov	r4, r0
 489              		.cfi_offset 14, -4
 490              		.cfi_offset 4, -8
 491              	.LBB27:
 492              		.loc 1 249 0
 493              	@ 249 "../chibios_2.4.x/os/kernel/src/chthreads.c" 1
 494 0006 83F31188 		msr     BASEPRI, r3
 495              	@ 0 "" 2
 496              	.LVL35:
 497              		.thumb
 498              	.LBE27:
 499 000a FFF7FEFF 		bl	dbg_check_lock
 500              	.LVL36:
 501              		.loc 1 250 0
 502 000e 94F82030 		ldrb	r3, [r4, #32]	@ zero_extendqisi2
ARM GAS  C:\Users\z80\AppData\Local\Temp\ccM1QJXX.s 			page 10


 503 0012 022B     		cmp	r3, #2
 504 0014 02D0     		beq	.L28
 505              		.loc 1 250 0 is_stmt 0 discriminator 1
 506 0016 0748     		ldr	r0, .L29
 507 0018 FFF7FEFF 		bl	chDbgPanic
 508              	.L28:
 509              		.loc 1 253 0 is_stmt 1
 510 001c 2046     		mov	r0, r4
 511 001e 0021     		movs	r1, #0
 512 0020 FFF7FEFF 		bl	chSchWakeupS
 513              		.loc 1 254 0
 514 0024 FFF7FEFF 		bl	dbg_check_unlock
 515              	.LBB28:
 516 0028 0023     		movs	r3, #0
 517              	.LVL37:
 518              	@ 254 "../chibios_2.4.x/os/kernel/src/chthreads.c" 1
 519 002a 83F31188 		msr     BASEPRI, r3
 520              	@ 0 "" 2
 521              	.LVL38:
 522              		.thumb
 523              	.LBE28:
 524              		.loc 1 256 0
 525 002e 2046     		mov	r0, r4
 526 0030 10BD     		pop	{r4, pc}
 527              	.L30:
 528 0032 00BF     		.align	2
 529              	.L29:
 530 0034 2C000000 		.word	.LC2
 531              		.cfi_endproc
 532              	.LFE12:
 533              		.size	chThdResume, .-chThdResume
 534 0038 AFF30080 		.section	.text.chThdTerminate,"ax",%progbits
 534      AFF30080 
 535              		.align	2
 536              		.p2align 4,,15
 537              		.global	chThdTerminate
 538              		.thumb
 539              		.thumb_func
 540              		.type	chThdTerminate, %function
 541              	chThdTerminate:
 542              	.LFB13:
 543              		.loc 1 270 0
 544              		.cfi_startproc
 545              		@ args = 0, pretend = 0, frame = 0
 546              		@ frame_needed = 0, uses_anonymous_args = 0
 547              	.LVL39:
 548 0000 10B5     		push	{r4, lr}
 549              	.LCFI6:
 550              		.cfi_def_cfa_offset 8
 551              	.LBB29:
 552              		.loc 1 272 0
 553 0002 2023     		movs	r3, #32
 554              	.LVL40:
 555              	.LBE29:
 556              		.loc 1 270 0
 557 0004 0446     		mov	r4, r0
 558              		.cfi_offset 14, -4
ARM GAS  C:\Users\z80\AppData\Local\Temp\ccM1QJXX.s 			page 11


 559              		.cfi_offset 4, -8
 560              	.LBB30:
 561              		.loc 1 272 0
 562              	@ 272 "../chibios_2.4.x/os/kernel/src/chthreads.c" 1
 563 0006 83F31188 		msr     BASEPRI, r3
 564              	@ 0 "" 2
 565              	.LVL41:
 566              		.thumb
 567              	.LBE30:
 568 000a FFF7FEFF 		bl	dbg_check_lock
 569              	.LVL42:
 570              		.loc 1 273 0
 571 000e 94F82130 		ldrb	r3, [r4, #33]	@ zero_extendqisi2
 572 0012 43F00403 		orr	r3, r3, #4
 573 0016 84F82130 		strb	r3, [r4, #33]
 574              		.loc 1 274 0
 575 001a FFF7FEFF 		bl	dbg_check_unlock
 576              	.LBB31:
 577 001e 0023     		movs	r3, #0
 578              	.LVL43:
 579              	@ 274 "../chibios_2.4.x/os/kernel/src/chthreads.c" 1
 580 0020 83F31188 		msr     BASEPRI, r3
 581              	@ 0 "" 2
 582              	.LVL44:
 583              		.thumb
 584              	.LBE31:
 585              		.loc 1 275 0
 586 0024 10BD     		pop	{r4, pc}
 587              		.cfi_endproc
 588              	.LFE13:
 589              		.size	chThdTerminate, .-chThdTerminate
 590 0026 00BFAFF3 		.section	.text.chThdSleep,"ax",%progbits
 590      0080AFF3 
 590      0080
 591              		.align	2
 592              		.p2align 4,,15
 593              		.global	chThdSleep
 594              		.thumb
 595              		.thumb_func
 596              		.type	chThdSleep, %function
 597              	chThdSleep:
 598              	.LFB14:
 599              		.loc 1 289 0
 600              		.cfi_startproc
 601              		@ args = 0, pretend = 0, frame = 0
 602              		@ frame_needed = 0, uses_anonymous_args = 0
 603              	.LVL45:
 604 0000 10B5     		push	{r4, lr}
 605              	.LCFI7:
 606              		.cfi_def_cfa_offset 8
 607              		.loc 1 289 0
 608 0002 0446     		mov	r4, r0
 609              		.cfi_offset 14, -4
 610              		.cfi_offset 4, -8
 611              		.loc 1 291 0
 612 0004 10B9     		cbnz	r0, .L33
 613              		.loc 1 291 0 is_stmt 0 discriminator 1
ARM GAS  C:\Users\z80\AppData\Local\Temp\ccM1QJXX.s 			page 12


 614 0006 0948     		ldr	r0, .L34
 615              	.LVL46:
 616 0008 FFF7FEFF 		bl	chDbgPanic
 617              	.L33:
 618              	.LBB32:
 619              		.loc 1 293 0 is_stmt 1
 620 000c 2023     		movs	r3, #32
 621              	.LVL47:
 622              	@ 293 "../chibios_2.4.x/os/kernel/src/chthreads.c" 1
 623 000e 83F31188 		msr     BASEPRI, r3
 624              	@ 0 "" 2
 625              	.LVL48:
 626              		.thumb
 627              	.LBE32:
 628 0012 FFF7FEFF 		bl	dbg_check_lock
 629              	.LVL49:
 630              		.loc 1 294 0
 631 0016 2146     		mov	r1, r4
 632 0018 0620     		movs	r0, #6
 633 001a FFF7FEFF 		bl	chSchGoSleepTimeoutS
 634              		.loc 1 295 0
 635 001e FFF7FEFF 		bl	dbg_check_unlock
 636              	.LBB33:
 637 0022 0023     		movs	r3, #0
 638              	.LVL50:
 639              	@ 295 "../chibios_2.4.x/os/kernel/src/chthreads.c" 1
 640 0024 83F31188 		msr     BASEPRI, r3
 641              	@ 0 "" 2
 642              	.LVL51:
 643              		.thumb
 644              	.LBE33:
 645              		.loc 1 296 0
 646 0028 10BD     		pop	{r4, pc}
 647              	.L35:
 648 002a 00BF     		.align	2
 649              	.L34:
 650 002c 40000000 		.word	.LC3
 651              		.cfi_endproc
 652              	.LFE14:
 653              		.size	chThdSleep, .-chThdSleep
 654              		.section	.text.chThdSleepUntil,"ax",%progbits
 655              		.align	2
 656              		.p2align 4,,15
 657              		.global	chThdSleepUntil
 658              		.thumb
 659              		.thumb_func
 660              		.type	chThdSleepUntil, %function
 661              	chThdSleepUntil:
 662              	.LFB15:
 663              		.loc 1 306 0
 664              		.cfi_startproc
 665              		@ args = 0, pretend = 0, frame = 0
 666              		@ frame_needed = 0, uses_anonymous_args = 0
 667              	.LVL52:
 668 0000 10B5     		push	{r4, lr}
 669              	.LCFI8:
 670              		.cfi_def_cfa_offset 8
ARM GAS  C:\Users\z80\AppData\Local\Temp\ccM1QJXX.s 			page 13


 671              	.LBB34:
 672              		.loc 1 308 0
 673 0002 2023     		movs	r3, #32
 674              	.LVL53:
 675              	.LBE34:
 676              		.loc 1 306 0
 677 0004 0446     		mov	r4, r0
 678              		.cfi_offset 14, -4
 679              		.cfi_offset 4, -8
 680              	.LBB35:
 681              		.loc 1 308 0
 682              	@ 308 "../chibios_2.4.x/os/kernel/src/chthreads.c" 1
 683 0006 83F31188 		msr     BASEPRI, r3
 684              	@ 0 "" 2
 685              	.LVL54:
 686              		.thumb
 687              	.LBE35:
 688 000a FFF7FEFF 		bl	dbg_check_lock
 689              	.LVL55:
 690              		.loc 1 309 0
 691 000e 064B     		ldr	r3, .L38
 692 0010 D968     		ldr	r1, [r3, #12]
 693              	.LVL56:
 694 0012 611A     		subs	r1, r4, r1
 695              	.LVL57:
 696 0014 02D0     		beq	.L37
 697              		.loc 1 310 0
 698 0016 0620     		movs	r0, #6
 699 0018 FFF7FEFF 		bl	chSchGoSleepTimeoutS
 700              	.LVL58:
 701              	.L37:
 702              		.loc 1 311 0
 703 001c FFF7FEFF 		bl	dbg_check_unlock
 704              	.LBB36:
 705 0020 0023     		movs	r3, #0
 706              	.LVL59:
 707              	@ 311 "../chibios_2.4.x/os/kernel/src/chthreads.c" 1
 708 0022 83F31188 		msr     BASEPRI, r3
 709              	@ 0 "" 2
 710              	.LVL60:
 711              		.thumb
 712              	.LBE36:
 713              		.loc 1 312 0
 714 0026 10BD     		pop	{r4, pc}
 715              	.L39:
 716              		.align	2
 717              	.L38:
 718 0028 00000000 		.word	vtlist
 719              		.cfi_endproc
 720              	.LFE15:
 721              		.size	chThdSleepUntil, .-chThdSleepUntil
 722 002c AFF30080 		.section	.text.chThdYield,"ax",%progbits
 723              		.align	2
 724              		.p2align 4,,15
 725              		.global	chThdYield
 726              		.thumb
 727              		.thumb_func
ARM GAS  C:\Users\z80\AppData\Local\Temp\ccM1QJXX.s 			page 14


 728              		.type	chThdYield, %function
 729              	chThdYield:
 730              	.LFB16:
 731              		.loc 1 321 0
 732              		.cfi_startproc
 733              		@ args = 0, pretend = 0, frame = 0
 734              		@ frame_needed = 0, uses_anonymous_args = 0
 735 0000 08B5     		push	{r3, lr}
 736              	.LCFI9:
 737              		.cfi_def_cfa_offset 8
 738              	.LBB37:
 739              		.loc 1 323 0
 740 0002 2023     		movs	r3, #32
 741              		.cfi_offset 14, -4
 742              		.cfi_offset 3, -8
 743              	.LVL61:
 744              	@ 323 "../chibios_2.4.x/os/kernel/src/chthreads.c" 1
 745 0004 83F31188 		msr     BASEPRI, r3
 746              	@ 0 "" 2
 747              	.LVL62:
 748              		.thumb
 749              	.LBE37:
 750 0008 FFF7FEFF 		bl	dbg_check_lock
 751              	.LVL63:
 752              		.loc 1 324 0
 753 000c 074B     		ldr	r3, .L42
 754 000e 1A68     		ldr	r2, [r3, #0]
 755 0010 DB69     		ldr	r3, [r3, #28]
 756 0012 9268     		ldr	r2, [r2, #8]
 757 0014 9B68     		ldr	r3, [r3, #8]
 758 0016 9A42     		cmp	r2, r3
 759 0018 01D3     		bcc	.L41
 760              		.loc 1 324 0 is_stmt 0 discriminator 1
 761 001a FFF7FEFF 		bl	chSchDoReschedule
 762              	.L41:
 763              		.loc 1 325 0 is_stmt 1
 764 001e FFF7FEFF 		bl	dbg_check_unlock
 765              	.LBB38:
 766 0022 0023     		movs	r3, #0
 767              	.LVL64:
 768              	@ 325 "../chibios_2.4.x/os/kernel/src/chthreads.c" 1
 769 0024 83F31188 		msr     BASEPRI, r3
 770              	@ 0 "" 2
 771              	.LVL65:
 772              		.thumb
 773              	.LBE38:
 774              		.loc 1 326 0
 775 0028 08BD     		pop	{r3, pc}
 776              	.L43:
 777 002a 00BF     		.align	2
 778              	.L42:
 779 002c 00000000 		.word	rlist
 780              		.cfi_endproc
 781              	.LFE16:
 782              		.size	chThdYield, .-chThdYield
 783              		.section	.text.chThdExitS,"ax",%progbits
 784              		.align	2
ARM GAS  C:\Users\z80\AppData\Local\Temp\ccM1QJXX.s 			page 15


 785              		.p2align 4,,15
 786              		.global	chThdExitS
 787              		.thumb
 788              		.thumb_func
 789              		.type	chThdExitS, %function
 790              	chThdExitS:
 791              	.LFB18:
 792              		.loc 1 363 0
 793              		.cfi_startproc
 794              		@ args = 0, pretend = 0, frame = 0
 795              		@ frame_needed = 0, uses_anonymous_args = 0
 796              	.LVL66:
 797              		.loc 1 364 0
 798 0000 114A     		ldr	r2, .L50
 799              		.loc 1 363 0
 800 0002 38B5     		push	{r3, r4, r5, lr}
 801              	.LCFI10:
 802              		.cfi_def_cfa_offset 16
 803              		.loc 1 364 0
 804 0004 D469     		ldr	r4, [r2, #28]
 805              		.cfi_offset 14, -4
 806              		.cfi_offset 5, -8
 807              		.cfi_offset 4, -12
 808              		.cfi_offset 3, -16
 809              	.LVL67:
 810              		.loc 1 363 0
 811 0006 0346     		mov	r3, r0
 812              		.loc 1 371 0
 813 0008 2546     		mov	r5, r4
 814 000a 55F82C0F 		ldr	r0, [r5, #44]!
 815              	.LVL68:
 816              		.loc 1 366 0
 817 000e A362     		str	r3, [r4, #40]
 818              		.loc 1 371 0
 819 0010 A842     		cmp	r0, r5
 820 0012 06D0     		beq	.L45
 821              	.LVL69:
 822              	.L48:
 823              	.LBB39:
 824              	.LBB40:
 825              		.file 2 "../chibios_2.4.x/os/kernel/include/chinline.h"
 826              		.loc 2 89 0
 827 0014 0368     		ldr	r3, [r0, #0]
 828 0016 E362     		str	r3, [r4, #44]
 829              	.LBE40:
 830              	.LBE39:
 831              		.loc 1 372 0
 832 0018 FFF7FEFF 		bl	chSchReadyI
 833              	.LVL70:
 834              		.loc 1 371 0
 835 001c E06A     		ldr	r0, [r4, #44]
 836 001e A842     		cmp	r0, r5
 837 0020 F8D1     		bne	.L48
 838              	.LVL71:
 839              	.L45:
 840              		.loc 1 377 0
 841 0022 94F82130 		ldrb	r3, [r4, #33]	@ zero_extendqisi2
ARM GAS  C:\Users\z80\AppData\Local\Temp\ccM1QJXX.s 			page 16


 842 0026 13F0030F 		tst	r3, #3
 843              		.loc 1 378 0
 844 002a 01BF     		itttt	eq
 845 002c 2269     		ldreq	r2, [r4, #16]
 846 002e 6369     		ldreq	r3, [r4, #20]
 847 0030 1A61     		streq	r2, [r3, #16]
 848 0032 2269     		ldreq	r2, [r4, #16]
 849 0034 08BF     		it	eq
 850 0036 5361     		streq	r3, [r2, #20]
 851              		.loc 1 380 0
 852 0038 0E20     		movs	r0, #14
 853 003a FFF7FEFF 		bl	chSchGoSleepS
 854              		.loc 1 382 0
 855 003e 0348     		ldr	r0, .L50+4
 856 0040 FFF7FEFF 		bl	chDbgPanic
 857              		.loc 1 383 0
 858 0044 38BD     		pop	{r3, r4, r5, pc}
 859              	.L51:
 860 0046 00BF     		.align	2
 861              	.L50:
 862 0048 00000000 		.word	rlist
 863 004c 50000000 		.word	.LC4
 864              		.cfi_endproc
 865              	.LFE18:
 866              		.size	chThdExitS, .-chThdExitS
 867              		.section	.text.chThdExit,"ax",%progbits
 868              		.align	2
 869              		.p2align 4,,15
 870              		.global	chThdExit
 871              		.thumb
 872              		.thumb_func
 873              		.type	chThdExit, %function
 874              	chThdExit:
 875              	.LFB17:
 876              		.loc 1 342 0
 877              		.cfi_startproc
 878              		@ args = 0, pretend = 0, frame = 0
 879              		@ frame_needed = 0, uses_anonymous_args = 0
 880              	.LVL72:
 881 0000 10B5     		push	{r4, lr}
 882              	.LCFI11:
 883              		.cfi_def_cfa_offset 8
 884              	.LBB41:
 885              		.loc 1 344 0
 886 0002 2023     		movs	r3, #32
 887              	.LVL73:
 888              	.LBE41:
 889              		.loc 1 342 0
 890 0004 0446     		mov	r4, r0
 891              		.cfi_offset 14, -4
 892              		.cfi_offset 4, -8
 893              	.LBB42:
 894              		.loc 1 344 0
 895              	@ 344 "../chibios_2.4.x/os/kernel/src/chthreads.c" 1
 896 0006 83F31188 		msr     BASEPRI, r3
 897              	@ 0 "" 2
 898              	.LVL74:
ARM GAS  C:\Users\z80\AppData\Local\Temp\ccM1QJXX.s 			page 17


 899              		.thumb
 900              	.LBE42:
 901 000a FFF7FEFF 		bl	dbg_check_lock
 902              	.LVL75:
 903              		.loc 1 345 0
 904 000e 2046     		mov	r0, r4
 905 0010 FFF7FEFF 		bl	chThdExitS
 906              		.loc 1 347 0
 907 0014 10BD     		pop	{r4, pc}
 908              		.cfi_endproc
 909              	.LFE17:
 910              		.size	chThdExit, .-chThdExit
 911 0016 00BFAFF3 		.section	.text.chThdWait,"ax",%progbits
 911      0080AFF3 
 911      0080
 912              		.align	2
 913              		.p2align 4,,15
 914              		.global	chThdWait
 915              		.thumb
 916              		.thumb_func
 917              		.type	chThdWait, %function
 918              	chThdWait:
 919              	.LFB19:
 920              		.loc 1 417 0
 921              		.cfi_startproc
 922              		@ args = 0, pretend = 0, frame = 0
 923              		@ frame_needed = 0, uses_anonymous_args = 0
 924              	.LVL76:
 925 0000 38B5     		push	{r3, r4, r5, lr}
 926              	.LCFI12:
 927              		.cfi_def_cfa_offset 16
 928              		.loc 1 417 0
 929 0002 0446     		mov	r4, r0
 930              		.cfi_offset 14, -4
 931              		.cfi_offset 5, -8
 932              		.cfi_offset 4, -12
 933              		.cfi_offset 3, -16
 934              		.loc 1 420 0
 935 0004 0028     		cmp	r0, #0
 936 0006 29D0     		beq	.L58
 937              	.LVL77:
 938              	.L54:
 939              	.LBB43:
 940              		.loc 1 422 0
 941 0008 2023     		movs	r3, #32
 942              	.LVL78:
 943              	@ 422 "../chibios_2.4.x/os/kernel/src/chthreads.c" 1
 944 000a 83F31188 		msr     BASEPRI, r3
 945              	@ 0 "" 2
 946              	.LVL79:
 947              		.thumb
 948              	.LBE43:
 949              		.loc 1 423 0
 950 000e 154D     		ldr	r5, .L61
 951              		.loc 1 422 0
 952 0010 FFF7FEFF 		bl	dbg_check_lock
 953              	.LVL80:
ARM GAS  C:\Users\z80\AppData\Local\Temp\ccM1QJXX.s 			page 18


 954              		.loc 1 423 0
 955 0014 EB69     		ldr	r3, [r5, #28]
 956 0016 A342     		cmp	r3, r4
 957 0018 1CD0     		beq	.L59
 958              	.L55:
 959              		.loc 1 425 0
 960 001a 94F82230 		ldrb	r3, [r4, #34]	@ zero_extendqisi2
 961 001e ABB1     		cbz	r3, .L60
 962              	.L56:
 963              		.loc 1 427 0
 964 0020 94F82030 		ldrb	r3, [r4, #32]	@ zero_extendqisi2
 965 0024 0E2B     		cmp	r3, #14
 966 0026 06D0     		beq	.L57
 967              		.loc 1 428 0
 968 0028 EB69     		ldr	r3, [r5, #28]
 969              	.LVL81:
 970              	.LBB44:
 971              	.LBB45:
 972              		.loc 2 82 0
 973 002a E26A     		ldr	r2, [r4, #44]
 974              	.LBE45:
 975              	.LBE44:
 976              		.loc 1 429 0
 977 002c 0720     		movs	r0, #7
 978              	.LBB47:
 979              	.LBB46:
 980              		.loc 2 83 0
 981 002e E362     		str	r3, [r4, #44]
 982              		.loc 2 82 0
 983 0030 1A60     		str	r2, [r3, #0]
 984              	.LBE46:
 985              	.LBE47:
 986              		.loc 1 429 0
 987 0032 FFF7FEFF 		bl	chSchGoSleepS
 988              	.LVL82:
 989              	.L57:
 990              		.loc 1 431 0
 991 0036 A56A     		ldr	r5, [r4, #40]
 992              	.LVL83:
 993              		.loc 1 432 0
 994 0038 FFF7FEFF 		bl	dbg_check_unlock
 995              	.LVL84:
 996              	.LBB48:
 997 003c 0023     		movs	r3, #0
 998              	.LVL85:
 999              	@ 432 "../chibios_2.4.x/os/kernel/src/chthreads.c" 1
 1000 003e 83F31188 		msr     BASEPRI, r3
 1001              	@ 0 "" 2
 1002              	.LVL86:
 1003              		.thumb
 1004              	.LBE48:
 1005              		.loc 1 434 0
 1006 0042 2046     		mov	r0, r4
 1007 0044 FFF7FEFF 		bl	chThdRelease
 1008              	.LVL87:
 1009              		.loc 1 437 0
 1010 0048 2846     		mov	r0, r5
ARM GAS  C:\Users\z80\AppData\Local\Temp\ccM1QJXX.s 			page 19


 1011 004a 38BD     		pop	{r3, r4, r5, pc}
 1012              	.LVL88:
 1013              	.L60:
 1014              		.loc 1 425 0 discriminator 1
 1015 004c 0648     		ldr	r0, .L61+4
 1016 004e FFF7FEFF 		bl	chDbgPanic
 1017 0052 E5E7     		b	.L56
 1018              	.L59:
 1019              		.loc 1 423 0 discriminator 1
 1020 0054 0548     		ldr	r0, .L61+8
 1021 0056 FFF7FEFF 		bl	chDbgPanic
 1022 005a DEE7     		b	.L55
 1023              	.L58:
 1024              		.loc 1 420 0 discriminator 1
 1025 005c 0448     		ldr	r0, .L61+12
 1026 005e FFF7FEFF 		bl	chDbgPanic
 1027 0062 D1E7     		b	.L54
 1028              	.L62:
 1029              		.align	2
 1030              	.L61:
 1031 0064 00000000 		.word	rlist
 1032 0068 84000000 		.word	.LC7
 1033 006c 74000000 		.word	.LC6
 1034 0070 64000000 		.word	.LC5
 1035              		.cfi_endproc
 1036              	.LFE19:
 1037              		.size	chThdWait, .-chThdWait
 1038 0074 AFF30080 		.section	.rodata.str1.4,"aMS",%progbits,1
 1038      AFF30080 
 1038      AFF30080 
 1039              		.align	2
 1040              	.LC0:
 1041 0000 22636854 		.ascii	"\"chThdCreateI\"()\000"
 1041      68644372 
 1041      65617465 
 1041      49222829 
 1041      00
 1042 0011 000000   		.space	3
 1043              	.LC1:
 1044 0014 22636854 		.ascii	"\"chThdSetPriority\"()\000"
 1044      68645365 
 1044      74507269 
 1044      6F726974 
 1044      79222829 
 1045 0029 000000   		.space	3
 1046              	.LC2:
 1047 002c 63685468 		.ascii	"chThdResume(), #1\000"
 1047      64526573 
 1047      756D6528 
 1047      292C2023 
 1047      3100
 1048 003e 0000     		.space	2
 1049              	.LC3:
 1050 0040 22636854 		.ascii	"\"chThdSleep\"()\000"
 1050      6864536C 
 1050      65657022 
 1050      282900
ARM GAS  C:\Users\z80\AppData\Local\Temp\ccM1QJXX.s 			page 20


 1051 004f 00       		.space	1
 1052              	.LC4:
 1053 0050 63685468 		.ascii	"chThdExitS(), #1\000"
 1053      64457869 
 1053      74532829 
 1053      2C202331 
 1053      00
 1054 0061 000000   		.space	3
 1055              	.LC5:
 1056 0064 22636854 		.ascii	"\"chThdWait\"()\000"
 1056      68645761 
 1056      69742228 
 1056      2900
 1057 0072 0000     		.space	2
 1058              	.LC6:
 1059 0074 63685468 		.ascii	"chThdWait(), #1\000"
 1059      64576169 
 1059      7428292C 
 1059      20233100 
 1060              	.LC7:
 1061 0084 63685468 		.ascii	"chThdWait(), #2\000"
 1061      64576169 
 1061      7428292C 
 1061      20233200 
 1062              		.text
 1063              	.Letext0: