ARM GAS  C:\Users\z80\AppData\Local\Temp\ccZTFaGT.s 			page 1


   1              		.syntax unified
   2              		.cpu cortex-m3
   3              		.fpu softvfp
   4              		.eabi_attribute 20, 1
   5              		.eabi_attribute 21, 1
   6              		.eabi_attribute 23, 3
   7              		.eabi_attribute 24, 1
   8              		.eabi_attribute 25, 1
   9              		.eabi_attribute 26, 1
  10              		.eabi_attribute 30, 6
  11              		.eabi_attribute 18, 4
  12              		.thumb
  13              		.file	"chthreads.c"
  14              		.section	.debug_abbrev,"",%progbits
  15              	.Ldebug_abbrev0:
  16              		.section	.debug_info,"",%progbits
  17              	.Ldebug_info0:
  18              		.section	.debug_line,"",%progbits
  19              	.Ldebug_line0:
  20 0000 48030000 		.text
  20      02008401 
  20      00000201 
  20      FB0E0D00 
  20      01010101 
  21              	.Ltext0:
  22              		.cfi_sections	.debug_frame
  23              		.section	.text.list_insert,"ax",%progbits
  24              		.align	2
  25              		.p2align 4,,15
  26              		.thumb
  27              		.thumb_func
  28              		.type	list_insert, %function
  29              	list_insert:
  30              	.LFB5:
  31              		.file 1 "../chibios_2.4.x/os/kernel/include/chinline.h"
  32              		.loc 1 80 0
  33              		.cfi_startproc
  34              		@ args = 0, pretend = 0, frame = 8
  35              		@ frame_needed = 0, uses_anonymous_args = 0
  36              		@ link register save eliminated.
  37 0000 82B0     		sub	sp, sp, #8
  38              	.LCFI0:
  39              		.cfi_def_cfa_offset 8
  40 0002 0190     		str	r0, [sp, #4]
  41 0004 0091     		str	r1, [sp, #0]
  42              		.loc 1 82 0
  43 0006 009B     		ldr	r3, [sp, #0]
  44 0008 1A68     		ldr	r2, [r3, #0]
  45 000a 019B     		ldr	r3, [sp, #4]
  46 000c 1A60     		str	r2, [r3, #0]
  47              		.loc 1 83 0
  48 000e 009B     		ldr	r3, [sp, #0]
  49 0010 019A     		ldr	r2, [sp, #4]
  50 0012 1A60     		str	r2, [r3, #0]
  51              		.loc 1 84 0
  52 0014 02B0     		add	sp, sp, #8
  53 0016 7047     		bx	lr
ARM GAS  C:\Users\z80\AppData\Local\Temp\ccZTFaGT.s 			page 2


  54              		.cfi_endproc
  55              	.LFE5:
  56              		.size	list_insert, .-list_insert
  57 0018 AFF30080 		.section	.text.list_remove,"ax",%progbits
  57      AFF30080 
  58              		.align	2
  59              		.p2align 4,,15
  60              		.thumb
  61              		.thumb_func
  62              		.type	list_remove, %function
  63              	list_remove:
  64              	.LFB6:
  65              		.loc 1 86 0
  66              		.cfi_startproc
  67              		@ args = 0, pretend = 0, frame = 16
  68              		@ frame_needed = 0, uses_anonymous_args = 0
  69              		@ link register save eliminated.
  70 0000 84B0     		sub	sp, sp, #16
  71              	.LCFI1:
  72              		.cfi_def_cfa_offset 16
  73 0002 0190     		str	r0, [sp, #4]
  74              		.loc 1 88 0
  75 0004 019B     		ldr	r3, [sp, #4]
  76 0006 1B68     		ldr	r3, [r3, #0]
  77 0008 0393     		str	r3, [sp, #12]
  78              		.loc 1 89 0
  79 000a 039B     		ldr	r3, [sp, #12]
  80 000c 1A68     		ldr	r2, [r3, #0]
  81 000e 019B     		ldr	r3, [sp, #4]
  82 0010 1A60     		str	r2, [r3, #0]
  83              		.loc 1 90 0
  84 0012 039B     		ldr	r3, [sp, #12]
  85              		.loc 1 91 0
  86 0014 1846     		mov	r0, r3
  87 0016 04B0     		add	sp, sp, #16
  88 0018 7047     		bx	lr
  89              		.cfi_endproc
  90              	.LFE6:
  91              		.size	list_remove, .-list_remove
  92 001a 00BFAFF3 		.section	.text._thread_init,"ax",%progbits
  92      0080
  93              		.align	2
  94              		.p2align 4,,15
  95              		.global	_thread_init
  96              		.thumb
  97              		.thumb_func
  98              		.type	_thread_init, %function
  99              	_thread_init:
 100              	.LFB7:
 101              		.file 2 "../chibios_2.4.x/os/kernel/src/chthreads.c"
 102              		.loc 2 76 0
 103              		.cfi_startproc
 104              		@ args = 0, pretend = 0, frame = 8
 105              		@ frame_needed = 0, uses_anonymous_args = 0
 106              		@ link register save eliminated.
 107 0000 82B0     		sub	sp, sp, #8
 108              	.LCFI2:
ARM GAS  C:\Users\z80\AppData\Local\Temp\ccZTFaGT.s 			page 3


 109              		.cfi_def_cfa_offset 8
 110 0002 0190     		str	r0, [sp, #4]
 111 0004 0091     		str	r1, [sp, #0]
 112              		.loc 2 78 0
 113 0006 019B     		ldr	r3, [sp, #4]
 114 0008 009A     		ldr	r2, [sp, #0]
 115 000a 9A60     		str	r2, [r3, #8]
 116              		.loc 2 79 0
 117 000c 019B     		ldr	r3, [sp, #4]
 118 000e 4FF00202 		mov	r2, #2
 119 0012 83F82020 		strb	r2, [r3, #32]
 120              		.loc 2 80 0
 121 0016 019B     		ldr	r3, [sp, #4]
 122 0018 4FF00002 		mov	r2, #0
 123 001c 83F82120 		strb	r2, [r3, #33]
 124              		.loc 2 82 0
 125 0020 019B     		ldr	r3, [sp, #4]
 126 0022 009A     		ldr	r2, [sp, #0]
 127 0024 5A64     		str	r2, [r3, #68]
 128              		.loc 2 83 0
 129 0026 019B     		ldr	r3, [sp, #4]
 130 0028 4FF00002 		mov	r2, #0
 131 002c 1A64     		str	r2, [r3, #64]
 132              		.loc 2 86 0
 133 002e 019B     		ldr	r3, [sp, #4]
 134 0030 4FF00002 		mov	r2, #0
 135 0034 DA63     		str	r2, [r3, #60]
 136              		.loc 2 89 0
 137 0036 019B     		ldr	r3, [sp, #4]
 138 0038 4FF00002 		mov	r2, #0
 139 003c 5A62     		str	r2, [r3, #36]
 140              		.loc 2 95 0
 141 003e 019B     		ldr	r3, [sp, #4]
 142 0040 4FF00002 		mov	r2, #0
 143 0044 9A61     		str	r2, [r3, #24]
 144              		.loc 2 96 0
 145 0046 40F20003 		movw	r3, #:lower16:rlist
 146 004a C0F20003 		movt	r3, #:upper16:rlist
 147 004e 019A     		ldr	r2, [sp, #4]
 148 0050 1361     		str	r3, [r2, #16]
 149 0052 40F20003 		movw	r3, #:lower16:rlist
 150 0056 C0F20003 		movt	r3, #:upper16:rlist
 151 005a 5A69     		ldr	r2, [r3, #20]
 152 005c 019B     		ldr	r3, [sp, #4]
 153 005e 5A61     		str	r2, [r3, #20]
 154 0060 019B     		ldr	r3, [sp, #4]
 155 0062 5A69     		ldr	r2, [r3, #20]
 156 0064 40F20003 		movw	r3, #:lower16:rlist
 157 0068 C0F20003 		movt	r3, #:upper16:rlist
 158 006c 0199     		ldr	r1, [sp, #4]
 159 006e 5961     		str	r1, [r3, #20]
 160 0070 40F20003 		movw	r3, #:lower16:rlist
 161 0074 C0F20003 		movt	r3, #:upper16:rlist
 162 0078 5B69     		ldr	r3, [r3, #20]
 163 007a 1361     		str	r3, [r2, #16]
 164              		.loc 2 99 0
 165 007c 019B     		ldr	r3, [sp, #4]
ARM GAS  C:\Users\z80\AppData\Local\Temp\ccZTFaGT.s 			page 4


 166 007e 03F12C03 		add	r3, r3, #44
 167 0082 1A46     		mov	r2, r3
 168 0084 019B     		ldr	r3, [sp, #4]
 169 0086 DA62     		str	r2, [r3, #44]
 170              		.loc 2 102 0
 171 0088 019B     		ldr	r3, [sp, #4]
 172 008a 03F13003 		add	r3, r3, #48
 173 008e 1A46     		mov	r2, r3
 174 0090 019B     		ldr	r3, [sp, #4]
 175 0092 5A63     		str	r2, [r3, #52]
 176 0094 019B     		ldr	r3, [sp, #4]
 177 0096 5A6B     		ldr	r2, [r3, #52]
 178 0098 019B     		ldr	r3, [sp, #4]
 179 009a 1A63     		str	r2, [r3, #48]
 180              		.loc 2 105 0
 181 009c 019B     		ldr	r3, [sp, #4]
 182 009e 03F14802 		add	r2, r3, #72
 183 00a2 019B     		ldr	r3, [sp, #4]
 184 00a4 DA61     		str	r2, [r3, #28]
 185              		.loc 2 110 0
 186 00a6 019B     		ldr	r3, [sp, #4]
 187              		.loc 2 111 0
 188 00a8 1846     		mov	r0, r3
 189 00aa 02B0     		add	sp, sp, #8
 190 00ac 7047     		bx	lr
 191              		.cfi_endproc
 192              	.LFE7:
 193              		.size	_thread_init, .-_thread_init
 194 00ae 00BF     		.section	.text._thread_memfill,"ax",%progbits
 195              		.align	2
 196              		.p2align 4,,15
 197              		.global	_thread_memfill
 198              		.thumb
 199              		.thumb_func
 200              		.type	_thread_memfill, %function
 201              	_thread_memfill:
 202              	.LFB8:
 203              		.loc 2 123 0
 204              		.cfi_startproc
 205              		@ args = 0, pretend = 0, frame = 16
 206              		@ frame_needed = 0, uses_anonymous_args = 0
 207              		@ link register save eliminated.
 208 0000 84B0     		sub	sp, sp, #16
 209              	.LCFI3:
 210              		.cfi_def_cfa_offset 16
 211 0002 0390     		str	r0, [sp, #12]
 212 0004 0291     		str	r1, [sp, #8]
 213 0006 1346     		mov	r3, r2
 214 0008 8DF80730 		strb	r3, [sp, #7]
 215              		.loc 2 125 0
 216 000c 07E0     		b	.L5
 217              	.L6:
 218              		.loc 2 126 0
 219 000e 039B     		ldr	r3, [sp, #12]
 220 0010 9DF80720 		ldrb	r2, [sp, #7]
 221 0014 1A70     		strb	r2, [r3, #0]
 222 0016 039B     		ldr	r3, [sp, #12]
ARM GAS  C:\Users\z80\AppData\Local\Temp\ccZTFaGT.s 			page 5


 223 0018 03F10103 		add	r3, r3, #1
 224 001c 0393     		str	r3, [sp, #12]
 225              	.L5:
 226              		.loc 2 125 0 discriminator 1
 227 001e 039A     		ldr	r2, [sp, #12]
 228 0020 029B     		ldr	r3, [sp, #8]
 229 0022 9A42     		cmp	r2, r3
 230 0024 F3D3     		bcc	.L6
 231              		.loc 2 127 0
 232 0026 04B0     		add	sp, sp, #16
 233 0028 7047     		bx	lr
 234              		.cfi_endproc
 235              	.LFE8:
 236              		.size	_thread_memfill, .-_thread_memfill
 237 002a 00BFAFF3 		.section	.rodata
 237      0080
 238              		.align	2
 239              	.LC0:
 240 0000 22636854 		.ascii	"\"chThdCreateI\"()\000"
 240      68644372 
 240      65617465 
 240      49222829 
 240      00
 241              		.section	.text.chThdCreateI,"ax",%progbits
 242              		.align	2
 243              		.p2align 4,,15
 244              		.global	chThdCreateI
 245              		.thumb
 246              		.thumb_func
 247              		.type	chThdCreateI, %function
 248              	chThdCreateI:
 249              	.LFB9:
 250              		.loc 2 155 0
 251              		.cfi_startproc
 252              		@ args = 4, pretend = 0, frame = 24
 253              		@ frame_needed = 0, uses_anonymous_args = 0
 254 0000 00B5     		push	{lr}
 255              	.LCFI4:
 256              		.cfi_def_cfa_offset 4
 257 0002 87B0     		sub	sp, sp, #28
 258              	.LCFI5:
 259              		.cfi_def_cfa_offset 32
 260 0004 0390     		str	r0, [sp, #12]
 261 0006 0291     		str	r1, [sp, #8]
 262 0008 0192     		str	r2, [sp, #4]
 263 000a 0093     		str	r3, [sp, #0]
 264              		.loc 2 157 0
 265 000c 039B     		ldr	r3, [sp, #12]
 266 000e 0593     		str	r3, [sp, #20]
 267              		.loc 2 159 0
 268              		.cfi_offset 14, -4
 269 0010 FFF7FEFF 		bl	chDbgCheckClassI
 270              		.loc 2 161 0
 271 0014 039B     		ldr	r3, [sp, #12]
 272 0016 002B     		cmp	r3, #0
 273 0018 08D0     		beq	.L8
 274              		.loc 2 161 0 is_stmt 0 discriminator 2
ARM GAS  C:\Users\z80\AppData\Local\Temp\ccZTFaGT.s 			page 6


 275 001a 029B     		ldr	r3, [sp, #8]
 276 001c AF2B     		cmp	r3, #175
 277 001e 05D9     		bls	.L8
 278              		.loc 2 161 0 discriminator 3
 279 0020 019B     		ldr	r3, [sp, #4]
 280 0022 7F2B     		cmp	r3, #127
 281 0024 02D8     		bhi	.L8
 282              		.loc 2 161 0 discriminator 4
 283 0026 009B     		ldr	r3, [sp, #0]
 284 0028 002B     		cmp	r3, #0
 285 002a 05D1     		bne	.L9
 286              	.L8:
 287              		.loc 2 161 0 discriminator 1
 288 002c 40F20000 		movw	r0, #:lower16:.LC0
 289 0030 C0F20000 		movt	r0, #:upper16:.LC0
 290 0034 FFF7FEFF 		bl	chDbgPanic
 291              	.L9:
 292              		.loc 2 164 0 is_stmt 1
 293 0038 039A     		ldr	r2, [sp, #12]
 294 003a 029B     		ldr	r3, [sp, #8]
 295 003c A3F12403 		sub	r3, r3, #36
 296 0040 1A44     		add	r2, r2, r3
 297 0042 059B     		ldr	r3, [sp, #20]
 298 0044 DA60     		str	r2, [r3, #12]
 299 0046 059B     		ldr	r3, [sp, #20]
 300 0048 DB68     		ldr	r3, [r3, #12]
 301 004a 009A     		ldr	r2, [sp, #0]
 302 004c 1A60     		str	r2, [r3, #0]
 303 004e 059B     		ldr	r3, [sp, #20]
 304 0050 DB68     		ldr	r3, [r3, #12]
 305 0052 089A     		ldr	r2, [sp, #32]
 306 0054 5A60     		str	r2, [r3, #4]
 307 0056 059B     		ldr	r3, [sp, #20]
 308 0058 DA68     		ldr	r2, [r3, #12]
 309 005a 40F20003 		movw	r3, #:lower16:_port_thread_start
 310 005e C0F20003 		movt	r3, #:upper16:_port_thread_start
 311 0062 1362     		str	r3, [r2, #32]
 312              		.loc 2 165 0
 313 0064 0598     		ldr	r0, [sp, #20]
 314 0066 0199     		ldr	r1, [sp, #4]
 315 0068 FFF7FEFF 		bl	_thread_init
 316 006c 0346     		mov	r3, r0
 317              		.loc 2 166 0
 318 006e 1846     		mov	r0, r3
 319 0070 07B0     		add	sp, sp, #28
 320 0072 00BD     		pop	{pc}
 321              		.cfi_endproc
 322              	.LFE9:
 323              		.size	chThdCreateI, .-chThdCreateI
 324 0074 AFF30080 		.section	.text.chThdCreateStatic,"ax",%progbits
 324      AFF30080 
 324      AFF30080 
 325              		.align	2
 326              		.p2align 4,,15
 327              		.global	chThdCreateStatic
 328              		.thumb
 329              		.thumb_func
ARM GAS  C:\Users\z80\AppData\Local\Temp\ccZTFaGT.s 			page 7


 330              		.type	chThdCreateStatic, %function
 331              	chThdCreateStatic:
 332              	.LFB10:
 333              		.loc 2 185 0
 334              		.cfi_startproc
 335              		@ args = 4, pretend = 0, frame = 24
 336              		@ frame_needed = 0, uses_anonymous_args = 0
 337 0000 00B5     		push	{lr}
 338              	.LCFI6:
 339              		.cfi_def_cfa_offset 4
 340 0002 89B0     		sub	sp, sp, #36
 341              	.LCFI7:
 342              		.cfi_def_cfa_offset 40
 343 0004 0590     		str	r0, [sp, #20]
 344 0006 0491     		str	r1, [sp, #16]
 345 0008 0392     		str	r2, [sp, #12]
 346 000a 0293     		str	r3, [sp, #8]
 347              		.loc 2 189 0
 348 000c 059A     		ldr	r2, [sp, #20]
 349              		.loc 2 190 0
 350 000e 059B     		ldr	r3, [sp, #20]
 351              		.loc 2 189 0
 352 0010 03F14803 		add	r3, r3, #72
 353 0014 1046     		mov	r0, r2
 354 0016 1946     		mov	r1, r3
 355 0018 4FF0FF02 		mov	r2, #255
 356              		.cfi_offset 14, -4
 357 001c FFF7FEFF 		bl	_thread_memfill
 358              		.loc 2 192 0
 359 0020 059B     		ldr	r3, [sp, #20]
 360 0022 03F14802 		add	r2, r3, #72
 361              		.loc 2 193 0
 362 0026 0599     		ldr	r1, [sp, #20]
 363              		.loc 2 192 0
 364 0028 049B     		ldr	r3, [sp, #16]
 365 002a 0B44     		add	r3, r1, r3
 366 002c 1046     		mov	r0, r2
 367 002e 1946     		mov	r1, r3
 368 0030 4FF05502 		mov	r2, #85
 369 0034 FFF7FEFF 		bl	_thread_memfill
 370              	.LBB2:
 371              		.loc 2 196 0
 372 0038 4FF02003 		mov	r3, #32
 373              	@ 196 "../chibios_2.4.x/os/kernel/src/chthreads.c" 1
 374 003c 83F31188 		msr     BASEPRI, r3
 375              	@ 0 "" 2
 376              		.thumb
 377              	.LBE2:
 378 0040 FFF7FEFF 		bl	dbg_check_lock
 379              		.loc 2 197 0
 380 0044 0A9B     		ldr	r3, [sp, #40]
 381 0046 0093     		str	r3, [sp, #0]
 382 0048 0598     		ldr	r0, [sp, #20]
 383 004a 0499     		ldr	r1, [sp, #16]
 384 004c 039A     		ldr	r2, [sp, #12]
 385 004e 029B     		ldr	r3, [sp, #8]
 386 0050 FFF7FEFF 		bl	chThdCreateI
ARM GAS  C:\Users\z80\AppData\Local\Temp\ccZTFaGT.s 			page 8


 387 0054 0346     		mov	r3, r0
 388 0056 0793     		str	r3, [sp, #28]
 389 0058 0798     		ldr	r0, [sp, #28]
 390 005a 4FF00001 		mov	r1, #0
 391 005e FFF7FEFF 		bl	chSchWakeupS
 392              		.loc 2 198 0
 393 0062 FFF7FEFF 		bl	dbg_check_unlock
 394              	.LBB3:
 395 0066 4FF00003 		mov	r3, #0
 396              	@ 198 "../chibios_2.4.x/os/kernel/src/chthreads.c" 1
 397 006a 83F31188 		msr     BASEPRI, r3
 398              	@ 0 "" 2
 399              		.thumb
 400              	.LBE3:
 401              		.loc 2 199 0
 402 006e 079B     		ldr	r3, [sp, #28]
 403              		.loc 2 200 0
 404 0070 1846     		mov	r0, r3
 405 0072 09B0     		add	sp, sp, #36
 406 0074 00BD     		pop	{pc}
 407              		.cfi_endproc
 408              	.LFE10:
 409              		.size	chThdCreateStatic, .-chThdCreateStatic
 410 0076 00BFAFF3 		.section	.rodata
 410      0080AFF3 
 410      0080
 411 0011 000000   		.align	2
 412              	.LC1:
 413 0014 22636854 		.ascii	"\"chThdSetPriority\"()\000"
 413      68645365 
 413      74507269 
 413      6F726974 
 413      79222829 
 414              		.section	.text.chThdSetPriority,"ax",%progbits
 415              		.align	2
 416              		.p2align 4,,15
 417              		.global	chThdSetPriority
 418              		.thumb
 419              		.thumb_func
 420              		.type	chThdSetPriority, %function
 421              	chThdSetPriority:
 422              	.LFB11:
 423              		.loc 2 214 0
 424              		.cfi_startproc
 425              		@ args = 0, pretend = 0, frame = 16
 426              		@ frame_needed = 0, uses_anonymous_args = 0
 427 0000 00B5     		push	{lr}
 428              	.LCFI8:
 429              		.cfi_def_cfa_offset 4
 430 0002 85B0     		sub	sp, sp, #20
 431              	.LCFI9:
 432              		.cfi_def_cfa_offset 24
 433 0004 0190     		str	r0, [sp, #4]
 434              		.loc 2 217 0
 435 0006 019B     		ldr	r3, [sp, #4]
 436 0008 7F2B     		cmp	r3, #127
 437 000a 05D9     		bls	.L12
ARM GAS  C:\Users\z80\AppData\Local\Temp\ccZTFaGT.s 			page 9


 438              		.cfi_offset 14, -4
 439              		.loc 2 217 0 is_stmt 0 discriminator 1
 440 000c 40F20000 		movw	r0, #:lower16:.LC1
 441 0010 C0F20000 		movt	r0, #:upper16:.LC1
 442 0014 FFF7FEFF 		bl	chDbgPanic
 443              	.L12:
 444              	.LBB4:
 445              		.loc 2 219 0 is_stmt 1
 446 0018 4FF02003 		mov	r3, #32
 447              	@ 219 "../chibios_2.4.x/os/kernel/src/chthreads.c" 1
 448 001c 83F31188 		msr     BASEPRI, r3
 449              	@ 0 "" 2
 450              		.thumb
 451              	.LBE4:
 452 0020 FFF7FEFF 		bl	dbg_check_lock
 453              		.loc 2 221 0
 454 0024 40F20003 		movw	r3, #:lower16:rlist
 455 0028 C0F20003 		movt	r3, #:upper16:rlist
 456 002c DB69     		ldr	r3, [r3, #28]
 457 002e 5B6C     		ldr	r3, [r3, #68]
 458 0030 0393     		str	r3, [sp, #12]
 459              		.loc 2 222 0
 460 0032 40F20003 		movw	r3, #:lower16:rlist
 461 0036 C0F20003 		movt	r3, #:upper16:rlist
 462 003a DB69     		ldr	r3, [r3, #28]
 463 003c 9A68     		ldr	r2, [r3, #8]
 464 003e 40F20003 		movw	r3, #:lower16:rlist
 465 0042 C0F20003 		movt	r3, #:upper16:rlist
 466 0046 DB69     		ldr	r3, [r3, #28]
 467 0048 5B6C     		ldr	r3, [r3, #68]
 468 004a 9A42     		cmp	r2, r3
 469 004c 08D0     		beq	.L13
 470              		.loc 2 222 0 is_stmt 0 discriminator 1
 471 004e 40F20003 		movw	r3, #:lower16:rlist
 472 0052 C0F20003 		movt	r3, #:upper16:rlist
 473 0056 DB69     		ldr	r3, [r3, #28]
 474 0058 9A68     		ldr	r2, [r3, #8]
 475 005a 019B     		ldr	r3, [sp, #4]
 476 005c 9A42     		cmp	r2, r3
 477 005e 06D2     		bcs	.L14
 478              	.L13:
 479              		.loc 2 223 0 is_stmt 1
 480 0060 40F20003 		movw	r3, #:lower16:rlist
 481 0064 C0F20003 		movt	r3, #:upper16:rlist
 482 0068 DB69     		ldr	r3, [r3, #28]
 483 006a 019A     		ldr	r2, [sp, #4]
 484 006c 9A60     		str	r2, [r3, #8]
 485              	.L14:
 486              		.loc 2 224 0
 487 006e 40F20003 		movw	r3, #:lower16:rlist
 488 0072 C0F20003 		movt	r3, #:upper16:rlist
 489 0076 DB69     		ldr	r3, [r3, #28]
 490 0078 019A     		ldr	r2, [sp, #4]
 491 007a 5A64     		str	r2, [r3, #68]
 492              		.loc 2 229 0
 493 007c FFF7FEFF 		bl	chSchRescheduleS
 494              		.loc 2 230 0
ARM GAS  C:\Users\z80\AppData\Local\Temp\ccZTFaGT.s 			page 10


 495 0080 FFF7FEFF 		bl	dbg_check_unlock
 496              	.LBB5:
 497 0084 4FF00003 		mov	r3, #0
 498              	@ 230 "../chibios_2.4.x/os/kernel/src/chthreads.c" 1
 499 0088 83F31188 		msr     BASEPRI, r3
 500              	@ 0 "" 2
 501              		.thumb
 502              	.LBE5:
 503              		.loc 2 231 0
 504 008c 039B     		ldr	r3, [sp, #12]
 505              		.loc 2 232 0
 506 008e 1846     		mov	r0, r3
 507 0090 05B0     		add	sp, sp, #20
 508 0092 00BD     		pop	{pc}
 509              		.cfi_endproc
 510              	.LFE11:
 511              		.size	chThdSetPriority, .-chThdSetPriority
 512 0094 AFF30080 		.section	.rodata
 512      AFF30080 
 512      AFF30080 
 513 0029 000000   		.align	2
 514              	.LC2:
 515 002c 63685468 		.ascii	"chThdResume(), #1\000"
 515      64526573 
 515      756D6528 
 515      292C2023 
 515      3100
 516              		.section	.text.chThdResume,"ax",%progbits
 517              		.align	2
 518              		.p2align 4,,15
 519              		.global	chThdResume
 520              		.thumb
 521              		.thumb_func
 522              		.type	chThdResume, %function
 523              	chThdResume:
 524              	.LFB12:
 525              		.loc 2 247 0
 526              		.cfi_startproc
 527              		@ args = 0, pretend = 0, frame = 8
 528              		@ frame_needed = 0, uses_anonymous_args = 0
 529 0000 00B5     		push	{lr}
 530              	.LCFI10:
 531              		.cfi_def_cfa_offset 4
 532 0002 83B0     		sub	sp, sp, #12
 533              	.LCFI11:
 534              		.cfi_def_cfa_offset 16
 535 0004 0190     		str	r0, [sp, #4]
 536              	.LBB6:
 537              		.loc 2 249 0
 538 0006 4FF02003 		mov	r3, #32
 539              	@ 249 "../chibios_2.4.x/os/kernel/src/chthreads.c" 1
 540 000a 83F31188 		msr     BASEPRI, r3
 541              	@ 0 "" 2
 542              		.thumb
 543              	.LBE6:
 544              		.cfi_offset 14, -4
 545 000e FFF7FEFF 		bl	dbg_check_lock
ARM GAS  C:\Users\z80\AppData\Local\Temp\ccZTFaGT.s 			page 11


 546              		.loc 2 250 0
 547 0012 019B     		ldr	r3, [sp, #4]
 548 0014 93F82030 		ldrb	r3, [r3, #32]	@ zero_extendqisi2
 549 0018 022B     		cmp	r3, #2
 550 001a 05D0     		beq	.L16
 551              		.loc 2 250 0 is_stmt 0 discriminator 1
 552 001c 40F20000 		movw	r0, #:lower16:.LC2
 553 0020 C0F20000 		movt	r0, #:upper16:.LC2
 554 0024 FFF7FEFF 		bl	chDbgPanic
 555              	.L16:
 556              		.loc 2 253 0 is_stmt 1
 557 0028 0198     		ldr	r0, [sp, #4]
 558 002a 4FF00001 		mov	r1, #0
 559 002e FFF7FEFF 		bl	chSchWakeupS
 560              		.loc 2 254 0
 561 0032 FFF7FEFF 		bl	dbg_check_unlock
 562              	.LBB7:
 563 0036 4FF00003 		mov	r3, #0
 564              	@ 254 "../chibios_2.4.x/os/kernel/src/chthreads.c" 1
 565 003a 83F31188 		msr     BASEPRI, r3
 566              	@ 0 "" 2
 567              		.thumb
 568              	.LBE7:
 569              		.loc 2 255 0
 570 003e 019B     		ldr	r3, [sp, #4]
 571              		.loc 2 256 0
 572 0040 1846     		mov	r0, r3
 573 0042 03B0     		add	sp, sp, #12
 574 0044 00BD     		pop	{pc}
 575              		.cfi_endproc
 576              	.LFE12:
 577              		.size	chThdResume, .-chThdResume
 578 0046 00BFAFF3 		.section	.text.chThdTerminate,"ax",%progbits
 578      0080AFF3 
 578      0080
 579              		.align	2
 580              		.p2align 4,,15
 581              		.global	chThdTerminate
 582              		.thumb
 583              		.thumb_func
 584              		.type	chThdTerminate, %function
 585              	chThdTerminate:
 586              	.LFB13:
 587              		.loc 2 270 0
 588              		.cfi_startproc
 589              		@ args = 0, pretend = 0, frame = 8
 590              		@ frame_needed = 0, uses_anonymous_args = 0
 591 0000 00B5     		push	{lr}
 592              	.LCFI12:
 593              		.cfi_def_cfa_offset 4
 594 0002 83B0     		sub	sp, sp, #12
 595              	.LCFI13:
 596              		.cfi_def_cfa_offset 16
 597 0004 0190     		str	r0, [sp, #4]
 598              	.LBB8:
 599              		.loc 2 272 0
 600 0006 4FF02003 		mov	r3, #32
ARM GAS  C:\Users\z80\AppData\Local\Temp\ccZTFaGT.s 			page 12


 601              	@ 272 "../chibios_2.4.x/os/kernel/src/chthreads.c" 1
 602 000a 83F31188 		msr     BASEPRI, r3
 603              	@ 0 "" 2
 604              		.thumb
 605              	.LBE8:
 606              		.cfi_offset 14, -4
 607 000e FFF7FEFF 		bl	dbg_check_lock
 608              		.loc 2 273 0
 609 0012 019B     		ldr	r3, [sp, #4]
 610 0014 93F82130 		ldrb	r3, [r3, #33]	@ zero_extendqisi2
 611 0018 43F00403 		orr	r3, r3, #4
 612 001c DAB2     		uxtb	r2, r3
 613 001e 019B     		ldr	r3, [sp, #4]
 614 0020 83F82120 		strb	r2, [r3, #33]
 615              		.loc 2 274 0
 616 0024 FFF7FEFF 		bl	dbg_check_unlock
 617              	.LBB9:
 618 0028 4FF00003 		mov	r3, #0
 619              	@ 274 "../chibios_2.4.x/os/kernel/src/chthreads.c" 1
 620 002c 83F31188 		msr     BASEPRI, r3
 621              	@ 0 "" 2
 622              		.thumb
 623              	.LBE9:
 624              		.loc 2 275 0
 625 0030 03B0     		add	sp, sp, #12
 626 0032 00BD     		pop	{pc}
 627              		.cfi_endproc
 628              	.LFE13:
 629              		.size	chThdTerminate, .-chThdTerminate
 630 0034 AFF30080 		.section	.rodata
 630      AFF30080 
 630      AFF30080 
 631 003e 0000     		.align	2
 632              	.LC3:
 633 0040 22636854 		.ascii	"\"chThdSleep\"()\000"
 633      6864536C 
 633      65657022 
 633      282900
 634              		.section	.text.chThdSleep,"ax",%progbits
 635              		.align	2
 636              		.p2align 4,,15
 637              		.global	chThdSleep
 638              		.thumb
 639              		.thumb_func
 640              		.type	chThdSleep, %function
 641              	chThdSleep:
 642              	.LFB14:
 643              		.loc 2 289 0
 644              		.cfi_startproc
 645              		@ args = 0, pretend = 0, frame = 8
 646              		@ frame_needed = 0, uses_anonymous_args = 0
 647 0000 00B5     		push	{lr}
 648              	.LCFI14:
 649              		.cfi_def_cfa_offset 4
 650 0002 83B0     		sub	sp, sp, #12
 651              	.LCFI15:
 652              		.cfi_def_cfa_offset 16
ARM GAS  C:\Users\z80\AppData\Local\Temp\ccZTFaGT.s 			page 13


 653 0004 0190     		str	r0, [sp, #4]
 654              		.loc 2 291 0
 655 0006 019B     		ldr	r3, [sp, #4]
 656 0008 002B     		cmp	r3, #0
 657 000a 05D1     		bne	.L19
 658              		.cfi_offset 14, -4
 659              		.loc 2 291 0 is_stmt 0 discriminator 1
 660 000c 40F20000 		movw	r0, #:lower16:.LC3
 661 0010 C0F20000 		movt	r0, #:upper16:.LC3
 662 0014 FFF7FEFF 		bl	chDbgPanic
 663              	.L19:
 664              	.LBB10:
 665              		.loc 2 293 0 is_stmt 1
 666 0018 4FF02003 		mov	r3, #32
 667              	@ 293 "../chibios_2.4.x/os/kernel/src/chthreads.c" 1
 668 001c 83F31188 		msr     BASEPRI, r3
 669              	@ 0 "" 2
 670              		.thumb
 671              	.LBE10:
 672 0020 FFF7FEFF 		bl	dbg_check_lock
 673              		.loc 2 294 0
 674 0024 4FF00600 		mov	r0, #6
 675 0028 0199     		ldr	r1, [sp, #4]
 676 002a FFF7FEFF 		bl	chSchGoSleepTimeoutS
 677              		.loc 2 295 0
 678 002e FFF7FEFF 		bl	dbg_check_unlock
 679              	.LBB11:
 680 0032 4FF00003 		mov	r3, #0
 681              	@ 295 "../chibios_2.4.x/os/kernel/src/chthreads.c" 1
 682 0036 83F31188 		msr     BASEPRI, r3
 683              	@ 0 "" 2
 684              		.thumb
 685              	.LBE11:
 686              		.loc 2 296 0
 687 003a 03B0     		add	sp, sp, #12
 688 003c 00BD     		pop	{pc}
 689              		.cfi_endproc
 690              	.LFE14:
 691              		.size	chThdSleep, .-chThdSleep
 692 003e 00BF     		.section	.text.chThdSleepUntil,"ax",%progbits
 693              		.align	2
 694              		.p2align 4,,15
 695              		.global	chThdSleepUntil
 696              		.thumb
 697              		.thumb_func
 698              		.type	chThdSleepUntil, %function
 699              	chThdSleepUntil:
 700              	.LFB15:
 701              		.loc 2 306 0
 702              		.cfi_startproc
 703              		@ args = 0, pretend = 0, frame = 8
 704              		@ frame_needed = 0, uses_anonymous_args = 0
 705 0000 00B5     		push	{lr}
 706              	.LCFI16:
 707              		.cfi_def_cfa_offset 4
 708 0002 83B0     		sub	sp, sp, #12
 709              	.LCFI17:
ARM GAS  C:\Users\z80\AppData\Local\Temp\ccZTFaGT.s 			page 14


 710              		.cfi_def_cfa_offset 16
 711 0004 0190     		str	r0, [sp, #4]
 712              	.LBB12:
 713              		.loc 2 308 0
 714 0006 4FF02003 		mov	r3, #32
 715              	@ 308 "../chibios_2.4.x/os/kernel/src/chthreads.c" 1
 716 000a 83F31188 		msr     BASEPRI, r3
 717              	@ 0 "" 2
 718              		.thumb
 719              	.LBE12:
 720              		.cfi_offset 14, -4
 721 000e FFF7FEFF 		bl	dbg_check_lock
 722              		.loc 2 309 0
 723 0012 40F20003 		movw	r3, #:lower16:vtlist
 724 0016 C0F20003 		movt	r3, #:upper16:vtlist
 725 001a DB68     		ldr	r3, [r3, #12]
 726 001c 019A     		ldr	r2, [sp, #4]
 727 001e C3EB0203 		rsb	r3, r3, r2
 728 0022 0193     		str	r3, [sp, #4]
 729 0024 019B     		ldr	r3, [sp, #4]
 730 0026 002B     		cmp	r3, #0
 731 0028 04D0     		beq	.L21
 732              		.loc 2 310 0
 733 002a 4FF00600 		mov	r0, #6
 734 002e 0199     		ldr	r1, [sp, #4]
 735 0030 FFF7FEFF 		bl	chSchGoSleepTimeoutS
 736              	.L21:
 737              		.loc 2 311 0
 738 0034 FFF7FEFF 		bl	dbg_check_unlock
 739              	.LBB13:
 740 0038 4FF00003 		mov	r3, #0
 741              	@ 311 "../chibios_2.4.x/os/kernel/src/chthreads.c" 1
 742 003c 83F31188 		msr     BASEPRI, r3
 743              	@ 0 "" 2
 744              		.thumb
 745              	.LBE13:
 746              		.loc 2 312 0
 747 0040 03B0     		add	sp, sp, #12
 748 0042 00BD     		pop	{pc}
 749              		.cfi_endproc
 750              	.LFE15:
 751              		.size	chThdSleepUntil, .-chThdSleepUntil
 752 0044 AFF30080 		.section	.text.chThdYield,"ax",%progbits
 752      AFF30080 
 752      AFF30080 
 753              		.align	2
 754              		.p2align 4,,15
 755              		.global	chThdYield
 756              		.thumb
 757              		.thumb_func
 758              		.type	chThdYield, %function
 759              	chThdYield:
 760              	.LFB16:
 761              		.loc 2 321 0
 762              		.cfi_startproc
 763              		@ args = 0, pretend = 0, frame = 0
 764              		@ frame_needed = 0, uses_anonymous_args = 0
ARM GAS  C:\Users\z80\AppData\Local\Temp\ccZTFaGT.s 			page 15


 765 0000 08B5     		push	{r3, lr}
 766              	.LCFI18:
 767              		.cfi_def_cfa_offset 8
 768              	.LBB14:
 769              		.loc 2 323 0
 770 0002 4FF02003 		mov	r3, #32
 771              		.cfi_offset 14, -4
 772              		.cfi_offset 3, -8
 773              	@ 323 "../chibios_2.4.x/os/kernel/src/chthreads.c" 1
 774 0006 83F31188 		msr     BASEPRI, r3
 775              	@ 0 "" 2
 776              		.thumb
 777              	.LBE14:
 778 000a FFF7FEFF 		bl	dbg_check_lock
 779              		.loc 2 324 0
 780 000e 40F20003 		movw	r3, #:lower16:rlist
 781 0012 C0F20003 		movt	r3, #:upper16:rlist
 782 0016 1B68     		ldr	r3, [r3, #0]
 783 0018 9A68     		ldr	r2, [r3, #8]
 784 001a 40F20003 		movw	r3, #:lower16:rlist
 785 001e C0F20003 		movt	r3, #:upper16:rlist
 786 0022 DB69     		ldr	r3, [r3, #28]
 787 0024 9B68     		ldr	r3, [r3, #8]
 788 0026 9A42     		cmp	r2, r3
 789 0028 01D3     		bcc	.L23
 790              		.loc 2 324 0 is_stmt 0 discriminator 1
 791 002a FFF7FEFF 		bl	chSchDoReschedule
 792              	.L23:
 793              		.loc 2 325 0 is_stmt 1
 794 002e FFF7FEFF 		bl	dbg_check_unlock
 795              	.LBB15:
 796 0032 4FF00003 		mov	r3, #0
 797              	@ 325 "../chibios_2.4.x/os/kernel/src/chthreads.c" 1
 798 0036 83F31188 		msr     BASEPRI, r3
 799              	@ 0 "" 2
 800              		.thumb
 801              	.LBE15:
 802              		.loc 2 326 0
 803 003a 08BD     		pop	{r3, pc}
 804              		.cfi_endproc
 805              	.LFE16:
 806              		.size	chThdYield, .-chThdYield
 807 003c AFF30080 		.section	.text.chThdExit,"ax",%progbits
 808              		.align	2
 809              		.p2align 4,,15
 810              		.global	chThdExit
 811              		.thumb
 812              		.thumb_func
 813              		.type	chThdExit, %function
 814              	chThdExit:
 815              	.LFB17:
 816              		.loc 2 342 0
 817              		.cfi_startproc
 818              		@ args = 0, pretend = 0, frame = 8
 819              		@ frame_needed = 0, uses_anonymous_args = 0
 820 0000 00B5     		push	{lr}
 821              	.LCFI19:
ARM GAS  C:\Users\z80\AppData\Local\Temp\ccZTFaGT.s 			page 16


 822              		.cfi_def_cfa_offset 4
 823 0002 83B0     		sub	sp, sp, #12
 824              	.LCFI20:
 825              		.cfi_def_cfa_offset 16
 826 0004 0190     		str	r0, [sp, #4]
 827              	.LBB16:
 828              		.loc 2 344 0
 829 0006 4FF02003 		mov	r3, #32
 830              	@ 344 "../chibios_2.4.x/os/kernel/src/chthreads.c" 1
 831 000a 83F31188 		msr     BASEPRI, r3
 832              	@ 0 "" 2
 833              		.thumb
 834              	.LBE16:
 835              		.cfi_offset 14, -4
 836 000e FFF7FEFF 		bl	dbg_check_lock
 837              		.loc 2 345 0
 838 0012 0198     		ldr	r0, [sp, #4]
 839 0014 FFF7FEFF 		bl	chThdExitS
 840              		.loc 2 347 0
 841 0018 03B0     		add	sp, sp, #12
 842 001a 00BD     		pop	{pc}
 843              		.cfi_endproc
 844              	.LFE17:
 845              		.size	chThdExit, .-chThdExit
 846 001c AFF30080 		.section	.rodata
 847 004f 00       		.align	2
 848              	.LC4:
 849 0050 63685468 		.ascii	"chThdExitS(), #1\000"
 849      64457869 
 849      74532829 
 849      2C202331 
 849      00
 850              		.section	.text.chThdExitS,"ax",%progbits
 851              		.align	2
 852              		.p2align 4,,15
 853              		.global	chThdExitS
 854              		.thumb
 855              		.thumb_func
 856              		.type	chThdExitS, %function
 857              	chThdExitS:
 858              	.LFB18:
 859              		.loc 2 363 0
 860              		.cfi_startproc
 861              		@ args = 0, pretend = 0, frame = 16
 862              		@ frame_needed = 0, uses_anonymous_args = 0
 863 0000 00B5     		push	{lr}
 864              	.LCFI21:
 865              		.cfi_def_cfa_offset 4
 866 0002 85B0     		sub	sp, sp, #20
 867              	.LCFI22:
 868              		.cfi_def_cfa_offset 24
 869 0004 0190     		str	r0, [sp, #4]
 870              		.loc 2 364 0
 871 0006 40F20003 		movw	r3, #:lower16:rlist
 872 000a C0F20003 		movt	r3, #:upper16:rlist
 873 000e DB69     		ldr	r3, [r3, #28]
 874 0010 0393     		str	r3, [sp, #12]
ARM GAS  C:\Users\z80\AppData\Local\Temp\ccZTFaGT.s 			page 17


 875              		.loc 2 366 0
 876 0012 039B     		ldr	r3, [sp, #12]
 877 0014 019A     		ldr	r2, [sp, #4]
 878 0016 9A62     		str	r2, [r3, #40]
 879              		.loc 2 371 0
 880 0018 09E0     		b	.L26
 881              		.cfi_offset 14, -4
 882              	.L27:
 883              		.loc 2 372 0
 884 001a 039B     		ldr	r3, [sp, #12]
 885 001c 03F12C03 		add	r3, r3, #44
 886 0020 1846     		mov	r0, r3
 887 0022 FFF7FEFF 		bl	list_remove
 888 0026 0346     		mov	r3, r0
 889 0028 1846     		mov	r0, r3
 890 002a FFF7FEFF 		bl	chSchReadyI
 891              	.L26:
 892              		.loc 2 371 0 discriminator 1
 893 002e 039B     		ldr	r3, [sp, #12]
 894 0030 DA6A     		ldr	r2, [r3, #44]
 895 0032 039B     		ldr	r3, [sp, #12]
 896 0034 03F12C03 		add	r3, r3, #44
 897 0038 9A42     		cmp	r2, r3
 898 003a EED1     		bne	.L27
 899              		.loc 2 377 0
 900 003c 039B     		ldr	r3, [sp, #12]
 901 003e 93F82130 		ldrb	r3, [r3, #33]	@ zero_extendqisi2
 902 0042 03F00303 		and	r3, r3, #3
 903 0046 002B     		cmp	r3, #0
 904 0048 09D1     		bne	.L28
 905              		.loc 2 378 0
 906 004a 039B     		ldr	r3, [sp, #12]
 907 004c 5B69     		ldr	r3, [r3, #20]
 908 004e 039A     		ldr	r2, [sp, #12]
 909 0050 1269     		ldr	r2, [r2, #16]
 910 0052 1A61     		str	r2, [r3, #16]
 911 0054 039B     		ldr	r3, [sp, #12]
 912 0056 1B69     		ldr	r3, [r3, #16]
 913 0058 039A     		ldr	r2, [sp, #12]
 914 005a 5269     		ldr	r2, [r2, #20]
 915 005c 5A61     		str	r2, [r3, #20]
 916              	.L28:
 917              		.loc 2 380 0
 918 005e 4FF00E00 		mov	r0, #14
 919 0062 FFF7FEFF 		bl	chSchGoSleepS
 920              		.loc 2 382 0
 921 0066 40F20000 		movw	r0, #:lower16:.LC4
 922 006a C0F20000 		movt	r0, #:upper16:.LC4
 923 006e FFF7FEFF 		bl	chDbgPanic
 924              		.loc 2 383 0
 925 0072 05B0     		add	sp, sp, #20
 926 0074 00BD     		pop	{pc}
 927              		.cfi_endproc
 928              	.LFE18:
 929              		.size	chThdExitS, .-chThdExitS
 930 0076 00BFAFF3 		.section	.rodata
 930      0080AFF3 
ARM GAS  C:\Users\z80\AppData\Local\Temp\ccZTFaGT.s 			page 18


 930      0080
 931 0061 000000   		.align	2
 932              	.LC5:
 933 0064 22636854 		.ascii	"\"chThdWait\"()\000"
 933      68645761 
 933      69742228 
 933      2900
 934 0072 0000     		.align	2
 935              	.LC6:
 936 0074 63685468 		.ascii	"chThdWait(), #1\000"
 936      64576169 
 936      7428292C 
 936      20233100 
 937              		.section	.text.chThdWait,"ax",%progbits
 938              		.align	2
 939              		.p2align 4,,15
 940              		.global	chThdWait
 941              		.thumb
 942              		.thumb_func
 943              		.type	chThdWait, %function
 944              	chThdWait:
 945              	.LFB19:
 946              		.loc 2 417 0
 947              		.cfi_startproc
 948              		@ args = 0, pretend = 0, frame = 16
 949              		@ frame_needed = 0, uses_anonymous_args = 0
 950 0000 00B5     		push	{lr}
 951              	.LCFI23:
 952              		.cfi_def_cfa_offset 4
 953 0002 85B0     		sub	sp, sp, #20
 954              	.LCFI24:
 955              		.cfi_def_cfa_offset 24
 956 0004 0190     		str	r0, [sp, #4]
 957              		.loc 2 420 0
 958 0006 019B     		ldr	r3, [sp, #4]
 959 0008 002B     		cmp	r3, #0
 960 000a 05D1     		bne	.L30
 961              		.cfi_offset 14, -4
 962              		.loc 2 420 0 is_stmt 0 discriminator 1
 963 000c 40F20000 		movw	r0, #:lower16:.LC5
 964 0010 C0F20000 		movt	r0, #:upper16:.LC5
 965 0014 FFF7FEFF 		bl	chDbgPanic
 966              	.L30:
 967              	.LBB17:
 968              		.loc 2 422 0 is_stmt 1
 969 0018 4FF02003 		mov	r3, #32
 970              	@ 422 "../chibios_2.4.x/os/kernel/src/chthreads.c" 1
 971 001c 83F31188 		msr     BASEPRI, r3
 972              	@ 0 "" 2
 973              		.thumb
 974              	.LBE17:
 975 0020 FFF7FEFF 		bl	dbg_check_lock
 976              		.loc 2 423 0
 977 0024 40F20003 		movw	r3, #:lower16:rlist
 978 0028 C0F20003 		movt	r3, #:upper16:rlist
 979 002c DA69     		ldr	r2, [r3, #28]
 980 002e 019B     		ldr	r3, [sp, #4]
ARM GAS  C:\Users\z80\AppData\Local\Temp\ccZTFaGT.s 			page 19


 981 0030 9A42     		cmp	r2, r3
 982 0032 05D1     		bne	.L31
 983              		.loc 2 423 0 is_stmt 0 discriminator 1
 984 0034 40F20000 		movw	r0, #:lower16:.LC6
 985 0038 C0F20000 		movt	r0, #:upper16:.LC6
 986 003c FFF7FEFF 		bl	chDbgPanic
 987              	.L31:
 988              		.loc 2 427 0 is_stmt 1
 989 0040 019B     		ldr	r3, [sp, #4]
 990 0042 93F82030 		ldrb	r3, [r3, #32]	@ zero_extendqisi2
 991 0046 0E2B     		cmp	r3, #14
 992 0048 0FD0     		beq	.L32
 993              		.loc 2 428 0
 994 004a 40F20003 		movw	r3, #:lower16:rlist
 995 004e C0F20003 		movt	r3, #:upper16:rlist
 996 0052 DA69     		ldr	r2, [r3, #28]
 997 0054 019B     		ldr	r3, [sp, #4]
 998 0056 03F12C03 		add	r3, r3, #44
 999 005a 1046     		mov	r0, r2
 1000 005c 1946     		mov	r1, r3
 1001 005e FFF7FEFF 		bl	list_insert
 1002              		.loc 2 429 0
 1003 0062 4FF00700 		mov	r0, #7
 1004 0066 FFF7FEFF 		bl	chSchGoSleepS
 1005              	.L32:
 1006              		.loc 2 431 0
 1007 006a 019B     		ldr	r3, [sp, #4]
 1008 006c 9B6A     		ldr	r3, [r3, #40]
 1009 006e 0393     		str	r3, [sp, #12]
 1010              		.loc 2 432 0
 1011 0070 FFF7FEFF 		bl	dbg_check_unlock
 1012              	.LBB18:
 1013 0074 4FF00003 		mov	r3, #0
 1014              	@ 432 "../chibios_2.4.x/os/kernel/src/chthreads.c" 1
 1015 0078 83F31188 		msr     BASEPRI, r3
 1016              	@ 0 "" 2
 1017              		.thumb
 1018              	.LBE18:
 1019              		.loc 2 436 0
 1020 007c 039B     		ldr	r3, [sp, #12]
 1021              		.loc 2 437 0
 1022 007e 1846     		mov	r0, r3
 1023 0080 05B0     		add	sp, sp, #20
 1024 0082 00BD     		pop	{pc}
 1025              		.cfi_endproc
 1026              	.LFE19:
 1027              		.size	chThdWait, .-chThdWait
 1028 0084 AFF30080 		.text
 1028      AFF30080 
 1028      AFF30080 
 1029              	.Letext0:
 1030              		.section	.debug_loc,"",%progbits
 1031              	.Ldebug_loc0:
 1032              	.LLST0:
 1033 0000 00000000 		.4byte	.LFB5
 1034 0004 02000000 		.4byte	.LCFI0
 1035 0008 0200     		.2byte	0x2
ARM GAS  C:\Users\z80\AppData\Local\Temp\ccZTFaGT.s 			page 20


 1036 000a 7D       		.byte	0x7d
 1037 000b 00       		.sleb128 0
 1038 000c 02000000 		.4byte	.LCFI0
 1039 0010 18000000 		.4byte	.LFE5
 1040 0014 0200     		.2byte	0x2
 1041 0016 7D       		.byte	0x7d
 1042 0017 08       		.sleb128 8
 1043 0018 00000000 		.4byte	0x0
 1044 001c 00000000 		.4byte	0x0
 1045              	.LLST1:
 1046 0020 00000000 		.4byte	.LFB6
 1047 0024 02000000 		.4byte	.LCFI1
 1048 0028 0200     		.2byte	0x2
 1049 002a 7D       		.byte	0x7d
 1050 002b 00       		.sleb128 0
 1051 002c 02000000 		.4byte	.LCFI1
 1052 0030 1A000000 		.4byte	.LFE6
 1053 0034 0200     		.2byte	0x2
 1054 0036 7D       		.byte	0x7d
 1055 0037 10       		.sleb128 16
 1056 0038 00000000 		.4byte	0x0
 1057 003c 00000000 		.4byte	0x0
 1058              	.LLST2:
 1059 0040 00000000 		.4byte	.LFB7
 1060 0044 02000000 		.4byte	.LCFI2
 1061 0048 0200     		.2byte	0x2
 1062 004a 7D       		.byte	0x7d
 1063 004b 00       		.sleb128 0
 1064 004c 02000000 		.4byte	.LCFI2
 1065 0050 AE000000 		.4byte	.LFE7
 1066 0054 0200     		.2byte	0x2
 1067 0056 7D       		.byte	0x7d
 1068 0057 08       		.sleb128 8
 1069 0058 00000000 		.4byte	0x0
 1070 005c 00000000 		.4byte	0x0
 1071              	.LLST3:
 1072 0060 00000000 		.4byte	.LFB8
 1073 0064 02000000 		.4byte	.LCFI3
 1074 0068 0200     		.2byte	0x2
 1075 006a 7D       		.byte	0x7d
 1076 006b 00       		.sleb128 0
 1077 006c 02000000 		.4byte	.LCFI3
 1078 0070 2A000000 		.4byte	.LFE8
 1079 0074 0200     		.2byte	0x2
 1080 0076 7D       		.byte	0x7d
 1081 0077 10       		.sleb128 16
 1082 0078 00000000 		.4byte	0x0
 1083 007c 00000000 		.4byte	0x0
 1084              	.LLST4:
 1085 0080 00000000 		.4byte	.LFB9
 1086 0084 02000000 		.4byte	.LCFI4
 1087 0088 0200     		.2byte	0x2
 1088 008a 7D       		.byte	0x7d
 1089 008b 00       		.sleb128 0
 1090 008c 02000000 		.4byte	.LCFI4
 1091 0090 04000000 		.4byte	.LCFI5
 1092 0094 0200     		.2byte	0x2
ARM GAS  C:\Users\z80\AppData\Local\Temp\ccZTFaGT.s 			page 21


 1093 0096 7D       		.byte	0x7d
 1094 0097 04       		.sleb128 4
 1095 0098 04000000 		.4byte	.LCFI5
 1096 009c 74000000 		.4byte	.LFE9
 1097 00a0 0200     		.2byte	0x2
 1098 00a2 7D       		.byte	0x7d
 1099 00a3 20       		.sleb128 32
 1100 00a4 00000000 		.4byte	0x0
 1101 00a8 00000000 		.4byte	0x0
 1102              	.LLST5:
 1103 00ac 00000000 		.4byte	.LFB10
 1104 00b0 02000000 		.4byte	.LCFI6
 1105 00b4 0200     		.2byte	0x2
 1106 00b6 7D       		.byte	0x7d
 1107 00b7 00       		.sleb128 0
 1108 00b8 02000000 		.4byte	.LCFI6
 1109 00bc 04000000 		.4byte	.LCFI7
 1110 00c0 0200     		.2byte	0x2
 1111 00c2 7D       		.byte	0x7d
 1112 00c3 04       		.sleb128 4
 1113 00c4 04000000 		.4byte	.LCFI7
 1114 00c8 76000000 		.4byte	.LFE10
 1115 00cc 0200     		.2byte	0x2
 1116 00ce 7D       		.byte	0x7d
 1117 00cf 28       		.sleb128 40
 1118 00d0 00000000 		.4byte	0x0
 1119 00d4 00000000 		.4byte	0x0
 1120              	.LLST6:
 1121 00d8 00000000 		.4byte	.LFB11
 1122 00dc 02000000 		.4byte	.LCFI8
 1123 00e0 0200     		.2byte	0x2
 1124 00e2 7D       		.byte	0x7d
 1125 00e3 00       		.sleb128 0
 1126 00e4 02000000 		.4byte	.LCFI8
 1127 00e8 04000000 		.4byte	.LCFI9
 1128 00ec 0200     		.2byte	0x2
 1129 00ee 7D       		.byte	0x7d
 1130 00ef 04       		.sleb128 4
 1131 00f0 04000000 		.4byte	.LCFI9
 1132 00f4 94000000 		.4byte	.LFE11
 1133 00f8 0200     		.2byte	0x2
 1134 00fa 7D       		.byte	0x7d
 1135 00fb 18       		.sleb128 24
 1136 00fc 00000000 		.4byte	0x0
 1137 0100 00000000 		.4byte	0x0
 1138              	.LLST7:
 1139 0104 00000000 		.4byte	.LFB12
 1140 0108 02000000 		.4byte	.LCFI10
 1141 010c 0200     		.2byte	0x2
 1142 010e 7D       		.byte	0x7d
 1143 010f 00       		.sleb128 0
 1144 0110 02000000 		.4byte	.LCFI10
 1145 0114 04000000 		.4byte	.LCFI11
 1146 0118 0200     		.2byte	0x2
 1147 011a 7D       		.byte	0x7d
 1148 011b 04       		.sleb128 4
 1149 011c 04000000 		.4byte	.LCFI11
ARM GAS  C:\Users\z80\AppData\Local\Temp\ccZTFaGT.s 			page 22


 1150 0120 46000000 		.4byte	.LFE12
 1151 0124 0200     		.2byte	0x2
 1152 0126 7D       		.byte	0x7d
 1153 0127 10       		.sleb128 16
 1154 0128 00000000 		.4byte	0x0
 1155 012c 00000000 		.4byte	0x0
 1156              	.LLST8:
 1157 0130 00000000 		.4byte	.LFB13
 1158 0134 02000000 		.4byte	.LCFI12
 1159 0138 0200     		.2byte	0x2
 1160 013a 7D       		.byte	0x7d
 1161 013b 00       		.sleb128 0
 1162 013c 02000000 		.4byte	.LCFI12
 1163 0140 04000000 		.4byte	.LCFI13
 1164 0144 0200     		.2byte	0x2
 1165 0146 7D       		.byte	0x7d
 1166 0147 04       		.sleb128 4
 1167 0148 04000000 		.4byte	.LCFI13
 1168 014c 34000000 		.4byte	.LFE13
 1169 0150 0200     		.2byte	0x2
 1170 0152 7D       		.byte	0x7d
 1171 0153 10       		.sleb128 16
 1172 0154 00000000 		.4byte	0x0
 1173 0158 00000000 		.4byte	0x0
 1174              	.LLST9:
 1175 015c 00000000 		.4byte	.LFB14
 1176 0160 02000000 		.4byte	.LCFI14
 1177 0164 0200     		.2byte	0x2
 1178 0166 7D       		.byte	0x7d
 1179 0167 00       		.sleb128 0
 1180 0168 02000000 		.4byte	.LCFI14
 1181 016c 04000000 		.4byte	.LCFI15
 1182 0170 0200     		.2byte	0x2
 1183 0172 7D       		.byte	0x7d
 1184 0173 04       		.sleb128 4
 1185 0174 04000000 		.4byte	.LCFI15
 1186 0178 3E000000 		.4byte	.LFE14
 1187 017c 0200     		.2byte	0x2
 1188 017e 7D       		.byte	0x7d
 1189 017f 10       		.sleb128 16
 1190 0180 00000000 		.4byte	0x0
 1191 0184 00000000 		.4byte	0x0
 1192              	.LLST10:
 1193 0188 00000000 		.4byte	.LFB15
 1194 018c 02000000 		.4byte	.LCFI16
 1195 0190 0200     		.2byte	0x2
 1196 0192 7D       		.byte	0x7d
 1197 0193 00       		.sleb128 0
 1198 0194 02000000 		.4byte	.LCFI16
 1199 0198 04000000 		.4byte	.LCFI17
 1200 019c 0200     		.2byte	0x2
 1201 019e 7D       		.byte	0x7d
 1202 019f 04       		.sleb128 4
 1203 01a0 04000000 		.4byte	.LCFI17
 1204 01a4 44000000 		.4byte	.LFE15
 1205 01a8 0200     		.2byte	0x2
 1206 01aa 7D       		.byte	0x7d
ARM GAS  C:\Users\z80\AppData\Local\Temp\ccZTFaGT.s 			page 23


 1207 01ab 10       		.sleb128 16
 1208 01ac 00000000 		.4byte	0x0
 1209 01b0 00000000 		.4byte	0x0
 1210              	.LLST11:
 1211 01b4 00000000 		.4byte	.LFB16
 1212 01b8 02000000 		.4byte	.LCFI18
 1213 01bc 0200     		.2byte	0x2
 1214 01be 7D       		.byte	0x7d
 1215 01bf 00       		.sleb128 0
 1216 01c0 02000000 		.4byte	.LCFI18
 1217 01c4 3C000000 		.4byte	.LFE16
 1218 01c8 0200     		.2byte	0x2
 1219 01ca 7D       		.byte	0x7d
 1220 01cb 08       		.sleb128 8
 1221 01cc 00000000 		.4byte	0x0
 1222 01d0 00000000 		.4byte	0x0
 1223              	.LLST12:
 1224 01d4 00000000 		.4byte	.LFB17
 1225 01d8 02000000 		.4byte	.LCFI19
 1226 01dc 0200     		.2byte	0x2
 1227 01de 7D       		.byte	0x7d
 1228 01df 00       		.sleb128 0
 1229 01e0 02000000 		.4byte	.LCFI19
 1230 01e4 04000000 		.4byte	.LCFI20
 1231 01e8 0200     		.2byte	0x2
 1232 01ea 7D       		.byte	0x7d
 1233 01eb 04       		.sleb128 4
 1234 01ec 04000000 		.4byte	.LCFI20
 1235 01f0 1C000000 		.4byte	.LFE17
 1236 01f4 0200     		.2byte	0x2
 1237 01f6 7D       		.byte	0x7d
 1238 01f7 10       		.sleb128 16
 1239 01f8 00000000 		.4byte	0x0
 1240 01fc 00000000 		.4byte	0x0
 1241              	.LLST13:
 1242 0200 00000000 		.4byte	.LFB18
 1243 0204 02000000 		.4byte	.LCFI21
 1244 0208 0200     		.2byte	0x2
 1245 020a 7D       		.byte	0x7d
 1246 020b 00       		.sleb128 0
 1247 020c 02000000 		.4byte	.LCFI21
 1248 0210 04000000 		.4byte	.LCFI22
 1249 0214 0200     		.2byte	0x2
 1250 0216 7D       		.byte	0x7d
 1251 0217 04       		.sleb128 4
 1252 0218 04000000 		.4byte	.LCFI22
 1253 021c 76000000 		.4byte	.LFE18
 1254 0220 0200     		.2byte	0x2
 1255 0222 7D       		.byte	0x7d
 1256 0223 18       		.sleb128 24
 1257 0224 00000000 		.4byte	0x0
 1258 0228 00000000 		.4byte	0x0
 1259              	.LLST14:
 1260 022c 00000000 		.4byte	.LFB19
 1261 0230 02000000 		.4byte	.LCFI23
 1262 0234 0200     		.2byte	0x2
 1263 0236 7D       		.byte	0x7d
ARM GAS  C:\Users\z80\AppData\Local\Temp\ccZTFaGT.s 			page 24


 1264 0237 00       		.sleb128 0
 1265 0238 02000000 		.4byte	.LCFI23
 1266 023c 04000000 		.4byte	.LCFI24
 1267 0240 0200     		.2byte	0x2
 1268 0242 7D       		.byte	0x7d
 1269 0243 04       		.sleb128 4
 1270 0244 04000000 		.4byte	.LCFI24
 1271 0248 84000000 		.4byte	.LFE19
 1272 024c 0200     		.2byte	0x2
 1273 024e 7D       		.byte	0x7d
 1274 024f 18       		.sleb128 24
 1275 0250 00000000 		.4byte	0x0
 1276 0254 00000000 		.4byte	0x0
 1277              		.file 3 "c:\\programs\\yagarto\\bin\\../lib/gcc/arm-none-eabi/4.5.0/include/stddef.h"
 1278              		.file 4 "c:/programs/yagarto/lib/gcc/../../arm-none-eabi/sys-include/stdint.h"
 1279              		.file 5 "../chibios_2.4.x/os/ports/GCC/ARMCMx/chtypes.h"
 1280              		.file 6 "../chibios_2.4.x/os/kernel/include/chlists.h"
 1281              		.file 7 "../chibios_2.4.x/os/kernel/include/chthreads.h"
 1282              		.file 8 "../chibios_2.4.x/os/ports/GCC/ARMCMx/chcore_v7m.h"
 1283              		.file 9 "../chibios_2.4.x/os/kernel/include/chvt.h"
 1284              		.file 10 "../chibios_2.4.x/os/kernel/include/chschd.h"
 1285              		.file 11 "../chibios_2.4.x/os/kernel/include/chmtx.h"
 1286              		.section	.debug_info
 1287 0000 7F0A0000 		.4byte	0xa7f
 1288 0004 0200     		.2byte	0x2
 1289 0006 00000000 		.4byte	.Ldebug_abbrev0
 1290 000a 04       		.byte	0x4
 1291 000b 01       		.uleb128 0x1
 1292 000c A5030000 		.4byte	.LASF94
 1293 0010 01       		.byte	0x1
 1294 0011 7A030000 		.4byte	.LASF95
 1295 0015 EA010000 		.4byte	.LASF96
 1296 0019 00000000 		.4byte	0x0
 1297 001d 00000000 		.4byte	0x0
 1298 0021 00000000 		.4byte	.Ldebug_ranges0+0x0
 1299 0025 00000000 		.4byte	.Ldebug_line0
 1300 0029 02       		.uleb128 0x2
 1301 002a 04       		.byte	0x4
 1302 002b 05       		.byte	0x5
 1303 002c 696E7400 		.ascii	"int\000"
 1304 0030 03       		.uleb128 0x3
 1305 0031 0E000000 		.4byte	.LASF2
 1306 0035 03       		.byte	0x3
 1307 0036 D3       		.byte	0xd3
 1308 0037 3B000000 		.4byte	0x3b
 1309 003b 04       		.uleb128 0x4
 1310 003c 04       		.byte	0x4
 1311 003d 07       		.byte	0x7
 1312 003e FD000000 		.4byte	.LASF0
 1313 0042 04       		.uleb128 0x4
 1314 0043 01       		.byte	0x1
 1315 0044 06       		.byte	0x6
 1316 0045 71000000 		.4byte	.LASF1
 1317 0049 03       		.uleb128 0x3
 1318 004a 72030000 		.4byte	.LASF3
 1319 004e 04       		.byte	0x4
 1320 004f 2A       		.byte	0x2a
ARM GAS  C:\Users\z80\AppData\Local\Temp\ccZTFaGT.s 			page 25


 1321 0050 54000000 		.4byte	0x54
 1322 0054 04       		.uleb128 0x4
 1323 0055 01       		.byte	0x1
 1324 0056 08       		.byte	0x8
 1325 0057 5F020000 		.4byte	.LASF4
 1326 005b 04       		.uleb128 0x4
 1327 005c 02       		.byte	0x2
 1328 005d 05       		.byte	0x5
 1329 005e 77020000 		.4byte	.LASF5
 1330 0062 04       		.uleb128 0x4
 1331 0063 02       		.byte	0x2
 1332 0064 07       		.byte	0x7
 1333 0065 31010000 		.4byte	.LASF6
 1334 0069 03       		.uleb128 0x3
 1335 006a 57020000 		.4byte	.LASF7
 1336 006e 04       		.byte	0x4
 1337 006f 4F       		.byte	0x4f
 1338 0070 74000000 		.4byte	0x74
 1339 0074 04       		.uleb128 0x4
 1340 0075 04       		.byte	0x4
 1341 0076 05       		.byte	0x5
 1342 0077 9C000000 		.4byte	.LASF8
 1343 007b 03       		.uleb128 0x3
 1344 007c C8020000 		.4byte	.LASF9
 1345 0080 04       		.byte	0x4
 1346 0081 50       		.byte	0x50
 1347 0082 86000000 		.4byte	0x86
 1348 0086 04       		.uleb128 0x4
 1349 0087 04       		.byte	0x4
 1350 0088 07       		.byte	0x7
 1351 0089 12010000 		.4byte	.LASF10
 1352 008d 04       		.uleb128 0x4
 1353 008e 08       		.byte	0x8
 1354 008f 05       		.byte	0x5
 1355 0090 63000000 		.4byte	.LASF11
 1356 0094 03       		.uleb128 0x3
 1357 0095 21000000 		.4byte	.LASF12
 1358 0099 04       		.byte	0x4
 1359 009a 78       		.byte	0x78
 1360 009b 9F000000 		.4byte	0x9f
 1361 009f 04       		.uleb128 0x4
 1362 00a0 08       		.byte	0x8
 1363 00a1 07       		.byte	0x7
 1364 00a2 3C000000 		.4byte	.LASF13
 1365 00a6 03       		.uleb128 0x3
 1366 00a7 52010000 		.4byte	.LASF14
 1367 00ab 05       		.byte	0x5
 1368 00ac 2F       		.byte	0x2f
 1369 00ad 49000000 		.4byte	0x49
 1370 00b1 03       		.uleb128 0x3
 1371 00b2 A5000000 		.4byte	.LASF15
 1372 00b6 05       		.byte	0x5
 1373 00b7 30       		.byte	0x30
 1374 00b8 49000000 		.4byte	0x49
 1375 00bc 03       		.uleb128 0x3
 1376 00bd 4F020000 		.4byte	.LASF16
 1377 00c1 05       		.byte	0x5
ARM GAS  C:\Users\z80\AppData\Local\Temp\ccZTFaGT.s 			page 26


 1378 00c2 32       		.byte	0x32
 1379 00c3 7B000000 		.4byte	0x7b
 1380 00c7 03       		.uleb128 0x3
 1381 00c8 44010000 		.4byte	.LASF17
 1382 00cc 05       		.byte	0x5
 1383 00cd 33       		.byte	0x33
 1384 00ce 69000000 		.4byte	0x69
 1385 00d2 03       		.uleb128 0x3
 1386 00d3 75010000 		.4byte	.LASF18
 1387 00d7 05       		.byte	0x5
 1388 00d8 35       		.byte	0x35
 1389 00d9 7B000000 		.4byte	0x7b
 1390 00dd 03       		.uleb128 0x3
 1391 00de FF020000 		.4byte	.LASF19
 1392 00e2 05       		.byte	0x5
 1393 00e3 36       		.byte	0x36
 1394 00e4 7B000000 		.4byte	0x7b
 1395 00e8 03       		.uleb128 0x3
 1396 00e9 EC000000 		.4byte	.LASF20
 1397 00ed 05       		.byte	0x5
 1398 00ee 37       		.byte	0x37
 1399 00ef 69000000 		.4byte	0x69
 1400 00f3 03       		.uleb128 0x3
 1401 00f4 B6020000 		.4byte	.LASF21
 1402 00f8 06       		.byte	0x6
 1403 00f9 2A       		.byte	0x2a
 1404 00fa FE000000 		.4byte	0xfe
 1405 00fe 05       		.uleb128 0x5
 1406 00ff B6020000 		.4byte	.LASF21
 1407 0103 48       		.byte	0x48
 1408 0104 07       		.byte	0x7
 1409 0105 5E       		.byte	0x5e
 1410 0106 07020000 		.4byte	0x207
 1411 010a 06       		.uleb128 0x6
 1412 010b 97020000 		.4byte	.LASF22
 1413 010f 07       		.byte	0x7
 1414 0110 5F       		.byte	0x5f
 1415 0111 2C020000 		.4byte	0x22c
 1416 0115 02       		.byte	0x2
 1417 0116 23       		.byte	0x23
 1418 0117 00       		.uleb128 0x0
 1419 0118 06       		.uleb128 0x6
 1420 0119 48020000 		.4byte	.LASF23
 1421 011d 07       		.byte	0x7
 1422 011e 61       		.byte	0x61
 1423 011f 2C020000 		.4byte	0x22c
 1424 0123 02       		.byte	0x2
 1425 0124 23       		.byte	0x23
 1426 0125 04       		.uleb128 0x4
 1427 0126 06       		.uleb128 0x6
 1428 0127 5C000000 		.4byte	.LASF24
 1429 012b 07       		.byte	0x7
 1430 012c 63       		.byte	0x63
 1431 012d BC000000 		.4byte	0xbc
 1432 0131 02       		.byte	0x2
 1433 0132 23       		.byte	0x23
 1434 0133 08       		.uleb128 0x8
ARM GAS  C:\Users\z80\AppData\Local\Temp\ccZTFaGT.s 			page 27


 1435 0134 06       		.uleb128 0x6
 1436 0135 E3030000 		.4byte	.LASF25
 1437 0139 07       		.byte	0x7
 1438 013a 64       		.byte	0x64
 1439 013b 04030000 		.4byte	0x304
 1440 013f 02       		.byte	0x2
 1441 0140 23       		.byte	0x23
 1442 0141 0C       		.uleb128 0xc
 1443 0142 06       		.uleb128 0x6
 1444 0143 AE000000 		.4byte	.LASF26
 1445 0147 07       		.byte	0x7
 1446 0148 66       		.byte	0x66
 1447 0149 2C020000 		.4byte	0x22c
 1448 014d 02       		.byte	0x2
 1449 014e 23       		.byte	0x23
 1450 014f 10       		.uleb128 0x10
 1451 0150 06       		.uleb128 0x6
 1452 0151 CF010000 		.4byte	.LASF27
 1453 0155 07       		.byte	0x7
 1454 0156 67       		.byte	0x67
 1455 0157 2C020000 		.4byte	0x22c
 1456 015b 02       		.byte	0x2
 1457 015c 23       		.byte	0x23
 1458 015d 14       		.uleb128 0x14
 1459 015e 06       		.uleb128 0x6
 1460 015f B8030000 		.4byte	.LASF28
 1461 0163 07       		.byte	0x7
 1462 0164 6E       		.byte	0x6e
 1463 0165 EF040000 		.4byte	0x4ef
 1464 0169 02       		.byte	0x2
 1465 016a 23       		.byte	0x23
 1466 016b 18       		.uleb128 0x18
 1467 016c 06       		.uleb128 0x6
 1468 016d F2000000 		.4byte	.LASF29
 1469 0171 07       		.byte	0x7
 1470 0172 74       		.byte	0x74
 1471 0173 01050000 		.4byte	0x501
 1472 0177 02       		.byte	0x2
 1473 0178 23       		.byte	0x23
 1474 0179 1C       		.uleb128 0x1c
 1475 017a 06       		.uleb128 0x6
 1476 017b 81020000 		.4byte	.LASF30
 1477 017f 07       		.byte	0x7
 1478 0180 79       		.byte	0x79
 1479 0181 B1000000 		.4byte	0xb1
 1480 0185 02       		.byte	0x2
 1481 0186 23       		.byte	0x23
 1482 0187 20       		.uleb128 0x20
 1483 0188 06       		.uleb128 0x6
 1484 0189 9E020000 		.4byte	.LASF31
 1485 018d 07       		.byte	0x7
 1486 018e 7D       		.byte	0x7d
 1487 018f A6000000 		.4byte	0xa6
 1488 0193 02       		.byte	0x2
 1489 0194 23       		.byte	0x23
 1490 0195 21       		.uleb128 0x21
 1491 0196 06       		.uleb128 0x6
ARM GAS  C:\Users\z80\AppData\Local\Temp\ccZTFaGT.s 			page 28


 1492 0197 28030000 		.4byte	.LASF32
 1493 019b 07       		.byte	0x7
 1494 019c 89       		.byte	0x89
 1495 019d EC030000 		.4byte	0x3ec
 1496 01a1 02       		.byte	0x2
 1497 01a2 23       		.byte	0x23
 1498 01a3 24       		.uleb128 0x24
 1499 01a4 07       		.uleb128 0x7
 1500 01a5 705F7500 		.ascii	"p_u\000"
 1501 01a9 07       		.byte	0x7
 1502 01aa AE       		.byte	0xae
 1503 01ab BA040000 		.4byte	0x4ba
 1504 01af 02       		.byte	0x2
 1505 01b0 23       		.byte	0x23
 1506 01b1 28       		.uleb128 0x28
 1507 01b2 06       		.uleb128 0x6
 1508 01b3 E9030000 		.4byte	.LASF33
 1509 01b7 07       		.byte	0x7
 1510 01b8 B3       		.byte	0xb3
 1511 01b9 54020000 		.4byte	0x254
 1512 01bd 02       		.byte	0x2
 1513 01be 23       		.byte	0x23
 1514 01bf 2C       		.uleb128 0x2c
 1515 01c0 06       		.uleb128 0x6
 1516 01c1 36030000 		.4byte	.LASF34
 1517 01c5 07       		.byte	0x7
 1518 01c6 B9       		.byte	0xb9
 1519 01c7 32020000 		.4byte	0x232
 1520 01cb 02       		.byte	0x2
 1521 01cc 23       		.byte	0x23
 1522 01cd 30       		.uleb128 0x30
 1523 01ce 06       		.uleb128 0x6
 1524 01cf 08000000 		.4byte	.LASF35
 1525 01d3 07       		.byte	0x7
 1526 01d4 BD       		.byte	0xbd
 1527 01d5 C7000000 		.4byte	0xc7
 1528 01d9 02       		.byte	0x2
 1529 01da 23       		.byte	0x23
 1530 01db 38       		.uleb128 0x38
 1531 01dc 06       		.uleb128 0x6
 1532 01dd BD020000 		.4byte	.LASF36
 1533 01e1 07       		.byte	0x7
 1534 01e2 C3       		.byte	0xc3
 1535 01e3 D2000000 		.4byte	0xd2
 1536 01e7 02       		.byte	0x2
 1537 01e8 23       		.byte	0x23
 1538 01e9 3C       		.uleb128 0x3c
 1539 01ea 06       		.uleb128 0x6
 1540 01eb 6D020000 		.4byte	.LASF37
 1541 01ef 07       		.byte	0x7
 1542 01f0 CA       		.byte	0xca
 1543 01f1 07050000 		.4byte	0x507
 1544 01f5 02       		.byte	0x2
 1545 01f6 23       		.byte	0x23
 1546 01f7 40       		.uleb128 0x40
 1547 01f8 06       		.uleb128 0x6
 1548 01f9 09030000 		.4byte	.LASF38
ARM GAS  C:\Users\z80\AppData\Local\Temp\ccZTFaGT.s 			page 29


 1549 01fd 07       		.byte	0x7
 1550 01fe CE       		.byte	0xce
 1551 01ff BC000000 		.4byte	0xbc
 1552 0203 02       		.byte	0x2
 1553 0204 23       		.byte	0x23
 1554 0205 44       		.uleb128 0x44
 1555 0206 00       		.byte	0x0
 1556 0207 08       		.uleb128 0x8
 1557 0208 08       		.byte	0x8
 1558 0209 06       		.byte	0x6
 1559 020a 61       		.byte	0x61
 1560 020b 2C020000 		.4byte	0x22c
 1561 020f 06       		.uleb128 0x6
 1562 0210 97020000 		.4byte	.LASF22
 1563 0214 06       		.byte	0x6
 1564 0215 62       		.byte	0x62
 1565 0216 2C020000 		.4byte	0x22c
 1566 021a 02       		.byte	0x2
 1567 021b 23       		.byte	0x23
 1568 021c 00       		.uleb128 0x0
 1569 021d 06       		.uleb128 0x6
 1570 021e 48020000 		.4byte	.LASF23
 1571 0222 06       		.byte	0x6
 1572 0223 64       		.byte	0x64
 1573 0224 2C020000 		.4byte	0x22c
 1574 0228 02       		.byte	0x2
 1575 0229 23       		.byte	0x23
 1576 022a 04       		.uleb128 0x4
 1577 022b 00       		.byte	0x0
 1578 022c 09       		.uleb128 0x9
 1579 022d 04       		.byte	0x4
 1580 022e F3000000 		.4byte	0xf3
 1581 0232 03       		.uleb128 0x3
 1582 0233 DD010000 		.4byte	.LASF39
 1583 0237 06       		.byte	0x6
 1584 0238 66       		.byte	0x66
 1585 0239 07020000 		.4byte	0x207
 1586 023d 08       		.uleb128 0x8
 1587 023e 04       		.byte	0x4
 1588 023f 06       		.byte	0x6
 1589 0240 6B       		.byte	0x6b
 1590 0241 54020000 		.4byte	0x254
 1591 0245 06       		.uleb128 0x6
 1592 0246 97020000 		.4byte	.LASF22
 1593 024a 06       		.byte	0x6
 1594 024b 6D       		.byte	0x6d
 1595 024c 2C020000 		.4byte	0x22c
 1596 0250 02       		.byte	0x2
 1597 0251 23       		.byte	0x23
 1598 0252 00       		.uleb128 0x0
 1599 0253 00       		.byte	0x0
 1600 0254 03       		.uleb128 0x3
 1601 0255 69010000 		.4byte	.LASF40
 1602 0259 06       		.byte	0x6
 1603 025a 70       		.byte	0x70
 1604 025b 3D020000 		.4byte	0x23d
 1605 025f 03       		.uleb128 0x3
ARM GAS  C:\Users\z80\AppData\Local\Temp\ccZTFaGT.s 			page 30


 1606 0260 CA000000 		.4byte	.LASF41
 1607 0264 08       		.byte	0x8
 1608 0265 D7       		.byte	0xd7
 1609 0266 6A020000 		.4byte	0x26a
 1610 026a 0A       		.uleb128 0xa
 1611 026b 04       		.byte	0x4
 1612 026c 03       		.uleb128 0x3
 1613 026d 8F010000 		.4byte	.LASF42
 1614 0271 08       		.byte	0x8
 1615 0272 DD       		.byte	0xdd
 1616 0273 94000000 		.4byte	0x94
 1617 0277 05       		.uleb128 0x5
 1618 0278 2F030000 		.4byte	.LASF43
 1619 027c 24       		.byte	0x24
 1620 027d 08       		.byte	0x8
 1621 027e FE       		.byte	0xfe
 1622 027f 04030000 		.4byte	0x304
 1623 0283 0B       		.uleb128 0xb
 1624 0284 723400   		.ascii	"r4\000"
 1625 0287 08       		.byte	0x8
 1626 0288 1101     		.2byte	0x111
 1627 028a 5F020000 		.4byte	0x25f
 1628 028e 02       		.byte	0x2
 1629 028f 23       		.byte	0x23
 1630 0290 00       		.uleb128 0x0
 1631 0291 0B       		.uleb128 0xb
 1632 0292 723500   		.ascii	"r5\000"
 1633 0295 08       		.byte	0x8
 1634 0296 1201     		.2byte	0x112
 1635 0298 5F020000 		.4byte	0x25f
 1636 029c 02       		.byte	0x2
 1637 029d 23       		.byte	0x23
 1638 029e 04       		.uleb128 0x4
 1639 029f 0B       		.uleb128 0xb
 1640 02a0 723600   		.ascii	"r6\000"
 1641 02a3 08       		.byte	0x8
 1642 02a4 1301     		.2byte	0x113
 1643 02a6 5F020000 		.4byte	0x25f
 1644 02aa 02       		.byte	0x2
 1645 02ab 23       		.byte	0x23
 1646 02ac 08       		.uleb128 0x8
 1647 02ad 0B       		.uleb128 0xb
 1648 02ae 723700   		.ascii	"r7\000"
 1649 02b1 08       		.byte	0x8
 1650 02b2 1401     		.2byte	0x114
 1651 02b4 5F020000 		.4byte	0x25f
 1652 02b8 02       		.byte	0x2
 1653 02b9 23       		.byte	0x23
 1654 02ba 0C       		.uleb128 0xc
 1655 02bb 0B       		.uleb128 0xb
 1656 02bc 723800   		.ascii	"r8\000"
 1657 02bf 08       		.byte	0x8
 1658 02c0 1501     		.2byte	0x115
 1659 02c2 5F020000 		.4byte	0x25f
 1660 02c6 02       		.byte	0x2
 1661 02c7 23       		.byte	0x23
 1662 02c8 10       		.uleb128 0x10
ARM GAS  C:\Users\z80\AppData\Local\Temp\ccZTFaGT.s 			page 31


 1663 02c9 0B       		.uleb128 0xb
 1664 02ca 723900   		.ascii	"r9\000"
 1665 02cd 08       		.byte	0x8
 1666 02ce 1601     		.2byte	0x116
 1667 02d0 5F020000 		.4byte	0x25f
 1668 02d4 02       		.byte	0x2
 1669 02d5 23       		.byte	0x23
 1670 02d6 14       		.uleb128 0x14
 1671 02d7 0B       		.uleb128 0xb
 1672 02d8 72313000 		.ascii	"r10\000"
 1673 02dc 08       		.byte	0x8
 1674 02dd 1701     		.2byte	0x117
 1675 02df 5F020000 		.4byte	0x25f
 1676 02e3 02       		.byte	0x2
 1677 02e4 23       		.byte	0x23
 1678 02e5 18       		.uleb128 0x18
 1679 02e6 0B       		.uleb128 0xb
 1680 02e7 72313100 		.ascii	"r11\000"
 1681 02eb 08       		.byte	0x8
 1682 02ec 1801     		.2byte	0x118
 1683 02ee 5F020000 		.4byte	0x25f
 1684 02f2 02       		.byte	0x2
 1685 02f3 23       		.byte	0x23
 1686 02f4 1C       		.uleb128 0x1c
 1687 02f5 0B       		.uleb128 0xb
 1688 02f6 6C7200   		.ascii	"lr\000"
 1689 02f9 08       		.byte	0x8
 1690 02fa 1901     		.2byte	0x119
 1691 02fc 5F020000 		.4byte	0x25f
 1692 0300 02       		.byte	0x2
 1693 0301 23       		.byte	0x23
 1694 0302 20       		.uleb128 0x20
 1695 0303 00       		.byte	0x0
 1696 0304 0C       		.uleb128 0xc
 1697 0305 24010000 		.4byte	.LASF44
 1698 0309 04       		.byte	0x4
 1699 030a 08       		.byte	0x8
 1700 030b 2301     		.2byte	0x123
 1701 030d 21030000 		.4byte	0x321
 1702 0311 0B       		.uleb128 0xb
 1703 0312 72313300 		.ascii	"r13\000"
 1704 0316 08       		.byte	0x8
 1705 0317 2401     		.2byte	0x124
 1706 0319 21030000 		.4byte	0x321
 1707 031d 02       		.byte	0x2
 1708 031e 23       		.byte	0x23
 1709 031f 00       		.uleb128 0x0
 1710 0320 00       		.byte	0x0
 1711 0321 09       		.uleb128 0x9
 1712 0322 04       		.byte	0x4
 1713 0323 77020000 		.4byte	0x277
 1714 0327 0D       		.uleb128 0xd
 1715 0328 04       		.byte	0x4
 1716 0329 07       		.byte	0x7
 1717 032a 03       		.uleb128 0x3
 1718 032b 14030000 		.4byte	.LASF45
 1719 032f 09       		.byte	0x9
ARM GAS  C:\Users\z80\AppData\Local\Temp\ccZTFaGT.s 			page 32


 1720 0330 53       		.byte	0x53
 1721 0331 35030000 		.4byte	0x335
 1722 0335 09       		.uleb128 0x9
 1723 0336 04       		.byte	0x4
 1724 0337 3B030000 		.4byte	0x33b
 1725 033b 0E       		.uleb128 0xe
 1726 033c 01       		.byte	0x1
 1727 033d 47030000 		.4byte	0x347
 1728 0341 0F       		.uleb128 0xf
 1729 0342 6A020000 		.4byte	0x26a
 1730 0346 00       		.byte	0x0
 1731 0347 03       		.uleb128 0x3
 1732 0348 E6020000 		.4byte	.LASF46
 1733 034c 09       		.byte	0x9
 1734 034d 58       		.byte	0x58
 1735 034e 52030000 		.4byte	0x352
 1736 0352 05       		.uleb128 0x5
 1737 0353 E6020000 		.4byte	.LASF46
 1738 0357 14       		.byte	0x14
 1739 0358 09       		.byte	0x9
 1740 0359 5F       		.byte	0x5f
 1741 035a A5030000 		.4byte	0x3a5
 1742 035e 06       		.uleb128 0x6
 1743 035f 0A010000 		.4byte	.LASF47
 1744 0363 09       		.byte	0x9
 1745 0364 60       		.byte	0x60
 1746 0365 A5030000 		.4byte	0x3a5
 1747 0369 02       		.byte	0x2
 1748 036a 23       		.byte	0x23
 1749 036b 00       		.uleb128 0x0
 1750 036c 06       		.uleb128 0x6
 1751 036d D3000000 		.4byte	.LASF48
 1752 0371 09       		.byte	0x9
 1753 0372 62       		.byte	0x62
 1754 0373 A5030000 		.4byte	0x3a5
 1755 0377 02       		.byte	0x2
 1756 0378 23       		.byte	0x23
 1757 0379 04       		.uleb128 0x4
 1758 037a 06       		.uleb128 0x6
 1759 037b AC010000 		.4byte	.LASF49
 1760 037f 09       		.byte	0x9
 1761 0380 64       		.byte	0x64
 1762 0381 DD000000 		.4byte	0xdd
 1763 0385 02       		.byte	0x2
 1764 0386 23       		.byte	0x23
 1765 0387 08       		.uleb128 0x8
 1766 0388 06       		.uleb128 0x6
 1767 0389 B4010000 		.4byte	.LASF50
 1768 038d 09       		.byte	0x9
 1769 038e 65       		.byte	0x65
 1770 038f 2A030000 		.4byte	0x32a
 1771 0393 02       		.byte	0x2
 1772 0394 23       		.byte	0x23
 1773 0395 0C       		.uleb128 0xc
 1774 0396 06       		.uleb128 0x6
 1775 0397 50030000 		.4byte	.LASF51
 1776 039b 09       		.byte	0x9
ARM GAS  C:\Users\z80\AppData\Local\Temp\ccZTFaGT.s 			page 33


 1777 039c 67       		.byte	0x67
 1778 039d 6A020000 		.4byte	0x26a
 1779 03a1 02       		.byte	0x2
 1780 03a2 23       		.byte	0x23
 1781 03a3 10       		.uleb128 0x10
 1782 03a4 00       		.byte	0x0
 1783 03a5 09       		.uleb128 0x9
 1784 03a6 04       		.byte	0x4
 1785 03a7 47030000 		.4byte	0x347
 1786 03ab 08       		.uleb128 0x8
 1787 03ac 10       		.byte	0x10
 1788 03ad 09       		.byte	0x9
 1789 03ae 71       		.byte	0x71
 1790 03af EC030000 		.4byte	0x3ec
 1791 03b3 06       		.uleb128 0x6
 1792 03b4 0A010000 		.4byte	.LASF47
 1793 03b8 09       		.byte	0x9
 1794 03b9 72       		.byte	0x72
 1795 03ba A5030000 		.4byte	0x3a5
 1796 03be 02       		.byte	0x2
 1797 03bf 23       		.byte	0x23
 1798 03c0 00       		.uleb128 0x0
 1799 03c1 06       		.uleb128 0x6
 1800 03c2 D3000000 		.4byte	.LASF48
 1801 03c6 09       		.byte	0x9
 1802 03c7 74       		.byte	0x74
 1803 03c8 A5030000 		.4byte	0x3a5
 1804 03cc 02       		.byte	0x2
 1805 03cd 23       		.byte	0x23
 1806 03ce 04       		.uleb128 0x4
 1807 03cf 06       		.uleb128 0x6
 1808 03d0 AC010000 		.4byte	.LASF49
 1809 03d4 09       		.byte	0x9
 1810 03d5 76       		.byte	0x76
 1811 03d6 DD000000 		.4byte	0xdd
 1812 03da 02       		.byte	0x2
 1813 03db 23       		.byte	0x23
 1814 03dc 08       		.uleb128 0x8
 1815 03dd 06       		.uleb128 0x6
 1816 03de BF030000 		.4byte	.LASF52
 1817 03e2 09       		.byte	0x9
 1818 03e3 77       		.byte	0x77
 1819 03e4 EC030000 		.4byte	0x3ec
 1820 03e8 02       		.byte	0x2
 1821 03e9 23       		.byte	0x23
 1822 03ea 0C       		.uleb128 0xc
 1823 03eb 00       		.byte	0x0
 1824 03ec 10       		.uleb128 0x10
 1825 03ed DD000000 		.4byte	0xdd
 1826 03f1 03       		.uleb128 0x3
 1827 03f2 CA030000 		.4byte	.LASF53
 1828 03f6 09       		.byte	0x9
 1829 03f7 78       		.byte	0x78
 1830 03f8 AB030000 		.4byte	0x3ab
 1831 03fc 08       		.uleb128 0x8
 1832 03fd 20       		.byte	0x20
 1833 03fe 0A       		.byte	0xa
ARM GAS  C:\Users\z80\AppData\Local\Temp\ccZTFaGT.s 			page 34


 1834 03ff 5E       		.byte	0x5e
 1835 0400 67040000 		.4byte	0x467
 1836 0404 06       		.uleb128 0x6
 1837 0405 DE020000 		.4byte	.LASF54
 1838 0409 0A       		.byte	0xa
 1839 040a 5F       		.byte	0x5f
 1840 040b 32020000 		.4byte	0x232
 1841 040f 02       		.byte	0x2
 1842 0410 23       		.byte	0x23
 1843 0411 00       		.uleb128 0x0
 1844 0412 06       		.uleb128 0x6
 1845 0413 89020000 		.4byte	.LASF55
 1846 0417 0A       		.byte	0xa
 1847 0418 60       		.byte	0x60
 1848 0419 BC000000 		.4byte	0xbc
 1849 041d 02       		.byte	0x2
 1850 041e 23       		.byte	0x23
 1851 041f 08       		.uleb128 0x8
 1852 0420 06       		.uleb128 0x6
 1853 0421 D7010000 		.4byte	.LASF56
 1854 0425 0A       		.byte	0xa
 1855 0426 62       		.byte	0x62
 1856 0427 04030000 		.4byte	0x304
 1857 042b 02       		.byte	0x2
 1858 042c 23       		.byte	0x23
 1859 042d 0C       		.uleb128 0xc
 1860 042e 06       		.uleb128 0x6
 1861 042f C2000000 		.4byte	.LASF57
 1862 0433 0A       		.byte	0xa
 1863 0434 65       		.byte	0x65
 1864 0435 2C020000 		.4byte	0x22c
 1865 0439 02       		.byte	0x2
 1866 043a 23       		.byte	0x23
 1867 043b 10       		.uleb128 0x10
 1868 043c 06       		.uleb128 0x6
 1869 043d 30020000 		.4byte	.LASF58
 1870 0441 0A       		.byte	0xa
 1871 0442 66       		.byte	0x66
 1872 0443 2C020000 		.4byte	0x22c
 1873 0447 02       		.byte	0x2
 1874 0448 23       		.byte	0x23
 1875 0449 14       		.uleb128 0x14
 1876 044a 06       		.uleb128 0x6
 1877 044b D1030000 		.4byte	.LASF59
 1878 044f 0A       		.byte	0xa
 1879 0450 6A       		.byte	0x6a
 1880 0451 E8000000 		.4byte	0xe8
 1881 0455 02       		.byte	0x2
 1882 0456 23       		.byte	0x23
 1883 0457 18       		.uleb128 0x18
 1884 0458 06       		.uleb128 0x6
 1885 0459 26020000 		.4byte	.LASF60
 1886 045d 0A       		.byte	0xa
 1887 045e 6C       		.byte	0x6c
 1888 045f 2C020000 		.4byte	0x22c
 1889 0463 02       		.byte	0x2
 1890 0464 23       		.byte	0x23
ARM GAS  C:\Users\z80\AppData\Local\Temp\ccZTFaGT.s 			page 35


 1891 0465 1C       		.uleb128 0x1c
 1892 0466 00       		.byte	0x0
 1893 0467 03       		.uleb128 0x3
 1894 0468 62030000 		.4byte	.LASF61
 1895 046c 0A       		.byte	0xa
 1896 046d 6E       		.byte	0x6e
 1897 046e FC030000 		.4byte	0x3fc
 1898 0472 05       		.uleb128 0x5
 1899 0473 81010000 		.4byte	.LASF62
 1900 0477 10       		.byte	0x10
 1901 0478 0B       		.byte	0xb
 1902 0479 2C       		.byte	0x2c
 1903 047a A9040000 		.4byte	0x4a9
 1904 047e 06       		.uleb128 0x6
 1905 047f 87000000 		.4byte	.LASF63
 1906 0483 0B       		.byte	0xb
 1907 0484 2D       		.byte	0x2d
 1908 0485 32020000 		.4byte	0x232
 1909 0489 02       		.byte	0x2
 1910 048a 23       		.byte	0x23
 1911 048b 00       		.uleb128 0x0
 1912 048c 06       		.uleb128 0x6
 1913 048d DB030000 		.4byte	.LASF64
 1914 0491 0B       		.byte	0xb
 1915 0492 2F       		.byte	0x2f
 1916 0493 2C020000 		.4byte	0x22c
 1917 0497 02       		.byte	0x2
 1918 0498 23       		.byte	0x23
 1919 0499 08       		.uleb128 0x8
 1920 049a 06       		.uleb128 0x6
 1921 049b F8020000 		.4byte	.LASF65
 1922 049f 0B       		.byte	0xb
 1923 04a0 31       		.byte	0x31
 1924 04a1 A9040000 		.4byte	0x4a9
 1925 04a5 02       		.byte	0x2
 1926 04a6 23       		.byte	0x23
 1927 04a7 0C       		.uleb128 0xc
 1928 04a8 00       		.byte	0x0
 1929 04a9 09       		.uleb128 0x9
 1930 04aa 04       		.byte	0x4
 1931 04ab 72040000 		.4byte	0x472
 1932 04af 03       		.uleb128 0x3
 1933 04b0 81010000 		.4byte	.LASF62
 1934 04b4 0B       		.byte	0xb
 1935 04b5 33       		.byte	0x33
 1936 04b6 72040000 		.4byte	0x472
 1937 04ba 11       		.uleb128 0x11
 1938 04bb 04       		.byte	0x4
 1939 04bc 07       		.byte	0x7
 1940 04bd 90       		.byte	0x90
 1941 04be EF040000 		.4byte	0x4ef
 1942 04c2 12       		.uleb128 0x12
 1943 04c3 1A000000 		.4byte	.LASF66
 1944 04c7 07       		.byte	0x7
 1945 04c8 97       		.byte	0x97
 1946 04c9 C7000000 		.4byte	0xc7
 1947 04cd 12       		.uleb128 0x12
ARM GAS  C:\Users\z80\AppData\Local\Temp\ccZTFaGT.s 			page 36


 1948 04ce 53000000 		.4byte	.LASF67
 1949 04d2 07       		.byte	0x7
 1950 04d3 9E       		.byte	0x9e
 1951 04d4 C7000000 		.4byte	0xc7
 1952 04d8 12       		.uleb128 0x12
 1953 04d9 B1030000 		.4byte	.LASF68
 1954 04dd 07       		.byte	0x7
 1955 04de A5       		.byte	0xa5
 1956 04df 6A020000 		.4byte	0x26a
 1957 04e3 12       		.uleb128 0x12
 1958 04e4 90020000 		.4byte	.LASF69
 1959 04e8 07       		.byte	0x7
 1960 04e9 AC       		.byte	0xac
 1961 04ea D2000000 		.4byte	0xd2
 1962 04ee 00       		.byte	0x0
 1963 04ef 09       		.uleb128 0x9
 1964 04f0 04       		.byte	0x4
 1965 04f1 F5040000 		.4byte	0x4f5
 1966 04f5 13       		.uleb128 0x13
 1967 04f6 FA040000 		.4byte	0x4fa
 1968 04fa 04       		.uleb128 0x4
 1969 04fb 01       		.byte	0x1
 1970 04fc 08       		.byte	0x8
 1971 04fd F3020000 		.4byte	.LASF70
 1972 0501 09       		.uleb128 0x9
 1973 0502 04       		.byte	0x4
 1974 0503 6C020000 		.4byte	0x26c
 1975 0507 09       		.uleb128 0x9
 1976 0508 04       		.byte	0x4
 1977 0509 AF040000 		.4byte	0x4af
 1978 050d 03       		.uleb128 0x3
 1979 050e 00000000 		.4byte	.LASF71
 1980 0512 07       		.byte	0x7
 1981 0513 DF       		.byte	0xdf
 1982 0514 18050000 		.4byte	0x518
 1983 0518 09       		.uleb128 0x9
 1984 0519 04       		.byte	0x4
 1985 051a 1E050000 		.4byte	0x51e
 1986 051e 14       		.uleb128 0x14
 1987 051f 01       		.byte	0x1
 1988 0520 C7000000 		.4byte	0xc7
 1989 0524 2E050000 		.4byte	0x52e
 1990 0528 0F       		.uleb128 0xf
 1991 0529 6A020000 		.4byte	0x26a
 1992 052d 00       		.byte	0x0
 1993 052e 09       		.uleb128 0x9
 1994 052f 04       		.byte	0x4
 1995 0530 49000000 		.4byte	0x49
 1996 0534 15       		.uleb128 0x15
 1997 0535 1A020000 		.4byte	.LASF97
 1998 0539 01       		.byte	0x1
 1999 053a 50       		.byte	0x50
 2000 053b 01       		.byte	0x1
 2001 053c 00000000 		.4byte	.LFB5
 2002 0540 18000000 		.4byte	.LFE5
 2003 0544 00000000 		.4byte	.LLST0
 2004 0548 68050000 		.4byte	0x568
ARM GAS  C:\Users\z80\AppData\Local\Temp\ccZTFaGT.s 			page 37


 2005 054c 16       		.uleb128 0x16
 2006 054d 747000   		.ascii	"tp\000"
 2007 0550 01       		.byte	0x1
 2008 0551 50       		.byte	0x50
 2009 0552 2C020000 		.4byte	0x22c
 2010 0556 02       		.byte	0x2
 2011 0557 91       		.byte	0x91
 2012 0558 7C       		.sleb128 -4
 2013 0559 16       		.uleb128 0x16
 2014 055a 746C7000 		.ascii	"tlp\000"
 2015 055e 01       		.byte	0x1
 2016 055f 50       		.byte	0x50
 2017 0560 68050000 		.4byte	0x568
 2018 0564 02       		.byte	0x2
 2019 0565 91       		.byte	0x91
 2020 0566 78       		.sleb128 -8
 2021 0567 00       		.byte	0x0
 2022 0568 09       		.uleb128 0x9
 2023 0569 04       		.byte	0x4
 2024 056a 54020000 		.4byte	0x254
 2025 056e 17       		.uleb128 0x17
 2026 056f B6000000 		.4byte	.LASF98
 2027 0573 01       		.byte	0x1
 2028 0574 56       		.byte	0x56
 2029 0575 01       		.byte	0x1
 2030 0576 2C020000 		.4byte	0x22c
 2031 057a 00000000 		.4byte	.LFB6
 2032 057e 1A000000 		.4byte	.LFE6
 2033 0582 20000000 		.4byte	.LLST1
 2034 0586 A6050000 		.4byte	0x5a6
 2035 058a 16       		.uleb128 0x16
 2036 058b 746C7000 		.ascii	"tlp\000"
 2037 058f 01       		.byte	0x1
 2038 0590 56       		.byte	0x56
 2039 0591 68050000 		.4byte	0x568
 2040 0595 02       		.byte	0x2
 2041 0596 91       		.byte	0x91
 2042 0597 74       		.sleb128 -12
 2043 0598 18       		.uleb128 0x18
 2044 0599 747000   		.ascii	"tp\000"
 2045 059c 01       		.byte	0x1
 2046 059d 58       		.byte	0x58
 2047 059e 2C020000 		.4byte	0x22c
 2048 05a2 02       		.byte	0x2
 2049 05a3 91       		.byte	0x91
 2050 05a4 7C       		.sleb128 -4
 2051 05a5 00       		.byte	0x0
 2052 05a6 19       		.uleb128 0x19
 2053 05a7 01       		.byte	0x1
 2054 05a8 D1020000 		.4byte	.LASF75
 2055 05ac 02       		.byte	0x2
 2056 05ad 4C       		.byte	0x4c
 2057 05ae 01       		.byte	0x1
 2058 05af 2C020000 		.4byte	0x22c
 2059 05b3 00000000 		.4byte	.LFB7
 2060 05b7 AE000000 		.4byte	.LFE7
 2061 05bb 40000000 		.4byte	.LLST2
ARM GAS  C:\Users\z80\AppData\Local\Temp\ccZTFaGT.s 			page 38


 2062 05bf DF050000 		.4byte	0x5df
 2063 05c3 16       		.uleb128 0x16
 2064 05c4 747000   		.ascii	"tp\000"
 2065 05c7 02       		.byte	0x2
 2066 05c8 4C       		.byte	0x4c
 2067 05c9 2C020000 		.4byte	0x22c
 2068 05cd 02       		.byte	0x2
 2069 05ce 91       		.byte	0x91
 2070 05cf 7C       		.sleb128 -4
 2071 05d0 1A       		.uleb128 0x1a
 2072 05d1 15000000 		.4byte	.LASF72
 2073 05d5 02       		.byte	0x2
 2074 05d6 4C       		.byte	0x4c
 2075 05d7 BC000000 		.4byte	0xbc
 2076 05db 02       		.byte	0x2
 2077 05dc 91       		.byte	0x91
 2078 05dd 78       		.sleb128 -8
 2079 05de 00       		.byte	0x0
 2080 05df 1B       		.uleb128 0x1b
 2081 05e0 01       		.byte	0x1
 2082 05e1 A6020000 		.4byte	.LASF83
 2083 05e5 02       		.byte	0x2
 2084 05e6 7B       		.byte	0x7b
 2085 05e7 01       		.byte	0x1
 2086 05e8 00000000 		.4byte	.LFB8
 2087 05ec 2A000000 		.4byte	.LFE8
 2088 05f0 60000000 		.4byte	.LLST3
 2089 05f4 21060000 		.4byte	0x621
 2090 05f8 1A       		.uleb128 0x1a
 2091 05f9 C8010000 		.4byte	.LASF73
 2092 05fd 02       		.byte	0x2
 2093 05fe 7B       		.byte	0x7b
 2094 05ff 2E050000 		.4byte	0x52e
 2095 0603 02       		.byte	0x2
 2096 0604 91       		.byte	0x91
 2097 0605 7C       		.sleb128 -4
 2098 0606 1A       		.uleb128 0x1a
 2099 0607 41030000 		.4byte	.LASF74
 2100 060b 02       		.byte	0x2
 2101 060c 7B       		.byte	0x7b
 2102 060d 2E050000 		.4byte	0x52e
 2103 0611 02       		.byte	0x2
 2104 0612 91       		.byte	0x91
 2105 0613 78       		.sleb128 -8
 2106 0614 16       		.uleb128 0x16
 2107 0615 7600     		.ascii	"v\000"
 2108 0617 02       		.byte	0x2
 2109 0618 7B       		.byte	0x7b
 2110 0619 49000000 		.4byte	0x49
 2111 061d 02       		.byte	0x2
 2112 061e 91       		.byte	0x91
 2113 061f 77       		.sleb128 -9
 2114 0620 00       		.byte	0x0
 2115 0621 19       		.uleb128 0x19
 2116 0622 01       		.byte	0x1
 2117 0623 8F000000 		.4byte	.LASF76
 2118 0627 02       		.byte	0x2
ARM GAS  C:\Users\z80\AppData\Local\Temp\ccZTFaGT.s 			page 39


 2119 0628 9A       		.byte	0x9a
 2120 0629 01       		.byte	0x1
 2121 062a 2C020000 		.4byte	0x22c
 2122 062e 00000000 		.4byte	.LFB9
 2123 0632 74000000 		.4byte	.LFE9
 2124 0636 80000000 		.4byte	.LLST4
 2125 063a 91060000 		.4byte	0x691
 2126 063e 16       		.uleb128 0x16
 2127 063f 77737000 		.ascii	"wsp\000"
 2128 0643 02       		.byte	0x2
 2129 0644 9A       		.byte	0x9a
 2130 0645 6A020000 		.4byte	0x26a
 2131 0649 02       		.byte	0x2
 2132 064a 91       		.byte	0x91
 2133 064b 6C       		.sleb128 -20
 2134 064c 1A       		.uleb128 0x1a
 2135 064d 2C010000 		.4byte	.LASF77
 2136 0651 02       		.byte	0x2
 2137 0652 9A       		.byte	0x9a
 2138 0653 30000000 		.4byte	0x30
 2139 0657 02       		.byte	0x2
 2140 0658 91       		.byte	0x91
 2141 0659 68       		.sleb128 -24
 2142 065a 1A       		.uleb128 0x1a
 2143 065b 15000000 		.4byte	.LASF72
 2144 065f 02       		.byte	0x2
 2145 0660 9B       		.byte	0x9b
 2146 0661 BC000000 		.4byte	0xbc
 2147 0665 02       		.byte	0x2
 2148 0666 91       		.byte	0x91
 2149 0667 64       		.sleb128 -28
 2150 0668 16       		.uleb128 0x16
 2151 0669 706600   		.ascii	"pf\000"
 2152 066c 02       		.byte	0x2
 2153 066d 9B       		.byte	0x9b
 2154 066e 0D050000 		.4byte	0x50d
 2155 0672 02       		.byte	0x2
 2156 0673 91       		.byte	0x91
 2157 0674 60       		.sleb128 -32
 2158 0675 16       		.uleb128 0x16
 2159 0676 61726700 		.ascii	"arg\000"
 2160 067a 02       		.byte	0x2
 2161 067b 9B       		.byte	0x9b
 2162 067c 6A020000 		.4byte	0x26a
 2163 0680 02       		.byte	0x2
 2164 0681 91       		.byte	0x91
 2165 0682 00       		.sleb128 0
 2166 0683 18       		.uleb128 0x18
 2167 0684 747000   		.ascii	"tp\000"
 2168 0687 02       		.byte	0x2
 2169 0688 9D       		.byte	0x9d
 2170 0689 2C020000 		.4byte	0x22c
 2171 068d 02       		.byte	0x2
 2172 068e 91       		.byte	0x91
 2173 068f 74       		.sleb128 -12
 2174 0690 00       		.byte	0x0
 2175 0691 19       		.uleb128 0x19
ARM GAS  C:\Users\z80\AppData\Local\Temp\ccZTFaGT.s 			page 40


 2176 0692 01       		.byte	0x1
 2177 0693 9A010000 		.4byte	.LASF78
 2178 0697 02       		.byte	0x2
 2179 0698 B8       		.byte	0xb8
 2180 0699 01       		.byte	0x1
 2181 069a 2C020000 		.4byte	0x22c
 2182 069e 00000000 		.4byte	.LFB10
 2183 06a2 76000000 		.4byte	.LFE10
 2184 06a6 AC000000 		.4byte	.LLST5
 2185 06aa 33070000 		.4byte	0x733
 2186 06ae 16       		.uleb128 0x16
 2187 06af 77737000 		.ascii	"wsp\000"
 2188 06b3 02       		.byte	0x2
 2189 06b4 B8       		.byte	0xb8
 2190 06b5 6A020000 		.4byte	0x26a
 2191 06b9 02       		.byte	0x2
 2192 06ba 91       		.byte	0x91
 2193 06bb 6C       		.sleb128 -20
 2194 06bc 1A       		.uleb128 0x1a
 2195 06bd 2C010000 		.4byte	.LASF77
 2196 06c1 02       		.byte	0x2
 2197 06c2 B8       		.byte	0xb8
 2198 06c3 30000000 		.4byte	0x30
 2199 06c7 02       		.byte	0x2
 2200 06c8 91       		.byte	0x91
 2201 06c9 68       		.sleb128 -24
 2202 06ca 1A       		.uleb128 0x1a
 2203 06cb 15000000 		.4byte	.LASF72
 2204 06cf 02       		.byte	0x2
 2205 06d0 B9       		.byte	0xb9
 2206 06d1 BC000000 		.4byte	0xbc
 2207 06d5 02       		.byte	0x2
 2208 06d6 91       		.byte	0x91
 2209 06d7 64       		.sleb128 -28
 2210 06d8 16       		.uleb128 0x16
 2211 06d9 706600   		.ascii	"pf\000"
 2212 06dc 02       		.byte	0x2
 2213 06dd B9       		.byte	0xb9
 2214 06de 0D050000 		.4byte	0x50d
 2215 06e2 02       		.byte	0x2
 2216 06e3 91       		.byte	0x91
 2217 06e4 60       		.sleb128 -32
 2218 06e5 16       		.uleb128 0x16
 2219 06e6 61726700 		.ascii	"arg\000"
 2220 06ea 02       		.byte	0x2
 2221 06eb B9       		.byte	0xb9
 2222 06ec 6A020000 		.4byte	0x26a
 2223 06f0 02       		.byte	0x2
 2224 06f1 91       		.byte	0x91
 2225 06f2 00       		.sleb128 0
 2226 06f3 18       		.uleb128 0x18
 2227 06f4 747000   		.ascii	"tp\000"
 2228 06f7 02       		.byte	0x2
 2229 06f8 BA       		.byte	0xba
 2230 06f9 2C020000 		.4byte	0x22c
 2231 06fd 02       		.byte	0x2
 2232 06fe 91       		.byte	0x91
ARM GAS  C:\Users\z80\AppData\Local\Temp\ccZTFaGT.s 			page 41


 2233 06ff 74       		.sleb128 -12
 2234 0700 1C       		.uleb128 0x1c
 2235 0701 38000000 		.4byte	.LBB2
 2236 0705 40000000 		.4byte	.LBE2
 2237 0709 1B070000 		.4byte	0x71b
 2238 070d 18       		.uleb128 0x18
 2239 070e 746D7000 		.ascii	"tmp\000"
 2240 0712 02       		.byte	0x2
 2241 0713 C4       		.byte	0xc4
 2242 0714 7B000000 		.4byte	0x7b
 2243 0718 01       		.byte	0x1
 2244 0719 53       		.byte	0x53
 2245 071a 00       		.byte	0x0
 2246 071b 1D       		.uleb128 0x1d
 2247 071c 66000000 		.4byte	.LBB3
 2248 0720 6E000000 		.4byte	.LBE3
 2249 0724 18       		.uleb128 0x18
 2250 0725 746D7000 		.ascii	"tmp\000"
 2251 0729 02       		.byte	0x2
 2252 072a C6       		.byte	0xc6
 2253 072b 7B000000 		.4byte	0x7b
 2254 072f 01       		.byte	0x1
 2255 0730 53       		.byte	0x53
 2256 0731 00       		.byte	0x0
 2257 0732 00       		.byte	0x0
 2258 0733 19       		.uleb128 0x19
 2259 0734 01       		.byte	0x1
 2260 0735 DB000000 		.4byte	.LASF79
 2261 0739 02       		.byte	0x2
 2262 073a D6       		.byte	0xd6
 2263 073b 01       		.byte	0x1
 2264 073c BC000000 		.4byte	0xbc
 2265 0740 00000000 		.4byte	.LFB11
 2266 0744 94000000 		.4byte	.LFE11
 2267 0748 D8000000 		.4byte	.LLST6
 2268 074c 9F070000 		.4byte	0x79f
 2269 0750 1A       		.uleb128 0x1a
 2270 0751 4A010000 		.4byte	.LASF80
 2271 0755 02       		.byte	0x2
 2272 0756 D6       		.byte	0xd6
 2273 0757 BC000000 		.4byte	0xbc
 2274 075b 02       		.byte	0x2
 2275 075c 91       		.byte	0x91
 2276 075d 6C       		.sleb128 -20
 2277 075e 1E       		.uleb128 0x1e
 2278 075f 87010000 		.4byte	.LASF81
 2279 0763 02       		.byte	0x2
 2280 0764 D7       		.byte	0xd7
 2281 0765 BC000000 		.4byte	0xbc
 2282 0769 02       		.byte	0x2
 2283 076a 91       		.byte	0x91
 2284 076b 74       		.sleb128 -12
 2285 076c 1C       		.uleb128 0x1c
 2286 076d 18000000 		.4byte	.LBB4
 2287 0771 20000000 		.4byte	.LBE4
 2288 0775 87070000 		.4byte	0x787
 2289 0779 18       		.uleb128 0x18
ARM GAS  C:\Users\z80\AppData\Local\Temp\ccZTFaGT.s 			page 42


 2290 077a 746D7000 		.ascii	"tmp\000"
 2291 077e 02       		.byte	0x2
 2292 077f DB       		.byte	0xdb
 2293 0780 7B000000 		.4byte	0x7b
 2294 0784 01       		.byte	0x1
 2295 0785 53       		.byte	0x53
 2296 0786 00       		.byte	0x0
 2297 0787 1D       		.uleb128 0x1d
 2298 0788 84000000 		.4byte	.LBB5
 2299 078c 8C000000 		.4byte	.LBE5
 2300 0790 18       		.uleb128 0x18
 2301 0791 746D7000 		.ascii	"tmp\000"
 2302 0795 02       		.byte	0x2
 2303 0796 E6       		.byte	0xe6
 2304 0797 7B000000 		.4byte	0x7b
 2305 079b 01       		.byte	0x1
 2306 079c 53       		.byte	0x53
 2307 079d 00       		.byte	0x0
 2308 079e 00       		.byte	0x0
 2309 079f 19       		.uleb128 0x19
 2310 07a0 01       		.byte	0x1
 2311 07a1 BC010000 		.4byte	.LASF82
 2312 07a5 02       		.byte	0x2
 2313 07a6 F7       		.byte	0xf7
 2314 07a7 01       		.byte	0x1
 2315 07a8 2C020000 		.4byte	0x22c
 2316 07ac 00000000 		.4byte	.LFB12
 2317 07b0 46000000 		.4byte	.LFE12
 2318 07b4 04010000 		.4byte	.LLST7
 2319 07b8 FC070000 		.4byte	0x7fc
 2320 07bc 16       		.uleb128 0x16
 2321 07bd 747000   		.ascii	"tp\000"
 2322 07c0 02       		.byte	0x2
 2323 07c1 F7       		.byte	0xf7
 2324 07c2 2C020000 		.4byte	0x22c
 2325 07c6 02       		.byte	0x2
 2326 07c7 91       		.byte	0x91
 2327 07c8 74       		.sleb128 -12
 2328 07c9 1C       		.uleb128 0x1c
 2329 07ca 06000000 		.4byte	.LBB6
 2330 07ce 0E000000 		.4byte	.LBE6
 2331 07d2 E4070000 		.4byte	0x7e4
 2332 07d6 18       		.uleb128 0x18
 2333 07d7 746D7000 		.ascii	"tmp\000"
 2334 07db 02       		.byte	0x2
 2335 07dc F9       		.byte	0xf9
 2336 07dd 7B000000 		.4byte	0x7b
 2337 07e1 01       		.byte	0x1
 2338 07e2 53       		.byte	0x53
 2339 07e3 00       		.byte	0x0
 2340 07e4 1D       		.uleb128 0x1d
 2341 07e5 36000000 		.4byte	.LBB7
 2342 07e9 3E000000 		.4byte	.LBE7
 2343 07ed 18       		.uleb128 0x18
 2344 07ee 746D7000 		.ascii	"tmp\000"
 2345 07f2 02       		.byte	0x2
 2346 07f3 FE       		.byte	0xfe
ARM GAS  C:\Users\z80\AppData\Local\Temp\ccZTFaGT.s 			page 43


 2347 07f4 7B000000 		.4byte	0x7b
 2348 07f8 01       		.byte	0x1
 2349 07f9 53       		.byte	0x53
 2350 07fa 00       		.byte	0x0
 2351 07fb 00       		.byte	0x0
 2352 07fc 1F       		.uleb128 0x1f
 2353 07fd 01       		.byte	0x1
 2354 07fe 5A010000 		.4byte	.LASF84
 2355 0802 02       		.byte	0x2
 2356 0803 0E01     		.2byte	0x10e
 2357 0805 01       		.byte	0x1
 2358 0806 00000000 		.4byte	.LFB13
 2359 080a 34000000 		.4byte	.LFE13
 2360 080e 30010000 		.4byte	.LLST8
 2361 0812 59080000 		.4byte	0x859
 2362 0816 20       		.uleb128 0x20
 2363 0817 747000   		.ascii	"tp\000"
 2364 081a 02       		.byte	0x2
 2365 081b 0E01     		.2byte	0x10e
 2366 081d 2C020000 		.4byte	0x22c
 2367 0821 02       		.byte	0x2
 2368 0822 91       		.byte	0x91
 2369 0823 74       		.sleb128 -12
 2370 0824 1C       		.uleb128 0x1c
 2371 0825 06000000 		.4byte	.LBB8
 2372 0829 0E000000 		.4byte	.LBE8
 2373 082d 40080000 		.4byte	0x840
 2374 0831 21       		.uleb128 0x21
 2375 0832 746D7000 		.ascii	"tmp\000"
 2376 0836 02       		.byte	0x2
 2377 0837 1001     		.2byte	0x110
 2378 0839 7B000000 		.4byte	0x7b
 2379 083d 01       		.byte	0x1
 2380 083e 53       		.byte	0x53
 2381 083f 00       		.byte	0x0
 2382 0840 1D       		.uleb128 0x1d
 2383 0841 28000000 		.4byte	.LBB9
 2384 0845 30000000 		.4byte	.LBE9
 2385 0849 21       		.uleb128 0x21
 2386 084a 746D7000 		.ascii	"tmp\000"
 2387 084e 02       		.byte	0x2
 2388 084f 1201     		.2byte	0x112
 2389 0851 7B000000 		.4byte	0x7b
 2390 0855 01       		.byte	0x1
 2391 0856 53       		.byte	0x53
 2392 0857 00       		.byte	0x0
 2393 0858 00       		.byte	0x0
 2394 0859 1F       		.uleb128 0x1f
 2395 085a 01       		.byte	0x1
 2396 085b 57030000 		.4byte	.LASF85
 2397 085f 02       		.byte	0x2
 2398 0860 2101     		.2byte	0x121
 2399 0862 01       		.byte	0x1
 2400 0863 00000000 		.4byte	.LFB14
 2401 0867 3E000000 		.4byte	.LFE14
 2402 086b 5C010000 		.4byte	.LLST9
 2403 086f B7080000 		.4byte	0x8b7
ARM GAS  C:\Users\z80\AppData\Local\Temp\ccZTFaGT.s 			page 44


 2404 0873 22       		.uleb128 0x22
 2405 0874 15020000 		.4byte	.LASF86
 2406 0878 02       		.byte	0x2
 2407 0879 2101     		.2byte	0x121
 2408 087b DD000000 		.4byte	0xdd
 2409 087f 02       		.byte	0x2
 2410 0880 91       		.byte	0x91
 2411 0881 74       		.sleb128 -12
 2412 0882 1C       		.uleb128 0x1c
 2413 0883 18000000 		.4byte	.LBB10
 2414 0887 20000000 		.4byte	.LBE10
 2415 088b 9E080000 		.4byte	0x89e
 2416 088f 21       		.uleb128 0x21
 2417 0890 746D7000 		.ascii	"tmp\000"
 2418 0894 02       		.byte	0x2
 2419 0895 2501     		.2byte	0x125
 2420 0897 7B000000 		.4byte	0x7b
 2421 089b 01       		.byte	0x1
 2422 089c 53       		.byte	0x53
 2423 089d 00       		.byte	0x0
 2424 089e 1D       		.uleb128 0x1d
 2425 089f 32000000 		.4byte	.LBB11
 2426 08a3 3A000000 		.4byte	.LBE11
 2427 08a7 21       		.uleb128 0x21
 2428 08a8 746D7000 		.ascii	"tmp\000"
 2429 08ac 02       		.byte	0x2
 2430 08ad 2701     		.2byte	0x127
 2431 08af 7B000000 		.4byte	0x7b
 2432 08b3 01       		.byte	0x1
 2433 08b4 53       		.byte	0x53
 2434 08b5 00       		.byte	0x0
 2435 08b6 00       		.byte	0x0
 2436 08b7 1F       		.uleb128 0x1f
 2437 08b8 01       		.byte	0x1
 2438 08b9 38020000 		.4byte	.LASF87
 2439 08bd 02       		.byte	0x2
 2440 08be 3201     		.2byte	0x132
 2441 08c0 01       		.byte	0x1
 2442 08c1 00000000 		.4byte	.LFB15
 2443 08c5 44000000 		.4byte	.LFE15
 2444 08c9 88010000 		.4byte	.LLST10
 2445 08cd 15090000 		.4byte	0x915
 2446 08d1 22       		.uleb128 0x22
 2447 08d2 15020000 		.4byte	.LASF86
 2448 08d6 02       		.byte	0x2
 2449 08d7 3201     		.2byte	0x132
 2450 08d9 DD000000 		.4byte	0xdd
 2451 08dd 02       		.byte	0x2
 2452 08de 91       		.byte	0x91
 2453 08df 74       		.sleb128 -12
 2454 08e0 1C       		.uleb128 0x1c
 2455 08e1 06000000 		.4byte	.LBB12
 2456 08e5 0E000000 		.4byte	.LBE12
 2457 08e9 FC080000 		.4byte	0x8fc
 2458 08ed 21       		.uleb128 0x21
 2459 08ee 746D7000 		.ascii	"tmp\000"
 2460 08f2 02       		.byte	0x2
ARM GAS  C:\Users\z80\AppData\Local\Temp\ccZTFaGT.s 			page 45


 2461 08f3 3401     		.2byte	0x134
 2462 08f5 7B000000 		.4byte	0x7b
 2463 08f9 01       		.byte	0x1
 2464 08fa 53       		.byte	0x53
 2465 08fb 00       		.byte	0x0
 2466 08fc 1D       		.uleb128 0x1d
 2467 08fd 38000000 		.4byte	.LBB13
 2468 0901 40000000 		.4byte	.LBE13
 2469 0905 21       		.uleb128 0x21
 2470 0906 746D7000 		.ascii	"tmp\000"
 2471 090a 02       		.byte	0x2
 2472 090b 3701     		.2byte	0x137
 2473 090d 7B000000 		.4byte	0x7b
 2474 0911 01       		.byte	0x1
 2475 0912 53       		.byte	0x53
 2476 0913 00       		.byte	0x0
 2477 0914 00       		.byte	0x0
 2478 0915 1F       		.uleb128 0x1f
 2479 0916 01       		.byte	0x1
 2480 0917 1D030000 		.4byte	.LASF88
 2481 091b 02       		.byte	0x2
 2482 091c 4101     		.2byte	0x141
 2483 091e 01       		.byte	0x1
 2484 091f 00000000 		.4byte	.LFB16
 2485 0923 3C000000 		.4byte	.LFE16
 2486 0927 B4010000 		.4byte	.LLST11
 2487 092b 64090000 		.4byte	0x964
 2488 092f 1C       		.uleb128 0x1c
 2489 0930 02000000 		.4byte	.LBB14
 2490 0934 0A000000 		.4byte	.LBE14
 2491 0938 4B090000 		.4byte	0x94b
 2492 093c 21       		.uleb128 0x21
 2493 093d 746D7000 		.ascii	"tmp\000"
 2494 0941 02       		.byte	0x2
 2495 0942 4301     		.2byte	0x143
 2496 0944 7B000000 		.4byte	0x7b
 2497 0948 01       		.byte	0x1
 2498 0949 53       		.byte	0x53
 2499 094a 00       		.byte	0x0
 2500 094b 1D       		.uleb128 0x1d
 2501 094c 32000000 		.4byte	.LBB15
 2502 0950 3A000000 		.4byte	.LBE15
 2503 0954 21       		.uleb128 0x21
 2504 0955 746D7000 		.ascii	"tmp\000"
 2505 0959 02       		.byte	0x2
 2506 095a 4501     		.2byte	0x145
 2507 095c 7B000000 		.4byte	0x7b
 2508 0960 01       		.byte	0x1
 2509 0961 53       		.byte	0x53
 2510 0962 00       		.byte	0x0
 2511 0963 00       		.byte	0x0
 2512 0964 1F       		.uleb128 0x1f
 2513 0965 01       		.byte	0x1
 2514 0966 7D000000 		.4byte	.LASF89
 2515 096a 02       		.byte	0x2
 2516 096b 5601     		.2byte	0x156
 2517 096d 01       		.byte	0x1
ARM GAS  C:\Users\z80\AppData\Local\Temp\ccZTFaGT.s 			page 46


 2518 096e 00000000 		.4byte	.LFB17
 2519 0972 1C000000 		.4byte	.LFE17
 2520 0976 D4010000 		.4byte	.LLST12
 2521 097a A6090000 		.4byte	0x9a6
 2522 097e 20       		.uleb128 0x20
 2523 097f 6D736700 		.ascii	"msg\000"
 2524 0983 02       		.byte	0x2
 2525 0984 5601     		.2byte	0x156
 2526 0986 C7000000 		.4byte	0xc7
 2527 098a 02       		.byte	0x2
 2528 098b 91       		.byte	0x91
 2529 098c 74       		.sleb128 -12
 2530 098d 1D       		.uleb128 0x1d
 2531 098e 06000000 		.4byte	.LBB16
 2532 0992 0E000000 		.4byte	.LBE16
 2533 0996 21       		.uleb128 0x21
 2534 0997 746D7000 		.ascii	"tmp\000"
 2535 099b 02       		.byte	0x2
 2536 099c 5801     		.2byte	0x158
 2537 099e 7B000000 		.4byte	0x7b
 2538 09a2 01       		.byte	0x1
 2539 09a3 53       		.byte	0x53
 2540 09a4 00       		.byte	0x0
 2541 09a5 00       		.byte	0x0
 2542 09a6 1F       		.uleb128 0x1f
 2543 09a7 01       		.byte	0x1
 2544 09a8 31000000 		.4byte	.LASF90
 2545 09ac 02       		.byte	0x2
 2546 09ad 6B01     		.2byte	0x16b
 2547 09af 01       		.byte	0x1
 2548 09b0 00000000 		.4byte	.LFB18
 2549 09b4 76000000 		.4byte	.LFE18
 2550 09b8 00020000 		.4byte	.LLST13
 2551 09bc DE090000 		.4byte	0x9de
 2552 09c0 20       		.uleb128 0x20
 2553 09c1 6D736700 		.ascii	"msg\000"
 2554 09c5 02       		.byte	0x2
 2555 09c6 6B01     		.2byte	0x16b
 2556 09c8 C7000000 		.4byte	0xc7
 2557 09cc 02       		.byte	0x2
 2558 09cd 91       		.byte	0x91
 2559 09ce 6C       		.sleb128 -20
 2560 09cf 21       		.uleb128 0x21
 2561 09d0 747000   		.ascii	"tp\000"
 2562 09d3 02       		.byte	0x2
 2563 09d4 6C01     		.2byte	0x16c
 2564 09d6 2C020000 		.4byte	0x22c
 2565 09da 02       		.byte	0x2
 2566 09db 91       		.byte	0x91
 2567 09dc 74       		.sleb128 -12
 2568 09dd 00       		.byte	0x0
 2569 09de 23       		.uleb128 0x23
 2570 09df 01       		.byte	0x1
 2571 09e0 46030000 		.4byte	.LASF91
 2572 09e4 02       		.byte	0x2
 2573 09e5 A101     		.2byte	0x1a1
 2574 09e7 01       		.byte	0x1
ARM GAS  C:\Users\z80\AppData\Local\Temp\ccZTFaGT.s 			page 47


 2575 09e8 C7000000 		.4byte	0xc7
 2576 09ec 00000000 		.4byte	.LFB19
 2577 09f0 84000000 		.4byte	.LFE19
 2578 09f4 2C020000 		.4byte	.LLST14
 2579 09f8 4E0A0000 		.4byte	0xa4e
 2580 09fc 20       		.uleb128 0x20
 2581 09fd 747000   		.ascii	"tp\000"
 2582 0a00 02       		.byte	0x2
 2583 0a01 A101     		.2byte	0x1a1
 2584 0a03 2C020000 		.4byte	0x22c
 2585 0a07 02       		.byte	0x2
 2586 0a08 91       		.byte	0x91
 2587 0a09 6C       		.sleb128 -20
 2588 0a0a 21       		.uleb128 0x21
 2589 0a0b 6D736700 		.ascii	"msg\000"
 2590 0a0f 02       		.byte	0x2
 2591 0a10 A201     		.2byte	0x1a2
 2592 0a12 C7000000 		.4byte	0xc7
 2593 0a16 02       		.byte	0x2
 2594 0a17 91       		.byte	0x91
 2595 0a18 74       		.sleb128 -12
 2596 0a19 1C       		.uleb128 0x1c
 2597 0a1a 18000000 		.4byte	.LBB17
 2598 0a1e 20000000 		.4byte	.LBE17
 2599 0a22 350A0000 		.4byte	0xa35
 2600 0a26 21       		.uleb128 0x21
 2601 0a27 746D7000 		.ascii	"tmp\000"
 2602 0a2b 02       		.byte	0x2
 2603 0a2c A601     		.2byte	0x1a6
 2604 0a2e 7B000000 		.4byte	0x7b
 2605 0a32 01       		.byte	0x1
 2606 0a33 53       		.byte	0x53
 2607 0a34 00       		.byte	0x0
 2608 0a35 1D       		.uleb128 0x1d
 2609 0a36 74000000 		.4byte	.LBB18
 2610 0a3a 7C000000 		.4byte	.LBE18
 2611 0a3e 21       		.uleb128 0x21
 2612 0a3f 746D7000 		.ascii	"tmp\000"
 2613 0a43 02       		.byte	0x2
 2614 0a44 B001     		.2byte	0x1b0
 2615 0a46 7B000000 		.4byte	0x7b
 2616 0a4a 01       		.byte	0x1
 2617 0a4b 53       		.byte	0x53
 2618 0a4c 00       		.byte	0x0
 2619 0a4d 00       		.byte	0x0
 2620 0a4e 24       		.uleb128 0x24
 2621 0a4f 2A000000 		.4byte	.LASF92
 2622 0a53 09       		.byte	0x9
 2623 0a54 7A       		.byte	0x7a
 2624 0a55 F1030000 		.4byte	0x3f1
 2625 0a59 01       		.byte	0x1
 2626 0a5a 01       		.byte	0x1
 2627 0a5b 24       		.uleb128 0x24
 2628 0a5c 6C030000 		.4byte	.LASF93
 2629 0a60 0A       		.byte	0xa
 2630 0a61 72       		.byte	0x72
 2631 0a62 67040000 		.4byte	0x467
ARM GAS  C:\Users\z80\AppData\Local\Temp\ccZTFaGT.s 			page 48


 2632 0a66 01       		.byte	0x1
 2633 0a67 01       		.byte	0x1
 2634 0a68 24       		.uleb128 0x24
 2635 0a69 2A000000 		.4byte	.LASF92
 2636 0a6d 09       		.byte	0x9
 2637 0a6e 7A       		.byte	0x7a
 2638 0a6f F1030000 		.4byte	0x3f1
 2639 0a73 01       		.byte	0x1
 2640 0a74 01       		.byte	0x1
 2641 0a75 24       		.uleb128 0x24
 2642 0a76 6C030000 		.4byte	.LASF93
 2643 0a7a 0A       		.byte	0xa
 2644 0a7b 72       		.byte	0x72
 2645 0a7c 67040000 		.4byte	0x467
 2646 0a80 01       		.byte	0x1
 2647 0a81 01       		.byte	0x1
 2648 0a82 00       		.byte	0x0
 2649              		.section	.debug_abbrev
 2650 0000 01       		.uleb128 0x1
 2651 0001 11       		.uleb128 0x11
 2652 0002 01       		.byte	0x1
 2653 0003 25       		.uleb128 0x25
 2654 0004 0E       		.uleb128 0xe
 2655 0005 13       		.uleb128 0x13
 2656 0006 0B       		.uleb128 0xb
 2657 0007 03       		.uleb128 0x3
 2658 0008 0E       		.uleb128 0xe
 2659 0009 1B       		.uleb128 0x1b
 2660 000a 0E       		.uleb128 0xe
 2661 000b 11       		.uleb128 0x11
 2662 000c 01       		.uleb128 0x1
 2663 000d 52       		.uleb128 0x52
 2664 000e 01       		.uleb128 0x1
 2665 000f 55       		.uleb128 0x55
 2666 0010 06       		.uleb128 0x6
 2667 0011 10       		.uleb128 0x10
 2668 0012 06       		.uleb128 0x6
 2669 0013 00       		.byte	0x0
 2670 0014 00       		.byte	0x0
 2671 0015 02       		.uleb128 0x2
 2672 0016 24       		.uleb128 0x24
 2673 0017 00       		.byte	0x0
 2674 0018 0B       		.uleb128 0xb
 2675 0019 0B       		.uleb128 0xb
 2676 001a 3E       		.uleb128 0x3e
 2677 001b 0B       		.uleb128 0xb
 2678 001c 03       		.uleb128 0x3
 2679 001d 08       		.uleb128 0x8
 2680 001e 00       		.byte	0x0
 2681 001f 00       		.byte	0x0
 2682 0020 03       		.uleb128 0x3
 2683 0021 16       		.uleb128 0x16
 2684 0022 00       		.byte	0x0
 2685 0023 03       		.uleb128 0x3
 2686 0024 0E       		.uleb128 0xe
 2687 0025 3A       		.uleb128 0x3a
 2688 0026 0B       		.uleb128 0xb
ARM GAS  C:\Users\z80\AppData\Local\Temp\ccZTFaGT.s 			page 49


 2689 0027 3B       		.uleb128 0x3b
 2690 0028 0B       		.uleb128 0xb
 2691 0029 49       		.uleb128 0x49
 2692 002a 13       		.uleb128 0x13
 2693 002b 00       		.byte	0x0
 2694 002c 00       		.byte	0x0
 2695 002d 04       		.uleb128 0x4
 2696 002e 24       		.uleb128 0x24
 2697 002f 00       		.byte	0x0
 2698 0030 0B       		.uleb128 0xb
 2699 0031 0B       		.uleb128 0xb
 2700 0032 3E       		.uleb128 0x3e
 2701 0033 0B       		.uleb128 0xb
 2702 0034 03       		.uleb128 0x3
 2703 0035 0E       		.uleb128 0xe
 2704 0036 00       		.byte	0x0
 2705 0037 00       		.byte	0x0
 2706 0038 05       		.uleb128 0x5
 2707 0039 13       		.uleb128 0x13
 2708 003a 01       		.byte	0x1
 2709 003b 03       		.uleb128 0x3
 2710 003c 0E       		.uleb128 0xe
 2711 003d 0B       		.uleb128 0xb
 2712 003e 0B       		.uleb128 0xb
 2713 003f 3A       		.uleb128 0x3a
 2714 0040 0B       		.uleb128 0xb
 2715 0041 3B       		.uleb128 0x3b
 2716 0042 0B       		.uleb128 0xb
 2717 0043 01       		.uleb128 0x1
 2718 0044 13       		.uleb128 0x13
 2719 0045 00       		.byte	0x0
 2720 0046 00       		.byte	0x0
 2721 0047 06       		.uleb128 0x6
 2722 0048 0D       		.uleb128 0xd
 2723 0049 00       		.byte	0x0
 2724 004a 03       		.uleb128 0x3
 2725 004b 0E       		.uleb128 0xe
 2726 004c 3A       		.uleb128 0x3a
 2727 004d 0B       		.uleb128 0xb
 2728 004e 3B       		.uleb128 0x3b
 2729 004f 0B       		.uleb128 0xb
 2730 0050 49       		.uleb128 0x49
 2731 0051 13       		.uleb128 0x13
 2732 0052 38       		.uleb128 0x38
 2733 0053 0A       		.uleb128 0xa
 2734 0054 00       		.byte	0x0
 2735 0055 00       		.byte	0x0
 2736 0056 07       		.uleb128 0x7
 2737 0057 0D       		.uleb128 0xd
 2738 0058 00       		.byte	0x0
 2739 0059 03       		.uleb128 0x3
 2740 005a 08       		.uleb128 0x8
 2741 005b 3A       		.uleb128 0x3a
 2742 005c 0B       		.uleb128 0xb
 2743 005d 3B       		.uleb128 0x3b
 2744 005e 0B       		.uleb128 0xb
 2745 005f 49       		.uleb128 0x49
ARM GAS  C:\Users\z80\AppData\Local\Temp\ccZTFaGT.s 			page 50


 2746 0060 13       		.uleb128 0x13
 2747 0061 38       		.uleb128 0x38
 2748 0062 0A       		.uleb128 0xa
 2749 0063 00       		.byte	0x0
 2750 0064 00       		.byte	0x0
 2751 0065 08       		.uleb128 0x8
 2752 0066 13       		.uleb128 0x13
 2753 0067 01       		.byte	0x1
 2754 0068 0B       		.uleb128 0xb
 2755 0069 0B       		.uleb128 0xb
 2756 006a 3A       		.uleb128 0x3a
 2757 006b 0B       		.uleb128 0xb
 2758 006c 3B       		.uleb128 0x3b
 2759 006d 0B       		.uleb128 0xb
 2760 006e 01       		.uleb128 0x1
 2761 006f 13       		.uleb128 0x13
 2762 0070 00       		.byte	0x0
 2763 0071 00       		.byte	0x0
 2764 0072 09       		.uleb128 0x9
 2765 0073 0F       		.uleb128 0xf
 2766 0074 00       		.byte	0x0
 2767 0075 0B       		.uleb128 0xb
 2768 0076 0B       		.uleb128 0xb
 2769 0077 49       		.uleb128 0x49
 2770 0078 13       		.uleb128 0x13
 2771 0079 00       		.byte	0x0
 2772 007a 00       		.byte	0x0
 2773 007b 0A       		.uleb128 0xa
 2774 007c 0F       		.uleb128 0xf
 2775 007d 00       		.byte	0x0
 2776 007e 0B       		.uleb128 0xb
 2777 007f 0B       		.uleb128 0xb
 2778 0080 00       		.byte	0x0
 2779 0081 00       		.byte	0x0
 2780 0082 0B       		.uleb128 0xb
 2781 0083 0D       		.uleb128 0xd
 2782 0084 00       		.byte	0x0
 2783 0085 03       		.uleb128 0x3
 2784 0086 08       		.uleb128 0x8
 2785 0087 3A       		.uleb128 0x3a
 2786 0088 0B       		.uleb128 0xb
 2787 0089 3B       		.uleb128 0x3b
 2788 008a 05       		.uleb128 0x5
 2789 008b 49       		.uleb128 0x49
 2790 008c 13       		.uleb128 0x13
 2791 008d 38       		.uleb128 0x38
 2792 008e 0A       		.uleb128 0xa
 2793 008f 00       		.byte	0x0
 2794 0090 00       		.byte	0x0
 2795 0091 0C       		.uleb128 0xc
 2796 0092 13       		.uleb128 0x13
 2797 0093 01       		.byte	0x1
 2798 0094 03       		.uleb128 0x3
 2799 0095 0E       		.uleb128 0xe
 2800 0096 0B       		.uleb128 0xb
 2801 0097 0B       		.uleb128 0xb
 2802 0098 3A       		.uleb128 0x3a
ARM GAS  C:\Users\z80\AppData\Local\Temp\ccZTFaGT.s 			page 51


 2803 0099 0B       		.uleb128 0xb
 2804 009a 3B       		.uleb128 0x3b
 2805 009b 05       		.uleb128 0x5
 2806 009c 01       		.uleb128 0x1
 2807 009d 13       		.uleb128 0x13
 2808 009e 00       		.byte	0x0
 2809 009f 00       		.byte	0x0
 2810 00a0 0D       		.uleb128 0xd
 2811 00a1 24       		.uleb128 0x24
 2812 00a2 00       		.byte	0x0
 2813 00a3 0B       		.uleb128 0xb
 2814 00a4 0B       		.uleb128 0xb
 2815 00a5 3E       		.uleb128 0x3e
 2816 00a6 0B       		.uleb128 0xb
 2817 00a7 00       		.byte	0x0
 2818 00a8 00       		.byte	0x0
 2819 00a9 0E       		.uleb128 0xe
 2820 00aa 15       		.uleb128 0x15
 2821 00ab 01       		.byte	0x1
 2822 00ac 27       		.uleb128 0x27
 2823 00ad 0C       		.uleb128 0xc
 2824 00ae 01       		.uleb128 0x1
 2825 00af 13       		.uleb128 0x13
 2826 00b0 00       		.byte	0x0
 2827 00b1 00       		.byte	0x0
 2828 00b2 0F       		.uleb128 0xf
 2829 00b3 05       		.uleb128 0x5
 2830 00b4 00       		.byte	0x0
 2831 00b5 49       		.uleb128 0x49
 2832 00b6 13       		.uleb128 0x13
 2833 00b7 00       		.byte	0x0
 2834 00b8 00       		.byte	0x0
 2835 00b9 10       		.uleb128 0x10
 2836 00ba 35       		.uleb128 0x35
 2837 00bb 00       		.byte	0x0
 2838 00bc 49       		.uleb128 0x49
 2839 00bd 13       		.uleb128 0x13
 2840 00be 00       		.byte	0x0
 2841 00bf 00       		.byte	0x0
 2842 00c0 11       		.uleb128 0x11
 2843 00c1 17       		.uleb128 0x17
 2844 00c2 01       		.byte	0x1
 2845 00c3 0B       		.uleb128 0xb
 2846 00c4 0B       		.uleb128 0xb
 2847 00c5 3A       		.uleb128 0x3a
 2848 00c6 0B       		.uleb128 0xb
 2849 00c7 3B       		.uleb128 0x3b
 2850 00c8 0B       		.uleb128 0xb
 2851 00c9 01       		.uleb128 0x1
 2852 00ca 13       		.uleb128 0x13
 2853 00cb 00       		.byte	0x0
 2854 00cc 00       		.byte	0x0
 2855 00cd 12       		.uleb128 0x12
 2856 00ce 0D       		.uleb128 0xd
 2857 00cf 00       		.byte	0x0
 2858 00d0 03       		.uleb128 0x3
 2859 00d1 0E       		.uleb128 0xe
ARM GAS  C:\Users\z80\AppData\Local\Temp\ccZTFaGT.s 			page 52


 2860 00d2 3A       		.uleb128 0x3a
 2861 00d3 0B       		.uleb128 0xb
 2862 00d4 3B       		.uleb128 0x3b
 2863 00d5 0B       		.uleb128 0xb
 2864 00d6 49       		.uleb128 0x49
 2865 00d7 13       		.uleb128 0x13
 2866 00d8 00       		.byte	0x0
 2867 00d9 00       		.byte	0x0
 2868 00da 13       		.uleb128 0x13
 2869 00db 26       		.uleb128 0x26
 2870 00dc 00       		.byte	0x0
 2871 00dd 49       		.uleb128 0x49
 2872 00de 13       		.uleb128 0x13
 2873 00df 00       		.byte	0x0
 2874 00e0 00       		.byte	0x0
 2875 00e1 14       		.uleb128 0x14
 2876 00e2 15       		.uleb128 0x15
 2877 00e3 01       		.byte	0x1
 2878 00e4 27       		.uleb128 0x27
 2879 00e5 0C       		.uleb128 0xc
 2880 00e6 49       		.uleb128 0x49
 2881 00e7 13       		.uleb128 0x13
 2882 00e8 01       		.uleb128 0x1
 2883 00e9 13       		.uleb128 0x13
 2884 00ea 00       		.byte	0x0
 2885 00eb 00       		.byte	0x0
 2886 00ec 15       		.uleb128 0x15
 2887 00ed 2E       		.uleb128 0x2e
 2888 00ee 01       		.byte	0x1
 2889 00ef 03       		.uleb128 0x3
 2890 00f0 0E       		.uleb128 0xe
 2891 00f1 3A       		.uleb128 0x3a
 2892 00f2 0B       		.uleb128 0xb
 2893 00f3 3B       		.uleb128 0x3b
 2894 00f4 0B       		.uleb128 0xb
 2895 00f5 27       		.uleb128 0x27
 2896 00f6 0C       		.uleb128 0xc
 2897 00f7 11       		.uleb128 0x11
 2898 00f8 01       		.uleb128 0x1
 2899 00f9 12       		.uleb128 0x12
 2900 00fa 01       		.uleb128 0x1
 2901 00fb 40       		.uleb128 0x40
 2902 00fc 06       		.uleb128 0x6
 2903 00fd 01       		.uleb128 0x1
 2904 00fe 13       		.uleb128 0x13
 2905 00ff 00       		.byte	0x0
 2906 0100 00       		.byte	0x0
 2907 0101 16       		.uleb128 0x16
 2908 0102 05       		.uleb128 0x5
 2909 0103 00       		.byte	0x0
 2910 0104 03       		.uleb128 0x3
 2911 0105 08       		.uleb128 0x8
 2912 0106 3A       		.uleb128 0x3a
 2913 0107 0B       		.uleb128 0xb
 2914 0108 3B       		.uleb128 0x3b
 2915 0109 0B       		.uleb128 0xb
 2916 010a 49       		.uleb128 0x49
ARM GAS  C:\Users\z80\AppData\Local\Temp\ccZTFaGT.s 			page 53


 2917 010b 13       		.uleb128 0x13
 2918 010c 02       		.uleb128 0x2
 2919 010d 0A       		.uleb128 0xa
 2920 010e 00       		.byte	0x0
 2921 010f 00       		.byte	0x0
 2922 0110 17       		.uleb128 0x17
 2923 0111 2E       		.uleb128 0x2e
 2924 0112 01       		.byte	0x1
 2925 0113 03       		.uleb128 0x3
 2926 0114 0E       		.uleb128 0xe
 2927 0115 3A       		.uleb128 0x3a
 2928 0116 0B       		.uleb128 0xb
 2929 0117 3B       		.uleb128 0x3b
 2930 0118 0B       		.uleb128 0xb
 2931 0119 27       		.uleb128 0x27
 2932 011a 0C       		.uleb128 0xc
 2933 011b 49       		.uleb128 0x49
 2934 011c 13       		.uleb128 0x13
 2935 011d 11       		.uleb128 0x11
 2936 011e 01       		.uleb128 0x1
 2937 011f 12       		.uleb128 0x12
 2938 0120 01       		.uleb128 0x1
 2939 0121 40       		.uleb128 0x40
 2940 0122 06       		.uleb128 0x6
 2941 0123 01       		.uleb128 0x1
 2942 0124 13       		.uleb128 0x13
 2943 0125 00       		.byte	0x0
 2944 0126 00       		.byte	0x0
 2945 0127 18       		.uleb128 0x18
 2946 0128 34       		.uleb128 0x34
 2947 0129 00       		.byte	0x0
 2948 012a 03       		.uleb128 0x3
 2949 012b 08       		.uleb128 0x8
 2950 012c 3A       		.uleb128 0x3a
 2951 012d 0B       		.uleb128 0xb
 2952 012e 3B       		.uleb128 0x3b
 2953 012f 0B       		.uleb128 0xb
 2954 0130 49       		.uleb128 0x49
 2955 0131 13       		.uleb128 0x13
 2956 0132 02       		.uleb128 0x2
 2957 0133 0A       		.uleb128 0xa
 2958 0134 00       		.byte	0x0
 2959 0135 00       		.byte	0x0
 2960 0136 19       		.uleb128 0x19
 2961 0137 2E       		.uleb128 0x2e
 2962 0138 01       		.byte	0x1
 2963 0139 3F       		.uleb128 0x3f
 2964 013a 0C       		.uleb128 0xc
 2965 013b 03       		.uleb128 0x3
 2966 013c 0E       		.uleb128 0xe
 2967 013d 3A       		.uleb128 0x3a
 2968 013e 0B       		.uleb128 0xb
 2969 013f 3B       		.uleb128 0x3b
 2970 0140 0B       		.uleb128 0xb
 2971 0141 27       		.uleb128 0x27
 2972 0142 0C       		.uleb128 0xc
 2973 0143 49       		.uleb128 0x49
ARM GAS  C:\Users\z80\AppData\Local\Temp\ccZTFaGT.s 			page 54


 2974 0144 13       		.uleb128 0x13
 2975 0145 11       		.uleb128 0x11
 2976 0146 01       		.uleb128 0x1
 2977 0147 12       		.uleb128 0x12
 2978 0148 01       		.uleb128 0x1
 2979 0149 40       		.uleb128 0x40
 2980 014a 06       		.uleb128 0x6
 2981 014b 01       		.uleb128 0x1
 2982 014c 13       		.uleb128 0x13
 2983 014d 00       		.byte	0x0
 2984 014e 00       		.byte	0x0
 2985 014f 1A       		.uleb128 0x1a
 2986 0150 05       		.uleb128 0x5
 2987 0151 00       		.byte	0x0
 2988 0152 03       		.uleb128 0x3
 2989 0153 0E       		.uleb128 0xe
 2990 0154 3A       		.uleb128 0x3a
 2991 0155 0B       		.uleb128 0xb
 2992 0156 3B       		.uleb128 0x3b
 2993 0157 0B       		.uleb128 0xb
 2994 0158 49       		.uleb128 0x49
 2995 0159 13       		.uleb128 0x13
 2996 015a 02       		.uleb128 0x2
 2997 015b 0A       		.uleb128 0xa
 2998 015c 00       		.byte	0x0
 2999 015d 00       		.byte	0x0
 3000 015e 1B       		.uleb128 0x1b
 3001 015f 2E       		.uleb128 0x2e
 3002 0160 01       		.byte	0x1
 3003 0161 3F       		.uleb128 0x3f
 3004 0162 0C       		.uleb128 0xc
 3005 0163 03       		.uleb128 0x3
 3006 0164 0E       		.uleb128 0xe
 3007 0165 3A       		.uleb128 0x3a
 3008 0166 0B       		.uleb128 0xb
 3009 0167 3B       		.uleb128 0x3b
 3010 0168 0B       		.uleb128 0xb
 3011 0169 27       		.uleb128 0x27
 3012 016a 0C       		.uleb128 0xc
 3013 016b 11       		.uleb128 0x11
 3014 016c 01       		.uleb128 0x1
 3015 016d 12       		.uleb128 0x12
 3016 016e 01       		.uleb128 0x1
 3017 016f 40       		.uleb128 0x40
 3018 0170 06       		.uleb128 0x6
 3019 0171 01       		.uleb128 0x1
 3020 0172 13       		.uleb128 0x13
 3021 0173 00       		.byte	0x0
 3022 0174 00       		.byte	0x0
 3023 0175 1C       		.uleb128 0x1c
 3024 0176 0B       		.uleb128 0xb
 3025 0177 01       		.byte	0x1
 3026 0178 11       		.uleb128 0x11
 3027 0179 01       		.uleb128 0x1
 3028 017a 12       		.uleb128 0x12
 3029 017b 01       		.uleb128 0x1
 3030 017c 01       		.uleb128 0x1
ARM GAS  C:\Users\z80\AppData\Local\Temp\ccZTFaGT.s 			page 55


 3031 017d 13       		.uleb128 0x13
 3032 017e 00       		.byte	0x0
 3033 017f 00       		.byte	0x0
 3034 0180 1D       		.uleb128 0x1d
 3035 0181 0B       		.uleb128 0xb
 3036 0182 01       		.byte	0x1
 3037 0183 11       		.uleb128 0x11
 3038 0184 01       		.uleb128 0x1
 3039 0185 12       		.uleb128 0x12
 3040 0186 01       		.uleb128 0x1
 3041 0187 00       		.byte	0x0
 3042 0188 00       		.byte	0x0
 3043 0189 1E       		.uleb128 0x1e
 3044 018a 34       		.uleb128 0x34
 3045 018b 00       		.byte	0x0
 3046 018c 03       		.uleb128 0x3
 3047 018d 0E       		.uleb128 0xe
 3048 018e 3A       		.uleb128 0x3a
 3049 018f 0B       		.uleb128 0xb
 3050 0190 3B       		.uleb128 0x3b
 3051 0191 0B       		.uleb128 0xb
 3052 0192 49       		.uleb128 0x49
 3053 0193 13       		.uleb128 0x13
 3054 0194 02       		.uleb128 0x2
 3055 0195 0A       		.uleb128 0xa
 3056 0196 00       		.byte	0x0
 3057 0197 00       		.byte	0x0
 3058 0198 1F       		.uleb128 0x1f
 3059 0199 2E       		.uleb128 0x2e
 3060 019a 01       		.byte	0x1
 3061 019b 3F       		.uleb128 0x3f
 3062 019c 0C       		.uleb128 0xc
 3063 019d 03       		.uleb128 0x3
 3064 019e 0E       		.uleb128 0xe
 3065 019f 3A       		.uleb128 0x3a
 3066 01a0 0B       		.uleb128 0xb
 3067 01a1 3B       		.uleb128 0x3b
 3068 01a2 05       		.uleb128 0x5
 3069 01a3 27       		.uleb128 0x27
 3070 01a4 0C       		.uleb128 0xc
 3071 01a5 11       		.uleb128 0x11
 3072 01a6 01       		.uleb128 0x1
 3073 01a7 12       		.uleb128 0x12
 3074 01a8 01       		.uleb128 0x1
 3075 01a9 40       		.uleb128 0x40
 3076 01aa 06       		.uleb128 0x6
 3077 01ab 01       		.uleb128 0x1
 3078 01ac 13       		.uleb128 0x13
 3079 01ad 00       		.byte	0x0
 3080 01ae 00       		.byte	0x0
 3081 01af 20       		.uleb128 0x20
 3082 01b0 05       		.uleb128 0x5
 3083 01b1 00       		.byte	0x0
 3084 01b2 03       		.uleb128 0x3
 3085 01b3 08       		.uleb128 0x8
 3086 01b4 3A       		.uleb128 0x3a
 3087 01b5 0B       		.uleb128 0xb
ARM GAS  C:\Users\z80\AppData\Local\Temp\ccZTFaGT.s 			page 56


 3088 01b6 3B       		.uleb128 0x3b
 3089 01b7 05       		.uleb128 0x5
 3090 01b8 49       		.uleb128 0x49
 3091 01b9 13       		.uleb128 0x13
 3092 01ba 02       		.uleb128 0x2
 3093 01bb 0A       		.uleb128 0xa
 3094 01bc 00       		.byte	0x0
 3095 01bd 00       		.byte	0x0
 3096 01be 21       		.uleb128 0x21
 3097 01bf 34       		.uleb128 0x34
 3098 01c0 00       		.byte	0x0
 3099 01c1 03       		.uleb128 0x3
 3100 01c2 08       		.uleb128 0x8
 3101 01c3 3A       		.uleb128 0x3a
 3102 01c4 0B       		.uleb128 0xb
 3103 01c5 3B       		.uleb128 0x3b
 3104 01c6 05       		.uleb128 0x5
 3105 01c7 49       		.uleb128 0x49
 3106 01c8 13       		.uleb128 0x13
 3107 01c9 02       		.uleb128 0x2
 3108 01ca 0A       		.uleb128 0xa
 3109 01cb 00       		.byte	0x0
 3110 01cc 00       		.byte	0x0
 3111 01cd 22       		.uleb128 0x22
 3112 01ce 05       		.uleb128 0x5
 3113 01cf 00       		.byte	0x0
 3114 01d0 03       		.uleb128 0x3
 3115 01d1 0E       		.uleb128 0xe
 3116 01d2 3A       		.uleb128 0x3a
 3117 01d3 0B       		.uleb128 0xb
 3118 01d4 3B       		.uleb128 0x3b
 3119 01d5 05       		.uleb128 0x5
 3120 01d6 49       		.uleb128 0x49
 3121 01d7 13       		.uleb128 0x13
 3122 01d8 02       		.uleb128 0x2
 3123 01d9 0A       		.uleb128 0xa
 3124 01da 00       		.byte	0x0
 3125 01db 00       		.byte	0x0
 3126 01dc 23       		.uleb128 0x23
 3127 01dd 2E       		.uleb128 0x2e
 3128 01de 01       		.byte	0x1
 3129 01df 3F       		.uleb128 0x3f
 3130 01e0 0C       		.uleb128 0xc
 3131 01e1 03       		.uleb128 0x3
 3132 01e2 0E       		.uleb128 0xe
 3133 01e3 3A       		.uleb128 0x3a
 3134 01e4 0B       		.uleb128 0xb
 3135 01e5 3B       		.uleb128 0x3b
 3136 01e6 05       		.uleb128 0x5
 3137 01e7 27       		.uleb128 0x27
 3138 01e8 0C       		.uleb128 0xc
 3139 01e9 49       		.uleb128 0x49
 3140 01ea 13       		.uleb128 0x13
 3141 01eb 11       		.uleb128 0x11
 3142 01ec 01       		.uleb128 0x1
 3143 01ed 12       		.uleb128 0x12
 3144 01ee 01       		.uleb128 0x1
ARM GAS  C:\Users\z80\AppData\Local\Temp\ccZTFaGT.s 			page 57


 3145 01ef 40       		.uleb128 0x40
 3146 01f0 06       		.uleb128 0x6
 3147 01f1 01       		.uleb128 0x1
 3148 01f2 13       		.uleb128 0x13
 3149 01f3 00       		.byte	0x0
 3150 01f4 00       		.byte	0x0
 3151 01f5 24       		.uleb128 0x24
 3152 01f6 34       		.uleb128 0x34
 3153 01f7 00       		.byte	0x0
 3154 01f8 03       		.uleb128 0x3
 3155 01f9 0E       		.uleb128 0xe
 3156 01fa 3A       		.uleb128 0x3a
 3157 01fb 0B       		.uleb128 0xb
 3158 01fc 3B       		.uleb128 0x3b
 3159 01fd 0B       		.uleb128 0xb
 3160 01fe 49       		.uleb128 0x49
 3161 01ff 13       		.uleb128 0x13
 3162 0200 3F       		.uleb128 0x3f
 3163 0201 0C       		.uleb128 0xc
 3164 0202 3C       		.uleb128 0x3c
 3165 0203 0C       		.uleb128 0xc
 3166 0204 00       		.byte	0x0
 3167 0205 00       		.byte	0x0
 3168 0206 00       		.byte	0x0
 3169              		.section	.debug_pubnames,"",%progbits
 3170 0000 EF000000 		.4byte	0xef
 3171 0004 0200     		.2byte	0x2
 3172 0006 00000000 		.4byte	.Ldebug_info0
 3173 000a 830A0000 		.4byte	0xa83
 3174 000e A6050000 		.4byte	0x5a6
 3175 0012 5F746872 		.ascii	"_thread_init\000"
 3175      6561645F 
 3175      696E6974 
 3175      00
 3176 001f DF050000 		.4byte	0x5df
 3177 0023 5F746872 		.ascii	"_thread_memfill\000"
 3177      6561645F 
 3177      6D656D66 
 3177      696C6C00 
 3178 0033 21060000 		.4byte	0x621
 3179 0037 63685468 		.ascii	"chThdCreateI\000"
 3179      64437265 
 3179      61746549 
 3179      00
 3180 0044 91060000 		.4byte	0x691
 3181 0048 63685468 		.ascii	"chThdCreateStatic\000"
 3181      64437265 
 3181      61746553 
 3181      74617469 
 3181      6300
 3182 005a 33070000 		.4byte	0x733
 3183 005e 63685468 		.ascii	"chThdSetPriority\000"
 3183      64536574 
 3183      5072696F 
 3183      72697479 
 3183      00
 3184 006f 9F070000 		.4byte	0x79f
ARM GAS  C:\Users\z80\AppData\Local\Temp\ccZTFaGT.s 			page 58


 3185 0073 63685468 		.ascii	"chThdResume\000"
 3185      64526573 
 3185      756D6500 
 3186 007f FC070000 		.4byte	0x7fc
 3187 0083 63685468 		.ascii	"chThdTerminate\000"
 3187      64546572 
 3187      6D696E61 
 3187      746500
 3188 0092 59080000 		.4byte	0x859
 3189 0096 63685468 		.ascii	"chThdSleep\000"
 3189      64536C65 
 3189      657000
 3190 00a1 B7080000 		.4byte	0x8b7
 3191 00a5 63685468 		.ascii	"chThdSleepUntil\000"
 3191      64536C65 
 3191      6570556E 
 3191      74696C00 
 3192 00b5 15090000 		.4byte	0x915
 3193 00b9 63685468 		.ascii	"chThdYield\000"
 3193      64596965 
 3193      6C6400
 3194 00c4 64090000 		.4byte	0x964
 3195 00c8 63685468 		.ascii	"chThdExit\000"
 3195      64457869 
 3195      7400
 3196 00d2 A6090000 		.4byte	0x9a6
 3197 00d6 63685468 		.ascii	"chThdExitS\000"
 3197      64457869 
 3197      745300
 3198 00e1 DE090000 		.4byte	0x9de
 3199 00e5 63685468 		.ascii	"chThdWait\000"
 3199      64576169 
 3199      7400
 3200 00ef 00000000 		.4byte	0x0
 3201              		.section	.debug_pubtypes,"",%progbits
 3202 0000 74010000 		.4byte	0x174
 3203 0004 0200     		.2byte	0x2
 3204 0006 00000000 		.4byte	.Ldebug_info0
 3205 000a 830A0000 		.4byte	0xa83
 3206 000e 30000000 		.4byte	0x30
 3207 0012 73697A65 		.ascii	"size_t\000"
 3207      5F7400
 3208 0019 49000000 		.4byte	0x49
 3209 001d 75696E74 		.ascii	"uint8_t\000"
 3209      385F7400 
 3210 0025 69000000 		.4byte	0x69
 3211 0029 696E7433 		.ascii	"int32_t\000"
 3211      325F7400 
 3212 0031 7B000000 		.4byte	0x7b
 3213 0035 75696E74 		.ascii	"uint32_t\000"
 3213      33325F74 
 3213      00
 3214 003e 94000000 		.4byte	0x94
 3215 0042 75696E74 		.ascii	"uint64_t\000"
 3215      36345F74 
 3215      00
 3216 004b A6000000 		.4byte	0xa6
ARM GAS  C:\Users\z80\AppData\Local\Temp\ccZTFaGT.s 			page 59


 3217 004f 746D6F64 		.ascii	"tmode_t\000"
 3217      655F7400 
 3218 0057 B1000000 		.4byte	0xb1
 3219 005b 74737461 		.ascii	"tstate_t\000"
 3219      74655F74 
 3219      00
 3220 0064 BC000000 		.4byte	0xbc
 3221 0068 74707269 		.ascii	"tprio_t\000"
 3221      6F5F7400 
 3222 0070 C7000000 		.4byte	0xc7
 3223 0074 6D73675F 		.ascii	"msg_t\000"
 3223      7400
 3224 007a D2000000 		.4byte	0xd2
 3225 007e 6576656E 		.ascii	"eventmask_t\000"
 3225      746D6173 
 3225      6B5F7400 
 3226 008a DD000000 		.4byte	0xdd
 3227 008e 73797374 		.ascii	"systime_t\000"
 3227      696D655F 
 3227      7400
 3228 0098 E8000000 		.4byte	0xe8
 3229 009c 636E745F 		.ascii	"cnt_t\000"
 3229      7400
 3230 00a2 F3000000 		.4byte	0xf3
 3231 00a6 54687265 		.ascii	"Thread\000"
 3231      616400
 3232 00ad 32020000 		.4byte	0x232
 3233 00b1 54687265 		.ascii	"ThreadsQueue\000"
 3233      61647351 
 3233      75657565 
 3233      00
 3234 00be 54020000 		.4byte	0x254
 3235 00c2 54687265 		.ascii	"ThreadsList\000"
 3235      6164734C 
 3235      69737400 
 3236 00ce 5F020000 		.4byte	0x25f
 3237 00d2 72656761 		.ascii	"regarm_t\000"
 3237      726D5F74 
 3237      00
 3238 00db 6C020000 		.4byte	0x26c
 3239 00df 73746B61 		.ascii	"stkalign_t\000"
 3239      6C69676E 
 3239      5F7400
 3240 00ea 77020000 		.4byte	0x277
 3241 00ee 696E7463 		.ascii	"intctx\000"
 3241      747800
 3242 00f5 04030000 		.4byte	0x304
 3243 00f9 636F6E74 		.ascii	"context\000"
 3243      65787400 
 3244 0101 2A030000 		.4byte	0x32a
 3245 0105 76746675 		.ascii	"vtfunc_t\000"
 3245      6E635F74 
 3245      00
 3246 010e 47030000 		.4byte	0x347
 3247 0112 56697274 		.ascii	"VirtualTimer\000"
 3247      75616C54 
 3247      696D6572 
ARM GAS  C:\Users\z80\AppData\Local\Temp\ccZTFaGT.s 			page 60


 3247      00
 3248 011f 52030000 		.4byte	0x352
 3249 0123 56697274 		.ascii	"VirtualTimer\000"
 3249      75616C54 
 3249      696D6572 
 3249      00
 3250 0130 F1030000 		.4byte	0x3f1
 3251 0134 56544C69 		.ascii	"VTList\000"
 3251      737400
 3252 013b 67040000 		.4byte	0x467
 3253 013f 52656164 		.ascii	"ReadyList\000"
 3253      794C6973 
 3253      7400
 3254 0149 72040000 		.4byte	0x472
 3255 014d 4D757465 		.ascii	"Mutex\000"
 3255      7800
 3256 0153 AF040000 		.4byte	0x4af
 3257 0157 4D757465 		.ascii	"Mutex\000"
 3257      7800
 3258 015d FE000000 		.4byte	0xfe
 3259 0161 54687265 		.ascii	"Thread\000"
 3259      616400
 3260 0168 0D050000 		.4byte	0x50d
 3261 016c 7466756E 		.ascii	"tfunc_t\000"
 3261      635F7400 
 3262 0174 00000000 		.4byte	0x0
 3263              		.section	.debug_aranges,"",%progbits
 3264 0000 8C000000 		.4byte	0x8c
 3265 0004 0200     		.2byte	0x2
 3266 0006 00000000 		.4byte	.Ldebug_info0
 3267 000a 04       		.byte	0x4
 3268 000b 00       		.byte	0x0
 3269 000c 0000     		.2byte	0x0
 3270 000e 0000     		.2byte	0x0
 3271 0010 00000000 		.4byte	.LFB5
 3272 0014 18000000 		.4byte	.LFE5-.LFB5
 3273 0018 00000000 		.4byte	.LFB6
 3274 001c 1A000000 		.4byte	.LFE6-.LFB6
 3275 0020 00000000 		.4byte	.LFB7
 3276 0024 AE000000 		.4byte	.LFE7-.LFB7
 3277 0028 00000000 		.4byte	.LFB8
 3278 002c 2A000000 		.4byte	.LFE8-.LFB8
 3279 0030 00000000 		.4byte	.LFB9
 3280 0034 74000000 		.4byte	.LFE9-.LFB9
 3281 0038 00000000 		.4byte	.LFB10
 3282 003c 76000000 		.4byte	.LFE10-.LFB10
 3283 0040 00000000 		.4byte	.LFB11
 3284 0044 94000000 		.4byte	.LFE11-.LFB11
 3285 0048 00000000 		.4byte	.LFB12
 3286 004c 46000000 		.4byte	.LFE12-.LFB12
 3287 0050 00000000 		.4byte	.LFB13
 3288 0054 34000000 		.4byte	.LFE13-.LFB13
 3289 0058 00000000 		.4byte	.LFB14
 3290 005c 3E000000 		.4byte	.LFE14-.LFB14
 3291 0060 00000000 		.4byte	.LFB15
 3292 0064 44000000 		.4byte	.LFE15-.LFB15
 3293 0068 00000000 		.4byte	.LFB16
ARM GAS  C:\Users\z80\AppData\Local\Temp\ccZTFaGT.s 			page 61


 3294 006c 3C000000 		.4byte	.LFE16-.LFB16
 3295 0070 00000000 		.4byte	.LFB17
 3296 0074 1C000000 		.4byte	.LFE17-.LFB17
 3297 0078 00000000 		.4byte	.LFB18
 3298 007c 76000000 		.4byte	.LFE18-.LFB18
 3299 0080 00000000 		.4byte	.LFB19
 3300 0084 84000000 		.4byte	.LFE19-.LFB19
 3301 0088 00000000 		.4byte	0x0
 3302 008c 00000000 		.4byte	0x0
 3303              		.section	.debug_ranges,"",%progbits
 3304              	.Ldebug_ranges0:
 3305 0000 00000000 		.4byte	.LFB5
 3306 0004 18000000 		.4byte	.LFE5
 3307 0008 00000000 		.4byte	.LFB6
 3308 000c 1A000000 		.4byte	.LFE6
 3309 0010 00000000 		.4byte	.LFB7
 3310 0014 AE000000 		.4byte	.LFE7
 3311 0018 00000000 		.4byte	.LFB8
 3312 001c 2A000000 		.4byte	.LFE8
 3313 0020 00000000 		.4byte	.LFB9
 3314 0024 74000000 		.4byte	.LFE9
 3315 0028 00000000 		.4byte	.LFB10
 3316 002c 76000000 		.4byte	.LFE10
 3317 0030 00000000 		.4byte	.LFB11
 3318 0034 94000000 		.4byte	.LFE11
 3319 0038 00000000 		.4byte	.LFB12
 3320 003c 46000000 		.4byte	.LFE12
 3321 0040 00000000 		.4byte	.LFB13
 3322 0044 34000000 		.4byte	.LFE13
 3323 0048 00000000 		.4byte	.LFB14
 3324 004c 3E000000 		.4byte	.LFE14
 3325 0050 00000000 		.4byte	.LFB15
 3326 0054 44000000 		.4byte	.LFE15
 3327 0058 00000000 		.4byte	.LFB16
 3328 005c 3C000000 		.4byte	.LFE16
 3329 0060 00000000 		.4byte	.LFB17
 3330 0064 1C000000 		.4byte	.LFE17
 3331 0068 00000000 		.4byte	.LFB18
 3332 006c 76000000 		.4byte	.LFE18
 3333 0070 00000000 		.4byte	.LFB19
 3334 0074 84000000 		.4byte	.LFE19
 3335 0078 00000000 		.4byte	0x0
 3336 007c 00000000 		.4byte	0x0
 3337              		.section	.debug_str,"MS",%progbits,1
 3338              	.LASF71:
 3339 0000 7466756E 		.ascii	"tfunc_t\000"
 3339      635F7400 
 3340              	.LASF35:
 3341 0008 705F6D73 		.ascii	"p_msg\000"
 3341      6700
 3342              	.LASF2:
 3343 000e 73697A65 		.ascii	"size_t\000"
 3343      5F7400
 3344              	.LASF72:
 3345 0015 7072696F 		.ascii	"prio\000"
 3345      00
 3346              	.LASF66:
ARM GAS  C:\Users\z80\AppData\Local\Temp\ccZTFaGT.s 			page 62


 3347 001a 7264796D 		.ascii	"rdymsg\000"
 3347      736700
 3348              	.LASF12:
 3349 0021 75696E74 		.ascii	"uint64_t\000"
 3349      36345F74 
 3349      00
 3350              	.LASF92:
 3351 002a 76746C69 		.ascii	"vtlist\000"
 3351      737400
 3352              	.LASF90:
 3353 0031 63685468 		.ascii	"chThdExitS\000"
 3353      64457869 
 3353      745300
 3354              	.LASF13:
 3355 003c 6C6F6E67 		.ascii	"long long unsigned int\000"
 3355      206C6F6E 
 3355      6720756E 
 3355      7369676E 
 3355      65642069 
 3356              	.LASF67:
 3357 0053 65786974 		.ascii	"exitcode\000"
 3357      636F6465 
 3357      00
 3358              	.LASF24:
 3359 005c 705F7072 		.ascii	"p_prio\000"
 3359      696F00
 3360              	.LASF11:
 3361 0063 6C6F6E67 		.ascii	"long long int\000"
 3361      206C6F6E 
 3361      6720696E 
 3361      7400
 3362              	.LASF1:
 3363 0071 7369676E 		.ascii	"signed char\000"
 3363      65642063 
 3363      68617200 
 3364              	.LASF89:
 3365 007d 63685468 		.ascii	"chThdExit\000"
 3365      64457869 
 3365      7400
 3366              	.LASF63:
 3367 0087 6D5F7175 		.ascii	"m_queue\000"
 3367      65756500 
 3368              	.LASF76:
 3369 008f 63685468 		.ascii	"chThdCreateI\000"
 3369      64437265 
 3369      61746549 
 3369      00
 3370              	.LASF8:
 3371 009c 6C6F6E67 		.ascii	"long int\000"
 3371      20696E74 
 3371      00
 3372              	.LASF15:
 3373 00a5 74737461 		.ascii	"tstate_t\000"
 3373      74655F74 
 3373      00
 3374              	.LASF26:
 3375 00ae 705F6E65 		.ascii	"p_newer\000"
ARM GAS  C:\Users\z80\AppData\Local\Temp\ccZTFaGT.s 			page 63


 3375      77657200 
 3376              	.LASF98:
 3377 00b6 6C697374 		.ascii	"list_remove\000"
 3377      5F72656D 
 3377      6F766500 
 3378              	.LASF57:
 3379 00c2 725F6E65 		.ascii	"r_newer\000"
 3379      77657200 
 3380              	.LASF41:
 3381 00ca 72656761 		.ascii	"regarm_t\000"
 3381      726D5F74 
 3381      00
 3382              	.LASF48:
 3383 00d3 76745F70 		.ascii	"vt_prev\000"
 3383      72657600 
 3384              	.LASF79:
 3385 00db 63685468 		.ascii	"chThdSetPriority\000"
 3385      64536574 
 3385      5072696F 
 3385      72697479 
 3385      00
 3386              	.LASF20:
 3387 00ec 636E745F 		.ascii	"cnt_t\000"
 3387      7400
 3388              	.LASF29:
 3389 00f2 705F7374 		.ascii	"p_stklimit\000"
 3389      6B6C696D 
 3389      697400
 3390              	.LASF0:
 3391 00fd 756E7369 		.ascii	"unsigned int\000"
 3391      676E6564 
 3391      20696E74 
 3391      00
 3392              	.LASF47:
 3393 010a 76745F6E 		.ascii	"vt_next\000"
 3393      65787400 
 3394              	.LASF10:
 3395 0112 6C6F6E67 		.ascii	"long unsigned int\000"
 3395      20756E73 
 3395      69676E65 
 3395      6420696E 
 3395      7400
 3396              	.LASF44:
 3397 0124 636F6E74 		.ascii	"context\000"
 3397      65787400 
 3398              	.LASF77:
 3399 012c 73697A65 		.ascii	"size\000"
 3399      00
 3400              	.LASF6:
 3401 0131 73686F72 		.ascii	"short unsigned int\000"
 3401      7420756E 
 3401      7369676E 
 3401      65642069 
 3401      6E7400
 3402              	.LASF17:
 3403 0144 6D73675F 		.ascii	"msg_t\000"
 3403      7400
ARM GAS  C:\Users\z80\AppData\Local\Temp\ccZTFaGT.s 			page 64


 3404              	.LASF80:
 3405 014a 6E657770 		.ascii	"newprio\000"
 3405      72696F00 
 3406              	.LASF14:
 3407 0152 746D6F64 		.ascii	"tmode_t\000"
 3407      655F7400 
 3408              	.LASF84:
 3409 015a 63685468 		.ascii	"chThdTerminate\000"
 3409      64546572 
 3409      6D696E61 
 3409      746500
 3410              	.LASF40:
 3411 0169 54687265 		.ascii	"ThreadsList\000"
 3411      6164734C 
 3411      69737400 
 3412              	.LASF18:
 3413 0175 6576656E 		.ascii	"eventmask_t\000"
 3413      746D6173 
 3413      6B5F7400 
 3414              	.LASF62:
 3415 0181 4D757465 		.ascii	"Mutex\000"
 3415      7800
 3416              	.LASF81:
 3417 0187 6F6C6470 		.ascii	"oldprio\000"
 3417      72696F00 
 3418              	.LASF42:
 3419 018f 73746B61 		.ascii	"stkalign_t\000"
 3419      6C69676E 
 3419      5F7400
 3420              	.LASF78:
 3421 019a 63685468 		.ascii	"chThdCreateStatic\000"
 3421      64437265 
 3421      61746553 
 3421      74617469 
 3421      6300
 3422              	.LASF49:
 3423 01ac 76745F74 		.ascii	"vt_time\000"
 3423      696D6500 
 3424              	.LASF50:
 3425 01b4 76745F66 		.ascii	"vt_func\000"
 3425      756E6300 
 3426              	.LASF82:
 3427 01bc 63685468 		.ascii	"chThdResume\000"
 3427      64526573 
 3427      756D6500 
 3428              	.LASF73:
 3429 01c8 73746172 		.ascii	"startp\000"
 3429      747000
 3430              	.LASF27:
 3431 01cf 705F6F6C 		.ascii	"p_older\000"
 3431      64657200 
 3432              	.LASF56:
 3433 01d7 725F6374 		.ascii	"r_ctx\000"
 3433      7800
 3434              	.LASF39:
 3435 01dd 54687265 		.ascii	"ThreadsQueue\000"
 3435      61647351 
ARM GAS  C:\Users\z80\AppData\Local\Temp\ccZTFaGT.s 			page 65


 3435      75657565 
 3435      00
 3436              	.LASF96:
 3437 01ea 433A5C70 		.ascii	"C:\\projects\\voltamper.git\\firmware\\voltamp\000"
 3437      726F6A65 
 3437      6374735C 
 3437      766F6C74 
 3437      616D7065 
 3438              	.LASF86:
 3439 0215 74696D65 		.ascii	"time\000"
 3439      00
 3440              	.LASF97:
 3441 021a 6C697374 		.ascii	"list_insert\000"
 3441      5F696E73 
 3441      65727400 
 3442              	.LASF60:
 3443 0226 725F6375 		.ascii	"r_current\000"
 3443      7272656E 
 3443      7400
 3444              	.LASF58:
 3445 0230 725F6F6C 		.ascii	"r_older\000"
 3445      64657200 
 3446              	.LASF87:
 3447 0238 63685468 		.ascii	"chThdSleepUntil\000"
 3447      64536C65 
 3447      6570556E 
 3447      74696C00 
 3448              	.LASF23:
 3449 0248 705F7072 		.ascii	"p_prev\000"
 3449      657600
 3450              	.LASF16:
 3451 024f 74707269 		.ascii	"tprio_t\000"
 3451      6F5F7400 
 3452              	.LASF7:
 3453 0257 696E7433 		.ascii	"int32_t\000"
 3453      325F7400 
 3454              	.LASF4:
 3455 025f 756E7369 		.ascii	"unsigned char\000"
 3455      676E6564 
 3455      20636861 
 3455      7200
 3456              	.LASF37:
 3457 026d 705F6D74 		.ascii	"p_mtxlist\000"
 3457      786C6973 
 3457      7400
 3458              	.LASF5:
 3459 0277 73686F72 		.ascii	"short int\000"
 3459      7420696E 
 3459      7400
 3460              	.LASF30:
 3461 0281 705F7374 		.ascii	"p_state\000"
 3461      61746500 
 3462              	.LASF55:
 3463 0289 725F7072 		.ascii	"r_prio\000"
 3463      696F00
 3464              	.LASF69:
 3465 0290 65776D61 		.ascii	"ewmask\000"
ARM GAS  C:\Users\z80\AppData\Local\Temp\ccZTFaGT.s 			page 66


 3465      736B00
 3466              	.LASF22:
 3467 0297 705F6E65 		.ascii	"p_next\000"
 3467      787400
 3468              	.LASF31:
 3469 029e 705F666C 		.ascii	"p_flags\000"
 3469      61677300 
 3470              	.LASF83:
 3471 02a6 5F746872 		.ascii	"_thread_memfill\000"
 3471      6561645F 
 3471      6D656D66 
 3471      696C6C00 
 3472              	.LASF21:
 3473 02b6 54687265 		.ascii	"Thread\000"
 3473      616400
 3474              	.LASF36:
 3475 02bd 705F6570 		.ascii	"p_epending\000"
 3475      656E6469 
 3475      6E6700
 3476              	.LASF9:
 3477 02c8 75696E74 		.ascii	"uint32_t\000"
 3477      33325F74 
 3477      00
 3478              	.LASF75:
 3479 02d1 5F746872 		.ascii	"_thread_init\000"
 3479      6561645F 
 3479      696E6974 
 3479      00
 3480              	.LASF54:
 3481 02de 725F7175 		.ascii	"r_queue\000"
 3481      65756500 
 3482              	.LASF46:
 3483 02e6 56697274 		.ascii	"VirtualTimer\000"
 3483      75616C54 
 3483      696D6572 
 3483      00
 3484              	.LASF70:
 3485 02f3 63686172 		.ascii	"char\000"
 3485      00
 3486              	.LASF65:
 3487 02f8 6D5F6E65 		.ascii	"m_next\000"
 3487      787400
 3488              	.LASF19:
 3489 02ff 73797374 		.ascii	"systime_t\000"
 3489      696D655F 
 3489      7400
 3490              	.LASF38:
 3491 0309 705F7265 		.ascii	"p_realprio\000"
 3491      616C7072 
 3491      696F00
 3492              	.LASF45:
 3493 0314 76746675 		.ascii	"vtfunc_t\000"
 3493      6E635F74 
 3493      00
 3494              	.LASF88:
 3495 031d 63685468 		.ascii	"chThdYield\000"
 3495      64596965 
ARM GAS  C:\Users\z80\AppData\Local\Temp\ccZTFaGT.s 			page 67


 3495      6C6400
 3496              	.LASF32:
 3497 0328 705F7469 		.ascii	"p_time\000"
 3497      6D6500
 3498              	.LASF43:
 3499 032f 696E7463 		.ascii	"intctx\000"
 3499      747800
 3500              	.LASF34:
 3501 0336 705F6D73 		.ascii	"p_msgqueue\000"
 3501      67717565 
 3501      756500
 3502              	.LASF74:
 3503 0341 656E6470 		.ascii	"endp\000"
 3503      00
 3504              	.LASF91:
 3505 0346 63685468 		.ascii	"chThdWait\000"
 3505      64576169 
 3505      7400
 3506              	.LASF51:
 3507 0350 76745F70 		.ascii	"vt_par\000"
 3507      617200
 3508              	.LASF85:
 3509 0357 63685468 		.ascii	"chThdSleep\000"
 3509      64536C65 
 3509      657000
 3510              	.LASF61:
 3511 0362 52656164 		.ascii	"ReadyList\000"
 3511      794C6973 
 3511      7400
 3512              	.LASF93:
 3513 036c 726C6973 		.ascii	"rlist\000"
 3513      7400
 3514              	.LASF3:
 3515 0372 75696E74 		.ascii	"uint8_t\000"
 3515      385F7400 
 3516              	.LASF95:
 3517 037a 2E2E2F63 		.ascii	"../chibios_2.4.x/os/kernel/src/chthreads.c\000"
 3517      68696269 
 3517      6F735F32 
 3517      2E342E78 
 3517      2F6F732F 
 3518              	.LASF94:
 3519 03a5 474E5520 		.ascii	"GNU C 4.5.0\000"
 3519      4320342E 
 3519      352E3000 
 3520              	.LASF68:
 3521 03b1 77746F62 		.ascii	"wtobjp\000"
 3521      6A7000
 3522              	.LASF28:
 3523 03b8 705F6E61 		.ascii	"p_name\000"
 3523      6D6500
 3524              	.LASF52:
 3525 03bf 76745F73 		.ascii	"vt_systime\000"
 3525      79737469 
 3525      6D6500
 3526              	.LASF53:
 3527 03ca 56544C69 		.ascii	"VTList\000"
ARM GAS  C:\Users\z80\AppData\Local\Temp\ccZTFaGT.s 			page 68


 3527      737400
 3528              	.LASF59:
 3529 03d1 725F7072 		.ascii	"r_preempt\000"
 3529      65656D70 
 3529      7400
 3530              	.LASF64:
 3531 03db 6D5F6F77 		.ascii	"m_owner\000"
 3531      6E657200 
 3532              	.LASF25:
 3533 03e3 705F6374 		.ascii	"p_ctx\000"
 3533      7800
 3534              	.LASF33:
 3535 03e9 705F7761 		.ascii	"p_waiting\000"
 3535      6974696E 
 3535      6700
 3536              		.ident	"GCC: (GNU) 4.5.0"
ARM GAS  C:\Users\z80\AppData\Local\Temp\ccZTFaGT.s 			page 69


DEFINED SYMBOLS
                            *ABS*:00000000 chthreads.c
C:\Users\z80\AppData\Local\Temp\ccZTFaGT.s:24     .text.list_insert:00000000 $t
C:\Users\z80\AppData\Local\Temp\ccZTFaGT.s:29     .text.list_insert:00000000 list_insert
C:\Users\z80\AppData\Local\Temp\ccZTFaGT.s:58     .text.list_remove:00000000 $t
C:\Users\z80\AppData\Local\Temp\ccZTFaGT.s:63     .text.list_remove:00000000 list_remove
C:\Users\z80\AppData\Local\Temp\ccZTFaGT.s:93     .text._thread_init:00000000 $t
C:\Users\z80\AppData\Local\Temp\ccZTFaGT.s:99     .text._thread_init:00000000 _thread_init
C:\Users\z80\AppData\Local\Temp\ccZTFaGT.s:195    .text._thread_memfill:00000000 $t
C:\Users\z80\AppData\Local\Temp\ccZTFaGT.s:201    .text._thread_memfill:00000000 _thread_memfill
C:\Users\z80\AppData\Local\Temp\ccZTFaGT.s:238    .rodata:00000000 $d
C:\Users\z80\AppData\Local\Temp\ccZTFaGT.s:239    .rodata:00000000 .LC0
C:\Users\z80\AppData\Local\Temp\ccZTFaGT.s:242    .text.chThdCreateI:00000000 $t
C:\Users\z80\AppData\Local\Temp\ccZTFaGT.s:248    .text.chThdCreateI:00000000 chThdCreateI
C:\Users\z80\AppData\Local\Temp\ccZTFaGT.s:325    .text.chThdCreateStatic:00000000 $t
C:\Users\z80\AppData\Local\Temp\ccZTFaGT.s:331    .text.chThdCreateStatic:00000000 chThdCreateStatic
C:\Users\z80\AppData\Local\Temp\ccZTFaGT.s:412    .rodata:00000014 .LC1
C:\Users\z80\AppData\Local\Temp\ccZTFaGT.s:415    .text.chThdSetPriority:00000000 $t
C:\Users\z80\AppData\Local\Temp\ccZTFaGT.s:421    .text.chThdSetPriority:00000000 chThdSetPriority
C:\Users\z80\AppData\Local\Temp\ccZTFaGT.s:514    .rodata:0000002c .LC2
C:\Users\z80\AppData\Local\Temp\ccZTFaGT.s:517    .text.chThdResume:00000000 $t
C:\Users\z80\AppData\Local\Temp\ccZTFaGT.s:523    .text.chThdResume:00000000 chThdResume
C:\Users\z80\AppData\Local\Temp\ccZTFaGT.s:579    .text.chThdTerminate:00000000 $t
C:\Users\z80\AppData\Local\Temp\ccZTFaGT.s:585    .text.chThdTerminate:00000000 chThdTerminate
C:\Users\z80\AppData\Local\Temp\ccZTFaGT.s:632    .rodata:00000040 .LC3
C:\Users\z80\AppData\Local\Temp\ccZTFaGT.s:635    .text.chThdSleep:00000000 $t
C:\Users\z80\AppData\Local\Temp\ccZTFaGT.s:641    .text.chThdSleep:00000000 chThdSleep
C:\Users\z80\AppData\Local\Temp\ccZTFaGT.s:693    .text.chThdSleepUntil:00000000 $t
C:\Users\z80\AppData\Local\Temp\ccZTFaGT.s:699    .text.chThdSleepUntil:00000000 chThdSleepUntil
C:\Users\z80\AppData\Local\Temp\ccZTFaGT.s:753    .text.chThdYield:00000000 $t
C:\Users\z80\AppData\Local\Temp\ccZTFaGT.s:759    .text.chThdYield:00000000 chThdYield
C:\Users\z80\AppData\Local\Temp\ccZTFaGT.s:808    .text.chThdExit:00000000 $t
C:\Users\z80\AppData\Local\Temp\ccZTFaGT.s:814    .text.chThdExit:00000000 chThdExit
C:\Users\z80\AppData\Local\Temp\ccZTFaGT.s:857    .text.chThdExitS:00000000 chThdExitS
C:\Users\z80\AppData\Local\Temp\ccZTFaGT.s:848    .rodata:00000050 .LC4
C:\Users\z80\AppData\Local\Temp\ccZTFaGT.s:851    .text.chThdExitS:00000000 $t
C:\Users\z80\AppData\Local\Temp\ccZTFaGT.s:932    .rodata:00000064 .LC5
C:\Users\z80\AppData\Local\Temp\ccZTFaGT.s:935    .rodata:00000074 .LC6
C:\Users\z80\AppData\Local\Temp\ccZTFaGT.s:938    .text.chThdWait:00000000 $t
C:\Users\z80\AppData\Local\Temp\ccZTFaGT.s:944    .text.chThdWait:00000000 chThdWait
                     .debug_frame:00000010 $d

UNDEFINED SYMBOLS
rlist
chDbgCheckClassI
chDbgPanic
_port_thread_start
dbg_check_lock
chSchWakeupS
dbg_check_unlock
chSchRescheduleS
chSchGoSleepTimeoutS
vtlist
chSchDoReschedule
chSchReadyI
chSchGoSleepS
