ARM GAS  /tmp/cc4tCu4N.s 			page 1


   1              		.syntax unified
   2              		.cpu cortex-m3
   3              		.fpu softvfp
   4              		.eabi_attribute 20, 1
   5              		.eabi_attribute 21, 1
   6              		.eabi_attribute 23, 3
   7              		.eabi_attribute 24, 1
   8              		.eabi_attribute 25, 1
   9              		.eabi_attribute 26, 1
  10              		.eabi_attribute 30, 6
  11              		.eabi_attribute 18, 4
  12              		.thumb
  13              		.file	"chvt.c"
  14              		.section	.debug_abbrev,"",%progbits
  15              	.Ldebug_abbrev0:
  16              		.section	.debug_info,"",%progbits
  17              	.Ldebug_info0:
  18              		.section	.debug_line,"",%progbits
  19              	.Ldebug_line0:
  20 0000 C7010000 		.text
  20      02001801 
  20      00000201 
  20      FB0E0D00 
  20      01010101 
  21              	.Ltext0:
  22              		.cfi_sections	.debug_frame
  23              		.global	vtlist
  24              		.section	.bss.vtlist,"aw",%nobits
  25              		.align	2
  26              		.type	vtlist, %object
  27              		.size	vtlist, 16
  28              	vtlist:
  29 0000 00000000 		.space	16
  29      00000000 
  29      00000000 
  29      00000000 
  30              		.section	.text._vt_init,"ax",%progbits
  31              		.align	2
  32              		.p2align 4,,15
  33              		.global	_vt_init
  34              		.thumb
  35              		.thumb_func
  36              		.type	_vt_init, %function
  37              	_vt_init:
  38              	.LFB7:
  39              		.file 1 "../chibios_2.4.x/os/kernel/src/chvt.c"
  40              		.loc 1 50 0
  41              		.cfi_startproc
  42              		@ args = 0, pretend = 0, frame = 0
  43              		@ frame_needed = 0, uses_anonymous_args = 0
  44              		@ link register save eliminated.
  45              		.loc 1 52 0
  46 0000 074A     		ldr	r2, .L2
  47 0002 074B     		ldr	r3, .L2
  48 0004 5A60     		str	r2, [r3, #4]
  49 0006 064B     		ldr	r3, .L2
  50 0008 5A68     		ldr	r2, [r3, #4]
ARM GAS  /tmp/cc4tCu4N.s 			page 2


  51 000a 054B     		ldr	r3, .L2
  52 000c 1A60     		str	r2, [r3, #0]
  53              		.loc 1 53 0
  54 000e 044B     		ldr	r3, .L2
  55 0010 4FF0FF32 		mov	r2, #-1
  56 0014 9A60     		str	r2, [r3, #8]
  57              		.loc 1 54 0
  58 0016 024B     		ldr	r3, .L2
  59 0018 4FF00002 		mov	r2, #0
  60 001c DA60     		str	r2, [r3, #12]
  61              		.loc 1 55 0
  62 001e 7047     		bx	lr
  63              	.L3:
  64              		.align	2
  65              	.L2:
  66 0020 00000000 		.word	vtlist
  67              		.cfi_endproc
  68              	.LFE7:
  69              		.size	_vt_init, .-_vt_init
  70 0024 AFF30080 		.section	.rodata
  70      AFF30080 
  70      AFF30080 
  71              		.align	2
  72              	.LC0:
  73 0000 22636856 		.ascii	"\"chVTSetI\"()\000"
  73      54536574 
  73      49222829 
  73      00
  74              		.section	.text.chVTSetI,"ax",%progbits
  75              		.align	2
  76              		.p2align 4,,15
  77              		.global	chVTSetI
  78              		.thumb
  79              		.thumb_func
  80              		.type	chVTSetI, %function
  81              	chVTSetI:
  82              	.LFB8:
  83              		.loc 1 77 0
  84              		.cfi_startproc
  85              		@ args = 0, pretend = 0, frame = 24
  86              		@ frame_needed = 0, uses_anonymous_args = 0
  87 0000 00B5     		push	{lr}
  88              	.LCFI0:
  89              		.cfi_def_cfa_offset 4
  90 0002 87B0     		sub	sp, sp, #28
  91              	.LCFI1:
  92              		.cfi_def_cfa_offset 32
  93 0004 0390     		str	r0, [sp, #12]
  94 0006 0291     		str	r1, [sp, #8]
  95 0008 0192     		str	r2, [sp, #4]
  96 000a 0093     		str	r3, [sp, #0]
  97              		.loc 1 80 0
  98              		.cfi_offset 14, -4
  99 000c FFF7FEFF 		bl	chDbgCheckClassI
 100              		.loc 1 81 0
 101 0010 039B     		ldr	r3, [sp, #12]
 102 0012 002B     		cmp	r3, #0
ARM GAS  /tmp/cc4tCu4N.s 			page 3


 103 0014 05D0     		beq	.L5
 104              		.loc 1 81 0 is_stmt 0 discriminator 2
 105 0016 019B     		ldr	r3, [sp, #4]
 106 0018 002B     		cmp	r3, #0
 107 001a 02D0     		beq	.L5
 108              		.loc 1 81 0 discriminator 3
 109 001c 029B     		ldr	r3, [sp, #8]
 110 001e 002B     		cmp	r3, #0
 111 0020 02D1     		bne	.L6
 112              	.L5:
 113              		.loc 1 81 0 discriminator 1
 114 0022 1C48     		ldr	r0, .L10
 115 0024 FFF7FEFF 		bl	chDbgPanic
 116              	.L6:
 117              		.loc 1 84 0 is_stmt 1
 118 0028 039B     		ldr	r3, [sp, #12]
 119 002a 009A     		ldr	r2, [sp, #0]
 120 002c 1A61     		str	r2, [r3, #16]
 121              		.loc 1 85 0
 122 002e 039B     		ldr	r3, [sp, #12]
 123 0030 019A     		ldr	r2, [sp, #4]
 124 0032 DA60     		str	r2, [r3, #12]
 125              		.loc 1 86 0
 126 0034 184B     		ldr	r3, .L10+4
 127 0036 1B68     		ldr	r3, [r3, #0]
 128 0038 0593     		str	r3, [sp, #20]
 129              		.loc 1 87 0
 130 003a 07E0     		b	.L7
 131              	.L8:
 132              		.loc 1 88 0
 133 003c 059B     		ldr	r3, [sp, #20]
 134 003e 9B68     		ldr	r3, [r3, #8]
 135 0040 029A     		ldr	r2, [sp, #8]
 136 0042 D31A     		subs	r3, r2, r3
 137 0044 0293     		str	r3, [sp, #8]
 138              		.loc 1 89 0
 139 0046 059B     		ldr	r3, [sp, #20]
 140 0048 1B68     		ldr	r3, [r3, #0]
 141 004a 0593     		str	r3, [sp, #20]
 142              	.L7:
 143              		.loc 1 87 0 discriminator 1
 144 004c 059B     		ldr	r3, [sp, #20]
 145 004e 9A68     		ldr	r2, [r3, #8]
 146 0050 029B     		ldr	r3, [sp, #8]
 147 0052 9A42     		cmp	r2, r3
 148 0054 F2D3     		bcc	.L8
 149              		.loc 1 92 0
 150 0056 039B     		ldr	r3, [sp, #12]
 151 0058 059A     		ldr	r2, [sp, #20]
 152 005a 1A60     		str	r2, [r3, #0]
 153 005c 039B     		ldr	r3, [sp, #12]
 154 005e 1B68     		ldr	r3, [r3, #0]
 155 0060 5A68     		ldr	r2, [r3, #4]
 156 0062 039B     		ldr	r3, [sp, #12]
 157 0064 5A60     		str	r2, [r3, #4]
 158              		.loc 1 93 0
 159 0066 039B     		ldr	r3, [sp, #12]
ARM GAS  /tmp/cc4tCu4N.s 			page 4


 160 0068 5B68     		ldr	r3, [r3, #4]
 161 006a 059A     		ldr	r2, [sp, #20]
 162 006c 0399     		ldr	r1, [sp, #12]
 163 006e 5160     		str	r1, [r2, #4]
 164 0070 059A     		ldr	r2, [sp, #20]
 165 0072 5268     		ldr	r2, [r2, #4]
 166 0074 1A60     		str	r2, [r3, #0]
 167              		.loc 1 94 0
 168 0076 039B     		ldr	r3, [sp, #12]
 169 0078 029A     		ldr	r2, [sp, #8]
 170 007a 9A60     		str	r2, [r3, #8]
 171              		.loc 1 95 0
 172 007c 059A     		ldr	r2, [sp, #20]
 173 007e 064B     		ldr	r3, .L10+4
 174 0080 9A42     		cmp	r2, r3
 175 0082 05D0     		beq	.L4
 176              		.loc 1 96 0
 177 0084 059B     		ldr	r3, [sp, #20]
 178 0086 9A68     		ldr	r2, [r3, #8]
 179 0088 029B     		ldr	r3, [sp, #8]
 180 008a D21A     		subs	r2, r2, r3
 181 008c 059B     		ldr	r3, [sp, #20]
 182 008e 9A60     		str	r2, [r3, #8]
 183              	.L4:
 184              		.loc 1 97 0
 185 0090 07B0     		add	sp, sp, #28
 186 0092 00BD     		pop	{pc}
 187              	.L11:
 188              		.align	2
 189              	.L10:
 190 0094 00000000 		.word	.LC0
 191 0098 00000000 		.word	vtlist
 192              		.cfi_endproc
 193              	.LFE8:
 194              		.size	chVTSetI, .-chVTSetI
 195 009c AFF30080 		.section	.rodata
 196 000d 000000   		.align	2
 197              	.LC1:
 198 0010 22636856 		.ascii	"\"chVTResetI\"()\000"
 198      54526573 
 198      65744922 
 198      282900
 199 001f 00       		.align	2
 200              	.LC2:
 201 0020 63685654 		.ascii	"chVTResetI(), #1\000"
 201      52657365 
 201      74492829 
 201      2C202331 
 201      00
 202 0031 000000   		.section	.text.chVTResetI,"ax",%progbits
 203              		.align	2
 204              		.p2align 4,,15
 205              		.global	chVTResetI
 206              		.thumb
 207              		.thumb_func
 208              		.type	chVTResetI, %function
 209              	chVTResetI:
ARM GAS  /tmp/cc4tCu4N.s 			page 5


 210              	.LFB9:
 211              		.loc 1 107 0
 212              		.cfi_startproc
 213              		@ args = 0, pretend = 0, frame = 8
 214              		@ frame_needed = 0, uses_anonymous_args = 0
 215 0000 00B5     		push	{lr}
 216              	.LCFI2:
 217              		.cfi_def_cfa_offset 4
 218 0002 83B0     		sub	sp, sp, #12
 219              	.LCFI3:
 220              		.cfi_def_cfa_offset 16
 221 0004 0190     		str	r0, [sp, #4]
 222              		.loc 1 109 0
 223              		.cfi_offset 14, -4
 224 0006 FFF7FEFF 		bl	chDbgCheckClassI
 225              		.loc 1 110 0
 226 000a 019B     		ldr	r3, [sp, #4]
 227 000c 002B     		cmp	r3, #0
 228 000e 02D1     		bne	.L13
 229              		.loc 1 110 0 is_stmt 0 discriminator 1
 230 0010 1348     		ldr	r0, .L16
 231 0012 FFF7FEFF 		bl	chDbgPanic
 232              	.L13:
 233              		.loc 1 111 0 is_stmt 1
 234 0016 019B     		ldr	r3, [sp, #4]
 235 0018 DB68     		ldr	r3, [r3, #12]
 236 001a 002B     		cmp	r3, #0
 237 001c 02D1     		bne	.L14
 238              		.loc 1 111 0 is_stmt 0 discriminator 1
 239 001e 1148     		ldr	r0, .L16+4
 240 0020 FFF7FEFF 		bl	chDbgPanic
 241              	.L14:
 242              		.loc 1 115 0 is_stmt 1
 243 0024 019B     		ldr	r3, [sp, #4]
 244 0026 1A68     		ldr	r2, [r3, #0]
 245 0028 0F4B     		ldr	r3, .L16+8
 246 002a 9A42     		cmp	r2, r3
 247 002c 08D0     		beq	.L15
 248              		.loc 1 116 0
 249 002e 019B     		ldr	r3, [sp, #4]
 250 0030 1B68     		ldr	r3, [r3, #0]
 251 0032 019A     		ldr	r2, [sp, #4]
 252 0034 1268     		ldr	r2, [r2, #0]
 253 0036 9168     		ldr	r1, [r2, #8]
 254 0038 019A     		ldr	r2, [sp, #4]
 255 003a 9268     		ldr	r2, [r2, #8]
 256 003c 8A18     		adds	r2, r1, r2
 257 003e 9A60     		str	r2, [r3, #8]
 258              	.L15:
 259              		.loc 1 117 0
 260 0040 019B     		ldr	r3, [sp, #4]
 261 0042 5B68     		ldr	r3, [r3, #4]
 262 0044 019A     		ldr	r2, [sp, #4]
 263 0046 1268     		ldr	r2, [r2, #0]
 264 0048 1A60     		str	r2, [r3, #0]
 265              		.loc 1 118 0
 266 004a 019B     		ldr	r3, [sp, #4]
ARM GAS  /tmp/cc4tCu4N.s 			page 6


 267 004c 1B68     		ldr	r3, [r3, #0]
 268 004e 019A     		ldr	r2, [sp, #4]
 269 0050 5268     		ldr	r2, [r2, #4]
 270 0052 5A60     		str	r2, [r3, #4]
 271              		.loc 1 119 0
 272 0054 019B     		ldr	r3, [sp, #4]
 273 0056 4FF00002 		mov	r2, #0
 274 005a DA60     		str	r2, [r3, #12]
 275              		.loc 1 120 0
 276 005c 03B0     		add	sp, sp, #12
 277 005e 00BD     		pop	{pc}
 278              	.L17:
 279              		.align	2
 280              	.L16:
 281 0060 10000000 		.word	.LC1
 282 0064 20000000 		.word	.LC2
 283 0068 00000000 		.word	vtlist
 284              		.cfi_endproc
 285              	.LFE9:
 286              		.size	chVTResetI, .-chVTResetI
 287 006c AFF30080 		.section	.text.chTimeIsWithin,"ax",%progbits
 288              		.align	2
 289              		.p2align 4,,15
 290              		.global	chTimeIsWithin
 291              		.thumb
 292              		.thumb_func
 293              		.type	chTimeIsWithin, %function
 294              	chTimeIsWithin:
 295              	.LFB10:
 296              		.loc 1 135 0
 297              		.cfi_startproc
 298              		@ args = 0, pretend = 0, frame = 16
 299              		@ frame_needed = 0, uses_anonymous_args = 0
 300              		@ link register save eliminated.
 301 0000 84B0     		sub	sp, sp, #16
 302              	.LCFI4:
 303              		.cfi_def_cfa_offset 16
 304 0002 0190     		str	r0, [sp, #4]
 305 0004 0091     		str	r1, [sp, #0]
 306              		.loc 1 137 0
 307 0006 124B     		ldr	r3, .L26
 308 0008 DB68     		ldr	r3, [r3, #12]
 309 000a 0393     		str	r3, [sp, #12]
 310              		.loc 1 138 0
 311 000c 009A     		ldr	r2, [sp, #0]
 312 000e 019B     		ldr	r3, [sp, #4]
 313 0010 9A42     		cmp	r2, r3
 314 0012 0DD9     		bls	.L19
 315              		.loc 1 138 0 is_stmt 0 discriminator 1
 316 0014 039A     		ldr	r2, [sp, #12]
 317 0016 019B     		ldr	r3, [sp, #4]
 318 0018 9A42     		cmp	r2, r3
 319 001a 06D3     		bcc	.L20
 320              		.loc 1 138 0 discriminator 3
 321 001c 039A     		ldr	r2, [sp, #12]
 322 001e 009B     		ldr	r3, [sp, #0]
 323 0020 9A42     		cmp	r2, r3
ARM GAS  /tmp/cc4tCu4N.s 			page 7


 324 0022 02D2     		bcs	.L20
 325              		.loc 1 138 0 discriminator 1
 326 0024 4FF00103 		mov	r3, #1
 327 0028 01E0     		b	.L21
 328              	.L20:
 329              		.loc 1 138 0 discriminator 4
 330 002a 4FF00003 		mov	r3, #0
 331              	.L21:
 332 002e 0CE0     		b	.L22
 333              	.L19:
 334              		.loc 1 138 0 discriminator 2
 335 0030 039A     		ldr	r2, [sp, #12]
 336 0032 019B     		ldr	r3, [sp, #4]
 337 0034 9A42     		cmp	r2, r3
 338 0036 03D2     		bcs	.L23
 339              		.loc 1 139 0 is_stmt 1
 340 0038 039A     		ldr	r2, [sp, #12]
 341 003a 009B     		ldr	r3, [sp, #0]
 342 003c 9A42     		cmp	r2, r3
 343 003e 02D2     		bcs	.L24
 344              	.L23:
 345              		.loc 1 138 0 discriminator 6
 346 0040 4FF00103 		mov	r3, #1
 347 0044 01E0     		b	.L25
 348              	.L24:
 349              		.loc 1 138 0 is_stmt 0
 350 0046 4FF00003 		mov	r3, #0
 351              	.L25:
 352              	.L22:
 353              		.loc 1 140 0 is_stmt 1 discriminator 8
 354 004a 1846     		mov	r0, r3
 355 004c 04B0     		add	sp, sp, #16
 356 004e 7047     		bx	lr
 357              	.L27:
 358              		.align	2
 359              	.L26:
 360 0050 00000000 		.word	vtlist
 361              		.cfi_endproc
 362              	.LFE10:
 363              		.size	chTimeIsWithin, .-chTimeIsWithin
 364 0054 AFF30080 		.text
 364      AFF30080 
 364      AFF30080 
 365              	.Letext0:
 366              		.section	.debug_loc,"",%progbits
 367              	.Ldebug_loc0:
 368              	.LLST0:
 369 0000 00000000 		.4byte	.LFB8
 370 0004 02000000 		.4byte	.LCFI0
 371 0008 0200     		.2byte	0x2
 372 000a 7D       		.byte	0x7d
 373 000b 00       		.sleb128 0
 374 000c 02000000 		.4byte	.LCFI0
 375 0010 04000000 		.4byte	.LCFI1
 376 0014 0200     		.2byte	0x2
 377 0016 7D       		.byte	0x7d
 378 0017 04       		.sleb128 4
ARM GAS  /tmp/cc4tCu4N.s 			page 8


 379 0018 04000000 		.4byte	.LCFI1
 380 001c 9C000000 		.4byte	.LFE8
 381 0020 0200     		.2byte	0x2
 382 0022 7D       		.byte	0x7d
 383 0023 20       		.sleb128 32
 384 0024 00000000 		.4byte	0x0
 385 0028 00000000 		.4byte	0x0
 386              	.LLST1:
 387 002c 00000000 		.4byte	.LFB9
 388 0030 02000000 		.4byte	.LCFI2
 389 0034 0200     		.2byte	0x2
 390 0036 7D       		.byte	0x7d
 391 0037 00       		.sleb128 0
 392 0038 02000000 		.4byte	.LCFI2
 393 003c 04000000 		.4byte	.LCFI3
 394 0040 0200     		.2byte	0x2
 395 0042 7D       		.byte	0x7d
 396 0043 04       		.sleb128 4
 397 0044 04000000 		.4byte	.LCFI3
 398 0048 6C000000 		.4byte	.LFE9
 399 004c 0200     		.2byte	0x2
 400 004e 7D       		.byte	0x7d
 401 004f 10       		.sleb128 16
 402 0050 00000000 		.4byte	0x0
 403 0054 00000000 		.4byte	0x0
 404              	.LLST2:
 405 0058 00000000 		.4byte	.LFB10
 406 005c 02000000 		.4byte	.LCFI4
 407 0060 0200     		.2byte	0x2
 408 0062 7D       		.byte	0x7d
 409 0063 00       		.sleb128 0
 410 0064 02000000 		.4byte	.LCFI4
 411 0068 54000000 		.4byte	.LFE10
 412 006c 0200     		.2byte	0x2
 413 006e 7D       		.byte	0x7d
 414 006f 10       		.sleb128 16
 415 0070 00000000 		.4byte	0x0
 416 0074 00000000 		.4byte	0x0
 417              		.file 2 "/home/z80/programs/code-sourcery/2011.03-42/bin/../lib/gcc/arm-none-eabi/4.5.2/../../../.
 418              		.file 3 "../chibios_2.4.x/os/ports/GCC/ARMCMx/chtypes.h"
 419              		.file 4 "../chibios_2.4.x/os/kernel/include/chvt.h"
 420              		.section	.debug_info
 421 0000 74020000 		.4byte	0x274
 422 0004 0200     		.2byte	0x2
 423 0006 00000000 		.4byte	.Ldebug_abbrev0
 424 000a 04       		.byte	0x4
 425 000b 01       		.uleb128 0x1
 426 000c 09000000 		.4byte	.LASF29
 427 0010 01       		.byte	0x1
 428 0011 5E000000 		.4byte	.LASF30
 429 0015 2C000000 		.4byte	.LASF31
 430 0019 00000000 		.4byte	0x0
 431 001d 00000000 		.4byte	0x0
 432 0021 00000000 		.4byte	.Ldebug_ranges0+0x0
 433 0025 00000000 		.4byte	.Ldebug_line0
 434 0029 02       		.uleb128 0x2
 435 002a 04       		.byte	0x4
ARM GAS  /tmp/cc4tCu4N.s 			page 9


 436 002b 05       		.byte	0x5
 437 002c 696E7400 		.ascii	"int\000"
 438 0030 03       		.uleb128 0x3
 439 0031 04       		.byte	0x4
 440 0032 07       		.byte	0x7
 441 0033 D6000000 		.4byte	.LASF0
 442 0037 03       		.uleb128 0x3
 443 0038 01       		.byte	0x1
 444 0039 06       		.byte	0x6
 445 003a 7D010000 		.4byte	.LASF1
 446 003e 03       		.uleb128 0x3
 447 003f 01       		.byte	0x1
 448 0040 08       		.byte	0x8
 449 0041 BF000000 		.4byte	.LASF2
 450 0045 03       		.uleb128 0x3
 451 0046 02       		.byte	0x2
 452 0047 05       		.byte	0x5
 453 0048 4A010000 		.4byte	.LASF3
 454 004c 03       		.uleb128 0x3
 455 004d 02       		.byte	0x2
 456 004e 07       		.byte	0x7
 457 004f 9F000000 		.4byte	.LASF4
 458 0053 04       		.uleb128 0x4
 459 0054 0E010000 		.4byte	.LASF6
 460 0058 02       		.byte	0x2
 461 0059 4F       		.byte	0x4f
 462 005a 5E000000 		.4byte	0x5e
 463 005e 03       		.uleb128 0x3
 464 005f 04       		.byte	0x4
 465 0060 05       		.byte	0x5
 466 0061 74010000 		.4byte	.LASF5
 467 0065 04       		.uleb128 0x4
 468 0066 6B010000 		.4byte	.LASF7
 469 006a 02       		.byte	0x2
 470 006b 50       		.byte	0x50
 471 006c 70000000 		.4byte	0x70
 472 0070 03       		.uleb128 0x3
 473 0071 04       		.byte	0x4
 474 0072 07       		.byte	0x7
 475 0073 8D000000 		.4byte	.LASF8
 476 0077 03       		.uleb128 0x3
 477 0078 08       		.byte	0x8
 478 0079 05       		.byte	0x5
 479 007a 21010000 		.4byte	.LASF9
 480 007e 03       		.uleb128 0x3
 481 007f 08       		.byte	0x8
 482 0080 07       		.byte	0x7
 483 0081 E3000000 		.4byte	.LASF10
 484 0085 04       		.uleb128 0x4
 485 0086 25000000 		.4byte	.LASF11
 486 008a 03       		.byte	0x3
 487 008b 2E       		.byte	0x2e
 488 008c 53000000 		.4byte	0x53
 489 0090 04       		.uleb128 0x4
 490 0091 15000000 		.4byte	.LASF12
 491 0095 03       		.byte	0x3
 492 0096 36       		.byte	0x36
ARM GAS  /tmp/cc4tCu4N.s 			page 10


 493 0097 65000000 		.4byte	0x65
 494 009b 05       		.uleb128 0x5
 495 009c 04       		.byte	0x4
 496 009d 04       		.uleb128 0x4
 497 009e 84000000 		.4byte	.LASF13
 498 00a2 04       		.byte	0x4
 499 00a3 53       		.byte	0x53
 500 00a4 A8000000 		.4byte	0xa8
 501 00a8 06       		.uleb128 0x6
 502 00a9 04       		.byte	0x4
 503 00aa AE000000 		.4byte	0xae
 504 00ae 07       		.uleb128 0x7
 505 00af 01       		.byte	0x1
 506 00b0 BA000000 		.4byte	0xba
 507 00b4 08       		.uleb128 0x8
 508 00b5 9B000000 		.4byte	0x9b
 509 00b9 00       		.byte	0x0
 510 00ba 04       		.uleb128 0x4
 511 00bb B2000000 		.4byte	.LASF14
 512 00bf 04       		.byte	0x4
 513 00c0 58       		.byte	0x58
 514 00c1 C5000000 		.4byte	0xc5
 515 00c5 09       		.uleb128 0x9
 516 00c6 B2000000 		.4byte	.LASF14
 517 00ca 14       		.byte	0x14
 518 00cb 04       		.byte	0x4
 519 00cc 5F       		.byte	0x5f
 520 00cd 18010000 		.4byte	0x118
 521 00d1 0A       		.uleb128 0xa
 522 00d2 90010000 		.4byte	.LASF15
 523 00d6 04       		.byte	0x4
 524 00d7 60       		.byte	0x60
 525 00d8 18010000 		.4byte	0x118
 526 00dc 02       		.byte	0x2
 527 00dd 23       		.byte	0x23
 528 00de 00       		.uleb128 0x0
 529 00df 0A       		.uleb128 0xa
 530 00e0 63010000 		.4byte	.LASF16
 531 00e4 04       		.byte	0x4
 532 00e5 62       		.byte	0x62
 533 00e6 18010000 		.4byte	0x118
 534 00ea 02       		.byte	0x2
 535 00eb 23       		.byte	0x23
 536 00ec 04       		.uleb128 0x4
 537 00ed 0A       		.uleb128 0xa
 538 00ee 06010000 		.4byte	.LASF17
 539 00f2 04       		.byte	0x4
 540 00f3 64       		.byte	0x64
 541 00f4 90000000 		.4byte	0x90
 542 00f8 02       		.byte	0x2
 543 00f9 23       		.byte	0x23
 544 00fa 08       		.uleb128 0x8
 545 00fb 0A       		.uleb128 0xa
 546 00fc 2F010000 		.4byte	.LASF18
 547 0100 04       		.byte	0x4
 548 0101 65       		.byte	0x65
 549 0102 9D000000 		.4byte	0x9d
ARM GAS  /tmp/cc4tCu4N.s 			page 11


 550 0106 02       		.byte	0x2
 551 0107 23       		.byte	0x23
 552 0108 0C       		.uleb128 0xc
 553 0109 0A       		.uleb128 0xa
 554 010a 43010000 		.4byte	.LASF19
 555 010e 04       		.byte	0x4
 556 010f 67       		.byte	0x67
 557 0110 9B000000 		.4byte	0x9b
 558 0114 02       		.byte	0x2
 559 0115 23       		.byte	0x23
 560 0116 10       		.uleb128 0x10
 561 0117 00       		.byte	0x0
 562 0118 06       		.uleb128 0x6
 563 0119 04       		.byte	0x4
 564 011a BA000000 		.4byte	0xba
 565 011e 0B       		.uleb128 0xb
 566 011f 10       		.byte	0x10
 567 0120 04       		.byte	0x4
 568 0121 71       		.byte	0x71
 569 0122 5F010000 		.4byte	0x15f
 570 0126 0A       		.uleb128 0xa
 571 0127 90010000 		.4byte	.LASF15
 572 012b 04       		.byte	0x4
 573 012c 72       		.byte	0x72
 574 012d 18010000 		.4byte	0x118
 575 0131 02       		.byte	0x2
 576 0132 23       		.byte	0x23
 577 0133 00       		.uleb128 0x0
 578 0134 0A       		.uleb128 0xa
 579 0135 63010000 		.4byte	.LASF16
 580 0139 04       		.byte	0x4
 581 013a 74       		.byte	0x74
 582 013b 18010000 		.4byte	0x118
 583 013f 02       		.byte	0x2
 584 0140 23       		.byte	0x23
 585 0141 04       		.uleb128 0x4
 586 0142 0A       		.uleb128 0xa
 587 0143 06010000 		.4byte	.LASF17
 588 0147 04       		.byte	0x4
 589 0148 76       		.byte	0x76
 590 0149 90000000 		.4byte	0x90
 591 014d 02       		.byte	0x2
 592 014e 23       		.byte	0x23
 593 014f 08       		.uleb128 0x8
 594 0150 0A       		.uleb128 0xa
 595 0151 16010000 		.4byte	.LASF20
 596 0155 04       		.byte	0x4
 597 0156 77       		.byte	0x77
 598 0157 5F010000 		.4byte	0x15f
 599 015b 02       		.byte	0x2
 600 015c 23       		.byte	0x23
 601 015d 0C       		.uleb128 0xc
 602 015e 00       		.byte	0x0
 603 015f 0C       		.uleb128 0xc
 604 0160 90000000 		.4byte	0x90
 605 0164 04       		.uleb128 0x4
 606 0165 89010000 		.4byte	.LASF21
ARM GAS  /tmp/cc4tCu4N.s 			page 12


 607 0169 04       		.byte	0x4
 608 016a 78       		.byte	0x78
 609 016b 1E010000 		.4byte	0x11e
 610 016f 03       		.uleb128 0x3
 611 0170 01       		.byte	0x1
 612 0171 08       		.byte	0x8
 613 0172 3E010000 		.4byte	.LASF22
 614 0176 0D       		.uleb128 0xd
 615 0177 01       		.byte	0x1
 616 0178 CD000000 		.4byte	.LASF32
 617 017c 01       		.byte	0x1
 618 017d 32       		.byte	0x32
 619 017e 01       		.byte	0x1
 620 017f 00000000 		.4byte	.LFB7
 621 0183 24000000 		.4byte	.LFE7
 622 0187 02       		.byte	0x2
 623 0188 7D       		.byte	0x7d
 624 0189 00       		.sleb128 0
 625 018a 0E       		.uleb128 0xe
 626 018b 01       		.byte	0x1
 627 018c 00000000 		.4byte	.LASF25
 628 0190 01       		.byte	0x1
 629 0191 4D       		.byte	0x4d
 630 0192 01       		.byte	0x1
 631 0193 00000000 		.4byte	.LFB8
 632 0197 9C000000 		.4byte	.LFE8
 633 019b 00000000 		.4byte	.LLST0
 634 019f E8010000 		.4byte	0x1e8
 635 01a3 0F       		.uleb128 0xf
 636 01a4 76747000 		.ascii	"vtp\000"
 637 01a8 01       		.byte	0x1
 638 01a9 4D       		.byte	0x4d
 639 01aa 18010000 		.4byte	0x118
 640 01ae 02       		.byte	0x2
 641 01af 91       		.byte	0x91
 642 01b0 6C       		.sleb128 -20
 643 01b1 10       		.uleb128 0x10
 644 01b2 01010000 		.4byte	.LASF23
 645 01b6 01       		.byte	0x1
 646 01b7 4D       		.byte	0x4d
 647 01b8 90000000 		.4byte	0x90
 648 01bc 02       		.byte	0x2
 649 01bd 91       		.byte	0x91
 650 01be 68       		.sleb128 -24
 651 01bf 10       		.uleb128 0x10
 652 01c0 37010000 		.4byte	.LASF24
 653 01c4 01       		.byte	0x1
 654 01c5 4D       		.byte	0x4d
 655 01c6 9D000000 		.4byte	0x9d
 656 01ca 02       		.byte	0x2
 657 01cb 91       		.byte	0x91
 658 01cc 64       		.sleb128 -28
 659 01cd 0F       		.uleb128 0xf
 660 01ce 70617200 		.ascii	"par\000"
 661 01d2 01       		.byte	0x1
 662 01d3 4D       		.byte	0x4d
 663 01d4 9B000000 		.4byte	0x9b
ARM GAS  /tmp/cc4tCu4N.s 			page 13


 664 01d8 02       		.byte	0x2
 665 01d9 91       		.byte	0x91
 666 01da 60       		.sleb128 -32
 667 01db 11       		.uleb128 0x11
 668 01dc 7000     		.ascii	"p\000"
 669 01de 01       		.byte	0x1
 670 01df 4E       		.byte	0x4e
 671 01e0 18010000 		.4byte	0x118
 672 01e4 02       		.byte	0x2
 673 01e5 91       		.byte	0x91
 674 01e6 74       		.sleb128 -12
 675 01e7 00       		.byte	0x0
 676 01e8 0E       		.uleb128 0xe
 677 01e9 01       		.byte	0x1
 678 01ea 98010000 		.4byte	.LASF26
 679 01ee 01       		.byte	0x1
 680 01ef 6B       		.byte	0x6b
 681 01f0 01       		.byte	0x1
 682 01f1 00000000 		.4byte	.LFB9
 683 01f5 6C000000 		.4byte	.LFE9
 684 01f9 2C000000 		.4byte	.LLST1
 685 01fd 10020000 		.4byte	0x210
 686 0201 0F       		.uleb128 0xf
 687 0202 76747000 		.ascii	"vtp\000"
 688 0206 01       		.byte	0x1
 689 0207 6B       		.byte	0x6b
 690 0208 18010000 		.4byte	0x118
 691 020c 02       		.byte	0x2
 692 020d 91       		.byte	0x91
 693 020e 74       		.sleb128 -12
 694 020f 00       		.byte	0x0
 695 0210 12       		.uleb128 0x12
 696 0211 01       		.byte	0x1
 697 0212 54010000 		.4byte	.LASF33
 698 0216 01       		.byte	0x1
 699 0217 87       		.byte	0x87
 700 0218 01       		.byte	0x1
 701 0219 85000000 		.4byte	0x85
 702 021d 00000000 		.4byte	.LFB10
 703 0221 54000000 		.4byte	.LFE10
 704 0225 58000000 		.4byte	.LLST2
 705 0229 58020000 		.4byte	0x258
 706 022d 10       		.uleb128 0x10
 707 022e 1F000000 		.4byte	.LASF27
 708 0232 01       		.byte	0x1
 709 0233 87       		.byte	0x87
 710 0234 90000000 		.4byte	0x90
 711 0238 02       		.byte	0x2
 712 0239 91       		.byte	0x91
 713 023a 74       		.sleb128 -12
 714 023b 0F       		.uleb128 0xf
 715 023c 656E6400 		.ascii	"end\000"
 716 0240 01       		.byte	0x1
 717 0241 87       		.byte	0x87
 718 0242 90000000 		.4byte	0x90
 719 0246 02       		.byte	0x2
 720 0247 91       		.byte	0x91
ARM GAS  /tmp/cc4tCu4N.s 			page 14


 721 0248 70       		.sleb128 -16
 722 0249 13       		.uleb128 0x13
 723 024a 01010000 		.4byte	.LASF23
 724 024e 01       		.byte	0x1
 725 024f 89       		.byte	0x89
 726 0250 90000000 		.4byte	0x90
 727 0254 02       		.byte	0x2
 728 0255 91       		.byte	0x91
 729 0256 7C       		.sleb128 -4
 730 0257 00       		.byte	0x0
 731 0258 14       		.uleb128 0x14
 732 0259 FA000000 		.4byte	.LASF28
 733 025d 04       		.byte	0x4
 734 025e 7A       		.byte	0x7a
 735 025f 64010000 		.4byte	0x164
 736 0263 01       		.byte	0x1
 737 0264 01       		.byte	0x1
 738 0265 15       		.uleb128 0x15
 739 0266 FA000000 		.4byte	.LASF28
 740 026a 01       		.byte	0x1
 741 026b 2A       		.byte	0x2a
 742 026c 64010000 		.4byte	0x164
 743 0270 01       		.byte	0x1
 744 0271 05       		.byte	0x5
 745 0272 03       		.byte	0x3
 746 0273 00000000 		.4byte	vtlist
 747 0277 00       		.byte	0x0
 748              		.section	.debug_abbrev
 749 0000 01       		.uleb128 0x1
 750 0001 11       		.uleb128 0x11
 751 0002 01       		.byte	0x1
 752 0003 25       		.uleb128 0x25
 753 0004 0E       		.uleb128 0xe
 754 0005 13       		.uleb128 0x13
 755 0006 0B       		.uleb128 0xb
 756 0007 03       		.uleb128 0x3
 757 0008 0E       		.uleb128 0xe
 758 0009 1B       		.uleb128 0x1b
 759 000a 0E       		.uleb128 0xe
 760 000b 11       		.uleb128 0x11
 761 000c 01       		.uleb128 0x1
 762 000d 52       		.uleb128 0x52
 763 000e 01       		.uleb128 0x1
 764 000f 55       		.uleb128 0x55
 765 0010 06       		.uleb128 0x6
 766 0011 10       		.uleb128 0x10
 767 0012 06       		.uleb128 0x6
 768 0013 00       		.byte	0x0
 769 0014 00       		.byte	0x0
 770 0015 02       		.uleb128 0x2
 771 0016 24       		.uleb128 0x24
 772 0017 00       		.byte	0x0
 773 0018 0B       		.uleb128 0xb
 774 0019 0B       		.uleb128 0xb
 775 001a 3E       		.uleb128 0x3e
 776 001b 0B       		.uleb128 0xb
 777 001c 03       		.uleb128 0x3
ARM GAS  /tmp/cc4tCu4N.s 			page 15


 778 001d 08       		.uleb128 0x8
 779 001e 00       		.byte	0x0
 780 001f 00       		.byte	0x0
 781 0020 03       		.uleb128 0x3
 782 0021 24       		.uleb128 0x24
 783 0022 00       		.byte	0x0
 784 0023 0B       		.uleb128 0xb
 785 0024 0B       		.uleb128 0xb
 786 0025 3E       		.uleb128 0x3e
 787 0026 0B       		.uleb128 0xb
 788 0027 03       		.uleb128 0x3
 789 0028 0E       		.uleb128 0xe
 790 0029 00       		.byte	0x0
 791 002a 00       		.byte	0x0
 792 002b 04       		.uleb128 0x4
 793 002c 16       		.uleb128 0x16
 794 002d 00       		.byte	0x0
 795 002e 03       		.uleb128 0x3
 796 002f 0E       		.uleb128 0xe
 797 0030 3A       		.uleb128 0x3a
 798 0031 0B       		.uleb128 0xb
 799 0032 3B       		.uleb128 0x3b
 800 0033 0B       		.uleb128 0xb
 801 0034 49       		.uleb128 0x49
 802 0035 13       		.uleb128 0x13
 803 0036 00       		.byte	0x0
 804 0037 00       		.byte	0x0
 805 0038 05       		.uleb128 0x5
 806 0039 0F       		.uleb128 0xf
 807 003a 00       		.byte	0x0
 808 003b 0B       		.uleb128 0xb
 809 003c 0B       		.uleb128 0xb
 810 003d 00       		.byte	0x0
 811 003e 00       		.byte	0x0
 812 003f 06       		.uleb128 0x6
 813 0040 0F       		.uleb128 0xf
 814 0041 00       		.byte	0x0
 815 0042 0B       		.uleb128 0xb
 816 0043 0B       		.uleb128 0xb
 817 0044 49       		.uleb128 0x49
 818 0045 13       		.uleb128 0x13
 819 0046 00       		.byte	0x0
 820 0047 00       		.byte	0x0
 821 0048 07       		.uleb128 0x7
 822 0049 15       		.uleb128 0x15
 823 004a 01       		.byte	0x1
 824 004b 27       		.uleb128 0x27
 825 004c 0C       		.uleb128 0xc
 826 004d 01       		.uleb128 0x1
 827 004e 13       		.uleb128 0x13
 828 004f 00       		.byte	0x0
 829 0050 00       		.byte	0x0
 830 0051 08       		.uleb128 0x8
 831 0052 05       		.uleb128 0x5
 832 0053 00       		.byte	0x0
 833 0054 49       		.uleb128 0x49
 834 0055 13       		.uleb128 0x13
ARM GAS  /tmp/cc4tCu4N.s 			page 16


 835 0056 00       		.byte	0x0
 836 0057 00       		.byte	0x0
 837 0058 09       		.uleb128 0x9
 838 0059 13       		.uleb128 0x13
 839 005a 01       		.byte	0x1
 840 005b 03       		.uleb128 0x3
 841 005c 0E       		.uleb128 0xe
 842 005d 0B       		.uleb128 0xb
 843 005e 0B       		.uleb128 0xb
 844 005f 3A       		.uleb128 0x3a
 845 0060 0B       		.uleb128 0xb
 846 0061 3B       		.uleb128 0x3b
 847 0062 0B       		.uleb128 0xb
 848 0063 01       		.uleb128 0x1
 849 0064 13       		.uleb128 0x13
 850 0065 00       		.byte	0x0
 851 0066 00       		.byte	0x0
 852 0067 0A       		.uleb128 0xa
 853 0068 0D       		.uleb128 0xd
 854 0069 00       		.byte	0x0
 855 006a 03       		.uleb128 0x3
 856 006b 0E       		.uleb128 0xe
 857 006c 3A       		.uleb128 0x3a
 858 006d 0B       		.uleb128 0xb
 859 006e 3B       		.uleb128 0x3b
 860 006f 0B       		.uleb128 0xb
 861 0070 49       		.uleb128 0x49
 862 0071 13       		.uleb128 0x13
 863 0072 38       		.uleb128 0x38
 864 0073 0A       		.uleb128 0xa
 865 0074 00       		.byte	0x0
 866 0075 00       		.byte	0x0
 867 0076 0B       		.uleb128 0xb
 868 0077 13       		.uleb128 0x13
 869 0078 01       		.byte	0x1
 870 0079 0B       		.uleb128 0xb
 871 007a 0B       		.uleb128 0xb
 872 007b 3A       		.uleb128 0x3a
 873 007c 0B       		.uleb128 0xb
 874 007d 3B       		.uleb128 0x3b
 875 007e 0B       		.uleb128 0xb
 876 007f 01       		.uleb128 0x1
 877 0080 13       		.uleb128 0x13
 878 0081 00       		.byte	0x0
 879 0082 00       		.byte	0x0
 880 0083 0C       		.uleb128 0xc
 881 0084 35       		.uleb128 0x35
 882 0085 00       		.byte	0x0
 883 0086 49       		.uleb128 0x49
 884 0087 13       		.uleb128 0x13
 885 0088 00       		.byte	0x0
 886 0089 00       		.byte	0x0
 887 008a 0D       		.uleb128 0xd
 888 008b 2E       		.uleb128 0x2e
 889 008c 00       		.byte	0x0
 890 008d 3F       		.uleb128 0x3f
 891 008e 0C       		.uleb128 0xc
ARM GAS  /tmp/cc4tCu4N.s 			page 17


 892 008f 03       		.uleb128 0x3
 893 0090 0E       		.uleb128 0xe
 894 0091 3A       		.uleb128 0x3a
 895 0092 0B       		.uleb128 0xb
 896 0093 3B       		.uleb128 0x3b
 897 0094 0B       		.uleb128 0xb
 898 0095 27       		.uleb128 0x27
 899 0096 0C       		.uleb128 0xc
 900 0097 11       		.uleb128 0x11
 901 0098 01       		.uleb128 0x1
 902 0099 12       		.uleb128 0x12
 903 009a 01       		.uleb128 0x1
 904 009b 40       		.uleb128 0x40
 905 009c 0A       		.uleb128 0xa
 906 009d 00       		.byte	0x0
 907 009e 00       		.byte	0x0
 908 009f 0E       		.uleb128 0xe
 909 00a0 2E       		.uleb128 0x2e
 910 00a1 01       		.byte	0x1
 911 00a2 3F       		.uleb128 0x3f
 912 00a3 0C       		.uleb128 0xc
 913 00a4 03       		.uleb128 0x3
 914 00a5 0E       		.uleb128 0xe
 915 00a6 3A       		.uleb128 0x3a
 916 00a7 0B       		.uleb128 0xb
 917 00a8 3B       		.uleb128 0x3b
 918 00a9 0B       		.uleb128 0xb
 919 00aa 27       		.uleb128 0x27
 920 00ab 0C       		.uleb128 0xc
 921 00ac 11       		.uleb128 0x11
 922 00ad 01       		.uleb128 0x1
 923 00ae 12       		.uleb128 0x12
 924 00af 01       		.uleb128 0x1
 925 00b0 40       		.uleb128 0x40
 926 00b1 06       		.uleb128 0x6
 927 00b2 01       		.uleb128 0x1
 928 00b3 13       		.uleb128 0x13
 929 00b4 00       		.byte	0x0
 930 00b5 00       		.byte	0x0
 931 00b6 0F       		.uleb128 0xf
 932 00b7 05       		.uleb128 0x5
 933 00b8 00       		.byte	0x0
 934 00b9 03       		.uleb128 0x3
 935 00ba 08       		.uleb128 0x8
 936 00bb 3A       		.uleb128 0x3a
 937 00bc 0B       		.uleb128 0xb
 938 00bd 3B       		.uleb128 0x3b
 939 00be 0B       		.uleb128 0xb
 940 00bf 49       		.uleb128 0x49
 941 00c0 13       		.uleb128 0x13
 942 00c1 02       		.uleb128 0x2
 943 00c2 0A       		.uleb128 0xa
 944 00c3 00       		.byte	0x0
 945 00c4 00       		.byte	0x0
 946 00c5 10       		.uleb128 0x10
 947 00c6 05       		.uleb128 0x5
 948 00c7 00       		.byte	0x0
ARM GAS  /tmp/cc4tCu4N.s 			page 18


 949 00c8 03       		.uleb128 0x3
 950 00c9 0E       		.uleb128 0xe
 951 00ca 3A       		.uleb128 0x3a
 952 00cb 0B       		.uleb128 0xb
 953 00cc 3B       		.uleb128 0x3b
 954 00cd 0B       		.uleb128 0xb
 955 00ce 49       		.uleb128 0x49
 956 00cf 13       		.uleb128 0x13
 957 00d0 02       		.uleb128 0x2
 958 00d1 0A       		.uleb128 0xa
 959 00d2 00       		.byte	0x0
 960 00d3 00       		.byte	0x0
 961 00d4 11       		.uleb128 0x11
 962 00d5 34       		.uleb128 0x34
 963 00d6 00       		.byte	0x0
 964 00d7 03       		.uleb128 0x3
 965 00d8 08       		.uleb128 0x8
 966 00d9 3A       		.uleb128 0x3a
 967 00da 0B       		.uleb128 0xb
 968 00db 3B       		.uleb128 0x3b
 969 00dc 0B       		.uleb128 0xb
 970 00dd 49       		.uleb128 0x49
 971 00de 13       		.uleb128 0x13
 972 00df 02       		.uleb128 0x2
 973 00e0 0A       		.uleb128 0xa
 974 00e1 00       		.byte	0x0
 975 00e2 00       		.byte	0x0
 976 00e3 12       		.uleb128 0x12
 977 00e4 2E       		.uleb128 0x2e
 978 00e5 01       		.byte	0x1
 979 00e6 3F       		.uleb128 0x3f
 980 00e7 0C       		.uleb128 0xc
 981 00e8 03       		.uleb128 0x3
 982 00e9 0E       		.uleb128 0xe
 983 00ea 3A       		.uleb128 0x3a
 984 00eb 0B       		.uleb128 0xb
 985 00ec 3B       		.uleb128 0x3b
 986 00ed 0B       		.uleb128 0xb
 987 00ee 27       		.uleb128 0x27
 988 00ef 0C       		.uleb128 0xc
 989 00f0 49       		.uleb128 0x49
 990 00f1 13       		.uleb128 0x13
 991 00f2 11       		.uleb128 0x11
 992 00f3 01       		.uleb128 0x1
 993 00f4 12       		.uleb128 0x12
 994 00f5 01       		.uleb128 0x1
 995 00f6 40       		.uleb128 0x40
 996 00f7 06       		.uleb128 0x6
 997 00f8 01       		.uleb128 0x1
 998 00f9 13       		.uleb128 0x13
 999 00fa 00       		.byte	0x0
 1000 00fb 00       		.byte	0x0
 1001 00fc 13       		.uleb128 0x13
 1002 00fd 34       		.uleb128 0x34
 1003 00fe 00       		.byte	0x0
 1004 00ff 03       		.uleb128 0x3
 1005 0100 0E       		.uleb128 0xe
ARM GAS  /tmp/cc4tCu4N.s 			page 19


 1006 0101 3A       		.uleb128 0x3a
 1007 0102 0B       		.uleb128 0xb
 1008 0103 3B       		.uleb128 0x3b
 1009 0104 0B       		.uleb128 0xb
 1010 0105 49       		.uleb128 0x49
 1011 0106 13       		.uleb128 0x13
 1012 0107 02       		.uleb128 0x2
 1013 0108 0A       		.uleb128 0xa
 1014 0109 00       		.byte	0x0
 1015 010a 00       		.byte	0x0
 1016 010b 14       		.uleb128 0x14
 1017 010c 34       		.uleb128 0x34
 1018 010d 00       		.byte	0x0
 1019 010e 03       		.uleb128 0x3
 1020 010f 0E       		.uleb128 0xe
 1021 0110 3A       		.uleb128 0x3a
 1022 0111 0B       		.uleb128 0xb
 1023 0112 3B       		.uleb128 0x3b
 1024 0113 0B       		.uleb128 0xb
 1025 0114 49       		.uleb128 0x49
 1026 0115 13       		.uleb128 0x13
 1027 0116 3F       		.uleb128 0x3f
 1028 0117 0C       		.uleb128 0xc
 1029 0118 3C       		.uleb128 0x3c
 1030 0119 0C       		.uleb128 0xc
 1031 011a 00       		.byte	0x0
 1032 011b 00       		.byte	0x0
 1033 011c 15       		.uleb128 0x15
 1034 011d 34       		.uleb128 0x34
 1035 011e 00       		.byte	0x0
 1036 011f 03       		.uleb128 0x3
 1037 0120 0E       		.uleb128 0xe
 1038 0121 3A       		.uleb128 0x3a
 1039 0122 0B       		.uleb128 0xb
 1040 0123 3B       		.uleb128 0x3b
 1041 0124 0B       		.uleb128 0xb
 1042 0125 49       		.uleb128 0x49
 1043 0126 13       		.uleb128 0x13
 1044 0127 3F       		.uleb128 0x3f
 1045 0128 0C       		.uleb128 0xc
 1046 0129 02       		.uleb128 0x2
 1047 012a 0A       		.uleb128 0xa
 1048 012b 00       		.byte	0x0
 1049 012c 00       		.byte	0x0
 1050 012d 00       		.byte	0x0
 1051              		.section	.debug_pubnames,"",%progbits
 1052 0000 55000000 		.4byte	0x55
 1053 0004 0200     		.2byte	0x2
 1054 0006 00000000 		.4byte	.Ldebug_info0
 1055 000a 78020000 		.4byte	0x278
 1056 000e 76010000 		.4byte	0x176
 1057 0012 5F76745F 		.ascii	"_vt_init\000"
 1057      696E6974 
 1057      00
 1058 001b 8A010000 		.4byte	0x18a
 1059 001f 63685654 		.ascii	"chVTSetI\000"
 1059      53657449 
ARM GAS  /tmp/cc4tCu4N.s 			page 20


 1059      00
 1060 0028 E8010000 		.4byte	0x1e8
 1061 002c 63685654 		.ascii	"chVTResetI\000"
 1061      52657365 
 1061      744900
 1062 0037 10020000 		.4byte	0x210
 1063 003b 63685469 		.ascii	"chTimeIsWithin\000"
 1063      6D654973 
 1063      57697468 
 1063      696E00
 1064 004a 65020000 		.4byte	0x265
 1065 004e 76746C69 		.ascii	"vtlist\000"
 1065      737400
 1066 0055 00000000 		.4byte	0x0
 1067              		.section	.debug_pubtypes,"",%progbits
 1068 0000 7A000000 		.4byte	0x7a
 1069 0004 0200     		.2byte	0x2
 1070 0006 00000000 		.4byte	.Ldebug_info0
 1071 000a 78020000 		.4byte	0x278
 1072 000e 53000000 		.4byte	0x53
 1073 0012 696E7433 		.ascii	"int32_t\000"
 1073      325F7400 
 1074 001a 65000000 		.4byte	0x65
 1075 001e 75696E74 		.ascii	"uint32_t\000"
 1075      33325F74 
 1075      00
 1076 0027 85000000 		.4byte	0x85
 1077 002b 626F6F6C 		.ascii	"bool_t\000"
 1077      5F7400
 1078 0032 90000000 		.4byte	0x90
 1079 0036 73797374 		.ascii	"systime_t\000"
 1079      696D655F 
 1079      7400
 1080 0040 9D000000 		.4byte	0x9d
 1081 0044 76746675 		.ascii	"vtfunc_t\000"
 1081      6E635F74 
 1081      00
 1082 004d BA000000 		.4byte	0xba
 1083 0051 56697274 		.ascii	"VirtualTimer\000"
 1083      75616C54 
 1083      696D6572 
 1083      00
 1084 005e C5000000 		.4byte	0xc5
 1085 0062 56697274 		.ascii	"VirtualTimer\000"
 1085      75616C54 
 1085      696D6572 
 1085      00
 1086 006f 64010000 		.4byte	0x164
 1087 0073 56544C69 		.ascii	"VTList\000"
 1087      737400
 1088 007a 00000000 		.4byte	0x0
 1089              		.section	.debug_aranges,"",%progbits
 1090 0000 34000000 		.4byte	0x34
 1091 0004 0200     		.2byte	0x2
 1092 0006 00000000 		.4byte	.Ldebug_info0
 1093 000a 04       		.byte	0x4
 1094 000b 00       		.byte	0x0
ARM GAS  /tmp/cc4tCu4N.s 			page 21


 1095 000c 0000     		.2byte	0x0
 1096 000e 0000     		.2byte	0x0
 1097 0010 00000000 		.4byte	.LFB7
 1098 0014 24000000 		.4byte	.LFE7-.LFB7
 1099 0018 00000000 		.4byte	.LFB8
 1100 001c 9C000000 		.4byte	.LFE8-.LFB8
 1101 0020 00000000 		.4byte	.LFB9
 1102 0024 6C000000 		.4byte	.LFE9-.LFB9
 1103 0028 00000000 		.4byte	.LFB10
 1104 002c 54000000 		.4byte	.LFE10-.LFB10
 1105 0030 00000000 		.4byte	0x0
 1106 0034 00000000 		.4byte	0x0
 1107              		.section	.debug_ranges,"",%progbits
 1108              	.Ldebug_ranges0:
 1109 0000 00000000 		.4byte	.LFB7
 1110 0004 24000000 		.4byte	.LFE7
 1111 0008 00000000 		.4byte	.LFB8
 1112 000c 9C000000 		.4byte	.LFE8
 1113 0010 00000000 		.4byte	.LFB9
 1114 0014 6C000000 		.4byte	.LFE9
 1115 0018 00000000 		.4byte	.LFB10
 1116 001c 54000000 		.4byte	.LFE10
 1117 0020 00000000 		.4byte	0x0
 1118 0024 00000000 		.4byte	0x0
 1119              		.section	.debug_str,"MS",%progbits,1
 1120              	.LASF25:
 1121 0000 63685654 		.ascii	"chVTSetI\000"
 1121      53657449 
 1121      00
 1122              	.LASF29:
 1123 0009 474E5520 		.ascii	"GNU C 4.5.2\000"
 1123      4320342E 
 1123      352E3200 
 1124              	.LASF12:
 1125 0015 73797374 		.ascii	"systime_t\000"
 1125      696D655F 
 1125      7400
 1126              	.LASF27:
 1127 001f 73746172 		.ascii	"start\000"
 1127      7400
 1128              	.LASF11:
 1129 0025 626F6F6C 		.ascii	"bool_t\000"
 1129      5F7400
 1130              	.LASF31:
 1131 002c 2F686F6D 		.ascii	"/home/z80/projects/voltamper.git/firmware/voltamp\000"
 1131      652F7A38 
 1131      302F7072 
 1131      6F6A6563 
 1131      74732F76 
 1132              	.LASF30:
 1133 005e 2E2E2F63 		.ascii	"../chibios_2.4.x/os/kernel/src/chvt.c\000"
 1133      68696269 
 1133      6F735F32 
 1133      2E342E78 
 1133      2F6F732F 
 1134              	.LASF13:
 1135 0084 76746675 		.ascii	"vtfunc_t\000"
ARM GAS  /tmp/cc4tCu4N.s 			page 22


 1135      6E635F74 
 1135      00
 1136              	.LASF8:
 1137 008d 6C6F6E67 		.ascii	"long unsigned int\000"
 1137      20756E73 
 1137      69676E65 
 1137      6420696E 
 1137      7400
 1138              	.LASF4:
 1139 009f 73686F72 		.ascii	"short unsigned int\000"
 1139      7420756E 
 1139      7369676E 
 1139      65642069 
 1139      6E7400
 1140              	.LASF14:
 1141 00b2 56697274 		.ascii	"VirtualTimer\000"
 1141      75616C54 
 1141      696D6572 
 1141      00
 1142              	.LASF2:
 1143 00bf 756E7369 		.ascii	"unsigned char\000"
 1143      676E6564 
 1143      20636861 
 1143      7200
 1144              	.LASF32:
 1145 00cd 5F76745F 		.ascii	"_vt_init\000"
 1145      696E6974 
 1145      00
 1146              	.LASF0:
 1147 00d6 756E7369 		.ascii	"unsigned int\000"
 1147      676E6564 
 1147      20696E74 
 1147      00
 1148              	.LASF10:
 1149 00e3 6C6F6E67 		.ascii	"long long unsigned int\000"
 1149      206C6F6E 
 1149      6720756E 
 1149      7369676E 
 1149      65642069 
 1150              	.LASF28:
 1151 00fa 76746C69 		.ascii	"vtlist\000"
 1151      737400
 1152              	.LASF23:
 1153 0101 74696D65 		.ascii	"time\000"
 1153      00
 1154              	.LASF17:
 1155 0106 76745F74 		.ascii	"vt_time\000"
 1155      696D6500 
 1156              	.LASF6:
 1157 010e 696E7433 		.ascii	"int32_t\000"
 1157      325F7400 
 1158              	.LASF20:
 1159 0116 76745F73 		.ascii	"vt_systime\000"
 1159      79737469 
 1159      6D6500
 1160              	.LASF9:
 1161 0121 6C6F6E67 		.ascii	"long long int\000"
ARM GAS  /tmp/cc4tCu4N.s 			page 23


 1161      206C6F6E 
 1161      6720696E 
 1161      7400
 1162              	.LASF18:
 1163 012f 76745F66 		.ascii	"vt_func\000"
 1163      756E6300 
 1164              	.LASF24:
 1165 0137 76746675 		.ascii	"vtfunc\000"
 1165      6E6300
 1166              	.LASF22:
 1167 013e 63686172 		.ascii	"char\000"
 1167      00
 1168              	.LASF19:
 1169 0143 76745F70 		.ascii	"vt_par\000"
 1169      617200
 1170              	.LASF3:
 1171 014a 73686F72 		.ascii	"short int\000"
 1171      7420696E 
 1171      7400
 1172              	.LASF33:
 1173 0154 63685469 		.ascii	"chTimeIsWithin\000"
 1173      6D654973 
 1173      57697468 
 1173      696E00
 1174              	.LASF16:
 1175 0163 76745F70 		.ascii	"vt_prev\000"
 1175      72657600 
 1176              	.LASF7:
 1177 016b 75696E74 		.ascii	"uint32_t\000"
 1177      33325F74 
 1177      00
 1178              	.LASF5:
 1179 0174 6C6F6E67 		.ascii	"long int\000"
 1179      20696E74 
 1179      00
 1180              	.LASF1:
 1181 017d 7369676E 		.ascii	"signed char\000"
 1181      65642063 
 1181      68617200 
 1182              	.LASF21:
 1183 0189 56544C69 		.ascii	"VTList\000"
 1183      737400
 1184              	.LASF15:
 1185 0190 76745F6E 		.ascii	"vt_next\000"
 1185      65787400 
 1186              	.LASF26:
 1187 0198 63685654 		.ascii	"chVTResetI\000"
 1187      52657365 
 1187      744900
 1188              		.ident	"GCC: (Sourcery G++ Lite 2011.03-42) 4.5.2"
ARM GAS  /tmp/cc4tCu4N.s 			page 24


DEFINED SYMBOLS
                            *ABS*:00000000 chvt.c
     /tmp/cc4tCu4N.s:28     .bss.vtlist:00000000 vtlist
     /tmp/cc4tCu4N.s:25     .bss.vtlist:00000000 $d
     /tmp/cc4tCu4N.s:31     .text._vt_init:00000000 $t
     /tmp/cc4tCu4N.s:37     .text._vt_init:00000000 _vt_init
     /tmp/cc4tCu4N.s:66     .text._vt_init:00000020 $d
     /tmp/cc4tCu4N.s:71     .rodata:00000000 $d
     /tmp/cc4tCu4N.s:75     .text.chVTSetI:00000000 $t
     /tmp/cc4tCu4N.s:81     .text.chVTSetI:00000000 chVTSetI
     /tmp/cc4tCu4N.s:190    .text.chVTSetI:00000094 $d
     /tmp/cc4tCu4N.s:203    .text.chVTResetI:00000000 $t
     /tmp/cc4tCu4N.s:209    .text.chVTResetI:00000000 chVTResetI
     /tmp/cc4tCu4N.s:281    .text.chVTResetI:00000060 $d
     /tmp/cc4tCu4N.s:288    .text.chTimeIsWithin:00000000 $t
     /tmp/cc4tCu4N.s:294    .text.chTimeIsWithin:00000000 chTimeIsWithin
     /tmp/cc4tCu4N.s:360    .text.chTimeIsWithin:00000050 $d
                     .debug_frame:00000010 $d
     /tmp/cc4tCu4N.s:70     .text._vt_init:00000024 $t
     /tmp/cc4tCu4N.s:195    .text.chVTSetI:0000009c $t
     /tmp/cc4tCu4N.s:287    .text.chVTResetI:0000006c $t
     /tmp/cc4tCu4N.s:364    .text.chTimeIsWithin:00000054 $t

UNDEFINED SYMBOLS
chDbgCheckClassI
chDbgPanic
