ARM GAS  C:\Users\z80\AppData\Local\Temp\cc4lFidq.s 			page 1


   1              		.syntax unified
   2              		.cpu cortex-m3
   3              		.fpu softvfp
   4              		.eabi_attribute 20, 1
   5              		.eabi_attribute 21, 1
   6              		.eabi_attribute 23, 3
   7              		.eabi_attribute 24, 1
   8              		.eabi_attribute 25, 1
   9              		.eabi_attribute 26, 1
  10              		.eabi_attribute 30, 6
  11              		.eabi_attribute 18, 4
  12              		.thumb
  13              		.file	"chvt.c"
  20 0000 93010000 		.text
  20      0200E300 
  20      00000201 
  20      FB0E0D00 
  20      01010101 
  21              	.Ltext0:
  22              		.cfi_sections	.debug_frame
  23              		.global	vtlist
  24              		.section	.bss.vtlist,"aw",%nobits
  25              		.align	2
  26              		.type	vtlist, %object
  27              		.size	vtlist, 16
  28              	vtlist:
  29 0000 00000000 		.space	16
  29      00000000 
  29      00000000 
  29      00000000 
  30              		.section	.text._vt_init,"ax",%progbits
  31              		.align	2
  32              		.p2align 4,,15
  33              		.global	_vt_init
  34              		.thumb
  35              		.thumb_func
  36              		.type	_vt_init, %function
  37              	_vt_init:
  38              	.LFB7:
  39              		.file 1 "../chibios_2.4.x/os/kernel/src/chvt.c"
  40              		.loc 1 50 0
  41              		.cfi_startproc
  42              		@ args = 0, pretend = 0, frame = 0
  43              		@ frame_needed = 0, uses_anonymous_args = 0
  44              		@ link register save eliminated.
  45              		.loc 1 52 0
  46 0000 40F20002 		movw	r2, #:lower16:vtlist
  47 0004 C0F20002 		movt	r2, #:upper16:vtlist
  48 0008 40F20003 		movw	r3, #:lower16:vtlist
  49 000c C0F20003 		movt	r3, #:upper16:vtlist
  50 0010 5A60     		str	r2, [r3, #4]
ARM GAS  C:\Users\z80\AppData\Local\Temp\cc4lFidq.s 			page 2


  51 0012 40F20003 		movw	r3, #:lower16:vtlist
  52 0016 C0F20003 		movt	r3, #:upper16:vtlist
  53 001a 5A68     		ldr	r2, [r3, #4]
  54 001c 40F20003 		movw	r3, #:lower16:vtlist
  55 0020 C0F20003 		movt	r3, #:upper16:vtlist
  56 0024 1A60     		str	r2, [r3, #0]
  57              		.loc 1 53 0
  58 0026 40F20003 		movw	r3, #:lower16:vtlist
  59 002a C0F20003 		movt	r3, #:upper16:vtlist
  60 002e 4FF0FF32 		mov	r2, #-1
  61 0032 9A60     		str	r2, [r3, #8]
  62              		.loc 1 54 0
  63 0034 40F20003 		movw	r3, #:lower16:vtlist
  64 0038 C0F20003 		movt	r3, #:upper16:vtlist
  65 003c 4FF00002 		mov	r2, #0
  66 0040 DA60     		str	r2, [r3, #12]
  67              		.loc 1 55 0
  68 0042 7047     		bx	lr
  69              		.cfi_endproc
  70              	.LFE7:
  71              		.size	_vt_init, .-_vt_init
  72 0044 AFF30080 		.section	.rodata
  72      AFF30080 
  72      AFF30080 
  73              		.align	2
  74              	.LC0:
  75 0000 22636856 		.ascii	"\"chVTSetI\"()\000"
  75      54536574 
  75      49222829 
  75      00
  76              		.section	.text.chVTSetI,"ax",%progbits
  77              		.align	2
  78              		.p2align 4,,15
  79              		.global	chVTSetI
  80              		.thumb
  81              		.thumb_func
  82              		.type	chVTSetI, %function
  83              	chVTSetI:
  84              	.LFB8:
  85              		.loc 1 77 0
  86              		.cfi_startproc
  87              		@ args = 0, pretend = 0, frame = 24
  88              		@ frame_needed = 0, uses_anonymous_args = 0
  89 0000 00B5     		push	{lr}
  90              	.LCFI0:
  91              		.cfi_def_cfa_offset 4
  92 0002 87B0     		sub	sp, sp, #28
  93              	.LCFI1:
  94              		.cfi_def_cfa_offset 32
  95 0004 0390     		str	r0, [sp, #12]
  96 0006 0291     		str	r1, [sp, #8]
  97 0008 0192     		str	r2, [sp, #4]
  98 000a 0093     		str	r3, [sp, #0]
  99              		.loc 1 80 0
 100              		.cfi_offset 14, -4
 101 000c FFF7FEFF 		bl	chDbgCheckClassI
 102              		.loc 1 81 0
ARM GAS  C:\Users\z80\AppData\Local\Temp\cc4lFidq.s 			page 3


 103 0010 039B     		ldr	r3, [sp, #12]
 104 0012 002B     		cmp	r3, #0
 105 0014 05D0     		beq	.L3
 106              		.loc 1 81 0 is_stmt 0 discriminator 2
 107 0016 019B     		ldr	r3, [sp, #4]
 108 0018 002B     		cmp	r3, #0
 109 001a 02D0     		beq	.L3
 110              		.loc 1 81 0 discriminator 3
 111 001c 029B     		ldr	r3, [sp, #8]
 112 001e 002B     		cmp	r3, #0
 113 0020 05D1     		bne	.L4
 114              	.L3:
 115              		.loc 1 81 0 discriminator 1
 116 0022 40F20000 		movw	r0, #:lower16:.LC0
 117 0026 C0F20000 		movt	r0, #:upper16:.LC0
 118 002a FFF7FEFF 		bl	chDbgPanic
 119              	.L4:
 120              		.loc 1 84 0 is_stmt 1
 121 002e 039B     		ldr	r3, [sp, #12]
 122 0030 009A     		ldr	r2, [sp, #0]
 123 0032 1A61     		str	r2, [r3, #16]
 124              		.loc 1 85 0
 125 0034 039B     		ldr	r3, [sp, #12]
 126 0036 019A     		ldr	r2, [sp, #4]
 127 0038 DA60     		str	r2, [r3, #12]
 128              		.loc 1 86 0
 129 003a 40F20003 		movw	r3, #:lower16:vtlist
 130 003e C0F20003 		movt	r3, #:upper16:vtlist
 131 0042 1B68     		ldr	r3, [r3, #0]
 132 0044 0593     		str	r3, [sp, #20]
 133              		.loc 1 87 0
 134 0046 08E0     		b	.L5
 135              	.L6:
 136              		.loc 1 88 0
 137 0048 059B     		ldr	r3, [sp, #20]
 138 004a 9B68     		ldr	r3, [r3, #8]
 139 004c 029A     		ldr	r2, [sp, #8]
 140 004e C3EB0203 		rsb	r3, r3, r2
 141 0052 0293     		str	r3, [sp, #8]
 142              		.loc 1 89 0
 143 0054 059B     		ldr	r3, [sp, #20]
 144 0056 1B68     		ldr	r3, [r3, #0]
 145 0058 0593     		str	r3, [sp, #20]
 146              	.L5:
 147              		.loc 1 87 0 discriminator 1
 148 005a 059B     		ldr	r3, [sp, #20]
 149 005c 9A68     		ldr	r2, [r3, #8]
 150 005e 029B     		ldr	r3, [sp, #8]
 151 0060 9A42     		cmp	r2, r3
 152 0062 F1D3     		bcc	.L6
 153              		.loc 1 92 0
 154 0064 039B     		ldr	r3, [sp, #12]
 155 0066 059A     		ldr	r2, [sp, #20]
 156 0068 1A60     		str	r2, [r3, #0]
 157 006a 039B     		ldr	r3, [sp, #12]
 158 006c 1B68     		ldr	r3, [r3, #0]
 159 006e 5A68     		ldr	r2, [r3, #4]
ARM GAS  C:\Users\z80\AppData\Local\Temp\cc4lFidq.s 			page 4


 160 0070 039B     		ldr	r3, [sp, #12]
 161 0072 5A60     		str	r2, [r3, #4]
 162              		.loc 1 93 0
 163 0074 039B     		ldr	r3, [sp, #12]
 164 0076 5B68     		ldr	r3, [r3, #4]
 165 0078 059A     		ldr	r2, [sp, #20]
 166 007a 0399     		ldr	r1, [sp, #12]
 167 007c 5160     		str	r1, [r2, #4]
 168 007e 059A     		ldr	r2, [sp, #20]
 169 0080 5268     		ldr	r2, [r2, #4]
 170 0082 1A60     		str	r2, [r3, #0]
 171              		.loc 1 94 0
 172 0084 039B     		ldr	r3, [sp, #12]
 173 0086 029A     		ldr	r2, [sp, #8]
 174 0088 9A60     		str	r2, [r3, #8]
 175              		.loc 1 95 0
 176 008a 059A     		ldr	r2, [sp, #20]
 177 008c 40F20003 		movw	r3, #:lower16:vtlist
 178 0090 C0F20003 		movt	r3, #:upper16:vtlist
 179 0094 9A42     		cmp	r2, r3
 180 0096 06D0     		beq	.L2
 181              		.loc 1 96 0
 182 0098 059B     		ldr	r3, [sp, #20]
 183 009a 9A68     		ldr	r2, [r3, #8]
 184 009c 029B     		ldr	r3, [sp, #8]
 185 009e C3EB0202 		rsb	r2, r3, r2
 186 00a2 059B     		ldr	r3, [sp, #20]
 187 00a4 9A60     		str	r2, [r3, #8]
 188              	.L2:
 189              		.loc 1 97 0
 190 00a6 07B0     		add	sp, sp, #28
 191 00a8 00BD     		pop	{pc}
 192              		.cfi_endproc
 193              	.LFE8:
 194              		.size	chVTSetI, .-chVTSetI
 195 00aa 00BFAFF3 		.section	.rodata
 195      0080
 196 000d 000000   		.align	2
 197              	.LC1:
 198 0010 22636856 		.ascii	"\"chVTResetI\"()\000"
 198      54526573 
 198      65744922 
 198      282900
 199 001f 00       		.align	2
 200              	.LC2:
 201 0020 63685654 		.ascii	"chVTResetI(), #1\000"
 201      52657365 
 201      74492829 
 201      2C202331 
 201      00
 202 0031 000000   		.section	.text.chVTResetI,"ax",%progbits
 203              		.align	2
 204              		.p2align 4,,15
 205              		.global	chVTResetI
 206              		.thumb
 207              		.thumb_func
 208              		.type	chVTResetI, %function
ARM GAS  C:\Users\z80\AppData\Local\Temp\cc4lFidq.s 			page 5


 209              	chVTResetI:
 210              	.LFB9:
 211              		.loc 1 107 0
 212              		.cfi_startproc
 213              		@ args = 0, pretend = 0, frame = 8
 214              		@ frame_needed = 0, uses_anonymous_args = 0
 215 0000 00B5     		push	{lr}
 216              	.LCFI2:
 217              		.cfi_def_cfa_offset 4
 218 0002 83B0     		sub	sp, sp, #12
 219              	.LCFI3:
 220              		.cfi_def_cfa_offset 16
 221 0004 0190     		str	r0, [sp, #4]
 222              		.loc 1 109 0
 223              		.cfi_offset 14, -4
 224 0006 FFF7FEFF 		bl	chDbgCheckClassI
 225              		.loc 1 110 0
 226 000a 019B     		ldr	r3, [sp, #4]
 227 000c 002B     		cmp	r3, #0
 228 000e 05D1     		bne	.L9
 229              		.loc 1 110 0 is_stmt 0 discriminator 1
 230 0010 40F20000 		movw	r0, #:lower16:.LC1
 231 0014 C0F20000 		movt	r0, #:upper16:.LC1
 232 0018 FFF7FEFF 		bl	chDbgPanic
 233              	.L9:
 234              		.loc 1 111 0 is_stmt 1
 235 001c 019B     		ldr	r3, [sp, #4]
 236 001e DB68     		ldr	r3, [r3, #12]
 237 0020 002B     		cmp	r3, #0
 238 0022 05D1     		bne	.L10
 239              		.loc 1 111 0 is_stmt 0 discriminator 1
 240 0024 40F20000 		movw	r0, #:lower16:.LC2
 241 0028 C0F20000 		movt	r0, #:upper16:.LC2
 242 002c FFF7FEFF 		bl	chDbgPanic
 243              	.L10:
 244              		.loc 1 115 0 is_stmt 1
 245 0030 019B     		ldr	r3, [sp, #4]
 246 0032 1A68     		ldr	r2, [r3, #0]
 247 0034 40F20003 		movw	r3, #:lower16:vtlist
 248 0038 C0F20003 		movt	r3, #:upper16:vtlist
 249 003c 9A42     		cmp	r2, r3
 250 003e 08D0     		beq	.L11
 251              		.loc 1 116 0
 252 0040 019B     		ldr	r3, [sp, #4]
 253 0042 1B68     		ldr	r3, [r3, #0]
 254 0044 019A     		ldr	r2, [sp, #4]
 255 0046 1268     		ldr	r2, [r2, #0]
 256 0048 9168     		ldr	r1, [r2, #8]
 257 004a 019A     		ldr	r2, [sp, #4]
 258 004c 9268     		ldr	r2, [r2, #8]
 259 004e 0A44     		add	r2, r1, r2
 260 0050 9A60     		str	r2, [r3, #8]
 261              	.L11:
 262              		.loc 1 117 0
 263 0052 019B     		ldr	r3, [sp, #4]
 264 0054 5B68     		ldr	r3, [r3, #4]
 265 0056 019A     		ldr	r2, [sp, #4]
ARM GAS  C:\Users\z80\AppData\Local\Temp\cc4lFidq.s 			page 6


 266 0058 1268     		ldr	r2, [r2, #0]
 267 005a 1A60     		str	r2, [r3, #0]
 268              		.loc 1 118 0
 269 005c 019B     		ldr	r3, [sp, #4]
 270 005e 1B68     		ldr	r3, [r3, #0]
 271 0060 019A     		ldr	r2, [sp, #4]
 272 0062 5268     		ldr	r2, [r2, #4]
 273 0064 5A60     		str	r2, [r3, #4]
 274              		.loc 1 119 0
 275 0066 019B     		ldr	r3, [sp, #4]
 276 0068 4FF00002 		mov	r2, #0
 277 006c DA60     		str	r2, [r3, #12]
 278              		.loc 1 120 0
 279 006e 03B0     		add	sp, sp, #12
 280 0070 00BD     		pop	{pc}
 281              		.cfi_endproc
 282              	.LFE9:
 283              		.size	chVTResetI, .-chVTResetI
 284 0072 00BFAFF3 		.section	.text.chTimeIsWithin,"ax",%progbits
 284      0080AFF3 
 284      0080AFF3 
 284      0080
 285              		.align	2
 286              		.p2align 4,,15
 287              		.global	chTimeIsWithin
 288              		.thumb
 289              		.thumb_func
 290              		.type	chTimeIsWithin, %function
 291              	chTimeIsWithin:
 292              	.LFB10:
 293              		.loc 1 135 0
 294              		.cfi_startproc
 295              		@ args = 0, pretend = 0, frame = 16
 296              		@ frame_needed = 0, uses_anonymous_args = 0
 297              		@ link register save eliminated.
 298 0000 84B0     		sub	sp, sp, #16
 299              	.LCFI4:
 300              		.cfi_def_cfa_offset 16
 301 0002 0190     		str	r0, [sp, #4]
 302 0004 0091     		str	r1, [sp, #0]
 303              		.loc 1 137 0
 304 0006 40F20003 		movw	r3, #:lower16:vtlist
 305 000a C0F20003 		movt	r3, #:upper16:vtlist
 306 000e DB68     		ldr	r3, [r3, #12]
 307 0010 0393     		str	r3, [sp, #12]
 308              		.loc 1 138 0
 309 0012 009A     		ldr	r2, [sp, #0]
 310 0014 019B     		ldr	r3, [sp, #4]
 311 0016 9A42     		cmp	r2, r3
 312 0018 0DD9     		bls	.L13
 313              		.loc 1 138 0 is_stmt 0 discriminator 1
 314 001a 039A     		ldr	r2, [sp, #12]
 315 001c 019B     		ldr	r3, [sp, #4]
 316 001e 9A42     		cmp	r2, r3
 317 0020 06D3     		bcc	.L14
 318              		.loc 1 138 0 discriminator 3
 319 0022 039A     		ldr	r2, [sp, #12]
ARM GAS  C:\Users\z80\AppData\Local\Temp\cc4lFidq.s 			page 7


 320 0024 009B     		ldr	r3, [sp, #0]
 321 0026 9A42     		cmp	r2, r3
 322 0028 02D2     		bcs	.L14
 323              		.loc 1 138 0 discriminator 1
 324 002a 4FF00103 		mov	r3, #1
 325 002e 01E0     		b	.L15
 326              	.L14:
 327              		.loc 1 138 0 discriminator 4
 328 0030 4FF00003 		mov	r3, #0
 329              	.L15:
 330 0034 0CE0     		b	.L16
 331              	.L13:
 332              		.loc 1 138 0 discriminator 2
 333 0036 039A     		ldr	r2, [sp, #12]
 334 0038 019B     		ldr	r3, [sp, #4]
 335 003a 9A42     		cmp	r2, r3
 336 003c 03D2     		bcs	.L17
 337              		.loc 1 139 0 is_stmt 1
 338 003e 039A     		ldr	r2, [sp, #12]
 339 0040 009B     		ldr	r3, [sp, #0]
 340 0042 9A42     		cmp	r2, r3
 341 0044 02D2     		bcs	.L18
 342              	.L17:
 343              		.loc 1 138 0 discriminator 6
 344 0046 4FF00103 		mov	r3, #1
 345 004a 01E0     		b	.L19
 346              	.L18:
 347              		.loc 1 138 0 is_stmt 0
 348 004c 4FF00003 		mov	r3, #0
 349              	.L19:
 350              	.L16:
 351              		.loc 1 140 0 is_stmt 1 discriminator 8
 352 0050 1846     		mov	r0, r3
 353 0052 04B0     		add	sp, sp, #16
 354 0054 7047     		bx	lr
 355              		.cfi_endproc
 356              	.LFE10:
 357              		.size	chTimeIsWithin, .-chTimeIsWithin
 358 0056 00BFAFF3 		.text
 358      0080AFF3 
 358      0080
 359              	.Letext0: