ARM GAS  C:\Users\z80\AppData\Local\Temp\ccOg1Eez.s 			page 1


   1              		.syntax unified
   2              		.cpu cortex-m3
   3              		.fpu softvfp
   4              		.eabi_attribute 20, 1
   5              		.eabi_attribute 21, 1
   6              		.eabi_attribute 23, 3
   7              		.eabi_attribute 24, 1
   8              		.eabi_attribute 25, 1
   9              		.eabi_attribute 26, 1
  10              		.eabi_attribute 30, 6
  11              		.eabi_attribute 18, 4
  12              		.thumb
  13              		.file	"cpu_io.c"
  20 0000 F0040000 		.text
  20      02009702 
  20      00000201 
  20      FB0E0D00 
  20      01010101 
  21              	.Ltext0:
  22              		.cfi_sections	.debug_frame
  23              		.section	.bss.buffer,"aw",%nobits
  24              		.align	2
  25              		.type	buffer, %object
  26              		.size	buffer, 32
  27              	buffer:
  28 0000 00000000 		.space	32
  28      00000000 
  28      00000000 
  28      00000000 
  28      00000000 
  29              		.section	.bss.args,"aw",%nobits
  30              		.align	2
  31              		.type	args, %object
  32              		.size	args, 32
  33              	args:
  34 0000 00000000 		.space	32
  34      00000000 
  34      00000000 
  34      00000000 
  34      00000000 
  35              		.section	.text.cpu_io_init,"ax",%progbits
  36              		.align	2
  37              		.p2align 4,,15
  38              		.global	cpu_io_init
  39              		.thumb
  40              		.thumb_func
  41              		.type	cpu_io_init, %function
  42              	cpu_io_init:
  43              	.LFB62:
  44              		.file 1 "./src/cpu_io.c"
  45              		.loc 1 34 0
ARM GAS  C:\Users\z80\AppData\Local\Temp\ccOg1Eez.s 			page 2


  46              		.cfi_startproc
  47              		@ args = 0, pretend = 0, frame = 0
  48              		@ frame_needed = 0, uses_anonymous_args = 0
  49 0000 08B5     		push	{r3, lr}
  50              	.LCFI0:
  51              		.cfi_def_cfa_offset 8
  52              		.loc 1 36 0
  53 0002 40F20000 		movw	r0, #:lower16:SD1
  54 0006 C0F20000 		movt	r0, #:upper16:SD1
  55 000a 4FF00001 		mov	r1, #0
  56              		.cfi_offset 14, -4
  57              		.cfi_offset 3, -8
  58 000e FFF7FEFF 		bl	sdStart
  59              		.loc 1 39 0
  60 0012 4FF40060 		mov	r0, #2048
  61 0016 C4F20100 		movt	r0, 16385
  62 001a 4FF40071 		mov	r1, #512
  63 001e 4FF01002 		mov	r2, #16
  64 0022 FFF7FEFF 		bl	_pal_lld_setgroupmode
  65              		.loc 1 40 0
  66 0026 4FF40060 		mov	r0, #2048
  67 002a C4F20100 		movt	r0, 16385
  68 002e 4FF48061 		mov	r1, #1024
  69 0032 4FF00202 		mov	r2, #2
  70 0036 FFF7FEFF 		bl	_pal_lld_setgroupmode
  71              		.loc 1 41 0
  72 003a 08BD     		pop	{r3, pc}
  73              		.cfi_endproc
  74              	.LFE62:
  75              		.size	cpu_io_init, .-cpu_io_init
  76 003c AFF30080 		.section	.text.cpu_io_process,"ax",%progbits
  77              		.align	2
  78              		.p2align 4,,15
  79              		.global	cpu_io_process
  80              		.thumb
  81              		.thumb_func
  82              		.type	cpu_io_process, %function
  83              	cpu_io_process:
  84              	.LFB63:
  85              		.loc 1 44 0
  86              		.cfi_startproc
  87              		@ args = 0, pretend = 0, frame = 8
  88              		@ frame_needed = 0, uses_anonymous_args = 0
  89 0000 00B5     		push	{lr}
  90              	.LCFI1:
  91              		.cfi_def_cfa_offset 4
  92 0002 83B0     		sub	sp, sp, #12
  93              	.LCFI2:
  94              		.cfi_def_cfa_offset 16
  95              		.loc 1 58 0
  96 0004 4248     		ldr	r0, .L12
  97 0006 4FF0FF31 		mov	r1, #-1
  98              		.cfi_offset 14, -4
  99 000a FFF7FEFF 		bl	chIQGetTimeout
 100 000e 0346     		mov	r3, r0
 101 0010 0193     		str	r3, [sp, #4]
 102              		.loc 1 59 0
ARM GAS  C:\Users\z80\AppData\Local\Temp\ccOg1Eez.s 			page 3


 103 0012 019B     		ldr	r3, [sp, #4]
 104 0014 B3F1FF3F 		cmp	r3, #-1
 105 0018 03D0     		beq	.L3
 106              		.loc 1 59 0 is_stmt 0 discriminator 2
 107 001a 019B     		ldr	r3, [sp, #4]
 108 001c 13F1020F 		cmn	r3, #2
 109 0020 02D1     		bne	.L4
 110              	.L3:
 111              		.loc 1 59 0 discriminator 1
 112 0022 4FF00103 		mov	r3, #1
 113 0026 01E0     		b	.L5
 114              	.L4:
 115 0028 4FF00003 		mov	r3, #0
 116              	.L5:
 117              		.loc 1 59 0 discriminator 3
 118 002c 8DF80330 		strb	r3, [sp, #3]
 119              		.loc 1 60 0 is_stmt 1 discriminator 3
 120 0030 9DF80330 		ldrb	r3, [sp, #3]	@ zero_extendqisi2
 121 0034 002B     		cmp	r3, #0
 122 0036 69D1     		bne	.L2
 123              	.LBB2:
 124              		.loc 1 62 0
 125 0038 019B     		ldr	r3, [sp, #4]
 126 003a 8DF80230 		strb	r3, [sp, #2]
 127              		.loc 1 64 0
 128 003e 40F20003 		movw	r3, #:lower16:slash.3686
 129 0042 C0F20003 		movt	r3, #:upper16:slash.3686
 130 0046 1B78     		ldrb	r3, [r3, #0]	@ zero_extendqisi2
 131 0048 002B     		cmp	r3, #0
 132 004a 37D1     		bne	.L7
 133              		.loc 1 66 0
 134 004c 9DF80230 		ldrb	r3, [sp, #2]	@ zero_extendqisi2
 135 0050 002B     		cmp	r3, #0
 136 0052 13D1     		bne	.L8
 137              		.loc 1 69 0
 138 0054 40F20003 		movw	r3, #:lower16:out_index.3687
 139 0058 C0F20003 		movt	r3, #:upper16:out_index.3687
 140 005c 1B68     		ldr	r3, [r3, #0]
 141 005e 40F20000 		movw	r0, #:lower16:buffer
 142 0062 C0F20000 		movt	r0, #:upper16:buffer
 143 0066 1946     		mov	r1, r3
 144 0068 FFF7FEFF 		bl	process_command
 145              		.loc 1 70 0
 146 006c 40F20003 		movw	r3, #:lower16:out_index.3687
 147 0070 C0F20003 		movt	r3, #:upper16:out_index.3687
 148 0074 4FF00002 		mov	r2, #0
 149 0078 1A60     		str	r2, [r3, #0]
 150              		.loc 1 75 0
 151 007a 39E0     		b	.L11
 152              	.L8:
 153              		.loc 1 72 0
 154 007c 9DF80230 		ldrb	r3, [sp, #2]	@ zero_extendqisi2
 155 0080 5C2B     		cmp	r3, #92
 156 0082 13D0     		beq	.L10
 157              		.loc 1 73 0
 158 0084 40F20003 		movw	r3, #:lower16:out_index.3687
 159 0088 C0F20003 		movt	r3, #:upper16:out_index.3687
ARM GAS  C:\Users\z80\AppData\Local\Temp\ccOg1Eez.s 			page 4


 160 008c 1A68     		ldr	r2, [r3, #0]
 161 008e 40F20003 		movw	r3, #:lower16:buffer
 162 0092 C0F20003 		movt	r3, #:upper16:buffer
 163 0096 9DF80210 		ldrb	r1, [sp, #2]
 164 009a 9954     		strb	r1, [r3, r2]
 165 009c 02F10102 		add	r2, r2, #1
 166 00a0 40F20003 		movw	r3, #:lower16:out_index.3687
 167 00a4 C0F20003 		movt	r3, #:upper16:out_index.3687
 168 00a8 1A60     		str	r2, [r3, #0]
 169              		.loc 1 75 0
 170 00aa 21E0     		b	.L11
 171              	.L10:
 172 00ac 40F20003 		movw	r3, #:lower16:slash.3686
 173 00b0 C0F20003 		movt	r3, #:upper16:slash.3686
 174 00b4 4FF00102 		mov	r2, #1
 175 00b8 1A70     		strb	r2, [r3, #0]
 176 00ba 19E0     		b	.L11
 177              	.L7:
 178              		.loc 1 79 0
 179 00bc 40F20003 		movw	r3, #:lower16:slash.3686
 180 00c0 C0F20003 		movt	r3, #:upper16:slash.3686
 181 00c4 4FF00002 		mov	r2, #0
 182 00c8 1A70     		strb	r2, [r3, #0]
 183              		.loc 1 80 0
 184 00ca 40F20003 		movw	r3, #:lower16:out_index.3687
 185 00ce C0F20003 		movt	r3, #:upper16:out_index.3687
 186 00d2 1A68     		ldr	r2, [r3, #0]
 187 00d4 40F20003 		movw	r3, #:lower16:buffer
 188 00d8 C0F20003 		movt	r3, #:upper16:buffer
 189 00dc 9DF80210 		ldrb	r1, [sp, #2]
 190 00e0 9954     		strb	r1, [r3, r2]
 191 00e2 02F10102 		add	r2, r2, #1
 192 00e6 40F20003 		movw	r3, #:lower16:out_index.3687
 193 00ea C0F20003 		movt	r3, #:upper16:out_index.3687
 194 00ee 1A60     		str	r2, [r3, #0]
 195              	.L11:
 196              		.loc 1 83 0
 197 00f0 40F20003 		movw	r3, #:lower16:out_index.3687
 198 00f4 C0F20003 		movt	r3, #:upper16:out_index.3687
 199 00f8 1B68     		ldr	r3, [r3, #0]
 200 00fa 202B     		cmp	r3, #32
 201 00fc B4BF     		ite	lt
 202 00fe 1A46     		movlt	r2, r3
 203 0100 2022     		movge	r2, #32
 204 0102 40F20003 		movw	r3, #:lower16:out_index.3687
 205 0106 C0F20003 		movt	r3, #:upper16:out_index.3687
 206 010a 1A60     		str	r2, [r3, #0]
 207              	.L2:
 208              	.LBE2:
 209              		.loc 1 86 0
 210 010c 03B0     		add	sp, sp, #12
 211 010e 00BD     		pop	{pc}
 212              	.L13:
 213              		.align	2
 214              	.L12:
 215 0110 10000000 		.word	SD1+16
 216              		.cfi_endproc
ARM GAS  C:\Users\z80\AppData\Local\Temp\ccOg1Eez.s 			page 5


 217              	.LFE63:
 218              		.size	cpu_io_process, .-cpu_io_process
 219 0114 AFF30080 		.section	.text.funcArgs,"ax",%progbits
 219      AFF30080 
 219      AFF30080 
 220              		.align	2
 221              		.p2align 4,,15
 222              		.global	funcArgs
 223              		.thumb
 224              		.thumb_func
 225              		.type	funcArgs, %function
 226              	funcArgs:
 227              	.LFB64:
 228              		.loc 1 89 0
 229              		.cfi_startproc
 230              		@ args = 0, pretend = 0, frame = 0
 231              		@ frame_needed = 0, uses_anonymous_args = 0
 232              		@ link register save eliminated.
 233              		.loc 1 90 0
 234 0000 40F20003 		movw	r3, #:lower16:args
 235 0004 C0F20003 		movt	r3, #:upper16:args
 236              		.loc 1 91 0
 237 0008 1846     		mov	r0, r3
 238 000a 7047     		bx	lr
 239              		.cfi_endproc
 240              	.LFE64:
 241              		.size	funcArgs, .-funcArgs
 242 000c AFF30080 		.section	.text.process_command,"ax",%progbits
 243              		.align	2
 244              		.p2align 4,,15
 245              		.thumb
 246              		.thumb_func
 247              		.type	process_command, %function
 248              	process_command:
 249              	.LFB65:
 250              		.loc 1 96 0
 251              		.cfi_startproc
 252              		@ args = 0, pretend = 0, frame = 24
 253              		@ frame_needed = 0, uses_anonymous_args = 0
 254 0000 00B5     		push	{lr}
 255              	.LCFI3:
 256              		.cfi_def_cfa_offset 4
 257 0002 87B0     		sub	sp, sp, #28
 258              	.LCFI4:
 259              		.cfi_def_cfa_offset 32
 260 0004 0190     		str	r0, [sp, #4]
 261 0006 0091     		str	r1, [sp, #0]
 262              		.loc 1 99 0
 263 0008 019B     		ldr	r3, [sp, #4]
 264 000a 1B78     		ldrb	r3, [r3, #0]
 265 000c 8DF81330 		strb	r3, [sp, #19]
 266              		.loc 1 100 0
 267 0010 019B     		ldr	r3, [sp, #4]
 268 0012 03F10103 		add	r3, r3, #1
 269 0016 0393     		str	r3, [sp, #12]
 270              		.loc 1 101 0
 271 0018 9DF81330 		ldrb	r3, [sp, #19]	@ zero_extendqisi2
ARM GAS  C:\Users\z80\AppData\Local\Temp\ccOg1Eez.s 			page 6


 272 001c 012B     		cmp	r3, #1
 273 001e 02D0     		beq	.L17
 274              		.cfi_offset 14, -4
 275 0020 022B     		cmp	r3, #2
 276 0022 1AD0     		beq	.L18
 277 0024 1CE0     		b	.L15
 278              	.L17:
 279              		.loc 1 104 0
 280 0026 4FF00003 		mov	r3, #0
 281 002a 0593     		str	r3, [sp, #20]
 282 002c 0EE0     		b	.L19
 283              	.L20:
 284              		.loc 1 105 0 discriminator 2
 285 002e 059B     		ldr	r3, [sp, #20]
 286 0030 039A     		ldr	r2, [sp, #12]
 287 0032 1344     		add	r3, r2, r3
 288 0034 1A78     		ldrb	r2, [r3, #0]	@ zero_extendqisi2
 289 0036 40F20003 		movw	r3, #:lower16:args
 290 003a C0F20003 		movt	r3, #:upper16:args
 291 003e 0599     		ldr	r1, [sp, #20]
 292 0040 0B44     		add	r3, r3, r1
 293 0042 1A70     		strb	r2, [r3, #0]
 294              		.loc 1 104 0 discriminator 2
 295 0044 059B     		ldr	r3, [sp, #20]
 296 0046 03F10103 		add	r3, r3, #1
 297 004a 0593     		str	r3, [sp, #20]
 298              	.L19:
 299              		.loc 1 104 0 is_stmt 0 discriminator 1
 300 004c 009B     		ldr	r3, [sp, #0]
 301 004e 03F1FF32 		add	r2, r3, #-1
 302 0052 059B     		ldr	r3, [sp, #20]
 303 0054 9A42     		cmp	r2, r3
 304 0056 EADC     		bgt	.L20
 305              		.loc 1 106 0 is_stmt 1
 306 0058 02E0     		b	.L15
 307              	.L18:
 308              		.loc 1 109 0
 309 005a FFF7FEFF 		bl	exec_func
 310              		.loc 1 110 0
 311 005e 00BF     		nop
 312              	.L15:
 313              		.loc 1 112 0
 314 0060 07B0     		add	sp, sp, #28
 315 0062 00BD     		pop	{pc}
 316              		.cfi_endproc
 317              	.LFE65:
 318              		.size	process_command, .-process_command
 319 0064 AFF30080 		.section	.data.funcs,"aw",%progbits
 319      AFF30080 
 319      AFF30080 
 320              		.align	2
 321              		.type	funcs, %object
 322              		.size	funcs, 52
 323              	funcs:
 324 0000 00000000 		.word	osc_eaux
 325 0004 00000000 		.word	osc_eref
 326 0008 00000000 		.word	osc_iaux
ARM GAS  C:\Users\z80\AppData\Local\Temp\ccOg1Eez.s 			page 7


 327 000c 00000000 		.word	osc_set_period
 328 0010 00000000 		.word	set_leds
 329 0014 00000000 		.word	set_out_relay
 330 0018 00000000 		.word	set_sc_relay
 331 001c 00000000 		.word	set_dac
 332 0020 00000000 		.word	set_one_pulse
 333 0024 00000000 		.word	set_meandr
 334 0028 00000000 		.word	set_sweep
 335 002c 00000000 		.word	hardware_version
 336 0030 00000000 		.word	firmware_version
 337              		.section	.text.exec_func,"ax",%progbits
 338              		.align	2
 339              		.p2align 4,,15
 340              		.thumb
 341              		.thumb_func
 342              		.type	exec_func, %function
 343              	exec_func:
 344              	.LFB66:
 345              		.loc 1 146 0
 346              		.cfi_startproc
 347              		@ args = 0, pretend = 0, frame = 8
 348              		@ frame_needed = 0, uses_anonymous_args = 0
 349 0000 00B5     		push	{lr}
 350              	.LCFI5:
 351              		.cfi_def_cfa_offset 4
 352 0002 83B0     		sub	sp, sp, #12
 353              	.LCFI6:
 354              		.cfi_def_cfa_offset 16
 355              		.loc 1 147 0
 356 0004 40F20003 		movw	r3, #:lower16:buffer
 357 0008 C0F20003 		movt	r3, #:upper16:buffer
 358 000c 5B78     		ldrb	r3, [r3, #1]	@ zero_extendqisi2
 359 000e 0193     		str	r3, [sp, #4]
 360              		.loc 1 149 0
 361 0010 4FF00D03 		mov	r3, #13
 362 0014 0093     		str	r3, [sp, #0]
 363              		.loc 1 150 0
 364 0016 019A     		ldr	r2, [sp, #4]
 365 0018 009B     		ldr	r3, [sp, #0]
 366 001a 9A42     		cmp	r2, r3
 367 001c 01DA     		bge	.L22
 368              		.cfi_offset 14, -4
 369              		.loc 1 150 0 is_stmt 0 discriminator 1
 370 001e 019B     		ldr	r3, [sp, #4]
 371 0020 01E0     		b	.L23
 372              	.L22:
 373              		.loc 1 150 0 discriminator 2
 374 0022 4FF00003 		mov	r3, #0
 375              	.L23:
 376              		.loc 1 150 0 discriminator 3
 377 0026 0193     		str	r3, [sp, #4]
 378              		.loc 1 151 0 is_stmt 1 discriminator 3
 379 0028 40F20003 		movw	r3, #:lower16:funcs
 380 002c C0F20003 		movt	r3, #:upper16:funcs
 381 0030 019A     		ldr	r2, [sp, #4]
 382 0032 53F82230 		ldr	r3, [r3, r2, lsl #2]
 383 0036 40F20000 		movw	r0, #:lower16:args
ARM GAS  C:\Users\z80\AppData\Local\Temp\ccOg1Eez.s 			page 8


 384 003a C0F20000 		movt	r0, #:upper16:args
 385 003e 9847     		blx	r3
 386              		.loc 1 152 0 discriminator 3
 387 0040 03B0     		add	sp, sp, #12
 388 0042 00BD     		pop	{pc}
 389              		.cfi_endproc
 390              	.LFE66:
 391              		.size	exec_func, .-exec_func
 392 0044 AFF30080 		.section	.text.writeOscQueue,"ax",%progbits
 392      AFF30080 
 392      AFF30080 
 393              		.align	2
 394              		.p2align 4,,15
 395              		.thumb
 396              		.thumb_func
 397              		.type	writeOscQueue, %function
 398              	writeOscQueue:
 399              	.LFB67:
 400              		.loc 1 155 0
 401              		.cfi_startproc
 402              		@ args = 0, pretend = 0, frame = 24
 403              		@ frame_needed = 0, uses_anonymous_args = 0
 404 0000 00B5     		push	{lr}
 405              	.LCFI7:
 406              		.cfi_def_cfa_offset 4
 407 0002 87B0     		sub	sp, sp, #28
 408              	.LCFI8:
 409              		.cfi_def_cfa_offset 32
 410 0004 0190     		str	r0, [sp, #4]
 411              	.LBB3:
 412              		.loc 1 159 0
 413 0006 4FF02003 		mov	r3, #32
 414              	@ 159 "./src/cpu_io.c" 1
 415 000a 83F31188 		msr     BASEPRI, r3
 416              	@ 0 "" 2
 417              		.thumb
 418              	.LBE3:
 419              		.cfi_offset 14, -4
 420 000e FFF7FEFF 		bl	dbg_check_lock
 421              		.loc 1 160 0
 422 0012 019B     		ldr	r3, [sp, #4]
 423 0014 9B68     		ldr	r3, [r3, #8]
 424 0016 4FEA5303 		lsr	r3, r3, #1
 425 001a 4FEA4303 		lsl	r3, r3, #1
 426 001e 0493     		str	r3, [sp, #16]
 427              		.loc 1 161 0
 428 0020 FFF7FEFF 		bl	dbg_check_unlock
 429              	.LBB4:
 430 0024 4FF00003 		mov	r3, #0
 431              	@ 161 "./src/cpu_io.c" 1
 432 0028 83F31188 		msr     BASEPRI, r3
 433              	@ 0 "" 2
 434              		.thumb
 435              	.LBE4:
 436              		.loc 1 162 0
 437 002c 4FF00003 		mov	r3, #0
 438 0030 0593     		str	r3, [sp, #20]
ARM GAS  C:\Users\z80\AppData\Local\Temp\ccOg1Eez.s 			page 9


 439 0032 29E0     		b	.L25
 440              	.L31:
 441              	.LBB5:
 442              		.loc 1 164 0
 443 0034 0198     		ldr	r0, [sp, #4]
 444 0036 4FF00001 		mov	r1, #0
 445 003a FFF7FEFF 		bl	chIQGetTimeout
 446 003e 0346     		mov	r3, r0
 447 0040 0393     		str	r3, [sp, #12]
 448              		.loc 1 165 0
 449 0042 039B     		ldr	r3, [sp, #12]
 450 0044 B3F1FF3F 		cmp	r3, #-1
 451 0048 03D0     		beq	.L26
 452              		.loc 1 165 0 is_stmt 0 discriminator 2
 453 004a 039B     		ldr	r3, [sp, #12]
 454 004c 13F1020F 		cmn	r3, #2
 455 0050 02D1     		bne	.L27
 456              	.L26:
 457              		.loc 1 165 0 discriminator 1
 458 0052 4FF00103 		mov	r3, #1
 459 0056 01E0     		b	.L28
 460              	.L27:
 461 0058 4FF00003 		mov	r3, #0
 462              	.L28:
 463              		.loc 1 165 0 discriminator 3
 464 005c 8DF80B30 		strb	r3, [sp, #11]
 465              		.loc 1 167 0 is_stmt 1 discriminator 3
 466 0060 9DF80B30 		ldrb	r3, [sp, #11]	@ zero_extendqisi2
 467 0064 002B     		cmp	r3, #0
 468 0066 02D1     		bne	.L29
 469              		.loc 1 167 0 is_stmt 0 discriminator 1
 470 0068 039B     		ldr	r3, [sp, #12]
 471 006a DBB2     		uxtb	r3, r3
 472 006c 01E0     		b	.L30
 473              	.L29:
 474              		.loc 1 167 0 discriminator 2
 475 006e 4FF00003 		mov	r3, #0
 476              	.L30:
 477              		.loc 1 167 0 discriminator 3
 478 0072 8DF80A30 		strb	r3, [sp, #10]
 479              		.loc 1 168 0 is_stmt 1 discriminator 3
 480 0076 9DF80A30 		ldrb	r3, [sp, #10]	@ zero_extendqisi2
 481 007a 1846     		mov	r0, r3
 482 007c FFF7FEFF 		bl	writeResult
 483              	.LBE5:
 484              		.loc 1 162 0 discriminator 3
 485 0080 059B     		ldr	r3, [sp, #20]
 486 0082 03F10103 		add	r3, r3, #1
 487 0086 0593     		str	r3, [sp, #20]
 488              	.L25:
 489              		.loc 1 162 0 is_stmt 0 discriminator 1
 490 0088 059A     		ldr	r2, [sp, #20]
 491 008a 049B     		ldr	r3, [sp, #16]
 492 008c 9A42     		cmp	r2, r3
 493 008e D1D3     		bcc	.L31
 494              		.loc 1 170 0 is_stmt 1
 495 0090 FFF7FEFF 		bl	writeEom
ARM GAS  C:\Users\z80\AppData\Local\Temp\ccOg1Eez.s 			page 10


 496              		.loc 1 171 0
 497 0094 07B0     		add	sp, sp, #28
 498 0096 00BD     		pop	{pc}
 499              		.cfi_endproc
 500              	.LFE67:
 501              		.size	writeOscQueue, .-writeOscQueue
 502 0098 AFF30080 		.section	.text.osc_eaux,"ax",%progbits
 502      AFF30080 
 503              		.align	2
 504              		.p2align 4,,15
 505              		.thumb
 506              		.thumb_func
 507              		.type	osc_eaux, %function
 508              	osc_eaux:
 509              	.LFB68:
 510              		.loc 1 174 0
 511              		.cfi_startproc
 512              		@ args = 0, pretend = 0, frame = 16
 513              		@ frame_needed = 0, uses_anonymous_args = 0
 514 0000 00B5     		push	{lr}
 515              	.LCFI9:
 516              		.cfi_def_cfa_offset 4
 517 0002 85B0     		sub	sp, sp, #20
 518              	.LCFI10:
 519              		.cfi_def_cfa_offset 24
 520 0004 0190     		str	r0, [sp, #4]
 521              		.loc 1 176 0
 522              		.cfi_offset 14, -4
 523 0006 FFF7FEFF 		bl	eauxQueue
 524 000a 0346     		mov	r3, r0
 525 000c 0393     		str	r3, [sp, #12]
 526              		.loc 1 177 0
 527 000e 0398     		ldr	r0, [sp, #12]
 528 0010 FFF7FEFF 		bl	writeOscQueue
 529              		.loc 1 178 0
 530 0014 05B0     		add	sp, sp, #20
 531 0016 00BD     		pop	{pc}
 532              		.cfi_endproc
 533              	.LFE68:
 534              		.size	osc_eaux, .-osc_eaux
 535 0018 AFF30080 		.section	.text.osc_eref,"ax",%progbits
 535      AFF30080 
 536              		.align	2
 537              		.p2align 4,,15
 538              		.thumb
 539              		.thumb_func
 540              		.type	osc_eref, %function
 541              	osc_eref:
 542              	.LFB69:
 543              		.loc 1 181 0
 544              		.cfi_startproc
 545              		@ args = 0, pretend = 0, frame = 16
 546              		@ frame_needed = 0, uses_anonymous_args = 0
 547 0000 00B5     		push	{lr}
 548              	.LCFI11:
 549              		.cfi_def_cfa_offset 4
 550 0002 85B0     		sub	sp, sp, #20
ARM GAS  C:\Users\z80\AppData\Local\Temp\ccOg1Eez.s 			page 11


 551              	.LCFI12:
 552              		.cfi_def_cfa_offset 24
 553 0004 0190     		str	r0, [sp, #4]
 554              		.loc 1 183 0
 555              		.cfi_offset 14, -4
 556 0006 FFF7FEFF 		bl	erefQueue
 557 000a 0346     		mov	r3, r0
 558 000c 0393     		str	r3, [sp, #12]
 559              		.loc 1 184 0
 560 000e 0398     		ldr	r0, [sp, #12]
 561 0010 FFF7FEFF 		bl	writeOscQueue
 562              		.loc 1 185 0
 563 0014 05B0     		add	sp, sp, #20
 564 0016 00BD     		pop	{pc}
 565              		.cfi_endproc
 566              	.LFE69:
 567              		.size	osc_eref, .-osc_eref
 568 0018 AFF30080 		.section	.text.osc_iaux,"ax",%progbits
 568      AFF30080 
 569              		.align	2
 570              		.p2align 4,,15
 571              		.thumb
 572              		.thumb_func
 573              		.type	osc_iaux, %function
 574              	osc_iaux:
 575              	.LFB70:
 576              		.loc 1 188 0
 577              		.cfi_startproc
 578              		@ args = 0, pretend = 0, frame = 16
 579              		@ frame_needed = 0, uses_anonymous_args = 0
 580 0000 00B5     		push	{lr}
 581              	.LCFI13:
 582              		.cfi_def_cfa_offset 4
 583 0002 85B0     		sub	sp, sp, #20
 584              	.LCFI14:
 585              		.cfi_def_cfa_offset 24
 586 0004 0190     		str	r0, [sp, #4]
 587              		.loc 1 190 0
 588              		.cfi_offset 14, -4
 589 0006 FFF7FEFF 		bl	iauxQueue
 590 000a 0346     		mov	r3, r0
 591 000c 0393     		str	r3, [sp, #12]
 592              		.loc 1 191 0
 593 000e 0398     		ldr	r0, [sp, #12]
 594 0010 FFF7FEFF 		bl	writeOscQueue
 595              		.loc 1 192 0
 596 0014 05B0     		add	sp, sp, #20
 597 0016 00BD     		pop	{pc}
 598              		.cfi_endproc
 599              	.LFE70:
 600              		.size	osc_iaux, .-osc_iaux
 601 0018 AFF30080 		.section	.text.osc_set_period,"ax",%progbits
 601      AFF30080 
 602              		.align	2
 603              		.p2align 4,,15
 604              		.thumb
 605              		.thumb_func
ARM GAS  C:\Users\z80\AppData\Local\Temp\ccOg1Eez.s 			page 12


 606              		.type	osc_set_period, %function
 607              	osc_set_period:
 608              	.LFB71:
 609              		.loc 1 195 0
 610              		.cfi_startproc
 611              		@ args = 0, pretend = 0, frame = 16
 612              		@ frame_needed = 0, uses_anonymous_args = 0
 613 0000 00B5     		push	{lr}
 614              	.LCFI15:
 615              		.cfi_def_cfa_offset 4
 616 0002 85B0     		sub	sp, sp, #20
 617              	.LCFI16:
 618              		.cfi_def_cfa_offset 24
 619 0004 0190     		str	r0, [sp, #4]
 620              		.loc 1 198 0
 621 0006 019B     		ldr	r3, [sp, #4]
 622 0008 1B78     		ldrb	r3, [r3, #0]	@ zero_extendqisi2
 623 000a 1A46     		mov	r2, r3
 624              		.loc 1 199 0
 625 000c 019B     		ldr	r3, [sp, #4]
 626 000e 03F10103 		add	r3, r3, #1
 627 0012 1B78     		ldrb	r3, [r3, #0]	@ zero_extendqisi2
 628 0014 4FEA0323 		lsl	r3, r3, #8
 629              		.loc 1 198 0
 630 0018 1A44     		add	r2, r2, r3
 631              		.loc 1 200 0
 632 001a 019B     		ldr	r3, [sp, #4]
 633 001c 03F10203 		add	r3, r3, #2
 634 0020 1B78     		ldrb	r3, [r3, #0]	@ zero_extendqisi2
 635 0022 4FEA0343 		lsl	r3, r3, #16
 636              		.loc 1 199 0
 637 0026 1A44     		add	r2, r2, r3
 638              		.loc 1 201 0
 639 0028 019B     		ldr	r3, [sp, #4]
 640 002a 03F10303 		add	r3, r3, #3
 641 002e 1B78     		ldrb	r3, [r3, #0]	@ zero_extendqisi2
 642 0030 4FEA0363 		lsl	r3, r3, #24
 643              		.loc 1 198 0
 644 0034 1344     		add	r3, r2, r3
 645 0036 0393     		str	r3, [sp, #12]
 646              		.loc 1 202 0
 647 0038 0398     		ldr	r0, [sp, #12]
 648              		.cfi_offset 14, -4
 649 003a FFF7FEFF 		bl	setOscPeriod
 650              		.loc 1 203 0
 651 003e 05B0     		add	sp, sp, #20
 652 0040 00BD     		pop	{pc}
 653              		.cfi_endproc
 654              	.LFE71:
 655              		.size	osc_set_period, .-osc_set_period
 656 0042 00BFAFF3 		.section	.text.set_leds,"ax",%progbits
 656      0080AFF3 
 656      0080AFF3 
 656      0080
 657              		.align	2
 658              		.p2align 4,,15
 659              		.thumb
ARM GAS  C:\Users\z80\AppData\Local\Temp\ccOg1Eez.s 			page 13


 660              		.thumb_func
 661              		.type	set_leds, %function
 662              	set_leds:
 663              	.LFB72:
 664              		.loc 1 206 0
 665              		.cfi_startproc
 666              		@ args = 0, pretend = 0, frame = 8
 667              		@ frame_needed = 0, uses_anonymous_args = 0
 668 0000 00B5     		push	{lr}
 669              	.LCFI17:
 670              		.cfi_def_cfa_offset 4
 671 0002 83B0     		sub	sp, sp, #12
 672              	.LCFI18:
 673              		.cfi_def_cfa_offset 16
 674 0004 0190     		str	r0, [sp, #4]
 675              		.loc 1 207 0
 676 0006 019B     		ldr	r3, [sp, #4]
 677 0008 1B78     		ldrb	r3, [r3, #0]	@ zero_extendqisi2
 678 000a 1846     		mov	r0, r3
 679              		.cfi_offset 14, -4
 680 000c FFF7FEFF 		bl	setLeds
 681              		.loc 1 208 0
 682 0010 03B0     		add	sp, sp, #12
 683 0012 00BD     		pop	{pc}
 684              		.cfi_endproc
 685              	.LFE72:
 686              		.size	set_leds, .-set_leds
 687 0014 AFF30080 		.section	.text.set_out_relay,"ax",%progbits
 687      AFF30080 
 687      AFF30080 
 688              		.align	2
 689              		.p2align 4,,15
 690              		.thumb
 691              		.thumb_func
 692              		.type	set_out_relay, %function
 693              	set_out_relay:
 694              	.LFB73:
 695              		.loc 1 211 0
 696              		.cfi_startproc
 697              		@ args = 0, pretend = 0, frame = 8
 698              		@ frame_needed = 0, uses_anonymous_args = 0
 699 0000 00B5     		push	{lr}
 700              	.LCFI19:
 701              		.cfi_def_cfa_offset 4
 702 0002 83B0     		sub	sp, sp, #12
 703              	.LCFI20:
 704              		.cfi_def_cfa_offset 16
 705 0004 0190     		str	r0, [sp, #4]
 706              		.loc 1 212 0
 707 0006 019B     		ldr	r3, [sp, #4]
 708 0008 1B78     		ldrb	r3, [r3, #0]	@ zero_extendqisi2
 709 000a 1846     		mov	r0, r3
 710              		.cfi_offset 14, -4
 711 000c FFF7FEFF 		bl	setOutRelay
 712              		.loc 1 213 0
 713 0010 03B0     		add	sp, sp, #12
 714 0012 00BD     		pop	{pc}
ARM GAS  C:\Users\z80\AppData\Local\Temp\ccOg1Eez.s 			page 14


 715              		.cfi_endproc
 716              	.LFE73:
 717              		.size	set_out_relay, .-set_out_relay
 718 0014 AFF30080 		.section	.text.set_sc_relay,"ax",%progbits
 718      AFF30080 
 718      AFF30080 
 719              		.align	2
 720              		.p2align 4,,15
 721              		.thumb
 722              		.thumb_func
 723              		.type	set_sc_relay, %function
 724              	set_sc_relay:
 725              	.LFB74:
 726              		.loc 1 216 0
 727              		.cfi_startproc
 728              		@ args = 0, pretend = 0, frame = 8
 729              		@ frame_needed = 0, uses_anonymous_args = 0
 730 0000 00B5     		push	{lr}
 731              	.LCFI21:
 732              		.cfi_def_cfa_offset 4
 733 0002 83B0     		sub	sp, sp, #12
 734              	.LCFI22:
 735              		.cfi_def_cfa_offset 16
 736 0004 0190     		str	r0, [sp, #4]
 737              		.loc 1 217 0
 738 0006 019B     		ldr	r3, [sp, #4]
 739 0008 1B78     		ldrb	r3, [r3, #0]	@ zero_extendqisi2
 740 000a 1846     		mov	r0, r3
 741              		.cfi_offset 14, -4
 742 000c FFF7FEFF 		bl	setScRelay
 743              		.loc 1 218 0
 744 0010 03B0     		add	sp, sp, #12
 745 0012 00BD     		pop	{pc}
 746              		.cfi_endproc
 747              	.LFE74:
 748              		.size	set_sc_relay, .-set_sc_relay
 749 0014 AFF30080 		.section	.text.set_dac,"ax",%progbits
 749      AFF30080 
 749      AFF30080 
 750              		.align	2
 751              		.p2align 4,,15
 752              		.thumb
 753              		.thumb_func
 754              		.type	set_dac, %function
 755              	set_dac:
 756              	.LFB75:
 757              		.loc 1 221 0
 758              		.cfi_startproc
 759              		@ args = 0, pretend = 0, frame = 16
 760              		@ frame_needed = 0, uses_anonymous_args = 0
 761 0000 00B5     		push	{lr}
 762              	.LCFI23:
 763              		.cfi_def_cfa_offset 4
 764 0002 85B0     		sub	sp, sp, #20
 765              	.LCFI24:
 766              		.cfi_def_cfa_offset 24
 767 0004 0190     		str	r0, [sp, #4]
ARM GAS  C:\Users\z80\AppData\Local\Temp\ccOg1Eez.s 			page 15


 768              		.loc 1 223 0
 769              		.cfi_offset 14, -4
 770 0006 FFF7FEFF 		bl	commandQueue
 771 000a 0346     		mov	r3, r0
 772 000c 0393     		str	r3, [sp, #12]
 773              		.loc 1 224 0
 774 000e 0398     		ldr	r0, [sp, #12]
 775 0010 4FF00001 		mov	r1, #0
 776 0014 4FF0FF32 		mov	r2, #-1
 777 0018 FFF7FEFF 		bl	chOQPutTimeout
 778              		.loc 1 225 0
 779 001c 05B0     		add	sp, sp, #20
 780 001e 00BD     		pop	{pc}
 781              		.cfi_endproc
 782              	.LFE75:
 783              		.size	set_dac, .-set_dac
 784              		.section	.text.set_one_pulse,"ax",%progbits
 785              		.align	2
 786              		.p2align 4,,15
 787              		.thumb
 788              		.thumb_func
 789              		.type	set_one_pulse, %function
 790              	set_one_pulse:
 791              	.LFB76:
 792              		.loc 1 228 0
 793              		.cfi_startproc
 794              		@ args = 0, pretend = 0, frame = 16
 795              		@ frame_needed = 0, uses_anonymous_args = 0
 796 0000 00B5     		push	{lr}
 797              	.LCFI25:
 798              		.cfi_def_cfa_offset 4
 799 0002 85B0     		sub	sp, sp, #20
 800              	.LCFI26:
 801              		.cfi_def_cfa_offset 24
 802 0004 0190     		str	r0, [sp, #4]
 803              		.loc 1 230 0
 804              		.cfi_offset 14, -4
 805 0006 FFF7FEFF 		bl	commandQueue
 806 000a 0346     		mov	r3, r0
 807 000c 0393     		str	r3, [sp, #12]
 808              		.loc 1 231 0
 809 000e 0398     		ldr	r0, [sp, #12]
 810 0010 4FF00101 		mov	r1, #1
 811 0014 4FF0FF32 		mov	r2, #-1
 812 0018 FFF7FEFF 		bl	chOQPutTimeout
 813              		.loc 1 232 0
 814 001c 05B0     		add	sp, sp, #20
 815 001e 00BD     		pop	{pc}
 816              		.cfi_endproc
 817              	.LFE76:
 818              		.size	set_one_pulse, .-set_one_pulse
 819              		.section	.text.set_meandr,"ax",%progbits
 820              		.align	2
 821              		.p2align 4,,15
 822              		.thumb
 823              		.thumb_func
 824              		.type	set_meandr, %function
ARM GAS  C:\Users\z80\AppData\Local\Temp\ccOg1Eez.s 			page 16


 825              	set_meandr:
 826              	.LFB77:
 827              		.loc 1 235 0
 828              		.cfi_startproc
 829              		@ args = 0, pretend = 0, frame = 16
 830              		@ frame_needed = 0, uses_anonymous_args = 0
 831 0000 00B5     		push	{lr}
 832              	.LCFI27:
 833              		.cfi_def_cfa_offset 4
 834 0002 85B0     		sub	sp, sp, #20
 835              	.LCFI28:
 836              		.cfi_def_cfa_offset 24
 837 0004 0190     		str	r0, [sp, #4]
 838              		.loc 1 237 0
 839              		.cfi_offset 14, -4
 840 0006 FFF7FEFF 		bl	commandQueue
 841 000a 0346     		mov	r3, r0
 842 000c 0393     		str	r3, [sp, #12]
 843              		.loc 1 238 0
 844 000e 0398     		ldr	r0, [sp, #12]
 845 0010 4FF00201 		mov	r1, #2
 846 0014 4FF0FF32 		mov	r2, #-1
 847 0018 FFF7FEFF 		bl	chOQPutTimeout
 848              		.loc 1 239 0
 849 001c 05B0     		add	sp, sp, #20
 850 001e 00BD     		pop	{pc}
 851              		.cfi_endproc
 852              	.LFE77:
 853              		.size	set_meandr, .-set_meandr
 854              		.section	.text.set_sweep,"ax",%progbits
 855              		.align	2
 856              		.p2align 4,,15
 857              		.thumb
 858              		.thumb_func
 859              		.type	set_sweep, %function
 860              	set_sweep:
 861              	.LFB78:
 862              		.loc 1 242 0
 863              		.cfi_startproc
 864              		@ args = 0, pretend = 0, frame = 16
 865              		@ frame_needed = 0, uses_anonymous_args = 0
 866 0000 00B5     		push	{lr}
 867              	.LCFI29:
 868              		.cfi_def_cfa_offset 4
 869 0002 85B0     		sub	sp, sp, #20
 870              	.LCFI30:
 871              		.cfi_def_cfa_offset 24
 872 0004 0190     		str	r0, [sp, #4]
 873              		.loc 1 244 0
 874              		.cfi_offset 14, -4
 875 0006 FFF7FEFF 		bl	commandQueue
 876 000a 0346     		mov	r3, r0
 877 000c 0393     		str	r3, [sp, #12]
 878              		.loc 1 245 0
 879 000e 0398     		ldr	r0, [sp, #12]
 880 0010 4FF00301 		mov	r1, #3
 881 0014 4FF0FF32 		mov	r2, #-1
ARM GAS  C:\Users\z80\AppData\Local\Temp\ccOg1Eez.s 			page 17


 882 0018 FFF7FEFF 		bl	chOQPutTimeout
 883              		.loc 1 246 0
 884 001c 05B0     		add	sp, sp, #20
 885 001e 00BD     		pop	{pc}
 886              		.cfi_endproc
 887              	.LFE78:
 888              		.size	set_sweep, .-set_sweep
 889              		.section	.rodata
 890              		.align	2
 891              	.LC0:
 892 0000 766F6C74 		.ascii	"voltamp-1.0.0\000"
 892      616D702D 
 892      312E302E 
 892      3000
 893              		.section	.text.hardware_version,"ax",%progbits
 894              		.align	2
 895              		.p2align 4,,15
 896              		.thumb
 897              		.thumb_func
 898              		.type	hardware_version, %function
 899              	hardware_version:
 900              	.LFB79:
 901              		.loc 1 249 0
 902              		.cfi_startproc
 903              		@ args = 0, pretend = 0, frame = 32
 904              		@ frame_needed = 0, uses_anonymous_args = 0
 905 0000 00B5     		push	{lr}
 906              	.LCFI31:
 907              		.cfi_def_cfa_offset 4
 908 0002 89B0     		sub	sp, sp, #36
 909              	.LCFI32:
 910              		.cfi_def_cfa_offset 40
 911 0004 0190     		str	r0, [sp, #4]
 912              		.loc 1 251 0
 913 0006 40F20003 		movw	r3, #:lower16:.LC0
 914 000a C0F20003 		movt	r3, #:upper16:.LC0
 915 000e 0DF1080C 		add	ip, sp, #8
 916 0012 0FCB     		ldmia	r3, {r0, r1, r2, r3}
 917 0014 ACE80700 		stmia	ip!, {r0, r1, r2}
 918 0018 ACF80030 		strh	r3, [ip, #0]	@ movhi
 919              		.loc 1 252 0
 920 001c 4FF00D03 		mov	r3, #13
 921 0020 0693     		str	r3, [sp, #24]
 922              		.loc 1 254 0
 923 0022 4FF00003 		mov	r3, #0
 924 0026 0793     		str	r3, [sp, #28]
 925 0028 0AE0     		b	.L44
 926              		.cfi_offset 14, -4
 927              	.L45:
 928              		.loc 1 255 0 discriminator 2
 929 002a 02AA     		add	r2, sp, #8
 930 002c 079B     		ldr	r3, [sp, #28]
 931 002e 1344     		add	r3, r2, r3
 932 0030 1B78     		ldrb	r3, [r3, #0]	@ zero_extendqisi2
 933 0032 1846     		mov	r0, r3
 934 0034 FFF7FEFF 		bl	writeResult
 935              		.loc 1 254 0 discriminator 2
ARM GAS  C:\Users\z80\AppData\Local\Temp\ccOg1Eez.s 			page 18


 936 0038 079B     		ldr	r3, [sp, #28]
 937 003a 03F10103 		add	r3, r3, #1
 938 003e 0793     		str	r3, [sp, #28]
 939              	.L44:
 940              		.loc 1 254 0 is_stmt 0 discriminator 1
 941 0040 079A     		ldr	r2, [sp, #28]
 942 0042 069B     		ldr	r3, [sp, #24]
 943 0044 9A42     		cmp	r2, r3
 944 0046 F0DB     		blt	.L45
 945              		.loc 1 256 0 is_stmt 1
 946 0048 FFF7FEFF 		bl	writeEom
 947              		.loc 1 257 0
 948 004c 09B0     		add	sp, sp, #36
 949 004e 00BD     		pop	{pc}
 950              		.cfi_endproc
 951              	.LFE79:
 952              		.size	hardware_version, .-hardware_version
 953              		.section	.rodata
 954 000e 0000     		.align	2
 955              	.LC1:
 956 0010 302E302E 		.ascii	"0.0.1\000"
 956      3100
 957 0016 0000     		.section	.text.firmware_version,"ax",%progbits
 958              		.align	2
 959              		.p2align 4,,15
 960              		.thumb
 961              		.thumb_func
 962              		.type	firmware_version, %function
 963              	firmware_version:
 964              	.LFB80:
 965              		.loc 1 260 0
 966              		.cfi_startproc
 967              		@ args = 0, pretend = 0, frame = 24
 968              		@ frame_needed = 0, uses_anonymous_args = 0
 969 0000 00B5     		push	{lr}
 970              	.LCFI33:
 971              		.cfi_def_cfa_offset 4
 972 0002 87B0     		sub	sp, sp, #28
 973              	.LCFI34:
 974              		.cfi_def_cfa_offset 32
 975 0004 0190     		str	r0, [sp, #4]
 976              		.loc 1 262 0
 977 0006 40F20002 		movw	r2, #:lower16:.LC1
 978 000a C0F20002 		movt	r2, #:upper16:.LC1
 979 000e 02AB     		add	r3, sp, #8
 980 0010 92E80300 		ldmia	r2, {r0, r1}
 981 0014 1860     		str	r0, [r3, #0]
 982 0016 03F10403 		add	r3, r3, #4
 983 001a 1980     		strh	r1, [r3, #0]	@ movhi
 984              		.loc 1 263 0
 985 001c 4FF00503 		mov	r3, #5
 986 0020 0493     		str	r3, [sp, #16]
 987              		.loc 1 265 0
 988 0022 4FF00003 		mov	r3, #0
 989 0026 0593     		str	r3, [sp, #20]
 990 0028 0AE0     		b	.L47
 991              		.cfi_offset 14, -4
ARM GAS  C:\Users\z80\AppData\Local\Temp\ccOg1Eez.s 			page 19


 992              	.L48:
 993              		.loc 1 266 0 discriminator 2
 994 002a 02AA     		add	r2, sp, #8
 995 002c 059B     		ldr	r3, [sp, #20]
 996 002e 1344     		add	r3, r2, r3
 997 0030 1B78     		ldrb	r3, [r3, #0]	@ zero_extendqisi2
 998 0032 1846     		mov	r0, r3
 999 0034 FFF7FEFF 		bl	writeResult
 1000              		.loc 1 265 0 discriminator 2
 1001 0038 059B     		ldr	r3, [sp, #20]
 1002 003a 03F10103 		add	r3, r3, #1
 1003 003e 0593     		str	r3, [sp, #20]
 1004              	.L47:
 1005              		.loc 1 265 0 is_stmt 0 discriminator 1
 1006 0040 059A     		ldr	r2, [sp, #20]
 1007 0042 049B     		ldr	r3, [sp, #16]
 1008 0044 9A42     		cmp	r2, r3
 1009 0046 F0DB     		blt	.L48
 1010              		.loc 1 267 0 is_stmt 1
 1011 0048 FFF7FEFF 		bl	writeEom
 1012              		.loc 1 268 0
 1013 004c 07B0     		add	sp, sp, #28
 1014 004e 00BD     		pop	{pc}
 1015              		.cfi_endproc
 1016              	.LFE80:
 1017              		.size	firmware_version, .-firmware_version
 1018              		.section	.text.writeResult,"ax",%progbits
 1019              		.align	2
 1020              		.p2align 4,,15
 1021              		.thumb
 1022              		.thumb_func
 1023              		.type	writeResult, %function
 1024              	writeResult:
 1025              	.LFB81:
 1026              		.loc 1 276 0
 1027              		.cfi_startproc
 1028              		@ args = 0, pretend = 0, frame = 8
 1029              		@ frame_needed = 0, uses_anonymous_args = 0
 1030 0000 00B5     		push	{lr}
 1031              	.LCFI35:
 1032              		.cfi_def_cfa_offset 4
 1033 0002 83B0     		sub	sp, sp, #12
 1034              	.LCFI36:
 1035              		.cfi_def_cfa_offset 16
 1036 0004 0346     		mov	r3, r0
 1037 0006 8DF80730 		strb	r3, [sp, #7]
 1038              		.loc 1 277 0
 1039 000a 9DF80730 		ldrb	r3, [sp, #7]	@ zero_extendqisi2
 1040 000e 002B     		cmp	r3, #0
 1041 0010 03D0     		beq	.L50
 1042              		.cfi_offset 14, -4
 1043              		.loc 1 277 0 is_stmt 0 discriminator 1
 1044 0012 9DF80730 		ldrb	r3, [sp, #7]	@ zero_extendqisi2
 1045 0016 5C2B     		cmp	r3, #92
 1046 0018 06D1     		bne	.L51
 1047              	.L50:
 1048              		.loc 1 278 0 is_stmt 1
ARM GAS  C:\Users\z80\AppData\Local\Temp\ccOg1Eez.s 			page 20


 1049 001a 0848     		ldr	r0, .L52
 1050 001c 4FF05C01 		mov	r1, #92
 1051 0020 4FF0FF32 		mov	r2, #-1
 1052 0024 FFF7FEFF 		bl	chOQPutTimeout
 1053              	.L51:
 1054              		.loc 1 279 0
 1055 0028 9DF80730 		ldrb	r3, [sp, #7]	@ zero_extendqisi2
 1056 002c 0348     		ldr	r0, .L52
 1057 002e 1946     		mov	r1, r3
 1058 0030 4FF0FF32 		mov	r2, #-1
 1059 0034 FFF7FEFF 		bl	chOQPutTimeout
 1060              		.loc 1 280 0
 1061 0038 03B0     		add	sp, sp, #12
 1062 003a 00BD     		pop	{pc}
 1063              	.L53:
 1064              		.align	2
 1065              	.L52:
 1066 003c 30000000 		.word	SD1+48
 1067              		.cfi_endproc
 1068              	.LFE81:
 1069              		.size	writeResult, .-writeResult
 1070              		.section	.text.writeEom,"ax",%progbits
 1071              		.align	2
 1072              		.p2align 4,,15
 1073              		.thumb
 1074              		.thumb_func
 1075              		.type	writeEom, %function
 1076              	writeEom:
 1077              	.LFB82:
 1078              		.loc 1 283 0
 1079              		.cfi_startproc
 1080              		@ args = 0, pretend = 0, frame = 0
 1081              		@ frame_needed = 0, uses_anonymous_args = 0
 1082 0000 08B5     		push	{r3, lr}
 1083              	.LCFI37:
 1084              		.cfi_def_cfa_offset 8
 1085              		.loc 1 284 0
 1086 0002 0448     		ldr	r0, .L55
 1087 0004 4FF00001 		mov	r1, #0
 1088 0008 4FF0FF32 		mov	r2, #-1
 1089              		.cfi_offset 14, -4
 1090              		.cfi_offset 3, -8
 1091 000c FFF7FEFF 		bl	chOQPutTimeout
 1092              		.loc 1 285 0
 1093 0010 08BD     		pop	{r3, pc}
 1094              	.L56:
 1095 0012 00BF     		.align	2
 1096              	.L55:
 1097 0014 30000000 		.word	SD1+48
 1098              		.cfi_endproc
 1099              	.LFE82:
 1100              		.size	writeEom, .-writeEom
 1101 0018 AFF30080 		.section	.bss.slash.3686,"aw",%nobits
 1101      AFF30080 
 1102              		.type	slash.3686, %object
 1103              		.size	slash.3686, 1
 1104              	slash.3686:
ARM GAS  C:\Users\z80\AppData\Local\Temp\ccOg1Eez.s 			page 21


 1105 0000 00       		.space	1
 1106              		.section	.bss.out_index.3687,"aw",%nobits
 1107              		.align	2
 1108              		.type	out_index.3687, %object
 1109              		.size	out_index.3687, 4
 1110              	out_index.3687:
 1111 0000 00000000 		.space	4
 1112              		.text
 1113              	.Letext0: