ARM GAS  /tmp/cc84nPaL.s 			page 1


   1              		.syntax unified
   2              		.cpu cortex-m3
   3              		.fpu softvfp
   4              		.eabi_attribute 20, 1
   5              		.eabi_attribute 21, 1
   6              		.eabi_attribute 23, 3
   7              		.eabi_attribute 24, 1
   8              		.eabi_attribute 25, 1
   9              		.eabi_attribute 26, 1
  10              		.eabi_attribute 30, 2
  11              		.eabi_attribute 18, 4
  12              		.thumb
  13              		.file	"cpu_io.c"
  14              		.section	.debug_abbrev,"",%progbits
  15              	.Ldebug_abbrev0:
  16              		.section	.debug_info,"",%progbits
  17              	.Ldebug_info0:
  18              		.section	.debug_line,"",%progbits
  19              	.Ldebug_line0:
  20 0000 A4030000 		.text
  20      0200BD02 
  20      00000201 
  20      FB0E0D00 
  20      01010101 
  21              	.Ltext0:
  22              		.cfi_sections	.debug_frame
  23              		.section	.text.set_dac,"ax",%progbits
  24              		.align	2
  25              		.p2align 4,,15
  26              		.thumb
  27              		.thumb_func
  28              		.type	set_dac, %function
  29              	set_dac:
  30              	.LFB67:
  31              		.file 1 "./src/cpu_io.c"
  32              		.loc 1 119 0
  33              		.cfi_startproc
  34              		@ args = 0, pretend = 0, frame = 8
  35              		@ frame_needed = 0, uses_anonymous_args = 0
  36              	.LVL0:
  37 0000 10B5     		push	{r4, lr}
  38              	.LCFI0:
  39              		.cfi_def_cfa_offset 8
  40              		.loc 1 121 0
  41 0002 4278     		ldrb	r2, [r0, #1]	@ zero_extendqisi2
  42              		.loc 1 122 0
  43 0004 C378     		ldrb	r3, [r0, #3]	@ zero_extendqisi2
  44              		.loc 1 121 0
  45 0006 0478     		ldrb	r4, [r0, #0]	@ zero_extendqisi2
  46              		.cfi_offset 14, -4
  47              		.cfi_offset 4, -8
  48              		.loc 1 122 0
  49 0008 8178     		ldrb	r1, [r0, #2]	@ zero_extendqisi2
  50              		.loc 1 119 0
  51 000a 82B0     		sub	sp, sp, #8
  52              	.LCFI1:
  53              		.cfi_def_cfa_offset 16
ARM GAS  /tmp/cc84nPaL.s 			page 2


  54              		.loc 1 122 0
  55 000c 1802     		lsls	r0, r3, #8
  56              	.LVL1:
  57              		.loc 1 121 0
  58 000e 1202     		lsls	r2, r2, #8
  59              		.loc 1 122 0
  60 0010 4318     		adds	r3, r0, r1
  61              		.loc 1 121 0
  62 0012 1219     		adds	r2, r2, r4
  63              		.loc 1 123 0
  64 0014 01A8     		add	r0, sp, #4
  65              		.loc 1 121 0
  66 0016 ADF80420 		strh	r2, [sp, #4]	@ movhi
  67              		.loc 1 122 0
  68 001a ADF80630 		strh	r3, [sp, #6]	@ movhi
  69              		.loc 1 123 0
  70 001e FFF7FEFF 		bl	dacSet
  71              		.loc 1 124 0
  72 0022 02B0     		add	sp, sp, #8
  73 0024 10BD     		pop	{r4, pc}
  74              		.cfi_endproc
  75              	.LFE67:
  76              		.size	set_dac, .-set_dac
  77 0026 00BFAFF3 		.section	.text.set_leds,"ax",%progbits
  77      0080AFF3 
  77      0080
  78              		.align	2
  79              		.p2align 4,,15
  80              		.thumb
  81              		.thumb_func
  82              		.type	set_leds, %function
  83              	set_leds:
  84              	.LFB66:
  85              		.loc 1 114 0
  86              		.cfi_startproc
  87              		@ args = 0, pretend = 0, frame = 0
  88              		@ frame_needed = 0, uses_anonymous_args = 0
  89              		@ link register save eliminated.
  90              	.LVL2:
  91              		.loc 1 115 0
  92 0000 0078     		ldrb	r0, [r0, #0]	@ zero_extendqisi2
  93              	.LVL3:
  94              		.loc 1 116 0
  95              		.loc 1 115 0
  96 0002 FFF7FEBF 		b	setLeds
  97              		.cfi_endproc
  98              	.LFE66:
  99              		.size	set_leds, .-set_leds
 100 0006 00BFAFF3 		.section	.text.outputThread,"ax",%progbits
 100      0080AFF3 
 100      0080
 101              		.align	2
 102              		.p2align 4,,15
 103              		.thumb
 104              		.thumb_func
 105              		.type	outputThread, %function
 106              	outputThread:
ARM GAS  /tmp/cc84nPaL.s 			page 3


 107              	.LFB70:
 108              		.loc 1 159 0
 109              		.cfi_startproc
 110              		@ args = 0, pretend = 0, frame = 8
 111              		@ frame_needed = 0, uses_anonymous_args = 0
 112              	.LVL4:
 113 0000 00B5     		push	{lr}
 114              	.LCFI2:
 115              		.cfi_def_cfa_offset 4
 116              		.loc 1 161 0
 117 0002 0B48     		ldr	r0, .L10
 118              	.LVL5:
 119 0004 0B4A     		ldr	r2, .L10+4
 120 0006 C369     		ldr	r3, [r0, #28]
 121              		.loc 1 159 0
 122 0008 83B0     		sub	sp, sp, #12
 123              	.LCFI3:
 124              		.cfi_def_cfa_offset 16
 125              		.loc 1 161 0
 126 000a 9A61     		str	r2, [r3, #24]
 127              	.LVL6:
 128              	.L8:
 129              	.LBB12:
 130              		.loc 1 167 0
 131 000c 0DF10701 		add	r1, sp, #7
 132 0010 4FF0FF33 		mov	r3, #-1
 133 0014 0122     		movs	r2, #1
 134 0016 0848     		ldr	r0, .L10+8
 135              		.cfi_offset 14, -4
 136 0018 FFF7FEFF 		bl	chIQReadTimeout
 137              	.LVL7:
 138              		.loc 1 168 0
 139 001c 0028     		cmp	r0, #0
 140 001e F5D0     		beq	.L8
 141              		.loc 1 169 0
 142 0020 9DF80710 		ldrb	r1, [sp, #7]	@ zero_extendqisi2
 143 0024 4FF0FF32 		mov	r2, #-1
 144 0028 0448     		ldr	r0, .L10+12
 145              	.LVL8:
 146 002a FFF7FEFF 		bl	chOQPutTimeout
 147 002e EDE7     		b	.L8
 148              	.L11:
 149              		.align	2
 150              	.L10:
 151 0030 00000000 		.word	rlist
 152 0034 00000000 		.word	.LC0
 153 0038 00000000 		.word	.LANCHOR0
 154 003c 30000000 		.word	SD1+48
 155              	.LBE12:
 156              		.cfi_endproc
 157              	.LFE70:
 158              		.size	outputThread, .-outputThread
 159              		.section	.text.cpu_io_init,"ax",%progbits
 160              		.align	2
 161              		.p2align 4,,15
 162              		.global	cpu_io_init
 163              		.thumb
ARM GAS  /tmp/cc84nPaL.s 			page 4


 164              		.thumb_func
 165              		.type	cpu_io_init, %function
 166              	cpu_io_init:
 167              	.LFB62:
 168              		.loc 1 31 0
 169              		.cfi_startproc
 170              		@ args = 0, pretend = 0, frame = 0
 171              		@ frame_needed = 0, uses_anonymous_args = 0
 172 0000 10B5     		push	{r4, lr}
 173              	.LCFI4:
 174              		.cfi_def_cfa_offset 8
 175 0002 82B0     		sub	sp, sp, #8
 176              	.LCFI5:
 177              		.cfi_def_cfa_offset 16
 178              		.loc 1 32 0
 179              		.cfi_offset 14, -4
 180              		.cfi_offset 4, -8
 181 0004 FFF7FEFF 		bl	serial_pipe_init
 182              		.loc 1 34 0
 183 0008 0021     		movs	r1, #0
 184 000a 0A48     		ldr	r0, .L13
 185 000c FFF7FEFF 		bl	sdStart
 186              	.LBB13:
 187              	.LBB14:
 188              		.loc 1 178 0
 189 0010 2022     		movs	r2, #32
 190 0012 0023     		movs	r3, #0
 191 0014 0848     		ldr	r0, .L13+4
 192 0016 0949     		ldr	r1, .L13+8
 193 0018 FFF7FEFF 		bl	chIQInit
 194              		.loc 1 180 0
 195 001c 0024     		movs	r4, #0
 196 001e 4FF4D871 		mov	r1, #432
 197 0022 4022     		movs	r2, #64
 198 0024 064B     		ldr	r3, .L13+12
 199 0026 0748     		ldr	r0, .L13+16
 200 0028 0094     		str	r4, [sp, #0]
 201 002a FFF7FEFF 		bl	chThdCreateStatic
 202              	.LBE14:
 203              	.LBE13:
 204              		.loc 1 37 0
 205 002e 02B0     		add	sp, sp, #8
 206 0030 10BD     		pop	{r4, pc}
 207              	.L14:
 208 0032 00BF     		.align	2
 209              	.L13:
 210 0034 00000000 		.word	SD1
 211 0038 00000000 		.word	.LANCHOR0
 212 003c 00000000 		.word	.LANCHOR1
 213 0040 00000000 		.word	outputThread
 214 0044 00000000 		.word	.LANCHOR2
 215              		.cfi_endproc
 216              	.LFE62:
 217              		.size	cpu_io_init, .-cpu_io_init
 218 0048 AFF30080 		.section	.text.cpu_io_process,"ax",%progbits
 218      AFF30080 
 219              		.align	2
ARM GAS  /tmp/cc84nPaL.s 			page 5


 220              		.p2align 4,,15
 221              		.global	cpu_io_process
 222              		.thumb
 223              		.thumb_func
 224              		.type	cpu_io_process, %function
 225              	cpu_io_process:
 226              	.LFB63:
 227              		.loc 1 40 0
 228              		.cfi_startproc
 229              		@ args = 0, pretend = 0, frame = 8
 230              		@ frame_needed = 0, uses_anonymous_args = 0
 231 0000 2DE9F04F 		push	{r4, r5, r6, r7, r8, r9, sl, fp, lr}
 232              	.LCFI6:
 233              		.cfi_def_cfa_offset 36
 234 0004 334C     		ldr	r4, .L39
 235              		.cfi_offset 14, -4
 236              		.cfi_offset 11, -8
 237              		.cfi_offset 10, -12
 238              		.cfi_offset 9, -16
 239              		.cfi_offset 8, -20
 240              		.cfi_offset 7, -24
 241              		.cfi_offset 6, -28
 242              		.cfi_offset 5, -32
 243              		.cfi_offset 4, -36
 244 0006 DFF8E0A0 		ldr	sl, .L39+20
 245              	.LBB15:
 246              		.loc 1 45 0
 247 000a DFF8D0B0 		ldr	fp, .L39+8
 248              	.LBE15:
 249              		.loc 1 40 0
 250 000e 83B0     		sub	sp, sp, #12
 251              	.LCFI7:
 252              		.cfi_def_cfa_offset 48
 253              	.LBB27:
 254              	.LBB16:
 255              		.loc 1 56 0
 256 0010 2546     		mov	r5, r4
 257              	.LBB18:
 258              	.LBB20:
 259              		.loc 1 81 0
 260 0012 661C     		adds	r6, r4, #1
 261              	.L34:
 262              	.LBE20:
 263              	.LBE18:
 264              	.LBE16:
 265              		.loc 1 45 0
 266 0014 2022     		movs	r2, #32
 267 0016 0023     		movs	r3, #0
 268 0018 2F48     		ldr	r0, .L39+4
 269 001a 3049     		ldr	r1, .L39+8
 270 001c FFF7FEFF 		bl	chIQReadTimeout
 271              	.LVL9:
 272              		.loc 1 46 0
 273 0020 0028     		cmp	r0, #0
 274 0022 22DD     		ble	.L37
 275              	.L17:
 276              		.loc 1 47 0
ARM GAS  /tmp/cc84nPaL.s 			page 6


 277 0024 DFF8B480 		ldr	r8, .L39+8
 278              		.loc 1 39 0
 279 0028 0BEB0009 		add	r9, fp, r0
 280              	.LBE27:
 281 002c 0027     		movs	r7, #0
 282              	.LVL10:
 283              	.L24:
 284              	.LBB28:
 285              	.LBB25:
 286              		.loc 1 56 0
 287 002e E119     		adds	r1, r4, r7
 288 0030 18F8010B 		ldrb	r0, [r8], #1	@ zero_extendqisi2
 289 0034 0DF10702 		add	r2, sp, #7
 290 0038 FFF7FEFF 		bl	serial_decode_byte
 291              	.LVL11:
 292              		.loc 1 60 0
 293 003c 9DF80730 		ldrb	r3, [sp, #7]	@ zero_extendqisi2
 294              	.LVL12:
 295              		.loc 1 57 0
 296 0040 C719     		adds	r7, r0, r7
 297              	.LVL13:
 298              		.loc 1 59 0
 299 0042 202F     		cmp	r7, #32
 300 0044 A8BF     		it	ge
 301 0046 2027     		movge	r7, #32
 302              	.LVL14:
 303              		.loc 1 60 0
 304 0048 2BB1     		cbz	r3, .L19
 305              	.LVL15:
 306              	.LBB17:
 307              	.LBB19:
 308              		.loc 1 82 0
 309 004a 2B78     		ldrb	r3, [r5, #0]	@ zero_extendqisi2
 310              	.LVL16:
 311 004c 012B     		cmp	r3, #1
 312 004e 20D0     		beq	.L20
 313 0050 022B     		cmp	r3, #2
 314 0052 0ED0     		beq	.L38
 315              	.LVL17:
 316              	.L26:
 317              		.loc 1 65 0
 318 0054 0027     		movs	r7, #0
 319              	.LVL18:
 320              	.L19:
 321              	.LBE19:
 322              	.LBE17:
 323              		.loc 1 54 0
 324 0056 C845     		cmp	r8, r9
 325 0058 E9D1     		bne	.L24
 326              	.LBE25:
 327              		.loc 1 45 0
 328 005a 2022     		movs	r2, #32
 329 005c 0023     		movs	r3, #0
 330              	.LVL19:
 331 005e 1E48     		ldr	r0, .L39+4
 332 0060 1E49     		ldr	r1, .L39+8
 333 0062 FFF7FEFF 		bl	chIQReadTimeout
ARM GAS  /tmp/cc84nPaL.s 			page 7


 334              	.LVL20:
 335              		.loc 1 46 0
 336 0066 0028     		cmp	r0, #0
 337 0068 DCDC     		bgt	.L17
 338              	.LVL21:
 339              	.L37:
 340              		.loc 1 47 0
 341 006a 0120     		movs	r0, #1
 342              	.LVL22:
 343 006c FFF7FEFF 		bl	chThdSleep
 344 0070 D0E7     		b	.L34
 345              	.LVL23:
 346              	.L38:
 347              	.LBB26:
 348              	.LBB24:
 349              	.LBB23:
 350              	.LBB21:
 351              	.LBB22:
 352              		.loc 1 106 0
 353 0072 A978     		ldrb	r1, [r5, #2]	@ zero_extendqisi2
 354 0074 6878     		ldrb	r0, [r5, #1]	@ zero_extendqisi2
 355              	.LVL24:
 356 0076 0B02     		lsls	r3, r1, #8
 357 0078 03EB000C 		add	ip, r3, r0
 358              	.LVL25:
 359              		.loc 1 109 0
 360 007c BCF1010F 		cmp	ip, #1
 361 0080 C8BF     		it	gt
 362 0082 4FF0000C 		movgt	ip, #0
 363              	.LVL26:
 364              		.loc 1 110 0
 365 0086 5AF82C70 		ldr	r7, [sl, ip, lsl #2]
 366              	.LVL27:
 367 008a 1548     		ldr	r0, .L39+12
 368 008c B847     		blx	r7
 369              	.LVL28:
 370              		.loc 1 65 0
 371 008e 0027     		movs	r7, #0
 372 0090 E1E7     		b	.L19
 373              	.LVL29:
 374              	.L20:
 375              	.LBE22:
 376              	.LBE21:
 377              		.loc 1 85 0
 378 0092 012F     		cmp	r7, #1
 379 0094 DEDD     		ble	.L26
 380              		.loc 1 86 0
 381 0096 134B     		ldr	r3, .L39+16
 382              		.loc 1 39 0
 383 0098 EF19     		adds	r7, r5, r7
 384              	.LVL30:
 385 009a F243     		mvns	r2, r6
 386              		.loc 1 86 0
 387 009c 3078     		ldrb	r0, [r6, #0]	@ zero_extendqisi2
 388              	.LVL31:
 389 009e 1049     		ldr	r1, .L39+12
 390 00a0 D219     		adds	r2, r2, r7
ARM GAS  /tmp/cc84nPaL.s 			page 8


 391              		.loc 1 85 0
 392 00a2 BB42     		cmp	r3, r7
 393              		.loc 1 86 0
 394 00a4 0870     		strb	r0, [r1, #0]
 395              	.LVL32:
 396 00a6 02F00102 		and	r2, r2, #1
 397              		.loc 1 85 0
 398 00aa D3D0     		beq	.L26
 399 00ac 2AB1     		cbz	r2, .L22
 400              		.loc 1 86 0
 401 00ae 13F8012B 		ldrb	r2, [r3], #1	@ zero_extendqisi2
 402              		.loc 1 85 0
 403 00b2 BB42     		cmp	r3, r7
 404              		.loc 1 86 0
 405 00b4 01F8012F 		strb	r2, [r1, #1]!
 406              		.loc 1 85 0
 407 00b8 CCD0     		beq	.L26
 408              	.L22:
 409              		.loc 1 86 0
 410 00ba 1A46     		mov	r2, r3
 411 00bc 12F801EB 		ldrb	lr, [r2], #1	@ zero_extendqisi2
 412 00c0 481C     		adds	r0, r1, #1
 413 00c2 81F801E0 		strb	lr, [r1, #1]
 414 00c6 5978     		ldrb	r1, [r3, #1]	@ zero_extendqisi2
 415 00c8 531C     		adds	r3, r2, #1
 416 00ca 4170     		strb	r1, [r0, #1]
 417 00cc 411C     		adds	r1, r0, #1
 418              		.loc 1 85 0
 419 00ce BB42     		cmp	r3, r7
 420 00d0 F3D1     		bne	.L22
 421 00d2 BFE7     		b	.L26
 422              	.L40:
 423              		.align	2
 424              	.L39:
 425 00d4 00000000 		.word	.LANCHOR4
 426 00d8 10000000 		.word	SD1+16
 427 00dc 00000000 		.word	.LANCHOR3
 428 00e0 00000000 		.word	.LANCHOR5
 429 00e4 02000000 		.word	.LANCHOR4+2
 430 00e8 00000000 		.word	.LANCHOR6
 431              	.LBE23:
 432              	.LBE24:
 433              	.LBE26:
 434              	.LBE28:
 435              		.cfi_endproc
 436              	.LFE63:
 437              		.size	cpu_io_process, .-cpu_io_process
 438 00ec AFF30080 		.section	.text.writeEom,"ax",%progbits
 439              		.align	2
 440              		.p2align 4,,15
 441              		.global	writeEom
 442              		.thumb
 443              		.thumb_func
 444              		.type	writeEom, %function
 445              	writeEom:
 446              	.LFB69:
 447              		.loc 1 152 0
ARM GAS  /tmp/cc84nPaL.s 			page 9


 448              		.cfi_startproc
 449              		@ args = 0, pretend = 0, frame = 0
 450              		@ frame_needed = 0, uses_anonymous_args = 0
 451 0000 10B5     		push	{r4, lr}
 452              	.LCFI8:
 453              		.cfi_def_cfa_offset 8
 454              		.loc 1 153 0
 455 0002 054C     		ldr	r4, .L42
 456              		.cfi_offset 14, -4
 457              		.cfi_offset 4, -8
 458 0004 5C21     		movs	r1, #92
 459 0006 2046     		mov	r0, r4
 460 0008 FFF7FEFF 		bl	chQPutI
 461              		.loc 1 154 0
 462 000c 2046     		mov	r0, r4
 463 000e 0021     		movs	r1, #0
 464              		.loc 1 155 0
 465 0010 BDE81040 		pop	{r4, lr}
 466              		.loc 1 154 0
 467 0014 FFF7FEBF 		b	chQPutI
 468              	.L43:
 469              		.align	2
 470              	.L42:
 471 0018 00000000 		.word	.LANCHOR0
 472              		.cfi_endproc
 473              	.LFE69:
 474              		.size	writeEom, .-writeEom
 475 001c AFF30080 		.section	.text.writeResult,"ax",%progbits
 476              		.align	2
 477              		.p2align 4,,15
 478              		.global	writeResult
 479              		.thumb
 480              		.thumb_func
 481              		.type	writeResult, %function
 482              	writeResult:
 483              	.LFB68:
 484              		.loc 1 135 0
 485              		.cfi_startproc
 486              		@ args = 0, pretend = 0, frame = 0
 487              		@ frame_needed = 0, uses_anonymous_args = 0
 488              	.LVL33:
 489 0000 38B5     		push	{r3, r4, r5, lr}
 490              	.LCFI9:
 491              		.cfi_def_cfa_offset 16
 492              		.loc 1 136 0
 493 0002 0D4C     		ldr	r4, .L50
 494              		.cfi_offset 14, -4
 495              		.cfi_offset 5, -8
 496              		.cfi_offset 4, -12
 497              		.cfi_offset 3, -16
 498              		.loc 1 135 0
 499 0004 0546     		mov	r5, r0
 500              		.loc 1 136 0
 501 0006 0146     		mov	r1, r0
 502 0008 2046     		mov	r0, r4
 503              	.LVL34:
 504 000a FFF7FEFF 		bl	chIQPutI
ARM GAS  /tmp/cc84nPaL.s 			page 10


 505              		.loc 1 137 0
 506 000e 5C2D     		cmp	r5, #92
 507 0010 0CD0     		beq	.L48
 508              	.L45:
 509              	.LVL35:
 510              		.loc 1 141 0
 511 0012 E368     		ldr	r3, [r4, #12]
 512 0014 2169     		ldr	r1, [r4, #16]
 513 0016 A268     		ldr	r2, [r4, #8]
 514 0018 C81A     		subs	r0, r1, r3
 515 001a 831A     		subs	r3, r0, r2
 516              		.loc 1 142 0
 517 001c 032B     		cmp	r3, #3
 518 001e 01D9     		bls	.L49
 519              		.loc 1 148 0
 520 0020 0020     		movs	r0, #0
 521              		.loc 1 149 0
 522 0022 38BD     		pop	{r3, r4, r5, pc}
 523              	.L49:
 524              		.loc 1 144 0
 525 0024 FFF7FEFF 		bl	writeEom
 526              	.LVL36:
 527              		.loc 1 145 0
 528 0028 0120     		movs	r0, #1
 529 002a 38BD     		pop	{r3, r4, r5, pc}
 530              	.L48:
 531              		.loc 1 138 0
 532 002c 2046     		mov	r0, r4
 533 002e 2946     		mov	r1, r5
 534 0030 FFF7FEFF 		bl	chIQPutI
 535 0034 EDE7     		b	.L45
 536              	.L51:
 537 0036 00BF     		.align	2
 538              	.L50:
 539 0038 00000000 		.word	.LANCHOR0
 540              		.cfi_endproc
 541              	.LFE68:
 542              		.size	writeResult, .-writeResult
 543 003c AFF30080 		.section	.rodata.funcs,"a",%progbits
 544              		.align	2
 545              		.set	.LANCHOR6,. + 0
 546              		.type	funcs, %object
 547              		.size	funcs, 8
 548              	funcs:
 549 0000 00000000 		.word	set_leds
 550 0004 00000000 		.word	set_dac
 551              		.section	.bss.queue,"aw",%nobits
 552              		.align	2
 553              		.set	.LANCHOR0,. + 0
 554              		.type	queue, %object
 555              		.size	queue, 32
 556              	queue:
 557 0000 00000000 		.space	32
 557      00000000 
 557      00000000 
 557      00000000 
 557      00000000 
ARM GAS  /tmp/cc84nPaL.s 			page 11


 558              		.section	.bss.buffer,"aw",%nobits
 559              		.align	2
 560              		.set	.LANCHOR4,. + 0
 561              		.type	buffer, %object
 562              		.size	buffer, 32
 563              	buffer:
 564 0000 00000000 		.space	32
 564      00000000 
 564      00000000 
 564      00000000 
 564      00000000 
 565              		.section	.bss.queueBuffer,"aw",%nobits
 566              		.align	2
 567              		.set	.LANCHOR1,. + 0
 568              		.type	queueBuffer, %object
 569              		.size	queueBuffer, 32
 570              	queueBuffer:
 571 0000 00000000 		.space	32
 571      00000000 
 571      00000000 
 571      00000000 
 571      00000000 
 572              		.section	.rodata.str1.4,"aMS",%progbits,1
 573              		.align	2
 574              	.LC0:
 575 0000 6F00     		.ascii	"o\000"
 576 0002 0000     		.section	.bss.waOutput,"aw",%nobits
 577              		.align	3
 578              		.set	.LANCHOR2,. + 0
 579              		.type	waOutput, %object
 580              		.size	waOutput, 432
 581              	waOutput:
 582 0000 00000000 		.space	432
 582      00000000 
 582      00000000 
 582      00000000 
 582      00000000 
 583              		.section	.bss.args,"aw",%nobits
 584              		.align	2
 585              		.set	.LANCHOR5,. + 0
 586              		.type	args, %object
 587              		.size	args, 32
 588              	args:
 589 0000 00000000 		.space	32
 589      00000000 
 589      00000000 
 589      00000000 
 589      00000000 
 590              		.section	.bss.buffer_raw,"aw",%nobits
 591              		.align	2
 592              		.set	.LANCHOR3,. + 0
 593              		.type	buffer_raw, %object
 594              		.size	buffer_raw, 32
 595              	buffer_raw:
 596 0000 00000000 		.space	32
 596      00000000 
 596      00000000 
ARM GAS  /tmp/cc84nPaL.s 			page 12


 596      00000000 
 596      00000000 
 597              		.text
 598              	.Letext0:
 599              		.section	.debug_loc,"",%progbits
 600              	.Ldebug_loc0:
 601              	.LLST0:
 602 0000 00000000 		.4byte	.LFB67
 603 0004 02000000 		.4byte	.LCFI0
 604 0008 0200     		.2byte	0x2
 605 000a 7D       		.byte	0x7d
 606 000b 00       		.sleb128 0
 607 000c 02000000 		.4byte	.LCFI0
 608 0010 0C000000 		.4byte	.LCFI1
 609 0014 0200     		.2byte	0x2
 610 0016 7D       		.byte	0x7d
 611 0017 08       		.sleb128 8
 612 0018 0C000000 		.4byte	.LCFI1
 613 001c 26000000 		.4byte	.LFE67
 614 0020 0200     		.2byte	0x2
 615 0022 7D       		.byte	0x7d
 616 0023 10       		.sleb128 16
 617 0024 00000000 		.4byte	0x0
 618 0028 00000000 		.4byte	0x0
 619              	.LLST1:
 620 002c 00000000 		.4byte	.LVL0
 621 0030 0E000000 		.4byte	.LVL1
 622 0034 0100     		.2byte	0x1
 623 0036 50       		.byte	0x50
 624 0037 00000000 		.4byte	0x0
 625 003b 00000000 		.4byte	0x0
 626              	.LLST2:
 627 003f 00000000 		.4byte	.LVL2
 628 0043 02000000 		.4byte	.LVL3
 629 0047 0100     		.2byte	0x1
 630 0049 50       		.byte	0x50
 631 004a 00000000 		.4byte	0x0
 632 004e 00000000 		.4byte	0x0
 633              	.LLST3:
 634 0052 00000000 		.4byte	.LFB70
 635 0056 02000000 		.4byte	.LCFI2
 636 005a 0200     		.2byte	0x2
 637 005c 7D       		.byte	0x7d
 638 005d 00       		.sleb128 0
 639 005e 02000000 		.4byte	.LCFI2
 640 0062 0A000000 		.4byte	.LCFI3
 641 0066 0200     		.2byte	0x2
 642 0068 7D       		.byte	0x7d
 643 0069 04       		.sleb128 4
 644 006a 0A000000 		.4byte	.LCFI3
 645 006e 40000000 		.4byte	.LFE70
 646 0072 0200     		.2byte	0x2
 647 0074 7D       		.byte	0x7d
 648 0075 10       		.sleb128 16
 649 0076 00000000 		.4byte	0x0
 650 007a 00000000 		.4byte	0x0
 651              	.LLST4:
ARM GAS  /tmp/cc84nPaL.s 			page 13


 652 007e 00000000 		.4byte	.LVL4
 653 0082 04000000 		.4byte	.LVL5
 654 0086 0100     		.2byte	0x1
 655 0088 50       		.byte	0x50
 656 0089 00000000 		.4byte	0x0
 657 008d 00000000 		.4byte	0x0
 658              	.LLST5:
 659 0091 1C000000 		.4byte	.LVL7
 660 0095 2A000000 		.4byte	.LVL8
 661 0099 0100     		.2byte	0x1
 662 009b 50       		.byte	0x50
 663 009c 00000000 		.4byte	0x0
 664 00a0 00000000 		.4byte	0x0
 665              	.LLST6:
 666 00a4 00000000 		.4byte	.LFB62
 667 00a8 02000000 		.4byte	.LCFI4
 668 00ac 0200     		.2byte	0x2
 669 00ae 7D       		.byte	0x7d
 670 00af 00       		.sleb128 0
 671 00b0 02000000 		.4byte	.LCFI4
 672 00b4 04000000 		.4byte	.LCFI5
 673 00b8 0200     		.2byte	0x2
 674 00ba 7D       		.byte	0x7d
 675 00bb 08       		.sleb128 8
 676 00bc 04000000 		.4byte	.LCFI5
 677 00c0 48000000 		.4byte	.LFE62
 678 00c4 0200     		.2byte	0x2
 679 00c6 7D       		.byte	0x7d
 680 00c7 10       		.sleb128 16
 681 00c8 00000000 		.4byte	0x0
 682 00cc 00000000 		.4byte	0x0
 683              	.LLST7:
 684 00d0 00000000 		.4byte	.LFB63
 685 00d4 04000000 		.4byte	.LCFI6
 686 00d8 0200     		.2byte	0x2
 687 00da 7D       		.byte	0x7d
 688 00db 00       		.sleb128 0
 689 00dc 04000000 		.4byte	.LCFI6
 690 00e0 10000000 		.4byte	.LCFI7
 691 00e4 0200     		.2byte	0x2
 692 00e6 7D       		.byte	0x7d
 693 00e7 24       		.sleb128 36
 694 00e8 10000000 		.4byte	.LCFI7
 695 00ec EC000000 		.4byte	.LFE63
 696 00f0 0200     		.2byte	0x2
 697 00f2 7D       		.byte	0x7d
 698 00f3 30       		.sleb128 48
 699 00f4 00000000 		.4byte	0x0
 700 00f8 00000000 		.4byte	0x0
 701              	.LLST8:
 702 00fc 20000000 		.4byte	.LVL9
 703 0100 2E000000 		.4byte	.LVL10
 704 0104 0100     		.2byte	0x1
 705 0106 50       		.byte	0x50
 706 0107 66000000 		.4byte	.LVL20
 707 010b 6C000000 		.4byte	.LVL22
 708 010f 0100     		.2byte	0x1
ARM GAS  /tmp/cc84nPaL.s 			page 14


 709 0111 50       		.byte	0x50
 710 0112 00000000 		.4byte	0x0
 711 0116 00000000 		.4byte	0x0
 712              	.LLST9:
 713 011a 2E000000 		.4byte	.LVL10
 714 011e 3B000000 		.4byte	.LVL11-1
 715 0122 0100     		.2byte	0x1
 716 0124 53       		.byte	0x53
 717 0125 3C000000 		.4byte	.LVL11
 718 0129 40000000 		.4byte	.LVL12
 719 012d 0200     		.2byte	0x2
 720 012f 91       		.byte	0x91
 721 0130 57       		.sleb128 -41
 722 0131 4A000000 		.4byte	.LVL15
 723 0135 4C000000 		.4byte	.LVL16
 724 0139 0100     		.2byte	0x1
 725 013b 53       		.byte	0x53
 726 013c 56000000 		.4byte	.LVL18
 727 0140 5E000000 		.4byte	.LVL19
 728 0144 0100     		.2byte	0x1
 729 0146 53       		.byte	0x53
 730 0147 00000000 		.4byte	0x0
 731 014b 00000000 		.4byte	0x0
 732              	.LLST10:
 733 014f 3C000000 		.4byte	.LVL11
 734 0153 54000000 		.4byte	.LVL17
 735 0157 0100     		.2byte	0x1
 736 0159 50       		.byte	0x50
 737 015a 72000000 		.4byte	.LVL23
 738 015e 76000000 		.4byte	.LVL24
 739 0162 0100     		.2byte	0x1
 740 0164 50       		.byte	0x50
 741 0165 92000000 		.4byte	.LVL29
 742 0169 9E000000 		.4byte	.LVL31
 743 016d 0100     		.2byte	0x1
 744 016f 50       		.byte	0x50
 745 0170 00000000 		.4byte	0x0
 746 0174 00000000 		.4byte	0x0
 747              	.LLST11:
 748 0178 42000000 		.4byte	.LVL13
 749 017c 48000000 		.4byte	.LVL14
 750 0180 0100     		.2byte	0x1
 751 0182 57       		.byte	0x57
 752 0183 48000000 		.4byte	.LVL14
 753 0187 54000000 		.4byte	.LVL17
 754 018b 0100     		.2byte	0x1
 755 018d 57       		.byte	0x57
 756 018e 56000000 		.4byte	.LVL18
 757 0192 6A000000 		.4byte	.LVL21
 758 0196 0100     		.2byte	0x1
 759 0198 57       		.byte	0x57
 760 0199 72000000 		.4byte	.LVL23
 761 019d 8A000000 		.4byte	.LVL27
 762 01a1 0100     		.2byte	0x1
 763 01a3 57       		.byte	0x57
 764 01a4 92000000 		.4byte	.LVL29
 765 01a8 9A000000 		.4byte	.LVL30
ARM GAS  /tmp/cc84nPaL.s 			page 15


 766 01ac 0100     		.2byte	0x1
 767 01ae 57       		.byte	0x57
 768 01af 00000000 		.4byte	0x0
 769 01b3 00000000 		.4byte	0x0
 770              	.LLST12:
 771 01b7 4A000000 		.4byte	.LVL15
 772 01bb 54000000 		.4byte	.LVL17
 773 01bf 0100     		.2byte	0x1
 774 01c1 57       		.byte	0x57
 775 01c2 72000000 		.4byte	.LVL23
 776 01c6 8A000000 		.4byte	.LVL27
 777 01ca 0100     		.2byte	0x1
 778 01cc 57       		.byte	0x57
 779 01cd 92000000 		.4byte	.LVL29
 780 01d1 9A000000 		.4byte	.LVL30
 781 01d5 0100     		.2byte	0x1
 782 01d7 57       		.byte	0x57
 783 01d8 00000000 		.4byte	0x0
 784 01dc 00000000 		.4byte	0x0
 785              	.LLST13:
 786 01e0 4A000000 		.4byte	.LVL15
 787 01e4 56000000 		.4byte	.LVL18
 788 01e8 0600     		.2byte	0x6
 789 01ea 03       		.byte	0x3
 790 01eb 00000000 		.4byte	buffer
 791 01ef 9F       		.byte	0x9f
 792 01f0 72000000 		.4byte	.LVL23
 793 01f4 EC000000 		.4byte	.LFE63
 794 01f8 0600     		.2byte	0x6
 795 01fa 03       		.byte	0x3
 796 01fb 00000000 		.4byte	buffer
 797 01ff 9F       		.byte	0x9f
 798 0200 00000000 		.4byte	0x0
 799 0204 00000000 		.4byte	0x0
 800              	.LLST14:
 801 0208 92000000 		.4byte	.LVL29
 802 020c A6000000 		.4byte	.LVL32
 803 0210 0200     		.2byte	0x2
 804 0212 30       		.byte	0x30
 805 0213 9F       		.byte	0x9f
 806 0214 00000000 		.4byte	0x0
 807 0218 00000000 		.4byte	0x0
 808              	.LLST15:
 809 021c 4A000000 		.4byte	.LVL15
 810 0220 56000000 		.4byte	.LVL18
 811 0224 0500     		.2byte	0x5
 812 0226 03       		.byte	0x3
 813 0227 00000000 		.4byte	buffer
 814 022b 72000000 		.4byte	.LVL23
 815 022f 8D000000 		.4byte	.LVL28-1
 816 0233 0500     		.2byte	0x5
 817 0235 03       		.byte	0x3
 818 0236 00000000 		.4byte	buffer
 819 023a 92000000 		.4byte	.LVL29
 820 023e EC000000 		.4byte	.LFE63
 821 0242 0500     		.2byte	0x5
 822 0244 03       		.byte	0x3
ARM GAS  /tmp/cc84nPaL.s 			page 16


 823 0245 00000000 		.4byte	buffer
 824 0249 00000000 		.4byte	0x0
 825 024d 00000000 		.4byte	0x0
 826              	.LLST16:
 827 0251 4A000000 		.4byte	.LVL15
 828 0255 56000000 		.4byte	.LVL18
 829 0259 0600     		.2byte	0x6
 830 025b 03       		.byte	0x3
 831 025c 01000000 		.4byte	buffer+1
 832 0260 9F       		.byte	0x9f
 833 0261 72000000 		.4byte	.LVL23
 834 0265 EC000000 		.4byte	.LFE63
 835 0269 0600     		.2byte	0x6
 836 026b 03       		.byte	0x3
 837 026c 01000000 		.4byte	buffer+1
 838 0270 9F       		.byte	0x9f
 839 0271 00000000 		.4byte	0x0
 840 0275 00000000 		.4byte	0x0
 841              	.LLST17:
 842 0279 7C000000 		.4byte	.LVL25
 843 027d 86000000 		.4byte	.LVL26
 844 0281 0100     		.2byte	0x1
 845 0283 5C       		.byte	0x5c
 846 0284 00000000 		.4byte	0x0
 847 0288 00000000 		.4byte	0x0
 848              	.LLST18:
 849 028c 7C000000 		.4byte	.LVL25
 850 0290 92000000 		.4byte	.LVL29
 851 0294 0200     		.2byte	0x2
 852 0296 32       		.byte	0x32
 853 0297 9F       		.byte	0x9f
 854 0298 00000000 		.4byte	0x0
 855 029c 00000000 		.4byte	0x0
 856              	.LLST19:
 857 02a0 00000000 		.4byte	.LFB69
 858 02a4 02000000 		.4byte	.LCFI8
 859 02a8 0200     		.2byte	0x2
 860 02aa 7D       		.byte	0x7d
 861 02ab 00       		.sleb128 0
 862 02ac 02000000 		.4byte	.LCFI8
 863 02b0 1C000000 		.4byte	.LFE69
 864 02b4 0200     		.2byte	0x2
 865 02b6 7D       		.byte	0x7d
 866 02b7 08       		.sleb128 8
 867 02b8 00000000 		.4byte	0x0
 868 02bc 00000000 		.4byte	0x0
 869              	.LLST20:
 870 02c0 00000000 		.4byte	.LFB68
 871 02c4 02000000 		.4byte	.LCFI9
 872 02c8 0200     		.2byte	0x2
 873 02ca 7D       		.byte	0x7d
 874 02cb 00       		.sleb128 0
 875 02cc 02000000 		.4byte	.LCFI9
 876 02d0 3C000000 		.4byte	.LFE68
 877 02d4 0200     		.2byte	0x2
 878 02d6 7D       		.byte	0x7d
 879 02d7 10       		.sleb128 16
ARM GAS  /tmp/cc84nPaL.s 			page 17


 880 02d8 00000000 		.4byte	0x0
 881 02dc 00000000 		.4byte	0x0
 882              	.LLST21:
 883 02e0 00000000 		.4byte	.LVL33
 884 02e4 0A000000 		.4byte	.LVL34
 885 02e8 0100     		.2byte	0x1
 886 02ea 50       		.byte	0x50
 887 02eb 00000000 		.4byte	0x0
 888 02ef 00000000 		.4byte	0x0
 889              	.LLST22:
 890 02f3 12000000 		.4byte	.LVL35
 891 02f7 27000000 		.4byte	.LVL36-1
 892 02fb 1500     		.2byte	0x15
 893 02fd 03       		.byte	0x3
 894 02fe 10000000 		.4byte	queue+16
 895 0302 06       		.byte	0x6
 896 0303 03       		.byte	0x3
 897 0304 0C000000 		.4byte	queue+12
 898 0308 06       		.byte	0x6
 899 0309 1C       		.byte	0x1c
 900 030a 03       		.byte	0x3
 901 030b 08000000 		.4byte	queue+8
 902 030f 06       		.byte	0x6
 903 0310 1C       		.byte	0x1c
 904 0311 9F       		.byte	0x9f
 905 0312 00000000 		.4byte	0x0
 906 0316 00000000 		.4byte	0x0
 907              		.file 2 "/home/z80/programs/code-sourcery/2011.03-42/bin/../lib/gcc/arm-none-eabi/4.5.2/include/st
 908              		.file 3 "/home/z80/programs/code-sourcery/2011.03-42/bin/../lib/gcc/arm-none-eabi/4.5.2/../../../.
 909              		.file 4 "../chibios_2.4.x/os/ports/GCC/ARMCMx/chtypes.h"
 910              		.file 5 "../chibios_2.4.x/os/kernel/include/chlists.h"
 911              		.file 6 "../chibios_2.4.x/os/kernel/include/chthreads.h"
 912              		.file 7 "../chibios_2.4.x/os/ports/GCC/ARMCMx/chcore_v7m.h"
 913              		.file 8 "../chibios_2.4.x/os/kernel/include/chschd.h"
 914              		.file 9 "../chibios_2.4.x/os/kernel/include/chmtx.h"
 915              		.file 10 "../chibios_2.4.x/os/kernel/include/chevents.h"
 916              		.file 11 "../chibios_2.4.x/os/kernel/include/chqueues.h"
 917              		.file 12 "../chibios_2.4.x/os/kernel/include/chioch.h"
 918              		.file 13 "./src/cpu_io.h"
 919              		.file 14 "../chibios_2.4.x/os/hal/platforms/STM32F1xx/stm32f10x.h"
 920              		.file 15 "../chibios_2.4.x/os/hal/include/serial.h"
 921              		.file 16 "./src/dac.h"
 922              		.file 17 "../chibios_2.4.x/os/ports/common/ARMCMx/CMSIS/include/core_cm3.h"
 923              		.file 18 "../chibios_2.4.x/os/hal/platforms/STM32/serial_lld.h"
 924              		.section	.debug_info
 925 0000 B90C0000 		.4byte	0xcb9
 926 0004 0200     		.2byte	0x2
 927 0006 00000000 		.4byte	.Ldebug_abbrev0
 928 000a 04       		.byte	0x4
 929 000b 01       		.uleb128 0x1
 930 000c 31050000 		.4byte	.LASF141
 931 0010 01       		.byte	0x1
 932 0011 3B020000 		.4byte	.LASF142
 933 0015 B7040000 		.4byte	.LASF143
 934 0019 00000000 		.4byte	0x0
 935 001d 00000000 		.4byte	0x0
 936 0021 80000000 		.4byte	.Ldebug_ranges0+0x80
ARM GAS  /tmp/cc84nPaL.s 			page 18


 937 0025 00000000 		.4byte	.Ldebug_line0
 938 0029 02       		.uleb128 0x2
 939 002a 04       		.byte	0x4
 940 002b 05       		.byte	0x5
 941 002c 696E7400 		.ascii	"int\000"
 942 0030 03       		.uleb128 0x3
 943 0031 1A000000 		.4byte	.LASF2
 944 0035 02       		.byte	0x2
 945 0036 D3       		.byte	0xd3
 946 0037 3B000000 		.4byte	0x3b
 947 003b 04       		.uleb128 0x4
 948 003c 04       		.byte	0x4
 949 003d 07       		.byte	0x7
 950 003e 62010000 		.4byte	.LASF0
 951 0042 04       		.uleb128 0x4
 952 0043 01       		.byte	0x1
 953 0044 06       		.byte	0x6
 954 0045 C6000000 		.4byte	.LASF1
 955 0049 03       		.uleb128 0x3
 956 004a F8040000 		.4byte	.LASF3
 957 004e 03       		.byte	0x3
 958 004f 2A       		.byte	0x2a
 959 0050 54000000 		.4byte	0x54
 960 0054 04       		.uleb128 0x4
 961 0055 01       		.byte	0x1
 962 0056 08       		.byte	0x8
 963 0057 73030000 		.4byte	.LASF4
 964 005b 04       		.uleb128 0x4
 965 005c 02       		.byte	0x2
 966 005d 05       		.byte	0x5
 967 005e 97030000 		.4byte	.LASF5
 968 0062 03       		.uleb128 0x3
 969 0063 6F010000 		.4byte	.LASF6
 970 0067 03       		.byte	0x3
 971 0068 36       		.byte	0x36
 972 0069 6D000000 		.4byte	0x6d
 973 006d 04       		.uleb128 0x4
 974 006e 02       		.byte	0x2
 975 006f 07       		.byte	0x7
 976 0070 C0010000 		.4byte	.LASF7
 977 0074 03       		.uleb128 0x3
 978 0075 6B030000 		.4byte	.LASF8
 979 0079 03       		.byte	0x3
 980 007a 4F       		.byte	0x4f
 981 007b 7F000000 		.4byte	0x7f
 982 007f 04       		.uleb128 0x4
 983 0080 04       		.byte	0x4
 984 0081 05       		.byte	0x5
 985 0082 F9000000 		.4byte	.LASF9
 986 0086 03       		.uleb128 0x3
 987 0087 F4030000 		.4byte	.LASF10
 988 008b 03       		.byte	0x3
 989 008c 50       		.byte	0x50
 990 008d 91000000 		.4byte	0x91
 991 0091 04       		.uleb128 0x4
 992 0092 04       		.byte	0x4
 993 0093 07       		.byte	0x7
ARM GAS  /tmp/cc84nPaL.s 			page 19


 994 0094 1C040000 		.4byte	.LASF11
 995 0098 04       		.uleb128 0x4
 996 0099 08       		.byte	0x8
 997 009a 05       		.byte	0x5
 998 009b B8000000 		.4byte	.LASF12
 999 009f 03       		.uleb128 0x3
 1000 00a0 28000000 		.4byte	.LASF13
 1001 00a4 03       		.byte	0x3
 1002 00a5 78       		.byte	0x78
 1003 00a6 AA000000 		.4byte	0xaa
 1004 00aa 04       		.uleb128 0x4
 1005 00ab 08       		.byte	0x8
 1006 00ac 07       		.byte	0x7
 1007 00ad 5C000000 		.4byte	.LASF14
 1008 00b1 03       		.uleb128 0x3
 1009 00b2 4E000000 		.4byte	.LASF15
 1010 00b6 03       		.byte	0x3
 1011 00b7 A6       		.byte	0xa6
 1012 00b8 3B000000 		.4byte	0x3b
 1013 00bc 03       		.uleb128 0x3
 1014 00bd DF000000 		.4byte	.LASF16
 1015 00c1 04       		.byte	0x4
 1016 00c2 2E       		.byte	0x2e
 1017 00c3 74000000 		.4byte	0x74
 1018 00c7 03       		.uleb128 0x3
 1019 00c8 06020000 		.4byte	.LASF17
 1020 00cc 04       		.byte	0x4
 1021 00cd 2F       		.byte	0x2f
 1022 00ce 49000000 		.4byte	0x49
 1023 00d2 03       		.uleb128 0x3
 1024 00d3 02010000 		.4byte	.LASF18
 1025 00d7 04       		.byte	0x4
 1026 00d8 30       		.byte	0x30
 1027 00d9 49000000 		.4byte	0x49
 1028 00dd 03       		.uleb128 0x3
 1029 00de 00000000 		.4byte	.LASF19
 1030 00e2 04       		.byte	0x4
 1031 00e3 32       		.byte	0x32
 1032 00e4 86000000 		.4byte	0x86
 1033 00e8 03       		.uleb128 0x3
 1034 00e9 4A030000 		.4byte	.LASF20
 1035 00ed 04       		.byte	0x4
 1036 00ee 33       		.byte	0x33
 1037 00ef 74000000 		.4byte	0x74
 1038 00f3 03       		.uleb128 0x3
 1039 00f4 1A020000 		.4byte	.LASF21
 1040 00f8 04       		.byte	0x4
 1041 00f9 35       		.byte	0x35
 1042 00fa 86000000 		.4byte	0x86
 1043 00fe 03       		.uleb128 0x3
 1044 00ff 51040000 		.4byte	.LASF22
 1045 0103 04       		.byte	0x4
 1046 0104 36       		.byte	0x36
 1047 0105 86000000 		.4byte	0x86
 1048 0109 03       		.uleb128 0x3
 1049 010a 56010000 		.4byte	.LASF23
 1050 010e 04       		.byte	0x4
ARM GAS  /tmp/cc84nPaL.s 			page 20


 1051 010f 37       		.byte	0x37
 1052 0110 74000000 		.4byte	0x74
 1053 0114 03       		.uleb128 0x3
 1054 0115 CE030000 		.4byte	.LASF24
 1055 0119 05       		.byte	0x5
 1056 011a 2A       		.byte	0x2a
 1057 011b 1F010000 		.4byte	0x11f
 1058 011f 05       		.uleb128 0x5
 1059 0120 CE030000 		.4byte	.LASF24
 1060 0124 48       		.byte	0x48
 1061 0125 06       		.byte	0x6
 1062 0126 5E       		.byte	0x5e
 1063 0127 28020000 		.4byte	0x228
 1064 012b 06       		.uleb128 0x6
 1065 012c B7030000 		.4byte	.LASF25
 1066 0130 06       		.byte	0x6
 1067 0131 5F       		.byte	0x5f
 1068 0132 4D020000 		.4byte	0x24d
 1069 0136 02       		.byte	0x2
 1070 0137 23       		.byte	0x23
 1071 0138 00       		.uleb128 0x0
 1072 0139 06       		.uleb128 0x6
 1073 013a 39030000 		.4byte	.LASF26
 1074 013e 06       		.byte	0x6
 1075 013f 61       		.byte	0x61
 1076 0140 4D020000 		.4byte	0x24d
 1077 0144 02       		.byte	0x2
 1078 0145 23       		.byte	0x23
 1079 0146 04       		.uleb128 0x4
 1080 0147 06       		.uleb128 0x6
 1081 0148 A1000000 		.4byte	.LASF27
 1082 014c 06       		.byte	0x6
 1083 014d 63       		.byte	0x63
 1084 014e DD000000 		.4byte	0xdd
 1085 0152 02       		.byte	0x2
 1086 0153 23       		.byte	0x23
 1087 0154 08       		.uleb128 0x8
 1088 0155 06       		.uleb128 0x6
 1089 0156 72050000 		.4byte	.LASF28
 1090 015a 06       		.byte	0x6
 1091 015b 64       		.byte	0x64
 1092 015c 25030000 		.4byte	0x325
 1093 0160 02       		.byte	0x2
 1094 0161 23       		.byte	0x23
 1095 0162 0C       		.uleb128 0xc
 1096 0163 06       		.uleb128 0x6
 1097 0164 1C010000 		.4byte	.LASF29
 1098 0168 06       		.byte	0x6
 1099 0169 66       		.byte	0x66
 1100 016a 4D020000 		.4byte	0x24d
 1101 016e 02       		.byte	0x2
 1102 016f 23       		.byte	0x23
 1103 0170 10       		.uleb128 0x10
 1104 0171 06       		.uleb128 0x6
 1105 0172 8E020000 		.4byte	.LASF30
 1106 0176 06       		.byte	0x6
 1107 0177 67       		.byte	0x67
ARM GAS  /tmp/cc84nPaL.s 			page 21


 1108 0178 4D020000 		.4byte	0x24d
 1109 017c 02       		.byte	0x2
 1110 017d 23       		.byte	0x23
 1111 017e 14       		.uleb128 0x14
 1112 017f 06       		.uleb128 0x6
 1113 0180 9E040000 		.4byte	.LASF31
 1114 0184 06       		.byte	0x6
 1115 0185 6E       		.byte	0x6e
 1116 0186 AE040000 		.4byte	0x4ae
 1117 018a 02       		.byte	0x2
 1118 018b 23       		.byte	0x23
 1119 018c 18       		.uleb128 0x18
 1120 018d 06       		.uleb128 0x6
 1121 018e B8020000 		.4byte	.LASF32
 1122 0192 06       		.byte	0x6
 1123 0193 74       		.byte	0x74
 1124 0194 C0040000 		.4byte	0x4c0
 1125 0198 02       		.byte	0x2
 1126 0199 23       		.byte	0x23
 1127 019a 1C       		.uleb128 0x1c
 1128 019b 06       		.uleb128 0x6
 1129 019c A1030000 		.4byte	.LASF33
 1130 01a0 06       		.byte	0x6
 1131 01a1 79       		.byte	0x79
 1132 01a2 D2000000 		.4byte	0xd2
 1133 01a6 02       		.byte	0x2
 1134 01a7 23       		.byte	0x23
 1135 01a8 20       		.uleb128 0x20
 1136 01a9 06       		.uleb128 0x6
 1137 01aa BE030000 		.4byte	.LASF34
 1138 01ae 06       		.byte	0x6
 1139 01af 7D       		.byte	0x7d
 1140 01b0 C7000000 		.4byte	0xc7
 1141 01b4 02       		.byte	0x2
 1142 01b5 23       		.byte	0x23
 1143 01b6 21       		.uleb128 0x21
 1144 01b7 06       		.uleb128 0x6
 1145 01b8 88010000 		.4byte	.LASF35
 1146 01bc 06       		.byte	0x6
 1147 01bd 89       		.byte	0x89
 1148 01be 48030000 		.4byte	0x348
 1149 01c2 02       		.byte	0x2
 1150 01c3 23       		.byte	0x23
 1151 01c4 24       		.uleb128 0x24
 1152 01c5 07       		.uleb128 0x7
 1153 01c6 705F7500 		.ascii	"p_u\000"
 1154 01ca 06       		.byte	0x6
 1155 01cb AE       		.byte	0xae
 1156 01cc 79040000 		.4byte	0x479
 1157 01d0 02       		.byte	0x2
 1158 01d1 23       		.byte	0x23
 1159 01d2 28       		.uleb128 0x28
 1160 01d3 06       		.uleb128 0x6
 1161 01d4 78050000 		.4byte	.LASF36
 1162 01d8 06       		.byte	0x6
 1163 01d9 B3       		.byte	0xb3
 1164 01da 75020000 		.4byte	0x275
ARM GAS  /tmp/cc84nPaL.s 			page 22


 1165 01de 02       		.byte	0x2
 1166 01df 23       		.byte	0x23
 1167 01e0 2C       		.uleb128 0x2c
 1168 01e1 06       		.uleb128 0x6
 1169 01e2 96010000 		.4byte	.LASF37
 1170 01e6 06       		.byte	0x6
 1171 01e7 B9       		.byte	0xb9
 1172 01e8 53020000 		.4byte	0x253
 1173 01ec 02       		.byte	0x2
 1174 01ed 23       		.byte	0x23
 1175 01ee 30       		.uleb128 0x30
 1176 01ef 06       		.uleb128 0x6
 1177 01f0 38040000 		.4byte	.LASF38
 1178 01f4 06       		.byte	0x6
 1179 01f5 BD       		.byte	0xbd
 1180 01f6 E8000000 		.4byte	0xe8
 1181 01fa 02       		.byte	0x2
 1182 01fb 23       		.byte	0x23
 1183 01fc 38       		.uleb128 0x38
 1184 01fd 06       		.uleb128 0x6
 1185 01fe D5030000 		.4byte	.LASF39
 1186 0202 06       		.byte	0x6
 1187 0203 C3       		.byte	0xc3
 1188 0204 F3000000 		.4byte	0xf3
 1189 0208 02       		.byte	0x2
 1190 0209 23       		.byte	0x23
 1191 020a 3C       		.uleb128 0x3c
 1192 020b 06       		.uleb128 0x6
 1193 020c 8D030000 		.4byte	.LASF40
 1194 0210 06       		.byte	0x6
 1195 0211 CA       		.byte	0xca
 1196 0212 C6040000 		.4byte	0x4c6
 1197 0216 02       		.byte	0x2
 1198 0217 23       		.byte	0x23
 1199 0218 40       		.uleb128 0x40
 1200 0219 06       		.uleb128 0x6
 1201 021a 5B040000 		.4byte	.LASF41
 1202 021e 06       		.byte	0x6
 1203 021f CE       		.byte	0xce
 1204 0220 DD000000 		.4byte	0xdd
 1205 0224 02       		.byte	0x2
 1206 0225 23       		.byte	0x23
 1207 0226 44       		.uleb128 0x44
 1208 0227 00       		.byte	0x0
 1209 0228 08       		.uleb128 0x8
 1210 0229 08       		.byte	0x8
 1211 022a 05       		.byte	0x5
 1212 022b 61       		.byte	0x61
 1213 022c 4D020000 		.4byte	0x24d
 1214 0230 06       		.uleb128 0x6
 1215 0231 B7030000 		.4byte	.LASF25
 1216 0235 05       		.byte	0x5
 1217 0236 62       		.byte	0x62
 1218 0237 4D020000 		.4byte	0x24d
 1219 023b 02       		.byte	0x2
 1220 023c 23       		.byte	0x23
 1221 023d 00       		.uleb128 0x0
ARM GAS  /tmp/cc84nPaL.s 			page 23


 1222 023e 06       		.uleb128 0x6
 1223 023f 39030000 		.4byte	.LASF26
 1224 0243 05       		.byte	0x5
 1225 0244 64       		.byte	0x64
 1226 0245 4D020000 		.4byte	0x24d
 1227 0249 02       		.byte	0x2
 1228 024a 23       		.byte	0x23
 1229 024b 04       		.uleb128 0x4
 1230 024c 00       		.byte	0x0
 1231 024d 09       		.uleb128 0x9
 1232 024e 04       		.byte	0x4
 1233 024f 14010000 		.4byte	0x114
 1234 0253 03       		.uleb128 0x3
 1235 0254 AB020000 		.4byte	.LASF42
 1236 0258 05       		.byte	0x5
 1237 0259 66       		.byte	0x66
 1238 025a 28020000 		.4byte	0x228
 1239 025e 08       		.uleb128 0x8
 1240 025f 04       		.byte	0x4
 1241 0260 05       		.byte	0x5
 1242 0261 6B       		.byte	0x6b
 1243 0262 75020000 		.4byte	0x275
 1244 0266 06       		.uleb128 0x6
 1245 0267 B7030000 		.4byte	.LASF25
 1246 026b 05       		.byte	0x5
 1247 026c 6D       		.byte	0x6d
 1248 026d 4D020000 		.4byte	0x24d
 1249 0271 02       		.byte	0x2
 1250 0272 23       		.byte	0x23
 1251 0273 00       		.uleb128 0x0
 1252 0274 00       		.byte	0x0
 1253 0275 03       		.uleb128 0x3
 1254 0276 0E020000 		.4byte	.LASF43
 1255 027a 05       		.byte	0x5
 1256 027b 70       		.byte	0x70
 1257 027c 5E020000 		.4byte	0x25e
 1258 0280 03       		.uleb128 0x3
 1259 0281 3A010000 		.4byte	.LASF44
 1260 0285 07       		.byte	0x7
 1261 0286 D7       		.byte	0xd7
 1262 0287 8B020000 		.4byte	0x28b
 1263 028b 0A       		.uleb128 0xa
 1264 028c 04       		.byte	0x4
 1265 028d 03       		.uleb128 0x3
 1266 028e 57020000 		.4byte	.LASF45
 1267 0292 07       		.byte	0x7
 1268 0293 DD       		.byte	0xdd
 1269 0294 9F000000 		.4byte	0x9f
 1270 0298 05       		.uleb128 0x5
 1271 0299 88040000 		.4byte	.LASF46
 1272 029d 24       		.byte	0x24
 1273 029e 07       		.byte	0x7
 1274 029f FE       		.byte	0xfe
 1275 02a0 25030000 		.4byte	0x325
 1276 02a4 0B       		.uleb128 0xb
 1277 02a5 723400   		.ascii	"r4\000"
 1278 02a8 07       		.byte	0x7
ARM GAS  /tmp/cc84nPaL.s 			page 24


 1279 02a9 1101     		.2byte	0x111
 1280 02ab 80020000 		.4byte	0x280
 1281 02af 02       		.byte	0x2
 1282 02b0 23       		.byte	0x23
 1283 02b1 00       		.uleb128 0x0
 1284 02b2 0B       		.uleb128 0xb
 1285 02b3 723500   		.ascii	"r5\000"
 1286 02b6 07       		.byte	0x7
 1287 02b7 1201     		.2byte	0x112
 1288 02b9 80020000 		.4byte	0x280
 1289 02bd 02       		.byte	0x2
 1290 02be 23       		.byte	0x23
 1291 02bf 04       		.uleb128 0x4
 1292 02c0 0B       		.uleb128 0xb
 1293 02c1 723600   		.ascii	"r6\000"
 1294 02c4 07       		.byte	0x7
 1295 02c5 1301     		.2byte	0x113
 1296 02c7 80020000 		.4byte	0x280
 1297 02cb 02       		.byte	0x2
 1298 02cc 23       		.byte	0x23
 1299 02cd 08       		.uleb128 0x8
 1300 02ce 0B       		.uleb128 0xb
 1301 02cf 723700   		.ascii	"r7\000"
 1302 02d2 07       		.byte	0x7
 1303 02d3 1401     		.2byte	0x114
 1304 02d5 80020000 		.4byte	0x280
 1305 02d9 02       		.byte	0x2
 1306 02da 23       		.byte	0x23
 1307 02db 0C       		.uleb128 0xc
 1308 02dc 0B       		.uleb128 0xb
 1309 02dd 723800   		.ascii	"r8\000"
 1310 02e0 07       		.byte	0x7
 1311 02e1 1501     		.2byte	0x115
 1312 02e3 80020000 		.4byte	0x280
 1313 02e7 02       		.byte	0x2
 1314 02e8 23       		.byte	0x23
 1315 02e9 10       		.uleb128 0x10
 1316 02ea 0B       		.uleb128 0xb
 1317 02eb 723900   		.ascii	"r9\000"
 1318 02ee 07       		.byte	0x7
 1319 02ef 1601     		.2byte	0x116
 1320 02f1 80020000 		.4byte	0x280
 1321 02f5 02       		.byte	0x2
 1322 02f6 23       		.byte	0x23
 1323 02f7 14       		.uleb128 0x14
 1324 02f8 0B       		.uleb128 0xb
 1325 02f9 72313000 		.ascii	"r10\000"
 1326 02fd 07       		.byte	0x7
 1327 02fe 1701     		.2byte	0x117
 1328 0300 80020000 		.4byte	0x280
 1329 0304 02       		.byte	0x2
 1330 0305 23       		.byte	0x23
 1331 0306 18       		.uleb128 0x18
 1332 0307 0B       		.uleb128 0xb
 1333 0308 72313100 		.ascii	"r11\000"
 1334 030c 07       		.byte	0x7
 1335 030d 1801     		.2byte	0x118
ARM GAS  /tmp/cc84nPaL.s 			page 25


 1336 030f 80020000 		.4byte	0x280
 1337 0313 02       		.byte	0x2
 1338 0314 23       		.byte	0x23
 1339 0315 1C       		.uleb128 0x1c
 1340 0316 0B       		.uleb128 0xb
 1341 0317 6C7200   		.ascii	"lr\000"
 1342 031a 07       		.byte	0x7
 1343 031b 1901     		.2byte	0x119
 1344 031d 80020000 		.4byte	0x280
 1345 0321 02       		.byte	0x2
 1346 0322 23       		.byte	0x23
 1347 0323 20       		.uleb128 0x20
 1348 0324 00       		.byte	0x0
 1349 0325 0C       		.uleb128 0xc
 1350 0326 76040000 		.4byte	.LASF47
 1351 032a 04       		.byte	0x4
 1352 032b 07       		.byte	0x7
 1353 032c 2301     		.2byte	0x123
 1354 032e 42030000 		.4byte	0x342
 1355 0332 0B       		.uleb128 0xb
 1356 0333 72313300 		.ascii	"r13\000"
 1357 0337 07       		.byte	0x7
 1358 0338 2401     		.2byte	0x124
 1359 033a 42030000 		.4byte	0x342
 1360 033e 02       		.byte	0x2
 1361 033f 23       		.byte	0x23
 1362 0340 00       		.uleb128 0x0
 1363 0341 00       		.byte	0x0
 1364 0342 09       		.uleb128 0x9
 1365 0343 04       		.byte	0x4
 1366 0344 98020000 		.4byte	0x298
 1367 0348 0D       		.uleb128 0xd
 1368 0349 FE000000 		.4byte	0xfe
 1369 034d 08       		.uleb128 0x8
 1370 034e 20       		.byte	0x20
 1371 034f 08       		.byte	0x8
 1372 0350 5E       		.byte	0x5e
 1373 0351 B8030000 		.4byte	0x3b8
 1374 0355 06       		.uleb128 0x6
 1375 0356 FD030000 		.4byte	.LASF48
 1376 035a 08       		.byte	0x8
 1377 035b 5F       		.byte	0x5f
 1378 035c 53020000 		.4byte	0x253
 1379 0360 02       		.byte	0x2
 1380 0361 23       		.byte	0x23
 1381 0362 00       		.uleb128 0x0
 1382 0363 06       		.uleb128 0x6
 1383 0364 A9030000 		.4byte	.LASF49
 1384 0368 08       		.byte	0x8
 1385 0369 60       		.byte	0x60
 1386 036a DD000000 		.4byte	0xdd
 1387 036e 02       		.byte	0x2
 1388 036f 23       		.byte	0x23
 1389 0370 08       		.uleb128 0x8
 1390 0371 06       		.uleb128 0x6
 1391 0372 A5020000 		.4byte	.LASF50
 1392 0376 08       		.byte	0x8
ARM GAS  /tmp/cc84nPaL.s 			page 26


 1393 0377 62       		.byte	0x62
 1394 0378 25030000 		.4byte	0x325
 1395 037c 02       		.byte	0x2
 1396 037d 23       		.byte	0x23
 1397 037e 0C       		.uleb128 0xc
 1398 037f 06       		.uleb128 0x6
 1399 0380 32010000 		.4byte	.LASF51
 1400 0384 08       		.byte	0x8
 1401 0385 65       		.byte	0x65
 1402 0386 4D020000 		.4byte	0x24d
 1403 038a 02       		.byte	0x2
 1404 038b 23       		.byte	0x23
 1405 038c 10       		.uleb128 0x10
 1406 038d 06       		.uleb128 0x6
 1407 038e D8020000 		.4byte	.LASF52
 1408 0392 08       		.byte	0x8
 1409 0393 66       		.byte	0x66
 1410 0394 4D020000 		.4byte	0x24d
 1411 0398 02       		.byte	0x2
 1412 0399 23       		.byte	0x23
 1413 039a 14       		.uleb128 0x14
 1414 039b 06       		.uleb128 0x6
 1415 039c 60050000 		.4byte	.LASF53
 1416 03a0 08       		.byte	0x8
 1417 03a1 6A       		.byte	0x6a
 1418 03a2 09010000 		.4byte	0x109
 1419 03a6 02       		.byte	0x2
 1420 03a7 23       		.byte	0x23
 1421 03a8 18       		.uleb128 0x18
 1422 03a9 06       		.uleb128 0x6
 1423 03aa CE020000 		.4byte	.LASF54
 1424 03ae 08       		.byte	0x8
 1425 03af 6C       		.byte	0x6c
 1426 03b0 4D020000 		.4byte	0x24d
 1427 03b4 02       		.byte	0x2
 1428 03b5 23       		.byte	0x23
 1429 03b6 1C       		.uleb128 0x1c
 1430 03b7 00       		.byte	0x0
 1431 03b8 03       		.uleb128 0x3
 1432 03b9 AD040000 		.4byte	.LASF55
 1433 03bd 08       		.byte	0x8
 1434 03be 6E       		.byte	0x6e
 1435 03bf 4D030000 		.4byte	0x34d
 1436 03c3 05       		.uleb128 0x5
 1437 03c4 82020000 		.4byte	.LASF56
 1438 03c8 10       		.byte	0x10
 1439 03c9 09       		.byte	0x9
 1440 03ca 2C       		.byte	0x2c
 1441 03cb FA030000 		.4byte	0x3fa
 1442 03cf 06       		.uleb128 0x6
 1443 03d0 E6000000 		.4byte	.LASF57
 1444 03d4 09       		.byte	0x9
 1445 03d5 2D       		.byte	0x2d
 1446 03d6 53020000 		.4byte	0x253
 1447 03da 02       		.byte	0x2
 1448 03db 23       		.byte	0x23
 1449 03dc 00       		.uleb128 0x0
ARM GAS  /tmp/cc84nPaL.s 			page 27


 1450 03dd 06       		.uleb128 0x6
 1451 03de 6A050000 		.4byte	.LASF58
 1452 03e2 09       		.byte	0x9
 1453 03e3 2F       		.byte	0x2f
 1454 03e4 4D020000 		.4byte	0x24d
 1455 03e8 02       		.byte	0x2
 1456 03e9 23       		.byte	0x23
 1457 03ea 08       		.uleb128 0x8
 1458 03eb 06       		.uleb128 0x6
 1459 03ec 4A040000 		.4byte	.LASF59
 1460 03f0 09       		.byte	0x9
 1461 03f1 31       		.byte	0x31
 1462 03f2 FA030000 		.4byte	0x3fa
 1463 03f6 02       		.byte	0x2
 1464 03f7 23       		.byte	0x23
 1465 03f8 0C       		.uleb128 0xc
 1466 03f9 00       		.byte	0x0
 1467 03fa 09       		.uleb128 0x9
 1468 03fb 04       		.byte	0x4
 1469 03fc C3030000 		.4byte	0x3c3
 1470 0400 03       		.uleb128 0x3
 1471 0401 82020000 		.4byte	.LASF56
 1472 0405 09       		.byte	0x9
 1473 0406 33       		.byte	0x33
 1474 0407 C3030000 		.4byte	0x3c3
 1475 040b 03       		.uleb128 0x3
 1476 040c 1C050000 		.4byte	.LASF60
 1477 0410 0A       		.byte	0xa
 1478 0411 29       		.byte	0x29
 1479 0412 16040000 		.4byte	0x416
 1480 0416 05       		.uleb128 0x5
 1481 0417 1C050000 		.4byte	.LASF60
 1482 041b 0C       		.byte	0xc
 1483 041c 0A       		.byte	0xa
 1484 041d 2E       		.byte	0x2e
 1485 041e 4D040000 		.4byte	0x44d
 1486 0422 06       		.uleb128 0x6
 1487 0423 C6030000 		.4byte	.LASF61
 1488 0427 0A       		.byte	0xa
 1489 0428 2F       		.byte	0x2f
 1490 0429 4D040000 		.4byte	0x44d
 1491 042d 02       		.byte	0x2
 1492 042e 23       		.byte	0x23
 1493 042f 00       		.uleb128 0x0
 1494 0430 06       		.uleb128 0x6
 1495 0431 81030000 		.4byte	.LASF62
 1496 0435 0A       		.byte	0xa
 1497 0436 32       		.byte	0x32
 1498 0437 4D020000 		.4byte	0x24d
 1499 043b 02       		.byte	0x2
 1500 043c 23       		.byte	0x23
 1501 043d 04       		.uleb128 0x4
 1502 043e 06       		.uleb128 0x6
 1503 043f 70020000 		.4byte	.LASF63
 1504 0443 0A       		.byte	0xa
 1505 0444 34       		.byte	0x34
 1506 0445 F3000000 		.4byte	0xf3
ARM GAS  /tmp/cc84nPaL.s 			page 28


 1507 0449 02       		.byte	0x2
 1508 044a 23       		.byte	0x23
 1509 044b 08       		.uleb128 0x8
 1510 044c 00       		.byte	0x0
 1511 044d 09       		.uleb128 0x9
 1512 044e 04       		.byte	0x4
 1513 044f 0B040000 		.4byte	0x40b
 1514 0453 05       		.uleb128 0x5
 1515 0454 4A010000 		.4byte	.LASF64
 1516 0458 04       		.byte	0x4
 1517 0459 0A       		.byte	0xa
 1518 045a 3C       		.byte	0x3c
 1519 045b 6E040000 		.4byte	0x46e
 1520 045f 06       		.uleb128 0x6
 1521 0460 A5040000 		.4byte	.LASF65
 1522 0464 0A       		.byte	0xa
 1523 0465 3D       		.byte	0x3d
 1524 0466 4D040000 		.4byte	0x44d
 1525 046a 02       		.byte	0x2
 1526 046b 23       		.byte	0x23
 1527 046c 00       		.uleb128 0x0
 1528 046d 00       		.byte	0x0
 1529 046e 03       		.uleb128 0x3
 1530 046f 4A010000 		.4byte	.LASF64
 1531 0473 0A       		.byte	0xa
 1532 0474 40       		.byte	0x40
 1533 0475 53040000 		.4byte	0x453
 1534 0479 0E       		.uleb128 0xe
 1535 047a 04       		.byte	0x4
 1536 047b 06       		.byte	0x6
 1537 047c 90       		.byte	0x90
 1538 047d AE040000 		.4byte	0x4ae
 1539 0481 0F       		.uleb128 0xf
 1540 0482 21000000 		.4byte	.LASF66
 1541 0486 06       		.byte	0x6
 1542 0487 97       		.byte	0x97
 1543 0488 E8000000 		.4byte	0xe8
 1544 048c 0F       		.uleb128 0xf
 1545 048d 81000000 		.4byte	.LASF67
 1546 0491 06       		.byte	0x6
 1547 0492 9E       		.byte	0x9e
 1548 0493 E8000000 		.4byte	0xe8
 1549 0497 0F       		.uleb128 0xf
 1550 0498 2A050000 		.4byte	.LASF68
 1551 049c 06       		.byte	0x6
 1552 049d A5       		.byte	0xa5
 1553 049e 8B020000 		.4byte	0x28b
 1554 04a2 0F       		.uleb128 0xf
 1555 04a3 B0030000 		.4byte	.LASF69
 1556 04a7 06       		.byte	0x6
 1557 04a8 AC       		.byte	0xac
 1558 04a9 F3000000 		.4byte	0xf3
 1559 04ad 00       		.byte	0x0
 1560 04ae 09       		.uleb128 0x9
 1561 04af 04       		.byte	0x4
 1562 04b0 B4040000 		.4byte	0x4b4
 1563 04b4 10       		.uleb128 0x10
ARM GAS  /tmp/cc84nPaL.s 			page 29


 1564 04b5 B9040000 		.4byte	0x4b9
 1565 04b9 04       		.uleb128 0x4
 1566 04ba 01       		.byte	0x1
 1567 04bb 08       		.byte	0x8
 1568 04bc 33040000 		.4byte	.LASF70
 1569 04c0 09       		.uleb128 0x9
 1570 04c1 04       		.byte	0x4
 1571 04c2 8D020000 		.4byte	0x28d
 1572 04c6 09       		.uleb128 0x9
 1573 04c7 04       		.byte	0x4
 1574 04c8 00040000 		.4byte	0x400
 1575 04cc 03       		.uleb128 0x3
 1576 04cd 4A020000 		.4byte	.LASF71
 1577 04d1 0B       		.byte	0xb
 1578 04d2 37       		.byte	0x37
 1579 04d3 D7040000 		.4byte	0x4d7
 1580 04d7 05       		.uleb128 0x5
 1581 04d8 4A020000 		.4byte	.LASF71
 1582 04dc 20       		.byte	0x20
 1583 04dd 0B       		.byte	0xb
 1584 04de 45       		.byte	0x45
 1585 04df 46050000 		.4byte	0x546
 1586 04e3 06       		.uleb128 0x6
 1587 04e4 AE000000 		.4byte	.LASF72
 1588 04e8 0B       		.byte	0xb
 1589 04e9 46       		.byte	0x46
 1590 04ea 53020000 		.4byte	0x253
 1591 04ee 02       		.byte	0x2
 1592 04ef 23       		.byte	0x23
 1593 04f0 00       		.uleb128 0x0
 1594 04f1 06       		.uleb128 0x6
 1595 04f2 78020000 		.4byte	.LASF73
 1596 04f6 0B       		.byte	0xb
 1597 04f7 47       		.byte	0x47
 1598 04f8 30000000 		.4byte	0x30
 1599 04fc 02       		.byte	0x2
 1600 04fd 23       		.byte	0x23
 1601 04fe 08       		.uleb128 0x8
 1602 04ff 06       		.uleb128 0x6
 1603 0500 0B010000 		.4byte	.LASF74
 1604 0504 0B       		.byte	0xb
 1605 0505 48       		.byte	0x48
 1606 0506 69050000 		.4byte	0x569
 1607 050a 02       		.byte	0x2
 1608 050b 23       		.byte	0x23
 1609 050c 0C       		.uleb128 0xc
 1610 050d 06       		.uleb128 0x6
 1611 050e 98040000 		.4byte	.LASF75
 1612 0512 0B       		.byte	0xb
 1613 0513 49       		.byte	0x49
 1614 0514 69050000 		.4byte	0x569
 1615 0518 02       		.byte	0x2
 1616 0519 23       		.byte	0x23
 1617 051a 10       		.uleb128 0x10
 1618 051b 06       		.uleb128 0x6
 1619 051c 14010000 		.4byte	.LASF76
 1620 0520 0B       		.byte	0xb
ARM GAS  /tmp/cc84nPaL.s 			page 30


 1621 0521 4B       		.byte	0x4b
 1622 0522 69050000 		.4byte	0x569
 1623 0526 02       		.byte	0x2
 1624 0527 23       		.byte	0x23
 1625 0528 14       		.uleb128 0x14
 1626 0529 06       		.uleb128 0x6
 1627 052a 59030000 		.4byte	.LASF77
 1628 052e 0B       		.byte	0xb
 1629 052f 4C       		.byte	0x4c
 1630 0530 69050000 		.4byte	0x569
 1631 0534 02       		.byte	0x2
 1632 0535 23       		.byte	0x23
 1633 0536 18       		.uleb128 0x18
 1634 0537 06       		.uleb128 0x6
 1635 0538 E9040000 		.4byte	.LASF78
 1636 053c 0B       		.byte	0xb
 1637 053d 4D       		.byte	0x4d
 1638 053e 46050000 		.4byte	0x546
 1639 0542 02       		.byte	0x2
 1640 0543 23       		.byte	0x23
 1641 0544 1C       		.uleb128 0x1c
 1642 0545 00       		.byte	0x0
 1643 0546 03       		.uleb128 0x3
 1644 0547 31020000 		.4byte	.LASF79
 1645 054b 0B       		.byte	0xb
 1646 054c 3A       		.byte	0x3a
 1647 054d 51050000 		.4byte	0x551
 1648 0551 09       		.uleb128 0x9
 1649 0552 04       		.byte	0x4
 1650 0553 57050000 		.4byte	0x557
 1651 0557 11       		.uleb128 0x11
 1652 0558 01       		.byte	0x1
 1653 0559 63050000 		.4byte	0x563
 1654 055d 12       		.uleb128 0x12
 1655 055e 63050000 		.4byte	0x563
 1656 0562 00       		.byte	0x0
 1657 0563 09       		.uleb128 0x9
 1658 0564 04       		.byte	0x4
 1659 0565 CC040000 		.4byte	0x4cc
 1660 0569 09       		.uleb128 0x9
 1661 056a 04       		.byte	0x4
 1662 056b 49000000 		.4byte	0x49
 1663 056f 03       		.uleb128 0x3
 1664 0570 26020000 		.4byte	.LASF80
 1665 0574 0B       		.byte	0xb
 1666 0575 76       		.byte	0x76
 1667 0576 CC040000 		.4byte	0x4cc
 1668 057a 03       		.uleb128 0x3
 1669 057b 37000000 		.4byte	.LASF81
 1670 057f 0B       		.byte	0xb
 1671 0580 E6       		.byte	0xe6
 1672 0581 CC040000 		.4byte	0x4cc
 1673 0585 13       		.uleb128 0x13
 1674 0586 01       		.byte	0x1
 1675 0587 30000000 		.4byte	0x30
 1676 058b 9F050000 		.4byte	0x59f
 1677 058f 12       		.uleb128 0x12
ARM GAS  /tmp/cc84nPaL.s 			page 31


 1678 0590 8B020000 		.4byte	0x28b
 1679 0594 12       		.uleb128 0x12
 1680 0595 9F050000 		.4byte	0x59f
 1681 0599 12       		.uleb128 0x12
 1682 059a 30000000 		.4byte	0x30
 1683 059e 00       		.byte	0x0
 1684 059f 09       		.uleb128 0x9
 1685 05a0 04       		.byte	0x4
 1686 05a1 A5050000 		.4byte	0x5a5
 1687 05a5 10       		.uleb128 0x10
 1688 05a6 49000000 		.4byte	0x49
 1689 05aa 09       		.uleb128 0x9
 1690 05ab 04       		.byte	0x4
 1691 05ac 85050000 		.4byte	0x585
 1692 05b0 13       		.uleb128 0x13
 1693 05b1 01       		.byte	0x1
 1694 05b2 30000000 		.4byte	0x30
 1695 05b6 CA050000 		.4byte	0x5ca
 1696 05ba 12       		.uleb128 0x12
 1697 05bb 8B020000 		.4byte	0x28b
 1698 05bf 12       		.uleb128 0x12
 1699 05c0 69050000 		.4byte	0x569
 1700 05c4 12       		.uleb128 0x12
 1701 05c5 30000000 		.4byte	0x30
 1702 05c9 00       		.byte	0x0
 1703 05ca 09       		.uleb128 0x9
 1704 05cb 04       		.byte	0x4
 1705 05cc B0050000 		.4byte	0x5b0
 1706 05d0 13       		.uleb128 0x13
 1707 05d1 01       		.byte	0x1
 1708 05d2 BC000000 		.4byte	0xbc
 1709 05d6 E0050000 		.4byte	0x5e0
 1710 05da 12       		.uleb128 0x12
 1711 05db 8B020000 		.4byte	0x28b
 1712 05df 00       		.byte	0x0
 1713 05e0 09       		.uleb128 0x9
 1714 05e1 04       		.byte	0x4
 1715 05e2 D0050000 		.4byte	0x5d0
 1716 05e6 13       		.uleb128 0x13
 1717 05e7 01       		.byte	0x1
 1718 05e8 E8000000 		.4byte	0xe8
 1719 05ec 00060000 		.4byte	0x600
 1720 05f0 12       		.uleb128 0x12
 1721 05f1 8B020000 		.4byte	0x28b
 1722 05f5 12       		.uleb128 0x12
 1723 05f6 49000000 		.4byte	0x49
 1724 05fa 12       		.uleb128 0x12
 1725 05fb FE000000 		.4byte	0xfe
 1726 05ff 00       		.byte	0x0
 1727 0600 09       		.uleb128 0x9
 1728 0601 04       		.byte	0x4
 1729 0602 E6050000 		.4byte	0x5e6
 1730 0606 13       		.uleb128 0x13
 1731 0607 01       		.byte	0x1
 1732 0608 E8000000 		.4byte	0xe8
 1733 060c 1B060000 		.4byte	0x61b
 1734 0610 12       		.uleb128 0x12
ARM GAS  /tmp/cc84nPaL.s 			page 32


 1735 0611 8B020000 		.4byte	0x28b
 1736 0615 12       		.uleb128 0x12
 1737 0616 FE000000 		.4byte	0xfe
 1738 061a 00       		.byte	0x0
 1739 061b 09       		.uleb128 0x9
 1740 061c 04       		.byte	0x4
 1741 061d 06060000 		.4byte	0x606
 1742 0621 13       		.uleb128 0x13
 1743 0622 01       		.byte	0x1
 1744 0623 30000000 		.4byte	0x30
 1745 0627 40060000 		.4byte	0x640
 1746 062b 12       		.uleb128 0x12
 1747 062c 8B020000 		.4byte	0x28b
 1748 0630 12       		.uleb128 0x12
 1749 0631 9F050000 		.4byte	0x59f
 1750 0635 12       		.uleb128 0x12
 1751 0636 30000000 		.4byte	0x30
 1752 063a 12       		.uleb128 0x12
 1753 063b FE000000 		.4byte	0xfe
 1754 063f 00       		.byte	0x0
 1755 0640 09       		.uleb128 0x9
 1756 0641 04       		.byte	0x4
 1757 0642 21060000 		.4byte	0x621
 1758 0646 13       		.uleb128 0x13
 1759 0647 01       		.byte	0x1
 1760 0648 30000000 		.4byte	0x30
 1761 064c 65060000 		.4byte	0x665
 1762 0650 12       		.uleb128 0x12
 1763 0651 8B020000 		.4byte	0x28b
 1764 0655 12       		.uleb128 0x12
 1765 0656 69050000 		.4byte	0x569
 1766 065a 12       		.uleb128 0x12
 1767 065b 30000000 		.4byte	0x30
 1768 065f 12       		.uleb128 0x12
 1769 0660 FE000000 		.4byte	0xfe
 1770 0664 00       		.byte	0x0
 1771 0665 09       		.uleb128 0x9
 1772 0666 04       		.byte	0x4
 1773 0667 46060000 		.4byte	0x646
 1774 066b 14       		.uleb128 0x14
 1775 066c 7E040000 		.4byte	.LASF82
 1776 0670 0C       		.byte	0xc
 1777 0671 0B01     		.2byte	0x10b
 1778 0673 B1000000 		.4byte	0xb1
 1779 0677 13       		.uleb128 0x13
 1780 0678 01       		.byte	0x1
 1781 0679 6B060000 		.4byte	0x66b
 1782 067d 87060000 		.4byte	0x687
 1783 0681 12       		.uleb128 0x12
 1784 0682 8B020000 		.4byte	0x28b
 1785 0686 00       		.byte	0x0
 1786 0687 09       		.uleb128 0x9
 1787 0688 04       		.byte	0x4
 1788 0689 77060000 		.4byte	0x677
 1789 068d 03       		.uleb128 0x3
 1790 068e 43000000 		.4byte	.LASF83
 1791 0692 0D       		.byte	0xd
ARM GAS  /tmp/cc84nPaL.s 			page 33


 1792 0693 0A       		.byte	0xa
 1793 0694 98060000 		.4byte	0x698
 1794 0698 09       		.uleb128 0x9
 1795 0699 04       		.byte	0x4
 1796 069a 9E060000 		.4byte	0x69e
 1797 069e 11       		.uleb128 0x11
 1798 069f 01       		.byte	0x1
 1799 06a0 AA060000 		.4byte	0x6aa
 1800 06a4 12       		.uleb128 0x12
 1801 06a5 69050000 		.4byte	0x569
 1802 06a9 00       		.byte	0x0
 1803 06aa 0D       		.uleb128 0xd
 1804 06ab 62000000 		.4byte	0x62
 1805 06af 0D       		.uleb128 0xd
 1806 06b0 74000000 		.4byte	0x74
 1807 06b4 15       		.uleb128 0x15
 1808 06b5 1C       		.byte	0x1c
 1809 06b6 0E       		.byte	0xe
 1810 06b7 E104     		.2byte	0x4e1
 1811 06b9 8E070000 		.4byte	0x78e
 1812 06bd 0B       		.uleb128 0xb
 1813 06be 535200   		.ascii	"SR\000"
 1814 06c1 0E       		.byte	0xe
 1815 06c2 E304     		.2byte	0x4e3
 1816 06c4 AA060000 		.4byte	0x6aa
 1817 06c8 02       		.byte	0x2
 1818 06c9 23       		.byte	0x23
 1819 06ca 00       		.uleb128 0x0
 1820 06cb 16       		.uleb128 0x16
 1821 06cc 07030000 		.4byte	.LASF84
 1822 06d0 0E       		.byte	0xe
 1823 06d1 E404     		.2byte	0x4e4
 1824 06d3 62000000 		.4byte	0x62
 1825 06d7 02       		.byte	0x2
 1826 06d8 23       		.byte	0x23
 1827 06d9 02       		.uleb128 0x2
 1828 06da 0B       		.uleb128 0xb
 1829 06db 445200   		.ascii	"DR\000"
 1830 06de 0E       		.byte	0xe
 1831 06df E504     		.2byte	0x4e5
 1832 06e1 AA060000 		.4byte	0x6aa
 1833 06e5 02       		.byte	0x2
 1834 06e6 23       		.byte	0x23
 1835 06e7 04       		.uleb128 0x4
 1836 06e8 16       		.uleb128 0x16
 1837 06e9 11030000 		.4byte	.LASF85
 1838 06ed 0E       		.byte	0xe
 1839 06ee E604     		.2byte	0x4e6
 1840 06f0 62000000 		.4byte	0x62
 1841 06f4 02       		.byte	0x2
 1842 06f5 23       		.byte	0x23
 1843 06f6 06       		.uleb128 0x6
 1844 06f7 0B       		.uleb128 0xb
 1845 06f8 42525200 		.ascii	"BRR\000"
 1846 06fc 0E       		.byte	0xe
 1847 06fd E704     		.2byte	0x4e7
 1848 06ff AA060000 		.4byte	0x6aa
ARM GAS  /tmp/cc84nPaL.s 			page 34


 1849 0703 02       		.byte	0x2
 1850 0704 23       		.byte	0x23
 1851 0705 08       		.uleb128 0x8
 1852 0706 16       		.uleb128 0x16
 1853 0707 1B030000 		.4byte	.LASF86
 1854 070b 0E       		.byte	0xe
 1855 070c E804     		.2byte	0x4e8
 1856 070e 62000000 		.4byte	0x62
 1857 0712 02       		.byte	0x2
 1858 0713 23       		.byte	0x23
 1859 0714 0A       		.uleb128 0xa
 1860 0715 0B       		.uleb128 0xb
 1861 0716 43523100 		.ascii	"CR1\000"
 1862 071a 0E       		.byte	0xe
 1863 071b E904     		.2byte	0x4e9
 1864 071d AA060000 		.4byte	0x6aa
 1865 0721 02       		.byte	0x2
 1866 0722 23       		.byte	0x23
 1867 0723 0C       		.uleb128 0xc
 1868 0724 16       		.uleb128 0x16
 1869 0725 25030000 		.4byte	.LASF87
 1870 0729 0E       		.byte	0xe
 1871 072a EA04     		.2byte	0x4ea
 1872 072c 62000000 		.4byte	0x62
 1873 0730 02       		.byte	0x2
 1874 0731 23       		.byte	0x23
 1875 0732 0E       		.uleb128 0xe
 1876 0733 0B       		.uleb128 0xb
 1877 0734 43523200 		.ascii	"CR2\000"
 1878 0738 0E       		.byte	0xe
 1879 0739 EB04     		.2byte	0x4eb
 1880 073b AA060000 		.4byte	0x6aa
 1881 073f 02       		.byte	0x2
 1882 0740 23       		.byte	0x23
 1883 0741 10       		.uleb128 0x10
 1884 0742 16       		.uleb128 0x16
 1885 0743 2F030000 		.4byte	.LASF88
 1886 0747 0E       		.byte	0xe
 1887 0748 EC04     		.2byte	0x4ec
 1888 074a 62000000 		.4byte	0x62
 1889 074e 02       		.byte	0x2
 1890 074f 23       		.byte	0x23
 1891 0750 12       		.uleb128 0x12
 1892 0751 0B       		.uleb128 0xb
 1893 0752 43523300 		.ascii	"CR3\000"
 1894 0756 0E       		.byte	0xe
 1895 0757 ED04     		.2byte	0x4ed
 1896 0759 AA060000 		.4byte	0x6aa
 1897 075d 02       		.byte	0x2
 1898 075e 23       		.byte	0x23
 1899 075f 14       		.uleb128 0x14
 1900 0760 16       		.uleb128 0x16
 1901 0761 EA030000 		.4byte	.LASF89
 1902 0765 0E       		.byte	0xe
 1903 0766 EE04     		.2byte	0x4ee
 1904 0768 62000000 		.4byte	0x62
 1905 076c 02       		.byte	0x2
ARM GAS  /tmp/cc84nPaL.s 			page 35


 1906 076d 23       		.byte	0x23
 1907 076e 16       		.uleb128 0x16
 1908 076f 16       		.uleb128 0x16
 1909 0770 D2000000 		.4byte	.LASF90
 1910 0774 0E       		.byte	0xe
 1911 0775 EF04     		.2byte	0x4ef
 1912 0777 AA060000 		.4byte	0x6aa
 1913 077b 02       		.byte	0x2
 1914 077c 23       		.byte	0x23
 1915 077d 18       		.uleb128 0x18
 1916 077e 16       		.uleb128 0x16
 1917 077f 40030000 		.4byte	.LASF91
 1918 0783 0E       		.byte	0xe
 1919 0784 F004     		.2byte	0x4f0
 1920 0786 62000000 		.4byte	0x62
 1921 078a 02       		.byte	0x2
 1922 078b 23       		.byte	0x23
 1923 078c 1A       		.uleb128 0x1a
 1924 078d 00       		.byte	0x0
 1925 078e 14       		.uleb128 0x14
 1926 078f EC010000 		.4byte	.LASF92
 1927 0793 0E       		.byte	0xe
 1928 0794 F104     		.2byte	0x4f1
 1929 0796 B4060000 		.4byte	0x6b4
 1930 079a 17       		.uleb128 0x17
 1931 079b 01       		.byte	0x1
 1932 079c 0F       		.byte	0xf
 1933 079d 64       		.byte	0x64
 1934 079e B5070000 		.4byte	0x7b5
 1935 07a2 18       		.uleb128 0x18
 1936 07a3 E0030000 		.4byte	.LASF93
 1937 07a7 00       		.sleb128 0
 1938 07a8 18       		.uleb128 0x18
 1939 07a9 D7000000 		.4byte	.LASF94
 1940 07ad 01       		.sleb128 1
 1941 07ae 18       		.uleb128 0x18
 1942 07af 8F040000 		.4byte	.LASF95
 1943 07b3 02       		.sleb128 2
 1944 07b4 00       		.byte	0x0
 1945 07b5 03       		.uleb128 0x3
 1946 07b6 05040000 		.4byte	.LASF96
 1947 07ba 0F       		.byte	0xf
 1948 07bb 68       		.byte	0x68
 1949 07bc 9A070000 		.4byte	0x79a
 1950 07c0 03       		.uleb128 0x3
 1951 07c1 0F040000 		.4byte	.LASF97
 1952 07c5 0F       		.byte	0xf
 1953 07c6 6D       		.byte	0x6d
 1954 07c7 CB070000 		.4byte	0x7cb
 1955 07cb 05       		.uleb128 0x5
 1956 07cc 0F040000 		.4byte	.LASF97
 1957 07d0 74       		.byte	0x74
 1958 07d1 0F       		.byte	0xf
 1959 07d2 87       		.byte	0x87
 1960 07d3 54080000 		.4byte	0x854
 1961 07d7 07       		.uleb128 0x7
 1962 07d8 766D7400 		.ascii	"vmt\000"
ARM GAS  /tmp/cc84nPaL.s 			page 36


 1963 07dc 0F       		.byte	0xf
 1964 07dd 89       		.byte	0x89
 1965 07de DF080000 		.4byte	0x8df
 1966 07e2 02       		.byte	0x2
 1967 07e3 23       		.byte	0x23
 1968 07e4 00       		.uleb128 0x0
 1969 07e5 06       		.uleb128 0x6
 1970 07e6 BA010000 		.4byte	.LASF98
 1971 07ea 0F       		.byte	0xf
 1972 07eb 8A       		.byte	0x8a
 1973 07ec 6E040000 		.4byte	0x46e
 1974 07f0 02       		.byte	0x2
 1975 07f1 23       		.byte	0x23
 1976 07f2 04       		.uleb128 0x4
 1977 07f3 06       		.uleb128 0x6
 1978 07f4 0B050000 		.4byte	.LASF99
 1979 07f8 0F       		.byte	0xf
 1980 07f9 8A       		.byte	0x8a
 1981 07fa 6B060000 		.4byte	0x66b
 1982 07fe 02       		.byte	0x2
 1983 07ff 23       		.byte	0x23
 1984 0800 08       		.uleb128 0x8
 1985 0801 06       		.uleb128 0x6
 1986 0802 F3000000 		.4byte	.LASF100
 1987 0806 0F       		.byte	0xf
 1988 0807 8A       		.byte	0x8a
 1989 0808 B5070000 		.4byte	0x7b5
 1990 080c 02       		.byte	0x2
 1991 080d 23       		.byte	0x23
 1992 080e 0C       		.uleb128 0xc
 1993 080f 06       		.uleb128 0x6
 1994 0810 8F010000 		.4byte	.LASF101
 1995 0814 0F       		.byte	0xf
 1996 0815 8A       		.byte	0x8a
 1997 0816 6F050000 		.4byte	0x56f
 1998 081a 02       		.byte	0x2
 1999 081b 23       		.byte	0x23
 2000 081c 10       		.uleb128 0x10
 2001 081d 06       		.uleb128 0x6
 2002 081e E5010000 		.4byte	.LASF102
 2003 0822 0F       		.byte	0xf
 2004 0823 8A       		.byte	0x8a
 2005 0824 7A050000 		.4byte	0x57a
 2006 0828 02       		.byte	0x2
 2007 0829 23       		.byte	0x23
 2008 082a 30       		.uleb128 0x30
 2009 082b 07       		.uleb128 0x7
 2010 082c 696200   		.ascii	"ib\000"
 2011 082f 0F       		.byte	0xf
 2012 0830 8A       		.byte	0x8a
 2013 0831 EA080000 		.4byte	0x8ea
 2014 0835 02       		.byte	0x2
 2015 0836 23       		.byte	0x23
 2016 0837 50       		.uleb128 0x50
 2017 0838 07       		.uleb128 0x7
 2018 0839 6F6200   		.ascii	"ob\000"
 2019 083c 0F       		.byte	0xf
ARM GAS  /tmp/cc84nPaL.s 			page 37


 2020 083d 8A       		.byte	0x8a
 2021 083e EA080000 		.4byte	0x8ea
 2022 0842 02       		.byte	0x2
 2023 0843 23       		.byte	0x23
 2024 0844 60       		.uleb128 0x60
 2025 0845 06       		.uleb128 0x6
 2026 0846 5C010000 		.4byte	.LASF103
 2027 084a 0F       		.byte	0xf
 2028 084b 8A       		.byte	0x8a
 2029 084c FA080000 		.4byte	0x8fa
 2030 0850 02       		.byte	0x2
 2031 0851 23       		.byte	0x23
 2032 0852 70       		.uleb128 0x70
 2033 0853 00       		.byte	0x0
 2034 0854 05       		.uleb128 0x5
 2035 0855 78010000 		.4byte	.LASF104
 2036 0859 24       		.byte	0x24
 2037 085a 0F       		.byte	0xf
 2038 085b 7C       		.byte	0x7c
 2039 085c DF080000 		.4byte	0x8df
 2040 0860 06       		.uleb128 0x6
 2041 0861 6A020000 		.4byte	.LASF105
 2042 0865 0F       		.byte	0xf
 2043 0866 7D       		.byte	0x7d
 2044 0867 AA050000 		.4byte	0x5aa
 2045 086b 02       		.byte	0x2
 2046 086c 23       		.byte	0x23
 2047 086d 00       		.uleb128 0x0
 2048 086e 06       		.uleb128 0x6
 2049 086f 2E040000 		.4byte	.LASF106
 2050 0873 0F       		.byte	0xf
 2051 0874 7D       		.byte	0x7d
 2052 0875 CA050000 		.4byte	0x5ca
 2053 0879 02       		.byte	0x2
 2054 087a 23       		.byte	0x23
 2055 087b 04       		.uleb128 0x4
 2056 087c 06       		.uleb128 0x6
 2057 087d 24010000 		.4byte	.LASF107
 2058 0881 0F       		.byte	0xf
 2059 0882 7D       		.byte	0x7d
 2060 0883 E0050000 		.4byte	0x5e0
 2061 0887 02       		.byte	0x2
 2062 0888 23       		.byte	0x23
 2063 0889 08       		.uleb128 0x8
 2064 088a 06       		.uleb128 0x6
 2065 088b 4D050000 		.4byte	.LASF108
 2066 088f 0F       		.byte	0xf
 2067 0890 7D       		.byte	0x7d
 2068 0891 E0050000 		.4byte	0x5e0
 2069 0895 02       		.byte	0x2
 2070 0896 23       		.byte	0x23
 2071 0897 0C       		.uleb128 0xc
 2072 0898 07       		.uleb128 0x7
 2073 0899 70757400 		.ascii	"put\000"
 2074 089d 0F       		.byte	0xf
 2075 089e 7D       		.byte	0x7d
 2076 089f 00060000 		.4byte	0x600
ARM GAS  /tmp/cc84nPaL.s 			page 38


 2077 08a3 02       		.byte	0x2
 2078 08a4 23       		.byte	0x23
 2079 08a5 10       		.uleb128 0x10
 2080 08a6 07       		.uleb128 0x7
 2081 08a7 67657400 		.ascii	"get\000"
 2082 08ab 0F       		.byte	0xf
 2083 08ac 7D       		.byte	0x7d
 2084 08ad 1B060000 		.4byte	0x61b
 2085 08b1 02       		.byte	0x2
 2086 08b2 23       		.byte	0x23
 2087 08b3 14       		.uleb128 0x14
 2088 08b4 06       		.uleb128 0x6
 2089 08b5 FA010000 		.4byte	.LASF109
 2090 08b9 0F       		.byte	0xf
 2091 08ba 7D       		.byte	0x7d
 2092 08bb 40060000 		.4byte	0x640
 2093 08bf 02       		.byte	0x2
 2094 08c0 23       		.byte	0x23
 2095 08c1 18       		.uleb128 0x18
 2096 08c2 06       		.uleb128 0x6
 2097 08c3 A8000000 		.4byte	.LASF110
 2098 08c7 0F       		.byte	0xf
 2099 08c8 7D       		.byte	0x7d
 2100 08c9 65060000 		.4byte	0x665
 2101 08cd 02       		.byte	0x2
 2102 08ce 23       		.byte	0x23
 2103 08cf 1C       		.uleb128 0x1c
 2104 08d0 06       		.uleb128 0x6
 2105 08d1 6D040000 		.4byte	.LASF111
 2106 08d5 0F       		.byte	0xf
 2107 08d6 7D       		.byte	0x7d
 2108 08d7 87060000 		.4byte	0x687
 2109 08db 02       		.byte	0x2
 2110 08dc 23       		.byte	0x23
 2111 08dd 20       		.uleb128 0x20
 2112 08de 00       		.byte	0x0
 2113 08df 09       		.uleb128 0x9
 2114 08e0 04       		.byte	0x4
 2115 08e1 E5080000 		.4byte	0x8e5
 2116 08e5 10       		.uleb128 0x10
 2117 08e6 54080000 		.4byte	0x854
 2118 08ea 19       		.uleb128 0x19
 2119 08eb 49000000 		.4byte	0x49
 2120 08ef FA080000 		.4byte	0x8fa
 2121 08f3 1A       		.uleb128 0x1a
 2122 08f4 3B000000 		.4byte	0x3b
 2123 08f8 0F       		.byte	0xf
 2124 08f9 00       		.byte	0x0
 2125 08fa 09       		.uleb128 0x9
 2126 08fb 04       		.byte	0x4
 2127 08fc 8E070000 		.4byte	0x78e
 2128 0900 08       		.uleb128 0x8
 2129 0901 04       		.byte	0x4
 2130 0902 10       		.byte	0x10
 2131 0903 07       		.byte	0x7
 2132 0904 25090000 		.4byte	0x925
 2133 0908 06       		.uleb128 0x6
ARM GAS  /tmp/cc84nPaL.s 			page 39


 2134 0909 01020000 		.4byte	.LASF112
 2135 090d 10       		.byte	0x10
 2136 090e 09       		.byte	0x9
 2137 090f 62000000 		.4byte	0x62
 2138 0913 02       		.byte	0x2
 2139 0914 23       		.byte	0x23
 2140 0915 00       		.uleb128 0x0
 2141 0916 06       		.uleb128 0x6
 2142 0917 49000000 		.4byte	.LASF113
 2143 091b 10       		.byte	0x10
 2144 091c 0A       		.byte	0xa
 2145 091d 62000000 		.4byte	0x62
 2146 0921 02       		.byte	0x2
 2147 0922 23       		.byte	0x23
 2148 0923 02       		.uleb128 0x2
 2149 0924 00       		.byte	0x0
 2150 0925 03       		.uleb128 0x3
 2151 0926 43010000 		.4byte	.LASF114
 2152 092a 10       		.byte	0x10
 2153 092b 0B       		.byte	0xb
 2154 092c 00090000 		.4byte	0x900
 2155 0930 1B       		.uleb128 0x1b
 2156 0931 A1010000 		.4byte	.LASF117
 2157 0935 01       		.byte	0x1
 2158 0936 68       		.byte	0x68
 2159 0937 01       		.byte	0x1
 2160 0938 01       		.byte	0x1
 2161 0939 54090000 		.4byte	0x954
 2162 093d 1C       		.uleb128 0x1c
 2163 093e 00050000 		.4byte	.LASF115
 2164 0942 01       		.byte	0x1
 2165 0943 6A       		.byte	0x6a
 2166 0944 29000000 		.4byte	0x29
 2167 0948 1C       		.uleb128 0x1c
 2168 0949 50030000 		.4byte	.LASF116
 2169 094d 01       		.byte	0x1
 2170 094e 6C       		.byte	0x6c
 2171 094f 29000000 		.4byte	0x29
 2172 0953 00       		.byte	0x0
 2173 0954 1D       		.uleb128 0x1d
 2174 0955 11050000 		.4byte	.LASF144
 2175 0959 01       		.byte	0x1
 2176 095a AF       		.byte	0xaf
 2177 095b 01       		.byte	0x1
 2178 095c 01       		.byte	0x1
 2179 095d 1B       		.uleb128 0x1b
 2180 095e 3D050000 		.4byte	.LASF118
 2181 0962 01       		.byte	0x1
 2182 0963 4C       		.byte	0x4c
 2183 0964 01       		.byte	0x1
 2184 0965 01       		.byte	0x1
 2185 0966 9F090000 		.4byte	0x99f
 2186 096a 1E       		.uleb128 0x1e
 2187 096b 62756600 		.ascii	"buf\000"
 2188 096f 01       		.byte	0x1
 2189 0970 4C       		.byte	0x4c
 2190 0971 69050000 		.4byte	0x569
ARM GAS  /tmp/cc84nPaL.s 			page 40


 2191 0975 1E       		.uleb128 0x1e
 2192 0976 737A00   		.ascii	"sz\000"
 2193 0979 01       		.byte	0x1
 2194 097a 4C       		.byte	0x4c
 2195 097b 29000000 		.4byte	0x29
 2196 097f 1F       		.uleb128 0x1f
 2197 0980 6900     		.ascii	"i\000"
 2198 0982 01       		.byte	0x1
 2199 0983 4E       		.byte	0x4e
 2200 0984 29000000 		.4byte	0x29
 2201 0988 1F       		.uleb128 0x1f
 2202 0989 636D6400 		.ascii	"cmd\000"
 2203 098d 01       		.byte	0x1
 2204 098e 4F       		.byte	0x4f
 2205 098f 49000000 		.4byte	0x49
 2206 0993 1C       		.uleb128 0x1c
 2207 0994 7C000000 		.4byte	.LASF119
 2208 0998 01       		.byte	0x1
 2209 0999 51       		.byte	0x51
 2210 099a 69050000 		.4byte	0x569
 2211 099e 00       		.byte	0x0
 2212 099f 20       		.uleb128 0x20
 2213 09a0 62020000 		.4byte	.LASF120
 2214 09a4 01       		.byte	0x1
 2215 09a5 76       		.byte	0x76
 2216 09a6 01       		.byte	0x1
 2217 09a7 00000000 		.4byte	.LFB67
 2218 09ab 26000000 		.4byte	.LFE67
 2219 09af 00000000 		.4byte	.LLST0
 2220 09b3 D5090000 		.4byte	0x9d5
 2221 09b7 21       		.uleb128 0x21
 2222 09b8 5B050000 		.4byte	.LASF122
 2223 09bc 01       		.byte	0x1
 2224 09bd 76       		.byte	0x76
 2225 09be 69050000 		.4byte	0x569
 2226 09c2 2C000000 		.4byte	.LLST1
 2227 09c6 22       		.uleb128 0x22
 2228 09c7 EE000000 		.4byte	.LASF123
 2229 09cb 01       		.byte	0x1
 2230 09cc 78       		.byte	0x78
 2231 09cd 25090000 		.4byte	0x925
 2232 09d1 02       		.byte	0x2
 2233 09d2 91       		.byte	0x91
 2234 09d3 74       		.sleb128 -12
 2235 09d4 00       		.byte	0x0
 2236 09d5 23       		.uleb128 0x23
 2237 09d6 73000000 		.4byte	.LASF121
 2238 09da 01       		.byte	0x1
 2239 09db 71       		.byte	0x71
 2240 09dc 01       		.byte	0x1
 2241 09dd 00000000 		.4byte	.LFB66
 2242 09e1 06000000 		.4byte	.LFE66
 2243 09e5 02       		.byte	0x2
 2244 09e6 7D       		.byte	0x7d
 2245 09e7 00       		.sleb128 0
 2246 09e8 FC090000 		.4byte	0x9fc
 2247 09ec 21       		.uleb128 0x21
ARM GAS  /tmp/cc84nPaL.s 			page 41


 2248 09ed 5B050000 		.4byte	.LASF122
 2249 09f1 01       		.byte	0x1
 2250 09f2 71       		.byte	0x71
 2251 09f3 69050000 		.4byte	0x569
 2252 09f7 3F000000 		.4byte	.LLST2
 2253 09fb 00       		.byte	0x0
 2254 09fc 24       		.uleb128 0x24
 2255 09fd E0020000 		.4byte	.LASF145
 2256 0a01 01       		.byte	0x1
 2257 0a02 9E       		.byte	0x9e
 2258 0a03 01       		.byte	0x1
 2259 0a04 E8000000 		.4byte	0xe8
 2260 0a08 00000000 		.4byte	.LFB70
 2261 0a0c 40000000 		.4byte	.LFE70
 2262 0a10 52000000 		.4byte	.LLST3
 2263 0a14 4F0A0000 		.4byte	0xa4f
 2264 0a18 25       		.uleb128 0x25
 2265 0a19 61726700 		.ascii	"arg\000"
 2266 0a1d 01       		.byte	0x1
 2267 0a1e 9E       		.byte	0x9e
 2268 0a1f 8B020000 		.4byte	0x28b
 2269 0a23 7E000000 		.4byte	.LLST4
 2270 0a27 26       		.uleb128 0x26
 2271 0a28 0C000000 		.4byte	.LBB12
 2272 0a2c 40000000 		.4byte	.LBE12
 2273 0a30 22       		.uleb128 0x22
 2274 0a31 61030000 		.4byte	.LASF124
 2275 0a35 01       		.byte	0x1
 2276 0a36 A5       		.byte	0xa5
 2277 0a37 49000000 		.4byte	0x49
 2278 0a3b 02       		.byte	0x2
 2279 0a3c 91       		.byte	0x91
 2280 0a3d 77       		.sleb128 -9
 2281 0a3e 27       		.uleb128 0x27
 2282 0a3f 636E7400 		.ascii	"cnt\000"
 2283 0a43 01       		.byte	0x1
 2284 0a44 A6       		.byte	0xa6
 2285 0a45 30000000 		.4byte	0x30
 2286 0a49 91000000 		.4byte	.LLST5
 2287 0a4d 00       		.byte	0x0
 2288 0a4e 00       		.byte	0x0
 2289 0a4f 28       		.uleb128 0x28
 2290 0a50 01       		.byte	0x1
 2291 0a51 3E040000 		.4byte	.LASF125
 2292 0a55 01       		.byte	0x1
 2293 0a56 1E       		.byte	0x1e
 2294 0a57 01       		.byte	0x1
 2295 0a58 00000000 		.4byte	.LFB62
 2296 0a5c 48000000 		.4byte	.LFE62
 2297 0a60 A4000000 		.4byte	.LLST6
 2298 0a64 780A0000 		.4byte	0xa78
 2299 0a68 29       		.uleb128 0x29
 2300 0a69 54090000 		.4byte	0x954
 2301 0a6d 10000000 		.4byte	.LBB13
 2302 0a71 2E000000 		.4byte	.LBE13
 2303 0a75 01       		.byte	0x1
 2304 0a76 24       		.byte	0x24
ARM GAS  /tmp/cc84nPaL.s 			page 42


 2305 0a77 00       		.byte	0x0
 2306 0a78 28       		.uleb128 0x28
 2307 0a79 01       		.byte	0x1
 2308 0a7a 96020000 		.4byte	.LASF126
 2309 0a7e 01       		.byte	0x1
 2310 0a7f 27       		.byte	0x27
 2311 0a80 01       		.byte	0x1
 2312 0a81 00000000 		.4byte	.LFB63
 2313 0a85 EC000000 		.4byte	.LFE63
 2314 0a89 D0000000 		.4byte	.LLST7
 2315 0a8d 520B0000 		.4byte	0xb52
 2316 0a91 2A       		.uleb128 0x2a
 2317 0a92 00000000 		.4byte	.Ldebug_ranges0+0x0
 2318 0a96 2B       		.uleb128 0x2b
 2319 0a97 88020000 		.4byte	.LASF127
 2320 0a9b 01       		.byte	0x1
 2321 0a9c 2C       		.byte	0x2c
 2322 0a9d 29000000 		.4byte	0x29
 2323 0aa1 FC000000 		.4byte	.LLST8
 2324 0aa5 2A       		.uleb128 0x2a
 2325 0aa6 20000000 		.4byte	.Ldebug_ranges0+0x20
 2326 0aaa 27       		.uleb128 0x27
 2327 0aab 656F6D00 		.ascii	"eom\000"
 2328 0aaf 01       		.byte	0x1
 2329 0ab0 32       		.byte	0x32
 2330 0ab1 49000000 		.4byte	0x49
 2331 0ab5 1A010000 		.4byte	.LLST9
 2332 0ab9 2B       		.uleb128 0x2b
 2333 0aba ED020000 		.4byte	.LASF128
 2334 0abe 01       		.byte	0x1
 2335 0abf 33       		.byte	0x33
 2336 0ac0 49000000 		.4byte	0x49
 2337 0ac4 4F010000 		.4byte	.LLST10
 2338 0ac8 2B       		.uleb128 0x2b
 2339 0ac9 8A000000 		.4byte	.LASF129
 2340 0acd 01       		.byte	0x1
 2341 0ace 34       		.byte	0x34
 2342 0acf 29000000 		.4byte	0x29
 2343 0ad3 78010000 		.4byte	.LLST11
 2344 0ad7 1F       		.uleb128 0x1f
 2345 0ad8 6900     		.ascii	"i\000"
 2346 0ada 01       		.byte	0x1
 2347 0adb 34       		.byte	0x34
 2348 0adc 29000000 		.4byte	0x29
 2349 0ae0 2C       		.uleb128 0x2c
 2350 0ae1 5D090000 		.4byte	0x95d
 2351 0ae5 12000000 		.4byte	.LBB18
 2352 0ae9 40000000 		.4byte	.Ldebug_ranges0+0x40
 2353 0aed 01       		.byte	0x1
 2354 0aee 3F       		.byte	0x3f
 2355 0aef 2D       		.uleb128 0x2d
 2356 0af0 75090000 		.4byte	0x975
 2357 0af4 B7010000 		.4byte	.LLST12
 2358 0af8 2D       		.uleb128 0x2d
 2359 0af9 6A090000 		.4byte	0x96a
 2360 0afd E0010000 		.4byte	.LLST13
 2361 0b01 2A       		.uleb128 0x2a
ARM GAS  /tmp/cc84nPaL.s 			page 43


 2362 0b02 60000000 		.4byte	.Ldebug_ranges0+0x60
 2363 0b06 2E       		.uleb128 0x2e
 2364 0b07 7F090000 		.4byte	0x97f
 2365 0b0b 08020000 		.4byte	.LLST14
 2366 0b0f 2E       		.uleb128 0x2e
 2367 0b10 88090000 		.4byte	0x988
 2368 0b14 1C020000 		.4byte	.LLST15
 2369 0b18 2E       		.uleb128 0x2e
 2370 0b19 93090000 		.4byte	0x993
 2371 0b1d 51020000 		.4byte	.LLST16
 2372 0b21 2F       		.uleb128 0x2f
 2373 0b22 30090000 		.4byte	0x930
 2374 0b26 72000000 		.4byte	.LBB21
 2375 0b2a 92000000 		.4byte	.LBE21
 2376 0b2e 01       		.byte	0x1
 2377 0b2f 5A       		.byte	0x5a
 2378 0b30 26       		.uleb128 0x26
 2379 0b31 72000000 		.4byte	.LBB22
 2380 0b35 92000000 		.4byte	.LBE22
 2381 0b39 2E       		.uleb128 0x2e
 2382 0b3a 3D090000 		.4byte	0x93d
 2383 0b3e 79020000 		.4byte	.LLST17
 2384 0b42 2E       		.uleb128 0x2e
 2385 0b43 48090000 		.4byte	0x948
 2386 0b47 8C020000 		.4byte	.LLST18
 2387 0b4b 00       		.byte	0x0
 2388 0b4c 00       		.byte	0x0
 2389 0b4d 00       		.byte	0x0
 2390 0b4e 00       		.byte	0x0
 2391 0b4f 00       		.byte	0x0
 2392 0b50 00       		.byte	0x0
 2393 0b51 00       		.byte	0x0
 2394 0b52 28       		.uleb128 0x28
 2395 0b53 01       		.byte	0x1
 2396 0b54 11000000 		.4byte	.LASF130
 2397 0b58 01       		.byte	0x1
 2398 0b59 97       		.byte	0x97
 2399 0b5a 01       		.byte	0x1
 2400 0b5b 00000000 		.4byte	.LFB69
 2401 0b5f 1C000000 		.4byte	.LFE69
 2402 0b63 A0020000 		.4byte	.LLST19
 2403 0b67 7B0B0000 		.4byte	0xb7b
 2404 0b6b 30       		.uleb128 0x30
 2405 0b6c 01       		.byte	0x1
 2406 0b6d FF020000 		.4byte	.LASF146
 2407 0b71 01       		.byte	0x1
 2408 0b72 99       		.byte	0x99
 2409 0b73 29000000 		.4byte	0x29
 2410 0b77 01       		.byte	0x1
 2411 0b78 31       		.uleb128 0x31
 2412 0b79 00       		.byte	0x0
 2413 0b7a 00       		.byte	0x0
 2414 0b7b 32       		.uleb128 0x32
 2415 0b7c 01       		.byte	0x1
 2416 0b7d F3020000 		.4byte	.LASF147
 2417 0b81 01       		.byte	0x1
 2418 0b82 86       		.byte	0x86
ARM GAS  /tmp/cc84nPaL.s 			page 44


 2419 0b83 01       		.byte	0x1
 2420 0b84 49000000 		.4byte	0x49
 2421 0b88 00000000 		.4byte	.LFB68
 2422 0b8c 3C000000 		.4byte	.LFE68
 2423 0b90 C0020000 		.4byte	.LLST20
 2424 0b94 B50B0000 		.4byte	0xbb5
 2425 0b98 25       		.uleb128 0x25
 2426 0b99 7600     		.ascii	"v\000"
 2427 0b9b 01       		.byte	0x1
 2428 0b9c 86       		.byte	0x86
 2429 0b9d 49000000 		.4byte	0x49
 2430 0ba1 E0020000 		.4byte	.LLST21
 2431 0ba5 2B       		.uleb128 0x2b
 2432 0ba6 D3010000 		.4byte	.LASF131
 2433 0baa 01       		.byte	0x1
 2434 0bab 8D       		.byte	0x8d
 2435 0bac 30000000 		.4byte	0x30
 2436 0bb0 F3020000 		.4byte	.LLST22
 2437 0bb4 00       		.byte	0x0
 2438 0bb5 33       		.uleb128 0x33
 2439 0bb6 F2040000 		.4byte	.LASF132
 2440 0bba 08       		.byte	0x8
 2441 0bbb 72       		.byte	0x72
 2442 0bbc B8030000 		.4byte	0x3b8
 2443 0bc0 01       		.byte	0x1
 2444 0bc1 01       		.byte	0x1
 2445 0bc2 34       		.uleb128 0x34
 2446 0bc3 94000000 		.4byte	.LASF133
 2447 0bc7 11       		.byte	0x11
 2448 0bc8 9404     		.2byte	0x494
 2449 0bca AF060000 		.4byte	0x6af
 2450 0bce 01       		.byte	0x1
 2451 0bcf 01       		.byte	0x1
 2452 0bd0 35       		.uleb128 0x35
 2453 0bd1 53443100 		.ascii	"SD1\000"
 2454 0bd5 12       		.byte	0x12
 2455 0bd6 FB       		.byte	0xfb
 2456 0bd7 C0070000 		.4byte	0x7c0
 2457 0bdb 01       		.byte	0x1
 2458 0bdc 01       		.byte	0x1
 2459 0bdd 19       		.uleb128 0x19
 2460 0bde 49000000 		.4byte	0x49
 2461 0be2 ED0B0000 		.4byte	0xbed
 2462 0be6 1A       		.uleb128 0x1a
 2463 0be7 3B000000 		.4byte	0x3b
 2464 0beb 1F       		.byte	0x1f
 2465 0bec 00       		.byte	0x0
 2466 0bed 22       		.uleb128 0x22
 2467 0bee C3020000 		.4byte	.LASF134
 2468 0bf2 01       		.byte	0x1
 2469 0bf3 15       		.byte	0x15
 2470 0bf4 DD0B0000 		.4byte	0xbdd
 2471 0bf8 05       		.byte	0x5
 2472 0bf9 03       		.byte	0x3
 2473 0bfa 00000000 		.4byte	buffer_raw
 2474 0bfe 22       		.uleb128 0x22
 2475 0bff 66040000 		.4byte	.LASF135
ARM GAS  /tmp/cc84nPaL.s 			page 45


 2476 0c03 01       		.byte	0x1
 2477 0c04 16       		.byte	0x16
 2478 0c05 DD0B0000 		.4byte	0xbdd
 2479 0c09 05       		.byte	0x5
 2480 0c0a 03       		.byte	0x3
 2481 0c0b 00000000 		.4byte	buffer
 2482 0c0f 22       		.uleb128 0x22
 2483 0c10 5B050000 		.4byte	.LASF122
 2484 0c14 01       		.byte	0x1
 2485 0c15 17       		.byte	0x17
 2486 0c16 DD0B0000 		.4byte	0xbdd
 2487 0c1a 05       		.byte	0x5
 2488 0c1b 03       		.byte	0x3
 2489 0c1c 00000000 		.4byte	args
 2490 0c20 1C       		.uleb128 0x1c
 2491 0c21 08000000 		.4byte	.LASF136
 2492 0c25 01       		.byte	0x1
 2493 0c26 18       		.byte	0x18
 2494 0c27 29000000 		.4byte	0x29
 2495 0c2b 19       		.uleb128 0x19
 2496 0c2c 8D060000 		.4byte	0x68d
 2497 0c30 3B0C0000 		.4byte	0xc3b
 2498 0c34 1A       		.uleb128 0x1a
 2499 0c35 3B000000 		.4byte	0x3b
 2500 0c39 01       		.byte	0x1
 2501 0c3a 00       		.byte	0x0
 2502 0c3b 22       		.uleb128 0x22
 2503 0c3c 31000000 		.4byte	.LASF137
 2504 0c40 01       		.byte	0x1
 2505 0c41 62       		.byte	0x62
 2506 0c42 4C0C0000 		.4byte	0xc4c
 2507 0c46 05       		.byte	0x5
 2508 0c47 03       		.byte	0x3
 2509 0c48 00000000 		.4byte	funcs
 2510 0c4c 10       		.uleb128 0x10
 2511 0c4d 2B0C0000 		.4byte	0xc2b
 2512 0c51 22       		.uleb128 0x22
 2513 0c52 AB010000 		.4byte	.LASF138
 2514 0c56 01       		.byte	0x1
 2515 0c57 83       		.byte	0x83
 2516 0c58 6F050000 		.4byte	0x56f
 2517 0c5c 05       		.byte	0x5
 2518 0c5d 03       		.byte	0x3
 2519 0c5e 00000000 		.4byte	queue
 2520 0c62 22       		.uleb128 0x22
 2521 0c63 D9010000 		.4byte	.LASF139
 2522 0c67 01       		.byte	0x1
 2523 0c68 84       		.byte	0x84
 2524 0c69 DD0B0000 		.4byte	0xbdd
 2525 0c6d 05       		.byte	0x5
 2526 0c6e 03       		.byte	0x3
 2527 0c6f 00000000 		.4byte	queueBuffer
 2528 0c73 19       		.uleb128 0x19
 2529 0c74 8D020000 		.4byte	0x28d
 2530 0c78 830C0000 		.4byte	0xc83
 2531 0c7c 1A       		.uleb128 0x1a
 2532 0c7d 3B000000 		.4byte	0x3b
ARM GAS  /tmp/cc84nPaL.s 			page 46


 2533 0c81 35       		.byte	0x35
 2534 0c82 00       		.byte	0x0
 2535 0c83 22       		.uleb128 0x22
 2536 0c84 B1010000 		.4byte	.LASF140
 2537 0c88 01       		.byte	0x1
 2538 0c89 9D       		.byte	0x9d
 2539 0c8a 730C0000 		.4byte	0xc73
 2540 0c8e 05       		.byte	0x5
 2541 0c8f 03       		.byte	0x3
 2542 0c90 00000000 		.4byte	waOutput
 2543 0c94 33       		.uleb128 0x33
 2544 0c95 F2040000 		.4byte	.LASF132
 2545 0c99 08       		.byte	0x8
 2546 0c9a 72       		.byte	0x72
 2547 0c9b B8030000 		.4byte	0x3b8
 2548 0c9f 01       		.byte	0x1
 2549 0ca0 01       		.byte	0x1
 2550 0ca1 34       		.uleb128 0x34
 2551 0ca2 94000000 		.4byte	.LASF133
 2552 0ca6 11       		.byte	0x11
 2553 0ca7 9404     		.2byte	0x494
 2554 0ca9 AF060000 		.4byte	0x6af
 2555 0cad 01       		.byte	0x1
 2556 0cae 01       		.byte	0x1
 2557 0caf 35       		.uleb128 0x35
 2558 0cb0 53443100 		.ascii	"SD1\000"
 2559 0cb4 12       		.byte	0x12
 2560 0cb5 FB       		.byte	0xfb
 2561 0cb6 C0070000 		.4byte	0x7c0
 2562 0cba 01       		.byte	0x1
 2563 0cbb 01       		.byte	0x1
 2564 0cbc 00       		.byte	0x0
 2565              		.section	.debug_abbrev
 2566 0000 01       		.uleb128 0x1
 2567 0001 11       		.uleb128 0x11
 2568 0002 01       		.byte	0x1
 2569 0003 25       		.uleb128 0x25
 2570 0004 0E       		.uleb128 0xe
 2571 0005 13       		.uleb128 0x13
 2572 0006 0B       		.uleb128 0xb
 2573 0007 03       		.uleb128 0x3
 2574 0008 0E       		.uleb128 0xe
 2575 0009 1B       		.uleb128 0x1b
 2576 000a 0E       		.uleb128 0xe
 2577 000b 11       		.uleb128 0x11
 2578 000c 01       		.uleb128 0x1
 2579 000d 52       		.uleb128 0x52
 2580 000e 01       		.uleb128 0x1
 2581 000f 55       		.uleb128 0x55
 2582 0010 06       		.uleb128 0x6
 2583 0011 10       		.uleb128 0x10
 2584 0012 06       		.uleb128 0x6
 2585 0013 00       		.byte	0x0
 2586 0014 00       		.byte	0x0
 2587 0015 02       		.uleb128 0x2
 2588 0016 24       		.uleb128 0x24
 2589 0017 00       		.byte	0x0
ARM GAS  /tmp/cc84nPaL.s 			page 47


 2590 0018 0B       		.uleb128 0xb
 2591 0019 0B       		.uleb128 0xb
 2592 001a 3E       		.uleb128 0x3e
 2593 001b 0B       		.uleb128 0xb
 2594 001c 03       		.uleb128 0x3
 2595 001d 08       		.uleb128 0x8
 2596 001e 00       		.byte	0x0
 2597 001f 00       		.byte	0x0
 2598 0020 03       		.uleb128 0x3
 2599 0021 16       		.uleb128 0x16
 2600 0022 00       		.byte	0x0
 2601 0023 03       		.uleb128 0x3
 2602 0024 0E       		.uleb128 0xe
 2603 0025 3A       		.uleb128 0x3a
 2604 0026 0B       		.uleb128 0xb
 2605 0027 3B       		.uleb128 0x3b
 2606 0028 0B       		.uleb128 0xb
 2607 0029 49       		.uleb128 0x49
 2608 002a 13       		.uleb128 0x13
 2609 002b 00       		.byte	0x0
 2610 002c 00       		.byte	0x0
 2611 002d 04       		.uleb128 0x4
 2612 002e 24       		.uleb128 0x24
 2613 002f 00       		.byte	0x0
 2614 0030 0B       		.uleb128 0xb
 2615 0031 0B       		.uleb128 0xb
 2616 0032 3E       		.uleb128 0x3e
 2617 0033 0B       		.uleb128 0xb
 2618 0034 03       		.uleb128 0x3
 2619 0035 0E       		.uleb128 0xe
 2620 0036 00       		.byte	0x0
 2621 0037 00       		.byte	0x0
 2622 0038 05       		.uleb128 0x5
 2623 0039 13       		.uleb128 0x13
 2624 003a 01       		.byte	0x1
 2625 003b 03       		.uleb128 0x3
 2626 003c 0E       		.uleb128 0xe
 2627 003d 0B       		.uleb128 0xb
 2628 003e 0B       		.uleb128 0xb
 2629 003f 3A       		.uleb128 0x3a
 2630 0040 0B       		.uleb128 0xb
 2631 0041 3B       		.uleb128 0x3b
 2632 0042 0B       		.uleb128 0xb
 2633 0043 01       		.uleb128 0x1
 2634 0044 13       		.uleb128 0x13
 2635 0045 00       		.byte	0x0
 2636 0046 00       		.byte	0x0
 2637 0047 06       		.uleb128 0x6
 2638 0048 0D       		.uleb128 0xd
 2639 0049 00       		.byte	0x0
 2640 004a 03       		.uleb128 0x3
 2641 004b 0E       		.uleb128 0xe
 2642 004c 3A       		.uleb128 0x3a
 2643 004d 0B       		.uleb128 0xb
 2644 004e 3B       		.uleb128 0x3b
 2645 004f 0B       		.uleb128 0xb
 2646 0050 49       		.uleb128 0x49
ARM GAS  /tmp/cc84nPaL.s 			page 48


 2647 0051 13       		.uleb128 0x13
 2648 0052 38       		.uleb128 0x38
 2649 0053 0A       		.uleb128 0xa
 2650 0054 00       		.byte	0x0
 2651 0055 00       		.byte	0x0
 2652 0056 07       		.uleb128 0x7
 2653 0057 0D       		.uleb128 0xd
 2654 0058 00       		.byte	0x0
 2655 0059 03       		.uleb128 0x3
 2656 005a 08       		.uleb128 0x8
 2657 005b 3A       		.uleb128 0x3a
 2658 005c 0B       		.uleb128 0xb
 2659 005d 3B       		.uleb128 0x3b
 2660 005e 0B       		.uleb128 0xb
 2661 005f 49       		.uleb128 0x49
 2662 0060 13       		.uleb128 0x13
 2663 0061 38       		.uleb128 0x38
 2664 0062 0A       		.uleb128 0xa
 2665 0063 00       		.byte	0x0
 2666 0064 00       		.byte	0x0
 2667 0065 08       		.uleb128 0x8
 2668 0066 13       		.uleb128 0x13
 2669 0067 01       		.byte	0x1
 2670 0068 0B       		.uleb128 0xb
 2671 0069 0B       		.uleb128 0xb
 2672 006a 3A       		.uleb128 0x3a
 2673 006b 0B       		.uleb128 0xb
 2674 006c 3B       		.uleb128 0x3b
 2675 006d 0B       		.uleb128 0xb
 2676 006e 01       		.uleb128 0x1
 2677 006f 13       		.uleb128 0x13
 2678 0070 00       		.byte	0x0
 2679 0071 00       		.byte	0x0
 2680 0072 09       		.uleb128 0x9
 2681 0073 0F       		.uleb128 0xf
 2682 0074 00       		.byte	0x0
 2683 0075 0B       		.uleb128 0xb
 2684 0076 0B       		.uleb128 0xb
 2685 0077 49       		.uleb128 0x49
 2686 0078 13       		.uleb128 0x13
 2687 0079 00       		.byte	0x0
 2688 007a 00       		.byte	0x0
 2689 007b 0A       		.uleb128 0xa
 2690 007c 0F       		.uleb128 0xf
 2691 007d 00       		.byte	0x0
 2692 007e 0B       		.uleb128 0xb
 2693 007f 0B       		.uleb128 0xb
 2694 0080 00       		.byte	0x0
 2695 0081 00       		.byte	0x0
 2696 0082 0B       		.uleb128 0xb
 2697 0083 0D       		.uleb128 0xd
 2698 0084 00       		.byte	0x0
 2699 0085 03       		.uleb128 0x3
 2700 0086 08       		.uleb128 0x8
 2701 0087 3A       		.uleb128 0x3a
 2702 0088 0B       		.uleb128 0xb
 2703 0089 3B       		.uleb128 0x3b
ARM GAS  /tmp/cc84nPaL.s 			page 49


 2704 008a 05       		.uleb128 0x5
 2705 008b 49       		.uleb128 0x49
 2706 008c 13       		.uleb128 0x13
 2707 008d 38       		.uleb128 0x38
 2708 008e 0A       		.uleb128 0xa
 2709 008f 00       		.byte	0x0
 2710 0090 00       		.byte	0x0
 2711 0091 0C       		.uleb128 0xc
 2712 0092 13       		.uleb128 0x13
 2713 0093 01       		.byte	0x1
 2714 0094 03       		.uleb128 0x3
 2715 0095 0E       		.uleb128 0xe
 2716 0096 0B       		.uleb128 0xb
 2717 0097 0B       		.uleb128 0xb
 2718 0098 3A       		.uleb128 0x3a
 2719 0099 0B       		.uleb128 0xb
 2720 009a 3B       		.uleb128 0x3b
 2721 009b 05       		.uleb128 0x5
 2722 009c 01       		.uleb128 0x1
 2723 009d 13       		.uleb128 0x13
 2724 009e 00       		.byte	0x0
 2725 009f 00       		.byte	0x0
 2726 00a0 0D       		.uleb128 0xd
 2727 00a1 35       		.uleb128 0x35
 2728 00a2 00       		.byte	0x0
 2729 00a3 49       		.uleb128 0x49
 2730 00a4 13       		.uleb128 0x13
 2731 00a5 00       		.byte	0x0
 2732 00a6 00       		.byte	0x0
 2733 00a7 0E       		.uleb128 0xe
 2734 00a8 17       		.uleb128 0x17
 2735 00a9 01       		.byte	0x1
 2736 00aa 0B       		.uleb128 0xb
 2737 00ab 0B       		.uleb128 0xb
 2738 00ac 3A       		.uleb128 0x3a
 2739 00ad 0B       		.uleb128 0xb
 2740 00ae 3B       		.uleb128 0x3b
 2741 00af 0B       		.uleb128 0xb
 2742 00b0 01       		.uleb128 0x1
 2743 00b1 13       		.uleb128 0x13
 2744 00b2 00       		.byte	0x0
 2745 00b3 00       		.byte	0x0
 2746 00b4 0F       		.uleb128 0xf
 2747 00b5 0D       		.uleb128 0xd
 2748 00b6 00       		.byte	0x0
 2749 00b7 03       		.uleb128 0x3
 2750 00b8 0E       		.uleb128 0xe
 2751 00b9 3A       		.uleb128 0x3a
 2752 00ba 0B       		.uleb128 0xb
 2753 00bb 3B       		.uleb128 0x3b
 2754 00bc 0B       		.uleb128 0xb
 2755 00bd 49       		.uleb128 0x49
 2756 00be 13       		.uleb128 0x13
 2757 00bf 00       		.byte	0x0
 2758 00c0 00       		.byte	0x0
 2759 00c1 10       		.uleb128 0x10
 2760 00c2 26       		.uleb128 0x26
ARM GAS  /tmp/cc84nPaL.s 			page 50


 2761 00c3 00       		.byte	0x0
 2762 00c4 49       		.uleb128 0x49
 2763 00c5 13       		.uleb128 0x13
 2764 00c6 00       		.byte	0x0
 2765 00c7 00       		.byte	0x0
 2766 00c8 11       		.uleb128 0x11
 2767 00c9 15       		.uleb128 0x15
 2768 00ca 01       		.byte	0x1
 2769 00cb 27       		.uleb128 0x27
 2770 00cc 0C       		.uleb128 0xc
 2771 00cd 01       		.uleb128 0x1
 2772 00ce 13       		.uleb128 0x13
 2773 00cf 00       		.byte	0x0
 2774 00d0 00       		.byte	0x0
 2775 00d1 12       		.uleb128 0x12
 2776 00d2 05       		.uleb128 0x5
 2777 00d3 00       		.byte	0x0
 2778 00d4 49       		.uleb128 0x49
 2779 00d5 13       		.uleb128 0x13
 2780 00d6 00       		.byte	0x0
 2781 00d7 00       		.byte	0x0
 2782 00d8 13       		.uleb128 0x13
 2783 00d9 15       		.uleb128 0x15
 2784 00da 01       		.byte	0x1
 2785 00db 27       		.uleb128 0x27
 2786 00dc 0C       		.uleb128 0xc
 2787 00dd 49       		.uleb128 0x49
 2788 00de 13       		.uleb128 0x13
 2789 00df 01       		.uleb128 0x1
 2790 00e0 13       		.uleb128 0x13
 2791 00e1 00       		.byte	0x0
 2792 00e2 00       		.byte	0x0
 2793 00e3 14       		.uleb128 0x14
 2794 00e4 16       		.uleb128 0x16
 2795 00e5 00       		.byte	0x0
 2796 00e6 03       		.uleb128 0x3
 2797 00e7 0E       		.uleb128 0xe
 2798 00e8 3A       		.uleb128 0x3a
 2799 00e9 0B       		.uleb128 0xb
 2800 00ea 3B       		.uleb128 0x3b
 2801 00eb 05       		.uleb128 0x5
 2802 00ec 49       		.uleb128 0x49
 2803 00ed 13       		.uleb128 0x13
 2804 00ee 00       		.byte	0x0
 2805 00ef 00       		.byte	0x0
 2806 00f0 15       		.uleb128 0x15
 2807 00f1 13       		.uleb128 0x13
 2808 00f2 01       		.byte	0x1
 2809 00f3 0B       		.uleb128 0xb
 2810 00f4 0B       		.uleb128 0xb
 2811 00f5 3A       		.uleb128 0x3a
 2812 00f6 0B       		.uleb128 0xb
 2813 00f7 3B       		.uleb128 0x3b
 2814 00f8 05       		.uleb128 0x5
 2815 00f9 01       		.uleb128 0x1
 2816 00fa 13       		.uleb128 0x13
 2817 00fb 00       		.byte	0x0
ARM GAS  /tmp/cc84nPaL.s 			page 51


 2818 00fc 00       		.byte	0x0
 2819 00fd 16       		.uleb128 0x16
 2820 00fe 0D       		.uleb128 0xd
 2821 00ff 00       		.byte	0x0
 2822 0100 03       		.uleb128 0x3
 2823 0101 0E       		.uleb128 0xe
 2824 0102 3A       		.uleb128 0x3a
 2825 0103 0B       		.uleb128 0xb
 2826 0104 3B       		.uleb128 0x3b
 2827 0105 05       		.uleb128 0x5
 2828 0106 49       		.uleb128 0x49
 2829 0107 13       		.uleb128 0x13
 2830 0108 38       		.uleb128 0x38
 2831 0109 0A       		.uleb128 0xa
 2832 010a 00       		.byte	0x0
 2833 010b 00       		.byte	0x0
 2834 010c 17       		.uleb128 0x17
 2835 010d 04       		.uleb128 0x4
 2836 010e 01       		.byte	0x1
 2837 010f 0B       		.uleb128 0xb
 2838 0110 0B       		.uleb128 0xb
 2839 0111 3A       		.uleb128 0x3a
 2840 0112 0B       		.uleb128 0xb
 2841 0113 3B       		.uleb128 0x3b
 2842 0114 0B       		.uleb128 0xb
 2843 0115 01       		.uleb128 0x1
 2844 0116 13       		.uleb128 0x13
 2845 0117 00       		.byte	0x0
 2846 0118 00       		.byte	0x0
 2847 0119 18       		.uleb128 0x18
 2848 011a 28       		.uleb128 0x28
 2849 011b 00       		.byte	0x0
 2850 011c 03       		.uleb128 0x3
 2851 011d 0E       		.uleb128 0xe
 2852 011e 1C       		.uleb128 0x1c
 2853 011f 0D       		.uleb128 0xd
 2854 0120 00       		.byte	0x0
 2855 0121 00       		.byte	0x0
 2856 0122 19       		.uleb128 0x19
 2857 0123 01       		.uleb128 0x1
 2858 0124 01       		.byte	0x1
 2859 0125 49       		.uleb128 0x49
 2860 0126 13       		.uleb128 0x13
 2861 0127 01       		.uleb128 0x1
 2862 0128 13       		.uleb128 0x13
 2863 0129 00       		.byte	0x0
 2864 012a 00       		.byte	0x0
 2865 012b 1A       		.uleb128 0x1a
 2866 012c 21       		.uleb128 0x21
 2867 012d 00       		.byte	0x0
 2868 012e 49       		.uleb128 0x49
 2869 012f 13       		.uleb128 0x13
 2870 0130 2F       		.uleb128 0x2f
 2871 0131 0B       		.uleb128 0xb
 2872 0132 00       		.byte	0x0
 2873 0133 00       		.byte	0x0
 2874 0134 1B       		.uleb128 0x1b
ARM GAS  /tmp/cc84nPaL.s 			page 52


 2875 0135 2E       		.uleb128 0x2e
 2876 0136 01       		.byte	0x1
 2877 0137 03       		.uleb128 0x3
 2878 0138 0E       		.uleb128 0xe
 2879 0139 3A       		.uleb128 0x3a
 2880 013a 0B       		.uleb128 0xb
 2881 013b 3B       		.uleb128 0x3b
 2882 013c 0B       		.uleb128 0xb
 2883 013d 27       		.uleb128 0x27
 2884 013e 0C       		.uleb128 0xc
 2885 013f 20       		.uleb128 0x20
 2886 0140 0B       		.uleb128 0xb
 2887 0141 01       		.uleb128 0x1
 2888 0142 13       		.uleb128 0x13
 2889 0143 00       		.byte	0x0
 2890 0144 00       		.byte	0x0
 2891 0145 1C       		.uleb128 0x1c
 2892 0146 34       		.uleb128 0x34
 2893 0147 00       		.byte	0x0
 2894 0148 03       		.uleb128 0x3
 2895 0149 0E       		.uleb128 0xe
 2896 014a 3A       		.uleb128 0x3a
 2897 014b 0B       		.uleb128 0xb
 2898 014c 3B       		.uleb128 0x3b
 2899 014d 0B       		.uleb128 0xb
 2900 014e 49       		.uleb128 0x49
 2901 014f 13       		.uleb128 0x13
 2902 0150 00       		.byte	0x0
 2903 0151 00       		.byte	0x0
 2904 0152 1D       		.uleb128 0x1d
 2905 0153 2E       		.uleb128 0x2e
 2906 0154 00       		.byte	0x0
 2907 0155 03       		.uleb128 0x3
 2908 0156 0E       		.uleb128 0xe
 2909 0157 3A       		.uleb128 0x3a
 2910 0158 0B       		.uleb128 0xb
 2911 0159 3B       		.uleb128 0x3b
 2912 015a 0B       		.uleb128 0xb
 2913 015b 27       		.uleb128 0x27
 2914 015c 0C       		.uleb128 0xc
 2915 015d 20       		.uleb128 0x20
 2916 015e 0B       		.uleb128 0xb
 2917 015f 00       		.byte	0x0
 2918 0160 00       		.byte	0x0
 2919 0161 1E       		.uleb128 0x1e
 2920 0162 05       		.uleb128 0x5
 2921 0163 00       		.byte	0x0
 2922 0164 03       		.uleb128 0x3
 2923 0165 08       		.uleb128 0x8
 2924 0166 3A       		.uleb128 0x3a
 2925 0167 0B       		.uleb128 0xb
 2926 0168 3B       		.uleb128 0x3b
 2927 0169 0B       		.uleb128 0xb
 2928 016a 49       		.uleb128 0x49
 2929 016b 13       		.uleb128 0x13
 2930 016c 00       		.byte	0x0
 2931 016d 00       		.byte	0x0
ARM GAS  /tmp/cc84nPaL.s 			page 53


 2932 016e 1F       		.uleb128 0x1f
 2933 016f 34       		.uleb128 0x34
 2934 0170 00       		.byte	0x0
 2935 0171 03       		.uleb128 0x3
 2936 0172 08       		.uleb128 0x8
 2937 0173 3A       		.uleb128 0x3a
 2938 0174 0B       		.uleb128 0xb
 2939 0175 3B       		.uleb128 0x3b
 2940 0176 0B       		.uleb128 0xb
 2941 0177 49       		.uleb128 0x49
 2942 0178 13       		.uleb128 0x13
 2943 0179 00       		.byte	0x0
 2944 017a 00       		.byte	0x0
 2945 017b 20       		.uleb128 0x20
 2946 017c 2E       		.uleb128 0x2e
 2947 017d 01       		.byte	0x1
 2948 017e 03       		.uleb128 0x3
 2949 017f 0E       		.uleb128 0xe
 2950 0180 3A       		.uleb128 0x3a
 2951 0181 0B       		.uleb128 0xb
 2952 0182 3B       		.uleb128 0x3b
 2953 0183 0B       		.uleb128 0xb
 2954 0184 27       		.uleb128 0x27
 2955 0185 0C       		.uleb128 0xc
 2956 0186 11       		.uleb128 0x11
 2957 0187 01       		.uleb128 0x1
 2958 0188 12       		.uleb128 0x12
 2959 0189 01       		.uleb128 0x1
 2960 018a 40       		.uleb128 0x40
 2961 018b 06       		.uleb128 0x6
 2962 018c 01       		.uleb128 0x1
 2963 018d 13       		.uleb128 0x13
 2964 018e 00       		.byte	0x0
 2965 018f 00       		.byte	0x0
 2966 0190 21       		.uleb128 0x21
 2967 0191 05       		.uleb128 0x5
 2968 0192 00       		.byte	0x0
 2969 0193 03       		.uleb128 0x3
 2970 0194 0E       		.uleb128 0xe
 2971 0195 3A       		.uleb128 0x3a
 2972 0196 0B       		.uleb128 0xb
 2973 0197 3B       		.uleb128 0x3b
 2974 0198 0B       		.uleb128 0xb
 2975 0199 49       		.uleb128 0x49
 2976 019a 13       		.uleb128 0x13
 2977 019b 02       		.uleb128 0x2
 2978 019c 06       		.uleb128 0x6
 2979 019d 00       		.byte	0x0
 2980 019e 00       		.byte	0x0
 2981 019f 22       		.uleb128 0x22
 2982 01a0 34       		.uleb128 0x34
 2983 01a1 00       		.byte	0x0
 2984 01a2 03       		.uleb128 0x3
 2985 01a3 0E       		.uleb128 0xe
 2986 01a4 3A       		.uleb128 0x3a
 2987 01a5 0B       		.uleb128 0xb
 2988 01a6 3B       		.uleb128 0x3b
ARM GAS  /tmp/cc84nPaL.s 			page 54


 2989 01a7 0B       		.uleb128 0xb
 2990 01a8 49       		.uleb128 0x49
 2991 01a9 13       		.uleb128 0x13
 2992 01aa 02       		.uleb128 0x2
 2993 01ab 0A       		.uleb128 0xa
 2994 01ac 00       		.byte	0x0
 2995 01ad 00       		.byte	0x0
 2996 01ae 23       		.uleb128 0x23
 2997 01af 2E       		.uleb128 0x2e
 2998 01b0 01       		.byte	0x1
 2999 01b1 03       		.uleb128 0x3
 3000 01b2 0E       		.uleb128 0xe
 3001 01b3 3A       		.uleb128 0x3a
 3002 01b4 0B       		.uleb128 0xb
 3003 01b5 3B       		.uleb128 0x3b
 3004 01b6 0B       		.uleb128 0xb
 3005 01b7 27       		.uleb128 0x27
 3006 01b8 0C       		.uleb128 0xc
 3007 01b9 11       		.uleb128 0x11
 3008 01ba 01       		.uleb128 0x1
 3009 01bb 12       		.uleb128 0x12
 3010 01bc 01       		.uleb128 0x1
 3011 01bd 40       		.uleb128 0x40
 3012 01be 0A       		.uleb128 0xa
 3013 01bf 01       		.uleb128 0x1
 3014 01c0 13       		.uleb128 0x13
 3015 01c1 00       		.byte	0x0
 3016 01c2 00       		.byte	0x0
 3017 01c3 24       		.uleb128 0x24
 3018 01c4 2E       		.uleb128 0x2e
 3019 01c5 01       		.byte	0x1
 3020 01c6 03       		.uleb128 0x3
 3021 01c7 0E       		.uleb128 0xe
 3022 01c8 3A       		.uleb128 0x3a
 3023 01c9 0B       		.uleb128 0xb
 3024 01ca 3B       		.uleb128 0x3b
 3025 01cb 0B       		.uleb128 0xb
 3026 01cc 27       		.uleb128 0x27
 3027 01cd 0C       		.uleb128 0xc
 3028 01ce 49       		.uleb128 0x49
 3029 01cf 13       		.uleb128 0x13
 3030 01d0 11       		.uleb128 0x11
 3031 01d1 01       		.uleb128 0x1
 3032 01d2 12       		.uleb128 0x12
 3033 01d3 01       		.uleb128 0x1
 3034 01d4 40       		.uleb128 0x40
 3035 01d5 06       		.uleb128 0x6
 3036 01d6 01       		.uleb128 0x1
 3037 01d7 13       		.uleb128 0x13
 3038 01d8 00       		.byte	0x0
 3039 01d9 00       		.byte	0x0
 3040 01da 25       		.uleb128 0x25
 3041 01db 05       		.uleb128 0x5
 3042 01dc 00       		.byte	0x0
 3043 01dd 03       		.uleb128 0x3
 3044 01de 08       		.uleb128 0x8
 3045 01df 3A       		.uleb128 0x3a
ARM GAS  /tmp/cc84nPaL.s 			page 55


 3046 01e0 0B       		.uleb128 0xb
 3047 01e1 3B       		.uleb128 0x3b
 3048 01e2 0B       		.uleb128 0xb
 3049 01e3 49       		.uleb128 0x49
 3050 01e4 13       		.uleb128 0x13
 3051 01e5 02       		.uleb128 0x2
 3052 01e6 06       		.uleb128 0x6
 3053 01e7 00       		.byte	0x0
 3054 01e8 00       		.byte	0x0
 3055 01e9 26       		.uleb128 0x26
 3056 01ea 0B       		.uleb128 0xb
 3057 01eb 01       		.byte	0x1
 3058 01ec 11       		.uleb128 0x11
 3059 01ed 01       		.uleb128 0x1
 3060 01ee 12       		.uleb128 0x12
 3061 01ef 01       		.uleb128 0x1
 3062 01f0 00       		.byte	0x0
 3063 01f1 00       		.byte	0x0
 3064 01f2 27       		.uleb128 0x27
 3065 01f3 34       		.uleb128 0x34
 3066 01f4 00       		.byte	0x0
 3067 01f5 03       		.uleb128 0x3
 3068 01f6 08       		.uleb128 0x8
 3069 01f7 3A       		.uleb128 0x3a
 3070 01f8 0B       		.uleb128 0xb
 3071 01f9 3B       		.uleb128 0x3b
 3072 01fa 0B       		.uleb128 0xb
 3073 01fb 49       		.uleb128 0x49
 3074 01fc 13       		.uleb128 0x13
 3075 01fd 02       		.uleb128 0x2
 3076 01fe 06       		.uleb128 0x6
 3077 01ff 00       		.byte	0x0
 3078 0200 00       		.byte	0x0
 3079 0201 28       		.uleb128 0x28
 3080 0202 2E       		.uleb128 0x2e
 3081 0203 01       		.byte	0x1
 3082 0204 3F       		.uleb128 0x3f
 3083 0205 0C       		.uleb128 0xc
 3084 0206 03       		.uleb128 0x3
 3085 0207 0E       		.uleb128 0xe
 3086 0208 3A       		.uleb128 0x3a
 3087 0209 0B       		.uleb128 0xb
 3088 020a 3B       		.uleb128 0x3b
 3089 020b 0B       		.uleb128 0xb
 3090 020c 27       		.uleb128 0x27
 3091 020d 0C       		.uleb128 0xc
 3092 020e 11       		.uleb128 0x11
 3093 020f 01       		.uleb128 0x1
 3094 0210 12       		.uleb128 0x12
 3095 0211 01       		.uleb128 0x1
 3096 0212 40       		.uleb128 0x40
 3097 0213 06       		.uleb128 0x6
 3098 0214 01       		.uleb128 0x1
 3099 0215 13       		.uleb128 0x13
 3100 0216 00       		.byte	0x0
 3101 0217 00       		.byte	0x0
 3102 0218 29       		.uleb128 0x29
ARM GAS  /tmp/cc84nPaL.s 			page 56


 3103 0219 1D       		.uleb128 0x1d
 3104 021a 00       		.byte	0x0
 3105 021b 31       		.uleb128 0x31
 3106 021c 13       		.uleb128 0x13
 3107 021d 11       		.uleb128 0x11
 3108 021e 01       		.uleb128 0x1
 3109 021f 12       		.uleb128 0x12
 3110 0220 01       		.uleb128 0x1
 3111 0221 58       		.uleb128 0x58
 3112 0222 0B       		.uleb128 0xb
 3113 0223 59       		.uleb128 0x59
 3114 0224 0B       		.uleb128 0xb
 3115 0225 00       		.byte	0x0
 3116 0226 00       		.byte	0x0
 3117 0227 2A       		.uleb128 0x2a
 3118 0228 0B       		.uleb128 0xb
 3119 0229 01       		.byte	0x1
 3120 022a 55       		.uleb128 0x55
 3121 022b 06       		.uleb128 0x6
 3122 022c 00       		.byte	0x0
 3123 022d 00       		.byte	0x0
 3124 022e 2B       		.uleb128 0x2b
 3125 022f 34       		.uleb128 0x34
 3126 0230 00       		.byte	0x0
 3127 0231 03       		.uleb128 0x3
 3128 0232 0E       		.uleb128 0xe
 3129 0233 3A       		.uleb128 0x3a
 3130 0234 0B       		.uleb128 0xb
 3131 0235 3B       		.uleb128 0x3b
 3132 0236 0B       		.uleb128 0xb
 3133 0237 49       		.uleb128 0x49
 3134 0238 13       		.uleb128 0x13
 3135 0239 02       		.uleb128 0x2
 3136 023a 06       		.uleb128 0x6
 3137 023b 00       		.byte	0x0
 3138 023c 00       		.byte	0x0
 3139 023d 2C       		.uleb128 0x2c
 3140 023e 1D       		.uleb128 0x1d
 3141 023f 01       		.byte	0x1
 3142 0240 31       		.uleb128 0x31
 3143 0241 13       		.uleb128 0x13
 3144 0242 52       		.uleb128 0x52
 3145 0243 01       		.uleb128 0x1
 3146 0244 55       		.uleb128 0x55
 3147 0245 06       		.uleb128 0x6
 3148 0246 58       		.uleb128 0x58
 3149 0247 0B       		.uleb128 0xb
 3150 0248 59       		.uleb128 0x59
 3151 0249 0B       		.uleb128 0xb
 3152 024a 00       		.byte	0x0
 3153 024b 00       		.byte	0x0
 3154 024c 2D       		.uleb128 0x2d
 3155 024d 05       		.uleb128 0x5
 3156 024e 00       		.byte	0x0
 3157 024f 31       		.uleb128 0x31
 3158 0250 13       		.uleb128 0x13
 3159 0251 02       		.uleb128 0x2
ARM GAS  /tmp/cc84nPaL.s 			page 57


 3160 0252 06       		.uleb128 0x6
 3161 0253 00       		.byte	0x0
 3162 0254 00       		.byte	0x0
 3163 0255 2E       		.uleb128 0x2e
 3164 0256 34       		.uleb128 0x34
 3165 0257 00       		.byte	0x0
 3166 0258 31       		.uleb128 0x31
 3167 0259 13       		.uleb128 0x13
 3168 025a 02       		.uleb128 0x2
 3169 025b 06       		.uleb128 0x6
 3170 025c 00       		.byte	0x0
 3171 025d 00       		.byte	0x0
 3172 025e 2F       		.uleb128 0x2f
 3173 025f 1D       		.uleb128 0x1d
 3174 0260 01       		.byte	0x1
 3175 0261 31       		.uleb128 0x31
 3176 0262 13       		.uleb128 0x13
 3177 0263 11       		.uleb128 0x11
 3178 0264 01       		.uleb128 0x1
 3179 0265 12       		.uleb128 0x12
 3180 0266 01       		.uleb128 0x1
 3181 0267 58       		.uleb128 0x58
 3182 0268 0B       		.uleb128 0xb
 3183 0269 59       		.uleb128 0x59
 3184 026a 0B       		.uleb128 0xb
 3185 026b 00       		.byte	0x0
 3186 026c 00       		.byte	0x0
 3187 026d 30       		.uleb128 0x30
 3188 026e 2E       		.uleb128 0x2e
 3189 026f 01       		.byte	0x1
 3190 0270 3F       		.uleb128 0x3f
 3191 0271 0C       		.uleb128 0xc
 3192 0272 03       		.uleb128 0x3
 3193 0273 0E       		.uleb128 0xe
 3194 0274 3A       		.uleb128 0x3a
 3195 0275 0B       		.uleb128 0xb
 3196 0276 3B       		.uleb128 0x3b
 3197 0277 0B       		.uleb128 0xb
 3198 0278 49       		.uleb128 0x49
 3199 0279 13       		.uleb128 0x13
 3200 027a 3C       		.uleb128 0x3c
 3201 027b 0C       		.uleb128 0xc
 3202 027c 00       		.byte	0x0
 3203 027d 00       		.byte	0x0
 3204 027e 31       		.uleb128 0x31
 3205 027f 18       		.uleb128 0x18
 3206 0280 00       		.byte	0x0
 3207 0281 00       		.byte	0x0
 3208 0282 00       		.byte	0x0
 3209 0283 32       		.uleb128 0x32
 3210 0284 2E       		.uleb128 0x2e
 3211 0285 01       		.byte	0x1
 3212 0286 3F       		.uleb128 0x3f
 3213 0287 0C       		.uleb128 0xc
 3214 0288 03       		.uleb128 0x3
 3215 0289 0E       		.uleb128 0xe
 3216 028a 3A       		.uleb128 0x3a
ARM GAS  /tmp/cc84nPaL.s 			page 58


 3217 028b 0B       		.uleb128 0xb
 3218 028c 3B       		.uleb128 0x3b
 3219 028d 0B       		.uleb128 0xb
 3220 028e 27       		.uleb128 0x27
 3221 028f 0C       		.uleb128 0xc
 3222 0290 49       		.uleb128 0x49
 3223 0291 13       		.uleb128 0x13
 3224 0292 11       		.uleb128 0x11
 3225 0293 01       		.uleb128 0x1
 3226 0294 12       		.uleb128 0x12
 3227 0295 01       		.uleb128 0x1
 3228 0296 40       		.uleb128 0x40
 3229 0297 06       		.uleb128 0x6
 3230 0298 01       		.uleb128 0x1
 3231 0299 13       		.uleb128 0x13
 3232 029a 00       		.byte	0x0
 3233 029b 00       		.byte	0x0
 3234 029c 33       		.uleb128 0x33
 3235 029d 34       		.uleb128 0x34
 3236 029e 00       		.byte	0x0
 3237 029f 03       		.uleb128 0x3
 3238 02a0 0E       		.uleb128 0xe
 3239 02a1 3A       		.uleb128 0x3a
 3240 02a2 0B       		.uleb128 0xb
 3241 02a3 3B       		.uleb128 0x3b
 3242 02a4 0B       		.uleb128 0xb
 3243 02a5 49       		.uleb128 0x49
 3244 02a6 13       		.uleb128 0x13
 3245 02a7 3F       		.uleb128 0x3f
 3246 02a8 0C       		.uleb128 0xc
 3247 02a9 3C       		.uleb128 0x3c
 3248 02aa 0C       		.uleb128 0xc
 3249 02ab 00       		.byte	0x0
 3250 02ac 00       		.byte	0x0
 3251 02ad 34       		.uleb128 0x34
 3252 02ae 34       		.uleb128 0x34
 3253 02af 00       		.byte	0x0
 3254 02b0 03       		.uleb128 0x3
 3255 02b1 0E       		.uleb128 0xe
 3256 02b2 3A       		.uleb128 0x3a
 3257 02b3 0B       		.uleb128 0xb
 3258 02b4 3B       		.uleb128 0x3b
 3259 02b5 05       		.uleb128 0x5
 3260 02b6 49       		.uleb128 0x49
 3261 02b7 13       		.uleb128 0x13
 3262 02b8 3F       		.uleb128 0x3f
 3263 02b9 0C       		.uleb128 0xc
 3264 02ba 3C       		.uleb128 0x3c
 3265 02bb 0C       		.uleb128 0xc
 3266 02bc 00       		.byte	0x0
 3267 02bd 00       		.byte	0x0
 3268 02be 35       		.uleb128 0x35
 3269 02bf 34       		.uleb128 0x34
 3270 02c0 00       		.byte	0x0
 3271 02c1 03       		.uleb128 0x3
 3272 02c2 08       		.uleb128 0x8
 3273 02c3 3A       		.uleb128 0x3a
ARM GAS  /tmp/cc84nPaL.s 			page 59


 3274 02c4 0B       		.uleb128 0xb
 3275 02c5 3B       		.uleb128 0x3b
 3276 02c6 0B       		.uleb128 0xb
 3277 02c7 49       		.uleb128 0x49
 3278 02c8 13       		.uleb128 0x13
 3279 02c9 3F       		.uleb128 0x3f
 3280 02ca 0C       		.uleb128 0xc
 3281 02cb 3C       		.uleb128 0x3c
 3282 02cc 0C       		.uleb128 0xc
 3283 02cd 00       		.byte	0x0
 3284 02ce 00       		.byte	0x0
 3285 02cf 00       		.byte	0x0
 3286              		.section	.debug_pubnames,"",%progbits
 3287 0000 4E000000 		.4byte	0x4e
 3288 0004 0200     		.2byte	0x2
 3289 0006 00000000 		.4byte	.Ldebug_info0
 3290 000a BD0C0000 		.4byte	0xcbd
 3291 000e 4F0A0000 		.4byte	0xa4f
 3292 0012 6370755F 		.ascii	"cpu_io_init\000"
 3292      696F5F69 
 3292      6E697400 
 3293 001e 780A0000 		.4byte	0xa78
 3294 0022 6370755F 		.ascii	"cpu_io_process\000"
 3294      696F5F70 
 3294      726F6365 
 3294      737300
 3295 0031 520B0000 		.4byte	0xb52
 3296 0035 77726974 		.ascii	"writeEom\000"
 3296      65456F6D 
 3296      00
 3297 003e 7B0B0000 		.4byte	0xb7b
 3298 0042 77726974 		.ascii	"writeResult\000"
 3298      65526573 
 3298      756C7400 
 3299 004e 00000000 		.4byte	0x0
 3300              		.section	.debug_pubtypes,"",%progbits
 3301 0000 64020000 		.4byte	0x264
 3302 0004 0200     		.2byte	0x2
 3303 0006 00000000 		.4byte	.Ldebug_info0
 3304 000a BD0C0000 		.4byte	0xcbd
 3305 000e 30000000 		.4byte	0x30
 3306 0012 73697A65 		.ascii	"size_t\000"
 3306      5F7400
 3307 0019 49000000 		.4byte	0x49
 3308 001d 75696E74 		.ascii	"uint8_t\000"
 3308      385F7400 
 3309 0025 62000000 		.4byte	0x62
 3310 0029 75696E74 		.ascii	"uint16_t\000"
 3310      31365F74 
 3310      00
 3311 0032 74000000 		.4byte	0x74
 3312 0036 696E7433 		.ascii	"int32_t\000"
 3312      325F7400 
 3313 003e 86000000 		.4byte	0x86
 3314 0042 75696E74 		.ascii	"uint32_t\000"
 3314      33325F74 
 3314      00
ARM GAS  /tmp/cc84nPaL.s 			page 60


 3315 004b 9F000000 		.4byte	0x9f
 3316 004f 75696E74 		.ascii	"uint64_t\000"
 3316      36345F74 
 3316      00
 3317 0058 B1000000 		.4byte	0xb1
 3318 005c 75696E74 		.ascii	"uint_fast16_t\000"
 3318      5F666173 
 3318      7431365F 
 3318      7400
 3319 006a BC000000 		.4byte	0xbc
 3320 006e 626F6F6C 		.ascii	"bool_t\000"
 3320      5F7400
 3321 0075 C7000000 		.4byte	0xc7
 3322 0079 746D6F64 		.ascii	"tmode_t\000"
 3322      655F7400 
 3323 0081 D2000000 		.4byte	0xd2
 3324 0085 74737461 		.ascii	"tstate_t\000"
 3324      74655F74 
 3324      00
 3325 008e DD000000 		.4byte	0xdd
 3326 0092 74707269 		.ascii	"tprio_t\000"
 3326      6F5F7400 
 3327 009a E8000000 		.4byte	0xe8
 3328 009e 6D73675F 		.ascii	"msg_t\000"
 3328      7400
 3329 00a4 F3000000 		.4byte	0xf3
 3330 00a8 6576656E 		.ascii	"eventmask_t\000"
 3330      746D6173 
 3330      6B5F7400 
 3331 00b4 FE000000 		.4byte	0xfe
 3332 00b8 73797374 		.ascii	"systime_t\000"
 3332      696D655F 
 3332      7400
 3333 00c2 09010000 		.4byte	0x109
 3334 00c6 636E745F 		.ascii	"cnt_t\000"
 3334      7400
 3335 00cc 14010000 		.4byte	0x114
 3336 00d0 54687265 		.ascii	"Thread\000"
 3336      616400
 3337 00d7 53020000 		.4byte	0x253
 3338 00db 54687265 		.ascii	"ThreadsQueue\000"
 3338      61647351 
 3338      75657565 
 3338      00
 3339 00e8 75020000 		.4byte	0x275
 3340 00ec 54687265 		.ascii	"ThreadsList\000"
 3340      6164734C 
 3340      69737400 
 3341 00f8 80020000 		.4byte	0x280
 3342 00fc 72656761 		.ascii	"regarm_t\000"
 3342      726D5F74 
 3342      00
 3343 0105 8D020000 		.4byte	0x28d
 3344 0109 73746B61 		.ascii	"stkalign_t\000"
 3344      6C69676E 
 3344      5F7400
 3345 0114 98020000 		.4byte	0x298
ARM GAS  /tmp/cc84nPaL.s 			page 61


 3346 0118 696E7463 		.ascii	"intctx\000"
 3346      747800
 3347 011f 25030000 		.4byte	0x325
 3348 0123 636F6E74 		.ascii	"context\000"
 3348      65787400 
 3349 012b B8030000 		.4byte	0x3b8
 3350 012f 52656164 		.ascii	"ReadyList\000"
 3350      794C6973 
 3350      7400
 3351 0139 C3030000 		.4byte	0x3c3
 3352 013d 4D757465 		.ascii	"Mutex\000"
 3352      7800
 3353 0143 00040000 		.4byte	0x400
 3354 0147 4D757465 		.ascii	"Mutex\000"
 3354      7800
 3355 014d 0B040000 		.4byte	0x40b
 3356 0151 4576656E 		.ascii	"EventListener\000"
 3356      744C6973 
 3356      74656E65 
 3356      7200
 3357 015f 16040000 		.4byte	0x416
 3358 0163 4576656E 		.ascii	"EventListener\000"
 3358      744C6973 
 3358      74656E65 
 3358      7200
 3359 0171 53040000 		.4byte	0x453
 3360 0175 4576656E 		.ascii	"EventSource\000"
 3360      74536F75 
 3360      72636500 
 3361 0181 6E040000 		.4byte	0x46e
 3362 0185 4576656E 		.ascii	"EventSource\000"
 3362      74536F75 
 3362      72636500 
 3363 0191 1F010000 		.4byte	0x11f
 3364 0195 54687265 		.ascii	"Thread\000"
 3364      616400
 3365 019c CC040000 		.4byte	0x4cc
 3366 01a0 47656E65 		.ascii	"GenericQueue\000"
 3366      72696351 
 3366      75657565 
 3366      00
 3367 01ad 46050000 		.4byte	0x546
 3368 01b1 716E6F74 		.ascii	"qnotify_t\000"
 3368      6966795F 
 3368      7400
 3369 01bb D7040000 		.4byte	0x4d7
 3370 01bf 47656E65 		.ascii	"GenericQueue\000"
 3370      72696351 
 3370      75657565 
 3370      00
 3371 01cc 6F050000 		.4byte	0x56f
 3372 01d0 496E7075 		.ascii	"InputQueue\000"
 3372      74517565 
 3372      756500
 3373 01db 7A050000 		.4byte	0x57a
 3374 01df 4F757470 		.ascii	"OutputQueue\000"
 3374      75745175 
ARM GAS  /tmp/cc84nPaL.s 			page 62


 3374      65756500 
 3375 01eb 6B060000 		.4byte	0x66b
 3376 01ef 696F666C 		.ascii	"ioflags_t\000"
 3376      6167735F 
 3376      7400
 3377 01f9 8D060000 		.4byte	0x68d
 3378 01fd 5446756E 		.ascii	"TFunc\000"
 3378      6300
 3379 0203 8E070000 		.4byte	0x78e
 3380 0207 55534152 		.ascii	"USART_TypeDef\000"
 3380      545F5479 
 3380      70654465 
 3380      6600
 3381 0215 B5070000 		.4byte	0x7b5
 3382 0219 73647374 		.ascii	"sdstate_t\000"
 3382      6174655F 
 3382      7400
 3383 0223 C0070000 		.4byte	0x7c0
 3384 0227 53657269 		.ascii	"SerialDriver\000"
 3384      616C4472 
 3384      69766572 
 3384      00
 3385 0234 54080000 		.4byte	0x854
 3386 0238 53657269 		.ascii	"SerialDriverVMT\000"
 3386      616C4472 
 3386      69766572 
 3386      564D5400 
 3387 0248 CB070000 		.4byte	0x7cb
 3388 024c 53657269 		.ascii	"SerialDriver\000"
 3388      616C4472 
 3388      69766572 
 3388      00
 3389 0259 25090000 		.4byte	0x925
 3390 025d 44616343 		.ascii	"DacCfg\000"
 3390      666700
 3391 0264 00000000 		.4byte	0x0
 3392              		.section	.debug_aranges,"",%progbits
 3393 0000 4C000000 		.4byte	0x4c
 3394 0004 0200     		.2byte	0x2
 3395 0006 00000000 		.4byte	.Ldebug_info0
 3396 000a 04       		.byte	0x4
 3397 000b 00       		.byte	0x0
 3398 000c 0000     		.2byte	0x0
 3399 000e 0000     		.2byte	0x0
 3400 0010 00000000 		.4byte	.LFB67
 3401 0014 26000000 		.4byte	.LFE67-.LFB67
 3402 0018 00000000 		.4byte	.LFB66
 3403 001c 06000000 		.4byte	.LFE66-.LFB66
 3404 0020 00000000 		.4byte	.LFB70
 3405 0024 40000000 		.4byte	.LFE70-.LFB70
 3406 0028 00000000 		.4byte	.LFB62
 3407 002c 48000000 		.4byte	.LFE62-.LFB62
 3408 0030 00000000 		.4byte	.LFB63
 3409 0034 EC000000 		.4byte	.LFE63-.LFB63
 3410 0038 00000000 		.4byte	.LFB69
 3411 003c 1C000000 		.4byte	.LFE69-.LFB69
 3412 0040 00000000 		.4byte	.LFB68
ARM GAS  /tmp/cc84nPaL.s 			page 63


 3413 0044 3C000000 		.4byte	.LFE68-.LFB68
 3414 0048 00000000 		.4byte	0x0
 3415 004c 00000000 		.4byte	0x0
 3416              		.section	.debug_ranges,"",%progbits
 3417              	.Ldebug_ranges0:
 3418 0000 0A000000 		.4byte	.LBB15
 3419 0004 0E000000 		.4byte	.LBE15
 3420 0008 2E000000 		.4byte	.LBB28
 3421 000c EC000000 		.4byte	.LBE28
 3422 0010 10000000 		.4byte	.LBB27
 3423 0014 2C000000 		.4byte	.LBE27
 3424 0018 00000000 		.4byte	0x0
 3425 001c 00000000 		.4byte	0x0
 3426 0020 10000000 		.4byte	.LBB16
 3427 0024 14000000 		.4byte	.LBE16
 3428 0028 72000000 		.4byte	.LBB26
 3429 002c EC000000 		.4byte	.LBE26
 3430 0030 2E000000 		.4byte	.LBB25
 3431 0034 5A000000 		.4byte	.LBE25
 3432 0038 00000000 		.4byte	0x0
 3433 003c 00000000 		.4byte	0x0
 3434 0040 12000000 		.4byte	.LBB18
 3435 0044 14000000 		.4byte	.LBE18
 3436 0048 72000000 		.4byte	.LBB24
 3437 004c EC000000 		.4byte	.LBE24
 3438 0050 4A000000 		.4byte	.LBB17
 3439 0054 56000000 		.4byte	.LBE17
 3440 0058 00000000 		.4byte	0x0
 3441 005c 00000000 		.4byte	0x0
 3442 0060 12000000 		.4byte	.LBB20
 3443 0064 14000000 		.4byte	.LBE20
 3444 0068 72000000 		.4byte	.LBB23
 3445 006c EC000000 		.4byte	.LBE23
 3446 0070 4A000000 		.4byte	.LBB19
 3447 0074 56000000 		.4byte	.LBE19
 3448 0078 00000000 		.4byte	0x0
 3449 007c 00000000 		.4byte	0x0
 3450 0080 00000000 		.4byte	.LFB67
 3451 0084 26000000 		.4byte	.LFE67
 3452 0088 00000000 		.4byte	.LFB66
 3453 008c 06000000 		.4byte	.LFE66
 3454 0090 00000000 		.4byte	.LFB70
 3455 0094 40000000 		.4byte	.LFE70
 3456 0098 00000000 		.4byte	.LFB62
 3457 009c 48000000 		.4byte	.LFE62
 3458 00a0 00000000 		.4byte	.LFB63
 3459 00a4 EC000000 		.4byte	.LFE63
 3460 00a8 00000000 		.4byte	.LFB69
 3461 00ac 1C000000 		.4byte	.LFE69
 3462 00b0 00000000 		.4byte	.LFB68
 3463 00b4 3C000000 		.4byte	.LFE68
 3464 00b8 00000000 		.4byte	0x0
 3465 00bc 00000000 		.4byte	0x0
 3466              		.section	.debug_str,"MS",%progbits,1
 3467              	.LASF19:
 3468 0000 74707269 		.ascii	"tprio_t\000"
 3468      6F5F7400 
ARM GAS  /tmp/cc84nPaL.s 			page 64


 3469              	.LASF136:
 3470 0008 61726773 		.ascii	"args_cnt\000"
 3470      5F636E74 
 3470      00
 3471              	.LASF130:
 3472 0011 77726974 		.ascii	"writeEom\000"
 3472      65456F6D 
 3472      00
 3473              	.LASF2:
 3474 001a 73697A65 		.ascii	"size_t\000"
 3474      5F7400
 3475              	.LASF66:
 3476 0021 7264796D 		.ascii	"rdymsg\000"
 3476      736700
 3477              	.LASF13:
 3478 0028 75696E74 		.ascii	"uint64_t\000"
 3478      36345F74 
 3478      00
 3479              	.LASF137:
 3480 0031 66756E63 		.ascii	"funcs\000"
 3480      7300
 3481              	.LASF81:
 3482 0037 4F757470 		.ascii	"OutputQueue\000"
 3482      75745175 
 3482      65756500 
 3483              	.LASF83:
 3484 0043 5446756E 		.ascii	"TFunc\000"
 3484      6300
 3485              	.LASF113:
 3486 0049 64616332 		.ascii	"dac2\000"
 3486      00
 3487              	.LASF15:
 3488 004e 75696E74 		.ascii	"uint_fast16_t\000"
 3488      5F666173 
 3488      7431365F 
 3488      7400
 3489              	.LASF14:
 3490 005c 6C6F6E67 		.ascii	"long long unsigned int\000"
 3490      206C6F6E 
 3490      6720756E 
 3490      7369676E 
 3490      65642069 
 3491              	.LASF121:
 3492 0073 7365745F 		.ascii	"set_leds\000"
 3492      6C656473 
 3492      00
 3493              	.LASF119:
 3494 007c 64617461 		.ascii	"data\000"
 3494      00
 3495              	.LASF67:
 3496 0081 65786974 		.ascii	"exitcode\000"
 3496      636F6465 
 3496      00
 3497              	.LASF129:
 3498 008a 6F75745F 		.ascii	"out_index\000"
 3498      696E6465 
 3498      7800
ARM GAS  /tmp/cc84nPaL.s 			page 65


 3499              	.LASF133:
 3500 0094 49544D5F 		.ascii	"ITM_RxBuffer\000"
 3500      52784275 
 3500      66666572 
 3500      00
 3501              	.LASF27:
 3502 00a1 705F7072 		.ascii	"p_prio\000"
 3502      696F00
 3503              	.LASF110:
 3504 00a8 72656164 		.ascii	"readt\000"
 3504      7400
 3505              	.LASF72:
 3506 00ae 715F7761 		.ascii	"q_waiting\000"
 3506      6974696E 
 3506      6700
 3507              	.LASF12:
 3508 00b8 6C6F6E67 		.ascii	"long long int\000"
 3508      206C6F6E 
 3508      6720696E 
 3508      7400
 3509              	.LASF1:
 3510 00c6 7369676E 		.ascii	"signed char\000"
 3510      65642063 
 3510      68617200 
 3511              	.LASF90:
 3512 00d2 47545052 		.ascii	"GTPR\000"
 3512      00
 3513              	.LASF94:
 3514 00d7 53445F53 		.ascii	"SD_STOP\000"
 3514      544F5000 
 3515              	.LASF16:
 3516 00df 626F6F6C 		.ascii	"bool_t\000"
 3516      5F7400
 3517              	.LASF57:
 3518 00e6 6D5F7175 		.ascii	"m_queue\000"
 3518      65756500 
 3519              	.LASF123:
 3520 00ee 64616373 		.ascii	"dacs\000"
 3520      00
 3521              	.LASF100:
 3522 00f3 73746174 		.ascii	"state\000"
 3522      6500
 3523              	.LASF9:
 3524 00f9 6C6F6E67 		.ascii	"long int\000"
 3524      20696E74 
 3524      00
 3525              	.LASF18:
 3526 0102 74737461 		.ascii	"tstate_t\000"
 3526      74655F74 
 3526      00
 3527              	.LASF74:
 3528 010b 715F6275 		.ascii	"q_buffer\000"
 3528      66666572 
 3528      00
 3529              	.LASF76:
 3530 0114 715F7772 		.ascii	"q_wrptr\000"
 3530      70747200 
ARM GAS  /tmp/cc84nPaL.s 			page 66


 3531              	.LASF29:
 3532 011c 705F6E65 		.ascii	"p_newer\000"
 3532      77657200 
 3533              	.LASF107:
 3534 0124 70757477 		.ascii	"putwouldblock\000"
 3534      6F756C64 
 3534      626C6F63 
 3534      6B00
 3535              	.LASF51:
 3536 0132 725F6E65 		.ascii	"r_newer\000"
 3536      77657200 
 3537              	.LASF44:
 3538 013a 72656761 		.ascii	"regarm_t\000"
 3538      726D5F74 
 3538      00
 3539              	.LASF114:
 3540 0143 44616343 		.ascii	"DacCfg\000"
 3540      666700
 3541              	.LASF64:
 3542 014a 4576656E 		.ascii	"EventSource\000"
 3542      74536F75 
 3542      72636500 
 3543              	.LASF23:
 3544 0156 636E745F 		.ascii	"cnt_t\000"
 3544      7400
 3545              	.LASF103:
 3546 015c 75736172 		.ascii	"usart\000"
 3546      7400
 3547              	.LASF0:
 3548 0162 756E7369 		.ascii	"unsigned int\000"
 3548      676E6564 
 3548      20696E74 
 3548      00
 3549              	.LASF6:
 3550 016f 75696E74 		.ascii	"uint16_t\000"
 3550      31365F74 
 3550      00
 3551              	.LASF104:
 3552 0178 53657269 		.ascii	"SerialDriverVMT\000"
 3552      616C4472 
 3552      69766572 
 3552      564D5400 
 3553              	.LASF35:
 3554 0188 705F7469 		.ascii	"p_time\000"
 3554      6D6500
 3555              	.LASF101:
 3556 018f 69717565 		.ascii	"iqueue\000"
 3556      756500
 3557              	.LASF37:
 3558 0196 705F6D73 		.ascii	"p_msgqueue\000"
 3558      67717565 
 3558      756500
 3559              	.LASF117:
 3560 01a1 65786563 		.ascii	"exec_func\000"
 3560      5F66756E 
 3560      6300
 3561              	.LASF138:
ARM GAS  /tmp/cc84nPaL.s 			page 67


 3562 01ab 71756575 		.ascii	"queue\000"
 3562      6500
 3563              	.LASF140:
 3564 01b1 77614F75 		.ascii	"waOutput\000"
 3564      74707574 
 3564      00
 3565              	.LASF98:
 3566 01ba 6576656E 		.ascii	"event\000"
 3566      7400
 3567              	.LASF7:
 3568 01c0 73686F72 		.ascii	"short unsigned int\000"
 3568      7420756E 
 3568      7369676E 
 3568      65642069 
 3568      6E7400
 3569              	.LASF131:
 3570 01d3 73706163 		.ascii	"space\000"
 3570      6500
 3571              	.LASF139:
 3572 01d9 71756575 		.ascii	"queueBuffer\000"
 3572      65427566 
 3572      66657200 
 3573              	.LASF102:
 3574 01e5 6F717565 		.ascii	"oqueue\000"
 3574      756500
 3575              	.LASF92:
 3576 01ec 55534152 		.ascii	"USART_TypeDef\000"
 3576      545F5479 
 3576      70654465 
 3576      6600
 3577              	.LASF109:
 3578 01fa 77726974 		.ascii	"writet\000"
 3578      657400
 3579              	.LASF112:
 3580 0201 64616331 		.ascii	"dac1\000"
 3580      00
 3581              	.LASF17:
 3582 0206 746D6F64 		.ascii	"tmode_t\000"
 3582      655F7400 
 3583              	.LASF43:
 3584 020e 54687265 		.ascii	"ThreadsList\000"
 3584      6164734C 
 3584      69737400 
 3585              	.LASF21:
 3586 021a 6576656E 		.ascii	"eventmask_t\000"
 3586      746D6173 
 3586      6B5F7400 
 3587              	.LASF80:
 3588 0226 496E7075 		.ascii	"InputQueue\000"
 3588      74517565 
 3588      756500
 3589              	.LASF79:
 3590 0231 716E6F74 		.ascii	"qnotify_t\000"
 3590      6966795F 
 3590      7400
 3591              	.LASF142:
 3592 023b 2E2F7372 		.ascii	"./src/cpu_io.c\000"
ARM GAS  /tmp/cc84nPaL.s 			page 68


 3592      632F6370 
 3592      755F696F 
 3592      2E6300
 3593              	.LASF71:
 3594 024a 47656E65 		.ascii	"GenericQueue\000"
 3594      72696351 
 3594      75657565 
 3594      00
 3595              	.LASF45:
 3596 0257 73746B61 		.ascii	"stkalign_t\000"
 3596      6C69676E 
 3596      5F7400
 3597              	.LASF120:
 3598 0262 7365745F 		.ascii	"set_dac\000"
 3598      64616300 
 3599              	.LASF105:
 3600 026a 77726974 		.ascii	"write\000"
 3600      6500
 3601              	.LASF63:
 3602 0270 656C5F6D 		.ascii	"el_mask\000"
 3602      61736B00 
 3603              	.LASF73:
 3604 0278 715F636F 		.ascii	"q_counter\000"
 3604      756E7465 
 3604      7200
 3605              	.LASF56:
 3606 0282 4D757465 		.ascii	"Mutex\000"
 3606      7800
 3607              	.LASF127:
 3608 0288 696E5F73 		.ascii	"in_sz\000"
 3608      7A00
 3609              	.LASF30:
 3610 028e 705F6F6C 		.ascii	"p_older\000"
 3610      64657200 
 3611              	.LASF126:
 3612 0296 6370755F 		.ascii	"cpu_io_process\000"
 3612      696F5F70 
 3612      726F6365 
 3612      737300
 3613              	.LASF50:
 3614 02a5 725F6374 		.ascii	"r_ctx\000"
 3614      7800
 3615              	.LASF42:
 3616 02ab 54687265 		.ascii	"ThreadsQueue\000"
 3616      61647351 
 3616      75657565 
 3616      00
 3617              	.LASF32:
 3618 02b8 705F7374 		.ascii	"p_stklimit\000"
 3618      6B6C696D 
 3618      697400
 3619              	.LASF134:
 3620 02c3 62756666 		.ascii	"buffer_raw\000"
 3620      65725F72 
 3620      617700
 3621              	.LASF54:
 3622 02ce 725F6375 		.ascii	"r_current\000"
ARM GAS  /tmp/cc84nPaL.s 			page 69


 3622      7272656E 
 3622      7400
 3623              	.LASF52:
 3624 02d8 725F6F6C 		.ascii	"r_older\000"
 3624      64657200 
 3625              	.LASF145:
 3626 02e0 6F757470 		.ascii	"outputThread\000"
 3626      75745468 
 3626      72656164 
 3626      00
 3627              	.LASF128:
 3628 02ed 73686966 		.ascii	"shift\000"
 3628      7400
 3629              	.LASF147:
 3630 02f3 77726974 		.ascii	"writeResult\000"
 3630      65526573 
 3630      756C7400 
 3631              	.LASF146:
 3632 02ff 63685150 		.ascii	"chQPutI\000"
 3632      75744900 
 3633              	.LASF84:
 3634 0307 52455345 		.ascii	"RESERVED0\000"
 3634      52564544 
 3634      3000
 3635              	.LASF85:
 3636 0311 52455345 		.ascii	"RESERVED1\000"
 3636      52564544 
 3636      3100
 3637              	.LASF86:
 3638 031b 52455345 		.ascii	"RESERVED2\000"
 3638      52564544 
 3638      3200
 3639              	.LASF87:
 3640 0325 52455345 		.ascii	"RESERVED3\000"
 3640      52564544 
 3640      3300
 3641              	.LASF88:
 3642 032f 52455345 		.ascii	"RESERVED4\000"
 3642      52564544 
 3642      3400
 3643              	.LASF26:
 3644 0339 705F7072 		.ascii	"p_prev\000"
 3644      657600
 3645              	.LASF91:
 3646 0340 52455345 		.ascii	"RESERVED6\000"
 3646      52564544 
 3646      3600
 3647              	.LASF20:
 3648 034a 6D73675F 		.ascii	"msg_t\000"
 3648      7400
 3649              	.LASF116:
 3650 0350 66756E63 		.ascii	"funcs_sz\000"
 3650      735F737A 
 3650      00
 3651              	.LASF77:
 3652 0359 715F7264 		.ascii	"q_rdptr\000"
 3652      70747200 
ARM GAS  /tmp/cc84nPaL.s 			page 70


 3653              	.LASF124:
 3654 0361 64617461 		.ascii	"data_byte\000"
 3654      5F627974 
 3654      6500
 3655              	.LASF8:
 3656 036b 696E7433 		.ascii	"int32_t\000"
 3656      325F7400 
 3657              	.LASF4:
 3658 0373 756E7369 		.ascii	"unsigned char\000"
 3658      676E6564 
 3658      20636861 
 3658      7200
 3659              	.LASF62:
 3660 0381 656C5F6C 		.ascii	"el_listener\000"
 3660      69737465 
 3660      6E657200 
 3661              	.LASF40:
 3662 038d 705F6D74 		.ascii	"p_mtxlist\000"
 3662      786C6973 
 3662      7400
 3663              	.LASF5:
 3664 0397 73686F72 		.ascii	"short int\000"
 3664      7420696E 
 3664      7400
 3665              	.LASF33:
 3666 03a1 705F7374 		.ascii	"p_state\000"
 3666      61746500 
 3667              	.LASF49:
 3668 03a9 725F7072 		.ascii	"r_prio\000"
 3668      696F00
 3669              	.LASF69:
 3670 03b0 65776D61 		.ascii	"ewmask\000"
 3670      736B00
 3671              	.LASF25:
 3672 03b7 705F6E65 		.ascii	"p_next\000"
 3672      787400
 3673              	.LASF34:
 3674 03be 705F666C 		.ascii	"p_flags\000"
 3674      61677300 
 3675              	.LASF61:
 3676 03c6 656C5F6E 		.ascii	"el_next\000"
 3676      65787400 
 3677              	.LASF24:
 3678 03ce 54687265 		.ascii	"Thread\000"
 3678      616400
 3679              	.LASF39:
 3680 03d5 705F6570 		.ascii	"p_epending\000"
 3680      656E6469 
 3680      6E6700
 3681              	.LASF93:
 3682 03e0 53445F55 		.ascii	"SD_UNINIT\000"
 3682      4E494E49 
 3682      5400
 3683              	.LASF89:
 3684 03ea 52455345 		.ascii	"RESERVED5\000"
 3684      52564544 
 3684      3500
ARM GAS  /tmp/cc84nPaL.s 			page 71


 3685              	.LASF10:
 3686 03f4 75696E74 		.ascii	"uint32_t\000"
 3686      33325F74 
 3686      00
 3687              	.LASF48:
 3688 03fd 725F7175 		.ascii	"r_queue\000"
 3688      65756500 
 3689              	.LASF96:
 3690 0405 73647374 		.ascii	"sdstate_t\000"
 3690      6174655F 
 3690      7400
 3691              	.LASF97:
 3692 040f 53657269 		.ascii	"SerialDriver\000"
 3692      616C4472 
 3692      69766572 
 3692      00
 3693              	.LASF11:
 3694 041c 6C6F6E67 		.ascii	"long unsigned int\000"
 3694      20756E73 
 3694      69676E65 
 3694      6420696E 
 3694      7400
 3695              	.LASF106:
 3696 042e 72656164 		.ascii	"read\000"
 3696      00
 3697              	.LASF70:
 3698 0433 63686172 		.ascii	"char\000"
 3698      00
 3699              	.LASF38:
 3700 0438 705F6D73 		.ascii	"p_msg\000"
 3700      6700
 3701              	.LASF125:
 3702 043e 6370755F 		.ascii	"cpu_io_init\000"
 3702      696F5F69 
 3702      6E697400 
 3703              	.LASF59:
 3704 044a 6D5F6E65 		.ascii	"m_next\000"
 3704      787400
 3705              	.LASF22:
 3706 0451 73797374 		.ascii	"systime_t\000"
 3706      696D655F 
 3706      7400
 3707              	.LASF41:
 3708 045b 705F7265 		.ascii	"p_realprio\000"
 3708      616C7072 
 3708      696F00
 3709              	.LASF135:
 3710 0466 62756666 		.ascii	"buffer\000"
 3710      657200
 3711              	.LASF111:
 3712 046d 67657466 		.ascii	"getflags\000"
 3712      6C616773 
 3712      00
 3713              	.LASF47:
 3714 0476 636F6E74 		.ascii	"context\000"
 3714      65787400 
 3715              	.LASF82:
ARM GAS  /tmp/cc84nPaL.s 			page 72


 3716 047e 696F666C 		.ascii	"ioflags_t\000"
 3716      6167735F 
 3716      7400
 3717              	.LASF46:
 3718 0488 696E7463 		.ascii	"intctx\000"
 3718      747800
 3719              	.LASF95:
 3720 048f 53445F52 		.ascii	"SD_READY\000"
 3720      45414459 
 3720      00
 3721              	.LASF75:
 3722 0498 715F746F 		.ascii	"q_top\000"
 3722      7000
 3723              	.LASF31:
 3724 049e 705F6E61 		.ascii	"p_name\000"
 3724      6D6500
 3725              	.LASF65:
 3726 04a5 65735F6E 		.ascii	"es_next\000"
 3726      65787400 
 3727              	.LASF55:
 3728 04ad 52656164 		.ascii	"ReadyList\000"
 3728      794C6973 
 3728      7400
 3729              	.LASF143:
 3730 04b7 2F686F6D 		.ascii	"/home/z80/projects/voltamper.git/firmware/voltamp\000"
 3730      652F7A38 
 3730      302F7072 
 3730      6F6A6563 
 3730      74732F76 
 3731              	.LASF78:
 3732 04e9 715F6E6F 		.ascii	"q_notify\000"
 3732      74696679 
 3732      00
 3733              	.LASF132:
 3734 04f2 726C6973 		.ascii	"rlist\000"
 3734      7400
 3735              	.LASF3:
 3736 04f8 75696E74 		.ascii	"uint8_t\000"
 3736      385F7400 
 3737              	.LASF115:
 3738 0500 66756E63 		.ascii	"func_index\000"
 3738      5F696E64 
 3738      657800
 3739              	.LASF99:
 3740 050b 666C6167 		.ascii	"flags\000"
 3740      7300
 3741              	.LASF144:
 3742 0511 696E6974 		.ascii	"initOutput\000"
 3742      4F757470 
 3742      757400
 3743              	.LASF60:
 3744 051c 4576656E 		.ascii	"EventListener\000"
 3744      744C6973 
 3744      74656E65 
 3744      7200
 3745              	.LASF68:
 3746 052a 77746F62 		.ascii	"wtobjp\000"
ARM GAS  /tmp/cc84nPaL.s 			page 73


 3746      6A7000
 3747              	.LASF141:
 3748 0531 474E5520 		.ascii	"GNU C 4.5.2\000"
 3748      4320342E 
 3748      352E3200 
 3749              	.LASF118:
 3750 053d 70726F63 		.ascii	"process_command\000"
 3750      6573735F 
 3750      636F6D6D 
 3750      616E6400 
 3751              	.LASF108:
 3752 054d 67657477 		.ascii	"getwouldblock\000"
 3752      6F756C64 
 3752      626C6F63 
 3752      6B00
 3753              	.LASF122:
 3754 055b 61726773 		.ascii	"args\000"
 3754      00
 3755              	.LASF53:
 3756 0560 725F7072 		.ascii	"r_preempt\000"
 3756      65656D70 
 3756      7400
 3757              	.LASF58:
 3758 056a 6D5F6F77 		.ascii	"m_owner\000"
 3758      6E657200 
 3759              	.LASF28:
 3760 0572 705F6374 		.ascii	"p_ctx\000"
 3760      7800
 3761              	.LASF36:
 3762 0578 705F7761 		.ascii	"p_waiting\000"
 3762      6974696E 
 3762      6700
 3763              		.ident	"GCC: (Sourcery G++ Lite 2011.03-42) 4.5.2"
ARM GAS  /tmp/cc84nPaL.s 			page 74


DEFINED SYMBOLS
                            *ABS*:00000000 cpu_io.c
     /tmp/cc84nPaL.s:24     .text.set_dac:00000000 $t
     /tmp/cc84nPaL.s:29     .text.set_dac:00000000 set_dac
     /tmp/cc84nPaL.s:78     .text.set_leds:00000000 $t
     /tmp/cc84nPaL.s:83     .text.set_leds:00000000 set_leds
     /tmp/cc84nPaL.s:101    .text.outputThread:00000000 $t
     /tmp/cc84nPaL.s:106    .text.outputThread:00000000 outputThread
     /tmp/cc84nPaL.s:151    .text.outputThread:00000030 $d
     /tmp/cc84nPaL.s:160    .text.cpu_io_init:00000000 $t
     /tmp/cc84nPaL.s:166    .text.cpu_io_init:00000000 cpu_io_init
     /tmp/cc84nPaL.s:210    .text.cpu_io_init:00000034 $d
     /tmp/cc84nPaL.s:219    .text.cpu_io_process:00000000 $t
     /tmp/cc84nPaL.s:225    .text.cpu_io_process:00000000 cpu_io_process
     /tmp/cc84nPaL.s:425    .text.cpu_io_process:000000d4 $d
     /tmp/cc84nPaL.s:439    .text.writeEom:00000000 $t
     /tmp/cc84nPaL.s:445    .text.writeEom:00000000 writeEom
     /tmp/cc84nPaL.s:471    .text.writeEom:00000018 $d
     /tmp/cc84nPaL.s:476    .text.writeResult:00000000 $t
     /tmp/cc84nPaL.s:482    .text.writeResult:00000000 writeResult
     /tmp/cc84nPaL.s:539    .text.writeResult:00000038 $d
     /tmp/cc84nPaL.s:544    .rodata.funcs:00000000 $d
     /tmp/cc84nPaL.s:548    .rodata.funcs:00000000 funcs
     /tmp/cc84nPaL.s:552    .bss.queue:00000000 $d
     /tmp/cc84nPaL.s:556    .bss.queue:00000000 queue
     /tmp/cc84nPaL.s:559    .bss.buffer:00000000 $d
     /tmp/cc84nPaL.s:563    .bss.buffer:00000000 buffer
     /tmp/cc84nPaL.s:566    .bss.queueBuffer:00000000 $d
     /tmp/cc84nPaL.s:570    .bss.queueBuffer:00000000 queueBuffer
     /tmp/cc84nPaL.s:573    .rodata.str1.4:00000000 $d
     /tmp/cc84nPaL.s:577    .bss.waOutput:00000000 $d
     /tmp/cc84nPaL.s:581    .bss.waOutput:00000000 waOutput
     /tmp/cc84nPaL.s:584    .bss.args:00000000 $d
     /tmp/cc84nPaL.s:588    .bss.args:00000000 args
     /tmp/cc84nPaL.s:591    .bss.buffer_raw:00000000 $d
     /tmp/cc84nPaL.s:595    .bss.buffer_raw:00000000 buffer_raw
                     .debug_frame:00000010 $d
     /tmp/cc84nPaL.s:218    .text.cpu_io_init:00000048 $t
     /tmp/cc84nPaL.s:438    .text.cpu_io_process:000000ec $t
     /tmp/cc84nPaL.s:475    .text.writeEom:0000001c $t
     /tmp/cc84nPaL.s:543    .text.writeResult:0000003c $t

UNDEFINED SYMBOLS
dacSet
setLeds
chIQReadTimeout
chOQPutTimeout
rlist
SD1
serial_pipe_init
sdStart
chIQInit
chThdCreateStatic
serial_decode_byte
chThdSleep
chQPutI
chIQPutI
ARM GAS  /tmp/cc84nPaL.s 			page 75


