ARM GAS  C:\Users\z80\AppData\Local\Temp\ccA8oroC.s 			page 1


   1              		.syntax unified
   2              		.cpu cortex-m3
   3              		.fpu softvfp
   4              		.eabi_attribute 20, 1
   5              		.eabi_attribute 21, 1
   6              		.eabi_attribute 23, 3
   7              		.eabi_attribute 24, 1
   8              		.eabi_attribute 25, 1
   9              		.eabi_attribute 26, 1
  10              		.eabi_attribute 30, 2
  11              		.eabi_attribute 18, 4
  12              		.thumb
  13              		.file	"cpu_io.c"
  14              		.section	.debug_abbrev,"",%progbits
  15              	.Ldebug_abbrev0:
  16              		.section	.debug_info,"",%progbits
  17              	.Ldebug_info0:
  18              		.section	.debug_line,"",%progbits
  19              	.Ldebug_line0:
  20 0000 93040000 		.text
  20      02009702 
  20      00000201 
  20      FB0E0D00 
  20      01010101 
  21              	.Ltext0:
  22              		.cfi_sections	.debug_frame
  23              		.section	.text.set_autostart_osc,"ax",%progbits
  24              		.align	2
  25              		.p2align 4,,15
  26              		.thumb
  27              		.thumb_func
  28              		.type	set_autostart_osc, %function
  29              	set_autostart_osc:
  30              	.LFB81:
  31              		.file 1 "./src/cpu_io.c"
  32              		.loc 1 277 0
  33              		.cfi_startproc
  34              		@ args = 0, pretend = 0, frame = 0
  35              		@ frame_needed = 0, uses_anonymous_args = 0
  36              	.LVL0:
  37 0000 08B5     		push	{r3, lr}
  38              	.LCFI0:
  39              		.cfi_def_cfa_offset 8
  40              		.loc 1 279 0
  41 0002 0078     		ldrb	r0, [r0, #0]	@ zero_extendqisi2
  42              	.LVL1:
  43              		.cfi_offset 14, -4
  44              		.cfi_offset 3, -8
  45 0004 FFF7FEFF 		bl	setAutostartOsc
  46              		.loc 1 280 0
  47 0008 08BD     		pop	{r3, pc}
  48              		.cfi_endproc
  49              	.LFE81:
  50              		.size	set_autostart_osc, .-set_autostart_osc
  51 000a 00BFAFF3 		.section	.text.writeResult,"ax",%progbits
  51      0080
  52              		.align	2
ARM GAS  C:\Users\z80\AppData\Local\Temp\ccA8oroC.s 			page 2


  53              		.p2align 4,,15
  54              		.thumb
  55              		.thumb_func
  56              		.type	writeResult, %function
  57              	writeResult:
  58              	.LFB82:
  59              		.loc 1 290 0
  60              		.cfi_startproc
  61              		@ args = 0, pretend = 0, frame = 0
  62              		@ frame_needed = 0, uses_anonymous_args = 0
  63              	.LVL2:
  64              		.loc 1 291 0
  65 0000 D0F10103 		rsbs	r3, r0, #1
  66 0004 38BF     		it	cc
  67 0006 0023     		movcc	r3, #0
  68 0008 5C28     		cmp	r0, #92
  69 000a 08BF     		it	eq
  70 000c 43F00103 		orreq	r3, r3, #1
  71              		.loc 1 290 0
  72 0010 10B5     		push	{r4, lr}
  73              	.LCFI1:
  74              		.cfi_def_cfa_offset 8
  75              		.loc 1 290 0
  76 0012 0446     		mov	r4, r0
  77              		.cfi_offset 14, -4
  78              		.cfi_offset 4, -8
  79              		.loc 1 291 0
  80 0014 2BB1     		cbz	r3, .L3
  81              		.loc 1 292 0
  82 0016 0648     		ldr	r0, .L5
  83              	.LVL3:
  84 0018 5C21     		movs	r1, #92
  85 001a 4FF0FF32 		mov	r2, #-1
  86 001e FFF7FEFF 		bl	chOQPutTimeout
  87              	.L3:
  88              		.loc 1 293 0
  89 0022 2146     		mov	r1, r4
  90 0024 4FF0FF32 		mov	r2, #-1
  91 0028 0148     		ldr	r0, .L5
  92 002a FFF7FEFF 		bl	chOQPutTimeout
  93              		.loc 1 294 0
  94 002e 10BD     		pop	{r4, pc}
  95              	.L6:
  96              		.align	2
  97              	.L5:
  98 0030 30000000 		.word	SD1+48
  99              		.cfi_endproc
 100              	.LFE82:
 101              		.size	writeResult, .-writeResult
 102 0034 AFF30080 		.section	.text.writeEom,"ax",%progbits
 102      AFF30080 
 102      AFF30080 
 103              		.align	2
 104              		.p2align 4,,15
 105              		.thumb
 106              		.thumb_func
 107              		.type	writeEom, %function
ARM GAS  C:\Users\z80\AppData\Local\Temp\ccA8oroC.s 			page 3


 108              	writeEom:
 109              	.LFB83:
 110              		.loc 1 297 0
 111              		.cfi_startproc
 112              		@ args = 0, pretend = 0, frame = 0
 113              		@ frame_needed = 0, uses_anonymous_args = 0
 114 0000 08B5     		push	{r3, lr}
 115              	.LCFI2:
 116              		.cfi_def_cfa_offset 8
 117              		.loc 1 298 0
 118 0002 0021     		movs	r1, #0
 119 0004 4FF0FF32 		mov	r2, #-1
 120 0008 0148     		ldr	r0, .L8
 121              		.cfi_offset 14, -4
 122              		.cfi_offset 3, -8
 123 000a FFF7FEFF 		bl	chOQPutTimeout
 124              		.loc 1 299 0
 125 000e 08BD     		pop	{r3, pc}
 126              	.L9:
 127              		.align	2
 128              	.L8:
 129 0010 30000000 		.word	SD1+48
 130              		.cfi_endproc
 131              	.LFE83:
 132              		.size	writeEom, .-writeEom
 133 0014 AFF30080 		.section	.text.firmware_version,"ax",%progbits
 133      AFF30080 
 133      AFF30080 
 134              		.align	2
 135              		.p2align 4,,15
 136              		.thumb
 137              		.thumb_func
 138              		.type	firmware_version, %function
 139              	firmware_version:
 140              	.LFB80:
 141              		.loc 1 266 0
 142              		.cfi_startproc
 143              		@ args = 0, pretend = 0, frame = 8
 144              		@ frame_needed = 0, uses_anonymous_args = 0
 145              	.LVL4:
 146 0000 30B5     		push	{r4, r5, lr}
 147              	.LCFI3:
 148              		.cfi_def_cfa_offset 12
 149              		.loc 1 268 0
 150 0002 0A4B     		ldr	r3, .L13
 151              		.loc 1 266 0
 152 0004 83B0     		sub	sp, sp, #12
 153              	.LCFI4:
 154              		.cfi_def_cfa_offset 24
 155              		.loc 1 268 0
 156 0006 02AD     		add	r5, sp, #8
 157              		.cfi_offset 14, -4
 158              		.cfi_offset 5, -8
 159              		.cfi_offset 4, -12
 160 0008 93E80300 		ldmia	r3, {r0, r1}
 161              	.LVL5:
 162 000c 45F8080D 		str	r0, [r5, #-8]!
ARM GAS  C:\Users\z80\AppData\Local\Temp\ccA8oroC.s 			page 4


 163 0010 6C1E     		subs	r4, r5, #1
 164 0012 ADF80410 		strh	r1, [sp, #4]	@ movhi
 165              	.LVL6:
 166              		.loc 1 265 0
 167 0016 0435     		adds	r5, r5, #4
 168              	.LVL7:
 169              	.L11:
 170              		.loc 1 272 0 discriminator 2
 171 0018 14F8010F 		ldrb	r0, [r4, #1]!	@ zero_extendqisi2
 172 001c FFF7FEFF 		bl	writeResult
 173              		.loc 1 271 0 discriminator 2
 174 0020 AC42     		cmp	r4, r5
 175 0022 F9D1     		bne	.L11
 176              		.loc 1 273 0
 177 0024 FFF7FEFF 		bl	writeEom
 178              		.loc 1 274 0
 179 0028 03B0     		add	sp, sp, #12
 180 002a 30BD     		pop	{r4, r5, pc}
 181              	.L14:
 182              		.align	2
 183              	.L13:
 184 002c 00000000 		.word	.LC0
 185              		.cfi_endproc
 186              	.LFE80:
 187              		.size	firmware_version, .-firmware_version
 188              		.section	.text.hardware_version,"ax",%progbits
 189              		.align	2
 190              		.p2align 4,,15
 191              		.thumb
 192              		.thumb_func
 193              		.type	hardware_version, %function
 194              	hardware_version:
 195              	.LFB79:
 196              		.loc 1 255 0
 197              		.cfi_startproc
 198              		@ args = 0, pretend = 0, frame = 16
 199              		@ frame_needed = 0, uses_anonymous_args = 0
 200              	.LVL8:
 201 0000 30B5     		push	{r4, r5, lr}
 202              	.LCFI5:
 203              		.cfi_def_cfa_offset 12
 204              		.loc 1 257 0
 205 0002 0A4B     		ldr	r3, .L18
 206              		.loc 1 255 0
 207 0004 85B0     		sub	sp, sp, #20
 208              	.LCFI6:
 209              		.cfi_def_cfa_offset 32
 210              		.loc 1 257 0
 211 0006 EC46     		mov	ip, sp
 212 0008 0FCB     		ldmia	r3, {r0, r1, r2, r3}
 213              	.LVL9:
 214 000a ACE80700 		stmia	ip!, {r0, r1, r2}
 215 000e 6D46     		mov	r5, sp
 216              		.cfi_offset 14, -4
 217              		.cfi_offset 5, -8
 218              		.cfi_offset 4, -12
 219 0010 6C1E     		subs	r4, r5, #1
ARM GAS  C:\Users\z80\AppData\Local\Temp\ccA8oroC.s 			page 5


 220 0012 ACF80030 		strh	r3, [ip, #0]	@ movhi
 221              	.LVL10:
 222              		.loc 1 254 0
 223 0016 6546     		mov	r5, ip
 224              	.LVL11:
 225              	.L16:
 226              		.loc 1 261 0 discriminator 2
 227 0018 14F8010F 		ldrb	r0, [r4, #1]!	@ zero_extendqisi2
 228 001c FFF7FEFF 		bl	writeResult
 229              		.loc 1 260 0 discriminator 2
 230 0020 AC42     		cmp	r4, r5
 231 0022 F9D1     		bne	.L16
 232              		.loc 1 262 0
 233 0024 FFF7FEFF 		bl	writeEom
 234              		.loc 1 263 0
 235 0028 05B0     		add	sp, sp, #20
 236 002a 30BD     		pop	{r4, r5, pc}
 237              	.L19:
 238              		.align	2
 239              	.L18:
 240 002c 08000000 		.word	.LC1
 241              		.cfi_endproc
 242              	.LFE79:
 243              		.size	hardware_version, .-hardware_version
 244              		.section	.text.set_sweep,"ax",%progbits
 245              		.align	2
 246              		.p2align 4,,15
 247              		.thumb
 248              		.thumb_func
 249              		.type	set_sweep, %function
 250              	set_sweep:
 251              	.LFB78:
 252              		.loc 1 248 0
 253              		.cfi_startproc
 254              		@ args = 0, pretend = 0, frame = 0
 255              		@ frame_needed = 0, uses_anonymous_args = 0
 256              	.LVL12:
 257 0000 08B5     		push	{r3, lr}
 258              	.LCFI7:
 259              		.cfi_def_cfa_offset 8
 260              		.loc 1 250 0
 261              		.cfi_offset 14, -4
 262              		.cfi_offset 3, -8
 263 0002 FFF7FEFF 		bl	commandQueue
 264              	.LVL13:
 265              		.loc 1 251 0
 266 0006 0321     		movs	r1, #3
 267 0008 4FF0FF32 		mov	r2, #-1
 268 000c FFF7FEFF 		bl	chOQPutTimeout
 269              	.LVL14:
 270              		.loc 1 252 0
 271 0010 08BD     		pop	{r3, pc}
 272              		.cfi_endproc
 273              	.LFE78:
 274              		.size	set_sweep, .-set_sweep
 275 0012 00BFAFF3 		.section	.text.set_meandr,"ax",%progbits
 275      0080AFF3 
ARM GAS  C:\Users\z80\AppData\Local\Temp\ccA8oroC.s 			page 6


 275      0080AFF3 
 275      0080
 276              		.align	2
 277              		.p2align 4,,15
 278              		.thumb
 279              		.thumb_func
 280              		.type	set_meandr, %function
 281              	set_meandr:
 282              	.LFB77:
 283              		.loc 1 241 0
 284              		.cfi_startproc
 285              		@ args = 0, pretend = 0, frame = 0
 286              		@ frame_needed = 0, uses_anonymous_args = 0
 287              	.LVL15:
 288 0000 08B5     		push	{r3, lr}
 289              	.LCFI8:
 290              		.cfi_def_cfa_offset 8
 291              		.loc 1 243 0
 292              		.cfi_offset 14, -4
 293              		.cfi_offset 3, -8
 294 0002 FFF7FEFF 		bl	commandQueue
 295              	.LVL16:
 296              		.loc 1 244 0
 297 0006 0221     		movs	r1, #2
 298 0008 4FF0FF32 		mov	r2, #-1
 299 000c FFF7FEFF 		bl	chOQPutTimeout
 300              	.LVL17:
 301              		.loc 1 245 0
 302 0010 08BD     		pop	{r3, pc}
 303              		.cfi_endproc
 304              	.LFE77:
 305              		.size	set_meandr, .-set_meandr
 306 0012 00BFAFF3 		.section	.text.set_one_pulse,"ax",%progbits
 306      0080AFF3 
 306      0080AFF3 
 306      0080
 307              		.align	2
 308              		.p2align 4,,15
 309              		.thumb
 310              		.thumb_func
 311              		.type	set_one_pulse, %function
 312              	set_one_pulse:
 313              	.LFB76:
 314              		.loc 1 234 0
 315              		.cfi_startproc
 316              		@ args = 0, pretend = 0, frame = 0
 317              		@ frame_needed = 0, uses_anonymous_args = 0
 318              	.LVL18:
 319 0000 08B5     		push	{r3, lr}
 320              	.LCFI9:
 321              		.cfi_def_cfa_offset 8
 322              		.loc 1 236 0
 323              		.cfi_offset 14, -4
 324              		.cfi_offset 3, -8
 325 0002 FFF7FEFF 		bl	commandQueue
 326              	.LVL19:
 327              		.loc 1 237 0
ARM GAS  C:\Users\z80\AppData\Local\Temp\ccA8oroC.s 			page 7


 328 0006 0121     		movs	r1, #1
 329 0008 4FF0FF32 		mov	r2, #-1
 330 000c FFF7FEFF 		bl	chOQPutTimeout
 331              	.LVL20:
 332              		.loc 1 238 0
 333 0010 08BD     		pop	{r3, pc}
 334              		.cfi_endproc
 335              	.LFE76:
 336              		.size	set_one_pulse, .-set_one_pulse
 337 0012 00BFAFF3 		.section	.text.set_dac,"ax",%progbits
 337      0080AFF3 
 337      0080AFF3 
 337      0080
 338              		.align	2
 339              		.p2align 4,,15
 340              		.thumb
 341              		.thumb_func
 342              		.type	set_dac, %function
 343              	set_dac:
 344              	.LFB75:
 345              		.loc 1 227 0
 346              		.cfi_startproc
 347              		@ args = 0, pretend = 0, frame = 0
 348              		@ frame_needed = 0, uses_anonymous_args = 0
 349              	.LVL21:
 350 0000 08B5     		push	{r3, lr}
 351              	.LCFI10:
 352              		.cfi_def_cfa_offset 8
 353              		.loc 1 229 0
 354              		.cfi_offset 14, -4
 355              		.cfi_offset 3, -8
 356 0002 FFF7FEFF 		bl	commandQueue
 357              	.LVL22:
 358              		.loc 1 230 0
 359 0006 0021     		movs	r1, #0
 360 0008 4FF0FF32 		mov	r2, #-1
 361 000c FFF7FEFF 		bl	chOQPutTimeout
 362              	.LVL23:
 363              		.loc 1 231 0
 364 0010 08BD     		pop	{r3, pc}
 365              		.cfi_endproc
 366              	.LFE75:
 367              		.size	set_dac, .-set_dac
 368 0012 00BFAFF3 		.section	.text.set_sc_relay,"ax",%progbits
 368      0080AFF3 
 368      0080AFF3 
 368      0080
 369              		.align	2
 370              		.p2align 4,,15
 371              		.thumb
 372              		.thumb_func
 373              		.type	set_sc_relay, %function
 374              	set_sc_relay:
 375              	.LFB74:
 376              		.loc 1 222 0
 377              		.cfi_startproc
 378              		@ args = 0, pretend = 0, frame = 0
ARM GAS  C:\Users\z80\AppData\Local\Temp\ccA8oroC.s 			page 8


 379              		@ frame_needed = 0, uses_anonymous_args = 0
 380              	.LVL24:
 381 0000 08B5     		push	{r3, lr}
 382              	.LCFI11:
 383              		.cfi_def_cfa_offset 8
 384              		.loc 1 223 0
 385 0002 0078     		ldrb	r0, [r0, #0]	@ zero_extendqisi2
 386              	.LVL25:
 387              		.cfi_offset 14, -4
 388              		.cfi_offset 3, -8
 389 0004 FFF7FEFF 		bl	setScRelay
 390              		.loc 1 224 0
 391 0008 08BD     		pop	{r3, pc}
 392              		.cfi_endproc
 393              	.LFE74:
 394              		.size	set_sc_relay, .-set_sc_relay
 395 000a 00BFAFF3 		.section	.text.set_out_relay,"ax",%progbits
 395      0080
 396              		.align	2
 397              		.p2align 4,,15
 398              		.thumb
 399              		.thumb_func
 400              		.type	set_out_relay, %function
 401              	set_out_relay:
 402              	.LFB73:
 403              		.loc 1 217 0
 404              		.cfi_startproc
 405              		@ args = 0, pretend = 0, frame = 0
 406              		@ frame_needed = 0, uses_anonymous_args = 0
 407              	.LVL26:
 408 0000 08B5     		push	{r3, lr}
 409              	.LCFI12:
 410              		.cfi_def_cfa_offset 8
 411              		.loc 1 218 0
 412 0002 0078     		ldrb	r0, [r0, #0]	@ zero_extendqisi2
 413              	.LVL27:
 414              		.cfi_offset 14, -4
 415              		.cfi_offset 3, -8
 416 0004 FFF7FEFF 		bl	setOutRelay
 417              		.loc 1 219 0
 418 0008 08BD     		pop	{r3, pc}
 419              		.cfi_endproc
 420              	.LFE73:
 421              		.size	set_out_relay, .-set_out_relay
 422 000a 00BFAFF3 		.section	.text.set_leds,"ax",%progbits
 422      0080
 423              		.align	2
 424              		.p2align 4,,15
 425              		.thumb
 426              		.thumb_func
 427              		.type	set_leds, %function
 428              	set_leds:
 429              	.LFB72:
 430              		.loc 1 212 0
 431              		.cfi_startproc
 432              		@ args = 0, pretend = 0, frame = 0
 433              		@ frame_needed = 0, uses_anonymous_args = 0
ARM GAS  C:\Users\z80\AppData\Local\Temp\ccA8oroC.s 			page 9


 434              	.LVL28:
 435 0000 08B5     		push	{r3, lr}
 436              	.LCFI13:
 437              		.cfi_def_cfa_offset 8
 438              		.loc 1 213 0
 439 0002 0078     		ldrb	r0, [r0, #0]	@ zero_extendqisi2
 440              	.LVL29:
 441              		.cfi_offset 14, -4
 442              		.cfi_offset 3, -8
 443 0004 FFF7FEFF 		bl	setLeds
 444              		.loc 1 214 0
 445 0008 08BD     		pop	{r3, pc}
 446              		.cfi_endproc
 447              	.LFE72:
 448              		.size	set_leds, .-set_leds
 449 000a 00BFAFF3 		.section	.text.osc_set_period,"ax",%progbits
 449      0080
 450              		.align	2
 451              		.p2align 4,,15
 452              		.thumb
 453              		.thumb_func
 454              		.type	osc_set_period, %function
 455              	osc_set_period:
 456              	.LFB71:
 457              		.loc 1 201 0
 458              		.cfi_startproc
 459              		@ args = 0, pretend = 0, frame = 0
 460              		@ frame_needed = 0, uses_anonymous_args = 0
 461              	.LVL30:
 462 0000 08B5     		push	{r3, lr}
 463              	.LCFI14:
 464              		.cfi_def_cfa_offset 8
 465              		.loc 1 206 0
 466 0002 8178     		ldrb	r1, [r0, #2]	@ zero_extendqisi2
 467              		.loc 1 205 0
 468 0004 4378     		ldrb	r3, [r0, #1]	@ zero_extendqisi2
 469              		.cfi_offset 14, -4
 470              		.cfi_offset 3, -8
 471              		.loc 1 206 0
 472 0006 0904     		lsls	r1, r1, #16
 473              		.loc 1 204 0
 474 0008 0278     		ldrb	r2, [r0, #0]	@ zero_extendqisi2
 475 000a 01EB0321 		add	r1, r1, r3, lsl #8
 476              		.loc 1 207 0
 477 000e C378     		ldrb	r3, [r0, #3]	@ zero_extendqisi2
 478              		.loc 1 205 0
 479 0010 8818     		adds	r0, r1, r2
 480              	.LVL31:
 481              		.loc 1 204 0
 482 0012 00EB0360 		add	r0, r0, r3, lsl #24
 483              		.loc 1 208 0
 484 0016 FFF7FEFF 		bl	setOscPeriod
 485              		.loc 1 209 0
 486 001a 08BD     		pop	{r3, pc}
 487              		.cfi_endproc
 488              	.LFE71:
 489              		.size	osc_set_period, .-osc_set_period
ARM GAS  C:\Users\z80\AppData\Local\Temp\ccA8oroC.s 			page 10


 490 001c AFF30080 		.section	.text.writeOscQueue,"ax",%progbits
 491              		.align	2
 492              		.p2align 4,,15
 493              		.thumb
 494              		.thumb_func
 495              		.type	writeOscQueue, %function
 496              	writeOscQueue:
 497              	.LFB67:
 498              		.loc 1 159 0
 499              		.cfi_startproc
 500              		@ args = 0, pretend = 0, frame = 0
 501              		@ frame_needed = 0, uses_anonymous_args = 0
 502              	.LVL32:
 503 0000 70B5     		push	{r4, r5, r6, lr}
 504              	.LCFI15:
 505              		.cfi_def_cfa_offset 16
 506              	.LBB9:
 507              		.loc 1 163 0
 508 0002 2023     		movs	r3, #32
 509              	.LVL33:
 510              	.LBE9:
 511              		.loc 1 159 0
 512 0004 0446     		mov	r4, r0
 513              		.cfi_offset 14, -4
 514              		.cfi_offset 6, -8
 515              		.cfi_offset 5, -12
 516              		.cfi_offset 4, -16
 517              	.LBB10:
 518              		.loc 1 163 0
 519              	@ 163 "./src/cpu_io.c" 1
 520 0006 83F31188 		msr     BASEPRI, r3
 521              	@ 0 "" 2
 522              	.LVL34:
 523              		.thumb
 524              	.LBE10:
 525 000a FFF7FEFF 		bl	dbg_check_lock
 526              	.LVL35:
 527              		.loc 1 164 0
 528 000e A668     		ldr	r6, [r4, #8]
 529              		.loc 1 165 0
 530 0010 FFF7FEFF 		bl	dbg_check_unlock
 531              		.loc 1 164 0
 532 0014 26F00106 		bic	r6, r6, #1
 533              	.LVL36:
 534              	.LBB11:
 535              		.loc 1 165 0
 536 0018 0023     		movs	r3, #0
 537              	.LVL37:
 538              	@ 165 "./src/cpu_io.c" 1
 539 001a 83F31188 		msr     BASEPRI, r3
 540              	@ 0 "" 2
 541              	.LVL38:
 542              		.thumb
 543              	.LBE11:
 544              		.loc 1 167 0
 545 001e 602E     		cmp	r6, #96
 546 0020 28BF     		it	cs
ARM GAS  C:\Users\z80\AppData\Local\Temp\ccA8oroC.s 			page 11


 547 0022 6026     		movcs	r6, #96
 548              	.LVL39:
 549              		.loc 1 168 0
 550 0024 76B1     		cbz	r6, .L29
 551 0026 1D46     		mov	r5, r3
 552              	.LVL40:
 553              	.L31:
 554              	.LBB12:
 555              		.loc 1 170 0
 556 0028 0021     		movs	r1, #0
 557 002a 2046     		mov	r0, r4
 558 002c FFF7FEFF 		bl	chIQGetTimeout
 559              	.LVL41:
 560              		.loc 1 171 0
 561 0030 831C     		adds	r3, r0, #2
 562              		.loc 1 173 0
 563 0032 012B     		cmp	r3, #1
 564 0034 8CBF     		ite	hi
 565 0036 C0B2     		uxtbhi	r0, r0
 566              	.LVL42:
 567 0038 0020     		movls	r0, #0
 568              	.LVL43:
 569              	.LBE12:
 570              		.loc 1 168 0
 571 003a 0135     		adds	r5, r5, #1
 572              	.LBB13:
 573              		.loc 1 174 0
 574 003c FFF7FEFF 		bl	writeResult
 575              	.LVL44:
 576              	.LBE13:
 577              		.loc 1 168 0
 578 0040 AE42     		cmp	r6, r5
 579 0042 F1D8     		bhi	.L31
 580              	.LVL45:
 581              	.L29:
 582              		.loc 1 176 0
 583 0044 FFF7FEFF 		bl	writeEom
 584              	.LVL46:
 585              		.loc 1 177 0
 586 0048 70BD     		pop	{r4, r5, r6, pc}
 587              		.cfi_endproc
 588              	.LFE67:
 589              		.size	writeOscQueue, .-writeOscQueue
 590 004a 00BFAFF3 		.section	.text.osc_iaux,"ax",%progbits
 590      0080
 591              		.align	2
 592              		.p2align 4,,15
 593              		.thumb
 594              		.thumb_func
 595              		.type	osc_iaux, %function
 596              	osc_iaux:
 597              	.LFB70:
 598              		.loc 1 194 0
 599              		.cfi_startproc
 600              		@ args = 0, pretend = 0, frame = 0
 601              		@ frame_needed = 0, uses_anonymous_args = 0
 602              	.LVL47:
ARM GAS  C:\Users\z80\AppData\Local\Temp\ccA8oroC.s 			page 12


 603 0000 08B5     		push	{r3, lr}
 604              	.LCFI16:
 605              		.cfi_def_cfa_offset 8
 606              		.loc 1 196 0
 607              		.cfi_offset 14, -4
 608              		.cfi_offset 3, -8
 609 0002 FFF7FEFF 		bl	iauxQueue
 610              	.LVL48:
 611              		.loc 1 197 0
 612 0006 FFF7FEFF 		bl	writeOscQueue
 613              	.LVL49:
 614              		.loc 1 198 0
 615 000a 08BD     		pop	{r3, pc}
 616              		.cfi_endproc
 617              	.LFE70:
 618              		.size	osc_iaux, .-osc_iaux
 619 000c AFF30080 		.section	.text.osc_eref,"ax",%progbits
 620              		.align	2
 621              		.p2align 4,,15
 622              		.thumb
 623              		.thumb_func
 624              		.type	osc_eref, %function
 625              	osc_eref:
 626              	.LFB69:
 627              		.loc 1 187 0
 628              		.cfi_startproc
 629              		@ args = 0, pretend = 0, frame = 0
 630              		@ frame_needed = 0, uses_anonymous_args = 0
 631              	.LVL50:
 632 0000 08B5     		push	{r3, lr}
 633              	.LCFI17:
 634              		.cfi_def_cfa_offset 8
 635              		.loc 1 189 0
 636              		.cfi_offset 14, -4
 637              		.cfi_offset 3, -8
 638 0002 FFF7FEFF 		bl	erefQueue
 639              	.LVL51:
 640              		.loc 1 190 0
 641 0006 FFF7FEFF 		bl	writeOscQueue
 642              	.LVL52:
 643              		.loc 1 191 0
 644 000a 08BD     		pop	{r3, pc}
 645              		.cfi_endproc
 646              	.LFE69:
 647              		.size	osc_eref, .-osc_eref
 648 000c AFF30080 		.section	.text.osc_eaux,"ax",%progbits
 649              		.align	2
 650              		.p2align 4,,15
 651              		.thumb
 652              		.thumb_func
 653              		.type	osc_eaux, %function
 654              	osc_eaux:
 655              	.LFB68:
 656              		.loc 1 180 0
 657              		.cfi_startproc
 658              		@ args = 0, pretend = 0, frame = 0
 659              		@ frame_needed = 0, uses_anonymous_args = 0
ARM GAS  C:\Users\z80\AppData\Local\Temp\ccA8oroC.s 			page 13


 660              	.LVL53:
 661 0000 08B5     		push	{r3, lr}
 662              	.LCFI18:
 663              		.cfi_def_cfa_offset 8
 664              		.loc 1 182 0
 665              		.cfi_offset 14, -4
 666              		.cfi_offset 3, -8
 667 0002 FFF7FEFF 		bl	eauxQueue
 668              	.LVL54:
 669              		.loc 1 183 0
 670 0006 FFF7FEFF 		bl	writeOscQueue
 671              	.LVL55:
 672              		.loc 1 184 0
 673 000a 08BD     		pop	{r3, pc}
 674              		.cfi_endproc
 675              	.LFE68:
 676              		.size	osc_eaux, .-osc_eaux
 677 000c AFF30080 		.section	.text.cpu_io_init,"ax",%progbits
 678              		.align	2
 679              		.p2align 4,,15
 680              		.global	cpu_io_init
 681              		.thumb
 682              		.thumb_func
 683              		.type	cpu_io_init, %function
 684              	cpu_io_init:
 685              	.LFB62:
 686              		.loc 1 36 0
 687              		.cfi_startproc
 688              		@ args = 0, pretend = 0, frame = 0
 689              		@ frame_needed = 0, uses_anonymous_args = 0
 690 0000 10B5     		push	{r4, lr}
 691              	.LCFI19:
 692              		.cfi_def_cfa_offset 8
 693              		.loc 1 38 0
 694 0002 40F20000 		movw	r0, #:lower16:SD1
 695              		.loc 1 41 0
 696 0006 4FF40064 		mov	r4, #2048
 697              		.cfi_offset 14, -4
 698              		.cfi_offset 4, -8
 699              		.loc 1 38 0
 700 000a 0021     		movs	r1, #0
 701              		.loc 1 41 0
 702 000c C4F20104 		movt	r4, 16385
 703              		.loc 1 38 0
 704 0010 C0F20000 		movt	r0, #:upper16:SD1
 705 0014 FFF7FEFF 		bl	sdStart
 706              		.loc 1 41 0
 707 0018 2046     		mov	r0, r4
 708 001a 1022     		movs	r2, #16
 709 001c 4FF40071 		mov	r1, #512
 710 0020 FFF7FEFF 		bl	_pal_lld_setgroupmode
 711              		.loc 1 42 0
 712 0024 2046     		mov	r0, r4
 713 0026 4FF48061 		mov	r1, #1024
 714 002a 0222     		movs	r2, #2
 715 002c FFF7FEFF 		bl	_pal_lld_setgroupmode
 716              		.loc 1 43 0
ARM GAS  C:\Users\z80\AppData\Local\Temp\ccA8oroC.s 			page 14


 717 0030 10BD     		pop	{r4, pc}
 718              		.cfi_endproc
 719              	.LFE62:
 720              		.size	cpu_io_init, .-cpu_io_init
 721 0032 00BFAFF3 		.section	.text.cpu_io_process,"ax",%progbits
 721      0080AFF3 
 721      0080AFF3 
 721      0080
 722              		.align	2
 723              		.p2align 4,,15
 724              		.global	cpu_io_process
 725              		.thumb
 726              		.thumb_func
 727              		.type	cpu_io_process, %function
 728              	cpu_io_process:
 729              	.LFB63:
 730              		.loc 1 46 0
 731              		.cfi_startproc
 732              		@ args = 0, pretend = 0, frame = 0
 733              		@ frame_needed = 0, uses_anonymous_args = 0
 734 0000 10B5     		push	{r4, lr}
 735              	.LCFI20:
 736              		.cfi_def_cfa_offset 8
 737              		.loc 1 60 0
 738 0002 2948     		ldr	r0, .L51
 739 0004 4FF0FF31 		mov	r1, #-1
 740              		.cfi_offset 14, -4
 741              		.cfi_offset 4, -8
 742 0008 FFF7FEFF 		bl	chIQGetTimeout
 743              	.LVL56:
 744              		.loc 1 61 0
 745 000c 831C     		adds	r3, r0, #2
 746              		.loc 1 62 0
 747 000e 012B     		cmp	r3, #1
 748 0010 0ED9     		bls	.L38
 749              	.LBB14:
 750              		.loc 1 66 0
 751 0012 264A     		ldr	r2, .L51+4
 752              		.loc 1 64 0
 753 0014 C0B2     		uxtb	r0, r0
 754              	.LVL57:
 755              		.loc 1 66 0
 756 0016 1378     		ldrb	r3, [r2, #0]	@ zero_extendqisi2
 757              	.LVL58:
 758 0018 5BB9     		cbnz	r3, .L40
 759              		.loc 1 68 0
 760 001a C0B9     		cbnz	r0, .L41
 761              	.LBB17:
 762              	.LBB20:
 763              		.loc 1 101 0
 764 001c 2449     		ldr	r1, .L51+8
 765              	.LBE20:
 766              	.LBE17:
 767              		.loc 1 71 0
 768 001e 254C     		ldr	r4, .L51+12
 769              	.LBB16:
 770              	.LBB19:
ARM GAS  C:\Users\z80\AppData\Local\Temp\ccA8oroC.s 			page 15


 771              		.loc 1 103 0
 772 0020 0B78     		ldrb	r3, [r1, #0]	@ zero_extendqisi2
 773              	.LBE19:
 774              	.LBE16:
 775              		.loc 1 71 0
 776 0022 2068     		ldr	r0, [r4, #0]
 777              	.LVL59:
 778              	.LBB15:
 779              	.LBB27:
 780              		.loc 1 103 0
 781 0024 012B     		cmp	r3, #1
 782 0026 1ED0     		beq	.L43
 783 0028 022B     		cmp	r3, #2
 784 002a 32D0     		beq	.L50
 785              	.L42:
 786              	.LBB22:
 787              	.LBB24:
 788              		.loc 1 154 0
 789 002c 0023     		movs	r3, #0
 790              	.LVL60:
 791              	.L47:
 792              	.LBE24:
 793              	.LBE22:
 794              	.LBE27:
 795              	.LBE15:
 796              		.loc 1 85 0
 797 002e 2360     		str	r3, [r4, #0]
 798              	.LVL61:
 799              	.L38:
 800              	.LBE14:
 801              		.loc 1 88 0
 802 0030 10BD     		pop	{r4, pc}
 803              	.LVL62:
 804              	.L40:
 805              	.LBB31:
 806              		.loc 1 82 0
 807 0032 204C     		ldr	r4, .L51+12
 808              		.loc 1 81 0
 809 0034 4FF0000C 		mov	ip, #0
 810              		.loc 1 82 0
 811 0038 2168     		ldr	r1, [r4, #0]
 812              		.loc 1 81 0
 813 003a 82F800C0 		strb	ip, [r2, #0]
 814              		.loc 1 82 0
 815 003e 4B1C     		adds	r3, r1, #1
 816 0040 1B4A     		ldr	r2, .L51+8
 817 0042 202B     		cmp	r3, #32
 818 0044 A8BF     		it	ge
 819 0046 2023     		movge	r3, #32
 820 0048 5054     		strb	r0, [r2, r1]
 821              		.loc 1 85 0
 822 004a 2360     		str	r3, [r4, #0]
 823 004c F0E7     		b	.L38
 824              	.L41:
 825              		.loc 1 74 0
 826 004e 5C28     		cmp	r0, #92
 827 0050 16D0     		beq	.L48
ARM GAS  C:\Users\z80\AppData\Local\Temp\ccA8oroC.s 			page 16


 828              		.loc 1 75 0
 829 0052 184C     		ldr	r4, .L51+12
 830 0054 1649     		ldr	r1, .L51+8
 831 0056 2268     		ldr	r2, [r4, #0]
 832 0058 531C     		adds	r3, r2, #1
 833 005a 202B     		cmp	r3, #32
 834 005c A8BF     		it	ge
 835 005e 2023     		movge	r3, #32
 836 0060 8854     		strb	r0, [r1, r2]
 837              		.loc 1 85 0
 838 0062 2360     		str	r3, [r4, #0]
 839 0064 E4E7     		b	.L38
 840              	.LVL63:
 841              	.L43:
 842              	.LBB29:
 843              	.LBB18:
 844              		.loc 1 106 0
 845 0066 0128     		cmp	r0, #1
 846 0068 E0DD     		ble	.L42
 847 006a 134A     		ldr	r2, .L51+16
 848              		.loc 1 102 0
 849 006c 4B1C     		adds	r3, r1, #1
 850              		.loc 1 45 0
 851 006e 0818     		adds	r0, r1, r0
 852              	.LVL64:
 853              	.L45:
 854              		.loc 1 107 0
 855 0070 13F8011B 		ldrb	r1, [r3], #1	@ zero_extendqisi2
 856              		.loc 1 106 0
 857 0074 8342     		cmp	r3, r0
 858              		.loc 1 107 0
 859 0076 02F8011F 		strb	r1, [r2, #1]!
 860              		.loc 1 106 0
 861 007a F9D1     		bne	.L45
 862              	.LBB21:
 863              	.LBB23:
 864              		.loc 1 154 0
 865 007c 0023     		movs	r3, #0
 866 007e D6E7     		b	.L47
 867              	.LVL65:
 868              	.L48:
 869              	.LBE23:
 870              	.LBE21:
 871              	.LBE18:
 872              	.LBE29:
 873              		.loc 1 77 0
 874 0080 0C4C     		ldr	r4, .L51+12
 875 0082 0121     		movs	r1, #1
 876 0084 2368     		ldr	r3, [r4, #0]
 877 0086 1170     		strb	r1, [r2, #0]
 878 0088 202B     		cmp	r3, #32
 879 008a A8BF     		it	ge
 880 008c 2023     		movge	r3, #32
 881              		.loc 1 85 0
 882 008e 2360     		str	r3, [r4, #0]
 883 0090 CEE7     		b	.L38
 884              	.LVL66:
ARM GAS  C:\Users\z80\AppData\Local\Temp\ccA8oroC.s 			page 17


 885              	.L50:
 886              	.LBB30:
 887              	.LBB28:
 888              	.LBB26:
 889              	.LBB25:
 890              		.loc 1 151 0
 891 0092 4B78     		ldrb	r3, [r1, #1]	@ zero_extendqisi2
 892              	.LVL67:
 893              		.loc 1 155 0
 894 0094 094A     		ldr	r2, .L51+20
 895              		.loc 1 154 0
 896 0096 0D2B     		cmp	r3, #13
 897 0098 C8BF     		it	gt
 898 009a 0023     		movgt	r3, #0
 899              	.LVL68:
 900              		.loc 1 155 0
 901 009c 52F82330 		ldr	r3, [r2, r3, lsl #2]
 902              	.LVL69:
 903 00a0 0748     		ldr	r0, .L51+24
 904              	.LVL70:
 905 00a2 9847     		blx	r3
 906              	.LVL71:
 907              		.loc 1 154 0
 908 00a4 0023     		movs	r3, #0
 909 00a6 C2E7     		b	.L47
 910              	.L52:
 911              		.align	2
 912              	.L51:
 913 00a8 10000000 		.word	SD1+16
 914 00ac 00000000 		.word	.LANCHOR0
 915 00b0 00000000 		.word	.LANCHOR2
 916 00b4 00000000 		.word	.LANCHOR1
 917 00b8 FFFFFFFF 		.word	.LANCHOR3-1
 918 00bc 00000000 		.word	.LANCHOR4
 919 00c0 00000000 		.word	.LANCHOR3
 920              	.LBE25:
 921              	.LBE26:
 922              	.LBE28:
 923              	.LBE30:
 924              	.LBE31:
 925              		.cfi_endproc
 926              	.LFE63:
 927              		.size	cpu_io_process, .-cpu_io_process
 928 00c4 AFF30080 		.section	.text.funcArgs,"ax",%progbits
 928      AFF30080 
 928      AFF30080 
 929              		.align	2
 930              		.p2align 4,,15
 931              		.global	funcArgs
 932              		.thumb
 933              		.thumb_func
 934              		.type	funcArgs, %function
 935              	funcArgs:
 936              	.LFB64:
 937              		.loc 1 91 0
 938              		.cfi_startproc
 939              		@ args = 0, pretend = 0, frame = 0
ARM GAS  C:\Users\z80\AppData\Local\Temp\ccA8oroC.s 			page 18


 940              		@ frame_needed = 0, uses_anonymous_args = 0
 941              		@ link register save eliminated.
 942              		.loc 1 92 0
 943 0000 40F20000 		movw	r0, #:lower16:.LANCHOR3
 944 0004 C0F20000 		movt	r0, #:upper16:.LANCHOR3
 945              		.loc 1 93 0
 946 0008 7047     		bx	lr
 947              		.cfi_endproc
 948              	.LFE64:
 949              		.size	funcArgs, .-funcArgs
 950 000a 00BFAFF3 		.section	.bss.slash.3688,"aw",%nobits
 950      0080
 951              		.set	.LANCHOR0,. + 0
 952              		.type	slash.3688, %object
 953              		.size	slash.3688, 1
 954              	slash.3688:
 955 0000 00       		.space	1
 956              		.section	.rodata.funcs,"a",%progbits
 957              		.align	2
 958              		.set	.LANCHOR4,. + 0
 959              		.type	funcs, %object
 960              		.size	funcs, 56
 961              	funcs:
 962 0000 00000000 		.word	osc_eaux
 963 0004 00000000 		.word	osc_eref
 964 0008 00000000 		.word	osc_iaux
 965 000c 00000000 		.word	osc_set_period
 966 0010 00000000 		.word	set_leds
 967 0014 00000000 		.word	set_out_relay
 968 0018 00000000 		.word	set_sc_relay
 969 001c 00000000 		.word	set_dac
 970 0020 00000000 		.word	set_one_pulse
 971 0024 00000000 		.word	set_meandr
 972 0028 00000000 		.word	set_sweep
 973 002c 00000000 		.word	hardware_version
 974 0030 00000000 		.word	firmware_version
 975 0034 00000000 		.word	set_autostart_osc
 976              		.section	.bss.buffer,"aw",%nobits
 977              		.align	2
 978              		.set	.LANCHOR2,. + 0
 979              		.type	buffer, %object
 980              		.size	buffer, 32
 981              	buffer:
 982 0000 00000000 		.space	32
 982      00000000 
 982      00000000 
 982      00000000 
 982      00000000 
 983              		.section	.rodata.str1.4,"aMS",%progbits,1
 984              		.align	2
 985              	.LC0:
 986 0000 302E302E 		.ascii	"0.0.1\000"
 986      3100
 987 0006 0000     		.space	2
 988              	.LC1:
 989 0008 766F6C74 		.ascii	"voltamp-1.0.0\000"
 989      616D702D 
ARM GAS  C:\Users\z80\AppData\Local\Temp\ccA8oroC.s 			page 19


 989      312E302E 
 989      3000
 990 0016 0000     		.section	.bss.args,"aw",%nobits
 991              		.align	2
 992              		.set	.LANCHOR3,. + 0
 993              		.type	args, %object
 994              		.size	args, 32
 995              	args:
 996 0000 00000000 		.space	32
 996      00000000 
 996      00000000 
 996      00000000 
 996      00000000 
 997              		.section	.bss.out_index.3689,"aw",%nobits
 998              		.align	2
 999              		.set	.LANCHOR1,. + 0
 1000              		.type	out_index.3689, %object
 1001              		.size	out_index.3689, 4
 1002              	out_index.3689:
 1003 0000 00000000 		.space	4
 1004              		.text
 1005              	.Letext0:
 1006              		.section	.debug_loc,"",%progbits
 1007              	.Ldebug_loc0:
 1008              	.LLST0:
 1009 0000 00000000 		.4byte	.LFB81
 1010 0004 02000000 		.4byte	.LCFI0
 1011 0008 0200     		.2byte	0x2
 1012 000a 7D       		.byte	0x7d
 1013 000b 00       		.sleb128 0
 1014 000c 02000000 		.4byte	.LCFI0
 1015 0010 0A000000 		.4byte	.LFE81
 1016 0014 0200     		.2byte	0x2
 1017 0016 7D       		.byte	0x7d
 1018 0017 08       		.sleb128 8
 1019 0018 00000000 		.4byte	0x0
 1020 001c 00000000 		.4byte	0x0
 1021              	.LLST1:
 1022 0020 00000000 		.4byte	.LVL0
 1023 0024 04000000 		.4byte	.LVL1
 1024 0028 0100     		.2byte	0x1
 1025 002a 50       		.byte	0x50
 1026 002b 00000000 		.4byte	0x0
 1027 002f 00000000 		.4byte	0x0
 1028              	.LLST2:
 1029 0033 00000000 		.4byte	.LFB82
 1030 0037 12000000 		.4byte	.LCFI1
 1031 003b 0200     		.2byte	0x2
 1032 003d 7D       		.byte	0x7d
 1033 003e 00       		.sleb128 0
 1034 003f 12000000 		.4byte	.LCFI1
 1035 0043 34000000 		.4byte	.LFE82
 1036 0047 0200     		.2byte	0x2
 1037 0049 7D       		.byte	0x7d
 1038 004a 08       		.sleb128 8
 1039 004b 00000000 		.4byte	0x0
 1040 004f 00000000 		.4byte	0x0
ARM GAS  C:\Users\z80\AppData\Local\Temp\ccA8oroC.s 			page 20


 1041              	.LLST3:
 1042 0053 00000000 		.4byte	.LVL2
 1043 0057 18000000 		.4byte	.LVL3
 1044 005b 0100     		.2byte	0x1
 1045 005d 50       		.byte	0x50
 1046 005e 00000000 		.4byte	0x0
 1047 0062 00000000 		.4byte	0x0
 1048              	.LLST4:
 1049 0066 00000000 		.4byte	.LFB83
 1050 006a 02000000 		.4byte	.LCFI2
 1051 006e 0200     		.2byte	0x2
 1052 0070 7D       		.byte	0x7d
 1053 0071 00       		.sleb128 0
 1054 0072 02000000 		.4byte	.LCFI2
 1055 0076 14000000 		.4byte	.LFE83
 1056 007a 0200     		.2byte	0x2
 1057 007c 7D       		.byte	0x7d
 1058 007d 08       		.sleb128 8
 1059 007e 00000000 		.4byte	0x0
 1060 0082 00000000 		.4byte	0x0
 1061              	.LLST5:
 1062 0086 00000000 		.4byte	.LFB80
 1063 008a 02000000 		.4byte	.LCFI3
 1064 008e 0200     		.2byte	0x2
 1065 0090 7D       		.byte	0x7d
 1066 0091 00       		.sleb128 0
 1067 0092 02000000 		.4byte	.LCFI3
 1068 0096 06000000 		.4byte	.LCFI4
 1069 009a 0200     		.2byte	0x2
 1070 009c 7D       		.byte	0x7d
 1071 009d 0C       		.sleb128 12
 1072 009e 06000000 		.4byte	.LCFI4
 1073 00a2 30000000 		.4byte	.LFE80
 1074 00a6 0200     		.2byte	0x2
 1075 00a8 7D       		.byte	0x7d
 1076 00a9 18       		.sleb128 24
 1077 00aa 00000000 		.4byte	0x0
 1078 00ae 00000000 		.4byte	0x0
 1079              	.LLST6:
 1080 00b2 00000000 		.4byte	.LVL4
 1081 00b6 0C000000 		.4byte	.LVL5
 1082 00ba 0100     		.2byte	0x1
 1083 00bc 50       		.byte	0x50
 1084 00bd 00000000 		.4byte	0x0
 1085 00c1 00000000 		.4byte	0x0
 1086              	.LLST7:
 1087 00c5 16000000 		.4byte	.LVL6
 1088 00c9 18000000 		.4byte	.LVL7
 1089 00cd 0200     		.2byte	0x2
 1090 00cf 30       		.byte	0x30
 1091 00d0 9F       		.byte	0x9f
 1092 00d1 00000000 		.4byte	0x0
 1093 00d5 00000000 		.4byte	0x0
 1094              	.LLST8:
 1095 00d9 00000000 		.4byte	.LFB79
 1096 00dd 02000000 		.4byte	.LCFI5
 1097 00e1 0200     		.2byte	0x2
ARM GAS  C:\Users\z80\AppData\Local\Temp\ccA8oroC.s 			page 21


 1098 00e3 7D       		.byte	0x7d
 1099 00e4 00       		.sleb128 0
 1100 00e5 02000000 		.4byte	.LCFI5
 1101 00e9 06000000 		.4byte	.LCFI6
 1102 00ed 0200     		.2byte	0x2
 1103 00ef 7D       		.byte	0x7d
 1104 00f0 0C       		.sleb128 12
 1105 00f1 06000000 		.4byte	.LCFI6
 1106 00f5 30000000 		.4byte	.LFE79
 1107 00f9 0200     		.2byte	0x2
 1108 00fb 7D       		.byte	0x7d
 1109 00fc 20       		.sleb128 32
 1110 00fd 00000000 		.4byte	0x0
 1111 0101 00000000 		.4byte	0x0
 1112              	.LLST9:
 1113 0105 00000000 		.4byte	.LVL8
 1114 0109 0A000000 		.4byte	.LVL9
 1115 010d 0100     		.2byte	0x1
 1116 010f 50       		.byte	0x50
 1117 0110 00000000 		.4byte	0x0
 1118 0114 00000000 		.4byte	0x0
 1119              	.LLST10:
 1120 0118 16000000 		.4byte	.LVL10
 1121 011c 18000000 		.4byte	.LVL11
 1122 0120 0200     		.2byte	0x2
 1123 0122 30       		.byte	0x30
 1124 0123 9F       		.byte	0x9f
 1125 0124 00000000 		.4byte	0x0
 1126 0128 00000000 		.4byte	0x0
 1127              	.LLST11:
 1128 012c 00000000 		.4byte	.LFB78
 1129 0130 02000000 		.4byte	.LCFI7
 1130 0134 0200     		.2byte	0x2
 1131 0136 7D       		.byte	0x7d
 1132 0137 00       		.sleb128 0
 1133 0138 02000000 		.4byte	.LCFI7
 1134 013c 12000000 		.4byte	.LFE78
 1135 0140 0200     		.2byte	0x2
 1136 0142 7D       		.byte	0x7d
 1137 0143 08       		.sleb128 8
 1138 0144 00000000 		.4byte	0x0
 1139 0148 00000000 		.4byte	0x0
 1140              	.LLST12:
 1141 014c 00000000 		.4byte	.LVL12
 1142 0150 05000000 		.4byte	.LVL13-1
 1143 0154 0100     		.2byte	0x1
 1144 0156 50       		.byte	0x50
 1145 0157 00000000 		.4byte	0x0
 1146 015b 00000000 		.4byte	0x0
 1147              	.LLST13:
 1148 015f 06000000 		.4byte	.LVL13
 1149 0163 0F000000 		.4byte	.LVL14-1
 1150 0167 0100     		.2byte	0x1
 1151 0169 50       		.byte	0x50
 1152 016a 00000000 		.4byte	0x0
 1153 016e 00000000 		.4byte	0x0
 1154              	.LLST14:
ARM GAS  C:\Users\z80\AppData\Local\Temp\ccA8oroC.s 			page 22


 1155 0172 00000000 		.4byte	.LFB77
 1156 0176 02000000 		.4byte	.LCFI8
 1157 017a 0200     		.2byte	0x2
 1158 017c 7D       		.byte	0x7d
 1159 017d 00       		.sleb128 0
 1160 017e 02000000 		.4byte	.LCFI8
 1161 0182 12000000 		.4byte	.LFE77
 1162 0186 0200     		.2byte	0x2
 1163 0188 7D       		.byte	0x7d
 1164 0189 08       		.sleb128 8
 1165 018a 00000000 		.4byte	0x0
 1166 018e 00000000 		.4byte	0x0
 1167              	.LLST15:
 1168 0192 00000000 		.4byte	.LVL15
 1169 0196 05000000 		.4byte	.LVL16-1
 1170 019a 0100     		.2byte	0x1
 1171 019c 50       		.byte	0x50
 1172 019d 00000000 		.4byte	0x0
 1173 01a1 00000000 		.4byte	0x0
 1174              	.LLST16:
 1175 01a5 06000000 		.4byte	.LVL16
 1176 01a9 0F000000 		.4byte	.LVL17-1
 1177 01ad 0100     		.2byte	0x1
 1178 01af 50       		.byte	0x50
 1179 01b0 00000000 		.4byte	0x0
 1180 01b4 00000000 		.4byte	0x0
 1181              	.LLST17:
 1182 01b8 00000000 		.4byte	.LFB76
 1183 01bc 02000000 		.4byte	.LCFI9
 1184 01c0 0200     		.2byte	0x2
 1185 01c2 7D       		.byte	0x7d
 1186 01c3 00       		.sleb128 0
 1187 01c4 02000000 		.4byte	.LCFI9
 1188 01c8 12000000 		.4byte	.LFE76
 1189 01cc 0200     		.2byte	0x2
 1190 01ce 7D       		.byte	0x7d
 1191 01cf 08       		.sleb128 8
 1192 01d0 00000000 		.4byte	0x0
 1193 01d4 00000000 		.4byte	0x0
 1194              	.LLST18:
 1195 01d8 00000000 		.4byte	.LVL18
 1196 01dc 05000000 		.4byte	.LVL19-1
 1197 01e0 0100     		.2byte	0x1
 1198 01e2 50       		.byte	0x50
 1199 01e3 00000000 		.4byte	0x0
 1200 01e7 00000000 		.4byte	0x0
 1201              	.LLST19:
 1202 01eb 06000000 		.4byte	.LVL19
 1203 01ef 0F000000 		.4byte	.LVL20-1
 1204 01f3 0100     		.2byte	0x1
 1205 01f5 50       		.byte	0x50
 1206 01f6 00000000 		.4byte	0x0
 1207 01fa 00000000 		.4byte	0x0
 1208              	.LLST20:
 1209 01fe 00000000 		.4byte	.LFB75
 1210 0202 02000000 		.4byte	.LCFI10
 1211 0206 0200     		.2byte	0x2
ARM GAS  C:\Users\z80\AppData\Local\Temp\ccA8oroC.s 			page 23


 1212 0208 7D       		.byte	0x7d
 1213 0209 00       		.sleb128 0
 1214 020a 02000000 		.4byte	.LCFI10
 1215 020e 12000000 		.4byte	.LFE75
 1216 0212 0200     		.2byte	0x2
 1217 0214 7D       		.byte	0x7d
 1218 0215 08       		.sleb128 8
 1219 0216 00000000 		.4byte	0x0
 1220 021a 00000000 		.4byte	0x0
 1221              	.LLST21:
 1222 021e 00000000 		.4byte	.LVL21
 1223 0222 05000000 		.4byte	.LVL22-1
 1224 0226 0100     		.2byte	0x1
 1225 0228 50       		.byte	0x50
 1226 0229 00000000 		.4byte	0x0
 1227 022d 00000000 		.4byte	0x0
 1228              	.LLST22:
 1229 0231 06000000 		.4byte	.LVL22
 1230 0235 0F000000 		.4byte	.LVL23-1
 1231 0239 0100     		.2byte	0x1
 1232 023b 50       		.byte	0x50
 1233 023c 00000000 		.4byte	0x0
 1234 0240 00000000 		.4byte	0x0
 1235              	.LLST23:
 1236 0244 00000000 		.4byte	.LFB74
 1237 0248 02000000 		.4byte	.LCFI11
 1238 024c 0200     		.2byte	0x2
 1239 024e 7D       		.byte	0x7d
 1240 024f 00       		.sleb128 0
 1241 0250 02000000 		.4byte	.LCFI11
 1242 0254 0A000000 		.4byte	.LFE74
 1243 0258 0200     		.2byte	0x2
 1244 025a 7D       		.byte	0x7d
 1245 025b 08       		.sleb128 8
 1246 025c 00000000 		.4byte	0x0
 1247 0260 00000000 		.4byte	0x0
 1248              	.LLST24:
 1249 0264 00000000 		.4byte	.LVL24
 1250 0268 04000000 		.4byte	.LVL25
 1251 026c 0100     		.2byte	0x1
 1252 026e 50       		.byte	0x50
 1253 026f 00000000 		.4byte	0x0
 1254 0273 00000000 		.4byte	0x0
 1255              	.LLST25:
 1256 0277 00000000 		.4byte	.LFB73
 1257 027b 02000000 		.4byte	.LCFI12
 1258 027f 0200     		.2byte	0x2
 1259 0281 7D       		.byte	0x7d
 1260 0282 00       		.sleb128 0
 1261 0283 02000000 		.4byte	.LCFI12
 1262 0287 0A000000 		.4byte	.LFE73
 1263 028b 0200     		.2byte	0x2
 1264 028d 7D       		.byte	0x7d
 1265 028e 08       		.sleb128 8
 1266 028f 00000000 		.4byte	0x0
 1267 0293 00000000 		.4byte	0x0
 1268              	.LLST26:
ARM GAS  C:\Users\z80\AppData\Local\Temp\ccA8oroC.s 			page 24


 1269 0297 00000000 		.4byte	.LVL26
 1270 029b 04000000 		.4byte	.LVL27
 1271 029f 0100     		.2byte	0x1
 1272 02a1 50       		.byte	0x50
 1273 02a2 00000000 		.4byte	0x0
 1274 02a6 00000000 		.4byte	0x0
 1275              	.LLST27:
 1276 02aa 00000000 		.4byte	.LFB72
 1277 02ae 02000000 		.4byte	.LCFI13
 1278 02b2 0200     		.2byte	0x2
 1279 02b4 7D       		.byte	0x7d
 1280 02b5 00       		.sleb128 0
 1281 02b6 02000000 		.4byte	.LCFI13
 1282 02ba 0A000000 		.4byte	.LFE72
 1283 02be 0200     		.2byte	0x2
 1284 02c0 7D       		.byte	0x7d
 1285 02c1 08       		.sleb128 8
 1286 02c2 00000000 		.4byte	0x0
 1287 02c6 00000000 		.4byte	0x0
 1288              	.LLST28:
 1289 02ca 00000000 		.4byte	.LVL28
 1290 02ce 04000000 		.4byte	.LVL29
 1291 02d2 0100     		.2byte	0x1
 1292 02d4 50       		.byte	0x50
 1293 02d5 00000000 		.4byte	0x0
 1294 02d9 00000000 		.4byte	0x0
 1295              	.LLST29:
 1296 02dd 00000000 		.4byte	.LFB71
 1297 02e1 02000000 		.4byte	.LCFI14
 1298 02e5 0200     		.2byte	0x2
 1299 02e7 7D       		.byte	0x7d
 1300 02e8 00       		.sleb128 0
 1301 02e9 02000000 		.4byte	.LCFI14
 1302 02ed 1C000000 		.4byte	.LFE71
 1303 02f1 0200     		.2byte	0x2
 1304 02f3 7D       		.byte	0x7d
 1305 02f4 08       		.sleb128 8
 1306 02f5 00000000 		.4byte	0x0
 1307 02f9 00000000 		.4byte	0x0
 1308              	.LLST30:
 1309 02fd 00000000 		.4byte	.LVL30
 1310 0301 12000000 		.4byte	.LVL31
 1311 0305 0100     		.2byte	0x1
 1312 0307 50       		.byte	0x50
 1313 0308 00000000 		.4byte	0x0
 1314 030c 00000000 		.4byte	0x0
 1315              	.LLST31:
 1316 0310 00000000 		.4byte	.LFB67
 1317 0314 02000000 		.4byte	.LCFI15
 1318 0318 0200     		.2byte	0x2
 1319 031a 7D       		.byte	0x7d
 1320 031b 00       		.sleb128 0
 1321 031c 02000000 		.4byte	.LCFI15
 1322 0320 4A000000 		.4byte	.LFE67
 1323 0324 0200     		.2byte	0x2
 1324 0326 7D       		.byte	0x7d
 1325 0327 10       		.sleb128 16
ARM GAS  C:\Users\z80\AppData\Local\Temp\ccA8oroC.s 			page 25


 1326 0328 00000000 		.4byte	0x0
 1327 032c 00000000 		.4byte	0x0
 1328              	.LLST32:
 1329 0330 00000000 		.4byte	.LVL32
 1330 0334 0D000000 		.4byte	.LVL35-1
 1331 0338 0100     		.2byte	0x1
 1332 033a 50       		.byte	0x50
 1333 033b 0D000000 		.4byte	.LVL35-1
 1334 033f 4A000000 		.4byte	.LFE67
 1335 0343 0100     		.2byte	0x1
 1336 0345 54       		.byte	0x54
 1337 0346 00000000 		.4byte	0x0
 1338 034a 00000000 		.4byte	0x0
 1339              	.LLST33:
 1340 034e 30000000 		.4byte	.LVL41
 1341 0352 38000000 		.4byte	.LVL42
 1342 0356 0100     		.2byte	0x1
 1343 0358 50       		.byte	0x50
 1344 0359 38000000 		.4byte	.LVL42
 1345 035d 3F000000 		.4byte	.LVL44-1
 1346 0361 0300     		.2byte	0x3
 1347 0363 73       		.byte	0x73
 1348 0364 7E       		.sleb128 -2
 1349 0365 9F       		.byte	0x9f
 1350 0366 00000000 		.4byte	0x0
 1351 036a 00000000 		.4byte	0x0
 1352              	.LLST34:
 1353 036e 30000000 		.4byte	.LVL41
 1354 0372 38000000 		.4byte	.LVL42
 1355 0376 0F00     		.2byte	0xf
 1356 0378 70       		.byte	0x70
 1357 0379 02       		.sleb128 2
 1358 037a 23       		.byte	0x23
 1359 037b 80808080 		.uleb128 0x80000000
 1359      08
 1360 0380 0C       		.byte	0xc
 1361 0381 01000080 		.4byte	0x80000001
 1362 0385 2C       		.byte	0x2c
 1363 0386 9F       		.byte	0x9f
 1364 0387 38000000 		.4byte	.LVL42
 1365 038b 3F000000 		.4byte	.LVL44-1
 1366 038f 0F00     		.2byte	0xf
 1367 0391 73       		.byte	0x73
 1368 0392 00       		.sleb128 0
 1369 0393 23       		.byte	0x23
 1370 0394 80808080 		.uleb128 0x80000000
 1370      08
 1371 0399 0C       		.byte	0xc
 1372 039a 01000080 		.4byte	0x80000001
 1373 039e 2C       		.byte	0x2c
 1374 039f 9F       		.byte	0x9f
 1375 03a0 00000000 		.4byte	0x0
 1376 03a4 00000000 		.4byte	0x0
 1377              	.LLST35:
 1378 03a8 18000000 		.4byte	.LVL36
 1379 03ac 24000000 		.4byte	.LVL39
 1380 03b0 0100     		.2byte	0x1
ARM GAS  C:\Users\z80\AppData\Local\Temp\ccA8oroC.s 			page 26


 1381 03b2 56       		.byte	0x56
 1382 03b3 24000000 		.4byte	.LVL39
 1383 03b7 4A000000 		.4byte	.LFE67
 1384 03bb 0100     		.2byte	0x1
 1385 03bd 56       		.byte	0x56
 1386 03be 00000000 		.4byte	0x0
 1387 03c2 00000000 		.4byte	0x0
 1388              	.LLST36:
 1389 03c6 24000000 		.4byte	.LVL39
 1390 03ca 28000000 		.4byte	.LVL40
 1391 03ce 0200     		.2byte	0x2
 1392 03d0 30       		.byte	0x30
 1393 03d1 9F       		.byte	0x9f
 1394 03d2 40000000 		.4byte	.LVL44
 1395 03d6 44000000 		.4byte	.LVL45
 1396 03da 0100     		.2byte	0x1
 1397 03dc 55       		.byte	0x55
 1398 03dd 00000000 		.4byte	0x0
 1399 03e1 00000000 		.4byte	0x0
 1400              	.LLST37:
 1401 03e5 0A000000 		.4byte	.LVL34
 1402 03e9 0D000000 		.4byte	.LVL35-1
 1403 03ed 0100     		.2byte	0x1
 1404 03ef 53       		.byte	0x53
 1405 03f0 00000000 		.4byte	0x0
 1406 03f4 00000000 		.4byte	0x0
 1407              	.LLST38:
 1408 03f8 1E000000 		.4byte	.LVL38
 1409 03fc 2F000000 		.4byte	.LVL41-1
 1410 0400 0100     		.2byte	0x1
 1411 0402 53       		.byte	0x53
 1412 0403 44000000 		.4byte	.LVL45
 1413 0407 47000000 		.4byte	.LVL46-1
 1414 040b 0100     		.2byte	0x1
 1415 040d 53       		.byte	0x53
 1416 040e 00000000 		.4byte	0x0
 1417 0412 00000000 		.4byte	0x0
 1418              	.LLST39:
 1419 0416 3A000000 		.4byte	.LVL43
 1420 041a 3F000000 		.4byte	.LVL44-1
 1421 041e 0100     		.2byte	0x1
 1422 0420 50       		.byte	0x50
 1423 0421 00000000 		.4byte	0x0
 1424 0425 00000000 		.4byte	0x0
 1425              	.LLST40:
 1426 0429 00000000 		.4byte	.LFB70
 1427 042d 02000000 		.4byte	.LCFI16
 1428 0431 0200     		.2byte	0x2
 1429 0433 7D       		.byte	0x7d
 1430 0434 00       		.sleb128 0
 1431 0435 02000000 		.4byte	.LCFI16
 1432 0439 0C000000 		.4byte	.LFE70
 1433 043d 0200     		.2byte	0x2
 1434 043f 7D       		.byte	0x7d
 1435 0440 08       		.sleb128 8
 1436 0441 00000000 		.4byte	0x0
 1437 0445 00000000 		.4byte	0x0
ARM GAS  C:\Users\z80\AppData\Local\Temp\ccA8oroC.s 			page 27


 1438              	.LLST41:
 1439 0449 00000000 		.4byte	.LVL47
 1440 044d 05000000 		.4byte	.LVL48-1
 1441 0451 0100     		.2byte	0x1
 1442 0453 50       		.byte	0x50
 1443 0454 00000000 		.4byte	0x0
 1444 0458 00000000 		.4byte	0x0
 1445              	.LLST42:
 1446 045c 06000000 		.4byte	.LVL48
 1447 0460 09000000 		.4byte	.LVL49-1
 1448 0464 0100     		.2byte	0x1
 1449 0466 50       		.byte	0x50
 1450 0467 00000000 		.4byte	0x0
 1451 046b 00000000 		.4byte	0x0
 1452              	.LLST43:
 1453 046f 00000000 		.4byte	.LFB69
 1454 0473 02000000 		.4byte	.LCFI17
 1455 0477 0200     		.2byte	0x2
 1456 0479 7D       		.byte	0x7d
 1457 047a 00       		.sleb128 0
 1458 047b 02000000 		.4byte	.LCFI17
 1459 047f 0C000000 		.4byte	.LFE69
 1460 0483 0200     		.2byte	0x2
 1461 0485 7D       		.byte	0x7d
 1462 0486 08       		.sleb128 8
 1463 0487 00000000 		.4byte	0x0
 1464 048b 00000000 		.4byte	0x0
 1465              	.LLST44:
 1466 048f 00000000 		.4byte	.LVL50
 1467 0493 05000000 		.4byte	.LVL51-1
 1468 0497 0100     		.2byte	0x1
 1469 0499 50       		.byte	0x50
 1470 049a 00000000 		.4byte	0x0
 1471 049e 00000000 		.4byte	0x0
 1472              	.LLST45:
 1473 04a2 06000000 		.4byte	.LVL51
 1474 04a6 09000000 		.4byte	.LVL52-1
 1475 04aa 0100     		.2byte	0x1
 1476 04ac 50       		.byte	0x50
 1477 04ad 00000000 		.4byte	0x0
 1478 04b1 00000000 		.4byte	0x0
 1479              	.LLST46:
 1480 04b5 00000000 		.4byte	.LFB68
 1481 04b9 02000000 		.4byte	.LCFI18
 1482 04bd 0200     		.2byte	0x2
 1483 04bf 7D       		.byte	0x7d
 1484 04c0 00       		.sleb128 0
 1485 04c1 02000000 		.4byte	.LCFI18
 1486 04c5 0C000000 		.4byte	.LFE68
 1487 04c9 0200     		.2byte	0x2
 1488 04cb 7D       		.byte	0x7d
 1489 04cc 08       		.sleb128 8
 1490 04cd 00000000 		.4byte	0x0
 1491 04d1 00000000 		.4byte	0x0
 1492              	.LLST47:
 1493 04d5 00000000 		.4byte	.LVL53
 1494 04d9 05000000 		.4byte	.LVL54-1
ARM GAS  C:\Users\z80\AppData\Local\Temp\ccA8oroC.s 			page 28


 1495 04dd 0100     		.2byte	0x1
 1496 04df 50       		.byte	0x50
 1497 04e0 00000000 		.4byte	0x0
 1498 04e4 00000000 		.4byte	0x0
 1499              	.LLST48:
 1500 04e8 06000000 		.4byte	.LVL54
 1501 04ec 09000000 		.4byte	.LVL55-1
 1502 04f0 0100     		.2byte	0x1
 1503 04f2 50       		.byte	0x50
 1504 04f3 00000000 		.4byte	0x0
 1505 04f7 00000000 		.4byte	0x0
 1506              	.LLST49:
 1507 04fb 00000000 		.4byte	.LFB62
 1508 04ff 02000000 		.4byte	.LCFI19
 1509 0503 0200     		.2byte	0x2
 1510 0505 7D       		.byte	0x7d
 1511 0506 00       		.sleb128 0
 1512 0507 02000000 		.4byte	.LCFI19
 1513 050b 32000000 		.4byte	.LFE62
 1514 050f 0200     		.2byte	0x2
 1515 0511 7D       		.byte	0x7d
 1516 0512 08       		.sleb128 8
 1517 0513 00000000 		.4byte	0x0
 1518 0517 00000000 		.4byte	0x0
 1519              	.LLST50:
 1520 051b 00000000 		.4byte	.LFB63
 1521 051f 02000000 		.4byte	.LCFI20
 1522 0523 0200     		.2byte	0x2
 1523 0525 7D       		.byte	0x7d
 1524 0526 00       		.sleb128 0
 1525 0527 02000000 		.4byte	.LCFI20
 1526 052b C4000000 		.4byte	.LFE63
 1527 052f 0200     		.2byte	0x2
 1528 0531 7D       		.byte	0x7d
 1529 0532 08       		.sleb128 8
 1530 0533 00000000 		.4byte	0x0
 1531 0537 00000000 		.4byte	0x0
 1532              	.LLST51:
 1533 053b 0C000000 		.4byte	.LVL56
 1534 053f 16000000 		.4byte	.LVL57
 1535 0543 0100     		.2byte	0x1
 1536 0545 50       		.byte	0x50
 1537 0546 16000000 		.4byte	.LVL57
 1538 054a 18000000 		.4byte	.LVL58
 1539 054e 0300     		.2byte	0x3
 1540 0550 73       		.byte	0x73
 1541 0551 7E       		.sleb128 -2
 1542 0552 9F       		.byte	0x9f
 1543 0553 00000000 		.4byte	0x0
 1544 0557 00000000 		.4byte	0x0
 1545              	.LLST52:
 1546 055b 0C000000 		.4byte	.LVL56
 1547 055f 16000000 		.4byte	.LVL57
 1548 0563 0F00     		.2byte	0xf
 1549 0565 70       		.byte	0x70
 1550 0566 02       		.sleb128 2
 1551 0567 23       		.byte	0x23
ARM GAS  C:\Users\z80\AppData\Local\Temp\ccA8oroC.s 			page 29


 1552 0568 80808080 		.uleb128 0x80000000
 1552      08
 1553 056d 0C       		.byte	0xc
 1554 056e 01000080 		.4byte	0x80000001
 1555 0572 2C       		.byte	0x2c
 1556 0573 9F       		.byte	0x9f
 1557 0574 16000000 		.4byte	.LVL57
 1558 0578 18000000 		.4byte	.LVL58
 1559 057c 0F00     		.2byte	0xf
 1560 057e 73       		.byte	0x73
 1561 057f 00       		.sleb128 0
 1562 0580 23       		.byte	0x23
 1563 0581 80808080 		.uleb128 0x80000000
 1563      08
 1564 0586 0C       		.byte	0xc
 1565 0587 01000080 		.4byte	0x80000001
 1566 058b 2C       		.byte	0x2c
 1567 058c 9F       		.byte	0x9f
 1568 058d 00000000 		.4byte	0x0
 1569 0591 00000000 		.4byte	0x0
 1570              	.LLST53:
 1571 0595 16000000 		.4byte	.LVL57
 1572 0599 24000000 		.4byte	.LVL59
 1573 059d 0100     		.2byte	0x1
 1574 059f 50       		.byte	0x50
 1575 05a0 32000000 		.4byte	.LVL62
 1576 05a4 66000000 		.4byte	.LVL63
 1577 05a8 0100     		.2byte	0x1
 1578 05aa 50       		.byte	0x50
 1579 05ab 80000000 		.4byte	.LVL65
 1580 05af 92000000 		.4byte	.LVL66
 1581 05b3 0100     		.2byte	0x1
 1582 05b5 50       		.byte	0x50
 1583 05b6 00000000 		.4byte	0x0
 1584 05ba 00000000 		.4byte	0x0
 1585              	.LLST54:
 1586 05be 24000000 		.4byte	.LVL59
 1587 05c2 2E000000 		.4byte	.LVL60
 1588 05c6 0500     		.2byte	0x5
 1589 05c8 03       		.byte	0x3
 1590 05c9 00000000 		.4byte	out_index.3689
 1591 05cd 66000000 		.4byte	.LVL63
 1592 05d1 70000000 		.4byte	.LVL64
 1593 05d5 0100     		.2byte	0x1
 1594 05d7 50       		.byte	0x50
 1595 05d8 70000000 		.4byte	.LVL64
 1596 05dc 80000000 		.4byte	.LVL65
 1597 05e0 0500     		.2byte	0x5
 1598 05e2 03       		.byte	0x3
 1599 05e3 00000000 		.4byte	out_index.3689
 1600 05e7 92000000 		.4byte	.LVL66
 1601 05eb A2000000 		.4byte	.LVL70
 1602 05ef 0100     		.2byte	0x1
 1603 05f1 50       		.byte	0x50
 1604 05f2 A2000000 		.4byte	.LVL70
 1605 05f6 A3000000 		.4byte	.LVL71-1
 1606 05fa 0500     		.2byte	0x5
ARM GAS  C:\Users\z80\AppData\Local\Temp\ccA8oroC.s 			page 30


 1607 05fc 03       		.byte	0x3
 1608 05fd 00000000 		.4byte	out_index.3689
 1609 0601 00000000 		.4byte	0x0
 1610 0605 00000000 		.4byte	0x0
 1611              	.LLST55:
 1612 0609 24000000 		.4byte	.LVL59
 1613 060d 30000000 		.4byte	.LVL61
 1614 0611 0600     		.2byte	0x6
 1615 0613 03       		.byte	0x3
 1616 0614 00000000 		.4byte	buffer
 1617 0618 9F       		.byte	0x9f
 1618 0619 66000000 		.4byte	.LVL63
 1619 061d 80000000 		.4byte	.LVL65
 1620 0621 0600     		.2byte	0x6
 1621 0623 03       		.byte	0x3
 1622 0624 00000000 		.4byte	buffer
 1623 0628 9F       		.byte	0x9f
 1624 0629 92000000 		.4byte	.LVL66
 1625 062d C4000000 		.4byte	.LFE63
 1626 0631 0600     		.2byte	0x6
 1627 0633 03       		.byte	0x3
 1628 0634 00000000 		.4byte	buffer
 1629 0638 9F       		.byte	0x9f
 1630 0639 00000000 		.4byte	0x0
 1631 063d 00000000 		.4byte	0x0
 1632              	.LLST56:
 1633 0641 66000000 		.4byte	.LVL63
 1634 0645 70000000 		.4byte	.LVL64
 1635 0649 0200     		.2byte	0x2
 1636 064b 30       		.byte	0x30
 1637 064c 9F       		.byte	0x9f
 1638 064d 00000000 		.4byte	0x0
 1639 0651 00000000 		.4byte	0x0
 1640              	.LLST57:
 1641 0655 24000000 		.4byte	.LVL59
 1642 0659 2E000000 		.4byte	.LVL60
 1643 065d 0500     		.2byte	0x5
 1644 065f 03       		.byte	0x3
 1645 0660 00000000 		.4byte	buffer
 1646 0664 66000000 		.4byte	.LVL63
 1647 0668 80000000 		.4byte	.LVL65
 1648 066c 0500     		.2byte	0x5
 1649 066e 03       		.byte	0x3
 1650 066f 00000000 		.4byte	buffer
 1651 0673 92000000 		.4byte	.LVL66
 1652 0677 A3000000 		.4byte	.LVL71-1
 1653 067b 0500     		.2byte	0x5
 1654 067d 03       		.byte	0x3
 1655 067e 00000000 		.4byte	buffer
 1656 0682 00000000 		.4byte	0x0
 1657 0686 00000000 		.4byte	0x0
 1658              	.LLST58:
 1659 068a 24000000 		.4byte	.LVL59
 1660 068e 30000000 		.4byte	.LVL61
 1661 0692 0600     		.2byte	0x6
 1662 0694 03       		.byte	0x3
 1663 0695 01000000 		.4byte	buffer+1
ARM GAS  C:\Users\z80\AppData\Local\Temp\ccA8oroC.s 			page 31


 1664 0699 9F       		.byte	0x9f
 1665 069a 66000000 		.4byte	.LVL63
 1666 069e 80000000 		.4byte	.LVL65
 1667 06a2 0600     		.2byte	0x6
 1668 06a4 03       		.byte	0x3
 1669 06a5 01000000 		.4byte	buffer+1
 1670 06a9 9F       		.byte	0x9f
 1671 06aa 92000000 		.4byte	.LVL66
 1672 06ae C4000000 		.4byte	.LFE63
 1673 06b2 0600     		.2byte	0x6
 1674 06b4 03       		.byte	0x3
 1675 06b5 01000000 		.4byte	buffer+1
 1676 06b9 9F       		.byte	0x9f
 1677 06ba 00000000 		.4byte	0x0
 1678 06be 00000000 		.4byte	0x0
 1679              	.LLST59:
 1680 06c2 94000000 		.4byte	.LVL67
 1681 06c6 9C000000 		.4byte	.LVL68
 1682 06ca 0100     		.2byte	0x1
 1683 06cc 53       		.byte	0x53
 1684 06cd 9C000000 		.4byte	.LVL68
 1685 06d1 A0000000 		.4byte	.LVL69
 1686 06d5 0100     		.2byte	0x1
 1687 06d7 53       		.byte	0x53
 1688 06d8 00000000 		.4byte	0x0
 1689 06dc 00000000 		.4byte	0x0
 1690              		.file 2 "c:\\programs\\yagarto\\bin\\../lib/gcc/arm-none-eabi/4.5.0/include/stddef.h"
 1691              		.file 3 "c:/programs/yagarto/lib/gcc/../../arm-none-eabi/sys-include/stdint.h"
 1692              		.file 4 "../chibios_2.4.x/os/ports/GCC/ARMCMx/chtypes.h"
 1693              		.file 5 "../chibios_2.4.x/os/kernel/include/chlists.h"
 1694              		.file 6 "../chibios_2.4.x/os/kernel/include/chthreads.h"
 1695              		.file 7 "../chibios_2.4.x/os/ports/GCC/ARMCMx/chcore_v7m.h"
 1696              		.file 8 "../chibios_2.4.x/os/kernel/include/chmtx.h"
 1697              		.file 9 "../chibios_2.4.x/os/kernel/include/chevents.h"
 1698              		.file 10 "../chibios_2.4.x/os/kernel/include/chqueues.h"
 1699              		.file 11 "../chibios_2.4.x/os/kernel/include/chioch.h"
 1700              		.file 12 "./src/cpu_io.h"
 1701              		.file 13 "../chibios_2.4.x/os/hal/platforms/STM32F1xx/stm32f10x.h"
 1702              		.file 14 "../chibios_2.4.x/os/hal/platforms/STM32/GPIOv1/pal_lld.h"
 1703              		.file 15 "../chibios_2.4.x/os/hal/include/serial.h"
 1704              		.file 16 "../chibios_2.4.x/os/ports/common/ARMCMx/CMSIS/include/core_cm3.h"
 1705              		.file 17 "../chibios_2.4.x/os/hal/platforms/STM32/serial_lld.h"
 1706              		.section	.debug_info
 1707 0000 0E0F0000 		.4byte	0xf0e
 1708 0004 0200     		.2byte	0x2
 1709 0006 00000000 		.4byte	.Ldebug_abbrev0
 1710 000a 04       		.byte	0x4
 1711 000b 01       		.uleb128 0x1
 1712 000c 57050000 		.4byte	.LASF137
 1713 0010 01       		.byte	0x1
 1714 0011 91020000 		.4byte	.LASF138
 1715 0015 04030000 		.4byte	.LASF139
 1716 0019 00000000 		.4byte	0x0
 1717 001d 00000000 		.4byte	0x0
 1718 0021 E8000000 		.4byte	.Ldebug_ranges0+0xe8
 1719 0025 00000000 		.4byte	.Ldebug_line0
 1720 0029 02       		.uleb128 0x2
ARM GAS  C:\Users\z80\AppData\Local\Temp\ccA8oroC.s 			page 32


 1721 002a 04       		.byte	0x4
 1722 002b 05       		.byte	0x5
 1723 002c 696E7400 		.ascii	"int\000"
 1724 0030 03       		.uleb128 0x3
 1725 0031 09000000 		.4byte	.LASF2
 1726 0035 02       		.byte	0x2
 1727 0036 D3       		.byte	0xd3
 1728 0037 3B000000 		.4byte	0x3b
 1729 003b 04       		.uleb128 0x4
 1730 003c 04       		.byte	0x4
 1731 003d 07       		.byte	0x7
 1732 003e 8A010000 		.4byte	.LASF0
 1733 0042 04       		.uleb128 0x4
 1734 0043 01       		.byte	0x1
 1735 0044 06       		.byte	0x6
 1736 0045 DF000000 		.4byte	.LASF1
 1737 0049 03       		.uleb128 0x3
 1738 004a 30050000 		.4byte	.LASF3
 1739 004e 03       		.byte	0x3
 1740 004f 2A       		.byte	0x2a
 1741 0050 54000000 		.4byte	0x54
 1742 0054 04       		.uleb128 0x4
 1743 0055 01       		.byte	0x1
 1744 0056 08       		.byte	0x8
 1745 0057 C0030000 		.4byte	.LASF4
 1746 005b 04       		.uleb128 0x4
 1747 005c 02       		.byte	0x2
 1748 005d 05       		.byte	0x5
 1749 005e E4030000 		.4byte	.LASF5
 1750 0062 03       		.uleb128 0x3
 1751 0063 97010000 		.4byte	.LASF6
 1752 0067 03       		.byte	0x3
 1753 0068 36       		.byte	0x36
 1754 0069 6D000000 		.4byte	0x6d
 1755 006d 04       		.uleb128 0x4
 1756 006e 02       		.byte	0x2
 1757 006f 07       		.byte	0x7
 1758 0070 0D020000 		.4byte	.LASF7
 1759 0074 03       		.uleb128 0x3
 1760 0075 B8030000 		.4byte	.LASF8
 1761 0079 03       		.byte	0x3
 1762 007a 4F       		.byte	0x4f
 1763 007b 7F000000 		.4byte	0x7f
 1764 007f 04       		.uleb128 0x4
 1765 0080 04       		.byte	0x4
 1766 0081 05       		.byte	0x5
 1767 0082 20010000 		.4byte	.LASF9
 1768 0086 03       		.uleb128 0x3
 1769 0087 67040000 		.4byte	.LASF10
 1770 008b 03       		.byte	0x3
 1771 008c 50       		.byte	0x50
 1772 008d 91000000 		.4byte	0x91
 1773 0091 04       		.uleb128 0x4
 1774 0092 04       		.byte	0x4
 1775 0093 07       		.byte	0x7
 1776 0094 87040000 		.4byte	.LASF11
 1777 0098 04       		.uleb128 0x4
ARM GAS  C:\Users\z80\AppData\Local\Temp\ccA8oroC.s 			page 33


 1778 0099 08       		.byte	0x8
 1779 009a 05       		.byte	0x5
 1780 009b D1000000 		.4byte	.LASF12
 1781 009f 03       		.uleb128 0x3
 1782 00a0 17000000 		.4byte	.LASF13
 1783 00a4 03       		.byte	0x3
 1784 00a5 78       		.byte	0x78
 1785 00a6 AA000000 		.4byte	0xaa
 1786 00aa 04       		.uleb128 0x4
 1787 00ab 08       		.byte	0x8
 1788 00ac 07       		.byte	0x7
 1789 00ad 5A000000 		.4byte	.LASF14
 1790 00b1 03       		.uleb128 0x3
 1791 00b2 4C000000 		.4byte	.LASF15
 1792 00b6 03       		.byte	0x3
 1793 00b7 A6       		.byte	0xa6
 1794 00b8 3B000000 		.4byte	0x3b
 1795 00bc 03       		.uleb128 0x3
 1796 00bd FD000000 		.4byte	.LASF16
 1797 00c1 04       		.byte	0x4
 1798 00c2 2E       		.byte	0x2e
 1799 00c3 74000000 		.4byte	0x74
 1800 00c7 03       		.uleb128 0x3
 1801 00c8 5C020000 		.4byte	.LASF17
 1802 00cc 04       		.byte	0x4
 1803 00cd 2F       		.byte	0x2f
 1804 00ce 49000000 		.4byte	0x49
 1805 00d2 03       		.uleb128 0x3
 1806 00d3 29010000 		.4byte	.LASF18
 1807 00d7 04       		.byte	0x4
 1808 00d8 30       		.byte	0x30
 1809 00d9 49000000 		.4byte	0x49
 1810 00dd 03       		.uleb128 0x3
 1811 00de FF010000 		.4byte	.LASF19
 1812 00e2 04       		.byte	0x4
 1813 00e3 32       		.byte	0x32
 1814 00e4 86000000 		.4byte	0x86
 1815 00e8 03       		.uleb128 0x3
 1816 00e9 20020000 		.4byte	.LASF20
 1817 00ed 04       		.byte	0x4
 1818 00ee 33       		.byte	0x33
 1819 00ef 74000000 		.4byte	0x74
 1820 00f3 03       		.uleb128 0x3
 1821 00f4 70020000 		.4byte	.LASF21
 1822 00f8 04       		.byte	0x4
 1823 00f9 35       		.byte	0x35
 1824 00fa 86000000 		.4byte	0x86
 1825 00fe 03       		.uleb128 0x3
 1826 00ff B6040000 		.4byte	.LASF22
 1827 0103 04       		.byte	0x4
 1828 0104 36       		.byte	0x36
 1829 0105 86000000 		.4byte	0x86
 1830 0109 03       		.uleb128 0x3
 1831 010a 41040000 		.4byte	.LASF23
 1832 010e 05       		.byte	0x5
 1833 010f 2A       		.byte	0x2a
 1834 0110 14010000 		.4byte	0x114
ARM GAS  C:\Users\z80\AppData\Local\Temp\ccA8oroC.s 			page 34


 1835 0114 05       		.uleb128 0x5
 1836 0115 41040000 		.4byte	.LASF23
 1837 0119 48       		.byte	0x48
 1838 011a 06       		.byte	0x6
 1839 011b 5E       		.byte	0x5e
 1840 011c 1D020000 		.4byte	0x21d
 1841 0120 06       		.uleb128 0x6
 1842 0121 0D040000 		.4byte	.LASF24
 1843 0125 06       		.byte	0x6
 1844 0126 5F       		.byte	0x5f
 1845 0127 42020000 		.4byte	0x242
 1846 012b 02       		.byte	0x2
 1847 012c 23       		.byte	0x23
 1848 012d 00       		.uleb128 0x0
 1849 012e 06       		.uleb128 0x6
 1850 012f 8D030000 		.4byte	.LASF25
 1851 0133 06       		.byte	0x6
 1852 0134 61       		.byte	0x61
 1853 0135 42020000 		.4byte	0x242
 1854 0139 02       		.byte	0x2
 1855 013a 23       		.byte	0x23
 1856 013b 04       		.uleb128 0x4
 1857 013c 06       		.uleb128 0x6
 1858 013d B5000000 		.4byte	.LASF26
 1859 0141 06       		.byte	0x6
 1860 0142 63       		.byte	0x63
 1861 0143 DD000000 		.4byte	0xdd
 1862 0147 02       		.byte	0x2
 1863 0148 23       		.byte	0x23
 1864 0149 08       		.uleb128 0x8
 1865 014a 06       		.uleb128 0x6
 1866 014b 8B050000 		.4byte	.LASF27
 1867 014f 06       		.byte	0x6
 1868 0150 64       		.byte	0x64
 1869 0151 1A030000 		.4byte	0x31a
 1870 0155 02       		.byte	0x2
 1871 0156 23       		.byte	0x23
 1872 0157 0C       		.uleb128 0xc
 1873 0158 06       		.uleb128 0x6
 1874 0159 43010000 		.4byte	.LASF28
 1875 015d 06       		.byte	0x6
 1876 015e 66       		.byte	0x66
 1877 015f 42020000 		.4byte	0x242
 1878 0163 02       		.byte	0x2
 1879 0164 23       		.byte	0x23
 1880 0165 10       		.uleb128 0x10
 1881 0166 06       		.uleb128 0x6
 1882 0167 D6020000 		.4byte	.LASF29
 1883 016b 06       		.byte	0x6
 1884 016c 67       		.byte	0x67
 1885 016d 42020000 		.4byte	0x242
 1886 0171 02       		.byte	0x2
 1887 0172 23       		.byte	0x23
 1888 0173 14       		.uleb128 0x14
 1889 0174 06       		.uleb128 0x6
 1890 0175 12050000 		.4byte	.LASF30
 1891 0179 06       		.byte	0x6
ARM GAS  C:\Users\z80\AppData\Local\Temp\ccA8oroC.s 			page 35


 1892 017a 6E       		.byte	0x6e
 1893 017b 35040000 		.4byte	0x435
 1894 017f 02       		.byte	0x2
 1895 0180 23       		.byte	0x23
 1896 0181 18       		.uleb128 0x18
 1897 0182 06       		.uleb128 0x6
 1898 0183 D2040000 		.4byte	.LASF31
 1899 0187 06       		.byte	0x6
 1900 0188 74       		.byte	0x74
 1901 0189 47040000 		.4byte	0x447
 1902 018d 02       		.byte	0x2
 1903 018e 23       		.byte	0x23
 1904 018f 1C       		.uleb128 0x1c
 1905 0190 06       		.uleb128 0x6
 1906 0191 EE030000 		.4byte	.LASF32
 1907 0195 06       		.byte	0x6
 1908 0196 79       		.byte	0x79
 1909 0197 D2000000 		.4byte	0xd2
 1910 019b 02       		.byte	0x2
 1911 019c 23       		.byte	0x23
 1912 019d 20       		.uleb128 0x20
 1913 019e 06       		.uleb128 0x6
 1914 019f 26040000 		.4byte	.LASF33
 1915 01a3 06       		.byte	0x6
 1916 01a4 7D       		.byte	0x7d
 1917 01a5 C7000000 		.4byte	0xc7
 1918 01a9 02       		.byte	0x2
 1919 01aa 23       		.byte	0x23
 1920 01ab 21       		.uleb128 0x21
 1921 01ac 06       		.uleb128 0x6
 1922 01ad B0010000 		.4byte	.LASF34
 1923 01b1 06       		.byte	0x6
 1924 01b2 89       		.byte	0x89
 1925 01b3 45030000 		.4byte	0x345
 1926 01b7 02       		.byte	0x2
 1927 01b8 23       		.byte	0x23
 1928 01b9 24       		.uleb128 0x24
 1929 01ba 07       		.uleb128 0x7
 1930 01bb 705F7500 		.ascii	"p_u\000"
 1931 01bf 06       		.byte	0x6
 1932 01c0 AE       		.byte	0xae
 1933 01c1 00040000 		.4byte	0x400
 1934 01c5 02       		.byte	0x2
 1935 01c6 23       		.byte	0x23
 1936 01c7 28       		.uleb128 0x28
 1937 01c8 06       		.uleb128 0x6
 1938 01c9 91050000 		.4byte	.LASF35
 1939 01cd 06       		.byte	0x6
 1940 01ce B3       		.byte	0xb3
 1941 01cf 6A020000 		.4byte	0x26a
 1942 01d3 02       		.byte	0x2
 1943 01d4 23       		.byte	0x23
 1944 01d5 2C       		.uleb128 0x2c
 1945 01d6 06       		.uleb128 0x6
 1946 01d7 D9010000 		.4byte	.LASF36
 1947 01db 06       		.byte	0x6
 1948 01dc B9       		.byte	0xb9
ARM GAS  C:\Users\z80\AppData\Local\Temp\ccA8oroC.s 			page 36


 1949 01dd 48020000 		.4byte	0x248
 1950 01e1 02       		.byte	0x2
 1951 01e2 23       		.byte	0x23
 1952 01e3 30       		.uleb128 0x30
 1953 01e4 06       		.uleb128 0x6
 1954 01e5 2A050000 		.4byte	.LASF37
 1955 01e9 06       		.byte	0x6
 1956 01ea BD       		.byte	0xbd
 1957 01eb E8000000 		.4byte	0xe8
 1958 01ef 02       		.byte	0x2
 1959 01f0 23       		.byte	0x23
 1960 01f1 38       		.uleb128 0x38
 1961 01f2 06       		.uleb128 0x6
 1962 01f3 48040000 		.4byte	.LASF38
 1963 01f7 06       		.byte	0x6
 1964 01f8 C3       		.byte	0xc3
 1965 01f9 F3000000 		.4byte	0xf3
 1966 01fd 02       		.byte	0x2
 1967 01fe 23       		.byte	0x23
 1968 01ff 3C       		.uleb128 0x3c
 1969 0200 06       		.uleb128 0x6
 1970 0201 DA030000 		.4byte	.LASF39
 1971 0205 06       		.byte	0x6
 1972 0206 CA       		.byte	0xca
 1973 0207 4D040000 		.4byte	0x44d
 1974 020b 02       		.byte	0x2
 1975 020c 23       		.byte	0x23
 1976 020d 40       		.uleb128 0x40
 1977 020e 06       		.uleb128 0x6
 1978 020f C0040000 		.4byte	.LASF40
 1979 0213 06       		.byte	0x6
 1980 0214 CE       		.byte	0xce
 1981 0215 DD000000 		.4byte	0xdd
 1982 0219 02       		.byte	0x2
 1983 021a 23       		.byte	0x23
 1984 021b 44       		.uleb128 0x44
 1985 021c 00       		.byte	0x0
 1986 021d 08       		.uleb128 0x8
 1987 021e 08       		.byte	0x8
 1988 021f 05       		.byte	0x5
 1989 0220 61       		.byte	0x61
 1990 0221 42020000 		.4byte	0x242
 1991 0225 06       		.uleb128 0x6
 1992 0226 0D040000 		.4byte	.LASF24
 1993 022a 05       		.byte	0x5
 1994 022b 62       		.byte	0x62
 1995 022c 42020000 		.4byte	0x242
 1996 0230 02       		.byte	0x2
 1997 0231 23       		.byte	0x23
 1998 0232 00       		.uleb128 0x0
 1999 0233 06       		.uleb128 0x6
 2000 0234 8D030000 		.4byte	.LASF25
 2001 0238 05       		.byte	0x5
 2002 0239 64       		.byte	0x64
 2003 023a 42020000 		.4byte	0x242
 2004 023e 02       		.byte	0x2
 2005 023f 23       		.byte	0x23
ARM GAS  C:\Users\z80\AppData\Local\Temp\ccA8oroC.s 			page 37


 2006 0240 04       		.uleb128 0x4
 2007 0241 00       		.byte	0x0
 2008 0242 09       		.uleb128 0x9
 2009 0243 04       		.byte	0x4
 2010 0244 09010000 		.4byte	0x109
 2011 0248 03       		.uleb128 0x3
 2012 0249 F7020000 		.4byte	.LASF41
 2013 024d 05       		.byte	0x5
 2014 024e 66       		.byte	0x66
 2015 024f 1D020000 		.4byte	0x21d
 2016 0253 08       		.uleb128 0x8
 2017 0254 04       		.byte	0x4
 2018 0255 05       		.byte	0x5
 2019 0256 6B       		.byte	0x6b
 2020 0257 6A020000 		.4byte	0x26a
 2021 025b 06       		.uleb128 0x6
 2022 025c 0D040000 		.4byte	.LASF24
 2023 0260 05       		.byte	0x5
 2024 0261 6D       		.byte	0x6d
 2025 0262 42020000 		.4byte	0x242
 2026 0266 02       		.byte	0x2
 2027 0267 23       		.byte	0x23
 2028 0268 00       		.uleb128 0x0
 2029 0269 00       		.byte	0x0
 2030 026a 03       		.uleb128 0x3
 2031 026b 64020000 		.4byte	.LASF42
 2032 026f 05       		.byte	0x5
 2033 0270 70       		.byte	0x70
 2034 0271 53020000 		.4byte	0x253
 2035 0275 03       		.uleb128 0x3
 2036 0276 6F010000 		.4byte	.LASF43
 2037 027a 07       		.byte	0x7
 2038 027b D7       		.byte	0xd7
 2039 027c 80020000 		.4byte	0x280
 2040 0280 0A       		.uleb128 0xa
 2041 0281 04       		.byte	0x4
 2042 0282 03       		.uleb128 0x3
 2043 0283 AD020000 		.4byte	.LASF44
 2044 0287 07       		.byte	0x7
 2045 0288 DD       		.byte	0xdd
 2046 0289 9F000000 		.4byte	0x9f
 2047 028d 05       		.uleb128 0x5
 2048 028e F3040000 		.4byte	.LASF45
 2049 0292 24       		.byte	0x24
 2050 0293 07       		.byte	0x7
 2051 0294 FE       		.byte	0xfe
 2052 0295 1A030000 		.4byte	0x31a
 2053 0299 0B       		.uleb128 0xb
 2054 029a 723400   		.ascii	"r4\000"
 2055 029d 07       		.byte	0x7
 2056 029e 1101     		.2byte	0x111
 2057 02a0 75020000 		.4byte	0x275
 2058 02a4 02       		.byte	0x2
 2059 02a5 23       		.byte	0x23
 2060 02a6 00       		.uleb128 0x0
 2061 02a7 0B       		.uleb128 0xb
 2062 02a8 723500   		.ascii	"r5\000"
ARM GAS  C:\Users\z80\AppData\Local\Temp\ccA8oroC.s 			page 38


 2063 02ab 07       		.byte	0x7
 2064 02ac 1201     		.2byte	0x112
 2065 02ae 75020000 		.4byte	0x275
 2066 02b2 02       		.byte	0x2
 2067 02b3 23       		.byte	0x23
 2068 02b4 04       		.uleb128 0x4
 2069 02b5 0B       		.uleb128 0xb
 2070 02b6 723600   		.ascii	"r6\000"
 2071 02b9 07       		.byte	0x7
 2072 02ba 1301     		.2byte	0x113
 2073 02bc 75020000 		.4byte	0x275
 2074 02c0 02       		.byte	0x2
 2075 02c1 23       		.byte	0x23
 2076 02c2 08       		.uleb128 0x8
 2077 02c3 0B       		.uleb128 0xb
 2078 02c4 723700   		.ascii	"r7\000"
 2079 02c7 07       		.byte	0x7
 2080 02c8 1401     		.2byte	0x114
 2081 02ca 75020000 		.4byte	0x275
 2082 02ce 02       		.byte	0x2
 2083 02cf 23       		.byte	0x23
 2084 02d0 0C       		.uleb128 0xc
 2085 02d1 0B       		.uleb128 0xb
 2086 02d2 723800   		.ascii	"r8\000"
 2087 02d5 07       		.byte	0x7
 2088 02d6 1501     		.2byte	0x115
 2089 02d8 75020000 		.4byte	0x275
 2090 02dc 02       		.byte	0x2
 2091 02dd 23       		.byte	0x23
 2092 02de 10       		.uleb128 0x10
 2093 02df 0B       		.uleb128 0xb
 2094 02e0 723900   		.ascii	"r9\000"
 2095 02e3 07       		.byte	0x7
 2096 02e4 1601     		.2byte	0x116
 2097 02e6 75020000 		.4byte	0x275
 2098 02ea 02       		.byte	0x2
 2099 02eb 23       		.byte	0x23
 2100 02ec 14       		.uleb128 0x14
 2101 02ed 0B       		.uleb128 0xb
 2102 02ee 72313000 		.ascii	"r10\000"
 2103 02f2 07       		.byte	0x7
 2104 02f3 1701     		.2byte	0x117
 2105 02f5 75020000 		.4byte	0x275
 2106 02f9 02       		.byte	0x2
 2107 02fa 23       		.byte	0x23
 2108 02fb 18       		.uleb128 0x18
 2109 02fc 0B       		.uleb128 0xb
 2110 02fd 72313100 		.ascii	"r11\000"
 2111 0301 07       		.byte	0x7
 2112 0302 1801     		.2byte	0x118
 2113 0304 75020000 		.4byte	0x275
 2114 0308 02       		.byte	0x2
 2115 0309 23       		.byte	0x23
 2116 030a 1C       		.uleb128 0x1c
 2117 030b 0B       		.uleb128 0xb
 2118 030c 6C7200   		.ascii	"lr\000"
 2119 030f 07       		.byte	0x7
ARM GAS  C:\Users\z80\AppData\Local\Temp\ccA8oroC.s 			page 39


 2120 0310 1901     		.2byte	0x119
 2121 0312 75020000 		.4byte	0x275
 2122 0316 02       		.byte	0x2
 2123 0317 23       		.byte	0x23
 2124 0318 20       		.uleb128 0x20
 2125 0319 00       		.byte	0x0
 2126 031a 0C       		.uleb128 0xc
 2127 031b EB040000 		.4byte	.LASF46
 2128 031f 04       		.byte	0x4
 2129 0320 07       		.byte	0x7
 2130 0321 2301     		.2byte	0x123
 2131 0323 37030000 		.4byte	0x337
 2132 0327 0B       		.uleb128 0xb
 2133 0328 72313300 		.ascii	"r13\000"
 2134 032c 07       		.byte	0x7
 2135 032d 2401     		.2byte	0x124
 2136 032f 37030000 		.4byte	0x337
 2137 0333 02       		.byte	0x2
 2138 0334 23       		.byte	0x23
 2139 0335 00       		.uleb128 0x0
 2140 0336 00       		.byte	0x0
 2141 0337 09       		.uleb128 0x9
 2142 0338 04       		.byte	0x4
 2143 0339 8D020000 		.4byte	0x28d
 2144 033d 0D       		.uleb128 0xd
 2145 033e 86000000 		.4byte	0x86
 2146 0342 0E       		.uleb128 0xe
 2147 0343 04       		.byte	0x4
 2148 0344 07       		.byte	0x7
 2149 0345 0D       		.uleb128 0xd
 2150 0346 FE000000 		.4byte	0xfe
 2151 034a 05       		.uleb128 0x5
 2152 034b D0020000 		.4byte	.LASF47
 2153 034f 10       		.byte	0x10
 2154 0350 08       		.byte	0x8
 2155 0351 2C       		.byte	0x2c
 2156 0352 81030000 		.4byte	0x381
 2157 0356 06       		.uleb128 0x6
 2158 0357 04010000 		.4byte	.LASF48
 2159 035b 08       		.byte	0x8
 2160 035c 2D       		.byte	0x2d
 2161 035d 48020000 		.4byte	0x248
 2162 0361 02       		.byte	0x2
 2163 0362 23       		.byte	0x23
 2164 0363 00       		.uleb128 0x0
 2165 0364 06       		.uleb128 0x6
 2166 0365 83050000 		.4byte	.LASF49
 2167 0369 08       		.byte	0x8
 2168 036a 2F       		.byte	0x2f
 2169 036b 42020000 		.4byte	0x242
 2170 036f 02       		.byte	0x2
 2171 0370 23       		.byte	0x23
 2172 0371 08       		.uleb128 0x8
 2173 0372 06       		.uleb128 0x6
 2174 0373 AF040000 		.4byte	.LASF50
 2175 0377 08       		.byte	0x8
 2176 0378 31       		.byte	0x31
ARM GAS  C:\Users\z80\AppData\Local\Temp\ccA8oroC.s 			page 40


 2177 0379 81030000 		.4byte	0x381
 2178 037d 02       		.byte	0x2
 2179 037e 23       		.byte	0x23
 2180 037f 0C       		.uleb128 0xc
 2181 0380 00       		.byte	0x0
 2182 0381 09       		.uleb128 0x9
 2183 0382 04       		.byte	0x4
 2184 0383 4A030000 		.4byte	0x34a
 2185 0387 03       		.uleb128 0x3
 2186 0388 D0020000 		.4byte	.LASF47
 2187 038c 08       		.byte	0x8
 2188 038d 33       		.byte	0x33
 2189 038e 4A030000 		.4byte	0x34a
 2190 0392 03       		.uleb128 0x3
 2191 0393 49050000 		.4byte	.LASF51
 2192 0397 09       		.byte	0x9
 2193 0398 29       		.byte	0x29
 2194 0399 9D030000 		.4byte	0x39d
 2195 039d 05       		.uleb128 0x5
 2196 039e 49050000 		.4byte	.LASF51
 2197 03a2 0C       		.byte	0xc
 2198 03a3 09       		.byte	0x9
 2199 03a4 2E       		.byte	0x2e
 2200 03a5 D4030000 		.4byte	0x3d4
 2201 03a9 06       		.uleb128 0x6
 2202 03aa 2E040000 		.4byte	.LASF52
 2203 03ae 09       		.byte	0x9
 2204 03af 2F       		.byte	0x2f
 2205 03b0 D4030000 		.4byte	0x3d4
 2206 03b4 02       		.byte	0x2
 2207 03b5 23       		.byte	0x23
 2208 03b6 00       		.uleb128 0x0
 2209 03b7 06       		.uleb128 0x6
 2210 03b8 CE030000 		.4byte	.LASF53
 2211 03bc 09       		.byte	0x9
 2212 03bd 32       		.byte	0x32
 2213 03be 42020000 		.4byte	0x242
 2214 03c2 02       		.byte	0x2
 2215 03c3 23       		.byte	0x23
 2216 03c4 04       		.uleb128 0x4
 2217 03c5 06       		.uleb128 0x6
 2218 03c6 3D030000 		.4byte	.LASF54
 2219 03ca 09       		.byte	0x9
 2220 03cb 34       		.byte	0x34
 2221 03cc F3000000 		.4byte	0xf3
 2222 03d0 02       		.byte	0x2
 2223 03d1 23       		.byte	0x23
 2224 03d2 08       		.uleb128 0x8
 2225 03d3 00       		.byte	0x0
 2226 03d4 09       		.uleb128 0x9
 2227 03d5 04       		.byte	0x4
 2228 03d6 92030000 		.4byte	0x392
 2229 03da 05       		.uleb128 0x5
 2230 03db 78010000 		.4byte	.LASF55
 2231 03df 04       		.byte	0x4
 2232 03e0 09       		.byte	0x9
 2233 03e1 3C       		.byte	0x3c
ARM GAS  C:\Users\z80\AppData\Local\Temp\ccA8oroC.s 			page 41


 2234 03e2 F5030000 		.4byte	0x3f5
 2235 03e6 06       		.uleb128 0x6
 2236 03e7 19050000 		.4byte	.LASF56
 2237 03eb 09       		.byte	0x9
 2238 03ec 3D       		.byte	0x3d
 2239 03ed D4030000 		.4byte	0x3d4
 2240 03f1 02       		.byte	0x2
 2241 03f2 23       		.byte	0x23
 2242 03f3 00       		.uleb128 0x0
 2243 03f4 00       		.byte	0x0
 2244 03f5 03       		.uleb128 0x3
 2245 03f6 78010000 		.4byte	.LASF55
 2246 03fa 09       		.byte	0x9
 2247 03fb 40       		.byte	0x40
 2248 03fc DA030000 		.4byte	0x3da
 2249 0400 0F       		.uleb128 0xf
 2250 0401 04       		.byte	0x4
 2251 0402 06       		.byte	0x6
 2252 0403 90       		.byte	0x90
 2253 0404 35040000 		.4byte	0x435
 2254 0408 10       		.uleb128 0x10
 2255 0409 10000000 		.4byte	.LASF57
 2256 040d 06       		.byte	0x6
 2257 040e 97       		.byte	0x97
 2258 040f E8000000 		.4byte	0xe8
 2259 0413 10       		.uleb128 0x10
 2260 0414 88000000 		.4byte	.LASF58
 2261 0418 06       		.byte	0x6
 2262 0419 9E       		.byte	0x9e
 2263 041a E8000000 		.4byte	0xe8
 2264 041e 10       		.uleb128 0x10
 2265 041f 63050000 		.4byte	.LASF59
 2266 0423 06       		.byte	0x6
 2267 0424 A5       		.byte	0xa5
 2268 0425 80020000 		.4byte	0x280
 2269 0429 10       		.uleb128 0x10
 2270 042a 06040000 		.4byte	.LASF60
 2271 042e 06       		.byte	0x6
 2272 042f AC       		.byte	0xac
 2273 0430 F3000000 		.4byte	0xf3
 2274 0434 00       		.byte	0x0
 2275 0435 09       		.uleb128 0x9
 2276 0436 04       		.byte	0x4
 2277 0437 3B040000 		.4byte	0x43b
 2278 043b 11       		.uleb128 0x11
 2279 043c 40040000 		.4byte	0x440
 2280 0440 04       		.uleb128 0x4
 2281 0441 01       		.byte	0x1
 2282 0442 08       		.byte	0x8
 2283 0443 9E040000 		.4byte	.LASF61
 2284 0447 09       		.uleb128 0x9
 2285 0448 04       		.byte	0x4
 2286 0449 82020000 		.4byte	0x282
 2287 044d 09       		.uleb128 0x9
 2288 044e 04       		.byte	0x4
 2289 044f 87030000 		.4byte	0x387
 2290 0453 03       		.uleb128 0x3
ARM GAS  C:\Users\z80\AppData\Local\Temp\ccA8oroC.s 			page 42


 2291 0454 A0020000 		.4byte	.LASF62
 2292 0458 0A       		.byte	0xa
 2293 0459 37       		.byte	0x37
 2294 045a 5E040000 		.4byte	0x45e
 2295 045e 05       		.uleb128 0x5
 2296 045f A0020000 		.4byte	.LASF62
 2297 0463 20       		.byte	0x20
 2298 0464 0A       		.byte	0xa
 2299 0465 45       		.byte	0x45
 2300 0466 CD040000 		.4byte	0x4cd
 2301 046a 06       		.uleb128 0x6
 2302 046b 51030000 		.4byte	.LASF63
 2303 046f 0A       		.byte	0xa
 2304 0470 46       		.byte	0x46
 2305 0471 48020000 		.4byte	0x248
 2306 0475 02       		.byte	0x2
 2307 0476 23       		.byte	0x23
 2308 0477 00       		.uleb128 0x0
 2309 0478 06       		.uleb128 0x6
 2310 0479 C6020000 		.4byte	.LASF64
 2311 047d 0A       		.byte	0xa
 2312 047e 47       		.byte	0x47
 2313 047f 30000000 		.4byte	0x30
 2314 0483 02       		.byte	0x2
 2315 0484 23       		.byte	0x23
 2316 0485 08       		.uleb128 0x8
 2317 0486 06       		.uleb128 0x6
 2318 0487 32010000 		.4byte	.LASF65
 2319 048b 0A       		.byte	0xa
 2320 048c 48       		.byte	0x48
 2321 048d F0040000 		.4byte	0x4f0
 2322 0491 02       		.byte	0x2
 2323 0492 23       		.byte	0x23
 2324 0493 0C       		.uleb128 0xc
 2325 0494 06       		.uleb128 0x6
 2326 0495 0C050000 		.4byte	.LASF66
 2327 0499 0A       		.byte	0xa
 2328 049a 49       		.byte	0x49
 2329 049b F0040000 		.4byte	0x4f0
 2330 049f 02       		.byte	0x2
 2331 04a0 23       		.byte	0x23
 2332 04a1 10       		.uleb128 0x10
 2333 04a2 06       		.uleb128 0x6
 2334 04a3 3B010000 		.4byte	.LASF67
 2335 04a7 0A       		.byte	0xa
 2336 04a8 4B       		.byte	0x4b
 2337 04a9 F0040000 		.4byte	0x4f0
 2338 04ad 02       		.byte	0x2
 2339 04ae 23       		.byte	0x23
 2340 04af 14       		.uleb128 0x14
 2341 04b0 06       		.uleb128 0x6
 2342 04b1 A7030000 		.4byte	.LASF68
 2343 04b5 0A       		.byte	0xa
 2344 04b6 4C       		.byte	0x4c
 2345 04b7 F0040000 		.4byte	0x4f0
 2346 04bb 02       		.byte	0x2
 2347 04bc 23       		.byte	0x23
ARM GAS  C:\Users\z80\AppData\Local\Temp\ccA8oroC.s 			page 43


 2348 04bd 18       		.uleb128 0x18
 2349 04be 06       		.uleb128 0x6
 2350 04bf 21050000 		.4byte	.LASF69
 2351 04c3 0A       		.byte	0xa
 2352 04c4 4D       		.byte	0x4d
 2353 04c5 CD040000 		.4byte	0x4cd
 2354 04c9 02       		.byte	0x2
 2355 04ca 23       		.byte	0x23
 2356 04cb 1C       		.uleb128 0x1c
 2357 04cc 00       		.byte	0x0
 2358 04cd 03       		.uleb128 0x3
 2359 04ce 87020000 		.4byte	.LASF70
 2360 04d2 0A       		.byte	0xa
 2361 04d3 3A       		.byte	0x3a
 2362 04d4 D8040000 		.4byte	0x4d8
 2363 04d8 09       		.uleb128 0x9
 2364 04d9 04       		.byte	0x4
 2365 04da DE040000 		.4byte	0x4de
 2366 04de 12       		.uleb128 0x12
 2367 04df 01       		.byte	0x1
 2368 04e0 EA040000 		.4byte	0x4ea
 2369 04e4 13       		.uleb128 0x13
 2370 04e5 EA040000 		.4byte	0x4ea
 2371 04e9 00       		.byte	0x0
 2372 04ea 09       		.uleb128 0x9
 2373 04eb 04       		.byte	0x4
 2374 04ec 53040000 		.4byte	0x453
 2375 04f0 09       		.uleb128 0x9
 2376 04f1 04       		.byte	0x4
 2377 04f2 49000000 		.4byte	0x49
 2378 04f6 03       		.uleb128 0x3
 2379 04f7 7C020000 		.4byte	.LASF71
 2380 04fb 0A       		.byte	0xa
 2381 04fc 76       		.byte	0x76
 2382 04fd 53040000 		.4byte	0x453
 2383 0501 03       		.uleb128 0x3
 2384 0502 26000000 		.4byte	.LASF72
 2385 0506 0A       		.byte	0xa
 2386 0507 E6       		.byte	0xe6
 2387 0508 53040000 		.4byte	0x453
 2388 050c 14       		.uleb128 0x14
 2389 050d 01       		.byte	0x1
 2390 050e 30000000 		.4byte	0x30
 2391 0512 26050000 		.4byte	0x526
 2392 0516 13       		.uleb128 0x13
 2393 0517 80020000 		.4byte	0x280
 2394 051b 13       		.uleb128 0x13
 2395 051c 26050000 		.4byte	0x526
 2396 0520 13       		.uleb128 0x13
 2397 0521 30000000 		.4byte	0x30
 2398 0525 00       		.byte	0x0
 2399 0526 09       		.uleb128 0x9
 2400 0527 04       		.byte	0x4
 2401 0528 2C050000 		.4byte	0x52c
 2402 052c 11       		.uleb128 0x11
 2403 052d 49000000 		.4byte	0x49
 2404 0531 09       		.uleb128 0x9
ARM GAS  C:\Users\z80\AppData\Local\Temp\ccA8oroC.s 			page 44


 2405 0532 04       		.byte	0x4
 2406 0533 0C050000 		.4byte	0x50c
 2407 0537 14       		.uleb128 0x14
 2408 0538 01       		.byte	0x1
 2409 0539 30000000 		.4byte	0x30
 2410 053d 51050000 		.4byte	0x551
 2411 0541 13       		.uleb128 0x13
 2412 0542 80020000 		.4byte	0x280
 2413 0546 13       		.uleb128 0x13
 2414 0547 F0040000 		.4byte	0x4f0
 2415 054b 13       		.uleb128 0x13
 2416 054c 30000000 		.4byte	0x30
 2417 0550 00       		.byte	0x0
 2418 0551 09       		.uleb128 0x9
 2419 0552 04       		.byte	0x4
 2420 0553 37050000 		.4byte	0x537
 2421 0557 14       		.uleb128 0x14
 2422 0558 01       		.byte	0x1
 2423 0559 BC000000 		.4byte	0xbc
 2424 055d 67050000 		.4byte	0x567
 2425 0561 13       		.uleb128 0x13
 2426 0562 80020000 		.4byte	0x280
 2427 0566 00       		.byte	0x0
 2428 0567 09       		.uleb128 0x9
 2429 0568 04       		.byte	0x4
 2430 0569 57050000 		.4byte	0x557
 2431 056d 14       		.uleb128 0x14
 2432 056e 01       		.byte	0x1
 2433 056f E8000000 		.4byte	0xe8
 2434 0573 87050000 		.4byte	0x587
 2435 0577 13       		.uleb128 0x13
 2436 0578 80020000 		.4byte	0x280
 2437 057c 13       		.uleb128 0x13
 2438 057d 49000000 		.4byte	0x49
 2439 0581 13       		.uleb128 0x13
 2440 0582 FE000000 		.4byte	0xfe
 2441 0586 00       		.byte	0x0
 2442 0587 09       		.uleb128 0x9
 2443 0588 04       		.byte	0x4
 2444 0589 6D050000 		.4byte	0x56d
 2445 058d 14       		.uleb128 0x14
 2446 058e 01       		.byte	0x1
 2447 058f E8000000 		.4byte	0xe8
 2448 0593 A2050000 		.4byte	0x5a2
 2449 0597 13       		.uleb128 0x13
 2450 0598 80020000 		.4byte	0x280
 2451 059c 13       		.uleb128 0x13
 2452 059d FE000000 		.4byte	0xfe
 2453 05a1 00       		.byte	0x0
 2454 05a2 09       		.uleb128 0x9
 2455 05a3 04       		.byte	0x4
 2456 05a4 8D050000 		.4byte	0x58d
 2457 05a8 14       		.uleb128 0x14
 2458 05a9 01       		.byte	0x1
 2459 05aa 30000000 		.4byte	0x30
 2460 05ae C7050000 		.4byte	0x5c7
 2461 05b2 13       		.uleb128 0x13
ARM GAS  C:\Users\z80\AppData\Local\Temp\ccA8oroC.s 			page 45


 2462 05b3 80020000 		.4byte	0x280
 2463 05b7 13       		.uleb128 0x13
 2464 05b8 26050000 		.4byte	0x526
 2465 05bc 13       		.uleb128 0x13
 2466 05bd 30000000 		.4byte	0x30
 2467 05c1 13       		.uleb128 0x13
 2468 05c2 FE000000 		.4byte	0xfe
 2469 05c6 00       		.byte	0x0
 2470 05c7 09       		.uleb128 0x9
 2471 05c8 04       		.byte	0x4
 2472 05c9 A8050000 		.4byte	0x5a8
 2473 05cd 14       		.uleb128 0x14
 2474 05ce 01       		.byte	0x1
 2475 05cf 30000000 		.4byte	0x30
 2476 05d3 EC050000 		.4byte	0x5ec
 2477 05d7 13       		.uleb128 0x13
 2478 05d8 80020000 		.4byte	0x280
 2479 05dc 13       		.uleb128 0x13
 2480 05dd F0040000 		.4byte	0x4f0
 2481 05e1 13       		.uleb128 0x13
 2482 05e2 30000000 		.4byte	0x30
 2483 05e6 13       		.uleb128 0x13
 2484 05e7 FE000000 		.4byte	0xfe
 2485 05eb 00       		.byte	0x0
 2486 05ec 09       		.uleb128 0x9
 2487 05ed 04       		.byte	0x4
 2488 05ee CD050000 		.4byte	0x5cd
 2489 05f2 15       		.uleb128 0x15
 2490 05f3 ED020000 		.4byte	.LASF73
 2491 05f7 0B       		.byte	0xb
 2492 05f8 0B01     		.2byte	0x10b
 2493 05fa B1000000 		.4byte	0xb1
 2494 05fe 14       		.uleb128 0x14
 2495 05ff 01       		.byte	0x1
 2496 0600 F2050000 		.4byte	0x5f2
 2497 0604 0E060000 		.4byte	0x60e
 2498 0608 13       		.uleb128 0x13
 2499 0609 80020000 		.4byte	0x280
 2500 060d 00       		.byte	0x0
 2501 060e 09       		.uleb128 0x9
 2502 060f 04       		.byte	0x4
 2503 0610 FE050000 		.4byte	0x5fe
 2504 0614 03       		.uleb128 0x3
 2505 0615 32000000 		.4byte	.LASF74
 2506 0619 0C       		.byte	0xc
 2507 061a 0B       		.byte	0xb
 2508 061b 1F060000 		.4byte	0x61f
 2509 061f 09       		.uleb128 0x9
 2510 0620 04       		.byte	0x4
 2511 0621 25060000 		.4byte	0x625
 2512 0625 12       		.uleb128 0x12
 2513 0626 01       		.byte	0x1
 2514 0627 31060000 		.4byte	0x631
 2515 062b 13       		.uleb128 0x13
 2516 062c F0040000 		.4byte	0x4f0
 2517 0630 00       		.byte	0x0
 2518 0631 0D       		.uleb128 0xd
ARM GAS  C:\Users\z80\AppData\Local\Temp\ccA8oroC.s 			page 46


 2519 0632 62000000 		.4byte	0x62
 2520 0636 0D       		.uleb128 0xd
 2521 0637 74000000 		.4byte	0x74
 2522 063b 16       		.uleb128 0x16
 2523 063c 1C       		.byte	0x1c
 2524 063d 0D       		.byte	0xd
 2525 063e F803     		.2byte	0x3f8
 2526 0640 AE060000 		.4byte	0x6ae
 2527 0644 0B       		.uleb128 0xb
 2528 0645 43524C00 		.ascii	"CRL\000"
 2529 0649 0D       		.byte	0xd
 2530 064a FA03     		.2byte	0x3fa
 2531 064c 3D030000 		.4byte	0x33d
 2532 0650 02       		.byte	0x2
 2533 0651 23       		.byte	0x23
 2534 0652 00       		.uleb128 0x0
 2535 0653 0B       		.uleb128 0xb
 2536 0654 43524800 		.ascii	"CRH\000"
 2537 0658 0D       		.byte	0xd
 2538 0659 FB03     		.2byte	0x3fb
 2539 065b 3D030000 		.4byte	0x33d
 2540 065f 02       		.byte	0x2
 2541 0660 23       		.byte	0x23
 2542 0661 04       		.uleb128 0x4
 2543 0662 0B       		.uleb128 0xb
 2544 0663 49445200 		.ascii	"IDR\000"
 2545 0667 0D       		.byte	0xd
 2546 0668 FC03     		.2byte	0x3fc
 2547 066a 3D030000 		.4byte	0x33d
 2548 066e 02       		.byte	0x2
 2549 066f 23       		.byte	0x23
 2550 0670 08       		.uleb128 0x8
 2551 0671 0B       		.uleb128 0xb
 2552 0672 4F445200 		.ascii	"ODR\000"
 2553 0676 0D       		.byte	0xd
 2554 0677 FD03     		.2byte	0x3fd
 2555 0679 3D030000 		.4byte	0x33d
 2556 067d 02       		.byte	0x2
 2557 067e 23       		.byte	0x23
 2558 067f 0C       		.uleb128 0xc
 2559 0680 17       		.uleb128 0x17
 2560 0681 EB000000 		.4byte	.LASF75
 2561 0685 0D       		.byte	0xd
 2562 0686 FE03     		.2byte	0x3fe
 2563 0688 3D030000 		.4byte	0x33d
 2564 068c 02       		.byte	0x2
 2565 068d 23       		.byte	0x23
 2566 068e 10       		.uleb128 0x10
 2567 068f 0B       		.uleb128 0xb
 2568 0690 42525200 		.ascii	"BRR\000"
 2569 0694 0D       		.byte	0xd
 2570 0695 FF03     		.2byte	0x3ff
 2571 0697 3D030000 		.4byte	0x33d
 2572 069b 02       		.byte	0x2
 2573 069c 23       		.byte	0x23
 2574 069d 14       		.uleb128 0x14
 2575 069e 17       		.uleb128 0x17
ARM GAS  C:\Users\z80\AppData\Local\Temp\ccA8oroC.s 			page 47


 2576 069f E9010000 		.4byte	.LASF76
 2577 06a3 0D       		.byte	0xd
 2578 06a4 0004     		.2byte	0x400
 2579 06a6 3D030000 		.4byte	0x33d
 2580 06aa 02       		.byte	0x2
 2581 06ab 23       		.byte	0x23
 2582 06ac 18       		.uleb128 0x18
 2583 06ad 00       		.byte	0x0
 2584 06ae 15       		.uleb128 0x15
 2585 06af 59010000 		.4byte	.LASF77
 2586 06b3 0D       		.byte	0xd
 2587 06b4 0104     		.2byte	0x401
 2588 06b6 3B060000 		.4byte	0x63b
 2589 06ba 16       		.uleb128 0x16
 2590 06bb 1C       		.byte	0x1c
 2591 06bc 0D       		.byte	0xd
 2592 06bd E104     		.2byte	0x4e1
 2593 06bf 94070000 		.4byte	0x794
 2594 06c3 0B       		.uleb128 0xb
 2595 06c4 535200   		.ascii	"SR\000"
 2596 06c7 0D       		.byte	0xd
 2597 06c8 E304     		.2byte	0x4e3
 2598 06ca 31060000 		.4byte	0x631
 2599 06ce 02       		.byte	0x2
 2600 06cf 23       		.byte	0x23
 2601 06d0 00       		.uleb128 0x0
 2602 06d1 17       		.uleb128 0x17
 2603 06d2 5B030000 		.4byte	.LASF78
 2604 06d6 0D       		.byte	0xd
 2605 06d7 E404     		.2byte	0x4e4
 2606 06d9 62000000 		.4byte	0x62
 2607 06dd 02       		.byte	0x2
 2608 06de 23       		.byte	0x23
 2609 06df 02       		.uleb128 0x2
 2610 06e0 0B       		.uleb128 0xb
 2611 06e1 445200   		.ascii	"DR\000"
 2612 06e4 0D       		.byte	0xd
 2613 06e5 E504     		.2byte	0x4e5
 2614 06e7 31060000 		.4byte	0x631
 2615 06eb 02       		.byte	0x2
 2616 06ec 23       		.byte	0x23
 2617 06ed 04       		.uleb128 0x4
 2618 06ee 17       		.uleb128 0x17
 2619 06ef 65030000 		.4byte	.LASF79
 2620 06f3 0D       		.byte	0xd
 2621 06f4 E604     		.2byte	0x4e6
 2622 06f6 62000000 		.4byte	0x62
 2623 06fa 02       		.byte	0x2
 2624 06fb 23       		.byte	0x23
 2625 06fc 06       		.uleb128 0x6
 2626 06fd 0B       		.uleb128 0xb
 2627 06fe 42525200 		.ascii	"BRR\000"
 2628 0702 0D       		.byte	0xd
 2629 0703 E704     		.2byte	0x4e7
 2630 0705 31060000 		.4byte	0x631
 2631 0709 02       		.byte	0x2
 2632 070a 23       		.byte	0x23
ARM GAS  C:\Users\z80\AppData\Local\Temp\ccA8oroC.s 			page 48


 2633 070b 08       		.uleb128 0x8
 2634 070c 17       		.uleb128 0x17
 2635 070d 6F030000 		.4byte	.LASF80
 2636 0711 0D       		.byte	0xd
 2637 0712 E804     		.2byte	0x4e8
 2638 0714 62000000 		.4byte	0x62
 2639 0718 02       		.byte	0x2
 2640 0719 23       		.byte	0x23
 2641 071a 0A       		.uleb128 0xa
 2642 071b 0B       		.uleb128 0xb
 2643 071c 43523100 		.ascii	"CR1\000"
 2644 0720 0D       		.byte	0xd
 2645 0721 E904     		.2byte	0x4e9
 2646 0723 31060000 		.4byte	0x631
 2647 0727 02       		.byte	0x2
 2648 0728 23       		.byte	0x23
 2649 0729 0C       		.uleb128 0xc
 2650 072a 17       		.uleb128 0x17
 2651 072b 79030000 		.4byte	.LASF81
 2652 072f 0D       		.byte	0xd
 2653 0730 EA04     		.2byte	0x4ea
 2654 0732 62000000 		.4byte	0x62
 2655 0736 02       		.byte	0x2
 2656 0737 23       		.byte	0x23
 2657 0738 0E       		.uleb128 0xe
 2658 0739 0B       		.uleb128 0xb
 2659 073a 43523200 		.ascii	"CR2\000"
 2660 073e 0D       		.byte	0xd
 2661 073f EB04     		.2byte	0x4eb
 2662 0741 31060000 		.4byte	0x631
 2663 0745 02       		.byte	0x2
 2664 0746 23       		.byte	0x23
 2665 0747 10       		.uleb128 0x10
 2666 0748 17       		.uleb128 0x17
 2667 0749 83030000 		.4byte	.LASF82
 2668 074d 0D       		.byte	0xd
 2669 074e EC04     		.2byte	0x4ec
 2670 0750 62000000 		.4byte	0x62
 2671 0754 02       		.byte	0x2
 2672 0755 23       		.byte	0x23
 2673 0756 12       		.uleb128 0x12
 2674 0757 0B       		.uleb128 0xb
 2675 0758 43523300 		.ascii	"CR3\000"
 2676 075c 0D       		.byte	0xd
 2677 075d ED04     		.2byte	0x4ed
 2678 075f 31060000 		.4byte	0x631
 2679 0763 02       		.byte	0x2
 2680 0764 23       		.byte	0x23
 2681 0765 14       		.uleb128 0x14
 2682 0766 17       		.uleb128 0x17
 2683 0767 5D040000 		.4byte	.LASF83
 2684 076b 0D       		.byte	0xd
 2685 076c EE04     		.2byte	0x4ee
 2686 076e 62000000 		.4byte	0x62
 2687 0772 02       		.byte	0x2
 2688 0773 23       		.byte	0x23
 2689 0774 16       		.uleb128 0x16
ARM GAS  C:\Users\z80\AppData\Local\Temp\ccA8oroC.s 			page 49


 2690 0775 17       		.uleb128 0x17
 2691 0776 F0000000 		.4byte	.LASF84
 2692 077a 0D       		.byte	0xd
 2693 077b EF04     		.2byte	0x4ef
 2694 077d 31060000 		.4byte	0x631
 2695 0781 02       		.byte	0x2
 2696 0782 23       		.byte	0x23
 2697 0783 18       		.uleb128 0x18
 2698 0784 17       		.uleb128 0x17
 2699 0785 94030000 		.4byte	.LASF85
 2700 0789 0D       		.byte	0xd
 2701 078a F004     		.2byte	0x4f0
 2702 078c 62000000 		.4byte	0x62
 2703 0790 02       		.byte	0x2
 2704 0791 23       		.byte	0x23
 2705 0792 1A       		.uleb128 0x1a
 2706 0793 00       		.byte	0x0
 2707 0794 15       		.uleb128 0x15
 2708 0795 47020000 		.4byte	.LASF86
 2709 0799 0D       		.byte	0xd
 2710 079a F104     		.2byte	0x4f1
 2711 079c BA060000 		.4byte	0x6ba
 2712 07a0 03       		.uleb128 0x3
 2713 07a1 38000000 		.4byte	.LASF87
 2714 07a5 0E       		.byte	0xe
 2715 07a6 78       		.byte	0x78
 2716 07a7 86000000 		.4byte	0x86
 2717 07ab 18       		.uleb128 0x18
 2718 07ac 01       		.byte	0x1
 2719 07ad 0F       		.byte	0xf
 2720 07ae 64       		.byte	0x64
 2721 07af C6070000 		.4byte	0x7c6
 2722 07b3 19       		.uleb128 0x19
 2723 07b4 53040000 		.4byte	.LASF88
 2724 07b8 00       		.sleb128 0
 2725 07b9 19       		.uleb128 0x19
 2726 07ba F5000000 		.4byte	.LASF89
 2727 07be 01       		.sleb128 1
 2728 07bf 19       		.uleb128 0x19
 2729 07c0 FA040000 		.4byte	.LASF90
 2730 07c4 02       		.sleb128 2
 2731 07c5 00       		.byte	0x0
 2732 07c6 03       		.uleb128 0x3
 2733 07c7 70040000 		.4byte	.LASF91
 2734 07cb 0F       		.byte	0xf
 2735 07cc 68       		.byte	0x68
 2736 07cd AB070000 		.4byte	0x7ab
 2737 07d1 03       		.uleb128 0x3
 2738 07d2 7A040000 		.4byte	.LASF92
 2739 07d6 0F       		.byte	0xf
 2740 07d7 6D       		.byte	0x6d
 2741 07d8 DC070000 		.4byte	0x7dc
 2742 07dc 1A       		.uleb128 0x1a
 2743 07dd 7A040000 		.4byte	.LASF92
 2744 07e1 5404     		.2byte	0x454
 2745 07e3 0F       		.byte	0xf
 2746 07e4 87       		.byte	0x87
ARM GAS  C:\Users\z80\AppData\Local\Temp\ccA8oroC.s 			page 50


 2747 07e5 68080000 		.4byte	0x868
 2748 07e9 07       		.uleb128 0x7
 2749 07ea 766D7400 		.ascii	"vmt\000"
 2750 07ee 0F       		.byte	0xf
 2751 07ef 89       		.byte	0x89
 2752 07f0 F3080000 		.4byte	0x8f3
 2753 07f4 02       		.byte	0x2
 2754 07f5 23       		.byte	0x23
 2755 07f6 00       		.uleb128 0x0
 2756 07f7 06       		.uleb128 0x6
 2757 07f8 07020000 		.4byte	.LASF93
 2758 07fc 0F       		.byte	0xf
 2759 07fd 8A       		.byte	0x8a
 2760 07fe F5030000 		.4byte	0x3f5
 2761 0802 02       		.byte	0x2
 2762 0803 23       		.byte	0x23
 2763 0804 04       		.uleb128 0x4
 2764 0805 06       		.uleb128 0x6
 2765 0806 43050000 		.4byte	.LASF94
 2766 080a 0F       		.byte	0xf
 2767 080b 8A       		.byte	0x8a
 2768 080c F2050000 		.4byte	0x5f2
 2769 0810 02       		.byte	0x2
 2770 0811 23       		.byte	0x23
 2771 0812 08       		.uleb128 0x8
 2772 0813 06       		.uleb128 0x6
 2773 0814 1A010000 		.4byte	.LASF95
 2774 0818 0F       		.byte	0xf
 2775 0819 8A       		.byte	0x8a
 2776 081a C6070000 		.4byte	0x7c6
 2777 081e 02       		.byte	0x2
 2778 081f 23       		.byte	0x23
 2779 0820 0C       		.uleb128 0xc
 2780 0821 06       		.uleb128 0x6
 2781 0822 D2010000 		.4byte	.LASF96
 2782 0826 0F       		.byte	0xf
 2783 0827 8A       		.byte	0x8a
 2784 0828 F6040000 		.4byte	0x4f6
 2785 082c 02       		.byte	0x2
 2786 082d 23       		.byte	0x23
 2787 082e 10       		.uleb128 0x10
 2788 082f 06       		.uleb128 0x6
 2789 0830 26020000 		.4byte	.LASF97
 2790 0834 0F       		.byte	0xf
 2791 0835 8A       		.byte	0x8a
 2792 0836 01050000 		.4byte	0x501
 2793 083a 02       		.byte	0x2
 2794 083b 23       		.byte	0x23
 2795 083c 30       		.uleb128 0x30
 2796 083d 07       		.uleb128 0x7
 2797 083e 696200   		.ascii	"ib\000"
 2798 0841 0F       		.byte	0xf
 2799 0842 8A       		.byte	0x8a
 2800 0843 FE080000 		.4byte	0x8fe
 2801 0847 02       		.byte	0x2
 2802 0848 23       		.byte	0x23
 2803 0849 50       		.uleb128 0x50
ARM GAS  C:\Users\z80\AppData\Local\Temp\ccA8oroC.s 			page 51


 2804 084a 07       		.uleb128 0x7
 2805 084b 6F6200   		.ascii	"ob\000"
 2806 084e 0F       		.byte	0xf
 2807 084f 8A       		.byte	0x8a
 2808 0850 FE080000 		.4byte	0x8fe
 2809 0854 03       		.byte	0x3
 2810 0855 23       		.byte	0x23
 2811 0856 D004     		.uleb128 0x250
 2812 0858 06       		.uleb128 0x6
 2813 0859 84010000 		.4byte	.LASF98
 2814 085d 0F       		.byte	0xf
 2815 085e 8A       		.byte	0x8a
 2816 085f 0F090000 		.4byte	0x90f
 2817 0863 03       		.byte	0x3
 2818 0864 23       		.byte	0x23
 2819 0865 D008     		.uleb128 0x450
 2820 0867 00       		.byte	0x0
 2821 0868 05       		.uleb128 0x5
 2822 0869 A0010000 		.4byte	.LASF99
 2823 086d 24       		.byte	0x24
 2824 086e 0F       		.byte	0xf
 2825 086f 7C       		.byte	0x7c
 2826 0870 F3080000 		.4byte	0x8f3
 2827 0874 06       		.uleb128 0x6
 2828 0875 C0020000 		.4byte	.LASF100
 2829 0879 0F       		.byte	0xf
 2830 087a 7D       		.byte	0x7d
 2831 087b 31050000 		.4byte	0x531
 2832 087f 02       		.byte	0x2
 2833 0880 23       		.byte	0x23
 2834 0881 00       		.uleb128 0x0
 2835 0882 06       		.uleb128 0x6
 2836 0883 99040000 		.4byte	.LASF101
 2837 0887 0F       		.byte	0xf
 2838 0888 7D       		.byte	0x7d
 2839 0889 51050000 		.4byte	0x551
 2840 088d 02       		.byte	0x2
 2841 088e 23       		.byte	0x23
 2842 088f 04       		.uleb128 0x4
 2843 0890 06       		.uleb128 0x6
 2844 0891 4B010000 		.4byte	.LASF102
 2845 0895 0F       		.byte	0xf
 2846 0896 7D       		.byte	0x7d
 2847 0897 67050000 		.4byte	0x567
 2848 089b 02       		.byte	0x2
 2849 089c 23       		.byte	0x23
 2850 089d 08       		.uleb128 0x8
 2851 089e 06       		.uleb128 0x6
 2852 089f 70050000 		.4byte	.LASF103
 2853 08a3 0F       		.byte	0xf
 2854 08a4 7D       		.byte	0x7d
 2855 08a5 67050000 		.4byte	0x567
 2856 08a9 02       		.byte	0x2
 2857 08aa 23       		.byte	0x23
 2858 08ab 0C       		.uleb128 0xc
 2859 08ac 07       		.uleb128 0x7
 2860 08ad 70757400 		.ascii	"put\000"
ARM GAS  C:\Users\z80\AppData\Local\Temp\ccA8oroC.s 			page 52


 2861 08b1 0F       		.byte	0xf
 2862 08b2 7D       		.byte	0x7d
 2863 08b3 87050000 		.4byte	0x587
 2864 08b7 02       		.byte	0x2
 2865 08b8 23       		.byte	0x23
 2866 08b9 10       		.uleb128 0x10
 2867 08ba 07       		.uleb128 0x7
 2868 08bb 67657400 		.ascii	"get\000"
 2869 08bf 0F       		.byte	0xf
 2870 08c0 7D       		.byte	0x7d
 2871 08c1 A2050000 		.4byte	0x5a2
 2872 08c5 02       		.byte	0x2
 2873 08c6 23       		.byte	0x23
 2874 08c7 14       		.uleb128 0x14
 2875 08c8 06       		.uleb128 0x6
 2876 08c9 55020000 		.4byte	.LASF104
 2877 08cd 0F       		.byte	0xf
 2878 08ce 7D       		.byte	0x7d
 2879 08cf C7050000 		.4byte	0x5c7
 2880 08d3 02       		.byte	0x2
 2881 08d4 23       		.byte	0x23
 2882 08d5 18       		.uleb128 0x18
 2883 08d6 06       		.uleb128 0x6
 2884 08d7 BC000000 		.4byte	.LASF105
 2885 08db 0F       		.byte	0xf
 2886 08dc 7D       		.byte	0x7d
 2887 08dd EC050000 		.4byte	0x5ec
 2888 08e1 02       		.byte	0x2
 2889 08e2 23       		.byte	0x23
 2890 08e3 1C       		.uleb128 0x1c
 2891 08e4 06       		.uleb128 0x6
 2892 08e5 E2040000 		.4byte	.LASF106
 2893 08e9 0F       		.byte	0xf
 2894 08ea 7D       		.byte	0x7d
 2895 08eb 0E060000 		.4byte	0x60e
 2896 08ef 02       		.byte	0x2
 2897 08f0 23       		.byte	0x23
 2898 08f1 20       		.uleb128 0x20
 2899 08f2 00       		.byte	0x0
 2900 08f3 09       		.uleb128 0x9
 2901 08f4 04       		.byte	0x4
 2902 08f5 F9080000 		.4byte	0x8f9
 2903 08f9 11       		.uleb128 0x11
 2904 08fa 68080000 		.4byte	0x868
 2905 08fe 1B       		.uleb128 0x1b
 2906 08ff 49000000 		.4byte	0x49
 2907 0903 0F090000 		.4byte	0x90f
 2908 0907 1C       		.uleb128 0x1c
 2909 0908 42030000 		.4byte	0x342
 2910 090c FF01     		.2byte	0x1ff
 2911 090e 00       		.byte	0x0
 2912 090f 09       		.uleb128 0x9
 2913 0910 04       		.byte	0x4
 2914 0911 94070000 		.4byte	0x794
 2915 0915 1D       		.uleb128 0x1d
 2916 0916 EE010000 		.4byte	.LASF109
 2917 091a 01       		.byte	0x1
ARM GAS  C:\Users\z80\AppData\Local\Temp\ccA8oroC.s 			page 53


 2918 091b 95       		.byte	0x95
 2919 091c 01       		.byte	0x1
 2920 091d 01       		.byte	0x1
 2921 091e 39090000 		.4byte	0x939
 2922 0922 1E       		.uleb128 0x1e
 2923 0923 38050000 		.4byte	.LASF107
 2924 0927 01       		.byte	0x1
 2925 0928 97       		.byte	0x97
 2926 0929 29000000 		.4byte	0x29
 2927 092d 1E       		.uleb128 0x1e
 2928 092e 9E030000 		.4byte	.LASF108
 2929 0932 01       		.byte	0x1
 2930 0933 99       		.byte	0x99
 2931 0934 29000000 		.4byte	0x29
 2932 0938 00       		.byte	0x0
 2933 0939 1D       		.uleb128 0x1d
 2934 093a F6030000 		.4byte	.LASF110
 2935 093e 01       		.byte	0x1
 2936 093f 61       		.byte	0x61
 2937 0940 01       		.byte	0x1
 2938 0941 01       		.byte	0x1
 2939 0942 7B090000 		.4byte	0x97b
 2940 0946 1F       		.uleb128 0x1f
 2941 0947 62756600 		.ascii	"buf\000"
 2942 094b 01       		.byte	0x1
 2943 094c 61       		.byte	0x61
 2944 094d F0040000 		.4byte	0x4f0
 2945 0951 1F       		.uleb128 0x1f
 2946 0952 737A00   		.ascii	"sz\000"
 2947 0955 01       		.byte	0x1
 2948 0956 61       		.byte	0x61
 2949 0957 29000000 		.4byte	0x29
 2950 095b 20       		.uleb128 0x20
 2951 095c 6900     		.ascii	"i\000"
 2952 095e 01       		.byte	0x1
 2953 095f 63       		.byte	0x63
 2954 0960 29000000 		.4byte	0x29
 2955 0964 20       		.uleb128 0x20
 2956 0965 636D6400 		.ascii	"cmd\000"
 2957 0969 01       		.byte	0x1
 2958 096a 64       		.byte	0x64
 2959 096b 49000000 		.4byte	0x49
 2960 096f 1E       		.uleb128 0x1e
 2961 0970 DD040000 		.4byte	.LASF111
 2962 0974 01       		.byte	0x1
 2963 0975 66       		.byte	0x66
 2964 0976 F0040000 		.4byte	0x4f0
 2965 097a 00       		.byte	0x0
 2966 097b 21       		.uleb128 0x21
 2967 097c 14040000 		.4byte	.LASF112
 2968 0980 01       		.byte	0x1
 2969 0981 1401     		.2byte	0x114
 2970 0983 01       		.byte	0x1
 2971 0984 00000000 		.4byte	.LFB81
 2972 0988 0A000000 		.4byte	.LFE81
 2973 098c 00000000 		.4byte	.LLST0
 2974 0990 A5090000 		.4byte	0x9a5
ARM GAS  C:\Users\z80\AppData\Local\Temp\ccA8oroC.s 			page 54


 2975 0994 22       		.uleb128 0x22
 2976 0995 7E050000 		.4byte	.LASF114
 2977 0999 01       		.byte	0x1
 2978 099a 1401     		.2byte	0x114
 2979 099c F0040000 		.4byte	0x4f0
 2980 09a0 20000000 		.4byte	.LLST1
 2981 09a4 00       		.byte	0x0
 2982 09a5 21       		.uleb128 0x21
 2983 09a6 45030000 		.4byte	.LASF113
 2984 09aa 01       		.byte	0x1
 2985 09ab 2101     		.2byte	0x121
 2986 09ad 01       		.byte	0x1
 2987 09ae 00000000 		.4byte	.LFB82
 2988 09b2 34000000 		.4byte	.LFE82
 2989 09b6 33000000 		.4byte	.LLST2
 2990 09ba CD090000 		.4byte	0x9cd
 2991 09be 23       		.uleb128 0x23
 2992 09bf 7600     		.ascii	"v\000"
 2993 09c1 01       		.byte	0x1
 2994 09c2 2101     		.2byte	0x121
 2995 09c4 49000000 		.4byte	0x49
 2996 09c8 53000000 		.4byte	.LLST3
 2997 09cc 00       		.byte	0x0
 2998 09cd 24       		.uleb128 0x24
 2999 09ce 00000000 		.4byte	.LASF140
 3000 09d2 01       		.byte	0x1
 3001 09d3 2801     		.2byte	0x128
 3002 09d5 01       		.byte	0x1
 3003 09d6 00000000 		.4byte	.LFB83
 3004 09da 14000000 		.4byte	.LFE83
 3005 09de 66000000 		.4byte	.LLST4
 3006 09e2 21       		.uleb128 0x21
 3007 09e3 36020000 		.4byte	.LASF115
 3008 09e7 01       		.byte	0x1
 3009 09e8 0901     		.2byte	0x109
 3010 09ea 01       		.byte	0x1
 3011 09eb 00000000 		.4byte	.LFB80
 3012 09ef 30000000 		.4byte	.LFE80
 3013 09f3 86000000 		.4byte	.LLST5
 3014 09f7 340A0000 		.4byte	0xa34
 3015 09fb 22       		.uleb128 0x22
 3016 09fc 7E050000 		.4byte	.LASF114
 3017 0a00 01       		.byte	0x1
 3018 0a01 0901     		.2byte	0x109
 3019 0a03 F0040000 		.4byte	0x4f0
 3020 0a07 B2000000 		.4byte	.LLST6
 3021 0a0b 25       		.uleb128 0x25
 3022 0a0c E4010000 		.4byte	.LASF116
 3023 0a10 01       		.byte	0x1
 3024 0a11 0C01     		.2byte	0x10c
 3025 0a13 440A0000 		.4byte	0xa44
 3026 0a17 02       		.byte	0x2
 3027 0a18 91       		.byte	0x91
 3028 0a19 68       		.sleb128 -24
 3029 0a1a 26       		.uleb128 0x26
 3030 0a1b 6C00     		.ascii	"l\000"
 3031 0a1d 01       		.byte	0x1
ARM GAS  C:\Users\z80\AppData\Local\Temp\ccA8oroC.s 			page 55


 3032 0a1e 0D01     		.2byte	0x10d
 3033 0a20 29000000 		.4byte	0x29
 3034 0a24 05       		.byte	0x5
 3035 0a25 27       		.uleb128 0x27
 3036 0a26 6900     		.ascii	"i\000"
 3037 0a28 01       		.byte	0x1
 3038 0a29 0E01     		.2byte	0x10e
 3039 0a2b 29000000 		.4byte	0x29
 3040 0a2f C5000000 		.4byte	.LLST7
 3041 0a33 00       		.byte	0x0
 3042 0a34 1B       		.uleb128 0x1b
 3043 0a35 49000000 		.4byte	0x49
 3044 0a39 440A0000 		.4byte	0xa44
 3045 0a3d 28       		.uleb128 0x28
 3046 0a3e 42030000 		.4byte	0x342
 3047 0a42 05       		.byte	0x5
 3048 0a43 00       		.byte	0x0
 3049 0a44 11       		.uleb128 0x11
 3050 0a45 340A0000 		.4byte	0xa34
 3051 0a49 29       		.uleb128 0x29
 3052 0a4a B7010000 		.4byte	.LASF117
 3053 0a4e 01       		.byte	0x1
 3054 0a4f FE       		.byte	0xfe
 3055 0a50 01       		.byte	0x1
 3056 0a51 00000000 		.4byte	.LFB79
 3057 0a55 30000000 		.4byte	.LFE79
 3058 0a59 D9000000 		.4byte	.LLST8
 3059 0a5d 990A0000 		.4byte	0xa99
 3060 0a61 2A       		.uleb128 0x2a
 3061 0a62 7E050000 		.4byte	.LASF114
 3062 0a66 01       		.byte	0x1
 3063 0a67 FE       		.byte	0xfe
 3064 0a68 F0040000 		.4byte	0x4f0
 3065 0a6c 05010000 		.4byte	.LLST9
 3066 0a70 25       		.uleb128 0x25
 3067 0a71 E4010000 		.4byte	.LASF116
 3068 0a75 01       		.byte	0x1
 3069 0a76 0101     		.2byte	0x101
 3070 0a78 A90A0000 		.4byte	0xaa9
 3071 0a7c 02       		.byte	0x2
 3072 0a7d 91       		.byte	0x91
 3073 0a7e 60       		.sleb128 -32
 3074 0a7f 26       		.uleb128 0x26
 3075 0a80 6C00     		.ascii	"l\000"
 3076 0a82 01       		.byte	0x1
 3077 0a83 0201     		.2byte	0x102
 3078 0a85 29000000 		.4byte	0x29
 3079 0a89 0D       		.byte	0xd
 3080 0a8a 27       		.uleb128 0x27
 3081 0a8b 6900     		.ascii	"i\000"
 3082 0a8d 01       		.byte	0x1
 3083 0a8e 0301     		.2byte	0x103
 3084 0a90 29000000 		.4byte	0x29
 3085 0a94 18010000 		.4byte	.LLST10
 3086 0a98 00       		.byte	0x0
 3087 0a99 1B       		.uleb128 0x1b
 3088 0a9a 49000000 		.4byte	0x49
ARM GAS  C:\Users\z80\AppData\Local\Temp\ccA8oroC.s 			page 56


 3089 0a9e A90A0000 		.4byte	0xaa9
 3090 0aa2 28       		.uleb128 0x28
 3091 0aa3 42030000 		.4byte	0x342
 3092 0aa7 0D       		.byte	0xd
 3093 0aa8 00       		.byte	0x0
 3094 0aa9 11       		.uleb128 0x11
 3095 0aaa 990A0000 		.4byte	0xa99
 3096 0aae 29       		.uleb128 0x29
 3097 0aaf C8010000 		.4byte	.LASF118
 3098 0ab3 01       		.byte	0x1
 3099 0ab4 F7       		.byte	0xf7
 3100 0ab5 01       		.byte	0x1
 3101 0ab6 00000000 		.4byte	.LFB78
 3102 0aba 12000000 		.4byte	.LFE78
 3103 0abe 2C010000 		.4byte	.LLST11
 3104 0ac2 E30A0000 		.4byte	0xae3
 3105 0ac6 2A       		.uleb128 0x2a
 3106 0ac7 7E050000 		.4byte	.LASF114
 3107 0acb 01       		.byte	0x1
 3108 0acc F7       		.byte	0xf7
 3109 0acd F0040000 		.4byte	0x4f0
 3110 0ad1 4C010000 		.4byte	.LLST12
 3111 0ad5 2B       		.uleb128 0x2b
 3112 0ad6 7100     		.ascii	"q\000"
 3113 0ad8 01       		.byte	0x1
 3114 0ad9 FA       		.byte	0xfa
 3115 0ada E30A0000 		.4byte	0xae3
 3116 0ade 5F010000 		.4byte	.LLST13
 3117 0ae2 00       		.byte	0x0
 3118 0ae3 09       		.uleb128 0x9
 3119 0ae4 04       		.byte	0x4
 3120 0ae5 01050000 		.4byte	0x501
 3121 0ae9 29       		.uleb128 0x29
 3122 0aea 36040000 		.4byte	.LASF119
 3123 0aee 01       		.byte	0x1
 3124 0aef F0       		.byte	0xf0
 3125 0af0 01       		.byte	0x1
 3126 0af1 00000000 		.4byte	.LFB77
 3127 0af5 12000000 		.4byte	.LFE77
 3128 0af9 72010000 		.4byte	.LLST14
 3129 0afd 1E0B0000 		.4byte	0xb1e
 3130 0b01 2A       		.uleb128 0x2a
 3131 0b02 7E050000 		.4byte	.LASF114
 3132 0b06 01       		.byte	0x1
 3133 0b07 F0       		.byte	0xf0
 3134 0b08 F0040000 		.4byte	0x4f0
 3135 0b0c 92010000 		.4byte	.LLST15
 3136 0b10 2B       		.uleb128 0x2b
 3137 0b11 7100     		.ascii	"q\000"
 3138 0b13 01       		.byte	0x1
 3139 0b14 F3       		.byte	0xf3
 3140 0b15 E30A0000 		.4byte	0xae3
 3141 0b19 A5010000 		.4byte	.LLST16
 3142 0b1d 00       		.byte	0x0
 3143 0b1e 29       		.uleb128 0x29
 3144 0b1f 71000000 		.4byte	.LASF120
 3145 0b23 01       		.byte	0x1
ARM GAS  C:\Users\z80\AppData\Local\Temp\ccA8oroC.s 			page 57


 3146 0b24 E9       		.byte	0xe9
 3147 0b25 01       		.byte	0x1
 3148 0b26 00000000 		.4byte	.LFB76
 3149 0b2a 12000000 		.4byte	.LFE76
 3150 0b2e B8010000 		.4byte	.LLST17
 3151 0b32 530B0000 		.4byte	0xb53
 3152 0b36 2A       		.uleb128 0x2a
 3153 0b37 7E050000 		.4byte	.LASF114
 3154 0b3b 01       		.byte	0x1
 3155 0b3c E9       		.byte	0xe9
 3156 0b3d F0040000 		.4byte	0x4f0
 3157 0b41 D8010000 		.4byte	.LLST18
 3158 0b45 2B       		.uleb128 0x2b
 3159 0b46 7100     		.ascii	"q\000"
 3160 0b48 01       		.byte	0x1
 3161 0b49 EC       		.byte	0xec
 3162 0b4a E30A0000 		.4byte	0xae3
 3163 0b4e EB010000 		.4byte	.LLST19
 3164 0b52 00       		.byte	0x0
 3165 0b53 29       		.uleb128 0x29
 3166 0b54 B8020000 		.4byte	.LASF121
 3167 0b58 01       		.byte	0x1
 3168 0b59 E2       		.byte	0xe2
 3169 0b5a 01       		.byte	0x1
 3170 0b5b 00000000 		.4byte	.LFB75
 3171 0b5f 12000000 		.4byte	.LFE75
 3172 0b63 FE010000 		.4byte	.LLST20
 3173 0b67 880B0000 		.4byte	0xb88
 3174 0b6b 2A       		.uleb128 0x2a
 3175 0b6c 7E050000 		.4byte	.LASF114
 3176 0b70 01       		.byte	0x1
 3177 0b71 E2       		.byte	0xe2
 3178 0b72 F0040000 		.4byte	0x4f0
 3179 0b76 1E020000 		.4byte	.LLST21
 3180 0b7a 2B       		.uleb128 0x2b
 3181 0b7b 7100     		.ascii	"q\000"
 3182 0b7d 01       		.byte	0x1
 3183 0b7e E5       		.byte	0xe5
 3184 0b7f E30A0000 		.4byte	0xae3
 3185 0b83 31020000 		.4byte	.LLST22
 3186 0b87 00       		.byte	0x0
 3187 0b88 29       		.uleb128 0x29
 3188 0b89 91000000 		.4byte	.LASF122
 3189 0b8d 01       		.byte	0x1
 3190 0b8e DD       		.byte	0xdd
 3191 0b8f 01       		.byte	0x1
 3192 0b90 00000000 		.4byte	.LFB74
 3193 0b94 0A000000 		.4byte	.LFE74
 3194 0b98 44020000 		.4byte	.LLST23
 3195 0b9c B00B0000 		.4byte	0xbb0
 3196 0ba0 2A       		.uleb128 0x2a
 3197 0ba1 7E050000 		.4byte	.LASF114
 3198 0ba5 01       		.byte	0x1
 3199 0ba6 DD       		.byte	0xdd
 3200 0ba7 F0040000 		.4byte	0x4f0
 3201 0bab 64020000 		.4byte	.LLST24
 3202 0baf 00       		.byte	0x0
ARM GAS  C:\Users\z80\AppData\Local\Temp\ccA8oroC.s 			page 58


 3203 0bb0 29       		.uleb128 0x29
 3204 0bb1 2F030000 		.4byte	.LASF123
 3205 0bb5 01       		.byte	0x1
 3206 0bb6 D8       		.byte	0xd8
 3207 0bb7 01       		.byte	0x1
 3208 0bb8 00000000 		.4byte	.LFB73
 3209 0bbc 0A000000 		.4byte	.LFE73
 3210 0bc0 77020000 		.4byte	.LLST25
 3211 0bc4 D80B0000 		.4byte	0xbd8
 3212 0bc8 2A       		.uleb128 0x2a
 3213 0bc9 7E050000 		.4byte	.LASF114
 3214 0bcd 01       		.byte	0x1
 3215 0bce D8       		.byte	0xd8
 3216 0bcf F0040000 		.4byte	0x4f0
 3217 0bd3 97020000 		.4byte	.LLST26
 3218 0bd7 00       		.byte	0x0
 3219 0bd8 29       		.uleb128 0x29
 3220 0bd9 66010000 		.4byte	.LASF124
 3221 0bdd 01       		.byte	0x1
 3222 0bde D3       		.byte	0xd3
 3223 0bdf 01       		.byte	0x1
 3224 0be0 00000000 		.4byte	.LFB72
 3225 0be4 0A000000 		.4byte	.LFE72
 3226 0be8 AA020000 		.4byte	.LLST27
 3227 0bec 000C0000 		.4byte	0xc00
 3228 0bf0 2A       		.uleb128 0x2a
 3229 0bf1 7E050000 		.4byte	.LASF114
 3230 0bf5 01       		.byte	0x1
 3231 0bf6 D3       		.byte	0xd3
 3232 0bf7 F0040000 		.4byte	0x4f0
 3233 0bfb CA020000 		.4byte	.LLST28
 3234 0bff 00       		.byte	0x0
 3235 0c00 29       		.uleb128 0x29
 3236 0c01 C2000000 		.4byte	.LASF125
 3237 0c05 01       		.byte	0x1
 3238 0c06 C8       		.byte	0xc8
 3239 0c07 01       		.byte	0x1
 3240 0c08 00000000 		.4byte	.LFB71
 3241 0c0c 1C000000 		.4byte	.LFE71
 3242 0c10 DD020000 		.4byte	.LLST29
 3243 0c14 330C0000 		.4byte	0xc33
 3244 0c18 2A       		.uleb128 0x2a
 3245 0c19 7E050000 		.4byte	.LASF114
 3246 0c1d 01       		.byte	0x1
 3247 0c1e C8       		.byte	0xc8
 3248 0c1f F0040000 		.4byte	0x4f0
 3249 0c23 FD020000 		.4byte	.LLST30
 3250 0c27 1E       		.uleb128 0x1e
 3251 0c28 45000000 		.4byte	.LASF126
 3252 0c2c 01       		.byte	0x1
 3253 0c2d CB       		.byte	0xcb
 3254 0c2e 86000000 		.4byte	0x86
 3255 0c32 00       		.byte	0x0
 3256 0c33 29       		.uleb128 0x29
 3257 0c34 0C010000 		.4byte	.LASF127
 3258 0c38 01       		.byte	0x1
 3259 0c39 9E       		.byte	0x9e
ARM GAS  C:\Users\z80\AppData\Local\Temp\ccA8oroC.s 			page 59


 3260 0c3a 01       		.byte	0x1
 3261 0c3b 00000000 		.4byte	.LFB67
 3262 0c3f 4A000000 		.4byte	.LFE67
 3263 0c43 10030000 		.4byte	.LLST31
 3264 0c47 DC0C0000 		.4byte	0xcdc
 3265 0c4b 2C       		.uleb128 0x2c
 3266 0c4c 7100     		.ascii	"q\000"
 3267 0c4e 01       		.byte	0x1
 3268 0c4f 9E       		.byte	0x9e
 3269 0c50 DC0C0000 		.4byte	0xcdc
 3270 0c54 30030000 		.4byte	.LLST32
 3271 0c58 2B       		.uleb128 0x2b
 3272 0c59 6D736700 		.ascii	"msg\000"
 3273 0c5d 01       		.byte	0x1
 3274 0c5e A0       		.byte	0xa0
 3275 0c5f E8000000 		.4byte	0xe8
 3276 0c63 4E030000 		.4byte	.LLST33
 3277 0c67 2D       		.uleb128 0x2d
 3278 0c68 F8010000 		.4byte	.LASF128
 3279 0c6c 01       		.byte	0x1
 3280 0c6d A1       		.byte	0xa1
 3281 0c6e 49000000 		.4byte	0x49
 3282 0c72 6E030000 		.4byte	.LLST34
 3283 0c76 2B       		.uleb128 0x2b
 3284 0c77 636E7400 		.ascii	"cnt\000"
 3285 0c7b 01       		.byte	0x1
 3286 0c7c A2       		.byte	0xa2
 3287 0c7d 30000000 		.4byte	0x30
 3288 0c81 A8030000 		.4byte	.LLST35
 3289 0c85 2B       		.uleb128 0x2b
 3290 0c86 6900     		.ascii	"i\000"
 3291 0c88 01       		.byte	0x1
 3292 0c89 A2       		.byte	0xa2
 3293 0c8a 30000000 		.4byte	0x30
 3294 0c8e C6030000 		.4byte	.LLST36
 3295 0c92 2E       		.uleb128 0x2e
 3296 0c93 00000000 		.4byte	.Ldebug_ranges0+0x0
 3297 0c97 AB0C0000 		.4byte	0xcab
 3298 0c9b 2B       		.uleb128 0x2b
 3299 0c9c 746D7000 		.ascii	"tmp\000"
 3300 0ca0 01       		.byte	0x1
 3301 0ca1 A3       		.byte	0xa3
 3302 0ca2 86000000 		.4byte	0x86
 3303 0ca6 E5030000 		.4byte	.LLST37
 3304 0caa 00       		.byte	0x0
 3305 0cab 2F       		.uleb128 0x2f
 3306 0cac 18000000 		.4byte	.LBB11
 3307 0cb0 1E000000 		.4byte	.LBE11
 3308 0cb4 C80C0000 		.4byte	0xcc8
 3309 0cb8 2B       		.uleb128 0x2b
 3310 0cb9 746D7000 		.ascii	"tmp\000"
 3311 0cbd 01       		.byte	0x1
 3312 0cbe A5       		.byte	0xa5
 3313 0cbf 86000000 		.4byte	0x86
 3314 0cc3 F8030000 		.4byte	.LLST38
 3315 0cc7 00       		.byte	0x0
 3316 0cc8 30       		.uleb128 0x30
ARM GAS  C:\Users\z80\AppData\Local\Temp\ccA8oroC.s 			page 60


 3317 0cc9 18000000 		.4byte	.Ldebug_ranges0+0x18
 3318 0ccd 2B       		.uleb128 0x2b
 3319 0cce 7600     		.ascii	"v\000"
 3320 0cd0 01       		.byte	0x1
 3321 0cd1 AC       		.byte	0xac
 3322 0cd2 49000000 		.4byte	0x49
 3323 0cd6 16040000 		.4byte	.LLST39
 3324 0cda 00       		.byte	0x0
 3325 0cdb 00       		.byte	0x0
 3326 0cdc 09       		.uleb128 0x9
 3327 0cdd 04       		.byte	0x4
 3328 0cde F6040000 		.4byte	0x4f6
 3329 0ce2 29       		.uleb128 0x29
 3330 0ce3 2D020000 		.4byte	.LASF129
 3331 0ce7 01       		.byte	0x1
 3332 0ce8 C1       		.byte	0xc1
 3333 0ce9 01       		.byte	0x1
 3334 0cea 00000000 		.4byte	.LFB70
 3335 0cee 0C000000 		.4byte	.LFE70
 3336 0cf2 29040000 		.4byte	.LLST40
 3337 0cf6 170D0000 		.4byte	0xd17
 3338 0cfa 2A       		.uleb128 0x2a
 3339 0cfb 7E050000 		.4byte	.LASF114
 3340 0cff 01       		.byte	0x1
 3341 0d00 C1       		.byte	0xc1
 3342 0d01 F0040000 		.4byte	0x4f0
 3343 0d05 49040000 		.4byte	.LLST41
 3344 0d09 2B       		.uleb128 0x2b
 3345 0d0a 7100     		.ascii	"q\000"
 3346 0d0c 01       		.byte	0x1
 3347 0d0d C4       		.byte	0xc4
 3348 0d0e DC0C0000 		.4byte	0xcdc
 3349 0d12 5C040000 		.4byte	.LLST42
 3350 0d16 00       		.byte	0x0
 3351 0d17 29       		.uleb128 0x29
 3352 0d18 AF030000 		.4byte	.LASF130
 3353 0d1c 01       		.byte	0x1
 3354 0d1d BA       		.byte	0xba
 3355 0d1e 01       		.byte	0x1
 3356 0d1f 00000000 		.4byte	.LFB69
 3357 0d23 0C000000 		.4byte	.LFE69
 3358 0d27 6F040000 		.4byte	.LLST43
 3359 0d2b 4C0D0000 		.4byte	0xd4c
 3360 0d2f 2A       		.uleb128 0x2a
 3361 0d30 7E050000 		.4byte	.LASF114
 3362 0d34 01       		.byte	0x1
 3363 0d35 BA       		.byte	0xba
 3364 0d36 F0040000 		.4byte	0x4f0
 3365 0d3a 8F040000 		.4byte	.LLST44
 3366 0d3e 2B       		.uleb128 0x2b
 3367 0d3f 7100     		.ascii	"q\000"
 3368 0d41 01       		.byte	0x1
 3369 0d42 BD       		.byte	0xbd
 3370 0d43 DC0C0000 		.4byte	0xcdc
 3371 0d47 A2040000 		.4byte	.LLST45
 3372 0d4b 00       		.byte	0x0
 3373 0d4c 29       		.uleb128 0x29
ARM GAS  C:\Users\z80\AppData\Local\Temp\ccA8oroC.s 			page 61


 3374 0d4d 03050000 		.4byte	.LASF131
 3375 0d51 01       		.byte	0x1
 3376 0d52 B3       		.byte	0xb3
 3377 0d53 01       		.byte	0x1
 3378 0d54 00000000 		.4byte	.LFB68
 3379 0d58 0C000000 		.4byte	.LFE68
 3380 0d5c B5040000 		.4byte	.LLST46
 3381 0d60 810D0000 		.4byte	0xd81
 3382 0d64 2A       		.uleb128 0x2a
 3383 0d65 7E050000 		.4byte	.LASF114
 3384 0d69 01       		.byte	0x1
 3385 0d6a B3       		.byte	0xb3
 3386 0d6b F0040000 		.4byte	0x4f0
 3387 0d6f D5040000 		.4byte	.LLST47
 3388 0d73 2B       		.uleb128 0x2b
 3389 0d74 7100     		.ascii	"q\000"
 3390 0d76 01       		.byte	0x1
 3391 0d77 B6       		.byte	0xb6
 3392 0d78 DC0C0000 		.4byte	0xcdc
 3393 0d7c E8040000 		.4byte	.LLST48
 3394 0d80 00       		.byte	0x0
 3395 0d81 31       		.uleb128 0x31
 3396 0d82 01       		.byte	0x1
 3397 0d83 A3040000 		.4byte	.LASF141
 3398 0d87 01       		.byte	0x1
 3399 0d88 23       		.byte	0x23
 3400 0d89 01       		.byte	0x1
 3401 0d8a 00000000 		.4byte	.LFB62
 3402 0d8e 32000000 		.4byte	.LFE62
 3403 0d92 FB040000 		.4byte	.LLST49
 3404 0d96 32       		.uleb128 0x32
 3405 0d97 01       		.byte	0x1
 3406 0d98 DE020000 		.4byte	.LASF142
 3407 0d9c 01       		.byte	0x1
 3408 0d9d 2D       		.byte	0x2d
 3409 0d9e 01       		.byte	0x1
 3410 0d9f 00000000 		.4byte	.LFB63
 3411 0da3 C4000000 		.4byte	.LFE63
 3412 0da7 1B050000 		.4byte	.LLST50
 3413 0dab 6B0E0000 		.4byte	0xe6b
 3414 0daf 33       		.uleb128 0x33
 3415 0db0 6A050000 		.4byte	.LASF132
 3416 0db4 01       		.byte	0x1
 3417 0db5 2F       		.byte	0x2f
 3418 0db6 49000000 		.4byte	0x49
 3419 0dba 05       		.byte	0x5
 3420 0dbb 03       		.byte	0x3
 3421 0dbc 00000000 		.4byte	slash.3688
 3422 0dc0 33       		.uleb128 0x33
 3423 0dc1 9E000000 		.4byte	.LASF133
 3424 0dc5 01       		.byte	0x1
 3425 0dc6 30       		.byte	0x30
 3426 0dc7 29000000 		.4byte	0x29
 3427 0dcb 05       		.byte	0x5
 3428 0dcc 03       		.byte	0x3
 3429 0dcd 00000000 		.4byte	out_index.3689
 3430 0dd1 2B       		.uleb128 0x2b
ARM GAS  C:\Users\z80\AppData\Local\Temp\ccA8oroC.s 			page 62


 3431 0dd2 6D736700 		.ascii	"msg\000"
 3432 0dd6 01       		.byte	0x1
 3433 0dd7 3B       		.byte	0x3b
 3434 0dd8 E8000000 		.4byte	0xe8
 3435 0ddc 3B050000 		.4byte	.LLST51
 3436 0de0 2D       		.uleb128 0x2d
 3437 0de1 F8010000 		.4byte	.LASF128
 3438 0de5 01       		.byte	0x1
 3439 0de6 3D       		.byte	0x3d
 3440 0de7 49000000 		.4byte	0x49
 3441 0deb 5B050000 		.4byte	.LLST52
 3442 0def 30       		.uleb128 0x30
 3443 0df0 30000000 		.4byte	.Ldebug_ranges0+0x30
 3444 0df4 2B       		.uleb128 0x2b
 3445 0df5 7600     		.ascii	"v\000"
 3446 0df7 01       		.byte	0x1
 3447 0df8 40       		.byte	0x40
 3448 0df9 49000000 		.4byte	0x49
 3449 0dfd 95050000 		.4byte	.LLST53
 3450 0e01 34       		.uleb128 0x34
 3451 0e02 39090000 		.4byte	0x939
 3452 0e06 1C000000 		.4byte	.LBB17
 3453 0e0a 48000000 		.4byte	.Ldebug_ranges0+0x48
 3454 0e0e 01       		.byte	0x1
 3455 0e0f 47       		.byte	0x47
 3456 0e10 35       		.uleb128 0x35
 3457 0e11 51090000 		.4byte	0x951
 3458 0e15 BE050000 		.4byte	.LLST54
 3459 0e19 35       		.uleb128 0x35
 3460 0e1a 46090000 		.4byte	0x946
 3461 0e1e 09060000 		.4byte	.LLST55
 3462 0e22 30       		.uleb128 0x30
 3463 0e23 78000000 		.4byte	.Ldebug_ranges0+0x78
 3464 0e27 36       		.uleb128 0x36
 3465 0e28 5B090000 		.4byte	0x95b
 3466 0e2c 41060000 		.4byte	.LLST56
 3467 0e30 36       		.uleb128 0x36
 3468 0e31 64090000 		.4byte	0x964
 3469 0e35 55060000 		.4byte	.LLST57
 3470 0e39 36       		.uleb128 0x36
 3471 0e3a 6F090000 		.4byte	0x96f
 3472 0e3e 8A060000 		.4byte	.LLST58
 3473 0e42 34       		.uleb128 0x34
 3474 0e43 15090000 		.4byte	0x915
 3475 0e47 2C000000 		.4byte	.LBB22
 3476 0e4b A8000000 		.4byte	.Ldebug_ranges0+0xa8
 3477 0e4f 01       		.byte	0x1
 3478 0e50 6F       		.byte	0x6f
 3479 0e51 30       		.uleb128 0x30
 3480 0e52 C8000000 		.4byte	.Ldebug_ranges0+0xc8
 3481 0e56 36       		.uleb128 0x36
 3482 0e57 22090000 		.4byte	0x922
 3483 0e5b C2060000 		.4byte	.LLST59
 3484 0e5f 37       		.uleb128 0x37
 3485 0e60 2D090000 		.4byte	0x92d
 3486 0e64 0E       		.byte	0xe
 3487 0e65 00       		.byte	0x0
ARM GAS  C:\Users\z80\AppData\Local\Temp\ccA8oroC.s 			page 63


 3488 0e66 00       		.byte	0x0
 3489 0e67 00       		.byte	0x0
 3490 0e68 00       		.byte	0x0
 3491 0e69 00       		.byte	0x0
 3492 0e6a 00       		.byte	0x0
 3493 0e6b 38       		.uleb128 0x38
 3494 0e6c 01       		.byte	0x1
 3495 0e6d 7F000000 		.4byte	.LASF143
 3496 0e71 01       		.byte	0x1
 3497 0e72 5A       		.byte	0x5a
 3498 0e73 01       		.byte	0x1
 3499 0e74 F0040000 		.4byte	0x4f0
 3500 0e78 00000000 		.4byte	.LFB64
 3501 0e7c 0A000000 		.4byte	.LFE64
 3502 0e80 02       		.byte	0x2
 3503 0e81 7D       		.byte	0x7d
 3504 0e82 00       		.sleb128 0
 3505 0e83 39       		.uleb128 0x39
 3506 0e84 A8000000 		.4byte	.LASF134
 3507 0e88 10       		.byte	0x10
 3508 0e89 9404     		.2byte	0x494
 3509 0e8b 36060000 		.4byte	0x636
 3510 0e8f 01       		.byte	0x1
 3511 0e90 01       		.byte	0x1
 3512 0e91 3A       		.uleb128 0x3a
 3513 0e92 53443100 		.ascii	"SD1\000"
 3514 0e96 11       		.byte	0x11
 3515 0e97 FB       		.byte	0xfb
 3516 0e98 D1070000 		.4byte	0x7d1
 3517 0e9c 01       		.byte	0x1
 3518 0e9d 01       		.byte	0x1
 3519 0e9e 1B       		.uleb128 0x1b
 3520 0e9f 49000000 		.4byte	0x49
 3521 0ea3 AE0E0000 		.4byte	0xeae
 3522 0ea7 28       		.uleb128 0x28
 3523 0ea8 42030000 		.4byte	0x342
 3524 0eac 1F       		.byte	0x1f
 3525 0ead 00       		.byte	0x0
 3526 0eae 33       		.uleb128 0x33
 3527 0eaf CB040000 		.4byte	.LASF135
 3528 0eb3 01       		.byte	0x1
 3529 0eb4 18       		.byte	0x18
 3530 0eb5 9E0E0000 		.4byte	0xe9e
 3531 0eb9 05       		.byte	0x5
 3532 0eba 03       		.byte	0x3
 3533 0ebb 00000000 		.4byte	buffer
 3534 0ebf 33       		.uleb128 0x33
 3535 0ec0 7E050000 		.4byte	.LASF114
 3536 0ec4 01       		.byte	0x1
 3537 0ec5 19       		.byte	0x19
 3538 0ec6 9E0E0000 		.4byte	0xe9e
 3539 0eca 05       		.byte	0x5
 3540 0ecb 03       		.byte	0x3
 3541 0ecc 00000000 		.4byte	args
 3542 0ed0 1B       		.uleb128 0x1b
 3543 0ed1 14060000 		.4byte	0x614
 3544 0ed5 E00E0000 		.4byte	0xee0
ARM GAS  C:\Users\z80\AppData\Local\Temp\ccA8oroC.s 			page 64


 3545 0ed9 28       		.uleb128 0x28
 3546 0eda 42030000 		.4byte	0x342
 3547 0ede 0D       		.byte	0xd
 3548 0edf 00       		.byte	0x0
 3549 0ee0 33       		.uleb128 0x33
 3550 0ee1 20000000 		.4byte	.LASF136
 3551 0ee5 01       		.byte	0x1
 3552 0ee6 83       		.byte	0x83
 3553 0ee7 F10E0000 		.4byte	0xef1
 3554 0eeb 05       		.byte	0x5
 3555 0eec 03       		.byte	0x3
 3556 0eed 00000000 		.4byte	funcs
 3557 0ef1 11       		.uleb128 0x11
 3558 0ef2 D00E0000 		.4byte	0xed0
 3559 0ef6 39       		.uleb128 0x39
 3560 0ef7 A8000000 		.4byte	.LASF134
 3561 0efb 10       		.byte	0x10
 3562 0efc 9404     		.2byte	0x494
 3563 0efe 36060000 		.4byte	0x636
 3564 0f02 01       		.byte	0x1
 3565 0f03 01       		.byte	0x1
 3566 0f04 3A       		.uleb128 0x3a
 3567 0f05 53443100 		.ascii	"SD1\000"
 3568 0f09 11       		.byte	0x11
 3569 0f0a FB       		.byte	0xfb
 3570 0f0b D1070000 		.4byte	0x7d1
 3571 0f0f 01       		.byte	0x1
 3572 0f10 01       		.byte	0x1
 3573 0f11 00       		.byte	0x0
 3574              		.section	.debug_abbrev
 3575 0000 01       		.uleb128 0x1
 3576 0001 11       		.uleb128 0x11
 3577 0002 01       		.byte	0x1
 3578 0003 25       		.uleb128 0x25
 3579 0004 0E       		.uleb128 0xe
 3580 0005 13       		.uleb128 0x13
 3581 0006 0B       		.uleb128 0xb
 3582 0007 03       		.uleb128 0x3
 3583 0008 0E       		.uleb128 0xe
 3584 0009 1B       		.uleb128 0x1b
 3585 000a 0E       		.uleb128 0xe
 3586 000b 11       		.uleb128 0x11
 3587 000c 01       		.uleb128 0x1
 3588 000d 52       		.uleb128 0x52
 3589 000e 01       		.uleb128 0x1
 3590 000f 55       		.uleb128 0x55
 3591 0010 06       		.uleb128 0x6
 3592 0011 10       		.uleb128 0x10
 3593 0012 06       		.uleb128 0x6
 3594 0013 00       		.byte	0x0
 3595 0014 00       		.byte	0x0
 3596 0015 02       		.uleb128 0x2
 3597 0016 24       		.uleb128 0x24
 3598 0017 00       		.byte	0x0
 3599 0018 0B       		.uleb128 0xb
 3600 0019 0B       		.uleb128 0xb
 3601 001a 3E       		.uleb128 0x3e
ARM GAS  C:\Users\z80\AppData\Local\Temp\ccA8oroC.s 			page 65


 3602 001b 0B       		.uleb128 0xb
 3603 001c 03       		.uleb128 0x3
 3604 001d 08       		.uleb128 0x8
 3605 001e 00       		.byte	0x0
 3606 001f 00       		.byte	0x0
 3607 0020 03       		.uleb128 0x3
 3608 0021 16       		.uleb128 0x16
 3609 0022 00       		.byte	0x0
 3610 0023 03       		.uleb128 0x3
 3611 0024 0E       		.uleb128 0xe
 3612 0025 3A       		.uleb128 0x3a
 3613 0026 0B       		.uleb128 0xb
 3614 0027 3B       		.uleb128 0x3b
 3615 0028 0B       		.uleb128 0xb
 3616 0029 49       		.uleb128 0x49
 3617 002a 13       		.uleb128 0x13
 3618 002b 00       		.byte	0x0
 3619 002c 00       		.byte	0x0
 3620 002d 04       		.uleb128 0x4
 3621 002e 24       		.uleb128 0x24
 3622 002f 00       		.byte	0x0
 3623 0030 0B       		.uleb128 0xb
 3624 0031 0B       		.uleb128 0xb
 3625 0032 3E       		.uleb128 0x3e
 3626 0033 0B       		.uleb128 0xb
 3627 0034 03       		.uleb128 0x3
 3628 0035 0E       		.uleb128 0xe
 3629 0036 00       		.byte	0x0
 3630 0037 00       		.byte	0x0
 3631 0038 05       		.uleb128 0x5
 3632 0039 13       		.uleb128 0x13
 3633 003a 01       		.byte	0x1
 3634 003b 03       		.uleb128 0x3
 3635 003c 0E       		.uleb128 0xe
 3636 003d 0B       		.uleb128 0xb
 3637 003e 0B       		.uleb128 0xb
 3638 003f 3A       		.uleb128 0x3a
 3639 0040 0B       		.uleb128 0xb
 3640 0041 3B       		.uleb128 0x3b
 3641 0042 0B       		.uleb128 0xb
 3642 0043 01       		.uleb128 0x1
 3643 0044 13       		.uleb128 0x13
 3644 0045 00       		.byte	0x0
 3645 0046 00       		.byte	0x0
 3646 0047 06       		.uleb128 0x6
 3647 0048 0D       		.uleb128 0xd
 3648 0049 00       		.byte	0x0
 3649 004a 03       		.uleb128 0x3
 3650 004b 0E       		.uleb128 0xe
 3651 004c 3A       		.uleb128 0x3a
 3652 004d 0B       		.uleb128 0xb
 3653 004e 3B       		.uleb128 0x3b
 3654 004f 0B       		.uleb128 0xb
 3655 0050 49       		.uleb128 0x49
 3656 0051 13       		.uleb128 0x13
 3657 0052 38       		.uleb128 0x38
 3658 0053 0A       		.uleb128 0xa
ARM GAS  C:\Users\z80\AppData\Local\Temp\ccA8oroC.s 			page 66


 3659 0054 00       		.byte	0x0
 3660 0055 00       		.byte	0x0
 3661 0056 07       		.uleb128 0x7
 3662 0057 0D       		.uleb128 0xd
 3663 0058 00       		.byte	0x0
 3664 0059 03       		.uleb128 0x3
 3665 005a 08       		.uleb128 0x8
 3666 005b 3A       		.uleb128 0x3a
 3667 005c 0B       		.uleb128 0xb
 3668 005d 3B       		.uleb128 0x3b
 3669 005e 0B       		.uleb128 0xb
 3670 005f 49       		.uleb128 0x49
 3671 0060 13       		.uleb128 0x13
 3672 0061 38       		.uleb128 0x38
 3673 0062 0A       		.uleb128 0xa
 3674 0063 00       		.byte	0x0
 3675 0064 00       		.byte	0x0
 3676 0065 08       		.uleb128 0x8
 3677 0066 13       		.uleb128 0x13
 3678 0067 01       		.byte	0x1
 3679 0068 0B       		.uleb128 0xb
 3680 0069 0B       		.uleb128 0xb
 3681 006a 3A       		.uleb128 0x3a
 3682 006b 0B       		.uleb128 0xb
 3683 006c 3B       		.uleb128 0x3b
 3684 006d 0B       		.uleb128 0xb
 3685 006e 01       		.uleb128 0x1
 3686 006f 13       		.uleb128 0x13
 3687 0070 00       		.byte	0x0
 3688 0071 00       		.byte	0x0
 3689 0072 09       		.uleb128 0x9
 3690 0073 0F       		.uleb128 0xf
 3691 0074 00       		.byte	0x0
 3692 0075 0B       		.uleb128 0xb
 3693 0076 0B       		.uleb128 0xb
 3694 0077 49       		.uleb128 0x49
 3695 0078 13       		.uleb128 0x13
 3696 0079 00       		.byte	0x0
 3697 007a 00       		.byte	0x0
 3698 007b 0A       		.uleb128 0xa
 3699 007c 0F       		.uleb128 0xf
 3700 007d 00       		.byte	0x0
 3701 007e 0B       		.uleb128 0xb
 3702 007f 0B       		.uleb128 0xb
 3703 0080 00       		.byte	0x0
 3704 0081 00       		.byte	0x0
 3705 0082 0B       		.uleb128 0xb
 3706 0083 0D       		.uleb128 0xd
 3707 0084 00       		.byte	0x0
 3708 0085 03       		.uleb128 0x3
 3709 0086 08       		.uleb128 0x8
 3710 0087 3A       		.uleb128 0x3a
 3711 0088 0B       		.uleb128 0xb
 3712 0089 3B       		.uleb128 0x3b
 3713 008a 05       		.uleb128 0x5
 3714 008b 49       		.uleb128 0x49
 3715 008c 13       		.uleb128 0x13
ARM GAS  C:\Users\z80\AppData\Local\Temp\ccA8oroC.s 			page 67


 3716 008d 38       		.uleb128 0x38
 3717 008e 0A       		.uleb128 0xa
 3718 008f 00       		.byte	0x0
 3719 0090 00       		.byte	0x0
 3720 0091 0C       		.uleb128 0xc
 3721 0092 13       		.uleb128 0x13
 3722 0093 01       		.byte	0x1
 3723 0094 03       		.uleb128 0x3
 3724 0095 0E       		.uleb128 0xe
 3725 0096 0B       		.uleb128 0xb
 3726 0097 0B       		.uleb128 0xb
 3727 0098 3A       		.uleb128 0x3a
 3728 0099 0B       		.uleb128 0xb
 3729 009a 3B       		.uleb128 0x3b
 3730 009b 05       		.uleb128 0x5
 3731 009c 01       		.uleb128 0x1
 3732 009d 13       		.uleb128 0x13
 3733 009e 00       		.byte	0x0
 3734 009f 00       		.byte	0x0
 3735 00a0 0D       		.uleb128 0xd
 3736 00a1 35       		.uleb128 0x35
 3737 00a2 00       		.byte	0x0
 3738 00a3 49       		.uleb128 0x49
 3739 00a4 13       		.uleb128 0x13
 3740 00a5 00       		.byte	0x0
 3741 00a6 00       		.byte	0x0
 3742 00a7 0E       		.uleb128 0xe
 3743 00a8 24       		.uleb128 0x24
 3744 00a9 00       		.byte	0x0
 3745 00aa 0B       		.uleb128 0xb
 3746 00ab 0B       		.uleb128 0xb
 3747 00ac 3E       		.uleb128 0x3e
 3748 00ad 0B       		.uleb128 0xb
 3749 00ae 00       		.byte	0x0
 3750 00af 00       		.byte	0x0
 3751 00b0 0F       		.uleb128 0xf
 3752 00b1 17       		.uleb128 0x17
 3753 00b2 01       		.byte	0x1
 3754 00b3 0B       		.uleb128 0xb
 3755 00b4 0B       		.uleb128 0xb
 3756 00b5 3A       		.uleb128 0x3a
 3757 00b6 0B       		.uleb128 0xb
 3758 00b7 3B       		.uleb128 0x3b
 3759 00b8 0B       		.uleb128 0xb
 3760 00b9 01       		.uleb128 0x1
 3761 00ba 13       		.uleb128 0x13
 3762 00bb 00       		.byte	0x0
 3763 00bc 00       		.byte	0x0
 3764 00bd 10       		.uleb128 0x10
 3765 00be 0D       		.uleb128 0xd
 3766 00bf 00       		.byte	0x0
 3767 00c0 03       		.uleb128 0x3
 3768 00c1 0E       		.uleb128 0xe
 3769 00c2 3A       		.uleb128 0x3a
 3770 00c3 0B       		.uleb128 0xb
 3771 00c4 3B       		.uleb128 0x3b
 3772 00c5 0B       		.uleb128 0xb
ARM GAS  C:\Users\z80\AppData\Local\Temp\ccA8oroC.s 			page 68


 3773 00c6 49       		.uleb128 0x49
 3774 00c7 13       		.uleb128 0x13
 3775 00c8 00       		.byte	0x0
 3776 00c9 00       		.byte	0x0
 3777 00ca 11       		.uleb128 0x11
 3778 00cb 26       		.uleb128 0x26
 3779 00cc 00       		.byte	0x0
 3780 00cd 49       		.uleb128 0x49
 3781 00ce 13       		.uleb128 0x13
 3782 00cf 00       		.byte	0x0
 3783 00d0 00       		.byte	0x0
 3784 00d1 12       		.uleb128 0x12
 3785 00d2 15       		.uleb128 0x15
 3786 00d3 01       		.byte	0x1
 3787 00d4 27       		.uleb128 0x27
 3788 00d5 0C       		.uleb128 0xc
 3789 00d6 01       		.uleb128 0x1
 3790 00d7 13       		.uleb128 0x13
 3791 00d8 00       		.byte	0x0
 3792 00d9 00       		.byte	0x0
 3793 00da 13       		.uleb128 0x13
 3794 00db 05       		.uleb128 0x5
 3795 00dc 00       		.byte	0x0
 3796 00dd 49       		.uleb128 0x49
 3797 00de 13       		.uleb128 0x13
 3798 00df 00       		.byte	0x0
 3799 00e0 00       		.byte	0x0
 3800 00e1 14       		.uleb128 0x14
 3801 00e2 15       		.uleb128 0x15
 3802 00e3 01       		.byte	0x1
 3803 00e4 27       		.uleb128 0x27
 3804 00e5 0C       		.uleb128 0xc
 3805 00e6 49       		.uleb128 0x49
 3806 00e7 13       		.uleb128 0x13
 3807 00e8 01       		.uleb128 0x1
 3808 00e9 13       		.uleb128 0x13
 3809 00ea 00       		.byte	0x0
 3810 00eb 00       		.byte	0x0
 3811 00ec 15       		.uleb128 0x15
 3812 00ed 16       		.uleb128 0x16
 3813 00ee 00       		.byte	0x0
 3814 00ef 03       		.uleb128 0x3
 3815 00f0 0E       		.uleb128 0xe
 3816 00f1 3A       		.uleb128 0x3a
 3817 00f2 0B       		.uleb128 0xb
 3818 00f3 3B       		.uleb128 0x3b
 3819 00f4 05       		.uleb128 0x5
 3820 00f5 49       		.uleb128 0x49
 3821 00f6 13       		.uleb128 0x13
 3822 00f7 00       		.byte	0x0
 3823 00f8 00       		.byte	0x0
 3824 00f9 16       		.uleb128 0x16
 3825 00fa 13       		.uleb128 0x13
 3826 00fb 01       		.byte	0x1
 3827 00fc 0B       		.uleb128 0xb
 3828 00fd 0B       		.uleb128 0xb
 3829 00fe 3A       		.uleb128 0x3a
ARM GAS  C:\Users\z80\AppData\Local\Temp\ccA8oroC.s 			page 69


 3830 00ff 0B       		.uleb128 0xb
 3831 0100 3B       		.uleb128 0x3b
 3832 0101 05       		.uleb128 0x5
 3833 0102 01       		.uleb128 0x1
 3834 0103 13       		.uleb128 0x13
 3835 0104 00       		.byte	0x0
 3836 0105 00       		.byte	0x0
 3837 0106 17       		.uleb128 0x17
 3838 0107 0D       		.uleb128 0xd
 3839 0108 00       		.byte	0x0
 3840 0109 03       		.uleb128 0x3
 3841 010a 0E       		.uleb128 0xe
 3842 010b 3A       		.uleb128 0x3a
 3843 010c 0B       		.uleb128 0xb
 3844 010d 3B       		.uleb128 0x3b
 3845 010e 05       		.uleb128 0x5
 3846 010f 49       		.uleb128 0x49
 3847 0110 13       		.uleb128 0x13
 3848 0111 38       		.uleb128 0x38
 3849 0112 0A       		.uleb128 0xa
 3850 0113 00       		.byte	0x0
 3851 0114 00       		.byte	0x0
 3852 0115 18       		.uleb128 0x18
 3853 0116 04       		.uleb128 0x4
 3854 0117 01       		.byte	0x1
 3855 0118 0B       		.uleb128 0xb
 3856 0119 0B       		.uleb128 0xb
 3857 011a 3A       		.uleb128 0x3a
 3858 011b 0B       		.uleb128 0xb
 3859 011c 3B       		.uleb128 0x3b
 3860 011d 0B       		.uleb128 0xb
 3861 011e 01       		.uleb128 0x1
 3862 011f 13       		.uleb128 0x13
 3863 0120 00       		.byte	0x0
 3864 0121 00       		.byte	0x0
 3865 0122 19       		.uleb128 0x19
 3866 0123 28       		.uleb128 0x28
 3867 0124 00       		.byte	0x0
 3868 0125 03       		.uleb128 0x3
 3869 0126 0E       		.uleb128 0xe
 3870 0127 1C       		.uleb128 0x1c
 3871 0128 0D       		.uleb128 0xd
 3872 0129 00       		.byte	0x0
 3873 012a 00       		.byte	0x0
 3874 012b 1A       		.uleb128 0x1a
 3875 012c 13       		.uleb128 0x13
 3876 012d 01       		.byte	0x1
 3877 012e 03       		.uleb128 0x3
 3878 012f 0E       		.uleb128 0xe
 3879 0130 0B       		.uleb128 0xb
 3880 0131 05       		.uleb128 0x5
 3881 0132 3A       		.uleb128 0x3a
 3882 0133 0B       		.uleb128 0xb
 3883 0134 3B       		.uleb128 0x3b
 3884 0135 0B       		.uleb128 0xb
 3885 0136 01       		.uleb128 0x1
 3886 0137 13       		.uleb128 0x13
ARM GAS  C:\Users\z80\AppData\Local\Temp\ccA8oroC.s 			page 70


 3887 0138 00       		.byte	0x0
 3888 0139 00       		.byte	0x0
 3889 013a 1B       		.uleb128 0x1b
 3890 013b 01       		.uleb128 0x1
 3891 013c 01       		.byte	0x1
 3892 013d 49       		.uleb128 0x49
 3893 013e 13       		.uleb128 0x13
 3894 013f 01       		.uleb128 0x1
 3895 0140 13       		.uleb128 0x13
 3896 0141 00       		.byte	0x0
 3897 0142 00       		.byte	0x0
 3898 0143 1C       		.uleb128 0x1c
 3899 0144 21       		.uleb128 0x21
 3900 0145 00       		.byte	0x0
 3901 0146 49       		.uleb128 0x49
 3902 0147 13       		.uleb128 0x13
 3903 0148 2F       		.uleb128 0x2f
 3904 0149 05       		.uleb128 0x5
 3905 014a 00       		.byte	0x0
 3906 014b 00       		.byte	0x0
 3907 014c 1D       		.uleb128 0x1d
 3908 014d 2E       		.uleb128 0x2e
 3909 014e 01       		.byte	0x1
 3910 014f 03       		.uleb128 0x3
 3911 0150 0E       		.uleb128 0xe
 3912 0151 3A       		.uleb128 0x3a
 3913 0152 0B       		.uleb128 0xb
 3914 0153 3B       		.uleb128 0x3b
 3915 0154 0B       		.uleb128 0xb
 3916 0155 27       		.uleb128 0x27
 3917 0156 0C       		.uleb128 0xc
 3918 0157 20       		.uleb128 0x20
 3919 0158 0B       		.uleb128 0xb
 3920 0159 01       		.uleb128 0x1
 3921 015a 13       		.uleb128 0x13
 3922 015b 00       		.byte	0x0
 3923 015c 00       		.byte	0x0
 3924 015d 1E       		.uleb128 0x1e
 3925 015e 34       		.uleb128 0x34
 3926 015f 00       		.byte	0x0
 3927 0160 03       		.uleb128 0x3
 3928 0161 0E       		.uleb128 0xe
 3929 0162 3A       		.uleb128 0x3a
 3930 0163 0B       		.uleb128 0xb
 3931 0164 3B       		.uleb128 0x3b
 3932 0165 0B       		.uleb128 0xb
 3933 0166 49       		.uleb128 0x49
 3934 0167 13       		.uleb128 0x13
 3935 0168 00       		.byte	0x0
 3936 0169 00       		.byte	0x0
 3937 016a 1F       		.uleb128 0x1f
 3938 016b 05       		.uleb128 0x5
 3939 016c 00       		.byte	0x0
 3940 016d 03       		.uleb128 0x3
 3941 016e 08       		.uleb128 0x8
 3942 016f 3A       		.uleb128 0x3a
 3943 0170 0B       		.uleb128 0xb
ARM GAS  C:\Users\z80\AppData\Local\Temp\ccA8oroC.s 			page 71


 3944 0171 3B       		.uleb128 0x3b
 3945 0172 0B       		.uleb128 0xb
 3946 0173 49       		.uleb128 0x49
 3947 0174 13       		.uleb128 0x13
 3948 0175 00       		.byte	0x0
 3949 0176 00       		.byte	0x0
 3950 0177 20       		.uleb128 0x20
 3951 0178 34       		.uleb128 0x34
 3952 0179 00       		.byte	0x0
 3953 017a 03       		.uleb128 0x3
 3954 017b 08       		.uleb128 0x8
 3955 017c 3A       		.uleb128 0x3a
 3956 017d 0B       		.uleb128 0xb
 3957 017e 3B       		.uleb128 0x3b
 3958 017f 0B       		.uleb128 0xb
 3959 0180 49       		.uleb128 0x49
 3960 0181 13       		.uleb128 0x13
 3961 0182 00       		.byte	0x0
 3962 0183 00       		.byte	0x0
 3963 0184 21       		.uleb128 0x21
 3964 0185 2E       		.uleb128 0x2e
 3965 0186 01       		.byte	0x1
 3966 0187 03       		.uleb128 0x3
 3967 0188 0E       		.uleb128 0xe
 3968 0189 3A       		.uleb128 0x3a
 3969 018a 0B       		.uleb128 0xb
 3970 018b 3B       		.uleb128 0x3b
 3971 018c 05       		.uleb128 0x5
 3972 018d 27       		.uleb128 0x27
 3973 018e 0C       		.uleb128 0xc
 3974 018f 11       		.uleb128 0x11
 3975 0190 01       		.uleb128 0x1
 3976 0191 12       		.uleb128 0x12
 3977 0192 01       		.uleb128 0x1
 3978 0193 40       		.uleb128 0x40
 3979 0194 06       		.uleb128 0x6
 3980 0195 01       		.uleb128 0x1
 3981 0196 13       		.uleb128 0x13
 3982 0197 00       		.byte	0x0
 3983 0198 00       		.byte	0x0
 3984 0199 22       		.uleb128 0x22
 3985 019a 05       		.uleb128 0x5
 3986 019b 00       		.byte	0x0
 3987 019c 03       		.uleb128 0x3
 3988 019d 0E       		.uleb128 0xe
 3989 019e 3A       		.uleb128 0x3a
 3990 019f 0B       		.uleb128 0xb
 3991 01a0 3B       		.uleb128 0x3b
 3992 01a1 05       		.uleb128 0x5
 3993 01a2 49       		.uleb128 0x49
 3994 01a3 13       		.uleb128 0x13
 3995 01a4 02       		.uleb128 0x2
 3996 01a5 06       		.uleb128 0x6
 3997 01a6 00       		.byte	0x0
 3998 01a7 00       		.byte	0x0
 3999 01a8 23       		.uleb128 0x23
 4000 01a9 05       		.uleb128 0x5
ARM GAS  C:\Users\z80\AppData\Local\Temp\ccA8oroC.s 			page 72


 4001 01aa 00       		.byte	0x0
 4002 01ab 03       		.uleb128 0x3
 4003 01ac 08       		.uleb128 0x8
 4004 01ad 3A       		.uleb128 0x3a
 4005 01ae 0B       		.uleb128 0xb
 4006 01af 3B       		.uleb128 0x3b
 4007 01b0 05       		.uleb128 0x5
 4008 01b1 49       		.uleb128 0x49
 4009 01b2 13       		.uleb128 0x13
 4010 01b3 02       		.uleb128 0x2
 4011 01b4 06       		.uleb128 0x6
 4012 01b5 00       		.byte	0x0
 4013 01b6 00       		.byte	0x0
 4014 01b7 24       		.uleb128 0x24
 4015 01b8 2E       		.uleb128 0x2e
 4016 01b9 00       		.byte	0x0
 4017 01ba 03       		.uleb128 0x3
 4018 01bb 0E       		.uleb128 0xe
 4019 01bc 3A       		.uleb128 0x3a
 4020 01bd 0B       		.uleb128 0xb
 4021 01be 3B       		.uleb128 0x3b
 4022 01bf 05       		.uleb128 0x5
 4023 01c0 27       		.uleb128 0x27
 4024 01c1 0C       		.uleb128 0xc
 4025 01c2 11       		.uleb128 0x11
 4026 01c3 01       		.uleb128 0x1
 4027 01c4 12       		.uleb128 0x12
 4028 01c5 01       		.uleb128 0x1
 4029 01c6 40       		.uleb128 0x40
 4030 01c7 06       		.uleb128 0x6
 4031 01c8 00       		.byte	0x0
 4032 01c9 00       		.byte	0x0
 4033 01ca 25       		.uleb128 0x25
 4034 01cb 34       		.uleb128 0x34
 4035 01cc 00       		.byte	0x0
 4036 01cd 03       		.uleb128 0x3
 4037 01ce 0E       		.uleb128 0xe
 4038 01cf 3A       		.uleb128 0x3a
 4039 01d0 0B       		.uleb128 0xb
 4040 01d1 3B       		.uleb128 0x3b
 4041 01d2 05       		.uleb128 0x5
 4042 01d3 49       		.uleb128 0x49
 4043 01d4 13       		.uleb128 0x13
 4044 01d5 02       		.uleb128 0x2
 4045 01d6 0A       		.uleb128 0xa
 4046 01d7 00       		.byte	0x0
 4047 01d8 00       		.byte	0x0
 4048 01d9 26       		.uleb128 0x26
 4049 01da 34       		.uleb128 0x34
 4050 01db 00       		.byte	0x0
 4051 01dc 03       		.uleb128 0x3
 4052 01dd 08       		.uleb128 0x8
 4053 01de 3A       		.uleb128 0x3a
 4054 01df 0B       		.uleb128 0xb
 4055 01e0 3B       		.uleb128 0x3b
 4056 01e1 05       		.uleb128 0x5
 4057 01e2 49       		.uleb128 0x49
ARM GAS  C:\Users\z80\AppData\Local\Temp\ccA8oroC.s 			page 73


 4058 01e3 13       		.uleb128 0x13
 4059 01e4 1C       		.uleb128 0x1c
 4060 01e5 0B       		.uleb128 0xb
 4061 01e6 00       		.byte	0x0
 4062 01e7 00       		.byte	0x0
 4063 01e8 27       		.uleb128 0x27
 4064 01e9 34       		.uleb128 0x34
 4065 01ea 00       		.byte	0x0
 4066 01eb 03       		.uleb128 0x3
 4067 01ec 08       		.uleb128 0x8
 4068 01ed 3A       		.uleb128 0x3a
 4069 01ee 0B       		.uleb128 0xb
 4070 01ef 3B       		.uleb128 0x3b
 4071 01f0 05       		.uleb128 0x5
 4072 01f1 49       		.uleb128 0x49
 4073 01f2 13       		.uleb128 0x13
 4074 01f3 02       		.uleb128 0x2
 4075 01f4 06       		.uleb128 0x6
 4076 01f5 00       		.byte	0x0
 4077 01f6 00       		.byte	0x0
 4078 01f7 28       		.uleb128 0x28
 4079 01f8 21       		.uleb128 0x21
 4080 01f9 00       		.byte	0x0
 4081 01fa 49       		.uleb128 0x49
 4082 01fb 13       		.uleb128 0x13
 4083 01fc 2F       		.uleb128 0x2f
 4084 01fd 0B       		.uleb128 0xb
 4085 01fe 00       		.byte	0x0
 4086 01ff 00       		.byte	0x0
 4087 0200 29       		.uleb128 0x29
 4088 0201 2E       		.uleb128 0x2e
 4089 0202 01       		.byte	0x1
 4090 0203 03       		.uleb128 0x3
 4091 0204 0E       		.uleb128 0xe
 4092 0205 3A       		.uleb128 0x3a
 4093 0206 0B       		.uleb128 0xb
 4094 0207 3B       		.uleb128 0x3b
 4095 0208 0B       		.uleb128 0xb
 4096 0209 27       		.uleb128 0x27
 4097 020a 0C       		.uleb128 0xc
 4098 020b 11       		.uleb128 0x11
 4099 020c 01       		.uleb128 0x1
 4100 020d 12       		.uleb128 0x12
 4101 020e 01       		.uleb128 0x1
 4102 020f 40       		.uleb128 0x40
 4103 0210 06       		.uleb128 0x6
 4104 0211 01       		.uleb128 0x1
 4105 0212 13       		.uleb128 0x13
 4106 0213 00       		.byte	0x0
 4107 0214 00       		.byte	0x0
 4108 0215 2A       		.uleb128 0x2a
 4109 0216 05       		.uleb128 0x5
 4110 0217 00       		.byte	0x0
 4111 0218 03       		.uleb128 0x3
 4112 0219 0E       		.uleb128 0xe
 4113 021a 3A       		.uleb128 0x3a
 4114 021b 0B       		.uleb128 0xb
ARM GAS  C:\Users\z80\AppData\Local\Temp\ccA8oroC.s 			page 74


 4115 021c 3B       		.uleb128 0x3b
 4116 021d 0B       		.uleb128 0xb
 4117 021e 49       		.uleb128 0x49
 4118 021f 13       		.uleb128 0x13
 4119 0220 02       		.uleb128 0x2
 4120 0221 06       		.uleb128 0x6
 4121 0222 00       		.byte	0x0
 4122 0223 00       		.byte	0x0
 4123 0224 2B       		.uleb128 0x2b
 4124 0225 34       		.uleb128 0x34
 4125 0226 00       		.byte	0x0
 4126 0227 03       		.uleb128 0x3
 4127 0228 08       		.uleb128 0x8
 4128 0229 3A       		.uleb128 0x3a
 4129 022a 0B       		.uleb128 0xb
 4130 022b 3B       		.uleb128 0x3b
 4131 022c 0B       		.uleb128 0xb
 4132 022d 49       		.uleb128 0x49
 4133 022e 13       		.uleb128 0x13
 4134 022f 02       		.uleb128 0x2
 4135 0230 06       		.uleb128 0x6
 4136 0231 00       		.byte	0x0
 4137 0232 00       		.byte	0x0
 4138 0233 2C       		.uleb128 0x2c
 4139 0234 05       		.uleb128 0x5
 4140 0235 00       		.byte	0x0
 4141 0236 03       		.uleb128 0x3
 4142 0237 08       		.uleb128 0x8
 4143 0238 3A       		.uleb128 0x3a
 4144 0239 0B       		.uleb128 0xb
 4145 023a 3B       		.uleb128 0x3b
 4146 023b 0B       		.uleb128 0xb
 4147 023c 49       		.uleb128 0x49
 4148 023d 13       		.uleb128 0x13
 4149 023e 02       		.uleb128 0x2
 4150 023f 06       		.uleb128 0x6
 4151 0240 00       		.byte	0x0
 4152 0241 00       		.byte	0x0
 4153 0242 2D       		.uleb128 0x2d
 4154 0243 34       		.uleb128 0x34
 4155 0244 00       		.byte	0x0
 4156 0245 03       		.uleb128 0x3
 4157 0246 0E       		.uleb128 0xe
 4158 0247 3A       		.uleb128 0x3a
 4159 0248 0B       		.uleb128 0xb
 4160 0249 3B       		.uleb128 0x3b
 4161 024a 0B       		.uleb128 0xb
 4162 024b 49       		.uleb128 0x49
 4163 024c 13       		.uleb128 0x13
 4164 024d 02       		.uleb128 0x2
 4165 024e 06       		.uleb128 0x6
 4166 024f 00       		.byte	0x0
 4167 0250 00       		.byte	0x0
 4168 0251 2E       		.uleb128 0x2e
 4169 0252 0B       		.uleb128 0xb
 4170 0253 01       		.byte	0x1
 4171 0254 55       		.uleb128 0x55
ARM GAS  C:\Users\z80\AppData\Local\Temp\ccA8oroC.s 			page 75


 4172 0255 06       		.uleb128 0x6
 4173 0256 01       		.uleb128 0x1
 4174 0257 13       		.uleb128 0x13
 4175 0258 00       		.byte	0x0
 4176 0259 00       		.byte	0x0
 4177 025a 2F       		.uleb128 0x2f
 4178 025b 0B       		.uleb128 0xb
 4179 025c 01       		.byte	0x1
 4180 025d 11       		.uleb128 0x11
 4181 025e 01       		.uleb128 0x1
 4182 025f 12       		.uleb128 0x12
 4183 0260 01       		.uleb128 0x1
 4184 0261 01       		.uleb128 0x1
 4185 0262 13       		.uleb128 0x13
 4186 0263 00       		.byte	0x0
 4187 0264 00       		.byte	0x0
 4188 0265 30       		.uleb128 0x30
 4189 0266 0B       		.uleb128 0xb
 4190 0267 01       		.byte	0x1
 4191 0268 55       		.uleb128 0x55
 4192 0269 06       		.uleb128 0x6
 4193 026a 00       		.byte	0x0
 4194 026b 00       		.byte	0x0
 4195 026c 31       		.uleb128 0x31
 4196 026d 2E       		.uleb128 0x2e
 4197 026e 00       		.byte	0x0
 4198 026f 3F       		.uleb128 0x3f
 4199 0270 0C       		.uleb128 0xc
 4200 0271 03       		.uleb128 0x3
 4201 0272 0E       		.uleb128 0xe
 4202 0273 3A       		.uleb128 0x3a
 4203 0274 0B       		.uleb128 0xb
 4204 0275 3B       		.uleb128 0x3b
 4205 0276 0B       		.uleb128 0xb
 4206 0277 27       		.uleb128 0x27
 4207 0278 0C       		.uleb128 0xc
 4208 0279 11       		.uleb128 0x11
 4209 027a 01       		.uleb128 0x1
 4210 027b 12       		.uleb128 0x12
 4211 027c 01       		.uleb128 0x1
 4212 027d 40       		.uleb128 0x40
 4213 027e 06       		.uleb128 0x6
 4214 027f 00       		.byte	0x0
 4215 0280 00       		.byte	0x0
 4216 0281 32       		.uleb128 0x32
 4217 0282 2E       		.uleb128 0x2e
 4218 0283 01       		.byte	0x1
 4219 0284 3F       		.uleb128 0x3f
 4220 0285 0C       		.uleb128 0xc
 4221 0286 03       		.uleb128 0x3
 4222 0287 0E       		.uleb128 0xe
 4223 0288 3A       		.uleb128 0x3a
 4224 0289 0B       		.uleb128 0xb
 4225 028a 3B       		.uleb128 0x3b
 4226 028b 0B       		.uleb128 0xb
 4227 028c 27       		.uleb128 0x27
 4228 028d 0C       		.uleb128 0xc
ARM GAS  C:\Users\z80\AppData\Local\Temp\ccA8oroC.s 			page 76


 4229 028e 11       		.uleb128 0x11
 4230 028f 01       		.uleb128 0x1
 4231 0290 12       		.uleb128 0x12
 4232 0291 01       		.uleb128 0x1
 4233 0292 40       		.uleb128 0x40
 4234 0293 06       		.uleb128 0x6
 4235 0294 01       		.uleb128 0x1
 4236 0295 13       		.uleb128 0x13
 4237 0296 00       		.byte	0x0
 4238 0297 00       		.byte	0x0
 4239 0298 33       		.uleb128 0x33
 4240 0299 34       		.uleb128 0x34
 4241 029a 00       		.byte	0x0
 4242 029b 03       		.uleb128 0x3
 4243 029c 0E       		.uleb128 0xe
 4244 029d 3A       		.uleb128 0x3a
 4245 029e 0B       		.uleb128 0xb
 4246 029f 3B       		.uleb128 0x3b
 4247 02a0 0B       		.uleb128 0xb
 4248 02a1 49       		.uleb128 0x49
 4249 02a2 13       		.uleb128 0x13
 4250 02a3 02       		.uleb128 0x2
 4251 02a4 0A       		.uleb128 0xa
 4252 02a5 00       		.byte	0x0
 4253 02a6 00       		.byte	0x0
 4254 02a7 34       		.uleb128 0x34
 4255 02a8 1D       		.uleb128 0x1d
 4256 02a9 01       		.byte	0x1
 4257 02aa 31       		.uleb128 0x31
 4258 02ab 13       		.uleb128 0x13
 4259 02ac 52       		.uleb128 0x52
 4260 02ad 01       		.uleb128 0x1
 4261 02ae 55       		.uleb128 0x55
 4262 02af 06       		.uleb128 0x6
 4263 02b0 58       		.uleb128 0x58
 4264 02b1 0B       		.uleb128 0xb
 4265 02b2 59       		.uleb128 0x59
 4266 02b3 0B       		.uleb128 0xb
 4267 02b4 00       		.byte	0x0
 4268 02b5 00       		.byte	0x0
 4269 02b6 35       		.uleb128 0x35
 4270 02b7 05       		.uleb128 0x5
 4271 02b8 00       		.byte	0x0
 4272 02b9 31       		.uleb128 0x31
 4273 02ba 13       		.uleb128 0x13
 4274 02bb 02       		.uleb128 0x2
 4275 02bc 06       		.uleb128 0x6
 4276 02bd 00       		.byte	0x0
 4277 02be 00       		.byte	0x0
 4278 02bf 36       		.uleb128 0x36
 4279 02c0 34       		.uleb128 0x34
 4280 02c1 00       		.byte	0x0
 4281 02c2 31       		.uleb128 0x31
 4282 02c3 13       		.uleb128 0x13
 4283 02c4 02       		.uleb128 0x2
 4284 02c5 06       		.uleb128 0x6
 4285 02c6 00       		.byte	0x0
ARM GAS  C:\Users\z80\AppData\Local\Temp\ccA8oroC.s 			page 77


 4286 02c7 00       		.byte	0x0
 4287 02c8 37       		.uleb128 0x37
 4288 02c9 34       		.uleb128 0x34
 4289 02ca 00       		.byte	0x0
 4290 02cb 31       		.uleb128 0x31
 4291 02cc 13       		.uleb128 0x13
 4292 02cd 1C       		.uleb128 0x1c
 4293 02ce 0B       		.uleb128 0xb
 4294 02cf 00       		.byte	0x0
 4295 02d0 00       		.byte	0x0
 4296 02d1 38       		.uleb128 0x38
 4297 02d2 2E       		.uleb128 0x2e
 4298 02d3 00       		.byte	0x0
 4299 02d4 3F       		.uleb128 0x3f
 4300 02d5 0C       		.uleb128 0xc
 4301 02d6 03       		.uleb128 0x3
 4302 02d7 0E       		.uleb128 0xe
 4303 02d8 3A       		.uleb128 0x3a
 4304 02d9 0B       		.uleb128 0xb
 4305 02da 3B       		.uleb128 0x3b
 4306 02db 0B       		.uleb128 0xb
 4307 02dc 27       		.uleb128 0x27
 4308 02dd 0C       		.uleb128 0xc
 4309 02de 49       		.uleb128 0x49
 4310 02df 13       		.uleb128 0x13
 4311 02e0 11       		.uleb128 0x11
 4312 02e1 01       		.uleb128 0x1
 4313 02e2 12       		.uleb128 0x12
 4314 02e3 01       		.uleb128 0x1
 4315 02e4 40       		.uleb128 0x40
 4316 02e5 0A       		.uleb128 0xa
 4317 02e6 00       		.byte	0x0
 4318 02e7 00       		.byte	0x0
 4319 02e8 39       		.uleb128 0x39
 4320 02e9 34       		.uleb128 0x34
 4321 02ea 00       		.byte	0x0
 4322 02eb 03       		.uleb128 0x3
 4323 02ec 0E       		.uleb128 0xe
 4324 02ed 3A       		.uleb128 0x3a
 4325 02ee 0B       		.uleb128 0xb
 4326 02ef 3B       		.uleb128 0x3b
 4327 02f0 05       		.uleb128 0x5
 4328 02f1 49       		.uleb128 0x49
 4329 02f2 13       		.uleb128 0x13
 4330 02f3 3F       		.uleb128 0x3f
 4331 02f4 0C       		.uleb128 0xc
 4332 02f5 3C       		.uleb128 0x3c
 4333 02f6 0C       		.uleb128 0xc
 4334 02f7 00       		.byte	0x0
 4335 02f8 00       		.byte	0x0
 4336 02f9 3A       		.uleb128 0x3a
 4337 02fa 34       		.uleb128 0x34
 4338 02fb 00       		.byte	0x0
 4339 02fc 03       		.uleb128 0x3
 4340 02fd 08       		.uleb128 0x8
 4341 02fe 3A       		.uleb128 0x3a
 4342 02ff 0B       		.uleb128 0xb
ARM GAS  C:\Users\z80\AppData\Local\Temp\ccA8oroC.s 			page 78


 4343 0300 3B       		.uleb128 0x3b
 4344 0301 0B       		.uleb128 0xb
 4345 0302 49       		.uleb128 0x49
 4346 0303 13       		.uleb128 0x13
 4347 0304 3F       		.uleb128 0x3f
 4348 0305 0C       		.uleb128 0xc
 4349 0306 3C       		.uleb128 0x3c
 4350 0307 0C       		.uleb128 0xc
 4351 0308 00       		.byte	0x0
 4352 0309 00       		.byte	0x0
 4353 030a 00       		.byte	0x0
 4354              		.section	.debug_pubnames,"",%progbits
 4355 0000 3E000000 		.4byte	0x3e
 4356 0004 0200     		.2byte	0x2
 4357 0006 00000000 		.4byte	.Ldebug_info0
 4358 000a 120F0000 		.4byte	0xf12
 4359 000e 810D0000 		.4byte	0xd81
 4360 0012 6370755F 		.ascii	"cpu_io_init\000"
 4360      696F5F69 
 4360      6E697400 
 4361 001e 960D0000 		.4byte	0xd96
 4362 0022 6370755F 		.ascii	"cpu_io_process\000"
 4362      696F5F70 
 4362      726F6365 
 4362      737300
 4363 0031 6B0E0000 		.4byte	0xe6b
 4364 0035 66756E63 		.ascii	"funcArgs\000"
 4364      41726773 
 4364      00
 4365 003e 00000000 		.4byte	0x0
 4366              		.section	.debug_pubtypes,"",%progbits
 4367 0000 63020000 		.4byte	0x263
 4368 0004 0200     		.2byte	0x2
 4369 0006 00000000 		.4byte	.Ldebug_info0
 4370 000a 120F0000 		.4byte	0xf12
 4371 000e 30000000 		.4byte	0x30
 4372 0012 73697A65 		.ascii	"size_t\000"
 4372      5F7400
 4373 0019 49000000 		.4byte	0x49
 4374 001d 75696E74 		.ascii	"uint8_t\000"
 4374      385F7400 
 4375 0025 62000000 		.4byte	0x62
 4376 0029 75696E74 		.ascii	"uint16_t\000"
 4376      31365F74 
 4376      00
 4377 0032 74000000 		.4byte	0x74
 4378 0036 696E7433 		.ascii	"int32_t\000"
 4378      325F7400 
 4379 003e 86000000 		.4byte	0x86
 4380 0042 75696E74 		.ascii	"uint32_t\000"
 4380      33325F74 
 4380      00
 4381 004b 9F000000 		.4byte	0x9f
 4382 004f 75696E74 		.ascii	"uint64_t\000"
 4382      36345F74 
 4382      00
 4383 0058 B1000000 		.4byte	0xb1
ARM GAS  C:\Users\z80\AppData\Local\Temp\ccA8oroC.s 			page 79


 4384 005c 75696E74 		.ascii	"uint_fast16_t\000"
 4384      5F666173 
 4384      7431365F 
 4384      7400
 4385 006a BC000000 		.4byte	0xbc
 4386 006e 626F6F6C 		.ascii	"bool_t\000"
 4386      5F7400
 4387 0075 C7000000 		.4byte	0xc7
 4388 0079 746D6F64 		.ascii	"tmode_t\000"
 4388      655F7400 
 4389 0081 D2000000 		.4byte	0xd2
 4390 0085 74737461 		.ascii	"tstate_t\000"
 4390      74655F74 
 4390      00
 4391 008e DD000000 		.4byte	0xdd
 4392 0092 74707269 		.ascii	"tprio_t\000"
 4392      6F5F7400 
 4393 009a E8000000 		.4byte	0xe8
 4394 009e 6D73675F 		.ascii	"msg_t\000"
 4394      7400
 4395 00a4 F3000000 		.4byte	0xf3
 4396 00a8 6576656E 		.ascii	"eventmask_t\000"
 4396      746D6173 
 4396      6B5F7400 
 4397 00b4 FE000000 		.4byte	0xfe
 4398 00b8 73797374 		.ascii	"systime_t\000"
 4398      696D655F 
 4398      7400
 4399 00c2 09010000 		.4byte	0x109
 4400 00c6 54687265 		.ascii	"Thread\000"
 4400      616400
 4401 00cd 48020000 		.4byte	0x248
 4402 00d1 54687265 		.ascii	"ThreadsQueue\000"
 4402      61647351 
 4402      75657565 
 4402      00
 4403 00de 6A020000 		.4byte	0x26a
 4404 00e2 54687265 		.ascii	"ThreadsList\000"
 4404      6164734C 
 4404      69737400 
 4405 00ee 75020000 		.4byte	0x275
 4406 00f2 72656761 		.ascii	"regarm_t\000"
 4406      726D5F74 
 4406      00
 4407 00fb 82020000 		.4byte	0x282
 4408 00ff 73746B61 		.ascii	"stkalign_t\000"
 4408      6C69676E 
 4408      5F7400
 4409 010a 8D020000 		.4byte	0x28d
 4410 010e 696E7463 		.ascii	"intctx\000"
 4410      747800
 4411 0115 1A030000 		.4byte	0x31a
 4412 0119 636F6E74 		.ascii	"context\000"
 4412      65787400 
 4413 0121 4A030000 		.4byte	0x34a
 4414 0125 4D757465 		.ascii	"Mutex\000"
 4414      7800
ARM GAS  C:\Users\z80\AppData\Local\Temp\ccA8oroC.s 			page 80


 4415 012b 87030000 		.4byte	0x387
 4416 012f 4D757465 		.ascii	"Mutex\000"
 4416      7800
 4417 0135 92030000 		.4byte	0x392
 4418 0139 4576656E 		.ascii	"EventListener\000"
 4418      744C6973 
 4418      74656E65 
 4418      7200
 4419 0147 9D030000 		.4byte	0x39d
 4420 014b 4576656E 		.ascii	"EventListener\000"
 4420      744C6973 
 4420      74656E65 
 4420      7200
 4421 0159 DA030000 		.4byte	0x3da
 4422 015d 4576656E 		.ascii	"EventSource\000"
 4422      74536F75 
 4422      72636500 
 4423 0169 F5030000 		.4byte	0x3f5
 4424 016d 4576656E 		.ascii	"EventSource\000"
 4424      74536F75 
 4424      72636500 
 4425 0179 14010000 		.4byte	0x114
 4426 017d 54687265 		.ascii	"Thread\000"
 4426      616400
 4427 0184 53040000 		.4byte	0x453
 4428 0188 47656E65 		.ascii	"GenericQueue\000"
 4428      72696351 
 4428      75657565 
 4428      00
 4429 0195 CD040000 		.4byte	0x4cd
 4430 0199 716E6F74 		.ascii	"qnotify_t\000"
 4430      6966795F 
 4430      7400
 4431 01a3 5E040000 		.4byte	0x45e
 4432 01a7 47656E65 		.ascii	"GenericQueue\000"
 4432      72696351 
 4432      75657565 
 4432      00
 4433 01b4 F6040000 		.4byte	0x4f6
 4434 01b8 496E7075 		.ascii	"InputQueue\000"
 4434      74517565 
 4434      756500
 4435 01c3 01050000 		.4byte	0x501
 4436 01c7 4F757470 		.ascii	"OutputQueue\000"
 4436      75745175 
 4436      65756500 
 4437 01d3 F2050000 		.4byte	0x5f2
 4438 01d7 696F666C 		.ascii	"ioflags_t\000"
 4438      6167735F 
 4438      7400
 4439 01e1 14060000 		.4byte	0x614
 4440 01e5 5446756E 		.ascii	"TFunc\000"
 4440      6300
 4441 01eb AE060000 		.4byte	0x6ae
 4442 01ef 4750494F 		.ascii	"GPIO_TypeDef\000"
 4442      5F547970 
 4442      65446566 
ARM GAS  C:\Users\z80\AppData\Local\Temp\ccA8oroC.s 			page 81


 4442      00
 4443 01fc 94070000 		.4byte	0x794
 4444 0200 55534152 		.ascii	"USART_TypeDef\000"
 4444      545F5479 
 4444      70654465 
 4444      6600
 4445 020e A0070000 		.4byte	0x7a0
 4446 0212 696F706F 		.ascii	"ioportmask_t\000"
 4446      72746D61 
 4446      736B5F74 
 4446      00
 4447 021f C6070000 		.4byte	0x7c6
 4448 0223 73647374 		.ascii	"sdstate_t\000"
 4448      6174655F 
 4448      7400
 4449 022d D1070000 		.4byte	0x7d1
 4450 0231 53657269 		.ascii	"SerialDriver\000"
 4450      616C4472 
 4450      69766572 
 4450      00
 4451 023e 68080000 		.4byte	0x868
 4452 0242 53657269 		.ascii	"SerialDriverVMT\000"
 4452      616C4472 
 4452      69766572 
 4452      564D5400 
 4453 0252 DC070000 		.4byte	0x7dc
 4454 0256 53657269 		.ascii	"SerialDriver\000"
 4454      616C4472 
 4454      69766572 
 4454      00
 4455 0263 00000000 		.4byte	0x0
 4456              		.section	.debug_aranges,"",%progbits
 4457 0000 B4000000 		.4byte	0xb4
 4458 0004 0200     		.2byte	0x2
 4459 0006 00000000 		.4byte	.Ldebug_info0
 4460 000a 04       		.byte	0x4
 4461 000b 00       		.byte	0x0
 4462 000c 0000     		.2byte	0x0
 4463 000e 0000     		.2byte	0x0
 4464 0010 00000000 		.4byte	.LFB81
 4465 0014 0A000000 		.4byte	.LFE81-.LFB81
 4466 0018 00000000 		.4byte	.LFB82
 4467 001c 34000000 		.4byte	.LFE82-.LFB82
 4468 0020 00000000 		.4byte	.LFB83
 4469 0024 14000000 		.4byte	.LFE83-.LFB83
 4470 0028 00000000 		.4byte	.LFB80
 4471 002c 30000000 		.4byte	.LFE80-.LFB80
 4472 0030 00000000 		.4byte	.LFB79
 4473 0034 30000000 		.4byte	.LFE79-.LFB79
 4474 0038 00000000 		.4byte	.LFB78
 4475 003c 12000000 		.4byte	.LFE78-.LFB78
 4476 0040 00000000 		.4byte	.LFB77
 4477 0044 12000000 		.4byte	.LFE77-.LFB77
 4478 0048 00000000 		.4byte	.LFB76
 4479 004c 12000000 		.4byte	.LFE76-.LFB76
 4480 0050 00000000 		.4byte	.LFB75
 4481 0054 12000000 		.4byte	.LFE75-.LFB75
ARM GAS  C:\Users\z80\AppData\Local\Temp\ccA8oroC.s 			page 82


 4482 0058 00000000 		.4byte	.LFB74
 4483 005c 0A000000 		.4byte	.LFE74-.LFB74
 4484 0060 00000000 		.4byte	.LFB73
 4485 0064 0A000000 		.4byte	.LFE73-.LFB73
 4486 0068 00000000 		.4byte	.LFB72
 4487 006c 0A000000 		.4byte	.LFE72-.LFB72
 4488 0070 00000000 		.4byte	.LFB71
 4489 0074 1C000000 		.4byte	.LFE71-.LFB71
 4490 0078 00000000 		.4byte	.LFB67
 4491 007c 4A000000 		.4byte	.LFE67-.LFB67
 4492 0080 00000000 		.4byte	.LFB70
 4493 0084 0C000000 		.4byte	.LFE70-.LFB70
 4494 0088 00000000 		.4byte	.LFB69
 4495 008c 0C000000 		.4byte	.LFE69-.LFB69
 4496 0090 00000000 		.4byte	.LFB68
 4497 0094 0C000000 		.4byte	.LFE68-.LFB68
 4498 0098 00000000 		.4byte	.LFB62
 4499 009c 32000000 		.4byte	.LFE62-.LFB62
 4500 00a0 00000000 		.4byte	.LFB63
 4501 00a4 C4000000 		.4byte	.LFE63-.LFB63
 4502 00a8 00000000 		.4byte	.LFB64
 4503 00ac 0A000000 		.4byte	.LFE64-.LFB64
 4504 00b0 00000000 		.4byte	0x0
 4505 00b4 00000000 		.4byte	0x0
 4506              		.section	.debug_ranges,"",%progbits
 4507              	.Ldebug_ranges0:
 4508 0000 02000000 		.4byte	.LBB9
 4509 0004 04000000 		.4byte	.LBE9
 4510 0008 06000000 		.4byte	.LBB10
 4511 000c 0A000000 		.4byte	.LBE10
 4512 0010 00000000 		.4byte	0x0
 4513 0014 00000000 		.4byte	0x0
 4514 0018 28000000 		.4byte	.LBB12
 4515 001c 3A000000 		.4byte	.LBE12
 4516 0020 3C000000 		.4byte	.LBB13
 4517 0024 40000000 		.4byte	.LBE13
 4518 0028 00000000 		.4byte	0x0
 4519 002c 00000000 		.4byte	0x0
 4520 0030 12000000 		.4byte	.LBB14
 4521 0034 30000000 		.4byte	.LBE14
 4522 0038 32000000 		.4byte	.LBB31
 4523 003c C4000000 		.4byte	.LBE31
 4524 0040 00000000 		.4byte	0x0
 4525 0044 00000000 		.4byte	0x0
 4526 0048 1C000000 		.4byte	.LBB17
 4527 004c 1E000000 		.4byte	.LBE17
 4528 0050 92000000 		.4byte	.LBB30
 4529 0054 C4000000 		.4byte	.LBE30
 4530 0058 66000000 		.4byte	.LBB29
 4531 005c 80000000 		.4byte	.LBE29
 4532 0060 24000000 		.4byte	.LBB15
 4533 0064 2E000000 		.4byte	.LBE15
 4534 0068 20000000 		.4byte	.LBB16
 4535 006c 22000000 		.4byte	.LBE16
 4536 0070 00000000 		.4byte	0x0
 4537 0074 00000000 		.4byte	0x0
 4538 0078 1C000000 		.4byte	.LBB20
ARM GAS  C:\Users\z80\AppData\Local\Temp\ccA8oroC.s 			page 83


 4539 007c 1E000000 		.4byte	.LBE20
 4540 0080 92000000 		.4byte	.LBB28
 4541 0084 C4000000 		.4byte	.LBE28
 4542 0088 66000000 		.4byte	.LBB18
 4543 008c 80000000 		.4byte	.LBE18
 4544 0090 24000000 		.4byte	.LBB27
 4545 0094 2E000000 		.4byte	.LBE27
 4546 0098 20000000 		.4byte	.LBB19
 4547 009c 22000000 		.4byte	.LBE19
 4548 00a0 00000000 		.4byte	0x0
 4549 00a4 00000000 		.4byte	0x0
 4550 00a8 2C000000 		.4byte	.LBB22
 4551 00ac 2E000000 		.4byte	.LBE22
 4552 00b0 92000000 		.4byte	.LBB26
 4553 00b4 C4000000 		.4byte	.LBE26
 4554 00b8 7C000000 		.4byte	.LBB21
 4555 00bc 80000000 		.4byte	.LBE21
 4556 00c0 00000000 		.4byte	0x0
 4557 00c4 00000000 		.4byte	0x0
 4558 00c8 2C000000 		.4byte	.LBB24
 4559 00cc 2E000000 		.4byte	.LBE24
 4560 00d0 92000000 		.4byte	.LBB25
 4561 00d4 C4000000 		.4byte	.LBE25
 4562 00d8 7C000000 		.4byte	.LBB23
 4563 00dc 80000000 		.4byte	.LBE23
 4564 00e0 00000000 		.4byte	0x0
 4565 00e4 00000000 		.4byte	0x0
 4566 00e8 00000000 		.4byte	.LFB81
 4567 00ec 0A000000 		.4byte	.LFE81
 4568 00f0 00000000 		.4byte	.LFB82
 4569 00f4 34000000 		.4byte	.LFE82
 4570 00f8 00000000 		.4byte	.LFB83
 4571 00fc 14000000 		.4byte	.LFE83
 4572 0100 00000000 		.4byte	.LFB80
 4573 0104 30000000 		.4byte	.LFE80
 4574 0108 00000000 		.4byte	.LFB79
 4575 010c 30000000 		.4byte	.LFE79
 4576 0110 00000000 		.4byte	.LFB78
 4577 0114 12000000 		.4byte	.LFE78
 4578 0118 00000000 		.4byte	.LFB77
 4579 011c 12000000 		.4byte	.LFE77
 4580 0120 00000000 		.4byte	.LFB76
 4581 0124 12000000 		.4byte	.LFE76
 4582 0128 00000000 		.4byte	.LFB75
 4583 012c 12000000 		.4byte	.LFE75
 4584 0130 00000000 		.4byte	.LFB74
 4585 0134 0A000000 		.4byte	.LFE74
 4586 0138 00000000 		.4byte	.LFB73
 4587 013c 0A000000 		.4byte	.LFE73
 4588 0140 00000000 		.4byte	.LFB72
 4589 0144 0A000000 		.4byte	.LFE72
 4590 0148 00000000 		.4byte	.LFB71
 4591 014c 1C000000 		.4byte	.LFE71
 4592 0150 00000000 		.4byte	.LFB67
 4593 0154 4A000000 		.4byte	.LFE67
 4594 0158 00000000 		.4byte	.LFB70
 4595 015c 0C000000 		.4byte	.LFE70
ARM GAS  C:\Users\z80\AppData\Local\Temp\ccA8oroC.s 			page 84


 4596 0160 00000000 		.4byte	.LFB69
 4597 0164 0C000000 		.4byte	.LFE69
 4598 0168 00000000 		.4byte	.LFB68
 4599 016c 0C000000 		.4byte	.LFE68
 4600 0170 00000000 		.4byte	.LFB62
 4601 0174 32000000 		.4byte	.LFE62
 4602 0178 00000000 		.4byte	.LFB63
 4603 017c C4000000 		.4byte	.LFE63
 4604 0180 00000000 		.4byte	.LFB64
 4605 0184 0A000000 		.4byte	.LFE64
 4606 0188 00000000 		.4byte	0x0
 4607 018c 00000000 		.4byte	0x0
 4608              		.section	.debug_str,"MS",%progbits,1
 4609              	.LASF140:
 4610 0000 77726974 		.ascii	"writeEom\000"
 4610      65456F6D 
 4610      00
 4611              	.LASF2:
 4612 0009 73697A65 		.ascii	"size_t\000"
 4612      5F7400
 4613              	.LASF57:
 4614 0010 7264796D 		.ascii	"rdymsg\000"
 4614      736700
 4615              	.LASF13:
 4616 0017 75696E74 		.ascii	"uint64_t\000"
 4616      36345F74 
 4616      00
 4617              	.LASF136:
 4618 0020 66756E63 		.ascii	"funcs\000"
 4618      7300
 4619              	.LASF72:
 4620 0026 4F757470 		.ascii	"OutputQueue\000"
 4620      75745175 
 4620      65756500 
 4621              	.LASF74:
 4622 0032 5446756E 		.ascii	"TFunc\000"
 4622      6300
 4623              	.LASF87:
 4624 0038 696F706F 		.ascii	"ioportmask_t\000"
 4624      72746D61 
 4624      736B5F74 
 4624      00
 4625              	.LASF126:
 4626 0045 70657269 		.ascii	"period\000"
 4626      6F6400
 4627              	.LASF15:
 4628 004c 75696E74 		.ascii	"uint_fast16_t\000"
 4628      5F666173 
 4628      7431365F 
 4628      7400
 4629              	.LASF14:
 4630 005a 6C6F6E67 		.ascii	"long long unsigned int\000"
 4630      206C6F6E 
 4630      6720756E 
 4630      7369676E 
 4630      65642069 
 4631              	.LASF120:
ARM GAS  C:\Users\z80\AppData\Local\Temp\ccA8oroC.s 			page 85


 4632 0071 7365745F 		.ascii	"set_one_pulse\000"
 4632      6F6E655F 
 4632      70756C73 
 4632      6500
 4633              	.LASF143:
 4634 007f 66756E63 		.ascii	"funcArgs\000"
 4634      41726773 
 4634      00
 4635              	.LASF58:
 4636 0088 65786974 		.ascii	"exitcode\000"
 4636      636F6465 
 4636      00
 4637              	.LASF122:
 4638 0091 7365745F 		.ascii	"set_sc_relay\000"
 4638      73635F72 
 4638      656C6179 
 4638      00
 4639              	.LASF133:
 4640 009e 6F75745F 		.ascii	"out_index\000"
 4640      696E6465 
 4640      7800
 4641              	.LASF134:
 4642 00a8 49544D5F 		.ascii	"ITM_RxBuffer\000"
 4642      52784275 
 4642      66666572 
 4642      00
 4643              	.LASF26:
 4644 00b5 705F7072 		.ascii	"p_prio\000"
 4644      696F00
 4645              	.LASF105:
 4646 00bc 72656164 		.ascii	"readt\000"
 4646      7400
 4647              	.LASF125:
 4648 00c2 6F73635F 		.ascii	"osc_set_period\000"
 4648      7365745F 
 4648      70657269 
 4648      6F6400
 4649              	.LASF12:
 4650 00d1 6C6F6E67 		.ascii	"long long int\000"
 4650      206C6F6E 
 4650      6720696E 
 4650      7400
 4651              	.LASF1:
 4652 00df 7369676E 		.ascii	"signed char\000"
 4652      65642063 
 4652      68617200 
 4653              	.LASF75:
 4654 00eb 42535252 		.ascii	"BSRR\000"
 4654      00
 4655              	.LASF84:
 4656 00f0 47545052 		.ascii	"GTPR\000"
 4656      00
 4657              	.LASF89:
 4658 00f5 53445F53 		.ascii	"SD_STOP\000"
 4658      544F5000 
 4659              	.LASF16:
 4660 00fd 626F6F6C 		.ascii	"bool_t\000"
ARM GAS  C:\Users\z80\AppData\Local\Temp\ccA8oroC.s 			page 86


 4660      5F7400
 4661              	.LASF48:
 4662 0104 6D5F7175 		.ascii	"m_queue\000"
 4662      65756500 
 4663              	.LASF127:
 4664 010c 77726974 		.ascii	"writeOscQueue\000"
 4664      654F7363 
 4664      51756575 
 4664      6500
 4665              	.LASF95:
 4666 011a 73746174 		.ascii	"state\000"
 4666      6500
 4667              	.LASF9:
 4668 0120 6C6F6E67 		.ascii	"long int\000"
 4668      20696E74 
 4668      00
 4669              	.LASF18:
 4670 0129 74737461 		.ascii	"tstate_t\000"
 4670      74655F74 
 4670      00
 4671              	.LASF65:
 4672 0132 715F6275 		.ascii	"q_buffer\000"
 4672      66666572 
 4672      00
 4673              	.LASF67:
 4674 013b 715F7772 		.ascii	"q_wrptr\000"
 4674      70747200 
 4675              	.LASF28:
 4676 0143 705F6E65 		.ascii	"p_newer\000"
 4676      77657200 
 4677              	.LASF102:
 4678 014b 70757477 		.ascii	"putwouldblock\000"
 4678      6F756C64 
 4678      626C6F63 
 4678      6B00
 4679              	.LASF77:
 4680 0159 4750494F 		.ascii	"GPIO_TypeDef\000"
 4680      5F547970 
 4680      65446566 
 4680      00
 4681              	.LASF124:
 4682 0166 7365745F 		.ascii	"set_leds\000"
 4682      6C656473 
 4682      00
 4683              	.LASF43:
 4684 016f 72656761 		.ascii	"regarm_t\000"
 4684      726D5F74 
 4684      00
 4685              	.LASF55:
 4686 0178 4576656E 		.ascii	"EventSource\000"
 4686      74536F75 
 4686      72636500 
 4687              	.LASF98:
 4688 0184 75736172 		.ascii	"usart\000"
 4688      7400
 4689              	.LASF0:
 4690 018a 756E7369 		.ascii	"unsigned int\000"
ARM GAS  C:\Users\z80\AppData\Local\Temp\ccA8oroC.s 			page 87


 4690      676E6564 
 4690      20696E74 
 4690      00
 4691              	.LASF6:
 4692 0197 75696E74 		.ascii	"uint16_t\000"
 4692      31365F74 
 4692      00
 4693              	.LASF99:
 4694 01a0 53657269 		.ascii	"SerialDriverVMT\000"
 4694      616C4472 
 4694      69766572 
 4694      564D5400 
 4695              	.LASF34:
 4696 01b0 705F7469 		.ascii	"p_time\000"
 4696      6D6500
 4697              	.LASF117:
 4698 01b7 68617264 		.ascii	"hardware_version\000"
 4698      77617265 
 4698      5F766572 
 4698      73696F6E 
 4698      00
 4699              	.LASF118:
 4700 01c8 7365745F 		.ascii	"set_sweep\000"
 4700      73776565 
 4700      7000
 4701              	.LASF96:
 4702 01d2 69717565 		.ascii	"iqueue\000"
 4702      756500
 4703              	.LASF36:
 4704 01d9 705F6D73 		.ascii	"p_msgqueue\000"
 4704      67717565 
 4704      756500
 4705              	.LASF116:
 4706 01e4 73747269 		.ascii	"stri\000"
 4706      00
 4707              	.LASF76:
 4708 01e9 4C434B52 		.ascii	"LCKR\000"
 4708      00
 4709              	.LASF109:
 4710 01ee 65786563 		.ascii	"exec_func\000"
 4710      5F66756E 
 4710      6300
 4711              	.LASF128:
 4712 01f8 6E6F4461 		.ascii	"noData\000"
 4712      746100
 4713              	.LASF19:
 4714 01ff 74707269 		.ascii	"tprio_t\000"
 4714      6F5F7400 
 4715              	.LASF93:
 4716 0207 6576656E 		.ascii	"event\000"
 4716      7400
 4717              	.LASF7:
 4718 020d 73686F72 		.ascii	"short unsigned int\000"
 4718      7420756E 
 4718      7369676E 
 4718      65642069 
 4718      6E7400
ARM GAS  C:\Users\z80\AppData\Local\Temp\ccA8oroC.s 			page 88


 4719              	.LASF20:
 4720 0220 6D73675F 		.ascii	"msg_t\000"
 4720      7400
 4721              	.LASF97:
 4722 0226 6F717565 		.ascii	"oqueue\000"
 4722      756500
 4723              	.LASF129:
 4724 022d 6F73635F 		.ascii	"osc_iaux\000"
 4724      69617578 
 4724      00
 4725              	.LASF115:
 4726 0236 6669726D 		.ascii	"firmware_version\000"
 4726      77617265 
 4726      5F766572 
 4726      73696F6E 
 4726      00
 4727              	.LASF86:
 4728 0247 55534152 		.ascii	"USART_TypeDef\000"
 4728      545F5479 
 4728      70654465 
 4728      6600
 4729              	.LASF104:
 4730 0255 77726974 		.ascii	"writet\000"
 4730      657400
 4731              	.LASF17:
 4732 025c 746D6F64 		.ascii	"tmode_t\000"
 4732      655F7400 
 4733              	.LASF42:
 4734 0264 54687265 		.ascii	"ThreadsList\000"
 4734      6164734C 
 4734      69737400 
 4735              	.LASF21:
 4736 0270 6576656E 		.ascii	"eventmask_t\000"
 4736      746D6173 
 4736      6B5F7400 
 4737              	.LASF71:
 4738 027c 496E7075 		.ascii	"InputQueue\000"
 4738      74517565 
 4738      756500
 4739              	.LASF70:
 4740 0287 716E6F74 		.ascii	"qnotify_t\000"
 4740      6966795F 
 4740      7400
 4741              	.LASF138:
 4742 0291 2E2F7372 		.ascii	"./src/cpu_io.c\000"
 4742      632F6370 
 4742      755F696F 
 4742      2E6300
 4743              	.LASF62:
 4744 02a0 47656E65 		.ascii	"GenericQueue\000"
 4744      72696351 
 4744      75657565 
 4744      00
 4745              	.LASF44:
 4746 02ad 73746B61 		.ascii	"stkalign_t\000"
 4746      6C69676E 
 4746      5F7400
ARM GAS  C:\Users\z80\AppData\Local\Temp\ccA8oroC.s 			page 89


 4747              	.LASF121:
 4748 02b8 7365745F 		.ascii	"set_dac\000"
 4748      64616300 
 4749              	.LASF100:
 4750 02c0 77726974 		.ascii	"write\000"
 4750      6500
 4751              	.LASF64:
 4752 02c6 715F636F 		.ascii	"q_counter\000"
 4752      756E7465 
 4752      7200
 4753              	.LASF47:
 4754 02d0 4D757465 		.ascii	"Mutex\000"
 4754      7800
 4755              	.LASF29:
 4756 02d6 705F6F6C 		.ascii	"p_older\000"
 4756      64657200 
 4757              	.LASF142:
 4758 02de 6370755F 		.ascii	"cpu_io_process\000"
 4758      696F5F70 
 4758      726F6365 
 4758      737300
 4759              	.LASF73:
 4760 02ed 696F666C 		.ascii	"ioflags_t\000"
 4760      6167735F 
 4760      7400
 4761              	.LASF41:
 4762 02f7 54687265 		.ascii	"ThreadsQueue\000"
 4762      61647351 
 4762      75657565 
 4762      00
 4763              	.LASF139:
 4764 0304 433A5C70 		.ascii	"C:\\projects\\voltamper.git\\firmware\\voltamp\000"
 4764      726F6A65 
 4764      6374735C 
 4764      766F6C74 
 4764      616D7065 
 4765              	.LASF123:
 4766 032f 7365745F 		.ascii	"set_out_relay\000"
 4766      6F75745F 
 4766      72656C61 
 4766      7900
 4767              	.LASF54:
 4768 033d 656C5F6D 		.ascii	"el_mask\000"
 4768      61736B00 
 4769              	.LASF113:
 4770 0345 77726974 		.ascii	"writeResult\000"
 4770      65526573 
 4770      756C7400 
 4771              	.LASF63:
 4772 0351 715F7761 		.ascii	"q_waiting\000"
 4772      6974696E 
 4772      6700
 4773              	.LASF78:
 4774 035b 52455345 		.ascii	"RESERVED0\000"
 4774      52564544 
 4774      3000
 4775              	.LASF79:
ARM GAS  C:\Users\z80\AppData\Local\Temp\ccA8oroC.s 			page 90


 4776 0365 52455345 		.ascii	"RESERVED1\000"
 4776      52564544 
 4776      3100
 4777              	.LASF80:
 4778 036f 52455345 		.ascii	"RESERVED2\000"
 4778      52564544 
 4778      3200
 4779              	.LASF81:
 4780 0379 52455345 		.ascii	"RESERVED3\000"
 4780      52564544 
 4780      3300
 4781              	.LASF82:
 4782 0383 52455345 		.ascii	"RESERVED4\000"
 4782      52564544 
 4782      3400
 4783              	.LASF25:
 4784 038d 705F7072 		.ascii	"p_prev\000"
 4784      657600
 4785              	.LASF85:
 4786 0394 52455345 		.ascii	"RESERVED6\000"
 4786      52564544 
 4786      3600
 4787              	.LASF108:
 4788 039e 66756E63 		.ascii	"funcs_sz\000"
 4788      735F737A 
 4788      00
 4789              	.LASF68:
 4790 03a7 715F7264 		.ascii	"q_rdptr\000"
 4790      70747200 
 4791              	.LASF130:
 4792 03af 6F73635F 		.ascii	"osc_eref\000"
 4792      65726566 
 4792      00
 4793              	.LASF8:
 4794 03b8 696E7433 		.ascii	"int32_t\000"
 4794      325F7400 
 4795              	.LASF4:
 4796 03c0 756E7369 		.ascii	"unsigned char\000"
 4796      676E6564 
 4796      20636861 
 4796      7200
 4797              	.LASF53:
 4798 03ce 656C5F6C 		.ascii	"el_listener\000"
 4798      69737465 
 4798      6E657200 
 4799              	.LASF39:
 4800 03da 705F6D74 		.ascii	"p_mtxlist\000"
 4800      786C6973 
 4800      7400
 4801              	.LASF5:
 4802 03e4 73686F72 		.ascii	"short int\000"
 4802      7420696E 
 4802      7400
 4803              	.LASF32:
 4804 03ee 705F7374 		.ascii	"p_state\000"
 4804      61746500 
 4805              	.LASF110:
ARM GAS  C:\Users\z80\AppData\Local\Temp\ccA8oroC.s 			page 91


 4806 03f6 70726F63 		.ascii	"process_command\000"
 4806      6573735F 
 4806      636F6D6D 
 4806      616E6400 
 4807              	.LASF60:
 4808 0406 65776D61 		.ascii	"ewmask\000"
 4808      736B00
 4809              	.LASF24:
 4810 040d 705F6E65 		.ascii	"p_next\000"
 4810      787400
 4811              	.LASF112:
 4812 0414 7365745F 		.ascii	"set_autostart_osc\000"
 4812      6175746F 
 4812      73746172 
 4812      745F6F73 
 4812      6300
 4813              	.LASF33:
 4814 0426 705F666C 		.ascii	"p_flags\000"
 4814      61677300 
 4815              	.LASF52:
 4816 042e 656C5F6E 		.ascii	"el_next\000"
 4816      65787400 
 4817              	.LASF119:
 4818 0436 7365745F 		.ascii	"set_meandr\000"
 4818      6D65616E 
 4818      647200
 4819              	.LASF23:
 4820 0441 54687265 		.ascii	"Thread\000"
 4820      616400
 4821              	.LASF38:
 4822 0448 705F6570 		.ascii	"p_epending\000"
 4822      656E6469 
 4822      6E6700
 4823              	.LASF88:
 4824 0453 53445F55 		.ascii	"SD_UNINIT\000"
 4824      4E494E49 
 4824      5400
 4825              	.LASF83:
 4826 045d 52455345 		.ascii	"RESERVED5\000"
 4826      52564544 
 4826      3500
 4827              	.LASF10:
 4828 0467 75696E74 		.ascii	"uint32_t\000"
 4828      33325F74 
 4828      00
 4829              	.LASF91:
 4830 0470 73647374 		.ascii	"sdstate_t\000"
 4830      6174655F 
 4830      7400
 4831              	.LASF92:
 4832 047a 53657269 		.ascii	"SerialDriver\000"
 4832      616C4472 
 4832      69766572 
 4832      00
 4833              	.LASF11:
 4834 0487 6C6F6E67 		.ascii	"long unsigned int\000"
 4834      20756E73 
ARM GAS  C:\Users\z80\AppData\Local\Temp\ccA8oroC.s 			page 92


 4834      69676E65 
 4834      6420696E 
 4834      7400
 4835              	.LASF101:
 4836 0499 72656164 		.ascii	"read\000"
 4836      00
 4837              	.LASF61:
 4838 049e 63686172 		.ascii	"char\000"
 4838      00
 4839              	.LASF141:
 4840 04a3 6370755F 		.ascii	"cpu_io_init\000"
 4840      696F5F69 
 4840      6E697400 
 4841              	.LASF50:
 4842 04af 6D5F6E65 		.ascii	"m_next\000"
 4842      787400
 4843              	.LASF22:
 4844 04b6 73797374 		.ascii	"systime_t\000"
 4844      696D655F 
 4844      7400
 4845              	.LASF40:
 4846 04c0 705F7265 		.ascii	"p_realprio\000"
 4846      616C7072 
 4846      696F00
 4847              	.LASF135:
 4848 04cb 62756666 		.ascii	"buffer\000"
 4848      657200
 4849              	.LASF31:
 4850 04d2 705F7374 		.ascii	"p_stklimit\000"
 4850      6B6C696D 
 4850      697400
 4851              	.LASF111:
 4852 04dd 64617461 		.ascii	"data\000"
 4852      00
 4853              	.LASF106:
 4854 04e2 67657466 		.ascii	"getflags\000"
 4854      6C616773 
 4854      00
 4855              	.LASF46:
 4856 04eb 636F6E74 		.ascii	"context\000"
 4856      65787400 
 4857              	.LASF45:
 4858 04f3 696E7463 		.ascii	"intctx\000"
 4858      747800
 4859              	.LASF90:
 4860 04fa 53445F52 		.ascii	"SD_READY\000"
 4860      45414459 
 4860      00
 4861              	.LASF131:
 4862 0503 6F73635F 		.ascii	"osc_eaux\000"
 4862      65617578 
 4862      00
 4863              	.LASF66:
 4864 050c 715F746F 		.ascii	"q_top\000"
 4864      7000
 4865              	.LASF30:
 4866 0512 705F6E61 		.ascii	"p_name\000"
ARM GAS  C:\Users\z80\AppData\Local\Temp\ccA8oroC.s 			page 93


 4866      6D6500
 4867              	.LASF56:
 4868 0519 65735F6E 		.ascii	"es_next\000"
 4868      65787400 
 4869              	.LASF69:
 4870 0521 715F6E6F 		.ascii	"q_notify\000"
 4870      74696679 
 4870      00
 4871              	.LASF37:
 4872 052a 705F6D73 		.ascii	"p_msg\000"
 4872      6700
 4873              	.LASF3:
 4874 0530 75696E74 		.ascii	"uint8_t\000"
 4874      385F7400 
 4875              	.LASF107:
 4876 0538 66756E63 		.ascii	"func_index\000"
 4876      5F696E64 
 4876      657800
 4877              	.LASF94:
 4878 0543 666C6167 		.ascii	"flags\000"
 4878      7300
 4879              	.LASF51:
 4880 0549 4576656E 		.ascii	"EventListener\000"
 4880      744C6973 
 4880      74656E65 
 4880      7200
 4881              	.LASF137:
 4882 0557 474E5520 		.ascii	"GNU C 4.5.0\000"
 4882      4320342E 
 4882      352E3000 
 4883              	.LASF59:
 4884 0563 77746F62 		.ascii	"wtobjp\000"
 4884      6A7000
 4885              	.LASF132:
 4886 056a 736C6173 		.ascii	"slash\000"
 4886      6800
 4887              	.LASF103:
 4888 0570 67657477 		.ascii	"getwouldblock\000"
 4888      6F756C64 
 4888      626C6F63 
 4888      6B00
 4889              	.LASF114:
 4890 057e 61726773 		.ascii	"args\000"
 4890      00
 4891              	.LASF49:
 4892 0583 6D5F6F77 		.ascii	"m_owner\000"
 4892      6E657200 
 4893              	.LASF27:
 4894 058b 705F6374 		.ascii	"p_ctx\000"
 4894      7800
 4895              	.LASF35:
 4896 0591 705F7761 		.ascii	"p_waiting\000"
 4896      6974696E 
 4896      6700
 4897              		.ident	"GCC: (GNU) 4.5.0"
ARM GAS  C:\Users\z80\AppData\Local\Temp\ccA8oroC.s 			page 94


DEFINED SYMBOLS
                            *ABS*:00000000 cpu_io.c
C:\Users\z80\AppData\Local\Temp\ccA8oroC.s:24     .text.set_autostart_osc:00000000 $t
C:\Users\z80\AppData\Local\Temp\ccA8oroC.s:29     .text.set_autostart_osc:00000000 set_autostart_osc
C:\Users\z80\AppData\Local\Temp\ccA8oroC.s:52     .text.writeResult:00000000 $t
C:\Users\z80\AppData\Local\Temp\ccA8oroC.s:57     .text.writeResult:00000000 writeResult
C:\Users\z80\AppData\Local\Temp\ccA8oroC.s:98     .text.writeResult:00000030 $d
C:\Users\z80\AppData\Local\Temp\ccA8oroC.s:103    .text.writeEom:00000000 $t
C:\Users\z80\AppData\Local\Temp\ccA8oroC.s:108    .text.writeEom:00000000 writeEom
C:\Users\z80\AppData\Local\Temp\ccA8oroC.s:129    .text.writeEom:00000010 $d
C:\Users\z80\AppData\Local\Temp\ccA8oroC.s:134    .text.firmware_version:00000000 $t
C:\Users\z80\AppData\Local\Temp\ccA8oroC.s:139    .text.firmware_version:00000000 firmware_version
C:\Users\z80\AppData\Local\Temp\ccA8oroC.s:184    .text.firmware_version:0000002c $d
C:\Users\z80\AppData\Local\Temp\ccA8oroC.s:189    .text.hardware_version:00000000 $t
C:\Users\z80\AppData\Local\Temp\ccA8oroC.s:194    .text.hardware_version:00000000 hardware_version
C:\Users\z80\AppData\Local\Temp\ccA8oroC.s:240    .text.hardware_version:0000002c $d
C:\Users\z80\AppData\Local\Temp\ccA8oroC.s:245    .text.set_sweep:00000000 $t
C:\Users\z80\AppData\Local\Temp\ccA8oroC.s:250    .text.set_sweep:00000000 set_sweep
C:\Users\z80\AppData\Local\Temp\ccA8oroC.s:276    .text.set_meandr:00000000 $t
C:\Users\z80\AppData\Local\Temp\ccA8oroC.s:281    .text.set_meandr:00000000 set_meandr
C:\Users\z80\AppData\Local\Temp\ccA8oroC.s:307    .text.set_one_pulse:00000000 $t
C:\Users\z80\AppData\Local\Temp\ccA8oroC.s:312    .text.set_one_pulse:00000000 set_one_pulse
C:\Users\z80\AppData\Local\Temp\ccA8oroC.s:338    .text.set_dac:00000000 $t
C:\Users\z80\AppData\Local\Temp\ccA8oroC.s:343    .text.set_dac:00000000 set_dac
C:\Users\z80\AppData\Local\Temp\ccA8oroC.s:369    .text.set_sc_relay:00000000 $t
C:\Users\z80\AppData\Local\Temp\ccA8oroC.s:374    .text.set_sc_relay:00000000 set_sc_relay
C:\Users\z80\AppData\Local\Temp\ccA8oroC.s:396    .text.set_out_relay:00000000 $t
C:\Users\z80\AppData\Local\Temp\ccA8oroC.s:401    .text.set_out_relay:00000000 set_out_relay
C:\Users\z80\AppData\Local\Temp\ccA8oroC.s:423    .text.set_leds:00000000 $t
C:\Users\z80\AppData\Local\Temp\ccA8oroC.s:428    .text.set_leds:00000000 set_leds
C:\Users\z80\AppData\Local\Temp\ccA8oroC.s:450    .text.osc_set_period:00000000 $t
C:\Users\z80\AppData\Local\Temp\ccA8oroC.s:455    .text.osc_set_period:00000000 osc_set_period
C:\Users\z80\AppData\Local\Temp\ccA8oroC.s:491    .text.writeOscQueue:00000000 $t
C:\Users\z80\AppData\Local\Temp\ccA8oroC.s:496    .text.writeOscQueue:00000000 writeOscQueue
C:\Users\z80\AppData\Local\Temp\ccA8oroC.s:591    .text.osc_iaux:00000000 $t
C:\Users\z80\AppData\Local\Temp\ccA8oroC.s:596    .text.osc_iaux:00000000 osc_iaux
C:\Users\z80\AppData\Local\Temp\ccA8oroC.s:620    .text.osc_eref:00000000 $t
C:\Users\z80\AppData\Local\Temp\ccA8oroC.s:625    .text.osc_eref:00000000 osc_eref
C:\Users\z80\AppData\Local\Temp\ccA8oroC.s:649    .text.osc_eaux:00000000 $t
C:\Users\z80\AppData\Local\Temp\ccA8oroC.s:654    .text.osc_eaux:00000000 osc_eaux
C:\Users\z80\AppData\Local\Temp\ccA8oroC.s:678    .text.cpu_io_init:00000000 $t
C:\Users\z80\AppData\Local\Temp\ccA8oroC.s:684    .text.cpu_io_init:00000000 cpu_io_init
C:\Users\z80\AppData\Local\Temp\ccA8oroC.s:722    .text.cpu_io_process:00000000 $t
C:\Users\z80\AppData\Local\Temp\ccA8oroC.s:728    .text.cpu_io_process:00000000 cpu_io_process
C:\Users\z80\AppData\Local\Temp\ccA8oroC.s:913    .text.cpu_io_process:000000a8 $d
C:\Users\z80\AppData\Local\Temp\ccA8oroC.s:929    .text.funcArgs:00000000 $t
C:\Users\z80\AppData\Local\Temp\ccA8oroC.s:935    .text.funcArgs:00000000 funcArgs
C:\Users\z80\AppData\Local\Temp\ccA8oroC.s:992    .bss.args:00000000 .LANCHOR3
C:\Users\z80\AppData\Local\Temp\ccA8oroC.s:954    .bss.slash.3688:00000000 slash.3688
C:\Users\z80\AppData\Local\Temp\ccA8oroC.s:955    .bss.slash.3688:00000000 $d
C:\Users\z80\AppData\Local\Temp\ccA8oroC.s:957    .rodata.funcs:00000000 $d
C:\Users\z80\AppData\Local\Temp\ccA8oroC.s:961    .rodata.funcs:00000000 funcs
C:\Users\z80\AppData\Local\Temp\ccA8oroC.s:977    .bss.buffer:00000000 $d
C:\Users\z80\AppData\Local\Temp\ccA8oroC.s:981    .bss.buffer:00000000 buffer
C:\Users\z80\AppData\Local\Temp\ccA8oroC.s:984    .rodata.str1.4:00000000 $d
C:\Users\z80\AppData\Local\Temp\ccA8oroC.s:991    .bss.args:00000000 $d
C:\Users\z80\AppData\Local\Temp\ccA8oroC.s:995    .bss.args:00000000 args
ARM GAS  C:\Users\z80\AppData\Local\Temp\ccA8oroC.s 			page 95


C:\Users\z80\AppData\Local\Temp\ccA8oroC.s:998    .bss.out_index.3689:00000000 $d
C:\Users\z80\AppData\Local\Temp\ccA8oroC.s:1002   .bss.out_index.3689:00000000 out_index.3689
                     .debug_frame:00000010 $d
C:\Users\z80\AppData\Local\Temp\ccA8oroC.s:102    .text.writeResult:00000034 $t
C:\Users\z80\AppData\Local\Temp\ccA8oroC.s:133    .text.writeEom:00000014 $t
C:\Users\z80\AppData\Local\Temp\ccA8oroC.s:928    .text.cpu_io_process:000000c4 $t

UNDEFINED SYMBOLS
setAutostartOsc
chOQPutTimeout
SD1
commandQueue
setScRelay
setOutRelay
setLeds
setOscPeriod
dbg_check_lock
dbg_check_unlock
chIQGetTimeout
iauxQueue
erefQueue
eauxQueue
sdStart
_pal_lld_setgroupmode
