ARM GAS  C:\Users\z80\AppData\Local\Temp\ccudY4us.s 			page 1


   1              		.syntax unified
   2              		.cpu cortex-m3
   3              		.fpu softvfp
   4              		.eabi_attribute 20, 1
   5              		.eabi_attribute 21, 1
   6              		.eabi_attribute 23, 3
   7              		.eabi_attribute 24, 1
   8              		.eabi_attribute 25, 1
   9              		.eabi_attribute 26, 1
  10              		.eabi_attribute 30, 6
  11              		.eabi_attribute 18, 4
  12              		.thumb
  13              		.file	"cpu_io.c"
  14              		.section	.debug_abbrev,"",%progbits
  15              	.Ldebug_abbrev0:
  16              		.section	.debug_info,"",%progbits
  17              	.Ldebug_info0:
  18              		.section	.debug_line,"",%progbits
  19              	.Ldebug_line0:
  20 0000 B0040000 		.text
  20      02005B02 
  20      00000201 
  20      FB0E0D00 
  20      01010101 
  21              	.Ltext0:
  22              		.cfi_sections	.debug_frame
  23              		.section	.bss.buffer,"aw",%nobits
  24              		.align	2
  25              		.type	buffer, %object
  26              		.size	buffer, 32
  27              	buffer:
  28 0000 00000000 		.space	32
  28      00000000 
  28      00000000 
  28      00000000 
  28      00000000 
  29              		.section	.bss.args,"aw",%nobits
  30              		.align	2
  31              		.type	args, %object
  32              		.size	args, 32
  33              	args:
  34 0000 00000000 		.space	32
  34      00000000 
  34      00000000 
  34      00000000 
  34      00000000 
  35              		.section	.text.cpu_io_init,"ax",%progbits
  36              		.align	2
  37              		.p2align 4,,15
  38              		.global	cpu_io_init
  39              		.thumb
  40              		.thumb_func
  41              		.type	cpu_io_init, %function
  42              	cpu_io_init:
  43              	.LFB62:
  44              		.file 1 "./src/cpu_io.c"
  45              		.loc 1 34 0
ARM GAS  C:\Users\z80\AppData\Local\Temp\ccudY4us.s 			page 2


  46              		.cfi_startproc
  47              		@ args = 0, pretend = 0, frame = 0
  48              		@ frame_needed = 0, uses_anonymous_args = 0
  49 0000 08B5     		push	{r3, lr}
  50              	.LCFI0:
  51              		.cfi_def_cfa_offset 8
  52              		.loc 1 36 0
  53 0002 40F20000 		movw	r0, #:lower16:SD1
  54 0006 C0F20000 		movt	r0, #:upper16:SD1
  55 000a 4FF00001 		mov	r1, #0
  56              		.cfi_offset 14, -4
  57              		.cfi_offset 3, -8
  58 000e FFF7FEFF 		bl	sdStart
  59              		.loc 1 37 0
  60 0012 08BD     		pop	{r3, pc}
  61              		.cfi_endproc
  62              	.LFE62:
  63              		.size	cpu_io_init, .-cpu_io_init
  64 0014 AFF30080 		.section	.text.cpu_io_process,"ax",%progbits
  64      AFF30080 
  64      AFF30080 
  65              		.align	2
  66              		.p2align 4,,15
  67              		.global	cpu_io_process
  68              		.thumb
  69              		.thumb_func
  70              		.type	cpu_io_process, %function
  71              	cpu_io_process:
  72              	.LFB63:
  73              		.loc 1 40 0
  74              		.cfi_startproc
  75              		@ args = 0, pretend = 0, frame = 8
  76              		@ frame_needed = 0, uses_anonymous_args = 0
  77 0000 00B5     		push	{lr}
  78              	.LCFI1:
  79              		.cfi_def_cfa_offset 4
  80 0002 83B0     		sub	sp, sp, #12
  81              	.LCFI2:
  82              		.cfi_def_cfa_offset 16
  83              		.loc 1 46 0
  84 0004 4248     		ldr	r0, .L12
  85 0006 4FF0FF31 		mov	r1, #-1
  86              		.cfi_offset 14, -4
  87 000a FFF7FEFF 		bl	chIQGetTimeout
  88 000e 0346     		mov	r3, r0
  89 0010 0193     		str	r3, [sp, #4]
  90              		.loc 1 47 0
  91 0012 019B     		ldr	r3, [sp, #4]
  92 0014 B3F1FF3F 		cmp	r3, #-1
  93 0018 03D0     		beq	.L3
  94              		.loc 1 47 0 is_stmt 0 discriminator 2
  95 001a 019B     		ldr	r3, [sp, #4]
  96 001c 13F1020F 		cmn	r3, #2
  97 0020 02D1     		bne	.L4
  98              	.L3:
  99              		.loc 1 47 0 discriminator 1
 100 0022 4FF00103 		mov	r3, #1
ARM GAS  C:\Users\z80\AppData\Local\Temp\ccudY4us.s 			page 3


 101 0026 01E0     		b	.L5
 102              	.L4:
 103 0028 4FF00003 		mov	r3, #0
 104              	.L5:
 105              		.loc 1 47 0 discriminator 3
 106 002c 8DF80330 		strb	r3, [sp, #3]
 107              		.loc 1 48 0 is_stmt 1 discriminator 3
 108 0030 9DF80330 		ldrb	r3, [sp, #3]	@ zero_extendqisi2
 109 0034 002B     		cmp	r3, #0
 110 0036 69D1     		bne	.L2
 111              	.LBB2:
 112              		.loc 1 50 0
 113 0038 019B     		ldr	r3, [sp, #4]
 114 003a 8DF80230 		strb	r3, [sp, #2]
 115              		.loc 1 52 0
 116 003e 40F20003 		movw	r3, #:lower16:slash.3686
 117 0042 C0F20003 		movt	r3, #:upper16:slash.3686
 118 0046 1B78     		ldrb	r3, [r3, #0]	@ zero_extendqisi2
 119 0048 002B     		cmp	r3, #0
 120 004a 37D1     		bne	.L7
 121              		.loc 1 54 0
 122 004c 9DF80230 		ldrb	r3, [sp, #2]	@ zero_extendqisi2
 123 0050 002B     		cmp	r3, #0
 124 0052 13D1     		bne	.L8
 125              		.loc 1 57 0
 126 0054 40F20003 		movw	r3, #:lower16:out_index.3687
 127 0058 C0F20003 		movt	r3, #:upper16:out_index.3687
 128 005c 1B68     		ldr	r3, [r3, #0]
 129 005e 40F20000 		movw	r0, #:lower16:buffer
 130 0062 C0F20000 		movt	r0, #:upper16:buffer
 131 0066 1946     		mov	r1, r3
 132 0068 FFF7FEFF 		bl	process_command
 133              		.loc 1 58 0
 134 006c 40F20003 		movw	r3, #:lower16:out_index.3687
 135 0070 C0F20003 		movt	r3, #:upper16:out_index.3687
 136 0074 4FF00002 		mov	r2, #0
 137 0078 1A60     		str	r2, [r3, #0]
 138              		.loc 1 63 0
 139 007a 39E0     		b	.L11
 140              	.L8:
 141              		.loc 1 60 0
 142 007c 9DF80230 		ldrb	r3, [sp, #2]	@ zero_extendqisi2
 143 0080 5C2B     		cmp	r3, #92
 144 0082 13D0     		beq	.L10
 145              		.loc 1 61 0
 146 0084 40F20003 		movw	r3, #:lower16:out_index.3687
 147 0088 C0F20003 		movt	r3, #:upper16:out_index.3687
 148 008c 1A68     		ldr	r2, [r3, #0]
 149 008e 40F20003 		movw	r3, #:lower16:buffer
 150 0092 C0F20003 		movt	r3, #:upper16:buffer
 151 0096 9DF80210 		ldrb	r1, [sp, #2]
 152 009a 9954     		strb	r1, [r3, r2]
 153 009c 02F10102 		add	r2, r2, #1
 154 00a0 40F20003 		movw	r3, #:lower16:out_index.3687
 155 00a4 C0F20003 		movt	r3, #:upper16:out_index.3687
 156 00a8 1A60     		str	r2, [r3, #0]
 157              		.loc 1 63 0
ARM GAS  C:\Users\z80\AppData\Local\Temp\ccudY4us.s 			page 4


 158 00aa 21E0     		b	.L11
 159              	.L10:
 160 00ac 40F20003 		movw	r3, #:lower16:slash.3686
 161 00b0 C0F20003 		movt	r3, #:upper16:slash.3686
 162 00b4 4FF00102 		mov	r2, #1
 163 00b8 1A70     		strb	r2, [r3, #0]
 164 00ba 19E0     		b	.L11
 165              	.L7:
 166              		.loc 1 67 0
 167 00bc 40F20003 		movw	r3, #:lower16:slash.3686
 168 00c0 C0F20003 		movt	r3, #:upper16:slash.3686
 169 00c4 4FF00002 		mov	r2, #0
 170 00c8 1A70     		strb	r2, [r3, #0]
 171              		.loc 1 68 0
 172 00ca 40F20003 		movw	r3, #:lower16:out_index.3687
 173 00ce C0F20003 		movt	r3, #:upper16:out_index.3687
 174 00d2 1A68     		ldr	r2, [r3, #0]
 175 00d4 40F20003 		movw	r3, #:lower16:buffer
 176 00d8 C0F20003 		movt	r3, #:upper16:buffer
 177 00dc 9DF80210 		ldrb	r1, [sp, #2]
 178 00e0 9954     		strb	r1, [r3, r2]
 179 00e2 02F10102 		add	r2, r2, #1
 180 00e6 40F20003 		movw	r3, #:lower16:out_index.3687
 181 00ea C0F20003 		movt	r3, #:upper16:out_index.3687
 182 00ee 1A60     		str	r2, [r3, #0]
 183              	.L11:
 184              		.loc 1 71 0
 185 00f0 40F20003 		movw	r3, #:lower16:out_index.3687
 186 00f4 C0F20003 		movt	r3, #:upper16:out_index.3687
 187 00f8 1B68     		ldr	r3, [r3, #0]
 188 00fa 202B     		cmp	r3, #32
 189 00fc B4BF     		ite	lt
 190 00fe 1A46     		movlt	r2, r3
 191 0100 2022     		movge	r2, #32
 192 0102 40F20003 		movw	r3, #:lower16:out_index.3687
 193 0106 C0F20003 		movt	r3, #:upper16:out_index.3687
 194 010a 1A60     		str	r2, [r3, #0]
 195              	.L2:
 196              	.LBE2:
 197              		.loc 1 73 0
 198 010c 03B0     		add	sp, sp, #12
 199 010e 00BD     		pop	{pc}
 200              	.L13:
 201              		.align	2
 202              	.L12:
 203 0110 10000000 		.word	SD1+16
 204              		.cfi_endproc
 205              	.LFE63:
 206              		.size	cpu_io_process, .-cpu_io_process
 207 0114 AFF30080 		.section	.text.funcArgs,"ax",%progbits
 207      AFF30080 
 207      AFF30080 
 208              		.align	2
 209              		.p2align 4,,15
 210              		.global	funcArgs
 211              		.thumb
 212              		.thumb_func
ARM GAS  C:\Users\z80\AppData\Local\Temp\ccudY4us.s 			page 5


 213              		.type	funcArgs, %function
 214              	funcArgs:
 215              	.LFB64:
 216              		.loc 1 76 0
 217              		.cfi_startproc
 218              		@ args = 0, pretend = 0, frame = 0
 219              		@ frame_needed = 0, uses_anonymous_args = 0
 220              		@ link register save eliminated.
 221              		.loc 1 77 0
 222 0000 40F20003 		movw	r3, #:lower16:args
 223 0004 C0F20003 		movt	r3, #:upper16:args
 224              		.loc 1 78 0
 225 0008 1846     		mov	r0, r3
 226 000a 7047     		bx	lr
 227              		.cfi_endproc
 228              	.LFE64:
 229              		.size	funcArgs, .-funcArgs
 230 000c AFF30080 		.section	.text.process_command,"ax",%progbits
 231              		.align	2
 232              		.p2align 4,,15
 233              		.thumb
 234              		.thumb_func
 235              		.type	process_command, %function
 236              	process_command:
 237              	.LFB65:
 238              		.loc 1 83 0
 239              		.cfi_startproc
 240              		@ args = 0, pretend = 0, frame = 24
 241              		@ frame_needed = 0, uses_anonymous_args = 0
 242 0000 00B5     		push	{lr}
 243              	.LCFI3:
 244              		.cfi_def_cfa_offset 4
 245 0002 87B0     		sub	sp, sp, #28
 246              	.LCFI4:
 247              		.cfi_def_cfa_offset 32
 248 0004 0190     		str	r0, [sp, #4]
 249 0006 0091     		str	r1, [sp, #0]
 250              		.loc 1 86 0
 251 0008 019B     		ldr	r3, [sp, #4]
 252 000a 1B78     		ldrb	r3, [r3, #0]
 253 000c 8DF81330 		strb	r3, [sp, #19]
 254              		.loc 1 87 0
 255 0010 019B     		ldr	r3, [sp, #4]
 256 0012 03F10103 		add	r3, r3, #1
 257 0016 0393     		str	r3, [sp, #12]
 258              		.loc 1 88 0
 259 0018 9DF81330 		ldrb	r3, [sp, #19]	@ zero_extendqisi2
 260 001c 012B     		cmp	r3, #1
 261 001e 02D0     		beq	.L17
 262              		.cfi_offset 14, -4
 263 0020 022B     		cmp	r3, #2
 264 0022 1AD0     		beq	.L18
 265 0024 1CE0     		b	.L15
 266              	.L17:
 267              		.loc 1 91 0
 268 0026 4FF00003 		mov	r3, #0
 269 002a 0593     		str	r3, [sp, #20]
ARM GAS  C:\Users\z80\AppData\Local\Temp\ccudY4us.s 			page 6


 270 002c 0EE0     		b	.L19
 271              	.L20:
 272              		.loc 1 92 0 discriminator 2
 273 002e 059B     		ldr	r3, [sp, #20]
 274 0030 039A     		ldr	r2, [sp, #12]
 275 0032 1344     		add	r3, r2, r3
 276 0034 1A78     		ldrb	r2, [r3, #0]	@ zero_extendqisi2
 277 0036 40F20003 		movw	r3, #:lower16:args
 278 003a C0F20003 		movt	r3, #:upper16:args
 279 003e 0599     		ldr	r1, [sp, #20]
 280 0040 0B44     		add	r3, r3, r1
 281 0042 1A70     		strb	r2, [r3, #0]
 282              		.loc 1 91 0 discriminator 2
 283 0044 059B     		ldr	r3, [sp, #20]
 284 0046 03F10103 		add	r3, r3, #1
 285 004a 0593     		str	r3, [sp, #20]
 286              	.L19:
 287              		.loc 1 91 0 is_stmt 0 discriminator 1
 288 004c 009B     		ldr	r3, [sp, #0]
 289 004e 03F1FF32 		add	r2, r3, #-1
 290 0052 059B     		ldr	r3, [sp, #20]
 291 0054 9A42     		cmp	r2, r3
 292 0056 EADC     		bgt	.L20
 293              		.loc 1 93 0 is_stmt 1
 294 0058 02E0     		b	.L15
 295              	.L18:
 296              		.loc 1 96 0
 297 005a FFF7FEFF 		bl	exec_func
 298              		.loc 1 97 0
 299 005e 00BF     		nop
 300              	.L15:
 301              		.loc 1 99 0
 302 0060 07B0     		add	sp, sp, #28
 303 0062 00BD     		pop	{pc}
 304              		.cfi_endproc
 305              	.LFE65:
 306              		.size	process_command, .-process_command
 307 0064 AFF30080 		.section	.data.funcs,"aw",%progbits
 307      AFF30080 
 307      AFF30080 
 308              		.align	2
 309              		.type	funcs, %object
 310              		.size	funcs, 52
 311              	funcs:
 312 0000 00000000 		.word	osc_eaux
 313 0004 00000000 		.word	osc_eref
 314 0008 00000000 		.word	osc_iaux
 315 000c 00000000 		.word	osc_set_period
 316 0010 00000000 		.word	set_leds
 317 0014 00000000 		.word	set_out_relay
 318 0018 00000000 		.word	set_sc_relay
 319 001c 00000000 		.word	set_dac
 320 0020 00000000 		.word	set_one_pulse
 321 0024 00000000 		.word	set_meandr
 322 0028 00000000 		.word	set_sweep
 323 002c 00000000 		.word	hardware_version
 324 0030 00000000 		.word	firmware_version
ARM GAS  C:\Users\z80\AppData\Local\Temp\ccudY4us.s 			page 7


 325              		.section	.text.exec_func,"ax",%progbits
 326              		.align	2
 327              		.p2align 4,,15
 328              		.thumb
 329              		.thumb_func
 330              		.type	exec_func, %function
 331              	exec_func:
 332              	.LFB66:
 333              		.loc 1 133 0
 334              		.cfi_startproc
 335              		@ args = 0, pretend = 0, frame = 8
 336              		@ frame_needed = 0, uses_anonymous_args = 0
 337 0000 00B5     		push	{lr}
 338              	.LCFI5:
 339              		.cfi_def_cfa_offset 4
 340 0002 83B0     		sub	sp, sp, #12
 341              	.LCFI6:
 342              		.cfi_def_cfa_offset 16
 343              		.loc 1 134 0
 344 0004 40F20003 		movw	r3, #:lower16:buffer
 345 0008 C0F20003 		movt	r3, #:upper16:buffer
 346 000c 5B78     		ldrb	r3, [r3, #1]	@ zero_extendqisi2
 347 000e 0193     		str	r3, [sp, #4]
 348              		.loc 1 136 0
 349 0010 4FF00D03 		mov	r3, #13
 350 0014 0093     		str	r3, [sp, #0]
 351              		.loc 1 137 0
 352 0016 019A     		ldr	r2, [sp, #4]
 353 0018 009B     		ldr	r3, [sp, #0]
 354 001a 9A42     		cmp	r2, r3
 355 001c 01DA     		bge	.L22
 356              		.cfi_offset 14, -4
 357              		.loc 1 137 0 is_stmt 0 discriminator 1
 358 001e 019B     		ldr	r3, [sp, #4]
 359 0020 01E0     		b	.L23
 360              	.L22:
 361              		.loc 1 137 0 discriminator 2
 362 0022 4FF00003 		mov	r3, #0
 363              	.L23:
 364              		.loc 1 137 0 discriminator 3
 365 0026 0193     		str	r3, [sp, #4]
 366              		.loc 1 138 0 is_stmt 1 discriminator 3
 367 0028 40F20003 		movw	r3, #:lower16:funcs
 368 002c C0F20003 		movt	r3, #:upper16:funcs
 369 0030 019A     		ldr	r2, [sp, #4]
 370 0032 53F82230 		ldr	r3, [r3, r2, lsl #2]
 371 0036 40F20000 		movw	r0, #:lower16:args
 372 003a C0F20000 		movt	r0, #:upper16:args
 373 003e 9847     		blx	r3
 374              		.loc 1 139 0 discriminator 3
 375 0040 03B0     		add	sp, sp, #12
 376 0042 00BD     		pop	{pc}
 377              		.cfi_endproc
 378              	.LFE66:
 379              		.size	exec_func, .-exec_func
 380 0044 AFF30080 		.section	.text.writeOscQueue,"ax",%progbits
 380      AFF30080 
ARM GAS  C:\Users\z80\AppData\Local\Temp\ccudY4us.s 			page 8


 380      AFF30080 
 381              		.align	2
 382              		.p2align 4,,15
 383              		.thumb
 384              		.thumb_func
 385              		.type	writeOscQueue, %function
 386              	writeOscQueue:
 387              	.LFB67:
 388              		.loc 1 142 0
 389              		.cfi_startproc
 390              		@ args = 0, pretend = 0, frame = 24
 391              		@ frame_needed = 0, uses_anonymous_args = 0
 392 0000 00B5     		push	{lr}
 393              	.LCFI7:
 394              		.cfi_def_cfa_offset 4
 395 0002 87B0     		sub	sp, sp, #28
 396              	.LCFI8:
 397              		.cfi_def_cfa_offset 32
 398 0004 0190     		str	r0, [sp, #4]
 399              	.LBB3:
 400              		.loc 1 146 0
 401 0006 4FF02003 		mov	r3, #32
 402              	@ 146 "./src/cpu_io.c" 1
 403 000a 83F31188 		msr     BASEPRI, r3
 404              	@ 0 "" 2
 405              		.thumb
 406              	.LBE3:
 407              		.cfi_offset 14, -4
 408 000e FFF7FEFF 		bl	dbg_check_lock
 409              		.loc 1 147 0
 410 0012 019B     		ldr	r3, [sp, #4]
 411 0014 9B68     		ldr	r3, [r3, #8]
 412 0016 4FEA5303 		lsr	r3, r3, #1
 413 001a 4FEA4303 		lsl	r3, r3, #1
 414 001e 0493     		str	r3, [sp, #16]
 415              		.loc 1 148 0
 416 0020 FFF7FEFF 		bl	dbg_check_unlock
 417              	.LBB4:
 418 0024 4FF00003 		mov	r3, #0
 419              	@ 148 "./src/cpu_io.c" 1
 420 0028 83F31188 		msr     BASEPRI, r3
 421              	@ 0 "" 2
 422              		.thumb
 423              	.LBE4:
 424              		.loc 1 149 0
 425 002c 4FF00003 		mov	r3, #0
 426 0030 0593     		str	r3, [sp, #20]
 427 0032 29E0     		b	.L25
 428              	.L31:
 429              	.LBB5:
 430              		.loc 1 151 0
 431 0034 0198     		ldr	r0, [sp, #4]
 432 0036 4FF00001 		mov	r1, #0
 433 003a FFF7FEFF 		bl	chIQGetTimeout
 434 003e 0346     		mov	r3, r0
 435 0040 0393     		str	r3, [sp, #12]
 436              		.loc 1 152 0
ARM GAS  C:\Users\z80\AppData\Local\Temp\ccudY4us.s 			page 9


 437 0042 039B     		ldr	r3, [sp, #12]
 438 0044 B3F1FF3F 		cmp	r3, #-1
 439 0048 03D0     		beq	.L26
 440              		.loc 1 152 0 is_stmt 0 discriminator 2
 441 004a 039B     		ldr	r3, [sp, #12]
 442 004c 13F1020F 		cmn	r3, #2
 443 0050 02D1     		bne	.L27
 444              	.L26:
 445              		.loc 1 152 0 discriminator 1
 446 0052 4FF00103 		mov	r3, #1
 447 0056 01E0     		b	.L28
 448              	.L27:
 449 0058 4FF00003 		mov	r3, #0
 450              	.L28:
 451              		.loc 1 152 0 discriminator 3
 452 005c 8DF80B30 		strb	r3, [sp, #11]
 453              		.loc 1 154 0 is_stmt 1 discriminator 3
 454 0060 9DF80B30 		ldrb	r3, [sp, #11]	@ zero_extendqisi2
 455 0064 002B     		cmp	r3, #0
 456 0066 02D1     		bne	.L29
 457              		.loc 1 154 0 is_stmt 0 discriminator 1
 458 0068 039B     		ldr	r3, [sp, #12]
 459 006a DBB2     		uxtb	r3, r3
 460 006c 01E0     		b	.L30
 461              	.L29:
 462              		.loc 1 154 0 discriminator 2
 463 006e 4FF00003 		mov	r3, #0
 464              	.L30:
 465              		.loc 1 154 0 discriminator 3
 466 0072 8DF80A30 		strb	r3, [sp, #10]
 467              		.loc 1 155 0 is_stmt 1 discriminator 3
 468 0076 9DF80A30 		ldrb	r3, [sp, #10]	@ zero_extendqisi2
 469 007a 1846     		mov	r0, r3
 470 007c FFF7FEFF 		bl	writeResult
 471              	.LBE5:
 472              		.loc 1 149 0 discriminator 3
 473 0080 059B     		ldr	r3, [sp, #20]
 474 0082 03F10103 		add	r3, r3, #1
 475 0086 0593     		str	r3, [sp, #20]
 476              	.L25:
 477              		.loc 1 149 0 is_stmt 0 discriminator 1
 478 0088 059A     		ldr	r2, [sp, #20]
 479 008a 049B     		ldr	r3, [sp, #16]
 480 008c 9A42     		cmp	r2, r3
 481 008e D1D3     		bcc	.L31
 482              		.loc 1 157 0 is_stmt 1
 483 0090 FFF7FEFF 		bl	writeEom
 484              		.loc 1 158 0
 485 0094 07B0     		add	sp, sp, #28
 486 0096 00BD     		pop	{pc}
 487              		.cfi_endproc
 488              	.LFE67:
 489              		.size	writeOscQueue, .-writeOscQueue
 490 0098 AFF30080 		.section	.text.osc_eaux,"ax",%progbits
 490      AFF30080 
 491              		.align	2
 492              		.p2align 4,,15
ARM GAS  C:\Users\z80\AppData\Local\Temp\ccudY4us.s 			page 10


 493              		.thumb
 494              		.thumb_func
 495              		.type	osc_eaux, %function
 496              	osc_eaux:
 497              	.LFB68:
 498              		.loc 1 161 0
 499              		.cfi_startproc
 500              		@ args = 0, pretend = 0, frame = 16
 501              		@ frame_needed = 0, uses_anonymous_args = 0
 502 0000 00B5     		push	{lr}
 503              	.LCFI9:
 504              		.cfi_def_cfa_offset 4
 505 0002 85B0     		sub	sp, sp, #20
 506              	.LCFI10:
 507              		.cfi_def_cfa_offset 24
 508 0004 0190     		str	r0, [sp, #4]
 509              		.loc 1 163 0
 510              		.cfi_offset 14, -4
 511 0006 FFF7FEFF 		bl	eauxQueue
 512 000a 0346     		mov	r3, r0
 513 000c 0393     		str	r3, [sp, #12]
 514              		.loc 1 164 0
 515 000e 0398     		ldr	r0, [sp, #12]
 516 0010 FFF7FEFF 		bl	writeOscQueue
 517              		.loc 1 165 0
 518 0014 05B0     		add	sp, sp, #20
 519 0016 00BD     		pop	{pc}
 520              		.cfi_endproc
 521              	.LFE68:
 522              		.size	osc_eaux, .-osc_eaux
 523 0018 AFF30080 		.section	.text.osc_eref,"ax",%progbits
 523      AFF30080 
 524              		.align	2
 525              		.p2align 4,,15
 526              		.thumb
 527              		.thumb_func
 528              		.type	osc_eref, %function
 529              	osc_eref:
 530              	.LFB69:
 531              		.loc 1 168 0
 532              		.cfi_startproc
 533              		@ args = 0, pretend = 0, frame = 16
 534              		@ frame_needed = 0, uses_anonymous_args = 0
 535 0000 00B5     		push	{lr}
 536              	.LCFI11:
 537              		.cfi_def_cfa_offset 4
 538 0002 85B0     		sub	sp, sp, #20
 539              	.LCFI12:
 540              		.cfi_def_cfa_offset 24
 541 0004 0190     		str	r0, [sp, #4]
 542              		.loc 1 170 0
 543              		.cfi_offset 14, -4
 544 0006 FFF7FEFF 		bl	erefQueue
 545 000a 0346     		mov	r3, r0
 546 000c 0393     		str	r3, [sp, #12]
 547              		.loc 1 171 0
 548 000e 0398     		ldr	r0, [sp, #12]
ARM GAS  C:\Users\z80\AppData\Local\Temp\ccudY4us.s 			page 11


 549 0010 FFF7FEFF 		bl	writeOscQueue
 550              		.loc 1 172 0
 551 0014 05B0     		add	sp, sp, #20
 552 0016 00BD     		pop	{pc}
 553              		.cfi_endproc
 554              	.LFE69:
 555              		.size	osc_eref, .-osc_eref
 556 0018 AFF30080 		.section	.text.osc_iaux,"ax",%progbits
 556      AFF30080 
 557              		.align	2
 558              		.p2align 4,,15
 559              		.thumb
 560              		.thumb_func
 561              		.type	osc_iaux, %function
 562              	osc_iaux:
 563              	.LFB70:
 564              		.loc 1 175 0
 565              		.cfi_startproc
 566              		@ args = 0, pretend = 0, frame = 16
 567              		@ frame_needed = 0, uses_anonymous_args = 0
 568 0000 00B5     		push	{lr}
 569              	.LCFI13:
 570              		.cfi_def_cfa_offset 4
 571 0002 85B0     		sub	sp, sp, #20
 572              	.LCFI14:
 573              		.cfi_def_cfa_offset 24
 574 0004 0190     		str	r0, [sp, #4]
 575              		.loc 1 177 0
 576              		.cfi_offset 14, -4
 577 0006 FFF7FEFF 		bl	iauxQueue
 578 000a 0346     		mov	r3, r0
 579 000c 0393     		str	r3, [sp, #12]
 580              		.loc 1 178 0
 581 000e 0398     		ldr	r0, [sp, #12]
 582 0010 FFF7FEFF 		bl	writeOscQueue
 583              		.loc 1 179 0
 584 0014 05B0     		add	sp, sp, #20
 585 0016 00BD     		pop	{pc}
 586              		.cfi_endproc
 587              	.LFE70:
 588              		.size	osc_iaux, .-osc_iaux
 589 0018 AFF30080 		.section	.text.osc_set_period,"ax",%progbits
 589      AFF30080 
 590              		.align	2
 591              		.p2align 4,,15
 592              		.thumb
 593              		.thumb_func
 594              		.type	osc_set_period, %function
 595              	osc_set_period:
 596              	.LFB71:
 597              		.loc 1 182 0
 598              		.cfi_startproc
 599              		@ args = 0, pretend = 0, frame = 16
 600              		@ frame_needed = 0, uses_anonymous_args = 0
 601 0000 00B5     		push	{lr}
 602              	.LCFI15:
 603              		.cfi_def_cfa_offset 4
ARM GAS  C:\Users\z80\AppData\Local\Temp\ccudY4us.s 			page 12


 604 0002 85B0     		sub	sp, sp, #20
 605              	.LCFI16:
 606              		.cfi_def_cfa_offset 24
 607 0004 0190     		str	r0, [sp, #4]
 608              		.loc 1 185 0
 609 0006 019B     		ldr	r3, [sp, #4]
 610 0008 1B78     		ldrb	r3, [r3, #0]	@ zero_extendqisi2
 611 000a 1A46     		mov	r2, r3
 612              		.loc 1 186 0
 613 000c 019B     		ldr	r3, [sp, #4]
 614 000e 03F10103 		add	r3, r3, #1
 615 0012 1B78     		ldrb	r3, [r3, #0]	@ zero_extendqisi2
 616 0014 4FEA0323 		lsl	r3, r3, #8
 617              		.loc 1 185 0
 618 0018 1A44     		add	r2, r2, r3
 619              		.loc 1 187 0
 620 001a 019B     		ldr	r3, [sp, #4]
 621 001c 03F10203 		add	r3, r3, #2
 622 0020 1B78     		ldrb	r3, [r3, #0]	@ zero_extendqisi2
 623 0022 4FEA0343 		lsl	r3, r3, #16
 624              		.loc 1 186 0
 625 0026 1A44     		add	r2, r2, r3
 626              		.loc 1 188 0
 627 0028 019B     		ldr	r3, [sp, #4]
 628 002a 03F10303 		add	r3, r3, #3
 629 002e 1B78     		ldrb	r3, [r3, #0]	@ zero_extendqisi2
 630 0030 4FEA0363 		lsl	r3, r3, #24
 631              		.loc 1 185 0
 632 0034 1344     		add	r3, r2, r3
 633 0036 0393     		str	r3, [sp, #12]
 634              		.loc 1 189 0
 635 0038 0398     		ldr	r0, [sp, #12]
 636              		.cfi_offset 14, -4
 637 003a FFF7FEFF 		bl	setOscPeriod
 638              		.loc 1 190 0
 639 003e 05B0     		add	sp, sp, #20
 640 0040 00BD     		pop	{pc}
 641              		.cfi_endproc
 642              	.LFE71:
 643              		.size	osc_set_period, .-osc_set_period
 644 0042 00BFAFF3 		.section	.text.set_leds,"ax",%progbits
 644      0080AFF3 
 644      0080AFF3 
 644      0080
 645              		.align	2
 646              		.p2align 4,,15
 647              		.thumb
 648              		.thumb_func
 649              		.type	set_leds, %function
 650              	set_leds:
 651              	.LFB72:
 652              		.loc 1 193 0
 653              		.cfi_startproc
 654              		@ args = 0, pretend = 0, frame = 8
 655              		@ frame_needed = 0, uses_anonymous_args = 0
 656 0000 00B5     		push	{lr}
 657              	.LCFI17:
ARM GAS  C:\Users\z80\AppData\Local\Temp\ccudY4us.s 			page 13


 658              		.cfi_def_cfa_offset 4
 659 0002 83B0     		sub	sp, sp, #12
 660              	.LCFI18:
 661              		.cfi_def_cfa_offset 16
 662 0004 0190     		str	r0, [sp, #4]
 663              		.loc 1 194 0
 664 0006 019B     		ldr	r3, [sp, #4]
 665 0008 1B78     		ldrb	r3, [r3, #0]	@ zero_extendqisi2
 666 000a 1846     		mov	r0, r3
 667              		.cfi_offset 14, -4
 668 000c FFF7FEFF 		bl	setLeds
 669              		.loc 1 195 0
 670 0010 03B0     		add	sp, sp, #12
 671 0012 00BD     		pop	{pc}
 672              		.cfi_endproc
 673              	.LFE72:
 674              		.size	set_leds, .-set_leds
 675 0014 AFF30080 		.section	.text.set_out_relay,"ax",%progbits
 675      AFF30080 
 675      AFF30080 
 676              		.align	2
 677              		.p2align 4,,15
 678              		.thumb
 679              		.thumb_func
 680              		.type	set_out_relay, %function
 681              	set_out_relay:
 682              	.LFB73:
 683              		.loc 1 198 0
 684              		.cfi_startproc
 685              		@ args = 0, pretend = 0, frame = 8
 686              		@ frame_needed = 0, uses_anonymous_args = 0
 687 0000 00B5     		push	{lr}
 688              	.LCFI19:
 689              		.cfi_def_cfa_offset 4
 690 0002 83B0     		sub	sp, sp, #12
 691              	.LCFI20:
 692              		.cfi_def_cfa_offset 16
 693 0004 0190     		str	r0, [sp, #4]
 694              		.loc 1 199 0
 695 0006 019B     		ldr	r3, [sp, #4]
 696 0008 1B78     		ldrb	r3, [r3, #0]	@ zero_extendqisi2
 697 000a 1846     		mov	r0, r3
 698              		.cfi_offset 14, -4
 699 000c FFF7FEFF 		bl	setOutRelay
 700              		.loc 1 200 0
 701 0010 03B0     		add	sp, sp, #12
 702 0012 00BD     		pop	{pc}
 703              		.cfi_endproc
 704              	.LFE73:
 705              		.size	set_out_relay, .-set_out_relay
 706 0014 AFF30080 		.section	.text.set_sc_relay,"ax",%progbits
 706      AFF30080 
 706      AFF30080 
 707              		.align	2
 708              		.p2align 4,,15
 709              		.thumb
 710              		.thumb_func
ARM GAS  C:\Users\z80\AppData\Local\Temp\ccudY4us.s 			page 14


 711              		.type	set_sc_relay, %function
 712              	set_sc_relay:
 713              	.LFB74:
 714              		.loc 1 203 0
 715              		.cfi_startproc
 716              		@ args = 0, pretend = 0, frame = 8
 717              		@ frame_needed = 0, uses_anonymous_args = 0
 718 0000 00B5     		push	{lr}
 719              	.LCFI21:
 720              		.cfi_def_cfa_offset 4
 721 0002 83B0     		sub	sp, sp, #12
 722              	.LCFI22:
 723              		.cfi_def_cfa_offset 16
 724 0004 0190     		str	r0, [sp, #4]
 725              		.loc 1 204 0
 726 0006 019B     		ldr	r3, [sp, #4]
 727 0008 1B78     		ldrb	r3, [r3, #0]	@ zero_extendqisi2
 728 000a 1846     		mov	r0, r3
 729              		.cfi_offset 14, -4
 730 000c FFF7FEFF 		bl	setScRelay
 731              		.loc 1 205 0
 732 0010 03B0     		add	sp, sp, #12
 733 0012 00BD     		pop	{pc}
 734              		.cfi_endproc
 735              	.LFE74:
 736              		.size	set_sc_relay, .-set_sc_relay
 737 0014 AFF30080 		.section	.text.set_dac,"ax",%progbits
 737      AFF30080 
 737      AFF30080 
 738              		.align	2
 739              		.p2align 4,,15
 740              		.thumb
 741              		.thumb_func
 742              		.type	set_dac, %function
 743              	set_dac:
 744              	.LFB75:
 745              		.loc 1 208 0
 746              		.cfi_startproc
 747              		@ args = 0, pretend = 0, frame = 16
 748              		@ frame_needed = 0, uses_anonymous_args = 0
 749 0000 00B5     		push	{lr}
 750              	.LCFI23:
 751              		.cfi_def_cfa_offset 4
 752 0002 85B0     		sub	sp, sp, #20
 753              	.LCFI24:
 754              		.cfi_def_cfa_offset 24
 755 0004 0190     		str	r0, [sp, #4]
 756              		.loc 1 210 0
 757              		.cfi_offset 14, -4
 758 0006 FFF7FEFF 		bl	commandQueue
 759 000a 0346     		mov	r3, r0
 760 000c 0393     		str	r3, [sp, #12]
 761              		.loc 1 211 0
 762 000e 0398     		ldr	r0, [sp, #12]
 763 0010 4FF00001 		mov	r1, #0
 764 0014 4FF0FF32 		mov	r2, #-1
 765 0018 FFF7FEFF 		bl	chOQPutTimeout
ARM GAS  C:\Users\z80\AppData\Local\Temp\ccudY4us.s 			page 15


 766              		.loc 1 212 0
 767 001c 05B0     		add	sp, sp, #20
 768 001e 00BD     		pop	{pc}
 769              		.cfi_endproc
 770              	.LFE75:
 771              		.size	set_dac, .-set_dac
 772              		.section	.text.set_one_pulse,"ax",%progbits
 773              		.align	2
 774              		.p2align 4,,15
 775              		.thumb
 776              		.thumb_func
 777              		.type	set_one_pulse, %function
 778              	set_one_pulse:
 779              	.LFB76:
 780              		.loc 1 215 0
 781              		.cfi_startproc
 782              		@ args = 0, pretend = 0, frame = 16
 783              		@ frame_needed = 0, uses_anonymous_args = 0
 784 0000 00B5     		push	{lr}
 785              	.LCFI25:
 786              		.cfi_def_cfa_offset 4
 787 0002 85B0     		sub	sp, sp, #20
 788              	.LCFI26:
 789              		.cfi_def_cfa_offset 24
 790 0004 0190     		str	r0, [sp, #4]
 791              		.loc 1 217 0
 792              		.cfi_offset 14, -4
 793 0006 FFF7FEFF 		bl	commandQueue
 794 000a 0346     		mov	r3, r0
 795 000c 0393     		str	r3, [sp, #12]
 796              		.loc 1 218 0
 797 000e 0398     		ldr	r0, [sp, #12]
 798 0010 4FF00101 		mov	r1, #1
 799 0014 4FF0FF32 		mov	r2, #-1
 800 0018 FFF7FEFF 		bl	chOQPutTimeout
 801              		.loc 1 219 0
 802 001c 05B0     		add	sp, sp, #20
 803 001e 00BD     		pop	{pc}
 804              		.cfi_endproc
 805              	.LFE76:
 806              		.size	set_one_pulse, .-set_one_pulse
 807              		.section	.text.set_meandr,"ax",%progbits
 808              		.align	2
 809              		.p2align 4,,15
 810              		.thumb
 811              		.thumb_func
 812              		.type	set_meandr, %function
 813              	set_meandr:
 814              	.LFB77:
 815              		.loc 1 222 0
 816              		.cfi_startproc
 817              		@ args = 0, pretend = 0, frame = 16
 818              		@ frame_needed = 0, uses_anonymous_args = 0
 819 0000 00B5     		push	{lr}
 820              	.LCFI27:
 821              		.cfi_def_cfa_offset 4
 822 0002 85B0     		sub	sp, sp, #20
ARM GAS  C:\Users\z80\AppData\Local\Temp\ccudY4us.s 			page 16


 823              	.LCFI28:
 824              		.cfi_def_cfa_offset 24
 825 0004 0190     		str	r0, [sp, #4]
 826              		.loc 1 224 0
 827              		.cfi_offset 14, -4
 828 0006 FFF7FEFF 		bl	commandQueue
 829 000a 0346     		mov	r3, r0
 830 000c 0393     		str	r3, [sp, #12]
 831              		.loc 1 225 0
 832 000e 0398     		ldr	r0, [sp, #12]
 833 0010 4FF00201 		mov	r1, #2
 834 0014 4FF0FF32 		mov	r2, #-1
 835 0018 FFF7FEFF 		bl	chOQPutTimeout
 836              		.loc 1 226 0
 837 001c 05B0     		add	sp, sp, #20
 838 001e 00BD     		pop	{pc}
 839              		.cfi_endproc
 840              	.LFE77:
 841              		.size	set_meandr, .-set_meandr
 842              		.section	.text.set_sweep,"ax",%progbits
 843              		.align	2
 844              		.p2align 4,,15
 845              		.thumb
 846              		.thumb_func
 847              		.type	set_sweep, %function
 848              	set_sweep:
 849              	.LFB78:
 850              		.loc 1 229 0
 851              		.cfi_startproc
 852              		@ args = 0, pretend = 0, frame = 16
 853              		@ frame_needed = 0, uses_anonymous_args = 0
 854 0000 00B5     		push	{lr}
 855              	.LCFI29:
 856              		.cfi_def_cfa_offset 4
 857 0002 85B0     		sub	sp, sp, #20
 858              	.LCFI30:
 859              		.cfi_def_cfa_offset 24
 860 0004 0190     		str	r0, [sp, #4]
 861              		.loc 1 231 0
 862              		.cfi_offset 14, -4
 863 0006 FFF7FEFF 		bl	commandQueue
 864 000a 0346     		mov	r3, r0
 865 000c 0393     		str	r3, [sp, #12]
 866              		.loc 1 232 0
 867 000e 0398     		ldr	r0, [sp, #12]
 868 0010 4FF00301 		mov	r1, #3
 869 0014 4FF0FF32 		mov	r2, #-1
 870 0018 FFF7FEFF 		bl	chOQPutTimeout
 871              		.loc 1 233 0
 872 001c 05B0     		add	sp, sp, #20
 873 001e 00BD     		pop	{pc}
 874              		.cfi_endproc
 875              	.LFE78:
 876              		.size	set_sweep, .-set_sweep
 877              		.section	.rodata
 878              		.align	2
 879              	.LC0:
ARM GAS  C:\Users\z80\AppData\Local\Temp\ccudY4us.s 			page 17


 880 0000 766F6C74 		.ascii	"voltamp-1.0.0\000"
 880      616D702D 
 880      312E302E 
 880      3000
 881              		.section	.text.hardware_version,"ax",%progbits
 882              		.align	2
 883              		.p2align 4,,15
 884              		.thumb
 885              		.thumb_func
 886              		.type	hardware_version, %function
 887              	hardware_version:
 888              	.LFB79:
 889              		.loc 1 236 0
 890              		.cfi_startproc
 891              		@ args = 0, pretend = 0, frame = 32
 892              		@ frame_needed = 0, uses_anonymous_args = 0
 893 0000 00B5     		push	{lr}
 894              	.LCFI31:
 895              		.cfi_def_cfa_offset 4
 896 0002 89B0     		sub	sp, sp, #36
 897              	.LCFI32:
 898              		.cfi_def_cfa_offset 40
 899 0004 0190     		str	r0, [sp, #4]
 900              		.loc 1 238 0
 901 0006 40F20003 		movw	r3, #:lower16:.LC0
 902 000a C0F20003 		movt	r3, #:upper16:.LC0
 903 000e 0DF1080C 		add	ip, sp, #8
 904 0012 0FCB     		ldmia	r3, {r0, r1, r2, r3}
 905 0014 ACE80700 		stmia	ip!, {r0, r1, r2}
 906 0018 ACF80030 		strh	r3, [ip, #0]	@ movhi
 907              		.loc 1 239 0
 908 001c 4FF00D03 		mov	r3, #13
 909 0020 0693     		str	r3, [sp, #24]
 910              		.loc 1 241 0
 911 0022 4FF00003 		mov	r3, #0
 912 0026 0793     		str	r3, [sp, #28]
 913 0028 0AE0     		b	.L44
 914              		.cfi_offset 14, -4
 915              	.L45:
 916              		.loc 1 242 0 discriminator 2
 917 002a 02AA     		add	r2, sp, #8
 918 002c 079B     		ldr	r3, [sp, #28]
 919 002e 1344     		add	r3, r2, r3
 920 0030 1B78     		ldrb	r3, [r3, #0]	@ zero_extendqisi2
 921 0032 1846     		mov	r0, r3
 922 0034 FFF7FEFF 		bl	writeResult
 923              		.loc 1 241 0 discriminator 2
 924 0038 079B     		ldr	r3, [sp, #28]
 925 003a 03F10103 		add	r3, r3, #1
 926 003e 0793     		str	r3, [sp, #28]
 927              	.L44:
 928              		.loc 1 241 0 is_stmt 0 discriminator 1
 929 0040 079A     		ldr	r2, [sp, #28]
 930 0042 069B     		ldr	r3, [sp, #24]
 931 0044 9A42     		cmp	r2, r3
 932 0046 F0DB     		blt	.L45
 933              		.loc 1 243 0 is_stmt 1
ARM GAS  C:\Users\z80\AppData\Local\Temp\ccudY4us.s 			page 18


 934 0048 FFF7FEFF 		bl	writeEom
 935              		.loc 1 244 0
 936 004c 09B0     		add	sp, sp, #36
 937 004e 00BD     		pop	{pc}
 938              		.cfi_endproc
 939              	.LFE79:
 940              		.size	hardware_version, .-hardware_version
 941              		.section	.rodata
 942 000e 0000     		.align	2
 943              	.LC1:
 944 0010 302E302E 		.ascii	"0.0.1\000"
 944      3100
 945 0016 0000     		.section	.text.firmware_version,"ax",%progbits
 946              		.align	2
 947              		.p2align 4,,15
 948              		.thumb
 949              		.thumb_func
 950              		.type	firmware_version, %function
 951              	firmware_version:
 952              	.LFB80:
 953              		.loc 1 247 0
 954              		.cfi_startproc
 955              		@ args = 0, pretend = 0, frame = 24
 956              		@ frame_needed = 0, uses_anonymous_args = 0
 957 0000 00B5     		push	{lr}
 958              	.LCFI33:
 959              		.cfi_def_cfa_offset 4
 960 0002 87B0     		sub	sp, sp, #28
 961              	.LCFI34:
 962              		.cfi_def_cfa_offset 32
 963 0004 0190     		str	r0, [sp, #4]
 964              		.loc 1 249 0
 965 0006 40F20002 		movw	r2, #:lower16:.LC1
 966 000a C0F20002 		movt	r2, #:upper16:.LC1
 967 000e 02AB     		add	r3, sp, #8
 968 0010 92E80300 		ldmia	r2, {r0, r1}
 969 0014 1860     		str	r0, [r3, #0]
 970 0016 03F10403 		add	r3, r3, #4
 971 001a 1980     		strh	r1, [r3, #0]	@ movhi
 972              		.loc 1 250 0
 973 001c 4FF00503 		mov	r3, #5
 974 0020 0493     		str	r3, [sp, #16]
 975              		.loc 1 252 0
 976 0022 4FF00003 		mov	r3, #0
 977 0026 0593     		str	r3, [sp, #20]
 978 0028 0AE0     		b	.L47
 979              		.cfi_offset 14, -4
 980              	.L48:
 981              		.loc 1 253 0 discriminator 2
 982 002a 02AA     		add	r2, sp, #8
 983 002c 059B     		ldr	r3, [sp, #20]
 984 002e 1344     		add	r3, r2, r3
 985 0030 1B78     		ldrb	r3, [r3, #0]	@ zero_extendqisi2
 986 0032 1846     		mov	r0, r3
 987 0034 FFF7FEFF 		bl	writeResult
 988              		.loc 1 252 0 discriminator 2
 989 0038 059B     		ldr	r3, [sp, #20]
ARM GAS  C:\Users\z80\AppData\Local\Temp\ccudY4us.s 			page 19


 990 003a 03F10103 		add	r3, r3, #1
 991 003e 0593     		str	r3, [sp, #20]
 992              	.L47:
 993              		.loc 1 252 0 is_stmt 0 discriminator 1
 994 0040 059A     		ldr	r2, [sp, #20]
 995 0042 049B     		ldr	r3, [sp, #16]
 996 0044 9A42     		cmp	r2, r3
 997 0046 F0DB     		blt	.L48
 998              		.loc 1 254 0 is_stmt 1
 999 0048 FFF7FEFF 		bl	writeEom
 1000              		.loc 1 255 0
 1001 004c 07B0     		add	sp, sp, #28
 1002 004e 00BD     		pop	{pc}
 1003              		.cfi_endproc
 1004              	.LFE80:
 1005              		.size	firmware_version, .-firmware_version
 1006              		.section	.text.writeResult,"ax",%progbits
 1007              		.align	2
 1008              		.p2align 4,,15
 1009              		.thumb
 1010              		.thumb_func
 1011              		.type	writeResult, %function
 1012              	writeResult:
 1013              	.LFB81:
 1014              		.loc 1 263 0
 1015              		.cfi_startproc
 1016              		@ args = 0, pretend = 0, frame = 8
 1017              		@ frame_needed = 0, uses_anonymous_args = 0
 1018 0000 00B5     		push	{lr}
 1019              	.LCFI35:
 1020              		.cfi_def_cfa_offset 4
 1021 0002 83B0     		sub	sp, sp, #12
 1022              	.LCFI36:
 1023              		.cfi_def_cfa_offset 16
 1024 0004 0346     		mov	r3, r0
 1025 0006 8DF80730 		strb	r3, [sp, #7]
 1026              		.loc 1 264 0
 1027 000a 9DF80730 		ldrb	r3, [sp, #7]	@ zero_extendqisi2
 1028 000e 002B     		cmp	r3, #0
 1029 0010 03D0     		beq	.L50
 1030              		.cfi_offset 14, -4
 1031              		.loc 1 264 0 is_stmt 0 discriminator 1
 1032 0012 9DF80730 		ldrb	r3, [sp, #7]	@ zero_extendqisi2
 1033 0016 5C2B     		cmp	r3, #92
 1034 0018 06D1     		bne	.L51
 1035              	.L50:
 1036              		.loc 1 265 0 is_stmt 1
 1037 001a 0848     		ldr	r0, .L52
 1038 001c 4FF05C01 		mov	r1, #92
 1039 0020 4FF0FF32 		mov	r2, #-1
 1040 0024 FFF7FEFF 		bl	chOQPutTimeout
 1041              	.L51:
 1042              		.loc 1 266 0
 1043 0028 9DF80730 		ldrb	r3, [sp, #7]	@ zero_extendqisi2
 1044 002c 0348     		ldr	r0, .L52
 1045 002e 1946     		mov	r1, r3
 1046 0030 4FF0FF32 		mov	r2, #-1
ARM GAS  C:\Users\z80\AppData\Local\Temp\ccudY4us.s 			page 20


 1047 0034 FFF7FEFF 		bl	chOQPutTimeout
 1048              		.loc 1 267 0
 1049 0038 03B0     		add	sp, sp, #12
 1050 003a 00BD     		pop	{pc}
 1051              	.L53:
 1052              		.align	2
 1053              	.L52:
 1054 003c 30000000 		.word	SD1+48
 1055              		.cfi_endproc
 1056              	.LFE81:
 1057              		.size	writeResult, .-writeResult
 1058              		.section	.text.writeEom,"ax",%progbits
 1059              		.align	2
 1060              		.p2align 4,,15
 1061              		.thumb
 1062              		.thumb_func
 1063              		.type	writeEom, %function
 1064              	writeEom:
 1065              	.LFB82:
 1066              		.loc 1 270 0
 1067              		.cfi_startproc
 1068              		@ args = 0, pretend = 0, frame = 0
 1069              		@ frame_needed = 0, uses_anonymous_args = 0
 1070 0000 08B5     		push	{r3, lr}
 1071              	.LCFI37:
 1072              		.cfi_def_cfa_offset 8
 1073              		.loc 1 271 0
 1074 0002 0448     		ldr	r0, .L55
 1075 0004 4FF00001 		mov	r1, #0
 1076 0008 4FF0FF32 		mov	r2, #-1
 1077              		.cfi_offset 14, -4
 1078              		.cfi_offset 3, -8
 1079 000c FFF7FEFF 		bl	chOQPutTimeout
 1080              		.loc 1 272 0
 1081 0010 08BD     		pop	{r3, pc}
 1082              	.L56:
 1083 0012 00BF     		.align	2
 1084              	.L55:
 1085 0014 30000000 		.word	SD1+48
 1086              		.cfi_endproc
 1087              	.LFE82:
 1088              		.size	writeEom, .-writeEom
 1089 0018 AFF30080 		.section	.bss.slash.3686,"aw",%nobits
 1089      AFF30080 
 1090              		.type	slash.3686, %object
 1091              		.size	slash.3686, 1
 1092              	slash.3686:
 1093 0000 00       		.space	1
 1094              		.section	.bss.out_index.3687,"aw",%nobits
 1095              		.align	2
 1096              		.type	out_index.3687, %object
 1097              		.size	out_index.3687, 4
 1098              	out_index.3687:
 1099 0000 00000000 		.space	4
 1100              		.text
 1101              	.Letext0:
 1102              		.section	.debug_loc,"",%progbits
ARM GAS  C:\Users\z80\AppData\Local\Temp\ccudY4us.s 			page 21


 1103              	.Ldebug_loc0:
 1104              	.LLST0:
 1105 0000 00000000 		.4byte	.LFB62
 1106 0004 02000000 		.4byte	.LCFI0
 1107 0008 0200     		.2byte	0x2
 1108 000a 7D       		.byte	0x7d
 1109 000b 00       		.sleb128 0
 1110 000c 02000000 		.4byte	.LCFI0
 1111 0010 14000000 		.4byte	.LFE62
 1112 0014 0200     		.2byte	0x2
 1113 0016 7D       		.byte	0x7d
 1114 0017 08       		.sleb128 8
 1115 0018 00000000 		.4byte	0x0
 1116 001c 00000000 		.4byte	0x0
 1117              	.LLST1:
 1118 0020 00000000 		.4byte	.LFB63
 1119 0024 02000000 		.4byte	.LCFI1
 1120 0028 0200     		.2byte	0x2
 1121 002a 7D       		.byte	0x7d
 1122 002b 00       		.sleb128 0
 1123 002c 02000000 		.4byte	.LCFI1
 1124 0030 04000000 		.4byte	.LCFI2
 1125 0034 0200     		.2byte	0x2
 1126 0036 7D       		.byte	0x7d
 1127 0037 04       		.sleb128 4
 1128 0038 04000000 		.4byte	.LCFI2
 1129 003c 14010000 		.4byte	.LFE63
 1130 0040 0200     		.2byte	0x2
 1131 0042 7D       		.byte	0x7d
 1132 0043 10       		.sleb128 16
 1133 0044 00000000 		.4byte	0x0
 1134 0048 00000000 		.4byte	0x0
 1135              	.LLST2:
 1136 004c 00000000 		.4byte	.LFB65
 1137 0050 02000000 		.4byte	.LCFI3
 1138 0054 0200     		.2byte	0x2
 1139 0056 7D       		.byte	0x7d
 1140 0057 00       		.sleb128 0
 1141 0058 02000000 		.4byte	.LCFI3
 1142 005c 04000000 		.4byte	.LCFI4
 1143 0060 0200     		.2byte	0x2
 1144 0062 7D       		.byte	0x7d
 1145 0063 04       		.sleb128 4
 1146 0064 04000000 		.4byte	.LCFI4
 1147 0068 64000000 		.4byte	.LFE65
 1148 006c 0200     		.2byte	0x2
 1149 006e 7D       		.byte	0x7d
 1150 006f 20       		.sleb128 32
 1151 0070 00000000 		.4byte	0x0
 1152 0074 00000000 		.4byte	0x0
 1153              	.LLST3:
 1154 0078 00000000 		.4byte	.LFB66
 1155 007c 02000000 		.4byte	.LCFI5
 1156 0080 0200     		.2byte	0x2
 1157 0082 7D       		.byte	0x7d
 1158 0083 00       		.sleb128 0
 1159 0084 02000000 		.4byte	.LCFI5
ARM GAS  C:\Users\z80\AppData\Local\Temp\ccudY4us.s 			page 22


 1160 0088 04000000 		.4byte	.LCFI6
 1161 008c 0200     		.2byte	0x2
 1162 008e 7D       		.byte	0x7d
 1163 008f 04       		.sleb128 4
 1164 0090 04000000 		.4byte	.LCFI6
 1165 0094 44000000 		.4byte	.LFE66
 1166 0098 0200     		.2byte	0x2
 1167 009a 7D       		.byte	0x7d
 1168 009b 10       		.sleb128 16
 1169 009c 00000000 		.4byte	0x0
 1170 00a0 00000000 		.4byte	0x0
 1171              	.LLST4:
 1172 00a4 00000000 		.4byte	.LFB67
 1173 00a8 02000000 		.4byte	.LCFI7
 1174 00ac 0200     		.2byte	0x2
 1175 00ae 7D       		.byte	0x7d
 1176 00af 00       		.sleb128 0
 1177 00b0 02000000 		.4byte	.LCFI7
 1178 00b4 04000000 		.4byte	.LCFI8
 1179 00b8 0200     		.2byte	0x2
 1180 00ba 7D       		.byte	0x7d
 1181 00bb 04       		.sleb128 4
 1182 00bc 04000000 		.4byte	.LCFI8
 1183 00c0 98000000 		.4byte	.LFE67
 1184 00c4 0200     		.2byte	0x2
 1185 00c6 7D       		.byte	0x7d
 1186 00c7 20       		.sleb128 32
 1187 00c8 00000000 		.4byte	0x0
 1188 00cc 00000000 		.4byte	0x0
 1189              	.LLST5:
 1190 00d0 00000000 		.4byte	.LFB68
 1191 00d4 02000000 		.4byte	.LCFI9
 1192 00d8 0200     		.2byte	0x2
 1193 00da 7D       		.byte	0x7d
 1194 00db 00       		.sleb128 0
 1195 00dc 02000000 		.4byte	.LCFI9
 1196 00e0 04000000 		.4byte	.LCFI10
 1197 00e4 0200     		.2byte	0x2
 1198 00e6 7D       		.byte	0x7d
 1199 00e7 04       		.sleb128 4
 1200 00e8 04000000 		.4byte	.LCFI10
 1201 00ec 18000000 		.4byte	.LFE68
 1202 00f0 0200     		.2byte	0x2
 1203 00f2 7D       		.byte	0x7d
 1204 00f3 18       		.sleb128 24
 1205 00f4 00000000 		.4byte	0x0
 1206 00f8 00000000 		.4byte	0x0
 1207              	.LLST6:
 1208 00fc 00000000 		.4byte	.LFB69
 1209 0100 02000000 		.4byte	.LCFI11
 1210 0104 0200     		.2byte	0x2
 1211 0106 7D       		.byte	0x7d
 1212 0107 00       		.sleb128 0
 1213 0108 02000000 		.4byte	.LCFI11
 1214 010c 04000000 		.4byte	.LCFI12
 1215 0110 0200     		.2byte	0x2
 1216 0112 7D       		.byte	0x7d
ARM GAS  C:\Users\z80\AppData\Local\Temp\ccudY4us.s 			page 23


 1217 0113 04       		.sleb128 4
 1218 0114 04000000 		.4byte	.LCFI12
 1219 0118 18000000 		.4byte	.LFE69
 1220 011c 0200     		.2byte	0x2
 1221 011e 7D       		.byte	0x7d
 1222 011f 18       		.sleb128 24
 1223 0120 00000000 		.4byte	0x0
 1224 0124 00000000 		.4byte	0x0
 1225              	.LLST7:
 1226 0128 00000000 		.4byte	.LFB70
 1227 012c 02000000 		.4byte	.LCFI13
 1228 0130 0200     		.2byte	0x2
 1229 0132 7D       		.byte	0x7d
 1230 0133 00       		.sleb128 0
 1231 0134 02000000 		.4byte	.LCFI13
 1232 0138 04000000 		.4byte	.LCFI14
 1233 013c 0200     		.2byte	0x2
 1234 013e 7D       		.byte	0x7d
 1235 013f 04       		.sleb128 4
 1236 0140 04000000 		.4byte	.LCFI14
 1237 0144 18000000 		.4byte	.LFE70
 1238 0148 0200     		.2byte	0x2
 1239 014a 7D       		.byte	0x7d
 1240 014b 18       		.sleb128 24
 1241 014c 00000000 		.4byte	0x0
 1242 0150 00000000 		.4byte	0x0
 1243              	.LLST8:
 1244 0154 00000000 		.4byte	.LFB71
 1245 0158 02000000 		.4byte	.LCFI15
 1246 015c 0200     		.2byte	0x2
 1247 015e 7D       		.byte	0x7d
 1248 015f 00       		.sleb128 0
 1249 0160 02000000 		.4byte	.LCFI15
 1250 0164 04000000 		.4byte	.LCFI16
 1251 0168 0200     		.2byte	0x2
 1252 016a 7D       		.byte	0x7d
 1253 016b 04       		.sleb128 4
 1254 016c 04000000 		.4byte	.LCFI16
 1255 0170 42000000 		.4byte	.LFE71
 1256 0174 0200     		.2byte	0x2
 1257 0176 7D       		.byte	0x7d
 1258 0177 18       		.sleb128 24
 1259 0178 00000000 		.4byte	0x0
 1260 017c 00000000 		.4byte	0x0
 1261              	.LLST9:
 1262 0180 00000000 		.4byte	.LFB72
 1263 0184 02000000 		.4byte	.LCFI17
 1264 0188 0200     		.2byte	0x2
 1265 018a 7D       		.byte	0x7d
 1266 018b 00       		.sleb128 0
 1267 018c 02000000 		.4byte	.LCFI17
 1268 0190 04000000 		.4byte	.LCFI18
 1269 0194 0200     		.2byte	0x2
 1270 0196 7D       		.byte	0x7d
 1271 0197 04       		.sleb128 4
 1272 0198 04000000 		.4byte	.LCFI18
 1273 019c 14000000 		.4byte	.LFE72
ARM GAS  C:\Users\z80\AppData\Local\Temp\ccudY4us.s 			page 24


 1274 01a0 0200     		.2byte	0x2
 1275 01a2 7D       		.byte	0x7d
 1276 01a3 10       		.sleb128 16
 1277 01a4 00000000 		.4byte	0x0
 1278 01a8 00000000 		.4byte	0x0
 1279              	.LLST10:
 1280 01ac 00000000 		.4byte	.LFB73
 1281 01b0 02000000 		.4byte	.LCFI19
 1282 01b4 0200     		.2byte	0x2
 1283 01b6 7D       		.byte	0x7d
 1284 01b7 00       		.sleb128 0
 1285 01b8 02000000 		.4byte	.LCFI19
 1286 01bc 04000000 		.4byte	.LCFI20
 1287 01c0 0200     		.2byte	0x2
 1288 01c2 7D       		.byte	0x7d
 1289 01c3 04       		.sleb128 4
 1290 01c4 04000000 		.4byte	.LCFI20
 1291 01c8 14000000 		.4byte	.LFE73
 1292 01cc 0200     		.2byte	0x2
 1293 01ce 7D       		.byte	0x7d
 1294 01cf 10       		.sleb128 16
 1295 01d0 00000000 		.4byte	0x0
 1296 01d4 00000000 		.4byte	0x0
 1297              	.LLST11:
 1298 01d8 00000000 		.4byte	.LFB74
 1299 01dc 02000000 		.4byte	.LCFI21
 1300 01e0 0200     		.2byte	0x2
 1301 01e2 7D       		.byte	0x7d
 1302 01e3 00       		.sleb128 0
 1303 01e4 02000000 		.4byte	.LCFI21
 1304 01e8 04000000 		.4byte	.LCFI22
 1305 01ec 0200     		.2byte	0x2
 1306 01ee 7D       		.byte	0x7d
 1307 01ef 04       		.sleb128 4
 1308 01f0 04000000 		.4byte	.LCFI22
 1309 01f4 14000000 		.4byte	.LFE74
 1310 01f8 0200     		.2byte	0x2
 1311 01fa 7D       		.byte	0x7d
 1312 01fb 10       		.sleb128 16
 1313 01fc 00000000 		.4byte	0x0
 1314 0200 00000000 		.4byte	0x0
 1315              	.LLST12:
 1316 0204 00000000 		.4byte	.LFB75
 1317 0208 02000000 		.4byte	.LCFI23
 1318 020c 0200     		.2byte	0x2
 1319 020e 7D       		.byte	0x7d
 1320 020f 00       		.sleb128 0
 1321 0210 02000000 		.4byte	.LCFI23
 1322 0214 04000000 		.4byte	.LCFI24
 1323 0218 0200     		.2byte	0x2
 1324 021a 7D       		.byte	0x7d
 1325 021b 04       		.sleb128 4
 1326 021c 04000000 		.4byte	.LCFI24
 1327 0220 20000000 		.4byte	.LFE75
 1328 0224 0200     		.2byte	0x2
 1329 0226 7D       		.byte	0x7d
 1330 0227 18       		.sleb128 24
ARM GAS  C:\Users\z80\AppData\Local\Temp\ccudY4us.s 			page 25


 1331 0228 00000000 		.4byte	0x0
 1332 022c 00000000 		.4byte	0x0
 1333              	.LLST13:
 1334 0230 00000000 		.4byte	.LFB76
 1335 0234 02000000 		.4byte	.LCFI25
 1336 0238 0200     		.2byte	0x2
 1337 023a 7D       		.byte	0x7d
 1338 023b 00       		.sleb128 0
 1339 023c 02000000 		.4byte	.LCFI25
 1340 0240 04000000 		.4byte	.LCFI26
 1341 0244 0200     		.2byte	0x2
 1342 0246 7D       		.byte	0x7d
 1343 0247 04       		.sleb128 4
 1344 0248 04000000 		.4byte	.LCFI26
 1345 024c 20000000 		.4byte	.LFE76
 1346 0250 0200     		.2byte	0x2
 1347 0252 7D       		.byte	0x7d
 1348 0253 18       		.sleb128 24
 1349 0254 00000000 		.4byte	0x0
 1350 0258 00000000 		.4byte	0x0
 1351              	.LLST14:
 1352 025c 00000000 		.4byte	.LFB77
 1353 0260 02000000 		.4byte	.LCFI27
 1354 0264 0200     		.2byte	0x2
 1355 0266 7D       		.byte	0x7d
 1356 0267 00       		.sleb128 0
 1357 0268 02000000 		.4byte	.LCFI27
 1358 026c 04000000 		.4byte	.LCFI28
 1359 0270 0200     		.2byte	0x2
 1360 0272 7D       		.byte	0x7d
 1361 0273 04       		.sleb128 4
 1362 0274 04000000 		.4byte	.LCFI28
 1363 0278 20000000 		.4byte	.LFE77
 1364 027c 0200     		.2byte	0x2
 1365 027e 7D       		.byte	0x7d
 1366 027f 18       		.sleb128 24
 1367 0280 00000000 		.4byte	0x0
 1368 0284 00000000 		.4byte	0x0
 1369              	.LLST15:
 1370 0288 00000000 		.4byte	.LFB78
 1371 028c 02000000 		.4byte	.LCFI29
 1372 0290 0200     		.2byte	0x2
 1373 0292 7D       		.byte	0x7d
 1374 0293 00       		.sleb128 0
 1375 0294 02000000 		.4byte	.LCFI29
 1376 0298 04000000 		.4byte	.LCFI30
 1377 029c 0200     		.2byte	0x2
 1378 029e 7D       		.byte	0x7d
 1379 029f 04       		.sleb128 4
 1380 02a0 04000000 		.4byte	.LCFI30
 1381 02a4 20000000 		.4byte	.LFE78
 1382 02a8 0200     		.2byte	0x2
 1383 02aa 7D       		.byte	0x7d
 1384 02ab 18       		.sleb128 24
 1385 02ac 00000000 		.4byte	0x0
 1386 02b0 00000000 		.4byte	0x0
 1387              	.LLST16:
ARM GAS  C:\Users\z80\AppData\Local\Temp\ccudY4us.s 			page 26


 1388 02b4 00000000 		.4byte	.LFB79
 1389 02b8 02000000 		.4byte	.LCFI31
 1390 02bc 0200     		.2byte	0x2
 1391 02be 7D       		.byte	0x7d
 1392 02bf 00       		.sleb128 0
 1393 02c0 02000000 		.4byte	.LCFI31
 1394 02c4 04000000 		.4byte	.LCFI32
 1395 02c8 0200     		.2byte	0x2
 1396 02ca 7D       		.byte	0x7d
 1397 02cb 04       		.sleb128 4
 1398 02cc 04000000 		.4byte	.LCFI32
 1399 02d0 50000000 		.4byte	.LFE79
 1400 02d4 0200     		.2byte	0x2
 1401 02d6 7D       		.byte	0x7d
 1402 02d7 28       		.sleb128 40
 1403 02d8 00000000 		.4byte	0x0
 1404 02dc 00000000 		.4byte	0x0
 1405              	.LLST17:
 1406 02e0 00000000 		.4byte	.LFB80
 1407 02e4 02000000 		.4byte	.LCFI33
 1408 02e8 0200     		.2byte	0x2
 1409 02ea 7D       		.byte	0x7d
 1410 02eb 00       		.sleb128 0
 1411 02ec 02000000 		.4byte	.LCFI33
 1412 02f0 04000000 		.4byte	.LCFI34
 1413 02f4 0200     		.2byte	0x2
 1414 02f6 7D       		.byte	0x7d
 1415 02f7 04       		.sleb128 4
 1416 02f8 04000000 		.4byte	.LCFI34
 1417 02fc 50000000 		.4byte	.LFE80
 1418 0300 0200     		.2byte	0x2
 1419 0302 7D       		.byte	0x7d
 1420 0303 20       		.sleb128 32
 1421 0304 00000000 		.4byte	0x0
 1422 0308 00000000 		.4byte	0x0
 1423              	.LLST18:
 1424 030c 00000000 		.4byte	.LFB81
 1425 0310 02000000 		.4byte	.LCFI35
 1426 0314 0200     		.2byte	0x2
 1427 0316 7D       		.byte	0x7d
 1428 0317 00       		.sleb128 0
 1429 0318 02000000 		.4byte	.LCFI35
 1430 031c 04000000 		.4byte	.LCFI36
 1431 0320 0200     		.2byte	0x2
 1432 0322 7D       		.byte	0x7d
 1433 0323 04       		.sleb128 4
 1434 0324 04000000 		.4byte	.LCFI36
 1435 0328 40000000 		.4byte	.LFE81
 1436 032c 0200     		.2byte	0x2
 1437 032e 7D       		.byte	0x7d
 1438 032f 10       		.sleb128 16
 1439 0330 00000000 		.4byte	0x0
 1440 0334 00000000 		.4byte	0x0
 1441              	.LLST19:
 1442 0338 00000000 		.4byte	.LFB82
 1443 033c 02000000 		.4byte	.LCFI37
 1444 0340 0200     		.2byte	0x2
ARM GAS  C:\Users\z80\AppData\Local\Temp\ccudY4us.s 			page 27


 1445 0342 7D       		.byte	0x7d
 1446 0343 00       		.sleb128 0
 1447 0344 02000000 		.4byte	.LCFI37
 1448 0348 18000000 		.4byte	.LFE82
 1449 034c 0200     		.2byte	0x2
 1450 034e 7D       		.byte	0x7d
 1451 034f 08       		.sleb128 8
 1452 0350 00000000 		.4byte	0x0
 1453 0354 00000000 		.4byte	0x0
 1454              		.file 2 "c:\\programs\\yagarto\\bin\\../lib/gcc/arm-none-eabi/4.5.0/include/stddef.h"
 1455              		.file 3 "c:/programs/yagarto/lib/gcc/../../arm-none-eabi/sys-include/stdint.h"
 1456              		.file 4 "../chibios_2.4.x/os/ports/GCC/ARMCMx/chtypes.h"
 1457              		.file 5 "../chibios_2.4.x/os/kernel/include/chlists.h"
 1458              		.file 6 "../chibios_2.4.x/os/kernel/include/chthreads.h"
 1459              		.file 7 "../chibios_2.4.x/os/ports/GCC/ARMCMx/chcore_v7m.h"
 1460              		.file 8 "../chibios_2.4.x/os/kernel/include/chmtx.h"
 1461              		.file 9 "../chibios_2.4.x/os/kernel/include/chevents.h"
 1462              		.file 10 "../chibios_2.4.x/os/kernel/include/chqueues.h"
 1463              		.file 11 "../chibios_2.4.x/os/kernel/include/chioch.h"
 1464              		.file 12 "./src/cpu_io.h"
 1465              		.file 13 "../chibios_2.4.x/os/hal/platforms/STM32F1xx/stm32f10x.h"
 1466              		.file 14 "../chibios_2.4.x/os/hal/include/serial.h"
 1467              		.file 15 "../chibios_2.4.x/os/ports/common/ARMCMx/CMSIS/include/core_cm3.h"
 1468              		.file 16 "../chibios_2.4.x/os/hal/platforms/STM32/serial_lld.h"
 1469              		.section	.debug_info
 1470 0000 F80D0000 		.4byte	0xdf8
 1471 0004 0200     		.2byte	0x2
 1472 0006 00000000 		.4byte	.Ldebug_abbrev0
 1473 000a 04       		.byte	0x4
 1474 000b 01       		.uleb128 0x1
 1475 000c 21050000 		.4byte	.LASF132
 1476 0010 01       		.byte	0x1
 1477 0011 6D020000 		.4byte	.LASF133
 1478 0015 E0020000 		.4byte	.LASF134
 1479 0019 00000000 		.4byte	0x0
 1480 001d 00000000 		.4byte	0x0
 1481 0021 00000000 		.4byte	.Ldebug_ranges0+0x0
 1482 0025 00000000 		.4byte	.Ldebug_line0
 1483 0029 02       		.uleb128 0x2
 1484 002a 04       		.byte	0x4
 1485 002b 05       		.byte	0x5
 1486 002c 696E7400 		.ascii	"int\000"
 1487 0030 03       		.uleb128 0x3
 1488 0031 09000000 		.4byte	.LASF2
 1489 0035 02       		.byte	0x2
 1490 0036 D3       		.byte	0xd3
 1491 0037 3B000000 		.4byte	0x3b
 1492 003b 04       		.uleb128 0x4
 1493 003c 04       		.byte	0x4
 1494 003d 07       		.byte	0x7
 1495 003e 6B010000 		.4byte	.LASF0
 1496 0042 04       		.uleb128 0x4
 1497 0043 01       		.byte	0x1
 1498 0044 06       		.byte	0x6
 1499 0045 D2000000 		.4byte	.LASF1
 1500 0049 03       		.uleb128 0x3
 1501 004a FA040000 		.4byte	.LASF3
ARM GAS  C:\Users\z80\AppData\Local\Temp\ccudY4us.s 			page 28


 1502 004e 03       		.byte	0x3
 1503 004f 2A       		.byte	0x2a
 1504 0050 54000000 		.4byte	0x54
 1505 0054 04       		.uleb128 0x4
 1506 0055 01       		.byte	0x1
 1507 0056 08       		.byte	0x8
 1508 0057 9C030000 		.4byte	.LASF4
 1509 005b 04       		.uleb128 0x4
 1510 005c 02       		.byte	0x2
 1511 005d 05       		.byte	0x5
 1512 005e C0030000 		.4byte	.LASF5
 1513 0062 03       		.uleb128 0x3
 1514 0063 78010000 		.4byte	.LASF6
 1515 0067 03       		.byte	0x3
 1516 0068 36       		.byte	0x36
 1517 0069 6D000000 		.4byte	0x6d
 1518 006d 04       		.uleb128 0x4
 1519 006e 02       		.byte	0x2
 1520 006f 07       		.byte	0x7
 1521 0070 E9010000 		.4byte	.LASF7
 1522 0074 03       		.uleb128 0x3
 1523 0075 94030000 		.4byte	.LASF8
 1524 0079 03       		.byte	0x3
 1525 007a 4F       		.byte	0x4f
 1526 007b 7F000000 		.4byte	0x7f
 1527 007f 04       		.uleb128 0x4
 1528 0080 04       		.byte	0x4
 1529 0081 05       		.byte	0x5
 1530 0082 0E010000 		.4byte	.LASF9
 1531 0086 03       		.uleb128 0x3
 1532 0087 31040000 		.4byte	.LASF10
 1533 008b 03       		.byte	0x3
 1534 008c 50       		.byte	0x50
 1535 008d 91000000 		.4byte	0x91
 1536 0091 04       		.uleb128 0x4
 1537 0092 04       		.byte	0x4
 1538 0093 07       		.byte	0x7
 1539 0094 51040000 		.4byte	.LASF11
 1540 0098 04       		.uleb128 0x4
 1541 0099 08       		.byte	0x8
 1542 009a 05       		.byte	0x5
 1543 009b C4000000 		.4byte	.LASF12
 1544 009f 03       		.uleb128 0x3
 1545 00a0 17000000 		.4byte	.LASF13
 1546 00a4 03       		.byte	0x3
 1547 00a5 78       		.byte	0x78
 1548 00a6 AA000000 		.4byte	0xaa
 1549 00aa 04       		.uleb128 0x4
 1550 00ab 08       		.byte	0x8
 1551 00ac 07       		.byte	0x7
 1552 00ad 4D000000 		.4byte	.LASF14
 1553 00b1 03       		.uleb128 0x3
 1554 00b2 3F000000 		.4byte	.LASF15
 1555 00b6 03       		.byte	0x3
 1556 00b7 A6       		.byte	0xa6
 1557 00b8 3B000000 		.4byte	0x3b
 1558 00bc 03       		.uleb128 0x3
ARM GAS  C:\Users\z80\AppData\Local\Temp\ccudY4us.s 			page 29


 1559 00bd EB000000 		.4byte	.LASF16
 1560 00c1 04       		.byte	0x4
 1561 00c2 2E       		.byte	0x2e
 1562 00c3 74000000 		.4byte	0x74
 1563 00c7 03       		.uleb128 0x3
 1564 00c8 38020000 		.4byte	.LASF17
 1565 00cc 04       		.byte	0x4
 1566 00cd 2F       		.byte	0x2f
 1567 00ce 49000000 		.4byte	0x49
 1568 00d2 03       		.uleb128 0x3
 1569 00d3 17010000 		.4byte	.LASF18
 1570 00d7 04       		.byte	0x4
 1571 00d8 30       		.byte	0x30
 1572 00d9 49000000 		.4byte	0x49
 1573 00dd 03       		.uleb128 0x3
 1574 00de DB010000 		.4byte	.LASF19
 1575 00e2 04       		.byte	0x4
 1576 00e3 32       		.byte	0x32
 1577 00e4 86000000 		.4byte	0x86
 1578 00e8 03       		.uleb128 0x3
 1579 00e9 FC010000 		.4byte	.LASF20
 1580 00ed 04       		.byte	0x4
 1581 00ee 33       		.byte	0x33
 1582 00ef 74000000 		.4byte	0x74
 1583 00f3 03       		.uleb128 0x3
 1584 00f4 4C020000 		.4byte	.LASF21
 1585 00f8 04       		.byte	0x4
 1586 00f9 35       		.byte	0x35
 1587 00fa 86000000 		.4byte	0x86
 1588 00fe 03       		.uleb128 0x3
 1589 00ff 80040000 		.4byte	.LASF22
 1590 0103 04       		.byte	0x4
 1591 0104 36       		.byte	0x36
 1592 0105 86000000 		.4byte	0x86
 1593 0109 03       		.uleb128 0x3
 1594 010a 0B040000 		.4byte	.LASF23
 1595 010e 05       		.byte	0x5
 1596 010f 2A       		.byte	0x2a
 1597 0110 14010000 		.4byte	0x114
 1598 0114 05       		.uleb128 0x5
 1599 0115 0B040000 		.4byte	.LASF23
 1600 0119 48       		.byte	0x48
 1601 011a 06       		.byte	0x6
 1602 011b 5E       		.byte	0x5e
 1603 011c 1D020000 		.4byte	0x21d
 1604 0120 06       		.uleb128 0x6
 1605 0121 E9030000 		.4byte	.LASF24
 1606 0125 06       		.byte	0x6
 1607 0126 5F       		.byte	0x5f
 1608 0127 42020000 		.4byte	0x242
 1609 012b 02       		.byte	0x2
 1610 012c 23       		.byte	0x23
 1611 012d 00       		.uleb128 0x0
 1612 012e 06       		.uleb128 0x6
 1613 012f 69030000 		.4byte	.LASF25
 1614 0133 06       		.byte	0x6
 1615 0134 61       		.byte	0x61
ARM GAS  C:\Users\z80\AppData\Local\Temp\ccudY4us.s 			page 30


 1616 0135 42020000 		.4byte	0x242
 1617 0139 02       		.byte	0x2
 1618 013a 23       		.byte	0x23
 1619 013b 04       		.uleb128 0x4
 1620 013c 06       		.uleb128 0x6
 1621 013d A8000000 		.4byte	.LASF26
 1622 0141 06       		.byte	0x6
 1623 0142 63       		.byte	0x63
 1624 0143 DD000000 		.4byte	0xdd
 1625 0147 02       		.byte	0x2
 1626 0148 23       		.byte	0x23
 1627 0149 08       		.uleb128 0x8
 1628 014a 06       		.uleb128 0x6
 1629 014b 55050000 		.4byte	.LASF27
 1630 014f 06       		.byte	0x6
 1631 0150 64       		.byte	0x64
 1632 0151 1A030000 		.4byte	0x31a
 1633 0155 02       		.byte	0x2
 1634 0156 23       		.byte	0x23
 1635 0157 0C       		.uleb128 0xc
 1636 0158 06       		.uleb128 0x6
 1637 0159 31010000 		.4byte	.LASF28
 1638 015d 06       		.byte	0x6
 1639 015e 66       		.byte	0x66
 1640 015f 42020000 		.4byte	0x242
 1641 0163 02       		.byte	0x2
 1642 0164 23       		.byte	0x23
 1643 0165 10       		.uleb128 0x10
 1644 0166 06       		.uleb128 0x6
 1645 0167 B2020000 		.4byte	.LASF29
 1646 016b 06       		.byte	0x6
 1647 016c 67       		.byte	0x67
 1648 016d 42020000 		.4byte	0x242
 1649 0171 02       		.byte	0x2
 1650 0172 23       		.byte	0x23
 1651 0173 14       		.uleb128 0x14
 1652 0174 06       		.uleb128 0x6
 1653 0175 DC040000 		.4byte	.LASF30
 1654 0179 06       		.byte	0x6
 1655 017a 6E       		.byte	0x6e
 1656 017b 30040000 		.4byte	0x430
 1657 017f 02       		.byte	0x2
 1658 0180 23       		.byte	0x23
 1659 0181 18       		.uleb128 0x18
 1660 0182 06       		.uleb128 0x6
 1661 0183 9C040000 		.4byte	.LASF31
 1662 0187 06       		.byte	0x6
 1663 0188 74       		.byte	0x74
 1664 0189 42040000 		.4byte	0x442
 1665 018d 02       		.byte	0x2
 1666 018e 23       		.byte	0x23
 1667 018f 1C       		.uleb128 0x1c
 1668 0190 06       		.uleb128 0x6
 1669 0191 CA030000 		.4byte	.LASF32
 1670 0195 06       		.byte	0x6
 1671 0196 79       		.byte	0x79
 1672 0197 D2000000 		.4byte	0xd2
ARM GAS  C:\Users\z80\AppData\Local\Temp\ccudY4us.s 			page 31


 1673 019b 02       		.byte	0x2
 1674 019c 23       		.byte	0x23
 1675 019d 20       		.uleb128 0x20
 1676 019e 06       		.uleb128 0x6
 1677 019f F0030000 		.4byte	.LASF33
 1678 01a3 06       		.byte	0x6
 1679 01a4 7D       		.byte	0x7d
 1680 01a5 C7000000 		.4byte	0xc7
 1681 01a9 02       		.byte	0x2
 1682 01aa 23       		.byte	0x23
 1683 01ab 21       		.uleb128 0x21
 1684 01ac 06       		.uleb128 0x6
 1685 01ad 91010000 		.4byte	.LASF34
 1686 01b1 06       		.byte	0x6
 1687 01b2 89       		.byte	0x89
 1688 01b3 40030000 		.4byte	0x340
 1689 01b7 02       		.byte	0x2
 1690 01b8 23       		.byte	0x23
 1691 01b9 24       		.uleb128 0x24
 1692 01ba 07       		.uleb128 0x7
 1693 01bb 705F7500 		.ascii	"p_u\000"
 1694 01bf 06       		.byte	0x6
 1695 01c0 AE       		.byte	0xae
 1696 01c1 FB030000 		.4byte	0x3fb
 1697 01c5 02       		.byte	0x2
 1698 01c6 23       		.byte	0x23
 1699 01c7 28       		.uleb128 0x28
 1700 01c8 06       		.uleb128 0x6
 1701 01c9 5B050000 		.4byte	.LASF35
 1702 01cd 06       		.byte	0x6
 1703 01ce B3       		.byte	0xb3
 1704 01cf 6A020000 		.4byte	0x26a
 1705 01d3 02       		.byte	0x2
 1706 01d4 23       		.byte	0x23
 1707 01d5 2C       		.uleb128 0x2c
 1708 01d6 06       		.uleb128 0x6
 1709 01d7 BA010000 		.4byte	.LASF36
 1710 01db 06       		.byte	0x6
 1711 01dc B9       		.byte	0xb9
 1712 01dd 48020000 		.4byte	0x248
 1713 01e1 02       		.byte	0x2
 1714 01e2 23       		.byte	0x23
 1715 01e3 30       		.uleb128 0x30
 1716 01e4 06       		.uleb128 0x6
 1717 01e5 F4040000 		.4byte	.LASF37
 1718 01e9 06       		.byte	0x6
 1719 01ea BD       		.byte	0xbd
 1720 01eb E8000000 		.4byte	0xe8
 1721 01ef 02       		.byte	0x2
 1722 01f0 23       		.byte	0x23
 1723 01f1 38       		.uleb128 0x38
 1724 01f2 06       		.uleb128 0x6
 1725 01f3 12040000 		.4byte	.LASF38
 1726 01f7 06       		.byte	0x6
 1727 01f8 C3       		.byte	0xc3
 1728 01f9 F3000000 		.4byte	0xf3
 1729 01fd 02       		.byte	0x2
ARM GAS  C:\Users\z80\AppData\Local\Temp\ccudY4us.s 			page 32


 1730 01fe 23       		.byte	0x23
 1731 01ff 3C       		.uleb128 0x3c
 1732 0200 06       		.uleb128 0x6
 1733 0201 B6030000 		.4byte	.LASF39
 1734 0205 06       		.byte	0x6
 1735 0206 CA       		.byte	0xca
 1736 0207 48040000 		.4byte	0x448
 1737 020b 02       		.byte	0x2
 1738 020c 23       		.byte	0x23
 1739 020d 40       		.uleb128 0x40
 1740 020e 06       		.uleb128 0x6
 1741 020f 8A040000 		.4byte	.LASF40
 1742 0213 06       		.byte	0x6
 1743 0214 CE       		.byte	0xce
 1744 0215 DD000000 		.4byte	0xdd
 1745 0219 02       		.byte	0x2
 1746 021a 23       		.byte	0x23
 1747 021b 44       		.uleb128 0x44
 1748 021c 00       		.byte	0x0
 1749 021d 08       		.uleb128 0x8
 1750 021e 08       		.byte	0x8
 1751 021f 05       		.byte	0x5
 1752 0220 61       		.byte	0x61
 1753 0221 42020000 		.4byte	0x242
 1754 0225 06       		.uleb128 0x6
 1755 0226 E9030000 		.4byte	.LASF24
 1756 022a 05       		.byte	0x5
 1757 022b 62       		.byte	0x62
 1758 022c 42020000 		.4byte	0x242
 1759 0230 02       		.byte	0x2
 1760 0231 23       		.byte	0x23
 1761 0232 00       		.uleb128 0x0
 1762 0233 06       		.uleb128 0x6
 1763 0234 69030000 		.4byte	.LASF25
 1764 0238 05       		.byte	0x5
 1765 0239 64       		.byte	0x64
 1766 023a 42020000 		.4byte	0x242
 1767 023e 02       		.byte	0x2
 1768 023f 23       		.byte	0x23
 1769 0240 04       		.uleb128 0x4
 1770 0241 00       		.byte	0x0
 1771 0242 09       		.uleb128 0x9
 1772 0243 04       		.byte	0x4
 1773 0244 09010000 		.4byte	0x109
 1774 0248 03       		.uleb128 0x3
 1775 0249 D3020000 		.4byte	.LASF41
 1776 024d 05       		.byte	0x5
 1777 024e 66       		.byte	0x66
 1778 024f 1D020000 		.4byte	0x21d
 1779 0253 08       		.uleb128 0x8
 1780 0254 04       		.byte	0x4
 1781 0255 05       		.byte	0x5
 1782 0256 6B       		.byte	0x6b
 1783 0257 6A020000 		.4byte	0x26a
 1784 025b 06       		.uleb128 0x6
 1785 025c E9030000 		.4byte	.LASF24
 1786 0260 05       		.byte	0x5
ARM GAS  C:\Users\z80\AppData\Local\Temp\ccudY4us.s 			page 33


 1787 0261 6D       		.byte	0x6d
 1788 0262 42020000 		.4byte	0x242
 1789 0266 02       		.byte	0x2
 1790 0267 23       		.byte	0x23
 1791 0268 00       		.uleb128 0x0
 1792 0269 00       		.byte	0x0
 1793 026a 03       		.uleb128 0x3
 1794 026b 40020000 		.4byte	.LASF42
 1795 026f 05       		.byte	0x5
 1796 0270 70       		.byte	0x70
 1797 0271 53020000 		.4byte	0x253
 1798 0275 03       		.uleb128 0x3
 1799 0276 50010000 		.4byte	.LASF43
 1800 027a 07       		.byte	0x7
 1801 027b D7       		.byte	0xd7
 1802 027c 80020000 		.4byte	0x280
 1803 0280 0A       		.uleb128 0xa
 1804 0281 04       		.byte	0x4
 1805 0282 03       		.uleb128 0x3
 1806 0283 89020000 		.4byte	.LASF44
 1807 0287 07       		.byte	0x7
 1808 0288 DD       		.byte	0xdd
 1809 0289 9F000000 		.4byte	0x9f
 1810 028d 05       		.uleb128 0x5
 1811 028e BD040000 		.4byte	.LASF45
 1812 0292 24       		.byte	0x24
 1813 0293 07       		.byte	0x7
 1814 0294 FE       		.byte	0xfe
 1815 0295 1A030000 		.4byte	0x31a
 1816 0299 0B       		.uleb128 0xb
 1817 029a 723400   		.ascii	"r4\000"
 1818 029d 07       		.byte	0x7
 1819 029e 1101     		.2byte	0x111
 1820 02a0 75020000 		.4byte	0x275
 1821 02a4 02       		.byte	0x2
 1822 02a5 23       		.byte	0x23
 1823 02a6 00       		.uleb128 0x0
 1824 02a7 0B       		.uleb128 0xb
 1825 02a8 723500   		.ascii	"r5\000"
 1826 02ab 07       		.byte	0x7
 1827 02ac 1201     		.2byte	0x112
 1828 02ae 75020000 		.4byte	0x275
 1829 02b2 02       		.byte	0x2
 1830 02b3 23       		.byte	0x23
 1831 02b4 04       		.uleb128 0x4
 1832 02b5 0B       		.uleb128 0xb
 1833 02b6 723600   		.ascii	"r6\000"
 1834 02b9 07       		.byte	0x7
 1835 02ba 1301     		.2byte	0x113
 1836 02bc 75020000 		.4byte	0x275
 1837 02c0 02       		.byte	0x2
 1838 02c1 23       		.byte	0x23
 1839 02c2 08       		.uleb128 0x8
 1840 02c3 0B       		.uleb128 0xb
 1841 02c4 723700   		.ascii	"r7\000"
 1842 02c7 07       		.byte	0x7
 1843 02c8 1401     		.2byte	0x114
ARM GAS  C:\Users\z80\AppData\Local\Temp\ccudY4us.s 			page 34


 1844 02ca 75020000 		.4byte	0x275
 1845 02ce 02       		.byte	0x2
 1846 02cf 23       		.byte	0x23
 1847 02d0 0C       		.uleb128 0xc
 1848 02d1 0B       		.uleb128 0xb
 1849 02d2 723800   		.ascii	"r8\000"
 1850 02d5 07       		.byte	0x7
 1851 02d6 1501     		.2byte	0x115
 1852 02d8 75020000 		.4byte	0x275
 1853 02dc 02       		.byte	0x2
 1854 02dd 23       		.byte	0x23
 1855 02de 10       		.uleb128 0x10
 1856 02df 0B       		.uleb128 0xb
 1857 02e0 723900   		.ascii	"r9\000"
 1858 02e3 07       		.byte	0x7
 1859 02e4 1601     		.2byte	0x116
 1860 02e6 75020000 		.4byte	0x275
 1861 02ea 02       		.byte	0x2
 1862 02eb 23       		.byte	0x23
 1863 02ec 14       		.uleb128 0x14
 1864 02ed 0B       		.uleb128 0xb
 1865 02ee 72313000 		.ascii	"r10\000"
 1866 02f2 07       		.byte	0x7
 1867 02f3 1701     		.2byte	0x117
 1868 02f5 75020000 		.4byte	0x275
 1869 02f9 02       		.byte	0x2
 1870 02fa 23       		.byte	0x23
 1871 02fb 18       		.uleb128 0x18
 1872 02fc 0B       		.uleb128 0xb
 1873 02fd 72313100 		.ascii	"r11\000"
 1874 0301 07       		.byte	0x7
 1875 0302 1801     		.2byte	0x118
 1876 0304 75020000 		.4byte	0x275
 1877 0308 02       		.byte	0x2
 1878 0309 23       		.byte	0x23
 1879 030a 1C       		.uleb128 0x1c
 1880 030b 0B       		.uleb128 0xb
 1881 030c 6C7200   		.ascii	"lr\000"
 1882 030f 07       		.byte	0x7
 1883 0310 1901     		.2byte	0x119
 1884 0312 75020000 		.4byte	0x275
 1885 0316 02       		.byte	0x2
 1886 0317 23       		.byte	0x23
 1887 0318 20       		.uleb128 0x20
 1888 0319 00       		.byte	0x0
 1889 031a 0C       		.uleb128 0xc
 1890 031b B5040000 		.4byte	.LASF46
 1891 031f 04       		.byte	0x4
 1892 0320 07       		.byte	0x7
 1893 0321 2301     		.2byte	0x123
 1894 0323 37030000 		.4byte	0x337
 1895 0327 0B       		.uleb128 0xb
 1896 0328 72313300 		.ascii	"r13\000"
 1897 032c 07       		.byte	0x7
 1898 032d 2401     		.2byte	0x124
 1899 032f 37030000 		.4byte	0x337
 1900 0333 02       		.byte	0x2
ARM GAS  C:\Users\z80\AppData\Local\Temp\ccudY4us.s 			page 35


 1901 0334 23       		.byte	0x23
 1902 0335 00       		.uleb128 0x0
 1903 0336 00       		.byte	0x0
 1904 0337 09       		.uleb128 0x9
 1905 0338 04       		.byte	0x4
 1906 0339 8D020000 		.4byte	0x28d
 1907 033d 0D       		.uleb128 0xd
 1908 033e 04       		.byte	0x4
 1909 033f 07       		.byte	0x7
 1910 0340 0E       		.uleb128 0xe
 1911 0341 FE000000 		.4byte	0xfe
 1912 0345 05       		.uleb128 0x5
 1913 0346 AC020000 		.4byte	.LASF47
 1914 034a 10       		.byte	0x10
 1915 034b 08       		.byte	0x8
 1916 034c 2C       		.byte	0x2c
 1917 034d 7C030000 		.4byte	0x37c
 1918 0351 06       		.uleb128 0x6
 1919 0352 F2000000 		.4byte	.LASF48
 1920 0356 08       		.byte	0x8
 1921 0357 2D       		.byte	0x2d
 1922 0358 48020000 		.4byte	0x248
 1923 035c 02       		.byte	0x2
 1924 035d 23       		.byte	0x23
 1925 035e 00       		.uleb128 0x0
 1926 035f 06       		.uleb128 0x6
 1927 0360 4D050000 		.4byte	.LASF49
 1928 0364 08       		.byte	0x8
 1929 0365 2F       		.byte	0x2f
 1930 0366 42020000 		.4byte	0x242
 1931 036a 02       		.byte	0x2
 1932 036b 23       		.byte	0x23
 1933 036c 08       		.uleb128 0x8
 1934 036d 06       		.uleb128 0x6
 1935 036e 79040000 		.4byte	.LASF50
 1936 0372 08       		.byte	0x8
 1937 0373 31       		.byte	0x31
 1938 0374 7C030000 		.4byte	0x37c
 1939 0378 02       		.byte	0x2
 1940 0379 23       		.byte	0x23
 1941 037a 0C       		.uleb128 0xc
 1942 037b 00       		.byte	0x0
 1943 037c 09       		.uleb128 0x9
 1944 037d 04       		.byte	0x4
 1945 037e 45030000 		.4byte	0x345
 1946 0382 03       		.uleb128 0x3
 1947 0383 AC020000 		.4byte	.LASF47
 1948 0387 08       		.byte	0x8
 1949 0388 33       		.byte	0x33
 1950 0389 45030000 		.4byte	0x345
 1951 038d 03       		.uleb128 0x3
 1952 038e 13050000 		.4byte	.LASF51
 1953 0392 09       		.byte	0x9
 1954 0393 29       		.byte	0x29
 1955 0394 98030000 		.4byte	0x398
 1956 0398 05       		.uleb128 0x5
 1957 0399 13050000 		.4byte	.LASF51
ARM GAS  C:\Users\z80\AppData\Local\Temp\ccudY4us.s 			page 36


 1958 039d 0C       		.byte	0xc
 1959 039e 09       		.byte	0x9
 1960 039f 2E       		.byte	0x2e
 1961 03a0 CF030000 		.4byte	0x3cf
 1962 03a4 06       		.uleb128 0x6
 1963 03a5 F8030000 		.4byte	.LASF52
 1964 03a9 09       		.byte	0x9
 1965 03aa 2F       		.byte	0x2f
 1966 03ab CF030000 		.4byte	0x3cf
 1967 03af 02       		.byte	0x2
 1968 03b0 23       		.byte	0x23
 1969 03b1 00       		.uleb128 0x0
 1970 03b2 06       		.uleb128 0x6
 1971 03b3 AA030000 		.4byte	.LASF53
 1972 03b7 09       		.byte	0x9
 1973 03b8 32       		.byte	0x32
 1974 03b9 42020000 		.4byte	0x242
 1975 03bd 02       		.byte	0x2
 1976 03be 23       		.byte	0x23
 1977 03bf 04       		.uleb128 0x4
 1978 03c0 06       		.uleb128 0x6
 1979 03c1 19030000 		.4byte	.LASF54
 1980 03c5 09       		.byte	0x9
 1981 03c6 34       		.byte	0x34
 1982 03c7 F3000000 		.4byte	0xf3
 1983 03cb 02       		.byte	0x2
 1984 03cc 23       		.byte	0x23
 1985 03cd 08       		.uleb128 0x8
 1986 03ce 00       		.byte	0x0
 1987 03cf 09       		.uleb128 0x9
 1988 03d0 04       		.byte	0x4
 1989 03d1 8D030000 		.4byte	0x38d
 1990 03d5 05       		.uleb128 0x5
 1991 03d6 59010000 		.4byte	.LASF55
 1992 03da 04       		.byte	0x4
 1993 03db 09       		.byte	0x9
 1994 03dc 3C       		.byte	0x3c
 1995 03dd F0030000 		.4byte	0x3f0
 1996 03e1 06       		.uleb128 0x6
 1997 03e2 E3040000 		.4byte	.LASF56
 1998 03e6 09       		.byte	0x9
 1999 03e7 3D       		.byte	0x3d
 2000 03e8 CF030000 		.4byte	0x3cf
 2001 03ec 02       		.byte	0x2
 2002 03ed 23       		.byte	0x23
 2003 03ee 00       		.uleb128 0x0
 2004 03ef 00       		.byte	0x0
 2005 03f0 03       		.uleb128 0x3
 2006 03f1 59010000 		.4byte	.LASF55
 2007 03f5 09       		.byte	0x9
 2008 03f6 40       		.byte	0x40
 2009 03f7 D5030000 		.4byte	0x3d5
 2010 03fb 0F       		.uleb128 0xf
 2011 03fc 04       		.byte	0x4
 2012 03fd 06       		.byte	0x6
 2013 03fe 90       		.byte	0x90
 2014 03ff 30040000 		.4byte	0x430
ARM GAS  C:\Users\z80\AppData\Local\Temp\ccudY4us.s 			page 37


 2015 0403 10       		.uleb128 0x10
 2016 0404 10000000 		.4byte	.LASF57
 2017 0408 06       		.byte	0x6
 2018 0409 97       		.byte	0x97
 2019 040a E8000000 		.4byte	0xe8
 2020 040e 10       		.uleb128 0x10
 2021 040f 7B000000 		.4byte	.LASF58
 2022 0413 06       		.byte	0x6
 2023 0414 9E       		.byte	0x9e
 2024 0415 E8000000 		.4byte	0xe8
 2025 0419 10       		.uleb128 0x10
 2026 041a 2D050000 		.4byte	.LASF59
 2027 041e 06       		.byte	0x6
 2028 041f A5       		.byte	0xa5
 2029 0420 80020000 		.4byte	0x280
 2030 0424 10       		.uleb128 0x10
 2031 0425 E2030000 		.4byte	.LASF60
 2032 0429 06       		.byte	0x6
 2033 042a AC       		.byte	0xac
 2034 042b F3000000 		.4byte	0xf3
 2035 042f 00       		.byte	0x0
 2036 0430 09       		.uleb128 0x9
 2037 0431 04       		.byte	0x4
 2038 0432 36040000 		.4byte	0x436
 2039 0436 11       		.uleb128 0x11
 2040 0437 3B040000 		.4byte	0x43b
 2041 043b 04       		.uleb128 0x4
 2042 043c 01       		.byte	0x1
 2043 043d 08       		.byte	0x8
 2044 043e 68040000 		.4byte	.LASF61
 2045 0442 09       		.uleb128 0x9
 2046 0443 04       		.byte	0x4
 2047 0444 82020000 		.4byte	0x282
 2048 0448 09       		.uleb128 0x9
 2049 0449 04       		.byte	0x4
 2050 044a 82030000 		.4byte	0x382
 2051 044e 03       		.uleb128 0x3
 2052 044f 7C020000 		.4byte	.LASF62
 2053 0453 0A       		.byte	0xa
 2054 0454 37       		.byte	0x37
 2055 0455 59040000 		.4byte	0x459
 2056 0459 05       		.uleb128 0x5
 2057 045a 7C020000 		.4byte	.LASF62
 2058 045e 20       		.byte	0x20
 2059 045f 0A       		.byte	0xa
 2060 0460 45       		.byte	0x45
 2061 0461 C8040000 		.4byte	0x4c8
 2062 0465 06       		.uleb128 0x6
 2063 0466 2D030000 		.4byte	.LASF63
 2064 046a 0A       		.byte	0xa
 2065 046b 46       		.byte	0x46
 2066 046c 48020000 		.4byte	0x248
 2067 0470 02       		.byte	0x2
 2068 0471 23       		.byte	0x23
 2069 0472 00       		.uleb128 0x0
 2070 0473 06       		.uleb128 0x6
 2071 0474 A2020000 		.4byte	.LASF64
ARM GAS  C:\Users\z80\AppData\Local\Temp\ccudY4us.s 			page 38


 2072 0478 0A       		.byte	0xa
 2073 0479 47       		.byte	0x47
 2074 047a 30000000 		.4byte	0x30
 2075 047e 02       		.byte	0x2
 2076 047f 23       		.byte	0x23
 2077 0480 08       		.uleb128 0x8
 2078 0481 06       		.uleb128 0x6
 2079 0482 20010000 		.4byte	.LASF65
 2080 0486 0A       		.byte	0xa
 2081 0487 48       		.byte	0x48
 2082 0488 EB040000 		.4byte	0x4eb
 2083 048c 02       		.byte	0x2
 2084 048d 23       		.byte	0x23
 2085 048e 0C       		.uleb128 0xc
 2086 048f 06       		.uleb128 0x6
 2087 0490 D6040000 		.4byte	.LASF66
 2088 0494 0A       		.byte	0xa
 2089 0495 49       		.byte	0x49
 2090 0496 EB040000 		.4byte	0x4eb
 2091 049a 02       		.byte	0x2
 2092 049b 23       		.byte	0x23
 2093 049c 10       		.uleb128 0x10
 2094 049d 06       		.uleb128 0x6
 2095 049e 29010000 		.4byte	.LASF67
 2096 04a2 0A       		.byte	0xa
 2097 04a3 4B       		.byte	0x4b
 2098 04a4 EB040000 		.4byte	0x4eb
 2099 04a8 02       		.byte	0x2
 2100 04a9 23       		.byte	0x23
 2101 04aa 14       		.uleb128 0x14
 2102 04ab 06       		.uleb128 0x6
 2103 04ac 83030000 		.4byte	.LASF68
 2104 04b0 0A       		.byte	0xa
 2105 04b1 4C       		.byte	0x4c
 2106 04b2 EB040000 		.4byte	0x4eb
 2107 04b6 02       		.byte	0x2
 2108 04b7 23       		.byte	0x23
 2109 04b8 18       		.uleb128 0x18
 2110 04b9 06       		.uleb128 0x6
 2111 04ba EB040000 		.4byte	.LASF69
 2112 04be 0A       		.byte	0xa
 2113 04bf 4D       		.byte	0x4d
 2114 04c0 C8040000 		.4byte	0x4c8
 2115 04c4 02       		.byte	0x2
 2116 04c5 23       		.byte	0x23
 2117 04c6 1C       		.uleb128 0x1c
 2118 04c7 00       		.byte	0x0
 2119 04c8 03       		.uleb128 0x3
 2120 04c9 63020000 		.4byte	.LASF70
 2121 04cd 0A       		.byte	0xa
 2122 04ce 3A       		.byte	0x3a
 2123 04cf D3040000 		.4byte	0x4d3
 2124 04d3 09       		.uleb128 0x9
 2125 04d4 04       		.byte	0x4
 2126 04d5 D9040000 		.4byte	0x4d9
 2127 04d9 12       		.uleb128 0x12
 2128 04da 01       		.byte	0x1
ARM GAS  C:\Users\z80\AppData\Local\Temp\ccudY4us.s 			page 39


 2129 04db E5040000 		.4byte	0x4e5
 2130 04df 13       		.uleb128 0x13
 2131 04e0 E5040000 		.4byte	0x4e5
 2132 04e4 00       		.byte	0x0
 2133 04e5 09       		.uleb128 0x9
 2134 04e6 04       		.byte	0x4
 2135 04e7 4E040000 		.4byte	0x44e
 2136 04eb 09       		.uleb128 0x9
 2137 04ec 04       		.byte	0x4
 2138 04ed 49000000 		.4byte	0x49
 2139 04f1 03       		.uleb128 0x3
 2140 04f2 58020000 		.4byte	.LASF71
 2141 04f6 0A       		.byte	0xa
 2142 04f7 76       		.byte	0x76
 2143 04f8 4E040000 		.4byte	0x44e
 2144 04fc 03       		.uleb128 0x3
 2145 04fd 26000000 		.4byte	.LASF72
 2146 0501 0A       		.byte	0xa
 2147 0502 E6       		.byte	0xe6
 2148 0503 4E040000 		.4byte	0x44e
 2149 0507 14       		.uleb128 0x14
 2150 0508 01       		.byte	0x1
 2151 0509 30000000 		.4byte	0x30
 2152 050d 21050000 		.4byte	0x521
 2153 0511 13       		.uleb128 0x13
 2154 0512 80020000 		.4byte	0x280
 2155 0516 13       		.uleb128 0x13
 2156 0517 21050000 		.4byte	0x521
 2157 051b 13       		.uleb128 0x13
 2158 051c 30000000 		.4byte	0x30
 2159 0520 00       		.byte	0x0
 2160 0521 09       		.uleb128 0x9
 2161 0522 04       		.byte	0x4
 2162 0523 27050000 		.4byte	0x527
 2163 0527 11       		.uleb128 0x11
 2164 0528 49000000 		.4byte	0x49
 2165 052c 09       		.uleb128 0x9
 2166 052d 04       		.byte	0x4
 2167 052e 07050000 		.4byte	0x507
 2168 0532 14       		.uleb128 0x14
 2169 0533 01       		.byte	0x1
 2170 0534 30000000 		.4byte	0x30
 2171 0538 4C050000 		.4byte	0x54c
 2172 053c 13       		.uleb128 0x13
 2173 053d 80020000 		.4byte	0x280
 2174 0541 13       		.uleb128 0x13
 2175 0542 EB040000 		.4byte	0x4eb
 2176 0546 13       		.uleb128 0x13
 2177 0547 30000000 		.4byte	0x30
 2178 054b 00       		.byte	0x0
 2179 054c 09       		.uleb128 0x9
 2180 054d 04       		.byte	0x4
 2181 054e 32050000 		.4byte	0x532
 2182 0552 14       		.uleb128 0x14
 2183 0553 01       		.byte	0x1
 2184 0554 BC000000 		.4byte	0xbc
 2185 0558 62050000 		.4byte	0x562
ARM GAS  C:\Users\z80\AppData\Local\Temp\ccudY4us.s 			page 40


 2186 055c 13       		.uleb128 0x13
 2187 055d 80020000 		.4byte	0x280
 2188 0561 00       		.byte	0x0
 2189 0562 09       		.uleb128 0x9
 2190 0563 04       		.byte	0x4
 2191 0564 52050000 		.4byte	0x552
 2192 0568 14       		.uleb128 0x14
 2193 0569 01       		.byte	0x1
 2194 056a E8000000 		.4byte	0xe8
 2195 056e 82050000 		.4byte	0x582
 2196 0572 13       		.uleb128 0x13
 2197 0573 80020000 		.4byte	0x280
 2198 0577 13       		.uleb128 0x13
 2199 0578 49000000 		.4byte	0x49
 2200 057c 13       		.uleb128 0x13
 2201 057d FE000000 		.4byte	0xfe
 2202 0581 00       		.byte	0x0
 2203 0582 09       		.uleb128 0x9
 2204 0583 04       		.byte	0x4
 2205 0584 68050000 		.4byte	0x568
 2206 0588 14       		.uleb128 0x14
 2207 0589 01       		.byte	0x1
 2208 058a E8000000 		.4byte	0xe8
 2209 058e 9D050000 		.4byte	0x59d
 2210 0592 13       		.uleb128 0x13
 2211 0593 80020000 		.4byte	0x280
 2212 0597 13       		.uleb128 0x13
 2213 0598 FE000000 		.4byte	0xfe
 2214 059c 00       		.byte	0x0
 2215 059d 09       		.uleb128 0x9
 2216 059e 04       		.byte	0x4
 2217 059f 88050000 		.4byte	0x588
 2218 05a3 14       		.uleb128 0x14
 2219 05a4 01       		.byte	0x1
 2220 05a5 30000000 		.4byte	0x30
 2221 05a9 C2050000 		.4byte	0x5c2
 2222 05ad 13       		.uleb128 0x13
 2223 05ae 80020000 		.4byte	0x280
 2224 05b2 13       		.uleb128 0x13
 2225 05b3 21050000 		.4byte	0x521
 2226 05b7 13       		.uleb128 0x13
 2227 05b8 30000000 		.4byte	0x30
 2228 05bc 13       		.uleb128 0x13
 2229 05bd FE000000 		.4byte	0xfe
 2230 05c1 00       		.byte	0x0
 2231 05c2 09       		.uleb128 0x9
 2232 05c3 04       		.byte	0x4
 2233 05c4 A3050000 		.4byte	0x5a3
 2234 05c8 14       		.uleb128 0x14
 2235 05c9 01       		.byte	0x1
 2236 05ca 30000000 		.4byte	0x30
 2237 05ce E7050000 		.4byte	0x5e7
 2238 05d2 13       		.uleb128 0x13
 2239 05d3 80020000 		.4byte	0x280
 2240 05d7 13       		.uleb128 0x13
 2241 05d8 EB040000 		.4byte	0x4eb
 2242 05dc 13       		.uleb128 0x13
ARM GAS  C:\Users\z80\AppData\Local\Temp\ccudY4us.s 			page 41


 2243 05dd 30000000 		.4byte	0x30
 2244 05e1 13       		.uleb128 0x13
 2245 05e2 FE000000 		.4byte	0xfe
 2246 05e6 00       		.byte	0x0
 2247 05e7 09       		.uleb128 0x9
 2248 05e8 04       		.byte	0x4
 2249 05e9 C8050000 		.4byte	0x5c8
 2250 05ed 15       		.uleb128 0x15
 2251 05ee C9020000 		.4byte	.LASF73
 2252 05f2 0B       		.byte	0xb
 2253 05f3 0B01     		.2byte	0x10b
 2254 05f5 B1000000 		.4byte	0xb1
 2255 05f9 14       		.uleb128 0x14
 2256 05fa 01       		.byte	0x1
 2257 05fb ED050000 		.4byte	0x5ed
 2258 05ff 09060000 		.4byte	0x609
 2259 0603 13       		.uleb128 0x13
 2260 0604 80020000 		.4byte	0x280
 2261 0608 00       		.byte	0x0
 2262 0609 09       		.uleb128 0x9
 2263 060a 04       		.byte	0x4
 2264 060b F9050000 		.4byte	0x5f9
 2265 060f 03       		.uleb128 0x3
 2266 0610 32000000 		.4byte	.LASF74
 2267 0614 0C       		.byte	0xc
 2268 0615 0B       		.byte	0xb
 2269 0616 1A060000 		.4byte	0x61a
 2270 061a 09       		.uleb128 0x9
 2271 061b 04       		.byte	0x4
 2272 061c 20060000 		.4byte	0x620
 2273 0620 12       		.uleb128 0x12
 2274 0621 01       		.byte	0x1
 2275 0622 2C060000 		.4byte	0x62c
 2276 0626 13       		.uleb128 0x13
 2277 0627 EB040000 		.4byte	0x4eb
 2278 062b 00       		.byte	0x0
 2279 062c 0E       		.uleb128 0xe
 2280 062d 62000000 		.4byte	0x62
 2281 0631 0E       		.uleb128 0xe
 2282 0632 74000000 		.4byte	0x74
 2283 0636 16       		.uleb128 0x16
 2284 0637 1C       		.byte	0x1c
 2285 0638 0D       		.byte	0xd
 2286 0639 E104     		.2byte	0x4e1
 2287 063b 10070000 		.4byte	0x710
 2288 063f 0B       		.uleb128 0xb
 2289 0640 535200   		.ascii	"SR\000"
 2290 0643 0D       		.byte	0xd
 2291 0644 E304     		.2byte	0x4e3
 2292 0646 2C060000 		.4byte	0x62c
 2293 064a 02       		.byte	0x2
 2294 064b 23       		.byte	0x23
 2295 064c 00       		.uleb128 0x0
 2296 064d 17       		.uleb128 0x17
 2297 064e 37030000 		.4byte	.LASF75
 2298 0652 0D       		.byte	0xd
 2299 0653 E404     		.2byte	0x4e4
ARM GAS  C:\Users\z80\AppData\Local\Temp\ccudY4us.s 			page 42


 2300 0655 62000000 		.4byte	0x62
 2301 0659 02       		.byte	0x2
 2302 065a 23       		.byte	0x23
 2303 065b 02       		.uleb128 0x2
 2304 065c 0B       		.uleb128 0xb
 2305 065d 445200   		.ascii	"DR\000"
 2306 0660 0D       		.byte	0xd
 2307 0661 E504     		.2byte	0x4e5
 2308 0663 2C060000 		.4byte	0x62c
 2309 0667 02       		.byte	0x2
 2310 0668 23       		.byte	0x23
 2311 0669 04       		.uleb128 0x4
 2312 066a 17       		.uleb128 0x17
 2313 066b 41030000 		.4byte	.LASF76
 2314 066f 0D       		.byte	0xd
 2315 0670 E604     		.2byte	0x4e6
 2316 0672 62000000 		.4byte	0x62
 2317 0676 02       		.byte	0x2
 2318 0677 23       		.byte	0x23
 2319 0678 06       		.uleb128 0x6
 2320 0679 0B       		.uleb128 0xb
 2321 067a 42525200 		.ascii	"BRR\000"
 2322 067e 0D       		.byte	0xd
 2323 067f E704     		.2byte	0x4e7
 2324 0681 2C060000 		.4byte	0x62c
 2325 0685 02       		.byte	0x2
 2326 0686 23       		.byte	0x23
 2327 0687 08       		.uleb128 0x8
 2328 0688 17       		.uleb128 0x17
 2329 0689 4B030000 		.4byte	.LASF77
 2330 068d 0D       		.byte	0xd
 2331 068e E804     		.2byte	0x4e8
 2332 0690 62000000 		.4byte	0x62
 2333 0694 02       		.byte	0x2
 2334 0695 23       		.byte	0x23
 2335 0696 0A       		.uleb128 0xa
 2336 0697 0B       		.uleb128 0xb
 2337 0698 43523100 		.ascii	"CR1\000"
 2338 069c 0D       		.byte	0xd
 2339 069d E904     		.2byte	0x4e9
 2340 069f 2C060000 		.4byte	0x62c
 2341 06a3 02       		.byte	0x2
 2342 06a4 23       		.byte	0x23
 2343 06a5 0C       		.uleb128 0xc
 2344 06a6 17       		.uleb128 0x17
 2345 06a7 55030000 		.4byte	.LASF78
 2346 06ab 0D       		.byte	0xd
 2347 06ac EA04     		.2byte	0x4ea
 2348 06ae 62000000 		.4byte	0x62
 2349 06b2 02       		.byte	0x2
 2350 06b3 23       		.byte	0x23
 2351 06b4 0E       		.uleb128 0xe
 2352 06b5 0B       		.uleb128 0xb
 2353 06b6 43523200 		.ascii	"CR2\000"
 2354 06ba 0D       		.byte	0xd
 2355 06bb EB04     		.2byte	0x4eb
 2356 06bd 2C060000 		.4byte	0x62c
ARM GAS  C:\Users\z80\AppData\Local\Temp\ccudY4us.s 			page 43


 2357 06c1 02       		.byte	0x2
 2358 06c2 23       		.byte	0x23
 2359 06c3 10       		.uleb128 0x10
 2360 06c4 17       		.uleb128 0x17
 2361 06c5 5F030000 		.4byte	.LASF79
 2362 06c9 0D       		.byte	0xd
 2363 06ca EC04     		.2byte	0x4ec
 2364 06cc 62000000 		.4byte	0x62
 2365 06d0 02       		.byte	0x2
 2366 06d1 23       		.byte	0x23
 2367 06d2 12       		.uleb128 0x12
 2368 06d3 0B       		.uleb128 0xb
 2369 06d4 43523300 		.ascii	"CR3\000"
 2370 06d8 0D       		.byte	0xd
 2371 06d9 ED04     		.2byte	0x4ed
 2372 06db 2C060000 		.4byte	0x62c
 2373 06df 02       		.byte	0x2
 2374 06e0 23       		.byte	0x23
 2375 06e1 14       		.uleb128 0x14
 2376 06e2 17       		.uleb128 0x17
 2377 06e3 27040000 		.4byte	.LASF80
 2378 06e7 0D       		.byte	0xd
 2379 06e8 EE04     		.2byte	0x4ee
 2380 06ea 62000000 		.4byte	0x62
 2381 06ee 02       		.byte	0x2
 2382 06ef 23       		.byte	0x23
 2383 06f0 16       		.uleb128 0x16
 2384 06f1 17       		.uleb128 0x17
 2385 06f2 DE000000 		.4byte	.LASF81
 2386 06f6 0D       		.byte	0xd
 2387 06f7 EF04     		.2byte	0x4ef
 2388 06f9 2C060000 		.4byte	0x62c
 2389 06fd 02       		.byte	0x2
 2390 06fe 23       		.byte	0x23
 2391 06ff 18       		.uleb128 0x18
 2392 0700 17       		.uleb128 0x17
 2393 0701 70030000 		.4byte	.LASF82
 2394 0705 0D       		.byte	0xd
 2395 0706 F004     		.2byte	0x4f0
 2396 0708 62000000 		.4byte	0x62
 2397 070c 02       		.byte	0x2
 2398 070d 23       		.byte	0x23
 2399 070e 1A       		.uleb128 0x1a
 2400 070f 00       		.byte	0x0
 2401 0710 15       		.uleb128 0x15
 2402 0711 23020000 		.4byte	.LASF83
 2403 0715 0D       		.byte	0xd
 2404 0716 F104     		.2byte	0x4f1
 2405 0718 36060000 		.4byte	0x636
 2406 071c 18       		.uleb128 0x18
 2407 071d 01       		.byte	0x1
 2408 071e 0E       		.byte	0xe
 2409 071f 64       		.byte	0x64
 2410 0720 37070000 		.4byte	0x737
 2411 0724 19       		.uleb128 0x19
 2412 0725 1D040000 		.4byte	.LASF84
 2413 0729 00       		.sleb128 0
ARM GAS  C:\Users\z80\AppData\Local\Temp\ccudY4us.s 			page 44


 2414 072a 19       		.uleb128 0x19
 2415 072b E3000000 		.4byte	.LASF85
 2416 072f 01       		.sleb128 1
 2417 0730 19       		.uleb128 0x19
 2418 0731 C4040000 		.4byte	.LASF86
 2419 0735 02       		.sleb128 2
 2420 0736 00       		.byte	0x0
 2421 0737 03       		.uleb128 0x3
 2422 0738 3A040000 		.4byte	.LASF87
 2423 073c 0E       		.byte	0xe
 2424 073d 68       		.byte	0x68
 2425 073e 1C070000 		.4byte	0x71c
 2426 0742 03       		.uleb128 0x3
 2427 0743 44040000 		.4byte	.LASF88
 2428 0747 0E       		.byte	0xe
 2429 0748 6D       		.byte	0x6d
 2430 0749 4D070000 		.4byte	0x74d
 2431 074d 05       		.uleb128 0x5
 2432 074e 44040000 		.4byte	.LASF88
 2433 0752 D4       		.byte	0xd4
 2434 0753 0E       		.byte	0xe
 2435 0754 87       		.byte	0x87
 2436 0755 D8070000 		.4byte	0x7d8
 2437 0759 07       		.uleb128 0x7
 2438 075a 766D7400 		.ascii	"vmt\000"
 2439 075e 0E       		.byte	0xe
 2440 075f 89       		.byte	0x89
 2441 0760 63080000 		.4byte	0x863
 2442 0764 02       		.byte	0x2
 2443 0765 23       		.byte	0x23
 2444 0766 00       		.uleb128 0x0
 2445 0767 06       		.uleb128 0x6
 2446 0768 E3010000 		.4byte	.LASF89
 2447 076c 0E       		.byte	0xe
 2448 076d 8A       		.byte	0x8a
 2449 076e F0030000 		.4byte	0x3f0
 2450 0772 02       		.byte	0x2
 2451 0773 23       		.byte	0x23
 2452 0774 04       		.uleb128 0x4
 2453 0775 06       		.uleb128 0x6
 2454 0776 0D050000 		.4byte	.LASF90
 2455 077a 0E       		.byte	0xe
 2456 077b 8A       		.byte	0x8a
 2457 077c ED050000 		.4byte	0x5ed
 2458 0780 02       		.byte	0x2
 2459 0781 23       		.byte	0x23
 2460 0782 08       		.uleb128 0x8
 2461 0783 06       		.uleb128 0x6
 2462 0784 08010000 		.4byte	.LASF91
 2463 0788 0E       		.byte	0xe
 2464 0789 8A       		.byte	0x8a
 2465 078a 37070000 		.4byte	0x737
 2466 078e 02       		.byte	0x2
 2467 078f 23       		.byte	0x23
 2468 0790 0C       		.uleb128 0xc
 2469 0791 06       		.uleb128 0x6
 2470 0792 B3010000 		.4byte	.LASF92
ARM GAS  C:\Users\z80\AppData\Local\Temp\ccudY4us.s 			page 45


 2471 0796 0E       		.byte	0xe
 2472 0797 8A       		.byte	0x8a
 2473 0798 F1040000 		.4byte	0x4f1
 2474 079c 02       		.byte	0x2
 2475 079d 23       		.byte	0x23
 2476 079e 10       		.uleb128 0x10
 2477 079f 06       		.uleb128 0x6
 2478 07a0 02020000 		.4byte	.LASF93
 2479 07a4 0E       		.byte	0xe
 2480 07a5 8A       		.byte	0x8a
 2481 07a6 FC040000 		.4byte	0x4fc
 2482 07aa 02       		.byte	0x2
 2483 07ab 23       		.byte	0x23
 2484 07ac 30       		.uleb128 0x30
 2485 07ad 07       		.uleb128 0x7
 2486 07ae 696200   		.ascii	"ib\000"
 2487 07b1 0E       		.byte	0xe
 2488 07b2 8A       		.byte	0x8a
 2489 07b3 6E080000 		.4byte	0x86e
 2490 07b7 02       		.byte	0x2
 2491 07b8 23       		.byte	0x23
 2492 07b9 50       		.uleb128 0x50
 2493 07ba 07       		.uleb128 0x7
 2494 07bb 6F6200   		.ascii	"ob\000"
 2495 07be 0E       		.byte	0xe
 2496 07bf 8A       		.byte	0x8a
 2497 07c0 6E080000 		.4byte	0x86e
 2498 07c4 03       		.byte	0x3
 2499 07c5 23       		.byte	0x23
 2500 07c6 9001     		.uleb128 0x90
 2501 07c8 06       		.uleb128 0x6
 2502 07c9 65010000 		.4byte	.LASF94
 2503 07cd 0E       		.byte	0xe
 2504 07ce 8A       		.byte	0x8a
 2505 07cf 7E080000 		.4byte	0x87e
 2506 07d3 03       		.byte	0x3
 2507 07d4 23       		.byte	0x23
 2508 07d5 D001     		.uleb128 0xd0
 2509 07d7 00       		.byte	0x0
 2510 07d8 05       		.uleb128 0x5
 2511 07d9 81010000 		.4byte	.LASF95
 2512 07dd 24       		.byte	0x24
 2513 07de 0E       		.byte	0xe
 2514 07df 7C       		.byte	0x7c
 2515 07e0 63080000 		.4byte	0x863
 2516 07e4 06       		.uleb128 0x6
 2517 07e5 9C020000 		.4byte	.LASF96
 2518 07e9 0E       		.byte	0xe
 2519 07ea 7D       		.byte	0x7d
 2520 07eb 2C050000 		.4byte	0x52c
 2521 07ef 02       		.byte	0x2
 2522 07f0 23       		.byte	0x23
 2523 07f1 00       		.uleb128 0x0
 2524 07f2 06       		.uleb128 0x6
 2525 07f3 63040000 		.4byte	.LASF97
 2526 07f7 0E       		.byte	0xe
 2527 07f8 7D       		.byte	0x7d
ARM GAS  C:\Users\z80\AppData\Local\Temp\ccudY4us.s 			page 46


 2528 07f9 4C050000 		.4byte	0x54c
 2529 07fd 02       		.byte	0x2
 2530 07fe 23       		.byte	0x23
 2531 07ff 04       		.uleb128 0x4
 2532 0800 06       		.uleb128 0x6
 2533 0801 39010000 		.4byte	.LASF98
 2534 0805 0E       		.byte	0xe
 2535 0806 7D       		.byte	0x7d
 2536 0807 62050000 		.4byte	0x562
 2537 080b 02       		.byte	0x2
 2538 080c 23       		.byte	0x23
 2539 080d 08       		.uleb128 0x8
 2540 080e 06       		.uleb128 0x6
 2541 080f 3A050000 		.4byte	.LASF99
 2542 0813 0E       		.byte	0xe
 2543 0814 7D       		.byte	0x7d
 2544 0815 62050000 		.4byte	0x562
 2545 0819 02       		.byte	0x2
 2546 081a 23       		.byte	0x23
 2547 081b 0C       		.uleb128 0xc
 2548 081c 07       		.uleb128 0x7
 2549 081d 70757400 		.ascii	"put\000"
 2550 0821 0E       		.byte	0xe
 2551 0822 7D       		.byte	0x7d
 2552 0823 82050000 		.4byte	0x582
 2553 0827 02       		.byte	0x2
 2554 0828 23       		.byte	0x23
 2555 0829 10       		.uleb128 0x10
 2556 082a 07       		.uleb128 0x7
 2557 082b 67657400 		.ascii	"get\000"
 2558 082f 0E       		.byte	0xe
 2559 0830 7D       		.byte	0x7d
 2560 0831 9D050000 		.4byte	0x59d
 2561 0835 02       		.byte	0x2
 2562 0836 23       		.byte	0x23
 2563 0837 14       		.uleb128 0x14
 2564 0838 06       		.uleb128 0x6
 2565 0839 31020000 		.4byte	.LASF100
 2566 083d 0E       		.byte	0xe
 2567 083e 7D       		.byte	0x7d
 2568 083f C2050000 		.4byte	0x5c2
 2569 0843 02       		.byte	0x2
 2570 0844 23       		.byte	0x23
 2571 0845 18       		.uleb128 0x18
 2572 0846 06       		.uleb128 0x6
 2573 0847 AF000000 		.4byte	.LASF101
 2574 084b 0E       		.byte	0xe
 2575 084c 7D       		.byte	0x7d
 2576 084d E7050000 		.4byte	0x5e7
 2577 0851 02       		.byte	0x2
 2578 0852 23       		.byte	0x23
 2579 0853 1C       		.uleb128 0x1c
 2580 0854 06       		.uleb128 0x6
 2581 0855 AC040000 		.4byte	.LASF102
 2582 0859 0E       		.byte	0xe
 2583 085a 7D       		.byte	0x7d
 2584 085b 09060000 		.4byte	0x609
ARM GAS  C:\Users\z80\AppData\Local\Temp\ccudY4us.s 			page 47


 2585 085f 02       		.byte	0x2
 2586 0860 23       		.byte	0x23
 2587 0861 20       		.uleb128 0x20
 2588 0862 00       		.byte	0x0
 2589 0863 09       		.uleb128 0x9
 2590 0864 04       		.byte	0x4
 2591 0865 69080000 		.4byte	0x869
 2592 0869 11       		.uleb128 0x11
 2593 086a D8070000 		.4byte	0x7d8
 2594 086e 1A       		.uleb128 0x1a
 2595 086f 49000000 		.4byte	0x49
 2596 0873 7E080000 		.4byte	0x87e
 2597 0877 1B       		.uleb128 0x1b
 2598 0878 3D030000 		.4byte	0x33d
 2599 087c 3F       		.byte	0x3f
 2600 087d 00       		.byte	0x0
 2601 087e 09       		.uleb128 0x9
 2602 087f 04       		.byte	0x4
 2603 0880 10070000 		.4byte	0x710
 2604 0884 1C       		.uleb128 0x1c
 2605 0885 01       		.byte	0x1
 2606 0886 6D040000 		.4byte	.LASF135
 2607 088a 01       		.byte	0x1
 2608 088b 21       		.byte	0x21
 2609 088c 01       		.byte	0x1
 2610 088d 00000000 		.4byte	.LFB62
 2611 0891 14000000 		.4byte	.LFE62
 2612 0895 00000000 		.4byte	.LLST0
 2613 0899 1D       		.uleb128 0x1d
 2614 089a 01       		.byte	0x1
 2615 089b BA020000 		.4byte	.LASF136
 2616 089f 01       		.byte	0x1
 2617 08a0 27       		.byte	0x27
 2618 08a1 01       		.byte	0x1
 2619 08a2 00000000 		.4byte	.LFB63
 2620 08a6 14010000 		.4byte	.LFE63
 2621 08aa 20000000 		.4byte	.LLST1
 2622 08ae 07090000 		.4byte	0x907
 2623 08b2 1E       		.uleb128 0x1e
 2624 08b3 34050000 		.4byte	.LASF103
 2625 08b7 01       		.byte	0x1
 2626 08b8 29       		.byte	0x29
 2627 08b9 49000000 		.4byte	0x49
 2628 08bd 05       		.byte	0x5
 2629 08be 03       		.byte	0x3
 2630 08bf 00000000 		.4byte	slash.3686
 2631 08c3 1E       		.uleb128 0x1e
 2632 08c4 91000000 		.4byte	.LASF104
 2633 08c8 01       		.byte	0x1
 2634 08c9 2A       		.byte	0x2a
 2635 08ca 29000000 		.4byte	0x29
 2636 08ce 05       		.byte	0x5
 2637 08cf 03       		.byte	0x3
 2638 08d0 00000000 		.4byte	out_index.3687
 2639 08d4 1F       		.uleb128 0x1f
 2640 08d5 6D736700 		.ascii	"msg\000"
 2641 08d9 01       		.byte	0x1
ARM GAS  C:\Users\z80\AppData\Local\Temp\ccudY4us.s 			page 48


 2642 08da 2D       		.byte	0x2d
 2643 08db E8000000 		.4byte	0xe8
 2644 08df 02       		.byte	0x2
 2645 08e0 91       		.byte	0x91
 2646 08e1 74       		.sleb128 -12
 2647 08e2 1E       		.uleb128 0x1e
 2648 08e3 D4010000 		.4byte	.LASF105
 2649 08e7 01       		.byte	0x1
 2650 08e8 2F       		.byte	0x2f
 2651 08e9 49000000 		.4byte	0x49
 2652 08ed 02       		.byte	0x2
 2653 08ee 91       		.byte	0x91
 2654 08ef 73       		.sleb128 -13
 2655 08f0 20       		.uleb128 0x20
 2656 08f1 38000000 		.4byte	.LBB2
 2657 08f5 0C010000 		.4byte	.LBE2
 2658 08f9 1F       		.uleb128 0x1f
 2659 08fa 7600     		.ascii	"v\000"
 2660 08fc 01       		.byte	0x1
 2661 08fd 32       		.byte	0x32
 2662 08fe 49000000 		.4byte	0x49
 2663 0902 02       		.byte	0x2
 2664 0903 91       		.byte	0x91
 2665 0904 72       		.sleb128 -14
 2666 0905 00       		.byte	0x0
 2667 0906 00       		.byte	0x0
 2668 0907 21       		.uleb128 0x21
 2669 0908 01       		.byte	0x1
 2670 0909 72000000 		.4byte	.LASF137
 2671 090d 01       		.byte	0x1
 2672 090e 4B       		.byte	0x4b
 2673 090f 01       		.byte	0x1
 2674 0910 EB040000 		.4byte	0x4eb
 2675 0914 00000000 		.4byte	.LFB64
 2676 0918 0C000000 		.4byte	.LFE64
 2677 091c 02       		.byte	0x2
 2678 091d 7D       		.byte	0x7d
 2679 091e 00       		.sleb128 0
 2680 091f 22       		.uleb128 0x22
 2681 0920 D2030000 		.4byte	.LASF107
 2682 0924 01       		.byte	0x1
 2683 0925 52       		.byte	0x52
 2684 0926 01       		.byte	0x1
 2685 0927 00000000 		.4byte	.LFB65
 2686 092b 64000000 		.4byte	.LFE65
 2687 092f 4C000000 		.4byte	.LLST2
 2688 0933 7B090000 		.4byte	0x97b
 2689 0937 23       		.uleb128 0x23
 2690 0938 62756600 		.ascii	"buf\000"
 2691 093c 01       		.byte	0x1
 2692 093d 52       		.byte	0x52
 2693 093e EB040000 		.4byte	0x4eb
 2694 0942 02       		.byte	0x2
 2695 0943 91       		.byte	0x91
 2696 0944 64       		.sleb128 -28
 2697 0945 23       		.uleb128 0x23
 2698 0946 737A00   		.ascii	"sz\000"
ARM GAS  C:\Users\z80\AppData\Local\Temp\ccudY4us.s 			page 49


 2699 0949 01       		.byte	0x1
 2700 094a 52       		.byte	0x52
 2701 094b 29000000 		.4byte	0x29
 2702 094f 02       		.byte	0x2
 2703 0950 91       		.byte	0x91
 2704 0951 60       		.sleb128 -32
 2705 0952 1F       		.uleb128 0x1f
 2706 0953 6900     		.ascii	"i\000"
 2707 0955 01       		.byte	0x1
 2708 0956 54       		.byte	0x54
 2709 0957 29000000 		.4byte	0x29
 2710 095b 02       		.byte	0x2
 2711 095c 91       		.byte	0x91
 2712 095d 74       		.sleb128 -12
 2713 095e 1F       		.uleb128 0x1f
 2714 095f 636D6400 		.ascii	"cmd\000"
 2715 0963 01       		.byte	0x1
 2716 0964 55       		.byte	0x55
 2717 0965 49000000 		.4byte	0x49
 2718 0969 02       		.byte	0x2
 2719 096a 91       		.byte	0x91
 2720 096b 73       		.sleb128 -13
 2721 096c 1E       		.uleb128 0x1e
 2722 096d A7040000 		.4byte	.LASF106
 2723 0971 01       		.byte	0x1
 2724 0972 57       		.byte	0x57
 2725 0973 EB040000 		.4byte	0x4eb
 2726 0977 02       		.byte	0x2
 2727 0978 91       		.byte	0x91
 2728 0979 6C       		.sleb128 -20
 2729 097a 00       		.byte	0x0
 2730 097b 22       		.uleb128 0x22
 2731 097c CA010000 		.4byte	.LASF108
 2732 0980 01       		.byte	0x1
 2733 0981 84       		.byte	0x84
 2734 0982 01       		.byte	0x1
 2735 0983 00000000 		.4byte	.LFB66
 2736 0987 44000000 		.4byte	.LFE66
 2737 098b 78000000 		.4byte	.LLST3
 2738 098f B0090000 		.4byte	0x9b0
 2739 0993 1E       		.uleb128 0x1e
 2740 0994 02050000 		.4byte	.LASF109
 2741 0998 01       		.byte	0x1
 2742 0999 86       		.byte	0x86
 2743 099a 29000000 		.4byte	0x29
 2744 099e 02       		.byte	0x2
 2745 099f 91       		.byte	0x91
 2746 09a0 74       		.sleb128 -12
 2747 09a1 1E       		.uleb128 0x1e
 2748 09a2 7A030000 		.4byte	.LASF110
 2749 09a6 01       		.byte	0x1
 2750 09a7 88       		.byte	0x88
 2751 09a8 29000000 		.4byte	0x29
 2752 09ac 02       		.byte	0x2
 2753 09ad 91       		.byte	0x91
 2754 09ae 70       		.sleb128 -16
 2755 09af 00       		.byte	0x0
ARM GAS  C:\Users\z80\AppData\Local\Temp\ccudY4us.s 			page 50


 2756 09b0 22       		.uleb128 0x22
 2757 09b1 FA000000 		.4byte	.LASF111
 2758 09b5 01       		.byte	0x1
 2759 09b6 8D       		.byte	0x8d
 2760 09b7 01       		.byte	0x1
 2761 09b8 00000000 		.4byte	.LFB67
 2762 09bc 98000000 		.4byte	.LFE67
 2763 09c0 A4000000 		.4byte	.LLST4
 2764 09c4 570A0000 		.4byte	0xa57
 2765 09c8 23       		.uleb128 0x23
 2766 09c9 7100     		.ascii	"q\000"
 2767 09cb 01       		.byte	0x1
 2768 09cc 8D       		.byte	0x8d
 2769 09cd 570A0000 		.4byte	0xa57
 2770 09d1 02       		.byte	0x2
 2771 09d2 91       		.byte	0x91
 2772 09d3 64       		.sleb128 -28
 2773 09d4 1F       		.uleb128 0x1f
 2774 09d5 6D736700 		.ascii	"msg\000"
 2775 09d9 01       		.byte	0x1
 2776 09da 8F       		.byte	0x8f
 2777 09db E8000000 		.4byte	0xe8
 2778 09df 02       		.byte	0x2
 2779 09e0 91       		.byte	0x91
 2780 09e1 6C       		.sleb128 -20
 2781 09e2 1E       		.uleb128 0x1e
 2782 09e3 D4010000 		.4byte	.LASF105
 2783 09e7 01       		.byte	0x1
 2784 09e8 90       		.byte	0x90
 2785 09e9 49000000 		.4byte	0x49
 2786 09ed 02       		.byte	0x2
 2787 09ee 91       		.byte	0x91
 2788 09ef 6B       		.sleb128 -21
 2789 09f0 1F       		.uleb128 0x1f
 2790 09f1 636E7400 		.ascii	"cnt\000"
 2791 09f5 01       		.byte	0x1
 2792 09f6 91       		.byte	0x91
 2793 09f7 30000000 		.4byte	0x30
 2794 09fb 02       		.byte	0x2
 2795 09fc 91       		.byte	0x91
 2796 09fd 70       		.sleb128 -16
 2797 09fe 1F       		.uleb128 0x1f
 2798 09ff 6900     		.ascii	"i\000"
 2799 0a01 01       		.byte	0x1
 2800 0a02 91       		.byte	0x91
 2801 0a03 30000000 		.4byte	0x30
 2802 0a07 02       		.byte	0x2
 2803 0a08 91       		.byte	0x91
 2804 0a09 74       		.sleb128 -12
 2805 0a0a 24       		.uleb128 0x24
 2806 0a0b 06000000 		.4byte	.LBB3
 2807 0a0f 0E000000 		.4byte	.LBE3
 2808 0a13 250A0000 		.4byte	0xa25
 2809 0a17 1F       		.uleb128 0x1f
 2810 0a18 746D7000 		.ascii	"tmp\000"
 2811 0a1c 01       		.byte	0x1
 2812 0a1d 92       		.byte	0x92
ARM GAS  C:\Users\z80\AppData\Local\Temp\ccudY4us.s 			page 51


 2813 0a1e 86000000 		.4byte	0x86
 2814 0a22 01       		.byte	0x1
 2815 0a23 53       		.byte	0x53
 2816 0a24 00       		.byte	0x0
 2817 0a25 24       		.uleb128 0x24
 2818 0a26 24000000 		.4byte	.LBB4
 2819 0a2a 2C000000 		.4byte	.LBE4
 2820 0a2e 400A0000 		.4byte	0xa40
 2821 0a32 1F       		.uleb128 0x1f
 2822 0a33 746D7000 		.ascii	"tmp\000"
 2823 0a37 01       		.byte	0x1
 2824 0a38 94       		.byte	0x94
 2825 0a39 86000000 		.4byte	0x86
 2826 0a3d 01       		.byte	0x1
 2827 0a3e 53       		.byte	0x53
 2828 0a3f 00       		.byte	0x0
 2829 0a40 20       		.uleb128 0x20
 2830 0a41 34000000 		.4byte	.LBB5
 2831 0a45 80000000 		.4byte	.LBE5
 2832 0a49 1F       		.uleb128 0x1f
 2833 0a4a 7600     		.ascii	"v\000"
 2834 0a4c 01       		.byte	0x1
 2835 0a4d 99       		.byte	0x99
 2836 0a4e 49000000 		.4byte	0x49
 2837 0a52 02       		.byte	0x2
 2838 0a53 91       		.byte	0x91
 2839 0a54 6A       		.sleb128 -22
 2840 0a55 00       		.byte	0x0
 2841 0a56 00       		.byte	0x0
 2842 0a57 09       		.uleb128 0x9
 2843 0a58 04       		.byte	0x4
 2844 0a59 F1040000 		.4byte	0x4f1
 2845 0a5d 22       		.uleb128 0x22
 2846 0a5e CD040000 		.4byte	.LASF112
 2847 0a62 01       		.byte	0x1
 2848 0a63 A0       		.byte	0xa0
 2849 0a64 01       		.byte	0x1
 2850 0a65 00000000 		.4byte	.LFB68
 2851 0a69 18000000 		.4byte	.LFE68
 2852 0a6d D0000000 		.4byte	.LLST5
 2853 0a71 900A0000 		.4byte	0xa90
 2854 0a75 25       		.uleb128 0x25
 2855 0a76 48050000 		.4byte	.LASF113
 2856 0a7a 01       		.byte	0x1
 2857 0a7b A0       		.byte	0xa0
 2858 0a7c EB040000 		.4byte	0x4eb
 2859 0a80 02       		.byte	0x2
 2860 0a81 91       		.byte	0x91
 2861 0a82 6C       		.sleb128 -20
 2862 0a83 1F       		.uleb128 0x1f
 2863 0a84 7100     		.ascii	"q\000"
 2864 0a86 01       		.byte	0x1
 2865 0a87 A3       		.byte	0xa3
 2866 0a88 570A0000 		.4byte	0xa57
 2867 0a8c 02       		.byte	0x2
 2868 0a8d 91       		.byte	0x91
 2869 0a8e 74       		.sleb128 -12
ARM GAS  C:\Users\z80\AppData\Local\Temp\ccudY4us.s 			page 52


 2870 0a8f 00       		.byte	0x0
 2871 0a90 22       		.uleb128 0x22
 2872 0a91 8B030000 		.4byte	.LASF114
 2873 0a95 01       		.byte	0x1
 2874 0a96 A7       		.byte	0xa7
 2875 0a97 01       		.byte	0x1
 2876 0a98 00000000 		.4byte	.LFB69
 2877 0a9c 18000000 		.4byte	.LFE69
 2878 0aa0 FC000000 		.4byte	.LLST6
 2879 0aa4 C30A0000 		.4byte	0xac3
 2880 0aa8 25       		.uleb128 0x25
 2881 0aa9 48050000 		.4byte	.LASF113
 2882 0aad 01       		.byte	0x1
 2883 0aae A7       		.byte	0xa7
 2884 0aaf EB040000 		.4byte	0x4eb
 2885 0ab3 02       		.byte	0x2
 2886 0ab4 91       		.byte	0x91
 2887 0ab5 6C       		.sleb128 -20
 2888 0ab6 1F       		.uleb128 0x1f
 2889 0ab7 7100     		.ascii	"q\000"
 2890 0ab9 01       		.byte	0x1
 2891 0aba AA       		.byte	0xaa
 2892 0abb 570A0000 		.4byte	0xa57
 2893 0abf 02       		.byte	0x2
 2894 0ac0 91       		.byte	0x91
 2895 0ac1 74       		.sleb128 -12
 2896 0ac2 00       		.byte	0x0
 2897 0ac3 22       		.uleb128 0x22
 2898 0ac4 09020000 		.4byte	.LASF115
 2899 0ac8 01       		.byte	0x1
 2900 0ac9 AE       		.byte	0xae
 2901 0aca 01       		.byte	0x1
 2902 0acb 00000000 		.4byte	.LFB70
 2903 0acf 18000000 		.4byte	.LFE70
 2904 0ad3 28010000 		.4byte	.LLST7
 2905 0ad7 F60A0000 		.4byte	0xaf6
 2906 0adb 25       		.uleb128 0x25
 2907 0adc 48050000 		.4byte	.LASF113
 2908 0ae0 01       		.byte	0x1
 2909 0ae1 AE       		.byte	0xae
 2910 0ae2 EB040000 		.4byte	0x4eb
 2911 0ae6 02       		.byte	0x2
 2912 0ae7 91       		.byte	0x91
 2913 0ae8 6C       		.sleb128 -20
 2914 0ae9 1F       		.uleb128 0x1f
 2915 0aea 7100     		.ascii	"q\000"
 2916 0aec 01       		.byte	0x1
 2917 0aed B1       		.byte	0xb1
 2918 0aee 570A0000 		.4byte	0xa57
 2919 0af2 02       		.byte	0x2
 2920 0af3 91       		.byte	0x91
 2921 0af4 74       		.sleb128 -12
 2922 0af5 00       		.byte	0x0
 2923 0af6 22       		.uleb128 0x22
 2924 0af7 B5000000 		.4byte	.LASF116
 2925 0afb 01       		.byte	0x1
 2926 0afc B5       		.byte	0xb5
ARM GAS  C:\Users\z80\AppData\Local\Temp\ccudY4us.s 			page 53


 2927 0afd 01       		.byte	0x1
 2928 0afe 00000000 		.4byte	.LFB71
 2929 0b02 42000000 		.4byte	.LFE71
 2930 0b06 54010000 		.4byte	.LLST8
 2931 0b0a 2B0B0000 		.4byte	0xb2b
 2932 0b0e 25       		.uleb128 0x25
 2933 0b0f 48050000 		.4byte	.LASF113
 2934 0b13 01       		.byte	0x1
 2935 0b14 B5       		.byte	0xb5
 2936 0b15 EB040000 		.4byte	0x4eb
 2937 0b19 02       		.byte	0x2
 2938 0b1a 91       		.byte	0x91
 2939 0b1b 6C       		.sleb128 -20
 2940 0b1c 1E       		.uleb128 0x1e
 2941 0b1d 38000000 		.4byte	.LASF117
 2942 0b21 01       		.byte	0x1
 2943 0b22 B8       		.byte	0xb8
 2944 0b23 86000000 		.4byte	0x86
 2945 0b27 02       		.byte	0x2
 2946 0b28 91       		.byte	0x91
 2947 0b29 74       		.sleb128 -12
 2948 0b2a 00       		.byte	0x0
 2949 0b2b 22       		.uleb128 0x22
 2950 0b2c 47010000 		.4byte	.LASF118
 2951 0b30 01       		.byte	0x1
 2952 0b31 C0       		.byte	0xc0
 2953 0b32 01       		.byte	0x1
 2954 0b33 00000000 		.4byte	.LFB72
 2955 0b37 14000000 		.4byte	.LFE72
 2956 0b3b 80010000 		.4byte	.LLST9
 2957 0b3f 520B0000 		.4byte	0xb52
 2958 0b43 25       		.uleb128 0x25
 2959 0b44 48050000 		.4byte	.LASF113
 2960 0b48 01       		.byte	0x1
 2961 0b49 C0       		.byte	0xc0
 2962 0b4a EB040000 		.4byte	0x4eb
 2963 0b4e 02       		.byte	0x2
 2964 0b4f 91       		.byte	0x91
 2965 0b50 74       		.sleb128 -12
 2966 0b51 00       		.byte	0x0
 2967 0b52 22       		.uleb128 0x22
 2968 0b53 0B030000 		.4byte	.LASF119
 2969 0b57 01       		.byte	0x1
 2970 0b58 C5       		.byte	0xc5
 2971 0b59 01       		.byte	0x1
 2972 0b5a 00000000 		.4byte	.LFB73
 2973 0b5e 14000000 		.4byte	.LFE73
 2974 0b62 AC010000 		.4byte	.LLST10
 2975 0b66 790B0000 		.4byte	0xb79
 2976 0b6a 25       		.uleb128 0x25
 2977 0b6b 48050000 		.4byte	.LASF113
 2978 0b6f 01       		.byte	0x1
 2979 0b70 C5       		.byte	0xc5
 2980 0b71 EB040000 		.4byte	0x4eb
 2981 0b75 02       		.byte	0x2
 2982 0b76 91       		.byte	0x91
 2983 0b77 74       		.sleb128 -12
ARM GAS  C:\Users\z80\AppData\Local\Temp\ccudY4us.s 			page 54


 2984 0b78 00       		.byte	0x0
 2985 0b79 22       		.uleb128 0x22
 2986 0b7a 84000000 		.4byte	.LASF120
 2987 0b7e 01       		.byte	0x1
 2988 0b7f CA       		.byte	0xca
 2989 0b80 01       		.byte	0x1
 2990 0b81 00000000 		.4byte	.LFB74
 2991 0b85 14000000 		.4byte	.LFE74
 2992 0b89 D8010000 		.4byte	.LLST11
 2993 0b8d A00B0000 		.4byte	0xba0
 2994 0b91 25       		.uleb128 0x25
 2995 0b92 48050000 		.4byte	.LASF113
 2996 0b96 01       		.byte	0x1
 2997 0b97 CA       		.byte	0xca
 2998 0b98 EB040000 		.4byte	0x4eb
 2999 0b9c 02       		.byte	0x2
 3000 0b9d 91       		.byte	0x91
 3001 0b9e 74       		.sleb128 -12
 3002 0b9f 00       		.byte	0x0
 3003 0ba0 22       		.uleb128 0x22
 3004 0ba1 94020000 		.4byte	.LASF121
 3005 0ba5 01       		.byte	0x1
 3006 0ba6 CF       		.byte	0xcf
 3007 0ba7 01       		.byte	0x1
 3008 0ba8 00000000 		.4byte	.LFB75
 3009 0bac 20000000 		.4byte	.LFE75
 3010 0bb0 04020000 		.4byte	.LLST12
 3011 0bb4 D30B0000 		.4byte	0xbd3
 3012 0bb8 25       		.uleb128 0x25
 3013 0bb9 48050000 		.4byte	.LASF113
 3014 0bbd 01       		.byte	0x1
 3015 0bbe CF       		.byte	0xcf
 3016 0bbf EB040000 		.4byte	0x4eb
 3017 0bc3 02       		.byte	0x2
 3018 0bc4 91       		.byte	0x91
 3019 0bc5 6C       		.sleb128 -20
 3020 0bc6 1F       		.uleb128 0x1f
 3021 0bc7 7100     		.ascii	"q\000"
 3022 0bc9 01       		.byte	0x1
 3023 0bca D2       		.byte	0xd2
 3024 0bcb D30B0000 		.4byte	0xbd3
 3025 0bcf 02       		.byte	0x2
 3026 0bd0 91       		.byte	0x91
 3027 0bd1 74       		.sleb128 -12
 3028 0bd2 00       		.byte	0x0
 3029 0bd3 09       		.uleb128 0x9
 3030 0bd4 04       		.byte	0x4
 3031 0bd5 FC040000 		.4byte	0x4fc
 3032 0bd9 22       		.uleb128 0x22
 3033 0bda 64000000 		.4byte	.LASF122
 3034 0bde 01       		.byte	0x1
 3035 0bdf D6       		.byte	0xd6
 3036 0be0 01       		.byte	0x1
 3037 0be1 00000000 		.4byte	.LFB76
 3038 0be5 20000000 		.4byte	.LFE76
 3039 0be9 30020000 		.4byte	.LLST13
 3040 0bed 0C0C0000 		.4byte	0xc0c
ARM GAS  C:\Users\z80\AppData\Local\Temp\ccudY4us.s 			page 55


 3041 0bf1 25       		.uleb128 0x25
 3042 0bf2 48050000 		.4byte	.LASF113
 3043 0bf6 01       		.byte	0x1
 3044 0bf7 D6       		.byte	0xd6
 3045 0bf8 EB040000 		.4byte	0x4eb
 3046 0bfc 02       		.byte	0x2
 3047 0bfd 91       		.byte	0x91
 3048 0bfe 6C       		.sleb128 -20
 3049 0bff 1F       		.uleb128 0x1f
 3050 0c00 7100     		.ascii	"q\000"
 3051 0c02 01       		.byte	0x1
 3052 0c03 D9       		.byte	0xd9
 3053 0c04 D30B0000 		.4byte	0xbd3
 3054 0c08 02       		.byte	0x2
 3055 0c09 91       		.byte	0x91
 3056 0c0a 74       		.sleb128 -12
 3057 0c0b 00       		.byte	0x0
 3058 0c0c 22       		.uleb128 0x22
 3059 0c0d 00040000 		.4byte	.LASF123
 3060 0c11 01       		.byte	0x1
 3061 0c12 DD       		.byte	0xdd
 3062 0c13 01       		.byte	0x1
 3063 0c14 00000000 		.4byte	.LFB77
 3064 0c18 20000000 		.4byte	.LFE77
 3065 0c1c 5C020000 		.4byte	.LLST14
 3066 0c20 3F0C0000 		.4byte	0xc3f
 3067 0c24 25       		.uleb128 0x25
 3068 0c25 48050000 		.4byte	.LASF113
 3069 0c29 01       		.byte	0x1
 3070 0c2a DD       		.byte	0xdd
 3071 0c2b EB040000 		.4byte	0x4eb
 3072 0c2f 02       		.byte	0x2
 3073 0c30 91       		.byte	0x91
 3074 0c31 6C       		.sleb128 -20
 3075 0c32 1F       		.uleb128 0x1f
 3076 0c33 7100     		.ascii	"q\000"
 3077 0c35 01       		.byte	0x1
 3078 0c36 E0       		.byte	0xe0
 3079 0c37 D30B0000 		.4byte	0xbd3
 3080 0c3b 02       		.byte	0x2
 3081 0c3c 91       		.byte	0x91
 3082 0c3d 74       		.sleb128 -12
 3083 0c3e 00       		.byte	0x0
 3084 0c3f 22       		.uleb128 0x22
 3085 0c40 A9010000 		.4byte	.LASF124
 3086 0c44 01       		.byte	0x1
 3087 0c45 E4       		.byte	0xe4
 3088 0c46 01       		.byte	0x1
 3089 0c47 00000000 		.4byte	.LFB78
 3090 0c4b 20000000 		.4byte	.LFE78
 3091 0c4f 88020000 		.4byte	.LLST15
 3092 0c53 720C0000 		.4byte	0xc72
 3093 0c57 25       		.uleb128 0x25
 3094 0c58 48050000 		.4byte	.LASF113
 3095 0c5c 01       		.byte	0x1
 3096 0c5d E4       		.byte	0xe4
 3097 0c5e EB040000 		.4byte	0x4eb
ARM GAS  C:\Users\z80\AppData\Local\Temp\ccudY4us.s 			page 56


 3098 0c62 02       		.byte	0x2
 3099 0c63 91       		.byte	0x91
 3100 0c64 6C       		.sleb128 -20
 3101 0c65 1F       		.uleb128 0x1f
 3102 0c66 7100     		.ascii	"q\000"
 3103 0c68 01       		.byte	0x1
 3104 0c69 E7       		.byte	0xe7
 3105 0c6a D30B0000 		.4byte	0xbd3
 3106 0c6e 02       		.byte	0x2
 3107 0c6f 91       		.byte	0x91
 3108 0c70 74       		.sleb128 -12
 3109 0c71 00       		.byte	0x0
 3110 0c72 22       		.uleb128 0x22
 3111 0c73 98010000 		.4byte	.LASF125
 3112 0c77 01       		.byte	0x1
 3113 0c78 EB       		.byte	0xeb
 3114 0c79 01       		.byte	0x1
 3115 0c7a 00000000 		.4byte	.LFB79
 3116 0c7e 50000000 		.4byte	.LFE79
 3117 0c82 B4020000 		.4byte	.LLST16
 3118 0c86 BF0C0000 		.4byte	0xcbf
 3119 0c8a 25       		.uleb128 0x25
 3120 0c8b 48050000 		.4byte	.LASF113
 3121 0c8f 01       		.byte	0x1
 3122 0c90 EB       		.byte	0xeb
 3123 0c91 EB040000 		.4byte	0x4eb
 3124 0c95 02       		.byte	0x2
 3125 0c96 91       		.byte	0x91
 3126 0c97 5C       		.sleb128 -36
 3127 0c98 1E       		.uleb128 0x1e
 3128 0c99 C5010000 		.4byte	.LASF126
 3129 0c9d 01       		.byte	0x1
 3130 0c9e EE       		.byte	0xee
 3131 0c9f CF0C0000 		.4byte	0xccf
 3132 0ca3 02       		.byte	0x2
 3133 0ca4 91       		.byte	0x91
 3134 0ca5 60       		.sleb128 -32
 3135 0ca6 1F       		.uleb128 0x1f
 3136 0ca7 6C00     		.ascii	"l\000"
 3137 0ca9 01       		.byte	0x1
 3138 0caa EF       		.byte	0xef
 3139 0cab 29000000 		.4byte	0x29
 3140 0caf 02       		.byte	0x2
 3141 0cb0 91       		.byte	0x91
 3142 0cb1 70       		.sleb128 -16
 3143 0cb2 1F       		.uleb128 0x1f
 3144 0cb3 6900     		.ascii	"i\000"
 3145 0cb5 01       		.byte	0x1
 3146 0cb6 F0       		.byte	0xf0
 3147 0cb7 29000000 		.4byte	0x29
 3148 0cbb 02       		.byte	0x2
 3149 0cbc 91       		.byte	0x91
 3150 0cbd 74       		.sleb128 -12
 3151 0cbe 00       		.byte	0x0
 3152 0cbf 1A       		.uleb128 0x1a
 3153 0cc0 49000000 		.4byte	0x49
 3154 0cc4 CF0C0000 		.4byte	0xccf
ARM GAS  C:\Users\z80\AppData\Local\Temp\ccudY4us.s 			page 57


 3155 0cc8 1B       		.uleb128 0x1b
 3156 0cc9 3D030000 		.4byte	0x33d
 3157 0ccd 0D       		.byte	0xd
 3158 0cce 00       		.byte	0x0
 3159 0ccf 11       		.uleb128 0x11
 3160 0cd0 BF0C0000 		.4byte	0xcbf
 3161 0cd4 22       		.uleb128 0x22
 3162 0cd5 12020000 		.4byte	.LASF127
 3163 0cd9 01       		.byte	0x1
 3164 0cda F6       		.byte	0xf6
 3165 0cdb 01       		.byte	0x1
 3166 0cdc 00000000 		.4byte	.LFB80
 3167 0ce0 50000000 		.4byte	.LFE80
 3168 0ce4 E0020000 		.4byte	.LLST17
 3169 0ce8 210D0000 		.4byte	0xd21
 3170 0cec 25       		.uleb128 0x25
 3171 0ced 48050000 		.4byte	.LASF113
 3172 0cf1 01       		.byte	0x1
 3173 0cf2 F6       		.byte	0xf6
 3174 0cf3 EB040000 		.4byte	0x4eb
 3175 0cf7 02       		.byte	0x2
 3176 0cf8 91       		.byte	0x91
 3177 0cf9 64       		.sleb128 -28
 3178 0cfa 1E       		.uleb128 0x1e
 3179 0cfb C5010000 		.4byte	.LASF126
 3180 0cff 01       		.byte	0x1
 3181 0d00 F9       		.byte	0xf9
 3182 0d01 310D0000 		.4byte	0xd31
 3183 0d05 02       		.byte	0x2
 3184 0d06 91       		.byte	0x91
 3185 0d07 68       		.sleb128 -24
 3186 0d08 1F       		.uleb128 0x1f
 3187 0d09 6C00     		.ascii	"l\000"
 3188 0d0b 01       		.byte	0x1
 3189 0d0c FA       		.byte	0xfa
 3190 0d0d 29000000 		.4byte	0x29
 3191 0d11 02       		.byte	0x2
 3192 0d12 91       		.byte	0x91
 3193 0d13 70       		.sleb128 -16
 3194 0d14 1F       		.uleb128 0x1f
 3195 0d15 6900     		.ascii	"i\000"
 3196 0d17 01       		.byte	0x1
 3197 0d18 FB       		.byte	0xfb
 3198 0d19 29000000 		.4byte	0x29
 3199 0d1d 02       		.byte	0x2
 3200 0d1e 91       		.byte	0x91
 3201 0d1f 74       		.sleb128 -12
 3202 0d20 00       		.byte	0x0
 3203 0d21 1A       		.uleb128 0x1a
 3204 0d22 49000000 		.4byte	0x49
 3205 0d26 310D0000 		.4byte	0xd31
 3206 0d2a 1B       		.uleb128 0x1b
 3207 0d2b 3D030000 		.4byte	0x33d
 3208 0d2f 05       		.byte	0x5
 3209 0d30 00       		.byte	0x0
 3210 0d31 11       		.uleb128 0x11
 3211 0d32 210D0000 		.4byte	0xd21
ARM GAS  C:\Users\z80\AppData\Local\Temp\ccudY4us.s 			page 58


 3212 0d36 26       		.uleb128 0x26
 3213 0d37 21030000 		.4byte	.LASF128
 3214 0d3b 01       		.byte	0x1
 3215 0d3c 0601     		.2byte	0x106
 3216 0d3e 01       		.byte	0x1
 3217 0d3f 00000000 		.4byte	.LFB81
 3218 0d43 40000000 		.4byte	.LFE81
 3219 0d47 0C030000 		.4byte	.LLST18
 3220 0d4b 5D0D0000 		.4byte	0xd5d
 3221 0d4f 27       		.uleb128 0x27
 3222 0d50 7600     		.ascii	"v\000"
 3223 0d52 01       		.byte	0x1
 3224 0d53 0601     		.2byte	0x106
 3225 0d55 49000000 		.4byte	0x49
 3226 0d59 02       		.byte	0x2
 3227 0d5a 91       		.byte	0x91
 3228 0d5b 77       		.sleb128 -9
 3229 0d5c 00       		.byte	0x0
 3230 0d5d 28       		.uleb128 0x28
 3231 0d5e 00000000 		.4byte	.LASF138
 3232 0d62 01       		.byte	0x1
 3233 0d63 0D01     		.2byte	0x10d
 3234 0d65 01       		.byte	0x1
 3235 0d66 00000000 		.4byte	.LFB82
 3236 0d6a 18000000 		.4byte	.LFE82
 3237 0d6e 38030000 		.4byte	.LLST19
 3238 0d72 29       		.uleb128 0x29
 3239 0d73 9B000000 		.4byte	.LASF129
 3240 0d77 0F       		.byte	0xf
 3241 0d78 9404     		.2byte	0x494
 3242 0d7a 31060000 		.4byte	0x631
 3243 0d7e 01       		.byte	0x1
 3244 0d7f 01       		.byte	0x1
 3245 0d80 2A       		.uleb128 0x2a
 3246 0d81 53443100 		.ascii	"SD1\000"
 3247 0d85 10       		.byte	0x10
 3248 0d86 FB       		.byte	0xfb
 3249 0d87 42070000 		.4byte	0x742
 3250 0d8b 01       		.byte	0x1
 3251 0d8c 01       		.byte	0x1
 3252 0d8d 1A       		.uleb128 0x1a
 3253 0d8e 49000000 		.4byte	0x49
 3254 0d92 9D0D0000 		.4byte	0xd9d
 3255 0d96 1B       		.uleb128 0x1b
 3256 0d97 3D030000 		.4byte	0x33d
 3257 0d9b 1F       		.byte	0x1f
 3258 0d9c 00       		.byte	0x0
 3259 0d9d 1E       		.uleb128 0x1e
 3260 0d9e 95040000 		.4byte	.LASF130
 3261 0da2 01       		.byte	0x1
 3262 0da3 18       		.byte	0x18
 3263 0da4 8D0D0000 		.4byte	0xd8d
 3264 0da8 05       		.byte	0x5
 3265 0da9 03       		.byte	0x3
 3266 0daa 00000000 		.4byte	buffer
 3267 0dae 1E       		.uleb128 0x1e
 3268 0daf 48050000 		.4byte	.LASF113
ARM GAS  C:\Users\z80\AppData\Local\Temp\ccudY4us.s 			page 59


 3269 0db3 01       		.byte	0x1
 3270 0db4 19       		.byte	0x19
 3271 0db5 8D0D0000 		.4byte	0xd8d
 3272 0db9 05       		.byte	0x5
 3273 0dba 03       		.byte	0x3
 3274 0dbb 00000000 		.4byte	args
 3275 0dbf 1A       		.uleb128 0x1a
 3276 0dc0 0F060000 		.4byte	0x60f
 3277 0dc4 CF0D0000 		.4byte	0xdcf
 3278 0dc8 1B       		.uleb128 0x1b
 3279 0dc9 3D030000 		.4byte	0x33d
 3280 0dcd 0C       		.byte	0xc
 3281 0dce 00       		.byte	0x0
 3282 0dcf 1E       		.uleb128 0x1e
 3283 0dd0 20000000 		.4byte	.LASF131
 3284 0dd4 01       		.byte	0x1
 3285 0dd5 73       		.byte	0x73
 3286 0dd6 BF0D0000 		.4byte	0xdbf
 3287 0dda 05       		.byte	0x5
 3288 0ddb 03       		.byte	0x3
 3289 0ddc 00000000 		.4byte	funcs
 3290 0de0 29       		.uleb128 0x29
 3291 0de1 9B000000 		.4byte	.LASF129
 3292 0de5 0F       		.byte	0xf
 3293 0de6 9404     		.2byte	0x494
 3294 0de8 31060000 		.4byte	0x631
 3295 0dec 01       		.byte	0x1
 3296 0ded 01       		.byte	0x1
 3297 0dee 2A       		.uleb128 0x2a
 3298 0def 53443100 		.ascii	"SD1\000"
 3299 0df3 10       		.byte	0x10
 3300 0df4 FB       		.byte	0xfb
 3301 0df5 42070000 		.4byte	0x742
 3302 0df9 01       		.byte	0x1
 3303 0dfa 01       		.byte	0x1
 3304 0dfb 00       		.byte	0x0
 3305              		.section	.debug_abbrev
 3306 0000 01       		.uleb128 0x1
 3307 0001 11       		.uleb128 0x11
 3308 0002 01       		.byte	0x1
 3309 0003 25       		.uleb128 0x25
 3310 0004 0E       		.uleb128 0xe
 3311 0005 13       		.uleb128 0x13
 3312 0006 0B       		.uleb128 0xb
 3313 0007 03       		.uleb128 0x3
 3314 0008 0E       		.uleb128 0xe
 3315 0009 1B       		.uleb128 0x1b
 3316 000a 0E       		.uleb128 0xe
 3317 000b 11       		.uleb128 0x11
 3318 000c 01       		.uleb128 0x1
 3319 000d 52       		.uleb128 0x52
 3320 000e 01       		.uleb128 0x1
 3321 000f 55       		.uleb128 0x55
 3322 0010 06       		.uleb128 0x6
 3323 0011 10       		.uleb128 0x10
 3324 0012 06       		.uleb128 0x6
 3325 0013 00       		.byte	0x0
ARM GAS  C:\Users\z80\AppData\Local\Temp\ccudY4us.s 			page 60


 3326 0014 00       		.byte	0x0
 3327 0015 02       		.uleb128 0x2
 3328 0016 24       		.uleb128 0x24
 3329 0017 00       		.byte	0x0
 3330 0018 0B       		.uleb128 0xb
 3331 0019 0B       		.uleb128 0xb
 3332 001a 3E       		.uleb128 0x3e
 3333 001b 0B       		.uleb128 0xb
 3334 001c 03       		.uleb128 0x3
 3335 001d 08       		.uleb128 0x8
 3336 001e 00       		.byte	0x0
 3337 001f 00       		.byte	0x0
 3338 0020 03       		.uleb128 0x3
 3339 0021 16       		.uleb128 0x16
 3340 0022 00       		.byte	0x0
 3341 0023 03       		.uleb128 0x3
 3342 0024 0E       		.uleb128 0xe
 3343 0025 3A       		.uleb128 0x3a
 3344 0026 0B       		.uleb128 0xb
 3345 0027 3B       		.uleb128 0x3b
 3346 0028 0B       		.uleb128 0xb
 3347 0029 49       		.uleb128 0x49
 3348 002a 13       		.uleb128 0x13
 3349 002b 00       		.byte	0x0
 3350 002c 00       		.byte	0x0
 3351 002d 04       		.uleb128 0x4
 3352 002e 24       		.uleb128 0x24
 3353 002f 00       		.byte	0x0
 3354 0030 0B       		.uleb128 0xb
 3355 0031 0B       		.uleb128 0xb
 3356 0032 3E       		.uleb128 0x3e
 3357 0033 0B       		.uleb128 0xb
 3358 0034 03       		.uleb128 0x3
 3359 0035 0E       		.uleb128 0xe
 3360 0036 00       		.byte	0x0
 3361 0037 00       		.byte	0x0
 3362 0038 05       		.uleb128 0x5
 3363 0039 13       		.uleb128 0x13
 3364 003a 01       		.byte	0x1
 3365 003b 03       		.uleb128 0x3
 3366 003c 0E       		.uleb128 0xe
 3367 003d 0B       		.uleb128 0xb
 3368 003e 0B       		.uleb128 0xb
 3369 003f 3A       		.uleb128 0x3a
 3370 0040 0B       		.uleb128 0xb
 3371 0041 3B       		.uleb128 0x3b
 3372 0042 0B       		.uleb128 0xb
 3373 0043 01       		.uleb128 0x1
 3374 0044 13       		.uleb128 0x13
 3375 0045 00       		.byte	0x0
 3376 0046 00       		.byte	0x0
 3377 0047 06       		.uleb128 0x6
 3378 0048 0D       		.uleb128 0xd
 3379 0049 00       		.byte	0x0
 3380 004a 03       		.uleb128 0x3
 3381 004b 0E       		.uleb128 0xe
 3382 004c 3A       		.uleb128 0x3a
ARM GAS  C:\Users\z80\AppData\Local\Temp\ccudY4us.s 			page 61


 3383 004d 0B       		.uleb128 0xb
 3384 004e 3B       		.uleb128 0x3b
 3385 004f 0B       		.uleb128 0xb
 3386 0050 49       		.uleb128 0x49
 3387 0051 13       		.uleb128 0x13
 3388 0052 38       		.uleb128 0x38
 3389 0053 0A       		.uleb128 0xa
 3390 0054 00       		.byte	0x0
 3391 0055 00       		.byte	0x0
 3392 0056 07       		.uleb128 0x7
 3393 0057 0D       		.uleb128 0xd
 3394 0058 00       		.byte	0x0
 3395 0059 03       		.uleb128 0x3
 3396 005a 08       		.uleb128 0x8
 3397 005b 3A       		.uleb128 0x3a
 3398 005c 0B       		.uleb128 0xb
 3399 005d 3B       		.uleb128 0x3b
 3400 005e 0B       		.uleb128 0xb
 3401 005f 49       		.uleb128 0x49
 3402 0060 13       		.uleb128 0x13
 3403 0061 38       		.uleb128 0x38
 3404 0062 0A       		.uleb128 0xa
 3405 0063 00       		.byte	0x0
 3406 0064 00       		.byte	0x0
 3407 0065 08       		.uleb128 0x8
 3408 0066 13       		.uleb128 0x13
 3409 0067 01       		.byte	0x1
 3410 0068 0B       		.uleb128 0xb
 3411 0069 0B       		.uleb128 0xb
 3412 006a 3A       		.uleb128 0x3a
 3413 006b 0B       		.uleb128 0xb
 3414 006c 3B       		.uleb128 0x3b
 3415 006d 0B       		.uleb128 0xb
 3416 006e 01       		.uleb128 0x1
 3417 006f 13       		.uleb128 0x13
 3418 0070 00       		.byte	0x0
 3419 0071 00       		.byte	0x0
 3420 0072 09       		.uleb128 0x9
 3421 0073 0F       		.uleb128 0xf
 3422 0074 00       		.byte	0x0
 3423 0075 0B       		.uleb128 0xb
 3424 0076 0B       		.uleb128 0xb
 3425 0077 49       		.uleb128 0x49
 3426 0078 13       		.uleb128 0x13
 3427 0079 00       		.byte	0x0
 3428 007a 00       		.byte	0x0
 3429 007b 0A       		.uleb128 0xa
 3430 007c 0F       		.uleb128 0xf
 3431 007d 00       		.byte	0x0
 3432 007e 0B       		.uleb128 0xb
 3433 007f 0B       		.uleb128 0xb
 3434 0080 00       		.byte	0x0
 3435 0081 00       		.byte	0x0
 3436 0082 0B       		.uleb128 0xb
 3437 0083 0D       		.uleb128 0xd
 3438 0084 00       		.byte	0x0
 3439 0085 03       		.uleb128 0x3
ARM GAS  C:\Users\z80\AppData\Local\Temp\ccudY4us.s 			page 62


 3440 0086 08       		.uleb128 0x8
 3441 0087 3A       		.uleb128 0x3a
 3442 0088 0B       		.uleb128 0xb
 3443 0089 3B       		.uleb128 0x3b
 3444 008a 05       		.uleb128 0x5
 3445 008b 49       		.uleb128 0x49
 3446 008c 13       		.uleb128 0x13
 3447 008d 38       		.uleb128 0x38
 3448 008e 0A       		.uleb128 0xa
 3449 008f 00       		.byte	0x0
 3450 0090 00       		.byte	0x0
 3451 0091 0C       		.uleb128 0xc
 3452 0092 13       		.uleb128 0x13
 3453 0093 01       		.byte	0x1
 3454 0094 03       		.uleb128 0x3
 3455 0095 0E       		.uleb128 0xe
 3456 0096 0B       		.uleb128 0xb
 3457 0097 0B       		.uleb128 0xb
 3458 0098 3A       		.uleb128 0x3a
 3459 0099 0B       		.uleb128 0xb
 3460 009a 3B       		.uleb128 0x3b
 3461 009b 05       		.uleb128 0x5
 3462 009c 01       		.uleb128 0x1
 3463 009d 13       		.uleb128 0x13
 3464 009e 00       		.byte	0x0
 3465 009f 00       		.byte	0x0
 3466 00a0 0D       		.uleb128 0xd
 3467 00a1 24       		.uleb128 0x24
 3468 00a2 00       		.byte	0x0
 3469 00a3 0B       		.uleb128 0xb
 3470 00a4 0B       		.uleb128 0xb
 3471 00a5 3E       		.uleb128 0x3e
 3472 00a6 0B       		.uleb128 0xb
 3473 00a7 00       		.byte	0x0
 3474 00a8 00       		.byte	0x0
 3475 00a9 0E       		.uleb128 0xe
 3476 00aa 35       		.uleb128 0x35
 3477 00ab 00       		.byte	0x0
 3478 00ac 49       		.uleb128 0x49
 3479 00ad 13       		.uleb128 0x13
 3480 00ae 00       		.byte	0x0
 3481 00af 00       		.byte	0x0
 3482 00b0 0F       		.uleb128 0xf
 3483 00b1 17       		.uleb128 0x17
 3484 00b2 01       		.byte	0x1
 3485 00b3 0B       		.uleb128 0xb
 3486 00b4 0B       		.uleb128 0xb
 3487 00b5 3A       		.uleb128 0x3a
 3488 00b6 0B       		.uleb128 0xb
 3489 00b7 3B       		.uleb128 0x3b
 3490 00b8 0B       		.uleb128 0xb
 3491 00b9 01       		.uleb128 0x1
 3492 00ba 13       		.uleb128 0x13
 3493 00bb 00       		.byte	0x0
 3494 00bc 00       		.byte	0x0
 3495 00bd 10       		.uleb128 0x10
 3496 00be 0D       		.uleb128 0xd
ARM GAS  C:\Users\z80\AppData\Local\Temp\ccudY4us.s 			page 63


 3497 00bf 00       		.byte	0x0
 3498 00c0 03       		.uleb128 0x3
 3499 00c1 0E       		.uleb128 0xe
 3500 00c2 3A       		.uleb128 0x3a
 3501 00c3 0B       		.uleb128 0xb
 3502 00c4 3B       		.uleb128 0x3b
 3503 00c5 0B       		.uleb128 0xb
 3504 00c6 49       		.uleb128 0x49
 3505 00c7 13       		.uleb128 0x13
 3506 00c8 00       		.byte	0x0
 3507 00c9 00       		.byte	0x0
 3508 00ca 11       		.uleb128 0x11
 3509 00cb 26       		.uleb128 0x26
 3510 00cc 00       		.byte	0x0
 3511 00cd 49       		.uleb128 0x49
 3512 00ce 13       		.uleb128 0x13
 3513 00cf 00       		.byte	0x0
 3514 00d0 00       		.byte	0x0
 3515 00d1 12       		.uleb128 0x12
 3516 00d2 15       		.uleb128 0x15
 3517 00d3 01       		.byte	0x1
 3518 00d4 27       		.uleb128 0x27
 3519 00d5 0C       		.uleb128 0xc
 3520 00d6 01       		.uleb128 0x1
 3521 00d7 13       		.uleb128 0x13
 3522 00d8 00       		.byte	0x0
 3523 00d9 00       		.byte	0x0
 3524 00da 13       		.uleb128 0x13
 3525 00db 05       		.uleb128 0x5
 3526 00dc 00       		.byte	0x0
 3527 00dd 49       		.uleb128 0x49
 3528 00de 13       		.uleb128 0x13
 3529 00df 00       		.byte	0x0
 3530 00e0 00       		.byte	0x0
 3531 00e1 14       		.uleb128 0x14
 3532 00e2 15       		.uleb128 0x15
 3533 00e3 01       		.byte	0x1
 3534 00e4 27       		.uleb128 0x27
 3535 00e5 0C       		.uleb128 0xc
 3536 00e6 49       		.uleb128 0x49
 3537 00e7 13       		.uleb128 0x13
 3538 00e8 01       		.uleb128 0x1
 3539 00e9 13       		.uleb128 0x13
 3540 00ea 00       		.byte	0x0
 3541 00eb 00       		.byte	0x0
 3542 00ec 15       		.uleb128 0x15
 3543 00ed 16       		.uleb128 0x16
 3544 00ee 00       		.byte	0x0
 3545 00ef 03       		.uleb128 0x3
 3546 00f0 0E       		.uleb128 0xe
 3547 00f1 3A       		.uleb128 0x3a
 3548 00f2 0B       		.uleb128 0xb
 3549 00f3 3B       		.uleb128 0x3b
 3550 00f4 05       		.uleb128 0x5
 3551 00f5 49       		.uleb128 0x49
 3552 00f6 13       		.uleb128 0x13
 3553 00f7 00       		.byte	0x0
ARM GAS  C:\Users\z80\AppData\Local\Temp\ccudY4us.s 			page 64


 3554 00f8 00       		.byte	0x0
 3555 00f9 16       		.uleb128 0x16
 3556 00fa 13       		.uleb128 0x13
 3557 00fb 01       		.byte	0x1
 3558 00fc 0B       		.uleb128 0xb
 3559 00fd 0B       		.uleb128 0xb
 3560 00fe 3A       		.uleb128 0x3a
 3561 00ff 0B       		.uleb128 0xb
 3562 0100 3B       		.uleb128 0x3b
 3563 0101 05       		.uleb128 0x5
 3564 0102 01       		.uleb128 0x1
 3565 0103 13       		.uleb128 0x13
 3566 0104 00       		.byte	0x0
 3567 0105 00       		.byte	0x0
 3568 0106 17       		.uleb128 0x17
 3569 0107 0D       		.uleb128 0xd
 3570 0108 00       		.byte	0x0
 3571 0109 03       		.uleb128 0x3
 3572 010a 0E       		.uleb128 0xe
 3573 010b 3A       		.uleb128 0x3a
 3574 010c 0B       		.uleb128 0xb
 3575 010d 3B       		.uleb128 0x3b
 3576 010e 05       		.uleb128 0x5
 3577 010f 49       		.uleb128 0x49
 3578 0110 13       		.uleb128 0x13
 3579 0111 38       		.uleb128 0x38
 3580 0112 0A       		.uleb128 0xa
 3581 0113 00       		.byte	0x0
 3582 0114 00       		.byte	0x0
 3583 0115 18       		.uleb128 0x18
 3584 0116 04       		.uleb128 0x4
 3585 0117 01       		.byte	0x1
 3586 0118 0B       		.uleb128 0xb
 3587 0119 0B       		.uleb128 0xb
 3588 011a 3A       		.uleb128 0x3a
 3589 011b 0B       		.uleb128 0xb
 3590 011c 3B       		.uleb128 0x3b
 3591 011d 0B       		.uleb128 0xb
 3592 011e 01       		.uleb128 0x1
 3593 011f 13       		.uleb128 0x13
 3594 0120 00       		.byte	0x0
 3595 0121 00       		.byte	0x0
 3596 0122 19       		.uleb128 0x19
 3597 0123 28       		.uleb128 0x28
 3598 0124 00       		.byte	0x0
 3599 0125 03       		.uleb128 0x3
 3600 0126 0E       		.uleb128 0xe
 3601 0127 1C       		.uleb128 0x1c
 3602 0128 0D       		.uleb128 0xd
 3603 0129 00       		.byte	0x0
 3604 012a 00       		.byte	0x0
 3605 012b 1A       		.uleb128 0x1a
 3606 012c 01       		.uleb128 0x1
 3607 012d 01       		.byte	0x1
 3608 012e 49       		.uleb128 0x49
 3609 012f 13       		.uleb128 0x13
 3610 0130 01       		.uleb128 0x1
ARM GAS  C:\Users\z80\AppData\Local\Temp\ccudY4us.s 			page 65


 3611 0131 13       		.uleb128 0x13
 3612 0132 00       		.byte	0x0
 3613 0133 00       		.byte	0x0
 3614 0134 1B       		.uleb128 0x1b
 3615 0135 21       		.uleb128 0x21
 3616 0136 00       		.byte	0x0
 3617 0137 49       		.uleb128 0x49
 3618 0138 13       		.uleb128 0x13
 3619 0139 2F       		.uleb128 0x2f
 3620 013a 0B       		.uleb128 0xb
 3621 013b 00       		.byte	0x0
 3622 013c 00       		.byte	0x0
 3623 013d 1C       		.uleb128 0x1c
 3624 013e 2E       		.uleb128 0x2e
 3625 013f 00       		.byte	0x0
 3626 0140 3F       		.uleb128 0x3f
 3627 0141 0C       		.uleb128 0xc
 3628 0142 03       		.uleb128 0x3
 3629 0143 0E       		.uleb128 0xe
 3630 0144 3A       		.uleb128 0x3a
 3631 0145 0B       		.uleb128 0xb
 3632 0146 3B       		.uleb128 0x3b
 3633 0147 0B       		.uleb128 0xb
 3634 0148 27       		.uleb128 0x27
 3635 0149 0C       		.uleb128 0xc
 3636 014a 11       		.uleb128 0x11
 3637 014b 01       		.uleb128 0x1
 3638 014c 12       		.uleb128 0x12
 3639 014d 01       		.uleb128 0x1
 3640 014e 40       		.uleb128 0x40
 3641 014f 06       		.uleb128 0x6
 3642 0150 00       		.byte	0x0
 3643 0151 00       		.byte	0x0
 3644 0152 1D       		.uleb128 0x1d
 3645 0153 2E       		.uleb128 0x2e
 3646 0154 01       		.byte	0x1
 3647 0155 3F       		.uleb128 0x3f
 3648 0156 0C       		.uleb128 0xc
 3649 0157 03       		.uleb128 0x3
 3650 0158 0E       		.uleb128 0xe
 3651 0159 3A       		.uleb128 0x3a
 3652 015a 0B       		.uleb128 0xb
 3653 015b 3B       		.uleb128 0x3b
 3654 015c 0B       		.uleb128 0xb
 3655 015d 27       		.uleb128 0x27
 3656 015e 0C       		.uleb128 0xc
 3657 015f 11       		.uleb128 0x11
 3658 0160 01       		.uleb128 0x1
 3659 0161 12       		.uleb128 0x12
 3660 0162 01       		.uleb128 0x1
 3661 0163 40       		.uleb128 0x40
 3662 0164 06       		.uleb128 0x6
 3663 0165 01       		.uleb128 0x1
 3664 0166 13       		.uleb128 0x13
 3665 0167 00       		.byte	0x0
 3666 0168 00       		.byte	0x0
 3667 0169 1E       		.uleb128 0x1e
ARM GAS  C:\Users\z80\AppData\Local\Temp\ccudY4us.s 			page 66


 3668 016a 34       		.uleb128 0x34
 3669 016b 00       		.byte	0x0
 3670 016c 03       		.uleb128 0x3
 3671 016d 0E       		.uleb128 0xe
 3672 016e 3A       		.uleb128 0x3a
 3673 016f 0B       		.uleb128 0xb
 3674 0170 3B       		.uleb128 0x3b
 3675 0171 0B       		.uleb128 0xb
 3676 0172 49       		.uleb128 0x49
 3677 0173 13       		.uleb128 0x13
 3678 0174 02       		.uleb128 0x2
 3679 0175 0A       		.uleb128 0xa
 3680 0176 00       		.byte	0x0
 3681 0177 00       		.byte	0x0
 3682 0178 1F       		.uleb128 0x1f
 3683 0179 34       		.uleb128 0x34
 3684 017a 00       		.byte	0x0
 3685 017b 03       		.uleb128 0x3
 3686 017c 08       		.uleb128 0x8
 3687 017d 3A       		.uleb128 0x3a
 3688 017e 0B       		.uleb128 0xb
 3689 017f 3B       		.uleb128 0x3b
 3690 0180 0B       		.uleb128 0xb
 3691 0181 49       		.uleb128 0x49
 3692 0182 13       		.uleb128 0x13
 3693 0183 02       		.uleb128 0x2
 3694 0184 0A       		.uleb128 0xa
 3695 0185 00       		.byte	0x0
 3696 0186 00       		.byte	0x0
 3697 0187 20       		.uleb128 0x20
 3698 0188 0B       		.uleb128 0xb
 3699 0189 01       		.byte	0x1
 3700 018a 11       		.uleb128 0x11
 3701 018b 01       		.uleb128 0x1
 3702 018c 12       		.uleb128 0x12
 3703 018d 01       		.uleb128 0x1
 3704 018e 00       		.byte	0x0
 3705 018f 00       		.byte	0x0
 3706 0190 21       		.uleb128 0x21
 3707 0191 2E       		.uleb128 0x2e
 3708 0192 00       		.byte	0x0
 3709 0193 3F       		.uleb128 0x3f
 3710 0194 0C       		.uleb128 0xc
 3711 0195 03       		.uleb128 0x3
 3712 0196 0E       		.uleb128 0xe
 3713 0197 3A       		.uleb128 0x3a
 3714 0198 0B       		.uleb128 0xb
 3715 0199 3B       		.uleb128 0x3b
 3716 019a 0B       		.uleb128 0xb
 3717 019b 27       		.uleb128 0x27
 3718 019c 0C       		.uleb128 0xc
 3719 019d 49       		.uleb128 0x49
 3720 019e 13       		.uleb128 0x13
 3721 019f 11       		.uleb128 0x11
 3722 01a0 01       		.uleb128 0x1
 3723 01a1 12       		.uleb128 0x12
 3724 01a2 01       		.uleb128 0x1
ARM GAS  C:\Users\z80\AppData\Local\Temp\ccudY4us.s 			page 67


 3725 01a3 40       		.uleb128 0x40
 3726 01a4 0A       		.uleb128 0xa
 3727 01a5 00       		.byte	0x0
 3728 01a6 00       		.byte	0x0
 3729 01a7 22       		.uleb128 0x22
 3730 01a8 2E       		.uleb128 0x2e
 3731 01a9 01       		.byte	0x1
 3732 01aa 03       		.uleb128 0x3
 3733 01ab 0E       		.uleb128 0xe
 3734 01ac 3A       		.uleb128 0x3a
 3735 01ad 0B       		.uleb128 0xb
 3736 01ae 3B       		.uleb128 0x3b
 3737 01af 0B       		.uleb128 0xb
 3738 01b0 27       		.uleb128 0x27
 3739 01b1 0C       		.uleb128 0xc
 3740 01b2 11       		.uleb128 0x11
 3741 01b3 01       		.uleb128 0x1
 3742 01b4 12       		.uleb128 0x12
 3743 01b5 01       		.uleb128 0x1
 3744 01b6 40       		.uleb128 0x40
 3745 01b7 06       		.uleb128 0x6
 3746 01b8 01       		.uleb128 0x1
 3747 01b9 13       		.uleb128 0x13
 3748 01ba 00       		.byte	0x0
 3749 01bb 00       		.byte	0x0
 3750 01bc 23       		.uleb128 0x23
 3751 01bd 05       		.uleb128 0x5
 3752 01be 00       		.byte	0x0
 3753 01bf 03       		.uleb128 0x3
 3754 01c0 08       		.uleb128 0x8
 3755 01c1 3A       		.uleb128 0x3a
 3756 01c2 0B       		.uleb128 0xb
 3757 01c3 3B       		.uleb128 0x3b
 3758 01c4 0B       		.uleb128 0xb
 3759 01c5 49       		.uleb128 0x49
 3760 01c6 13       		.uleb128 0x13
 3761 01c7 02       		.uleb128 0x2
 3762 01c8 0A       		.uleb128 0xa
 3763 01c9 00       		.byte	0x0
 3764 01ca 00       		.byte	0x0
 3765 01cb 24       		.uleb128 0x24
 3766 01cc 0B       		.uleb128 0xb
 3767 01cd 01       		.byte	0x1
 3768 01ce 11       		.uleb128 0x11
 3769 01cf 01       		.uleb128 0x1
 3770 01d0 12       		.uleb128 0x12
 3771 01d1 01       		.uleb128 0x1
 3772 01d2 01       		.uleb128 0x1
 3773 01d3 13       		.uleb128 0x13
 3774 01d4 00       		.byte	0x0
 3775 01d5 00       		.byte	0x0
 3776 01d6 25       		.uleb128 0x25
 3777 01d7 05       		.uleb128 0x5
 3778 01d8 00       		.byte	0x0
 3779 01d9 03       		.uleb128 0x3
 3780 01da 0E       		.uleb128 0xe
 3781 01db 3A       		.uleb128 0x3a
ARM GAS  C:\Users\z80\AppData\Local\Temp\ccudY4us.s 			page 68


 3782 01dc 0B       		.uleb128 0xb
 3783 01dd 3B       		.uleb128 0x3b
 3784 01de 0B       		.uleb128 0xb
 3785 01df 49       		.uleb128 0x49
 3786 01e0 13       		.uleb128 0x13
 3787 01e1 02       		.uleb128 0x2
 3788 01e2 0A       		.uleb128 0xa
 3789 01e3 00       		.byte	0x0
 3790 01e4 00       		.byte	0x0
 3791 01e5 26       		.uleb128 0x26
 3792 01e6 2E       		.uleb128 0x2e
 3793 01e7 01       		.byte	0x1
 3794 01e8 03       		.uleb128 0x3
 3795 01e9 0E       		.uleb128 0xe
 3796 01ea 3A       		.uleb128 0x3a
 3797 01eb 0B       		.uleb128 0xb
 3798 01ec 3B       		.uleb128 0x3b
 3799 01ed 05       		.uleb128 0x5
 3800 01ee 27       		.uleb128 0x27
 3801 01ef 0C       		.uleb128 0xc
 3802 01f0 11       		.uleb128 0x11
 3803 01f1 01       		.uleb128 0x1
 3804 01f2 12       		.uleb128 0x12
 3805 01f3 01       		.uleb128 0x1
 3806 01f4 40       		.uleb128 0x40
 3807 01f5 06       		.uleb128 0x6
 3808 01f6 01       		.uleb128 0x1
 3809 01f7 13       		.uleb128 0x13
 3810 01f8 00       		.byte	0x0
 3811 01f9 00       		.byte	0x0
 3812 01fa 27       		.uleb128 0x27
 3813 01fb 05       		.uleb128 0x5
 3814 01fc 00       		.byte	0x0
 3815 01fd 03       		.uleb128 0x3
 3816 01fe 08       		.uleb128 0x8
 3817 01ff 3A       		.uleb128 0x3a
 3818 0200 0B       		.uleb128 0xb
 3819 0201 3B       		.uleb128 0x3b
 3820 0202 05       		.uleb128 0x5
 3821 0203 49       		.uleb128 0x49
 3822 0204 13       		.uleb128 0x13
 3823 0205 02       		.uleb128 0x2
 3824 0206 0A       		.uleb128 0xa
 3825 0207 00       		.byte	0x0
 3826 0208 00       		.byte	0x0
 3827 0209 28       		.uleb128 0x28
 3828 020a 2E       		.uleb128 0x2e
 3829 020b 00       		.byte	0x0
 3830 020c 03       		.uleb128 0x3
 3831 020d 0E       		.uleb128 0xe
 3832 020e 3A       		.uleb128 0x3a
 3833 020f 0B       		.uleb128 0xb
 3834 0210 3B       		.uleb128 0x3b
 3835 0211 05       		.uleb128 0x5
 3836 0212 27       		.uleb128 0x27
 3837 0213 0C       		.uleb128 0xc
 3838 0214 11       		.uleb128 0x11
ARM GAS  C:\Users\z80\AppData\Local\Temp\ccudY4us.s 			page 69


 3839 0215 01       		.uleb128 0x1
 3840 0216 12       		.uleb128 0x12
 3841 0217 01       		.uleb128 0x1
 3842 0218 40       		.uleb128 0x40
 3843 0219 06       		.uleb128 0x6
 3844 021a 00       		.byte	0x0
 3845 021b 00       		.byte	0x0
 3846 021c 29       		.uleb128 0x29
 3847 021d 34       		.uleb128 0x34
 3848 021e 00       		.byte	0x0
 3849 021f 03       		.uleb128 0x3
 3850 0220 0E       		.uleb128 0xe
 3851 0221 3A       		.uleb128 0x3a
 3852 0222 0B       		.uleb128 0xb
 3853 0223 3B       		.uleb128 0x3b
 3854 0224 05       		.uleb128 0x5
 3855 0225 49       		.uleb128 0x49
 3856 0226 13       		.uleb128 0x13
 3857 0227 3F       		.uleb128 0x3f
 3858 0228 0C       		.uleb128 0xc
 3859 0229 3C       		.uleb128 0x3c
 3860 022a 0C       		.uleb128 0xc
 3861 022b 00       		.byte	0x0
 3862 022c 00       		.byte	0x0
 3863 022d 2A       		.uleb128 0x2a
 3864 022e 34       		.uleb128 0x34
 3865 022f 00       		.byte	0x0
 3866 0230 03       		.uleb128 0x3
 3867 0231 08       		.uleb128 0x8
 3868 0232 3A       		.uleb128 0x3a
 3869 0233 0B       		.uleb128 0xb
 3870 0234 3B       		.uleb128 0x3b
 3871 0235 0B       		.uleb128 0xb
 3872 0236 49       		.uleb128 0x49
 3873 0237 13       		.uleb128 0x13
 3874 0238 3F       		.uleb128 0x3f
 3875 0239 0C       		.uleb128 0xc
 3876 023a 3C       		.uleb128 0x3c
 3877 023b 0C       		.uleb128 0xc
 3878 023c 00       		.byte	0x0
 3879 023d 00       		.byte	0x0
 3880 023e 00       		.byte	0x0
 3881              		.section	.debug_pubnames,"",%progbits
 3882 0000 3E000000 		.4byte	0x3e
 3883 0004 0200     		.2byte	0x2
 3884 0006 00000000 		.4byte	.Ldebug_info0
 3885 000a FC0D0000 		.4byte	0xdfc
 3886 000e 84080000 		.4byte	0x884
 3887 0012 6370755F 		.ascii	"cpu_io_init\000"
 3887      696F5F69 
 3887      6E697400 
 3888 001e 99080000 		.4byte	0x899
 3889 0022 6370755F 		.ascii	"cpu_io_process\000"
 3889      696F5F70 
 3889      726F6365 
 3889      737300
 3890 0031 07090000 		.4byte	0x907
ARM GAS  C:\Users\z80\AppData\Local\Temp\ccudY4us.s 			page 70


 3891 0035 66756E63 		.ascii	"funcArgs\000"
 3891      41726773 
 3891      00
 3892 003e 00000000 		.4byte	0x0
 3893              		.section	.debug_pubtypes,"",%progbits
 3894 0000 41020000 		.4byte	0x241
 3895 0004 0200     		.2byte	0x2
 3896 0006 00000000 		.4byte	.Ldebug_info0
 3897 000a FC0D0000 		.4byte	0xdfc
 3898 000e 30000000 		.4byte	0x30
 3899 0012 73697A65 		.ascii	"size_t\000"
 3899      5F7400
 3900 0019 49000000 		.4byte	0x49
 3901 001d 75696E74 		.ascii	"uint8_t\000"
 3901      385F7400 
 3902 0025 62000000 		.4byte	0x62
 3903 0029 75696E74 		.ascii	"uint16_t\000"
 3903      31365F74 
 3903      00
 3904 0032 74000000 		.4byte	0x74
 3905 0036 696E7433 		.ascii	"int32_t\000"
 3905      325F7400 
 3906 003e 86000000 		.4byte	0x86
 3907 0042 75696E74 		.ascii	"uint32_t\000"
 3907      33325F74 
 3907      00
 3908 004b 9F000000 		.4byte	0x9f
 3909 004f 75696E74 		.ascii	"uint64_t\000"
 3909      36345F74 
 3909      00
 3910 0058 B1000000 		.4byte	0xb1
 3911 005c 75696E74 		.ascii	"uint_fast16_t\000"
 3911      5F666173 
 3911      7431365F 
 3911      7400
 3912 006a BC000000 		.4byte	0xbc
 3913 006e 626F6F6C 		.ascii	"bool_t\000"
 3913      5F7400
 3914 0075 C7000000 		.4byte	0xc7
 3915 0079 746D6F64 		.ascii	"tmode_t\000"
 3915      655F7400 
 3916 0081 D2000000 		.4byte	0xd2
 3917 0085 74737461 		.ascii	"tstate_t\000"
 3917      74655F74 
 3917      00
 3918 008e DD000000 		.4byte	0xdd
 3919 0092 74707269 		.ascii	"tprio_t\000"
 3919      6F5F7400 
 3920 009a E8000000 		.4byte	0xe8
 3921 009e 6D73675F 		.ascii	"msg_t\000"
 3921      7400
 3922 00a4 F3000000 		.4byte	0xf3
 3923 00a8 6576656E 		.ascii	"eventmask_t\000"
 3923      746D6173 
 3923      6B5F7400 
 3924 00b4 FE000000 		.4byte	0xfe
 3925 00b8 73797374 		.ascii	"systime_t\000"
ARM GAS  C:\Users\z80\AppData\Local\Temp\ccudY4us.s 			page 71


 3925      696D655F 
 3925      7400
 3926 00c2 09010000 		.4byte	0x109
 3927 00c6 54687265 		.ascii	"Thread\000"
 3927      616400
 3928 00cd 48020000 		.4byte	0x248
 3929 00d1 54687265 		.ascii	"ThreadsQueue\000"
 3929      61647351 
 3929      75657565 
 3929      00
 3930 00de 6A020000 		.4byte	0x26a
 3931 00e2 54687265 		.ascii	"ThreadsList\000"
 3931      6164734C 
 3931      69737400 
 3932 00ee 75020000 		.4byte	0x275
 3933 00f2 72656761 		.ascii	"regarm_t\000"
 3933      726D5F74 
 3933      00
 3934 00fb 82020000 		.4byte	0x282
 3935 00ff 73746B61 		.ascii	"stkalign_t\000"
 3935      6C69676E 
 3935      5F7400
 3936 010a 8D020000 		.4byte	0x28d
 3937 010e 696E7463 		.ascii	"intctx\000"
 3937      747800
 3938 0115 1A030000 		.4byte	0x31a
 3939 0119 636F6E74 		.ascii	"context\000"
 3939      65787400 
 3940 0121 45030000 		.4byte	0x345
 3941 0125 4D757465 		.ascii	"Mutex\000"
 3941      7800
 3942 012b 82030000 		.4byte	0x382
 3943 012f 4D757465 		.ascii	"Mutex\000"
 3943      7800
 3944 0135 8D030000 		.4byte	0x38d
 3945 0139 4576656E 		.ascii	"EventListener\000"
 3945      744C6973 
 3945      74656E65 
 3945      7200
 3946 0147 98030000 		.4byte	0x398
 3947 014b 4576656E 		.ascii	"EventListener\000"
 3947      744C6973 
 3947      74656E65 
 3947      7200
 3948 0159 D5030000 		.4byte	0x3d5
 3949 015d 4576656E 		.ascii	"EventSource\000"
 3949      74536F75 
 3949      72636500 
 3950 0169 F0030000 		.4byte	0x3f0
 3951 016d 4576656E 		.ascii	"EventSource\000"
 3951      74536F75 
 3951      72636500 
 3952 0179 14010000 		.4byte	0x114
 3953 017d 54687265 		.ascii	"Thread\000"
 3953      616400
 3954 0184 4E040000 		.4byte	0x44e
 3955 0188 47656E65 		.ascii	"GenericQueue\000"
ARM GAS  C:\Users\z80\AppData\Local\Temp\ccudY4us.s 			page 72


 3955      72696351 
 3955      75657565 
 3955      00
 3956 0195 C8040000 		.4byte	0x4c8
 3957 0199 716E6F74 		.ascii	"qnotify_t\000"
 3957      6966795F 
 3957      7400
 3958 01a3 59040000 		.4byte	0x459
 3959 01a7 47656E65 		.ascii	"GenericQueue\000"
 3959      72696351 
 3959      75657565 
 3959      00
 3960 01b4 F1040000 		.4byte	0x4f1
 3961 01b8 496E7075 		.ascii	"InputQueue\000"
 3961      74517565 
 3961      756500
 3962 01c3 FC040000 		.4byte	0x4fc
 3963 01c7 4F757470 		.ascii	"OutputQueue\000"
 3963      75745175 
 3963      65756500 
 3964 01d3 ED050000 		.4byte	0x5ed
 3965 01d7 696F666C 		.ascii	"ioflags_t\000"
 3965      6167735F 
 3965      7400
 3966 01e1 0F060000 		.4byte	0x60f
 3967 01e5 5446756E 		.ascii	"TFunc\000"
 3967      6300
 3968 01eb 10070000 		.4byte	0x710
 3969 01ef 55534152 		.ascii	"USART_TypeDef\000"
 3969      545F5479 
 3969      70654465 
 3969      6600
 3970 01fd 37070000 		.4byte	0x737
 3971 0201 73647374 		.ascii	"sdstate_t\000"
 3971      6174655F 
 3971      7400
 3972 020b 42070000 		.4byte	0x742
 3973 020f 53657269 		.ascii	"SerialDriver\000"
 3973      616C4472 
 3973      69766572 
 3973      00
 3974 021c D8070000 		.4byte	0x7d8
 3975 0220 53657269 		.ascii	"SerialDriverVMT\000"
 3975      616C4472 
 3975      69766572 
 3975      564D5400 
 3976 0230 4D070000 		.4byte	0x74d
 3977 0234 53657269 		.ascii	"SerialDriver\000"
 3977      616C4472 
 3977      69766572 
 3977      00
 3978 0241 00000000 		.4byte	0x0
 3979              		.section	.debug_aranges,"",%progbits
 3980 0000 BC000000 		.4byte	0xbc
 3981 0004 0200     		.2byte	0x2
 3982 0006 00000000 		.4byte	.Ldebug_info0
 3983 000a 04       		.byte	0x4
ARM GAS  C:\Users\z80\AppData\Local\Temp\ccudY4us.s 			page 73


 3984 000b 00       		.byte	0x0
 3985 000c 0000     		.2byte	0x0
 3986 000e 0000     		.2byte	0x0
 3987 0010 00000000 		.4byte	.LFB62
 3988 0014 14000000 		.4byte	.LFE62-.LFB62
 3989 0018 00000000 		.4byte	.LFB63
 3990 001c 14010000 		.4byte	.LFE63-.LFB63
 3991 0020 00000000 		.4byte	.LFB64
 3992 0024 0C000000 		.4byte	.LFE64-.LFB64
 3993 0028 00000000 		.4byte	.LFB65
 3994 002c 64000000 		.4byte	.LFE65-.LFB65
 3995 0030 00000000 		.4byte	.LFB66
 3996 0034 44000000 		.4byte	.LFE66-.LFB66
 3997 0038 00000000 		.4byte	.LFB67
 3998 003c 98000000 		.4byte	.LFE67-.LFB67
 3999 0040 00000000 		.4byte	.LFB68
 4000 0044 18000000 		.4byte	.LFE68-.LFB68
 4001 0048 00000000 		.4byte	.LFB69
 4002 004c 18000000 		.4byte	.LFE69-.LFB69
 4003 0050 00000000 		.4byte	.LFB70
 4004 0054 18000000 		.4byte	.LFE70-.LFB70
 4005 0058 00000000 		.4byte	.LFB71
 4006 005c 42000000 		.4byte	.LFE71-.LFB71
 4007 0060 00000000 		.4byte	.LFB72
 4008 0064 14000000 		.4byte	.LFE72-.LFB72
 4009 0068 00000000 		.4byte	.LFB73
 4010 006c 14000000 		.4byte	.LFE73-.LFB73
 4011 0070 00000000 		.4byte	.LFB74
 4012 0074 14000000 		.4byte	.LFE74-.LFB74
 4013 0078 00000000 		.4byte	.LFB75
 4014 007c 20000000 		.4byte	.LFE75-.LFB75
 4015 0080 00000000 		.4byte	.LFB76
 4016 0084 20000000 		.4byte	.LFE76-.LFB76
 4017 0088 00000000 		.4byte	.LFB77
 4018 008c 20000000 		.4byte	.LFE77-.LFB77
 4019 0090 00000000 		.4byte	.LFB78
 4020 0094 20000000 		.4byte	.LFE78-.LFB78
 4021 0098 00000000 		.4byte	.LFB79
 4022 009c 50000000 		.4byte	.LFE79-.LFB79
 4023 00a0 00000000 		.4byte	.LFB80
 4024 00a4 50000000 		.4byte	.LFE80-.LFB80
 4025 00a8 00000000 		.4byte	.LFB81
 4026 00ac 40000000 		.4byte	.LFE81-.LFB81
 4027 00b0 00000000 		.4byte	.LFB82
 4028 00b4 18000000 		.4byte	.LFE82-.LFB82
 4029 00b8 00000000 		.4byte	0x0
 4030 00bc 00000000 		.4byte	0x0
 4031              		.section	.debug_ranges,"",%progbits
 4032              	.Ldebug_ranges0:
 4033 0000 00000000 		.4byte	.LFB62
 4034 0004 14000000 		.4byte	.LFE62
 4035 0008 00000000 		.4byte	.LFB63
 4036 000c 14010000 		.4byte	.LFE63
 4037 0010 00000000 		.4byte	.LFB64
 4038 0014 0C000000 		.4byte	.LFE64
 4039 0018 00000000 		.4byte	.LFB65
 4040 001c 64000000 		.4byte	.LFE65
ARM GAS  C:\Users\z80\AppData\Local\Temp\ccudY4us.s 			page 74


 4041 0020 00000000 		.4byte	.LFB66
 4042 0024 44000000 		.4byte	.LFE66
 4043 0028 00000000 		.4byte	.LFB67
 4044 002c 98000000 		.4byte	.LFE67
 4045 0030 00000000 		.4byte	.LFB68
 4046 0034 18000000 		.4byte	.LFE68
 4047 0038 00000000 		.4byte	.LFB69
 4048 003c 18000000 		.4byte	.LFE69
 4049 0040 00000000 		.4byte	.LFB70
 4050 0044 18000000 		.4byte	.LFE70
 4051 0048 00000000 		.4byte	.LFB71
 4052 004c 42000000 		.4byte	.LFE71
 4053 0050 00000000 		.4byte	.LFB72
 4054 0054 14000000 		.4byte	.LFE72
 4055 0058 00000000 		.4byte	.LFB73
 4056 005c 14000000 		.4byte	.LFE73
 4057 0060 00000000 		.4byte	.LFB74
 4058 0064 14000000 		.4byte	.LFE74
 4059 0068 00000000 		.4byte	.LFB75
 4060 006c 20000000 		.4byte	.LFE75
 4061 0070 00000000 		.4byte	.LFB76
 4062 0074 20000000 		.4byte	.LFE76
 4063 0078 00000000 		.4byte	.LFB77
 4064 007c 20000000 		.4byte	.LFE77
 4065 0080 00000000 		.4byte	.LFB78
 4066 0084 20000000 		.4byte	.LFE78
 4067 0088 00000000 		.4byte	.LFB79
 4068 008c 50000000 		.4byte	.LFE79
 4069 0090 00000000 		.4byte	.LFB80
 4070 0094 50000000 		.4byte	.LFE80
 4071 0098 00000000 		.4byte	.LFB81
 4072 009c 40000000 		.4byte	.LFE81
 4073 00a0 00000000 		.4byte	.LFB82
 4074 00a4 18000000 		.4byte	.LFE82
 4075 00a8 00000000 		.4byte	0x0
 4076 00ac 00000000 		.4byte	0x0
 4077              		.section	.debug_str,"MS",%progbits,1
 4078              	.LASF138:
 4079 0000 77726974 		.ascii	"writeEom\000"
 4079      65456F6D 
 4079      00
 4080              	.LASF2:
 4081 0009 73697A65 		.ascii	"size_t\000"
 4081      5F7400
 4082              	.LASF57:
 4083 0010 7264796D 		.ascii	"rdymsg\000"
 4083      736700
 4084              	.LASF13:
 4085 0017 75696E74 		.ascii	"uint64_t\000"
 4085      36345F74 
 4085      00
 4086              	.LASF131:
 4087 0020 66756E63 		.ascii	"funcs\000"
 4087      7300
 4088              	.LASF72:
 4089 0026 4F757470 		.ascii	"OutputQueue\000"
 4089      75745175 
ARM GAS  C:\Users\z80\AppData\Local\Temp\ccudY4us.s 			page 75


 4089      65756500 
 4090              	.LASF74:
 4091 0032 5446756E 		.ascii	"TFunc\000"
 4091      6300
 4092              	.LASF117:
 4093 0038 70657269 		.ascii	"period\000"
 4093      6F6400
 4094              	.LASF15:
 4095 003f 75696E74 		.ascii	"uint_fast16_t\000"
 4095      5F666173 
 4095      7431365F 
 4095      7400
 4096              	.LASF14:
 4097 004d 6C6F6E67 		.ascii	"long long unsigned int\000"
 4097      206C6F6E 
 4097      6720756E 
 4097      7369676E 
 4097      65642069 
 4098              	.LASF122:
 4099 0064 7365745F 		.ascii	"set_one_pulse\000"
 4099      6F6E655F 
 4099      70756C73 
 4099      6500
 4100              	.LASF137:
 4101 0072 66756E63 		.ascii	"funcArgs\000"
 4101      41726773 
 4101      00
 4102              	.LASF58:
 4103 007b 65786974 		.ascii	"exitcode\000"
 4103      636F6465 
 4103      00
 4104              	.LASF120:
 4105 0084 7365745F 		.ascii	"set_sc_relay\000"
 4105      73635F72 
 4105      656C6179 
 4105      00
 4106              	.LASF104:
 4107 0091 6F75745F 		.ascii	"out_index\000"
 4107      696E6465 
 4107      7800
 4108              	.LASF129:
 4109 009b 49544D5F 		.ascii	"ITM_RxBuffer\000"
 4109      52784275 
 4109      66666572 
 4109      00
 4110              	.LASF26:
 4111 00a8 705F7072 		.ascii	"p_prio\000"
 4111      696F00
 4112              	.LASF101:
 4113 00af 72656164 		.ascii	"readt\000"
 4113      7400
 4114              	.LASF116:
 4115 00b5 6F73635F 		.ascii	"osc_set_period\000"
 4115      7365745F 
 4115      70657269 
 4115      6F6400
 4116              	.LASF12:
ARM GAS  C:\Users\z80\AppData\Local\Temp\ccudY4us.s 			page 76


 4117 00c4 6C6F6E67 		.ascii	"long long int\000"
 4117      206C6F6E 
 4117      6720696E 
 4117      7400
 4118              	.LASF1:
 4119 00d2 7369676E 		.ascii	"signed char\000"
 4119      65642063 
 4119      68617200 
 4120              	.LASF81:
 4121 00de 47545052 		.ascii	"GTPR\000"
 4121      00
 4122              	.LASF85:
 4123 00e3 53445F53 		.ascii	"SD_STOP\000"
 4123      544F5000 
 4124              	.LASF16:
 4125 00eb 626F6F6C 		.ascii	"bool_t\000"
 4125      5F7400
 4126              	.LASF48:
 4127 00f2 6D5F7175 		.ascii	"m_queue\000"
 4127      65756500 
 4128              	.LASF111:
 4129 00fa 77726974 		.ascii	"writeOscQueue\000"
 4129      654F7363 
 4129      51756575 
 4129      6500
 4130              	.LASF91:
 4131 0108 73746174 		.ascii	"state\000"
 4131      6500
 4132              	.LASF9:
 4133 010e 6C6F6E67 		.ascii	"long int\000"
 4133      20696E74 
 4133      00
 4134              	.LASF18:
 4135 0117 74737461 		.ascii	"tstate_t\000"
 4135      74655F74 
 4135      00
 4136              	.LASF65:
 4137 0120 715F6275 		.ascii	"q_buffer\000"
 4137      66666572 
 4137      00
 4138              	.LASF67:
 4139 0129 715F7772 		.ascii	"q_wrptr\000"
 4139      70747200 
 4140              	.LASF28:
 4141 0131 705F6E65 		.ascii	"p_newer\000"
 4141      77657200 
 4142              	.LASF98:
 4143 0139 70757477 		.ascii	"putwouldblock\000"
 4143      6F756C64 
 4143      626C6F63 
 4143      6B00
 4144              	.LASF118:
 4145 0147 7365745F 		.ascii	"set_leds\000"
 4145      6C656473 
 4145      00
 4146              	.LASF43:
 4147 0150 72656761 		.ascii	"regarm_t\000"
ARM GAS  C:\Users\z80\AppData\Local\Temp\ccudY4us.s 			page 77


 4147      726D5F74 
 4147      00
 4148              	.LASF55:
 4149 0159 4576656E 		.ascii	"EventSource\000"
 4149      74536F75 
 4149      72636500 
 4150              	.LASF94:
 4151 0165 75736172 		.ascii	"usart\000"
 4151      7400
 4152              	.LASF0:
 4153 016b 756E7369 		.ascii	"unsigned int\000"
 4153      676E6564 
 4153      20696E74 
 4153      00
 4154              	.LASF6:
 4155 0178 75696E74 		.ascii	"uint16_t\000"
 4155      31365F74 
 4155      00
 4156              	.LASF95:
 4157 0181 53657269 		.ascii	"SerialDriverVMT\000"
 4157      616C4472 
 4157      69766572 
 4157      564D5400 
 4158              	.LASF34:
 4159 0191 705F7469 		.ascii	"p_time\000"
 4159      6D6500
 4160              	.LASF125:
 4161 0198 68617264 		.ascii	"hardware_version\000"
 4161      77617265 
 4161      5F766572 
 4161      73696F6E 
 4161      00
 4162              	.LASF124:
 4163 01a9 7365745F 		.ascii	"set_sweep\000"
 4163      73776565 
 4163      7000
 4164              	.LASF92:
 4165 01b3 69717565 		.ascii	"iqueue\000"
 4165      756500
 4166              	.LASF36:
 4167 01ba 705F6D73 		.ascii	"p_msgqueue\000"
 4167      67717565 
 4167      756500
 4168              	.LASF126:
 4169 01c5 73747269 		.ascii	"stri\000"
 4169      00
 4170              	.LASF108:
 4171 01ca 65786563 		.ascii	"exec_func\000"
 4171      5F66756E 
 4171      6300
 4172              	.LASF105:
 4173 01d4 6E6F4461 		.ascii	"noData\000"
 4173      746100
 4174              	.LASF19:
 4175 01db 74707269 		.ascii	"tprio_t\000"
 4175      6F5F7400 
 4176              	.LASF89:
ARM GAS  C:\Users\z80\AppData\Local\Temp\ccudY4us.s 			page 78


 4177 01e3 6576656E 		.ascii	"event\000"
 4177      7400
 4178              	.LASF7:
 4179 01e9 73686F72 		.ascii	"short unsigned int\000"
 4179      7420756E 
 4179      7369676E 
 4179      65642069 
 4179      6E7400
 4180              	.LASF20:
 4181 01fc 6D73675F 		.ascii	"msg_t\000"
 4181      7400
 4182              	.LASF93:
 4183 0202 6F717565 		.ascii	"oqueue\000"
 4183      756500
 4184              	.LASF115:
 4185 0209 6F73635F 		.ascii	"osc_iaux\000"
 4185      69617578 
 4185      00
 4186              	.LASF127:
 4187 0212 6669726D 		.ascii	"firmware_version\000"
 4187      77617265 
 4187      5F766572 
 4187      73696F6E 
 4187      00
 4188              	.LASF83:
 4189 0223 55534152 		.ascii	"USART_TypeDef\000"
 4189      545F5479 
 4189      70654465 
 4189      6600
 4190              	.LASF100:
 4191 0231 77726974 		.ascii	"writet\000"
 4191      657400
 4192              	.LASF17:
 4193 0238 746D6F64 		.ascii	"tmode_t\000"
 4193      655F7400 
 4194              	.LASF42:
 4195 0240 54687265 		.ascii	"ThreadsList\000"
 4195      6164734C 
 4195      69737400 
 4196              	.LASF21:
 4197 024c 6576656E 		.ascii	"eventmask_t\000"
 4197      746D6173 
 4197      6B5F7400 
 4198              	.LASF71:
 4199 0258 496E7075 		.ascii	"InputQueue\000"
 4199      74517565 
 4199      756500
 4200              	.LASF70:
 4201 0263 716E6F74 		.ascii	"qnotify_t\000"
 4201      6966795F 
 4201      7400
 4202              	.LASF133:
 4203 026d 2E2F7372 		.ascii	"./src/cpu_io.c\000"
 4203      632F6370 
 4203      755F696F 
 4203      2E6300
 4204              	.LASF62:
ARM GAS  C:\Users\z80\AppData\Local\Temp\ccudY4us.s 			page 79


 4205 027c 47656E65 		.ascii	"GenericQueue\000"
 4205      72696351 
 4205      75657565 
 4205      00
 4206              	.LASF44:
 4207 0289 73746B61 		.ascii	"stkalign_t\000"
 4207      6C69676E 
 4207      5F7400
 4208              	.LASF121:
 4209 0294 7365745F 		.ascii	"set_dac\000"
 4209      64616300 
 4210              	.LASF96:
 4211 029c 77726974 		.ascii	"write\000"
 4211      6500
 4212              	.LASF64:
 4213 02a2 715F636F 		.ascii	"q_counter\000"
 4213      756E7465 
 4213      7200
 4214              	.LASF47:
 4215 02ac 4D757465 		.ascii	"Mutex\000"
 4215      7800
 4216              	.LASF29:
 4217 02b2 705F6F6C 		.ascii	"p_older\000"
 4217      64657200 
 4218              	.LASF136:
 4219 02ba 6370755F 		.ascii	"cpu_io_process\000"
 4219      696F5F70 
 4219      726F6365 
 4219      737300
 4220              	.LASF73:
 4221 02c9 696F666C 		.ascii	"ioflags_t\000"
 4221      6167735F 
 4221      7400
 4222              	.LASF41:
 4223 02d3 54687265 		.ascii	"ThreadsQueue\000"
 4223      61647351 
 4223      75657565 
 4223      00
 4224              	.LASF134:
 4225 02e0 433A5C70 		.ascii	"C:\\projects\\voltamper.git\\firmware\\voltamp\000"
 4225      726F6A65 
 4225      6374735C 
 4225      766F6C74 
 4225      616D7065 
 4226              	.LASF119:
 4227 030b 7365745F 		.ascii	"set_out_relay\000"
 4227      6F75745F 
 4227      72656C61 
 4227      7900
 4228              	.LASF54:
 4229 0319 656C5F6D 		.ascii	"el_mask\000"
 4229      61736B00 
 4230              	.LASF128:
 4231 0321 77726974 		.ascii	"writeResult\000"
 4231      65526573 
 4231      756C7400 
 4232              	.LASF63:
ARM GAS  C:\Users\z80\AppData\Local\Temp\ccudY4us.s 			page 80


 4233 032d 715F7761 		.ascii	"q_waiting\000"
 4233      6974696E 
 4233      6700
 4234              	.LASF75:
 4235 0337 52455345 		.ascii	"RESERVED0\000"
 4235      52564544 
 4235      3000
 4236              	.LASF76:
 4237 0341 52455345 		.ascii	"RESERVED1\000"
 4237      52564544 
 4237      3100
 4238              	.LASF77:
 4239 034b 52455345 		.ascii	"RESERVED2\000"
 4239      52564544 
 4239      3200
 4240              	.LASF78:
 4241 0355 52455345 		.ascii	"RESERVED3\000"
 4241      52564544 
 4241      3300
 4242              	.LASF79:
 4243 035f 52455345 		.ascii	"RESERVED4\000"
 4243      52564544 
 4243      3400
 4244              	.LASF25:
 4245 0369 705F7072 		.ascii	"p_prev\000"
 4245      657600
 4246              	.LASF82:
 4247 0370 52455345 		.ascii	"RESERVED6\000"
 4247      52564544 
 4247      3600
 4248              	.LASF110:
 4249 037a 66756E63 		.ascii	"funcs_sz\000"
 4249      735F737A 
 4249      00
 4250              	.LASF68:
 4251 0383 715F7264 		.ascii	"q_rdptr\000"
 4251      70747200 
 4252              	.LASF114:
 4253 038b 6F73635F 		.ascii	"osc_eref\000"
 4253      65726566 
 4253      00
 4254              	.LASF8:
 4255 0394 696E7433 		.ascii	"int32_t\000"
 4255      325F7400 
 4256              	.LASF4:
 4257 039c 756E7369 		.ascii	"unsigned char\000"
 4257      676E6564 
 4257      20636861 
 4257      7200
 4258              	.LASF53:
 4259 03aa 656C5F6C 		.ascii	"el_listener\000"
 4259      69737465 
 4259      6E657200 
 4260              	.LASF39:
 4261 03b6 705F6D74 		.ascii	"p_mtxlist\000"
 4261      786C6973 
 4261      7400
ARM GAS  C:\Users\z80\AppData\Local\Temp\ccudY4us.s 			page 81


 4262              	.LASF5:
 4263 03c0 73686F72 		.ascii	"short int\000"
 4263      7420696E 
 4263      7400
 4264              	.LASF32:
 4265 03ca 705F7374 		.ascii	"p_state\000"
 4265      61746500 
 4266              	.LASF107:
 4267 03d2 70726F63 		.ascii	"process_command\000"
 4267      6573735F 
 4267      636F6D6D 
 4267      616E6400 
 4268              	.LASF60:
 4269 03e2 65776D61 		.ascii	"ewmask\000"
 4269      736B00
 4270              	.LASF24:
 4271 03e9 705F6E65 		.ascii	"p_next\000"
 4271      787400
 4272              	.LASF33:
 4273 03f0 705F666C 		.ascii	"p_flags\000"
 4273      61677300 
 4274              	.LASF52:
 4275 03f8 656C5F6E 		.ascii	"el_next\000"
 4275      65787400 
 4276              	.LASF123:
 4277 0400 7365745F 		.ascii	"set_meandr\000"
 4277      6D65616E 
 4277      647200
 4278              	.LASF23:
 4279 040b 54687265 		.ascii	"Thread\000"
 4279      616400
 4280              	.LASF38:
 4281 0412 705F6570 		.ascii	"p_epending\000"
 4281      656E6469 
 4281      6E6700
 4282              	.LASF84:
 4283 041d 53445F55 		.ascii	"SD_UNINIT\000"
 4283      4E494E49 
 4283      5400
 4284              	.LASF80:
 4285 0427 52455345 		.ascii	"RESERVED5\000"
 4285      52564544 
 4285      3500
 4286              	.LASF10:
 4287 0431 75696E74 		.ascii	"uint32_t\000"
 4287      33325F74 
 4287      00
 4288              	.LASF87:
 4289 043a 73647374 		.ascii	"sdstate_t\000"
 4289      6174655F 
 4289      7400
 4290              	.LASF88:
 4291 0444 53657269 		.ascii	"SerialDriver\000"
 4291      616C4472 
 4291      69766572 
 4291      00
 4292              	.LASF11:
ARM GAS  C:\Users\z80\AppData\Local\Temp\ccudY4us.s 			page 82


 4293 0451 6C6F6E67 		.ascii	"long unsigned int\000"
 4293      20756E73 
 4293      69676E65 
 4293      6420696E 
 4293      7400
 4294              	.LASF97:
 4295 0463 72656164 		.ascii	"read\000"
 4295      00
 4296              	.LASF61:
 4297 0468 63686172 		.ascii	"char\000"
 4297      00
 4298              	.LASF135:
 4299 046d 6370755F 		.ascii	"cpu_io_init\000"
 4299      696F5F69 
 4299      6E697400 
 4300              	.LASF50:
 4301 0479 6D5F6E65 		.ascii	"m_next\000"
 4301      787400
 4302              	.LASF22:
 4303 0480 73797374 		.ascii	"systime_t\000"
 4303      696D655F 
 4303      7400
 4304              	.LASF40:
 4305 048a 705F7265 		.ascii	"p_realprio\000"
 4305      616C7072 
 4305      696F00
 4306              	.LASF130:
 4307 0495 62756666 		.ascii	"buffer\000"
 4307      657200
 4308              	.LASF31:
 4309 049c 705F7374 		.ascii	"p_stklimit\000"
 4309      6B6C696D 
 4309      697400
 4310              	.LASF106:
 4311 04a7 64617461 		.ascii	"data\000"
 4311      00
 4312              	.LASF102:
 4313 04ac 67657466 		.ascii	"getflags\000"
 4313      6C616773 
 4313      00
 4314              	.LASF46:
 4315 04b5 636F6E74 		.ascii	"context\000"
 4315      65787400 
 4316              	.LASF45:
 4317 04bd 696E7463 		.ascii	"intctx\000"
 4317      747800
 4318              	.LASF86:
 4319 04c4 53445F52 		.ascii	"SD_READY\000"
 4319      45414459 
 4319      00
 4320              	.LASF112:
 4321 04cd 6F73635F 		.ascii	"osc_eaux\000"
 4321      65617578 
 4321      00
 4322              	.LASF66:
 4323 04d6 715F746F 		.ascii	"q_top\000"
 4323      7000
ARM GAS  C:\Users\z80\AppData\Local\Temp\ccudY4us.s 			page 83


 4324              	.LASF30:
 4325 04dc 705F6E61 		.ascii	"p_name\000"
 4325      6D6500
 4326              	.LASF56:
 4327 04e3 65735F6E 		.ascii	"es_next\000"
 4327      65787400 
 4328              	.LASF69:
 4329 04eb 715F6E6F 		.ascii	"q_notify\000"
 4329      74696679 
 4329      00
 4330              	.LASF37:
 4331 04f4 705F6D73 		.ascii	"p_msg\000"
 4331      6700
 4332              	.LASF3:
 4333 04fa 75696E74 		.ascii	"uint8_t\000"
 4333      385F7400 
 4334              	.LASF109:
 4335 0502 66756E63 		.ascii	"func_index\000"
 4335      5F696E64 
 4335      657800
 4336              	.LASF90:
 4337 050d 666C6167 		.ascii	"flags\000"
 4337      7300
 4338              	.LASF51:
 4339 0513 4576656E 		.ascii	"EventListener\000"
 4339      744C6973 
 4339      74656E65 
 4339      7200
 4340              	.LASF132:
 4341 0521 474E5520 		.ascii	"GNU C 4.5.0\000"
 4341      4320342E 
 4341      352E3000 
 4342              	.LASF59:
 4343 052d 77746F62 		.ascii	"wtobjp\000"
 4343      6A7000
 4344              	.LASF103:
 4345 0534 736C6173 		.ascii	"slash\000"
 4345      6800
 4346              	.LASF99:
 4347 053a 67657477 		.ascii	"getwouldblock\000"
 4347      6F756C64 
 4347      626C6F63 
 4347      6B00
 4348              	.LASF113:
 4349 0548 61726773 		.ascii	"args\000"
 4349      00
 4350              	.LASF49:
 4351 054d 6D5F6F77 		.ascii	"m_owner\000"
 4351      6E657200 
 4352              	.LASF27:
 4353 0555 705F6374 		.ascii	"p_ctx\000"
 4353      7800
 4354              	.LASF35:
 4355 055b 705F7761 		.ascii	"p_waiting\000"
 4355      6974696E 
 4355      6700
 4356              		.ident	"GCC: (GNU) 4.5.0"
ARM GAS  C:\Users\z80\AppData\Local\Temp\ccudY4us.s 			page 84


ARM GAS  C:\Users\z80\AppData\Local\Temp\ccudY4us.s 			page 85


DEFINED SYMBOLS
                            *ABS*:00000000 cpu_io.c
C:\Users\z80\AppData\Local\Temp\ccudY4us.s:24     .bss.buffer:00000000 $d
C:\Users\z80\AppData\Local\Temp\ccudY4us.s:27     .bss.buffer:00000000 buffer
C:\Users\z80\AppData\Local\Temp\ccudY4us.s:30     .bss.args:00000000 $d
C:\Users\z80\AppData\Local\Temp\ccudY4us.s:33     .bss.args:00000000 args
C:\Users\z80\AppData\Local\Temp\ccudY4us.s:36     .text.cpu_io_init:00000000 $t
C:\Users\z80\AppData\Local\Temp\ccudY4us.s:42     .text.cpu_io_init:00000000 cpu_io_init
C:\Users\z80\AppData\Local\Temp\ccudY4us.s:65     .text.cpu_io_process:00000000 $t
C:\Users\z80\AppData\Local\Temp\ccudY4us.s:71     .text.cpu_io_process:00000000 cpu_io_process
C:\Users\z80\AppData\Local\Temp\ccudY4us.s:1092   .bss.slash.3686:00000000 slash.3686
C:\Users\z80\AppData\Local\Temp\ccudY4us.s:1098   .bss.out_index.3687:00000000 out_index.3687
C:\Users\z80\AppData\Local\Temp\ccudY4us.s:236    .text.process_command:00000000 process_command
C:\Users\z80\AppData\Local\Temp\ccudY4us.s:203    .text.cpu_io_process:00000110 $d
C:\Users\z80\AppData\Local\Temp\ccudY4us.s:208    .text.funcArgs:00000000 $t
C:\Users\z80\AppData\Local\Temp\ccudY4us.s:214    .text.funcArgs:00000000 funcArgs
C:\Users\z80\AppData\Local\Temp\ccudY4us.s:231    .text.process_command:00000000 $t
C:\Users\z80\AppData\Local\Temp\ccudY4us.s:331    .text.exec_func:00000000 exec_func
C:\Users\z80\AppData\Local\Temp\ccudY4us.s:308    .data.funcs:00000000 $d
C:\Users\z80\AppData\Local\Temp\ccudY4us.s:311    .data.funcs:00000000 funcs
C:\Users\z80\AppData\Local\Temp\ccudY4us.s:496    .text.osc_eaux:00000000 osc_eaux
C:\Users\z80\AppData\Local\Temp\ccudY4us.s:529    .text.osc_eref:00000000 osc_eref
C:\Users\z80\AppData\Local\Temp\ccudY4us.s:562    .text.osc_iaux:00000000 osc_iaux
C:\Users\z80\AppData\Local\Temp\ccudY4us.s:595    .text.osc_set_period:00000000 osc_set_period
C:\Users\z80\AppData\Local\Temp\ccudY4us.s:650    .text.set_leds:00000000 set_leds
C:\Users\z80\AppData\Local\Temp\ccudY4us.s:681    .text.set_out_relay:00000000 set_out_relay
C:\Users\z80\AppData\Local\Temp\ccudY4us.s:712    .text.set_sc_relay:00000000 set_sc_relay
C:\Users\z80\AppData\Local\Temp\ccudY4us.s:743    .text.set_dac:00000000 set_dac
C:\Users\z80\AppData\Local\Temp\ccudY4us.s:778    .text.set_one_pulse:00000000 set_one_pulse
C:\Users\z80\AppData\Local\Temp\ccudY4us.s:813    .text.set_meandr:00000000 set_meandr
C:\Users\z80\AppData\Local\Temp\ccudY4us.s:848    .text.set_sweep:00000000 set_sweep
C:\Users\z80\AppData\Local\Temp\ccudY4us.s:887    .text.hardware_version:00000000 hardware_version
C:\Users\z80\AppData\Local\Temp\ccudY4us.s:951    .text.firmware_version:00000000 firmware_version
C:\Users\z80\AppData\Local\Temp\ccudY4us.s:326    .text.exec_func:00000000 $t
C:\Users\z80\AppData\Local\Temp\ccudY4us.s:381    .text.writeOscQueue:00000000 $t
C:\Users\z80\AppData\Local\Temp\ccudY4us.s:386    .text.writeOscQueue:00000000 writeOscQueue
C:\Users\z80\AppData\Local\Temp\ccudY4us.s:1012   .text.writeResult:00000000 writeResult
C:\Users\z80\AppData\Local\Temp\ccudY4us.s:1064   .text.writeEom:00000000 writeEom
C:\Users\z80\AppData\Local\Temp\ccudY4us.s:491    .text.osc_eaux:00000000 $t
C:\Users\z80\AppData\Local\Temp\ccudY4us.s:524    .text.osc_eref:00000000 $t
C:\Users\z80\AppData\Local\Temp\ccudY4us.s:557    .text.osc_iaux:00000000 $t
C:\Users\z80\AppData\Local\Temp\ccudY4us.s:590    .text.osc_set_period:00000000 $t
C:\Users\z80\AppData\Local\Temp\ccudY4us.s:645    .text.set_leds:00000000 $t
C:\Users\z80\AppData\Local\Temp\ccudY4us.s:676    .text.set_out_relay:00000000 $t
C:\Users\z80\AppData\Local\Temp\ccudY4us.s:707    .text.set_sc_relay:00000000 $t
C:\Users\z80\AppData\Local\Temp\ccudY4us.s:738    .text.set_dac:00000000 $t
C:\Users\z80\AppData\Local\Temp\ccudY4us.s:773    .text.set_one_pulse:00000000 $t
C:\Users\z80\AppData\Local\Temp\ccudY4us.s:808    .text.set_meandr:00000000 $t
C:\Users\z80\AppData\Local\Temp\ccudY4us.s:843    .text.set_sweep:00000000 $t
C:\Users\z80\AppData\Local\Temp\ccudY4us.s:878    .rodata:00000000 $d
C:\Users\z80\AppData\Local\Temp\ccudY4us.s:879    .rodata:00000000 .LC0
C:\Users\z80\AppData\Local\Temp\ccudY4us.s:882    .text.hardware_version:00000000 $t
C:\Users\z80\AppData\Local\Temp\ccudY4us.s:943    .rodata:00000010 .LC1
C:\Users\z80\AppData\Local\Temp\ccudY4us.s:946    .text.firmware_version:00000000 $t
C:\Users\z80\AppData\Local\Temp\ccudY4us.s:1007   .text.writeResult:00000000 $t
C:\Users\z80\AppData\Local\Temp\ccudY4us.s:1054   .text.writeResult:0000003c $d
C:\Users\z80\AppData\Local\Temp\ccudY4us.s:1059   .text.writeEom:00000000 $t
ARM GAS  C:\Users\z80\AppData\Local\Temp\ccudY4us.s 			page 86


C:\Users\z80\AppData\Local\Temp\ccudY4us.s:1085   .text.writeEom:00000014 $d
C:\Users\z80\AppData\Local\Temp\ccudY4us.s:1093   .bss.slash.3686:00000000 $d
C:\Users\z80\AppData\Local\Temp\ccudY4us.s:1095   .bss.out_index.3687:00000000 $d
                     .debug_frame:00000010 $d
C:\Users\z80\AppData\Local\Temp\ccudY4us.s:207    .text.cpu_io_process:00000114 $t
C:\Users\z80\AppData\Local\Temp\ccudY4us.s:1089   .text.writeEom:00000018 $t

UNDEFINED SYMBOLS
SD1
sdStart
chIQGetTimeout
dbg_check_lock
dbg_check_unlock
eauxQueue
erefQueue
iauxQueue
setOscPeriod
setLeds
setOutRelay
setScRelay
commandQueue
chOQPutTimeout
