ARM GAS  C:\Users\z80\AppData\Local\Temp\ccmumy1p.s 			page 1


   1              		.syntax unified
   2              		.cpu cortex-m3
   3              		.fpu softvfp
   4              		.eabi_attribute 20, 1
   5              		.eabi_attribute 21, 1
   6              		.eabi_attribute 23, 3
   7              		.eabi_attribute 24, 1
   8              		.eabi_attribute 25, 1
   9              		.eabi_attribute 26, 1
  10              		.eabi_attribute 30, 6
  11              		.eabi_attribute 18, 4
  12              		.thumb
  13              		.file	"cpu_io.c"
  14              		.section	.debug_abbrev,"",%progbits
  15              	.Ldebug_abbrev0:
  16              		.section	.debug_info,"",%progbits
  17              	.Ldebug_info0:
  18              		.section	.debug_line,"",%progbits
  19              	.Ldebug_line0:
  20 0000 30050000 		.text
  20      02009702 
  20      00000201 
  20      FB0E0D00 
  20      01010101 
  21              	.Ltext0:
  22              		.cfi_sections	.debug_frame
  23              		.section	.bss.buffer,"aw",%nobits
  24              		.align	2
  25              		.type	buffer, %object
  26              		.size	buffer, 32
  27              	buffer:
  28 0000 00000000 		.space	32
  28      00000000 
  28      00000000 
  28      00000000 
  28      00000000 
  29              		.section	.bss.args,"aw",%nobits
  30              		.align	2
  31              		.type	args, %object
  32              		.size	args, 32
  33              	args:
  34 0000 00000000 		.space	32
  34      00000000 
  34      00000000 
  34      00000000 
  34      00000000 
  35              		.section	.text.cpu_io_init,"ax",%progbits
  36              		.align	2
  37              		.p2align 4,,15
  38              		.global	cpu_io_init
  39              		.thumb
  40              		.thumb_func
  41              		.type	cpu_io_init, %function
  42              	cpu_io_init:
  43              	.LFB62:
  44              		.file 1 "./src/cpu_io.c"
  45              		.loc 1 36 0
ARM GAS  C:\Users\z80\AppData\Local\Temp\ccmumy1p.s 			page 2


  46              		.cfi_startproc
  47              		@ args = 0, pretend = 0, frame = 0
  48              		@ frame_needed = 0, uses_anonymous_args = 0
  49 0000 08B5     		push	{r3, lr}
  50              	.LCFI0:
  51              		.cfi_def_cfa_offset 8
  52              		.loc 1 38 0
  53 0002 40F20000 		movw	r0, #:lower16:SD1
  54 0006 C0F20000 		movt	r0, #:upper16:SD1
  55 000a 4FF00001 		mov	r1, #0
  56              		.cfi_offset 14, -4
  57              		.cfi_offset 3, -8
  58 000e FFF7FEFF 		bl	sdStart
  59              		.loc 1 41 0
  60 0012 4FF40060 		mov	r0, #2048
  61 0016 C4F20100 		movt	r0, 16385
  62 001a 4FF40071 		mov	r1, #512
  63 001e 4FF01002 		mov	r2, #16
  64 0022 FFF7FEFF 		bl	_pal_lld_setgroupmode
  65              		.loc 1 42 0
  66 0026 4FF40060 		mov	r0, #2048
  67 002a C4F20100 		movt	r0, 16385
  68 002e 4FF48061 		mov	r1, #1024
  69 0032 4FF00202 		mov	r2, #2
  70 0036 FFF7FEFF 		bl	_pal_lld_setgroupmode
  71              		.loc 1 43 0
  72 003a 08BD     		pop	{r3, pc}
  73              		.cfi_endproc
  74              	.LFE62:
  75              		.size	cpu_io_init, .-cpu_io_init
  76 003c AFF30080 		.section	.text.cpu_io_process,"ax",%progbits
  77              		.align	2
  78              		.p2align 4,,15
  79              		.global	cpu_io_process
  80              		.thumb
  81              		.thumb_func
  82              		.type	cpu_io_process, %function
  83              	cpu_io_process:
  84              	.LFB63:
  85              		.loc 1 46 0
  86              		.cfi_startproc
  87              		@ args = 0, pretend = 0, frame = 8
  88              		@ frame_needed = 0, uses_anonymous_args = 0
  89 0000 00B5     		push	{lr}
  90              	.LCFI1:
  91              		.cfi_def_cfa_offset 4
  92 0002 83B0     		sub	sp, sp, #12
  93              	.LCFI2:
  94              		.cfi_def_cfa_offset 16
  95              		.loc 1 60 0
  96 0004 4248     		ldr	r0, .L12
  97 0006 4FF0FF31 		mov	r1, #-1
  98              		.cfi_offset 14, -4
  99 000a FFF7FEFF 		bl	chIQGetTimeout
 100 000e 0346     		mov	r3, r0
 101 0010 0193     		str	r3, [sp, #4]
 102              		.loc 1 61 0
ARM GAS  C:\Users\z80\AppData\Local\Temp\ccmumy1p.s 			page 3


 103 0012 019B     		ldr	r3, [sp, #4]
 104 0014 B3F1FF3F 		cmp	r3, #-1
 105 0018 03D0     		beq	.L3
 106              		.loc 1 61 0 is_stmt 0 discriminator 2
 107 001a 019B     		ldr	r3, [sp, #4]
 108 001c 13F1020F 		cmn	r3, #2
 109 0020 02D1     		bne	.L4
 110              	.L3:
 111              		.loc 1 61 0 discriminator 1
 112 0022 4FF00103 		mov	r3, #1
 113 0026 01E0     		b	.L5
 114              	.L4:
 115 0028 4FF00003 		mov	r3, #0
 116              	.L5:
 117              		.loc 1 61 0 discriminator 3
 118 002c 8DF80330 		strb	r3, [sp, #3]
 119              		.loc 1 62 0 is_stmt 1 discriminator 3
 120 0030 9DF80330 		ldrb	r3, [sp, #3]	@ zero_extendqisi2
 121 0034 002B     		cmp	r3, #0
 122 0036 69D1     		bne	.L2
 123              	.LBB2:
 124              		.loc 1 64 0
 125 0038 019B     		ldr	r3, [sp, #4]
 126 003a 8DF80230 		strb	r3, [sp, #2]
 127              		.loc 1 66 0
 128 003e 40F20003 		movw	r3, #:lower16:slash.3692
 129 0042 C0F20003 		movt	r3, #:upper16:slash.3692
 130 0046 1B78     		ldrb	r3, [r3, #0]	@ zero_extendqisi2
 131 0048 002B     		cmp	r3, #0
 132 004a 37D1     		bne	.L7
 133              		.loc 1 68 0
 134 004c 9DF80230 		ldrb	r3, [sp, #2]	@ zero_extendqisi2
 135 0050 002B     		cmp	r3, #0
 136 0052 13D1     		bne	.L8
 137              		.loc 1 71 0
 138 0054 40F20003 		movw	r3, #:lower16:out_index.3693
 139 0058 C0F20003 		movt	r3, #:upper16:out_index.3693
 140 005c 1B68     		ldr	r3, [r3, #0]
 141 005e 40F20000 		movw	r0, #:lower16:buffer
 142 0062 C0F20000 		movt	r0, #:upper16:buffer
 143 0066 1946     		mov	r1, r3
 144 0068 FFF7FEFF 		bl	process_command
 145              		.loc 1 72 0
 146 006c 40F20003 		movw	r3, #:lower16:out_index.3693
 147 0070 C0F20003 		movt	r3, #:upper16:out_index.3693
 148 0074 4FF00002 		mov	r2, #0
 149 0078 1A60     		str	r2, [r3, #0]
 150              		.loc 1 77 0
 151 007a 39E0     		b	.L11
 152              	.L8:
 153              		.loc 1 74 0
 154 007c 9DF80230 		ldrb	r3, [sp, #2]	@ zero_extendqisi2
 155 0080 5C2B     		cmp	r3, #92
 156 0082 13D0     		beq	.L10
 157              		.loc 1 75 0
 158 0084 40F20003 		movw	r3, #:lower16:out_index.3693
 159 0088 C0F20003 		movt	r3, #:upper16:out_index.3693
ARM GAS  C:\Users\z80\AppData\Local\Temp\ccmumy1p.s 			page 4


 160 008c 1A68     		ldr	r2, [r3, #0]
 161 008e 40F20003 		movw	r3, #:lower16:buffer
 162 0092 C0F20003 		movt	r3, #:upper16:buffer
 163 0096 9DF80210 		ldrb	r1, [sp, #2]
 164 009a 9954     		strb	r1, [r3, r2]
 165 009c 02F10102 		add	r2, r2, #1
 166 00a0 40F20003 		movw	r3, #:lower16:out_index.3693
 167 00a4 C0F20003 		movt	r3, #:upper16:out_index.3693
 168 00a8 1A60     		str	r2, [r3, #0]
 169              		.loc 1 77 0
 170 00aa 21E0     		b	.L11
 171              	.L10:
 172 00ac 40F20003 		movw	r3, #:lower16:slash.3692
 173 00b0 C0F20003 		movt	r3, #:upper16:slash.3692
 174 00b4 4FF00102 		mov	r2, #1
 175 00b8 1A70     		strb	r2, [r3, #0]
 176 00ba 19E0     		b	.L11
 177              	.L7:
 178              		.loc 1 81 0
 179 00bc 40F20003 		movw	r3, #:lower16:slash.3692
 180 00c0 C0F20003 		movt	r3, #:upper16:slash.3692
 181 00c4 4FF00002 		mov	r2, #0
 182 00c8 1A70     		strb	r2, [r3, #0]
 183              		.loc 1 82 0
 184 00ca 40F20003 		movw	r3, #:lower16:out_index.3693
 185 00ce C0F20003 		movt	r3, #:upper16:out_index.3693
 186 00d2 1A68     		ldr	r2, [r3, #0]
 187 00d4 40F20003 		movw	r3, #:lower16:buffer
 188 00d8 C0F20003 		movt	r3, #:upper16:buffer
 189 00dc 9DF80210 		ldrb	r1, [sp, #2]
 190 00e0 9954     		strb	r1, [r3, r2]
 191 00e2 02F10102 		add	r2, r2, #1
 192 00e6 40F20003 		movw	r3, #:lower16:out_index.3693
 193 00ea C0F20003 		movt	r3, #:upper16:out_index.3693
 194 00ee 1A60     		str	r2, [r3, #0]
 195              	.L11:
 196              		.loc 1 85 0
 197 00f0 40F20003 		movw	r3, #:lower16:out_index.3693
 198 00f4 C0F20003 		movt	r3, #:upper16:out_index.3693
 199 00f8 1B68     		ldr	r3, [r3, #0]
 200 00fa 202B     		cmp	r3, #32
 201 00fc B4BF     		ite	lt
 202 00fe 1A46     		movlt	r2, r3
 203 0100 2022     		movge	r2, #32
 204 0102 40F20003 		movw	r3, #:lower16:out_index.3693
 205 0106 C0F20003 		movt	r3, #:upper16:out_index.3693
 206 010a 1A60     		str	r2, [r3, #0]
 207              	.L2:
 208              	.LBE2:
 209              		.loc 1 88 0
 210 010c 03B0     		add	sp, sp, #12
 211 010e 00BD     		pop	{pc}
 212              	.L13:
 213              		.align	2
 214              	.L12:
 215 0110 10000000 		.word	SD1+16
 216              		.cfi_endproc
ARM GAS  C:\Users\z80\AppData\Local\Temp\ccmumy1p.s 			page 5


 217              	.LFE63:
 218              		.size	cpu_io_process, .-cpu_io_process
 219 0114 AFF30080 		.section	.text.funcArgs,"ax",%progbits
 219      AFF30080 
 219      AFF30080 
 220              		.align	2
 221              		.p2align 4,,15
 222              		.global	funcArgs
 223              		.thumb
 224              		.thumb_func
 225              		.type	funcArgs, %function
 226              	funcArgs:
 227              	.LFB64:
 228              		.loc 1 91 0
 229              		.cfi_startproc
 230              		@ args = 0, pretend = 0, frame = 0
 231              		@ frame_needed = 0, uses_anonymous_args = 0
 232              		@ link register save eliminated.
 233              		.loc 1 92 0
 234 0000 40F20003 		movw	r3, #:lower16:args
 235 0004 C0F20003 		movt	r3, #:upper16:args
 236              		.loc 1 93 0
 237 0008 1846     		mov	r0, r3
 238 000a 7047     		bx	lr
 239              		.cfi_endproc
 240              	.LFE64:
 241              		.size	funcArgs, .-funcArgs
 242 000c AFF30080 		.section	.text.process_command,"ax",%progbits
 243              		.align	2
 244              		.p2align 4,,15
 245              		.thumb
 246              		.thumb_func
 247              		.type	process_command, %function
 248              	process_command:
 249              	.LFB65:
 250              		.loc 1 98 0
 251              		.cfi_startproc
 252              		@ args = 0, pretend = 0, frame = 24
 253              		@ frame_needed = 0, uses_anonymous_args = 0
 254 0000 00B5     		push	{lr}
 255              	.LCFI3:
 256              		.cfi_def_cfa_offset 4
 257 0002 87B0     		sub	sp, sp, #28
 258              	.LCFI4:
 259              		.cfi_def_cfa_offset 32
 260 0004 0190     		str	r0, [sp, #4]
 261 0006 0091     		str	r1, [sp, #0]
 262              		.loc 1 101 0
 263 0008 019B     		ldr	r3, [sp, #4]
 264 000a 1B78     		ldrb	r3, [r3, #0]
 265 000c 8DF81330 		strb	r3, [sp, #19]
 266              		.loc 1 102 0
 267 0010 019B     		ldr	r3, [sp, #4]
 268 0012 03F10103 		add	r3, r3, #1
 269 0016 0393     		str	r3, [sp, #12]
 270              		.loc 1 103 0
 271 0018 9DF81330 		ldrb	r3, [sp, #19]	@ zero_extendqisi2
ARM GAS  C:\Users\z80\AppData\Local\Temp\ccmumy1p.s 			page 6


 272 001c 012B     		cmp	r3, #1
 273 001e 02D0     		beq	.L17
 274              		.cfi_offset 14, -4
 275 0020 022B     		cmp	r3, #2
 276 0022 1AD0     		beq	.L18
 277 0024 1CE0     		b	.L15
 278              	.L17:
 279              		.loc 1 106 0
 280 0026 4FF00003 		mov	r3, #0
 281 002a 0593     		str	r3, [sp, #20]
 282 002c 0EE0     		b	.L19
 283              	.L20:
 284              		.loc 1 107 0 discriminator 2
 285 002e 059B     		ldr	r3, [sp, #20]
 286 0030 039A     		ldr	r2, [sp, #12]
 287 0032 1344     		add	r3, r2, r3
 288 0034 1A78     		ldrb	r2, [r3, #0]	@ zero_extendqisi2
 289 0036 40F20003 		movw	r3, #:lower16:args
 290 003a C0F20003 		movt	r3, #:upper16:args
 291 003e 0599     		ldr	r1, [sp, #20]
 292 0040 0B44     		add	r3, r3, r1
 293 0042 1A70     		strb	r2, [r3, #0]
 294              		.loc 1 106 0 discriminator 2
 295 0044 059B     		ldr	r3, [sp, #20]
 296 0046 03F10103 		add	r3, r3, #1
 297 004a 0593     		str	r3, [sp, #20]
 298              	.L19:
 299              		.loc 1 106 0 is_stmt 0 discriminator 1
 300 004c 009B     		ldr	r3, [sp, #0]
 301 004e 03F1FF32 		add	r2, r3, #-1
 302 0052 059B     		ldr	r3, [sp, #20]
 303 0054 9A42     		cmp	r2, r3
 304 0056 EADC     		bgt	.L20
 305              		.loc 1 108 0 is_stmt 1
 306 0058 02E0     		b	.L15
 307              	.L18:
 308              		.loc 1 111 0
 309 005a FFF7FEFF 		bl	exec_func
 310              		.loc 1 112 0
 311 005e 00BF     		nop
 312              	.L15:
 313              		.loc 1 114 0
 314 0060 07B0     		add	sp, sp, #28
 315 0062 00BD     		pop	{pc}
 316              		.cfi_endproc
 317              	.LFE65:
 318              		.size	process_command, .-process_command
 319 0064 AFF30080 		.section	.data.funcs,"aw",%progbits
 319      AFF30080 
 319      AFF30080 
 320              		.align	2
 321              		.type	funcs, %object
 322              		.size	funcs, 64
 323              	funcs:
 324 0000 00000000 		.word	osc_eaux
 325 0004 00000000 		.word	osc_eref
 326 0008 00000000 		.word	osc_iaux
ARM GAS  C:\Users\z80\AppData\Local\Temp\ccmumy1p.s 			page 7


 327 000c 00000000 		.word	osc_set_period
 328 0010 00000000 		.word	set_leds
 329 0014 00000000 		.word	set_out_relay
 330 0018 00000000 		.word	set_sc_relay
 331 001c 00000000 		.word	set_dac
 332 0020 00000000 		.word	set_one_pulse
 333 0024 00000000 		.word	set_meandr
 334 0028 00000000 		.word	set_sweep
 335 002c 00000000 		.word	hardware_version
 336 0030 00000000 		.word	firmware_version
 337 0034 00000000 		.word	buffer_set_period
 338 0038 00000000 		.word	buffer_set_signals
 339 003c 00000000 		.word	buffer_data
 340              		.section	.text.exec_func,"ax",%progbits
 341              		.align	2
 342              		.p2align 4,,15
 343              		.thumb
 344              		.thumb_func
 345              		.type	exec_func, %function
 346              	exec_func:
 347              	.LFB66:
 348              		.loc 1 154 0
 349              		.cfi_startproc
 350              		@ args = 0, pretend = 0, frame = 8
 351              		@ frame_needed = 0, uses_anonymous_args = 0
 352 0000 00B5     		push	{lr}
 353              	.LCFI5:
 354              		.cfi_def_cfa_offset 4
 355 0002 83B0     		sub	sp, sp, #12
 356              	.LCFI6:
 357              		.cfi_def_cfa_offset 16
 358              		.loc 1 155 0
 359 0004 40F20003 		movw	r3, #:lower16:buffer
 360 0008 C0F20003 		movt	r3, #:upper16:buffer
 361 000c 5B78     		ldrb	r3, [r3, #1]	@ zero_extendqisi2
 362 000e 0193     		str	r3, [sp, #4]
 363              		.loc 1 157 0
 364 0010 4FF01003 		mov	r3, #16
 365 0014 0093     		str	r3, [sp, #0]
 366              		.loc 1 158 0
 367 0016 019A     		ldr	r2, [sp, #4]
 368 0018 009B     		ldr	r3, [sp, #0]
 369 001a 9A42     		cmp	r2, r3
 370 001c 01DA     		bge	.L22
 371              		.cfi_offset 14, -4
 372              		.loc 1 158 0 is_stmt 0 discriminator 1
 373 001e 019B     		ldr	r3, [sp, #4]
 374 0020 01E0     		b	.L23
 375              	.L22:
 376              		.loc 1 158 0 discriminator 2
 377 0022 4FF00003 		mov	r3, #0
 378              	.L23:
 379              		.loc 1 158 0 discriminator 3
 380 0026 0193     		str	r3, [sp, #4]
 381              		.loc 1 159 0 is_stmt 1 discriminator 3
 382 0028 40F20003 		movw	r3, #:lower16:funcs
 383 002c C0F20003 		movt	r3, #:upper16:funcs
ARM GAS  C:\Users\z80\AppData\Local\Temp\ccmumy1p.s 			page 8


 384 0030 019A     		ldr	r2, [sp, #4]
 385 0032 53F82230 		ldr	r3, [r3, r2, lsl #2]
 386 0036 40F20000 		movw	r0, #:lower16:args
 387 003a C0F20000 		movt	r0, #:upper16:args
 388 003e 9847     		blx	r3
 389              		.loc 1 160 0 discriminator 3
 390 0040 03B0     		add	sp, sp, #12
 391 0042 00BD     		pop	{pc}
 392              		.cfi_endproc
 393              	.LFE66:
 394              		.size	exec_func, .-exec_func
 395 0044 AFF30080 		.section	.text.writeOscQueue,"ax",%progbits
 395      AFF30080 
 395      AFF30080 
 396              		.align	2
 397              		.p2align 4,,15
 398              		.thumb
 399              		.thumb_func
 400              		.type	writeOscQueue, %function
 401              	writeOscQueue:
 402              	.LFB67:
 403              		.loc 1 163 0
 404              		.cfi_startproc
 405              		@ args = 0, pretend = 0, frame = 24
 406              		@ frame_needed = 0, uses_anonymous_args = 0
 407 0000 00B5     		push	{lr}
 408              	.LCFI7:
 409              		.cfi_def_cfa_offset 4
 410 0002 87B0     		sub	sp, sp, #28
 411              	.LCFI8:
 412              		.cfi_def_cfa_offset 32
 413 0004 0190     		str	r0, [sp, #4]
 414              	.LBB3:
 415              		.loc 1 167 0
 416 0006 4FF02003 		mov	r3, #32
 417              	@ 167 "./src/cpu_io.c" 1
 418 000a 83F31188 		msr     BASEPRI, r3
 419              	@ 0 "" 2
 420              		.thumb
 421              	.LBE3:
 422              		.cfi_offset 14, -4
 423 000e FFF7FEFF 		bl	dbg_check_lock
 424              		.loc 1 168 0
 425 0012 019B     		ldr	r3, [sp, #4]
 426 0014 9B68     		ldr	r3, [r3, #8]
 427 0016 4FEA5303 		lsr	r3, r3, #1
 428 001a 4FEA4303 		lsl	r3, r3, #1
 429 001e 0493     		str	r3, [sp, #16]
 430              		.loc 1 169 0
 431 0020 FFF7FEFF 		bl	dbg_check_unlock
 432              	.LBB4:
 433 0024 4FF00003 		mov	r3, #0
 434              	@ 169 "./src/cpu_io.c" 1
 435 0028 83F31188 		msr     BASEPRI, r3
 436              	@ 0 "" 2
 437              		.thumb
 438              	.LBE4:
ARM GAS  C:\Users\z80\AppData\Local\Temp\ccmumy1p.s 			page 9


 439              		.loc 1 171 0
 440 002c 049B     		ldr	r3, [sp, #16]
 441 002e B3F5C07F 		cmp	r3, #384
 442 0032 28BF     		it	cs
 443 0034 4FF4C073 		movcs	r3, #384
 444 0038 0493     		str	r3, [sp, #16]
 445              		.loc 1 172 0
 446 003a 4FF00003 		mov	r3, #0
 447 003e 0593     		str	r3, [sp, #20]
 448 0040 29E0     		b	.L25
 449              	.L31:
 450              	.LBB5:
 451              		.loc 1 174 0
 452 0042 0198     		ldr	r0, [sp, #4]
 453 0044 4FF00001 		mov	r1, #0
 454 0048 FFF7FEFF 		bl	chIQGetTimeout
 455 004c 0346     		mov	r3, r0
 456 004e 0393     		str	r3, [sp, #12]
 457              		.loc 1 175 0
 458 0050 039B     		ldr	r3, [sp, #12]
 459 0052 B3F1FF3F 		cmp	r3, #-1
 460 0056 03D0     		beq	.L26
 461              		.loc 1 175 0 is_stmt 0 discriminator 2
 462 0058 039B     		ldr	r3, [sp, #12]
 463 005a 13F1020F 		cmn	r3, #2
 464 005e 02D1     		bne	.L27
 465              	.L26:
 466              		.loc 1 175 0 discriminator 1
 467 0060 4FF00103 		mov	r3, #1
 468 0064 01E0     		b	.L28
 469              	.L27:
 470 0066 4FF00003 		mov	r3, #0
 471              	.L28:
 472              		.loc 1 175 0 discriminator 3
 473 006a 8DF80B30 		strb	r3, [sp, #11]
 474              		.loc 1 177 0 is_stmt 1 discriminator 3
 475 006e 9DF80B30 		ldrb	r3, [sp, #11]	@ zero_extendqisi2
 476 0072 002B     		cmp	r3, #0
 477 0074 02D1     		bne	.L29
 478              		.loc 1 177 0 is_stmt 0 discriminator 1
 479 0076 039B     		ldr	r3, [sp, #12]
 480 0078 DBB2     		uxtb	r3, r3
 481 007a 01E0     		b	.L30
 482              	.L29:
 483              		.loc 1 177 0 discriminator 2
 484 007c 4FF00003 		mov	r3, #0
 485              	.L30:
 486              		.loc 1 177 0 discriminator 3
 487 0080 8DF80A30 		strb	r3, [sp, #10]
 488              		.loc 1 178 0 is_stmt 1 discriminator 3
 489 0084 9DF80A30 		ldrb	r3, [sp, #10]	@ zero_extendqisi2
 490 0088 1846     		mov	r0, r3
 491 008a FFF7FEFF 		bl	writeResult
 492              	.LBE5:
 493              		.loc 1 172 0 discriminator 3
 494 008e 059B     		ldr	r3, [sp, #20]
 495 0090 03F10103 		add	r3, r3, #1
ARM GAS  C:\Users\z80\AppData\Local\Temp\ccmumy1p.s 			page 10


 496 0094 0593     		str	r3, [sp, #20]
 497              	.L25:
 498              		.loc 1 172 0 is_stmt 0 discriminator 1
 499 0096 059A     		ldr	r2, [sp, #20]
 500 0098 049B     		ldr	r3, [sp, #16]
 501 009a 9A42     		cmp	r2, r3
 502 009c D1D3     		bcc	.L31
 503              		.loc 1 180 0 is_stmt 1
 504 009e FFF7FEFF 		bl	writeEom
 505              		.loc 1 181 0
 506 00a2 07B0     		add	sp, sp, #28
 507 00a4 00BD     		pop	{pc}
 508              		.cfi_endproc
 509              	.LFE67:
 510              		.size	writeOscQueue, .-writeOscQueue
 511 00a6 00BFAFF3 		.section	.text.osc_eaux,"ax",%progbits
 511      0080AFF3 
 511      0080
 512              		.align	2
 513              		.p2align 4,,15
 514              		.thumb
 515              		.thumb_func
 516              		.type	osc_eaux, %function
 517              	osc_eaux:
 518              	.LFB68:
 519              		.loc 1 184 0
 520              		.cfi_startproc
 521              		@ args = 0, pretend = 0, frame = 16
 522              		@ frame_needed = 0, uses_anonymous_args = 0
 523 0000 00B5     		push	{lr}
 524              	.LCFI9:
 525              		.cfi_def_cfa_offset 4
 526 0002 85B0     		sub	sp, sp, #20
 527              	.LCFI10:
 528              		.cfi_def_cfa_offset 24
 529 0004 0190     		str	r0, [sp, #4]
 530              		.loc 1 186 0
 531              		.cfi_offset 14, -4
 532 0006 FFF7FEFF 		bl	eauxQueue
 533 000a 0346     		mov	r3, r0
 534 000c 0393     		str	r3, [sp, #12]
 535              		.loc 1 187 0
 536 000e 0398     		ldr	r0, [sp, #12]
 537 0010 FFF7FEFF 		bl	writeOscQueue
 538              		.loc 1 188 0
 539 0014 05B0     		add	sp, sp, #20
 540 0016 00BD     		pop	{pc}
 541              		.cfi_endproc
 542              	.LFE68:
 543              		.size	osc_eaux, .-osc_eaux
 544 0018 AFF30080 		.section	.text.osc_eref,"ax",%progbits
 544      AFF30080 
 545              		.align	2
 546              		.p2align 4,,15
 547              		.thumb
 548              		.thumb_func
 549              		.type	osc_eref, %function
ARM GAS  C:\Users\z80\AppData\Local\Temp\ccmumy1p.s 			page 11


 550              	osc_eref:
 551              	.LFB69:
 552              		.loc 1 191 0
 553              		.cfi_startproc
 554              		@ args = 0, pretend = 0, frame = 16
 555              		@ frame_needed = 0, uses_anonymous_args = 0
 556 0000 00B5     		push	{lr}
 557              	.LCFI11:
 558              		.cfi_def_cfa_offset 4
 559 0002 85B0     		sub	sp, sp, #20
 560              	.LCFI12:
 561              		.cfi_def_cfa_offset 24
 562 0004 0190     		str	r0, [sp, #4]
 563              		.loc 1 193 0
 564              		.cfi_offset 14, -4
 565 0006 FFF7FEFF 		bl	erefQueue
 566 000a 0346     		mov	r3, r0
 567 000c 0393     		str	r3, [sp, #12]
 568              		.loc 1 194 0
 569 000e 0398     		ldr	r0, [sp, #12]
 570 0010 FFF7FEFF 		bl	writeOscQueue
 571              		.loc 1 195 0
 572 0014 05B0     		add	sp, sp, #20
 573 0016 00BD     		pop	{pc}
 574              		.cfi_endproc
 575              	.LFE69:
 576              		.size	osc_eref, .-osc_eref
 577 0018 AFF30080 		.section	.text.osc_iaux,"ax",%progbits
 577      AFF30080 
 578              		.align	2
 579              		.p2align 4,,15
 580              		.thumb
 581              		.thumb_func
 582              		.type	osc_iaux, %function
 583              	osc_iaux:
 584              	.LFB70:
 585              		.loc 1 198 0
 586              		.cfi_startproc
 587              		@ args = 0, pretend = 0, frame = 16
 588              		@ frame_needed = 0, uses_anonymous_args = 0
 589 0000 00B5     		push	{lr}
 590              	.LCFI13:
 591              		.cfi_def_cfa_offset 4
 592 0002 85B0     		sub	sp, sp, #20
 593              	.LCFI14:
 594              		.cfi_def_cfa_offset 24
 595 0004 0190     		str	r0, [sp, #4]
 596              		.loc 1 200 0
 597              		.cfi_offset 14, -4
 598 0006 FFF7FEFF 		bl	iauxQueue
 599 000a 0346     		mov	r3, r0
 600 000c 0393     		str	r3, [sp, #12]
 601              		.loc 1 201 0
 602 000e 0398     		ldr	r0, [sp, #12]
 603 0010 FFF7FEFF 		bl	writeOscQueue
 604              		.loc 1 202 0
 605 0014 05B0     		add	sp, sp, #20
ARM GAS  C:\Users\z80\AppData\Local\Temp\ccmumy1p.s 			page 12


 606 0016 00BD     		pop	{pc}
 607              		.cfi_endproc
 608              	.LFE70:
 609              		.size	osc_iaux, .-osc_iaux
 610 0018 AFF30080 		.section	.text.osc_set_period,"ax",%progbits
 610      AFF30080 
 611              		.align	2
 612              		.p2align 4,,15
 613              		.thumb
 614              		.thumb_func
 615              		.type	osc_set_period, %function
 616              	osc_set_period:
 617              	.LFB71:
 618              		.loc 1 205 0
 619              		.cfi_startproc
 620              		@ args = 0, pretend = 0, frame = 16
 621              		@ frame_needed = 0, uses_anonymous_args = 0
 622 0000 00B5     		push	{lr}
 623              	.LCFI15:
 624              		.cfi_def_cfa_offset 4
 625 0002 85B0     		sub	sp, sp, #20
 626              	.LCFI16:
 627              		.cfi_def_cfa_offset 24
 628 0004 0190     		str	r0, [sp, #4]
 629              		.loc 1 208 0
 630 0006 019B     		ldr	r3, [sp, #4]
 631 0008 1B78     		ldrb	r3, [r3, #0]	@ zero_extendqisi2
 632 000a 1A46     		mov	r2, r3
 633              		.loc 1 209 0
 634 000c 019B     		ldr	r3, [sp, #4]
 635 000e 03F10103 		add	r3, r3, #1
 636 0012 1B78     		ldrb	r3, [r3, #0]	@ zero_extendqisi2
 637 0014 4FEA0323 		lsl	r3, r3, #8
 638              		.loc 1 208 0
 639 0018 1A44     		add	r2, r2, r3
 640              		.loc 1 210 0
 641 001a 019B     		ldr	r3, [sp, #4]
 642 001c 03F10203 		add	r3, r3, #2
 643 0020 1B78     		ldrb	r3, [r3, #0]	@ zero_extendqisi2
 644 0022 4FEA0343 		lsl	r3, r3, #16
 645              		.loc 1 209 0
 646 0026 1A44     		add	r2, r2, r3
 647              		.loc 1 211 0
 648 0028 019B     		ldr	r3, [sp, #4]
 649 002a 03F10303 		add	r3, r3, #3
 650 002e 1B78     		ldrb	r3, [r3, #0]	@ zero_extendqisi2
 651 0030 4FEA0363 		lsl	r3, r3, #24
 652              		.loc 1 208 0
 653 0034 1344     		add	r3, r2, r3
 654 0036 0393     		str	r3, [sp, #12]
 655              		.loc 1 212 0
 656 0038 0398     		ldr	r0, [sp, #12]
 657              		.cfi_offset 14, -4
 658 003a FFF7FEFF 		bl	setOscPeriod
 659              		.loc 1 213 0
 660 003e 05B0     		add	sp, sp, #20
 661 0040 00BD     		pop	{pc}
ARM GAS  C:\Users\z80\AppData\Local\Temp\ccmumy1p.s 			page 13


 662              		.cfi_endproc
 663              	.LFE71:
 664              		.size	osc_set_period, .-osc_set_period
 665 0042 00BFAFF3 		.section	.text.set_leds,"ax",%progbits
 665      0080AFF3 
 665      0080AFF3 
 665      0080
 666              		.align	2
 667              		.p2align 4,,15
 668              		.thumb
 669              		.thumb_func
 670              		.type	set_leds, %function
 671              	set_leds:
 672              	.LFB72:
 673              		.loc 1 216 0
 674              		.cfi_startproc
 675              		@ args = 0, pretend = 0, frame = 8
 676              		@ frame_needed = 0, uses_anonymous_args = 0
 677 0000 00B5     		push	{lr}
 678              	.LCFI17:
 679              		.cfi_def_cfa_offset 4
 680 0002 83B0     		sub	sp, sp, #12
 681              	.LCFI18:
 682              		.cfi_def_cfa_offset 16
 683 0004 0190     		str	r0, [sp, #4]
 684              		.loc 1 217 0
 685 0006 019B     		ldr	r3, [sp, #4]
 686 0008 1B78     		ldrb	r3, [r3, #0]	@ zero_extendqisi2
 687 000a 1846     		mov	r0, r3
 688              		.cfi_offset 14, -4
 689 000c FFF7FEFF 		bl	setLeds
 690              		.loc 1 218 0
 691 0010 03B0     		add	sp, sp, #12
 692 0012 00BD     		pop	{pc}
 693              		.cfi_endproc
 694              	.LFE72:
 695              		.size	set_leds, .-set_leds
 696 0014 AFF30080 		.section	.text.set_out_relay,"ax",%progbits
 696      AFF30080 
 696      AFF30080 
 697              		.align	2
 698              		.p2align 4,,15
 699              		.thumb
 700              		.thumb_func
 701              		.type	set_out_relay, %function
 702              	set_out_relay:
 703              	.LFB73:
 704              		.loc 1 221 0
 705              		.cfi_startproc
 706              		@ args = 0, pretend = 0, frame = 8
 707              		@ frame_needed = 0, uses_anonymous_args = 0
 708 0000 00B5     		push	{lr}
 709              	.LCFI19:
 710              		.cfi_def_cfa_offset 4
 711 0002 83B0     		sub	sp, sp, #12
 712              	.LCFI20:
 713              		.cfi_def_cfa_offset 16
ARM GAS  C:\Users\z80\AppData\Local\Temp\ccmumy1p.s 			page 14


 714 0004 0190     		str	r0, [sp, #4]
 715              		.loc 1 222 0
 716 0006 019B     		ldr	r3, [sp, #4]
 717 0008 1B78     		ldrb	r3, [r3, #0]	@ zero_extendqisi2
 718 000a 1846     		mov	r0, r3
 719              		.cfi_offset 14, -4
 720 000c FFF7FEFF 		bl	setOutRelay
 721              		.loc 1 223 0
 722 0010 03B0     		add	sp, sp, #12
 723 0012 00BD     		pop	{pc}
 724              		.cfi_endproc
 725              	.LFE73:
 726              		.size	set_out_relay, .-set_out_relay
 727 0014 AFF30080 		.section	.text.set_sc_relay,"ax",%progbits
 727      AFF30080 
 727      AFF30080 
 728              		.align	2
 729              		.p2align 4,,15
 730              		.thumb
 731              		.thumb_func
 732              		.type	set_sc_relay, %function
 733              	set_sc_relay:
 734              	.LFB74:
 735              		.loc 1 226 0
 736              		.cfi_startproc
 737              		@ args = 0, pretend = 0, frame = 8
 738              		@ frame_needed = 0, uses_anonymous_args = 0
 739 0000 00B5     		push	{lr}
 740              	.LCFI21:
 741              		.cfi_def_cfa_offset 4
 742 0002 83B0     		sub	sp, sp, #12
 743              	.LCFI22:
 744              		.cfi_def_cfa_offset 16
 745 0004 0190     		str	r0, [sp, #4]
 746              		.loc 1 227 0
 747 0006 019B     		ldr	r3, [sp, #4]
 748 0008 1B78     		ldrb	r3, [r3, #0]	@ zero_extendqisi2
 749 000a 1846     		mov	r0, r3
 750              		.cfi_offset 14, -4
 751 000c FFF7FEFF 		bl	setScRelay
 752              		.loc 1 228 0
 753 0010 03B0     		add	sp, sp, #12
 754 0012 00BD     		pop	{pc}
 755              		.cfi_endproc
 756              	.LFE74:
 757              		.size	set_sc_relay, .-set_sc_relay
 758 0014 AFF30080 		.section	.text.set_dac,"ax",%progbits
 758      AFF30080 
 758      AFF30080 
 759              		.align	2
 760              		.p2align 4,,15
 761              		.thumb
 762              		.thumb_func
 763              		.type	set_dac, %function
 764              	set_dac:
 765              	.LFB75:
 766              		.loc 1 231 0
ARM GAS  C:\Users\z80\AppData\Local\Temp\ccmumy1p.s 			page 15


 767              		.cfi_startproc
 768              		@ args = 0, pretend = 0, frame = 16
 769              		@ frame_needed = 0, uses_anonymous_args = 0
 770 0000 00B5     		push	{lr}
 771              	.LCFI23:
 772              		.cfi_def_cfa_offset 4
 773 0002 85B0     		sub	sp, sp, #20
 774              	.LCFI24:
 775              		.cfi_def_cfa_offset 24
 776 0004 0190     		str	r0, [sp, #4]
 777              		.loc 1 233 0
 778              		.cfi_offset 14, -4
 779 0006 FFF7FEFF 		bl	commandQueue
 780 000a 0346     		mov	r3, r0
 781 000c 0393     		str	r3, [sp, #12]
 782              		.loc 1 234 0
 783 000e 0398     		ldr	r0, [sp, #12]
 784 0010 4FF00001 		mov	r1, #0
 785 0014 4FF0FF32 		mov	r2, #-1
 786 0018 FFF7FEFF 		bl	chOQPutTimeout
 787              		.loc 1 235 0
 788 001c 05B0     		add	sp, sp, #20
 789 001e 00BD     		pop	{pc}
 790              		.cfi_endproc
 791              	.LFE75:
 792              		.size	set_dac, .-set_dac
 793              		.section	.text.set_one_pulse,"ax",%progbits
 794              		.align	2
 795              		.p2align 4,,15
 796              		.thumb
 797              		.thumb_func
 798              		.type	set_one_pulse, %function
 799              	set_one_pulse:
 800              	.LFB76:
 801              		.loc 1 238 0
 802              		.cfi_startproc
 803              		@ args = 0, pretend = 0, frame = 16
 804              		@ frame_needed = 0, uses_anonymous_args = 0
 805 0000 00B5     		push	{lr}
 806              	.LCFI25:
 807              		.cfi_def_cfa_offset 4
 808 0002 85B0     		sub	sp, sp, #20
 809              	.LCFI26:
 810              		.cfi_def_cfa_offset 24
 811 0004 0190     		str	r0, [sp, #4]
 812              		.loc 1 240 0
 813              		.cfi_offset 14, -4
 814 0006 FFF7FEFF 		bl	commandQueue
 815 000a 0346     		mov	r3, r0
 816 000c 0393     		str	r3, [sp, #12]
 817              		.loc 1 241 0
 818 000e 0398     		ldr	r0, [sp, #12]
 819 0010 4FF00101 		mov	r1, #1
 820 0014 4FF0FF32 		mov	r2, #-1
 821 0018 FFF7FEFF 		bl	chOQPutTimeout
 822              		.loc 1 242 0
 823 001c 05B0     		add	sp, sp, #20
ARM GAS  C:\Users\z80\AppData\Local\Temp\ccmumy1p.s 			page 16


 824 001e 00BD     		pop	{pc}
 825              		.cfi_endproc
 826              	.LFE76:
 827              		.size	set_one_pulse, .-set_one_pulse
 828              		.section	.text.set_meandr,"ax",%progbits
 829              		.align	2
 830              		.p2align 4,,15
 831              		.thumb
 832              		.thumb_func
 833              		.type	set_meandr, %function
 834              	set_meandr:
 835              	.LFB77:
 836              		.loc 1 245 0
 837              		.cfi_startproc
 838              		@ args = 0, pretend = 0, frame = 16
 839              		@ frame_needed = 0, uses_anonymous_args = 0
 840 0000 00B5     		push	{lr}
 841              	.LCFI27:
 842              		.cfi_def_cfa_offset 4
 843 0002 85B0     		sub	sp, sp, #20
 844              	.LCFI28:
 845              		.cfi_def_cfa_offset 24
 846 0004 0190     		str	r0, [sp, #4]
 847              		.loc 1 247 0
 848              		.cfi_offset 14, -4
 849 0006 FFF7FEFF 		bl	commandQueue
 850 000a 0346     		mov	r3, r0
 851 000c 0393     		str	r3, [sp, #12]
 852              		.loc 1 248 0
 853 000e 0398     		ldr	r0, [sp, #12]
 854 0010 4FF00201 		mov	r1, #2
 855 0014 4FF0FF32 		mov	r2, #-1
 856 0018 FFF7FEFF 		bl	chOQPutTimeout
 857              		.loc 1 249 0
 858 001c 05B0     		add	sp, sp, #20
 859 001e 00BD     		pop	{pc}
 860              		.cfi_endproc
 861              	.LFE77:
 862              		.size	set_meandr, .-set_meandr
 863              		.section	.text.set_sweep,"ax",%progbits
 864              		.align	2
 865              		.p2align 4,,15
 866              		.thumb
 867              		.thumb_func
 868              		.type	set_sweep, %function
 869              	set_sweep:
 870              	.LFB78:
 871              		.loc 1 252 0
 872              		.cfi_startproc
 873              		@ args = 0, pretend = 0, frame = 16
 874              		@ frame_needed = 0, uses_anonymous_args = 0
 875 0000 00B5     		push	{lr}
 876              	.LCFI29:
 877              		.cfi_def_cfa_offset 4
 878 0002 85B0     		sub	sp, sp, #20
 879              	.LCFI30:
 880              		.cfi_def_cfa_offset 24
ARM GAS  C:\Users\z80\AppData\Local\Temp\ccmumy1p.s 			page 17


 881 0004 0190     		str	r0, [sp, #4]
 882              		.loc 1 254 0
 883              		.cfi_offset 14, -4
 884 0006 FFF7FEFF 		bl	commandQueue
 885 000a 0346     		mov	r3, r0
 886 000c 0393     		str	r3, [sp, #12]
 887              		.loc 1 255 0
 888 000e 0398     		ldr	r0, [sp, #12]
 889 0010 4FF00301 		mov	r1, #3
 890 0014 4FF0FF32 		mov	r2, #-1
 891 0018 FFF7FEFF 		bl	chOQPutTimeout
 892              		.loc 1 256 0
 893 001c 05B0     		add	sp, sp, #20
 894 001e 00BD     		pop	{pc}
 895              		.cfi_endproc
 896              	.LFE78:
 897              		.size	set_sweep, .-set_sweep
 898              		.section	.rodata
 899              		.align	2
 900              	.LC0:
 901 0000 766F6C74 		.ascii	"voltamp-1.0.0\000"
 901      616D702D 
 901      312E302E 
 901      3000
 902              		.section	.text.hardware_version,"ax",%progbits
 903              		.align	2
 904              		.p2align 4,,15
 905              		.thumb
 906              		.thumb_func
 907              		.type	hardware_version, %function
 908              	hardware_version:
 909              	.LFB79:
 910              		.loc 1 259 0
 911              		.cfi_startproc
 912              		@ args = 0, pretend = 0, frame = 32
 913              		@ frame_needed = 0, uses_anonymous_args = 0
 914 0000 00B5     		push	{lr}
 915              	.LCFI31:
 916              		.cfi_def_cfa_offset 4
 917 0002 89B0     		sub	sp, sp, #36
 918              	.LCFI32:
 919              		.cfi_def_cfa_offset 40
 920 0004 0190     		str	r0, [sp, #4]
 921              		.loc 1 261 0
 922 0006 40F20003 		movw	r3, #:lower16:.LC0
 923 000a C0F20003 		movt	r3, #:upper16:.LC0
 924 000e 0DF1080C 		add	ip, sp, #8
 925 0012 0FCB     		ldmia	r3, {r0, r1, r2, r3}
 926 0014 ACE80700 		stmia	ip!, {r0, r1, r2}
 927 0018 ACF80030 		strh	r3, [ip, #0]	@ movhi
 928              		.loc 1 262 0
 929 001c 4FF00D03 		mov	r3, #13
 930 0020 0693     		str	r3, [sp, #24]
 931              		.loc 1 264 0
 932 0022 4FF00003 		mov	r3, #0
 933 0026 0793     		str	r3, [sp, #28]
 934 0028 0AE0     		b	.L44
ARM GAS  C:\Users\z80\AppData\Local\Temp\ccmumy1p.s 			page 18


 935              		.cfi_offset 14, -4
 936              	.L45:
 937              		.loc 1 265 0 discriminator 2
 938 002a 02AA     		add	r2, sp, #8
 939 002c 079B     		ldr	r3, [sp, #28]
 940 002e 1344     		add	r3, r2, r3
 941 0030 1B78     		ldrb	r3, [r3, #0]	@ zero_extendqisi2
 942 0032 1846     		mov	r0, r3
 943 0034 FFF7FEFF 		bl	writeResult
 944              		.loc 1 264 0 discriminator 2
 945 0038 079B     		ldr	r3, [sp, #28]
 946 003a 03F10103 		add	r3, r3, #1
 947 003e 0793     		str	r3, [sp, #28]
 948              	.L44:
 949              		.loc 1 264 0 is_stmt 0 discriminator 1
 950 0040 079A     		ldr	r2, [sp, #28]
 951 0042 069B     		ldr	r3, [sp, #24]
 952 0044 9A42     		cmp	r2, r3
 953 0046 F0DB     		blt	.L45
 954              		.loc 1 266 0 is_stmt 1
 955 0048 FFF7FEFF 		bl	writeEom
 956              		.loc 1 267 0
 957 004c 09B0     		add	sp, sp, #36
 958 004e 00BD     		pop	{pc}
 959              		.cfi_endproc
 960              	.LFE79:
 961              		.size	hardware_version, .-hardware_version
 962              		.section	.rodata
 963 000e 0000     		.align	2
 964              	.LC1:
 965 0010 302E302E 		.ascii	"0.0.1\000"
 965      3100
 966 0016 0000     		.section	.text.firmware_version,"ax",%progbits
 967              		.align	2
 968              		.p2align 4,,15
 969              		.thumb
 970              		.thumb_func
 971              		.type	firmware_version, %function
 972              	firmware_version:
 973              	.LFB80:
 974              		.loc 1 270 0
 975              		.cfi_startproc
 976              		@ args = 0, pretend = 0, frame = 24
 977              		@ frame_needed = 0, uses_anonymous_args = 0
 978 0000 00B5     		push	{lr}
 979              	.LCFI33:
 980              		.cfi_def_cfa_offset 4
 981 0002 87B0     		sub	sp, sp, #28
 982              	.LCFI34:
 983              		.cfi_def_cfa_offset 32
 984 0004 0190     		str	r0, [sp, #4]
 985              		.loc 1 272 0
 986 0006 40F20002 		movw	r2, #:lower16:.LC1
 987 000a C0F20002 		movt	r2, #:upper16:.LC1
 988 000e 02AB     		add	r3, sp, #8
 989 0010 92E80300 		ldmia	r2, {r0, r1}
 990 0014 1860     		str	r0, [r3, #0]
ARM GAS  C:\Users\z80\AppData\Local\Temp\ccmumy1p.s 			page 19


 991 0016 03F10403 		add	r3, r3, #4
 992 001a 1980     		strh	r1, [r3, #0]	@ movhi
 993              		.loc 1 273 0
 994 001c 4FF00503 		mov	r3, #5
 995 0020 0493     		str	r3, [sp, #16]
 996              		.loc 1 275 0
 997 0022 4FF00003 		mov	r3, #0
 998 0026 0593     		str	r3, [sp, #20]
 999 0028 0AE0     		b	.L47
 1000              		.cfi_offset 14, -4
 1001              	.L48:
 1002              		.loc 1 276 0 discriminator 2
 1003 002a 02AA     		add	r2, sp, #8
 1004 002c 059B     		ldr	r3, [sp, #20]
 1005 002e 1344     		add	r3, r2, r3
 1006 0030 1B78     		ldrb	r3, [r3, #0]	@ zero_extendqisi2
 1007 0032 1846     		mov	r0, r3
 1008 0034 FFF7FEFF 		bl	writeResult
 1009              		.loc 1 275 0 discriminator 2
 1010 0038 059B     		ldr	r3, [sp, #20]
 1011 003a 03F10103 		add	r3, r3, #1
 1012 003e 0593     		str	r3, [sp, #20]
 1013              	.L47:
 1014              		.loc 1 275 0 is_stmt 0 discriminator 1
 1015 0040 059A     		ldr	r2, [sp, #20]
 1016 0042 049B     		ldr	r3, [sp, #16]
 1017 0044 9A42     		cmp	r2, r3
 1018 0046 F0DB     		blt	.L48
 1019              		.loc 1 277 0 is_stmt 1
 1020 0048 FFF7FEFF 		bl	writeEom
 1021              		.loc 1 278 0
 1022 004c 07B0     		add	sp, sp, #28
 1023 004e 00BD     		pop	{pc}
 1024              		.cfi_endproc
 1025              	.LFE80:
 1026              		.size	firmware_version, .-firmware_version
 1027              		.section	.text.buffer_set_period,"ax",%progbits
 1028              		.align	2
 1029              		.p2align 4,,15
 1030              		.thumb
 1031              		.thumb_func
 1032              		.type	buffer_set_period, %function
 1033              	buffer_set_period:
 1034              	.LFB81:
 1035              		.loc 1 281 0
 1036              		.cfi_startproc
 1037              		@ args = 0, pretend = 0, frame = 16
 1038              		@ frame_needed = 0, uses_anonymous_args = 0
 1039 0000 00B5     		push	{lr}
 1040              	.LCFI35:
 1041              		.cfi_def_cfa_offset 4
 1042 0002 85B0     		sub	sp, sp, #20
 1043              	.LCFI36:
 1044              		.cfi_def_cfa_offset 24
 1045 0004 0190     		str	r0, [sp, #4]
 1046              		.loc 1 284 0
 1047 0006 019B     		ldr	r3, [sp, #4]
ARM GAS  C:\Users\z80\AppData\Local\Temp\ccmumy1p.s 			page 20


 1048 0008 1B78     		ldrb	r3, [r3, #0]	@ zero_extendqisi2
 1049 000a 1A46     		mov	r2, r3
 1050              		.loc 1 285 0
 1051 000c 019B     		ldr	r3, [sp, #4]
 1052 000e 03F10103 		add	r3, r3, #1
 1053 0012 1B78     		ldrb	r3, [r3, #0]	@ zero_extendqisi2
 1054 0014 4FEA0323 		lsl	r3, r3, #8
 1055              		.loc 1 284 0
 1056 0018 1A44     		add	r2, r2, r3
 1057              		.loc 1 286 0
 1058 001a 019B     		ldr	r3, [sp, #4]
 1059 001c 03F10203 		add	r3, r3, #2
 1060 0020 1B78     		ldrb	r3, [r3, #0]	@ zero_extendqisi2
 1061 0022 4FEA0343 		lsl	r3, r3, #16
 1062              		.loc 1 285 0
 1063 0026 1A44     		add	r2, r2, r3
 1064              		.loc 1 287 0
 1065 0028 019B     		ldr	r3, [sp, #4]
 1066 002a 03F10303 		add	r3, r3, #3
 1067 002e 1B78     		ldrb	r3, [r3, #0]	@ zero_extendqisi2
 1068 0030 4FEA0363 		lsl	r3, r3, #24
 1069              		.loc 1 284 0
 1070 0034 1344     		add	r3, r2, r3
 1071 0036 0393     		str	r3, [sp, #12]
 1072              		.loc 1 288 0
 1073 0038 0398     		ldr	r0, [sp, #12]
 1074              		.cfi_offset 14, -4
 1075 003a FFF7FEFF 		bl	setBufferPeriod
 1076              		.loc 1 289 0
 1077 003e 05B0     		add	sp, sp, #20
 1078 0040 00BD     		pop	{pc}
 1079              		.cfi_endproc
 1080              	.LFE81:
 1081              		.size	buffer_set_period, .-buffer_set_period
 1082 0042 00BFAFF3 		.section	.text.buffer_set_signals,"ax",%progbits
 1082      0080AFF3 
 1082      0080AFF3 
 1082      0080
 1083              		.align	2
 1084              		.p2align 4,,15
 1085              		.thumb
 1086              		.thumb_func
 1087              		.type	buffer_set_signals, %function
 1088              	buffer_set_signals:
 1089              	.LFB82:
 1090              		.loc 1 292 0
 1091              		.cfi_startproc
 1092              		@ args = 0, pretend = 0, frame = 16
 1093              		@ frame_needed = 0, uses_anonymous_args = 0
 1094 0000 00B5     		push	{lr}
 1095              	.LCFI37:
 1096              		.cfi_def_cfa_offset 4
 1097 0002 85B0     		sub	sp, sp, #20
 1098              	.LCFI38:
 1099              		.cfi_def_cfa_offset 24
 1100 0004 0190     		str	r0, [sp, #4]
 1101              		.loc 1 294 0
ARM GAS  C:\Users\z80\AppData\Local\Temp\ccmumy1p.s 			page 21


 1102 0006 019B     		ldr	r3, [sp, #4]
 1103 0008 1B78     		ldrb	r3, [r3, #0]
 1104 000a 8DF80F30 		strb	r3, [sp, #15]
 1105              		.loc 1 295 0
 1106 000e 9DF80F30 		ldrb	r3, [sp, #15]	@ zero_extendqisi2
 1107 0012 1846     		mov	r0, r3
 1108              		.cfi_offset 14, -4
 1109 0014 FFF7FEFF 		bl	setBufferSigMask
 1110              		.loc 1 296 0
 1111 0018 05B0     		add	sp, sp, #20
 1112 001a 00BD     		pop	{pc}
 1113              		.cfi_endproc
 1114              	.LFE82:
 1115              		.size	buffer_set_signals, .-buffer_set_signals
 1116 001c AFF30080 		.section	.text.buffer_data,"ax",%progbits
 1117              		.align	2
 1118              		.p2align 4,,15
 1119              		.thumb
 1120              		.thumb_func
 1121              		.type	buffer_data, %function
 1122              	buffer_data:
 1123              	.LFB83:
 1124              		.loc 1 299 0
 1125              		.cfi_startproc
 1126              		@ args = 0, pretend = 0, frame = 16
 1127              		@ frame_needed = 0, uses_anonymous_args = 0
 1128 0000 00B5     		push	{lr}
 1129              	.LCFI39:
 1130              		.cfi_def_cfa_offset 4
 1131 0002 85B0     		sub	sp, sp, #20
 1132              	.LCFI40:
 1133              		.cfi_def_cfa_offset 24
 1134 0004 0190     		str	r0, [sp, #4]
 1135              		.loc 1 301 0
 1136              		.cfi_offset 14, -4
 1137 0006 FFF7FEFF 		bl	bufferQueue
 1138 000a 0346     		mov	r3, r0
 1139 000c 0393     		str	r3, [sp, #12]
 1140              		.loc 1 302 0
 1141 000e 0398     		ldr	r0, [sp, #12]
 1142 0010 FFF7FEFF 		bl	writeOscQueue
 1143              		.loc 1 303 0
 1144 0014 05B0     		add	sp, sp, #20
 1145 0016 00BD     		pop	{pc}
 1146              		.cfi_endproc
 1147              	.LFE83:
 1148              		.size	buffer_data, .-buffer_data
 1149 0018 AFF30080 		.section	.text.writeResult,"ax",%progbits
 1149      AFF30080 
 1150              		.align	2
 1151              		.p2align 4,,15
 1152              		.thumb
 1153              		.thumb_func
 1154              		.type	writeResult, %function
 1155              	writeResult:
 1156              	.LFB84:
 1157              		.loc 1 312 0
ARM GAS  C:\Users\z80\AppData\Local\Temp\ccmumy1p.s 			page 22


 1158              		.cfi_startproc
 1159              		@ args = 0, pretend = 0, frame = 8
 1160              		@ frame_needed = 0, uses_anonymous_args = 0
 1161 0000 00B5     		push	{lr}
 1162              	.LCFI41:
 1163              		.cfi_def_cfa_offset 4
 1164 0002 83B0     		sub	sp, sp, #12
 1165              	.LCFI42:
 1166              		.cfi_def_cfa_offset 16
 1167 0004 0346     		mov	r3, r0
 1168 0006 8DF80730 		strb	r3, [sp, #7]
 1169              		.loc 1 313 0
 1170 000a 9DF80730 		ldrb	r3, [sp, #7]	@ zero_extendqisi2
 1171 000e 002B     		cmp	r3, #0
 1172 0010 03D0     		beq	.L53
 1173              		.cfi_offset 14, -4
 1174              		.loc 1 313 0 is_stmt 0 discriminator 1
 1175 0012 9DF80730 		ldrb	r3, [sp, #7]	@ zero_extendqisi2
 1176 0016 5C2B     		cmp	r3, #92
 1177 0018 06D1     		bne	.L54
 1178              	.L53:
 1179              		.loc 1 314 0 is_stmt 1
 1180 001a 0848     		ldr	r0, .L55
 1181 001c 4FF05C01 		mov	r1, #92
 1182 0020 4FF0FF32 		mov	r2, #-1
 1183 0024 FFF7FEFF 		bl	chOQPutTimeout
 1184              	.L54:
 1185              		.loc 1 315 0
 1186 0028 9DF80730 		ldrb	r3, [sp, #7]	@ zero_extendqisi2
 1187 002c 0348     		ldr	r0, .L55
 1188 002e 1946     		mov	r1, r3
 1189 0030 4FF0FF32 		mov	r2, #-1
 1190 0034 FFF7FEFF 		bl	chOQPutTimeout
 1191              		.loc 1 316 0
 1192 0038 03B0     		add	sp, sp, #12
 1193 003a 00BD     		pop	{pc}
 1194              	.L56:
 1195              		.align	2
 1196              	.L55:
 1197 003c 30000000 		.word	SD1+48
 1198              		.cfi_endproc
 1199              	.LFE84:
 1200              		.size	writeResult, .-writeResult
 1201              		.section	.text.writeEom,"ax",%progbits
 1202              		.align	2
 1203              		.p2align 4,,15
 1204              		.thumb
 1205              		.thumb_func
 1206              		.type	writeEom, %function
 1207              	writeEom:
 1208              	.LFB85:
 1209              		.loc 1 319 0
 1210              		.cfi_startproc
 1211              		@ args = 0, pretend = 0, frame = 0
 1212              		@ frame_needed = 0, uses_anonymous_args = 0
 1213 0000 08B5     		push	{r3, lr}
 1214              	.LCFI43:
ARM GAS  C:\Users\z80\AppData\Local\Temp\ccmumy1p.s 			page 23


 1215              		.cfi_def_cfa_offset 8
 1216              		.loc 1 320 0
 1217 0002 0448     		ldr	r0, .L58
 1218 0004 4FF00001 		mov	r1, #0
 1219 0008 4FF0FF32 		mov	r2, #-1
 1220              		.cfi_offset 14, -4
 1221              		.cfi_offset 3, -8
 1222 000c FFF7FEFF 		bl	chOQPutTimeout
 1223              		.loc 1 321 0
 1224 0010 08BD     		pop	{r3, pc}
 1225              	.L59:
 1226 0012 00BF     		.align	2
 1227              	.L58:
 1228 0014 30000000 		.word	SD1+48
 1229              		.cfi_endproc
 1230              	.LFE85:
 1231              		.size	writeEom, .-writeEom
 1232 0018 AFF30080 		.section	.bss.slash.3692,"aw",%nobits
 1232      AFF30080 
 1233              		.type	slash.3692, %object
 1234              		.size	slash.3692, 1
 1235              	slash.3692:
 1236 0000 00       		.space	1
 1237              		.section	.bss.out_index.3693,"aw",%nobits
 1238              		.align	2
 1239              		.type	out_index.3693, %object
 1240              		.size	out_index.3693, 4
 1241              	out_index.3693:
 1242 0000 00000000 		.space	4
 1243              		.text
 1244              	.Letext0:
 1245              		.section	.debug_loc,"",%progbits
 1246              	.Ldebug_loc0:
 1247              	.LLST0:
 1248 0000 00000000 		.4byte	.LFB62
 1249 0004 02000000 		.4byte	.LCFI0
 1250 0008 0200     		.2byte	0x2
 1251 000a 7D       		.byte	0x7d
 1252 000b 00       		.sleb128 0
 1253 000c 02000000 		.4byte	.LCFI0
 1254 0010 3C000000 		.4byte	.LFE62
 1255 0014 0200     		.2byte	0x2
 1256 0016 7D       		.byte	0x7d
 1257 0017 08       		.sleb128 8
 1258 0018 00000000 		.4byte	0x0
 1259 001c 00000000 		.4byte	0x0
 1260              	.LLST1:
 1261 0020 00000000 		.4byte	.LFB63
 1262 0024 02000000 		.4byte	.LCFI1
 1263 0028 0200     		.2byte	0x2
 1264 002a 7D       		.byte	0x7d
 1265 002b 00       		.sleb128 0
 1266 002c 02000000 		.4byte	.LCFI1
 1267 0030 04000000 		.4byte	.LCFI2
 1268 0034 0200     		.2byte	0x2
 1269 0036 7D       		.byte	0x7d
 1270 0037 04       		.sleb128 4
ARM GAS  C:\Users\z80\AppData\Local\Temp\ccmumy1p.s 			page 24


 1271 0038 04000000 		.4byte	.LCFI2
 1272 003c 14010000 		.4byte	.LFE63
 1273 0040 0200     		.2byte	0x2
 1274 0042 7D       		.byte	0x7d
 1275 0043 10       		.sleb128 16
 1276 0044 00000000 		.4byte	0x0
 1277 0048 00000000 		.4byte	0x0
 1278              	.LLST2:
 1279 004c 00000000 		.4byte	.LFB65
 1280 0050 02000000 		.4byte	.LCFI3
 1281 0054 0200     		.2byte	0x2
 1282 0056 7D       		.byte	0x7d
 1283 0057 00       		.sleb128 0
 1284 0058 02000000 		.4byte	.LCFI3
 1285 005c 04000000 		.4byte	.LCFI4
 1286 0060 0200     		.2byte	0x2
 1287 0062 7D       		.byte	0x7d
 1288 0063 04       		.sleb128 4
 1289 0064 04000000 		.4byte	.LCFI4
 1290 0068 64000000 		.4byte	.LFE65
 1291 006c 0200     		.2byte	0x2
 1292 006e 7D       		.byte	0x7d
 1293 006f 20       		.sleb128 32
 1294 0070 00000000 		.4byte	0x0
 1295 0074 00000000 		.4byte	0x0
 1296              	.LLST3:
 1297 0078 00000000 		.4byte	.LFB66
 1298 007c 02000000 		.4byte	.LCFI5
 1299 0080 0200     		.2byte	0x2
 1300 0082 7D       		.byte	0x7d
 1301 0083 00       		.sleb128 0
 1302 0084 02000000 		.4byte	.LCFI5
 1303 0088 04000000 		.4byte	.LCFI6
 1304 008c 0200     		.2byte	0x2
 1305 008e 7D       		.byte	0x7d
 1306 008f 04       		.sleb128 4
 1307 0090 04000000 		.4byte	.LCFI6
 1308 0094 44000000 		.4byte	.LFE66
 1309 0098 0200     		.2byte	0x2
 1310 009a 7D       		.byte	0x7d
 1311 009b 10       		.sleb128 16
 1312 009c 00000000 		.4byte	0x0
 1313 00a0 00000000 		.4byte	0x0
 1314              	.LLST4:
 1315 00a4 00000000 		.4byte	.LFB67
 1316 00a8 02000000 		.4byte	.LCFI7
 1317 00ac 0200     		.2byte	0x2
 1318 00ae 7D       		.byte	0x7d
 1319 00af 00       		.sleb128 0
 1320 00b0 02000000 		.4byte	.LCFI7
 1321 00b4 04000000 		.4byte	.LCFI8
 1322 00b8 0200     		.2byte	0x2
 1323 00ba 7D       		.byte	0x7d
 1324 00bb 04       		.sleb128 4
 1325 00bc 04000000 		.4byte	.LCFI8
 1326 00c0 A6000000 		.4byte	.LFE67
 1327 00c4 0200     		.2byte	0x2
ARM GAS  C:\Users\z80\AppData\Local\Temp\ccmumy1p.s 			page 25


 1328 00c6 7D       		.byte	0x7d
 1329 00c7 20       		.sleb128 32
 1330 00c8 00000000 		.4byte	0x0
 1331 00cc 00000000 		.4byte	0x0
 1332              	.LLST5:
 1333 00d0 00000000 		.4byte	.LFB68
 1334 00d4 02000000 		.4byte	.LCFI9
 1335 00d8 0200     		.2byte	0x2
 1336 00da 7D       		.byte	0x7d
 1337 00db 00       		.sleb128 0
 1338 00dc 02000000 		.4byte	.LCFI9
 1339 00e0 04000000 		.4byte	.LCFI10
 1340 00e4 0200     		.2byte	0x2
 1341 00e6 7D       		.byte	0x7d
 1342 00e7 04       		.sleb128 4
 1343 00e8 04000000 		.4byte	.LCFI10
 1344 00ec 18000000 		.4byte	.LFE68
 1345 00f0 0200     		.2byte	0x2
 1346 00f2 7D       		.byte	0x7d
 1347 00f3 18       		.sleb128 24
 1348 00f4 00000000 		.4byte	0x0
 1349 00f8 00000000 		.4byte	0x0
 1350              	.LLST6:
 1351 00fc 00000000 		.4byte	.LFB69
 1352 0100 02000000 		.4byte	.LCFI11
 1353 0104 0200     		.2byte	0x2
 1354 0106 7D       		.byte	0x7d
 1355 0107 00       		.sleb128 0
 1356 0108 02000000 		.4byte	.LCFI11
 1357 010c 04000000 		.4byte	.LCFI12
 1358 0110 0200     		.2byte	0x2
 1359 0112 7D       		.byte	0x7d
 1360 0113 04       		.sleb128 4
 1361 0114 04000000 		.4byte	.LCFI12
 1362 0118 18000000 		.4byte	.LFE69
 1363 011c 0200     		.2byte	0x2
 1364 011e 7D       		.byte	0x7d
 1365 011f 18       		.sleb128 24
 1366 0120 00000000 		.4byte	0x0
 1367 0124 00000000 		.4byte	0x0
 1368              	.LLST7:
 1369 0128 00000000 		.4byte	.LFB70
 1370 012c 02000000 		.4byte	.LCFI13
 1371 0130 0200     		.2byte	0x2
 1372 0132 7D       		.byte	0x7d
 1373 0133 00       		.sleb128 0
 1374 0134 02000000 		.4byte	.LCFI13
 1375 0138 04000000 		.4byte	.LCFI14
 1376 013c 0200     		.2byte	0x2
 1377 013e 7D       		.byte	0x7d
 1378 013f 04       		.sleb128 4
 1379 0140 04000000 		.4byte	.LCFI14
 1380 0144 18000000 		.4byte	.LFE70
 1381 0148 0200     		.2byte	0x2
 1382 014a 7D       		.byte	0x7d
 1383 014b 18       		.sleb128 24
 1384 014c 00000000 		.4byte	0x0
ARM GAS  C:\Users\z80\AppData\Local\Temp\ccmumy1p.s 			page 26


 1385 0150 00000000 		.4byte	0x0
 1386              	.LLST8:
 1387 0154 00000000 		.4byte	.LFB71
 1388 0158 02000000 		.4byte	.LCFI15
 1389 015c 0200     		.2byte	0x2
 1390 015e 7D       		.byte	0x7d
 1391 015f 00       		.sleb128 0
 1392 0160 02000000 		.4byte	.LCFI15
 1393 0164 04000000 		.4byte	.LCFI16
 1394 0168 0200     		.2byte	0x2
 1395 016a 7D       		.byte	0x7d
 1396 016b 04       		.sleb128 4
 1397 016c 04000000 		.4byte	.LCFI16
 1398 0170 42000000 		.4byte	.LFE71
 1399 0174 0200     		.2byte	0x2
 1400 0176 7D       		.byte	0x7d
 1401 0177 18       		.sleb128 24
 1402 0178 00000000 		.4byte	0x0
 1403 017c 00000000 		.4byte	0x0
 1404              	.LLST9:
 1405 0180 00000000 		.4byte	.LFB72
 1406 0184 02000000 		.4byte	.LCFI17
 1407 0188 0200     		.2byte	0x2
 1408 018a 7D       		.byte	0x7d
 1409 018b 00       		.sleb128 0
 1410 018c 02000000 		.4byte	.LCFI17
 1411 0190 04000000 		.4byte	.LCFI18
 1412 0194 0200     		.2byte	0x2
 1413 0196 7D       		.byte	0x7d
 1414 0197 04       		.sleb128 4
 1415 0198 04000000 		.4byte	.LCFI18
 1416 019c 14000000 		.4byte	.LFE72
 1417 01a0 0200     		.2byte	0x2
 1418 01a2 7D       		.byte	0x7d
 1419 01a3 10       		.sleb128 16
 1420 01a4 00000000 		.4byte	0x0
 1421 01a8 00000000 		.4byte	0x0
 1422              	.LLST10:
 1423 01ac 00000000 		.4byte	.LFB73
 1424 01b0 02000000 		.4byte	.LCFI19
 1425 01b4 0200     		.2byte	0x2
 1426 01b6 7D       		.byte	0x7d
 1427 01b7 00       		.sleb128 0
 1428 01b8 02000000 		.4byte	.LCFI19
 1429 01bc 04000000 		.4byte	.LCFI20
 1430 01c0 0200     		.2byte	0x2
 1431 01c2 7D       		.byte	0x7d
 1432 01c3 04       		.sleb128 4
 1433 01c4 04000000 		.4byte	.LCFI20
 1434 01c8 14000000 		.4byte	.LFE73
 1435 01cc 0200     		.2byte	0x2
 1436 01ce 7D       		.byte	0x7d
 1437 01cf 10       		.sleb128 16
 1438 01d0 00000000 		.4byte	0x0
 1439 01d4 00000000 		.4byte	0x0
 1440              	.LLST11:
 1441 01d8 00000000 		.4byte	.LFB74
ARM GAS  C:\Users\z80\AppData\Local\Temp\ccmumy1p.s 			page 27


 1442 01dc 02000000 		.4byte	.LCFI21
 1443 01e0 0200     		.2byte	0x2
 1444 01e2 7D       		.byte	0x7d
 1445 01e3 00       		.sleb128 0
 1446 01e4 02000000 		.4byte	.LCFI21
 1447 01e8 04000000 		.4byte	.LCFI22
 1448 01ec 0200     		.2byte	0x2
 1449 01ee 7D       		.byte	0x7d
 1450 01ef 04       		.sleb128 4
 1451 01f0 04000000 		.4byte	.LCFI22
 1452 01f4 14000000 		.4byte	.LFE74
 1453 01f8 0200     		.2byte	0x2
 1454 01fa 7D       		.byte	0x7d
 1455 01fb 10       		.sleb128 16
 1456 01fc 00000000 		.4byte	0x0
 1457 0200 00000000 		.4byte	0x0
 1458              	.LLST12:
 1459 0204 00000000 		.4byte	.LFB75
 1460 0208 02000000 		.4byte	.LCFI23
 1461 020c 0200     		.2byte	0x2
 1462 020e 7D       		.byte	0x7d
 1463 020f 00       		.sleb128 0
 1464 0210 02000000 		.4byte	.LCFI23
 1465 0214 04000000 		.4byte	.LCFI24
 1466 0218 0200     		.2byte	0x2
 1467 021a 7D       		.byte	0x7d
 1468 021b 04       		.sleb128 4
 1469 021c 04000000 		.4byte	.LCFI24
 1470 0220 20000000 		.4byte	.LFE75
 1471 0224 0200     		.2byte	0x2
 1472 0226 7D       		.byte	0x7d
 1473 0227 18       		.sleb128 24
 1474 0228 00000000 		.4byte	0x0
 1475 022c 00000000 		.4byte	0x0
 1476              	.LLST13:
 1477 0230 00000000 		.4byte	.LFB76
 1478 0234 02000000 		.4byte	.LCFI25
 1479 0238 0200     		.2byte	0x2
 1480 023a 7D       		.byte	0x7d
 1481 023b 00       		.sleb128 0
 1482 023c 02000000 		.4byte	.LCFI25
 1483 0240 04000000 		.4byte	.LCFI26
 1484 0244 0200     		.2byte	0x2
 1485 0246 7D       		.byte	0x7d
 1486 0247 04       		.sleb128 4
 1487 0248 04000000 		.4byte	.LCFI26
 1488 024c 20000000 		.4byte	.LFE76
 1489 0250 0200     		.2byte	0x2
 1490 0252 7D       		.byte	0x7d
 1491 0253 18       		.sleb128 24
 1492 0254 00000000 		.4byte	0x0
 1493 0258 00000000 		.4byte	0x0
 1494              	.LLST14:
 1495 025c 00000000 		.4byte	.LFB77
 1496 0260 02000000 		.4byte	.LCFI27
 1497 0264 0200     		.2byte	0x2
 1498 0266 7D       		.byte	0x7d
ARM GAS  C:\Users\z80\AppData\Local\Temp\ccmumy1p.s 			page 28


 1499 0267 00       		.sleb128 0
 1500 0268 02000000 		.4byte	.LCFI27
 1501 026c 04000000 		.4byte	.LCFI28
 1502 0270 0200     		.2byte	0x2
 1503 0272 7D       		.byte	0x7d
 1504 0273 04       		.sleb128 4
 1505 0274 04000000 		.4byte	.LCFI28
 1506 0278 20000000 		.4byte	.LFE77
 1507 027c 0200     		.2byte	0x2
 1508 027e 7D       		.byte	0x7d
 1509 027f 18       		.sleb128 24
 1510 0280 00000000 		.4byte	0x0
 1511 0284 00000000 		.4byte	0x0
 1512              	.LLST15:
 1513 0288 00000000 		.4byte	.LFB78
 1514 028c 02000000 		.4byte	.LCFI29
 1515 0290 0200     		.2byte	0x2
 1516 0292 7D       		.byte	0x7d
 1517 0293 00       		.sleb128 0
 1518 0294 02000000 		.4byte	.LCFI29
 1519 0298 04000000 		.4byte	.LCFI30
 1520 029c 0200     		.2byte	0x2
 1521 029e 7D       		.byte	0x7d
 1522 029f 04       		.sleb128 4
 1523 02a0 04000000 		.4byte	.LCFI30
 1524 02a4 20000000 		.4byte	.LFE78
 1525 02a8 0200     		.2byte	0x2
 1526 02aa 7D       		.byte	0x7d
 1527 02ab 18       		.sleb128 24
 1528 02ac 00000000 		.4byte	0x0
 1529 02b0 00000000 		.4byte	0x0
 1530              	.LLST16:
 1531 02b4 00000000 		.4byte	.LFB79
 1532 02b8 02000000 		.4byte	.LCFI31
 1533 02bc 0200     		.2byte	0x2
 1534 02be 7D       		.byte	0x7d
 1535 02bf 00       		.sleb128 0
 1536 02c0 02000000 		.4byte	.LCFI31
 1537 02c4 04000000 		.4byte	.LCFI32
 1538 02c8 0200     		.2byte	0x2
 1539 02ca 7D       		.byte	0x7d
 1540 02cb 04       		.sleb128 4
 1541 02cc 04000000 		.4byte	.LCFI32
 1542 02d0 50000000 		.4byte	.LFE79
 1543 02d4 0200     		.2byte	0x2
 1544 02d6 7D       		.byte	0x7d
 1545 02d7 28       		.sleb128 40
 1546 02d8 00000000 		.4byte	0x0
 1547 02dc 00000000 		.4byte	0x0
 1548              	.LLST17:
 1549 02e0 00000000 		.4byte	.LFB80
 1550 02e4 02000000 		.4byte	.LCFI33
 1551 02e8 0200     		.2byte	0x2
 1552 02ea 7D       		.byte	0x7d
 1553 02eb 00       		.sleb128 0
 1554 02ec 02000000 		.4byte	.LCFI33
 1555 02f0 04000000 		.4byte	.LCFI34
ARM GAS  C:\Users\z80\AppData\Local\Temp\ccmumy1p.s 			page 29


 1556 02f4 0200     		.2byte	0x2
 1557 02f6 7D       		.byte	0x7d
 1558 02f7 04       		.sleb128 4
 1559 02f8 04000000 		.4byte	.LCFI34
 1560 02fc 50000000 		.4byte	.LFE80
 1561 0300 0200     		.2byte	0x2
 1562 0302 7D       		.byte	0x7d
 1563 0303 20       		.sleb128 32
 1564 0304 00000000 		.4byte	0x0
 1565 0308 00000000 		.4byte	0x0
 1566              	.LLST18:
 1567 030c 00000000 		.4byte	.LFB81
 1568 0310 02000000 		.4byte	.LCFI35
 1569 0314 0200     		.2byte	0x2
 1570 0316 7D       		.byte	0x7d
 1571 0317 00       		.sleb128 0
 1572 0318 02000000 		.4byte	.LCFI35
 1573 031c 04000000 		.4byte	.LCFI36
 1574 0320 0200     		.2byte	0x2
 1575 0322 7D       		.byte	0x7d
 1576 0323 04       		.sleb128 4
 1577 0324 04000000 		.4byte	.LCFI36
 1578 0328 42000000 		.4byte	.LFE81
 1579 032c 0200     		.2byte	0x2
 1580 032e 7D       		.byte	0x7d
 1581 032f 18       		.sleb128 24
 1582 0330 00000000 		.4byte	0x0
 1583 0334 00000000 		.4byte	0x0
 1584              	.LLST19:
 1585 0338 00000000 		.4byte	.LFB82
 1586 033c 02000000 		.4byte	.LCFI37
 1587 0340 0200     		.2byte	0x2
 1588 0342 7D       		.byte	0x7d
 1589 0343 00       		.sleb128 0
 1590 0344 02000000 		.4byte	.LCFI37
 1591 0348 04000000 		.4byte	.LCFI38
 1592 034c 0200     		.2byte	0x2
 1593 034e 7D       		.byte	0x7d
 1594 034f 04       		.sleb128 4
 1595 0350 04000000 		.4byte	.LCFI38
 1596 0354 1C000000 		.4byte	.LFE82
 1597 0358 0200     		.2byte	0x2
 1598 035a 7D       		.byte	0x7d
 1599 035b 18       		.sleb128 24
 1600 035c 00000000 		.4byte	0x0
 1601 0360 00000000 		.4byte	0x0
 1602              	.LLST20:
 1603 0364 00000000 		.4byte	.LFB83
 1604 0368 02000000 		.4byte	.LCFI39
 1605 036c 0200     		.2byte	0x2
 1606 036e 7D       		.byte	0x7d
 1607 036f 00       		.sleb128 0
 1608 0370 02000000 		.4byte	.LCFI39
 1609 0374 04000000 		.4byte	.LCFI40
 1610 0378 0200     		.2byte	0x2
 1611 037a 7D       		.byte	0x7d
 1612 037b 04       		.sleb128 4
ARM GAS  C:\Users\z80\AppData\Local\Temp\ccmumy1p.s 			page 30


 1613 037c 04000000 		.4byte	.LCFI40
 1614 0380 18000000 		.4byte	.LFE83
 1615 0384 0200     		.2byte	0x2
 1616 0386 7D       		.byte	0x7d
 1617 0387 18       		.sleb128 24
 1618 0388 00000000 		.4byte	0x0
 1619 038c 00000000 		.4byte	0x0
 1620              	.LLST21:
 1621 0390 00000000 		.4byte	.LFB84
 1622 0394 02000000 		.4byte	.LCFI41
 1623 0398 0200     		.2byte	0x2
 1624 039a 7D       		.byte	0x7d
 1625 039b 00       		.sleb128 0
 1626 039c 02000000 		.4byte	.LCFI41
 1627 03a0 04000000 		.4byte	.LCFI42
 1628 03a4 0200     		.2byte	0x2
 1629 03a6 7D       		.byte	0x7d
 1630 03a7 04       		.sleb128 4
 1631 03a8 04000000 		.4byte	.LCFI42
 1632 03ac 40000000 		.4byte	.LFE84
 1633 03b0 0200     		.2byte	0x2
 1634 03b2 7D       		.byte	0x7d
 1635 03b3 10       		.sleb128 16
 1636 03b4 00000000 		.4byte	0x0
 1637 03b8 00000000 		.4byte	0x0
 1638              	.LLST22:
 1639 03bc 00000000 		.4byte	.LFB85
 1640 03c0 02000000 		.4byte	.LCFI43
 1641 03c4 0200     		.2byte	0x2
 1642 03c6 7D       		.byte	0x7d
 1643 03c7 00       		.sleb128 0
 1644 03c8 02000000 		.4byte	.LCFI43
 1645 03cc 18000000 		.4byte	.LFE85
 1646 03d0 0200     		.2byte	0x2
 1647 03d2 7D       		.byte	0x7d
 1648 03d3 08       		.sleb128 8
 1649 03d4 00000000 		.4byte	0x0
 1650 03d8 00000000 		.4byte	0x0
 1651              		.file 2 "c:\\programs\\yagarto\\bin\\../lib/gcc/arm-none-eabi/4.5.0/include/stddef.h"
 1652              		.file 3 "c:/programs/yagarto/lib/gcc/../../arm-none-eabi/sys-include/stdint.h"
 1653              		.file 4 "../chibios_2.4.x/os/ports/GCC/ARMCMx/chtypes.h"
 1654              		.file 5 "../chibios_2.4.x/os/kernel/include/chlists.h"
 1655              		.file 6 "../chibios_2.4.x/os/kernel/include/chthreads.h"
 1656              		.file 7 "../chibios_2.4.x/os/ports/GCC/ARMCMx/chcore_v7m.h"
 1657              		.file 8 "../chibios_2.4.x/os/kernel/include/chmtx.h"
 1658              		.file 9 "../chibios_2.4.x/os/kernel/include/chevents.h"
 1659              		.file 10 "../chibios_2.4.x/os/kernel/include/chqueues.h"
 1660              		.file 11 "../chibios_2.4.x/os/kernel/include/chioch.h"
 1661              		.file 12 "./src/cpu_io.h"
 1662              		.file 13 "../chibios_2.4.x/os/hal/platforms/STM32F1xx/stm32f10x.h"
 1663              		.file 14 "../chibios_2.4.x/os/hal/platforms/STM32/GPIOv1/pal_lld.h"
 1664              		.file 15 "../chibios_2.4.x/os/hal/include/serial.h"
 1665              		.file 16 "../chibios_2.4.x/os/ports/common/ARMCMx/CMSIS/include/core_cm3.h"
 1666              		.file 17 "../chibios_2.4.x/os/hal/platforms/STM32/serial_lld.h"
 1667              		.section	.debug_info
 1668 0000 390F0000 		.4byte	0xf39
 1669 0004 0200     		.2byte	0x2
ARM GAS  C:\Users\z80\AppData\Local\Temp\ccmumy1p.s 			page 31


 1670 0006 00000000 		.4byte	.Ldebug_abbrev0
 1671 000a 04       		.byte	0x4
 1672 000b 01       		.uleb128 0x1
 1673 000c 7B050000 		.4byte	.LASF140
 1674 0010 01       		.byte	0x1
 1675 0011 AF020000 		.4byte	.LASF141
 1676 0015 27030000 		.4byte	.LASF142
 1677 0019 00000000 		.4byte	0x0
 1678 001d 00000000 		.4byte	0x0
 1679 0021 00000000 		.4byte	.Ldebug_ranges0+0x0
 1680 0025 00000000 		.4byte	.Ldebug_line0
 1681 0029 02       		.uleb128 0x2
 1682 002a 04       		.byte	0x4
 1683 002b 05       		.byte	0x5
 1684 002c 696E7400 		.ascii	"int\000"
 1685 0030 03       		.uleb128 0x3
 1686 0031 09000000 		.4byte	.LASF2
 1687 0035 02       		.byte	0x2
 1688 0036 D3       		.byte	0xd3
 1689 0037 3B000000 		.4byte	0x3b
 1690 003b 04       		.uleb128 0x4
 1691 003c 04       		.byte	0x4
 1692 003d 07       		.byte	0x7
 1693 003e A8010000 		.4byte	.LASF0
 1694 0042 04       		.uleb128 0x4
 1695 0043 01       		.byte	0x1
 1696 0044 06       		.byte	0x6
 1697 0045 DF000000 		.4byte	.LASF1
 1698 0049 03       		.uleb128 0x3
 1699 004a 54050000 		.4byte	.LASF3
 1700 004e 03       		.byte	0x3
 1701 004f 2A       		.byte	0x2a
 1702 0050 54000000 		.4byte	0x54
 1703 0054 04       		.uleb128 0x4
 1704 0055 01       		.byte	0x1
 1705 0056 08       		.byte	0x8
 1706 0057 F6030000 		.4byte	.LASF4
 1707 005b 04       		.uleb128 0x4
 1708 005c 02       		.byte	0x2
 1709 005d 05       		.byte	0x5
 1710 005e 1A040000 		.4byte	.LASF5
 1711 0062 03       		.uleb128 0x3
 1712 0063 B5010000 		.4byte	.LASF6
 1713 0067 03       		.byte	0x3
 1714 0068 36       		.byte	0x36
 1715 0069 6D000000 		.4byte	0x6d
 1716 006d 04       		.uleb128 0x4
 1717 006e 02       		.byte	0x2
 1718 006f 07       		.byte	0x7
 1719 0070 2B020000 		.4byte	.LASF7
 1720 0074 03       		.uleb128 0x3
 1721 0075 EE030000 		.4byte	.LASF8
 1722 0079 03       		.byte	0x3
 1723 007a 4F       		.byte	0x4f
 1724 007b 7F000000 		.4byte	0x7f
 1725 007f 04       		.uleb128 0x4
 1726 0080 04       		.byte	0x4
ARM GAS  C:\Users\z80\AppData\Local\Temp\ccmumy1p.s 			page 32


 1727 0081 05       		.byte	0x5
 1728 0082 3E010000 		.4byte	.LASF9
 1729 0086 03       		.uleb128 0x3
 1730 0087 8B040000 		.4byte	.LASF10
 1731 008b 03       		.byte	0x3
 1732 008c 50       		.byte	0x50
 1733 008d 91000000 		.4byte	0x91
 1734 0091 04       		.uleb128 0x4
 1735 0092 04       		.byte	0x4
 1736 0093 07       		.byte	0x7
 1737 0094 AB040000 		.4byte	.LASF11
 1738 0098 04       		.uleb128 0x4
 1739 0099 08       		.byte	0x8
 1740 009a 05       		.byte	0x5
 1741 009b D1000000 		.4byte	.LASF12
 1742 009f 03       		.uleb128 0x3
 1743 00a0 17000000 		.4byte	.LASF13
 1744 00a4 03       		.byte	0x3
 1745 00a5 78       		.byte	0x78
 1746 00a6 AA000000 		.4byte	0xaa
 1747 00aa 04       		.uleb128 0x4
 1748 00ab 08       		.byte	0x8
 1749 00ac 07       		.byte	0x7
 1750 00ad 5A000000 		.4byte	.LASF14
 1751 00b1 03       		.uleb128 0x3
 1752 00b2 4C000000 		.4byte	.LASF15
 1753 00b6 03       		.byte	0x3
 1754 00b7 A6       		.byte	0xa6
 1755 00b8 3B000000 		.4byte	0x3b
 1756 00bc 03       		.uleb128 0x3
 1757 00bd FD000000 		.4byte	.LASF16
 1758 00c1 04       		.byte	0x4
 1759 00c2 2E       		.byte	0x2e
 1760 00c3 74000000 		.4byte	0x74
 1761 00c7 03       		.uleb128 0x3
 1762 00c8 7A020000 		.4byte	.LASF17
 1763 00cc 04       		.byte	0x4
 1764 00cd 2F       		.byte	0x2f
 1765 00ce 49000000 		.4byte	0x49
 1766 00d2 03       		.uleb128 0x3
 1767 00d3 47010000 		.4byte	.LASF18
 1768 00d7 04       		.byte	0x4
 1769 00d8 30       		.byte	0x30
 1770 00d9 49000000 		.4byte	0x49
 1771 00dd 03       		.uleb128 0x3
 1772 00de 1D020000 		.4byte	.LASF19
 1773 00e2 04       		.byte	0x4
 1774 00e3 32       		.byte	0x32
 1775 00e4 86000000 		.4byte	0x86
 1776 00e8 03       		.uleb128 0x3
 1777 00e9 3E020000 		.4byte	.LASF20
 1778 00ed 04       		.byte	0x4
 1779 00ee 33       		.byte	0x33
 1780 00ef 74000000 		.4byte	0x74
 1781 00f3 03       		.uleb128 0x3
 1782 00f4 8E020000 		.4byte	.LASF21
 1783 00f8 04       		.byte	0x4
ARM GAS  C:\Users\z80\AppData\Local\Temp\ccmumy1p.s 			page 33


 1784 00f9 35       		.byte	0x35
 1785 00fa 86000000 		.4byte	0x86
 1786 00fe 03       		.uleb128 0x3
 1787 00ff DA040000 		.4byte	.LASF22
 1788 0103 04       		.byte	0x4
 1789 0104 36       		.byte	0x36
 1790 0105 86000000 		.4byte	0x86
 1791 0109 03       		.uleb128 0x3
 1792 010a 65040000 		.4byte	.LASF23
 1793 010e 05       		.byte	0x5
 1794 010f 2A       		.byte	0x2a
 1795 0110 14010000 		.4byte	0x114
 1796 0114 05       		.uleb128 0x5
 1797 0115 65040000 		.4byte	.LASF23
 1798 0119 48       		.byte	0x48
 1799 011a 06       		.byte	0x6
 1800 011b 5E       		.byte	0x5e
 1801 011c 1D020000 		.4byte	0x21d
 1802 0120 06       		.uleb128 0x6
 1803 0121 43040000 		.4byte	.LASF24
 1804 0125 06       		.byte	0x6
 1805 0126 5F       		.byte	0x5f
 1806 0127 42020000 		.4byte	0x242
 1807 012b 02       		.byte	0x2
 1808 012c 23       		.byte	0x23
 1809 012d 00       		.uleb128 0x0
 1810 012e 06       		.uleb128 0x6
 1811 012f C3030000 		.4byte	.LASF25
 1812 0133 06       		.byte	0x6
 1813 0134 61       		.byte	0x61
 1814 0135 42020000 		.4byte	0x242
 1815 0139 02       		.byte	0x2
 1816 013a 23       		.byte	0x23
 1817 013b 04       		.uleb128 0x4
 1818 013c 06       		.uleb128 0x6
 1819 013d B5000000 		.4byte	.LASF26
 1820 0141 06       		.byte	0x6
 1821 0142 63       		.byte	0x63
 1822 0143 DD000000 		.4byte	0xdd
 1823 0147 02       		.byte	0x2
 1824 0148 23       		.byte	0x23
 1825 0149 08       		.uleb128 0x8
 1826 014a 06       		.uleb128 0x6
 1827 014b AF050000 		.4byte	.LASF27
 1828 014f 06       		.byte	0x6
 1829 0150 64       		.byte	0x64
 1830 0151 1A030000 		.4byte	0x31a
 1831 0155 02       		.byte	0x2
 1832 0156 23       		.byte	0x23
 1833 0157 0C       		.uleb128 0xc
 1834 0158 06       		.uleb128 0x6
 1835 0159 61010000 		.4byte	.LASF28
 1836 015d 06       		.byte	0x6
 1837 015e 66       		.byte	0x66
 1838 015f 42020000 		.4byte	0x242
 1839 0163 02       		.byte	0x2
 1840 0164 23       		.byte	0x23
ARM GAS  C:\Users\z80\AppData\Local\Temp\ccmumy1p.s 			page 34


 1841 0165 10       		.uleb128 0x10
 1842 0166 06       		.uleb128 0x6
 1843 0167 F9020000 		.4byte	.LASF29
 1844 016b 06       		.byte	0x6
 1845 016c 67       		.byte	0x67
 1846 016d 42020000 		.4byte	0x242
 1847 0171 02       		.byte	0x2
 1848 0172 23       		.byte	0x23
 1849 0173 14       		.uleb128 0x14
 1850 0174 06       		.uleb128 0x6
 1851 0175 36050000 		.4byte	.LASF30
 1852 0179 06       		.byte	0x6
 1853 017a 6E       		.byte	0x6e
 1854 017b 35040000 		.4byte	0x435
 1855 017f 02       		.byte	0x2
 1856 0180 23       		.byte	0x23
 1857 0181 18       		.uleb128 0x18
 1858 0182 06       		.uleb128 0x6
 1859 0183 F6040000 		.4byte	.LASF31
 1860 0187 06       		.byte	0x6
 1861 0188 74       		.byte	0x74
 1862 0189 47040000 		.4byte	0x447
 1863 018d 02       		.byte	0x2
 1864 018e 23       		.byte	0x23
 1865 018f 1C       		.uleb128 0x1c
 1866 0190 06       		.uleb128 0x6
 1867 0191 24040000 		.4byte	.LASF32
 1868 0195 06       		.byte	0x6
 1869 0196 79       		.byte	0x79
 1870 0197 D2000000 		.4byte	0xd2
 1871 019b 02       		.byte	0x2
 1872 019c 23       		.byte	0x23
 1873 019d 20       		.uleb128 0x20
 1874 019e 06       		.uleb128 0x6
 1875 019f 4A040000 		.4byte	.LASF33
 1876 01a3 06       		.byte	0x6
 1877 01a4 7D       		.byte	0x7d
 1878 01a5 C7000000 		.4byte	0xc7
 1879 01a9 02       		.byte	0x2
 1880 01aa 23       		.byte	0x23
 1881 01ab 21       		.uleb128 0x21
 1882 01ac 06       		.uleb128 0x6
 1883 01ad CE010000 		.4byte	.LASF34
 1884 01b1 06       		.byte	0x6
 1885 01b2 89       		.byte	0x89
 1886 01b3 45030000 		.4byte	0x345
 1887 01b7 02       		.byte	0x2
 1888 01b8 23       		.byte	0x23
 1889 01b9 24       		.uleb128 0x24
 1890 01ba 07       		.uleb128 0x7
 1891 01bb 705F7500 		.ascii	"p_u\000"
 1892 01bf 06       		.byte	0x6
 1893 01c0 AE       		.byte	0xae
 1894 01c1 00040000 		.4byte	0x400
 1895 01c5 02       		.byte	0x2
 1896 01c6 23       		.byte	0x23
 1897 01c7 28       		.uleb128 0x28
ARM GAS  C:\Users\z80\AppData\Local\Temp\ccmumy1p.s 			page 35


 1898 01c8 06       		.uleb128 0x6
 1899 01c9 B5050000 		.4byte	.LASF35
 1900 01cd 06       		.byte	0x6
 1901 01ce B3       		.byte	0xb3
 1902 01cf 6A020000 		.4byte	0x26a
 1903 01d3 02       		.byte	0x2
 1904 01d4 23       		.byte	0x23
 1905 01d5 2C       		.uleb128 0x2c
 1906 01d6 06       		.uleb128 0x6
 1907 01d7 F7010000 		.4byte	.LASF36
 1908 01db 06       		.byte	0x6
 1909 01dc B9       		.byte	0xb9
 1910 01dd 48020000 		.4byte	0x248
 1911 01e1 02       		.byte	0x2
 1912 01e2 23       		.byte	0x23
 1913 01e3 30       		.uleb128 0x30
 1914 01e4 06       		.uleb128 0x6
 1915 01e5 4E050000 		.4byte	.LASF37
 1916 01e9 06       		.byte	0x6
 1917 01ea BD       		.byte	0xbd
 1918 01eb E8000000 		.4byte	0xe8
 1919 01ef 02       		.byte	0x2
 1920 01f0 23       		.byte	0x23
 1921 01f1 38       		.uleb128 0x38
 1922 01f2 06       		.uleb128 0x6
 1923 01f3 6C040000 		.4byte	.LASF38
 1924 01f7 06       		.byte	0x6
 1925 01f8 C3       		.byte	0xc3
 1926 01f9 F3000000 		.4byte	0xf3
 1927 01fd 02       		.byte	0x2
 1928 01fe 23       		.byte	0x23
 1929 01ff 3C       		.uleb128 0x3c
 1930 0200 06       		.uleb128 0x6
 1931 0201 10040000 		.4byte	.LASF39
 1932 0205 06       		.byte	0x6
 1933 0206 CA       		.byte	0xca
 1934 0207 4D040000 		.4byte	0x44d
 1935 020b 02       		.byte	0x2
 1936 020c 23       		.byte	0x23
 1937 020d 40       		.uleb128 0x40
 1938 020e 06       		.uleb128 0x6
 1939 020f E4040000 		.4byte	.LASF40
 1940 0213 06       		.byte	0x6
 1941 0214 CE       		.byte	0xce
 1942 0215 DD000000 		.4byte	0xdd
 1943 0219 02       		.byte	0x2
 1944 021a 23       		.byte	0x23
 1945 021b 44       		.uleb128 0x44
 1946 021c 00       		.byte	0x0
 1947 021d 08       		.uleb128 0x8
 1948 021e 08       		.byte	0x8
 1949 021f 05       		.byte	0x5
 1950 0220 61       		.byte	0x61
 1951 0221 42020000 		.4byte	0x242
 1952 0225 06       		.uleb128 0x6
 1953 0226 43040000 		.4byte	.LASF24
 1954 022a 05       		.byte	0x5
ARM GAS  C:\Users\z80\AppData\Local\Temp\ccmumy1p.s 			page 36


 1955 022b 62       		.byte	0x62
 1956 022c 42020000 		.4byte	0x242
 1957 0230 02       		.byte	0x2
 1958 0231 23       		.byte	0x23
 1959 0232 00       		.uleb128 0x0
 1960 0233 06       		.uleb128 0x6
 1961 0234 C3030000 		.4byte	.LASF25
 1962 0238 05       		.byte	0x5
 1963 0239 64       		.byte	0x64
 1964 023a 42020000 		.4byte	0x242
 1965 023e 02       		.byte	0x2
 1966 023f 23       		.byte	0x23
 1967 0240 04       		.uleb128 0x4
 1968 0241 00       		.byte	0x0
 1969 0242 09       		.uleb128 0x9
 1970 0243 04       		.byte	0x4
 1971 0244 09010000 		.4byte	0x109
 1972 0248 03       		.uleb128 0x3
 1973 0249 1A030000 		.4byte	.LASF41
 1974 024d 05       		.byte	0x5
 1975 024e 66       		.byte	0x66
 1976 024f 1D020000 		.4byte	0x21d
 1977 0253 08       		.uleb128 0x8
 1978 0254 04       		.byte	0x4
 1979 0255 05       		.byte	0x5
 1980 0256 6B       		.byte	0x6b
 1981 0257 6A020000 		.4byte	0x26a
 1982 025b 06       		.uleb128 0x6
 1983 025c 43040000 		.4byte	.LASF24
 1984 0260 05       		.byte	0x5
 1985 0261 6D       		.byte	0x6d
 1986 0262 42020000 		.4byte	0x242
 1987 0266 02       		.byte	0x2
 1988 0267 23       		.byte	0x23
 1989 0268 00       		.uleb128 0x0
 1990 0269 00       		.byte	0x0
 1991 026a 03       		.uleb128 0x3
 1992 026b 82020000 		.4byte	.LASF42
 1993 026f 05       		.byte	0x5
 1994 0270 70       		.byte	0x70
 1995 0271 53020000 		.4byte	0x253
 1996 0275 03       		.uleb128 0x3
 1997 0276 8D010000 		.4byte	.LASF43
 1998 027a 07       		.byte	0x7
 1999 027b D7       		.byte	0xd7
 2000 027c 80020000 		.4byte	0x280
 2001 0280 0A       		.uleb128 0xa
 2002 0281 04       		.byte	0x4
 2003 0282 03       		.uleb128 0x3
 2004 0283 CB020000 		.4byte	.LASF44
 2005 0287 07       		.byte	0x7
 2006 0288 DD       		.byte	0xdd
 2007 0289 9F000000 		.4byte	0x9f
 2008 028d 05       		.uleb128 0x5
 2009 028e 17050000 		.4byte	.LASF45
 2010 0292 24       		.byte	0x24
 2011 0293 07       		.byte	0x7
ARM GAS  C:\Users\z80\AppData\Local\Temp\ccmumy1p.s 			page 37


 2012 0294 FE       		.byte	0xfe
 2013 0295 1A030000 		.4byte	0x31a
 2014 0299 0B       		.uleb128 0xb
 2015 029a 723400   		.ascii	"r4\000"
 2016 029d 07       		.byte	0x7
 2017 029e 1101     		.2byte	0x111
 2018 02a0 75020000 		.4byte	0x275
 2019 02a4 02       		.byte	0x2
 2020 02a5 23       		.byte	0x23
 2021 02a6 00       		.uleb128 0x0
 2022 02a7 0B       		.uleb128 0xb
 2023 02a8 723500   		.ascii	"r5\000"
 2024 02ab 07       		.byte	0x7
 2025 02ac 1201     		.2byte	0x112
 2026 02ae 75020000 		.4byte	0x275
 2027 02b2 02       		.byte	0x2
 2028 02b3 23       		.byte	0x23
 2029 02b4 04       		.uleb128 0x4
 2030 02b5 0B       		.uleb128 0xb
 2031 02b6 723600   		.ascii	"r6\000"
 2032 02b9 07       		.byte	0x7
 2033 02ba 1301     		.2byte	0x113
 2034 02bc 75020000 		.4byte	0x275
 2035 02c0 02       		.byte	0x2
 2036 02c1 23       		.byte	0x23
 2037 02c2 08       		.uleb128 0x8
 2038 02c3 0B       		.uleb128 0xb
 2039 02c4 723700   		.ascii	"r7\000"
 2040 02c7 07       		.byte	0x7
 2041 02c8 1401     		.2byte	0x114
 2042 02ca 75020000 		.4byte	0x275
 2043 02ce 02       		.byte	0x2
 2044 02cf 23       		.byte	0x23
 2045 02d0 0C       		.uleb128 0xc
 2046 02d1 0B       		.uleb128 0xb
 2047 02d2 723800   		.ascii	"r8\000"
 2048 02d5 07       		.byte	0x7
 2049 02d6 1501     		.2byte	0x115
 2050 02d8 75020000 		.4byte	0x275
 2051 02dc 02       		.byte	0x2
 2052 02dd 23       		.byte	0x23
 2053 02de 10       		.uleb128 0x10
 2054 02df 0B       		.uleb128 0xb
 2055 02e0 723900   		.ascii	"r9\000"
 2056 02e3 07       		.byte	0x7
 2057 02e4 1601     		.2byte	0x116
 2058 02e6 75020000 		.4byte	0x275
 2059 02ea 02       		.byte	0x2
 2060 02eb 23       		.byte	0x23
 2061 02ec 14       		.uleb128 0x14
 2062 02ed 0B       		.uleb128 0xb
 2063 02ee 72313000 		.ascii	"r10\000"
 2064 02f2 07       		.byte	0x7
 2065 02f3 1701     		.2byte	0x117
 2066 02f5 75020000 		.4byte	0x275
 2067 02f9 02       		.byte	0x2
 2068 02fa 23       		.byte	0x23
ARM GAS  C:\Users\z80\AppData\Local\Temp\ccmumy1p.s 			page 38


 2069 02fb 18       		.uleb128 0x18
 2070 02fc 0B       		.uleb128 0xb
 2071 02fd 72313100 		.ascii	"r11\000"
 2072 0301 07       		.byte	0x7
 2073 0302 1801     		.2byte	0x118
 2074 0304 75020000 		.4byte	0x275
 2075 0308 02       		.byte	0x2
 2076 0309 23       		.byte	0x23
 2077 030a 1C       		.uleb128 0x1c
 2078 030b 0B       		.uleb128 0xb
 2079 030c 6C7200   		.ascii	"lr\000"
 2080 030f 07       		.byte	0x7
 2081 0310 1901     		.2byte	0x119
 2082 0312 75020000 		.4byte	0x275
 2083 0316 02       		.byte	0x2
 2084 0317 23       		.byte	0x23
 2085 0318 20       		.uleb128 0x20
 2086 0319 00       		.byte	0x0
 2087 031a 0C       		.uleb128 0xc
 2088 031b 0F050000 		.4byte	.LASF46
 2089 031f 04       		.byte	0x4
 2090 0320 07       		.byte	0x7
 2091 0321 2301     		.2byte	0x123
 2092 0323 37030000 		.4byte	0x337
 2093 0327 0B       		.uleb128 0xb
 2094 0328 72313300 		.ascii	"r13\000"
 2095 032c 07       		.byte	0x7
 2096 032d 2401     		.2byte	0x124
 2097 032f 37030000 		.4byte	0x337
 2098 0333 02       		.byte	0x2
 2099 0334 23       		.byte	0x23
 2100 0335 00       		.uleb128 0x0
 2101 0336 00       		.byte	0x0
 2102 0337 09       		.uleb128 0x9
 2103 0338 04       		.byte	0x4
 2104 0339 8D020000 		.4byte	0x28d
 2105 033d 0D       		.uleb128 0xd
 2106 033e 86000000 		.4byte	0x86
 2107 0342 0E       		.uleb128 0xe
 2108 0343 04       		.byte	0x4
 2109 0344 07       		.byte	0x7
 2110 0345 0D       		.uleb128 0xd
 2111 0346 FE000000 		.4byte	0xfe
 2112 034a 05       		.uleb128 0x5
 2113 034b F3020000 		.4byte	.LASF47
 2114 034f 10       		.byte	0x10
 2115 0350 08       		.byte	0x8
 2116 0351 2C       		.byte	0x2c
 2117 0352 81030000 		.4byte	0x381
 2118 0356 06       		.uleb128 0x6
 2119 0357 04010000 		.4byte	.LASF48
 2120 035b 08       		.byte	0x8
 2121 035c 2D       		.byte	0x2d
 2122 035d 48020000 		.4byte	0x248
 2123 0361 02       		.byte	0x2
 2124 0362 23       		.byte	0x23
 2125 0363 00       		.uleb128 0x0
ARM GAS  C:\Users\z80\AppData\Local\Temp\ccmumy1p.s 			page 39


 2126 0364 06       		.uleb128 0x6
 2127 0365 A7050000 		.4byte	.LASF49
 2128 0369 08       		.byte	0x8
 2129 036a 2F       		.byte	0x2f
 2130 036b 42020000 		.4byte	0x242
 2131 036f 02       		.byte	0x2
 2132 0370 23       		.byte	0x23
 2133 0371 08       		.uleb128 0x8
 2134 0372 06       		.uleb128 0x6
 2135 0373 D3040000 		.4byte	.LASF50
 2136 0377 08       		.byte	0x8
 2137 0378 31       		.byte	0x31
 2138 0379 81030000 		.4byte	0x381
 2139 037d 02       		.byte	0x2
 2140 037e 23       		.byte	0x23
 2141 037f 0C       		.uleb128 0xc
 2142 0380 00       		.byte	0x0
 2143 0381 09       		.uleb128 0x9
 2144 0382 04       		.byte	0x4
 2145 0383 4A030000 		.4byte	0x34a
 2146 0387 03       		.uleb128 0x3
 2147 0388 F3020000 		.4byte	.LASF47
 2148 038c 08       		.byte	0x8
 2149 038d 33       		.byte	0x33
 2150 038e 4A030000 		.4byte	0x34a
 2151 0392 03       		.uleb128 0x3
 2152 0393 6D050000 		.4byte	.LASF51
 2153 0397 09       		.byte	0x9
 2154 0398 29       		.byte	0x29
 2155 0399 9D030000 		.4byte	0x39d
 2156 039d 05       		.uleb128 0x5
 2157 039e 6D050000 		.4byte	.LASF51
 2158 03a2 0C       		.byte	0xc
 2159 03a3 09       		.byte	0x9
 2160 03a4 2E       		.byte	0x2e
 2161 03a5 D4030000 		.4byte	0x3d4
 2162 03a9 06       		.uleb128 0x6
 2163 03aa 52040000 		.4byte	.LASF52
 2164 03ae 09       		.byte	0x9
 2165 03af 2F       		.byte	0x2f
 2166 03b0 D4030000 		.4byte	0x3d4
 2167 03b4 02       		.byte	0x2
 2168 03b5 23       		.byte	0x23
 2169 03b6 00       		.uleb128 0x0
 2170 03b7 06       		.uleb128 0x6
 2171 03b8 04040000 		.4byte	.LASF53
 2172 03bc 09       		.byte	0x9
 2173 03bd 32       		.byte	0x32
 2174 03be 42020000 		.4byte	0x242
 2175 03c2 02       		.byte	0x2
 2176 03c3 23       		.byte	0x23
 2177 03c4 04       		.uleb128 0x4
 2178 03c5 06       		.uleb128 0x6
 2179 03c6 60030000 		.4byte	.LASF54
 2180 03ca 09       		.byte	0x9
 2181 03cb 34       		.byte	0x34
 2182 03cc F3000000 		.4byte	0xf3
ARM GAS  C:\Users\z80\AppData\Local\Temp\ccmumy1p.s 			page 40


 2183 03d0 02       		.byte	0x2
 2184 03d1 23       		.byte	0x23
 2185 03d2 08       		.uleb128 0x8
 2186 03d3 00       		.byte	0x0
 2187 03d4 09       		.uleb128 0x9
 2188 03d5 04       		.byte	0x4
 2189 03d6 92030000 		.4byte	0x392
 2190 03da 05       		.uleb128 0x5
 2191 03db 96010000 		.4byte	.LASF55
 2192 03df 04       		.byte	0x4
 2193 03e0 09       		.byte	0x9
 2194 03e1 3C       		.byte	0x3c
 2195 03e2 F5030000 		.4byte	0x3f5
 2196 03e6 06       		.uleb128 0x6
 2197 03e7 3D050000 		.4byte	.LASF56
 2198 03eb 09       		.byte	0x9
 2199 03ec 3D       		.byte	0x3d
 2200 03ed D4030000 		.4byte	0x3d4
 2201 03f1 02       		.byte	0x2
 2202 03f2 23       		.byte	0x23
 2203 03f3 00       		.uleb128 0x0
 2204 03f4 00       		.byte	0x0
 2205 03f5 03       		.uleb128 0x3
 2206 03f6 96010000 		.4byte	.LASF55
 2207 03fa 09       		.byte	0x9
 2208 03fb 40       		.byte	0x40
 2209 03fc DA030000 		.4byte	0x3da
 2210 0400 0F       		.uleb128 0xf
 2211 0401 04       		.byte	0x4
 2212 0402 06       		.byte	0x6
 2213 0403 90       		.byte	0x90
 2214 0404 35040000 		.4byte	0x435
 2215 0408 10       		.uleb128 0x10
 2216 0409 10000000 		.4byte	.LASF57
 2217 040d 06       		.byte	0x6
 2218 040e 97       		.byte	0x97
 2219 040f E8000000 		.4byte	0xe8
 2220 0413 10       		.uleb128 0x10
 2221 0414 88000000 		.4byte	.LASF58
 2222 0418 06       		.byte	0x6
 2223 0419 9E       		.byte	0x9e
 2224 041a E8000000 		.4byte	0xe8
 2225 041e 10       		.uleb128 0x10
 2226 041f 87050000 		.4byte	.LASF59
 2227 0423 06       		.byte	0x6
 2228 0424 A5       		.byte	0xa5
 2229 0425 80020000 		.4byte	0x280
 2230 0429 10       		.uleb128 0x10
 2231 042a 3C040000 		.4byte	.LASF60
 2232 042e 06       		.byte	0x6
 2233 042f AC       		.byte	0xac
 2234 0430 F3000000 		.4byte	0xf3
 2235 0434 00       		.byte	0x0
 2236 0435 09       		.uleb128 0x9
 2237 0436 04       		.byte	0x4
 2238 0437 3B040000 		.4byte	0x43b
 2239 043b 11       		.uleb128 0x11
ARM GAS  C:\Users\z80\AppData\Local\Temp\ccmumy1p.s 			page 41


 2240 043c 40040000 		.4byte	0x440
 2241 0440 04       		.uleb128 0x4
 2242 0441 01       		.byte	0x1
 2243 0442 08       		.byte	0x8
 2244 0443 C2040000 		.4byte	.LASF61
 2245 0447 09       		.uleb128 0x9
 2246 0448 04       		.byte	0x4
 2247 0449 82020000 		.4byte	0x282
 2248 044d 09       		.uleb128 0x9
 2249 044e 04       		.byte	0x4
 2250 044f 87030000 		.4byte	0x387
 2251 0453 03       		.uleb128 0x3
 2252 0454 BE020000 		.4byte	.LASF62
 2253 0458 0A       		.byte	0xa
 2254 0459 37       		.byte	0x37
 2255 045a 5E040000 		.4byte	0x45e
 2256 045e 05       		.uleb128 0x5
 2257 045f BE020000 		.4byte	.LASF62
 2258 0463 20       		.byte	0x20
 2259 0464 0A       		.byte	0xa
 2260 0465 45       		.byte	0x45
 2261 0466 CD040000 		.4byte	0x4cd
 2262 046a 06       		.uleb128 0x6
 2263 046b 87030000 		.4byte	.LASF63
 2264 046f 0A       		.byte	0xa
 2265 0470 46       		.byte	0x46
 2266 0471 48020000 		.4byte	0x248
 2267 0475 02       		.byte	0x2
 2268 0476 23       		.byte	0x23
 2269 0477 00       		.uleb128 0x0
 2270 0478 06       		.uleb128 0x6
 2271 0479 E9020000 		.4byte	.LASF64
 2272 047d 0A       		.byte	0xa
 2273 047e 47       		.byte	0x47
 2274 047f 30000000 		.4byte	0x30
 2275 0483 02       		.byte	0x2
 2276 0484 23       		.byte	0x23
 2277 0485 08       		.uleb128 0x8
 2278 0486 06       		.uleb128 0x6
 2279 0487 50010000 		.4byte	.LASF65
 2280 048b 0A       		.byte	0xa
 2281 048c 48       		.byte	0x48
 2282 048d F0040000 		.4byte	0x4f0
 2283 0491 02       		.byte	0x2
 2284 0492 23       		.byte	0x23
 2285 0493 0C       		.uleb128 0xc
 2286 0494 06       		.uleb128 0x6
 2287 0495 30050000 		.4byte	.LASF66
 2288 0499 0A       		.byte	0xa
 2289 049a 49       		.byte	0x49
 2290 049b F0040000 		.4byte	0x4f0
 2291 049f 02       		.byte	0x2
 2292 04a0 23       		.byte	0x23
 2293 04a1 10       		.uleb128 0x10
 2294 04a2 06       		.uleb128 0x6
 2295 04a3 59010000 		.4byte	.LASF67
 2296 04a7 0A       		.byte	0xa
ARM GAS  C:\Users\z80\AppData\Local\Temp\ccmumy1p.s 			page 42


 2297 04a8 4B       		.byte	0x4b
 2298 04a9 F0040000 		.4byte	0x4f0
 2299 04ad 02       		.byte	0x2
 2300 04ae 23       		.byte	0x23
 2301 04af 14       		.uleb128 0x14
 2302 04b0 06       		.uleb128 0x6
 2303 04b1 DD030000 		.4byte	.LASF68
 2304 04b5 0A       		.byte	0xa
 2305 04b6 4C       		.byte	0x4c
 2306 04b7 F0040000 		.4byte	0x4f0
 2307 04bb 02       		.byte	0x2
 2308 04bc 23       		.byte	0x23
 2309 04bd 18       		.uleb128 0x18
 2310 04be 06       		.uleb128 0x6
 2311 04bf 45050000 		.4byte	.LASF69
 2312 04c3 0A       		.byte	0xa
 2313 04c4 4D       		.byte	0x4d
 2314 04c5 CD040000 		.4byte	0x4cd
 2315 04c9 02       		.byte	0x2
 2316 04ca 23       		.byte	0x23
 2317 04cb 1C       		.uleb128 0x1c
 2318 04cc 00       		.byte	0x0
 2319 04cd 03       		.uleb128 0x3
 2320 04ce A5020000 		.4byte	.LASF70
 2321 04d2 0A       		.byte	0xa
 2322 04d3 3A       		.byte	0x3a
 2323 04d4 D8040000 		.4byte	0x4d8
 2324 04d8 09       		.uleb128 0x9
 2325 04d9 04       		.byte	0x4
 2326 04da DE040000 		.4byte	0x4de
 2327 04de 12       		.uleb128 0x12
 2328 04df 01       		.byte	0x1
 2329 04e0 EA040000 		.4byte	0x4ea
 2330 04e4 13       		.uleb128 0x13
 2331 04e5 EA040000 		.4byte	0x4ea
 2332 04e9 00       		.byte	0x0
 2333 04ea 09       		.uleb128 0x9
 2334 04eb 04       		.byte	0x4
 2335 04ec 53040000 		.4byte	0x453
 2336 04f0 09       		.uleb128 0x9
 2337 04f1 04       		.byte	0x4
 2338 04f2 49000000 		.4byte	0x49
 2339 04f6 03       		.uleb128 0x3
 2340 04f7 9A020000 		.4byte	.LASF71
 2341 04fb 0A       		.byte	0xa
 2342 04fc 76       		.byte	0x76
 2343 04fd 53040000 		.4byte	0x453
 2344 0501 03       		.uleb128 0x3
 2345 0502 26000000 		.4byte	.LASF72
 2346 0506 0A       		.byte	0xa
 2347 0507 E6       		.byte	0xe6
 2348 0508 53040000 		.4byte	0x453
 2349 050c 14       		.uleb128 0x14
 2350 050d 01       		.byte	0x1
 2351 050e 30000000 		.4byte	0x30
 2352 0512 26050000 		.4byte	0x526
 2353 0516 13       		.uleb128 0x13
ARM GAS  C:\Users\z80\AppData\Local\Temp\ccmumy1p.s 			page 43


 2354 0517 80020000 		.4byte	0x280
 2355 051b 13       		.uleb128 0x13
 2356 051c 26050000 		.4byte	0x526
 2357 0520 13       		.uleb128 0x13
 2358 0521 30000000 		.4byte	0x30
 2359 0525 00       		.byte	0x0
 2360 0526 09       		.uleb128 0x9
 2361 0527 04       		.byte	0x4
 2362 0528 2C050000 		.4byte	0x52c
 2363 052c 11       		.uleb128 0x11
 2364 052d 49000000 		.4byte	0x49
 2365 0531 09       		.uleb128 0x9
 2366 0532 04       		.byte	0x4
 2367 0533 0C050000 		.4byte	0x50c
 2368 0537 14       		.uleb128 0x14
 2369 0538 01       		.byte	0x1
 2370 0539 30000000 		.4byte	0x30
 2371 053d 51050000 		.4byte	0x551
 2372 0541 13       		.uleb128 0x13
 2373 0542 80020000 		.4byte	0x280
 2374 0546 13       		.uleb128 0x13
 2375 0547 F0040000 		.4byte	0x4f0
 2376 054b 13       		.uleb128 0x13
 2377 054c 30000000 		.4byte	0x30
 2378 0550 00       		.byte	0x0
 2379 0551 09       		.uleb128 0x9
 2380 0552 04       		.byte	0x4
 2381 0553 37050000 		.4byte	0x537
 2382 0557 14       		.uleb128 0x14
 2383 0558 01       		.byte	0x1
 2384 0559 BC000000 		.4byte	0xbc
 2385 055d 67050000 		.4byte	0x567
 2386 0561 13       		.uleb128 0x13
 2387 0562 80020000 		.4byte	0x280
 2388 0566 00       		.byte	0x0
 2389 0567 09       		.uleb128 0x9
 2390 0568 04       		.byte	0x4
 2391 0569 57050000 		.4byte	0x557
 2392 056d 14       		.uleb128 0x14
 2393 056e 01       		.byte	0x1
 2394 056f E8000000 		.4byte	0xe8
 2395 0573 87050000 		.4byte	0x587
 2396 0577 13       		.uleb128 0x13
 2397 0578 80020000 		.4byte	0x280
 2398 057c 13       		.uleb128 0x13
 2399 057d 49000000 		.4byte	0x49
 2400 0581 13       		.uleb128 0x13
 2401 0582 FE000000 		.4byte	0xfe
 2402 0586 00       		.byte	0x0
 2403 0587 09       		.uleb128 0x9
 2404 0588 04       		.byte	0x4
 2405 0589 6D050000 		.4byte	0x56d
 2406 058d 14       		.uleb128 0x14
 2407 058e 01       		.byte	0x1
 2408 058f E8000000 		.4byte	0xe8
 2409 0593 A2050000 		.4byte	0x5a2
 2410 0597 13       		.uleb128 0x13
ARM GAS  C:\Users\z80\AppData\Local\Temp\ccmumy1p.s 			page 44


 2411 0598 80020000 		.4byte	0x280
 2412 059c 13       		.uleb128 0x13
 2413 059d FE000000 		.4byte	0xfe
 2414 05a1 00       		.byte	0x0
 2415 05a2 09       		.uleb128 0x9
 2416 05a3 04       		.byte	0x4
 2417 05a4 8D050000 		.4byte	0x58d
 2418 05a8 14       		.uleb128 0x14
 2419 05a9 01       		.byte	0x1
 2420 05aa 30000000 		.4byte	0x30
 2421 05ae C7050000 		.4byte	0x5c7
 2422 05b2 13       		.uleb128 0x13
 2423 05b3 80020000 		.4byte	0x280
 2424 05b7 13       		.uleb128 0x13
 2425 05b8 26050000 		.4byte	0x526
 2426 05bc 13       		.uleb128 0x13
 2427 05bd 30000000 		.4byte	0x30
 2428 05c1 13       		.uleb128 0x13
 2429 05c2 FE000000 		.4byte	0xfe
 2430 05c6 00       		.byte	0x0
 2431 05c7 09       		.uleb128 0x9
 2432 05c8 04       		.byte	0x4
 2433 05c9 A8050000 		.4byte	0x5a8
 2434 05cd 14       		.uleb128 0x14
 2435 05ce 01       		.byte	0x1
 2436 05cf 30000000 		.4byte	0x30
 2437 05d3 EC050000 		.4byte	0x5ec
 2438 05d7 13       		.uleb128 0x13
 2439 05d8 80020000 		.4byte	0x280
 2440 05dc 13       		.uleb128 0x13
 2441 05dd F0040000 		.4byte	0x4f0
 2442 05e1 13       		.uleb128 0x13
 2443 05e2 30000000 		.4byte	0x30
 2444 05e6 13       		.uleb128 0x13
 2445 05e7 FE000000 		.4byte	0xfe
 2446 05eb 00       		.byte	0x0
 2447 05ec 09       		.uleb128 0x9
 2448 05ed 04       		.byte	0x4
 2449 05ee CD050000 		.4byte	0x5cd
 2450 05f2 15       		.uleb128 0x15
 2451 05f3 10030000 		.4byte	.LASF73
 2452 05f7 0B       		.byte	0xb
 2453 05f8 0B01     		.2byte	0x10b
 2454 05fa B1000000 		.4byte	0xb1
 2455 05fe 14       		.uleb128 0x14
 2456 05ff 01       		.byte	0x1
 2457 0600 F2050000 		.4byte	0x5f2
 2458 0604 0E060000 		.4byte	0x60e
 2459 0608 13       		.uleb128 0x13
 2460 0609 80020000 		.4byte	0x280
 2461 060d 00       		.byte	0x0
 2462 060e 09       		.uleb128 0x9
 2463 060f 04       		.byte	0x4
 2464 0610 FE050000 		.4byte	0x5fe
 2465 0614 03       		.uleb128 0x3
 2466 0615 32000000 		.4byte	.LASF74
 2467 0619 0C       		.byte	0xc
ARM GAS  C:\Users\z80\AppData\Local\Temp\ccmumy1p.s 			page 45


 2468 061a 0B       		.byte	0xb
 2469 061b 1F060000 		.4byte	0x61f
 2470 061f 09       		.uleb128 0x9
 2471 0620 04       		.byte	0x4
 2472 0621 25060000 		.4byte	0x625
 2473 0625 12       		.uleb128 0x12
 2474 0626 01       		.byte	0x1
 2475 0627 31060000 		.4byte	0x631
 2476 062b 13       		.uleb128 0x13
 2477 062c F0040000 		.4byte	0x4f0
 2478 0630 00       		.byte	0x0
 2479 0631 0D       		.uleb128 0xd
 2480 0632 62000000 		.4byte	0x62
 2481 0636 0D       		.uleb128 0xd
 2482 0637 74000000 		.4byte	0x74
 2483 063b 16       		.uleb128 0x16
 2484 063c 1C       		.byte	0x1c
 2485 063d 0D       		.byte	0xd
 2486 063e F803     		.2byte	0x3f8
 2487 0640 AE060000 		.4byte	0x6ae
 2488 0644 0B       		.uleb128 0xb
 2489 0645 43524C00 		.ascii	"CRL\000"
 2490 0649 0D       		.byte	0xd
 2491 064a FA03     		.2byte	0x3fa
 2492 064c 3D030000 		.4byte	0x33d
 2493 0650 02       		.byte	0x2
 2494 0651 23       		.byte	0x23
 2495 0652 00       		.uleb128 0x0
 2496 0653 0B       		.uleb128 0xb
 2497 0654 43524800 		.ascii	"CRH\000"
 2498 0658 0D       		.byte	0xd
 2499 0659 FB03     		.2byte	0x3fb
 2500 065b 3D030000 		.4byte	0x33d
 2501 065f 02       		.byte	0x2
 2502 0660 23       		.byte	0x23
 2503 0661 04       		.uleb128 0x4
 2504 0662 0B       		.uleb128 0xb
 2505 0663 49445200 		.ascii	"IDR\000"
 2506 0667 0D       		.byte	0xd
 2507 0668 FC03     		.2byte	0x3fc
 2508 066a 3D030000 		.4byte	0x33d
 2509 066e 02       		.byte	0x2
 2510 066f 23       		.byte	0x23
 2511 0670 08       		.uleb128 0x8
 2512 0671 0B       		.uleb128 0xb
 2513 0672 4F445200 		.ascii	"ODR\000"
 2514 0676 0D       		.byte	0xd
 2515 0677 FD03     		.2byte	0x3fd
 2516 0679 3D030000 		.4byte	0x33d
 2517 067d 02       		.byte	0x2
 2518 067e 23       		.byte	0x23
 2519 067f 0C       		.uleb128 0xc
 2520 0680 17       		.uleb128 0x17
 2521 0681 EB000000 		.4byte	.LASF75
 2522 0685 0D       		.byte	0xd
 2523 0686 FE03     		.2byte	0x3fe
 2524 0688 3D030000 		.4byte	0x33d
ARM GAS  C:\Users\z80\AppData\Local\Temp\ccmumy1p.s 			page 46


 2525 068c 02       		.byte	0x2
 2526 068d 23       		.byte	0x23
 2527 068e 10       		.uleb128 0x10
 2528 068f 0B       		.uleb128 0xb
 2529 0690 42525200 		.ascii	"BRR\000"
 2530 0694 0D       		.byte	0xd
 2531 0695 FF03     		.2byte	0x3ff
 2532 0697 3D030000 		.4byte	0x33d
 2533 069b 02       		.byte	0x2
 2534 069c 23       		.byte	0x23
 2535 069d 14       		.uleb128 0x14
 2536 069e 17       		.uleb128 0x17
 2537 069f 07020000 		.4byte	.LASF76
 2538 06a3 0D       		.byte	0xd
 2539 06a4 0004     		.2byte	0x400
 2540 06a6 3D030000 		.4byte	0x33d
 2541 06aa 02       		.byte	0x2
 2542 06ab 23       		.byte	0x23
 2543 06ac 18       		.uleb128 0x18
 2544 06ad 00       		.byte	0x0
 2545 06ae 15       		.uleb128 0x15
 2546 06af 77010000 		.4byte	.LASF77
 2547 06b3 0D       		.byte	0xd
 2548 06b4 0104     		.2byte	0x401
 2549 06b6 3B060000 		.4byte	0x63b
 2550 06ba 16       		.uleb128 0x16
 2551 06bb 1C       		.byte	0x1c
 2552 06bc 0D       		.byte	0xd
 2553 06bd E104     		.2byte	0x4e1
 2554 06bf 94070000 		.4byte	0x794
 2555 06c3 0B       		.uleb128 0xb
 2556 06c4 535200   		.ascii	"SR\000"
 2557 06c7 0D       		.byte	0xd
 2558 06c8 E304     		.2byte	0x4e3
 2559 06ca 31060000 		.4byte	0x631
 2560 06ce 02       		.byte	0x2
 2561 06cf 23       		.byte	0x23
 2562 06d0 00       		.uleb128 0x0
 2563 06d1 17       		.uleb128 0x17
 2564 06d2 91030000 		.4byte	.LASF78
 2565 06d6 0D       		.byte	0xd
 2566 06d7 E404     		.2byte	0x4e4
 2567 06d9 62000000 		.4byte	0x62
 2568 06dd 02       		.byte	0x2
 2569 06de 23       		.byte	0x23
 2570 06df 02       		.uleb128 0x2
 2571 06e0 0B       		.uleb128 0xb
 2572 06e1 445200   		.ascii	"DR\000"
 2573 06e4 0D       		.byte	0xd
 2574 06e5 E504     		.2byte	0x4e5
 2575 06e7 31060000 		.4byte	0x631
 2576 06eb 02       		.byte	0x2
 2577 06ec 23       		.byte	0x23
 2578 06ed 04       		.uleb128 0x4
 2579 06ee 17       		.uleb128 0x17
 2580 06ef 9B030000 		.4byte	.LASF79
 2581 06f3 0D       		.byte	0xd
ARM GAS  C:\Users\z80\AppData\Local\Temp\ccmumy1p.s 			page 47


 2582 06f4 E604     		.2byte	0x4e6
 2583 06f6 62000000 		.4byte	0x62
 2584 06fa 02       		.byte	0x2
 2585 06fb 23       		.byte	0x23
 2586 06fc 06       		.uleb128 0x6
 2587 06fd 0B       		.uleb128 0xb
 2588 06fe 42525200 		.ascii	"BRR\000"
 2589 0702 0D       		.byte	0xd
 2590 0703 E704     		.2byte	0x4e7
 2591 0705 31060000 		.4byte	0x631
 2592 0709 02       		.byte	0x2
 2593 070a 23       		.byte	0x23
 2594 070b 08       		.uleb128 0x8
 2595 070c 17       		.uleb128 0x17
 2596 070d A5030000 		.4byte	.LASF80
 2597 0711 0D       		.byte	0xd
 2598 0712 E804     		.2byte	0x4e8
 2599 0714 62000000 		.4byte	0x62
 2600 0718 02       		.byte	0x2
 2601 0719 23       		.byte	0x23
 2602 071a 0A       		.uleb128 0xa
 2603 071b 0B       		.uleb128 0xb
 2604 071c 43523100 		.ascii	"CR1\000"
 2605 0720 0D       		.byte	0xd
 2606 0721 E904     		.2byte	0x4e9
 2607 0723 31060000 		.4byte	0x631
 2608 0727 02       		.byte	0x2
 2609 0728 23       		.byte	0x23
 2610 0729 0C       		.uleb128 0xc
 2611 072a 17       		.uleb128 0x17
 2612 072b AF030000 		.4byte	.LASF81
 2613 072f 0D       		.byte	0xd
 2614 0730 EA04     		.2byte	0x4ea
 2615 0732 62000000 		.4byte	0x62
 2616 0736 02       		.byte	0x2
 2617 0737 23       		.byte	0x23
 2618 0738 0E       		.uleb128 0xe
 2619 0739 0B       		.uleb128 0xb
 2620 073a 43523200 		.ascii	"CR2\000"
 2621 073e 0D       		.byte	0xd
 2622 073f EB04     		.2byte	0x4eb
 2623 0741 31060000 		.4byte	0x631
 2624 0745 02       		.byte	0x2
 2625 0746 23       		.byte	0x23
 2626 0747 10       		.uleb128 0x10
 2627 0748 17       		.uleb128 0x17
 2628 0749 B9030000 		.4byte	.LASF82
 2629 074d 0D       		.byte	0xd
 2630 074e EC04     		.2byte	0x4ec
 2631 0750 62000000 		.4byte	0x62
 2632 0754 02       		.byte	0x2
 2633 0755 23       		.byte	0x23
 2634 0756 12       		.uleb128 0x12
 2635 0757 0B       		.uleb128 0xb
 2636 0758 43523300 		.ascii	"CR3\000"
 2637 075c 0D       		.byte	0xd
 2638 075d ED04     		.2byte	0x4ed
ARM GAS  C:\Users\z80\AppData\Local\Temp\ccmumy1p.s 			page 48


 2639 075f 31060000 		.4byte	0x631
 2640 0763 02       		.byte	0x2
 2641 0764 23       		.byte	0x23
 2642 0765 14       		.uleb128 0x14
 2643 0766 17       		.uleb128 0x17
 2644 0767 81040000 		.4byte	.LASF83
 2645 076b 0D       		.byte	0xd
 2646 076c EE04     		.2byte	0x4ee
 2647 076e 62000000 		.4byte	0x62
 2648 0772 02       		.byte	0x2
 2649 0773 23       		.byte	0x23
 2650 0774 16       		.uleb128 0x16
 2651 0775 17       		.uleb128 0x17
 2652 0776 F0000000 		.4byte	.LASF84
 2653 077a 0D       		.byte	0xd
 2654 077b EF04     		.2byte	0x4ef
 2655 077d 31060000 		.4byte	0x631
 2656 0781 02       		.byte	0x2
 2657 0782 23       		.byte	0x23
 2658 0783 18       		.uleb128 0x18
 2659 0784 17       		.uleb128 0x17
 2660 0785 CA030000 		.4byte	.LASF85
 2661 0789 0D       		.byte	0xd
 2662 078a F004     		.2byte	0x4f0
 2663 078c 62000000 		.4byte	0x62
 2664 0790 02       		.byte	0x2
 2665 0791 23       		.byte	0x23
 2666 0792 1A       		.uleb128 0x1a
 2667 0793 00       		.byte	0x0
 2668 0794 15       		.uleb128 0x15
 2669 0795 65020000 		.4byte	.LASF86
 2670 0799 0D       		.byte	0xd
 2671 079a F104     		.2byte	0x4f1
 2672 079c BA060000 		.4byte	0x6ba
 2673 07a0 03       		.uleb128 0x3
 2674 07a1 38000000 		.4byte	.LASF87
 2675 07a5 0E       		.byte	0xe
 2676 07a6 78       		.byte	0x78
 2677 07a7 86000000 		.4byte	0x86
 2678 07ab 18       		.uleb128 0x18
 2679 07ac 01       		.byte	0x1
 2680 07ad 0F       		.byte	0xf
 2681 07ae 64       		.byte	0x64
 2682 07af C6070000 		.4byte	0x7c6
 2683 07b3 19       		.uleb128 0x19
 2684 07b4 77040000 		.4byte	.LASF88
 2685 07b8 00       		.sleb128 0
 2686 07b9 19       		.uleb128 0x19
 2687 07ba F5000000 		.4byte	.LASF89
 2688 07be 01       		.sleb128 1
 2689 07bf 19       		.uleb128 0x19
 2690 07c0 1E050000 		.4byte	.LASF90
 2691 07c4 02       		.sleb128 2
 2692 07c5 00       		.byte	0x0
 2693 07c6 03       		.uleb128 0x3
 2694 07c7 94040000 		.4byte	.LASF91
 2695 07cb 0F       		.byte	0xf
ARM GAS  C:\Users\z80\AppData\Local\Temp\ccmumy1p.s 			page 49


 2696 07cc 68       		.byte	0x68
 2697 07cd AB070000 		.4byte	0x7ab
 2698 07d1 03       		.uleb128 0x3
 2699 07d2 9E040000 		.4byte	.LASF92
 2700 07d6 0F       		.byte	0xf
 2701 07d7 6D       		.byte	0x6d
 2702 07d8 DC070000 		.4byte	0x7dc
 2703 07dc 1A       		.uleb128 0x1a
 2704 07dd 9E040000 		.4byte	.LASF92
 2705 07e1 5404     		.2byte	0x454
 2706 07e3 0F       		.byte	0xf
 2707 07e4 87       		.byte	0x87
 2708 07e5 68080000 		.4byte	0x868
 2709 07e9 07       		.uleb128 0x7
 2710 07ea 766D7400 		.ascii	"vmt\000"
 2711 07ee 0F       		.byte	0xf
 2712 07ef 89       		.byte	0x89
 2713 07f0 F3080000 		.4byte	0x8f3
 2714 07f4 02       		.byte	0x2
 2715 07f5 23       		.byte	0x23
 2716 07f6 00       		.uleb128 0x0
 2717 07f7 06       		.uleb128 0x6
 2718 07f8 25020000 		.4byte	.LASF93
 2719 07fc 0F       		.byte	0xf
 2720 07fd 8A       		.byte	0x8a
 2721 07fe F5030000 		.4byte	0x3f5
 2722 0802 02       		.byte	0x2
 2723 0803 23       		.byte	0x23
 2724 0804 04       		.uleb128 0x4
 2725 0805 06       		.uleb128 0x6
 2726 0806 67050000 		.4byte	.LASF94
 2727 080a 0F       		.byte	0xf
 2728 080b 8A       		.byte	0x8a
 2729 080c F2050000 		.4byte	0x5f2
 2730 0810 02       		.byte	0x2
 2731 0811 23       		.byte	0x23
 2732 0812 08       		.uleb128 0x8
 2733 0813 06       		.uleb128 0x6
 2734 0814 38010000 		.4byte	.LASF95
 2735 0818 0F       		.byte	0xf
 2736 0819 8A       		.byte	0x8a
 2737 081a C6070000 		.4byte	0x7c6
 2738 081e 02       		.byte	0x2
 2739 081f 23       		.byte	0x23
 2740 0820 0C       		.uleb128 0xc
 2741 0821 06       		.uleb128 0x6
 2742 0822 F0010000 		.4byte	.LASF96
 2743 0826 0F       		.byte	0xf
 2744 0827 8A       		.byte	0x8a
 2745 0828 F6040000 		.4byte	0x4f6
 2746 082c 02       		.byte	0x2
 2747 082d 23       		.byte	0x23
 2748 082e 10       		.uleb128 0x10
 2749 082f 06       		.uleb128 0x6
 2750 0830 44020000 		.4byte	.LASF97
 2751 0834 0F       		.byte	0xf
 2752 0835 8A       		.byte	0x8a
ARM GAS  C:\Users\z80\AppData\Local\Temp\ccmumy1p.s 			page 50


 2753 0836 01050000 		.4byte	0x501
 2754 083a 02       		.byte	0x2
 2755 083b 23       		.byte	0x23
 2756 083c 30       		.uleb128 0x30
 2757 083d 07       		.uleb128 0x7
 2758 083e 696200   		.ascii	"ib\000"
 2759 0841 0F       		.byte	0xf
 2760 0842 8A       		.byte	0x8a
 2761 0843 FE080000 		.4byte	0x8fe
 2762 0847 02       		.byte	0x2
 2763 0848 23       		.byte	0x23
 2764 0849 50       		.uleb128 0x50
 2765 084a 07       		.uleb128 0x7
 2766 084b 6F6200   		.ascii	"ob\000"
 2767 084e 0F       		.byte	0xf
 2768 084f 8A       		.byte	0x8a
 2769 0850 FE080000 		.4byte	0x8fe
 2770 0854 03       		.byte	0x3
 2771 0855 23       		.byte	0x23
 2772 0856 D004     		.uleb128 0x250
 2773 0858 06       		.uleb128 0x6
 2774 0859 A2010000 		.4byte	.LASF98
 2775 085d 0F       		.byte	0xf
 2776 085e 8A       		.byte	0x8a
 2777 085f 0F090000 		.4byte	0x90f
 2778 0863 03       		.byte	0x3
 2779 0864 23       		.byte	0x23
 2780 0865 D008     		.uleb128 0x450
 2781 0867 00       		.byte	0x0
 2782 0868 05       		.uleb128 0x5
 2783 0869 BE010000 		.4byte	.LASF99
 2784 086d 24       		.byte	0x24
 2785 086e 0F       		.byte	0xf
 2786 086f 7C       		.byte	0x7c
 2787 0870 F3080000 		.4byte	0x8f3
 2788 0874 06       		.uleb128 0x6
 2789 0875 E3020000 		.4byte	.LASF100
 2790 0879 0F       		.byte	0xf
 2791 087a 7D       		.byte	0x7d
 2792 087b 31050000 		.4byte	0x531
 2793 087f 02       		.byte	0x2
 2794 0880 23       		.byte	0x23
 2795 0881 00       		.uleb128 0x0
 2796 0882 06       		.uleb128 0x6
 2797 0883 BD040000 		.4byte	.LASF101
 2798 0887 0F       		.byte	0xf
 2799 0888 7D       		.byte	0x7d
 2800 0889 51050000 		.4byte	0x551
 2801 088d 02       		.byte	0x2
 2802 088e 23       		.byte	0x23
 2803 088f 04       		.uleb128 0x4
 2804 0890 06       		.uleb128 0x6
 2805 0891 69010000 		.4byte	.LASF102
 2806 0895 0F       		.byte	0xf
 2807 0896 7D       		.byte	0x7d
 2808 0897 67050000 		.4byte	0x567
 2809 089b 02       		.byte	0x2
ARM GAS  C:\Users\z80\AppData\Local\Temp\ccmumy1p.s 			page 51


 2810 089c 23       		.byte	0x23
 2811 089d 08       		.uleb128 0x8
 2812 089e 06       		.uleb128 0x6
 2813 089f 94050000 		.4byte	.LASF103
 2814 08a3 0F       		.byte	0xf
 2815 08a4 7D       		.byte	0x7d
 2816 08a5 67050000 		.4byte	0x567
 2817 08a9 02       		.byte	0x2
 2818 08aa 23       		.byte	0x23
 2819 08ab 0C       		.uleb128 0xc
 2820 08ac 07       		.uleb128 0x7
 2821 08ad 70757400 		.ascii	"put\000"
 2822 08b1 0F       		.byte	0xf
 2823 08b2 7D       		.byte	0x7d
 2824 08b3 87050000 		.4byte	0x587
 2825 08b7 02       		.byte	0x2
 2826 08b8 23       		.byte	0x23
 2827 08b9 10       		.uleb128 0x10
 2828 08ba 07       		.uleb128 0x7
 2829 08bb 67657400 		.ascii	"get\000"
 2830 08bf 0F       		.byte	0xf
 2831 08c0 7D       		.byte	0x7d
 2832 08c1 A2050000 		.4byte	0x5a2
 2833 08c5 02       		.byte	0x2
 2834 08c6 23       		.byte	0x23
 2835 08c7 14       		.uleb128 0x14
 2836 08c8 06       		.uleb128 0x6
 2837 08c9 73020000 		.4byte	.LASF104
 2838 08cd 0F       		.byte	0xf
 2839 08ce 7D       		.byte	0x7d
 2840 08cf C7050000 		.4byte	0x5c7
 2841 08d3 02       		.byte	0x2
 2842 08d4 23       		.byte	0x23
 2843 08d5 18       		.uleb128 0x18
 2844 08d6 06       		.uleb128 0x6
 2845 08d7 BC000000 		.4byte	.LASF105
 2846 08db 0F       		.byte	0xf
 2847 08dc 7D       		.byte	0x7d
 2848 08dd EC050000 		.4byte	0x5ec
 2849 08e1 02       		.byte	0x2
 2850 08e2 23       		.byte	0x23
 2851 08e3 1C       		.uleb128 0x1c
 2852 08e4 06       		.uleb128 0x6
 2853 08e5 06050000 		.4byte	.LASF106
 2854 08e9 0F       		.byte	0xf
 2855 08ea 7D       		.byte	0x7d
 2856 08eb 0E060000 		.4byte	0x60e
 2857 08ef 02       		.byte	0x2
 2858 08f0 23       		.byte	0x23
 2859 08f1 20       		.uleb128 0x20
 2860 08f2 00       		.byte	0x0
 2861 08f3 09       		.uleb128 0x9
 2862 08f4 04       		.byte	0x4
 2863 08f5 F9080000 		.4byte	0x8f9
 2864 08f9 11       		.uleb128 0x11
 2865 08fa 68080000 		.4byte	0x868
 2866 08fe 1B       		.uleb128 0x1b
ARM GAS  C:\Users\z80\AppData\Local\Temp\ccmumy1p.s 			page 52


 2867 08ff 49000000 		.4byte	0x49
 2868 0903 0F090000 		.4byte	0x90f
 2869 0907 1C       		.uleb128 0x1c
 2870 0908 42030000 		.4byte	0x342
 2871 090c FF01     		.2byte	0x1ff
 2872 090e 00       		.byte	0x0
 2873 090f 09       		.uleb128 0x9
 2874 0910 04       		.byte	0x4
 2875 0911 94070000 		.4byte	0x794
 2876 0915 1D       		.uleb128 0x1d
 2877 0916 01       		.byte	0x1
 2878 0917 C7040000 		.4byte	.LASF143
 2879 091b 01       		.byte	0x1
 2880 091c 23       		.byte	0x23
 2881 091d 01       		.byte	0x1
 2882 091e 00000000 		.4byte	.LFB62
 2883 0922 3C000000 		.4byte	.LFE62
 2884 0926 00000000 		.4byte	.LLST0
 2885 092a 1E       		.uleb128 0x1e
 2886 092b 01       		.byte	0x1
 2887 092c 01030000 		.4byte	.LASF144
 2888 0930 01       		.byte	0x1
 2889 0931 2D       		.byte	0x2d
 2890 0932 01       		.byte	0x1
 2891 0933 00000000 		.4byte	.LFB63
 2892 0937 14010000 		.4byte	.LFE63
 2893 093b 20000000 		.4byte	.LLST1
 2894 093f 98090000 		.4byte	0x998
 2895 0943 1F       		.uleb128 0x1f
 2896 0944 8E050000 		.4byte	.LASF107
 2897 0948 01       		.byte	0x1
 2898 0949 2F       		.byte	0x2f
 2899 094a 49000000 		.4byte	0x49
 2900 094e 05       		.byte	0x5
 2901 094f 03       		.byte	0x3
 2902 0950 00000000 		.4byte	slash.3692
 2903 0954 1F       		.uleb128 0x1f
 2904 0955 9E000000 		.4byte	.LASF108
 2905 0959 01       		.byte	0x1
 2906 095a 30       		.byte	0x30
 2907 095b 29000000 		.4byte	0x29
 2908 095f 05       		.byte	0x5
 2909 0960 03       		.byte	0x3
 2910 0961 00000000 		.4byte	out_index.3693
 2911 0965 20       		.uleb128 0x20
 2912 0966 6D736700 		.ascii	"msg\000"
 2913 096a 01       		.byte	0x1
 2914 096b 3B       		.byte	0x3b
 2915 096c E8000000 		.4byte	0xe8
 2916 0970 02       		.byte	0x2
 2917 0971 91       		.byte	0x91
 2918 0972 74       		.sleb128 -12
 2919 0973 1F       		.uleb128 0x1f
 2920 0974 16020000 		.4byte	.LASF109
 2921 0978 01       		.byte	0x1
 2922 0979 3D       		.byte	0x3d
 2923 097a 49000000 		.4byte	0x49
ARM GAS  C:\Users\z80\AppData\Local\Temp\ccmumy1p.s 			page 53


 2924 097e 02       		.byte	0x2
 2925 097f 91       		.byte	0x91
 2926 0980 73       		.sleb128 -13
 2927 0981 21       		.uleb128 0x21
 2928 0982 38000000 		.4byte	.LBB2
 2929 0986 0C010000 		.4byte	.LBE2
 2930 098a 20       		.uleb128 0x20
 2931 098b 7600     		.ascii	"v\000"
 2932 098d 01       		.byte	0x1
 2933 098e 40       		.byte	0x40
 2934 098f 49000000 		.4byte	0x49
 2935 0993 02       		.byte	0x2
 2936 0994 91       		.byte	0x91
 2937 0995 72       		.sleb128 -14
 2938 0996 00       		.byte	0x0
 2939 0997 00       		.byte	0x0
 2940 0998 22       		.uleb128 0x22
 2941 0999 01       		.byte	0x1
 2942 099a 7F000000 		.4byte	.LASF145
 2943 099e 01       		.byte	0x1
 2944 099f 5A       		.byte	0x5a
 2945 09a0 01       		.byte	0x1
 2946 09a1 F0040000 		.4byte	0x4f0
 2947 09a5 00000000 		.4byte	.LFB64
 2948 09a9 0C000000 		.4byte	.LFE64
 2949 09ad 02       		.byte	0x2
 2950 09ae 7D       		.byte	0x7d
 2951 09af 00       		.sleb128 0
 2952 09b0 23       		.uleb128 0x23
 2953 09b1 2C040000 		.4byte	.LASF111
 2954 09b5 01       		.byte	0x1
 2955 09b6 61       		.byte	0x61
 2956 09b7 01       		.byte	0x1
 2957 09b8 00000000 		.4byte	.LFB65
 2958 09bc 64000000 		.4byte	.LFE65
 2959 09c0 4C000000 		.4byte	.LLST2
 2960 09c4 0C0A0000 		.4byte	0xa0c
 2961 09c8 24       		.uleb128 0x24
 2962 09c9 62756600 		.ascii	"buf\000"
 2963 09cd 01       		.byte	0x1
 2964 09ce 61       		.byte	0x61
 2965 09cf F0040000 		.4byte	0x4f0
 2966 09d3 02       		.byte	0x2
 2967 09d4 91       		.byte	0x91
 2968 09d5 64       		.sleb128 -28
 2969 09d6 24       		.uleb128 0x24
 2970 09d7 737A00   		.ascii	"sz\000"
 2971 09da 01       		.byte	0x1
 2972 09db 61       		.byte	0x61
 2973 09dc 29000000 		.4byte	0x29
 2974 09e0 02       		.byte	0x2
 2975 09e1 91       		.byte	0x91
 2976 09e2 60       		.sleb128 -32
 2977 09e3 20       		.uleb128 0x20
 2978 09e4 6900     		.ascii	"i\000"
 2979 09e6 01       		.byte	0x1
 2980 09e7 63       		.byte	0x63
ARM GAS  C:\Users\z80\AppData\Local\Temp\ccmumy1p.s 			page 54


 2981 09e8 29000000 		.4byte	0x29
 2982 09ec 02       		.byte	0x2
 2983 09ed 91       		.byte	0x91
 2984 09ee 74       		.sleb128 -12
 2985 09ef 20       		.uleb128 0x20
 2986 09f0 636D6400 		.ascii	"cmd\000"
 2987 09f4 01       		.byte	0x1
 2988 09f5 64       		.byte	0x64
 2989 09f6 49000000 		.4byte	0x49
 2990 09fa 02       		.byte	0x2
 2991 09fb 91       		.byte	0x91
 2992 09fc 73       		.sleb128 -13
 2993 09fd 1F       		.uleb128 0x1f
 2994 09fe 01050000 		.4byte	.LASF110
 2995 0a02 01       		.byte	0x1
 2996 0a03 66       		.byte	0x66
 2997 0a04 F0040000 		.4byte	0x4f0
 2998 0a08 02       		.byte	0x2
 2999 0a09 91       		.byte	0x91
 3000 0a0a 6C       		.sleb128 -20
 3001 0a0b 00       		.byte	0x0
 3002 0a0c 23       		.uleb128 0x23
 3003 0a0d 0C020000 		.4byte	.LASF112
 3004 0a11 01       		.byte	0x1
 3005 0a12 99       		.byte	0x99
 3006 0a13 01       		.byte	0x1
 3007 0a14 00000000 		.4byte	.LFB66
 3008 0a18 44000000 		.4byte	.LFE66
 3009 0a1c 78000000 		.4byte	.LLST3
 3010 0a20 410A0000 		.4byte	0xa41
 3011 0a24 1F       		.uleb128 0x1f
 3012 0a25 5C050000 		.4byte	.LASF113
 3013 0a29 01       		.byte	0x1
 3014 0a2a 9B       		.byte	0x9b
 3015 0a2b 29000000 		.4byte	0x29
 3016 0a2f 02       		.byte	0x2
 3017 0a30 91       		.byte	0x91
 3018 0a31 74       		.sleb128 -12
 3019 0a32 1F       		.uleb128 0x1f
 3020 0a33 D4030000 		.4byte	.LASF114
 3021 0a37 01       		.byte	0x1
 3022 0a38 9D       		.byte	0x9d
 3023 0a39 29000000 		.4byte	0x29
 3024 0a3d 02       		.byte	0x2
 3025 0a3e 91       		.byte	0x91
 3026 0a3f 70       		.sleb128 -16
 3027 0a40 00       		.byte	0x0
 3028 0a41 23       		.uleb128 0x23
 3029 0a42 2A010000 		.4byte	.LASF115
 3030 0a46 01       		.byte	0x1
 3031 0a47 A2       		.byte	0xa2
 3032 0a48 01       		.byte	0x1
 3033 0a49 00000000 		.4byte	.LFB67
 3034 0a4d A6000000 		.4byte	.LFE67
 3035 0a51 A4000000 		.4byte	.LLST4
 3036 0a55 E80A0000 		.4byte	0xae8
 3037 0a59 24       		.uleb128 0x24
ARM GAS  C:\Users\z80\AppData\Local\Temp\ccmumy1p.s 			page 55


 3038 0a5a 7100     		.ascii	"q\000"
 3039 0a5c 01       		.byte	0x1
 3040 0a5d A2       		.byte	0xa2
 3041 0a5e E80A0000 		.4byte	0xae8
 3042 0a62 02       		.byte	0x2
 3043 0a63 91       		.byte	0x91
 3044 0a64 64       		.sleb128 -28
 3045 0a65 20       		.uleb128 0x20
 3046 0a66 6D736700 		.ascii	"msg\000"
 3047 0a6a 01       		.byte	0x1
 3048 0a6b A4       		.byte	0xa4
 3049 0a6c E8000000 		.4byte	0xe8
 3050 0a70 02       		.byte	0x2
 3051 0a71 91       		.byte	0x91
 3052 0a72 6C       		.sleb128 -20
 3053 0a73 1F       		.uleb128 0x1f
 3054 0a74 16020000 		.4byte	.LASF109
 3055 0a78 01       		.byte	0x1
 3056 0a79 A5       		.byte	0xa5
 3057 0a7a 49000000 		.4byte	0x49
 3058 0a7e 02       		.byte	0x2
 3059 0a7f 91       		.byte	0x91
 3060 0a80 6B       		.sleb128 -21
 3061 0a81 20       		.uleb128 0x20
 3062 0a82 636E7400 		.ascii	"cnt\000"
 3063 0a86 01       		.byte	0x1
 3064 0a87 A6       		.byte	0xa6
 3065 0a88 30000000 		.4byte	0x30
 3066 0a8c 02       		.byte	0x2
 3067 0a8d 91       		.byte	0x91
 3068 0a8e 70       		.sleb128 -16
 3069 0a8f 20       		.uleb128 0x20
 3070 0a90 6900     		.ascii	"i\000"
 3071 0a92 01       		.byte	0x1
 3072 0a93 A6       		.byte	0xa6
 3073 0a94 30000000 		.4byte	0x30
 3074 0a98 02       		.byte	0x2
 3075 0a99 91       		.byte	0x91
 3076 0a9a 74       		.sleb128 -12
 3077 0a9b 25       		.uleb128 0x25
 3078 0a9c 06000000 		.4byte	.LBB3
 3079 0aa0 0E000000 		.4byte	.LBE3
 3080 0aa4 B60A0000 		.4byte	0xab6
 3081 0aa8 20       		.uleb128 0x20
 3082 0aa9 746D7000 		.ascii	"tmp\000"
 3083 0aad 01       		.byte	0x1
 3084 0aae A7       		.byte	0xa7
 3085 0aaf 86000000 		.4byte	0x86
 3086 0ab3 01       		.byte	0x1
 3087 0ab4 53       		.byte	0x53
 3088 0ab5 00       		.byte	0x0
 3089 0ab6 25       		.uleb128 0x25
 3090 0ab7 24000000 		.4byte	.LBB4
 3091 0abb 2C000000 		.4byte	.LBE4
 3092 0abf D10A0000 		.4byte	0xad1
 3093 0ac3 20       		.uleb128 0x20
 3094 0ac4 746D7000 		.ascii	"tmp\000"
ARM GAS  C:\Users\z80\AppData\Local\Temp\ccmumy1p.s 			page 56


 3095 0ac8 01       		.byte	0x1
 3096 0ac9 A9       		.byte	0xa9
 3097 0aca 86000000 		.4byte	0x86
 3098 0ace 01       		.byte	0x1
 3099 0acf 53       		.byte	0x53
 3100 0ad0 00       		.byte	0x0
 3101 0ad1 21       		.uleb128 0x21
 3102 0ad2 42000000 		.4byte	.LBB5
 3103 0ad6 8E000000 		.4byte	.LBE5
 3104 0ada 20       		.uleb128 0x20
 3105 0adb 7600     		.ascii	"v\000"
 3106 0add 01       		.byte	0x1
 3107 0ade B0       		.byte	0xb0
 3108 0adf 49000000 		.4byte	0x49
 3109 0ae3 02       		.byte	0x2
 3110 0ae4 91       		.byte	0x91
 3111 0ae5 6A       		.sleb128 -22
 3112 0ae6 00       		.byte	0x0
 3113 0ae7 00       		.byte	0x0
 3114 0ae8 09       		.uleb128 0x9
 3115 0ae9 04       		.byte	0x4
 3116 0aea F6040000 		.4byte	0x4f6
 3117 0aee 23       		.uleb128 0x23
 3118 0aef 27050000 		.4byte	.LASF116
 3119 0af3 01       		.byte	0x1
 3120 0af4 B7       		.byte	0xb7
 3121 0af5 01       		.byte	0x1
 3122 0af6 00000000 		.4byte	.LFB68
 3123 0afa 18000000 		.4byte	.LFE68
 3124 0afe D0000000 		.4byte	.LLST5
 3125 0b02 210B0000 		.4byte	0xb21
 3126 0b06 26       		.uleb128 0x26
 3127 0b07 A2050000 		.4byte	.LASF117
 3128 0b0b 01       		.byte	0x1
 3129 0b0c B7       		.byte	0xb7
 3130 0b0d F0040000 		.4byte	0x4f0
 3131 0b11 02       		.byte	0x2
 3132 0b12 91       		.byte	0x91
 3133 0b13 6C       		.sleb128 -20
 3134 0b14 20       		.uleb128 0x20
 3135 0b15 7100     		.ascii	"q\000"
 3136 0b17 01       		.byte	0x1
 3137 0b18 BA       		.byte	0xba
 3138 0b19 E80A0000 		.4byte	0xae8
 3139 0b1d 02       		.byte	0x2
 3140 0b1e 91       		.byte	0x91
 3141 0b1f 74       		.sleb128 -12
 3142 0b20 00       		.byte	0x0
 3143 0b21 23       		.uleb128 0x23
 3144 0b22 E5030000 		.4byte	.LASF118
 3145 0b26 01       		.byte	0x1
 3146 0b27 BE       		.byte	0xbe
 3147 0b28 01       		.byte	0x1
 3148 0b29 00000000 		.4byte	.LFB69
 3149 0b2d 18000000 		.4byte	.LFE69
 3150 0b31 FC000000 		.4byte	.LLST6
 3151 0b35 540B0000 		.4byte	0xb54
ARM GAS  C:\Users\z80\AppData\Local\Temp\ccmumy1p.s 			page 57


 3152 0b39 26       		.uleb128 0x26
 3153 0b3a A2050000 		.4byte	.LASF117
 3154 0b3e 01       		.byte	0x1
 3155 0b3f BE       		.byte	0xbe
 3156 0b40 F0040000 		.4byte	0x4f0
 3157 0b44 02       		.byte	0x2
 3158 0b45 91       		.byte	0x91
 3159 0b46 6C       		.sleb128 -20
 3160 0b47 20       		.uleb128 0x20
 3161 0b48 7100     		.ascii	"q\000"
 3162 0b4a 01       		.byte	0x1
 3163 0b4b C1       		.byte	0xc1
 3164 0b4c E80A0000 		.4byte	0xae8
 3165 0b50 02       		.byte	0x2
 3166 0b51 91       		.byte	0x91
 3167 0b52 74       		.sleb128 -12
 3168 0b53 00       		.byte	0x0
 3169 0b54 23       		.uleb128 0x23
 3170 0b55 4B020000 		.4byte	.LASF119
 3171 0b59 01       		.byte	0x1
 3172 0b5a C5       		.byte	0xc5
 3173 0b5b 01       		.byte	0x1
 3174 0b5c 00000000 		.4byte	.LFB70
 3175 0b60 18000000 		.4byte	.LFE70
 3176 0b64 28010000 		.4byte	.LLST7
 3177 0b68 870B0000 		.4byte	0xb87
 3178 0b6c 26       		.uleb128 0x26
 3179 0b6d A2050000 		.4byte	.LASF117
 3180 0b71 01       		.byte	0x1
 3181 0b72 C5       		.byte	0xc5
 3182 0b73 F0040000 		.4byte	0x4f0
 3183 0b77 02       		.byte	0x2
 3184 0b78 91       		.byte	0x91
 3185 0b79 6C       		.sleb128 -20
 3186 0b7a 20       		.uleb128 0x20
 3187 0b7b 7100     		.ascii	"q\000"
 3188 0b7d 01       		.byte	0x1
 3189 0b7e C8       		.byte	0xc8
 3190 0b7f E80A0000 		.4byte	0xae8
 3191 0b83 02       		.byte	0x2
 3192 0b84 91       		.byte	0x91
 3193 0b85 74       		.sleb128 -12
 3194 0b86 00       		.byte	0x0
 3195 0b87 23       		.uleb128 0x23
 3196 0b88 C2000000 		.4byte	.LASF120
 3197 0b8c 01       		.byte	0x1
 3198 0b8d CC       		.byte	0xcc
 3199 0b8e 01       		.byte	0x1
 3200 0b8f 00000000 		.4byte	.LFB71
 3201 0b93 42000000 		.4byte	.LFE71
 3202 0b97 54010000 		.4byte	.LLST8
 3203 0b9b BC0B0000 		.4byte	0xbbc
 3204 0b9f 26       		.uleb128 0x26
 3205 0ba0 A2050000 		.4byte	.LASF117
 3206 0ba4 01       		.byte	0x1
 3207 0ba5 CC       		.byte	0xcc
 3208 0ba6 F0040000 		.4byte	0x4f0
ARM GAS  C:\Users\z80\AppData\Local\Temp\ccmumy1p.s 			page 58


 3209 0baa 02       		.byte	0x2
 3210 0bab 91       		.byte	0x91
 3211 0bac 6C       		.sleb128 -20
 3212 0bad 1F       		.uleb128 0x1f
 3213 0bae 45000000 		.4byte	.LASF121
 3214 0bb2 01       		.byte	0x1
 3215 0bb3 CF       		.byte	0xcf
 3216 0bb4 86000000 		.4byte	0x86
 3217 0bb8 02       		.byte	0x2
 3218 0bb9 91       		.byte	0x91
 3219 0bba 74       		.sleb128 -12
 3220 0bbb 00       		.byte	0x0
 3221 0bbc 23       		.uleb128 0x23
 3222 0bbd 84010000 		.4byte	.LASF122
 3223 0bc1 01       		.byte	0x1
 3224 0bc2 D7       		.byte	0xd7
 3225 0bc3 01       		.byte	0x1
 3226 0bc4 00000000 		.4byte	.LFB72
 3227 0bc8 14000000 		.4byte	.LFE72
 3228 0bcc 80010000 		.4byte	.LLST9
 3229 0bd0 E30B0000 		.4byte	0xbe3
 3230 0bd4 26       		.uleb128 0x26
 3231 0bd5 A2050000 		.4byte	.LASF117
 3232 0bd9 01       		.byte	0x1
 3233 0bda D7       		.byte	0xd7
 3234 0bdb F0040000 		.4byte	0x4f0
 3235 0bdf 02       		.byte	0x2
 3236 0be0 91       		.byte	0x91
 3237 0be1 74       		.sleb128 -12
 3238 0be2 00       		.byte	0x0
 3239 0be3 23       		.uleb128 0x23
 3240 0be4 52030000 		.4byte	.LASF123
 3241 0be8 01       		.byte	0x1
 3242 0be9 DC       		.byte	0xdc
 3243 0bea 01       		.byte	0x1
 3244 0beb 00000000 		.4byte	.LFB73
 3245 0bef 14000000 		.4byte	.LFE73
 3246 0bf3 AC010000 		.4byte	.LLST10
 3247 0bf7 0A0C0000 		.4byte	0xc0a
 3248 0bfb 26       		.uleb128 0x26
 3249 0bfc A2050000 		.4byte	.LASF117
 3250 0c00 01       		.byte	0x1
 3251 0c01 DC       		.byte	0xdc
 3252 0c02 F0040000 		.4byte	0x4f0
 3253 0c06 02       		.byte	0x2
 3254 0c07 91       		.byte	0x91
 3255 0c08 74       		.sleb128 -12
 3256 0c09 00       		.byte	0x0
 3257 0c0a 23       		.uleb128 0x23
 3258 0c0b 91000000 		.4byte	.LASF124
 3259 0c0f 01       		.byte	0x1
 3260 0c10 E1       		.byte	0xe1
 3261 0c11 01       		.byte	0x1
 3262 0c12 00000000 		.4byte	.LFB74
 3263 0c16 14000000 		.4byte	.LFE74
 3264 0c1a D8010000 		.4byte	.LLST11
 3265 0c1e 310C0000 		.4byte	0xc31
ARM GAS  C:\Users\z80\AppData\Local\Temp\ccmumy1p.s 			page 59


 3266 0c22 26       		.uleb128 0x26
 3267 0c23 A2050000 		.4byte	.LASF117
 3268 0c27 01       		.byte	0x1
 3269 0c28 E1       		.byte	0xe1
 3270 0c29 F0040000 		.4byte	0x4f0
 3271 0c2d 02       		.byte	0x2
 3272 0c2e 91       		.byte	0x91
 3273 0c2f 74       		.sleb128 -12
 3274 0c30 00       		.byte	0x0
 3275 0c31 23       		.uleb128 0x23
 3276 0c32 DB020000 		.4byte	.LASF125
 3277 0c36 01       		.byte	0x1
 3278 0c37 E6       		.byte	0xe6
 3279 0c38 01       		.byte	0x1
 3280 0c39 00000000 		.4byte	.LFB75
 3281 0c3d 20000000 		.4byte	.LFE75
 3282 0c41 04020000 		.4byte	.LLST12
 3283 0c45 640C0000 		.4byte	0xc64
 3284 0c49 26       		.uleb128 0x26
 3285 0c4a A2050000 		.4byte	.LASF117
 3286 0c4e 01       		.byte	0x1
 3287 0c4f E6       		.byte	0xe6
 3288 0c50 F0040000 		.4byte	0x4f0
 3289 0c54 02       		.byte	0x2
 3290 0c55 91       		.byte	0x91
 3291 0c56 6C       		.sleb128 -20
 3292 0c57 20       		.uleb128 0x20
 3293 0c58 7100     		.ascii	"q\000"
 3294 0c5a 01       		.byte	0x1
 3295 0c5b E9       		.byte	0xe9
 3296 0c5c 640C0000 		.4byte	0xc64
 3297 0c60 02       		.byte	0x2
 3298 0c61 91       		.byte	0x91
 3299 0c62 74       		.sleb128 -12
 3300 0c63 00       		.byte	0x0
 3301 0c64 09       		.uleb128 0x9
 3302 0c65 04       		.byte	0x4
 3303 0c66 01050000 		.4byte	0x501
 3304 0c6a 23       		.uleb128 0x23
 3305 0c6b 71000000 		.4byte	.LASF126
 3306 0c6f 01       		.byte	0x1
 3307 0c70 ED       		.byte	0xed
 3308 0c71 01       		.byte	0x1
 3309 0c72 00000000 		.4byte	.LFB76
 3310 0c76 20000000 		.4byte	.LFE76
 3311 0c7a 30020000 		.4byte	.LLST13
 3312 0c7e 9D0C0000 		.4byte	0xc9d
 3313 0c82 26       		.uleb128 0x26
 3314 0c83 A2050000 		.4byte	.LASF117
 3315 0c87 01       		.byte	0x1
 3316 0c88 ED       		.byte	0xed
 3317 0c89 F0040000 		.4byte	0x4f0
 3318 0c8d 02       		.byte	0x2
 3319 0c8e 91       		.byte	0x91
 3320 0c8f 6C       		.sleb128 -20
 3321 0c90 20       		.uleb128 0x20
 3322 0c91 7100     		.ascii	"q\000"
ARM GAS  C:\Users\z80\AppData\Local\Temp\ccmumy1p.s 			page 60


 3323 0c93 01       		.byte	0x1
 3324 0c94 F0       		.byte	0xf0
 3325 0c95 640C0000 		.4byte	0xc64
 3326 0c99 02       		.byte	0x2
 3327 0c9a 91       		.byte	0x91
 3328 0c9b 74       		.sleb128 -12
 3329 0c9c 00       		.byte	0x0
 3330 0c9d 23       		.uleb128 0x23
 3331 0c9e 5A040000 		.4byte	.LASF127
 3332 0ca2 01       		.byte	0x1
 3333 0ca3 F4       		.byte	0xf4
 3334 0ca4 01       		.byte	0x1
 3335 0ca5 00000000 		.4byte	.LFB77
 3336 0ca9 20000000 		.4byte	.LFE77
 3337 0cad 5C020000 		.4byte	.LLST14
 3338 0cb1 D00C0000 		.4byte	0xcd0
 3339 0cb5 26       		.uleb128 0x26
 3340 0cb6 A2050000 		.4byte	.LASF117
 3341 0cba 01       		.byte	0x1
 3342 0cbb F4       		.byte	0xf4
 3343 0cbc F0040000 		.4byte	0x4f0
 3344 0cc0 02       		.byte	0x2
 3345 0cc1 91       		.byte	0x91
 3346 0cc2 6C       		.sleb128 -20
 3347 0cc3 20       		.uleb128 0x20
 3348 0cc4 7100     		.ascii	"q\000"
 3349 0cc6 01       		.byte	0x1
 3350 0cc7 F7       		.byte	0xf7
 3351 0cc8 640C0000 		.4byte	0xc64
 3352 0ccc 02       		.byte	0x2
 3353 0ccd 91       		.byte	0x91
 3354 0cce 74       		.sleb128 -12
 3355 0ccf 00       		.byte	0x0
 3356 0cd0 23       		.uleb128 0x23
 3357 0cd1 E6010000 		.4byte	.LASF128
 3358 0cd5 01       		.byte	0x1
 3359 0cd6 FB       		.byte	0xfb
 3360 0cd7 01       		.byte	0x1
 3361 0cd8 00000000 		.4byte	.LFB78
 3362 0cdc 20000000 		.4byte	.LFE78
 3363 0ce0 88020000 		.4byte	.LLST15
 3364 0ce4 030D0000 		.4byte	0xd03
 3365 0ce8 26       		.uleb128 0x26
 3366 0ce9 A2050000 		.4byte	.LASF117
 3367 0ced 01       		.byte	0x1
 3368 0cee FB       		.byte	0xfb
 3369 0cef F0040000 		.4byte	0x4f0
 3370 0cf3 02       		.byte	0x2
 3371 0cf4 91       		.byte	0x91
 3372 0cf5 6C       		.sleb128 -20
 3373 0cf6 20       		.uleb128 0x20
 3374 0cf7 7100     		.ascii	"q\000"
 3375 0cf9 01       		.byte	0x1
 3376 0cfa FE       		.byte	0xfe
 3377 0cfb 640C0000 		.4byte	0xc64
 3378 0cff 02       		.byte	0x2
 3379 0d00 91       		.byte	0x91
ARM GAS  C:\Users\z80\AppData\Local\Temp\ccmumy1p.s 			page 61


 3380 0d01 74       		.sleb128 -12
 3381 0d02 00       		.byte	0x0
 3382 0d03 27       		.uleb128 0x27
 3383 0d04 D5010000 		.4byte	.LASF129
 3384 0d08 01       		.byte	0x1
 3385 0d09 0201     		.2byte	0x102
 3386 0d0b 01       		.byte	0x1
 3387 0d0c 00000000 		.4byte	.LFB79
 3388 0d10 50000000 		.4byte	.LFE79
 3389 0d14 B4020000 		.4byte	.LLST16
 3390 0d18 550D0000 		.4byte	0xd55
 3391 0d1c 28       		.uleb128 0x28
 3392 0d1d A2050000 		.4byte	.LASF117
 3393 0d21 01       		.byte	0x1
 3394 0d22 0201     		.2byte	0x102
 3395 0d24 F0040000 		.4byte	0x4f0
 3396 0d28 02       		.byte	0x2
 3397 0d29 91       		.byte	0x91
 3398 0d2a 5C       		.sleb128 -36
 3399 0d2b 29       		.uleb128 0x29
 3400 0d2c 02020000 		.4byte	.LASF130
 3401 0d30 01       		.byte	0x1
 3402 0d31 0501     		.2byte	0x105
 3403 0d33 650D0000 		.4byte	0xd65
 3404 0d37 02       		.byte	0x2
 3405 0d38 91       		.byte	0x91
 3406 0d39 60       		.sleb128 -32
 3407 0d3a 2A       		.uleb128 0x2a
 3408 0d3b 6C00     		.ascii	"l\000"
 3409 0d3d 01       		.byte	0x1
 3410 0d3e 0601     		.2byte	0x106
 3411 0d40 29000000 		.4byte	0x29
 3412 0d44 02       		.byte	0x2
 3413 0d45 91       		.byte	0x91
 3414 0d46 70       		.sleb128 -16
 3415 0d47 2A       		.uleb128 0x2a
 3416 0d48 6900     		.ascii	"i\000"
 3417 0d4a 01       		.byte	0x1
 3418 0d4b 0701     		.2byte	0x107
 3419 0d4d 29000000 		.4byte	0x29
 3420 0d51 02       		.byte	0x2
 3421 0d52 91       		.byte	0x91
 3422 0d53 74       		.sleb128 -12
 3423 0d54 00       		.byte	0x0
 3424 0d55 1B       		.uleb128 0x1b
 3425 0d56 49000000 		.4byte	0x49
 3426 0d5a 650D0000 		.4byte	0xd65
 3427 0d5e 2B       		.uleb128 0x2b
 3428 0d5f 42030000 		.4byte	0x342
 3429 0d63 0D       		.byte	0xd
 3430 0d64 00       		.byte	0x0
 3431 0d65 11       		.uleb128 0x11
 3432 0d66 550D0000 		.4byte	0xd55
 3433 0d6a 27       		.uleb128 0x27
 3434 0d6b 54020000 		.4byte	.LASF131
 3435 0d6f 01       		.byte	0x1
 3436 0d70 0D01     		.2byte	0x10d
ARM GAS  C:\Users\z80\AppData\Local\Temp\ccmumy1p.s 			page 62


 3437 0d72 01       		.byte	0x1
 3438 0d73 00000000 		.4byte	.LFB80
 3439 0d77 50000000 		.4byte	.LFE80
 3440 0d7b E0020000 		.4byte	.LLST17
 3441 0d7f BC0D0000 		.4byte	0xdbc
 3442 0d83 28       		.uleb128 0x28
 3443 0d84 A2050000 		.4byte	.LASF117
 3444 0d88 01       		.byte	0x1
 3445 0d89 0D01     		.2byte	0x10d
 3446 0d8b F0040000 		.4byte	0x4f0
 3447 0d8f 02       		.byte	0x2
 3448 0d90 91       		.byte	0x91
 3449 0d91 64       		.sleb128 -28
 3450 0d92 29       		.uleb128 0x29
 3451 0d93 02020000 		.4byte	.LASF130
 3452 0d97 01       		.byte	0x1
 3453 0d98 1001     		.2byte	0x110
 3454 0d9a CC0D0000 		.4byte	0xdcc
 3455 0d9e 02       		.byte	0x2
 3456 0d9f 91       		.byte	0x91
 3457 0da0 68       		.sleb128 -24
 3458 0da1 2A       		.uleb128 0x2a
 3459 0da2 6C00     		.ascii	"l\000"
 3460 0da4 01       		.byte	0x1
 3461 0da5 1101     		.2byte	0x111
 3462 0da7 29000000 		.4byte	0x29
 3463 0dab 02       		.byte	0x2
 3464 0dac 91       		.byte	0x91
 3465 0dad 70       		.sleb128 -16
 3466 0dae 2A       		.uleb128 0x2a
 3467 0daf 6900     		.ascii	"i\000"
 3468 0db1 01       		.byte	0x1
 3469 0db2 1201     		.2byte	0x112
 3470 0db4 29000000 		.4byte	0x29
 3471 0db8 02       		.byte	0x2
 3472 0db9 91       		.byte	0x91
 3473 0dba 74       		.sleb128 -12
 3474 0dbb 00       		.byte	0x0
 3475 0dbc 1B       		.uleb128 0x1b
 3476 0dbd 49000000 		.4byte	0x49
 3477 0dc1 CC0D0000 		.4byte	0xdcc
 3478 0dc5 2B       		.uleb128 0x2b
 3479 0dc6 42030000 		.4byte	0x342
 3480 0dca 05       		.byte	0x5
 3481 0dcb 00       		.byte	0x0
 3482 0dcc 11       		.uleb128 0x11
 3483 0dcd BC0D0000 		.4byte	0xdbc
 3484 0dd1 27       		.uleb128 0x27
 3485 0dd2 18010000 		.4byte	.LASF132
 3486 0dd6 01       		.byte	0x1
 3487 0dd7 1801     		.2byte	0x118
 3488 0dd9 01       		.byte	0x1
 3489 0dda 00000000 		.4byte	.LFB81
 3490 0dde 42000000 		.4byte	.LFE81
 3491 0de2 0C030000 		.4byte	.LLST18
 3492 0de6 090E0000 		.4byte	0xe09
 3493 0dea 28       		.uleb128 0x28
ARM GAS  C:\Users\z80\AppData\Local\Temp\ccmumy1p.s 			page 63


 3494 0deb A2050000 		.4byte	.LASF117
 3495 0def 01       		.byte	0x1
 3496 0df0 1801     		.2byte	0x118
 3497 0df2 F0040000 		.4byte	0x4f0
 3498 0df6 02       		.byte	0x2
 3499 0df7 91       		.byte	0x91
 3500 0df8 6C       		.sleb128 -20
 3501 0df9 29       		.uleb128 0x29
 3502 0dfa 45000000 		.4byte	.LASF121
 3503 0dfe 01       		.byte	0x1
 3504 0dff 1B01     		.2byte	0x11b
 3505 0e01 86000000 		.4byte	0x86
 3506 0e05 02       		.byte	0x2
 3507 0e06 91       		.byte	0x91
 3508 0e07 74       		.sleb128 -12
 3509 0e08 00       		.byte	0x0
 3510 0e09 27       		.uleb128 0x27
 3511 0e0a 68030000 		.4byte	.LASF133
 3512 0e0e 01       		.byte	0x1
 3513 0e0f 2301     		.2byte	0x123
 3514 0e11 01       		.byte	0x1
 3515 0e12 00000000 		.4byte	.LFB82
 3516 0e16 1C000000 		.4byte	.LFE82
 3517 0e1a 38030000 		.4byte	.LLST19
 3518 0e1e 410E0000 		.4byte	0xe41
 3519 0e22 28       		.uleb128 0x28
 3520 0e23 A2050000 		.4byte	.LASF117
 3521 0e27 01       		.byte	0x1
 3522 0e28 2301     		.2byte	0x123
 3523 0e2a F0040000 		.4byte	0x4f0
 3524 0e2e 02       		.byte	0x2
 3525 0e2f 91       		.byte	0x91
 3526 0e30 6C       		.sleb128 -20
 3527 0e31 29       		.uleb128 0x29
 3528 0e32 D6020000 		.4byte	.LASF134
 3529 0e36 01       		.byte	0x1
 3530 0e37 2601     		.2byte	0x126
 3531 0e39 49000000 		.4byte	0x49
 3532 0e3d 02       		.byte	0x2
 3533 0e3e 91       		.byte	0x91
 3534 0e3f 77       		.sleb128 -9
 3535 0e40 00       		.byte	0x0
 3536 0e41 27       		.uleb128 0x27
 3537 0e42 0C010000 		.4byte	.LASF135
 3538 0e46 01       		.byte	0x1
 3539 0e47 2A01     		.2byte	0x12a
 3540 0e49 01       		.byte	0x1
 3541 0e4a 00000000 		.4byte	.LFB83
 3542 0e4e 18000000 		.4byte	.LFE83
 3543 0e52 64030000 		.4byte	.LLST20
 3544 0e56 770E0000 		.4byte	0xe77
 3545 0e5a 28       		.uleb128 0x28
 3546 0e5b A2050000 		.4byte	.LASF117
 3547 0e5f 01       		.byte	0x1
 3548 0e60 2A01     		.2byte	0x12a
 3549 0e62 F0040000 		.4byte	0x4f0
 3550 0e66 02       		.byte	0x2
ARM GAS  C:\Users\z80\AppData\Local\Temp\ccmumy1p.s 			page 64


 3551 0e67 91       		.byte	0x91
 3552 0e68 6C       		.sleb128 -20
 3553 0e69 2A       		.uleb128 0x2a
 3554 0e6a 7100     		.ascii	"q\000"
 3555 0e6c 01       		.byte	0x1
 3556 0e6d 2D01     		.2byte	0x12d
 3557 0e6f E80A0000 		.4byte	0xae8
 3558 0e73 02       		.byte	0x2
 3559 0e74 91       		.byte	0x91
 3560 0e75 74       		.sleb128 -12
 3561 0e76 00       		.byte	0x0
 3562 0e77 27       		.uleb128 0x27
 3563 0e78 7B030000 		.4byte	.LASF136
 3564 0e7c 01       		.byte	0x1
 3565 0e7d 3701     		.2byte	0x137
 3566 0e7f 01       		.byte	0x1
 3567 0e80 00000000 		.4byte	.LFB84
 3568 0e84 40000000 		.4byte	.LFE84
 3569 0e88 90030000 		.4byte	.LLST21
 3570 0e8c 9E0E0000 		.4byte	0xe9e
 3571 0e90 2C       		.uleb128 0x2c
 3572 0e91 7600     		.ascii	"v\000"
 3573 0e93 01       		.byte	0x1
 3574 0e94 3701     		.2byte	0x137
 3575 0e96 49000000 		.4byte	0x49
 3576 0e9a 02       		.byte	0x2
 3577 0e9b 91       		.byte	0x91
 3578 0e9c 77       		.sleb128 -9
 3579 0e9d 00       		.byte	0x0
 3580 0e9e 2D       		.uleb128 0x2d
 3581 0e9f 00000000 		.4byte	.LASF146
 3582 0ea3 01       		.byte	0x1
 3583 0ea4 3E01     		.2byte	0x13e
 3584 0ea6 01       		.byte	0x1
 3585 0ea7 00000000 		.4byte	.LFB85
 3586 0eab 18000000 		.4byte	.LFE85
 3587 0eaf BC030000 		.4byte	.LLST22
 3588 0eb3 2E       		.uleb128 0x2e
 3589 0eb4 A8000000 		.4byte	.LASF137
 3590 0eb8 10       		.byte	0x10
 3591 0eb9 9404     		.2byte	0x494
 3592 0ebb 36060000 		.4byte	0x636
 3593 0ebf 01       		.byte	0x1
 3594 0ec0 01       		.byte	0x1
 3595 0ec1 2F       		.uleb128 0x2f
 3596 0ec2 53443100 		.ascii	"SD1\000"
 3597 0ec6 11       		.byte	0x11
 3598 0ec7 FB       		.byte	0xfb
 3599 0ec8 D1070000 		.4byte	0x7d1
 3600 0ecc 01       		.byte	0x1
 3601 0ecd 01       		.byte	0x1
 3602 0ece 1B       		.uleb128 0x1b
 3603 0ecf 49000000 		.4byte	0x49
 3604 0ed3 DE0E0000 		.4byte	0xede
 3605 0ed7 2B       		.uleb128 0x2b
 3606 0ed8 42030000 		.4byte	0x342
 3607 0edc 1F       		.byte	0x1f
ARM GAS  C:\Users\z80\AppData\Local\Temp\ccmumy1p.s 			page 65


 3608 0edd 00       		.byte	0x0
 3609 0ede 1F       		.uleb128 0x1f
 3610 0edf EF040000 		.4byte	.LASF138
 3611 0ee3 01       		.byte	0x1
 3612 0ee4 18       		.byte	0x18
 3613 0ee5 CE0E0000 		.4byte	0xece
 3614 0ee9 05       		.byte	0x5
 3615 0eea 03       		.byte	0x3
 3616 0eeb 00000000 		.4byte	buffer
 3617 0eef 1F       		.uleb128 0x1f
 3618 0ef0 A2050000 		.4byte	.LASF117
 3619 0ef4 01       		.byte	0x1
 3620 0ef5 19       		.byte	0x19
 3621 0ef6 CE0E0000 		.4byte	0xece
 3622 0efa 05       		.byte	0x5
 3623 0efb 03       		.byte	0x3
 3624 0efc 00000000 		.4byte	args
 3625 0f00 1B       		.uleb128 0x1b
 3626 0f01 14060000 		.4byte	0x614
 3627 0f05 100F0000 		.4byte	0xf10
 3628 0f09 2B       		.uleb128 0x2b
 3629 0f0a 42030000 		.4byte	0x342
 3630 0f0e 0F       		.byte	0xf
 3631 0f0f 00       		.byte	0x0
 3632 0f10 1F       		.uleb128 0x1f
 3633 0f11 20000000 		.4byte	.LASF139
 3634 0f15 01       		.byte	0x1
 3635 0f16 85       		.byte	0x85
 3636 0f17 000F0000 		.4byte	0xf00
 3637 0f1b 05       		.byte	0x5
 3638 0f1c 03       		.byte	0x3
 3639 0f1d 00000000 		.4byte	funcs
 3640 0f21 2E       		.uleb128 0x2e
 3641 0f22 A8000000 		.4byte	.LASF137
 3642 0f26 10       		.byte	0x10
 3643 0f27 9404     		.2byte	0x494
 3644 0f29 36060000 		.4byte	0x636
 3645 0f2d 01       		.byte	0x1
 3646 0f2e 01       		.byte	0x1
 3647 0f2f 2F       		.uleb128 0x2f
 3648 0f30 53443100 		.ascii	"SD1\000"
 3649 0f34 11       		.byte	0x11
 3650 0f35 FB       		.byte	0xfb
 3651 0f36 D1070000 		.4byte	0x7d1
 3652 0f3a 01       		.byte	0x1
 3653 0f3b 01       		.byte	0x1
 3654 0f3c 00       		.byte	0x0
 3655              		.section	.debug_abbrev
 3656 0000 01       		.uleb128 0x1
 3657 0001 11       		.uleb128 0x11
 3658 0002 01       		.byte	0x1
 3659 0003 25       		.uleb128 0x25
 3660 0004 0E       		.uleb128 0xe
 3661 0005 13       		.uleb128 0x13
 3662 0006 0B       		.uleb128 0xb
 3663 0007 03       		.uleb128 0x3
 3664 0008 0E       		.uleb128 0xe
ARM GAS  C:\Users\z80\AppData\Local\Temp\ccmumy1p.s 			page 66


 3665 0009 1B       		.uleb128 0x1b
 3666 000a 0E       		.uleb128 0xe
 3667 000b 11       		.uleb128 0x11
 3668 000c 01       		.uleb128 0x1
 3669 000d 52       		.uleb128 0x52
 3670 000e 01       		.uleb128 0x1
 3671 000f 55       		.uleb128 0x55
 3672 0010 06       		.uleb128 0x6
 3673 0011 10       		.uleb128 0x10
 3674 0012 06       		.uleb128 0x6
 3675 0013 00       		.byte	0x0
 3676 0014 00       		.byte	0x0
 3677 0015 02       		.uleb128 0x2
 3678 0016 24       		.uleb128 0x24
 3679 0017 00       		.byte	0x0
 3680 0018 0B       		.uleb128 0xb
 3681 0019 0B       		.uleb128 0xb
 3682 001a 3E       		.uleb128 0x3e
 3683 001b 0B       		.uleb128 0xb
 3684 001c 03       		.uleb128 0x3
 3685 001d 08       		.uleb128 0x8
 3686 001e 00       		.byte	0x0
 3687 001f 00       		.byte	0x0
 3688 0020 03       		.uleb128 0x3
 3689 0021 16       		.uleb128 0x16
 3690 0022 00       		.byte	0x0
 3691 0023 03       		.uleb128 0x3
 3692 0024 0E       		.uleb128 0xe
 3693 0025 3A       		.uleb128 0x3a
 3694 0026 0B       		.uleb128 0xb
 3695 0027 3B       		.uleb128 0x3b
 3696 0028 0B       		.uleb128 0xb
 3697 0029 49       		.uleb128 0x49
 3698 002a 13       		.uleb128 0x13
 3699 002b 00       		.byte	0x0
 3700 002c 00       		.byte	0x0
 3701 002d 04       		.uleb128 0x4
 3702 002e 24       		.uleb128 0x24
 3703 002f 00       		.byte	0x0
 3704 0030 0B       		.uleb128 0xb
 3705 0031 0B       		.uleb128 0xb
 3706 0032 3E       		.uleb128 0x3e
 3707 0033 0B       		.uleb128 0xb
 3708 0034 03       		.uleb128 0x3
 3709 0035 0E       		.uleb128 0xe
 3710 0036 00       		.byte	0x0
 3711 0037 00       		.byte	0x0
 3712 0038 05       		.uleb128 0x5
 3713 0039 13       		.uleb128 0x13
 3714 003a 01       		.byte	0x1
 3715 003b 03       		.uleb128 0x3
 3716 003c 0E       		.uleb128 0xe
 3717 003d 0B       		.uleb128 0xb
 3718 003e 0B       		.uleb128 0xb
 3719 003f 3A       		.uleb128 0x3a
 3720 0040 0B       		.uleb128 0xb
 3721 0041 3B       		.uleb128 0x3b
ARM GAS  C:\Users\z80\AppData\Local\Temp\ccmumy1p.s 			page 67


 3722 0042 0B       		.uleb128 0xb
 3723 0043 01       		.uleb128 0x1
 3724 0044 13       		.uleb128 0x13
 3725 0045 00       		.byte	0x0
 3726 0046 00       		.byte	0x0
 3727 0047 06       		.uleb128 0x6
 3728 0048 0D       		.uleb128 0xd
 3729 0049 00       		.byte	0x0
 3730 004a 03       		.uleb128 0x3
 3731 004b 0E       		.uleb128 0xe
 3732 004c 3A       		.uleb128 0x3a
 3733 004d 0B       		.uleb128 0xb
 3734 004e 3B       		.uleb128 0x3b
 3735 004f 0B       		.uleb128 0xb
 3736 0050 49       		.uleb128 0x49
 3737 0051 13       		.uleb128 0x13
 3738 0052 38       		.uleb128 0x38
 3739 0053 0A       		.uleb128 0xa
 3740 0054 00       		.byte	0x0
 3741 0055 00       		.byte	0x0
 3742 0056 07       		.uleb128 0x7
 3743 0057 0D       		.uleb128 0xd
 3744 0058 00       		.byte	0x0
 3745 0059 03       		.uleb128 0x3
 3746 005a 08       		.uleb128 0x8
 3747 005b 3A       		.uleb128 0x3a
 3748 005c 0B       		.uleb128 0xb
 3749 005d 3B       		.uleb128 0x3b
 3750 005e 0B       		.uleb128 0xb
 3751 005f 49       		.uleb128 0x49
 3752 0060 13       		.uleb128 0x13
 3753 0061 38       		.uleb128 0x38
 3754 0062 0A       		.uleb128 0xa
 3755 0063 00       		.byte	0x0
 3756 0064 00       		.byte	0x0
 3757 0065 08       		.uleb128 0x8
 3758 0066 13       		.uleb128 0x13
 3759 0067 01       		.byte	0x1
 3760 0068 0B       		.uleb128 0xb
 3761 0069 0B       		.uleb128 0xb
 3762 006a 3A       		.uleb128 0x3a
 3763 006b 0B       		.uleb128 0xb
 3764 006c 3B       		.uleb128 0x3b
 3765 006d 0B       		.uleb128 0xb
 3766 006e 01       		.uleb128 0x1
 3767 006f 13       		.uleb128 0x13
 3768 0070 00       		.byte	0x0
 3769 0071 00       		.byte	0x0
 3770 0072 09       		.uleb128 0x9
 3771 0073 0F       		.uleb128 0xf
 3772 0074 00       		.byte	0x0
 3773 0075 0B       		.uleb128 0xb
 3774 0076 0B       		.uleb128 0xb
 3775 0077 49       		.uleb128 0x49
 3776 0078 13       		.uleb128 0x13
 3777 0079 00       		.byte	0x0
 3778 007a 00       		.byte	0x0
ARM GAS  C:\Users\z80\AppData\Local\Temp\ccmumy1p.s 			page 68


 3779 007b 0A       		.uleb128 0xa
 3780 007c 0F       		.uleb128 0xf
 3781 007d 00       		.byte	0x0
 3782 007e 0B       		.uleb128 0xb
 3783 007f 0B       		.uleb128 0xb
 3784 0080 00       		.byte	0x0
 3785 0081 00       		.byte	0x0
 3786 0082 0B       		.uleb128 0xb
 3787 0083 0D       		.uleb128 0xd
 3788 0084 00       		.byte	0x0
 3789 0085 03       		.uleb128 0x3
 3790 0086 08       		.uleb128 0x8
 3791 0087 3A       		.uleb128 0x3a
 3792 0088 0B       		.uleb128 0xb
 3793 0089 3B       		.uleb128 0x3b
 3794 008a 05       		.uleb128 0x5
 3795 008b 49       		.uleb128 0x49
 3796 008c 13       		.uleb128 0x13
 3797 008d 38       		.uleb128 0x38
 3798 008e 0A       		.uleb128 0xa
 3799 008f 00       		.byte	0x0
 3800 0090 00       		.byte	0x0
 3801 0091 0C       		.uleb128 0xc
 3802 0092 13       		.uleb128 0x13
 3803 0093 01       		.byte	0x1
 3804 0094 03       		.uleb128 0x3
 3805 0095 0E       		.uleb128 0xe
 3806 0096 0B       		.uleb128 0xb
 3807 0097 0B       		.uleb128 0xb
 3808 0098 3A       		.uleb128 0x3a
 3809 0099 0B       		.uleb128 0xb
 3810 009a 3B       		.uleb128 0x3b
 3811 009b 05       		.uleb128 0x5
 3812 009c 01       		.uleb128 0x1
 3813 009d 13       		.uleb128 0x13
 3814 009e 00       		.byte	0x0
 3815 009f 00       		.byte	0x0
 3816 00a0 0D       		.uleb128 0xd
 3817 00a1 35       		.uleb128 0x35
 3818 00a2 00       		.byte	0x0
 3819 00a3 49       		.uleb128 0x49
 3820 00a4 13       		.uleb128 0x13
 3821 00a5 00       		.byte	0x0
 3822 00a6 00       		.byte	0x0
 3823 00a7 0E       		.uleb128 0xe
 3824 00a8 24       		.uleb128 0x24
 3825 00a9 00       		.byte	0x0
 3826 00aa 0B       		.uleb128 0xb
 3827 00ab 0B       		.uleb128 0xb
 3828 00ac 3E       		.uleb128 0x3e
 3829 00ad 0B       		.uleb128 0xb
 3830 00ae 00       		.byte	0x0
 3831 00af 00       		.byte	0x0
 3832 00b0 0F       		.uleb128 0xf
 3833 00b1 17       		.uleb128 0x17
 3834 00b2 01       		.byte	0x1
 3835 00b3 0B       		.uleb128 0xb
ARM GAS  C:\Users\z80\AppData\Local\Temp\ccmumy1p.s 			page 69


 3836 00b4 0B       		.uleb128 0xb
 3837 00b5 3A       		.uleb128 0x3a
 3838 00b6 0B       		.uleb128 0xb
 3839 00b7 3B       		.uleb128 0x3b
 3840 00b8 0B       		.uleb128 0xb
 3841 00b9 01       		.uleb128 0x1
 3842 00ba 13       		.uleb128 0x13
 3843 00bb 00       		.byte	0x0
 3844 00bc 00       		.byte	0x0
 3845 00bd 10       		.uleb128 0x10
 3846 00be 0D       		.uleb128 0xd
 3847 00bf 00       		.byte	0x0
 3848 00c0 03       		.uleb128 0x3
 3849 00c1 0E       		.uleb128 0xe
 3850 00c2 3A       		.uleb128 0x3a
 3851 00c3 0B       		.uleb128 0xb
 3852 00c4 3B       		.uleb128 0x3b
 3853 00c5 0B       		.uleb128 0xb
 3854 00c6 49       		.uleb128 0x49
 3855 00c7 13       		.uleb128 0x13
 3856 00c8 00       		.byte	0x0
 3857 00c9 00       		.byte	0x0
 3858 00ca 11       		.uleb128 0x11
 3859 00cb 26       		.uleb128 0x26
 3860 00cc 00       		.byte	0x0
 3861 00cd 49       		.uleb128 0x49
 3862 00ce 13       		.uleb128 0x13
 3863 00cf 00       		.byte	0x0
 3864 00d0 00       		.byte	0x0
 3865 00d1 12       		.uleb128 0x12
 3866 00d2 15       		.uleb128 0x15
 3867 00d3 01       		.byte	0x1
 3868 00d4 27       		.uleb128 0x27
 3869 00d5 0C       		.uleb128 0xc
 3870 00d6 01       		.uleb128 0x1
 3871 00d7 13       		.uleb128 0x13
 3872 00d8 00       		.byte	0x0
 3873 00d9 00       		.byte	0x0
 3874 00da 13       		.uleb128 0x13
 3875 00db 05       		.uleb128 0x5
 3876 00dc 00       		.byte	0x0
 3877 00dd 49       		.uleb128 0x49
 3878 00de 13       		.uleb128 0x13
 3879 00df 00       		.byte	0x0
 3880 00e0 00       		.byte	0x0
 3881 00e1 14       		.uleb128 0x14
 3882 00e2 15       		.uleb128 0x15
 3883 00e3 01       		.byte	0x1
 3884 00e4 27       		.uleb128 0x27
 3885 00e5 0C       		.uleb128 0xc
 3886 00e6 49       		.uleb128 0x49
 3887 00e7 13       		.uleb128 0x13
 3888 00e8 01       		.uleb128 0x1
 3889 00e9 13       		.uleb128 0x13
 3890 00ea 00       		.byte	0x0
 3891 00eb 00       		.byte	0x0
 3892 00ec 15       		.uleb128 0x15
ARM GAS  C:\Users\z80\AppData\Local\Temp\ccmumy1p.s 			page 70


 3893 00ed 16       		.uleb128 0x16
 3894 00ee 00       		.byte	0x0
 3895 00ef 03       		.uleb128 0x3
 3896 00f0 0E       		.uleb128 0xe
 3897 00f1 3A       		.uleb128 0x3a
 3898 00f2 0B       		.uleb128 0xb
 3899 00f3 3B       		.uleb128 0x3b
 3900 00f4 05       		.uleb128 0x5
 3901 00f5 49       		.uleb128 0x49
 3902 00f6 13       		.uleb128 0x13
 3903 00f7 00       		.byte	0x0
 3904 00f8 00       		.byte	0x0
 3905 00f9 16       		.uleb128 0x16
 3906 00fa 13       		.uleb128 0x13
 3907 00fb 01       		.byte	0x1
 3908 00fc 0B       		.uleb128 0xb
 3909 00fd 0B       		.uleb128 0xb
 3910 00fe 3A       		.uleb128 0x3a
 3911 00ff 0B       		.uleb128 0xb
 3912 0100 3B       		.uleb128 0x3b
 3913 0101 05       		.uleb128 0x5
 3914 0102 01       		.uleb128 0x1
 3915 0103 13       		.uleb128 0x13
 3916 0104 00       		.byte	0x0
 3917 0105 00       		.byte	0x0
 3918 0106 17       		.uleb128 0x17
 3919 0107 0D       		.uleb128 0xd
 3920 0108 00       		.byte	0x0
 3921 0109 03       		.uleb128 0x3
 3922 010a 0E       		.uleb128 0xe
 3923 010b 3A       		.uleb128 0x3a
 3924 010c 0B       		.uleb128 0xb
 3925 010d 3B       		.uleb128 0x3b
 3926 010e 05       		.uleb128 0x5
 3927 010f 49       		.uleb128 0x49
 3928 0110 13       		.uleb128 0x13
 3929 0111 38       		.uleb128 0x38
 3930 0112 0A       		.uleb128 0xa
 3931 0113 00       		.byte	0x0
 3932 0114 00       		.byte	0x0
 3933 0115 18       		.uleb128 0x18
 3934 0116 04       		.uleb128 0x4
 3935 0117 01       		.byte	0x1
 3936 0118 0B       		.uleb128 0xb
 3937 0119 0B       		.uleb128 0xb
 3938 011a 3A       		.uleb128 0x3a
 3939 011b 0B       		.uleb128 0xb
 3940 011c 3B       		.uleb128 0x3b
 3941 011d 0B       		.uleb128 0xb
 3942 011e 01       		.uleb128 0x1
 3943 011f 13       		.uleb128 0x13
 3944 0120 00       		.byte	0x0
 3945 0121 00       		.byte	0x0
 3946 0122 19       		.uleb128 0x19
 3947 0123 28       		.uleb128 0x28
 3948 0124 00       		.byte	0x0
 3949 0125 03       		.uleb128 0x3
ARM GAS  C:\Users\z80\AppData\Local\Temp\ccmumy1p.s 			page 71


 3950 0126 0E       		.uleb128 0xe
 3951 0127 1C       		.uleb128 0x1c
 3952 0128 0D       		.uleb128 0xd
 3953 0129 00       		.byte	0x0
 3954 012a 00       		.byte	0x0
 3955 012b 1A       		.uleb128 0x1a
 3956 012c 13       		.uleb128 0x13
 3957 012d 01       		.byte	0x1
 3958 012e 03       		.uleb128 0x3
 3959 012f 0E       		.uleb128 0xe
 3960 0130 0B       		.uleb128 0xb
 3961 0131 05       		.uleb128 0x5
 3962 0132 3A       		.uleb128 0x3a
 3963 0133 0B       		.uleb128 0xb
 3964 0134 3B       		.uleb128 0x3b
 3965 0135 0B       		.uleb128 0xb
 3966 0136 01       		.uleb128 0x1
 3967 0137 13       		.uleb128 0x13
 3968 0138 00       		.byte	0x0
 3969 0139 00       		.byte	0x0
 3970 013a 1B       		.uleb128 0x1b
 3971 013b 01       		.uleb128 0x1
 3972 013c 01       		.byte	0x1
 3973 013d 49       		.uleb128 0x49
 3974 013e 13       		.uleb128 0x13
 3975 013f 01       		.uleb128 0x1
 3976 0140 13       		.uleb128 0x13
 3977 0141 00       		.byte	0x0
 3978 0142 00       		.byte	0x0
 3979 0143 1C       		.uleb128 0x1c
 3980 0144 21       		.uleb128 0x21
 3981 0145 00       		.byte	0x0
 3982 0146 49       		.uleb128 0x49
 3983 0147 13       		.uleb128 0x13
 3984 0148 2F       		.uleb128 0x2f
 3985 0149 05       		.uleb128 0x5
 3986 014a 00       		.byte	0x0
 3987 014b 00       		.byte	0x0
 3988 014c 1D       		.uleb128 0x1d
 3989 014d 2E       		.uleb128 0x2e
 3990 014e 00       		.byte	0x0
 3991 014f 3F       		.uleb128 0x3f
 3992 0150 0C       		.uleb128 0xc
 3993 0151 03       		.uleb128 0x3
 3994 0152 0E       		.uleb128 0xe
 3995 0153 3A       		.uleb128 0x3a
 3996 0154 0B       		.uleb128 0xb
 3997 0155 3B       		.uleb128 0x3b
 3998 0156 0B       		.uleb128 0xb
 3999 0157 27       		.uleb128 0x27
 4000 0158 0C       		.uleb128 0xc
 4001 0159 11       		.uleb128 0x11
 4002 015a 01       		.uleb128 0x1
 4003 015b 12       		.uleb128 0x12
 4004 015c 01       		.uleb128 0x1
 4005 015d 40       		.uleb128 0x40
 4006 015e 06       		.uleb128 0x6
ARM GAS  C:\Users\z80\AppData\Local\Temp\ccmumy1p.s 			page 72


 4007 015f 00       		.byte	0x0
 4008 0160 00       		.byte	0x0
 4009 0161 1E       		.uleb128 0x1e
 4010 0162 2E       		.uleb128 0x2e
 4011 0163 01       		.byte	0x1
 4012 0164 3F       		.uleb128 0x3f
 4013 0165 0C       		.uleb128 0xc
 4014 0166 03       		.uleb128 0x3
 4015 0167 0E       		.uleb128 0xe
 4016 0168 3A       		.uleb128 0x3a
 4017 0169 0B       		.uleb128 0xb
 4018 016a 3B       		.uleb128 0x3b
 4019 016b 0B       		.uleb128 0xb
 4020 016c 27       		.uleb128 0x27
 4021 016d 0C       		.uleb128 0xc
 4022 016e 11       		.uleb128 0x11
 4023 016f 01       		.uleb128 0x1
 4024 0170 12       		.uleb128 0x12
 4025 0171 01       		.uleb128 0x1
 4026 0172 40       		.uleb128 0x40
 4027 0173 06       		.uleb128 0x6
 4028 0174 01       		.uleb128 0x1
 4029 0175 13       		.uleb128 0x13
 4030 0176 00       		.byte	0x0
 4031 0177 00       		.byte	0x0
 4032 0178 1F       		.uleb128 0x1f
 4033 0179 34       		.uleb128 0x34
 4034 017a 00       		.byte	0x0
 4035 017b 03       		.uleb128 0x3
 4036 017c 0E       		.uleb128 0xe
 4037 017d 3A       		.uleb128 0x3a
 4038 017e 0B       		.uleb128 0xb
 4039 017f 3B       		.uleb128 0x3b
 4040 0180 0B       		.uleb128 0xb
 4041 0181 49       		.uleb128 0x49
 4042 0182 13       		.uleb128 0x13
 4043 0183 02       		.uleb128 0x2
 4044 0184 0A       		.uleb128 0xa
 4045 0185 00       		.byte	0x0
 4046 0186 00       		.byte	0x0
 4047 0187 20       		.uleb128 0x20
 4048 0188 34       		.uleb128 0x34
 4049 0189 00       		.byte	0x0
 4050 018a 03       		.uleb128 0x3
 4051 018b 08       		.uleb128 0x8
 4052 018c 3A       		.uleb128 0x3a
 4053 018d 0B       		.uleb128 0xb
 4054 018e 3B       		.uleb128 0x3b
 4055 018f 0B       		.uleb128 0xb
 4056 0190 49       		.uleb128 0x49
 4057 0191 13       		.uleb128 0x13
 4058 0192 02       		.uleb128 0x2
 4059 0193 0A       		.uleb128 0xa
 4060 0194 00       		.byte	0x0
 4061 0195 00       		.byte	0x0
 4062 0196 21       		.uleb128 0x21
 4063 0197 0B       		.uleb128 0xb
ARM GAS  C:\Users\z80\AppData\Local\Temp\ccmumy1p.s 			page 73


 4064 0198 01       		.byte	0x1
 4065 0199 11       		.uleb128 0x11
 4066 019a 01       		.uleb128 0x1
 4067 019b 12       		.uleb128 0x12
 4068 019c 01       		.uleb128 0x1
 4069 019d 00       		.byte	0x0
 4070 019e 00       		.byte	0x0
 4071 019f 22       		.uleb128 0x22
 4072 01a0 2E       		.uleb128 0x2e
 4073 01a1 00       		.byte	0x0
 4074 01a2 3F       		.uleb128 0x3f
 4075 01a3 0C       		.uleb128 0xc
 4076 01a4 03       		.uleb128 0x3
 4077 01a5 0E       		.uleb128 0xe
 4078 01a6 3A       		.uleb128 0x3a
 4079 01a7 0B       		.uleb128 0xb
 4080 01a8 3B       		.uleb128 0x3b
 4081 01a9 0B       		.uleb128 0xb
 4082 01aa 27       		.uleb128 0x27
 4083 01ab 0C       		.uleb128 0xc
 4084 01ac 49       		.uleb128 0x49
 4085 01ad 13       		.uleb128 0x13
 4086 01ae 11       		.uleb128 0x11
 4087 01af 01       		.uleb128 0x1
 4088 01b0 12       		.uleb128 0x12
 4089 01b1 01       		.uleb128 0x1
 4090 01b2 40       		.uleb128 0x40
 4091 01b3 0A       		.uleb128 0xa
 4092 01b4 00       		.byte	0x0
 4093 01b5 00       		.byte	0x0
 4094 01b6 23       		.uleb128 0x23
 4095 01b7 2E       		.uleb128 0x2e
 4096 01b8 01       		.byte	0x1
 4097 01b9 03       		.uleb128 0x3
 4098 01ba 0E       		.uleb128 0xe
 4099 01bb 3A       		.uleb128 0x3a
 4100 01bc 0B       		.uleb128 0xb
 4101 01bd 3B       		.uleb128 0x3b
 4102 01be 0B       		.uleb128 0xb
 4103 01bf 27       		.uleb128 0x27
 4104 01c0 0C       		.uleb128 0xc
 4105 01c1 11       		.uleb128 0x11
 4106 01c2 01       		.uleb128 0x1
 4107 01c3 12       		.uleb128 0x12
 4108 01c4 01       		.uleb128 0x1
 4109 01c5 40       		.uleb128 0x40
 4110 01c6 06       		.uleb128 0x6
 4111 01c7 01       		.uleb128 0x1
 4112 01c8 13       		.uleb128 0x13
 4113 01c9 00       		.byte	0x0
 4114 01ca 00       		.byte	0x0
 4115 01cb 24       		.uleb128 0x24
 4116 01cc 05       		.uleb128 0x5
 4117 01cd 00       		.byte	0x0
 4118 01ce 03       		.uleb128 0x3
 4119 01cf 08       		.uleb128 0x8
 4120 01d0 3A       		.uleb128 0x3a
ARM GAS  C:\Users\z80\AppData\Local\Temp\ccmumy1p.s 			page 74


 4121 01d1 0B       		.uleb128 0xb
 4122 01d2 3B       		.uleb128 0x3b
 4123 01d3 0B       		.uleb128 0xb
 4124 01d4 49       		.uleb128 0x49
 4125 01d5 13       		.uleb128 0x13
 4126 01d6 02       		.uleb128 0x2
 4127 01d7 0A       		.uleb128 0xa
 4128 01d8 00       		.byte	0x0
 4129 01d9 00       		.byte	0x0
 4130 01da 25       		.uleb128 0x25
 4131 01db 0B       		.uleb128 0xb
 4132 01dc 01       		.byte	0x1
 4133 01dd 11       		.uleb128 0x11
 4134 01de 01       		.uleb128 0x1
 4135 01df 12       		.uleb128 0x12
 4136 01e0 01       		.uleb128 0x1
 4137 01e1 01       		.uleb128 0x1
 4138 01e2 13       		.uleb128 0x13
 4139 01e3 00       		.byte	0x0
 4140 01e4 00       		.byte	0x0
 4141 01e5 26       		.uleb128 0x26
 4142 01e6 05       		.uleb128 0x5
 4143 01e7 00       		.byte	0x0
 4144 01e8 03       		.uleb128 0x3
 4145 01e9 0E       		.uleb128 0xe
 4146 01ea 3A       		.uleb128 0x3a
 4147 01eb 0B       		.uleb128 0xb
 4148 01ec 3B       		.uleb128 0x3b
 4149 01ed 0B       		.uleb128 0xb
 4150 01ee 49       		.uleb128 0x49
 4151 01ef 13       		.uleb128 0x13
 4152 01f0 02       		.uleb128 0x2
 4153 01f1 0A       		.uleb128 0xa
 4154 01f2 00       		.byte	0x0
 4155 01f3 00       		.byte	0x0
 4156 01f4 27       		.uleb128 0x27
 4157 01f5 2E       		.uleb128 0x2e
 4158 01f6 01       		.byte	0x1
 4159 01f7 03       		.uleb128 0x3
 4160 01f8 0E       		.uleb128 0xe
 4161 01f9 3A       		.uleb128 0x3a
 4162 01fa 0B       		.uleb128 0xb
 4163 01fb 3B       		.uleb128 0x3b
 4164 01fc 05       		.uleb128 0x5
 4165 01fd 27       		.uleb128 0x27
 4166 01fe 0C       		.uleb128 0xc
 4167 01ff 11       		.uleb128 0x11
 4168 0200 01       		.uleb128 0x1
 4169 0201 12       		.uleb128 0x12
 4170 0202 01       		.uleb128 0x1
 4171 0203 40       		.uleb128 0x40
 4172 0204 06       		.uleb128 0x6
 4173 0205 01       		.uleb128 0x1
 4174 0206 13       		.uleb128 0x13
 4175 0207 00       		.byte	0x0
 4176 0208 00       		.byte	0x0
 4177 0209 28       		.uleb128 0x28
ARM GAS  C:\Users\z80\AppData\Local\Temp\ccmumy1p.s 			page 75


 4178 020a 05       		.uleb128 0x5
 4179 020b 00       		.byte	0x0
 4180 020c 03       		.uleb128 0x3
 4181 020d 0E       		.uleb128 0xe
 4182 020e 3A       		.uleb128 0x3a
 4183 020f 0B       		.uleb128 0xb
 4184 0210 3B       		.uleb128 0x3b
 4185 0211 05       		.uleb128 0x5
 4186 0212 49       		.uleb128 0x49
 4187 0213 13       		.uleb128 0x13
 4188 0214 02       		.uleb128 0x2
 4189 0215 0A       		.uleb128 0xa
 4190 0216 00       		.byte	0x0
 4191 0217 00       		.byte	0x0
 4192 0218 29       		.uleb128 0x29
 4193 0219 34       		.uleb128 0x34
 4194 021a 00       		.byte	0x0
 4195 021b 03       		.uleb128 0x3
 4196 021c 0E       		.uleb128 0xe
 4197 021d 3A       		.uleb128 0x3a
 4198 021e 0B       		.uleb128 0xb
 4199 021f 3B       		.uleb128 0x3b
 4200 0220 05       		.uleb128 0x5
 4201 0221 49       		.uleb128 0x49
 4202 0222 13       		.uleb128 0x13
 4203 0223 02       		.uleb128 0x2
 4204 0224 0A       		.uleb128 0xa
 4205 0225 00       		.byte	0x0
 4206 0226 00       		.byte	0x0
 4207 0227 2A       		.uleb128 0x2a
 4208 0228 34       		.uleb128 0x34
 4209 0229 00       		.byte	0x0
 4210 022a 03       		.uleb128 0x3
 4211 022b 08       		.uleb128 0x8
 4212 022c 3A       		.uleb128 0x3a
 4213 022d 0B       		.uleb128 0xb
 4214 022e 3B       		.uleb128 0x3b
 4215 022f 05       		.uleb128 0x5
 4216 0230 49       		.uleb128 0x49
 4217 0231 13       		.uleb128 0x13
 4218 0232 02       		.uleb128 0x2
 4219 0233 0A       		.uleb128 0xa
 4220 0234 00       		.byte	0x0
 4221 0235 00       		.byte	0x0
 4222 0236 2B       		.uleb128 0x2b
 4223 0237 21       		.uleb128 0x21
 4224 0238 00       		.byte	0x0
 4225 0239 49       		.uleb128 0x49
 4226 023a 13       		.uleb128 0x13
 4227 023b 2F       		.uleb128 0x2f
 4228 023c 0B       		.uleb128 0xb
 4229 023d 00       		.byte	0x0
 4230 023e 00       		.byte	0x0
 4231 023f 2C       		.uleb128 0x2c
 4232 0240 05       		.uleb128 0x5
 4233 0241 00       		.byte	0x0
 4234 0242 03       		.uleb128 0x3
ARM GAS  C:\Users\z80\AppData\Local\Temp\ccmumy1p.s 			page 76


 4235 0243 08       		.uleb128 0x8
 4236 0244 3A       		.uleb128 0x3a
 4237 0245 0B       		.uleb128 0xb
 4238 0246 3B       		.uleb128 0x3b
 4239 0247 05       		.uleb128 0x5
 4240 0248 49       		.uleb128 0x49
 4241 0249 13       		.uleb128 0x13
 4242 024a 02       		.uleb128 0x2
 4243 024b 0A       		.uleb128 0xa
 4244 024c 00       		.byte	0x0
 4245 024d 00       		.byte	0x0
 4246 024e 2D       		.uleb128 0x2d
 4247 024f 2E       		.uleb128 0x2e
 4248 0250 00       		.byte	0x0
 4249 0251 03       		.uleb128 0x3
 4250 0252 0E       		.uleb128 0xe
 4251 0253 3A       		.uleb128 0x3a
 4252 0254 0B       		.uleb128 0xb
 4253 0255 3B       		.uleb128 0x3b
 4254 0256 05       		.uleb128 0x5
 4255 0257 27       		.uleb128 0x27
 4256 0258 0C       		.uleb128 0xc
 4257 0259 11       		.uleb128 0x11
 4258 025a 01       		.uleb128 0x1
 4259 025b 12       		.uleb128 0x12
 4260 025c 01       		.uleb128 0x1
 4261 025d 40       		.uleb128 0x40
 4262 025e 06       		.uleb128 0x6
 4263 025f 00       		.byte	0x0
 4264 0260 00       		.byte	0x0
 4265 0261 2E       		.uleb128 0x2e
 4266 0262 34       		.uleb128 0x34
 4267 0263 00       		.byte	0x0
 4268 0264 03       		.uleb128 0x3
 4269 0265 0E       		.uleb128 0xe
 4270 0266 3A       		.uleb128 0x3a
 4271 0267 0B       		.uleb128 0xb
 4272 0268 3B       		.uleb128 0x3b
 4273 0269 05       		.uleb128 0x5
 4274 026a 49       		.uleb128 0x49
 4275 026b 13       		.uleb128 0x13
 4276 026c 3F       		.uleb128 0x3f
 4277 026d 0C       		.uleb128 0xc
 4278 026e 3C       		.uleb128 0x3c
 4279 026f 0C       		.uleb128 0xc
 4280 0270 00       		.byte	0x0
 4281 0271 00       		.byte	0x0
 4282 0272 2F       		.uleb128 0x2f
 4283 0273 34       		.uleb128 0x34
 4284 0274 00       		.byte	0x0
 4285 0275 03       		.uleb128 0x3
 4286 0276 08       		.uleb128 0x8
 4287 0277 3A       		.uleb128 0x3a
 4288 0278 0B       		.uleb128 0xb
 4289 0279 3B       		.uleb128 0x3b
 4290 027a 0B       		.uleb128 0xb
 4291 027b 49       		.uleb128 0x49
ARM GAS  C:\Users\z80\AppData\Local\Temp\ccmumy1p.s 			page 77


 4292 027c 13       		.uleb128 0x13
 4293 027d 3F       		.uleb128 0x3f
 4294 027e 0C       		.uleb128 0xc
 4295 027f 3C       		.uleb128 0x3c
 4296 0280 0C       		.uleb128 0xc
 4297 0281 00       		.byte	0x0
 4298 0282 00       		.byte	0x0
 4299 0283 00       		.byte	0x0
 4300              		.section	.debug_pubnames,"",%progbits
 4301 0000 3E000000 		.4byte	0x3e
 4302 0004 0200     		.2byte	0x2
 4303 0006 00000000 		.4byte	.Ldebug_info0
 4304 000a 3D0F0000 		.4byte	0xf3d
 4305 000e 15090000 		.4byte	0x915
 4306 0012 6370755F 		.ascii	"cpu_io_init\000"
 4306      696F5F69 
 4306      6E697400 
 4307 001e 2A090000 		.4byte	0x92a
 4308 0022 6370755F 		.ascii	"cpu_io_process\000"
 4308      696F5F70 
 4308      726F6365 
 4308      737300
 4309 0031 98090000 		.4byte	0x998
 4310 0035 66756E63 		.ascii	"funcArgs\000"
 4310      41726773 
 4310      00
 4311 003e 00000000 		.4byte	0x0
 4312              		.section	.debug_pubtypes,"",%progbits
 4313 0000 63020000 		.4byte	0x263
 4314 0004 0200     		.2byte	0x2
 4315 0006 00000000 		.4byte	.Ldebug_info0
 4316 000a 3D0F0000 		.4byte	0xf3d
 4317 000e 30000000 		.4byte	0x30
 4318 0012 73697A65 		.ascii	"size_t\000"
 4318      5F7400
 4319 0019 49000000 		.4byte	0x49
 4320 001d 75696E74 		.ascii	"uint8_t\000"
 4320      385F7400 
 4321 0025 62000000 		.4byte	0x62
 4322 0029 75696E74 		.ascii	"uint16_t\000"
 4322      31365F74 
 4322      00
 4323 0032 74000000 		.4byte	0x74
 4324 0036 696E7433 		.ascii	"int32_t\000"
 4324      325F7400 
 4325 003e 86000000 		.4byte	0x86
 4326 0042 75696E74 		.ascii	"uint32_t\000"
 4326      33325F74 
 4326      00
 4327 004b 9F000000 		.4byte	0x9f
 4328 004f 75696E74 		.ascii	"uint64_t\000"
 4328      36345F74 
 4328      00
 4329 0058 B1000000 		.4byte	0xb1
 4330 005c 75696E74 		.ascii	"uint_fast16_t\000"
 4330      5F666173 
 4330      7431365F 
ARM GAS  C:\Users\z80\AppData\Local\Temp\ccmumy1p.s 			page 78


 4330      7400
 4331 006a BC000000 		.4byte	0xbc
 4332 006e 626F6F6C 		.ascii	"bool_t\000"
 4332      5F7400
 4333 0075 C7000000 		.4byte	0xc7
 4334 0079 746D6F64 		.ascii	"tmode_t\000"
 4334      655F7400 
 4335 0081 D2000000 		.4byte	0xd2
 4336 0085 74737461 		.ascii	"tstate_t\000"
 4336      74655F74 
 4336      00
 4337 008e DD000000 		.4byte	0xdd
 4338 0092 74707269 		.ascii	"tprio_t\000"
 4338      6F5F7400 
 4339 009a E8000000 		.4byte	0xe8
 4340 009e 6D73675F 		.ascii	"msg_t\000"
 4340      7400
 4341 00a4 F3000000 		.4byte	0xf3
 4342 00a8 6576656E 		.ascii	"eventmask_t\000"
 4342      746D6173 
 4342      6B5F7400 
 4343 00b4 FE000000 		.4byte	0xfe
 4344 00b8 73797374 		.ascii	"systime_t\000"
 4344      696D655F 
 4344      7400
 4345 00c2 09010000 		.4byte	0x109
 4346 00c6 54687265 		.ascii	"Thread\000"
 4346      616400
 4347 00cd 48020000 		.4byte	0x248
 4348 00d1 54687265 		.ascii	"ThreadsQueue\000"
 4348      61647351 
 4348      75657565 
 4348      00
 4349 00de 6A020000 		.4byte	0x26a
 4350 00e2 54687265 		.ascii	"ThreadsList\000"
 4350      6164734C 
 4350      69737400 
 4351 00ee 75020000 		.4byte	0x275
 4352 00f2 72656761 		.ascii	"regarm_t\000"
 4352      726D5F74 
 4352      00
 4353 00fb 82020000 		.4byte	0x282
 4354 00ff 73746B61 		.ascii	"stkalign_t\000"
 4354      6C69676E 
 4354      5F7400
 4355 010a 8D020000 		.4byte	0x28d
 4356 010e 696E7463 		.ascii	"intctx\000"
 4356      747800
 4357 0115 1A030000 		.4byte	0x31a
 4358 0119 636F6E74 		.ascii	"context\000"
 4358      65787400 
 4359 0121 4A030000 		.4byte	0x34a
 4360 0125 4D757465 		.ascii	"Mutex\000"
 4360      7800
 4361 012b 87030000 		.4byte	0x387
 4362 012f 4D757465 		.ascii	"Mutex\000"
 4362      7800
ARM GAS  C:\Users\z80\AppData\Local\Temp\ccmumy1p.s 			page 79


 4363 0135 92030000 		.4byte	0x392
 4364 0139 4576656E 		.ascii	"EventListener\000"
 4364      744C6973 
 4364      74656E65 
 4364      7200
 4365 0147 9D030000 		.4byte	0x39d
 4366 014b 4576656E 		.ascii	"EventListener\000"
 4366      744C6973 
 4366      74656E65 
 4366      7200
 4367 0159 DA030000 		.4byte	0x3da
 4368 015d 4576656E 		.ascii	"EventSource\000"
 4368      74536F75 
 4368      72636500 
 4369 0169 F5030000 		.4byte	0x3f5
 4370 016d 4576656E 		.ascii	"EventSource\000"
 4370      74536F75 
 4370      72636500 
 4371 0179 14010000 		.4byte	0x114
 4372 017d 54687265 		.ascii	"Thread\000"
 4372      616400
 4373 0184 53040000 		.4byte	0x453
 4374 0188 47656E65 		.ascii	"GenericQueue\000"
 4374      72696351 
 4374      75657565 
 4374      00
 4375 0195 CD040000 		.4byte	0x4cd
 4376 0199 716E6F74 		.ascii	"qnotify_t\000"
 4376      6966795F 
 4376      7400
 4377 01a3 5E040000 		.4byte	0x45e
 4378 01a7 47656E65 		.ascii	"GenericQueue\000"
 4378      72696351 
 4378      75657565 
 4378      00
 4379 01b4 F6040000 		.4byte	0x4f6
 4380 01b8 496E7075 		.ascii	"InputQueue\000"
 4380      74517565 
 4380      756500
 4381 01c3 01050000 		.4byte	0x501
 4382 01c7 4F757470 		.ascii	"OutputQueue\000"
 4382      75745175 
 4382      65756500 
 4383 01d3 F2050000 		.4byte	0x5f2
 4384 01d7 696F666C 		.ascii	"ioflags_t\000"
 4384      6167735F 
 4384      7400
 4385 01e1 14060000 		.4byte	0x614
 4386 01e5 5446756E 		.ascii	"TFunc\000"
 4386      6300
 4387 01eb AE060000 		.4byte	0x6ae
 4388 01ef 4750494F 		.ascii	"GPIO_TypeDef\000"
 4388      5F547970 
 4388      65446566 
 4388      00
 4389 01fc 94070000 		.4byte	0x794
 4390 0200 55534152 		.ascii	"USART_TypeDef\000"
ARM GAS  C:\Users\z80\AppData\Local\Temp\ccmumy1p.s 			page 80


 4390      545F5479 
 4390      70654465 
 4390      6600
 4391 020e A0070000 		.4byte	0x7a0
 4392 0212 696F706F 		.ascii	"ioportmask_t\000"
 4392      72746D61 
 4392      736B5F74 
 4392      00
 4393 021f C6070000 		.4byte	0x7c6
 4394 0223 73647374 		.ascii	"sdstate_t\000"
 4394      6174655F 
 4394      7400
 4395 022d D1070000 		.4byte	0x7d1
 4396 0231 53657269 		.ascii	"SerialDriver\000"
 4396      616C4472 
 4396      69766572 
 4396      00
 4397 023e 68080000 		.4byte	0x868
 4398 0242 53657269 		.ascii	"SerialDriverVMT\000"
 4398      616C4472 
 4398      69766572 
 4398      564D5400 
 4399 0252 DC070000 		.4byte	0x7dc
 4400 0256 53657269 		.ascii	"SerialDriver\000"
 4400      616C4472 
 4400      69766572 
 4400      00
 4401 0263 00000000 		.4byte	0x0
 4402              		.section	.debug_aranges,"",%progbits
 4403 0000 D4000000 		.4byte	0xd4
 4404 0004 0200     		.2byte	0x2
 4405 0006 00000000 		.4byte	.Ldebug_info0
 4406 000a 04       		.byte	0x4
 4407 000b 00       		.byte	0x0
 4408 000c 0000     		.2byte	0x0
 4409 000e 0000     		.2byte	0x0
 4410 0010 00000000 		.4byte	.LFB62
 4411 0014 3C000000 		.4byte	.LFE62-.LFB62
 4412 0018 00000000 		.4byte	.LFB63
 4413 001c 14010000 		.4byte	.LFE63-.LFB63
 4414 0020 00000000 		.4byte	.LFB64
 4415 0024 0C000000 		.4byte	.LFE64-.LFB64
 4416 0028 00000000 		.4byte	.LFB65
 4417 002c 64000000 		.4byte	.LFE65-.LFB65
 4418 0030 00000000 		.4byte	.LFB66
 4419 0034 44000000 		.4byte	.LFE66-.LFB66
 4420 0038 00000000 		.4byte	.LFB67
 4421 003c A6000000 		.4byte	.LFE67-.LFB67
 4422 0040 00000000 		.4byte	.LFB68
 4423 0044 18000000 		.4byte	.LFE68-.LFB68
 4424 0048 00000000 		.4byte	.LFB69
 4425 004c 18000000 		.4byte	.LFE69-.LFB69
 4426 0050 00000000 		.4byte	.LFB70
 4427 0054 18000000 		.4byte	.LFE70-.LFB70
 4428 0058 00000000 		.4byte	.LFB71
 4429 005c 42000000 		.4byte	.LFE71-.LFB71
 4430 0060 00000000 		.4byte	.LFB72
ARM GAS  C:\Users\z80\AppData\Local\Temp\ccmumy1p.s 			page 81


 4431 0064 14000000 		.4byte	.LFE72-.LFB72
 4432 0068 00000000 		.4byte	.LFB73
 4433 006c 14000000 		.4byte	.LFE73-.LFB73
 4434 0070 00000000 		.4byte	.LFB74
 4435 0074 14000000 		.4byte	.LFE74-.LFB74
 4436 0078 00000000 		.4byte	.LFB75
 4437 007c 20000000 		.4byte	.LFE75-.LFB75
 4438 0080 00000000 		.4byte	.LFB76
 4439 0084 20000000 		.4byte	.LFE76-.LFB76
 4440 0088 00000000 		.4byte	.LFB77
 4441 008c 20000000 		.4byte	.LFE77-.LFB77
 4442 0090 00000000 		.4byte	.LFB78
 4443 0094 20000000 		.4byte	.LFE78-.LFB78
 4444 0098 00000000 		.4byte	.LFB79
 4445 009c 50000000 		.4byte	.LFE79-.LFB79
 4446 00a0 00000000 		.4byte	.LFB80
 4447 00a4 50000000 		.4byte	.LFE80-.LFB80
 4448 00a8 00000000 		.4byte	.LFB81
 4449 00ac 42000000 		.4byte	.LFE81-.LFB81
 4450 00b0 00000000 		.4byte	.LFB82
 4451 00b4 1C000000 		.4byte	.LFE82-.LFB82
 4452 00b8 00000000 		.4byte	.LFB83
 4453 00bc 18000000 		.4byte	.LFE83-.LFB83
 4454 00c0 00000000 		.4byte	.LFB84
 4455 00c4 40000000 		.4byte	.LFE84-.LFB84
 4456 00c8 00000000 		.4byte	.LFB85
 4457 00cc 18000000 		.4byte	.LFE85-.LFB85
 4458 00d0 00000000 		.4byte	0x0
 4459 00d4 00000000 		.4byte	0x0
 4460              		.section	.debug_ranges,"",%progbits
 4461              	.Ldebug_ranges0:
 4462 0000 00000000 		.4byte	.LFB62
 4463 0004 3C000000 		.4byte	.LFE62
 4464 0008 00000000 		.4byte	.LFB63
 4465 000c 14010000 		.4byte	.LFE63
 4466 0010 00000000 		.4byte	.LFB64
 4467 0014 0C000000 		.4byte	.LFE64
 4468 0018 00000000 		.4byte	.LFB65
 4469 001c 64000000 		.4byte	.LFE65
 4470 0020 00000000 		.4byte	.LFB66
 4471 0024 44000000 		.4byte	.LFE66
 4472 0028 00000000 		.4byte	.LFB67
 4473 002c A6000000 		.4byte	.LFE67
 4474 0030 00000000 		.4byte	.LFB68
 4475 0034 18000000 		.4byte	.LFE68
 4476 0038 00000000 		.4byte	.LFB69
 4477 003c 18000000 		.4byte	.LFE69
 4478 0040 00000000 		.4byte	.LFB70
 4479 0044 18000000 		.4byte	.LFE70
 4480 0048 00000000 		.4byte	.LFB71
 4481 004c 42000000 		.4byte	.LFE71
 4482 0050 00000000 		.4byte	.LFB72
 4483 0054 14000000 		.4byte	.LFE72
 4484 0058 00000000 		.4byte	.LFB73
 4485 005c 14000000 		.4byte	.LFE73
 4486 0060 00000000 		.4byte	.LFB74
 4487 0064 14000000 		.4byte	.LFE74
ARM GAS  C:\Users\z80\AppData\Local\Temp\ccmumy1p.s 			page 82


 4488 0068 00000000 		.4byte	.LFB75
 4489 006c 20000000 		.4byte	.LFE75
 4490 0070 00000000 		.4byte	.LFB76
 4491 0074 20000000 		.4byte	.LFE76
 4492 0078 00000000 		.4byte	.LFB77
 4493 007c 20000000 		.4byte	.LFE77
 4494 0080 00000000 		.4byte	.LFB78
 4495 0084 20000000 		.4byte	.LFE78
 4496 0088 00000000 		.4byte	.LFB79
 4497 008c 50000000 		.4byte	.LFE79
 4498 0090 00000000 		.4byte	.LFB80
 4499 0094 50000000 		.4byte	.LFE80
 4500 0098 00000000 		.4byte	.LFB81
 4501 009c 42000000 		.4byte	.LFE81
 4502 00a0 00000000 		.4byte	.LFB82
 4503 00a4 1C000000 		.4byte	.LFE82
 4504 00a8 00000000 		.4byte	.LFB83
 4505 00ac 18000000 		.4byte	.LFE83
 4506 00b0 00000000 		.4byte	.LFB84
 4507 00b4 40000000 		.4byte	.LFE84
 4508 00b8 00000000 		.4byte	.LFB85
 4509 00bc 18000000 		.4byte	.LFE85
 4510 00c0 00000000 		.4byte	0x0
 4511 00c4 00000000 		.4byte	0x0
 4512              		.section	.debug_str,"MS",%progbits,1
 4513              	.LASF146:
 4514 0000 77726974 		.ascii	"writeEom\000"
 4514      65456F6D 
 4514      00
 4515              	.LASF2:
 4516 0009 73697A65 		.ascii	"size_t\000"
 4516      5F7400
 4517              	.LASF57:
 4518 0010 7264796D 		.ascii	"rdymsg\000"
 4518      736700
 4519              	.LASF13:
 4520 0017 75696E74 		.ascii	"uint64_t\000"
 4520      36345F74 
 4520      00
 4521              	.LASF139:
 4522 0020 66756E63 		.ascii	"funcs\000"
 4522      7300
 4523              	.LASF72:
 4524 0026 4F757470 		.ascii	"OutputQueue\000"
 4524      75745175 
 4524      65756500 
 4525              	.LASF74:
 4526 0032 5446756E 		.ascii	"TFunc\000"
 4526      6300
 4527              	.LASF87:
 4528 0038 696F706F 		.ascii	"ioportmask_t\000"
 4528      72746D61 
 4528      736B5F74 
 4528      00
 4529              	.LASF121:
 4530 0045 70657269 		.ascii	"period\000"
 4530      6F6400
ARM GAS  C:\Users\z80\AppData\Local\Temp\ccmumy1p.s 			page 83


 4531              	.LASF15:
 4532 004c 75696E74 		.ascii	"uint_fast16_t\000"
 4532      5F666173 
 4532      7431365F 
 4532      7400
 4533              	.LASF14:
 4534 005a 6C6F6E67 		.ascii	"long long unsigned int\000"
 4534      206C6F6E 
 4534      6720756E 
 4534      7369676E 
 4534      65642069 
 4535              	.LASF126:
 4536 0071 7365745F 		.ascii	"set_one_pulse\000"
 4536      6F6E655F 
 4536      70756C73 
 4536      6500
 4537              	.LASF145:
 4538 007f 66756E63 		.ascii	"funcArgs\000"
 4538      41726773 
 4538      00
 4539              	.LASF58:
 4540 0088 65786974 		.ascii	"exitcode\000"
 4540      636F6465 
 4540      00
 4541              	.LASF124:
 4542 0091 7365745F 		.ascii	"set_sc_relay\000"
 4542      73635F72 
 4542      656C6179 
 4542      00
 4543              	.LASF108:
 4544 009e 6F75745F 		.ascii	"out_index\000"
 4544      696E6465 
 4544      7800
 4545              	.LASF137:
 4546 00a8 49544D5F 		.ascii	"ITM_RxBuffer\000"
 4546      52784275 
 4546      66666572 
 4546      00
 4547              	.LASF26:
 4548 00b5 705F7072 		.ascii	"p_prio\000"
 4548      696F00
 4549              	.LASF105:
 4550 00bc 72656164 		.ascii	"readt\000"
 4550      7400
 4551              	.LASF120:
 4552 00c2 6F73635F 		.ascii	"osc_set_period\000"
 4552      7365745F 
 4552      70657269 
 4552      6F6400
 4553              	.LASF12:
 4554 00d1 6C6F6E67 		.ascii	"long long int\000"
 4554      206C6F6E 
 4554      6720696E 
 4554      7400
 4555              	.LASF1:
 4556 00df 7369676E 		.ascii	"signed char\000"
 4556      65642063 
ARM GAS  C:\Users\z80\AppData\Local\Temp\ccmumy1p.s 			page 84


 4556      68617200 
 4557              	.LASF75:
 4558 00eb 42535252 		.ascii	"BSRR\000"
 4558      00
 4559              	.LASF84:
 4560 00f0 47545052 		.ascii	"GTPR\000"
 4560      00
 4561              	.LASF89:
 4562 00f5 53445F53 		.ascii	"SD_STOP\000"
 4562      544F5000 
 4563              	.LASF16:
 4564 00fd 626F6F6C 		.ascii	"bool_t\000"
 4564      5F7400
 4565              	.LASF48:
 4566 0104 6D5F7175 		.ascii	"m_queue\000"
 4566      65756500 
 4567              	.LASF135:
 4568 010c 62756666 		.ascii	"buffer_data\000"
 4568      65725F64 
 4568      61746100 
 4569              	.LASF132:
 4570 0118 62756666 		.ascii	"buffer_set_period\000"
 4570      65725F73 
 4570      65745F70 
 4570      6572696F 
 4570      6400
 4571              	.LASF115:
 4572 012a 77726974 		.ascii	"writeOscQueue\000"
 4572      654F7363 
 4572      51756575 
 4572      6500
 4573              	.LASF95:
 4574 0138 73746174 		.ascii	"state\000"
 4574      6500
 4575              	.LASF9:
 4576 013e 6C6F6E67 		.ascii	"long int\000"
 4576      20696E74 
 4576      00
 4577              	.LASF18:
 4578 0147 74737461 		.ascii	"tstate_t\000"
 4578      74655F74 
 4578      00
 4579              	.LASF65:
 4580 0150 715F6275 		.ascii	"q_buffer\000"
 4580      66666572 
 4580      00
 4581              	.LASF67:
 4582 0159 715F7772 		.ascii	"q_wrptr\000"
 4582      70747200 
 4583              	.LASF28:
 4584 0161 705F6E65 		.ascii	"p_newer\000"
 4584      77657200 
 4585              	.LASF102:
 4586 0169 70757477 		.ascii	"putwouldblock\000"
 4586      6F756C64 
 4586      626C6F63 
 4586      6B00
ARM GAS  C:\Users\z80\AppData\Local\Temp\ccmumy1p.s 			page 85


 4587              	.LASF77:
 4588 0177 4750494F 		.ascii	"GPIO_TypeDef\000"
 4588      5F547970 
 4588      65446566 
 4588      00
 4589              	.LASF122:
 4590 0184 7365745F 		.ascii	"set_leds\000"
 4590      6C656473 
 4590      00
 4591              	.LASF43:
 4592 018d 72656761 		.ascii	"regarm_t\000"
 4592      726D5F74 
 4592      00
 4593              	.LASF55:
 4594 0196 4576656E 		.ascii	"EventSource\000"
 4594      74536F75 
 4594      72636500 
 4595              	.LASF98:
 4596 01a2 75736172 		.ascii	"usart\000"
 4596      7400
 4597              	.LASF0:
 4598 01a8 756E7369 		.ascii	"unsigned int\000"
 4598      676E6564 
 4598      20696E74 
 4598      00
 4599              	.LASF6:
 4600 01b5 75696E74 		.ascii	"uint16_t\000"
 4600      31365F74 
 4600      00
 4601              	.LASF99:
 4602 01be 53657269 		.ascii	"SerialDriverVMT\000"
 4602      616C4472 
 4602      69766572 
 4602      564D5400 
 4603              	.LASF34:
 4604 01ce 705F7469 		.ascii	"p_time\000"
 4604      6D6500
 4605              	.LASF129:
 4606 01d5 68617264 		.ascii	"hardware_version\000"
 4606      77617265 
 4606      5F766572 
 4606      73696F6E 
 4606      00
 4607              	.LASF128:
 4608 01e6 7365745F 		.ascii	"set_sweep\000"
 4608      73776565 
 4608      7000
 4609              	.LASF96:
 4610 01f0 69717565 		.ascii	"iqueue\000"
 4610      756500
 4611              	.LASF36:
 4612 01f7 705F6D73 		.ascii	"p_msgqueue\000"
 4612      67717565 
 4612      756500
 4613              	.LASF130:
 4614 0202 73747269 		.ascii	"stri\000"
 4614      00
ARM GAS  C:\Users\z80\AppData\Local\Temp\ccmumy1p.s 			page 86


 4615              	.LASF76:
 4616 0207 4C434B52 		.ascii	"LCKR\000"
 4616      00
 4617              	.LASF112:
 4618 020c 65786563 		.ascii	"exec_func\000"
 4618      5F66756E 
 4618      6300
 4619              	.LASF109:
 4620 0216 6E6F4461 		.ascii	"noData\000"
 4620      746100
 4621              	.LASF19:
 4622 021d 74707269 		.ascii	"tprio_t\000"
 4622      6F5F7400 
 4623              	.LASF93:
 4624 0225 6576656E 		.ascii	"event\000"
 4624      7400
 4625              	.LASF7:
 4626 022b 73686F72 		.ascii	"short unsigned int\000"
 4626      7420756E 
 4626      7369676E 
 4626      65642069 
 4626      6E7400
 4627              	.LASF20:
 4628 023e 6D73675F 		.ascii	"msg_t\000"
 4628      7400
 4629              	.LASF97:
 4630 0244 6F717565 		.ascii	"oqueue\000"
 4630      756500
 4631              	.LASF119:
 4632 024b 6F73635F 		.ascii	"osc_iaux\000"
 4632      69617578 
 4632      00
 4633              	.LASF131:
 4634 0254 6669726D 		.ascii	"firmware_version\000"
 4634      77617265 
 4634      5F766572 
 4634      73696F6E 
 4634      00
 4635              	.LASF86:
 4636 0265 55534152 		.ascii	"USART_TypeDef\000"
 4636      545F5479 
 4636      70654465 
 4636      6600
 4637              	.LASF104:
 4638 0273 77726974 		.ascii	"writet\000"
 4638      657400
 4639              	.LASF17:
 4640 027a 746D6F64 		.ascii	"tmode_t\000"
 4640      655F7400 
 4641              	.LASF42:
 4642 0282 54687265 		.ascii	"ThreadsList\000"
 4642      6164734C 
 4642      69737400 
 4643              	.LASF21:
 4644 028e 6576656E 		.ascii	"eventmask_t\000"
 4644      746D6173 
 4644      6B5F7400 
ARM GAS  C:\Users\z80\AppData\Local\Temp\ccmumy1p.s 			page 87


 4645              	.LASF71:
 4646 029a 496E7075 		.ascii	"InputQueue\000"
 4646      74517565 
 4646      756500
 4647              	.LASF70:
 4648 02a5 716E6F74 		.ascii	"qnotify_t\000"
 4648      6966795F 
 4648      7400
 4649              	.LASF141:
 4650 02af 2E2F7372 		.ascii	"./src/cpu_io.c\000"
 4650      632F6370 
 4650      755F696F 
 4650      2E6300
 4651              	.LASF62:
 4652 02be 47656E65 		.ascii	"GenericQueue\000"
 4652      72696351 
 4652      75657565 
 4652      00
 4653              	.LASF44:
 4654 02cb 73746B61 		.ascii	"stkalign_t\000"
 4654      6C69676E 
 4654      5F7400
 4655              	.LASF134:
 4656 02d6 6D61736B 		.ascii	"mask\000"
 4656      00
 4657              	.LASF125:
 4658 02db 7365745F 		.ascii	"set_dac\000"
 4658      64616300 
 4659              	.LASF100:
 4660 02e3 77726974 		.ascii	"write\000"
 4660      6500
 4661              	.LASF64:
 4662 02e9 715F636F 		.ascii	"q_counter\000"
 4662      756E7465 
 4662      7200
 4663              	.LASF47:
 4664 02f3 4D757465 		.ascii	"Mutex\000"
 4664      7800
 4665              	.LASF29:
 4666 02f9 705F6F6C 		.ascii	"p_older\000"
 4666      64657200 
 4667              	.LASF144:
 4668 0301 6370755F 		.ascii	"cpu_io_process\000"
 4668      696F5F70 
 4668      726F6365 
 4668      737300
 4669              	.LASF73:
 4670 0310 696F666C 		.ascii	"ioflags_t\000"
 4670      6167735F 
 4670      7400
 4671              	.LASF41:
 4672 031a 54687265 		.ascii	"ThreadsQueue\000"
 4672      61647351 
 4672      75657565 
 4672      00
 4673              	.LASF142:
 4674 0327 433A5C70 		.ascii	"C:\\projects\\voltamper.git\\firmware\\voltamp\000"
ARM GAS  C:\Users\z80\AppData\Local\Temp\ccmumy1p.s 			page 88


 4674      726F6A65 
 4674      6374735C 
 4674      766F6C74 
 4674      616D7065 
 4675              	.LASF123:
 4676 0352 7365745F 		.ascii	"set_out_relay\000"
 4676      6F75745F 
 4676      72656C61 
 4676      7900
 4677              	.LASF54:
 4678 0360 656C5F6D 		.ascii	"el_mask\000"
 4678      61736B00 
 4679              	.LASF133:
 4680 0368 62756666 		.ascii	"buffer_set_signals\000"
 4680      65725F73 
 4680      65745F73 
 4680      69676E61 
 4680      6C7300
 4681              	.LASF136:
 4682 037b 77726974 		.ascii	"writeResult\000"
 4682      65526573 
 4682      756C7400 
 4683              	.LASF63:
 4684 0387 715F7761 		.ascii	"q_waiting\000"
 4684      6974696E 
 4684      6700
 4685              	.LASF78:
 4686 0391 52455345 		.ascii	"RESERVED0\000"
 4686      52564544 
 4686      3000
 4687              	.LASF79:
 4688 039b 52455345 		.ascii	"RESERVED1\000"
 4688      52564544 
 4688      3100
 4689              	.LASF80:
 4690 03a5 52455345 		.ascii	"RESERVED2\000"
 4690      52564544 
 4690      3200
 4691              	.LASF81:
 4692 03af 52455345 		.ascii	"RESERVED3\000"
 4692      52564544 
 4692      3300
 4693              	.LASF82:
 4694 03b9 52455345 		.ascii	"RESERVED4\000"
 4694      52564544 
 4694      3400
 4695              	.LASF25:
 4696 03c3 705F7072 		.ascii	"p_prev\000"
 4696      657600
 4697              	.LASF85:
 4698 03ca 52455345 		.ascii	"RESERVED6\000"
 4698      52564544 
 4698      3600
 4699              	.LASF114:
 4700 03d4 66756E63 		.ascii	"funcs_sz\000"
 4700      735F737A 
 4700      00
ARM GAS  C:\Users\z80\AppData\Local\Temp\ccmumy1p.s 			page 89


 4701              	.LASF68:
 4702 03dd 715F7264 		.ascii	"q_rdptr\000"
 4702      70747200 
 4703              	.LASF118:
 4704 03e5 6F73635F 		.ascii	"osc_eref\000"
 4704      65726566 
 4704      00
 4705              	.LASF8:
 4706 03ee 696E7433 		.ascii	"int32_t\000"
 4706      325F7400 
 4707              	.LASF4:
 4708 03f6 756E7369 		.ascii	"unsigned char\000"
 4708      676E6564 
 4708      20636861 
 4708      7200
 4709              	.LASF53:
 4710 0404 656C5F6C 		.ascii	"el_listener\000"
 4710      69737465 
 4710      6E657200 
 4711              	.LASF39:
 4712 0410 705F6D74 		.ascii	"p_mtxlist\000"
 4712      786C6973 
 4712      7400
 4713              	.LASF5:
 4714 041a 73686F72 		.ascii	"short int\000"
 4714      7420696E 
 4714      7400
 4715              	.LASF32:
 4716 0424 705F7374 		.ascii	"p_state\000"
 4716      61746500 
 4717              	.LASF111:
 4718 042c 70726F63 		.ascii	"process_command\000"
 4718      6573735F 
 4718      636F6D6D 
 4718      616E6400 
 4719              	.LASF60:
 4720 043c 65776D61 		.ascii	"ewmask\000"
 4720      736B00
 4721              	.LASF24:
 4722 0443 705F6E65 		.ascii	"p_next\000"
 4722      787400
 4723              	.LASF33:
 4724 044a 705F666C 		.ascii	"p_flags\000"
 4724      61677300 
 4725              	.LASF52:
 4726 0452 656C5F6E 		.ascii	"el_next\000"
 4726      65787400 
 4727              	.LASF127:
 4728 045a 7365745F 		.ascii	"set_meandr\000"
 4728      6D65616E 
 4728      647200
 4729              	.LASF23:
 4730 0465 54687265 		.ascii	"Thread\000"
 4730      616400
 4731              	.LASF38:
 4732 046c 705F6570 		.ascii	"p_epending\000"
 4732      656E6469 
ARM GAS  C:\Users\z80\AppData\Local\Temp\ccmumy1p.s 			page 90


 4732      6E6700
 4733              	.LASF88:
 4734 0477 53445F55 		.ascii	"SD_UNINIT\000"
 4734      4E494E49 
 4734      5400
 4735              	.LASF83:
 4736 0481 52455345 		.ascii	"RESERVED5\000"
 4736      52564544 
 4736      3500
 4737              	.LASF10:
 4738 048b 75696E74 		.ascii	"uint32_t\000"
 4738      33325F74 
 4738      00
 4739              	.LASF91:
 4740 0494 73647374 		.ascii	"sdstate_t\000"
 4740      6174655F 
 4740      7400
 4741              	.LASF92:
 4742 049e 53657269 		.ascii	"SerialDriver\000"
 4742      616C4472 
 4742      69766572 
 4742      00
 4743              	.LASF11:
 4744 04ab 6C6F6E67 		.ascii	"long unsigned int\000"
 4744      20756E73 
 4744      69676E65 
 4744      6420696E 
 4744      7400
 4745              	.LASF101:
 4746 04bd 72656164 		.ascii	"read\000"
 4746      00
 4747              	.LASF61:
 4748 04c2 63686172 		.ascii	"char\000"
 4748      00
 4749              	.LASF143:
 4750 04c7 6370755F 		.ascii	"cpu_io_init\000"
 4750      696F5F69 
 4750      6E697400 
 4751              	.LASF50:
 4752 04d3 6D5F6E65 		.ascii	"m_next\000"
 4752      787400
 4753              	.LASF22:
 4754 04da 73797374 		.ascii	"systime_t\000"
 4754      696D655F 
 4754      7400
 4755              	.LASF40:
 4756 04e4 705F7265 		.ascii	"p_realprio\000"
 4756      616C7072 
 4756      696F00
 4757              	.LASF138:
 4758 04ef 62756666 		.ascii	"buffer\000"
 4758      657200
 4759              	.LASF31:
 4760 04f6 705F7374 		.ascii	"p_stklimit\000"
 4760      6B6C696D 
 4760      697400
 4761              	.LASF110:
ARM GAS  C:\Users\z80\AppData\Local\Temp\ccmumy1p.s 			page 91


 4762 0501 64617461 		.ascii	"data\000"
 4762      00
 4763              	.LASF106:
 4764 0506 67657466 		.ascii	"getflags\000"
 4764      6C616773 
 4764      00
 4765              	.LASF46:
 4766 050f 636F6E74 		.ascii	"context\000"
 4766      65787400 
 4767              	.LASF45:
 4768 0517 696E7463 		.ascii	"intctx\000"
 4768      747800
 4769              	.LASF90:
 4770 051e 53445F52 		.ascii	"SD_READY\000"
 4770      45414459 
 4770      00
 4771              	.LASF116:
 4772 0527 6F73635F 		.ascii	"osc_eaux\000"
 4772      65617578 
 4772      00
 4773              	.LASF66:
 4774 0530 715F746F 		.ascii	"q_top\000"
 4774      7000
 4775              	.LASF30:
 4776 0536 705F6E61 		.ascii	"p_name\000"
 4776      6D6500
 4777              	.LASF56:
 4778 053d 65735F6E 		.ascii	"es_next\000"
 4778      65787400 
 4779              	.LASF69:
 4780 0545 715F6E6F 		.ascii	"q_notify\000"
 4780      74696679 
 4780      00
 4781              	.LASF37:
 4782 054e 705F6D73 		.ascii	"p_msg\000"
 4782      6700
 4783              	.LASF3:
 4784 0554 75696E74 		.ascii	"uint8_t\000"
 4784      385F7400 
 4785              	.LASF113:
 4786 055c 66756E63 		.ascii	"func_index\000"
 4786      5F696E64 
 4786      657800
 4787              	.LASF94:
 4788 0567 666C6167 		.ascii	"flags\000"
 4788      7300
 4789              	.LASF51:
 4790 056d 4576656E 		.ascii	"EventListener\000"
 4790      744C6973 
 4790      74656E65 
 4790      7200
 4791              	.LASF140:
 4792 057b 474E5520 		.ascii	"GNU C 4.5.0\000"
 4792      4320342E 
 4792      352E3000 
 4793              	.LASF59:
 4794 0587 77746F62 		.ascii	"wtobjp\000"
ARM GAS  C:\Users\z80\AppData\Local\Temp\ccmumy1p.s 			page 92


 4794      6A7000
 4795              	.LASF107:
 4796 058e 736C6173 		.ascii	"slash\000"
 4796      6800
 4797              	.LASF103:
 4798 0594 67657477 		.ascii	"getwouldblock\000"
 4798      6F756C64 
 4798      626C6F63 
 4798      6B00
 4799              	.LASF117:
 4800 05a2 61726773 		.ascii	"args\000"
 4800      00
 4801              	.LASF49:
 4802 05a7 6D5F6F77 		.ascii	"m_owner\000"
 4802      6E657200 
 4803              	.LASF27:
 4804 05af 705F6374 		.ascii	"p_ctx\000"
 4804      7800
 4805              	.LASF35:
 4806 05b5 705F7761 		.ascii	"p_waiting\000"
 4806      6974696E 
 4806      6700
 4807              		.ident	"GCC: (GNU) 4.5.0"
ARM GAS  C:\Users\z80\AppData\Local\Temp\ccmumy1p.s 			page 93


DEFINED SYMBOLS
                            *ABS*:00000000 cpu_io.c
C:\Users\z80\AppData\Local\Temp\ccmumy1p.s:24     .bss.buffer:00000000 $d
C:\Users\z80\AppData\Local\Temp\ccmumy1p.s:27     .bss.buffer:00000000 buffer
C:\Users\z80\AppData\Local\Temp\ccmumy1p.s:30     .bss.args:00000000 $d
C:\Users\z80\AppData\Local\Temp\ccmumy1p.s:33     .bss.args:00000000 args
C:\Users\z80\AppData\Local\Temp\ccmumy1p.s:36     .text.cpu_io_init:00000000 $t
C:\Users\z80\AppData\Local\Temp\ccmumy1p.s:42     .text.cpu_io_init:00000000 cpu_io_init
C:\Users\z80\AppData\Local\Temp\ccmumy1p.s:77     .text.cpu_io_process:00000000 $t
C:\Users\z80\AppData\Local\Temp\ccmumy1p.s:83     .text.cpu_io_process:00000000 cpu_io_process
C:\Users\z80\AppData\Local\Temp\ccmumy1p.s:1235   .bss.slash.3692:00000000 slash.3692
C:\Users\z80\AppData\Local\Temp\ccmumy1p.s:1241   .bss.out_index.3693:00000000 out_index.3693
C:\Users\z80\AppData\Local\Temp\ccmumy1p.s:248    .text.process_command:00000000 process_command
C:\Users\z80\AppData\Local\Temp\ccmumy1p.s:215    .text.cpu_io_process:00000110 $d
C:\Users\z80\AppData\Local\Temp\ccmumy1p.s:220    .text.funcArgs:00000000 $t
C:\Users\z80\AppData\Local\Temp\ccmumy1p.s:226    .text.funcArgs:00000000 funcArgs
C:\Users\z80\AppData\Local\Temp\ccmumy1p.s:243    .text.process_command:00000000 $t
C:\Users\z80\AppData\Local\Temp\ccmumy1p.s:346    .text.exec_func:00000000 exec_func
C:\Users\z80\AppData\Local\Temp\ccmumy1p.s:320    .data.funcs:00000000 $d
C:\Users\z80\AppData\Local\Temp\ccmumy1p.s:323    .data.funcs:00000000 funcs
C:\Users\z80\AppData\Local\Temp\ccmumy1p.s:517    .text.osc_eaux:00000000 osc_eaux
C:\Users\z80\AppData\Local\Temp\ccmumy1p.s:550    .text.osc_eref:00000000 osc_eref
C:\Users\z80\AppData\Local\Temp\ccmumy1p.s:583    .text.osc_iaux:00000000 osc_iaux
C:\Users\z80\AppData\Local\Temp\ccmumy1p.s:616    .text.osc_set_period:00000000 osc_set_period
C:\Users\z80\AppData\Local\Temp\ccmumy1p.s:671    .text.set_leds:00000000 set_leds
C:\Users\z80\AppData\Local\Temp\ccmumy1p.s:702    .text.set_out_relay:00000000 set_out_relay
C:\Users\z80\AppData\Local\Temp\ccmumy1p.s:733    .text.set_sc_relay:00000000 set_sc_relay
C:\Users\z80\AppData\Local\Temp\ccmumy1p.s:764    .text.set_dac:00000000 set_dac
C:\Users\z80\AppData\Local\Temp\ccmumy1p.s:799    .text.set_one_pulse:00000000 set_one_pulse
C:\Users\z80\AppData\Local\Temp\ccmumy1p.s:834    .text.set_meandr:00000000 set_meandr
C:\Users\z80\AppData\Local\Temp\ccmumy1p.s:869    .text.set_sweep:00000000 set_sweep
C:\Users\z80\AppData\Local\Temp\ccmumy1p.s:908    .text.hardware_version:00000000 hardware_version
C:\Users\z80\AppData\Local\Temp\ccmumy1p.s:972    .text.firmware_version:00000000 firmware_version
C:\Users\z80\AppData\Local\Temp\ccmumy1p.s:1033   .text.buffer_set_period:00000000 buffer_set_period
C:\Users\z80\AppData\Local\Temp\ccmumy1p.s:1088   .text.buffer_set_signals:00000000 buffer_set_signals
C:\Users\z80\AppData\Local\Temp\ccmumy1p.s:1122   .text.buffer_data:00000000 buffer_data
C:\Users\z80\AppData\Local\Temp\ccmumy1p.s:341    .text.exec_func:00000000 $t
C:\Users\z80\AppData\Local\Temp\ccmumy1p.s:396    .text.writeOscQueue:00000000 $t
C:\Users\z80\AppData\Local\Temp\ccmumy1p.s:401    .text.writeOscQueue:00000000 writeOscQueue
C:\Users\z80\AppData\Local\Temp\ccmumy1p.s:1155   .text.writeResult:00000000 writeResult
C:\Users\z80\AppData\Local\Temp\ccmumy1p.s:1207   .text.writeEom:00000000 writeEom
C:\Users\z80\AppData\Local\Temp\ccmumy1p.s:512    .text.osc_eaux:00000000 $t
C:\Users\z80\AppData\Local\Temp\ccmumy1p.s:545    .text.osc_eref:00000000 $t
C:\Users\z80\AppData\Local\Temp\ccmumy1p.s:578    .text.osc_iaux:00000000 $t
C:\Users\z80\AppData\Local\Temp\ccmumy1p.s:611    .text.osc_set_period:00000000 $t
C:\Users\z80\AppData\Local\Temp\ccmumy1p.s:666    .text.set_leds:00000000 $t
C:\Users\z80\AppData\Local\Temp\ccmumy1p.s:697    .text.set_out_relay:00000000 $t
C:\Users\z80\AppData\Local\Temp\ccmumy1p.s:728    .text.set_sc_relay:00000000 $t
C:\Users\z80\AppData\Local\Temp\ccmumy1p.s:759    .text.set_dac:00000000 $t
C:\Users\z80\AppData\Local\Temp\ccmumy1p.s:794    .text.set_one_pulse:00000000 $t
C:\Users\z80\AppData\Local\Temp\ccmumy1p.s:829    .text.set_meandr:00000000 $t
C:\Users\z80\AppData\Local\Temp\ccmumy1p.s:864    .text.set_sweep:00000000 $t
C:\Users\z80\AppData\Local\Temp\ccmumy1p.s:899    .rodata:00000000 $d
C:\Users\z80\AppData\Local\Temp\ccmumy1p.s:900    .rodata:00000000 .LC0
C:\Users\z80\AppData\Local\Temp\ccmumy1p.s:903    .text.hardware_version:00000000 $t
C:\Users\z80\AppData\Local\Temp\ccmumy1p.s:964    .rodata:00000010 .LC1
C:\Users\z80\AppData\Local\Temp\ccmumy1p.s:967    .text.firmware_version:00000000 $t
ARM GAS  C:\Users\z80\AppData\Local\Temp\ccmumy1p.s 			page 94


C:\Users\z80\AppData\Local\Temp\ccmumy1p.s:1028   .text.buffer_set_period:00000000 $t
C:\Users\z80\AppData\Local\Temp\ccmumy1p.s:1083   .text.buffer_set_signals:00000000 $t
C:\Users\z80\AppData\Local\Temp\ccmumy1p.s:1117   .text.buffer_data:00000000 $t
C:\Users\z80\AppData\Local\Temp\ccmumy1p.s:1150   .text.writeResult:00000000 $t
C:\Users\z80\AppData\Local\Temp\ccmumy1p.s:1197   .text.writeResult:0000003c $d
C:\Users\z80\AppData\Local\Temp\ccmumy1p.s:1202   .text.writeEom:00000000 $t
C:\Users\z80\AppData\Local\Temp\ccmumy1p.s:1228   .text.writeEom:00000014 $d
C:\Users\z80\AppData\Local\Temp\ccmumy1p.s:1236   .bss.slash.3692:00000000 $d
C:\Users\z80\AppData\Local\Temp\ccmumy1p.s:1238   .bss.out_index.3693:00000000 $d
                     .debug_frame:00000010 $d
C:\Users\z80\AppData\Local\Temp\ccmumy1p.s:219    .text.cpu_io_process:00000114 $t
C:\Users\z80\AppData\Local\Temp\ccmumy1p.s:1232   .text.writeEom:00000018 $t

UNDEFINED SYMBOLS
SD1
sdStart
_pal_lld_setgroupmode
chIQGetTimeout
dbg_check_lock
dbg_check_unlock
eauxQueue
erefQueue
iauxQueue
setOscPeriod
setLeds
setOutRelay
setScRelay
commandQueue
chOQPutTimeout
setBufferPeriod
setBufferSigMask
bufferQueue
