ARM GAS  C:\Users\z80\AppData\Local\Temp\ccuP4NIp.s 			page 1


   1              		.syntax unified
   2              		.cpu cortex-m3
   3              		.fpu softvfp
   4              		.eabi_attribute 20, 1
   5              		.eabi_attribute 21, 1
   6              		.eabi_attribute 23, 3
   7              		.eabi_attribute 24, 1
   8              		.eabi_attribute 25, 1
   9              		.eabi_attribute 26, 1
  10              		.eabi_attribute 30, 2
  11              		.eabi_attribute 18, 4
  12              		.thumb
  13              		.file	"cpu_io.c"
  14              		.section	.debug_abbrev,"",%progbits
  15              	.Ldebug_abbrev0:
  16              		.section	.debug_info,"",%progbits
  17              	.Ldebug_info0:
  18              		.section	.debug_line,"",%progbits
  19              	.Ldebug_line0:
  20 0000 0B040000 		.text
  20      02005B02 
  20      00000201 
  20      FB0E0D00 
  20      01010101 
  21              	.Ltext0:
  22              		.cfi_sections	.debug_frame
  23              		.section	.text.writeResult,"ax",%progbits
  24              		.align	2
  25              		.p2align 4,,15
  26              		.thumb
  27              		.thumb_func
  28              		.type	writeResult, %function
  29              	writeResult:
  30              	.LFB81:
  31              		.file 1 "./src/cpu_io.c"
  32              		.loc 1 265 0
  33              		.cfi_startproc
  34              		@ args = 0, pretend = 0, frame = 0
  35              		@ frame_needed = 0, uses_anonymous_args = 0
  36              	.LVL0:
  37              		.loc 1 266 0
  38 0000 D0F10103 		rsbs	r3, r0, #1
  39 0004 38BF     		it	cc
  40 0006 0023     		movcc	r3, #0
  41 0008 5C28     		cmp	r0, #92
  42 000a 08BF     		it	eq
  43 000c 43F00103 		orreq	r3, r3, #1
  44              		.loc 1 265 0
  45 0010 10B5     		push	{r4, lr}
  46              	.LCFI0:
  47              		.cfi_def_cfa_offset 8
  48              		.loc 1 265 0
  49 0012 0446     		mov	r4, r0
  50              		.cfi_offset 14, -4
  51              		.cfi_offset 4, -8
  52              		.loc 1 266 0
  53 0014 2BB1     		cbz	r3, .L2
ARM GAS  C:\Users\z80\AppData\Local\Temp\ccuP4NIp.s 			page 2


  54              		.loc 1 267 0
  55 0016 0648     		ldr	r0, .L4
  56              	.LVL1:
  57 0018 5C21     		movs	r1, #92
  58 001a 4FF0FF32 		mov	r2, #-1
  59 001e FFF7FEFF 		bl	chOQPutTimeout
  60              	.L2:
  61              		.loc 1 268 0
  62 0022 2146     		mov	r1, r4
  63 0024 4FF0FF32 		mov	r2, #-1
  64 0028 0148     		ldr	r0, .L4
  65 002a FFF7FEFF 		bl	chOQPutTimeout
  66              		.loc 1 269 0
  67 002e 10BD     		pop	{r4, pc}
  68              	.L5:
  69              		.align	2
  70              	.L4:
  71 0030 30000000 		.word	SD1+48
  72              		.cfi_endproc
  73              	.LFE81:
  74              		.size	writeResult, .-writeResult
  75 0034 AFF30080 		.section	.text.writeEom,"ax",%progbits
  75      AFF30080 
  75      AFF30080 
  76              		.align	2
  77              		.p2align 4,,15
  78              		.thumb
  79              		.thumb_func
  80              		.type	writeEom, %function
  81              	writeEom:
  82              	.LFB82:
  83              		.loc 1 272 0
  84              		.cfi_startproc
  85              		@ args = 0, pretend = 0, frame = 0
  86              		@ frame_needed = 0, uses_anonymous_args = 0
  87 0000 08B5     		push	{r3, lr}
  88              	.LCFI1:
  89              		.cfi_def_cfa_offset 8
  90              		.loc 1 273 0
  91 0002 0021     		movs	r1, #0
  92 0004 4FF0FF32 		mov	r2, #-1
  93 0008 0148     		ldr	r0, .L7
  94              		.cfi_offset 14, -4
  95              		.cfi_offset 3, -8
  96 000a FFF7FEFF 		bl	chOQPutTimeout
  97              		.loc 1 274 0
  98 000e 08BD     		pop	{r3, pc}
  99              	.L8:
 100              		.align	2
 101              	.L7:
 102 0010 30000000 		.word	SD1+48
 103              		.cfi_endproc
 104              	.LFE82:
 105              		.size	writeEom, .-writeEom
 106 0014 AFF30080 		.section	.text.firmware_version,"ax",%progbits
 106      AFF30080 
 106      AFF30080 
ARM GAS  C:\Users\z80\AppData\Local\Temp\ccuP4NIp.s 			page 3


 107              		.align	2
 108              		.p2align 4,,15
 109              		.thumb
 110              		.thumb_func
 111              		.type	firmware_version, %function
 112              	firmware_version:
 113              	.LFB80:
 114              		.loc 1 249 0
 115              		.cfi_startproc
 116              		@ args = 0, pretend = 0, frame = 8
 117              		@ frame_needed = 0, uses_anonymous_args = 0
 118              	.LVL2:
 119 0000 30B5     		push	{r4, r5, lr}
 120              	.LCFI2:
 121              		.cfi_def_cfa_offset 12
 122              		.loc 1 251 0
 123 0002 0A4B     		ldr	r3, .L12
 124              		.loc 1 249 0
 125 0004 83B0     		sub	sp, sp, #12
 126              	.LCFI3:
 127              		.cfi_def_cfa_offset 24
 128              		.loc 1 251 0
 129 0006 02AD     		add	r5, sp, #8
 130              		.cfi_offset 14, -4
 131              		.cfi_offset 5, -8
 132              		.cfi_offset 4, -12
 133 0008 93E80300 		ldmia	r3, {r0, r1}
 134              	.LVL3:
 135 000c 45F8080D 		str	r0, [r5, #-8]!
 136 0010 6C1E     		subs	r4, r5, #1
 137 0012 ADF80410 		strh	r1, [sp, #4]	@ movhi
 138              	.LVL4:
 139              		.loc 1 248 0
 140 0016 0435     		adds	r5, r5, #4
 141              	.LVL5:
 142              	.L10:
 143              		.loc 1 255 0 discriminator 2
 144 0018 14F8010F 		ldrb	r0, [r4, #1]!	@ zero_extendqisi2
 145 001c FFF7FEFF 		bl	writeResult
 146              		.loc 1 254 0 discriminator 2
 147 0020 AC42     		cmp	r4, r5
 148 0022 F9D1     		bne	.L10
 149              		.loc 1 256 0
 150 0024 FFF7FEFF 		bl	writeEom
 151              		.loc 1 257 0
 152 0028 03B0     		add	sp, sp, #12
 153 002a 30BD     		pop	{r4, r5, pc}
 154              	.L13:
 155              		.align	2
 156              	.L12:
 157 002c 00000000 		.word	.LC0
 158              		.cfi_endproc
 159              	.LFE80:
 160              		.size	firmware_version, .-firmware_version
 161              		.section	.text.hardware_version,"ax",%progbits
 162              		.align	2
 163              		.p2align 4,,15
ARM GAS  C:\Users\z80\AppData\Local\Temp\ccuP4NIp.s 			page 4


 164              		.thumb
 165              		.thumb_func
 166              		.type	hardware_version, %function
 167              	hardware_version:
 168              	.LFB79:
 169              		.loc 1 238 0
 170              		.cfi_startproc
 171              		@ args = 0, pretend = 0, frame = 16
 172              		@ frame_needed = 0, uses_anonymous_args = 0
 173              	.LVL6:
 174 0000 30B5     		push	{r4, r5, lr}
 175              	.LCFI4:
 176              		.cfi_def_cfa_offset 12
 177              		.loc 1 240 0
 178 0002 0A4B     		ldr	r3, .L17
 179              		.loc 1 238 0
 180 0004 85B0     		sub	sp, sp, #20
 181              	.LCFI5:
 182              		.cfi_def_cfa_offset 32
 183              		.loc 1 240 0
 184 0006 EC46     		mov	ip, sp
 185 0008 0FCB     		ldmia	r3, {r0, r1, r2, r3}
 186              	.LVL7:
 187 000a ACE80700 		stmia	ip!, {r0, r1, r2}
 188 000e 6D46     		mov	r5, sp
 189              		.cfi_offset 14, -4
 190              		.cfi_offset 5, -8
 191              		.cfi_offset 4, -12
 192 0010 6C1E     		subs	r4, r5, #1
 193 0012 ACF80030 		strh	r3, [ip, #0]	@ movhi
 194              	.LVL8:
 195              		.loc 1 237 0
 196 0016 6546     		mov	r5, ip
 197              	.LVL9:
 198              	.L15:
 199              		.loc 1 244 0 discriminator 2
 200 0018 14F8010F 		ldrb	r0, [r4, #1]!	@ zero_extendqisi2
 201 001c FFF7FEFF 		bl	writeResult
 202              		.loc 1 243 0 discriminator 2
 203 0020 AC42     		cmp	r4, r5
 204 0022 F9D1     		bne	.L15
 205              		.loc 1 245 0
 206 0024 FFF7FEFF 		bl	writeEom
 207              		.loc 1 246 0
 208 0028 05B0     		add	sp, sp, #20
 209 002a 30BD     		pop	{r4, r5, pc}
 210              	.L18:
 211              		.align	2
 212              	.L17:
 213 002c 08000000 		.word	.LC1
 214              		.cfi_endproc
 215              	.LFE79:
 216              		.size	hardware_version, .-hardware_version
 217              		.section	.text.set_sweep,"ax",%progbits
 218              		.align	2
 219              		.p2align 4,,15
 220              		.thumb
ARM GAS  C:\Users\z80\AppData\Local\Temp\ccuP4NIp.s 			page 5


 221              		.thumb_func
 222              		.type	set_sweep, %function
 223              	set_sweep:
 224              	.LFB78:
 225              		.loc 1 231 0
 226              		.cfi_startproc
 227              		@ args = 0, pretend = 0, frame = 0
 228              		@ frame_needed = 0, uses_anonymous_args = 0
 229              	.LVL10:
 230 0000 08B5     		push	{r3, lr}
 231              	.LCFI6:
 232              		.cfi_def_cfa_offset 8
 233              		.loc 1 233 0
 234              		.cfi_offset 14, -4
 235              		.cfi_offset 3, -8
 236 0002 FFF7FEFF 		bl	commandQueue
 237              	.LVL11:
 238              		.loc 1 234 0
 239 0006 0321     		movs	r1, #3
 240 0008 4FF0FF32 		mov	r2, #-1
 241 000c FFF7FEFF 		bl	chOQPutTimeout
 242              	.LVL12:
 243              		.loc 1 235 0
 244 0010 08BD     		pop	{r3, pc}
 245              		.cfi_endproc
 246              	.LFE78:
 247              		.size	set_sweep, .-set_sweep
 248 0012 00BFAFF3 		.section	.text.set_meandr,"ax",%progbits
 248      0080AFF3 
 248      0080AFF3 
 248      0080
 249              		.align	2
 250              		.p2align 4,,15
 251              		.thumb
 252              		.thumb_func
 253              		.type	set_meandr, %function
 254              	set_meandr:
 255              	.LFB77:
 256              		.loc 1 224 0
 257              		.cfi_startproc
 258              		@ args = 0, pretend = 0, frame = 0
 259              		@ frame_needed = 0, uses_anonymous_args = 0
 260              	.LVL13:
 261 0000 08B5     		push	{r3, lr}
 262              	.LCFI7:
 263              		.cfi_def_cfa_offset 8
 264              		.loc 1 226 0
 265              		.cfi_offset 14, -4
 266              		.cfi_offset 3, -8
 267 0002 FFF7FEFF 		bl	commandQueue
 268              	.LVL14:
 269              		.loc 1 227 0
 270 0006 0221     		movs	r1, #2
 271 0008 4FF0FF32 		mov	r2, #-1
 272 000c FFF7FEFF 		bl	chOQPutTimeout
 273              	.LVL15:
 274              		.loc 1 228 0
ARM GAS  C:\Users\z80\AppData\Local\Temp\ccuP4NIp.s 			page 6


 275 0010 08BD     		pop	{r3, pc}
 276              		.cfi_endproc
 277              	.LFE77:
 278              		.size	set_meandr, .-set_meandr
 279 0012 00BFAFF3 		.section	.text.set_one_pulse,"ax",%progbits
 279      0080AFF3 
 279      0080AFF3 
 279      0080
 280              		.align	2
 281              		.p2align 4,,15
 282              		.thumb
 283              		.thumb_func
 284              		.type	set_one_pulse, %function
 285              	set_one_pulse:
 286              	.LFB76:
 287              		.loc 1 217 0
 288              		.cfi_startproc
 289              		@ args = 0, pretend = 0, frame = 0
 290              		@ frame_needed = 0, uses_anonymous_args = 0
 291              	.LVL16:
 292 0000 08B5     		push	{r3, lr}
 293              	.LCFI8:
 294              		.cfi_def_cfa_offset 8
 295              		.loc 1 219 0
 296              		.cfi_offset 14, -4
 297              		.cfi_offset 3, -8
 298 0002 FFF7FEFF 		bl	commandQueue
 299              	.LVL17:
 300              		.loc 1 220 0
 301 0006 0121     		movs	r1, #1
 302 0008 4FF0FF32 		mov	r2, #-1
 303 000c FFF7FEFF 		bl	chOQPutTimeout
 304              	.LVL18:
 305              		.loc 1 221 0
 306 0010 08BD     		pop	{r3, pc}
 307              		.cfi_endproc
 308              	.LFE76:
 309              		.size	set_one_pulse, .-set_one_pulse
 310 0012 00BFAFF3 		.section	.text.set_dac,"ax",%progbits
 310      0080AFF3 
 310      0080AFF3 
 310      0080
 311              		.align	2
 312              		.p2align 4,,15
 313              		.thumb
 314              		.thumb_func
 315              		.type	set_dac, %function
 316              	set_dac:
 317              	.LFB75:
 318              		.loc 1 210 0
 319              		.cfi_startproc
 320              		@ args = 0, pretend = 0, frame = 0
 321              		@ frame_needed = 0, uses_anonymous_args = 0
 322              	.LVL19:
 323 0000 08B5     		push	{r3, lr}
 324              	.LCFI9:
 325              		.cfi_def_cfa_offset 8
ARM GAS  C:\Users\z80\AppData\Local\Temp\ccuP4NIp.s 			page 7


 326              		.loc 1 212 0
 327              		.cfi_offset 14, -4
 328              		.cfi_offset 3, -8
 329 0002 FFF7FEFF 		bl	commandQueue
 330              	.LVL20:
 331              		.loc 1 213 0
 332 0006 0021     		movs	r1, #0
 333 0008 4FF0FF32 		mov	r2, #-1
 334 000c FFF7FEFF 		bl	chOQPutTimeout
 335              	.LVL21:
 336              		.loc 1 214 0
 337 0010 08BD     		pop	{r3, pc}
 338              		.cfi_endproc
 339              	.LFE75:
 340              		.size	set_dac, .-set_dac
 341 0012 00BFAFF3 		.section	.text.set_sc_relay,"ax",%progbits
 341      0080AFF3 
 341      0080AFF3 
 341      0080
 342              		.align	2
 343              		.p2align 4,,15
 344              		.thumb
 345              		.thumb_func
 346              		.type	set_sc_relay, %function
 347              	set_sc_relay:
 348              	.LFB74:
 349              		.loc 1 205 0
 350              		.cfi_startproc
 351              		@ args = 0, pretend = 0, frame = 0
 352              		@ frame_needed = 0, uses_anonymous_args = 0
 353              	.LVL22:
 354 0000 08B5     		push	{r3, lr}
 355              	.LCFI10:
 356              		.cfi_def_cfa_offset 8
 357              		.loc 1 206 0
 358 0002 0078     		ldrb	r0, [r0, #0]	@ zero_extendqisi2
 359              	.LVL23:
 360              		.cfi_offset 14, -4
 361              		.cfi_offset 3, -8
 362 0004 FFF7FEFF 		bl	setScRelay
 363              		.loc 1 207 0
 364 0008 08BD     		pop	{r3, pc}
 365              		.cfi_endproc
 366              	.LFE74:
 367              		.size	set_sc_relay, .-set_sc_relay
 368 000a 00BFAFF3 		.section	.text.set_out_relay,"ax",%progbits
 368      0080
 369              		.align	2
 370              		.p2align 4,,15
 371              		.thumb
 372              		.thumb_func
 373              		.type	set_out_relay, %function
 374              	set_out_relay:
 375              	.LFB73:
 376              		.loc 1 200 0
 377              		.cfi_startproc
 378              		@ args = 0, pretend = 0, frame = 0
ARM GAS  C:\Users\z80\AppData\Local\Temp\ccuP4NIp.s 			page 8


 379              		@ frame_needed = 0, uses_anonymous_args = 0
 380              	.LVL24:
 381 0000 08B5     		push	{r3, lr}
 382              	.LCFI11:
 383              		.cfi_def_cfa_offset 8
 384              		.loc 1 201 0
 385 0002 0078     		ldrb	r0, [r0, #0]	@ zero_extendqisi2
 386              	.LVL25:
 387              		.cfi_offset 14, -4
 388              		.cfi_offset 3, -8
 389 0004 FFF7FEFF 		bl	setOutRelay
 390              		.loc 1 202 0
 391 0008 08BD     		pop	{r3, pc}
 392              		.cfi_endproc
 393              	.LFE73:
 394              		.size	set_out_relay, .-set_out_relay
 395 000a 00BFAFF3 		.section	.text.set_leds,"ax",%progbits
 395      0080
 396              		.align	2
 397              		.p2align 4,,15
 398              		.thumb
 399              		.thumb_func
 400              		.type	set_leds, %function
 401              	set_leds:
 402              	.LFB72:
 403              		.loc 1 195 0
 404              		.cfi_startproc
 405              		@ args = 0, pretend = 0, frame = 0
 406              		@ frame_needed = 0, uses_anonymous_args = 0
 407              	.LVL26:
 408 0000 08B5     		push	{r3, lr}
 409              	.LCFI12:
 410              		.cfi_def_cfa_offset 8
 411              		.loc 1 196 0
 412 0002 0078     		ldrb	r0, [r0, #0]	@ zero_extendqisi2
 413              	.LVL27:
 414              		.cfi_offset 14, -4
 415              		.cfi_offset 3, -8
 416 0004 FFF7FEFF 		bl	setLeds
 417              		.loc 1 197 0
 418 0008 08BD     		pop	{r3, pc}
 419              		.cfi_endproc
 420              	.LFE72:
 421              		.size	set_leds, .-set_leds
 422 000a 00BFAFF3 		.section	.text.osc_set_period,"ax",%progbits
 422      0080
 423              		.align	2
 424              		.p2align 4,,15
 425              		.thumb
 426              		.thumb_func
 427              		.type	osc_set_period, %function
 428              	osc_set_period:
 429              	.LFB71:
 430              		.loc 1 184 0
 431              		.cfi_startproc
 432              		@ args = 0, pretend = 0, frame = 0
 433              		@ frame_needed = 0, uses_anonymous_args = 0
ARM GAS  C:\Users\z80\AppData\Local\Temp\ccuP4NIp.s 			page 9


 434              	.LVL28:
 435 0000 08B5     		push	{r3, lr}
 436              	.LCFI13:
 437              		.cfi_def_cfa_offset 8
 438              		.loc 1 189 0
 439 0002 8178     		ldrb	r1, [r0, #2]	@ zero_extendqisi2
 440              		.loc 1 188 0
 441 0004 4378     		ldrb	r3, [r0, #1]	@ zero_extendqisi2
 442              		.cfi_offset 14, -4
 443              		.cfi_offset 3, -8
 444              		.loc 1 189 0
 445 0006 0904     		lsls	r1, r1, #16
 446              		.loc 1 187 0
 447 0008 0278     		ldrb	r2, [r0, #0]	@ zero_extendqisi2
 448 000a 01EB0321 		add	r1, r1, r3, lsl #8
 449              		.loc 1 190 0
 450 000e C378     		ldrb	r3, [r0, #3]	@ zero_extendqisi2
 451              		.loc 1 188 0
 452 0010 8818     		adds	r0, r1, r2
 453              	.LVL29:
 454              		.loc 1 187 0
 455 0012 00EB0360 		add	r0, r0, r3, lsl #24
 456              		.loc 1 191 0
 457 0016 FFF7FEFF 		bl	setOscPeriod
 458              		.loc 1 192 0
 459 001a 08BD     		pop	{r3, pc}
 460              		.cfi_endproc
 461              	.LFE71:
 462              		.size	osc_set_period, .-osc_set_period
 463 001c AFF30080 		.section	.text.writeOscQueue,"ax",%progbits
 464              		.align	2
 465              		.p2align 4,,15
 466              		.thumb
 467              		.thumb_func
 468              		.type	writeOscQueue, %function
 469              	writeOscQueue:
 470              	.LFB67:
 471              		.loc 1 144 0
 472              		.cfi_startproc
 473              		@ args = 0, pretend = 0, frame = 0
 474              		@ frame_needed = 0, uses_anonymous_args = 0
 475              	.LVL30:
 476 0000 70B5     		push	{r4, r5, r6, lr}
 477              	.LCFI14:
 478              		.cfi_def_cfa_offset 16
 479              	.LBB9:
 480              		.loc 1 148 0
 481 0002 2023     		movs	r3, #32
 482              	.LVL31:
 483              	.LBE9:
 484              		.loc 1 144 0
 485 0004 0546     		mov	r5, r0
 486              		.cfi_offset 14, -4
 487              		.cfi_offset 6, -8
 488              		.cfi_offset 5, -12
 489              		.cfi_offset 4, -16
 490              	.LBB10:
ARM GAS  C:\Users\z80\AppData\Local\Temp\ccuP4NIp.s 			page 10


 491              		.loc 1 148 0
 492              	@ 148 "./src/cpu_io.c" 1
 493 0006 83F31188 		msr     BASEPRI, r3
 494              	@ 0 "" 2
 495              	.LVL32:
 496              		.thumb
 497              	.LBE10:
 498 000a FFF7FEFF 		bl	dbg_check_lock
 499              	.LVL33:
 500              		.loc 1 149 0
 501 000e AC68     		ldr	r4, [r5, #8]
 502              		.loc 1 150 0
 503 0010 FFF7FEFF 		bl	dbg_check_unlock
 504              		.loc 1 149 0
 505 0014 24F00104 		bic	r4, r4, #1
 506              	.LVL34:
 507              	.LBB11:
 508              		.loc 1 150 0
 509 0018 0023     		movs	r3, #0
 510              	.LVL35:
 511              	@ 150 "./src/cpu_io.c" 1
 512 001a 83F31188 		msr     BASEPRI, r3
 513              	@ 0 "" 2
 514              	.LVL36:
 515              		.thumb
 516              	.LBE11:
 517              		.loc 1 151 0
 518 001e 74B1     		cbz	r4, .L28
 519 0020 1E46     		mov	r6, r3
 520              	.LVL37:
 521              	.L30:
 522              	.LBB12:
 523              		.loc 1 153 0
 524 0022 0021     		movs	r1, #0
 525 0024 2846     		mov	r0, r5
 526 0026 FFF7FEFF 		bl	chIQGetTimeout
 527              	.LVL38:
 528              		.loc 1 154 0
 529 002a 831C     		adds	r3, r0, #2
 530              		.loc 1 156 0
 531 002c 012B     		cmp	r3, #1
 532 002e 8CBF     		ite	hi
 533 0030 C0B2     		uxtbhi	r0, r0
 534              	.LVL39:
 535 0032 0020     		movls	r0, #0
 536              	.LVL40:
 537              	.LBE12:
 538              		.loc 1 151 0
 539 0034 0136     		adds	r6, r6, #1
 540              	.LBB13:
 541              		.loc 1 157 0
 542 0036 FFF7FEFF 		bl	writeResult
 543              	.LVL41:
 544              	.LBE13:
 545              		.loc 1 151 0
 546 003a B442     		cmp	r4, r6
 547 003c F1D8     		bhi	.L30
ARM GAS  C:\Users\z80\AppData\Local\Temp\ccuP4NIp.s 			page 11


 548              	.LVL42:
 549              	.L28:
 550              		.loc 1 159 0
 551 003e FFF7FEFF 		bl	writeEom
 552              	.LVL43:
 553              		.loc 1 160 0
 554 0042 70BD     		pop	{r4, r5, r6, pc}
 555              		.cfi_endproc
 556              	.LFE67:
 557              		.size	writeOscQueue, .-writeOscQueue
 558 0044 AFF30080 		.section	.text.osc_iaux,"ax",%progbits
 558      AFF30080 
 558      AFF30080 
 559              		.align	2
 560              		.p2align 4,,15
 561              		.thumb
 562              		.thumb_func
 563              		.type	osc_iaux, %function
 564              	osc_iaux:
 565              	.LFB70:
 566              		.loc 1 177 0
 567              		.cfi_startproc
 568              		@ args = 0, pretend = 0, frame = 0
 569              		@ frame_needed = 0, uses_anonymous_args = 0
 570              	.LVL44:
 571 0000 08B5     		push	{r3, lr}
 572              	.LCFI15:
 573              		.cfi_def_cfa_offset 8
 574              		.loc 1 179 0
 575              		.cfi_offset 14, -4
 576              		.cfi_offset 3, -8
 577 0002 FFF7FEFF 		bl	iauxQueue
 578              	.LVL45:
 579              		.loc 1 180 0
 580 0006 FFF7FEFF 		bl	writeOscQueue
 581              	.LVL46:
 582              		.loc 1 181 0
 583 000a 08BD     		pop	{r3, pc}
 584              		.cfi_endproc
 585              	.LFE70:
 586              		.size	osc_iaux, .-osc_iaux
 587 000c AFF30080 		.section	.text.osc_eref,"ax",%progbits
 588              		.align	2
 589              		.p2align 4,,15
 590              		.thumb
 591              		.thumb_func
 592              		.type	osc_eref, %function
 593              	osc_eref:
 594              	.LFB69:
 595              		.loc 1 170 0
 596              		.cfi_startproc
 597              		@ args = 0, pretend = 0, frame = 0
 598              		@ frame_needed = 0, uses_anonymous_args = 0
 599              	.LVL47:
 600 0000 08B5     		push	{r3, lr}
 601              	.LCFI16:
 602              		.cfi_def_cfa_offset 8
ARM GAS  C:\Users\z80\AppData\Local\Temp\ccuP4NIp.s 			page 12


 603              		.loc 1 172 0
 604              		.cfi_offset 14, -4
 605              		.cfi_offset 3, -8
 606 0002 FFF7FEFF 		bl	erefQueue
 607              	.LVL48:
 608              		.loc 1 173 0
 609 0006 FFF7FEFF 		bl	writeOscQueue
 610              	.LVL49:
 611              		.loc 1 174 0
 612 000a 08BD     		pop	{r3, pc}
 613              		.cfi_endproc
 614              	.LFE69:
 615              		.size	osc_eref, .-osc_eref
 616 000c AFF30080 		.section	.text.osc_eaux,"ax",%progbits
 617              		.align	2
 618              		.p2align 4,,15
 619              		.thumb
 620              		.thumb_func
 621              		.type	osc_eaux, %function
 622              	osc_eaux:
 623              	.LFB68:
 624              		.loc 1 163 0
 625              		.cfi_startproc
 626              		@ args = 0, pretend = 0, frame = 0
 627              		@ frame_needed = 0, uses_anonymous_args = 0
 628              	.LVL50:
 629 0000 08B5     		push	{r3, lr}
 630              	.LCFI17:
 631              		.cfi_def_cfa_offset 8
 632              		.loc 1 165 0
 633              		.cfi_offset 14, -4
 634              		.cfi_offset 3, -8
 635 0002 FFF7FEFF 		bl	eauxQueue
 636              	.LVL51:
 637              		.loc 1 166 0
 638 0006 FFF7FEFF 		bl	writeOscQueue
 639              	.LVL52:
 640              		.loc 1 167 0
 641 000a 08BD     		pop	{r3, pc}
 642              		.cfi_endproc
 643              	.LFE68:
 644              		.size	osc_eaux, .-osc_eaux
 645 000c AFF30080 		.section	.text.cpu_io_init,"ax",%progbits
 646              		.align	2
 647              		.p2align 4,,15
 648              		.global	cpu_io_init
 649              		.thumb
 650              		.thumb_func
 651              		.type	cpu_io_init, %function
 652              	cpu_io_init:
 653              	.LFB62:
 654              		.loc 1 34 0
 655              		.cfi_startproc
 656              		@ args = 0, pretend = 0, frame = 0
 657              		@ frame_needed = 0, uses_anonymous_args = 0
 658              		.loc 1 36 0
 659 0000 40F20000 		movw	r0, #:lower16:SD1
ARM GAS  C:\Users\z80\AppData\Local\Temp\ccuP4NIp.s 			page 13


 660              		.loc 1 34 0
 661 0004 08B5     		push	{r3, lr}
 662              	.LCFI18:
 663              		.cfi_def_cfa_offset 8
 664              		.loc 1 36 0
 665 0006 C0F20000 		movt	r0, #:upper16:SD1
 666 000a 0021     		movs	r1, #0
 667              		.cfi_offset 14, -4
 668              		.cfi_offset 3, -8
 669 000c FFF7FEFF 		bl	sdStart
 670              		.loc 1 37 0
 671 0010 08BD     		pop	{r3, pc}
 672              		.cfi_endproc
 673              	.LFE62:
 674              		.size	cpu_io_init, .-cpu_io_init
 675 0012 00BFAFF3 		.section	.text.cpu_io_process,"ax",%progbits
 675      0080AFF3 
 675      0080AFF3 
 675      0080
 676              		.align	2
 677              		.p2align 4,,15
 678              		.global	cpu_io_process
 679              		.thumb
 680              		.thumb_func
 681              		.type	cpu_io_process, %function
 682              	cpu_io_process:
 683              	.LFB63:
 684              		.loc 1 40 0
 685              		.cfi_startproc
 686              		@ args = 0, pretend = 0, frame = 0
 687              		@ frame_needed = 0, uses_anonymous_args = 0
 688              	.LVL53:
 689 0000 08B5     		push	{r3, lr}
 690              	.LCFI19:
 691              		.cfi_def_cfa_offset 8
 692              		.loc 1 48 0
 693 0002 0021     		movs	r1, #0
 694 0004 0D48     		ldr	r0, .L43
 695              		.cfi_offset 14, -4
 696              		.cfi_offset 3, -8
 697 0006 FFF7FEFF 		bl	chIQGetTimeout
 698              	.LVL54:
 699              		.loc 1 49 0
 700 000a 831C     		adds	r3, r0, #2
 701              		.loc 1 50 0
 702 000c 012B     		cmp	r3, #1
 703 000e 05D9     		bls	.L37
 704              	.LBB14:
 705              		.loc 1 52 0
 706 0010 C0B2     		uxtb	r0, r0
 707              	.LVL55:
 708              		.loc 1 56 0
 709 0012 20B9     		cbnz	r0, .L39
 710              	.LVL56:
 711              	.LBB15:
 712              	.LBB16:
 713              		.loc 1 88 0
ARM GAS  C:\Users\z80\AppData\Local\Temp\ccuP4NIp.s 			page 14


 714 0014 0A4B     		ldr	r3, .L43+4
 715              	.LVL57:
 716              		.loc 1 90 0
 717 0016 1A78     		ldrb	r2, [r3, #0]	@ zero_extendqisi2
 718 0018 022A     		cmp	r2, #2
 719 001a 05D0     		beq	.L42
 720              	.LVL58:
 721              	.L37:
 722              	.LBE16:
 723              	.LBE15:
 724              	.LBE14:
 725              		.loc 1 75 0
 726 001c 08BD     		pop	{r3, pc}
 727              	.LVL59:
 728              	.L39:
 729              	.LBB21:
 730              		.loc 1 62 0
 731 001e 5C28     		cmp	r0, #92
 732              		.loc 1 63 0
 733 0020 1CBF     		itt	ne
 734 0022 074B     		ldrne	r3, .L43+4
 735              	.LVL60:
 736 0024 1870     		strbne	r0, [r3, #0]
 737              	.LVL61:
 738 0026 F9E7     		b	.L37
 739              	.LVL62:
 740              	.L42:
 741              	.LBB20:
 742              	.LBB19:
 743              	.LBB17:
 744              	.LBB18:
 745              		.loc 1 136 0
 746 0028 5B78     		ldrb	r3, [r3, #1]	@ zero_extendqisi2
 747              	.LVL63:
 748              		.loc 1 140 0
 749 002a 064A     		ldr	r2, .L43+8
 750              		.loc 1 139 0
 751 002c 0C2B     		cmp	r3, #12
 752 002e C8BF     		it	gt
 753 0030 0023     		movgt	r3, #0
 754              	.LVL64:
 755              		.loc 1 140 0
 756 0032 52F82330 		ldr	r3, [r2, r3, lsl #2]
 757              	.LVL65:
 758 0036 0448     		ldr	r0, .L43+12
 759              	.LVL66:
 760 0038 9847     		blx	r3
 761              	.LVL67:
 762 003a EFE7     		b	.L37
 763              	.L44:
 764              		.align	2
 765              	.L43:
 766 003c 10000000 		.word	SD1+16
 767 0040 00000000 		.word	.LANCHOR0
 768 0044 00000000 		.word	.LANCHOR1
 769 0048 00000000 		.word	.LANCHOR2
 770              	.LBE18:
ARM GAS  C:\Users\z80\AppData\Local\Temp\ccuP4NIp.s 			page 15


 771              	.LBE17:
 772              	.LBE19:
 773              	.LBE20:
 774              	.LBE21:
 775              		.cfi_endproc
 776              	.LFE63:
 777              		.size	cpu_io_process, .-cpu_io_process
 778 004c AFF30080 		.section	.text.funcArgs,"ax",%progbits
 779              		.align	2
 780              		.p2align 4,,15
 781              		.global	funcArgs
 782              		.thumb
 783              		.thumb_func
 784              		.type	funcArgs, %function
 785              	funcArgs:
 786              	.LFB64:
 787              		.loc 1 78 0
 788              		.cfi_startproc
 789              		@ args = 0, pretend = 0, frame = 0
 790              		@ frame_needed = 0, uses_anonymous_args = 0
 791              		@ link register save eliminated.
 792              		.loc 1 79 0
 793 0000 40F20000 		movw	r0, #:lower16:.LANCHOR2
 794 0004 C0F20000 		movt	r0, #:upper16:.LANCHOR2
 795              		.loc 1 80 0
 796 0008 7047     		bx	lr
 797              		.cfi_endproc
 798              	.LFE64:
 799              		.size	funcArgs, .-funcArgs
 800 000a 00BFAFF3 		.section	.rodata.funcs,"a",%progbits
 800      0080
 801              		.align	2
 802              		.set	.LANCHOR1,. + 0
 803              		.type	funcs, %object
 804              		.size	funcs, 52
 805              	funcs:
 806 0000 00000000 		.word	osc_eaux
 807 0004 00000000 		.word	osc_eref
 808 0008 00000000 		.word	osc_iaux
 809 000c 00000000 		.word	osc_set_period
 810 0010 00000000 		.word	set_leds
 811 0014 00000000 		.word	set_out_relay
 812 0018 00000000 		.word	set_sc_relay
 813 001c 00000000 		.word	set_dac
 814 0020 00000000 		.word	set_one_pulse
 815 0024 00000000 		.word	set_meandr
 816 0028 00000000 		.word	set_sweep
 817 002c 00000000 		.word	hardware_version
 818 0030 00000000 		.word	firmware_version
 819              		.section	.bss.buffer,"aw",%nobits
 820              		.align	2
 821              		.set	.LANCHOR0,. + 0
 822              		.type	buffer, %object
 823              		.size	buffer, 32
 824              	buffer:
 825 0000 00000000 		.space	32
 825      00000000 
ARM GAS  C:\Users\z80\AppData\Local\Temp\ccuP4NIp.s 			page 16


 825      00000000 
 825      00000000 
 825      00000000 
 826              		.section	.rodata.str1.4,"aMS",%progbits,1
 827              		.align	2
 828              	.LC0:
 829 0000 302E302E 		.ascii	"0.0.1\000"
 829      3100
 830 0006 0000     		.space	2
 831              	.LC1:
 832 0008 766F6C74 		.ascii	"voltamp-1.0.0\000"
 832      616D702D 
 832      312E302E 
 832      3000
 833 0016 0000     		.section	.bss.args,"aw",%nobits
 834              		.align	2
 835              		.set	.LANCHOR2,. + 0
 836              		.type	args, %object
 837              		.size	args, 32
 838              	args:
 839 0000 00000000 		.space	32
 839      00000000 
 839      00000000 
 839      00000000 
 839      00000000 
 840              		.text
 841              	.Letext0:
 842              		.section	.debug_loc,"",%progbits
 843              	.Ldebug_loc0:
 844              	.LLST0:
 845 0000 00000000 		.4byte	.LFB81
 846 0004 12000000 		.4byte	.LCFI0
 847 0008 0200     		.2byte	0x2
 848 000a 7D       		.byte	0x7d
 849 000b 00       		.sleb128 0
 850 000c 12000000 		.4byte	.LCFI0
 851 0010 34000000 		.4byte	.LFE81
 852 0014 0200     		.2byte	0x2
 853 0016 7D       		.byte	0x7d
 854 0017 08       		.sleb128 8
 855 0018 00000000 		.4byte	0x0
 856 001c 00000000 		.4byte	0x0
 857              	.LLST1:
 858 0020 00000000 		.4byte	.LVL0
 859 0024 18000000 		.4byte	.LVL1
 860 0028 0100     		.2byte	0x1
 861 002a 50       		.byte	0x50
 862 002b 00000000 		.4byte	0x0
 863 002f 00000000 		.4byte	0x0
 864              	.LLST2:
 865 0033 00000000 		.4byte	.LFB82
 866 0037 02000000 		.4byte	.LCFI1
 867 003b 0200     		.2byte	0x2
 868 003d 7D       		.byte	0x7d
 869 003e 00       		.sleb128 0
 870 003f 02000000 		.4byte	.LCFI1
 871 0043 14000000 		.4byte	.LFE82
ARM GAS  C:\Users\z80\AppData\Local\Temp\ccuP4NIp.s 			page 17


 872 0047 0200     		.2byte	0x2
 873 0049 7D       		.byte	0x7d
 874 004a 08       		.sleb128 8
 875 004b 00000000 		.4byte	0x0
 876 004f 00000000 		.4byte	0x0
 877              	.LLST3:
 878 0053 00000000 		.4byte	.LFB80
 879 0057 02000000 		.4byte	.LCFI2
 880 005b 0200     		.2byte	0x2
 881 005d 7D       		.byte	0x7d
 882 005e 00       		.sleb128 0
 883 005f 02000000 		.4byte	.LCFI2
 884 0063 06000000 		.4byte	.LCFI3
 885 0067 0200     		.2byte	0x2
 886 0069 7D       		.byte	0x7d
 887 006a 0C       		.sleb128 12
 888 006b 06000000 		.4byte	.LCFI3
 889 006f 30000000 		.4byte	.LFE80
 890 0073 0200     		.2byte	0x2
 891 0075 7D       		.byte	0x7d
 892 0076 18       		.sleb128 24
 893 0077 00000000 		.4byte	0x0
 894 007b 00000000 		.4byte	0x0
 895              	.LLST4:
 896 007f 00000000 		.4byte	.LVL2
 897 0083 0C000000 		.4byte	.LVL3
 898 0087 0100     		.2byte	0x1
 899 0089 50       		.byte	0x50
 900 008a 00000000 		.4byte	0x0
 901 008e 00000000 		.4byte	0x0
 902              	.LLST5:
 903 0092 16000000 		.4byte	.LVL4
 904 0096 18000000 		.4byte	.LVL5
 905 009a 0200     		.2byte	0x2
 906 009c 30       		.byte	0x30
 907 009d 9F       		.byte	0x9f
 908 009e 00000000 		.4byte	0x0
 909 00a2 00000000 		.4byte	0x0
 910              	.LLST6:
 911 00a6 00000000 		.4byte	.LFB79
 912 00aa 02000000 		.4byte	.LCFI4
 913 00ae 0200     		.2byte	0x2
 914 00b0 7D       		.byte	0x7d
 915 00b1 00       		.sleb128 0
 916 00b2 02000000 		.4byte	.LCFI4
 917 00b6 06000000 		.4byte	.LCFI5
 918 00ba 0200     		.2byte	0x2
 919 00bc 7D       		.byte	0x7d
 920 00bd 0C       		.sleb128 12
 921 00be 06000000 		.4byte	.LCFI5
 922 00c2 30000000 		.4byte	.LFE79
 923 00c6 0200     		.2byte	0x2
 924 00c8 7D       		.byte	0x7d
 925 00c9 20       		.sleb128 32
 926 00ca 00000000 		.4byte	0x0
 927 00ce 00000000 		.4byte	0x0
 928              	.LLST7:
ARM GAS  C:\Users\z80\AppData\Local\Temp\ccuP4NIp.s 			page 18


 929 00d2 00000000 		.4byte	.LVL6
 930 00d6 0A000000 		.4byte	.LVL7
 931 00da 0100     		.2byte	0x1
 932 00dc 50       		.byte	0x50
 933 00dd 00000000 		.4byte	0x0
 934 00e1 00000000 		.4byte	0x0
 935              	.LLST8:
 936 00e5 16000000 		.4byte	.LVL8
 937 00e9 18000000 		.4byte	.LVL9
 938 00ed 0200     		.2byte	0x2
 939 00ef 30       		.byte	0x30
 940 00f0 9F       		.byte	0x9f
 941 00f1 00000000 		.4byte	0x0
 942 00f5 00000000 		.4byte	0x0
 943              	.LLST9:
 944 00f9 00000000 		.4byte	.LFB78
 945 00fd 02000000 		.4byte	.LCFI6
 946 0101 0200     		.2byte	0x2
 947 0103 7D       		.byte	0x7d
 948 0104 00       		.sleb128 0
 949 0105 02000000 		.4byte	.LCFI6
 950 0109 12000000 		.4byte	.LFE78
 951 010d 0200     		.2byte	0x2
 952 010f 7D       		.byte	0x7d
 953 0110 08       		.sleb128 8
 954 0111 00000000 		.4byte	0x0
 955 0115 00000000 		.4byte	0x0
 956              	.LLST10:
 957 0119 00000000 		.4byte	.LVL10
 958 011d 05000000 		.4byte	.LVL11-1
 959 0121 0100     		.2byte	0x1
 960 0123 50       		.byte	0x50
 961 0124 00000000 		.4byte	0x0
 962 0128 00000000 		.4byte	0x0
 963              	.LLST11:
 964 012c 06000000 		.4byte	.LVL11
 965 0130 0F000000 		.4byte	.LVL12-1
 966 0134 0100     		.2byte	0x1
 967 0136 50       		.byte	0x50
 968 0137 00000000 		.4byte	0x0
 969 013b 00000000 		.4byte	0x0
 970              	.LLST12:
 971 013f 00000000 		.4byte	.LFB77
 972 0143 02000000 		.4byte	.LCFI7
 973 0147 0200     		.2byte	0x2
 974 0149 7D       		.byte	0x7d
 975 014a 00       		.sleb128 0
 976 014b 02000000 		.4byte	.LCFI7
 977 014f 12000000 		.4byte	.LFE77
 978 0153 0200     		.2byte	0x2
 979 0155 7D       		.byte	0x7d
 980 0156 08       		.sleb128 8
 981 0157 00000000 		.4byte	0x0
 982 015b 00000000 		.4byte	0x0
 983              	.LLST13:
 984 015f 00000000 		.4byte	.LVL13
 985 0163 05000000 		.4byte	.LVL14-1
ARM GAS  C:\Users\z80\AppData\Local\Temp\ccuP4NIp.s 			page 19


 986 0167 0100     		.2byte	0x1
 987 0169 50       		.byte	0x50
 988 016a 00000000 		.4byte	0x0
 989 016e 00000000 		.4byte	0x0
 990              	.LLST14:
 991 0172 06000000 		.4byte	.LVL14
 992 0176 0F000000 		.4byte	.LVL15-1
 993 017a 0100     		.2byte	0x1
 994 017c 50       		.byte	0x50
 995 017d 00000000 		.4byte	0x0
 996 0181 00000000 		.4byte	0x0
 997              	.LLST15:
 998 0185 00000000 		.4byte	.LFB76
 999 0189 02000000 		.4byte	.LCFI8
 1000 018d 0200     		.2byte	0x2
 1001 018f 7D       		.byte	0x7d
 1002 0190 00       		.sleb128 0
 1003 0191 02000000 		.4byte	.LCFI8
 1004 0195 12000000 		.4byte	.LFE76
 1005 0199 0200     		.2byte	0x2
 1006 019b 7D       		.byte	0x7d
 1007 019c 08       		.sleb128 8
 1008 019d 00000000 		.4byte	0x0
 1009 01a1 00000000 		.4byte	0x0
 1010              	.LLST16:
 1011 01a5 00000000 		.4byte	.LVL16
 1012 01a9 05000000 		.4byte	.LVL17-1
 1013 01ad 0100     		.2byte	0x1
 1014 01af 50       		.byte	0x50
 1015 01b0 00000000 		.4byte	0x0
 1016 01b4 00000000 		.4byte	0x0
 1017              	.LLST17:
 1018 01b8 06000000 		.4byte	.LVL17
 1019 01bc 0F000000 		.4byte	.LVL18-1
 1020 01c0 0100     		.2byte	0x1
 1021 01c2 50       		.byte	0x50
 1022 01c3 00000000 		.4byte	0x0
 1023 01c7 00000000 		.4byte	0x0
 1024              	.LLST18:
 1025 01cb 00000000 		.4byte	.LFB75
 1026 01cf 02000000 		.4byte	.LCFI9
 1027 01d3 0200     		.2byte	0x2
 1028 01d5 7D       		.byte	0x7d
 1029 01d6 00       		.sleb128 0
 1030 01d7 02000000 		.4byte	.LCFI9
 1031 01db 12000000 		.4byte	.LFE75
 1032 01df 0200     		.2byte	0x2
 1033 01e1 7D       		.byte	0x7d
 1034 01e2 08       		.sleb128 8
 1035 01e3 00000000 		.4byte	0x0
 1036 01e7 00000000 		.4byte	0x0
 1037              	.LLST19:
 1038 01eb 00000000 		.4byte	.LVL19
 1039 01ef 05000000 		.4byte	.LVL20-1
 1040 01f3 0100     		.2byte	0x1
 1041 01f5 50       		.byte	0x50
 1042 01f6 00000000 		.4byte	0x0
ARM GAS  C:\Users\z80\AppData\Local\Temp\ccuP4NIp.s 			page 20


 1043 01fa 00000000 		.4byte	0x0
 1044              	.LLST20:
 1045 01fe 06000000 		.4byte	.LVL20
 1046 0202 0F000000 		.4byte	.LVL21-1
 1047 0206 0100     		.2byte	0x1
 1048 0208 50       		.byte	0x50
 1049 0209 00000000 		.4byte	0x0
 1050 020d 00000000 		.4byte	0x0
 1051              	.LLST21:
 1052 0211 00000000 		.4byte	.LFB74
 1053 0215 02000000 		.4byte	.LCFI10
 1054 0219 0200     		.2byte	0x2
 1055 021b 7D       		.byte	0x7d
 1056 021c 00       		.sleb128 0
 1057 021d 02000000 		.4byte	.LCFI10
 1058 0221 0A000000 		.4byte	.LFE74
 1059 0225 0200     		.2byte	0x2
 1060 0227 7D       		.byte	0x7d
 1061 0228 08       		.sleb128 8
 1062 0229 00000000 		.4byte	0x0
 1063 022d 00000000 		.4byte	0x0
 1064              	.LLST22:
 1065 0231 00000000 		.4byte	.LVL22
 1066 0235 04000000 		.4byte	.LVL23
 1067 0239 0100     		.2byte	0x1
 1068 023b 50       		.byte	0x50
 1069 023c 00000000 		.4byte	0x0
 1070 0240 00000000 		.4byte	0x0
 1071              	.LLST23:
 1072 0244 00000000 		.4byte	.LFB73
 1073 0248 02000000 		.4byte	.LCFI11
 1074 024c 0200     		.2byte	0x2
 1075 024e 7D       		.byte	0x7d
 1076 024f 00       		.sleb128 0
 1077 0250 02000000 		.4byte	.LCFI11
 1078 0254 0A000000 		.4byte	.LFE73
 1079 0258 0200     		.2byte	0x2
 1080 025a 7D       		.byte	0x7d
 1081 025b 08       		.sleb128 8
 1082 025c 00000000 		.4byte	0x0
 1083 0260 00000000 		.4byte	0x0
 1084              	.LLST24:
 1085 0264 00000000 		.4byte	.LVL24
 1086 0268 04000000 		.4byte	.LVL25
 1087 026c 0100     		.2byte	0x1
 1088 026e 50       		.byte	0x50
 1089 026f 00000000 		.4byte	0x0
 1090 0273 00000000 		.4byte	0x0
 1091              	.LLST25:
 1092 0277 00000000 		.4byte	.LFB72
 1093 027b 02000000 		.4byte	.LCFI12
 1094 027f 0200     		.2byte	0x2
 1095 0281 7D       		.byte	0x7d
 1096 0282 00       		.sleb128 0
 1097 0283 02000000 		.4byte	.LCFI12
 1098 0287 0A000000 		.4byte	.LFE72
 1099 028b 0200     		.2byte	0x2
ARM GAS  C:\Users\z80\AppData\Local\Temp\ccuP4NIp.s 			page 21


 1100 028d 7D       		.byte	0x7d
 1101 028e 08       		.sleb128 8
 1102 028f 00000000 		.4byte	0x0
 1103 0293 00000000 		.4byte	0x0
 1104              	.LLST26:
 1105 0297 00000000 		.4byte	.LVL26
 1106 029b 04000000 		.4byte	.LVL27
 1107 029f 0100     		.2byte	0x1
 1108 02a1 50       		.byte	0x50
 1109 02a2 00000000 		.4byte	0x0
 1110 02a6 00000000 		.4byte	0x0
 1111              	.LLST27:
 1112 02aa 00000000 		.4byte	.LFB71
 1113 02ae 02000000 		.4byte	.LCFI13
 1114 02b2 0200     		.2byte	0x2
 1115 02b4 7D       		.byte	0x7d
 1116 02b5 00       		.sleb128 0
 1117 02b6 02000000 		.4byte	.LCFI13
 1118 02ba 1C000000 		.4byte	.LFE71
 1119 02be 0200     		.2byte	0x2
 1120 02c0 7D       		.byte	0x7d
 1121 02c1 08       		.sleb128 8
 1122 02c2 00000000 		.4byte	0x0
 1123 02c6 00000000 		.4byte	0x0
 1124              	.LLST28:
 1125 02ca 00000000 		.4byte	.LVL28
 1126 02ce 12000000 		.4byte	.LVL29
 1127 02d2 0100     		.2byte	0x1
 1128 02d4 50       		.byte	0x50
 1129 02d5 00000000 		.4byte	0x0
 1130 02d9 00000000 		.4byte	0x0
 1131              	.LLST29:
 1132 02dd 00000000 		.4byte	.LFB67
 1133 02e1 02000000 		.4byte	.LCFI14
 1134 02e5 0200     		.2byte	0x2
 1135 02e7 7D       		.byte	0x7d
 1136 02e8 00       		.sleb128 0
 1137 02e9 02000000 		.4byte	.LCFI14
 1138 02ed 44000000 		.4byte	.LFE67
 1139 02f1 0200     		.2byte	0x2
 1140 02f3 7D       		.byte	0x7d
 1141 02f4 10       		.sleb128 16
 1142 02f5 00000000 		.4byte	0x0
 1143 02f9 00000000 		.4byte	0x0
 1144              	.LLST30:
 1145 02fd 00000000 		.4byte	.LVL30
 1146 0301 0D000000 		.4byte	.LVL33-1
 1147 0305 0100     		.2byte	0x1
 1148 0307 50       		.byte	0x50
 1149 0308 0D000000 		.4byte	.LVL33-1
 1150 030c 44000000 		.4byte	.LFE67
 1151 0310 0100     		.2byte	0x1
 1152 0312 55       		.byte	0x55
 1153 0313 00000000 		.4byte	0x0
 1154 0317 00000000 		.4byte	0x0
 1155              	.LLST31:
 1156 031b 2A000000 		.4byte	.LVL38
ARM GAS  C:\Users\z80\AppData\Local\Temp\ccuP4NIp.s 			page 22


 1157 031f 32000000 		.4byte	.LVL39
 1158 0323 0100     		.2byte	0x1
 1159 0325 50       		.byte	0x50
 1160 0326 32000000 		.4byte	.LVL39
 1161 032a 39000000 		.4byte	.LVL41-1
 1162 032e 0300     		.2byte	0x3
 1163 0330 73       		.byte	0x73
 1164 0331 7E       		.sleb128 -2
 1165 0332 9F       		.byte	0x9f
 1166 0333 00000000 		.4byte	0x0
 1167 0337 00000000 		.4byte	0x0
 1168              	.LLST32:
 1169 033b 2A000000 		.4byte	.LVL38
 1170 033f 32000000 		.4byte	.LVL39
 1171 0343 0F00     		.2byte	0xf
 1172 0345 70       		.byte	0x70
 1173 0346 02       		.sleb128 2
 1174 0347 23       		.byte	0x23
 1175 0348 80808080 		.uleb128 0x80000000
 1175      08
 1176 034d 0C       		.byte	0xc
 1177 034e 01000080 		.4byte	0x80000001
 1178 0352 2C       		.byte	0x2c
 1179 0353 9F       		.byte	0x9f
 1180 0354 32000000 		.4byte	.LVL39
 1181 0358 39000000 		.4byte	.LVL41-1
 1182 035c 0F00     		.2byte	0xf
 1183 035e 73       		.byte	0x73
 1184 035f 00       		.sleb128 0
 1185 0360 23       		.byte	0x23
 1186 0361 80808080 		.uleb128 0x80000000
 1186      08
 1187 0366 0C       		.byte	0xc
 1188 0367 01000080 		.4byte	0x80000001
 1189 036b 2C       		.byte	0x2c
 1190 036c 9F       		.byte	0x9f
 1191 036d 00000000 		.4byte	0x0
 1192 0371 00000000 		.4byte	0x0
 1193              	.LLST33:
 1194 0375 1E000000 		.4byte	.LVL36
 1195 0379 22000000 		.4byte	.LVL37
 1196 037d 0200     		.2byte	0x2
 1197 037f 30       		.byte	0x30
 1198 0380 9F       		.byte	0x9f
 1199 0381 3A000000 		.4byte	.LVL41
 1200 0385 3E000000 		.4byte	.LVL42
 1201 0389 0100     		.2byte	0x1
 1202 038b 56       		.byte	0x56
 1203 038c 00000000 		.4byte	0x0
 1204 0390 00000000 		.4byte	0x0
 1205              	.LLST34:
 1206 0394 0A000000 		.4byte	.LVL32
 1207 0398 0D000000 		.4byte	.LVL33-1
 1208 039c 0100     		.2byte	0x1
 1209 039e 53       		.byte	0x53
 1210 039f 00000000 		.4byte	0x0
 1211 03a3 00000000 		.4byte	0x0
ARM GAS  C:\Users\z80\AppData\Local\Temp\ccuP4NIp.s 			page 23


 1212              	.LLST35:
 1213 03a7 1E000000 		.4byte	.LVL36
 1214 03ab 29000000 		.4byte	.LVL38-1
 1215 03af 0100     		.2byte	0x1
 1216 03b1 53       		.byte	0x53
 1217 03b2 3E000000 		.4byte	.LVL42
 1218 03b6 41000000 		.4byte	.LVL43-1
 1219 03ba 0100     		.2byte	0x1
 1220 03bc 53       		.byte	0x53
 1221 03bd 00000000 		.4byte	0x0
 1222 03c1 00000000 		.4byte	0x0
 1223              	.LLST36:
 1224 03c5 34000000 		.4byte	.LVL40
 1225 03c9 39000000 		.4byte	.LVL41-1
 1226 03cd 0100     		.2byte	0x1
 1227 03cf 50       		.byte	0x50
 1228 03d0 00000000 		.4byte	0x0
 1229 03d4 00000000 		.4byte	0x0
 1230              	.LLST37:
 1231 03d8 00000000 		.4byte	.LFB70
 1232 03dc 02000000 		.4byte	.LCFI15
 1233 03e0 0200     		.2byte	0x2
 1234 03e2 7D       		.byte	0x7d
 1235 03e3 00       		.sleb128 0
 1236 03e4 02000000 		.4byte	.LCFI15
 1237 03e8 0C000000 		.4byte	.LFE70
 1238 03ec 0200     		.2byte	0x2
 1239 03ee 7D       		.byte	0x7d
 1240 03ef 08       		.sleb128 8
 1241 03f0 00000000 		.4byte	0x0
 1242 03f4 00000000 		.4byte	0x0
 1243              	.LLST38:
 1244 03f8 00000000 		.4byte	.LVL44
 1245 03fc 05000000 		.4byte	.LVL45-1
 1246 0400 0100     		.2byte	0x1
 1247 0402 50       		.byte	0x50
 1248 0403 00000000 		.4byte	0x0
 1249 0407 00000000 		.4byte	0x0
 1250              	.LLST39:
 1251 040b 06000000 		.4byte	.LVL45
 1252 040f 09000000 		.4byte	.LVL46-1
 1253 0413 0100     		.2byte	0x1
 1254 0415 50       		.byte	0x50
 1255 0416 00000000 		.4byte	0x0
 1256 041a 00000000 		.4byte	0x0
 1257              	.LLST40:
 1258 041e 00000000 		.4byte	.LFB69
 1259 0422 02000000 		.4byte	.LCFI16
 1260 0426 0200     		.2byte	0x2
 1261 0428 7D       		.byte	0x7d
 1262 0429 00       		.sleb128 0
 1263 042a 02000000 		.4byte	.LCFI16
 1264 042e 0C000000 		.4byte	.LFE69
 1265 0432 0200     		.2byte	0x2
 1266 0434 7D       		.byte	0x7d
 1267 0435 08       		.sleb128 8
 1268 0436 00000000 		.4byte	0x0
ARM GAS  C:\Users\z80\AppData\Local\Temp\ccuP4NIp.s 			page 24


 1269 043a 00000000 		.4byte	0x0
 1270              	.LLST41:
 1271 043e 00000000 		.4byte	.LVL47
 1272 0442 05000000 		.4byte	.LVL48-1
 1273 0446 0100     		.2byte	0x1
 1274 0448 50       		.byte	0x50
 1275 0449 00000000 		.4byte	0x0
 1276 044d 00000000 		.4byte	0x0
 1277              	.LLST42:
 1278 0451 06000000 		.4byte	.LVL48
 1279 0455 09000000 		.4byte	.LVL49-1
 1280 0459 0100     		.2byte	0x1
 1281 045b 50       		.byte	0x50
 1282 045c 00000000 		.4byte	0x0
 1283 0460 00000000 		.4byte	0x0
 1284              	.LLST43:
 1285 0464 00000000 		.4byte	.LFB68
 1286 0468 02000000 		.4byte	.LCFI17
 1287 046c 0200     		.2byte	0x2
 1288 046e 7D       		.byte	0x7d
 1289 046f 00       		.sleb128 0
 1290 0470 02000000 		.4byte	.LCFI17
 1291 0474 0C000000 		.4byte	.LFE68
 1292 0478 0200     		.2byte	0x2
 1293 047a 7D       		.byte	0x7d
 1294 047b 08       		.sleb128 8
 1295 047c 00000000 		.4byte	0x0
 1296 0480 00000000 		.4byte	0x0
 1297              	.LLST44:
 1298 0484 00000000 		.4byte	.LVL50
 1299 0488 05000000 		.4byte	.LVL51-1
 1300 048c 0100     		.2byte	0x1
 1301 048e 50       		.byte	0x50
 1302 048f 00000000 		.4byte	0x0
 1303 0493 00000000 		.4byte	0x0
 1304              	.LLST45:
 1305 0497 06000000 		.4byte	.LVL51
 1306 049b 09000000 		.4byte	.LVL52-1
 1307 049f 0100     		.2byte	0x1
 1308 04a1 50       		.byte	0x50
 1309 04a2 00000000 		.4byte	0x0
 1310 04a6 00000000 		.4byte	0x0
 1311              	.LLST46:
 1312 04aa 00000000 		.4byte	.LFB62
 1313 04ae 06000000 		.4byte	.LCFI18
 1314 04b2 0200     		.2byte	0x2
 1315 04b4 7D       		.byte	0x7d
 1316 04b5 00       		.sleb128 0
 1317 04b6 06000000 		.4byte	.LCFI18
 1318 04ba 12000000 		.4byte	.LFE62
 1319 04be 0200     		.2byte	0x2
 1320 04c0 7D       		.byte	0x7d
 1321 04c1 08       		.sleb128 8
 1322 04c2 00000000 		.4byte	0x0
 1323 04c6 00000000 		.4byte	0x0
 1324              	.LLST47:
 1325 04ca 00000000 		.4byte	.LFB63
ARM GAS  C:\Users\z80\AppData\Local\Temp\ccuP4NIp.s 			page 25


 1326 04ce 02000000 		.4byte	.LCFI19
 1327 04d2 0200     		.2byte	0x2
 1328 04d4 7D       		.byte	0x7d
 1329 04d5 00       		.sleb128 0
 1330 04d6 02000000 		.4byte	.LCFI19
 1331 04da 4C000000 		.4byte	.LFE63
 1332 04de 0200     		.2byte	0x2
 1333 04e0 7D       		.byte	0x7d
 1334 04e1 08       		.sleb128 8
 1335 04e2 00000000 		.4byte	0x0
 1336 04e6 00000000 		.4byte	0x0
 1337              	.LLST48:
 1338 04ea 00000000 		.4byte	.LVL53
 1339 04ee 1C000000 		.4byte	.LVL58
 1340 04f2 0200     		.2byte	0x2
 1341 04f4 30       		.byte	0x30
 1342 04f5 9F       		.byte	0x9f
 1343 04f6 1E000000 		.4byte	.LVL59
 1344 04fa 26000000 		.4byte	.LVL61
 1345 04fe 0200     		.2byte	0x2
 1346 0500 30       		.byte	0x30
 1347 0501 9F       		.byte	0x9f
 1348 0502 26000000 		.4byte	.LVL61
 1349 0506 28000000 		.4byte	.LVL62
 1350 050a 0200     		.2byte	0x2
 1351 050c 31       		.byte	0x31
 1352 050d 9F       		.byte	0x9f
 1353 050e 28000000 		.4byte	.LVL62
 1354 0512 4C000000 		.4byte	.LFE63
 1355 0516 0200     		.2byte	0x2
 1356 0518 30       		.byte	0x30
 1357 0519 9F       		.byte	0x9f
 1358 051a 00000000 		.4byte	0x0
 1359 051e 00000000 		.4byte	0x0
 1360              	.LLST49:
 1361 0522 0A000000 		.4byte	.LVL54
 1362 0526 12000000 		.4byte	.LVL55
 1363 052a 0100     		.2byte	0x1
 1364 052c 50       		.byte	0x50
 1365 052d 12000000 		.4byte	.LVL55
 1366 0531 16000000 		.4byte	.LVL57
 1367 0535 0300     		.2byte	0x3
 1368 0537 73       		.byte	0x73
 1369 0538 7E       		.sleb128 -2
 1370 0539 9F       		.byte	0x9f
 1371 053a 1E000000 		.4byte	.LVL59
 1372 053e 24000000 		.4byte	.LVL60
 1373 0542 0300     		.2byte	0x3
 1374 0544 73       		.byte	0x73
 1375 0545 7E       		.sleb128 -2
 1376 0546 9F       		.byte	0x9f
 1377 0547 00000000 		.4byte	0x0
 1378 054b 00000000 		.4byte	0x0
 1379              	.LLST50:
 1380 054f 0A000000 		.4byte	.LVL54
 1381 0553 12000000 		.4byte	.LVL55
 1382 0557 0F00     		.2byte	0xf
ARM GAS  C:\Users\z80\AppData\Local\Temp\ccuP4NIp.s 			page 26


 1383 0559 70       		.byte	0x70
 1384 055a 02       		.sleb128 2
 1385 055b 23       		.byte	0x23
 1386 055c 80808080 		.uleb128 0x80000000
 1386      08
 1387 0561 0C       		.byte	0xc
 1388 0562 01000080 		.4byte	0x80000001
 1389 0566 2C       		.byte	0x2c
 1390 0567 9F       		.byte	0x9f
 1391 0568 12000000 		.4byte	.LVL55
 1392 056c 16000000 		.4byte	.LVL57
 1393 0570 0F00     		.2byte	0xf
 1394 0572 73       		.byte	0x73
 1395 0573 00       		.sleb128 0
 1396 0574 23       		.byte	0x23
 1397 0575 80808080 		.uleb128 0x80000000
 1397      08
 1398 057a 0C       		.byte	0xc
 1399 057b 01000080 		.4byte	0x80000001
 1400 057f 2C       		.byte	0x2c
 1401 0580 9F       		.byte	0x9f
 1402 0581 1E000000 		.4byte	.LVL59
 1403 0585 24000000 		.4byte	.LVL60
 1404 0589 0F00     		.2byte	0xf
 1405 058b 73       		.byte	0x73
 1406 058c 00       		.sleb128 0
 1407 058d 23       		.byte	0x23
 1408 058e 80808080 		.uleb128 0x80000000
 1408      08
 1409 0593 0C       		.byte	0xc
 1410 0594 01000080 		.4byte	0x80000001
 1411 0598 2C       		.byte	0x2c
 1412 0599 9F       		.byte	0x9f
 1413 059a 00000000 		.4byte	0x0
 1414 059e 00000000 		.4byte	0x0
 1415              	.LLST51:
 1416 05a2 12000000 		.4byte	.LVL55
 1417 05a6 1C000000 		.4byte	.LVL58
 1418 05aa 0100     		.2byte	0x1
 1419 05ac 50       		.byte	0x50
 1420 05ad 1E000000 		.4byte	.LVL59
 1421 05b1 38000000 		.4byte	.LVL66
 1422 05b5 0100     		.2byte	0x1
 1423 05b7 50       		.byte	0x50
 1424 05b8 00000000 		.4byte	0x0
 1425 05bc 00000000 		.4byte	0x0
 1426              	.LLST52:
 1427 05c0 14000000 		.4byte	.LVL56
 1428 05c4 1C000000 		.4byte	.LVL58
 1429 05c8 0200     		.2byte	0x2
 1430 05ca 30       		.byte	0x30
 1431 05cb 9F       		.byte	0x9f
 1432 05cc 28000000 		.4byte	.LVL62
 1433 05d0 4C000000 		.4byte	.LFE63
 1434 05d4 0200     		.2byte	0x2
 1435 05d6 30       		.byte	0x30
 1436 05d7 9F       		.byte	0x9f
ARM GAS  C:\Users\z80\AppData\Local\Temp\ccuP4NIp.s 			page 27


 1437 05d8 00000000 		.4byte	0x0
 1438 05dc 00000000 		.4byte	0x0
 1439              	.LLST53:
 1440 05e0 14000000 		.4byte	.LVL56
 1441 05e4 1C000000 		.4byte	.LVL58
 1442 05e8 0600     		.2byte	0x6
 1443 05ea 03       		.byte	0x3
 1444 05eb 00000000 		.4byte	buffer
 1445 05ef 9F       		.byte	0x9f
 1446 05f0 28000000 		.4byte	.LVL62
 1447 05f4 4C000000 		.4byte	.LFE63
 1448 05f8 0600     		.2byte	0x6
 1449 05fa 03       		.byte	0x3
 1450 05fb 00000000 		.4byte	buffer
 1451 05ff 9F       		.byte	0x9f
 1452 0600 00000000 		.4byte	0x0
 1453 0604 00000000 		.4byte	0x0
 1454              	.LLST54:
 1455 0608 14000000 		.4byte	.LVL56
 1456 060c 1C000000 		.4byte	.LVL58
 1457 0610 0500     		.2byte	0x5
 1458 0612 03       		.byte	0x3
 1459 0613 00000000 		.4byte	buffer
 1460 0617 28000000 		.4byte	.LVL62
 1461 061b 39000000 		.4byte	.LVL67-1
 1462 061f 0500     		.2byte	0x5
 1463 0621 03       		.byte	0x3
 1464 0622 00000000 		.4byte	buffer
 1465 0626 00000000 		.4byte	0x0
 1466 062a 00000000 		.4byte	0x0
 1467              	.LLST55:
 1468 062e 14000000 		.4byte	.LVL56
 1469 0632 1C000000 		.4byte	.LVL58
 1470 0636 0600     		.2byte	0x6
 1471 0638 03       		.byte	0x3
 1472 0639 01000000 		.4byte	buffer+1
 1473 063d 9F       		.byte	0x9f
 1474 063e 28000000 		.4byte	.LVL62
 1475 0642 4C000000 		.4byte	.LFE63
 1476 0646 0600     		.2byte	0x6
 1477 0648 03       		.byte	0x3
 1478 0649 01000000 		.4byte	buffer+1
 1479 064d 9F       		.byte	0x9f
 1480 064e 00000000 		.4byte	0x0
 1481 0652 00000000 		.4byte	0x0
 1482              	.LLST56:
 1483 0656 2A000000 		.4byte	.LVL63
 1484 065a 32000000 		.4byte	.LVL64
 1485 065e 0100     		.2byte	0x1
 1486 0660 53       		.byte	0x53
 1487 0661 32000000 		.4byte	.LVL64
 1488 0665 36000000 		.4byte	.LVL65
 1489 0669 0100     		.2byte	0x1
 1490 066b 53       		.byte	0x53
 1491 066c 00000000 		.4byte	0x0
 1492 0670 00000000 		.4byte	0x0
 1493              		.file 2 "c:\\programs\\yagarto\\bin\\../lib/gcc/arm-none-eabi/4.5.0/include/stddef.h"
ARM GAS  C:\Users\z80\AppData\Local\Temp\ccuP4NIp.s 			page 28


 1494              		.file 3 "c:/programs/yagarto/lib/gcc/../../arm-none-eabi/sys-include/stdint.h"
 1495              		.file 4 "../chibios_2.4.x/os/ports/GCC/ARMCMx/chtypes.h"
 1496              		.file 5 "../chibios_2.4.x/os/kernel/include/chlists.h"
 1497              		.file 6 "../chibios_2.4.x/os/kernel/include/chthreads.h"
 1498              		.file 7 "../chibios_2.4.x/os/ports/GCC/ARMCMx/chcore_v7m.h"
 1499              		.file 8 "../chibios_2.4.x/os/kernel/include/chmtx.h"
 1500              		.file 9 "../chibios_2.4.x/os/kernel/include/chevents.h"
 1501              		.file 10 "../chibios_2.4.x/os/kernel/include/chqueues.h"
 1502              		.file 11 "../chibios_2.4.x/os/kernel/include/chioch.h"
 1503              		.file 12 "./src/cpu_io.h"
 1504              		.file 13 "../chibios_2.4.x/os/hal/platforms/STM32F1xx/stm32f10x.h"
 1505              		.file 14 "../chibios_2.4.x/os/hal/include/serial.h"
 1506              		.file 15 "../chibios_2.4.x/os/ports/common/ARMCMx/CMSIS/include/core_cm3.h"
 1507              		.file 16 "../chibios_2.4.x/os/hal/platforms/STM32/serial_lld.h"
 1508              		.section	.debug_info
 1509 0000 400E0000 		.4byte	0xe40
 1510 0004 0200     		.2byte	0x2
 1511 0006 00000000 		.4byte	.Ldebug_abbrev0
 1512 000a 04       		.byte	0x4
 1513 000b 01       		.uleb128 0x1
 1514 000c 21050000 		.4byte	.LASF132
 1515 0010 01       		.byte	0x1
 1516 0011 6D020000 		.4byte	.LASF133
 1517 0015 E0020000 		.4byte	.LASF134
 1518 0019 00000000 		.4byte	0x0
 1519 001d 00000000 		.4byte	0x0
 1520 0021 78000000 		.4byte	.Ldebug_ranges0+0x78
 1521 0025 00000000 		.4byte	.Ldebug_line0
 1522 0029 02       		.uleb128 0x2
 1523 002a 04       		.byte	0x4
 1524 002b 05       		.byte	0x5
 1525 002c 696E7400 		.ascii	"int\000"
 1526 0030 03       		.uleb128 0x3
 1527 0031 09000000 		.4byte	.LASF2
 1528 0035 02       		.byte	0x2
 1529 0036 D3       		.byte	0xd3
 1530 0037 3B000000 		.4byte	0x3b
 1531 003b 04       		.uleb128 0x4
 1532 003c 04       		.byte	0x4
 1533 003d 07       		.byte	0x7
 1534 003e 6B010000 		.4byte	.LASF0
 1535 0042 04       		.uleb128 0x4
 1536 0043 01       		.byte	0x1
 1537 0044 06       		.byte	0x6
 1538 0045 D2000000 		.4byte	.LASF1
 1539 0049 03       		.uleb128 0x3
 1540 004a FA040000 		.4byte	.LASF3
 1541 004e 03       		.byte	0x3
 1542 004f 2A       		.byte	0x2a
 1543 0050 54000000 		.4byte	0x54
 1544 0054 04       		.uleb128 0x4
 1545 0055 01       		.byte	0x1
 1546 0056 08       		.byte	0x8
 1547 0057 9C030000 		.4byte	.LASF4
 1548 005b 04       		.uleb128 0x4
 1549 005c 02       		.byte	0x2
 1550 005d 05       		.byte	0x5
ARM GAS  C:\Users\z80\AppData\Local\Temp\ccuP4NIp.s 			page 29


 1551 005e C0030000 		.4byte	.LASF5
 1552 0062 03       		.uleb128 0x3
 1553 0063 78010000 		.4byte	.LASF6
 1554 0067 03       		.byte	0x3
 1555 0068 36       		.byte	0x36
 1556 0069 6D000000 		.4byte	0x6d
 1557 006d 04       		.uleb128 0x4
 1558 006e 02       		.byte	0x2
 1559 006f 07       		.byte	0x7
 1560 0070 E9010000 		.4byte	.LASF7
 1561 0074 03       		.uleb128 0x3
 1562 0075 94030000 		.4byte	.LASF8
 1563 0079 03       		.byte	0x3
 1564 007a 4F       		.byte	0x4f
 1565 007b 7F000000 		.4byte	0x7f
 1566 007f 04       		.uleb128 0x4
 1567 0080 04       		.byte	0x4
 1568 0081 05       		.byte	0x5
 1569 0082 0E010000 		.4byte	.LASF9
 1570 0086 03       		.uleb128 0x3
 1571 0087 31040000 		.4byte	.LASF10
 1572 008b 03       		.byte	0x3
 1573 008c 50       		.byte	0x50
 1574 008d 91000000 		.4byte	0x91
 1575 0091 04       		.uleb128 0x4
 1576 0092 04       		.byte	0x4
 1577 0093 07       		.byte	0x7
 1578 0094 51040000 		.4byte	.LASF11
 1579 0098 04       		.uleb128 0x4
 1580 0099 08       		.byte	0x8
 1581 009a 05       		.byte	0x5
 1582 009b C4000000 		.4byte	.LASF12
 1583 009f 03       		.uleb128 0x3
 1584 00a0 17000000 		.4byte	.LASF13
 1585 00a4 03       		.byte	0x3
 1586 00a5 78       		.byte	0x78
 1587 00a6 AA000000 		.4byte	0xaa
 1588 00aa 04       		.uleb128 0x4
 1589 00ab 08       		.byte	0x8
 1590 00ac 07       		.byte	0x7
 1591 00ad 4D000000 		.4byte	.LASF14
 1592 00b1 03       		.uleb128 0x3
 1593 00b2 3F000000 		.4byte	.LASF15
 1594 00b6 03       		.byte	0x3
 1595 00b7 A6       		.byte	0xa6
 1596 00b8 3B000000 		.4byte	0x3b
 1597 00bc 03       		.uleb128 0x3
 1598 00bd EB000000 		.4byte	.LASF16
 1599 00c1 04       		.byte	0x4
 1600 00c2 2E       		.byte	0x2e
 1601 00c3 74000000 		.4byte	0x74
 1602 00c7 03       		.uleb128 0x3
 1603 00c8 38020000 		.4byte	.LASF17
 1604 00cc 04       		.byte	0x4
 1605 00cd 2F       		.byte	0x2f
 1606 00ce 49000000 		.4byte	0x49
 1607 00d2 03       		.uleb128 0x3
ARM GAS  C:\Users\z80\AppData\Local\Temp\ccuP4NIp.s 			page 30


 1608 00d3 17010000 		.4byte	.LASF18
 1609 00d7 04       		.byte	0x4
 1610 00d8 30       		.byte	0x30
 1611 00d9 49000000 		.4byte	0x49
 1612 00dd 03       		.uleb128 0x3
 1613 00de DB010000 		.4byte	.LASF19
 1614 00e2 04       		.byte	0x4
 1615 00e3 32       		.byte	0x32
 1616 00e4 86000000 		.4byte	0x86
 1617 00e8 03       		.uleb128 0x3
 1618 00e9 FC010000 		.4byte	.LASF20
 1619 00ed 04       		.byte	0x4
 1620 00ee 33       		.byte	0x33
 1621 00ef 74000000 		.4byte	0x74
 1622 00f3 03       		.uleb128 0x3
 1623 00f4 4C020000 		.4byte	.LASF21
 1624 00f8 04       		.byte	0x4
 1625 00f9 35       		.byte	0x35
 1626 00fa 86000000 		.4byte	0x86
 1627 00fe 03       		.uleb128 0x3
 1628 00ff 80040000 		.4byte	.LASF22
 1629 0103 04       		.byte	0x4
 1630 0104 36       		.byte	0x36
 1631 0105 86000000 		.4byte	0x86
 1632 0109 03       		.uleb128 0x3
 1633 010a 0B040000 		.4byte	.LASF23
 1634 010e 05       		.byte	0x5
 1635 010f 2A       		.byte	0x2a
 1636 0110 14010000 		.4byte	0x114
 1637 0114 05       		.uleb128 0x5
 1638 0115 0B040000 		.4byte	.LASF23
 1639 0119 48       		.byte	0x48
 1640 011a 06       		.byte	0x6
 1641 011b 5E       		.byte	0x5e
 1642 011c 1D020000 		.4byte	0x21d
 1643 0120 06       		.uleb128 0x6
 1644 0121 E9030000 		.4byte	.LASF24
 1645 0125 06       		.byte	0x6
 1646 0126 5F       		.byte	0x5f
 1647 0127 42020000 		.4byte	0x242
 1648 012b 02       		.byte	0x2
 1649 012c 23       		.byte	0x23
 1650 012d 00       		.uleb128 0x0
 1651 012e 06       		.uleb128 0x6
 1652 012f 69030000 		.4byte	.LASF25
 1653 0133 06       		.byte	0x6
 1654 0134 61       		.byte	0x61
 1655 0135 42020000 		.4byte	0x242
 1656 0139 02       		.byte	0x2
 1657 013a 23       		.byte	0x23
 1658 013b 04       		.uleb128 0x4
 1659 013c 06       		.uleb128 0x6
 1660 013d A8000000 		.4byte	.LASF26
 1661 0141 06       		.byte	0x6
 1662 0142 63       		.byte	0x63
 1663 0143 DD000000 		.4byte	0xdd
 1664 0147 02       		.byte	0x2
ARM GAS  C:\Users\z80\AppData\Local\Temp\ccuP4NIp.s 			page 31


 1665 0148 23       		.byte	0x23
 1666 0149 08       		.uleb128 0x8
 1667 014a 06       		.uleb128 0x6
 1668 014b 55050000 		.4byte	.LASF27
 1669 014f 06       		.byte	0x6
 1670 0150 64       		.byte	0x64
 1671 0151 1A030000 		.4byte	0x31a
 1672 0155 02       		.byte	0x2
 1673 0156 23       		.byte	0x23
 1674 0157 0C       		.uleb128 0xc
 1675 0158 06       		.uleb128 0x6
 1676 0159 31010000 		.4byte	.LASF28
 1677 015d 06       		.byte	0x6
 1678 015e 66       		.byte	0x66
 1679 015f 42020000 		.4byte	0x242
 1680 0163 02       		.byte	0x2
 1681 0164 23       		.byte	0x23
 1682 0165 10       		.uleb128 0x10
 1683 0166 06       		.uleb128 0x6
 1684 0167 B2020000 		.4byte	.LASF29
 1685 016b 06       		.byte	0x6
 1686 016c 67       		.byte	0x67
 1687 016d 42020000 		.4byte	0x242
 1688 0171 02       		.byte	0x2
 1689 0172 23       		.byte	0x23
 1690 0173 14       		.uleb128 0x14
 1691 0174 06       		.uleb128 0x6
 1692 0175 DC040000 		.4byte	.LASF30
 1693 0179 06       		.byte	0x6
 1694 017a 6E       		.byte	0x6e
 1695 017b 30040000 		.4byte	0x430
 1696 017f 02       		.byte	0x2
 1697 0180 23       		.byte	0x23
 1698 0181 18       		.uleb128 0x18
 1699 0182 06       		.uleb128 0x6
 1700 0183 9C040000 		.4byte	.LASF31
 1701 0187 06       		.byte	0x6
 1702 0188 74       		.byte	0x74
 1703 0189 42040000 		.4byte	0x442
 1704 018d 02       		.byte	0x2
 1705 018e 23       		.byte	0x23
 1706 018f 1C       		.uleb128 0x1c
 1707 0190 06       		.uleb128 0x6
 1708 0191 CA030000 		.4byte	.LASF32
 1709 0195 06       		.byte	0x6
 1710 0196 79       		.byte	0x79
 1711 0197 D2000000 		.4byte	0xd2
 1712 019b 02       		.byte	0x2
 1713 019c 23       		.byte	0x23
 1714 019d 20       		.uleb128 0x20
 1715 019e 06       		.uleb128 0x6
 1716 019f F0030000 		.4byte	.LASF33
 1717 01a3 06       		.byte	0x6
 1718 01a4 7D       		.byte	0x7d
 1719 01a5 C7000000 		.4byte	0xc7
 1720 01a9 02       		.byte	0x2
 1721 01aa 23       		.byte	0x23
ARM GAS  C:\Users\z80\AppData\Local\Temp\ccuP4NIp.s 			page 32


 1722 01ab 21       		.uleb128 0x21
 1723 01ac 06       		.uleb128 0x6
 1724 01ad 91010000 		.4byte	.LASF34
 1725 01b1 06       		.byte	0x6
 1726 01b2 89       		.byte	0x89
 1727 01b3 40030000 		.4byte	0x340
 1728 01b7 02       		.byte	0x2
 1729 01b8 23       		.byte	0x23
 1730 01b9 24       		.uleb128 0x24
 1731 01ba 07       		.uleb128 0x7
 1732 01bb 705F7500 		.ascii	"p_u\000"
 1733 01bf 06       		.byte	0x6
 1734 01c0 AE       		.byte	0xae
 1735 01c1 FB030000 		.4byte	0x3fb
 1736 01c5 02       		.byte	0x2
 1737 01c6 23       		.byte	0x23
 1738 01c7 28       		.uleb128 0x28
 1739 01c8 06       		.uleb128 0x6
 1740 01c9 5B050000 		.4byte	.LASF35
 1741 01cd 06       		.byte	0x6
 1742 01ce B3       		.byte	0xb3
 1743 01cf 6A020000 		.4byte	0x26a
 1744 01d3 02       		.byte	0x2
 1745 01d4 23       		.byte	0x23
 1746 01d5 2C       		.uleb128 0x2c
 1747 01d6 06       		.uleb128 0x6
 1748 01d7 BA010000 		.4byte	.LASF36
 1749 01db 06       		.byte	0x6
 1750 01dc B9       		.byte	0xb9
 1751 01dd 48020000 		.4byte	0x248
 1752 01e1 02       		.byte	0x2
 1753 01e2 23       		.byte	0x23
 1754 01e3 30       		.uleb128 0x30
 1755 01e4 06       		.uleb128 0x6
 1756 01e5 F4040000 		.4byte	.LASF37
 1757 01e9 06       		.byte	0x6
 1758 01ea BD       		.byte	0xbd
 1759 01eb E8000000 		.4byte	0xe8
 1760 01ef 02       		.byte	0x2
 1761 01f0 23       		.byte	0x23
 1762 01f1 38       		.uleb128 0x38
 1763 01f2 06       		.uleb128 0x6
 1764 01f3 12040000 		.4byte	.LASF38
 1765 01f7 06       		.byte	0x6
 1766 01f8 C3       		.byte	0xc3
 1767 01f9 F3000000 		.4byte	0xf3
 1768 01fd 02       		.byte	0x2
 1769 01fe 23       		.byte	0x23
 1770 01ff 3C       		.uleb128 0x3c
 1771 0200 06       		.uleb128 0x6
 1772 0201 B6030000 		.4byte	.LASF39
 1773 0205 06       		.byte	0x6
 1774 0206 CA       		.byte	0xca
 1775 0207 48040000 		.4byte	0x448
 1776 020b 02       		.byte	0x2
 1777 020c 23       		.byte	0x23
 1778 020d 40       		.uleb128 0x40
ARM GAS  C:\Users\z80\AppData\Local\Temp\ccuP4NIp.s 			page 33


 1779 020e 06       		.uleb128 0x6
 1780 020f 8A040000 		.4byte	.LASF40
 1781 0213 06       		.byte	0x6
 1782 0214 CE       		.byte	0xce
 1783 0215 DD000000 		.4byte	0xdd
 1784 0219 02       		.byte	0x2
 1785 021a 23       		.byte	0x23
 1786 021b 44       		.uleb128 0x44
 1787 021c 00       		.byte	0x0
 1788 021d 08       		.uleb128 0x8
 1789 021e 08       		.byte	0x8
 1790 021f 05       		.byte	0x5
 1791 0220 61       		.byte	0x61
 1792 0221 42020000 		.4byte	0x242
 1793 0225 06       		.uleb128 0x6
 1794 0226 E9030000 		.4byte	.LASF24
 1795 022a 05       		.byte	0x5
 1796 022b 62       		.byte	0x62
 1797 022c 42020000 		.4byte	0x242
 1798 0230 02       		.byte	0x2
 1799 0231 23       		.byte	0x23
 1800 0232 00       		.uleb128 0x0
 1801 0233 06       		.uleb128 0x6
 1802 0234 69030000 		.4byte	.LASF25
 1803 0238 05       		.byte	0x5
 1804 0239 64       		.byte	0x64
 1805 023a 42020000 		.4byte	0x242
 1806 023e 02       		.byte	0x2
 1807 023f 23       		.byte	0x23
 1808 0240 04       		.uleb128 0x4
 1809 0241 00       		.byte	0x0
 1810 0242 09       		.uleb128 0x9
 1811 0243 04       		.byte	0x4
 1812 0244 09010000 		.4byte	0x109
 1813 0248 03       		.uleb128 0x3
 1814 0249 D3020000 		.4byte	.LASF41
 1815 024d 05       		.byte	0x5
 1816 024e 66       		.byte	0x66
 1817 024f 1D020000 		.4byte	0x21d
 1818 0253 08       		.uleb128 0x8
 1819 0254 04       		.byte	0x4
 1820 0255 05       		.byte	0x5
 1821 0256 6B       		.byte	0x6b
 1822 0257 6A020000 		.4byte	0x26a
 1823 025b 06       		.uleb128 0x6
 1824 025c E9030000 		.4byte	.LASF24
 1825 0260 05       		.byte	0x5
 1826 0261 6D       		.byte	0x6d
 1827 0262 42020000 		.4byte	0x242
 1828 0266 02       		.byte	0x2
 1829 0267 23       		.byte	0x23
 1830 0268 00       		.uleb128 0x0
 1831 0269 00       		.byte	0x0
 1832 026a 03       		.uleb128 0x3
 1833 026b 40020000 		.4byte	.LASF42
 1834 026f 05       		.byte	0x5
 1835 0270 70       		.byte	0x70
ARM GAS  C:\Users\z80\AppData\Local\Temp\ccuP4NIp.s 			page 34


 1836 0271 53020000 		.4byte	0x253
 1837 0275 03       		.uleb128 0x3
 1838 0276 50010000 		.4byte	.LASF43
 1839 027a 07       		.byte	0x7
 1840 027b D7       		.byte	0xd7
 1841 027c 80020000 		.4byte	0x280
 1842 0280 0A       		.uleb128 0xa
 1843 0281 04       		.byte	0x4
 1844 0282 03       		.uleb128 0x3
 1845 0283 89020000 		.4byte	.LASF44
 1846 0287 07       		.byte	0x7
 1847 0288 DD       		.byte	0xdd
 1848 0289 9F000000 		.4byte	0x9f
 1849 028d 05       		.uleb128 0x5
 1850 028e BD040000 		.4byte	.LASF45
 1851 0292 24       		.byte	0x24
 1852 0293 07       		.byte	0x7
 1853 0294 FE       		.byte	0xfe
 1854 0295 1A030000 		.4byte	0x31a
 1855 0299 0B       		.uleb128 0xb
 1856 029a 723400   		.ascii	"r4\000"
 1857 029d 07       		.byte	0x7
 1858 029e 1101     		.2byte	0x111
 1859 02a0 75020000 		.4byte	0x275
 1860 02a4 02       		.byte	0x2
 1861 02a5 23       		.byte	0x23
 1862 02a6 00       		.uleb128 0x0
 1863 02a7 0B       		.uleb128 0xb
 1864 02a8 723500   		.ascii	"r5\000"
 1865 02ab 07       		.byte	0x7
 1866 02ac 1201     		.2byte	0x112
 1867 02ae 75020000 		.4byte	0x275
 1868 02b2 02       		.byte	0x2
 1869 02b3 23       		.byte	0x23
 1870 02b4 04       		.uleb128 0x4
 1871 02b5 0B       		.uleb128 0xb
 1872 02b6 723600   		.ascii	"r6\000"
 1873 02b9 07       		.byte	0x7
 1874 02ba 1301     		.2byte	0x113
 1875 02bc 75020000 		.4byte	0x275
 1876 02c0 02       		.byte	0x2
 1877 02c1 23       		.byte	0x23
 1878 02c2 08       		.uleb128 0x8
 1879 02c3 0B       		.uleb128 0xb
 1880 02c4 723700   		.ascii	"r7\000"
 1881 02c7 07       		.byte	0x7
 1882 02c8 1401     		.2byte	0x114
 1883 02ca 75020000 		.4byte	0x275
 1884 02ce 02       		.byte	0x2
 1885 02cf 23       		.byte	0x23
 1886 02d0 0C       		.uleb128 0xc
 1887 02d1 0B       		.uleb128 0xb
 1888 02d2 723800   		.ascii	"r8\000"
 1889 02d5 07       		.byte	0x7
 1890 02d6 1501     		.2byte	0x115
 1891 02d8 75020000 		.4byte	0x275
 1892 02dc 02       		.byte	0x2
ARM GAS  C:\Users\z80\AppData\Local\Temp\ccuP4NIp.s 			page 35


 1893 02dd 23       		.byte	0x23
 1894 02de 10       		.uleb128 0x10
 1895 02df 0B       		.uleb128 0xb
 1896 02e0 723900   		.ascii	"r9\000"
 1897 02e3 07       		.byte	0x7
 1898 02e4 1601     		.2byte	0x116
 1899 02e6 75020000 		.4byte	0x275
 1900 02ea 02       		.byte	0x2
 1901 02eb 23       		.byte	0x23
 1902 02ec 14       		.uleb128 0x14
 1903 02ed 0B       		.uleb128 0xb
 1904 02ee 72313000 		.ascii	"r10\000"
 1905 02f2 07       		.byte	0x7
 1906 02f3 1701     		.2byte	0x117
 1907 02f5 75020000 		.4byte	0x275
 1908 02f9 02       		.byte	0x2
 1909 02fa 23       		.byte	0x23
 1910 02fb 18       		.uleb128 0x18
 1911 02fc 0B       		.uleb128 0xb
 1912 02fd 72313100 		.ascii	"r11\000"
 1913 0301 07       		.byte	0x7
 1914 0302 1801     		.2byte	0x118
 1915 0304 75020000 		.4byte	0x275
 1916 0308 02       		.byte	0x2
 1917 0309 23       		.byte	0x23
 1918 030a 1C       		.uleb128 0x1c
 1919 030b 0B       		.uleb128 0xb
 1920 030c 6C7200   		.ascii	"lr\000"
 1921 030f 07       		.byte	0x7
 1922 0310 1901     		.2byte	0x119
 1923 0312 75020000 		.4byte	0x275
 1924 0316 02       		.byte	0x2
 1925 0317 23       		.byte	0x23
 1926 0318 20       		.uleb128 0x20
 1927 0319 00       		.byte	0x0
 1928 031a 0C       		.uleb128 0xc
 1929 031b B5040000 		.4byte	.LASF46
 1930 031f 04       		.byte	0x4
 1931 0320 07       		.byte	0x7
 1932 0321 2301     		.2byte	0x123
 1933 0323 37030000 		.4byte	0x337
 1934 0327 0B       		.uleb128 0xb
 1935 0328 72313300 		.ascii	"r13\000"
 1936 032c 07       		.byte	0x7
 1937 032d 2401     		.2byte	0x124
 1938 032f 37030000 		.4byte	0x337
 1939 0333 02       		.byte	0x2
 1940 0334 23       		.byte	0x23
 1941 0335 00       		.uleb128 0x0
 1942 0336 00       		.byte	0x0
 1943 0337 09       		.uleb128 0x9
 1944 0338 04       		.byte	0x4
 1945 0339 8D020000 		.4byte	0x28d
 1946 033d 0D       		.uleb128 0xd
 1947 033e 04       		.byte	0x4
 1948 033f 07       		.byte	0x7
 1949 0340 0E       		.uleb128 0xe
ARM GAS  C:\Users\z80\AppData\Local\Temp\ccuP4NIp.s 			page 36


 1950 0341 FE000000 		.4byte	0xfe
 1951 0345 05       		.uleb128 0x5
 1952 0346 AC020000 		.4byte	.LASF47
 1953 034a 10       		.byte	0x10
 1954 034b 08       		.byte	0x8
 1955 034c 2C       		.byte	0x2c
 1956 034d 7C030000 		.4byte	0x37c
 1957 0351 06       		.uleb128 0x6
 1958 0352 F2000000 		.4byte	.LASF48
 1959 0356 08       		.byte	0x8
 1960 0357 2D       		.byte	0x2d
 1961 0358 48020000 		.4byte	0x248
 1962 035c 02       		.byte	0x2
 1963 035d 23       		.byte	0x23
 1964 035e 00       		.uleb128 0x0
 1965 035f 06       		.uleb128 0x6
 1966 0360 4D050000 		.4byte	.LASF49
 1967 0364 08       		.byte	0x8
 1968 0365 2F       		.byte	0x2f
 1969 0366 42020000 		.4byte	0x242
 1970 036a 02       		.byte	0x2
 1971 036b 23       		.byte	0x23
 1972 036c 08       		.uleb128 0x8
 1973 036d 06       		.uleb128 0x6
 1974 036e 79040000 		.4byte	.LASF50
 1975 0372 08       		.byte	0x8
 1976 0373 31       		.byte	0x31
 1977 0374 7C030000 		.4byte	0x37c
 1978 0378 02       		.byte	0x2
 1979 0379 23       		.byte	0x23
 1980 037a 0C       		.uleb128 0xc
 1981 037b 00       		.byte	0x0
 1982 037c 09       		.uleb128 0x9
 1983 037d 04       		.byte	0x4
 1984 037e 45030000 		.4byte	0x345
 1985 0382 03       		.uleb128 0x3
 1986 0383 AC020000 		.4byte	.LASF47
 1987 0387 08       		.byte	0x8
 1988 0388 33       		.byte	0x33
 1989 0389 45030000 		.4byte	0x345
 1990 038d 03       		.uleb128 0x3
 1991 038e 13050000 		.4byte	.LASF51
 1992 0392 09       		.byte	0x9
 1993 0393 29       		.byte	0x29
 1994 0394 98030000 		.4byte	0x398
 1995 0398 05       		.uleb128 0x5
 1996 0399 13050000 		.4byte	.LASF51
 1997 039d 0C       		.byte	0xc
 1998 039e 09       		.byte	0x9
 1999 039f 2E       		.byte	0x2e
 2000 03a0 CF030000 		.4byte	0x3cf
 2001 03a4 06       		.uleb128 0x6
 2002 03a5 F8030000 		.4byte	.LASF52
 2003 03a9 09       		.byte	0x9
 2004 03aa 2F       		.byte	0x2f
 2005 03ab CF030000 		.4byte	0x3cf
 2006 03af 02       		.byte	0x2
ARM GAS  C:\Users\z80\AppData\Local\Temp\ccuP4NIp.s 			page 37


 2007 03b0 23       		.byte	0x23
 2008 03b1 00       		.uleb128 0x0
 2009 03b2 06       		.uleb128 0x6
 2010 03b3 AA030000 		.4byte	.LASF53
 2011 03b7 09       		.byte	0x9
 2012 03b8 32       		.byte	0x32
 2013 03b9 42020000 		.4byte	0x242
 2014 03bd 02       		.byte	0x2
 2015 03be 23       		.byte	0x23
 2016 03bf 04       		.uleb128 0x4
 2017 03c0 06       		.uleb128 0x6
 2018 03c1 19030000 		.4byte	.LASF54
 2019 03c5 09       		.byte	0x9
 2020 03c6 34       		.byte	0x34
 2021 03c7 F3000000 		.4byte	0xf3
 2022 03cb 02       		.byte	0x2
 2023 03cc 23       		.byte	0x23
 2024 03cd 08       		.uleb128 0x8
 2025 03ce 00       		.byte	0x0
 2026 03cf 09       		.uleb128 0x9
 2027 03d0 04       		.byte	0x4
 2028 03d1 8D030000 		.4byte	0x38d
 2029 03d5 05       		.uleb128 0x5
 2030 03d6 59010000 		.4byte	.LASF55
 2031 03da 04       		.byte	0x4
 2032 03db 09       		.byte	0x9
 2033 03dc 3C       		.byte	0x3c
 2034 03dd F0030000 		.4byte	0x3f0
 2035 03e1 06       		.uleb128 0x6
 2036 03e2 E3040000 		.4byte	.LASF56
 2037 03e6 09       		.byte	0x9
 2038 03e7 3D       		.byte	0x3d
 2039 03e8 CF030000 		.4byte	0x3cf
 2040 03ec 02       		.byte	0x2
 2041 03ed 23       		.byte	0x23
 2042 03ee 00       		.uleb128 0x0
 2043 03ef 00       		.byte	0x0
 2044 03f0 03       		.uleb128 0x3
 2045 03f1 59010000 		.4byte	.LASF55
 2046 03f5 09       		.byte	0x9
 2047 03f6 40       		.byte	0x40
 2048 03f7 D5030000 		.4byte	0x3d5
 2049 03fb 0F       		.uleb128 0xf
 2050 03fc 04       		.byte	0x4
 2051 03fd 06       		.byte	0x6
 2052 03fe 90       		.byte	0x90
 2053 03ff 30040000 		.4byte	0x430
 2054 0403 10       		.uleb128 0x10
 2055 0404 10000000 		.4byte	.LASF57
 2056 0408 06       		.byte	0x6
 2057 0409 97       		.byte	0x97
 2058 040a E8000000 		.4byte	0xe8
 2059 040e 10       		.uleb128 0x10
 2060 040f 7B000000 		.4byte	.LASF58
 2061 0413 06       		.byte	0x6
 2062 0414 9E       		.byte	0x9e
 2063 0415 E8000000 		.4byte	0xe8
ARM GAS  C:\Users\z80\AppData\Local\Temp\ccuP4NIp.s 			page 38


 2064 0419 10       		.uleb128 0x10
 2065 041a 2D050000 		.4byte	.LASF59
 2066 041e 06       		.byte	0x6
 2067 041f A5       		.byte	0xa5
 2068 0420 80020000 		.4byte	0x280
 2069 0424 10       		.uleb128 0x10
 2070 0425 E2030000 		.4byte	.LASF60
 2071 0429 06       		.byte	0x6
 2072 042a AC       		.byte	0xac
 2073 042b F3000000 		.4byte	0xf3
 2074 042f 00       		.byte	0x0
 2075 0430 09       		.uleb128 0x9
 2076 0431 04       		.byte	0x4
 2077 0432 36040000 		.4byte	0x436
 2078 0436 11       		.uleb128 0x11
 2079 0437 3B040000 		.4byte	0x43b
 2080 043b 04       		.uleb128 0x4
 2081 043c 01       		.byte	0x1
 2082 043d 08       		.byte	0x8
 2083 043e 68040000 		.4byte	.LASF61
 2084 0442 09       		.uleb128 0x9
 2085 0443 04       		.byte	0x4
 2086 0444 82020000 		.4byte	0x282
 2087 0448 09       		.uleb128 0x9
 2088 0449 04       		.byte	0x4
 2089 044a 82030000 		.4byte	0x382
 2090 044e 03       		.uleb128 0x3
 2091 044f 7C020000 		.4byte	.LASF62
 2092 0453 0A       		.byte	0xa
 2093 0454 37       		.byte	0x37
 2094 0455 59040000 		.4byte	0x459
 2095 0459 05       		.uleb128 0x5
 2096 045a 7C020000 		.4byte	.LASF62
 2097 045e 20       		.byte	0x20
 2098 045f 0A       		.byte	0xa
 2099 0460 45       		.byte	0x45
 2100 0461 C8040000 		.4byte	0x4c8
 2101 0465 06       		.uleb128 0x6
 2102 0466 2D030000 		.4byte	.LASF63
 2103 046a 0A       		.byte	0xa
 2104 046b 46       		.byte	0x46
 2105 046c 48020000 		.4byte	0x248
 2106 0470 02       		.byte	0x2
 2107 0471 23       		.byte	0x23
 2108 0472 00       		.uleb128 0x0
 2109 0473 06       		.uleb128 0x6
 2110 0474 A2020000 		.4byte	.LASF64
 2111 0478 0A       		.byte	0xa
 2112 0479 47       		.byte	0x47
 2113 047a 30000000 		.4byte	0x30
 2114 047e 02       		.byte	0x2
 2115 047f 23       		.byte	0x23
 2116 0480 08       		.uleb128 0x8
 2117 0481 06       		.uleb128 0x6
 2118 0482 20010000 		.4byte	.LASF65
 2119 0486 0A       		.byte	0xa
 2120 0487 48       		.byte	0x48
ARM GAS  C:\Users\z80\AppData\Local\Temp\ccuP4NIp.s 			page 39


 2121 0488 EB040000 		.4byte	0x4eb
 2122 048c 02       		.byte	0x2
 2123 048d 23       		.byte	0x23
 2124 048e 0C       		.uleb128 0xc
 2125 048f 06       		.uleb128 0x6
 2126 0490 D6040000 		.4byte	.LASF66
 2127 0494 0A       		.byte	0xa
 2128 0495 49       		.byte	0x49
 2129 0496 EB040000 		.4byte	0x4eb
 2130 049a 02       		.byte	0x2
 2131 049b 23       		.byte	0x23
 2132 049c 10       		.uleb128 0x10
 2133 049d 06       		.uleb128 0x6
 2134 049e 29010000 		.4byte	.LASF67
 2135 04a2 0A       		.byte	0xa
 2136 04a3 4B       		.byte	0x4b
 2137 04a4 EB040000 		.4byte	0x4eb
 2138 04a8 02       		.byte	0x2
 2139 04a9 23       		.byte	0x23
 2140 04aa 14       		.uleb128 0x14
 2141 04ab 06       		.uleb128 0x6
 2142 04ac 83030000 		.4byte	.LASF68
 2143 04b0 0A       		.byte	0xa
 2144 04b1 4C       		.byte	0x4c
 2145 04b2 EB040000 		.4byte	0x4eb
 2146 04b6 02       		.byte	0x2
 2147 04b7 23       		.byte	0x23
 2148 04b8 18       		.uleb128 0x18
 2149 04b9 06       		.uleb128 0x6
 2150 04ba EB040000 		.4byte	.LASF69
 2151 04be 0A       		.byte	0xa
 2152 04bf 4D       		.byte	0x4d
 2153 04c0 C8040000 		.4byte	0x4c8
 2154 04c4 02       		.byte	0x2
 2155 04c5 23       		.byte	0x23
 2156 04c6 1C       		.uleb128 0x1c
 2157 04c7 00       		.byte	0x0
 2158 04c8 03       		.uleb128 0x3
 2159 04c9 63020000 		.4byte	.LASF70
 2160 04cd 0A       		.byte	0xa
 2161 04ce 3A       		.byte	0x3a
 2162 04cf D3040000 		.4byte	0x4d3
 2163 04d3 09       		.uleb128 0x9
 2164 04d4 04       		.byte	0x4
 2165 04d5 D9040000 		.4byte	0x4d9
 2166 04d9 12       		.uleb128 0x12
 2167 04da 01       		.byte	0x1
 2168 04db E5040000 		.4byte	0x4e5
 2169 04df 13       		.uleb128 0x13
 2170 04e0 E5040000 		.4byte	0x4e5
 2171 04e4 00       		.byte	0x0
 2172 04e5 09       		.uleb128 0x9
 2173 04e6 04       		.byte	0x4
 2174 04e7 4E040000 		.4byte	0x44e
 2175 04eb 09       		.uleb128 0x9
 2176 04ec 04       		.byte	0x4
 2177 04ed 49000000 		.4byte	0x49
ARM GAS  C:\Users\z80\AppData\Local\Temp\ccuP4NIp.s 			page 40


 2178 04f1 03       		.uleb128 0x3
 2179 04f2 58020000 		.4byte	.LASF71
 2180 04f6 0A       		.byte	0xa
 2181 04f7 76       		.byte	0x76
 2182 04f8 4E040000 		.4byte	0x44e
 2183 04fc 03       		.uleb128 0x3
 2184 04fd 26000000 		.4byte	.LASF72
 2185 0501 0A       		.byte	0xa
 2186 0502 E6       		.byte	0xe6
 2187 0503 4E040000 		.4byte	0x44e
 2188 0507 14       		.uleb128 0x14
 2189 0508 01       		.byte	0x1
 2190 0509 30000000 		.4byte	0x30
 2191 050d 21050000 		.4byte	0x521
 2192 0511 13       		.uleb128 0x13
 2193 0512 80020000 		.4byte	0x280
 2194 0516 13       		.uleb128 0x13
 2195 0517 21050000 		.4byte	0x521
 2196 051b 13       		.uleb128 0x13
 2197 051c 30000000 		.4byte	0x30
 2198 0520 00       		.byte	0x0
 2199 0521 09       		.uleb128 0x9
 2200 0522 04       		.byte	0x4
 2201 0523 27050000 		.4byte	0x527
 2202 0527 11       		.uleb128 0x11
 2203 0528 49000000 		.4byte	0x49
 2204 052c 09       		.uleb128 0x9
 2205 052d 04       		.byte	0x4
 2206 052e 07050000 		.4byte	0x507
 2207 0532 14       		.uleb128 0x14
 2208 0533 01       		.byte	0x1
 2209 0534 30000000 		.4byte	0x30
 2210 0538 4C050000 		.4byte	0x54c
 2211 053c 13       		.uleb128 0x13
 2212 053d 80020000 		.4byte	0x280
 2213 0541 13       		.uleb128 0x13
 2214 0542 EB040000 		.4byte	0x4eb
 2215 0546 13       		.uleb128 0x13
 2216 0547 30000000 		.4byte	0x30
 2217 054b 00       		.byte	0x0
 2218 054c 09       		.uleb128 0x9
 2219 054d 04       		.byte	0x4
 2220 054e 32050000 		.4byte	0x532
 2221 0552 14       		.uleb128 0x14
 2222 0553 01       		.byte	0x1
 2223 0554 BC000000 		.4byte	0xbc
 2224 0558 62050000 		.4byte	0x562
 2225 055c 13       		.uleb128 0x13
 2226 055d 80020000 		.4byte	0x280
 2227 0561 00       		.byte	0x0
 2228 0562 09       		.uleb128 0x9
 2229 0563 04       		.byte	0x4
 2230 0564 52050000 		.4byte	0x552
 2231 0568 14       		.uleb128 0x14
 2232 0569 01       		.byte	0x1
 2233 056a E8000000 		.4byte	0xe8
 2234 056e 82050000 		.4byte	0x582
ARM GAS  C:\Users\z80\AppData\Local\Temp\ccuP4NIp.s 			page 41


 2235 0572 13       		.uleb128 0x13
 2236 0573 80020000 		.4byte	0x280
 2237 0577 13       		.uleb128 0x13
 2238 0578 49000000 		.4byte	0x49
 2239 057c 13       		.uleb128 0x13
 2240 057d FE000000 		.4byte	0xfe
 2241 0581 00       		.byte	0x0
 2242 0582 09       		.uleb128 0x9
 2243 0583 04       		.byte	0x4
 2244 0584 68050000 		.4byte	0x568
 2245 0588 14       		.uleb128 0x14
 2246 0589 01       		.byte	0x1
 2247 058a E8000000 		.4byte	0xe8
 2248 058e 9D050000 		.4byte	0x59d
 2249 0592 13       		.uleb128 0x13
 2250 0593 80020000 		.4byte	0x280
 2251 0597 13       		.uleb128 0x13
 2252 0598 FE000000 		.4byte	0xfe
 2253 059c 00       		.byte	0x0
 2254 059d 09       		.uleb128 0x9
 2255 059e 04       		.byte	0x4
 2256 059f 88050000 		.4byte	0x588
 2257 05a3 14       		.uleb128 0x14
 2258 05a4 01       		.byte	0x1
 2259 05a5 30000000 		.4byte	0x30
 2260 05a9 C2050000 		.4byte	0x5c2
 2261 05ad 13       		.uleb128 0x13
 2262 05ae 80020000 		.4byte	0x280
 2263 05b2 13       		.uleb128 0x13
 2264 05b3 21050000 		.4byte	0x521
 2265 05b7 13       		.uleb128 0x13
 2266 05b8 30000000 		.4byte	0x30
 2267 05bc 13       		.uleb128 0x13
 2268 05bd FE000000 		.4byte	0xfe
 2269 05c1 00       		.byte	0x0
 2270 05c2 09       		.uleb128 0x9
 2271 05c3 04       		.byte	0x4
 2272 05c4 A3050000 		.4byte	0x5a3
 2273 05c8 14       		.uleb128 0x14
 2274 05c9 01       		.byte	0x1
 2275 05ca 30000000 		.4byte	0x30
 2276 05ce E7050000 		.4byte	0x5e7
 2277 05d2 13       		.uleb128 0x13
 2278 05d3 80020000 		.4byte	0x280
 2279 05d7 13       		.uleb128 0x13
 2280 05d8 EB040000 		.4byte	0x4eb
 2281 05dc 13       		.uleb128 0x13
 2282 05dd 30000000 		.4byte	0x30
 2283 05e1 13       		.uleb128 0x13
 2284 05e2 FE000000 		.4byte	0xfe
 2285 05e6 00       		.byte	0x0
 2286 05e7 09       		.uleb128 0x9
 2287 05e8 04       		.byte	0x4
 2288 05e9 C8050000 		.4byte	0x5c8
 2289 05ed 15       		.uleb128 0x15
 2290 05ee C9020000 		.4byte	.LASF73
 2291 05f2 0B       		.byte	0xb
ARM GAS  C:\Users\z80\AppData\Local\Temp\ccuP4NIp.s 			page 42


 2292 05f3 0B01     		.2byte	0x10b
 2293 05f5 B1000000 		.4byte	0xb1
 2294 05f9 14       		.uleb128 0x14
 2295 05fa 01       		.byte	0x1
 2296 05fb ED050000 		.4byte	0x5ed
 2297 05ff 09060000 		.4byte	0x609
 2298 0603 13       		.uleb128 0x13
 2299 0604 80020000 		.4byte	0x280
 2300 0608 00       		.byte	0x0
 2301 0609 09       		.uleb128 0x9
 2302 060a 04       		.byte	0x4
 2303 060b F9050000 		.4byte	0x5f9
 2304 060f 03       		.uleb128 0x3
 2305 0610 32000000 		.4byte	.LASF74
 2306 0614 0C       		.byte	0xc
 2307 0615 0B       		.byte	0xb
 2308 0616 1A060000 		.4byte	0x61a
 2309 061a 09       		.uleb128 0x9
 2310 061b 04       		.byte	0x4
 2311 061c 20060000 		.4byte	0x620
 2312 0620 12       		.uleb128 0x12
 2313 0621 01       		.byte	0x1
 2314 0622 2C060000 		.4byte	0x62c
 2315 0626 13       		.uleb128 0x13
 2316 0627 EB040000 		.4byte	0x4eb
 2317 062b 00       		.byte	0x0
 2318 062c 0E       		.uleb128 0xe
 2319 062d 62000000 		.4byte	0x62
 2320 0631 0E       		.uleb128 0xe
 2321 0632 74000000 		.4byte	0x74
 2322 0636 16       		.uleb128 0x16
 2323 0637 1C       		.byte	0x1c
 2324 0638 0D       		.byte	0xd
 2325 0639 E104     		.2byte	0x4e1
 2326 063b 10070000 		.4byte	0x710
 2327 063f 0B       		.uleb128 0xb
 2328 0640 535200   		.ascii	"SR\000"
 2329 0643 0D       		.byte	0xd
 2330 0644 E304     		.2byte	0x4e3
 2331 0646 2C060000 		.4byte	0x62c
 2332 064a 02       		.byte	0x2
 2333 064b 23       		.byte	0x23
 2334 064c 00       		.uleb128 0x0
 2335 064d 17       		.uleb128 0x17
 2336 064e 37030000 		.4byte	.LASF75
 2337 0652 0D       		.byte	0xd
 2338 0653 E404     		.2byte	0x4e4
 2339 0655 62000000 		.4byte	0x62
 2340 0659 02       		.byte	0x2
 2341 065a 23       		.byte	0x23
 2342 065b 02       		.uleb128 0x2
 2343 065c 0B       		.uleb128 0xb
 2344 065d 445200   		.ascii	"DR\000"
 2345 0660 0D       		.byte	0xd
 2346 0661 E504     		.2byte	0x4e5
 2347 0663 2C060000 		.4byte	0x62c
 2348 0667 02       		.byte	0x2
ARM GAS  C:\Users\z80\AppData\Local\Temp\ccuP4NIp.s 			page 43


 2349 0668 23       		.byte	0x23
 2350 0669 04       		.uleb128 0x4
 2351 066a 17       		.uleb128 0x17
 2352 066b 41030000 		.4byte	.LASF76
 2353 066f 0D       		.byte	0xd
 2354 0670 E604     		.2byte	0x4e6
 2355 0672 62000000 		.4byte	0x62
 2356 0676 02       		.byte	0x2
 2357 0677 23       		.byte	0x23
 2358 0678 06       		.uleb128 0x6
 2359 0679 0B       		.uleb128 0xb
 2360 067a 42525200 		.ascii	"BRR\000"
 2361 067e 0D       		.byte	0xd
 2362 067f E704     		.2byte	0x4e7
 2363 0681 2C060000 		.4byte	0x62c
 2364 0685 02       		.byte	0x2
 2365 0686 23       		.byte	0x23
 2366 0687 08       		.uleb128 0x8
 2367 0688 17       		.uleb128 0x17
 2368 0689 4B030000 		.4byte	.LASF77
 2369 068d 0D       		.byte	0xd
 2370 068e E804     		.2byte	0x4e8
 2371 0690 62000000 		.4byte	0x62
 2372 0694 02       		.byte	0x2
 2373 0695 23       		.byte	0x23
 2374 0696 0A       		.uleb128 0xa
 2375 0697 0B       		.uleb128 0xb
 2376 0698 43523100 		.ascii	"CR1\000"
 2377 069c 0D       		.byte	0xd
 2378 069d E904     		.2byte	0x4e9
 2379 069f 2C060000 		.4byte	0x62c
 2380 06a3 02       		.byte	0x2
 2381 06a4 23       		.byte	0x23
 2382 06a5 0C       		.uleb128 0xc
 2383 06a6 17       		.uleb128 0x17
 2384 06a7 55030000 		.4byte	.LASF78
 2385 06ab 0D       		.byte	0xd
 2386 06ac EA04     		.2byte	0x4ea
 2387 06ae 62000000 		.4byte	0x62
 2388 06b2 02       		.byte	0x2
 2389 06b3 23       		.byte	0x23
 2390 06b4 0E       		.uleb128 0xe
 2391 06b5 0B       		.uleb128 0xb
 2392 06b6 43523200 		.ascii	"CR2\000"
 2393 06ba 0D       		.byte	0xd
 2394 06bb EB04     		.2byte	0x4eb
 2395 06bd 2C060000 		.4byte	0x62c
 2396 06c1 02       		.byte	0x2
 2397 06c2 23       		.byte	0x23
 2398 06c3 10       		.uleb128 0x10
 2399 06c4 17       		.uleb128 0x17
 2400 06c5 5F030000 		.4byte	.LASF79
 2401 06c9 0D       		.byte	0xd
 2402 06ca EC04     		.2byte	0x4ec
 2403 06cc 62000000 		.4byte	0x62
 2404 06d0 02       		.byte	0x2
 2405 06d1 23       		.byte	0x23
ARM GAS  C:\Users\z80\AppData\Local\Temp\ccuP4NIp.s 			page 44


 2406 06d2 12       		.uleb128 0x12
 2407 06d3 0B       		.uleb128 0xb
 2408 06d4 43523300 		.ascii	"CR3\000"
 2409 06d8 0D       		.byte	0xd
 2410 06d9 ED04     		.2byte	0x4ed
 2411 06db 2C060000 		.4byte	0x62c
 2412 06df 02       		.byte	0x2
 2413 06e0 23       		.byte	0x23
 2414 06e1 14       		.uleb128 0x14
 2415 06e2 17       		.uleb128 0x17
 2416 06e3 27040000 		.4byte	.LASF80
 2417 06e7 0D       		.byte	0xd
 2418 06e8 EE04     		.2byte	0x4ee
 2419 06ea 62000000 		.4byte	0x62
 2420 06ee 02       		.byte	0x2
 2421 06ef 23       		.byte	0x23
 2422 06f0 16       		.uleb128 0x16
 2423 06f1 17       		.uleb128 0x17
 2424 06f2 DE000000 		.4byte	.LASF81
 2425 06f6 0D       		.byte	0xd
 2426 06f7 EF04     		.2byte	0x4ef
 2427 06f9 2C060000 		.4byte	0x62c
 2428 06fd 02       		.byte	0x2
 2429 06fe 23       		.byte	0x23
 2430 06ff 18       		.uleb128 0x18
 2431 0700 17       		.uleb128 0x17
 2432 0701 70030000 		.4byte	.LASF82
 2433 0705 0D       		.byte	0xd
 2434 0706 F004     		.2byte	0x4f0
 2435 0708 62000000 		.4byte	0x62
 2436 070c 02       		.byte	0x2
 2437 070d 23       		.byte	0x23
 2438 070e 1A       		.uleb128 0x1a
 2439 070f 00       		.byte	0x0
 2440 0710 15       		.uleb128 0x15
 2441 0711 23020000 		.4byte	.LASF83
 2442 0715 0D       		.byte	0xd
 2443 0716 F104     		.2byte	0x4f1
 2444 0718 36060000 		.4byte	0x636
 2445 071c 18       		.uleb128 0x18
 2446 071d 01       		.byte	0x1
 2447 071e 0E       		.byte	0xe
 2448 071f 64       		.byte	0x64
 2449 0720 37070000 		.4byte	0x737
 2450 0724 19       		.uleb128 0x19
 2451 0725 1D040000 		.4byte	.LASF84
 2452 0729 00       		.sleb128 0
 2453 072a 19       		.uleb128 0x19
 2454 072b E3000000 		.4byte	.LASF85
 2455 072f 01       		.sleb128 1
 2456 0730 19       		.uleb128 0x19
 2457 0731 C4040000 		.4byte	.LASF86
 2458 0735 02       		.sleb128 2
 2459 0736 00       		.byte	0x0
 2460 0737 03       		.uleb128 0x3
 2461 0738 3A040000 		.4byte	.LASF87
 2462 073c 0E       		.byte	0xe
ARM GAS  C:\Users\z80\AppData\Local\Temp\ccuP4NIp.s 			page 45


 2463 073d 68       		.byte	0x68
 2464 073e 1C070000 		.4byte	0x71c
 2465 0742 03       		.uleb128 0x3
 2466 0743 44040000 		.4byte	.LASF88
 2467 0747 0E       		.byte	0xe
 2468 0748 6D       		.byte	0x6d
 2469 0749 4D070000 		.4byte	0x74d
 2470 074d 05       		.uleb128 0x5
 2471 074e 44040000 		.4byte	.LASF88
 2472 0752 74       		.byte	0x74
 2473 0753 0E       		.byte	0xe
 2474 0754 87       		.byte	0x87
 2475 0755 D6070000 		.4byte	0x7d6
 2476 0759 07       		.uleb128 0x7
 2477 075a 766D7400 		.ascii	"vmt\000"
 2478 075e 0E       		.byte	0xe
 2479 075f 89       		.byte	0x89
 2480 0760 61080000 		.4byte	0x861
 2481 0764 02       		.byte	0x2
 2482 0765 23       		.byte	0x23
 2483 0766 00       		.uleb128 0x0
 2484 0767 06       		.uleb128 0x6
 2485 0768 E3010000 		.4byte	.LASF89
 2486 076c 0E       		.byte	0xe
 2487 076d 8A       		.byte	0x8a
 2488 076e F0030000 		.4byte	0x3f0
 2489 0772 02       		.byte	0x2
 2490 0773 23       		.byte	0x23
 2491 0774 04       		.uleb128 0x4
 2492 0775 06       		.uleb128 0x6
 2493 0776 0D050000 		.4byte	.LASF90
 2494 077a 0E       		.byte	0xe
 2495 077b 8A       		.byte	0x8a
 2496 077c ED050000 		.4byte	0x5ed
 2497 0780 02       		.byte	0x2
 2498 0781 23       		.byte	0x23
 2499 0782 08       		.uleb128 0x8
 2500 0783 06       		.uleb128 0x6
 2501 0784 08010000 		.4byte	.LASF91
 2502 0788 0E       		.byte	0xe
 2503 0789 8A       		.byte	0x8a
 2504 078a 37070000 		.4byte	0x737
 2505 078e 02       		.byte	0x2
 2506 078f 23       		.byte	0x23
 2507 0790 0C       		.uleb128 0xc
 2508 0791 06       		.uleb128 0x6
 2509 0792 B3010000 		.4byte	.LASF92
 2510 0796 0E       		.byte	0xe
 2511 0797 8A       		.byte	0x8a
 2512 0798 F1040000 		.4byte	0x4f1
 2513 079c 02       		.byte	0x2
 2514 079d 23       		.byte	0x23
 2515 079e 10       		.uleb128 0x10
 2516 079f 06       		.uleb128 0x6
 2517 07a0 02020000 		.4byte	.LASF93
 2518 07a4 0E       		.byte	0xe
 2519 07a5 8A       		.byte	0x8a
ARM GAS  C:\Users\z80\AppData\Local\Temp\ccuP4NIp.s 			page 46


 2520 07a6 FC040000 		.4byte	0x4fc
 2521 07aa 02       		.byte	0x2
 2522 07ab 23       		.byte	0x23
 2523 07ac 30       		.uleb128 0x30
 2524 07ad 07       		.uleb128 0x7
 2525 07ae 696200   		.ascii	"ib\000"
 2526 07b1 0E       		.byte	0xe
 2527 07b2 8A       		.byte	0x8a
 2528 07b3 6C080000 		.4byte	0x86c
 2529 07b7 02       		.byte	0x2
 2530 07b8 23       		.byte	0x23
 2531 07b9 50       		.uleb128 0x50
 2532 07ba 07       		.uleb128 0x7
 2533 07bb 6F6200   		.ascii	"ob\000"
 2534 07be 0E       		.byte	0xe
 2535 07bf 8A       		.byte	0x8a
 2536 07c0 6C080000 		.4byte	0x86c
 2537 07c4 02       		.byte	0x2
 2538 07c5 23       		.byte	0x23
 2539 07c6 60       		.uleb128 0x60
 2540 07c7 06       		.uleb128 0x6
 2541 07c8 65010000 		.4byte	.LASF94
 2542 07cc 0E       		.byte	0xe
 2543 07cd 8A       		.byte	0x8a
 2544 07ce 7C080000 		.4byte	0x87c
 2545 07d2 02       		.byte	0x2
 2546 07d3 23       		.byte	0x23
 2547 07d4 70       		.uleb128 0x70
 2548 07d5 00       		.byte	0x0
 2549 07d6 05       		.uleb128 0x5
 2550 07d7 81010000 		.4byte	.LASF95
 2551 07db 24       		.byte	0x24
 2552 07dc 0E       		.byte	0xe
 2553 07dd 7C       		.byte	0x7c
 2554 07de 61080000 		.4byte	0x861
 2555 07e2 06       		.uleb128 0x6
 2556 07e3 9C020000 		.4byte	.LASF96
 2557 07e7 0E       		.byte	0xe
 2558 07e8 7D       		.byte	0x7d
 2559 07e9 2C050000 		.4byte	0x52c
 2560 07ed 02       		.byte	0x2
 2561 07ee 23       		.byte	0x23
 2562 07ef 00       		.uleb128 0x0
 2563 07f0 06       		.uleb128 0x6
 2564 07f1 63040000 		.4byte	.LASF97
 2565 07f5 0E       		.byte	0xe
 2566 07f6 7D       		.byte	0x7d
 2567 07f7 4C050000 		.4byte	0x54c
 2568 07fb 02       		.byte	0x2
 2569 07fc 23       		.byte	0x23
 2570 07fd 04       		.uleb128 0x4
 2571 07fe 06       		.uleb128 0x6
 2572 07ff 39010000 		.4byte	.LASF98
 2573 0803 0E       		.byte	0xe
 2574 0804 7D       		.byte	0x7d
 2575 0805 62050000 		.4byte	0x562
 2576 0809 02       		.byte	0x2
ARM GAS  C:\Users\z80\AppData\Local\Temp\ccuP4NIp.s 			page 47


 2577 080a 23       		.byte	0x23
 2578 080b 08       		.uleb128 0x8
 2579 080c 06       		.uleb128 0x6
 2580 080d 3A050000 		.4byte	.LASF99
 2581 0811 0E       		.byte	0xe
 2582 0812 7D       		.byte	0x7d
 2583 0813 62050000 		.4byte	0x562
 2584 0817 02       		.byte	0x2
 2585 0818 23       		.byte	0x23
 2586 0819 0C       		.uleb128 0xc
 2587 081a 07       		.uleb128 0x7
 2588 081b 70757400 		.ascii	"put\000"
 2589 081f 0E       		.byte	0xe
 2590 0820 7D       		.byte	0x7d
 2591 0821 82050000 		.4byte	0x582
 2592 0825 02       		.byte	0x2
 2593 0826 23       		.byte	0x23
 2594 0827 10       		.uleb128 0x10
 2595 0828 07       		.uleb128 0x7
 2596 0829 67657400 		.ascii	"get\000"
 2597 082d 0E       		.byte	0xe
 2598 082e 7D       		.byte	0x7d
 2599 082f 9D050000 		.4byte	0x59d
 2600 0833 02       		.byte	0x2
 2601 0834 23       		.byte	0x23
 2602 0835 14       		.uleb128 0x14
 2603 0836 06       		.uleb128 0x6
 2604 0837 31020000 		.4byte	.LASF100
 2605 083b 0E       		.byte	0xe
 2606 083c 7D       		.byte	0x7d
 2607 083d C2050000 		.4byte	0x5c2
 2608 0841 02       		.byte	0x2
 2609 0842 23       		.byte	0x23
 2610 0843 18       		.uleb128 0x18
 2611 0844 06       		.uleb128 0x6
 2612 0845 AF000000 		.4byte	.LASF101
 2613 0849 0E       		.byte	0xe
 2614 084a 7D       		.byte	0x7d
 2615 084b E7050000 		.4byte	0x5e7
 2616 084f 02       		.byte	0x2
 2617 0850 23       		.byte	0x23
 2618 0851 1C       		.uleb128 0x1c
 2619 0852 06       		.uleb128 0x6
 2620 0853 AC040000 		.4byte	.LASF102
 2621 0857 0E       		.byte	0xe
 2622 0858 7D       		.byte	0x7d
 2623 0859 09060000 		.4byte	0x609
 2624 085d 02       		.byte	0x2
 2625 085e 23       		.byte	0x23
 2626 085f 20       		.uleb128 0x20
 2627 0860 00       		.byte	0x0
 2628 0861 09       		.uleb128 0x9
 2629 0862 04       		.byte	0x4
 2630 0863 67080000 		.4byte	0x867
 2631 0867 11       		.uleb128 0x11
 2632 0868 D6070000 		.4byte	0x7d6
 2633 086c 1A       		.uleb128 0x1a
ARM GAS  C:\Users\z80\AppData\Local\Temp\ccuP4NIp.s 			page 48


 2634 086d 49000000 		.4byte	0x49
 2635 0871 7C080000 		.4byte	0x87c
 2636 0875 1B       		.uleb128 0x1b
 2637 0876 3D030000 		.4byte	0x33d
 2638 087a 0F       		.byte	0xf
 2639 087b 00       		.byte	0x0
 2640 087c 09       		.uleb128 0x9
 2641 087d 04       		.byte	0x4
 2642 087e 10070000 		.4byte	0x710
 2643 0882 1C       		.uleb128 0x1c
 2644 0883 CA010000 		.4byte	.LASF105
 2645 0887 01       		.byte	0x1
 2646 0888 86       		.byte	0x86
 2647 0889 01       		.byte	0x1
 2648 088a 01       		.byte	0x1
 2649 088b A6080000 		.4byte	0x8a6
 2650 088f 1D       		.uleb128 0x1d
 2651 0890 02050000 		.4byte	.LASF103
 2652 0894 01       		.byte	0x1
 2653 0895 88       		.byte	0x88
 2654 0896 29000000 		.4byte	0x29
 2655 089a 1D       		.uleb128 0x1d
 2656 089b 7A030000 		.4byte	.LASF104
 2657 089f 01       		.byte	0x1
 2658 08a0 8A       		.byte	0x8a
 2659 08a1 29000000 		.4byte	0x29
 2660 08a5 00       		.byte	0x0
 2661 08a6 1C       		.uleb128 0x1c
 2662 08a7 D2030000 		.4byte	.LASF106
 2663 08ab 01       		.byte	0x1
 2664 08ac 54       		.byte	0x54
 2665 08ad 01       		.byte	0x1
 2666 08ae 01       		.byte	0x1
 2667 08af E8080000 		.4byte	0x8e8
 2668 08b3 1E       		.uleb128 0x1e
 2669 08b4 62756600 		.ascii	"buf\000"
 2670 08b8 01       		.byte	0x1
 2671 08b9 54       		.byte	0x54
 2672 08ba EB040000 		.4byte	0x4eb
 2673 08be 1E       		.uleb128 0x1e
 2674 08bf 737A00   		.ascii	"sz\000"
 2675 08c2 01       		.byte	0x1
 2676 08c3 54       		.byte	0x54
 2677 08c4 29000000 		.4byte	0x29
 2678 08c8 1F       		.uleb128 0x1f
 2679 08c9 6900     		.ascii	"i\000"
 2680 08cb 01       		.byte	0x1
 2681 08cc 56       		.byte	0x56
 2682 08cd 29000000 		.4byte	0x29
 2683 08d1 1F       		.uleb128 0x1f
 2684 08d2 636D6400 		.ascii	"cmd\000"
 2685 08d6 01       		.byte	0x1
 2686 08d7 57       		.byte	0x57
 2687 08d8 49000000 		.4byte	0x49
 2688 08dc 1D       		.uleb128 0x1d
 2689 08dd A7040000 		.4byte	.LASF107
 2690 08e1 01       		.byte	0x1
ARM GAS  C:\Users\z80\AppData\Local\Temp\ccuP4NIp.s 			page 49


 2691 08e2 59       		.byte	0x59
 2692 08e3 EB040000 		.4byte	0x4eb
 2693 08e7 00       		.byte	0x0
 2694 08e8 20       		.uleb128 0x20
 2695 08e9 21030000 		.4byte	.LASF108
 2696 08ed 01       		.byte	0x1
 2697 08ee 0801     		.2byte	0x108
 2698 08f0 01       		.byte	0x1
 2699 08f1 00000000 		.4byte	.LFB81
 2700 08f5 34000000 		.4byte	.LFE81
 2701 08f9 00000000 		.4byte	.LLST0
 2702 08fd 10090000 		.4byte	0x910
 2703 0901 21       		.uleb128 0x21
 2704 0902 7600     		.ascii	"v\000"
 2705 0904 01       		.byte	0x1
 2706 0905 0801     		.2byte	0x108
 2707 0907 49000000 		.4byte	0x49
 2708 090b 20000000 		.4byte	.LLST1
 2709 090f 00       		.byte	0x0
 2710 0910 22       		.uleb128 0x22
 2711 0911 00000000 		.4byte	.LASF135
 2712 0915 01       		.byte	0x1
 2713 0916 0F01     		.2byte	0x10f
 2714 0918 01       		.byte	0x1
 2715 0919 00000000 		.4byte	.LFB82
 2716 091d 14000000 		.4byte	.LFE82
 2717 0921 33000000 		.4byte	.LLST2
 2718 0925 23       		.uleb128 0x23
 2719 0926 12020000 		.4byte	.LASF109
 2720 092a 01       		.byte	0x1
 2721 092b F8       		.byte	0xf8
 2722 092c 01       		.byte	0x1
 2723 092d 00000000 		.4byte	.LFB80
 2724 0931 30000000 		.4byte	.LFE80
 2725 0935 53000000 		.4byte	.LLST3
 2726 0939 72090000 		.4byte	0x972
 2727 093d 24       		.uleb128 0x24
 2728 093e 48050000 		.4byte	.LASF110
 2729 0942 01       		.byte	0x1
 2730 0943 F8       		.byte	0xf8
 2731 0944 EB040000 		.4byte	0x4eb
 2732 0948 7F000000 		.4byte	.LLST4
 2733 094c 25       		.uleb128 0x25
 2734 094d C5010000 		.4byte	.LASF111
 2735 0951 01       		.byte	0x1
 2736 0952 FB       		.byte	0xfb
 2737 0953 82090000 		.4byte	0x982
 2738 0957 02       		.byte	0x2
 2739 0958 91       		.byte	0x91
 2740 0959 68       		.sleb128 -24
 2741 095a 26       		.uleb128 0x26
 2742 095b 6C00     		.ascii	"l\000"
 2743 095d 01       		.byte	0x1
 2744 095e FC       		.byte	0xfc
 2745 095f 29000000 		.4byte	0x29
 2746 0963 05       		.byte	0x5
 2747 0964 27       		.uleb128 0x27
ARM GAS  C:\Users\z80\AppData\Local\Temp\ccuP4NIp.s 			page 50


 2748 0965 6900     		.ascii	"i\000"
 2749 0967 01       		.byte	0x1
 2750 0968 FD       		.byte	0xfd
 2751 0969 29000000 		.4byte	0x29
 2752 096d 92000000 		.4byte	.LLST5
 2753 0971 00       		.byte	0x0
 2754 0972 1A       		.uleb128 0x1a
 2755 0973 49000000 		.4byte	0x49
 2756 0977 82090000 		.4byte	0x982
 2757 097b 1B       		.uleb128 0x1b
 2758 097c 3D030000 		.4byte	0x33d
 2759 0980 05       		.byte	0x5
 2760 0981 00       		.byte	0x0
 2761 0982 11       		.uleb128 0x11
 2762 0983 72090000 		.4byte	0x972
 2763 0987 23       		.uleb128 0x23
 2764 0988 98010000 		.4byte	.LASF112
 2765 098c 01       		.byte	0x1
 2766 098d ED       		.byte	0xed
 2767 098e 01       		.byte	0x1
 2768 098f 00000000 		.4byte	.LFB79
 2769 0993 30000000 		.4byte	.LFE79
 2770 0997 A6000000 		.4byte	.LLST6
 2771 099b D4090000 		.4byte	0x9d4
 2772 099f 24       		.uleb128 0x24
 2773 09a0 48050000 		.4byte	.LASF110
 2774 09a4 01       		.byte	0x1
 2775 09a5 ED       		.byte	0xed
 2776 09a6 EB040000 		.4byte	0x4eb
 2777 09aa D2000000 		.4byte	.LLST7
 2778 09ae 25       		.uleb128 0x25
 2779 09af C5010000 		.4byte	.LASF111
 2780 09b3 01       		.byte	0x1
 2781 09b4 F0       		.byte	0xf0
 2782 09b5 E4090000 		.4byte	0x9e4
 2783 09b9 02       		.byte	0x2
 2784 09ba 91       		.byte	0x91
 2785 09bb 60       		.sleb128 -32
 2786 09bc 26       		.uleb128 0x26
 2787 09bd 6C00     		.ascii	"l\000"
 2788 09bf 01       		.byte	0x1
 2789 09c0 F1       		.byte	0xf1
 2790 09c1 29000000 		.4byte	0x29
 2791 09c5 0D       		.byte	0xd
 2792 09c6 27       		.uleb128 0x27
 2793 09c7 6900     		.ascii	"i\000"
 2794 09c9 01       		.byte	0x1
 2795 09ca F2       		.byte	0xf2
 2796 09cb 29000000 		.4byte	0x29
 2797 09cf E5000000 		.4byte	.LLST8
 2798 09d3 00       		.byte	0x0
 2799 09d4 1A       		.uleb128 0x1a
 2800 09d5 49000000 		.4byte	0x49
 2801 09d9 E4090000 		.4byte	0x9e4
 2802 09dd 1B       		.uleb128 0x1b
 2803 09de 3D030000 		.4byte	0x33d
 2804 09e2 0D       		.byte	0xd
ARM GAS  C:\Users\z80\AppData\Local\Temp\ccuP4NIp.s 			page 51


 2805 09e3 00       		.byte	0x0
 2806 09e4 11       		.uleb128 0x11
 2807 09e5 D4090000 		.4byte	0x9d4
 2808 09e9 23       		.uleb128 0x23
 2809 09ea A9010000 		.4byte	.LASF113
 2810 09ee 01       		.byte	0x1
 2811 09ef E6       		.byte	0xe6
 2812 09f0 01       		.byte	0x1
 2813 09f1 00000000 		.4byte	.LFB78
 2814 09f5 12000000 		.4byte	.LFE78
 2815 09f9 F9000000 		.4byte	.LLST9
 2816 09fd 1E0A0000 		.4byte	0xa1e
 2817 0a01 24       		.uleb128 0x24
 2818 0a02 48050000 		.4byte	.LASF110
 2819 0a06 01       		.byte	0x1
 2820 0a07 E6       		.byte	0xe6
 2821 0a08 EB040000 		.4byte	0x4eb
 2822 0a0c 19010000 		.4byte	.LLST10
 2823 0a10 27       		.uleb128 0x27
 2824 0a11 7100     		.ascii	"q\000"
 2825 0a13 01       		.byte	0x1
 2826 0a14 E9       		.byte	0xe9
 2827 0a15 1E0A0000 		.4byte	0xa1e
 2828 0a19 2C010000 		.4byte	.LLST11
 2829 0a1d 00       		.byte	0x0
 2830 0a1e 09       		.uleb128 0x9
 2831 0a1f 04       		.byte	0x4
 2832 0a20 FC040000 		.4byte	0x4fc
 2833 0a24 23       		.uleb128 0x23
 2834 0a25 00040000 		.4byte	.LASF114
 2835 0a29 01       		.byte	0x1
 2836 0a2a DF       		.byte	0xdf
 2837 0a2b 01       		.byte	0x1
 2838 0a2c 00000000 		.4byte	.LFB77
 2839 0a30 12000000 		.4byte	.LFE77
 2840 0a34 3F010000 		.4byte	.LLST12
 2841 0a38 590A0000 		.4byte	0xa59
 2842 0a3c 24       		.uleb128 0x24
 2843 0a3d 48050000 		.4byte	.LASF110
 2844 0a41 01       		.byte	0x1
 2845 0a42 DF       		.byte	0xdf
 2846 0a43 EB040000 		.4byte	0x4eb
 2847 0a47 5F010000 		.4byte	.LLST13
 2848 0a4b 27       		.uleb128 0x27
 2849 0a4c 7100     		.ascii	"q\000"
 2850 0a4e 01       		.byte	0x1
 2851 0a4f E2       		.byte	0xe2
 2852 0a50 1E0A0000 		.4byte	0xa1e
 2853 0a54 72010000 		.4byte	.LLST14
 2854 0a58 00       		.byte	0x0
 2855 0a59 23       		.uleb128 0x23
 2856 0a5a 64000000 		.4byte	.LASF115
 2857 0a5e 01       		.byte	0x1
 2858 0a5f D8       		.byte	0xd8
 2859 0a60 01       		.byte	0x1
 2860 0a61 00000000 		.4byte	.LFB76
 2861 0a65 12000000 		.4byte	.LFE76
ARM GAS  C:\Users\z80\AppData\Local\Temp\ccuP4NIp.s 			page 52


 2862 0a69 85010000 		.4byte	.LLST15
 2863 0a6d 8E0A0000 		.4byte	0xa8e
 2864 0a71 24       		.uleb128 0x24
 2865 0a72 48050000 		.4byte	.LASF110
 2866 0a76 01       		.byte	0x1
 2867 0a77 D8       		.byte	0xd8
 2868 0a78 EB040000 		.4byte	0x4eb
 2869 0a7c A5010000 		.4byte	.LLST16
 2870 0a80 27       		.uleb128 0x27
 2871 0a81 7100     		.ascii	"q\000"
 2872 0a83 01       		.byte	0x1
 2873 0a84 DB       		.byte	0xdb
 2874 0a85 1E0A0000 		.4byte	0xa1e
 2875 0a89 B8010000 		.4byte	.LLST17
 2876 0a8d 00       		.byte	0x0
 2877 0a8e 23       		.uleb128 0x23
 2878 0a8f 94020000 		.4byte	.LASF116
 2879 0a93 01       		.byte	0x1
 2880 0a94 D1       		.byte	0xd1
 2881 0a95 01       		.byte	0x1
 2882 0a96 00000000 		.4byte	.LFB75
 2883 0a9a 12000000 		.4byte	.LFE75
 2884 0a9e CB010000 		.4byte	.LLST18
 2885 0aa2 C30A0000 		.4byte	0xac3
 2886 0aa6 24       		.uleb128 0x24
 2887 0aa7 48050000 		.4byte	.LASF110
 2888 0aab 01       		.byte	0x1
 2889 0aac D1       		.byte	0xd1
 2890 0aad EB040000 		.4byte	0x4eb
 2891 0ab1 EB010000 		.4byte	.LLST19
 2892 0ab5 27       		.uleb128 0x27
 2893 0ab6 7100     		.ascii	"q\000"
 2894 0ab8 01       		.byte	0x1
 2895 0ab9 D4       		.byte	0xd4
 2896 0aba 1E0A0000 		.4byte	0xa1e
 2897 0abe FE010000 		.4byte	.LLST20
 2898 0ac2 00       		.byte	0x0
 2899 0ac3 23       		.uleb128 0x23
 2900 0ac4 84000000 		.4byte	.LASF117
 2901 0ac8 01       		.byte	0x1
 2902 0ac9 CC       		.byte	0xcc
 2903 0aca 01       		.byte	0x1
 2904 0acb 00000000 		.4byte	.LFB74
 2905 0acf 0A000000 		.4byte	.LFE74
 2906 0ad3 11020000 		.4byte	.LLST21
 2907 0ad7 EB0A0000 		.4byte	0xaeb
 2908 0adb 24       		.uleb128 0x24
 2909 0adc 48050000 		.4byte	.LASF110
 2910 0ae0 01       		.byte	0x1
 2911 0ae1 CC       		.byte	0xcc
 2912 0ae2 EB040000 		.4byte	0x4eb
 2913 0ae6 31020000 		.4byte	.LLST22
 2914 0aea 00       		.byte	0x0
 2915 0aeb 23       		.uleb128 0x23
 2916 0aec 0B030000 		.4byte	.LASF118
 2917 0af0 01       		.byte	0x1
 2918 0af1 C7       		.byte	0xc7
ARM GAS  C:\Users\z80\AppData\Local\Temp\ccuP4NIp.s 			page 53


 2919 0af2 01       		.byte	0x1
 2920 0af3 00000000 		.4byte	.LFB73
 2921 0af7 0A000000 		.4byte	.LFE73
 2922 0afb 44020000 		.4byte	.LLST23
 2923 0aff 130B0000 		.4byte	0xb13
 2924 0b03 24       		.uleb128 0x24
 2925 0b04 48050000 		.4byte	.LASF110
 2926 0b08 01       		.byte	0x1
 2927 0b09 C7       		.byte	0xc7
 2928 0b0a EB040000 		.4byte	0x4eb
 2929 0b0e 64020000 		.4byte	.LLST24
 2930 0b12 00       		.byte	0x0
 2931 0b13 23       		.uleb128 0x23
 2932 0b14 47010000 		.4byte	.LASF119
 2933 0b18 01       		.byte	0x1
 2934 0b19 C2       		.byte	0xc2
 2935 0b1a 01       		.byte	0x1
 2936 0b1b 00000000 		.4byte	.LFB72
 2937 0b1f 0A000000 		.4byte	.LFE72
 2938 0b23 77020000 		.4byte	.LLST25
 2939 0b27 3B0B0000 		.4byte	0xb3b
 2940 0b2b 24       		.uleb128 0x24
 2941 0b2c 48050000 		.4byte	.LASF110
 2942 0b30 01       		.byte	0x1
 2943 0b31 C2       		.byte	0xc2
 2944 0b32 EB040000 		.4byte	0x4eb
 2945 0b36 97020000 		.4byte	.LLST26
 2946 0b3a 00       		.byte	0x0
 2947 0b3b 23       		.uleb128 0x23
 2948 0b3c B5000000 		.4byte	.LASF120
 2949 0b40 01       		.byte	0x1
 2950 0b41 B7       		.byte	0xb7
 2951 0b42 01       		.byte	0x1
 2952 0b43 00000000 		.4byte	.LFB71
 2953 0b47 1C000000 		.4byte	.LFE71
 2954 0b4b AA020000 		.4byte	.LLST27
 2955 0b4f 6E0B0000 		.4byte	0xb6e
 2956 0b53 24       		.uleb128 0x24
 2957 0b54 48050000 		.4byte	.LASF110
 2958 0b58 01       		.byte	0x1
 2959 0b59 B7       		.byte	0xb7
 2960 0b5a EB040000 		.4byte	0x4eb
 2961 0b5e CA020000 		.4byte	.LLST28
 2962 0b62 1D       		.uleb128 0x1d
 2963 0b63 38000000 		.4byte	.LASF121
 2964 0b67 01       		.byte	0x1
 2965 0b68 BA       		.byte	0xba
 2966 0b69 86000000 		.4byte	0x86
 2967 0b6d 00       		.byte	0x0
 2968 0b6e 23       		.uleb128 0x23
 2969 0b6f FA000000 		.4byte	.LASF122
 2970 0b73 01       		.byte	0x1
 2971 0b74 8F       		.byte	0x8f
 2972 0b75 01       		.byte	0x1
 2973 0b76 00000000 		.4byte	.LFB67
 2974 0b7a 44000000 		.4byte	.LFE67
 2975 0b7e DD020000 		.4byte	.LLST29
ARM GAS  C:\Users\z80\AppData\Local\Temp\ccuP4NIp.s 			page 54


 2976 0b82 150C0000 		.4byte	0xc15
 2977 0b86 28       		.uleb128 0x28
 2978 0b87 7100     		.ascii	"q\000"
 2979 0b89 01       		.byte	0x1
 2980 0b8a 8F       		.byte	0x8f
 2981 0b8b 150C0000 		.4byte	0xc15
 2982 0b8f FD020000 		.4byte	.LLST30
 2983 0b93 27       		.uleb128 0x27
 2984 0b94 6D736700 		.ascii	"msg\000"
 2985 0b98 01       		.byte	0x1
 2986 0b99 91       		.byte	0x91
 2987 0b9a E8000000 		.4byte	0xe8
 2988 0b9e 1B030000 		.4byte	.LLST31
 2989 0ba2 29       		.uleb128 0x29
 2990 0ba3 D4010000 		.4byte	.LASF123
 2991 0ba7 01       		.byte	0x1
 2992 0ba8 92       		.byte	0x92
 2993 0ba9 49000000 		.4byte	0x49
 2994 0bad 3B030000 		.4byte	.LLST32
 2995 0bb1 2A       		.uleb128 0x2a
 2996 0bb2 636E7400 		.ascii	"cnt\000"
 2997 0bb6 01       		.byte	0x1
 2998 0bb7 93       		.byte	0x93
 2999 0bb8 30000000 		.4byte	0x30
 3000 0bbc 01       		.byte	0x1
 3001 0bbd 54       		.byte	0x54
 3002 0bbe 27       		.uleb128 0x27
 3003 0bbf 6900     		.ascii	"i\000"
 3004 0bc1 01       		.byte	0x1
 3005 0bc2 93       		.byte	0x93
 3006 0bc3 30000000 		.4byte	0x30
 3007 0bc7 75030000 		.4byte	.LLST33
 3008 0bcb 2B       		.uleb128 0x2b
 3009 0bcc 00000000 		.4byte	.Ldebug_ranges0+0x0
 3010 0bd0 E40B0000 		.4byte	0xbe4
 3011 0bd4 27       		.uleb128 0x27
 3012 0bd5 746D7000 		.ascii	"tmp\000"
 3013 0bd9 01       		.byte	0x1
 3014 0bda 94       		.byte	0x94
 3015 0bdb 86000000 		.4byte	0x86
 3016 0bdf 94030000 		.4byte	.LLST34
 3017 0be3 00       		.byte	0x0
 3018 0be4 2C       		.uleb128 0x2c
 3019 0be5 18000000 		.4byte	.LBB11
 3020 0be9 1E000000 		.4byte	.LBE11
 3021 0bed 010C0000 		.4byte	0xc01
 3022 0bf1 27       		.uleb128 0x27
 3023 0bf2 746D7000 		.ascii	"tmp\000"
 3024 0bf6 01       		.byte	0x1
 3025 0bf7 96       		.byte	0x96
 3026 0bf8 86000000 		.4byte	0x86
 3027 0bfc A7030000 		.4byte	.LLST35
 3028 0c00 00       		.byte	0x0
 3029 0c01 2D       		.uleb128 0x2d
 3030 0c02 18000000 		.4byte	.Ldebug_ranges0+0x18
 3031 0c06 27       		.uleb128 0x27
 3032 0c07 7600     		.ascii	"v\000"
ARM GAS  C:\Users\z80\AppData\Local\Temp\ccuP4NIp.s 			page 55


 3033 0c09 01       		.byte	0x1
 3034 0c0a 9B       		.byte	0x9b
 3035 0c0b 49000000 		.4byte	0x49
 3036 0c0f C5030000 		.4byte	.LLST36
 3037 0c13 00       		.byte	0x0
 3038 0c14 00       		.byte	0x0
 3039 0c15 09       		.uleb128 0x9
 3040 0c16 04       		.byte	0x4
 3041 0c17 F1040000 		.4byte	0x4f1
 3042 0c1b 23       		.uleb128 0x23
 3043 0c1c 09020000 		.4byte	.LASF124
 3044 0c20 01       		.byte	0x1
 3045 0c21 B0       		.byte	0xb0
 3046 0c22 01       		.byte	0x1
 3047 0c23 00000000 		.4byte	.LFB70
 3048 0c27 0C000000 		.4byte	.LFE70
 3049 0c2b D8030000 		.4byte	.LLST37
 3050 0c2f 500C0000 		.4byte	0xc50
 3051 0c33 24       		.uleb128 0x24
 3052 0c34 48050000 		.4byte	.LASF110
 3053 0c38 01       		.byte	0x1
 3054 0c39 B0       		.byte	0xb0
 3055 0c3a EB040000 		.4byte	0x4eb
 3056 0c3e F8030000 		.4byte	.LLST38
 3057 0c42 27       		.uleb128 0x27
 3058 0c43 7100     		.ascii	"q\000"
 3059 0c45 01       		.byte	0x1
 3060 0c46 B3       		.byte	0xb3
 3061 0c47 150C0000 		.4byte	0xc15
 3062 0c4b 0B040000 		.4byte	.LLST39
 3063 0c4f 00       		.byte	0x0
 3064 0c50 23       		.uleb128 0x23
 3065 0c51 8B030000 		.4byte	.LASF125
 3066 0c55 01       		.byte	0x1
 3067 0c56 A9       		.byte	0xa9
 3068 0c57 01       		.byte	0x1
 3069 0c58 00000000 		.4byte	.LFB69
 3070 0c5c 0C000000 		.4byte	.LFE69
 3071 0c60 1E040000 		.4byte	.LLST40
 3072 0c64 850C0000 		.4byte	0xc85
 3073 0c68 24       		.uleb128 0x24
 3074 0c69 48050000 		.4byte	.LASF110
 3075 0c6d 01       		.byte	0x1
 3076 0c6e A9       		.byte	0xa9
 3077 0c6f EB040000 		.4byte	0x4eb
 3078 0c73 3E040000 		.4byte	.LLST41
 3079 0c77 27       		.uleb128 0x27
 3080 0c78 7100     		.ascii	"q\000"
 3081 0c7a 01       		.byte	0x1
 3082 0c7b AC       		.byte	0xac
 3083 0c7c 150C0000 		.4byte	0xc15
 3084 0c80 51040000 		.4byte	.LLST42
 3085 0c84 00       		.byte	0x0
 3086 0c85 23       		.uleb128 0x23
 3087 0c86 CD040000 		.4byte	.LASF126
 3088 0c8a 01       		.byte	0x1
 3089 0c8b A2       		.byte	0xa2
ARM GAS  C:\Users\z80\AppData\Local\Temp\ccuP4NIp.s 			page 56


 3090 0c8c 01       		.byte	0x1
 3091 0c8d 00000000 		.4byte	.LFB68
 3092 0c91 0C000000 		.4byte	.LFE68
 3093 0c95 64040000 		.4byte	.LLST43
 3094 0c99 BA0C0000 		.4byte	0xcba
 3095 0c9d 24       		.uleb128 0x24
 3096 0c9e 48050000 		.4byte	.LASF110
 3097 0ca2 01       		.byte	0x1
 3098 0ca3 A2       		.byte	0xa2
 3099 0ca4 EB040000 		.4byte	0x4eb
 3100 0ca8 84040000 		.4byte	.LLST44
 3101 0cac 27       		.uleb128 0x27
 3102 0cad 7100     		.ascii	"q\000"
 3103 0caf 01       		.byte	0x1
 3104 0cb0 A5       		.byte	0xa5
 3105 0cb1 150C0000 		.4byte	0xc15
 3106 0cb5 97040000 		.4byte	.LLST45
 3107 0cb9 00       		.byte	0x0
 3108 0cba 2E       		.uleb128 0x2e
 3109 0cbb 01       		.byte	0x1
 3110 0cbc 6D040000 		.4byte	.LASF136
 3111 0cc0 01       		.byte	0x1
 3112 0cc1 21       		.byte	0x21
 3113 0cc2 01       		.byte	0x1
 3114 0cc3 00000000 		.4byte	.LFB62
 3115 0cc7 12000000 		.4byte	.LFE62
 3116 0ccb AA040000 		.4byte	.LLST46
 3117 0ccf 2F       		.uleb128 0x2f
 3118 0cd0 01       		.byte	0x1
 3119 0cd1 BA020000 		.4byte	.LASF137
 3120 0cd5 01       		.byte	0x1
 3121 0cd6 27       		.byte	0x27
 3122 0cd7 01       		.byte	0x1
 3123 0cd8 00000000 		.4byte	.LFB63
 3124 0cdc 4C000000 		.4byte	.LFE63
 3125 0ce0 CA040000 		.4byte	.LLST47
 3126 0ce4 9D0D0000 		.4byte	0xd9d
 3127 0ce8 30       		.uleb128 0x30
 3128 0ce9 34050000 		.4byte	.LASF127
 3129 0ced 01       		.byte	0x1
 3130 0cee 29       		.byte	0x29
 3131 0cef 49000000 		.4byte	0x49
 3132 0cf3 00       		.byte	0x0
 3133 0cf4 29       		.uleb128 0x29
 3134 0cf5 91000000 		.4byte	.LASF128
 3135 0cf9 01       		.byte	0x1
 3136 0cfa 2A       		.byte	0x2a
 3137 0cfb 29000000 		.4byte	0x29
 3138 0cff EA040000 		.4byte	.LLST48
 3139 0d03 27       		.uleb128 0x27
 3140 0d04 6D736700 		.ascii	"msg\000"
 3141 0d08 01       		.byte	0x1
 3142 0d09 2F       		.byte	0x2f
 3143 0d0a E8000000 		.4byte	0xe8
 3144 0d0e 22050000 		.4byte	.LLST49
 3145 0d12 29       		.uleb128 0x29
 3146 0d13 D4010000 		.4byte	.LASF123
ARM GAS  C:\Users\z80\AppData\Local\Temp\ccuP4NIp.s 			page 57


 3147 0d17 01       		.byte	0x1
 3148 0d18 31       		.byte	0x31
 3149 0d19 49000000 		.4byte	0x49
 3150 0d1d 4F050000 		.4byte	.LLST50
 3151 0d21 2D       		.uleb128 0x2d
 3152 0d22 30000000 		.4byte	.Ldebug_ranges0+0x30
 3153 0d26 27       		.uleb128 0x27
 3154 0d27 7600     		.ascii	"v\000"
 3155 0d29 01       		.byte	0x1
 3156 0d2a 34       		.byte	0x34
 3157 0d2b 49000000 		.4byte	0x49
 3158 0d2f A2050000 		.4byte	.LLST51
 3159 0d33 31       		.uleb128 0x31
 3160 0d34 A6080000 		.4byte	0x8a6
 3161 0d38 14000000 		.4byte	.LBB15
 3162 0d3c 48000000 		.4byte	.Ldebug_ranges0+0x48
 3163 0d40 01       		.byte	0x1
 3164 0d41 3B       		.byte	0x3b
 3165 0d42 32       		.uleb128 0x32
 3166 0d43 BE080000 		.4byte	0x8be
 3167 0d47 C0050000 		.4byte	.LLST52
 3168 0d4b 32       		.uleb128 0x32
 3169 0d4c B3080000 		.4byte	0x8b3
 3170 0d50 E0050000 		.4byte	.LLST53
 3171 0d54 2D       		.uleb128 0x2d
 3172 0d55 60000000 		.4byte	.Ldebug_ranges0+0x60
 3173 0d59 33       		.uleb128 0x33
 3174 0d5a C8080000 		.4byte	0x8c8
 3175 0d5e 34       		.uleb128 0x34
 3176 0d5f D1080000 		.4byte	0x8d1
 3177 0d63 08060000 		.4byte	.LLST54
 3178 0d67 34       		.uleb128 0x34
 3179 0d68 DC080000 		.4byte	0x8dc
 3180 0d6c 2E060000 		.4byte	.LLST55
 3181 0d70 35       		.uleb128 0x35
 3182 0d71 82080000 		.4byte	0x882
 3183 0d75 28000000 		.4byte	.LBB17
 3184 0d79 4C000000 		.4byte	.LBE17
 3185 0d7d 01       		.byte	0x1
 3186 0d7e 62       		.byte	0x62
 3187 0d7f 36       		.uleb128 0x36
 3188 0d80 28000000 		.4byte	.LBB18
 3189 0d84 4C000000 		.4byte	.LBE18
 3190 0d88 34       		.uleb128 0x34
 3191 0d89 8F080000 		.4byte	0x88f
 3192 0d8d 56060000 		.4byte	.LLST56
 3193 0d91 37       		.uleb128 0x37
 3194 0d92 9A080000 		.4byte	0x89a
 3195 0d96 0D       		.byte	0xd
 3196 0d97 00       		.byte	0x0
 3197 0d98 00       		.byte	0x0
 3198 0d99 00       		.byte	0x0
 3199 0d9a 00       		.byte	0x0
 3200 0d9b 00       		.byte	0x0
 3201 0d9c 00       		.byte	0x0
 3202 0d9d 38       		.uleb128 0x38
 3203 0d9e 01       		.byte	0x1
ARM GAS  C:\Users\z80\AppData\Local\Temp\ccuP4NIp.s 			page 58


 3204 0d9f 72000000 		.4byte	.LASF138
 3205 0da3 01       		.byte	0x1
 3206 0da4 4D       		.byte	0x4d
 3207 0da5 01       		.byte	0x1
 3208 0da6 EB040000 		.4byte	0x4eb
 3209 0daa 00000000 		.4byte	.LFB64
 3210 0dae 0A000000 		.4byte	.LFE64
 3211 0db2 02       		.byte	0x2
 3212 0db3 7D       		.byte	0x7d
 3213 0db4 00       		.sleb128 0
 3214 0db5 39       		.uleb128 0x39
 3215 0db6 9B000000 		.4byte	.LASF129
 3216 0dba 0F       		.byte	0xf
 3217 0dbb 9404     		.2byte	0x494
 3218 0dbd 31060000 		.4byte	0x631
 3219 0dc1 01       		.byte	0x1
 3220 0dc2 01       		.byte	0x1
 3221 0dc3 3A       		.uleb128 0x3a
 3222 0dc4 53443100 		.ascii	"SD1\000"
 3223 0dc8 10       		.byte	0x10
 3224 0dc9 FB       		.byte	0xfb
 3225 0dca 42070000 		.4byte	0x742
 3226 0dce 01       		.byte	0x1
 3227 0dcf 01       		.byte	0x1
 3228 0dd0 1A       		.uleb128 0x1a
 3229 0dd1 49000000 		.4byte	0x49
 3230 0dd5 E00D0000 		.4byte	0xde0
 3231 0dd9 1B       		.uleb128 0x1b
 3232 0dda 3D030000 		.4byte	0x33d
 3233 0dde 1F       		.byte	0x1f
 3234 0ddf 00       		.byte	0x0
 3235 0de0 25       		.uleb128 0x25
 3236 0de1 95040000 		.4byte	.LASF130
 3237 0de5 01       		.byte	0x1
 3238 0de6 18       		.byte	0x18
 3239 0de7 D00D0000 		.4byte	0xdd0
 3240 0deb 05       		.byte	0x5
 3241 0dec 03       		.byte	0x3
 3242 0ded 00000000 		.4byte	buffer
 3243 0df1 25       		.uleb128 0x25
 3244 0df2 48050000 		.4byte	.LASF110
 3245 0df6 01       		.byte	0x1
 3246 0df7 19       		.byte	0x19
 3247 0df8 D00D0000 		.4byte	0xdd0
 3248 0dfc 05       		.byte	0x5
 3249 0dfd 03       		.byte	0x3
 3250 0dfe 00000000 		.4byte	args
 3251 0e02 1A       		.uleb128 0x1a
 3252 0e03 0F060000 		.4byte	0x60f
 3253 0e07 120E0000 		.4byte	0xe12
 3254 0e0b 1B       		.uleb128 0x1b
 3255 0e0c 3D030000 		.4byte	0x33d
 3256 0e10 0C       		.byte	0xc
 3257 0e11 00       		.byte	0x0
 3258 0e12 25       		.uleb128 0x25
 3259 0e13 20000000 		.4byte	.LASF131
 3260 0e17 01       		.byte	0x1
ARM GAS  C:\Users\z80\AppData\Local\Temp\ccuP4NIp.s 			page 59


 3261 0e18 75       		.byte	0x75
 3262 0e19 230E0000 		.4byte	0xe23
 3263 0e1d 05       		.byte	0x5
 3264 0e1e 03       		.byte	0x3
 3265 0e1f 00000000 		.4byte	funcs
 3266 0e23 11       		.uleb128 0x11
 3267 0e24 020E0000 		.4byte	0xe02
 3268 0e28 39       		.uleb128 0x39
 3269 0e29 9B000000 		.4byte	.LASF129
 3270 0e2d 0F       		.byte	0xf
 3271 0e2e 9404     		.2byte	0x494
 3272 0e30 31060000 		.4byte	0x631
 3273 0e34 01       		.byte	0x1
 3274 0e35 01       		.byte	0x1
 3275 0e36 3A       		.uleb128 0x3a
 3276 0e37 53443100 		.ascii	"SD1\000"
 3277 0e3b 10       		.byte	0x10
 3278 0e3c FB       		.byte	0xfb
 3279 0e3d 42070000 		.4byte	0x742
 3280 0e41 01       		.byte	0x1
 3281 0e42 01       		.byte	0x1
 3282 0e43 00       		.byte	0x0
 3283              		.section	.debug_abbrev
 3284 0000 01       		.uleb128 0x1
 3285 0001 11       		.uleb128 0x11
 3286 0002 01       		.byte	0x1
 3287 0003 25       		.uleb128 0x25
 3288 0004 0E       		.uleb128 0xe
 3289 0005 13       		.uleb128 0x13
 3290 0006 0B       		.uleb128 0xb
 3291 0007 03       		.uleb128 0x3
 3292 0008 0E       		.uleb128 0xe
 3293 0009 1B       		.uleb128 0x1b
 3294 000a 0E       		.uleb128 0xe
 3295 000b 11       		.uleb128 0x11
 3296 000c 01       		.uleb128 0x1
 3297 000d 52       		.uleb128 0x52
 3298 000e 01       		.uleb128 0x1
 3299 000f 55       		.uleb128 0x55
 3300 0010 06       		.uleb128 0x6
 3301 0011 10       		.uleb128 0x10
 3302 0012 06       		.uleb128 0x6
 3303 0013 00       		.byte	0x0
 3304 0014 00       		.byte	0x0
 3305 0015 02       		.uleb128 0x2
 3306 0016 24       		.uleb128 0x24
 3307 0017 00       		.byte	0x0
 3308 0018 0B       		.uleb128 0xb
 3309 0019 0B       		.uleb128 0xb
 3310 001a 3E       		.uleb128 0x3e
 3311 001b 0B       		.uleb128 0xb
 3312 001c 03       		.uleb128 0x3
 3313 001d 08       		.uleb128 0x8
 3314 001e 00       		.byte	0x0
 3315 001f 00       		.byte	0x0
 3316 0020 03       		.uleb128 0x3
 3317 0021 16       		.uleb128 0x16
ARM GAS  C:\Users\z80\AppData\Local\Temp\ccuP4NIp.s 			page 60


 3318 0022 00       		.byte	0x0
 3319 0023 03       		.uleb128 0x3
 3320 0024 0E       		.uleb128 0xe
 3321 0025 3A       		.uleb128 0x3a
 3322 0026 0B       		.uleb128 0xb
 3323 0027 3B       		.uleb128 0x3b
 3324 0028 0B       		.uleb128 0xb
 3325 0029 49       		.uleb128 0x49
 3326 002a 13       		.uleb128 0x13
 3327 002b 00       		.byte	0x0
 3328 002c 00       		.byte	0x0
 3329 002d 04       		.uleb128 0x4
 3330 002e 24       		.uleb128 0x24
 3331 002f 00       		.byte	0x0
 3332 0030 0B       		.uleb128 0xb
 3333 0031 0B       		.uleb128 0xb
 3334 0032 3E       		.uleb128 0x3e
 3335 0033 0B       		.uleb128 0xb
 3336 0034 03       		.uleb128 0x3
 3337 0035 0E       		.uleb128 0xe
 3338 0036 00       		.byte	0x0
 3339 0037 00       		.byte	0x0
 3340 0038 05       		.uleb128 0x5
 3341 0039 13       		.uleb128 0x13
 3342 003a 01       		.byte	0x1
 3343 003b 03       		.uleb128 0x3
 3344 003c 0E       		.uleb128 0xe
 3345 003d 0B       		.uleb128 0xb
 3346 003e 0B       		.uleb128 0xb
 3347 003f 3A       		.uleb128 0x3a
 3348 0040 0B       		.uleb128 0xb
 3349 0041 3B       		.uleb128 0x3b
 3350 0042 0B       		.uleb128 0xb
 3351 0043 01       		.uleb128 0x1
 3352 0044 13       		.uleb128 0x13
 3353 0045 00       		.byte	0x0
 3354 0046 00       		.byte	0x0
 3355 0047 06       		.uleb128 0x6
 3356 0048 0D       		.uleb128 0xd
 3357 0049 00       		.byte	0x0
 3358 004a 03       		.uleb128 0x3
 3359 004b 0E       		.uleb128 0xe
 3360 004c 3A       		.uleb128 0x3a
 3361 004d 0B       		.uleb128 0xb
 3362 004e 3B       		.uleb128 0x3b
 3363 004f 0B       		.uleb128 0xb
 3364 0050 49       		.uleb128 0x49
 3365 0051 13       		.uleb128 0x13
 3366 0052 38       		.uleb128 0x38
 3367 0053 0A       		.uleb128 0xa
 3368 0054 00       		.byte	0x0
 3369 0055 00       		.byte	0x0
 3370 0056 07       		.uleb128 0x7
 3371 0057 0D       		.uleb128 0xd
 3372 0058 00       		.byte	0x0
 3373 0059 03       		.uleb128 0x3
 3374 005a 08       		.uleb128 0x8
ARM GAS  C:\Users\z80\AppData\Local\Temp\ccuP4NIp.s 			page 61


 3375 005b 3A       		.uleb128 0x3a
 3376 005c 0B       		.uleb128 0xb
 3377 005d 3B       		.uleb128 0x3b
 3378 005e 0B       		.uleb128 0xb
 3379 005f 49       		.uleb128 0x49
 3380 0060 13       		.uleb128 0x13
 3381 0061 38       		.uleb128 0x38
 3382 0062 0A       		.uleb128 0xa
 3383 0063 00       		.byte	0x0
 3384 0064 00       		.byte	0x0
 3385 0065 08       		.uleb128 0x8
 3386 0066 13       		.uleb128 0x13
 3387 0067 01       		.byte	0x1
 3388 0068 0B       		.uleb128 0xb
 3389 0069 0B       		.uleb128 0xb
 3390 006a 3A       		.uleb128 0x3a
 3391 006b 0B       		.uleb128 0xb
 3392 006c 3B       		.uleb128 0x3b
 3393 006d 0B       		.uleb128 0xb
 3394 006e 01       		.uleb128 0x1
 3395 006f 13       		.uleb128 0x13
 3396 0070 00       		.byte	0x0
 3397 0071 00       		.byte	0x0
 3398 0072 09       		.uleb128 0x9
 3399 0073 0F       		.uleb128 0xf
 3400 0074 00       		.byte	0x0
 3401 0075 0B       		.uleb128 0xb
 3402 0076 0B       		.uleb128 0xb
 3403 0077 49       		.uleb128 0x49
 3404 0078 13       		.uleb128 0x13
 3405 0079 00       		.byte	0x0
 3406 007a 00       		.byte	0x0
 3407 007b 0A       		.uleb128 0xa
 3408 007c 0F       		.uleb128 0xf
 3409 007d 00       		.byte	0x0
 3410 007e 0B       		.uleb128 0xb
 3411 007f 0B       		.uleb128 0xb
 3412 0080 00       		.byte	0x0
 3413 0081 00       		.byte	0x0
 3414 0082 0B       		.uleb128 0xb
 3415 0083 0D       		.uleb128 0xd
 3416 0084 00       		.byte	0x0
 3417 0085 03       		.uleb128 0x3
 3418 0086 08       		.uleb128 0x8
 3419 0087 3A       		.uleb128 0x3a
 3420 0088 0B       		.uleb128 0xb
 3421 0089 3B       		.uleb128 0x3b
 3422 008a 05       		.uleb128 0x5
 3423 008b 49       		.uleb128 0x49
 3424 008c 13       		.uleb128 0x13
 3425 008d 38       		.uleb128 0x38
 3426 008e 0A       		.uleb128 0xa
 3427 008f 00       		.byte	0x0
 3428 0090 00       		.byte	0x0
 3429 0091 0C       		.uleb128 0xc
 3430 0092 13       		.uleb128 0x13
 3431 0093 01       		.byte	0x1
ARM GAS  C:\Users\z80\AppData\Local\Temp\ccuP4NIp.s 			page 62


 3432 0094 03       		.uleb128 0x3
 3433 0095 0E       		.uleb128 0xe
 3434 0096 0B       		.uleb128 0xb
 3435 0097 0B       		.uleb128 0xb
 3436 0098 3A       		.uleb128 0x3a
 3437 0099 0B       		.uleb128 0xb
 3438 009a 3B       		.uleb128 0x3b
 3439 009b 05       		.uleb128 0x5
 3440 009c 01       		.uleb128 0x1
 3441 009d 13       		.uleb128 0x13
 3442 009e 00       		.byte	0x0
 3443 009f 00       		.byte	0x0
 3444 00a0 0D       		.uleb128 0xd
 3445 00a1 24       		.uleb128 0x24
 3446 00a2 00       		.byte	0x0
 3447 00a3 0B       		.uleb128 0xb
 3448 00a4 0B       		.uleb128 0xb
 3449 00a5 3E       		.uleb128 0x3e
 3450 00a6 0B       		.uleb128 0xb
 3451 00a7 00       		.byte	0x0
 3452 00a8 00       		.byte	0x0
 3453 00a9 0E       		.uleb128 0xe
 3454 00aa 35       		.uleb128 0x35
 3455 00ab 00       		.byte	0x0
 3456 00ac 49       		.uleb128 0x49
 3457 00ad 13       		.uleb128 0x13
 3458 00ae 00       		.byte	0x0
 3459 00af 00       		.byte	0x0
 3460 00b0 0F       		.uleb128 0xf
 3461 00b1 17       		.uleb128 0x17
 3462 00b2 01       		.byte	0x1
 3463 00b3 0B       		.uleb128 0xb
 3464 00b4 0B       		.uleb128 0xb
 3465 00b5 3A       		.uleb128 0x3a
 3466 00b6 0B       		.uleb128 0xb
 3467 00b7 3B       		.uleb128 0x3b
 3468 00b8 0B       		.uleb128 0xb
 3469 00b9 01       		.uleb128 0x1
 3470 00ba 13       		.uleb128 0x13
 3471 00bb 00       		.byte	0x0
 3472 00bc 00       		.byte	0x0
 3473 00bd 10       		.uleb128 0x10
 3474 00be 0D       		.uleb128 0xd
 3475 00bf 00       		.byte	0x0
 3476 00c0 03       		.uleb128 0x3
 3477 00c1 0E       		.uleb128 0xe
 3478 00c2 3A       		.uleb128 0x3a
 3479 00c3 0B       		.uleb128 0xb
 3480 00c4 3B       		.uleb128 0x3b
 3481 00c5 0B       		.uleb128 0xb
 3482 00c6 49       		.uleb128 0x49
 3483 00c7 13       		.uleb128 0x13
 3484 00c8 00       		.byte	0x0
 3485 00c9 00       		.byte	0x0
 3486 00ca 11       		.uleb128 0x11
 3487 00cb 26       		.uleb128 0x26
 3488 00cc 00       		.byte	0x0
ARM GAS  C:\Users\z80\AppData\Local\Temp\ccuP4NIp.s 			page 63


 3489 00cd 49       		.uleb128 0x49
 3490 00ce 13       		.uleb128 0x13
 3491 00cf 00       		.byte	0x0
 3492 00d0 00       		.byte	0x0
 3493 00d1 12       		.uleb128 0x12
 3494 00d2 15       		.uleb128 0x15
 3495 00d3 01       		.byte	0x1
 3496 00d4 27       		.uleb128 0x27
 3497 00d5 0C       		.uleb128 0xc
 3498 00d6 01       		.uleb128 0x1
 3499 00d7 13       		.uleb128 0x13
 3500 00d8 00       		.byte	0x0
 3501 00d9 00       		.byte	0x0
 3502 00da 13       		.uleb128 0x13
 3503 00db 05       		.uleb128 0x5
 3504 00dc 00       		.byte	0x0
 3505 00dd 49       		.uleb128 0x49
 3506 00de 13       		.uleb128 0x13
 3507 00df 00       		.byte	0x0
 3508 00e0 00       		.byte	0x0
 3509 00e1 14       		.uleb128 0x14
 3510 00e2 15       		.uleb128 0x15
 3511 00e3 01       		.byte	0x1
 3512 00e4 27       		.uleb128 0x27
 3513 00e5 0C       		.uleb128 0xc
 3514 00e6 49       		.uleb128 0x49
 3515 00e7 13       		.uleb128 0x13
 3516 00e8 01       		.uleb128 0x1
 3517 00e9 13       		.uleb128 0x13
 3518 00ea 00       		.byte	0x0
 3519 00eb 00       		.byte	0x0
 3520 00ec 15       		.uleb128 0x15
 3521 00ed 16       		.uleb128 0x16
 3522 00ee 00       		.byte	0x0
 3523 00ef 03       		.uleb128 0x3
 3524 00f0 0E       		.uleb128 0xe
 3525 00f1 3A       		.uleb128 0x3a
 3526 00f2 0B       		.uleb128 0xb
 3527 00f3 3B       		.uleb128 0x3b
 3528 00f4 05       		.uleb128 0x5
 3529 00f5 49       		.uleb128 0x49
 3530 00f6 13       		.uleb128 0x13
 3531 00f7 00       		.byte	0x0
 3532 00f8 00       		.byte	0x0
 3533 00f9 16       		.uleb128 0x16
 3534 00fa 13       		.uleb128 0x13
 3535 00fb 01       		.byte	0x1
 3536 00fc 0B       		.uleb128 0xb
 3537 00fd 0B       		.uleb128 0xb
 3538 00fe 3A       		.uleb128 0x3a
 3539 00ff 0B       		.uleb128 0xb
 3540 0100 3B       		.uleb128 0x3b
 3541 0101 05       		.uleb128 0x5
 3542 0102 01       		.uleb128 0x1
 3543 0103 13       		.uleb128 0x13
 3544 0104 00       		.byte	0x0
 3545 0105 00       		.byte	0x0
ARM GAS  C:\Users\z80\AppData\Local\Temp\ccuP4NIp.s 			page 64


 3546 0106 17       		.uleb128 0x17
 3547 0107 0D       		.uleb128 0xd
 3548 0108 00       		.byte	0x0
 3549 0109 03       		.uleb128 0x3
 3550 010a 0E       		.uleb128 0xe
 3551 010b 3A       		.uleb128 0x3a
 3552 010c 0B       		.uleb128 0xb
 3553 010d 3B       		.uleb128 0x3b
 3554 010e 05       		.uleb128 0x5
 3555 010f 49       		.uleb128 0x49
 3556 0110 13       		.uleb128 0x13
 3557 0111 38       		.uleb128 0x38
 3558 0112 0A       		.uleb128 0xa
 3559 0113 00       		.byte	0x0
 3560 0114 00       		.byte	0x0
 3561 0115 18       		.uleb128 0x18
 3562 0116 04       		.uleb128 0x4
 3563 0117 01       		.byte	0x1
 3564 0118 0B       		.uleb128 0xb
 3565 0119 0B       		.uleb128 0xb
 3566 011a 3A       		.uleb128 0x3a
 3567 011b 0B       		.uleb128 0xb
 3568 011c 3B       		.uleb128 0x3b
 3569 011d 0B       		.uleb128 0xb
 3570 011e 01       		.uleb128 0x1
 3571 011f 13       		.uleb128 0x13
 3572 0120 00       		.byte	0x0
 3573 0121 00       		.byte	0x0
 3574 0122 19       		.uleb128 0x19
 3575 0123 28       		.uleb128 0x28
 3576 0124 00       		.byte	0x0
 3577 0125 03       		.uleb128 0x3
 3578 0126 0E       		.uleb128 0xe
 3579 0127 1C       		.uleb128 0x1c
 3580 0128 0D       		.uleb128 0xd
 3581 0129 00       		.byte	0x0
 3582 012a 00       		.byte	0x0
 3583 012b 1A       		.uleb128 0x1a
 3584 012c 01       		.uleb128 0x1
 3585 012d 01       		.byte	0x1
 3586 012e 49       		.uleb128 0x49
 3587 012f 13       		.uleb128 0x13
 3588 0130 01       		.uleb128 0x1
 3589 0131 13       		.uleb128 0x13
 3590 0132 00       		.byte	0x0
 3591 0133 00       		.byte	0x0
 3592 0134 1B       		.uleb128 0x1b
 3593 0135 21       		.uleb128 0x21
 3594 0136 00       		.byte	0x0
 3595 0137 49       		.uleb128 0x49
 3596 0138 13       		.uleb128 0x13
 3597 0139 2F       		.uleb128 0x2f
 3598 013a 0B       		.uleb128 0xb
 3599 013b 00       		.byte	0x0
 3600 013c 00       		.byte	0x0
 3601 013d 1C       		.uleb128 0x1c
 3602 013e 2E       		.uleb128 0x2e
ARM GAS  C:\Users\z80\AppData\Local\Temp\ccuP4NIp.s 			page 65


 3603 013f 01       		.byte	0x1
 3604 0140 03       		.uleb128 0x3
 3605 0141 0E       		.uleb128 0xe
 3606 0142 3A       		.uleb128 0x3a
 3607 0143 0B       		.uleb128 0xb
 3608 0144 3B       		.uleb128 0x3b
 3609 0145 0B       		.uleb128 0xb
 3610 0146 27       		.uleb128 0x27
 3611 0147 0C       		.uleb128 0xc
 3612 0148 20       		.uleb128 0x20
 3613 0149 0B       		.uleb128 0xb
 3614 014a 01       		.uleb128 0x1
 3615 014b 13       		.uleb128 0x13
 3616 014c 00       		.byte	0x0
 3617 014d 00       		.byte	0x0
 3618 014e 1D       		.uleb128 0x1d
 3619 014f 34       		.uleb128 0x34
 3620 0150 00       		.byte	0x0
 3621 0151 03       		.uleb128 0x3
 3622 0152 0E       		.uleb128 0xe
 3623 0153 3A       		.uleb128 0x3a
 3624 0154 0B       		.uleb128 0xb
 3625 0155 3B       		.uleb128 0x3b
 3626 0156 0B       		.uleb128 0xb
 3627 0157 49       		.uleb128 0x49
 3628 0158 13       		.uleb128 0x13
 3629 0159 00       		.byte	0x0
 3630 015a 00       		.byte	0x0
 3631 015b 1E       		.uleb128 0x1e
 3632 015c 05       		.uleb128 0x5
 3633 015d 00       		.byte	0x0
 3634 015e 03       		.uleb128 0x3
 3635 015f 08       		.uleb128 0x8
 3636 0160 3A       		.uleb128 0x3a
 3637 0161 0B       		.uleb128 0xb
 3638 0162 3B       		.uleb128 0x3b
 3639 0163 0B       		.uleb128 0xb
 3640 0164 49       		.uleb128 0x49
 3641 0165 13       		.uleb128 0x13
 3642 0166 00       		.byte	0x0
 3643 0167 00       		.byte	0x0
 3644 0168 1F       		.uleb128 0x1f
 3645 0169 34       		.uleb128 0x34
 3646 016a 00       		.byte	0x0
 3647 016b 03       		.uleb128 0x3
 3648 016c 08       		.uleb128 0x8
 3649 016d 3A       		.uleb128 0x3a
 3650 016e 0B       		.uleb128 0xb
 3651 016f 3B       		.uleb128 0x3b
 3652 0170 0B       		.uleb128 0xb
 3653 0171 49       		.uleb128 0x49
 3654 0172 13       		.uleb128 0x13
 3655 0173 00       		.byte	0x0
 3656 0174 00       		.byte	0x0
 3657 0175 20       		.uleb128 0x20
 3658 0176 2E       		.uleb128 0x2e
 3659 0177 01       		.byte	0x1
ARM GAS  C:\Users\z80\AppData\Local\Temp\ccuP4NIp.s 			page 66


 3660 0178 03       		.uleb128 0x3
 3661 0179 0E       		.uleb128 0xe
 3662 017a 3A       		.uleb128 0x3a
 3663 017b 0B       		.uleb128 0xb
 3664 017c 3B       		.uleb128 0x3b
 3665 017d 05       		.uleb128 0x5
 3666 017e 27       		.uleb128 0x27
 3667 017f 0C       		.uleb128 0xc
 3668 0180 11       		.uleb128 0x11
 3669 0181 01       		.uleb128 0x1
 3670 0182 12       		.uleb128 0x12
 3671 0183 01       		.uleb128 0x1
 3672 0184 40       		.uleb128 0x40
 3673 0185 06       		.uleb128 0x6
 3674 0186 01       		.uleb128 0x1
 3675 0187 13       		.uleb128 0x13
 3676 0188 00       		.byte	0x0
 3677 0189 00       		.byte	0x0
 3678 018a 21       		.uleb128 0x21
 3679 018b 05       		.uleb128 0x5
 3680 018c 00       		.byte	0x0
 3681 018d 03       		.uleb128 0x3
 3682 018e 08       		.uleb128 0x8
 3683 018f 3A       		.uleb128 0x3a
 3684 0190 0B       		.uleb128 0xb
 3685 0191 3B       		.uleb128 0x3b
 3686 0192 05       		.uleb128 0x5
 3687 0193 49       		.uleb128 0x49
 3688 0194 13       		.uleb128 0x13
 3689 0195 02       		.uleb128 0x2
 3690 0196 06       		.uleb128 0x6
 3691 0197 00       		.byte	0x0
 3692 0198 00       		.byte	0x0
 3693 0199 22       		.uleb128 0x22
 3694 019a 2E       		.uleb128 0x2e
 3695 019b 00       		.byte	0x0
 3696 019c 03       		.uleb128 0x3
 3697 019d 0E       		.uleb128 0xe
 3698 019e 3A       		.uleb128 0x3a
 3699 019f 0B       		.uleb128 0xb
 3700 01a0 3B       		.uleb128 0x3b
 3701 01a1 05       		.uleb128 0x5
 3702 01a2 27       		.uleb128 0x27
 3703 01a3 0C       		.uleb128 0xc
 3704 01a4 11       		.uleb128 0x11
 3705 01a5 01       		.uleb128 0x1
 3706 01a6 12       		.uleb128 0x12
 3707 01a7 01       		.uleb128 0x1
 3708 01a8 40       		.uleb128 0x40
 3709 01a9 06       		.uleb128 0x6
 3710 01aa 00       		.byte	0x0
 3711 01ab 00       		.byte	0x0
 3712 01ac 23       		.uleb128 0x23
 3713 01ad 2E       		.uleb128 0x2e
 3714 01ae 01       		.byte	0x1
 3715 01af 03       		.uleb128 0x3
 3716 01b0 0E       		.uleb128 0xe
ARM GAS  C:\Users\z80\AppData\Local\Temp\ccuP4NIp.s 			page 67


 3717 01b1 3A       		.uleb128 0x3a
 3718 01b2 0B       		.uleb128 0xb
 3719 01b3 3B       		.uleb128 0x3b
 3720 01b4 0B       		.uleb128 0xb
 3721 01b5 27       		.uleb128 0x27
 3722 01b6 0C       		.uleb128 0xc
 3723 01b7 11       		.uleb128 0x11
 3724 01b8 01       		.uleb128 0x1
 3725 01b9 12       		.uleb128 0x12
 3726 01ba 01       		.uleb128 0x1
 3727 01bb 40       		.uleb128 0x40
 3728 01bc 06       		.uleb128 0x6
 3729 01bd 01       		.uleb128 0x1
 3730 01be 13       		.uleb128 0x13
 3731 01bf 00       		.byte	0x0
 3732 01c0 00       		.byte	0x0
 3733 01c1 24       		.uleb128 0x24
 3734 01c2 05       		.uleb128 0x5
 3735 01c3 00       		.byte	0x0
 3736 01c4 03       		.uleb128 0x3
 3737 01c5 0E       		.uleb128 0xe
 3738 01c6 3A       		.uleb128 0x3a
 3739 01c7 0B       		.uleb128 0xb
 3740 01c8 3B       		.uleb128 0x3b
 3741 01c9 0B       		.uleb128 0xb
 3742 01ca 49       		.uleb128 0x49
 3743 01cb 13       		.uleb128 0x13
 3744 01cc 02       		.uleb128 0x2
 3745 01cd 06       		.uleb128 0x6
 3746 01ce 00       		.byte	0x0
 3747 01cf 00       		.byte	0x0
 3748 01d0 25       		.uleb128 0x25
 3749 01d1 34       		.uleb128 0x34
 3750 01d2 00       		.byte	0x0
 3751 01d3 03       		.uleb128 0x3
 3752 01d4 0E       		.uleb128 0xe
 3753 01d5 3A       		.uleb128 0x3a
 3754 01d6 0B       		.uleb128 0xb
 3755 01d7 3B       		.uleb128 0x3b
 3756 01d8 0B       		.uleb128 0xb
 3757 01d9 49       		.uleb128 0x49
 3758 01da 13       		.uleb128 0x13
 3759 01db 02       		.uleb128 0x2
 3760 01dc 0A       		.uleb128 0xa
 3761 01dd 00       		.byte	0x0
 3762 01de 00       		.byte	0x0
 3763 01df 26       		.uleb128 0x26
 3764 01e0 34       		.uleb128 0x34
 3765 01e1 00       		.byte	0x0
 3766 01e2 03       		.uleb128 0x3
 3767 01e3 08       		.uleb128 0x8
 3768 01e4 3A       		.uleb128 0x3a
 3769 01e5 0B       		.uleb128 0xb
 3770 01e6 3B       		.uleb128 0x3b
 3771 01e7 0B       		.uleb128 0xb
 3772 01e8 49       		.uleb128 0x49
 3773 01e9 13       		.uleb128 0x13
ARM GAS  C:\Users\z80\AppData\Local\Temp\ccuP4NIp.s 			page 68


 3774 01ea 1C       		.uleb128 0x1c
 3775 01eb 0B       		.uleb128 0xb
 3776 01ec 00       		.byte	0x0
 3777 01ed 00       		.byte	0x0
 3778 01ee 27       		.uleb128 0x27
 3779 01ef 34       		.uleb128 0x34
 3780 01f0 00       		.byte	0x0
 3781 01f1 03       		.uleb128 0x3
 3782 01f2 08       		.uleb128 0x8
 3783 01f3 3A       		.uleb128 0x3a
 3784 01f4 0B       		.uleb128 0xb
 3785 01f5 3B       		.uleb128 0x3b
 3786 01f6 0B       		.uleb128 0xb
 3787 01f7 49       		.uleb128 0x49
 3788 01f8 13       		.uleb128 0x13
 3789 01f9 02       		.uleb128 0x2
 3790 01fa 06       		.uleb128 0x6
 3791 01fb 00       		.byte	0x0
 3792 01fc 00       		.byte	0x0
 3793 01fd 28       		.uleb128 0x28
 3794 01fe 05       		.uleb128 0x5
 3795 01ff 00       		.byte	0x0
 3796 0200 03       		.uleb128 0x3
 3797 0201 08       		.uleb128 0x8
 3798 0202 3A       		.uleb128 0x3a
 3799 0203 0B       		.uleb128 0xb
 3800 0204 3B       		.uleb128 0x3b
 3801 0205 0B       		.uleb128 0xb
 3802 0206 49       		.uleb128 0x49
 3803 0207 13       		.uleb128 0x13
 3804 0208 02       		.uleb128 0x2
 3805 0209 06       		.uleb128 0x6
 3806 020a 00       		.byte	0x0
 3807 020b 00       		.byte	0x0
 3808 020c 29       		.uleb128 0x29
 3809 020d 34       		.uleb128 0x34
 3810 020e 00       		.byte	0x0
 3811 020f 03       		.uleb128 0x3
 3812 0210 0E       		.uleb128 0xe
 3813 0211 3A       		.uleb128 0x3a
 3814 0212 0B       		.uleb128 0xb
 3815 0213 3B       		.uleb128 0x3b
 3816 0214 0B       		.uleb128 0xb
 3817 0215 49       		.uleb128 0x49
 3818 0216 13       		.uleb128 0x13
 3819 0217 02       		.uleb128 0x2
 3820 0218 06       		.uleb128 0x6
 3821 0219 00       		.byte	0x0
 3822 021a 00       		.byte	0x0
 3823 021b 2A       		.uleb128 0x2a
 3824 021c 34       		.uleb128 0x34
 3825 021d 00       		.byte	0x0
 3826 021e 03       		.uleb128 0x3
 3827 021f 08       		.uleb128 0x8
 3828 0220 3A       		.uleb128 0x3a
 3829 0221 0B       		.uleb128 0xb
 3830 0222 3B       		.uleb128 0x3b
ARM GAS  C:\Users\z80\AppData\Local\Temp\ccuP4NIp.s 			page 69


 3831 0223 0B       		.uleb128 0xb
 3832 0224 49       		.uleb128 0x49
 3833 0225 13       		.uleb128 0x13
 3834 0226 02       		.uleb128 0x2
 3835 0227 0A       		.uleb128 0xa
 3836 0228 00       		.byte	0x0
 3837 0229 00       		.byte	0x0
 3838 022a 2B       		.uleb128 0x2b
 3839 022b 0B       		.uleb128 0xb
 3840 022c 01       		.byte	0x1
 3841 022d 55       		.uleb128 0x55
 3842 022e 06       		.uleb128 0x6
 3843 022f 01       		.uleb128 0x1
 3844 0230 13       		.uleb128 0x13
 3845 0231 00       		.byte	0x0
 3846 0232 00       		.byte	0x0
 3847 0233 2C       		.uleb128 0x2c
 3848 0234 0B       		.uleb128 0xb
 3849 0235 01       		.byte	0x1
 3850 0236 11       		.uleb128 0x11
 3851 0237 01       		.uleb128 0x1
 3852 0238 12       		.uleb128 0x12
 3853 0239 01       		.uleb128 0x1
 3854 023a 01       		.uleb128 0x1
 3855 023b 13       		.uleb128 0x13
 3856 023c 00       		.byte	0x0
 3857 023d 00       		.byte	0x0
 3858 023e 2D       		.uleb128 0x2d
 3859 023f 0B       		.uleb128 0xb
 3860 0240 01       		.byte	0x1
 3861 0241 55       		.uleb128 0x55
 3862 0242 06       		.uleb128 0x6
 3863 0243 00       		.byte	0x0
 3864 0244 00       		.byte	0x0
 3865 0245 2E       		.uleb128 0x2e
 3866 0246 2E       		.uleb128 0x2e
 3867 0247 00       		.byte	0x0
 3868 0248 3F       		.uleb128 0x3f
 3869 0249 0C       		.uleb128 0xc
 3870 024a 03       		.uleb128 0x3
 3871 024b 0E       		.uleb128 0xe
 3872 024c 3A       		.uleb128 0x3a
 3873 024d 0B       		.uleb128 0xb
 3874 024e 3B       		.uleb128 0x3b
 3875 024f 0B       		.uleb128 0xb
 3876 0250 27       		.uleb128 0x27
 3877 0251 0C       		.uleb128 0xc
 3878 0252 11       		.uleb128 0x11
 3879 0253 01       		.uleb128 0x1
 3880 0254 12       		.uleb128 0x12
 3881 0255 01       		.uleb128 0x1
 3882 0256 40       		.uleb128 0x40
 3883 0257 06       		.uleb128 0x6
 3884 0258 00       		.byte	0x0
 3885 0259 00       		.byte	0x0
 3886 025a 2F       		.uleb128 0x2f
 3887 025b 2E       		.uleb128 0x2e
ARM GAS  C:\Users\z80\AppData\Local\Temp\ccuP4NIp.s 			page 70


 3888 025c 01       		.byte	0x1
 3889 025d 3F       		.uleb128 0x3f
 3890 025e 0C       		.uleb128 0xc
 3891 025f 03       		.uleb128 0x3
 3892 0260 0E       		.uleb128 0xe
 3893 0261 3A       		.uleb128 0x3a
 3894 0262 0B       		.uleb128 0xb
 3895 0263 3B       		.uleb128 0x3b
 3896 0264 0B       		.uleb128 0xb
 3897 0265 27       		.uleb128 0x27
 3898 0266 0C       		.uleb128 0xc
 3899 0267 11       		.uleb128 0x11
 3900 0268 01       		.uleb128 0x1
 3901 0269 12       		.uleb128 0x12
 3902 026a 01       		.uleb128 0x1
 3903 026b 40       		.uleb128 0x40
 3904 026c 06       		.uleb128 0x6
 3905 026d 01       		.uleb128 0x1
 3906 026e 13       		.uleb128 0x13
 3907 026f 00       		.byte	0x0
 3908 0270 00       		.byte	0x0
 3909 0271 30       		.uleb128 0x30
 3910 0272 34       		.uleb128 0x34
 3911 0273 00       		.byte	0x0
 3912 0274 03       		.uleb128 0x3
 3913 0275 0E       		.uleb128 0xe
 3914 0276 3A       		.uleb128 0x3a
 3915 0277 0B       		.uleb128 0xb
 3916 0278 3B       		.uleb128 0x3b
 3917 0279 0B       		.uleb128 0xb
 3918 027a 49       		.uleb128 0x49
 3919 027b 13       		.uleb128 0x13
 3920 027c 1C       		.uleb128 0x1c
 3921 027d 0B       		.uleb128 0xb
 3922 027e 00       		.byte	0x0
 3923 027f 00       		.byte	0x0
 3924 0280 31       		.uleb128 0x31
 3925 0281 1D       		.uleb128 0x1d
 3926 0282 01       		.byte	0x1
 3927 0283 31       		.uleb128 0x31
 3928 0284 13       		.uleb128 0x13
 3929 0285 52       		.uleb128 0x52
 3930 0286 01       		.uleb128 0x1
 3931 0287 55       		.uleb128 0x55
 3932 0288 06       		.uleb128 0x6
 3933 0289 58       		.uleb128 0x58
 3934 028a 0B       		.uleb128 0xb
 3935 028b 59       		.uleb128 0x59
 3936 028c 0B       		.uleb128 0xb
 3937 028d 00       		.byte	0x0
 3938 028e 00       		.byte	0x0
 3939 028f 32       		.uleb128 0x32
 3940 0290 05       		.uleb128 0x5
 3941 0291 00       		.byte	0x0
 3942 0292 31       		.uleb128 0x31
 3943 0293 13       		.uleb128 0x13
 3944 0294 02       		.uleb128 0x2
ARM GAS  C:\Users\z80\AppData\Local\Temp\ccuP4NIp.s 			page 71


 3945 0295 06       		.uleb128 0x6
 3946 0296 00       		.byte	0x0
 3947 0297 00       		.byte	0x0
 3948 0298 33       		.uleb128 0x33
 3949 0299 34       		.uleb128 0x34
 3950 029a 00       		.byte	0x0
 3951 029b 31       		.uleb128 0x31
 3952 029c 13       		.uleb128 0x13
 3953 029d 00       		.byte	0x0
 3954 029e 00       		.byte	0x0
 3955 029f 34       		.uleb128 0x34
 3956 02a0 34       		.uleb128 0x34
 3957 02a1 00       		.byte	0x0
 3958 02a2 31       		.uleb128 0x31
 3959 02a3 13       		.uleb128 0x13
 3960 02a4 02       		.uleb128 0x2
 3961 02a5 06       		.uleb128 0x6
 3962 02a6 00       		.byte	0x0
 3963 02a7 00       		.byte	0x0
 3964 02a8 35       		.uleb128 0x35
 3965 02a9 1D       		.uleb128 0x1d
 3966 02aa 01       		.byte	0x1
 3967 02ab 31       		.uleb128 0x31
 3968 02ac 13       		.uleb128 0x13
 3969 02ad 11       		.uleb128 0x11
 3970 02ae 01       		.uleb128 0x1
 3971 02af 12       		.uleb128 0x12
 3972 02b0 01       		.uleb128 0x1
 3973 02b1 58       		.uleb128 0x58
 3974 02b2 0B       		.uleb128 0xb
 3975 02b3 59       		.uleb128 0x59
 3976 02b4 0B       		.uleb128 0xb
 3977 02b5 00       		.byte	0x0
 3978 02b6 00       		.byte	0x0
 3979 02b7 36       		.uleb128 0x36
 3980 02b8 0B       		.uleb128 0xb
 3981 02b9 01       		.byte	0x1
 3982 02ba 11       		.uleb128 0x11
 3983 02bb 01       		.uleb128 0x1
 3984 02bc 12       		.uleb128 0x12
 3985 02bd 01       		.uleb128 0x1
 3986 02be 00       		.byte	0x0
 3987 02bf 00       		.byte	0x0
 3988 02c0 37       		.uleb128 0x37
 3989 02c1 34       		.uleb128 0x34
 3990 02c2 00       		.byte	0x0
 3991 02c3 31       		.uleb128 0x31
 3992 02c4 13       		.uleb128 0x13
 3993 02c5 1C       		.uleb128 0x1c
 3994 02c6 0B       		.uleb128 0xb
 3995 02c7 00       		.byte	0x0
 3996 02c8 00       		.byte	0x0
 3997 02c9 38       		.uleb128 0x38
 3998 02ca 2E       		.uleb128 0x2e
 3999 02cb 00       		.byte	0x0
 4000 02cc 3F       		.uleb128 0x3f
 4001 02cd 0C       		.uleb128 0xc
ARM GAS  C:\Users\z80\AppData\Local\Temp\ccuP4NIp.s 			page 72


 4002 02ce 03       		.uleb128 0x3
 4003 02cf 0E       		.uleb128 0xe
 4004 02d0 3A       		.uleb128 0x3a
 4005 02d1 0B       		.uleb128 0xb
 4006 02d2 3B       		.uleb128 0x3b
 4007 02d3 0B       		.uleb128 0xb
 4008 02d4 27       		.uleb128 0x27
 4009 02d5 0C       		.uleb128 0xc
 4010 02d6 49       		.uleb128 0x49
 4011 02d7 13       		.uleb128 0x13
 4012 02d8 11       		.uleb128 0x11
 4013 02d9 01       		.uleb128 0x1
 4014 02da 12       		.uleb128 0x12
 4015 02db 01       		.uleb128 0x1
 4016 02dc 40       		.uleb128 0x40
 4017 02dd 0A       		.uleb128 0xa
 4018 02de 00       		.byte	0x0
 4019 02df 00       		.byte	0x0
 4020 02e0 39       		.uleb128 0x39
 4021 02e1 34       		.uleb128 0x34
 4022 02e2 00       		.byte	0x0
 4023 02e3 03       		.uleb128 0x3
 4024 02e4 0E       		.uleb128 0xe
 4025 02e5 3A       		.uleb128 0x3a
 4026 02e6 0B       		.uleb128 0xb
 4027 02e7 3B       		.uleb128 0x3b
 4028 02e8 05       		.uleb128 0x5
 4029 02e9 49       		.uleb128 0x49
 4030 02ea 13       		.uleb128 0x13
 4031 02eb 3F       		.uleb128 0x3f
 4032 02ec 0C       		.uleb128 0xc
 4033 02ed 3C       		.uleb128 0x3c
 4034 02ee 0C       		.uleb128 0xc
 4035 02ef 00       		.byte	0x0
 4036 02f0 00       		.byte	0x0
 4037 02f1 3A       		.uleb128 0x3a
 4038 02f2 34       		.uleb128 0x34
 4039 02f3 00       		.byte	0x0
 4040 02f4 03       		.uleb128 0x3
 4041 02f5 08       		.uleb128 0x8
 4042 02f6 3A       		.uleb128 0x3a
 4043 02f7 0B       		.uleb128 0xb
 4044 02f8 3B       		.uleb128 0x3b
 4045 02f9 0B       		.uleb128 0xb
 4046 02fa 49       		.uleb128 0x49
 4047 02fb 13       		.uleb128 0x13
 4048 02fc 3F       		.uleb128 0x3f
 4049 02fd 0C       		.uleb128 0xc
 4050 02fe 3C       		.uleb128 0x3c
 4051 02ff 0C       		.uleb128 0xc
 4052 0300 00       		.byte	0x0
 4053 0301 00       		.byte	0x0
 4054 0302 00       		.byte	0x0
 4055              		.section	.debug_pubnames,"",%progbits
 4056 0000 3E000000 		.4byte	0x3e
 4057 0004 0200     		.2byte	0x2
 4058 0006 00000000 		.4byte	.Ldebug_info0
ARM GAS  C:\Users\z80\AppData\Local\Temp\ccuP4NIp.s 			page 73


 4059 000a 440E0000 		.4byte	0xe44
 4060 000e BA0C0000 		.4byte	0xcba
 4061 0012 6370755F 		.ascii	"cpu_io_init\000"
 4061      696F5F69 
 4061      6E697400 
 4062 001e CF0C0000 		.4byte	0xccf
 4063 0022 6370755F 		.ascii	"cpu_io_process\000"
 4063      696F5F70 
 4063      726F6365 
 4063      737300
 4064 0031 9D0D0000 		.4byte	0xd9d
 4065 0035 66756E63 		.ascii	"funcArgs\000"
 4065      41726773 
 4065      00
 4066 003e 00000000 		.4byte	0x0
 4067              		.section	.debug_pubtypes,"",%progbits
 4068 0000 41020000 		.4byte	0x241
 4069 0004 0200     		.2byte	0x2
 4070 0006 00000000 		.4byte	.Ldebug_info0
 4071 000a 440E0000 		.4byte	0xe44
 4072 000e 30000000 		.4byte	0x30
 4073 0012 73697A65 		.ascii	"size_t\000"
 4073      5F7400
 4074 0019 49000000 		.4byte	0x49
 4075 001d 75696E74 		.ascii	"uint8_t\000"
 4075      385F7400 
 4076 0025 62000000 		.4byte	0x62
 4077 0029 75696E74 		.ascii	"uint16_t\000"
 4077      31365F74 
 4077      00
 4078 0032 74000000 		.4byte	0x74
 4079 0036 696E7433 		.ascii	"int32_t\000"
 4079      325F7400 
 4080 003e 86000000 		.4byte	0x86
 4081 0042 75696E74 		.ascii	"uint32_t\000"
 4081      33325F74 
 4081      00
 4082 004b 9F000000 		.4byte	0x9f
 4083 004f 75696E74 		.ascii	"uint64_t\000"
 4083      36345F74 
 4083      00
 4084 0058 B1000000 		.4byte	0xb1
 4085 005c 75696E74 		.ascii	"uint_fast16_t\000"
 4085      5F666173 
 4085      7431365F 
 4085      7400
 4086 006a BC000000 		.4byte	0xbc
 4087 006e 626F6F6C 		.ascii	"bool_t\000"
 4087      5F7400
 4088 0075 C7000000 		.4byte	0xc7
 4089 0079 746D6F64 		.ascii	"tmode_t\000"
 4089      655F7400 
 4090 0081 D2000000 		.4byte	0xd2
 4091 0085 74737461 		.ascii	"tstate_t\000"
 4091      74655F74 
 4091      00
 4092 008e DD000000 		.4byte	0xdd
ARM GAS  C:\Users\z80\AppData\Local\Temp\ccuP4NIp.s 			page 74


 4093 0092 74707269 		.ascii	"tprio_t\000"
 4093      6F5F7400 
 4094 009a E8000000 		.4byte	0xe8
 4095 009e 6D73675F 		.ascii	"msg_t\000"
 4095      7400
 4096 00a4 F3000000 		.4byte	0xf3
 4097 00a8 6576656E 		.ascii	"eventmask_t\000"
 4097      746D6173 
 4097      6B5F7400 
 4098 00b4 FE000000 		.4byte	0xfe
 4099 00b8 73797374 		.ascii	"systime_t\000"
 4099      696D655F 
 4099      7400
 4100 00c2 09010000 		.4byte	0x109
 4101 00c6 54687265 		.ascii	"Thread\000"
 4101      616400
 4102 00cd 48020000 		.4byte	0x248
 4103 00d1 54687265 		.ascii	"ThreadsQueue\000"
 4103      61647351 
 4103      75657565 
 4103      00
 4104 00de 6A020000 		.4byte	0x26a
 4105 00e2 54687265 		.ascii	"ThreadsList\000"
 4105      6164734C 
 4105      69737400 
 4106 00ee 75020000 		.4byte	0x275
 4107 00f2 72656761 		.ascii	"regarm_t\000"
 4107      726D5F74 
 4107      00
 4108 00fb 82020000 		.4byte	0x282
 4109 00ff 73746B61 		.ascii	"stkalign_t\000"
 4109      6C69676E 
 4109      5F7400
 4110 010a 8D020000 		.4byte	0x28d
 4111 010e 696E7463 		.ascii	"intctx\000"
 4111      747800
 4112 0115 1A030000 		.4byte	0x31a
 4113 0119 636F6E74 		.ascii	"context\000"
 4113      65787400 
 4114 0121 45030000 		.4byte	0x345
 4115 0125 4D757465 		.ascii	"Mutex\000"
 4115      7800
 4116 012b 82030000 		.4byte	0x382
 4117 012f 4D757465 		.ascii	"Mutex\000"
 4117      7800
 4118 0135 8D030000 		.4byte	0x38d
 4119 0139 4576656E 		.ascii	"EventListener\000"
 4119      744C6973 
 4119      74656E65 
 4119      7200
 4120 0147 98030000 		.4byte	0x398
 4121 014b 4576656E 		.ascii	"EventListener\000"
 4121      744C6973 
 4121      74656E65 
 4121      7200
 4122 0159 D5030000 		.4byte	0x3d5
 4123 015d 4576656E 		.ascii	"EventSource\000"
ARM GAS  C:\Users\z80\AppData\Local\Temp\ccuP4NIp.s 			page 75


 4123      74536F75 
 4123      72636500 
 4124 0169 F0030000 		.4byte	0x3f0
 4125 016d 4576656E 		.ascii	"EventSource\000"
 4125      74536F75 
 4125      72636500 
 4126 0179 14010000 		.4byte	0x114
 4127 017d 54687265 		.ascii	"Thread\000"
 4127      616400
 4128 0184 4E040000 		.4byte	0x44e
 4129 0188 47656E65 		.ascii	"GenericQueue\000"
 4129      72696351 
 4129      75657565 
 4129      00
 4130 0195 C8040000 		.4byte	0x4c8
 4131 0199 716E6F74 		.ascii	"qnotify_t\000"
 4131      6966795F 
 4131      7400
 4132 01a3 59040000 		.4byte	0x459
 4133 01a7 47656E65 		.ascii	"GenericQueue\000"
 4133      72696351 
 4133      75657565 
 4133      00
 4134 01b4 F1040000 		.4byte	0x4f1
 4135 01b8 496E7075 		.ascii	"InputQueue\000"
 4135      74517565 
 4135      756500
 4136 01c3 FC040000 		.4byte	0x4fc
 4137 01c7 4F757470 		.ascii	"OutputQueue\000"
 4137      75745175 
 4137      65756500 
 4138 01d3 ED050000 		.4byte	0x5ed
 4139 01d7 696F666C 		.ascii	"ioflags_t\000"
 4139      6167735F 
 4139      7400
 4140 01e1 0F060000 		.4byte	0x60f
 4141 01e5 5446756E 		.ascii	"TFunc\000"
 4141      6300
 4142 01eb 10070000 		.4byte	0x710
 4143 01ef 55534152 		.ascii	"USART_TypeDef\000"
 4143      545F5479 
 4143      70654465 
 4143      6600
 4144 01fd 37070000 		.4byte	0x737
 4145 0201 73647374 		.ascii	"sdstate_t\000"
 4145      6174655F 
 4145      7400
 4146 020b 42070000 		.4byte	0x742
 4147 020f 53657269 		.ascii	"SerialDriver\000"
 4147      616C4472 
 4147      69766572 
 4147      00
 4148 021c D6070000 		.4byte	0x7d6
 4149 0220 53657269 		.ascii	"SerialDriverVMT\000"
 4149      616C4472 
 4149      69766572 
 4149      564D5400 
ARM GAS  C:\Users\z80\AppData\Local\Temp\ccuP4NIp.s 			page 76


 4150 0230 4D070000 		.4byte	0x74d
 4151 0234 53657269 		.ascii	"SerialDriver\000"
 4151      616C4472 
 4151      69766572 
 4151      00
 4152 0241 00000000 		.4byte	0x0
 4153              		.section	.debug_aranges,"",%progbits
 4154 0000 AC000000 		.4byte	0xac
 4155 0004 0200     		.2byte	0x2
 4156 0006 00000000 		.4byte	.Ldebug_info0
 4157 000a 04       		.byte	0x4
 4158 000b 00       		.byte	0x0
 4159 000c 0000     		.2byte	0x0
 4160 000e 0000     		.2byte	0x0
 4161 0010 00000000 		.4byte	.LFB81
 4162 0014 34000000 		.4byte	.LFE81-.LFB81
 4163 0018 00000000 		.4byte	.LFB82
 4164 001c 14000000 		.4byte	.LFE82-.LFB82
 4165 0020 00000000 		.4byte	.LFB80
 4166 0024 30000000 		.4byte	.LFE80-.LFB80
 4167 0028 00000000 		.4byte	.LFB79
 4168 002c 30000000 		.4byte	.LFE79-.LFB79
 4169 0030 00000000 		.4byte	.LFB78
 4170 0034 12000000 		.4byte	.LFE78-.LFB78
 4171 0038 00000000 		.4byte	.LFB77
 4172 003c 12000000 		.4byte	.LFE77-.LFB77
 4173 0040 00000000 		.4byte	.LFB76
 4174 0044 12000000 		.4byte	.LFE76-.LFB76
 4175 0048 00000000 		.4byte	.LFB75
 4176 004c 12000000 		.4byte	.LFE75-.LFB75
 4177 0050 00000000 		.4byte	.LFB74
 4178 0054 0A000000 		.4byte	.LFE74-.LFB74
 4179 0058 00000000 		.4byte	.LFB73
 4180 005c 0A000000 		.4byte	.LFE73-.LFB73
 4181 0060 00000000 		.4byte	.LFB72
 4182 0064 0A000000 		.4byte	.LFE72-.LFB72
 4183 0068 00000000 		.4byte	.LFB71
 4184 006c 1C000000 		.4byte	.LFE71-.LFB71
 4185 0070 00000000 		.4byte	.LFB67
 4186 0074 44000000 		.4byte	.LFE67-.LFB67
 4187 0078 00000000 		.4byte	.LFB70
 4188 007c 0C000000 		.4byte	.LFE70-.LFB70
 4189 0080 00000000 		.4byte	.LFB69
 4190 0084 0C000000 		.4byte	.LFE69-.LFB69
 4191 0088 00000000 		.4byte	.LFB68
 4192 008c 0C000000 		.4byte	.LFE68-.LFB68
 4193 0090 00000000 		.4byte	.LFB62
 4194 0094 12000000 		.4byte	.LFE62-.LFB62
 4195 0098 00000000 		.4byte	.LFB63
 4196 009c 4C000000 		.4byte	.LFE63-.LFB63
 4197 00a0 00000000 		.4byte	.LFB64
 4198 00a4 0A000000 		.4byte	.LFE64-.LFB64
 4199 00a8 00000000 		.4byte	0x0
 4200 00ac 00000000 		.4byte	0x0
 4201              		.section	.debug_ranges,"",%progbits
 4202              	.Ldebug_ranges0:
 4203 0000 02000000 		.4byte	.LBB9
ARM GAS  C:\Users\z80\AppData\Local\Temp\ccuP4NIp.s 			page 77


 4204 0004 04000000 		.4byte	.LBE9
 4205 0008 06000000 		.4byte	.LBB10
 4206 000c 0A000000 		.4byte	.LBE10
 4207 0010 00000000 		.4byte	0x0
 4208 0014 00000000 		.4byte	0x0
 4209 0018 22000000 		.4byte	.LBB12
 4210 001c 34000000 		.4byte	.LBE12
 4211 0020 36000000 		.4byte	.LBB13
 4212 0024 3A000000 		.4byte	.LBE13
 4213 0028 00000000 		.4byte	0x0
 4214 002c 00000000 		.4byte	0x0
 4215 0030 10000000 		.4byte	.LBB14
 4216 0034 1C000000 		.4byte	.LBE14
 4217 0038 1E000000 		.4byte	.LBB21
 4218 003c 4C000000 		.4byte	.LBE21
 4219 0040 00000000 		.4byte	0x0
 4220 0044 00000000 		.4byte	0x0
 4221 0048 14000000 		.4byte	.LBB15
 4222 004c 1C000000 		.4byte	.LBE15
 4223 0050 28000000 		.4byte	.LBB20
 4224 0054 4C000000 		.4byte	.LBE20
 4225 0058 00000000 		.4byte	0x0
 4226 005c 00000000 		.4byte	0x0
 4227 0060 14000000 		.4byte	.LBB16
 4228 0064 1C000000 		.4byte	.LBE16
 4229 0068 28000000 		.4byte	.LBB19
 4230 006c 4C000000 		.4byte	.LBE19
 4231 0070 00000000 		.4byte	0x0
 4232 0074 00000000 		.4byte	0x0
 4233 0078 00000000 		.4byte	.LFB81
 4234 007c 34000000 		.4byte	.LFE81
 4235 0080 00000000 		.4byte	.LFB82
 4236 0084 14000000 		.4byte	.LFE82
 4237 0088 00000000 		.4byte	.LFB80
 4238 008c 30000000 		.4byte	.LFE80
 4239 0090 00000000 		.4byte	.LFB79
 4240 0094 30000000 		.4byte	.LFE79
 4241 0098 00000000 		.4byte	.LFB78
 4242 009c 12000000 		.4byte	.LFE78
 4243 00a0 00000000 		.4byte	.LFB77
 4244 00a4 12000000 		.4byte	.LFE77
 4245 00a8 00000000 		.4byte	.LFB76
 4246 00ac 12000000 		.4byte	.LFE76
 4247 00b0 00000000 		.4byte	.LFB75
 4248 00b4 12000000 		.4byte	.LFE75
 4249 00b8 00000000 		.4byte	.LFB74
 4250 00bc 0A000000 		.4byte	.LFE74
 4251 00c0 00000000 		.4byte	.LFB73
 4252 00c4 0A000000 		.4byte	.LFE73
 4253 00c8 00000000 		.4byte	.LFB72
 4254 00cc 0A000000 		.4byte	.LFE72
 4255 00d0 00000000 		.4byte	.LFB71
 4256 00d4 1C000000 		.4byte	.LFE71
 4257 00d8 00000000 		.4byte	.LFB67
 4258 00dc 44000000 		.4byte	.LFE67
 4259 00e0 00000000 		.4byte	.LFB70
 4260 00e4 0C000000 		.4byte	.LFE70
ARM GAS  C:\Users\z80\AppData\Local\Temp\ccuP4NIp.s 			page 78


 4261 00e8 00000000 		.4byte	.LFB69
 4262 00ec 0C000000 		.4byte	.LFE69
 4263 00f0 00000000 		.4byte	.LFB68
 4264 00f4 0C000000 		.4byte	.LFE68
 4265 00f8 00000000 		.4byte	.LFB62
 4266 00fc 12000000 		.4byte	.LFE62
 4267 0100 00000000 		.4byte	.LFB63
 4268 0104 4C000000 		.4byte	.LFE63
 4269 0108 00000000 		.4byte	.LFB64
 4270 010c 0A000000 		.4byte	.LFE64
 4271 0110 00000000 		.4byte	0x0
 4272 0114 00000000 		.4byte	0x0
 4273              		.section	.debug_str,"MS",%progbits,1
 4274              	.LASF135:
 4275 0000 77726974 		.ascii	"writeEom\000"
 4275      65456F6D 
 4275      00
 4276              	.LASF2:
 4277 0009 73697A65 		.ascii	"size_t\000"
 4277      5F7400
 4278              	.LASF57:
 4279 0010 7264796D 		.ascii	"rdymsg\000"
 4279      736700
 4280              	.LASF13:
 4281 0017 75696E74 		.ascii	"uint64_t\000"
 4281      36345F74 
 4281      00
 4282              	.LASF131:
 4283 0020 66756E63 		.ascii	"funcs\000"
 4283      7300
 4284              	.LASF72:
 4285 0026 4F757470 		.ascii	"OutputQueue\000"
 4285      75745175 
 4285      65756500 
 4286              	.LASF74:
 4287 0032 5446756E 		.ascii	"TFunc\000"
 4287      6300
 4288              	.LASF121:
 4289 0038 70657269 		.ascii	"period\000"
 4289      6F6400
 4290              	.LASF15:
 4291 003f 75696E74 		.ascii	"uint_fast16_t\000"
 4291      5F666173 
 4291      7431365F 
 4291      7400
 4292              	.LASF14:
 4293 004d 6C6F6E67 		.ascii	"long long unsigned int\000"
 4293      206C6F6E 
 4293      6720756E 
 4293      7369676E 
 4293      65642069 
 4294              	.LASF115:
 4295 0064 7365745F 		.ascii	"set_one_pulse\000"
 4295      6F6E655F 
 4295      70756C73 
 4295      6500
 4296              	.LASF138:
ARM GAS  C:\Users\z80\AppData\Local\Temp\ccuP4NIp.s 			page 79


 4297 0072 66756E63 		.ascii	"funcArgs\000"
 4297      41726773 
 4297      00
 4298              	.LASF58:
 4299 007b 65786974 		.ascii	"exitcode\000"
 4299      636F6465 
 4299      00
 4300              	.LASF117:
 4301 0084 7365745F 		.ascii	"set_sc_relay\000"
 4301      73635F72 
 4301      656C6179 
 4301      00
 4302              	.LASF128:
 4303 0091 6F75745F 		.ascii	"out_index\000"
 4303      696E6465 
 4303      7800
 4304              	.LASF129:
 4305 009b 49544D5F 		.ascii	"ITM_RxBuffer\000"
 4305      52784275 
 4305      66666572 
 4305      00
 4306              	.LASF26:
 4307 00a8 705F7072 		.ascii	"p_prio\000"
 4307      696F00
 4308              	.LASF101:
 4309 00af 72656164 		.ascii	"readt\000"
 4309      7400
 4310              	.LASF120:
 4311 00b5 6F73635F 		.ascii	"osc_set_period\000"
 4311      7365745F 
 4311      70657269 
 4311      6F6400
 4312              	.LASF12:
 4313 00c4 6C6F6E67 		.ascii	"long long int\000"
 4313      206C6F6E 
 4313      6720696E 
 4313      7400
 4314              	.LASF1:
 4315 00d2 7369676E 		.ascii	"signed char\000"
 4315      65642063 
 4315      68617200 
 4316              	.LASF81:
 4317 00de 47545052 		.ascii	"GTPR\000"
 4317      00
 4318              	.LASF85:
 4319 00e3 53445F53 		.ascii	"SD_STOP\000"
 4319      544F5000 
 4320              	.LASF16:
 4321 00eb 626F6F6C 		.ascii	"bool_t\000"
 4321      5F7400
 4322              	.LASF48:
 4323 00f2 6D5F7175 		.ascii	"m_queue\000"
 4323      65756500 
 4324              	.LASF122:
 4325 00fa 77726974 		.ascii	"writeOscQueue\000"
 4325      654F7363 
 4325      51756575 
ARM GAS  C:\Users\z80\AppData\Local\Temp\ccuP4NIp.s 			page 80


 4325      6500
 4326              	.LASF91:
 4327 0108 73746174 		.ascii	"state\000"
 4327      6500
 4328              	.LASF9:
 4329 010e 6C6F6E67 		.ascii	"long int\000"
 4329      20696E74 
 4329      00
 4330              	.LASF18:
 4331 0117 74737461 		.ascii	"tstate_t\000"
 4331      74655F74 
 4331      00
 4332              	.LASF65:
 4333 0120 715F6275 		.ascii	"q_buffer\000"
 4333      66666572 
 4333      00
 4334              	.LASF67:
 4335 0129 715F7772 		.ascii	"q_wrptr\000"
 4335      70747200 
 4336              	.LASF28:
 4337 0131 705F6E65 		.ascii	"p_newer\000"
 4337      77657200 
 4338              	.LASF98:
 4339 0139 70757477 		.ascii	"putwouldblock\000"
 4339      6F756C64 
 4339      626C6F63 
 4339      6B00
 4340              	.LASF119:
 4341 0147 7365745F 		.ascii	"set_leds\000"
 4341      6C656473 
 4341      00
 4342              	.LASF43:
 4343 0150 72656761 		.ascii	"regarm_t\000"
 4343      726D5F74 
 4343      00
 4344              	.LASF55:
 4345 0159 4576656E 		.ascii	"EventSource\000"
 4345      74536F75 
 4345      72636500 
 4346              	.LASF94:
 4347 0165 75736172 		.ascii	"usart\000"
 4347      7400
 4348              	.LASF0:
 4349 016b 756E7369 		.ascii	"unsigned int\000"
 4349      676E6564 
 4349      20696E74 
 4349      00
 4350              	.LASF6:
 4351 0178 75696E74 		.ascii	"uint16_t\000"
 4351      31365F74 
 4351      00
 4352              	.LASF95:
 4353 0181 53657269 		.ascii	"SerialDriverVMT\000"
 4353      616C4472 
 4353      69766572 
 4353      564D5400 
 4354              	.LASF34:
ARM GAS  C:\Users\z80\AppData\Local\Temp\ccuP4NIp.s 			page 81


 4355 0191 705F7469 		.ascii	"p_time\000"
 4355      6D6500
 4356              	.LASF112:
 4357 0198 68617264 		.ascii	"hardware_version\000"
 4357      77617265 
 4357      5F766572 
 4357      73696F6E 
 4357      00
 4358              	.LASF113:
 4359 01a9 7365745F 		.ascii	"set_sweep\000"
 4359      73776565 
 4359      7000
 4360              	.LASF92:
 4361 01b3 69717565 		.ascii	"iqueue\000"
 4361      756500
 4362              	.LASF36:
 4363 01ba 705F6D73 		.ascii	"p_msgqueue\000"
 4363      67717565 
 4363      756500
 4364              	.LASF111:
 4365 01c5 73747269 		.ascii	"stri\000"
 4365      00
 4366              	.LASF105:
 4367 01ca 65786563 		.ascii	"exec_func\000"
 4367      5F66756E 
 4367      6300
 4368              	.LASF123:
 4369 01d4 6E6F4461 		.ascii	"noData\000"
 4369      746100
 4370              	.LASF19:
 4371 01db 74707269 		.ascii	"tprio_t\000"
 4371      6F5F7400 
 4372              	.LASF89:
 4373 01e3 6576656E 		.ascii	"event\000"
 4373      7400
 4374              	.LASF7:
 4375 01e9 73686F72 		.ascii	"short unsigned int\000"
 4375      7420756E 
 4375      7369676E 
 4375      65642069 
 4375      6E7400
 4376              	.LASF20:
 4377 01fc 6D73675F 		.ascii	"msg_t\000"
 4377      7400
 4378              	.LASF93:
 4379 0202 6F717565 		.ascii	"oqueue\000"
 4379      756500
 4380              	.LASF124:
 4381 0209 6F73635F 		.ascii	"osc_iaux\000"
 4381      69617578 
 4381      00
 4382              	.LASF109:
 4383 0212 6669726D 		.ascii	"firmware_version\000"
 4383      77617265 
 4383      5F766572 
 4383      73696F6E 
 4383      00
ARM GAS  C:\Users\z80\AppData\Local\Temp\ccuP4NIp.s 			page 82


 4384              	.LASF83:
 4385 0223 55534152 		.ascii	"USART_TypeDef\000"
 4385      545F5479 
 4385      70654465 
 4385      6600
 4386              	.LASF100:
 4387 0231 77726974 		.ascii	"writet\000"
 4387      657400
 4388              	.LASF17:
 4389 0238 746D6F64 		.ascii	"tmode_t\000"
 4389      655F7400 
 4390              	.LASF42:
 4391 0240 54687265 		.ascii	"ThreadsList\000"
 4391      6164734C 
 4391      69737400 
 4392              	.LASF21:
 4393 024c 6576656E 		.ascii	"eventmask_t\000"
 4393      746D6173 
 4393      6B5F7400 
 4394              	.LASF71:
 4395 0258 496E7075 		.ascii	"InputQueue\000"
 4395      74517565 
 4395      756500
 4396              	.LASF70:
 4397 0263 716E6F74 		.ascii	"qnotify_t\000"
 4397      6966795F 
 4397      7400
 4398              	.LASF133:
 4399 026d 2E2F7372 		.ascii	"./src/cpu_io.c\000"
 4399      632F6370 
 4399      755F696F 
 4399      2E6300
 4400              	.LASF62:
 4401 027c 47656E65 		.ascii	"GenericQueue\000"
 4401      72696351 
 4401      75657565 
 4401      00
 4402              	.LASF44:
 4403 0289 73746B61 		.ascii	"stkalign_t\000"
 4403      6C69676E 
 4403      5F7400
 4404              	.LASF116:
 4405 0294 7365745F 		.ascii	"set_dac\000"
 4405      64616300 
 4406              	.LASF96:
 4407 029c 77726974 		.ascii	"write\000"
 4407      6500
 4408              	.LASF64:
 4409 02a2 715F636F 		.ascii	"q_counter\000"
 4409      756E7465 
 4409      7200
 4410              	.LASF47:
 4411 02ac 4D757465 		.ascii	"Mutex\000"
 4411      7800
 4412              	.LASF29:
 4413 02b2 705F6F6C 		.ascii	"p_older\000"
 4413      64657200 
ARM GAS  C:\Users\z80\AppData\Local\Temp\ccuP4NIp.s 			page 83


 4414              	.LASF137:
 4415 02ba 6370755F 		.ascii	"cpu_io_process\000"
 4415      696F5F70 
 4415      726F6365 
 4415      737300
 4416              	.LASF73:
 4417 02c9 696F666C 		.ascii	"ioflags_t\000"
 4417      6167735F 
 4417      7400
 4418              	.LASF41:
 4419 02d3 54687265 		.ascii	"ThreadsQueue\000"
 4419      61647351 
 4419      75657565 
 4419      00
 4420              	.LASF134:
 4421 02e0 433A5C70 		.ascii	"C:\\projects\\voltamper.git\\firmware\\voltamp\000"
 4421      726F6A65 
 4421      6374735C 
 4421      766F6C74 
 4421      616D7065 
 4422              	.LASF118:
 4423 030b 7365745F 		.ascii	"set_out_relay\000"
 4423      6F75745F 
 4423      72656C61 
 4423      7900
 4424              	.LASF54:
 4425 0319 656C5F6D 		.ascii	"el_mask\000"
 4425      61736B00 
 4426              	.LASF108:
 4427 0321 77726974 		.ascii	"writeResult\000"
 4427      65526573 
 4427      756C7400 
 4428              	.LASF63:
 4429 032d 715F7761 		.ascii	"q_waiting\000"
 4429      6974696E 
 4429      6700
 4430              	.LASF75:
 4431 0337 52455345 		.ascii	"RESERVED0\000"
 4431      52564544 
 4431      3000
 4432              	.LASF76:
 4433 0341 52455345 		.ascii	"RESERVED1\000"
 4433      52564544 
 4433      3100
 4434              	.LASF77:
 4435 034b 52455345 		.ascii	"RESERVED2\000"
 4435      52564544 
 4435      3200
 4436              	.LASF78:
 4437 0355 52455345 		.ascii	"RESERVED3\000"
 4437      52564544 
 4437      3300
 4438              	.LASF79:
 4439 035f 52455345 		.ascii	"RESERVED4\000"
 4439      52564544 
 4439      3400
 4440              	.LASF25:
ARM GAS  C:\Users\z80\AppData\Local\Temp\ccuP4NIp.s 			page 84


 4441 0369 705F7072 		.ascii	"p_prev\000"
 4441      657600
 4442              	.LASF82:
 4443 0370 52455345 		.ascii	"RESERVED6\000"
 4443      52564544 
 4443      3600
 4444              	.LASF104:
 4445 037a 66756E63 		.ascii	"funcs_sz\000"
 4445      735F737A 
 4445      00
 4446              	.LASF68:
 4447 0383 715F7264 		.ascii	"q_rdptr\000"
 4447      70747200 
 4448              	.LASF125:
 4449 038b 6F73635F 		.ascii	"osc_eref\000"
 4449      65726566 
 4449      00
 4450              	.LASF8:
 4451 0394 696E7433 		.ascii	"int32_t\000"
 4451      325F7400 
 4452              	.LASF4:
 4453 039c 756E7369 		.ascii	"unsigned char\000"
 4453      676E6564 
 4453      20636861 
 4453      7200
 4454              	.LASF53:
 4455 03aa 656C5F6C 		.ascii	"el_listener\000"
 4455      69737465 
 4455      6E657200 
 4456              	.LASF39:
 4457 03b6 705F6D74 		.ascii	"p_mtxlist\000"
 4457      786C6973 
 4457      7400
 4458              	.LASF5:
 4459 03c0 73686F72 		.ascii	"short int\000"
 4459      7420696E 
 4459      7400
 4460              	.LASF32:
 4461 03ca 705F7374 		.ascii	"p_state\000"
 4461      61746500 
 4462              	.LASF106:
 4463 03d2 70726F63 		.ascii	"process_command\000"
 4463      6573735F 
 4463      636F6D6D 
 4463      616E6400 
 4464              	.LASF60:
 4465 03e2 65776D61 		.ascii	"ewmask\000"
 4465      736B00
 4466              	.LASF24:
 4467 03e9 705F6E65 		.ascii	"p_next\000"
 4467      787400
 4468              	.LASF33:
 4469 03f0 705F666C 		.ascii	"p_flags\000"
 4469      61677300 
 4470              	.LASF52:
 4471 03f8 656C5F6E 		.ascii	"el_next\000"
 4471      65787400 
ARM GAS  C:\Users\z80\AppData\Local\Temp\ccuP4NIp.s 			page 85


 4472              	.LASF114:
 4473 0400 7365745F 		.ascii	"set_meandr\000"
 4473      6D65616E 
 4473      647200
 4474              	.LASF23:
 4475 040b 54687265 		.ascii	"Thread\000"
 4475      616400
 4476              	.LASF38:
 4477 0412 705F6570 		.ascii	"p_epending\000"
 4477      656E6469 
 4477      6E6700
 4478              	.LASF84:
 4479 041d 53445F55 		.ascii	"SD_UNINIT\000"
 4479      4E494E49 
 4479      5400
 4480              	.LASF80:
 4481 0427 52455345 		.ascii	"RESERVED5\000"
 4481      52564544 
 4481      3500
 4482              	.LASF10:
 4483 0431 75696E74 		.ascii	"uint32_t\000"
 4483      33325F74 
 4483      00
 4484              	.LASF87:
 4485 043a 73647374 		.ascii	"sdstate_t\000"
 4485      6174655F 
 4485      7400
 4486              	.LASF88:
 4487 0444 53657269 		.ascii	"SerialDriver\000"
 4487      616C4472 
 4487      69766572 
 4487      00
 4488              	.LASF11:
 4489 0451 6C6F6E67 		.ascii	"long unsigned int\000"
 4489      20756E73 
 4489      69676E65 
 4489      6420696E 
 4489      7400
 4490              	.LASF97:
 4491 0463 72656164 		.ascii	"read\000"
 4491      00
 4492              	.LASF61:
 4493 0468 63686172 		.ascii	"char\000"
 4493      00
 4494              	.LASF136:
 4495 046d 6370755F 		.ascii	"cpu_io_init\000"
 4495      696F5F69 
 4495      6E697400 
 4496              	.LASF50:
 4497 0479 6D5F6E65 		.ascii	"m_next\000"
 4497      787400
 4498              	.LASF22:
 4499 0480 73797374 		.ascii	"systime_t\000"
 4499      696D655F 
 4499      7400
 4500              	.LASF40:
 4501 048a 705F7265 		.ascii	"p_realprio\000"
ARM GAS  C:\Users\z80\AppData\Local\Temp\ccuP4NIp.s 			page 86


 4501      616C7072 
 4501      696F00
 4502              	.LASF130:
 4503 0495 62756666 		.ascii	"buffer\000"
 4503      657200
 4504              	.LASF31:
 4505 049c 705F7374 		.ascii	"p_stklimit\000"
 4505      6B6C696D 
 4505      697400
 4506              	.LASF107:
 4507 04a7 64617461 		.ascii	"data\000"
 4507      00
 4508              	.LASF102:
 4509 04ac 67657466 		.ascii	"getflags\000"
 4509      6C616773 
 4509      00
 4510              	.LASF46:
 4511 04b5 636F6E74 		.ascii	"context\000"
 4511      65787400 
 4512              	.LASF45:
 4513 04bd 696E7463 		.ascii	"intctx\000"
 4513      747800
 4514              	.LASF86:
 4515 04c4 53445F52 		.ascii	"SD_READY\000"
 4515      45414459 
 4515      00
 4516              	.LASF126:
 4517 04cd 6F73635F 		.ascii	"osc_eaux\000"
 4517      65617578 
 4517      00
 4518              	.LASF66:
 4519 04d6 715F746F 		.ascii	"q_top\000"
 4519      7000
 4520              	.LASF30:
 4521 04dc 705F6E61 		.ascii	"p_name\000"
 4521      6D6500
 4522              	.LASF56:
 4523 04e3 65735F6E 		.ascii	"es_next\000"
 4523      65787400 
 4524              	.LASF69:
 4525 04eb 715F6E6F 		.ascii	"q_notify\000"
 4525      74696679 
 4525      00
 4526              	.LASF37:
 4527 04f4 705F6D73 		.ascii	"p_msg\000"
 4527      6700
 4528              	.LASF3:
 4529 04fa 75696E74 		.ascii	"uint8_t\000"
 4529      385F7400 
 4530              	.LASF103:
 4531 0502 66756E63 		.ascii	"func_index\000"
 4531      5F696E64 
 4531      657800
 4532              	.LASF90:
 4533 050d 666C6167 		.ascii	"flags\000"
 4533      7300
 4534              	.LASF51:
ARM GAS  C:\Users\z80\AppData\Local\Temp\ccuP4NIp.s 			page 87


 4535 0513 4576656E 		.ascii	"EventListener\000"
 4535      744C6973 
 4535      74656E65 
 4535      7200
 4536              	.LASF132:
 4537 0521 474E5520 		.ascii	"GNU C 4.5.0\000"
 4537      4320342E 
 4537      352E3000 
 4538              	.LASF59:
 4539 052d 77746F62 		.ascii	"wtobjp\000"
 4539      6A7000
 4540              	.LASF127:
 4541 0534 736C6173 		.ascii	"slash\000"
 4541      6800
 4542              	.LASF99:
 4543 053a 67657477 		.ascii	"getwouldblock\000"
 4543      6F756C64 
 4543      626C6F63 
 4543      6B00
 4544              	.LASF110:
 4545 0548 61726773 		.ascii	"args\000"
 4545      00
 4546              	.LASF49:
 4547 054d 6D5F6F77 		.ascii	"m_owner\000"
 4547      6E657200 
 4548              	.LASF27:
 4549 0555 705F6374 		.ascii	"p_ctx\000"
 4549      7800
 4550              	.LASF35:
 4551 055b 705F7761 		.ascii	"p_waiting\000"
 4551      6974696E 
 4551      6700
 4552              		.ident	"GCC: (GNU) 4.5.0"
ARM GAS  C:\Users\z80\AppData\Local\Temp\ccuP4NIp.s 			page 88


DEFINED SYMBOLS
                            *ABS*:00000000 cpu_io.c
C:\Users\z80\AppData\Local\Temp\ccuP4NIp.s:24     .text.writeResult:00000000 $t
C:\Users\z80\AppData\Local\Temp\ccuP4NIp.s:29     .text.writeResult:00000000 writeResult
C:\Users\z80\AppData\Local\Temp\ccuP4NIp.s:71     .text.writeResult:00000030 $d
C:\Users\z80\AppData\Local\Temp\ccuP4NIp.s:76     .text.writeEom:00000000 $t
C:\Users\z80\AppData\Local\Temp\ccuP4NIp.s:81     .text.writeEom:00000000 writeEom
C:\Users\z80\AppData\Local\Temp\ccuP4NIp.s:102    .text.writeEom:00000010 $d
C:\Users\z80\AppData\Local\Temp\ccuP4NIp.s:107    .text.firmware_version:00000000 $t
C:\Users\z80\AppData\Local\Temp\ccuP4NIp.s:112    .text.firmware_version:00000000 firmware_version
C:\Users\z80\AppData\Local\Temp\ccuP4NIp.s:157    .text.firmware_version:0000002c $d
C:\Users\z80\AppData\Local\Temp\ccuP4NIp.s:162    .text.hardware_version:00000000 $t
C:\Users\z80\AppData\Local\Temp\ccuP4NIp.s:167    .text.hardware_version:00000000 hardware_version
C:\Users\z80\AppData\Local\Temp\ccuP4NIp.s:213    .text.hardware_version:0000002c $d
C:\Users\z80\AppData\Local\Temp\ccuP4NIp.s:218    .text.set_sweep:00000000 $t
C:\Users\z80\AppData\Local\Temp\ccuP4NIp.s:223    .text.set_sweep:00000000 set_sweep
C:\Users\z80\AppData\Local\Temp\ccuP4NIp.s:249    .text.set_meandr:00000000 $t
C:\Users\z80\AppData\Local\Temp\ccuP4NIp.s:254    .text.set_meandr:00000000 set_meandr
C:\Users\z80\AppData\Local\Temp\ccuP4NIp.s:280    .text.set_one_pulse:00000000 $t
C:\Users\z80\AppData\Local\Temp\ccuP4NIp.s:285    .text.set_one_pulse:00000000 set_one_pulse
C:\Users\z80\AppData\Local\Temp\ccuP4NIp.s:311    .text.set_dac:00000000 $t
C:\Users\z80\AppData\Local\Temp\ccuP4NIp.s:316    .text.set_dac:00000000 set_dac
C:\Users\z80\AppData\Local\Temp\ccuP4NIp.s:342    .text.set_sc_relay:00000000 $t
C:\Users\z80\AppData\Local\Temp\ccuP4NIp.s:347    .text.set_sc_relay:00000000 set_sc_relay
C:\Users\z80\AppData\Local\Temp\ccuP4NIp.s:369    .text.set_out_relay:00000000 $t
C:\Users\z80\AppData\Local\Temp\ccuP4NIp.s:374    .text.set_out_relay:00000000 set_out_relay
C:\Users\z80\AppData\Local\Temp\ccuP4NIp.s:396    .text.set_leds:00000000 $t
C:\Users\z80\AppData\Local\Temp\ccuP4NIp.s:401    .text.set_leds:00000000 set_leds
C:\Users\z80\AppData\Local\Temp\ccuP4NIp.s:423    .text.osc_set_period:00000000 $t
C:\Users\z80\AppData\Local\Temp\ccuP4NIp.s:428    .text.osc_set_period:00000000 osc_set_period
C:\Users\z80\AppData\Local\Temp\ccuP4NIp.s:464    .text.writeOscQueue:00000000 $t
C:\Users\z80\AppData\Local\Temp\ccuP4NIp.s:469    .text.writeOscQueue:00000000 writeOscQueue
C:\Users\z80\AppData\Local\Temp\ccuP4NIp.s:559    .text.osc_iaux:00000000 $t
C:\Users\z80\AppData\Local\Temp\ccuP4NIp.s:564    .text.osc_iaux:00000000 osc_iaux
C:\Users\z80\AppData\Local\Temp\ccuP4NIp.s:588    .text.osc_eref:00000000 $t
C:\Users\z80\AppData\Local\Temp\ccuP4NIp.s:593    .text.osc_eref:00000000 osc_eref
C:\Users\z80\AppData\Local\Temp\ccuP4NIp.s:617    .text.osc_eaux:00000000 $t
C:\Users\z80\AppData\Local\Temp\ccuP4NIp.s:622    .text.osc_eaux:00000000 osc_eaux
C:\Users\z80\AppData\Local\Temp\ccuP4NIp.s:646    .text.cpu_io_init:00000000 $t
C:\Users\z80\AppData\Local\Temp\ccuP4NIp.s:652    .text.cpu_io_init:00000000 cpu_io_init
C:\Users\z80\AppData\Local\Temp\ccuP4NIp.s:676    .text.cpu_io_process:00000000 $t
C:\Users\z80\AppData\Local\Temp\ccuP4NIp.s:682    .text.cpu_io_process:00000000 cpu_io_process
C:\Users\z80\AppData\Local\Temp\ccuP4NIp.s:766    .text.cpu_io_process:0000003c $d
C:\Users\z80\AppData\Local\Temp\ccuP4NIp.s:779    .text.funcArgs:00000000 $t
C:\Users\z80\AppData\Local\Temp\ccuP4NIp.s:785    .text.funcArgs:00000000 funcArgs
C:\Users\z80\AppData\Local\Temp\ccuP4NIp.s:835    .bss.args:00000000 .LANCHOR2
C:\Users\z80\AppData\Local\Temp\ccuP4NIp.s:801    .rodata.funcs:00000000 $d
C:\Users\z80\AppData\Local\Temp\ccuP4NIp.s:805    .rodata.funcs:00000000 funcs
C:\Users\z80\AppData\Local\Temp\ccuP4NIp.s:820    .bss.buffer:00000000 $d
C:\Users\z80\AppData\Local\Temp\ccuP4NIp.s:824    .bss.buffer:00000000 buffer
C:\Users\z80\AppData\Local\Temp\ccuP4NIp.s:827    .rodata.str1.4:00000000 $d
C:\Users\z80\AppData\Local\Temp\ccuP4NIp.s:834    .bss.args:00000000 $d
C:\Users\z80\AppData\Local\Temp\ccuP4NIp.s:838    .bss.args:00000000 args
                     .debug_frame:00000010 $d
C:\Users\z80\AppData\Local\Temp\ccuP4NIp.s:75     .text.writeResult:00000034 $t
C:\Users\z80\AppData\Local\Temp\ccuP4NIp.s:106    .text.writeEom:00000014 $t
C:\Users\z80\AppData\Local\Temp\ccuP4NIp.s:778    .text.cpu_io_process:0000004c $t
ARM GAS  C:\Users\z80\AppData\Local\Temp\ccuP4NIp.s 			page 89



UNDEFINED SYMBOLS
chOQPutTimeout
SD1
commandQueue
setScRelay
setOutRelay
setLeds
setOscPeriod
dbg_check_lock
dbg_check_unlock
chIQGetTimeout
iauxQueue
erefQueue
eauxQueue
sdStart
