ARM GAS  /tmp/ccJOsmUH.s 			page 1


   1              		.syntax unified
   2              		.cpu cortex-m3
   3              		.fpu softvfp
   4              		.eabi_attribute 20, 1
   5              		.eabi_attribute 21, 1
   6              		.eabi_attribute 23, 3
   7              		.eabi_attribute 24, 1
   8              		.eabi_attribute 25, 1
   9              		.eabi_attribute 26, 1
  10              		.eabi_attribute 30, 2
  11              		.eabi_attribute 18, 4
  12              		.thumb
  13              		.file	"cpu_io.c"
  14              		.section	.debug_abbrev,"",%progbits
  15              	.Ldebug_abbrev0:
  16              		.section	.debug_info,"",%progbits
  17              	.Ldebug_info0:
  18              		.section	.debug_line,"",%progbits
  19              	.Ldebug_line0:
  20 0000 54040000 		.text
  20      0200A802 
  20      00000201 
  20      FB0E0D00 
  20      01010101 
  21              	.Ltext0:
  22              		.cfi_sections	.debug_frame
  23              		.section	.text.set_meandr,"ax",%progbits
  24              		.align	2
  25              		.p2align 4,,15
  26              		.thumb
  27              		.thumb_func
  28              		.type	set_meandr, %function
  29              	set_meandr:
  30              	.LFB77:
  31              		.file 1 "./src/cpu_io.c"
  32              		.loc 1 219 0
  33              		.cfi_startproc
  34              		@ args = 0, pretend = 0, frame = 0
  35              		@ frame_needed = 0, uses_anonymous_args = 0
  36              	.LVL0:
  37 0000 10B5     		push	{r4, lr}
  38              	.LCFI0:
  39              		.cfi_def_cfa_offset 8
  40              		.loc 1 221 0
  41              		.cfi_offset 14, -4
  42              		.cfi_offset 4, -8
  43 0002 FFF7FEFF 		bl	commandQueue
  44              	.LVL1:
  45              		.loc 1 222 0
  46 0006 0221     		movs	r1, #2
  47 0008 4FF0FF32 		mov	r2, #-1
  48              		.loc 1 223 0
  49 000c BDE81040 		pop	{r4, lr}
  50              		.loc 1 222 0
  51 0010 FFF7FEBF 		b	chOQPutTimeout
  52              		.cfi_endproc
  53              	.LFE77:
ARM GAS  /tmp/ccJOsmUH.s 			page 2


  54              		.size	set_meandr, .-set_meandr
  55 0014 AFF30080 		.section	.text.set_one_pulse,"ax",%progbits
  55      AFF30080 
  55      AFF30080 
  56              		.align	2
  57              		.p2align 4,,15
  58              		.thumb
  59              		.thumb_func
  60              		.type	set_one_pulse, %function
  61              	set_one_pulse:
  62              	.LFB76:
  63              		.loc 1 212 0
  64              		.cfi_startproc
  65              		@ args = 0, pretend = 0, frame = 0
  66              		@ frame_needed = 0, uses_anonymous_args = 0
  67              	.LVL2:
  68 0000 10B5     		push	{r4, lr}
  69              	.LCFI1:
  70              		.cfi_def_cfa_offset 8
  71              		.loc 1 214 0
  72              		.cfi_offset 14, -4
  73              		.cfi_offset 4, -8
  74 0002 FFF7FEFF 		bl	commandQueue
  75              	.LVL3:
  76              		.loc 1 215 0
  77 0006 0121     		movs	r1, #1
  78 0008 4FF0FF32 		mov	r2, #-1
  79              		.loc 1 216 0
  80 000c BDE81040 		pop	{r4, lr}
  81              		.loc 1 215 0
  82 0010 FFF7FEBF 		b	chOQPutTimeout
  83              		.cfi_endproc
  84              	.LFE76:
  85              		.size	set_one_pulse, .-set_one_pulse
  86 0014 AFF30080 		.section	.text.set_dac,"ax",%progbits
  86      AFF30080 
  86      AFF30080 
  87              		.align	2
  88              		.p2align 4,,15
  89              		.thumb
  90              		.thumb_func
  91              		.type	set_dac, %function
  92              	set_dac:
  93              	.LFB75:
  94              		.loc 1 205 0
  95              		.cfi_startproc
  96              		@ args = 0, pretend = 0, frame = 0
  97              		@ frame_needed = 0, uses_anonymous_args = 0
  98              	.LVL4:
  99 0000 10B5     		push	{r4, lr}
 100              	.LCFI2:
 101              		.cfi_def_cfa_offset 8
 102              		.loc 1 207 0
 103              		.cfi_offset 14, -4
 104              		.cfi_offset 4, -8
 105 0002 FFF7FEFF 		bl	commandQueue
 106              	.LVL5:
ARM GAS  /tmp/ccJOsmUH.s 			page 3


 107              		.loc 1 208 0
 108 0006 0021     		movs	r1, #0
 109 0008 4FF0FF32 		mov	r2, #-1
 110              		.loc 1 209 0
 111 000c BDE81040 		pop	{r4, lr}
 112              		.loc 1 208 0
 113 0010 FFF7FEBF 		b	chOQPutTimeout
 114              		.cfi_endproc
 115              	.LFE75:
 116              		.size	set_dac, .-set_dac
 117 0014 AFF30080 		.section	.text.set_sc_relay,"ax",%progbits
 117      AFF30080 
 117      AFF30080 
 118              		.align	2
 119              		.p2align 4,,15
 120              		.thumb
 121              		.thumb_func
 122              		.type	set_sc_relay, %function
 123              	set_sc_relay:
 124              	.LFB74:
 125              		.loc 1 200 0
 126              		.cfi_startproc
 127              		@ args = 0, pretend = 0, frame = 0
 128              		@ frame_needed = 0, uses_anonymous_args = 0
 129              		@ link register save eliminated.
 130              	.LVL6:
 131              		.loc 1 201 0
 132 0000 0078     		ldrb	r0, [r0, #0]	@ zero_extendqisi2
 133              	.LVL7:
 134              		.loc 1 202 0
 135              		.loc 1 201 0
 136 0002 FFF7FEBF 		b	setScRelay
 137              		.cfi_endproc
 138              	.LFE74:
 139              		.size	set_sc_relay, .-set_sc_relay
 140 0006 00BFAFF3 		.section	.text.set_out_relay,"ax",%progbits
 140      0080AFF3 
 140      0080
 141              		.align	2
 142              		.p2align 4,,15
 143              		.thumb
 144              		.thumb_func
 145              		.type	set_out_relay, %function
 146              	set_out_relay:
 147              	.LFB73:
 148              		.loc 1 195 0
 149              		.cfi_startproc
 150              		@ args = 0, pretend = 0, frame = 0
 151              		@ frame_needed = 0, uses_anonymous_args = 0
 152              		@ link register save eliminated.
 153              	.LVL8:
 154              		.loc 1 196 0
 155 0000 0078     		ldrb	r0, [r0, #0]	@ zero_extendqisi2
 156              	.LVL9:
 157              		.loc 1 197 0
 158              		.loc 1 196 0
 159 0002 FFF7FEBF 		b	setOutRelay
ARM GAS  /tmp/ccJOsmUH.s 			page 4


 160              		.cfi_endproc
 161              	.LFE73:
 162              		.size	set_out_relay, .-set_out_relay
 163 0006 00BFAFF3 		.section	.text.set_leds,"ax",%progbits
 163      0080AFF3 
 163      0080
 164              		.align	2
 165              		.p2align 4,,15
 166              		.thumb
 167              		.thumb_func
 168              		.type	set_leds, %function
 169              	set_leds:
 170              	.LFB72:
 171              		.loc 1 190 0
 172              		.cfi_startproc
 173              		@ args = 0, pretend = 0, frame = 0
 174              		@ frame_needed = 0, uses_anonymous_args = 0
 175              		@ link register save eliminated.
 176              	.LVL10:
 177              		.loc 1 191 0
 178 0000 0078     		ldrb	r0, [r0, #0]	@ zero_extendqisi2
 179              	.LVL11:
 180              		.loc 1 192 0
 181              		.loc 1 191 0
 182 0002 FFF7FEBF 		b	setLeds
 183              		.cfi_endproc
 184              	.LFE72:
 185              		.size	set_leds, .-set_leds
 186 0006 00BFAFF3 		.section	.text.osc_set_period,"ax",%progbits
 186      0080AFF3 
 186      0080
 187              		.align	2
 188              		.p2align 4,,15
 189              		.thumb
 190              		.thumb_func
 191              		.type	osc_set_period, %function
 192              	osc_set_period:
 193              	.LFB71:
 194              		.loc 1 179 0
 195              		.cfi_startproc
 196              		@ args = 0, pretend = 0, frame = 0
 197              		@ frame_needed = 0, uses_anonymous_args = 0
 198              		@ link register save eliminated.
 199              	.LVL12:
 200 0000 10B4     		push	{r4}
 201              	.LCFI3:
 202              		.cfi_def_cfa_offset 4
 203              		.loc 1 184 0
 204 0002 8378     		ldrb	r3, [r0, #2]	@ zero_extendqisi2
 205              		.loc 1 183 0
 206 0004 4478     		ldrb	r4, [r0, #1]	@ zero_extendqisi2
 207              		.cfi_offset 4, -4
 208              		.loc 1 184 0
 209 0006 1904     		lsls	r1, r3, #16
 210              		.loc 1 183 0
 211 0008 2402     		lsls	r4, r4, #8
 212              		.loc 1 185 0
ARM GAS  /tmp/ccJOsmUH.s 			page 5


 213 000a C378     		ldrb	r3, [r0, #3]	@ zero_extendqisi2
 214              		.loc 1 182 0
 215 000c 0278     		ldrb	r2, [r0, #0]	@ zero_extendqisi2
 216 000e 6118     		adds	r1, r4, r1
 217              		.loc 1 183 0
 218 0010 8818     		adds	r0, r1, r2
 219              	.LVL13:
 220              		.loc 1 185 0
 221 0012 1B06     		lsls	r3, r3, #24
 222              		.loc 1 186 0
 223 0014 C018     		adds	r0, r0, r3
 224              		.loc 1 187 0
 225 0016 10BC     		pop	{r4}
 226              		.loc 1 186 0
 227 0018 FFF7FEBF 		b	setOscPeriod
 228              		.cfi_endproc
 229              	.LFE71:
 230              		.size	osc_set_period, .-osc_set_period
 231 001c AFF30080 		.section	.text.writeOscQueue,"ax",%progbits
 232              		.align	2
 233              		.p2align 4,,15
 234              		.thumb
 235              		.thumb_func
 236              		.type	writeOscQueue, %function
 237              	writeOscQueue:
 238              	.LFB67:
 239              		.loc 1 139 0
 240              		.cfi_startproc
 241              		@ args = 0, pretend = 0, frame = 0
 242              		@ frame_needed = 0, uses_anonymous_args = 0
 243              	.LVL14:
 244 0000 2DE9F047 		push	{r4, r5, r6, r7, r8, r9, sl, lr}
 245              	.LCFI4:
 246              		.cfi_def_cfa_offset 32
 247              	.LBB17:
 248              		.loc 1 143 0
 249 0004 2023     		movs	r3, #32
 250              	.LVL15:
 251              	.LBE17:
 252              		.loc 1 139 0
 253 0006 0446     		mov	r4, r0
 254              		.cfi_offset 14, -4
 255              		.cfi_offset 10, -8
 256              		.cfi_offset 9, -12
 257              		.cfi_offset 8, -16
 258              		.cfi_offset 7, -20
 259              		.cfi_offset 6, -24
 260              		.cfi_offset 5, -28
 261              		.cfi_offset 4, -32
 262              	.LBB18:
 263              		.loc 1 143 0
 264              	@ 143 "./src/cpu_io.c" 1
 265 0008 83F31188 		msr     BASEPRI, r3
 266              	@ 0 "" 2
 267              	.LVL16:
 268              		.thumb
 269              	.LBE18:
ARM GAS  /tmp/ccJOsmUH.s 			page 6


 270 000c FFF7FEFF 		bl	dbg_check_lock
 271              	.LVL17:
 272              		.loc 1 144 0
 273 0010 A568     		ldr	r5, [r4, #8]
 274              		.loc 1 145 0
 275 0012 FFF7FEFF 		bl	dbg_check_unlock
 276              		.loc 1 144 0
 277 0016 25F00105 		bic	r5, r5, #1
 278              	.LVL18:
 279              	.LBB19:
 280              		.loc 1 145 0
 281 001a 0023     		movs	r3, #0
 282              	.LVL19:
 283              	@ 145 "./src/cpu_io.c" 1
 284 001c 83F31188 		msr     BASEPRI, r3
 285              	@ 0 "" 2
 286              	.LVL20:
 287              		.thumb
 288              	.LBE19:
 289              		.loc 1 146 0
 290 0020 002D     		cmp	r5, #0
 291 0022 58D0     		beq	.L9
 292              	.LBB20:
 293              		.loc 1 148 0
 294 0024 1946     		mov	r1, r3
 295 0026 2046     		mov	r0, r4
 296              	.LBE20:
 297              		.loc 1 146 0
 298 0028 1E46     		mov	r6, r3
 299              	.LBB37:
 300              		.loc 1 148 0
 301 002a FFF7FEFF 		bl	chIQGetTimeout
 302              	.LVL21:
 303              		.loc 1 149 0
 304 002e 831C     		adds	r3, r0, #2
 305 0030 4FF0FF37 		mov	r7, #-1
 306              		.loc 1 151 0
 307 0034 012B     		cmp	r3, #1
 308 0036 07F00108 		and	r8, r7, #1
 309 003a 6FD9     		bls	.L30
 310 003c 5FFA80F9 		uxtb	r9, r0
 311              	.LBB24:
 312              	.LBB28:
 313              		.loc 1 231 0
 314 0040 4946     		mov	r1, r9
 315 0042 3C48     		ldr	r0, .L33
 316              	.LVL22:
 317 0044 3A46     		mov	r2, r7
 318 0046 FFF7FEFF 		bl	chOQPutTimeout
 319              	.LVL23:
 320              		.loc 1 232 0
 321 004a B9F15C0F 		cmp	r9, #92
 322 004e 6BD0     		beq	.L31
 323              	.L15:
 324              	.LBE28:
 325              	.LBE24:
 326              	.LBE37:
ARM GAS  /tmp/ccJOsmUH.s 			page 7


 327              		.loc 1 146 0
 328 0050 0136     		adds	r6, r6, #1
 329              	.LVL24:
 330 0052 AE42     		cmp	r6, r5
 331 0054 3FD0     		beq	.L9
 332 0056 B8F1000F 		cmp	r8, #0
 333 005a 12D0     		beq	.L12
 334              	.LBB38:
 335              		.loc 1 148 0
 336 005c 0021     		movs	r1, #0
 337 005e 2046     		mov	r0, r4
 338 0060 FFF7FEFF 		bl	chIQGetTimeout
 339              		.loc 1 149 0
 340 0064 811C     		adds	r1, r0, #2
 341              		.loc 1 151 0
 342 0066 0129     		cmp	r1, #1
 343 0068 43D9     		bls	.L21
 344 006a C7B2     		uxtb	r7, r0
 345              	.LBB33:
 346              	.LBB29:
 347              		.loc 1 231 0
 348 006c 3946     		mov	r1, r7
 349 006e 3148     		ldr	r0, .L33
 350 0070 4FF0FF32 		mov	r2, #-1
 351 0074 FFF7FEFF 		bl	chOQPutTimeout
 352              		.loc 1 232 0
 353 0078 5C2F     		cmp	r7, #92
 354 007a 23D0     		beq	.L28
 355              	.L22:
 356              	.LBE29:
 357              	.LBE33:
 358              	.LBE38:
 359              		.loc 1 146 0
 360 007c 0136     		adds	r6, r6, #1
 361 007e AE42     		cmp	r6, r5
 362 0080 29D0     		beq	.L9
 363              	.L12:
 364              	.LBB39:
 365              		.loc 1 148 0
 366 0082 0021     		movs	r1, #0
 367 0084 2046     		mov	r0, r4
 368 0086 FFF7FEFF 		bl	chIQGetTimeout
 369              		.loc 1 149 0
 370 008a 831C     		adds	r3, r0, #2
 371              		.loc 1 151 0
 372 008c C7B2     		uxtb	r7, r0
 373 008e 012B     		cmp	r3, #1
 374              	.LBB23:
 375              	.LBB27:
 376              		.loc 1 231 0
 377 0090 4FF0FF32 		mov	r2, #-1
 378 0094 3946     		mov	r1, r7
 379 0096 2748     		ldr	r0, .L33
 380              	.LBE27:
 381              	.LBE23:
 382              		.loc 1 151 0
 383 0098 32D9     		bls	.L10
ARM GAS  /tmp/ccJOsmUH.s 			page 8


 384              	.LVL25:
 385              	.LBB22:
 386              	.LBB30:
 387              		.loc 1 231 0 discriminator 1
 388 009a FFF7FEFF 		bl	chOQPutTimeout
 389              		.loc 1 232 0 discriminator 1
 390 009e 5C2F     		cmp	r7, #92
 391 00a0 35D0     		beq	.L32
 392              	.LVL26:
 393              	.L11:
 394              	.LBE30:
 395              	.LBE22:
 396              		.loc 1 148 0 discriminator 3
 397 00a2 0021     		movs	r1, #0
 398 00a4 2046     		mov	r0, r4
 399 00a6 FFF7FEFF 		bl	chIQGetTimeout
 400              		.loc 1 149 0 discriminator 3
 401 00aa 831C     		adds	r3, r0, #2
 402              		.loc 1 151 0 discriminator 3
 403 00ac C7B2     		uxtb	r7, r0
 404              	.LBE39:
 405              		.loc 1 146 0 discriminator 3
 406 00ae 0136     		adds	r6, r6, #1
 407              	.LBB40:
 408              		.loc 1 151 0 discriminator 3
 409 00b0 012B     		cmp	r3, #1
 410              	.LBB34:
 411              	.LBB26:
 412              		.loc 1 231 0 discriminator 3
 413 00b2 3946     		mov	r1, r7
 414 00b4 4FF0FF32 		mov	r2, #-1
 415 00b8 1E48     		ldr	r0, .L33
 416              	.LBE26:
 417              	.LBE34:
 418              		.loc 1 151 0 discriminator 3
 419 00ba 1AD9     		bls	.L21
 420              	.LBB35:
 421              	.LBB31:
 422              		.loc 1 231 0
 423 00bc FFF7FEFF 		bl	chOQPutTimeout
 424              		.loc 1 232 0
 425 00c0 5C2F     		cmp	r7, #92
 426 00c2 DBD1     		bne	.L22
 427              	.L28:
 428              		.loc 1 233 0
 429 00c4 1B48     		ldr	r0, .L33
 430 00c6 3946     		mov	r1, r7
 431 00c8 4FF0FF32 		mov	r2, #-1
 432              	.LBE31:
 433              	.LBE35:
 434              	.LBE40:
 435              		.loc 1 146 0
 436 00cc 0136     		adds	r6, r6, #1
 437              	.LBB41:
 438              	.LBB21:
 439              	.LBB25:
 440              		.loc 1 233 0
ARM GAS  /tmp/ccJOsmUH.s 			page 9


 441 00ce FFF7FEFF 		bl	chOQPutTimeout
 442              	.LBE25:
 443              	.LBE21:
 444              	.LBE41:
 445              		.loc 1 146 0
 446 00d2 AE42     		cmp	r6, r5
 447 00d4 D5D1     		bne	.L12
 448              	.LVL27:
 449              	.L9:
 450              	.LBB42:
 451              	.LBB43:
 452              		.loc 1 238 0
 453 00d6 5C21     		movs	r1, #92
 454 00d8 4FF0FF32 		mov	r2, #-1
 455 00dc 1548     		ldr	r0, .L33
 456 00de FFF7FEFF 		bl	chOQPutTimeout
 457              	.LVL28:
 458              		.loc 1 239 0
 459 00e2 1448     		ldr	r0, .L33
 460 00e4 0021     		movs	r1, #0
 461 00e6 4FF0FF32 		mov	r2, #-1
 462              	.LBE43:
 463              	.LBE42:
 464              		.loc 1 155 0
 465 00ea BDE8F047 		pop	{r4, r5, r6, r7, r8, r9, sl, lr}
 466              	.LBB45:
 467              	.LBB44:
 468              		.loc 1 239 0
 469 00ee FFF7FEBF 		b	chOQPutTimeout
 470              	.L21:
 471              	.LVL29:
 472              	.LBE44:
 473              	.LBE45:
 474              	.LBB46:
 475              	.LBB36:
 476              	.LBB32:
 477              		.loc 1 231 0
 478 00f2 0021     		movs	r1, #0
 479 00f4 4FF0FF32 		mov	r2, #-1
 480 00f8 0E48     		ldr	r0, .L33
 481 00fa FFF7FEFF 		bl	chOQPutTimeout
 482 00fe BDE7     		b	.L22
 483              	.LVL30:
 484              	.L10:
 485 0100 0021     		movs	r1, #0
 486 0102 4FF0FF32 		mov	r2, #-1
 487 0106 0B48     		ldr	r0, .L33
 488 0108 FFF7FEFF 		bl	chOQPutTimeout
 489 010c C9E7     		b	.L11
 490              	.LVL31:
 491              	.L32:
 492              		.loc 1 233 0
 493 010e 4FF0FF32 		mov	r2, #-1
 494 0112 3946     		mov	r1, r7
 495 0114 0748     		ldr	r0, .L33
 496 0116 FFF7FEFF 		bl	chOQPutTimeout
 497 011a C2E7     		b	.L11
ARM GAS  /tmp/ccJOsmUH.s 			page 10


 498              	.LVL32:
 499              	.L30:
 500              		.loc 1 231 0
 501 011c 3146     		mov	r1, r6
 502 011e 3A46     		mov	r2, r7
 503 0120 0448     		ldr	r0, .L33
 504              	.LVL33:
 505 0122 FFF7FEFF 		bl	chOQPutTimeout
 506              	.LVL34:
 507 0126 93E7     		b	.L15
 508              	.LVL35:
 509              	.L31:
 510              		.loc 1 233 0
 511 0128 4946     		mov	r1, r9
 512 012a 3A46     		mov	r2, r7
 513 012c 0148     		ldr	r0, .L33
 514 012e FFF7FEFF 		bl	chOQPutTimeout
 515 0132 8DE7     		b	.L15
 516              	.L34:
 517              		.align	2
 518              	.L33:
 519 0134 30000000 		.word	SD1+48
 520              	.LBE32:
 521              	.LBE36:
 522              	.LBE46:
 523              		.cfi_endproc
 524              	.LFE67:
 525              		.size	writeOscQueue, .-writeOscQueue
 526 0138 AFF30080 		.section	.text.osc_iaux,"ax",%progbits
 526      AFF30080 
 527              		.align	2
 528              		.p2align 4,,15
 529              		.thumb
 530              		.thumb_func
 531              		.type	osc_iaux, %function
 532              	osc_iaux:
 533              	.LFB70:
 534              		.loc 1 172 0
 535              		.cfi_startproc
 536              		@ args = 0, pretend = 0, frame = 0
 537              		@ frame_needed = 0, uses_anonymous_args = 0
 538              	.LVL36:
 539 0000 10B5     		push	{r4, lr}
 540              	.LCFI5:
 541              		.cfi_def_cfa_offset 8
 542              		.loc 1 174 0
 543              		.cfi_offset 14, -4
 544              		.cfi_offset 4, -8
 545 0002 FFF7FEFF 		bl	iauxQueue
 546              	.LVL37:
 547              		.loc 1 176 0
 548 0006 BDE81040 		pop	{r4, lr}
 549              		.loc 1 175 0
 550 000a FFF7FEBF 		b	writeOscQueue
 551              		.cfi_endproc
 552              	.LFE70:
 553              		.size	osc_iaux, .-osc_iaux
ARM GAS  /tmp/ccJOsmUH.s 			page 11


 554 000e 00BF     		.section	.text.osc_eref,"ax",%progbits
 555              		.align	2
 556              		.p2align 4,,15
 557              		.thumb
 558              		.thumb_func
 559              		.type	osc_eref, %function
 560              	osc_eref:
 561              	.LFB69:
 562              		.loc 1 165 0
 563              		.cfi_startproc
 564              		@ args = 0, pretend = 0, frame = 0
 565              		@ frame_needed = 0, uses_anonymous_args = 0
 566              	.LVL38:
 567 0000 10B5     		push	{r4, lr}
 568              	.LCFI6:
 569              		.cfi_def_cfa_offset 8
 570              		.loc 1 167 0
 571              		.cfi_offset 14, -4
 572              		.cfi_offset 4, -8
 573 0002 FFF7FEFF 		bl	erefQueue
 574              	.LVL39:
 575              		.loc 1 169 0
 576 0006 BDE81040 		pop	{r4, lr}
 577              		.loc 1 168 0
 578 000a FFF7FEBF 		b	writeOscQueue
 579              		.cfi_endproc
 580              	.LFE69:
 581              		.size	osc_eref, .-osc_eref
 582 000e 00BF     		.section	.text.osc_eaux,"ax",%progbits
 583              		.align	2
 584              		.p2align 4,,15
 585              		.thumb
 586              		.thumb_func
 587              		.type	osc_eaux, %function
 588              	osc_eaux:
 589              	.LFB68:
 590              		.loc 1 158 0
 591              		.cfi_startproc
 592              		@ args = 0, pretend = 0, frame = 0
 593              		@ frame_needed = 0, uses_anonymous_args = 0
 594              	.LVL40:
 595 0000 10B5     		push	{r4, lr}
 596              	.LCFI7:
 597              		.cfi_def_cfa_offset 8
 598              		.loc 1 160 0
 599              		.cfi_offset 14, -4
 600              		.cfi_offset 4, -8
 601 0002 FFF7FEFF 		bl	eauxQueue
 602              	.LVL41:
 603              		.loc 1 162 0
 604 0006 BDE81040 		pop	{r4, lr}
 605              		.loc 1 161 0
 606 000a FFF7FEBF 		b	writeOscQueue
 607              		.cfi_endproc
 608              	.LFE68:
 609              		.size	osc_eaux, .-osc_eaux
 610 000e 00BF     		.section	.text.cpu_io_init,"ax",%progbits
ARM GAS  /tmp/ccJOsmUH.s 			page 12


 611              		.align	2
 612              		.p2align 4,,15
 613              		.global	cpu_io_init
 614              		.thumb
 615              		.thumb_func
 616              		.type	cpu_io_init, %function
 617              	cpu_io_init:
 618              	.LFB62:
 619              		.loc 1 31 0
 620              		.cfi_startproc
 621              		@ args = 0, pretend = 0, frame = 0
 622              		@ frame_needed = 0, uses_anonymous_args = 0
 623              		@ link register save eliminated.
 624              		.loc 1 33 0
 625 0000 0148     		ldr	r0, .L39
 626 0002 0021     		movs	r1, #0
 627              		.loc 1 34 0
 628              		.loc 1 33 0
 629 0004 FFF7FEBF 		b	sdStart
 630              	.L40:
 631              		.align	2
 632              	.L39:
 633 0008 00000000 		.word	SD1
 634              		.cfi_endproc
 635              	.LFE62:
 636              		.size	cpu_io_init, .-cpu_io_init
 637 000c AFF30080 		.section	.text.cpu_io_process,"ax",%progbits
 638              		.align	2
 639              		.p2align 4,,15
 640              		.global	cpu_io_process
 641              		.thumb
 642              		.thumb_func
 643              		.type	cpu_io_process, %function
 644              	cpu_io_process:
 645              	.LFB63:
 646              		.loc 1 37 0
 647              		.cfi_startproc
 648              		@ args = 0, pretend = 0, frame = 0
 649              		@ frame_needed = 0, uses_anonymous_args = 0
 650 0000 10B5     		push	{r4, lr}
 651              	.LCFI8:
 652              		.cfi_def_cfa_offset 8
 653 0002 0A4C     		ldr	r4, .L48
 654              		.cfi_offset 14, -4
 655              		.cfi_offset 4, -8
 656              	.L46:
 657              	.LVL42:
 658              	.LBB47:
 659              		.loc 1 47 0
 660 0004 0021     		movs	r1, #0
 661 0006 0A48     		ldr	r0, .L48+4
 662 0008 FFF7FEFF 		bl	chIQGetTimeout
 663              	.LVL43:
 664              		.loc 1 48 0
 665 000c 831C     		adds	r3, r0, #2
 666              		.loc 1 49 0
 667 000e 012B     		cmp	r3, #1
ARM GAS  /tmp/ccJOsmUH.s 			page 13


 668              	.LBB48:
 669              		.loc 1 51 0
 670 0010 C0B2     		uxtb	r0, r0
 671              	.LVL44:
 672              	.LBE48:
 673              		.loc 1 49 0
 674 0012 F7D9     		bls	.L46
 675              	.LVL45:
 676              	.L47:
 677              	.LBB49:
 678              		.loc 1 55 0
 679 0014 5C28     		cmp	r0, #92
 680 0016 F5D0     		beq	.L46
 681              		.loc 1 56 0
 682 0018 2070     		strb	r0, [r4, #0]
 683              	.LVL46:
 684              	.LBE49:
 685              		.loc 1 47 0
 686 001a 0021     		movs	r1, #0
 687 001c 0448     		ldr	r0, .L48+4
 688              	.LVL47:
 689 001e FFF7FEFF 		bl	chIQGetTimeout
 690              	.LVL48:
 691              		.loc 1 48 0
 692 0022 831C     		adds	r3, r0, #2
 693              		.loc 1 49 0
 694 0024 012B     		cmp	r3, #1
 695              	.LBB50:
 696              		.loc 1 51 0
 697 0026 C0B2     		uxtb	r0, r0
 698              	.LVL49:
 699              	.LBE50:
 700              		.loc 1 49 0
 701 0028 F4D8     		bhi	.L47
 702 002a EBE7     		b	.L46
 703              	.L49:
 704              		.align	2
 705              	.L48:
 706 002c 00000000 		.word	.LANCHOR0
 707 0030 10000000 		.word	SD1+16
 708              	.LBE47:
 709              		.cfi_endproc
 710              	.LFE63:
 711              		.size	cpu_io_process, .-cpu_io_process
 712 0034 AFF30080 		.section	.text.funcArgs,"ax",%progbits
 712      AFF30080 
 712      AFF30080 
 713              		.align	2
 714              		.p2align 4,,15
 715              		.global	funcArgs
 716              		.thumb
 717              		.thumb_func
 718              		.type	funcArgs, %function
 719              	funcArgs:
 720              	.LFB64:
 721              		.loc 1 79 0
 722              		.cfi_startproc
ARM GAS  /tmp/ccJOsmUH.s 			page 14


 723              		@ args = 0, pretend = 0, frame = 0
 724              		@ frame_needed = 0, uses_anonymous_args = 0
 725              		@ link register save eliminated.
 726              		.loc 1 81 0
 727 0000 0048     		ldr	r0, .L51
 728 0002 7047     		bx	lr
 729              	.L52:
 730              		.align	2
 731              	.L51:
 732 0004 00000000 		.word	.LANCHOR1
 733              		.cfi_endproc
 734              	.LFE64:
 735              		.size	funcArgs, .-funcArgs
 736 0008 AFF30080 		.section	.bss.buffer,"aw",%nobits
 736      AFF30080 
 737              		.align	2
 738              		.set	.LANCHOR0,. + 0
 739              		.type	buffer, %object
 740              		.size	buffer, 32
 741              	buffer:
 742 0000 00000000 		.space	32
 742      00000000 
 742      00000000 
 742      00000000 
 742      00000000 
 743              		.section	.bss.args,"aw",%nobits
 744              		.align	2
 745              		.set	.LANCHOR1,. + 0
 746              		.type	args, %object
 747              		.size	args, 32
 748              	args:
 749 0000 00000000 		.space	32
 749      00000000 
 749      00000000 
 749      00000000 
 749      00000000 
 750              		.text
 751              	.Letext0:
 752              		.section	.debug_loc,"",%progbits
 753              	.Ldebug_loc0:
 754              	.LLST0:
 755 0000 00000000 		.4byte	.LFB77
 756 0004 02000000 		.4byte	.LCFI0
 757 0008 0200     		.2byte	0x2
 758 000a 7D       		.byte	0x7d
 759 000b 00       		.sleb128 0
 760 000c 02000000 		.4byte	.LCFI0
 761 0010 14000000 		.4byte	.LFE77
 762 0014 0200     		.2byte	0x2
 763 0016 7D       		.byte	0x7d
 764 0017 08       		.sleb128 8
 765 0018 00000000 		.4byte	0x0
 766 001c 00000000 		.4byte	0x0
 767              	.LLST1:
 768 0020 00000000 		.4byte	.LVL0
 769 0024 05000000 		.4byte	.LVL1-1
 770 0028 0100     		.2byte	0x1
ARM GAS  /tmp/ccJOsmUH.s 			page 15


 771 002a 50       		.byte	0x50
 772 002b 00000000 		.4byte	0x0
 773 002f 00000000 		.4byte	0x0
 774              	.LLST2:
 775 0033 00000000 		.4byte	.LFB76
 776 0037 02000000 		.4byte	.LCFI1
 777 003b 0200     		.2byte	0x2
 778 003d 7D       		.byte	0x7d
 779 003e 00       		.sleb128 0
 780 003f 02000000 		.4byte	.LCFI1
 781 0043 14000000 		.4byte	.LFE76
 782 0047 0200     		.2byte	0x2
 783 0049 7D       		.byte	0x7d
 784 004a 08       		.sleb128 8
 785 004b 00000000 		.4byte	0x0
 786 004f 00000000 		.4byte	0x0
 787              	.LLST3:
 788 0053 00000000 		.4byte	.LVL2
 789 0057 05000000 		.4byte	.LVL3-1
 790 005b 0100     		.2byte	0x1
 791 005d 50       		.byte	0x50
 792 005e 00000000 		.4byte	0x0
 793 0062 00000000 		.4byte	0x0
 794              	.LLST4:
 795 0066 00000000 		.4byte	.LFB75
 796 006a 02000000 		.4byte	.LCFI2
 797 006e 0200     		.2byte	0x2
 798 0070 7D       		.byte	0x7d
 799 0071 00       		.sleb128 0
 800 0072 02000000 		.4byte	.LCFI2
 801 0076 14000000 		.4byte	.LFE75
 802 007a 0200     		.2byte	0x2
 803 007c 7D       		.byte	0x7d
 804 007d 08       		.sleb128 8
 805 007e 00000000 		.4byte	0x0
 806 0082 00000000 		.4byte	0x0
 807              	.LLST5:
 808 0086 00000000 		.4byte	.LVL4
 809 008a 05000000 		.4byte	.LVL5-1
 810 008e 0100     		.2byte	0x1
 811 0090 50       		.byte	0x50
 812 0091 00000000 		.4byte	0x0
 813 0095 00000000 		.4byte	0x0
 814              	.LLST6:
 815 0099 00000000 		.4byte	.LVL6
 816 009d 02000000 		.4byte	.LVL7
 817 00a1 0100     		.2byte	0x1
 818 00a3 50       		.byte	0x50
 819 00a4 00000000 		.4byte	0x0
 820 00a8 00000000 		.4byte	0x0
 821              	.LLST7:
 822 00ac 00000000 		.4byte	.LVL8
 823 00b0 02000000 		.4byte	.LVL9
 824 00b4 0100     		.2byte	0x1
 825 00b6 50       		.byte	0x50
 826 00b7 00000000 		.4byte	0x0
 827 00bb 00000000 		.4byte	0x0
ARM GAS  /tmp/ccJOsmUH.s 			page 16


 828              	.LLST8:
 829 00bf 00000000 		.4byte	.LVL10
 830 00c3 02000000 		.4byte	.LVL11
 831 00c7 0100     		.2byte	0x1
 832 00c9 50       		.byte	0x50
 833 00ca 00000000 		.4byte	0x0
 834 00ce 00000000 		.4byte	0x0
 835              	.LLST9:
 836 00d2 00000000 		.4byte	.LFB71
 837 00d6 02000000 		.4byte	.LCFI3
 838 00da 0200     		.2byte	0x2
 839 00dc 7D       		.byte	0x7d
 840 00dd 00       		.sleb128 0
 841 00de 02000000 		.4byte	.LCFI3
 842 00e2 1C000000 		.4byte	.LFE71
 843 00e6 0200     		.2byte	0x2
 844 00e8 7D       		.byte	0x7d
 845 00e9 04       		.sleb128 4
 846 00ea 00000000 		.4byte	0x0
 847 00ee 00000000 		.4byte	0x0
 848              	.LLST10:
 849 00f2 00000000 		.4byte	.LVL12
 850 00f6 12000000 		.4byte	.LVL13
 851 00fa 0100     		.2byte	0x1
 852 00fc 50       		.byte	0x50
 853 00fd 00000000 		.4byte	0x0
 854 0101 00000000 		.4byte	0x0
 855              	.LLST11:
 856 0105 00000000 		.4byte	.LFB67
 857 0109 04000000 		.4byte	.LCFI4
 858 010d 0200     		.2byte	0x2
 859 010f 7D       		.byte	0x7d
 860 0110 00       		.sleb128 0
 861 0111 04000000 		.4byte	.LCFI4
 862 0115 38010000 		.4byte	.LFE67
 863 0119 0200     		.2byte	0x2
 864 011b 7D       		.byte	0x7d
 865 011c 20       		.sleb128 32
 866 011d 00000000 		.4byte	0x0
 867 0121 00000000 		.4byte	0x0
 868              	.LLST12:
 869 0125 00000000 		.4byte	.LVL14
 870 0129 0F000000 		.4byte	.LVL17-1
 871 012d 0100     		.2byte	0x1
 872 012f 50       		.byte	0x50
 873 0130 0F000000 		.4byte	.LVL17-1
 874 0134 38010000 		.4byte	.LFE67
 875 0138 0100     		.2byte	0x1
 876 013a 54       		.byte	0x54
 877 013b 00000000 		.4byte	0x0
 878 013f 00000000 		.4byte	0x0
 879              	.LLST13:
 880 0143 2E000000 		.4byte	.LVL21
 881 0147 44000000 		.4byte	.LVL22
 882 014b 0100     		.2byte	0x1
 883 014d 50       		.byte	0x50
 884 014e 44000000 		.4byte	.LVL22
ARM GAS  /tmp/ccJOsmUH.s 			page 17


 885 0152 49000000 		.4byte	.LVL23-1
 886 0156 0300     		.2byte	0x3
 887 0158 73       		.byte	0x73
 888 0159 7E       		.sleb128 -2
 889 015a 9F       		.byte	0x9f
 890 015b 1C010000 		.4byte	.LVL32
 891 015f 22010000 		.4byte	.LVL33
 892 0163 0100     		.2byte	0x1
 893 0165 50       		.byte	0x50
 894 0166 22010000 		.4byte	.LVL33
 895 016a 25010000 		.4byte	.LVL34-1
 896 016e 0300     		.2byte	0x3
 897 0170 73       		.byte	0x73
 898 0171 7E       		.sleb128 -2
 899 0172 9F       		.byte	0x9f
 900 0173 00000000 		.4byte	0x0
 901 0177 00000000 		.4byte	0x0
 902              	.LLST14:
 903 017b 2E000000 		.4byte	.LVL21
 904 017f 44000000 		.4byte	.LVL22
 905 0183 0F00     		.2byte	0xf
 906 0185 70       		.byte	0x70
 907 0186 02       		.sleb128 2
 908 0187 23       		.byte	0x23
 909 0188 80808080 		.uleb128 0x80000000
 909      08
 910 018d 0C       		.byte	0xc
 911 018e 01000080 		.4byte	0x80000001
 912 0192 2C       		.byte	0x2c
 913 0193 9F       		.byte	0x9f
 914 0194 44000000 		.4byte	.LVL22
 915 0198 49000000 		.4byte	.LVL23-1
 916 019c 0F00     		.2byte	0xf
 917 019e 73       		.byte	0x73
 918 019f 00       		.sleb128 0
 919 01a0 23       		.byte	0x23
 920 01a1 80808080 		.uleb128 0x80000000
 920      08
 921 01a6 0C       		.byte	0xc
 922 01a7 01000080 		.4byte	0x80000001
 923 01ab 2C       		.byte	0x2c
 924 01ac 9F       		.byte	0x9f
 925 01ad 1C010000 		.4byte	.LVL32
 926 01b1 22010000 		.4byte	.LVL33
 927 01b5 0F00     		.2byte	0xf
 928 01b7 70       		.byte	0x70
 929 01b8 02       		.sleb128 2
 930 01b9 23       		.byte	0x23
 931 01ba 80808080 		.uleb128 0x80000000
 931      08
 932 01bf 0C       		.byte	0xc
 933 01c0 01000080 		.4byte	0x80000001
 934 01c4 2C       		.byte	0x2c
 935 01c5 9F       		.byte	0x9f
 936 01c6 22010000 		.4byte	.LVL33
 937 01ca 25010000 		.4byte	.LVL34-1
 938 01ce 0F00     		.2byte	0xf
ARM GAS  /tmp/ccJOsmUH.s 			page 18


 939 01d0 73       		.byte	0x73
 940 01d1 00       		.sleb128 0
 941 01d2 23       		.byte	0x23
 942 01d3 80808080 		.uleb128 0x80000000
 942      08
 943 01d8 0C       		.byte	0xc
 944 01d9 01000080 		.4byte	0x80000001
 945 01dd 2C       		.byte	0x2c
 946 01de 9F       		.byte	0x9f
 947 01df 00000000 		.4byte	0x0
 948 01e3 00000000 		.4byte	0x0
 949              	.LLST15:
 950 01e7 20000000 		.4byte	.LVL20
 951 01eb 52000000 		.4byte	.LVL24
 952 01ef 0200     		.2byte	0x2
 953 01f1 30       		.byte	0x30
 954 01f2 9F       		.byte	0x9f
 955 01f3 1C010000 		.4byte	.LVL32
 956 01f7 38010000 		.4byte	.LFE67
 957 01fb 0200     		.2byte	0x2
 958 01fd 30       		.byte	0x30
 959 01fe 9F       		.byte	0x9f
 960 01ff 00000000 		.4byte	0x0
 961 0203 00000000 		.4byte	0x0
 962              	.LLST16:
 963 0207 0C000000 		.4byte	.LVL16
 964 020b 0F000000 		.4byte	.LVL17-1
 965 020f 0100     		.2byte	0x1
 966 0211 53       		.byte	0x53
 967 0212 00000000 		.4byte	0x0
 968 0216 00000000 		.4byte	0x0
 969              	.LLST17:
 970 021a 20000000 		.4byte	.LVL20
 971 021e 2D000000 		.4byte	.LVL21-1
 972 0222 0100     		.2byte	0x1
 973 0224 53       		.byte	0x53
 974 0225 D6000000 		.4byte	.LVL27
 975 0229 E1000000 		.4byte	.LVL28-1
 976 022d 0100     		.2byte	0x1
 977 022f 53       		.byte	0x53
 978 0230 00000000 		.4byte	0x0
 979 0234 00000000 		.4byte	0x0
 980              	.LLST18:
 981 0238 9A000000 		.4byte	.LVL25
 982 023c A2000000 		.4byte	.LVL26
 983 0240 0100     		.2byte	0x1
 984 0242 57       		.byte	0x57
 985 0243 F2000000 		.4byte	.LVL29
 986 0247 00010000 		.4byte	.LVL30
 987 024b 0200     		.2byte	0x2
 988 024d 30       		.byte	0x30
 989 024e 9F       		.byte	0x9f
 990 024f 00010000 		.4byte	.LVL30
 991 0253 0E010000 		.4byte	.LVL31
 992 0257 0200     		.2byte	0x2
 993 0259 30       		.byte	0x30
 994 025a 9F       		.byte	0x9f
ARM GAS  /tmp/ccJOsmUH.s 			page 19


 995 025b 0E010000 		.4byte	.LVL31
 996 025f 1C010000 		.4byte	.LVL32
 997 0263 0100     		.2byte	0x1
 998 0265 57       		.byte	0x57
 999 0266 1C010000 		.4byte	.LVL32
 1000 026a 28010000 		.4byte	.LVL35
 1001 026e 0200     		.2byte	0x2
 1002 0270 30       		.byte	0x30
 1003 0271 9F       		.byte	0x9f
 1004 0272 00000000 		.4byte	0x0
 1005 0276 00000000 		.4byte	0x0
 1006              	.LLST19:
 1007 027a 9A000000 		.4byte	.LVL25
 1008 027e A2000000 		.4byte	.LVL26
 1009 0282 0100     		.2byte	0x1
 1010 0284 57       		.byte	0x57
 1011 0285 F2000000 		.4byte	.LVL29
 1012 0289 00010000 		.4byte	.LVL30
 1013 028d 0200     		.2byte	0x2
 1014 028f 30       		.byte	0x30
 1015 0290 9F       		.byte	0x9f
 1016 0291 00010000 		.4byte	.LVL30
 1017 0295 0E010000 		.4byte	.LVL31
 1018 0299 0200     		.2byte	0x2
 1019 029b 30       		.byte	0x30
 1020 029c 9F       		.byte	0x9f
 1021 029d 0E010000 		.4byte	.LVL31
 1022 02a1 1C010000 		.4byte	.LVL32
 1023 02a5 0100     		.2byte	0x1
 1024 02a7 57       		.byte	0x57
 1025 02a8 1C010000 		.4byte	.LVL32
 1026 02ac 28010000 		.4byte	.LVL35
 1027 02b0 0200     		.2byte	0x2
 1028 02b2 30       		.byte	0x30
 1029 02b3 9F       		.byte	0x9f
 1030 02b4 00000000 		.4byte	0x0
 1031 02b8 00000000 		.4byte	0x0
 1032              	.LLST20:
 1033 02bc 00000000 		.4byte	.LFB70
 1034 02c0 02000000 		.4byte	.LCFI5
 1035 02c4 0200     		.2byte	0x2
 1036 02c6 7D       		.byte	0x7d
 1037 02c7 00       		.sleb128 0
 1038 02c8 02000000 		.4byte	.LCFI5
 1039 02cc 0E000000 		.4byte	.LFE70
 1040 02d0 0200     		.2byte	0x2
 1041 02d2 7D       		.byte	0x7d
 1042 02d3 08       		.sleb128 8
 1043 02d4 00000000 		.4byte	0x0
 1044 02d8 00000000 		.4byte	0x0
 1045              	.LLST21:
 1046 02dc 00000000 		.4byte	.LVL36
 1047 02e0 05000000 		.4byte	.LVL37-1
 1048 02e4 0100     		.2byte	0x1
 1049 02e6 50       		.byte	0x50
 1050 02e7 00000000 		.4byte	0x0
 1051 02eb 00000000 		.4byte	0x0
ARM GAS  /tmp/ccJOsmUH.s 			page 20


 1052              	.LLST22:
 1053 02ef 00000000 		.4byte	.LFB69
 1054 02f3 02000000 		.4byte	.LCFI6
 1055 02f7 0200     		.2byte	0x2
 1056 02f9 7D       		.byte	0x7d
 1057 02fa 00       		.sleb128 0
 1058 02fb 02000000 		.4byte	.LCFI6
 1059 02ff 0E000000 		.4byte	.LFE69
 1060 0303 0200     		.2byte	0x2
 1061 0305 7D       		.byte	0x7d
 1062 0306 08       		.sleb128 8
 1063 0307 00000000 		.4byte	0x0
 1064 030b 00000000 		.4byte	0x0
 1065              	.LLST23:
 1066 030f 00000000 		.4byte	.LVL38
 1067 0313 05000000 		.4byte	.LVL39-1
 1068 0317 0100     		.2byte	0x1
 1069 0319 50       		.byte	0x50
 1070 031a 00000000 		.4byte	0x0
 1071 031e 00000000 		.4byte	0x0
 1072              	.LLST24:
 1073 0322 00000000 		.4byte	.LFB68
 1074 0326 02000000 		.4byte	.LCFI7
 1075 032a 0200     		.2byte	0x2
 1076 032c 7D       		.byte	0x7d
 1077 032d 00       		.sleb128 0
 1078 032e 02000000 		.4byte	.LCFI7
 1079 0332 0E000000 		.4byte	.LFE68
 1080 0336 0200     		.2byte	0x2
 1081 0338 7D       		.byte	0x7d
 1082 0339 08       		.sleb128 8
 1083 033a 00000000 		.4byte	0x0
 1084 033e 00000000 		.4byte	0x0
 1085              	.LLST25:
 1086 0342 00000000 		.4byte	.LVL40
 1087 0346 05000000 		.4byte	.LVL41-1
 1088 034a 0100     		.2byte	0x1
 1089 034c 50       		.byte	0x50
 1090 034d 00000000 		.4byte	0x0
 1091 0351 00000000 		.4byte	0x0
 1092              	.LLST26:
 1093 0355 00000000 		.4byte	.LFB63
 1094 0359 02000000 		.4byte	.LCFI8
 1095 035d 0200     		.2byte	0x2
 1096 035f 7D       		.byte	0x7d
 1097 0360 00       		.sleb128 0
 1098 0361 02000000 		.4byte	.LCFI8
 1099 0365 34000000 		.4byte	.LFE63
 1100 0369 0200     		.2byte	0x2
 1101 036b 7D       		.byte	0x7d
 1102 036c 08       		.sleb128 8
 1103 036d 00000000 		.4byte	0x0
 1104 0371 00000000 		.4byte	0x0
 1105              	.LLST27:
 1106 0375 04000000 		.4byte	.LVL42
 1107 0379 1A000000 		.4byte	.LVL46
 1108 037d 0200     		.2byte	0x2
ARM GAS  /tmp/ccJOsmUH.s 			page 21


 1109 037f 30       		.byte	0x30
 1110 0380 9F       		.byte	0x9f
 1111 0381 1A000000 		.4byte	.LVL46
 1112 0385 34000000 		.4byte	.LFE63
 1113 0389 0200     		.2byte	0x2
 1114 038b 30       		.byte	0x30
 1115 038c 9F       		.byte	0x9f
 1116 038d 00000000 		.4byte	0x0
 1117 0391 00000000 		.4byte	0x0
 1118              	.LLST28:
 1119 0395 0C000000 		.4byte	.LVL43
 1120 0399 12000000 		.4byte	.LVL44
 1121 039d 0100     		.2byte	0x1
 1122 039f 50       		.byte	0x50
 1123 03a0 12000000 		.4byte	.LVL44
 1124 03a4 14000000 		.4byte	.LVL45
 1125 03a8 0300     		.2byte	0x3
 1126 03aa 73       		.byte	0x73
 1127 03ab 7E       		.sleb128 -2
 1128 03ac 9F       		.byte	0x9f
 1129 03ad 22000000 		.4byte	.LVL48
 1130 03b1 28000000 		.4byte	.LVL49
 1131 03b5 0100     		.2byte	0x1
 1132 03b7 50       		.byte	0x50
 1133 03b8 28000000 		.4byte	.LVL49
 1134 03bc 34000000 		.4byte	.LFE63
 1135 03c0 0300     		.2byte	0x3
 1136 03c2 73       		.byte	0x73
 1137 03c3 7E       		.sleb128 -2
 1138 03c4 9F       		.byte	0x9f
 1139 03c5 00000000 		.4byte	0x0
 1140 03c9 00000000 		.4byte	0x0
 1141              	.LLST29:
 1142 03cd 0C000000 		.4byte	.LVL43
 1143 03d1 12000000 		.4byte	.LVL44
 1144 03d5 0F00     		.2byte	0xf
 1145 03d7 70       		.byte	0x70
 1146 03d8 02       		.sleb128 2
 1147 03d9 23       		.byte	0x23
 1148 03da 80808080 		.uleb128 0x80000000
 1148      08
 1149 03df 0C       		.byte	0xc
 1150 03e0 01000080 		.4byte	0x80000001
 1151 03e4 2C       		.byte	0x2c
 1152 03e5 9F       		.byte	0x9f
 1153 03e6 12000000 		.4byte	.LVL44
 1154 03ea 14000000 		.4byte	.LVL45
 1155 03ee 0F00     		.2byte	0xf
 1156 03f0 73       		.byte	0x73
 1157 03f1 00       		.sleb128 0
 1158 03f2 23       		.byte	0x23
 1159 03f3 80808080 		.uleb128 0x80000000
 1159      08
 1160 03f8 0C       		.byte	0xc
 1161 03f9 01000080 		.4byte	0x80000001
 1162 03fd 2C       		.byte	0x2c
 1163 03fe 9F       		.byte	0x9f
ARM GAS  /tmp/ccJOsmUH.s 			page 22


 1164 03ff 22000000 		.4byte	.LVL48
 1165 0403 28000000 		.4byte	.LVL49
 1166 0407 0F00     		.2byte	0xf
 1167 0409 70       		.byte	0x70
 1168 040a 02       		.sleb128 2
 1169 040b 23       		.byte	0x23
 1170 040c 80808080 		.uleb128 0x80000000
 1170      08
 1171 0411 0C       		.byte	0xc
 1172 0412 01000080 		.4byte	0x80000001
 1173 0416 2C       		.byte	0x2c
 1174 0417 9F       		.byte	0x9f
 1175 0418 28000000 		.4byte	.LVL49
 1176 041c 34000000 		.4byte	.LFE63
 1177 0420 0F00     		.2byte	0xf
 1178 0422 73       		.byte	0x73
 1179 0423 00       		.sleb128 0
 1180 0424 23       		.byte	0x23
 1181 0425 80808080 		.uleb128 0x80000000
 1181      08
 1182 042a 0C       		.byte	0xc
 1183 042b 01000080 		.4byte	0x80000001
 1184 042f 2C       		.byte	0x2c
 1185 0430 9F       		.byte	0x9f
 1186 0431 00000000 		.4byte	0x0
 1187 0435 00000000 		.4byte	0x0
 1188              	.LLST30:
 1189 0439 14000000 		.4byte	.LVL45
 1190 043d 1E000000 		.4byte	.LVL47
 1191 0441 0100     		.2byte	0x1
 1192 0443 50       		.byte	0x50
 1193 0444 00000000 		.4byte	0x0
 1194 0448 00000000 		.4byte	0x0
 1195              		.file 2 "/home/z80/programs/code-sourcery/2011.03-42/bin/../lib/gcc/arm-none-eabi/4.5.2/include/st
 1196              		.file 3 "/home/z80/programs/code-sourcery/2011.03-42/bin/../lib/gcc/arm-none-eabi/4.5.2/../../../.
 1197              		.file 4 "../chibios_2.4.x/os/ports/GCC/ARMCMx/chtypes.h"
 1198              		.file 5 "../chibios_2.4.x/os/kernel/include/chlists.h"
 1199              		.file 6 "../chibios_2.4.x/os/kernel/include/chthreads.h"
 1200              		.file 7 "../chibios_2.4.x/os/ports/GCC/ARMCMx/chcore_v7m.h"
 1201              		.file 8 "../chibios_2.4.x/os/kernel/include/chmtx.h"
 1202              		.file 9 "../chibios_2.4.x/os/kernel/include/chevents.h"
 1203              		.file 10 "../chibios_2.4.x/os/kernel/include/chqueues.h"
 1204              		.file 11 "../chibios_2.4.x/os/kernel/include/chioch.h"
 1205              		.file 12 "./src/cpu_io.h"
 1206              		.file 13 "../chibios_2.4.x/os/hal/platforms/STM32F1xx/stm32f10x.h"
 1207              		.file 14 "../chibios_2.4.x/os/hal/include/serial.h"
 1208              		.file 15 "../chibios_2.4.x/os/ports/common/ARMCMx/CMSIS/include/core_cm3.h"
 1209              		.file 16 "../chibios_2.4.x/os/hal/platforms/STM32/serial_lld.h"
 1210              		.section	.debug_info
 1211 0000 CE0C0000 		.4byte	0xcce
 1212 0004 0200     		.2byte	0x2
 1213 0006 00000000 		.4byte	.Ldebug_abbrev0
 1214 000a 04       		.byte	0x4
 1215 000b 01       		.uleb128 0x1
 1216 000c FA000000 		.4byte	.LASF128
 1217 0010 01       		.byte	0x1
 1218 0011 48020000 		.4byte	.LASF129
ARM GAS  /tmp/ccJOsmUH.s 			page 23


 1219 0015 9B040000 		.4byte	.LASF130
 1220 0019 00000000 		.4byte	0x0
 1221 001d 00000000 		.4byte	0x0
 1222 0021 D8000000 		.4byte	.Ldebug_ranges0+0xd8
 1223 0025 00000000 		.4byte	.Ldebug_line0
 1224 0029 02       		.uleb128 0x2
 1225 002a 04       		.byte	0x4
 1226 002b 05       		.byte	0x5
 1227 002c 696E7400 		.ascii	"int\000"
 1228 0030 03       		.uleb128 0x3
 1229 0031 09000000 		.4byte	.LASF2
 1230 0035 02       		.byte	0x2
 1231 0036 D3       		.byte	0xd3
 1232 0037 3B000000 		.4byte	0x3b
 1233 003b 04       		.uleb128 0x4
 1234 003c 04       		.byte	0x4
 1235 003d 07       		.byte	0x7
 1236 003e 77010000 		.4byte	.LASF0
 1237 0042 04       		.uleb128 0x4
 1238 0043 01       		.byte	0x1
 1239 0044 06       		.byte	0x6
 1240 0045 D2000000 		.4byte	.LASF1
 1241 0049 03       		.uleb128 0x3
 1242 004a DC040000 		.4byte	.LASF3
 1243 004e 03       		.byte	0x3
 1244 004f 2A       		.byte	0x2a
 1245 0050 54000000 		.4byte	0x54
 1246 0054 04       		.uleb128 0x4
 1247 0055 01       		.byte	0x1
 1248 0056 08       		.byte	0x8
 1249 0057 57030000 		.4byte	.LASF4
 1250 005b 04       		.uleb128 0x4
 1251 005c 02       		.byte	0x2
 1252 005d 05       		.byte	0x5
 1253 005e 7B030000 		.4byte	.LASF5
 1254 0062 03       		.uleb128 0x3
 1255 0063 84010000 		.4byte	.LASF6
 1256 0067 03       		.byte	0x3
 1257 0068 36       		.byte	0x36
 1258 0069 6D000000 		.4byte	0x6d
 1259 006d 04       		.uleb128 0x4
 1260 006e 02       		.byte	0x2
 1261 006f 07       		.byte	0x7
 1262 0070 D5010000 		.4byte	.LASF7
 1263 0074 03       		.uleb128 0x3
 1264 0075 4F030000 		.4byte	.LASF8
 1265 0079 03       		.byte	0x3
 1266 007a 4F       		.byte	0x4f
 1267 007b 7F000000 		.4byte	0x7f
 1268 007f 04       		.uleb128 0x4
 1269 0080 04       		.byte	0x4
 1270 0081 05       		.byte	0x5
 1271 0082 1A010000 		.4byte	.LASF9
 1272 0086 03       		.uleb128 0x3
 1273 0087 EC030000 		.4byte	.LASF10
 1274 008b 03       		.byte	0x3
 1275 008c 50       		.byte	0x50
ARM GAS  /tmp/ccJOsmUH.s 			page 24


 1276 008d 91000000 		.4byte	0x91
 1277 0091 04       		.uleb128 0x4
 1278 0092 04       		.byte	0x4
 1279 0093 07       		.byte	0x7
 1280 0094 0C040000 		.4byte	.LASF11
 1281 0098 04       		.uleb128 0x4
 1282 0099 08       		.byte	0x8
 1283 009a 05       		.byte	0x5
 1284 009b C4000000 		.4byte	.LASF12
 1285 009f 03       		.uleb128 0x3
 1286 00a0 17000000 		.4byte	.LASF13
 1287 00a4 03       		.byte	0x3
 1288 00a5 78       		.byte	0x78
 1289 00a6 AA000000 		.4byte	0xaa
 1290 00aa 04       		.uleb128 0x4
 1291 00ab 08       		.byte	0x8
 1292 00ac 07       		.byte	0x7
 1293 00ad 4D000000 		.4byte	.LASF14
 1294 00b1 03       		.uleb128 0x3
 1295 00b2 3F000000 		.4byte	.LASF15
 1296 00b6 03       		.byte	0x3
 1297 00b7 A6       		.byte	0xa6
 1298 00b8 3B000000 		.4byte	0x3b
 1299 00bc 03       		.uleb128 0x3
 1300 00bd EB000000 		.4byte	.LASF16
 1301 00c1 04       		.byte	0x4
 1302 00c2 2E       		.byte	0x2e
 1303 00c3 74000000 		.4byte	0x74
 1304 00c7 03       		.uleb128 0x3
 1305 00c8 13020000 		.4byte	.LASF17
 1306 00cc 04       		.byte	0x4
 1307 00cd 2F       		.byte	0x2f
 1308 00ce 49000000 		.4byte	0x49
 1309 00d2 03       		.uleb128 0x3
 1310 00d3 23010000 		.4byte	.LASF18
 1311 00d7 04       		.byte	0x4
 1312 00d8 30       		.byte	0x30
 1313 00d9 49000000 		.4byte	0x49
 1314 00dd 03       		.uleb128 0x3
 1315 00de C7010000 		.4byte	.LASF19
 1316 00e2 04       		.byte	0x4
 1317 00e3 32       		.byte	0x32
 1318 00e4 86000000 		.4byte	0x86
 1319 00e8 03       		.uleb128 0x3
 1320 00e9 E8010000 		.4byte	.LASF20
 1321 00ed 04       		.byte	0x4
 1322 00ee 33       		.byte	0x33
 1323 00ef 74000000 		.4byte	0x74
 1324 00f3 03       		.uleb128 0x3
 1325 00f4 27020000 		.4byte	.LASF21
 1326 00f8 04       		.byte	0x4
 1327 00f9 35       		.byte	0x35
 1328 00fa 86000000 		.4byte	0x86
 1329 00fe 03       		.uleb128 0x3
 1330 00ff 3B040000 		.4byte	.LASF22
 1331 0103 04       		.byte	0x4
 1332 0104 36       		.byte	0x36
ARM GAS  /tmp/ccJOsmUH.s 			page 25


 1333 0105 86000000 		.4byte	0x86
 1334 0109 03       		.uleb128 0x3
 1335 010a C6030000 		.4byte	.LASF23
 1336 010e 05       		.byte	0x5
 1337 010f 2A       		.byte	0x2a
 1338 0110 14010000 		.4byte	0x114
 1339 0114 05       		.uleb128 0x5
 1340 0115 C6030000 		.4byte	.LASF23
 1341 0119 48       		.byte	0x48
 1342 011a 06       		.byte	0x6
 1343 011b 5E       		.byte	0x5e
 1344 011c 1D020000 		.4byte	0x21d
 1345 0120 06       		.uleb128 0x6
 1346 0121 A4030000 		.4byte	.LASF24
 1347 0125 06       		.byte	0x6
 1348 0126 5F       		.byte	0x5f
 1349 0127 42020000 		.4byte	0x242
 1350 012b 02       		.byte	0x2
 1351 012c 23       		.byte	0x23
 1352 012d 00       		.uleb128 0x0
 1353 012e 06       		.uleb128 0x6
 1354 012f 24030000 		.4byte	.LASF25
 1355 0133 06       		.byte	0x6
 1356 0134 61       		.byte	0x61
 1357 0135 42020000 		.4byte	0x242
 1358 0139 02       		.byte	0x2
 1359 013a 23       		.byte	0x23
 1360 013b 04       		.uleb128 0x4
 1361 013c 06       		.uleb128 0x6
 1362 013d A8000000 		.4byte	.LASF26
 1363 0141 06       		.byte	0x6
 1364 0142 63       		.byte	0x63
 1365 0143 DD000000 		.4byte	0xdd
 1366 0147 02       		.byte	0x2
 1367 0148 23       		.byte	0x23
 1368 0149 08       		.uleb128 0x8
 1369 014a 06       		.uleb128 0x6
 1370 014b 2B050000 		.4byte	.LASF27
 1371 014f 06       		.byte	0x6
 1372 0150 64       		.byte	0x64
 1373 0151 1A030000 		.4byte	0x31a
 1374 0155 02       		.byte	0x2
 1375 0156 23       		.byte	0x23
 1376 0157 0C       		.uleb128 0xc
 1377 0158 06       		.uleb128 0x6
 1378 0159 3D010000 		.4byte	.LASF28
 1379 015d 06       		.byte	0x6
 1380 015e 66       		.byte	0x66
 1381 015f 42020000 		.4byte	0x242
 1382 0163 02       		.byte	0x2
 1383 0164 23       		.byte	0x23
 1384 0165 10       		.uleb128 0x10
 1385 0166 06       		.uleb128 0x6
 1386 0167 8D020000 		.4byte	.LASF29
 1387 016b 06       		.byte	0x6
 1388 016c 67       		.byte	0x67
 1389 016d 42020000 		.4byte	0x242
ARM GAS  /tmp/ccJOsmUH.s 			page 26


 1390 0171 02       		.byte	0x2
 1391 0172 23       		.byte	0x23
 1392 0173 14       		.uleb128 0x14
 1393 0174 06       		.uleb128 0x6
 1394 0175 8C040000 		.4byte	.LASF30
 1395 0179 06       		.byte	0x6
 1396 017a 6E       		.byte	0x6e
 1397 017b 2D040000 		.4byte	0x42d
 1398 017f 02       		.byte	0x2
 1399 0180 23       		.byte	0x23
 1400 0181 18       		.uleb128 0x18
 1401 0182 06       		.uleb128 0x6
 1402 0183 BB020000 		.4byte	.LASF31
 1403 0187 06       		.byte	0x6
 1404 0188 74       		.byte	0x74
 1405 0189 3F040000 		.4byte	0x43f
 1406 018d 02       		.byte	0x2
 1407 018e 23       		.byte	0x23
 1408 018f 1C       		.uleb128 0x1c
 1409 0190 06       		.uleb128 0x6
 1410 0191 85030000 		.4byte	.LASF32
 1411 0195 06       		.byte	0x6
 1412 0196 79       		.byte	0x79
 1413 0197 D2000000 		.4byte	0xd2
 1414 019b 02       		.byte	0x2
 1415 019c 23       		.byte	0x23
 1416 019d 20       		.uleb128 0x20
 1417 019e 06       		.uleb128 0x6
 1418 019f AB030000 		.4byte	.LASF33
 1419 01a3 06       		.byte	0x6
 1420 01a4 7D       		.byte	0x7d
 1421 01a5 C7000000 		.4byte	0xc7
 1422 01a9 02       		.byte	0x2
 1423 01aa 23       		.byte	0x23
 1424 01ab 21       		.uleb128 0x21
 1425 01ac 06       		.uleb128 0x6
 1426 01ad 9D010000 		.4byte	.LASF34
 1427 01b1 06       		.byte	0x6
 1428 01b2 89       		.byte	0x89
 1429 01b3 3D030000 		.4byte	0x33d
 1430 01b7 02       		.byte	0x2
 1431 01b8 23       		.byte	0x23
 1432 01b9 24       		.uleb128 0x24
 1433 01ba 07       		.uleb128 0x7
 1434 01bb 705F7500 		.ascii	"p_u\000"
 1435 01bf 06       		.byte	0x6
 1436 01c0 AE       		.byte	0xae
 1437 01c1 F8030000 		.4byte	0x3f8
 1438 01c5 02       		.byte	0x2
 1439 01c6 23       		.byte	0x23
 1440 01c7 28       		.uleb128 0x28
 1441 01c8 06       		.uleb128 0x6
 1442 01c9 31050000 		.4byte	.LASF35
 1443 01cd 06       		.byte	0x6
 1444 01ce B3       		.byte	0xb3
 1445 01cf 6A020000 		.4byte	0x26a
 1446 01d3 02       		.byte	0x2
ARM GAS  /tmp/ccJOsmUH.s 			page 27


 1447 01d4 23       		.byte	0x23
 1448 01d5 2C       		.uleb128 0x2c
 1449 01d6 06       		.uleb128 0x6
 1450 01d7 AB010000 		.4byte	.LASF36
 1451 01db 06       		.byte	0x6
 1452 01dc B9       		.byte	0xb9
 1453 01dd 48020000 		.4byte	0x248
 1454 01e1 02       		.byte	0x2
 1455 01e2 23       		.byte	0x23
 1456 01e3 30       		.uleb128 0x30
 1457 01e4 06       		.uleb128 0x6
 1458 01e5 D6040000 		.4byte	.LASF37
 1459 01e9 06       		.byte	0x6
 1460 01ea BD       		.byte	0xbd
 1461 01eb E8000000 		.4byte	0xe8
 1462 01ef 02       		.byte	0x2
 1463 01f0 23       		.byte	0x23
 1464 01f1 38       		.uleb128 0x38
 1465 01f2 06       		.uleb128 0x6
 1466 01f3 CD030000 		.4byte	.LASF38
 1467 01f7 06       		.byte	0x6
 1468 01f8 C3       		.byte	0xc3
 1469 01f9 F3000000 		.4byte	0xf3
 1470 01fd 02       		.byte	0x2
 1471 01fe 23       		.byte	0x23
 1472 01ff 3C       		.uleb128 0x3c
 1473 0200 06       		.uleb128 0x6
 1474 0201 71030000 		.4byte	.LASF39
 1475 0205 06       		.byte	0x6
 1476 0206 CA       		.byte	0xca
 1477 0207 45040000 		.4byte	0x445
 1478 020b 02       		.byte	0x2
 1479 020c 23       		.byte	0x23
 1480 020d 40       		.uleb128 0x40
 1481 020e 06       		.uleb128 0x6
 1482 020f 45040000 		.4byte	.LASF40
 1483 0213 06       		.byte	0x6
 1484 0214 CE       		.byte	0xce
 1485 0215 DD000000 		.4byte	0xdd
 1486 0219 02       		.byte	0x2
 1487 021a 23       		.byte	0x23
 1488 021b 44       		.uleb128 0x44
 1489 021c 00       		.byte	0x0
 1490 021d 08       		.uleb128 0x8
 1491 021e 08       		.byte	0x8
 1492 021f 05       		.byte	0x5
 1493 0220 61       		.byte	0x61
 1494 0221 42020000 		.4byte	0x242
 1495 0225 06       		.uleb128 0x6
 1496 0226 A4030000 		.4byte	.LASF24
 1497 022a 05       		.byte	0x5
 1498 022b 62       		.byte	0x62
 1499 022c 42020000 		.4byte	0x242
 1500 0230 02       		.byte	0x2
 1501 0231 23       		.byte	0x23
 1502 0232 00       		.uleb128 0x0
 1503 0233 06       		.uleb128 0x6
ARM GAS  /tmp/ccJOsmUH.s 			page 28


 1504 0234 24030000 		.4byte	.LASF25
 1505 0238 05       		.byte	0x5
 1506 0239 64       		.byte	0x64
 1507 023a 42020000 		.4byte	0x242
 1508 023e 02       		.byte	0x2
 1509 023f 23       		.byte	0x23
 1510 0240 04       		.uleb128 0x4
 1511 0241 00       		.byte	0x0
 1512 0242 09       		.uleb128 0x9
 1513 0243 04       		.byte	0x4
 1514 0244 09010000 		.4byte	0x109
 1515 0248 03       		.uleb128 0x3
 1516 0249 AE020000 		.4byte	.LASF41
 1517 024d 05       		.byte	0x5
 1518 024e 66       		.byte	0x66
 1519 024f 1D020000 		.4byte	0x21d
 1520 0253 08       		.uleb128 0x8
 1521 0254 04       		.byte	0x4
 1522 0255 05       		.byte	0x5
 1523 0256 6B       		.byte	0x6b
 1524 0257 6A020000 		.4byte	0x26a
 1525 025b 06       		.uleb128 0x6
 1526 025c A4030000 		.4byte	.LASF24
 1527 0260 05       		.byte	0x5
 1528 0261 6D       		.byte	0x6d
 1529 0262 42020000 		.4byte	0x242
 1530 0266 02       		.byte	0x2
 1531 0267 23       		.byte	0x23
 1532 0268 00       		.uleb128 0x0
 1533 0269 00       		.byte	0x0
 1534 026a 03       		.uleb128 0x3
 1535 026b 1B020000 		.4byte	.LASF42
 1536 026f 05       		.byte	0x5
 1537 0270 70       		.byte	0x70
 1538 0271 53020000 		.4byte	0x253
 1539 0275 03       		.uleb128 0x3
 1540 0276 5C010000 		.4byte	.LASF43
 1541 027a 07       		.byte	0x7
 1542 027b D7       		.byte	0xd7
 1543 027c 80020000 		.4byte	0x280
 1544 0280 0A       		.uleb128 0xa
 1545 0281 04       		.byte	0x4
 1546 0282 03       		.uleb128 0x3
 1547 0283 64020000 		.4byte	.LASF44
 1548 0287 07       		.byte	0x7
 1549 0288 DD       		.byte	0xdd
 1550 0289 9F000000 		.4byte	0x9f
 1551 028d 05       		.uleb128 0x5
 1552 028e 6D040000 		.4byte	.LASF45
 1553 0292 24       		.byte	0x24
 1554 0293 07       		.byte	0x7
 1555 0294 FE       		.byte	0xfe
 1556 0295 1A030000 		.4byte	0x31a
 1557 0299 0B       		.uleb128 0xb
 1558 029a 723400   		.ascii	"r4\000"
 1559 029d 07       		.byte	0x7
 1560 029e 1101     		.2byte	0x111
ARM GAS  /tmp/ccJOsmUH.s 			page 29


 1561 02a0 75020000 		.4byte	0x275
 1562 02a4 02       		.byte	0x2
 1563 02a5 23       		.byte	0x23
 1564 02a6 00       		.uleb128 0x0
 1565 02a7 0B       		.uleb128 0xb
 1566 02a8 723500   		.ascii	"r5\000"
 1567 02ab 07       		.byte	0x7
 1568 02ac 1201     		.2byte	0x112
 1569 02ae 75020000 		.4byte	0x275
 1570 02b2 02       		.byte	0x2
 1571 02b3 23       		.byte	0x23
 1572 02b4 04       		.uleb128 0x4
 1573 02b5 0B       		.uleb128 0xb
 1574 02b6 723600   		.ascii	"r6\000"
 1575 02b9 07       		.byte	0x7
 1576 02ba 1301     		.2byte	0x113
 1577 02bc 75020000 		.4byte	0x275
 1578 02c0 02       		.byte	0x2
 1579 02c1 23       		.byte	0x23
 1580 02c2 08       		.uleb128 0x8
 1581 02c3 0B       		.uleb128 0xb
 1582 02c4 723700   		.ascii	"r7\000"
 1583 02c7 07       		.byte	0x7
 1584 02c8 1401     		.2byte	0x114
 1585 02ca 75020000 		.4byte	0x275
 1586 02ce 02       		.byte	0x2
 1587 02cf 23       		.byte	0x23
 1588 02d0 0C       		.uleb128 0xc
 1589 02d1 0B       		.uleb128 0xb
 1590 02d2 723800   		.ascii	"r8\000"
 1591 02d5 07       		.byte	0x7
 1592 02d6 1501     		.2byte	0x115
 1593 02d8 75020000 		.4byte	0x275
 1594 02dc 02       		.byte	0x2
 1595 02dd 23       		.byte	0x23
 1596 02de 10       		.uleb128 0x10
 1597 02df 0B       		.uleb128 0xb
 1598 02e0 723900   		.ascii	"r9\000"
 1599 02e3 07       		.byte	0x7
 1600 02e4 1601     		.2byte	0x116
 1601 02e6 75020000 		.4byte	0x275
 1602 02ea 02       		.byte	0x2
 1603 02eb 23       		.byte	0x23
 1604 02ec 14       		.uleb128 0x14
 1605 02ed 0B       		.uleb128 0xb
 1606 02ee 72313000 		.ascii	"r10\000"
 1607 02f2 07       		.byte	0x7
 1608 02f3 1701     		.2byte	0x117
 1609 02f5 75020000 		.4byte	0x275
 1610 02f9 02       		.byte	0x2
 1611 02fa 23       		.byte	0x23
 1612 02fb 18       		.uleb128 0x18
 1613 02fc 0B       		.uleb128 0xb
 1614 02fd 72313100 		.ascii	"r11\000"
 1615 0301 07       		.byte	0x7
 1616 0302 1801     		.2byte	0x118
 1617 0304 75020000 		.4byte	0x275
ARM GAS  /tmp/ccJOsmUH.s 			page 30


 1618 0308 02       		.byte	0x2
 1619 0309 23       		.byte	0x23
 1620 030a 1C       		.uleb128 0x1c
 1621 030b 0B       		.uleb128 0xb
 1622 030c 6C7200   		.ascii	"lr\000"
 1623 030f 07       		.byte	0x7
 1624 0310 1901     		.2byte	0x119
 1625 0312 75020000 		.4byte	0x275
 1626 0316 02       		.byte	0x2
 1627 0317 23       		.byte	0x23
 1628 0318 20       		.uleb128 0x20
 1629 0319 00       		.byte	0x0
 1630 031a 0C       		.uleb128 0xc
 1631 031b 65040000 		.4byte	.LASF46
 1632 031f 04       		.byte	0x4
 1633 0320 07       		.byte	0x7
 1634 0321 2301     		.2byte	0x123
 1635 0323 37030000 		.4byte	0x337
 1636 0327 0B       		.uleb128 0xb
 1637 0328 72313300 		.ascii	"r13\000"
 1638 032c 07       		.byte	0x7
 1639 032d 2401     		.2byte	0x124
 1640 032f 37030000 		.4byte	0x337
 1641 0333 02       		.byte	0x2
 1642 0334 23       		.byte	0x23
 1643 0335 00       		.uleb128 0x0
 1644 0336 00       		.byte	0x0
 1645 0337 09       		.uleb128 0x9
 1646 0338 04       		.byte	0x4
 1647 0339 8D020000 		.4byte	0x28d
 1648 033d 0D       		.uleb128 0xd
 1649 033e FE000000 		.4byte	0xfe
 1650 0342 05       		.uleb128 0x5
 1651 0343 87020000 		.4byte	.LASF47
 1652 0347 10       		.byte	0x10
 1653 0348 08       		.byte	0x8
 1654 0349 2C       		.byte	0x2c
 1655 034a 79030000 		.4byte	0x379
 1656 034e 06       		.uleb128 0x6
 1657 034f F2000000 		.4byte	.LASF48
 1658 0353 08       		.byte	0x8
 1659 0354 2D       		.byte	0x2d
 1660 0355 48020000 		.4byte	0x248
 1661 0359 02       		.byte	0x2
 1662 035a 23       		.byte	0x23
 1663 035b 00       		.uleb128 0x0
 1664 035c 06       		.uleb128 0x6
 1665 035d 23050000 		.4byte	.LASF49
 1666 0361 08       		.byte	0x8
 1667 0362 2F       		.byte	0x2f
 1668 0363 42020000 		.4byte	0x242
 1669 0367 02       		.byte	0x2
 1670 0368 23       		.byte	0x23
 1671 0369 08       		.uleb128 0x8
 1672 036a 06       		.uleb128 0x6
 1673 036b 34040000 		.4byte	.LASF50
 1674 036f 08       		.byte	0x8
ARM GAS  /tmp/ccJOsmUH.s 			page 31


 1675 0370 31       		.byte	0x31
 1676 0371 79030000 		.4byte	0x379
 1677 0375 02       		.byte	0x2
 1678 0376 23       		.byte	0x23
 1679 0377 0C       		.uleb128 0xc
 1680 0378 00       		.byte	0x0
 1681 0379 09       		.uleb128 0x9
 1682 037a 04       		.byte	0x4
 1683 037b 42030000 		.4byte	0x342
 1684 037f 03       		.uleb128 0x3
 1685 0380 87020000 		.4byte	.LASF47
 1686 0384 08       		.byte	0x8
 1687 0385 33       		.byte	0x33
 1688 0386 42030000 		.4byte	0x342
 1689 038a 03       		.uleb128 0x3
 1690 038b F5040000 		.4byte	.LASF51
 1691 038f 09       		.byte	0x9
 1692 0390 29       		.byte	0x29
 1693 0391 95030000 		.4byte	0x395
 1694 0395 05       		.uleb128 0x5
 1695 0396 F5040000 		.4byte	.LASF51
 1696 039a 0C       		.byte	0xc
 1697 039b 09       		.byte	0x9
 1698 039c 2E       		.byte	0x2e
 1699 039d CC030000 		.4byte	0x3cc
 1700 03a1 06       		.uleb128 0x6
 1701 03a2 B3030000 		.4byte	.LASF52
 1702 03a6 09       		.byte	0x9
 1703 03a7 2F       		.byte	0x2f
 1704 03a8 CC030000 		.4byte	0x3cc
 1705 03ac 02       		.byte	0x2
 1706 03ad 23       		.byte	0x23
 1707 03ae 00       		.uleb128 0x0
 1708 03af 06       		.uleb128 0x6
 1709 03b0 65030000 		.4byte	.LASF53
 1710 03b4 09       		.byte	0x9
 1711 03b5 32       		.byte	0x32
 1712 03b6 42020000 		.4byte	0x242
 1713 03ba 02       		.byte	0x2
 1714 03bb 23       		.byte	0x23
 1715 03bc 04       		.uleb128 0x4
 1716 03bd 06       		.uleb128 0x6
 1717 03be D4020000 		.4byte	.LASF54
 1718 03c2 09       		.byte	0x9
 1719 03c3 34       		.byte	0x34
 1720 03c4 F3000000 		.4byte	0xf3
 1721 03c8 02       		.byte	0x2
 1722 03c9 23       		.byte	0x23
 1723 03ca 08       		.uleb128 0x8
 1724 03cb 00       		.byte	0x0
 1725 03cc 09       		.uleb128 0x9
 1726 03cd 04       		.byte	0x4
 1727 03ce 8A030000 		.4byte	0x38a
 1728 03d2 05       		.uleb128 0x5
 1729 03d3 65010000 		.4byte	.LASF55
 1730 03d7 04       		.byte	0x4
 1731 03d8 09       		.byte	0x9
ARM GAS  /tmp/ccJOsmUH.s 			page 32


 1732 03d9 3C       		.byte	0x3c
 1733 03da ED030000 		.4byte	0x3ed
 1734 03de 06       		.uleb128 0x6
 1735 03df 93040000 		.4byte	.LASF56
 1736 03e3 09       		.byte	0x9
 1737 03e4 3D       		.byte	0x3d
 1738 03e5 CC030000 		.4byte	0x3cc
 1739 03e9 02       		.byte	0x2
 1740 03ea 23       		.byte	0x23
 1741 03eb 00       		.uleb128 0x0
 1742 03ec 00       		.byte	0x0
 1743 03ed 03       		.uleb128 0x3
 1744 03ee 65010000 		.4byte	.LASF55
 1745 03f2 09       		.byte	0x9
 1746 03f3 40       		.byte	0x40
 1747 03f4 D2030000 		.4byte	0x3d2
 1748 03f8 0E       		.uleb128 0xe
 1749 03f9 04       		.byte	0x4
 1750 03fa 06       		.byte	0x6
 1751 03fb 90       		.byte	0x90
 1752 03fc 2D040000 		.4byte	0x42d
 1753 0400 0F       		.uleb128 0xf
 1754 0401 10000000 		.4byte	.LASF57
 1755 0405 06       		.byte	0x6
 1756 0406 97       		.byte	0x97
 1757 0407 E8000000 		.4byte	0xe8
 1758 040b 0F       		.uleb128 0xf
 1759 040c 7B000000 		.4byte	.LASF58
 1760 0410 06       		.byte	0x6
 1761 0411 9E       		.byte	0x9e
 1762 0412 E8000000 		.4byte	0xe8
 1763 0416 0F       		.uleb128 0xf
 1764 0417 03050000 		.4byte	.LASF59
 1765 041b 06       		.byte	0x6
 1766 041c A5       		.byte	0xa5
 1767 041d 80020000 		.4byte	0x280
 1768 0421 0F       		.uleb128 0xf
 1769 0422 9D030000 		.4byte	.LASF60
 1770 0426 06       		.byte	0x6
 1771 0427 AC       		.byte	0xac
 1772 0428 F3000000 		.4byte	0xf3
 1773 042c 00       		.byte	0x0
 1774 042d 09       		.uleb128 0x9
 1775 042e 04       		.byte	0x4
 1776 042f 33040000 		.4byte	0x433
 1777 0433 10       		.uleb128 0x10
 1778 0434 38040000 		.4byte	0x438
 1779 0438 04       		.uleb128 0x4
 1780 0439 01       		.byte	0x1
 1781 043a 08       		.byte	0x8
 1782 043b 23040000 		.4byte	.LASF61
 1783 043f 09       		.uleb128 0x9
 1784 0440 04       		.byte	0x4
 1785 0441 82020000 		.4byte	0x282
 1786 0445 09       		.uleb128 0x9
 1787 0446 04       		.byte	0x4
 1788 0447 7F030000 		.4byte	0x37f
ARM GAS  /tmp/ccJOsmUH.s 			page 33


 1789 044b 03       		.uleb128 0x3
 1790 044c 57020000 		.4byte	.LASF62
 1791 0450 0A       		.byte	0xa
 1792 0451 37       		.byte	0x37
 1793 0452 56040000 		.4byte	0x456
 1794 0456 05       		.uleb128 0x5
 1795 0457 57020000 		.4byte	.LASF62
 1796 045b 20       		.byte	0x20
 1797 045c 0A       		.byte	0xa
 1798 045d 45       		.byte	0x45
 1799 045e C5040000 		.4byte	0x4c5
 1800 0462 06       		.uleb128 0x6
 1801 0463 E8020000 		.4byte	.LASF63
 1802 0467 0A       		.byte	0xa
 1803 0468 46       		.byte	0x46
 1804 0469 48020000 		.4byte	0x248
 1805 046d 02       		.byte	0x2
 1806 046e 23       		.byte	0x23
 1807 046f 00       		.uleb128 0x0
 1808 0470 06       		.uleb128 0x6
 1809 0471 7D020000 		.4byte	.LASF64
 1810 0475 0A       		.byte	0xa
 1811 0476 47       		.byte	0x47
 1812 0477 30000000 		.4byte	0x30
 1813 047b 02       		.byte	0x2
 1814 047c 23       		.byte	0x23
 1815 047d 08       		.uleb128 0x8
 1816 047e 06       		.uleb128 0x6
 1817 047f 2C010000 		.4byte	.LASF65
 1818 0483 0A       		.byte	0xa
 1819 0484 48       		.byte	0x48
 1820 0485 E8040000 		.4byte	0x4e8
 1821 0489 02       		.byte	0x2
 1822 048a 23       		.byte	0x23
 1823 048b 0C       		.uleb128 0xc
 1824 048c 06       		.uleb128 0x6
 1825 048d 86040000 		.4byte	.LASF66
 1826 0491 0A       		.byte	0xa
 1827 0492 49       		.byte	0x49
 1828 0493 E8040000 		.4byte	0x4e8
 1829 0497 02       		.byte	0x2
 1830 0498 23       		.byte	0x23
 1831 0499 10       		.uleb128 0x10
 1832 049a 06       		.uleb128 0x6
 1833 049b 35010000 		.4byte	.LASF67
 1834 049f 0A       		.byte	0xa
 1835 04a0 4B       		.byte	0x4b
 1836 04a1 E8040000 		.4byte	0x4e8
 1837 04a5 02       		.byte	0x2
 1838 04a6 23       		.byte	0x23
 1839 04a7 14       		.uleb128 0x14
 1840 04a8 06       		.uleb128 0x6
 1841 04a9 3E030000 		.4byte	.LASF68
 1842 04ad 0A       		.byte	0xa
 1843 04ae 4C       		.byte	0x4c
 1844 04af E8040000 		.4byte	0x4e8
 1845 04b3 02       		.byte	0x2
ARM GAS  /tmp/ccJOsmUH.s 			page 34


 1846 04b4 23       		.byte	0x23
 1847 04b5 18       		.uleb128 0x18
 1848 04b6 06       		.uleb128 0x6
 1849 04b7 CD040000 		.4byte	.LASF69
 1850 04bb 0A       		.byte	0xa
 1851 04bc 4D       		.byte	0x4d
 1852 04bd C5040000 		.4byte	0x4c5
 1853 04c1 02       		.byte	0x2
 1854 04c2 23       		.byte	0x23
 1855 04c3 1C       		.uleb128 0x1c
 1856 04c4 00       		.byte	0x0
 1857 04c5 03       		.uleb128 0x3
 1858 04c6 3E020000 		.4byte	.LASF70
 1859 04ca 0A       		.byte	0xa
 1860 04cb 3A       		.byte	0x3a
 1861 04cc D0040000 		.4byte	0x4d0
 1862 04d0 09       		.uleb128 0x9
 1863 04d1 04       		.byte	0x4
 1864 04d2 D6040000 		.4byte	0x4d6
 1865 04d6 11       		.uleb128 0x11
 1866 04d7 01       		.byte	0x1
 1867 04d8 E2040000 		.4byte	0x4e2
 1868 04dc 12       		.uleb128 0x12
 1869 04dd E2040000 		.4byte	0x4e2
 1870 04e1 00       		.byte	0x0
 1871 04e2 09       		.uleb128 0x9
 1872 04e3 04       		.byte	0x4
 1873 04e4 4B040000 		.4byte	0x44b
 1874 04e8 09       		.uleb128 0x9
 1875 04e9 04       		.byte	0x4
 1876 04ea 49000000 		.4byte	0x49
 1877 04ee 03       		.uleb128 0x3
 1878 04ef 33020000 		.4byte	.LASF71
 1879 04f3 0A       		.byte	0xa
 1880 04f4 76       		.byte	0x76
 1881 04f5 4B040000 		.4byte	0x44b
 1882 04f9 03       		.uleb128 0x3
 1883 04fa 26000000 		.4byte	.LASF72
 1884 04fe 0A       		.byte	0xa
 1885 04ff E6       		.byte	0xe6
 1886 0500 4B040000 		.4byte	0x44b
 1887 0504 13       		.uleb128 0x13
 1888 0505 01       		.byte	0x1
 1889 0506 30000000 		.4byte	0x30
 1890 050a 1E050000 		.4byte	0x51e
 1891 050e 12       		.uleb128 0x12
 1892 050f 80020000 		.4byte	0x280
 1893 0513 12       		.uleb128 0x12
 1894 0514 1E050000 		.4byte	0x51e
 1895 0518 12       		.uleb128 0x12
 1896 0519 30000000 		.4byte	0x30
 1897 051d 00       		.byte	0x0
 1898 051e 09       		.uleb128 0x9
 1899 051f 04       		.byte	0x4
 1900 0520 24050000 		.4byte	0x524
 1901 0524 10       		.uleb128 0x10
 1902 0525 49000000 		.4byte	0x49
ARM GAS  /tmp/ccJOsmUH.s 			page 35


 1903 0529 09       		.uleb128 0x9
 1904 052a 04       		.byte	0x4
 1905 052b 04050000 		.4byte	0x504
 1906 052f 13       		.uleb128 0x13
 1907 0530 01       		.byte	0x1
 1908 0531 30000000 		.4byte	0x30
 1909 0535 49050000 		.4byte	0x549
 1910 0539 12       		.uleb128 0x12
 1911 053a 80020000 		.4byte	0x280
 1912 053e 12       		.uleb128 0x12
 1913 053f E8040000 		.4byte	0x4e8
 1914 0543 12       		.uleb128 0x12
 1915 0544 30000000 		.4byte	0x30
 1916 0548 00       		.byte	0x0
 1917 0549 09       		.uleb128 0x9
 1918 054a 04       		.byte	0x4
 1919 054b 2F050000 		.4byte	0x52f
 1920 054f 13       		.uleb128 0x13
 1921 0550 01       		.byte	0x1
 1922 0551 BC000000 		.4byte	0xbc
 1923 0555 5F050000 		.4byte	0x55f
 1924 0559 12       		.uleb128 0x12
 1925 055a 80020000 		.4byte	0x280
 1926 055e 00       		.byte	0x0
 1927 055f 09       		.uleb128 0x9
 1928 0560 04       		.byte	0x4
 1929 0561 4F050000 		.4byte	0x54f
 1930 0565 13       		.uleb128 0x13
 1931 0566 01       		.byte	0x1
 1932 0567 E8000000 		.4byte	0xe8
 1933 056b 7F050000 		.4byte	0x57f
 1934 056f 12       		.uleb128 0x12
 1935 0570 80020000 		.4byte	0x280
 1936 0574 12       		.uleb128 0x12
 1937 0575 49000000 		.4byte	0x49
 1938 0579 12       		.uleb128 0x12
 1939 057a FE000000 		.4byte	0xfe
 1940 057e 00       		.byte	0x0
 1941 057f 09       		.uleb128 0x9
 1942 0580 04       		.byte	0x4
 1943 0581 65050000 		.4byte	0x565
 1944 0585 13       		.uleb128 0x13
 1945 0586 01       		.byte	0x1
 1946 0587 E8000000 		.4byte	0xe8
 1947 058b 9A050000 		.4byte	0x59a
 1948 058f 12       		.uleb128 0x12
 1949 0590 80020000 		.4byte	0x280
 1950 0594 12       		.uleb128 0x12
 1951 0595 FE000000 		.4byte	0xfe
 1952 0599 00       		.byte	0x0
 1953 059a 09       		.uleb128 0x9
 1954 059b 04       		.byte	0x4
 1955 059c 85050000 		.4byte	0x585
 1956 05a0 13       		.uleb128 0x13
 1957 05a1 01       		.byte	0x1
 1958 05a2 30000000 		.4byte	0x30
 1959 05a6 BF050000 		.4byte	0x5bf
ARM GAS  /tmp/ccJOsmUH.s 			page 36


 1960 05aa 12       		.uleb128 0x12
 1961 05ab 80020000 		.4byte	0x280
 1962 05af 12       		.uleb128 0x12
 1963 05b0 1E050000 		.4byte	0x51e
 1964 05b4 12       		.uleb128 0x12
 1965 05b5 30000000 		.4byte	0x30
 1966 05b9 12       		.uleb128 0x12
 1967 05ba FE000000 		.4byte	0xfe
 1968 05be 00       		.byte	0x0
 1969 05bf 09       		.uleb128 0x9
 1970 05c0 04       		.byte	0x4
 1971 05c1 A0050000 		.4byte	0x5a0
 1972 05c5 13       		.uleb128 0x13
 1973 05c6 01       		.byte	0x1
 1974 05c7 30000000 		.4byte	0x30
 1975 05cb E4050000 		.4byte	0x5e4
 1976 05cf 12       		.uleb128 0x12
 1977 05d0 80020000 		.4byte	0x280
 1978 05d4 12       		.uleb128 0x12
 1979 05d5 E8040000 		.4byte	0x4e8
 1980 05d9 12       		.uleb128 0x12
 1981 05da 30000000 		.4byte	0x30
 1982 05de 12       		.uleb128 0x12
 1983 05df FE000000 		.4byte	0xfe
 1984 05e3 00       		.byte	0x0
 1985 05e4 09       		.uleb128 0x9
 1986 05e5 04       		.byte	0x4
 1987 05e6 C5050000 		.4byte	0x5c5
 1988 05ea 14       		.uleb128 0x14
 1989 05eb A4020000 		.4byte	.LASF73
 1990 05ef 0B       		.byte	0xb
 1991 05f0 0B01     		.2byte	0x10b
 1992 05f2 B1000000 		.4byte	0xb1
 1993 05f6 13       		.uleb128 0x13
 1994 05f7 01       		.byte	0x1
 1995 05f8 EA050000 		.4byte	0x5ea
 1996 05fc 06060000 		.4byte	0x606
 1997 0600 12       		.uleb128 0x12
 1998 0601 80020000 		.4byte	0x280
 1999 0605 00       		.byte	0x0
 2000 0606 09       		.uleb128 0x9
 2001 0607 04       		.byte	0x4
 2002 0608 F6050000 		.4byte	0x5f6
 2003 060c 03       		.uleb128 0x3
 2004 060d 32000000 		.4byte	.LASF74
 2005 0611 0C       		.byte	0xc
 2006 0612 0B       		.byte	0xb
 2007 0613 17060000 		.4byte	0x617
 2008 0617 09       		.uleb128 0x9
 2009 0618 04       		.byte	0x4
 2010 0619 1D060000 		.4byte	0x61d
 2011 061d 11       		.uleb128 0x11
 2012 061e 01       		.byte	0x1
 2013 061f 29060000 		.4byte	0x629
 2014 0623 12       		.uleb128 0x12
 2015 0624 E8040000 		.4byte	0x4e8
 2016 0628 00       		.byte	0x0
ARM GAS  /tmp/ccJOsmUH.s 			page 37


 2017 0629 0D       		.uleb128 0xd
 2018 062a 62000000 		.4byte	0x62
 2019 062e 0D       		.uleb128 0xd
 2020 062f 74000000 		.4byte	0x74
 2021 0633 15       		.uleb128 0x15
 2022 0634 1C       		.byte	0x1c
 2023 0635 0D       		.byte	0xd
 2024 0636 E104     		.2byte	0x4e1
 2025 0638 0D070000 		.4byte	0x70d
 2026 063c 0B       		.uleb128 0xb
 2027 063d 535200   		.ascii	"SR\000"
 2028 0640 0D       		.byte	0xd
 2029 0641 E304     		.2byte	0x4e3
 2030 0643 29060000 		.4byte	0x629
 2031 0647 02       		.byte	0x2
 2032 0648 23       		.byte	0x23
 2033 0649 00       		.uleb128 0x0
 2034 064a 16       		.uleb128 0x16
 2035 064b F2020000 		.4byte	.LASF75
 2036 064f 0D       		.byte	0xd
 2037 0650 E404     		.2byte	0x4e4
 2038 0652 62000000 		.4byte	0x62
 2039 0656 02       		.byte	0x2
 2040 0657 23       		.byte	0x23
 2041 0658 02       		.uleb128 0x2
 2042 0659 0B       		.uleb128 0xb
 2043 065a 445200   		.ascii	"DR\000"
 2044 065d 0D       		.byte	0xd
 2045 065e E504     		.2byte	0x4e5
 2046 0660 29060000 		.4byte	0x629
 2047 0664 02       		.byte	0x2
 2048 0665 23       		.byte	0x23
 2049 0666 04       		.uleb128 0x4
 2050 0667 16       		.uleb128 0x16
 2051 0668 FC020000 		.4byte	.LASF76
 2052 066c 0D       		.byte	0xd
 2053 066d E604     		.2byte	0x4e6
 2054 066f 62000000 		.4byte	0x62
 2055 0673 02       		.byte	0x2
 2056 0674 23       		.byte	0x23
 2057 0675 06       		.uleb128 0x6
 2058 0676 0B       		.uleb128 0xb
 2059 0677 42525200 		.ascii	"BRR\000"
 2060 067b 0D       		.byte	0xd
 2061 067c E704     		.2byte	0x4e7
 2062 067e 29060000 		.4byte	0x629
 2063 0682 02       		.byte	0x2
 2064 0683 23       		.byte	0x23
 2065 0684 08       		.uleb128 0x8
 2066 0685 16       		.uleb128 0x16
 2067 0686 06030000 		.4byte	.LASF77
 2068 068a 0D       		.byte	0xd
 2069 068b E804     		.2byte	0x4e8
 2070 068d 62000000 		.4byte	0x62
 2071 0691 02       		.byte	0x2
 2072 0692 23       		.byte	0x23
 2073 0693 0A       		.uleb128 0xa
ARM GAS  /tmp/ccJOsmUH.s 			page 38


 2074 0694 0B       		.uleb128 0xb
 2075 0695 43523100 		.ascii	"CR1\000"
 2076 0699 0D       		.byte	0xd
 2077 069a E904     		.2byte	0x4e9
 2078 069c 29060000 		.4byte	0x629
 2079 06a0 02       		.byte	0x2
 2080 06a1 23       		.byte	0x23
 2081 06a2 0C       		.uleb128 0xc
 2082 06a3 16       		.uleb128 0x16
 2083 06a4 10030000 		.4byte	.LASF78
 2084 06a8 0D       		.byte	0xd
 2085 06a9 EA04     		.2byte	0x4ea
 2086 06ab 62000000 		.4byte	0x62
 2087 06af 02       		.byte	0x2
 2088 06b0 23       		.byte	0x23
 2089 06b1 0E       		.uleb128 0xe
 2090 06b2 0B       		.uleb128 0xb
 2091 06b3 43523200 		.ascii	"CR2\000"
 2092 06b7 0D       		.byte	0xd
 2093 06b8 EB04     		.2byte	0x4eb
 2094 06ba 29060000 		.4byte	0x629
 2095 06be 02       		.byte	0x2
 2096 06bf 23       		.byte	0x23
 2097 06c0 10       		.uleb128 0x10
 2098 06c1 16       		.uleb128 0x16
 2099 06c2 1A030000 		.4byte	.LASF79
 2100 06c6 0D       		.byte	0xd
 2101 06c7 EC04     		.2byte	0x4ec
 2102 06c9 62000000 		.4byte	0x62
 2103 06cd 02       		.byte	0x2
 2104 06ce 23       		.byte	0x23
 2105 06cf 12       		.uleb128 0x12
 2106 06d0 0B       		.uleb128 0xb
 2107 06d1 43523300 		.ascii	"CR3\000"
 2108 06d5 0D       		.byte	0xd
 2109 06d6 ED04     		.2byte	0x4ed
 2110 06d8 29060000 		.4byte	0x629
 2111 06dc 02       		.byte	0x2
 2112 06dd 23       		.byte	0x23
 2113 06de 14       		.uleb128 0x14
 2114 06df 16       		.uleb128 0x16
 2115 06e0 E2030000 		.4byte	.LASF80
 2116 06e4 0D       		.byte	0xd
 2117 06e5 EE04     		.2byte	0x4ee
 2118 06e7 62000000 		.4byte	0x62
 2119 06eb 02       		.byte	0x2
 2120 06ec 23       		.byte	0x23
 2121 06ed 16       		.uleb128 0x16
 2122 06ee 16       		.uleb128 0x16
 2123 06ef DE000000 		.4byte	.LASF81
 2124 06f3 0D       		.byte	0xd
 2125 06f4 EF04     		.2byte	0x4ef
 2126 06f6 29060000 		.4byte	0x629
 2127 06fa 02       		.byte	0x2
 2128 06fb 23       		.byte	0x23
 2129 06fc 18       		.uleb128 0x18
 2130 06fd 16       		.uleb128 0x16
ARM GAS  /tmp/ccJOsmUH.s 			page 39


 2131 06fe 2B030000 		.4byte	.LASF82
 2132 0702 0D       		.byte	0xd
 2133 0703 F004     		.2byte	0x4f0
 2134 0705 62000000 		.4byte	0x62
 2135 0709 02       		.byte	0x2
 2136 070a 23       		.byte	0x23
 2137 070b 1A       		.uleb128 0x1a
 2138 070c 00       		.byte	0x0
 2139 070d 14       		.uleb128 0x14
 2140 070e FE010000 		.4byte	.LASF83
 2141 0712 0D       		.byte	0xd
 2142 0713 F104     		.2byte	0x4f1
 2143 0715 33060000 		.4byte	0x633
 2144 0719 17       		.uleb128 0x17
 2145 071a 01       		.byte	0x1
 2146 071b 0E       		.byte	0xe
 2147 071c 64       		.byte	0x64
 2148 071d 34070000 		.4byte	0x734
 2149 0721 18       		.uleb128 0x18
 2150 0722 D8030000 		.4byte	.LASF84
 2151 0726 00       		.sleb128 0
 2152 0727 18       		.uleb128 0x18
 2153 0728 E3000000 		.4byte	.LASF85
 2154 072c 01       		.sleb128 1
 2155 072d 18       		.uleb128 0x18
 2156 072e 74040000 		.4byte	.LASF86
 2157 0732 02       		.sleb128 2
 2158 0733 00       		.byte	0x0
 2159 0734 03       		.uleb128 0x3
 2160 0735 F5030000 		.4byte	.LASF87
 2161 0739 0E       		.byte	0xe
 2162 073a 68       		.byte	0x68
 2163 073b 19070000 		.4byte	0x719
 2164 073f 03       		.uleb128 0x3
 2165 0740 FF030000 		.4byte	.LASF88
 2166 0744 0E       		.byte	0xe
 2167 0745 6D       		.byte	0x6d
 2168 0746 4A070000 		.4byte	0x74a
 2169 074a 05       		.uleb128 0x5
 2170 074b FF030000 		.4byte	.LASF88
 2171 074f 74       		.byte	0x74
 2172 0750 0E       		.byte	0xe
 2173 0751 87       		.byte	0x87
 2174 0752 D3070000 		.4byte	0x7d3
 2175 0756 07       		.uleb128 0x7
 2176 0757 766D7400 		.ascii	"vmt\000"
 2177 075b 0E       		.byte	0xe
 2178 075c 89       		.byte	0x89
 2179 075d 5E080000 		.4byte	0x85e
 2180 0761 02       		.byte	0x2
 2181 0762 23       		.byte	0x23
 2182 0763 00       		.uleb128 0x0
 2183 0764 06       		.uleb128 0x6
 2184 0765 CF010000 		.4byte	.LASF89
 2185 0769 0E       		.byte	0xe
 2186 076a 8A       		.byte	0x8a
 2187 076b ED030000 		.4byte	0x3ed
ARM GAS  /tmp/ccJOsmUH.s 			page 40


 2188 076f 02       		.byte	0x2
 2189 0770 23       		.byte	0x23
 2190 0771 04       		.uleb128 0x4
 2191 0772 06       		.uleb128 0x6
 2192 0773 EF040000 		.4byte	.LASF90
 2193 0777 0E       		.byte	0xe
 2194 0778 8A       		.byte	0x8a
 2195 0779 EA050000 		.4byte	0x5ea
 2196 077d 02       		.byte	0x2
 2197 077e 23       		.byte	0x23
 2198 077f 08       		.uleb128 0x8
 2199 0780 06       		.uleb128 0x6
 2200 0781 14010000 		.4byte	.LASF91
 2201 0785 0E       		.byte	0xe
 2202 0786 8A       		.byte	0x8a
 2203 0787 34070000 		.4byte	0x734
 2204 078b 02       		.byte	0x2
 2205 078c 23       		.byte	0x23
 2206 078d 0C       		.uleb128 0xc
 2207 078e 06       		.uleb128 0x6
 2208 078f A4010000 		.4byte	.LASF92
 2209 0793 0E       		.byte	0xe
 2210 0794 8A       		.byte	0x8a
 2211 0795 EE040000 		.4byte	0x4ee
 2212 0799 02       		.byte	0x2
 2213 079a 23       		.byte	0x23
 2214 079b 10       		.uleb128 0x10
 2215 079c 06       		.uleb128 0x6
 2216 079d EE010000 		.4byte	.LASF93
 2217 07a1 0E       		.byte	0xe
 2218 07a2 8A       		.byte	0x8a
 2219 07a3 F9040000 		.4byte	0x4f9
 2220 07a7 02       		.byte	0x2
 2221 07a8 23       		.byte	0x23
 2222 07a9 30       		.uleb128 0x30
 2223 07aa 07       		.uleb128 0x7
 2224 07ab 696200   		.ascii	"ib\000"
 2225 07ae 0E       		.byte	0xe
 2226 07af 8A       		.byte	0x8a
 2227 07b0 69080000 		.4byte	0x869
 2228 07b4 02       		.byte	0x2
 2229 07b5 23       		.byte	0x23
 2230 07b6 50       		.uleb128 0x50
 2231 07b7 07       		.uleb128 0x7
 2232 07b8 6F6200   		.ascii	"ob\000"
 2233 07bb 0E       		.byte	0xe
 2234 07bc 8A       		.byte	0x8a
 2235 07bd 69080000 		.4byte	0x869
 2236 07c1 02       		.byte	0x2
 2237 07c2 23       		.byte	0x23
 2238 07c3 60       		.uleb128 0x60
 2239 07c4 06       		.uleb128 0x6
 2240 07c5 71010000 		.4byte	.LASF94
 2241 07c9 0E       		.byte	0xe
 2242 07ca 8A       		.byte	0x8a
 2243 07cb 79080000 		.4byte	0x879
 2244 07cf 02       		.byte	0x2
ARM GAS  /tmp/ccJOsmUH.s 			page 41


 2245 07d0 23       		.byte	0x23
 2246 07d1 70       		.uleb128 0x70
 2247 07d2 00       		.byte	0x0
 2248 07d3 05       		.uleb128 0x5
 2249 07d4 8D010000 		.4byte	.LASF95
 2250 07d8 24       		.byte	0x24
 2251 07d9 0E       		.byte	0xe
 2252 07da 7C       		.byte	0x7c
 2253 07db 5E080000 		.4byte	0x85e
 2254 07df 06       		.uleb128 0x6
 2255 07e0 77020000 		.4byte	.LASF96
 2256 07e4 0E       		.byte	0xe
 2257 07e5 7D       		.byte	0x7d
 2258 07e6 29050000 		.4byte	0x529
 2259 07ea 02       		.byte	0x2
 2260 07eb 23       		.byte	0x23
 2261 07ec 00       		.uleb128 0x0
 2262 07ed 06       		.uleb128 0x6
 2263 07ee 1E040000 		.4byte	.LASF97
 2264 07f2 0E       		.byte	0xe
 2265 07f3 7D       		.byte	0x7d
 2266 07f4 49050000 		.4byte	0x549
 2267 07f8 02       		.byte	0x2
 2268 07f9 23       		.byte	0x23
 2269 07fa 04       		.uleb128 0x4
 2270 07fb 06       		.uleb128 0x6
 2271 07fc 45010000 		.4byte	.LASF98
 2272 0800 0E       		.byte	0xe
 2273 0801 7D       		.byte	0x7d
 2274 0802 5F050000 		.4byte	0x55f
 2275 0806 02       		.byte	0x2
 2276 0807 23       		.byte	0x23
 2277 0808 08       		.uleb128 0x8
 2278 0809 06       		.uleb128 0x6
 2279 080a 10050000 		.4byte	.LASF99
 2280 080e 0E       		.byte	0xe
 2281 080f 7D       		.byte	0x7d
 2282 0810 5F050000 		.4byte	0x55f
 2283 0814 02       		.byte	0x2
 2284 0815 23       		.byte	0x23
 2285 0816 0C       		.uleb128 0xc
 2286 0817 07       		.uleb128 0x7
 2287 0818 70757400 		.ascii	"put\000"
 2288 081c 0E       		.byte	0xe
 2289 081d 7D       		.byte	0x7d
 2290 081e 7F050000 		.4byte	0x57f
 2291 0822 02       		.byte	0x2
 2292 0823 23       		.byte	0x23
 2293 0824 10       		.uleb128 0x10
 2294 0825 07       		.uleb128 0x7
 2295 0826 67657400 		.ascii	"get\000"
 2296 082a 0E       		.byte	0xe
 2297 082b 7D       		.byte	0x7d
 2298 082c 9A050000 		.4byte	0x59a
 2299 0830 02       		.byte	0x2
 2300 0831 23       		.byte	0x23
 2301 0832 14       		.uleb128 0x14
ARM GAS  /tmp/ccJOsmUH.s 			page 42


 2302 0833 06       		.uleb128 0x6
 2303 0834 0C020000 		.4byte	.LASF100
 2304 0838 0E       		.byte	0xe
 2305 0839 7D       		.byte	0x7d
 2306 083a BF050000 		.4byte	0x5bf
 2307 083e 02       		.byte	0x2
 2308 083f 23       		.byte	0x23
 2309 0840 18       		.uleb128 0x18
 2310 0841 06       		.uleb128 0x6
 2311 0842 AF000000 		.4byte	.LASF101
 2312 0846 0E       		.byte	0xe
 2313 0847 7D       		.byte	0x7d
 2314 0848 E4050000 		.4byte	0x5e4
 2315 084c 02       		.byte	0x2
 2316 084d 23       		.byte	0x23
 2317 084e 1C       		.uleb128 0x1c
 2318 084f 06       		.uleb128 0x6
 2319 0850 5C040000 		.4byte	.LASF102
 2320 0854 0E       		.byte	0xe
 2321 0855 7D       		.byte	0x7d
 2322 0856 06060000 		.4byte	0x606
 2323 085a 02       		.byte	0x2
 2324 085b 23       		.byte	0x23
 2325 085c 20       		.uleb128 0x20
 2326 085d 00       		.byte	0x0
 2327 085e 09       		.uleb128 0x9
 2328 085f 04       		.byte	0x4
 2329 0860 64080000 		.4byte	0x864
 2330 0864 10       		.uleb128 0x10
 2331 0865 D3070000 		.4byte	0x7d3
 2332 0869 19       		.uleb128 0x19
 2333 086a 49000000 		.4byte	0x49
 2334 086e 79080000 		.4byte	0x879
 2335 0872 1A       		.uleb128 0x1a
 2336 0873 3B000000 		.4byte	0x3b
 2337 0877 0F       		.byte	0xf
 2338 0878 00       		.byte	0x0
 2339 0879 09       		.uleb128 0x9
 2340 087a 04       		.byte	0x4
 2341 087b 0D070000 		.4byte	0x70d
 2342 087f 1B       		.uleb128 0x1b
 2343 0880 B6010000 		.4byte	.LASF105
 2344 0884 01       		.byte	0x1
 2345 0885 81       		.byte	0x81
 2346 0886 01       		.byte	0x1
 2347 0887 01       		.byte	0x1
 2348 0888 A3080000 		.4byte	0x8a3
 2349 088c 1C       		.uleb128 0x1c
 2350 088d E4040000 		.4byte	.LASF103
 2351 0891 01       		.byte	0x1
 2352 0892 83       		.byte	0x83
 2353 0893 29000000 		.4byte	0x29
 2354 0897 1C       		.uleb128 0x1c
 2355 0898 35030000 		.4byte	.LASF104
 2356 089c 01       		.byte	0x1
 2357 089d 85       		.byte	0x85
 2358 089e 29000000 		.4byte	0x29
ARM GAS  /tmp/ccJOsmUH.s 			page 43


 2359 08a2 00       		.byte	0x0
 2360 08a3 1B       		.uleb128 0x1b
 2361 08a4 DC020000 		.4byte	.LASF106
 2362 08a8 01       		.byte	0x1
 2363 08a9 E5       		.byte	0xe5
 2364 08aa 01       		.byte	0x1
 2365 08ab 01       		.byte	0x1
 2366 08ac BA080000 		.4byte	0x8ba
 2367 08b0 1D       		.uleb128 0x1d
 2368 08b1 7600     		.ascii	"v\000"
 2369 08b3 01       		.byte	0x1
 2370 08b4 E5       		.byte	0xe5
 2371 08b5 49000000 		.4byte	0x49
 2372 08b9 00       		.byte	0x0
 2373 08ba 1E       		.uleb128 0x1e
 2374 08bb 00000000 		.4byte	.LASF131
 2375 08bf 01       		.byte	0x1
 2376 08c0 EC       		.byte	0xec
 2377 08c1 01       		.byte	0x1
 2378 08c2 01       		.byte	0x1
 2379 08c3 1B       		.uleb128 0x1b
 2380 08c4 8D030000 		.4byte	.LASF107
 2381 08c8 01       		.byte	0x1
 2382 08c9 55       		.byte	0x55
 2383 08ca 01       		.byte	0x1
 2384 08cb 01       		.byte	0x1
 2385 08cc 05090000 		.4byte	0x905
 2386 08d0 1D       		.uleb128 0x1d
 2387 08d1 62756600 		.ascii	"buf\000"
 2388 08d5 01       		.byte	0x1
 2389 08d6 55       		.byte	0x55
 2390 08d7 E8040000 		.4byte	0x4e8
 2391 08db 1D       		.uleb128 0x1d
 2392 08dc 737A00   		.ascii	"sz\000"
 2393 08df 01       		.byte	0x1
 2394 08e0 55       		.byte	0x55
 2395 08e1 29000000 		.4byte	0x29
 2396 08e5 1F       		.uleb128 0x1f
 2397 08e6 6900     		.ascii	"i\000"
 2398 08e8 01       		.byte	0x1
 2399 08e9 57       		.byte	0x57
 2400 08ea 29000000 		.4byte	0x29
 2401 08ee 1F       		.uleb128 0x1f
 2402 08ef 636D6400 		.ascii	"cmd\000"
 2403 08f3 01       		.byte	0x1
 2404 08f4 58       		.byte	0x58
 2405 08f5 49000000 		.4byte	0x49
 2406 08f9 1C       		.uleb128 0x1c
 2407 08fa 57040000 		.4byte	.LASF108
 2408 08fe 01       		.byte	0x1
 2409 08ff 5A       		.byte	0x5a
 2410 0900 E8040000 		.4byte	0x4e8
 2411 0904 00       		.byte	0x0
 2412 0905 20       		.uleb128 0x20
 2413 0906 BB030000 		.4byte	.LASF109
 2414 090a 01       		.byte	0x1
 2415 090b DA       		.byte	0xda
ARM GAS  /tmp/ccJOsmUH.s 			page 44


 2416 090c 01       		.byte	0x1
 2417 090d 00000000 		.4byte	.LFB77
 2418 0911 14000000 		.4byte	.LFE77
 2419 0915 00000000 		.4byte	.LLST0
 2420 0919 36090000 		.4byte	0x936
 2421 091d 21       		.uleb128 0x21
 2422 091e 1E050000 		.4byte	.LASF111
 2423 0922 01       		.byte	0x1
 2424 0923 DA       		.byte	0xda
 2425 0924 E8040000 		.4byte	0x4e8
 2426 0928 20000000 		.4byte	.LLST1
 2427 092c 1F       		.uleb128 0x1f
 2428 092d 7100     		.ascii	"q\000"
 2429 092f 01       		.byte	0x1
 2430 0930 DD       		.byte	0xdd
 2431 0931 36090000 		.4byte	0x936
 2432 0935 00       		.byte	0x0
 2433 0936 09       		.uleb128 0x9
 2434 0937 04       		.byte	0x4
 2435 0938 F9040000 		.4byte	0x4f9
 2436 093c 20       		.uleb128 0x20
 2437 093d 64000000 		.4byte	.LASF110
 2438 0941 01       		.byte	0x1
 2439 0942 D3       		.byte	0xd3
 2440 0943 01       		.byte	0x1
 2441 0944 00000000 		.4byte	.LFB76
 2442 0948 14000000 		.4byte	.LFE76
 2443 094c 33000000 		.4byte	.LLST2
 2444 0950 6D090000 		.4byte	0x96d
 2445 0954 21       		.uleb128 0x21
 2446 0955 1E050000 		.4byte	.LASF111
 2447 0959 01       		.byte	0x1
 2448 095a D3       		.byte	0xd3
 2449 095b E8040000 		.4byte	0x4e8
 2450 095f 53000000 		.4byte	.LLST3
 2451 0963 1F       		.uleb128 0x1f
 2452 0964 7100     		.ascii	"q\000"
 2453 0966 01       		.byte	0x1
 2454 0967 D6       		.byte	0xd6
 2455 0968 36090000 		.4byte	0x936
 2456 096c 00       		.byte	0x0
 2457 096d 20       		.uleb128 0x20
 2458 096e 6F020000 		.4byte	.LASF112
 2459 0972 01       		.byte	0x1
 2460 0973 CC       		.byte	0xcc
 2461 0974 01       		.byte	0x1
 2462 0975 00000000 		.4byte	.LFB75
 2463 0979 14000000 		.4byte	.LFE75
 2464 097d 66000000 		.4byte	.LLST4
 2465 0981 9E090000 		.4byte	0x99e
 2466 0985 21       		.uleb128 0x21
 2467 0986 1E050000 		.4byte	.LASF111
 2468 098a 01       		.byte	0x1
 2469 098b CC       		.byte	0xcc
 2470 098c E8040000 		.4byte	0x4e8
 2471 0990 86000000 		.4byte	.LLST5
 2472 0994 1F       		.uleb128 0x1f
ARM GAS  /tmp/ccJOsmUH.s 			page 45


 2473 0995 7100     		.ascii	"q\000"
 2474 0997 01       		.byte	0x1
 2475 0998 CF       		.byte	0xcf
 2476 0999 36090000 		.4byte	0x936
 2477 099d 00       		.byte	0x0
 2478 099e 22       		.uleb128 0x22
 2479 099f 84000000 		.4byte	.LASF113
 2480 09a3 01       		.byte	0x1
 2481 09a4 C7       		.byte	0xc7
 2482 09a5 01       		.byte	0x1
 2483 09a6 00000000 		.4byte	.LFB74
 2484 09aa 06000000 		.4byte	.LFE74
 2485 09ae 02       		.byte	0x2
 2486 09af 7D       		.byte	0x7d
 2487 09b0 00       		.sleb128 0
 2488 09b1 C5090000 		.4byte	0x9c5
 2489 09b5 21       		.uleb128 0x21
 2490 09b6 1E050000 		.4byte	.LASF111
 2491 09ba 01       		.byte	0x1
 2492 09bb C7       		.byte	0xc7
 2493 09bc E8040000 		.4byte	0x4e8
 2494 09c0 99000000 		.4byte	.LLST6
 2495 09c4 00       		.byte	0x0
 2496 09c5 22       		.uleb128 0x22
 2497 09c6 C6020000 		.4byte	.LASF114
 2498 09ca 01       		.byte	0x1
 2499 09cb C2       		.byte	0xc2
 2500 09cc 01       		.byte	0x1
 2501 09cd 00000000 		.4byte	.LFB73
 2502 09d1 06000000 		.4byte	.LFE73
 2503 09d5 02       		.byte	0x2
 2504 09d6 7D       		.byte	0x7d
 2505 09d7 00       		.sleb128 0
 2506 09d8 EC090000 		.4byte	0x9ec
 2507 09dc 21       		.uleb128 0x21
 2508 09dd 1E050000 		.4byte	.LASF111
 2509 09e1 01       		.byte	0x1
 2510 09e2 C2       		.byte	0xc2
 2511 09e3 E8040000 		.4byte	0x4e8
 2512 09e7 AC000000 		.4byte	.LLST7
 2513 09eb 00       		.byte	0x0
 2514 09ec 22       		.uleb128 0x22
 2515 09ed 53010000 		.4byte	.LASF115
 2516 09f1 01       		.byte	0x1
 2517 09f2 BD       		.byte	0xbd
 2518 09f3 01       		.byte	0x1
 2519 09f4 00000000 		.4byte	.LFB72
 2520 09f8 06000000 		.4byte	.LFE72
 2521 09fc 02       		.byte	0x2
 2522 09fd 7D       		.byte	0x7d
 2523 09fe 00       		.sleb128 0
 2524 09ff 130A0000 		.4byte	0xa13
 2525 0a03 21       		.uleb128 0x21
 2526 0a04 1E050000 		.4byte	.LASF111
 2527 0a08 01       		.byte	0x1
 2528 0a09 BD       		.byte	0xbd
 2529 0a0a E8040000 		.4byte	0x4e8
ARM GAS  /tmp/ccJOsmUH.s 			page 46


 2530 0a0e BF000000 		.4byte	.LLST8
 2531 0a12 00       		.byte	0x0
 2532 0a13 20       		.uleb128 0x20
 2533 0a14 B5000000 		.4byte	.LASF116
 2534 0a18 01       		.byte	0x1
 2535 0a19 B2       		.byte	0xb2
 2536 0a1a 01       		.byte	0x1
 2537 0a1b 00000000 		.4byte	.LFB71
 2538 0a1f 1C000000 		.4byte	.LFE71
 2539 0a23 D2000000 		.4byte	.LLST9
 2540 0a27 460A0000 		.4byte	0xa46
 2541 0a2b 21       		.uleb128 0x21
 2542 0a2c 1E050000 		.4byte	.LASF111
 2543 0a30 01       		.byte	0x1
 2544 0a31 B2       		.byte	0xb2
 2545 0a32 E8040000 		.4byte	0x4e8
 2546 0a36 F2000000 		.4byte	.LLST10
 2547 0a3a 1C       		.uleb128 0x1c
 2548 0a3b 38000000 		.4byte	.LASF117
 2549 0a3f 01       		.byte	0x1
 2550 0a40 B5       		.byte	0xb5
 2551 0a41 86000000 		.4byte	0x86
 2552 0a45 00       		.byte	0x0
 2553 0a46 20       		.uleb128 0x20
 2554 0a47 06010000 		.4byte	.LASF118
 2555 0a4b 01       		.byte	0x1
 2556 0a4c 8A       		.byte	0x8a
 2557 0a4d 01       		.byte	0x1
 2558 0a4e 00000000 		.4byte	.LFB67
 2559 0a52 38010000 		.4byte	.LFE67
 2560 0a56 05010000 		.4byte	.LLST11
 2561 0a5a 190B0000 		.4byte	0xb19
 2562 0a5e 23       		.uleb128 0x23
 2563 0a5f 7100     		.ascii	"q\000"
 2564 0a61 01       		.byte	0x1
 2565 0a62 8A       		.byte	0x8a
 2566 0a63 190B0000 		.4byte	0xb19
 2567 0a67 25010000 		.4byte	.LLST12
 2568 0a6b 24       		.uleb128 0x24
 2569 0a6c 6D736700 		.ascii	"msg\000"
 2570 0a70 01       		.byte	0x1
 2571 0a71 8C       		.byte	0x8c
 2572 0a72 E8000000 		.4byte	0xe8
 2573 0a76 43010000 		.4byte	.LLST13
 2574 0a7a 25       		.uleb128 0x25
 2575 0a7b C0010000 		.4byte	.LASF119
 2576 0a7f 01       		.byte	0x1
 2577 0a80 8D       		.byte	0x8d
 2578 0a81 49000000 		.4byte	0x49
 2579 0a85 7B010000 		.4byte	.LLST14
 2580 0a89 26       		.uleb128 0x26
 2581 0a8a 636E7400 		.ascii	"cnt\000"
 2582 0a8e 01       		.byte	0x1
 2583 0a8f 8E       		.byte	0x8e
 2584 0a90 30000000 		.4byte	0x30
 2585 0a94 01       		.byte	0x1
 2586 0a95 55       		.byte	0x55
ARM GAS  /tmp/ccJOsmUH.s 			page 47


 2587 0a96 24       		.uleb128 0x24
 2588 0a97 6900     		.ascii	"i\000"
 2589 0a99 01       		.byte	0x1
 2590 0a9a 8E       		.byte	0x8e
 2591 0a9b 30000000 		.4byte	0x30
 2592 0a9f E7010000 		.4byte	.LLST15
 2593 0aa3 27       		.uleb128 0x27
 2594 0aa4 00000000 		.4byte	.Ldebug_ranges0+0x0
 2595 0aa8 BC0A0000 		.4byte	0xabc
 2596 0aac 24       		.uleb128 0x24
 2597 0aad 746D7000 		.ascii	"tmp\000"
 2598 0ab1 01       		.byte	0x1
 2599 0ab2 8F       		.byte	0x8f
 2600 0ab3 86000000 		.4byte	0x86
 2601 0ab7 07020000 		.4byte	.LLST16
 2602 0abb 00       		.byte	0x0
 2603 0abc 28       		.uleb128 0x28
 2604 0abd 1A000000 		.4byte	.LBB19
 2605 0ac1 20000000 		.4byte	.LBE19
 2606 0ac5 D90A0000 		.4byte	0xad9
 2607 0ac9 24       		.uleb128 0x24
 2608 0aca 746D7000 		.ascii	"tmp\000"
 2609 0ace 01       		.byte	0x1
 2610 0acf 91       		.byte	0x91
 2611 0ad0 86000000 		.4byte	0x86
 2612 0ad4 1A020000 		.4byte	.LLST17
 2613 0ad8 00       		.byte	0x0
 2614 0ad9 27       		.uleb128 0x27
 2615 0ada 18000000 		.4byte	.Ldebug_ranges0+0x18
 2616 0ade 090B0000 		.4byte	0xb09
 2617 0ae2 24       		.uleb128 0x24
 2618 0ae3 7600     		.ascii	"v\000"
 2619 0ae5 01       		.byte	0x1
 2620 0ae6 96       		.byte	0x96
 2621 0ae7 49000000 		.4byte	0x49
 2622 0aeb 38020000 		.4byte	.LLST18
 2623 0aef 29       		.uleb128 0x29
 2624 0af0 A3080000 		.4byte	0x8a3
 2625 0af4 40000000 		.4byte	.LBB24
 2626 0af8 58000000 		.4byte	.Ldebug_ranges0+0x58
 2627 0afc 01       		.byte	0x1
 2628 0afd 98       		.byte	0x98
 2629 0afe 2A       		.uleb128 0x2a
 2630 0aff B0080000 		.4byte	0x8b0
 2631 0b03 7A020000 		.4byte	.LLST19
 2632 0b07 00       		.byte	0x0
 2633 0b08 00       		.byte	0x0
 2634 0b09 2B       		.uleb128 0x2b
 2635 0b0a BA080000 		.4byte	0x8ba
 2636 0b0e D6000000 		.4byte	.LBB42
 2637 0b12 A0000000 		.4byte	.Ldebug_ranges0+0xa0
 2638 0b16 01       		.byte	0x1
 2639 0b17 9A       		.byte	0x9a
 2640 0b18 00       		.byte	0x0
 2641 0b19 09       		.uleb128 0x9
 2642 0b1a 04       		.byte	0x4
 2643 0b1b EE040000 		.4byte	0x4ee
ARM GAS  /tmp/ccJOsmUH.s 			page 48


 2644 0b1f 20       		.uleb128 0x20
 2645 0b20 F5010000 		.4byte	.LASF120
 2646 0b24 01       		.byte	0x1
 2647 0b25 AB       		.byte	0xab
 2648 0b26 01       		.byte	0x1
 2649 0b27 00000000 		.4byte	.LFB70
 2650 0b2b 0E000000 		.4byte	.LFE70
 2651 0b2f BC020000 		.4byte	.LLST20
 2652 0b33 500B0000 		.4byte	0xb50
 2653 0b37 21       		.uleb128 0x21
 2654 0b38 1E050000 		.4byte	.LASF111
 2655 0b3c 01       		.byte	0x1
 2656 0b3d AB       		.byte	0xab
 2657 0b3e E8040000 		.4byte	0x4e8
 2658 0b42 DC020000 		.4byte	.LLST21
 2659 0b46 1F       		.uleb128 0x1f
 2660 0b47 7100     		.ascii	"q\000"
 2661 0b49 01       		.byte	0x1
 2662 0b4a AE       		.byte	0xae
 2663 0b4b 190B0000 		.4byte	0xb19
 2664 0b4f 00       		.byte	0x0
 2665 0b50 20       		.uleb128 0x20
 2666 0b51 46030000 		.4byte	.LASF121
 2667 0b55 01       		.byte	0x1
 2668 0b56 A4       		.byte	0xa4
 2669 0b57 01       		.byte	0x1
 2670 0b58 00000000 		.4byte	.LFB69
 2671 0b5c 0E000000 		.4byte	.LFE69
 2672 0b60 EF020000 		.4byte	.LLST22
 2673 0b64 810B0000 		.4byte	0xb81
 2674 0b68 21       		.uleb128 0x21
 2675 0b69 1E050000 		.4byte	.LASF111
 2676 0b6d 01       		.byte	0x1
 2677 0b6e A4       		.byte	0xa4
 2678 0b6f E8040000 		.4byte	0x4e8
 2679 0b73 0F030000 		.4byte	.LLST23
 2680 0b77 1F       		.uleb128 0x1f
 2681 0b78 7100     		.ascii	"q\000"
 2682 0b7a 01       		.byte	0x1
 2683 0b7b A7       		.byte	0xa7
 2684 0b7c 190B0000 		.4byte	0xb19
 2685 0b80 00       		.byte	0x0
 2686 0b81 20       		.uleb128 0x20
 2687 0b82 7D040000 		.4byte	.LASF122
 2688 0b86 01       		.byte	0x1
 2689 0b87 9D       		.byte	0x9d
 2690 0b88 01       		.byte	0x1
 2691 0b89 00000000 		.4byte	.LFB68
 2692 0b8d 0E000000 		.4byte	.LFE68
 2693 0b91 22030000 		.4byte	.LLST24
 2694 0b95 B20B0000 		.4byte	0xbb2
 2695 0b99 21       		.uleb128 0x21
 2696 0b9a 1E050000 		.4byte	.LASF111
 2697 0b9e 01       		.byte	0x1
 2698 0b9f 9D       		.byte	0x9d
 2699 0ba0 E8040000 		.4byte	0x4e8
 2700 0ba4 42030000 		.4byte	.LLST25
ARM GAS  /tmp/ccJOsmUH.s 			page 49


 2701 0ba8 1F       		.uleb128 0x1f
 2702 0ba9 7100     		.ascii	"q\000"
 2703 0bab 01       		.byte	0x1
 2704 0bac A0       		.byte	0xa0
 2705 0bad 190B0000 		.4byte	0xb19
 2706 0bb1 00       		.byte	0x0
 2707 0bb2 2C       		.uleb128 0x2c
 2708 0bb3 01       		.byte	0x1
 2709 0bb4 28040000 		.4byte	.LASF132
 2710 0bb8 01       		.byte	0x1
 2711 0bb9 1E       		.byte	0x1e
 2712 0bba 01       		.byte	0x1
 2713 0bbb 00000000 		.4byte	.LFB62
 2714 0bbf 0C000000 		.4byte	.LFE62
 2715 0bc3 02       		.byte	0x2
 2716 0bc4 7D       		.byte	0x7d
 2717 0bc5 00       		.sleb128 0
 2718 0bc6 2D       		.uleb128 0x2d
 2719 0bc7 01       		.byte	0x1
 2720 0bc8 95020000 		.4byte	.LASF133
 2721 0bcc 01       		.byte	0x1
 2722 0bcd 24       		.byte	0x24
 2723 0bce 01       		.byte	0x1
 2724 0bcf 00000000 		.4byte	.LFB63
 2725 0bd3 34000000 		.4byte	.LFE63
 2726 0bd7 55030000 		.4byte	.LLST26
 2727 0bdb 360C0000 		.4byte	0xc36
 2728 0bdf 2E       		.uleb128 0x2e
 2729 0be0 04000000 		.4byte	.LBB47
 2730 0be4 34000000 		.4byte	.LBE47
 2731 0be8 2F       		.uleb128 0x2f
 2732 0be9 0A050000 		.4byte	.LASF123
 2733 0bed 01       		.byte	0x1
 2734 0bee 28       		.byte	0x28
 2735 0bef 49000000 		.4byte	0x49
 2736 0bf3 00       		.byte	0x0
 2737 0bf4 25       		.uleb128 0x25
 2738 0bf5 91000000 		.4byte	.LASF124
 2739 0bf9 01       		.byte	0x1
 2740 0bfa 29       		.byte	0x29
 2741 0bfb 29000000 		.4byte	0x29
 2742 0bff 75030000 		.4byte	.LLST27
 2743 0c03 24       		.uleb128 0x24
 2744 0c04 6D736700 		.ascii	"msg\000"
 2745 0c08 01       		.byte	0x1
 2746 0c09 2E       		.byte	0x2e
 2747 0c0a E8000000 		.4byte	0xe8
 2748 0c0e 95030000 		.4byte	.LLST28
 2749 0c12 25       		.uleb128 0x25
 2750 0c13 C0010000 		.4byte	.LASF119
 2751 0c17 01       		.byte	0x1
 2752 0c18 30       		.byte	0x30
 2753 0c19 49000000 		.4byte	0x49
 2754 0c1d CD030000 		.4byte	.LLST29
 2755 0c21 30       		.uleb128 0x30
 2756 0c22 B8000000 		.4byte	.Ldebug_ranges0+0xb8
 2757 0c26 24       		.uleb128 0x24
ARM GAS  /tmp/ccJOsmUH.s 			page 50


 2758 0c27 7600     		.ascii	"v\000"
 2759 0c29 01       		.byte	0x1
 2760 0c2a 33       		.byte	0x33
 2761 0c2b 49000000 		.4byte	0x49
 2762 0c2f 39040000 		.4byte	.LLST30
 2763 0c33 00       		.byte	0x0
 2764 0c34 00       		.byte	0x0
 2765 0c35 00       		.byte	0x0
 2766 0c36 31       		.uleb128 0x31
 2767 0c37 01       		.byte	0x1
 2768 0c38 72000000 		.4byte	.LASF134
 2769 0c3c 01       		.byte	0x1
 2770 0c3d 4E       		.byte	0x4e
 2771 0c3e 01       		.byte	0x1
 2772 0c3f E8040000 		.4byte	0x4e8
 2773 0c43 00000000 		.4byte	.LFB64
 2774 0c47 08000000 		.4byte	.LFE64
 2775 0c4b 02       		.byte	0x2
 2776 0c4c 7D       		.byte	0x7d
 2777 0c4d 00       		.sleb128 0
 2778 0c4e 32       		.uleb128 0x32
 2779 0c4f 9B000000 		.4byte	.LASF125
 2780 0c53 0F       		.byte	0xf
 2781 0c54 9404     		.2byte	0x494
 2782 0c56 2E060000 		.4byte	0x62e
 2783 0c5a 01       		.byte	0x1
 2784 0c5b 01       		.byte	0x1
 2785 0c5c 33       		.uleb128 0x33
 2786 0c5d 53443100 		.ascii	"SD1\000"
 2787 0c61 10       		.byte	0x10
 2788 0c62 FB       		.byte	0xfb
 2789 0c63 3F070000 		.4byte	0x73f
 2790 0c67 01       		.byte	0x1
 2791 0c68 01       		.byte	0x1
 2792 0c69 19       		.uleb128 0x19
 2793 0c6a 49000000 		.4byte	0x49
 2794 0c6e 790C0000 		.4byte	0xc79
 2795 0c72 1A       		.uleb128 0x1a
 2796 0c73 3B000000 		.4byte	0x3b
 2797 0c77 1F       		.byte	0x1f
 2798 0c78 00       		.byte	0x0
 2799 0c79 34       		.uleb128 0x34
 2800 0c7a 50040000 		.4byte	.LASF126
 2801 0c7e 01       		.byte	0x1
 2802 0c7f 15       		.byte	0x15
 2803 0c80 690C0000 		.4byte	0xc69
 2804 0c84 05       		.byte	0x5
 2805 0c85 03       		.byte	0x3
 2806 0c86 00000000 		.4byte	buffer
 2807 0c8a 34       		.uleb128 0x34
 2808 0c8b 1E050000 		.4byte	.LASF111
 2809 0c8f 01       		.byte	0x1
 2810 0c90 16       		.byte	0x16
 2811 0c91 690C0000 		.4byte	0xc69
 2812 0c95 05       		.byte	0x5
 2813 0c96 03       		.byte	0x3
 2814 0c97 00000000 		.4byte	args
ARM GAS  /tmp/ccJOsmUH.s 			page 51


 2815 0c9b 19       		.uleb128 0x19
 2816 0c9c 0C060000 		.4byte	0x60c
 2817 0ca0 AB0C0000 		.4byte	0xcab
 2818 0ca4 1A       		.uleb128 0x1a
 2819 0ca5 3B000000 		.4byte	0x3b
 2820 0ca9 09       		.byte	0x9
 2821 0caa 00       		.byte	0x0
 2822 0cab 1C       		.uleb128 0x1c
 2823 0cac 20000000 		.4byte	.LASF127
 2824 0cb0 01       		.byte	0x1
 2825 0cb1 73       		.byte	0x73
 2826 0cb2 9B0C0000 		.4byte	0xc9b
 2827 0cb6 32       		.uleb128 0x32
 2828 0cb7 9B000000 		.4byte	.LASF125
 2829 0cbb 0F       		.byte	0xf
 2830 0cbc 9404     		.2byte	0x494
 2831 0cbe 2E060000 		.4byte	0x62e
 2832 0cc2 01       		.byte	0x1
 2833 0cc3 01       		.byte	0x1
 2834 0cc4 33       		.uleb128 0x33
 2835 0cc5 53443100 		.ascii	"SD1\000"
 2836 0cc9 10       		.byte	0x10
 2837 0cca FB       		.byte	0xfb
 2838 0ccb 3F070000 		.4byte	0x73f
 2839 0ccf 01       		.byte	0x1
 2840 0cd0 01       		.byte	0x1
 2841 0cd1 00       		.byte	0x0
 2842              		.section	.debug_abbrev
 2843 0000 01       		.uleb128 0x1
 2844 0001 11       		.uleb128 0x11
 2845 0002 01       		.byte	0x1
 2846 0003 25       		.uleb128 0x25
 2847 0004 0E       		.uleb128 0xe
 2848 0005 13       		.uleb128 0x13
 2849 0006 0B       		.uleb128 0xb
 2850 0007 03       		.uleb128 0x3
 2851 0008 0E       		.uleb128 0xe
 2852 0009 1B       		.uleb128 0x1b
 2853 000a 0E       		.uleb128 0xe
 2854 000b 11       		.uleb128 0x11
 2855 000c 01       		.uleb128 0x1
 2856 000d 52       		.uleb128 0x52
 2857 000e 01       		.uleb128 0x1
 2858 000f 55       		.uleb128 0x55
 2859 0010 06       		.uleb128 0x6
 2860 0011 10       		.uleb128 0x10
 2861 0012 06       		.uleb128 0x6
 2862 0013 00       		.byte	0x0
 2863 0014 00       		.byte	0x0
 2864 0015 02       		.uleb128 0x2
 2865 0016 24       		.uleb128 0x24
 2866 0017 00       		.byte	0x0
 2867 0018 0B       		.uleb128 0xb
 2868 0019 0B       		.uleb128 0xb
 2869 001a 3E       		.uleb128 0x3e
 2870 001b 0B       		.uleb128 0xb
 2871 001c 03       		.uleb128 0x3
ARM GAS  /tmp/ccJOsmUH.s 			page 52


 2872 001d 08       		.uleb128 0x8
 2873 001e 00       		.byte	0x0
 2874 001f 00       		.byte	0x0
 2875 0020 03       		.uleb128 0x3
 2876 0021 16       		.uleb128 0x16
 2877 0022 00       		.byte	0x0
 2878 0023 03       		.uleb128 0x3
 2879 0024 0E       		.uleb128 0xe
 2880 0025 3A       		.uleb128 0x3a
 2881 0026 0B       		.uleb128 0xb
 2882 0027 3B       		.uleb128 0x3b
 2883 0028 0B       		.uleb128 0xb
 2884 0029 49       		.uleb128 0x49
 2885 002a 13       		.uleb128 0x13
 2886 002b 00       		.byte	0x0
 2887 002c 00       		.byte	0x0
 2888 002d 04       		.uleb128 0x4
 2889 002e 24       		.uleb128 0x24
 2890 002f 00       		.byte	0x0
 2891 0030 0B       		.uleb128 0xb
 2892 0031 0B       		.uleb128 0xb
 2893 0032 3E       		.uleb128 0x3e
 2894 0033 0B       		.uleb128 0xb
 2895 0034 03       		.uleb128 0x3
 2896 0035 0E       		.uleb128 0xe
 2897 0036 00       		.byte	0x0
 2898 0037 00       		.byte	0x0
 2899 0038 05       		.uleb128 0x5
 2900 0039 13       		.uleb128 0x13
 2901 003a 01       		.byte	0x1
 2902 003b 03       		.uleb128 0x3
 2903 003c 0E       		.uleb128 0xe
 2904 003d 0B       		.uleb128 0xb
 2905 003e 0B       		.uleb128 0xb
 2906 003f 3A       		.uleb128 0x3a
 2907 0040 0B       		.uleb128 0xb
 2908 0041 3B       		.uleb128 0x3b
 2909 0042 0B       		.uleb128 0xb
 2910 0043 01       		.uleb128 0x1
 2911 0044 13       		.uleb128 0x13
 2912 0045 00       		.byte	0x0
 2913 0046 00       		.byte	0x0
 2914 0047 06       		.uleb128 0x6
 2915 0048 0D       		.uleb128 0xd
 2916 0049 00       		.byte	0x0
 2917 004a 03       		.uleb128 0x3
 2918 004b 0E       		.uleb128 0xe
 2919 004c 3A       		.uleb128 0x3a
 2920 004d 0B       		.uleb128 0xb
 2921 004e 3B       		.uleb128 0x3b
 2922 004f 0B       		.uleb128 0xb
 2923 0050 49       		.uleb128 0x49
 2924 0051 13       		.uleb128 0x13
 2925 0052 38       		.uleb128 0x38
 2926 0053 0A       		.uleb128 0xa
 2927 0054 00       		.byte	0x0
 2928 0055 00       		.byte	0x0
ARM GAS  /tmp/ccJOsmUH.s 			page 53


 2929 0056 07       		.uleb128 0x7
 2930 0057 0D       		.uleb128 0xd
 2931 0058 00       		.byte	0x0
 2932 0059 03       		.uleb128 0x3
 2933 005a 08       		.uleb128 0x8
 2934 005b 3A       		.uleb128 0x3a
 2935 005c 0B       		.uleb128 0xb
 2936 005d 3B       		.uleb128 0x3b
 2937 005e 0B       		.uleb128 0xb
 2938 005f 49       		.uleb128 0x49
 2939 0060 13       		.uleb128 0x13
 2940 0061 38       		.uleb128 0x38
 2941 0062 0A       		.uleb128 0xa
 2942 0063 00       		.byte	0x0
 2943 0064 00       		.byte	0x0
 2944 0065 08       		.uleb128 0x8
 2945 0066 13       		.uleb128 0x13
 2946 0067 01       		.byte	0x1
 2947 0068 0B       		.uleb128 0xb
 2948 0069 0B       		.uleb128 0xb
 2949 006a 3A       		.uleb128 0x3a
 2950 006b 0B       		.uleb128 0xb
 2951 006c 3B       		.uleb128 0x3b
 2952 006d 0B       		.uleb128 0xb
 2953 006e 01       		.uleb128 0x1
 2954 006f 13       		.uleb128 0x13
 2955 0070 00       		.byte	0x0
 2956 0071 00       		.byte	0x0
 2957 0072 09       		.uleb128 0x9
 2958 0073 0F       		.uleb128 0xf
 2959 0074 00       		.byte	0x0
 2960 0075 0B       		.uleb128 0xb
 2961 0076 0B       		.uleb128 0xb
 2962 0077 49       		.uleb128 0x49
 2963 0078 13       		.uleb128 0x13
 2964 0079 00       		.byte	0x0
 2965 007a 00       		.byte	0x0
 2966 007b 0A       		.uleb128 0xa
 2967 007c 0F       		.uleb128 0xf
 2968 007d 00       		.byte	0x0
 2969 007e 0B       		.uleb128 0xb
 2970 007f 0B       		.uleb128 0xb
 2971 0080 00       		.byte	0x0
 2972 0081 00       		.byte	0x0
 2973 0082 0B       		.uleb128 0xb
 2974 0083 0D       		.uleb128 0xd
 2975 0084 00       		.byte	0x0
 2976 0085 03       		.uleb128 0x3
 2977 0086 08       		.uleb128 0x8
 2978 0087 3A       		.uleb128 0x3a
 2979 0088 0B       		.uleb128 0xb
 2980 0089 3B       		.uleb128 0x3b
 2981 008a 05       		.uleb128 0x5
 2982 008b 49       		.uleb128 0x49
 2983 008c 13       		.uleb128 0x13
 2984 008d 38       		.uleb128 0x38
 2985 008e 0A       		.uleb128 0xa
ARM GAS  /tmp/ccJOsmUH.s 			page 54


 2986 008f 00       		.byte	0x0
 2987 0090 00       		.byte	0x0
 2988 0091 0C       		.uleb128 0xc
 2989 0092 13       		.uleb128 0x13
 2990 0093 01       		.byte	0x1
 2991 0094 03       		.uleb128 0x3
 2992 0095 0E       		.uleb128 0xe
 2993 0096 0B       		.uleb128 0xb
 2994 0097 0B       		.uleb128 0xb
 2995 0098 3A       		.uleb128 0x3a
 2996 0099 0B       		.uleb128 0xb
 2997 009a 3B       		.uleb128 0x3b
 2998 009b 05       		.uleb128 0x5
 2999 009c 01       		.uleb128 0x1
 3000 009d 13       		.uleb128 0x13
 3001 009e 00       		.byte	0x0
 3002 009f 00       		.byte	0x0
 3003 00a0 0D       		.uleb128 0xd
 3004 00a1 35       		.uleb128 0x35
 3005 00a2 00       		.byte	0x0
 3006 00a3 49       		.uleb128 0x49
 3007 00a4 13       		.uleb128 0x13
 3008 00a5 00       		.byte	0x0
 3009 00a6 00       		.byte	0x0
 3010 00a7 0E       		.uleb128 0xe
 3011 00a8 17       		.uleb128 0x17
 3012 00a9 01       		.byte	0x1
 3013 00aa 0B       		.uleb128 0xb
 3014 00ab 0B       		.uleb128 0xb
 3015 00ac 3A       		.uleb128 0x3a
 3016 00ad 0B       		.uleb128 0xb
 3017 00ae 3B       		.uleb128 0x3b
 3018 00af 0B       		.uleb128 0xb
 3019 00b0 01       		.uleb128 0x1
 3020 00b1 13       		.uleb128 0x13
 3021 00b2 00       		.byte	0x0
 3022 00b3 00       		.byte	0x0
 3023 00b4 0F       		.uleb128 0xf
 3024 00b5 0D       		.uleb128 0xd
 3025 00b6 00       		.byte	0x0
 3026 00b7 03       		.uleb128 0x3
 3027 00b8 0E       		.uleb128 0xe
 3028 00b9 3A       		.uleb128 0x3a
 3029 00ba 0B       		.uleb128 0xb
 3030 00bb 3B       		.uleb128 0x3b
 3031 00bc 0B       		.uleb128 0xb
 3032 00bd 49       		.uleb128 0x49
 3033 00be 13       		.uleb128 0x13
 3034 00bf 00       		.byte	0x0
 3035 00c0 00       		.byte	0x0
 3036 00c1 10       		.uleb128 0x10
 3037 00c2 26       		.uleb128 0x26
 3038 00c3 00       		.byte	0x0
 3039 00c4 49       		.uleb128 0x49
 3040 00c5 13       		.uleb128 0x13
 3041 00c6 00       		.byte	0x0
 3042 00c7 00       		.byte	0x0
ARM GAS  /tmp/ccJOsmUH.s 			page 55


 3043 00c8 11       		.uleb128 0x11
 3044 00c9 15       		.uleb128 0x15
 3045 00ca 01       		.byte	0x1
 3046 00cb 27       		.uleb128 0x27
 3047 00cc 0C       		.uleb128 0xc
 3048 00cd 01       		.uleb128 0x1
 3049 00ce 13       		.uleb128 0x13
 3050 00cf 00       		.byte	0x0
 3051 00d0 00       		.byte	0x0
 3052 00d1 12       		.uleb128 0x12
 3053 00d2 05       		.uleb128 0x5
 3054 00d3 00       		.byte	0x0
 3055 00d4 49       		.uleb128 0x49
 3056 00d5 13       		.uleb128 0x13
 3057 00d6 00       		.byte	0x0
 3058 00d7 00       		.byte	0x0
 3059 00d8 13       		.uleb128 0x13
 3060 00d9 15       		.uleb128 0x15
 3061 00da 01       		.byte	0x1
 3062 00db 27       		.uleb128 0x27
 3063 00dc 0C       		.uleb128 0xc
 3064 00dd 49       		.uleb128 0x49
 3065 00de 13       		.uleb128 0x13
 3066 00df 01       		.uleb128 0x1
 3067 00e0 13       		.uleb128 0x13
 3068 00e1 00       		.byte	0x0
 3069 00e2 00       		.byte	0x0
 3070 00e3 14       		.uleb128 0x14
 3071 00e4 16       		.uleb128 0x16
 3072 00e5 00       		.byte	0x0
 3073 00e6 03       		.uleb128 0x3
 3074 00e7 0E       		.uleb128 0xe
 3075 00e8 3A       		.uleb128 0x3a
 3076 00e9 0B       		.uleb128 0xb
 3077 00ea 3B       		.uleb128 0x3b
 3078 00eb 05       		.uleb128 0x5
 3079 00ec 49       		.uleb128 0x49
 3080 00ed 13       		.uleb128 0x13
 3081 00ee 00       		.byte	0x0
 3082 00ef 00       		.byte	0x0
 3083 00f0 15       		.uleb128 0x15
 3084 00f1 13       		.uleb128 0x13
 3085 00f2 01       		.byte	0x1
 3086 00f3 0B       		.uleb128 0xb
 3087 00f4 0B       		.uleb128 0xb
 3088 00f5 3A       		.uleb128 0x3a
 3089 00f6 0B       		.uleb128 0xb
 3090 00f7 3B       		.uleb128 0x3b
 3091 00f8 05       		.uleb128 0x5
 3092 00f9 01       		.uleb128 0x1
 3093 00fa 13       		.uleb128 0x13
 3094 00fb 00       		.byte	0x0
 3095 00fc 00       		.byte	0x0
 3096 00fd 16       		.uleb128 0x16
 3097 00fe 0D       		.uleb128 0xd
 3098 00ff 00       		.byte	0x0
 3099 0100 03       		.uleb128 0x3
ARM GAS  /tmp/ccJOsmUH.s 			page 56


 3100 0101 0E       		.uleb128 0xe
 3101 0102 3A       		.uleb128 0x3a
 3102 0103 0B       		.uleb128 0xb
 3103 0104 3B       		.uleb128 0x3b
 3104 0105 05       		.uleb128 0x5
 3105 0106 49       		.uleb128 0x49
 3106 0107 13       		.uleb128 0x13
 3107 0108 38       		.uleb128 0x38
 3108 0109 0A       		.uleb128 0xa
 3109 010a 00       		.byte	0x0
 3110 010b 00       		.byte	0x0
 3111 010c 17       		.uleb128 0x17
 3112 010d 04       		.uleb128 0x4
 3113 010e 01       		.byte	0x1
 3114 010f 0B       		.uleb128 0xb
 3115 0110 0B       		.uleb128 0xb
 3116 0111 3A       		.uleb128 0x3a
 3117 0112 0B       		.uleb128 0xb
 3118 0113 3B       		.uleb128 0x3b
 3119 0114 0B       		.uleb128 0xb
 3120 0115 01       		.uleb128 0x1
 3121 0116 13       		.uleb128 0x13
 3122 0117 00       		.byte	0x0
 3123 0118 00       		.byte	0x0
 3124 0119 18       		.uleb128 0x18
 3125 011a 28       		.uleb128 0x28
 3126 011b 00       		.byte	0x0
 3127 011c 03       		.uleb128 0x3
 3128 011d 0E       		.uleb128 0xe
 3129 011e 1C       		.uleb128 0x1c
 3130 011f 0D       		.uleb128 0xd
 3131 0120 00       		.byte	0x0
 3132 0121 00       		.byte	0x0
 3133 0122 19       		.uleb128 0x19
 3134 0123 01       		.uleb128 0x1
 3135 0124 01       		.byte	0x1
 3136 0125 49       		.uleb128 0x49
 3137 0126 13       		.uleb128 0x13
 3138 0127 01       		.uleb128 0x1
 3139 0128 13       		.uleb128 0x13
 3140 0129 00       		.byte	0x0
 3141 012a 00       		.byte	0x0
 3142 012b 1A       		.uleb128 0x1a
 3143 012c 21       		.uleb128 0x21
 3144 012d 00       		.byte	0x0
 3145 012e 49       		.uleb128 0x49
 3146 012f 13       		.uleb128 0x13
 3147 0130 2F       		.uleb128 0x2f
 3148 0131 0B       		.uleb128 0xb
 3149 0132 00       		.byte	0x0
 3150 0133 00       		.byte	0x0
 3151 0134 1B       		.uleb128 0x1b
 3152 0135 2E       		.uleb128 0x2e
 3153 0136 01       		.byte	0x1
 3154 0137 03       		.uleb128 0x3
 3155 0138 0E       		.uleb128 0xe
 3156 0139 3A       		.uleb128 0x3a
ARM GAS  /tmp/ccJOsmUH.s 			page 57


 3157 013a 0B       		.uleb128 0xb
 3158 013b 3B       		.uleb128 0x3b
 3159 013c 0B       		.uleb128 0xb
 3160 013d 27       		.uleb128 0x27
 3161 013e 0C       		.uleb128 0xc
 3162 013f 20       		.uleb128 0x20
 3163 0140 0B       		.uleb128 0xb
 3164 0141 01       		.uleb128 0x1
 3165 0142 13       		.uleb128 0x13
 3166 0143 00       		.byte	0x0
 3167 0144 00       		.byte	0x0
 3168 0145 1C       		.uleb128 0x1c
 3169 0146 34       		.uleb128 0x34
 3170 0147 00       		.byte	0x0
 3171 0148 03       		.uleb128 0x3
 3172 0149 0E       		.uleb128 0xe
 3173 014a 3A       		.uleb128 0x3a
 3174 014b 0B       		.uleb128 0xb
 3175 014c 3B       		.uleb128 0x3b
 3176 014d 0B       		.uleb128 0xb
 3177 014e 49       		.uleb128 0x49
 3178 014f 13       		.uleb128 0x13
 3179 0150 00       		.byte	0x0
 3180 0151 00       		.byte	0x0
 3181 0152 1D       		.uleb128 0x1d
 3182 0153 05       		.uleb128 0x5
 3183 0154 00       		.byte	0x0
 3184 0155 03       		.uleb128 0x3
 3185 0156 08       		.uleb128 0x8
 3186 0157 3A       		.uleb128 0x3a
 3187 0158 0B       		.uleb128 0xb
 3188 0159 3B       		.uleb128 0x3b
 3189 015a 0B       		.uleb128 0xb
 3190 015b 49       		.uleb128 0x49
 3191 015c 13       		.uleb128 0x13
 3192 015d 00       		.byte	0x0
 3193 015e 00       		.byte	0x0
 3194 015f 1E       		.uleb128 0x1e
 3195 0160 2E       		.uleb128 0x2e
 3196 0161 00       		.byte	0x0
 3197 0162 03       		.uleb128 0x3
 3198 0163 0E       		.uleb128 0xe
 3199 0164 3A       		.uleb128 0x3a
 3200 0165 0B       		.uleb128 0xb
 3201 0166 3B       		.uleb128 0x3b
 3202 0167 0B       		.uleb128 0xb
 3203 0168 27       		.uleb128 0x27
 3204 0169 0C       		.uleb128 0xc
 3205 016a 20       		.uleb128 0x20
 3206 016b 0B       		.uleb128 0xb
 3207 016c 00       		.byte	0x0
 3208 016d 00       		.byte	0x0
 3209 016e 1F       		.uleb128 0x1f
 3210 016f 34       		.uleb128 0x34
 3211 0170 00       		.byte	0x0
 3212 0171 03       		.uleb128 0x3
 3213 0172 08       		.uleb128 0x8
ARM GAS  /tmp/ccJOsmUH.s 			page 58


 3214 0173 3A       		.uleb128 0x3a
 3215 0174 0B       		.uleb128 0xb
 3216 0175 3B       		.uleb128 0x3b
 3217 0176 0B       		.uleb128 0xb
 3218 0177 49       		.uleb128 0x49
 3219 0178 13       		.uleb128 0x13
 3220 0179 00       		.byte	0x0
 3221 017a 00       		.byte	0x0
 3222 017b 20       		.uleb128 0x20
 3223 017c 2E       		.uleb128 0x2e
 3224 017d 01       		.byte	0x1
 3225 017e 03       		.uleb128 0x3
 3226 017f 0E       		.uleb128 0xe
 3227 0180 3A       		.uleb128 0x3a
 3228 0181 0B       		.uleb128 0xb
 3229 0182 3B       		.uleb128 0x3b
 3230 0183 0B       		.uleb128 0xb
 3231 0184 27       		.uleb128 0x27
 3232 0185 0C       		.uleb128 0xc
 3233 0186 11       		.uleb128 0x11
 3234 0187 01       		.uleb128 0x1
 3235 0188 12       		.uleb128 0x12
 3236 0189 01       		.uleb128 0x1
 3237 018a 40       		.uleb128 0x40
 3238 018b 06       		.uleb128 0x6
 3239 018c 01       		.uleb128 0x1
 3240 018d 13       		.uleb128 0x13
 3241 018e 00       		.byte	0x0
 3242 018f 00       		.byte	0x0
 3243 0190 21       		.uleb128 0x21
 3244 0191 05       		.uleb128 0x5
 3245 0192 00       		.byte	0x0
 3246 0193 03       		.uleb128 0x3
 3247 0194 0E       		.uleb128 0xe
 3248 0195 3A       		.uleb128 0x3a
 3249 0196 0B       		.uleb128 0xb
 3250 0197 3B       		.uleb128 0x3b
 3251 0198 0B       		.uleb128 0xb
 3252 0199 49       		.uleb128 0x49
 3253 019a 13       		.uleb128 0x13
 3254 019b 02       		.uleb128 0x2
 3255 019c 06       		.uleb128 0x6
 3256 019d 00       		.byte	0x0
 3257 019e 00       		.byte	0x0
 3258 019f 22       		.uleb128 0x22
 3259 01a0 2E       		.uleb128 0x2e
 3260 01a1 01       		.byte	0x1
 3261 01a2 03       		.uleb128 0x3
 3262 01a3 0E       		.uleb128 0xe
 3263 01a4 3A       		.uleb128 0x3a
 3264 01a5 0B       		.uleb128 0xb
 3265 01a6 3B       		.uleb128 0x3b
 3266 01a7 0B       		.uleb128 0xb
 3267 01a8 27       		.uleb128 0x27
 3268 01a9 0C       		.uleb128 0xc
 3269 01aa 11       		.uleb128 0x11
 3270 01ab 01       		.uleb128 0x1
ARM GAS  /tmp/ccJOsmUH.s 			page 59


 3271 01ac 12       		.uleb128 0x12
 3272 01ad 01       		.uleb128 0x1
 3273 01ae 40       		.uleb128 0x40
 3274 01af 0A       		.uleb128 0xa
 3275 01b0 01       		.uleb128 0x1
 3276 01b1 13       		.uleb128 0x13
 3277 01b2 00       		.byte	0x0
 3278 01b3 00       		.byte	0x0
 3279 01b4 23       		.uleb128 0x23
 3280 01b5 05       		.uleb128 0x5
 3281 01b6 00       		.byte	0x0
 3282 01b7 03       		.uleb128 0x3
 3283 01b8 08       		.uleb128 0x8
 3284 01b9 3A       		.uleb128 0x3a
 3285 01ba 0B       		.uleb128 0xb
 3286 01bb 3B       		.uleb128 0x3b
 3287 01bc 0B       		.uleb128 0xb
 3288 01bd 49       		.uleb128 0x49
 3289 01be 13       		.uleb128 0x13
 3290 01bf 02       		.uleb128 0x2
 3291 01c0 06       		.uleb128 0x6
 3292 01c1 00       		.byte	0x0
 3293 01c2 00       		.byte	0x0
 3294 01c3 24       		.uleb128 0x24
 3295 01c4 34       		.uleb128 0x34
 3296 01c5 00       		.byte	0x0
 3297 01c6 03       		.uleb128 0x3
 3298 01c7 08       		.uleb128 0x8
 3299 01c8 3A       		.uleb128 0x3a
 3300 01c9 0B       		.uleb128 0xb
 3301 01ca 3B       		.uleb128 0x3b
 3302 01cb 0B       		.uleb128 0xb
 3303 01cc 49       		.uleb128 0x49
 3304 01cd 13       		.uleb128 0x13
 3305 01ce 02       		.uleb128 0x2
 3306 01cf 06       		.uleb128 0x6
 3307 01d0 00       		.byte	0x0
 3308 01d1 00       		.byte	0x0
 3309 01d2 25       		.uleb128 0x25
 3310 01d3 34       		.uleb128 0x34
 3311 01d4 00       		.byte	0x0
 3312 01d5 03       		.uleb128 0x3
 3313 01d6 0E       		.uleb128 0xe
 3314 01d7 3A       		.uleb128 0x3a
 3315 01d8 0B       		.uleb128 0xb
 3316 01d9 3B       		.uleb128 0x3b
 3317 01da 0B       		.uleb128 0xb
 3318 01db 49       		.uleb128 0x49
 3319 01dc 13       		.uleb128 0x13
 3320 01dd 02       		.uleb128 0x2
 3321 01de 06       		.uleb128 0x6
 3322 01df 00       		.byte	0x0
 3323 01e0 00       		.byte	0x0
 3324 01e1 26       		.uleb128 0x26
 3325 01e2 34       		.uleb128 0x34
 3326 01e3 00       		.byte	0x0
 3327 01e4 03       		.uleb128 0x3
ARM GAS  /tmp/ccJOsmUH.s 			page 60


 3328 01e5 08       		.uleb128 0x8
 3329 01e6 3A       		.uleb128 0x3a
 3330 01e7 0B       		.uleb128 0xb
 3331 01e8 3B       		.uleb128 0x3b
 3332 01e9 0B       		.uleb128 0xb
 3333 01ea 49       		.uleb128 0x49
 3334 01eb 13       		.uleb128 0x13
 3335 01ec 02       		.uleb128 0x2
 3336 01ed 0A       		.uleb128 0xa
 3337 01ee 00       		.byte	0x0
 3338 01ef 00       		.byte	0x0
 3339 01f0 27       		.uleb128 0x27
 3340 01f1 0B       		.uleb128 0xb
 3341 01f2 01       		.byte	0x1
 3342 01f3 55       		.uleb128 0x55
 3343 01f4 06       		.uleb128 0x6
 3344 01f5 01       		.uleb128 0x1
 3345 01f6 13       		.uleb128 0x13
 3346 01f7 00       		.byte	0x0
 3347 01f8 00       		.byte	0x0
 3348 01f9 28       		.uleb128 0x28
 3349 01fa 0B       		.uleb128 0xb
 3350 01fb 01       		.byte	0x1
 3351 01fc 11       		.uleb128 0x11
 3352 01fd 01       		.uleb128 0x1
 3353 01fe 12       		.uleb128 0x12
 3354 01ff 01       		.uleb128 0x1
 3355 0200 01       		.uleb128 0x1
 3356 0201 13       		.uleb128 0x13
 3357 0202 00       		.byte	0x0
 3358 0203 00       		.byte	0x0
 3359 0204 29       		.uleb128 0x29
 3360 0205 1D       		.uleb128 0x1d
 3361 0206 01       		.byte	0x1
 3362 0207 31       		.uleb128 0x31
 3363 0208 13       		.uleb128 0x13
 3364 0209 52       		.uleb128 0x52
 3365 020a 01       		.uleb128 0x1
 3366 020b 55       		.uleb128 0x55
 3367 020c 06       		.uleb128 0x6
 3368 020d 58       		.uleb128 0x58
 3369 020e 0B       		.uleb128 0xb
 3370 020f 59       		.uleb128 0x59
 3371 0210 0B       		.uleb128 0xb
 3372 0211 00       		.byte	0x0
 3373 0212 00       		.byte	0x0
 3374 0213 2A       		.uleb128 0x2a
 3375 0214 05       		.uleb128 0x5
 3376 0215 00       		.byte	0x0
 3377 0216 31       		.uleb128 0x31
 3378 0217 13       		.uleb128 0x13
 3379 0218 02       		.uleb128 0x2
 3380 0219 06       		.uleb128 0x6
 3381 021a 00       		.byte	0x0
 3382 021b 00       		.byte	0x0
 3383 021c 2B       		.uleb128 0x2b
 3384 021d 1D       		.uleb128 0x1d
ARM GAS  /tmp/ccJOsmUH.s 			page 61


 3385 021e 00       		.byte	0x0
 3386 021f 31       		.uleb128 0x31
 3387 0220 13       		.uleb128 0x13
 3388 0221 52       		.uleb128 0x52
 3389 0222 01       		.uleb128 0x1
 3390 0223 55       		.uleb128 0x55
 3391 0224 06       		.uleb128 0x6
 3392 0225 58       		.uleb128 0x58
 3393 0226 0B       		.uleb128 0xb
 3394 0227 59       		.uleb128 0x59
 3395 0228 0B       		.uleb128 0xb
 3396 0229 00       		.byte	0x0
 3397 022a 00       		.byte	0x0
 3398 022b 2C       		.uleb128 0x2c
 3399 022c 2E       		.uleb128 0x2e
 3400 022d 00       		.byte	0x0
 3401 022e 3F       		.uleb128 0x3f
 3402 022f 0C       		.uleb128 0xc
 3403 0230 03       		.uleb128 0x3
 3404 0231 0E       		.uleb128 0xe
 3405 0232 3A       		.uleb128 0x3a
 3406 0233 0B       		.uleb128 0xb
 3407 0234 3B       		.uleb128 0x3b
 3408 0235 0B       		.uleb128 0xb
 3409 0236 27       		.uleb128 0x27
 3410 0237 0C       		.uleb128 0xc
 3411 0238 11       		.uleb128 0x11
 3412 0239 01       		.uleb128 0x1
 3413 023a 12       		.uleb128 0x12
 3414 023b 01       		.uleb128 0x1
 3415 023c 40       		.uleb128 0x40
 3416 023d 0A       		.uleb128 0xa
 3417 023e 00       		.byte	0x0
 3418 023f 00       		.byte	0x0
 3419 0240 2D       		.uleb128 0x2d
 3420 0241 2E       		.uleb128 0x2e
 3421 0242 01       		.byte	0x1
 3422 0243 3F       		.uleb128 0x3f
 3423 0244 0C       		.uleb128 0xc
 3424 0245 03       		.uleb128 0x3
 3425 0246 0E       		.uleb128 0xe
 3426 0247 3A       		.uleb128 0x3a
 3427 0248 0B       		.uleb128 0xb
 3428 0249 3B       		.uleb128 0x3b
 3429 024a 0B       		.uleb128 0xb
 3430 024b 27       		.uleb128 0x27
 3431 024c 0C       		.uleb128 0xc
 3432 024d 11       		.uleb128 0x11
 3433 024e 01       		.uleb128 0x1
 3434 024f 12       		.uleb128 0x12
 3435 0250 01       		.uleb128 0x1
 3436 0251 40       		.uleb128 0x40
 3437 0252 06       		.uleb128 0x6
 3438 0253 01       		.uleb128 0x1
 3439 0254 13       		.uleb128 0x13
 3440 0255 00       		.byte	0x0
 3441 0256 00       		.byte	0x0
ARM GAS  /tmp/ccJOsmUH.s 			page 62


 3442 0257 2E       		.uleb128 0x2e
 3443 0258 0B       		.uleb128 0xb
 3444 0259 01       		.byte	0x1
 3445 025a 11       		.uleb128 0x11
 3446 025b 01       		.uleb128 0x1
 3447 025c 12       		.uleb128 0x12
 3448 025d 01       		.uleb128 0x1
 3449 025e 00       		.byte	0x0
 3450 025f 00       		.byte	0x0
 3451 0260 2F       		.uleb128 0x2f
 3452 0261 34       		.uleb128 0x34
 3453 0262 00       		.byte	0x0
 3454 0263 03       		.uleb128 0x3
 3455 0264 0E       		.uleb128 0xe
 3456 0265 3A       		.uleb128 0x3a
 3457 0266 0B       		.uleb128 0xb
 3458 0267 3B       		.uleb128 0x3b
 3459 0268 0B       		.uleb128 0xb
 3460 0269 49       		.uleb128 0x49
 3461 026a 13       		.uleb128 0x13
 3462 026b 1C       		.uleb128 0x1c
 3463 026c 0B       		.uleb128 0xb
 3464 026d 00       		.byte	0x0
 3465 026e 00       		.byte	0x0
 3466 026f 30       		.uleb128 0x30
 3467 0270 0B       		.uleb128 0xb
 3468 0271 01       		.byte	0x1
 3469 0272 55       		.uleb128 0x55
 3470 0273 06       		.uleb128 0x6
 3471 0274 00       		.byte	0x0
 3472 0275 00       		.byte	0x0
 3473 0276 31       		.uleb128 0x31
 3474 0277 2E       		.uleb128 0x2e
 3475 0278 00       		.byte	0x0
 3476 0279 3F       		.uleb128 0x3f
 3477 027a 0C       		.uleb128 0xc
 3478 027b 03       		.uleb128 0x3
 3479 027c 0E       		.uleb128 0xe
 3480 027d 3A       		.uleb128 0x3a
 3481 027e 0B       		.uleb128 0xb
 3482 027f 3B       		.uleb128 0x3b
 3483 0280 0B       		.uleb128 0xb
 3484 0281 27       		.uleb128 0x27
 3485 0282 0C       		.uleb128 0xc
 3486 0283 49       		.uleb128 0x49
 3487 0284 13       		.uleb128 0x13
 3488 0285 11       		.uleb128 0x11
 3489 0286 01       		.uleb128 0x1
 3490 0287 12       		.uleb128 0x12
 3491 0288 01       		.uleb128 0x1
 3492 0289 40       		.uleb128 0x40
 3493 028a 0A       		.uleb128 0xa
 3494 028b 00       		.byte	0x0
 3495 028c 00       		.byte	0x0
 3496 028d 32       		.uleb128 0x32
 3497 028e 34       		.uleb128 0x34
 3498 028f 00       		.byte	0x0
ARM GAS  /tmp/ccJOsmUH.s 			page 63


 3499 0290 03       		.uleb128 0x3
 3500 0291 0E       		.uleb128 0xe
 3501 0292 3A       		.uleb128 0x3a
 3502 0293 0B       		.uleb128 0xb
 3503 0294 3B       		.uleb128 0x3b
 3504 0295 05       		.uleb128 0x5
 3505 0296 49       		.uleb128 0x49
 3506 0297 13       		.uleb128 0x13
 3507 0298 3F       		.uleb128 0x3f
 3508 0299 0C       		.uleb128 0xc
 3509 029a 3C       		.uleb128 0x3c
 3510 029b 0C       		.uleb128 0xc
 3511 029c 00       		.byte	0x0
 3512 029d 00       		.byte	0x0
 3513 029e 33       		.uleb128 0x33
 3514 029f 34       		.uleb128 0x34
 3515 02a0 00       		.byte	0x0
 3516 02a1 03       		.uleb128 0x3
 3517 02a2 08       		.uleb128 0x8
 3518 02a3 3A       		.uleb128 0x3a
 3519 02a4 0B       		.uleb128 0xb
 3520 02a5 3B       		.uleb128 0x3b
 3521 02a6 0B       		.uleb128 0xb
 3522 02a7 49       		.uleb128 0x49
 3523 02a8 13       		.uleb128 0x13
 3524 02a9 3F       		.uleb128 0x3f
 3525 02aa 0C       		.uleb128 0xc
 3526 02ab 3C       		.uleb128 0x3c
 3527 02ac 0C       		.uleb128 0xc
 3528 02ad 00       		.byte	0x0
 3529 02ae 00       		.byte	0x0
 3530 02af 34       		.uleb128 0x34
 3531 02b0 34       		.uleb128 0x34
 3532 02b1 00       		.byte	0x0
 3533 02b2 03       		.uleb128 0x3
 3534 02b3 0E       		.uleb128 0xe
 3535 02b4 3A       		.uleb128 0x3a
 3536 02b5 0B       		.uleb128 0xb
 3537 02b6 3B       		.uleb128 0x3b
 3538 02b7 0B       		.uleb128 0xb
 3539 02b8 49       		.uleb128 0x49
 3540 02b9 13       		.uleb128 0x13
 3541 02ba 02       		.uleb128 0x2
 3542 02bb 0A       		.uleb128 0xa
 3543 02bc 00       		.byte	0x0
 3544 02bd 00       		.byte	0x0
 3545 02be 00       		.byte	0x0
 3546              		.section	.debug_pubnames,"",%progbits
 3547 0000 3E000000 		.4byte	0x3e
 3548 0004 0200     		.2byte	0x2
 3549 0006 00000000 		.4byte	.Ldebug_info0
 3550 000a D20C0000 		.4byte	0xcd2
 3551 000e B20B0000 		.4byte	0xbb2
 3552 0012 6370755F 		.ascii	"cpu_io_init\000"
 3552      696F5F69 
 3552      6E697400 
 3553 001e C60B0000 		.4byte	0xbc6
ARM GAS  /tmp/ccJOsmUH.s 			page 64


 3554 0022 6370755F 		.ascii	"cpu_io_process\000"
 3554      696F5F70 
 3554      726F6365 
 3554      737300
 3555 0031 360C0000 		.4byte	0xc36
 3556 0035 66756E63 		.ascii	"funcArgs\000"
 3556      41726773 
 3556      00
 3557 003e 00000000 		.4byte	0x0
 3558              		.section	.debug_pubtypes,"",%progbits
 3559 0000 41020000 		.4byte	0x241
 3560 0004 0200     		.2byte	0x2
 3561 0006 00000000 		.4byte	.Ldebug_info0
 3562 000a D20C0000 		.4byte	0xcd2
 3563 000e 30000000 		.4byte	0x30
 3564 0012 73697A65 		.ascii	"size_t\000"
 3564      5F7400
 3565 0019 49000000 		.4byte	0x49
 3566 001d 75696E74 		.ascii	"uint8_t\000"
 3566      385F7400 
 3567 0025 62000000 		.4byte	0x62
 3568 0029 75696E74 		.ascii	"uint16_t\000"
 3568      31365F74 
 3568      00
 3569 0032 74000000 		.4byte	0x74
 3570 0036 696E7433 		.ascii	"int32_t\000"
 3570      325F7400 
 3571 003e 86000000 		.4byte	0x86
 3572 0042 75696E74 		.ascii	"uint32_t\000"
 3572      33325F74 
 3572      00
 3573 004b 9F000000 		.4byte	0x9f
 3574 004f 75696E74 		.ascii	"uint64_t\000"
 3574      36345F74 
 3574      00
 3575 0058 B1000000 		.4byte	0xb1
 3576 005c 75696E74 		.ascii	"uint_fast16_t\000"
 3576      5F666173 
 3576      7431365F 
 3576      7400
 3577 006a BC000000 		.4byte	0xbc
 3578 006e 626F6F6C 		.ascii	"bool_t\000"
 3578      5F7400
 3579 0075 C7000000 		.4byte	0xc7
 3580 0079 746D6F64 		.ascii	"tmode_t\000"
 3580      655F7400 
 3581 0081 D2000000 		.4byte	0xd2
 3582 0085 74737461 		.ascii	"tstate_t\000"
 3582      74655F74 
 3582      00
 3583 008e DD000000 		.4byte	0xdd
 3584 0092 74707269 		.ascii	"tprio_t\000"
 3584      6F5F7400 
 3585 009a E8000000 		.4byte	0xe8
 3586 009e 6D73675F 		.ascii	"msg_t\000"
 3586      7400
 3587 00a4 F3000000 		.4byte	0xf3
ARM GAS  /tmp/ccJOsmUH.s 			page 65


 3588 00a8 6576656E 		.ascii	"eventmask_t\000"
 3588      746D6173 
 3588      6B5F7400 
 3589 00b4 FE000000 		.4byte	0xfe
 3590 00b8 73797374 		.ascii	"systime_t\000"
 3590      696D655F 
 3590      7400
 3591 00c2 09010000 		.4byte	0x109
 3592 00c6 54687265 		.ascii	"Thread\000"
 3592      616400
 3593 00cd 48020000 		.4byte	0x248
 3594 00d1 54687265 		.ascii	"ThreadsQueue\000"
 3594      61647351 
 3594      75657565 
 3594      00
 3595 00de 6A020000 		.4byte	0x26a
 3596 00e2 54687265 		.ascii	"ThreadsList\000"
 3596      6164734C 
 3596      69737400 
 3597 00ee 75020000 		.4byte	0x275
 3598 00f2 72656761 		.ascii	"regarm_t\000"
 3598      726D5F74 
 3598      00
 3599 00fb 82020000 		.4byte	0x282
 3600 00ff 73746B61 		.ascii	"stkalign_t\000"
 3600      6C69676E 
 3600      5F7400
 3601 010a 8D020000 		.4byte	0x28d
 3602 010e 696E7463 		.ascii	"intctx\000"
 3602      747800
 3603 0115 1A030000 		.4byte	0x31a
 3604 0119 636F6E74 		.ascii	"context\000"
 3604      65787400 
 3605 0121 42030000 		.4byte	0x342
 3606 0125 4D757465 		.ascii	"Mutex\000"
 3606      7800
 3607 012b 7F030000 		.4byte	0x37f
 3608 012f 4D757465 		.ascii	"Mutex\000"
 3608      7800
 3609 0135 8A030000 		.4byte	0x38a
 3610 0139 4576656E 		.ascii	"EventListener\000"
 3610      744C6973 
 3610      74656E65 
 3610      7200
 3611 0147 95030000 		.4byte	0x395
 3612 014b 4576656E 		.ascii	"EventListener\000"
 3612      744C6973 
 3612      74656E65 
 3612      7200
 3613 0159 D2030000 		.4byte	0x3d2
 3614 015d 4576656E 		.ascii	"EventSource\000"
 3614      74536F75 
 3614      72636500 
 3615 0169 ED030000 		.4byte	0x3ed
 3616 016d 4576656E 		.ascii	"EventSource\000"
 3616      74536F75 
 3616      72636500 
ARM GAS  /tmp/ccJOsmUH.s 			page 66


 3617 0179 14010000 		.4byte	0x114
 3618 017d 54687265 		.ascii	"Thread\000"
 3618      616400
 3619 0184 4B040000 		.4byte	0x44b
 3620 0188 47656E65 		.ascii	"GenericQueue\000"
 3620      72696351 
 3620      75657565 
 3620      00
 3621 0195 C5040000 		.4byte	0x4c5
 3622 0199 716E6F74 		.ascii	"qnotify_t\000"
 3622      6966795F 
 3622      7400
 3623 01a3 56040000 		.4byte	0x456
 3624 01a7 47656E65 		.ascii	"GenericQueue\000"
 3624      72696351 
 3624      75657565 
 3624      00
 3625 01b4 EE040000 		.4byte	0x4ee
 3626 01b8 496E7075 		.ascii	"InputQueue\000"
 3626      74517565 
 3626      756500
 3627 01c3 F9040000 		.4byte	0x4f9
 3628 01c7 4F757470 		.ascii	"OutputQueue\000"
 3628      75745175 
 3628      65756500 
 3629 01d3 EA050000 		.4byte	0x5ea
 3630 01d7 696F666C 		.ascii	"ioflags_t\000"
 3630      6167735F 
 3630      7400
 3631 01e1 0C060000 		.4byte	0x60c
 3632 01e5 5446756E 		.ascii	"TFunc\000"
 3632      6300
 3633 01eb 0D070000 		.4byte	0x70d
 3634 01ef 55534152 		.ascii	"USART_TypeDef\000"
 3634      545F5479 
 3634      70654465 
 3634      6600
 3635 01fd 34070000 		.4byte	0x734
 3636 0201 73647374 		.ascii	"sdstate_t\000"
 3636      6174655F 
 3636      7400
 3637 020b 3F070000 		.4byte	0x73f
 3638 020f 53657269 		.ascii	"SerialDriver\000"
 3638      616C4472 
 3638      69766572 
 3638      00
 3639 021c D3070000 		.4byte	0x7d3
 3640 0220 53657269 		.ascii	"SerialDriverVMT\000"
 3640      616C4472 
 3640      69766572 
 3640      564D5400 
 3641 0230 4A070000 		.4byte	0x74a
 3642 0234 53657269 		.ascii	"SerialDriver\000"
 3642      616C4472 
 3642      69766572 
 3642      00
 3643 0241 00000000 		.4byte	0x0
ARM GAS  /tmp/ccJOsmUH.s 			page 67


 3644              		.section	.debug_aranges,"",%progbits
 3645 0000 84000000 		.4byte	0x84
 3646 0004 0200     		.2byte	0x2
 3647 0006 00000000 		.4byte	.Ldebug_info0
 3648 000a 04       		.byte	0x4
 3649 000b 00       		.byte	0x0
 3650 000c 0000     		.2byte	0x0
 3651 000e 0000     		.2byte	0x0
 3652 0010 00000000 		.4byte	.LFB77
 3653 0014 14000000 		.4byte	.LFE77-.LFB77
 3654 0018 00000000 		.4byte	.LFB76
 3655 001c 14000000 		.4byte	.LFE76-.LFB76
 3656 0020 00000000 		.4byte	.LFB75
 3657 0024 14000000 		.4byte	.LFE75-.LFB75
 3658 0028 00000000 		.4byte	.LFB74
 3659 002c 06000000 		.4byte	.LFE74-.LFB74
 3660 0030 00000000 		.4byte	.LFB73
 3661 0034 06000000 		.4byte	.LFE73-.LFB73
 3662 0038 00000000 		.4byte	.LFB72
 3663 003c 06000000 		.4byte	.LFE72-.LFB72
 3664 0040 00000000 		.4byte	.LFB71
 3665 0044 1C000000 		.4byte	.LFE71-.LFB71
 3666 0048 00000000 		.4byte	.LFB67
 3667 004c 38010000 		.4byte	.LFE67-.LFB67
 3668 0050 00000000 		.4byte	.LFB70
 3669 0054 0E000000 		.4byte	.LFE70-.LFB70
 3670 0058 00000000 		.4byte	.LFB69
 3671 005c 0E000000 		.4byte	.LFE69-.LFB69
 3672 0060 00000000 		.4byte	.LFB68
 3673 0064 0E000000 		.4byte	.LFE68-.LFB68
 3674 0068 00000000 		.4byte	.LFB62
 3675 006c 0C000000 		.4byte	.LFE62-.LFB62
 3676 0070 00000000 		.4byte	.LFB63
 3677 0074 34000000 		.4byte	.LFE63-.LFB63
 3678 0078 00000000 		.4byte	.LFB64
 3679 007c 08000000 		.4byte	.LFE64-.LFB64
 3680 0080 00000000 		.4byte	0x0
 3681 0084 00000000 		.4byte	0x0
 3682              		.section	.debug_ranges,"",%progbits
 3683              	.Ldebug_ranges0:
 3684 0000 04000000 		.4byte	.LBB17
 3685 0004 06000000 		.4byte	.LBE17
 3686 0008 08000000 		.4byte	.LBB18
 3687 000c 0C000000 		.4byte	.LBE18
 3688 0010 00000000 		.4byte	0x0
 3689 0014 00000000 		.4byte	0x0
 3690 0018 24000000 		.4byte	.LBB20
 3691 001c 28000000 		.4byte	.LBE20
 3692 0020 F2000000 		.4byte	.LBB46
 3693 0024 38010000 		.4byte	.LBE46
 3694 0028 CE000000 		.4byte	.LBB41
 3695 002c D2000000 		.4byte	.LBE41
 3696 0030 B0000000 		.4byte	.LBB40
 3697 0034 CC000000 		.4byte	.LBE40
 3698 0038 82000000 		.4byte	.LBB39
 3699 003c AE000000 		.4byte	.LBE39
 3700 0040 5C000000 		.4byte	.LBB38
ARM GAS  /tmp/ccJOsmUH.s 			page 68


 3701 0044 7C000000 		.4byte	.LBE38
 3702 0048 2A000000 		.4byte	.LBB37
 3703 004c 50000000 		.4byte	.LBE37
 3704 0050 00000000 		.4byte	0x0
 3705 0054 00000000 		.4byte	0x0
 3706 0058 40000000 		.4byte	.LBB24
 3707 005c 50000000 		.4byte	.LBE24
 3708 0060 F2000000 		.4byte	.LBB36
 3709 0064 38010000 		.4byte	.LBE36
 3710 0068 CE000000 		.4byte	.LBB21
 3711 006c D2000000 		.4byte	.LBE21
 3712 0070 BC000000 		.4byte	.LBB35
 3713 0074 CC000000 		.4byte	.LBE35
 3714 0078 B2000000 		.4byte	.LBB34
 3715 007c BA000000 		.4byte	.LBE34
 3716 0080 9A000000 		.4byte	.LBB22
 3717 0084 A2000000 		.4byte	.LBE22
 3718 0088 90000000 		.4byte	.LBB23
 3719 008c 98000000 		.4byte	.LBE23
 3720 0090 6C000000 		.4byte	.LBB33
 3721 0094 7C000000 		.4byte	.LBE33
 3722 0098 00000000 		.4byte	0x0
 3723 009c 00000000 		.4byte	0x0
 3724 00a0 D6000000 		.4byte	.LBB42
 3725 00a4 EA000000 		.4byte	.LBE42
 3726 00a8 EE000000 		.4byte	.LBB45
 3727 00ac F2000000 		.4byte	.LBE45
 3728 00b0 00000000 		.4byte	0x0
 3729 00b4 00000000 		.4byte	0x0
 3730 00b8 10000000 		.4byte	.LBB48
 3731 00bc 12000000 		.4byte	.LBE48
 3732 00c0 26000000 		.4byte	.LBB50
 3733 00c4 28000000 		.4byte	.LBE50
 3734 00c8 14000000 		.4byte	.LBB49
 3735 00cc 1A000000 		.4byte	.LBE49
 3736 00d0 00000000 		.4byte	0x0
 3737 00d4 00000000 		.4byte	0x0
 3738 00d8 00000000 		.4byte	.LFB77
 3739 00dc 14000000 		.4byte	.LFE77
 3740 00e0 00000000 		.4byte	.LFB76
 3741 00e4 14000000 		.4byte	.LFE76
 3742 00e8 00000000 		.4byte	.LFB75
 3743 00ec 14000000 		.4byte	.LFE75
 3744 00f0 00000000 		.4byte	.LFB74
 3745 00f4 06000000 		.4byte	.LFE74
 3746 00f8 00000000 		.4byte	.LFB73
 3747 00fc 06000000 		.4byte	.LFE73
 3748 0100 00000000 		.4byte	.LFB72
 3749 0104 06000000 		.4byte	.LFE72
 3750 0108 00000000 		.4byte	.LFB71
 3751 010c 1C000000 		.4byte	.LFE71
 3752 0110 00000000 		.4byte	.LFB67
 3753 0114 38010000 		.4byte	.LFE67
 3754 0118 00000000 		.4byte	.LFB70
 3755 011c 0E000000 		.4byte	.LFE70
 3756 0120 00000000 		.4byte	.LFB69
 3757 0124 0E000000 		.4byte	.LFE69
ARM GAS  /tmp/ccJOsmUH.s 			page 69


 3758 0128 00000000 		.4byte	.LFB68
 3759 012c 0E000000 		.4byte	.LFE68
 3760 0130 00000000 		.4byte	.LFB62
 3761 0134 0C000000 		.4byte	.LFE62
 3762 0138 00000000 		.4byte	.LFB63
 3763 013c 34000000 		.4byte	.LFE63
 3764 0140 00000000 		.4byte	.LFB64
 3765 0144 08000000 		.4byte	.LFE64
 3766 0148 00000000 		.4byte	0x0
 3767 014c 00000000 		.4byte	0x0
 3768              		.section	.debug_str,"MS",%progbits,1
 3769              	.LASF131:
 3770 0000 77726974 		.ascii	"writeEom\000"
 3770      65456F6D 
 3770      00
 3771              	.LASF2:
 3772 0009 73697A65 		.ascii	"size_t\000"
 3772      5F7400
 3773              	.LASF57:
 3774 0010 7264796D 		.ascii	"rdymsg\000"
 3774      736700
 3775              	.LASF13:
 3776 0017 75696E74 		.ascii	"uint64_t\000"
 3776      36345F74 
 3776      00
 3777              	.LASF127:
 3778 0020 66756E63 		.ascii	"funcs\000"
 3778      7300
 3779              	.LASF72:
 3780 0026 4F757470 		.ascii	"OutputQueue\000"
 3780      75745175 
 3780      65756500 
 3781              	.LASF74:
 3782 0032 5446756E 		.ascii	"TFunc\000"
 3782      6300
 3783              	.LASF117:
 3784 0038 70657269 		.ascii	"period\000"
 3784      6F6400
 3785              	.LASF15:
 3786 003f 75696E74 		.ascii	"uint_fast16_t\000"
 3786      5F666173 
 3786      7431365F 
 3786      7400
 3787              	.LASF14:
 3788 004d 6C6F6E67 		.ascii	"long long unsigned int\000"
 3788      206C6F6E 
 3788      6720756E 
 3788      7369676E 
 3788      65642069 
 3789              	.LASF110:
 3790 0064 7365745F 		.ascii	"set_one_pulse\000"
 3790      6F6E655F 
 3790      70756C73 
 3790      6500
 3791              	.LASF134:
 3792 0072 66756E63 		.ascii	"funcArgs\000"
 3792      41726773 
ARM GAS  /tmp/ccJOsmUH.s 			page 70


 3792      00
 3793              	.LASF58:
 3794 007b 65786974 		.ascii	"exitcode\000"
 3794      636F6465 
 3794      00
 3795              	.LASF113:
 3796 0084 7365745F 		.ascii	"set_sc_relay\000"
 3796      73635F72 
 3796      656C6179 
 3796      00
 3797              	.LASF124:
 3798 0091 6F75745F 		.ascii	"out_index\000"
 3798      696E6465 
 3798      7800
 3799              	.LASF125:
 3800 009b 49544D5F 		.ascii	"ITM_RxBuffer\000"
 3800      52784275 
 3800      66666572 
 3800      00
 3801              	.LASF26:
 3802 00a8 705F7072 		.ascii	"p_prio\000"
 3802      696F00
 3803              	.LASF101:
 3804 00af 72656164 		.ascii	"readt\000"
 3804      7400
 3805              	.LASF116:
 3806 00b5 6F73635F 		.ascii	"osc_set_period\000"
 3806      7365745F 
 3806      70657269 
 3806      6F6400
 3807              	.LASF12:
 3808 00c4 6C6F6E67 		.ascii	"long long int\000"
 3808      206C6F6E 
 3808      6720696E 
 3808      7400
 3809              	.LASF1:
 3810 00d2 7369676E 		.ascii	"signed char\000"
 3810      65642063 
 3810      68617200 
 3811              	.LASF81:
 3812 00de 47545052 		.ascii	"GTPR\000"
 3812      00
 3813              	.LASF85:
 3814 00e3 53445F53 		.ascii	"SD_STOP\000"
 3814      544F5000 
 3815              	.LASF16:
 3816 00eb 626F6F6C 		.ascii	"bool_t\000"
 3816      5F7400
 3817              	.LASF48:
 3818 00f2 6D5F7175 		.ascii	"m_queue\000"
 3818      65756500 
 3819              	.LASF128:
 3820 00fa 474E5520 		.ascii	"GNU C 4.5.2\000"
 3820      4320342E 
 3820      352E3200 
 3821              	.LASF118:
 3822 0106 77726974 		.ascii	"writeOscQueue\000"
ARM GAS  /tmp/ccJOsmUH.s 			page 71


 3822      654F7363 
 3822      51756575 
 3822      6500
 3823              	.LASF91:
 3824 0114 73746174 		.ascii	"state\000"
 3824      6500
 3825              	.LASF9:
 3826 011a 6C6F6E67 		.ascii	"long int\000"
 3826      20696E74 
 3826      00
 3827              	.LASF18:
 3828 0123 74737461 		.ascii	"tstate_t\000"
 3828      74655F74 
 3828      00
 3829              	.LASF65:
 3830 012c 715F6275 		.ascii	"q_buffer\000"
 3830      66666572 
 3830      00
 3831              	.LASF67:
 3832 0135 715F7772 		.ascii	"q_wrptr\000"
 3832      70747200 
 3833              	.LASF28:
 3834 013d 705F6E65 		.ascii	"p_newer\000"
 3834      77657200 
 3835              	.LASF98:
 3836 0145 70757477 		.ascii	"putwouldblock\000"
 3836      6F756C64 
 3836      626C6F63 
 3836      6B00
 3837              	.LASF115:
 3838 0153 7365745F 		.ascii	"set_leds\000"
 3838      6C656473 
 3838      00
 3839              	.LASF43:
 3840 015c 72656761 		.ascii	"regarm_t\000"
 3840      726D5F74 
 3840      00
 3841              	.LASF55:
 3842 0165 4576656E 		.ascii	"EventSource\000"
 3842      74536F75 
 3842      72636500 
 3843              	.LASF94:
 3844 0171 75736172 		.ascii	"usart\000"
 3844      7400
 3845              	.LASF0:
 3846 0177 756E7369 		.ascii	"unsigned int\000"
 3846      676E6564 
 3846      20696E74 
 3846      00
 3847              	.LASF6:
 3848 0184 75696E74 		.ascii	"uint16_t\000"
 3848      31365F74 
 3848      00
 3849              	.LASF95:
 3850 018d 53657269 		.ascii	"SerialDriverVMT\000"
 3850      616C4472 
 3850      69766572 
ARM GAS  /tmp/ccJOsmUH.s 			page 72


 3850      564D5400 
 3851              	.LASF34:
 3852 019d 705F7469 		.ascii	"p_time\000"
 3852      6D6500
 3853              	.LASF92:
 3854 01a4 69717565 		.ascii	"iqueue\000"
 3854      756500
 3855              	.LASF36:
 3856 01ab 705F6D73 		.ascii	"p_msgqueue\000"
 3856      67717565 
 3856      756500
 3857              	.LASF105:
 3858 01b6 65786563 		.ascii	"exec_func\000"
 3858      5F66756E 
 3858      6300
 3859              	.LASF119:
 3860 01c0 6E6F4461 		.ascii	"noData\000"
 3860      746100
 3861              	.LASF19:
 3862 01c7 74707269 		.ascii	"tprio_t\000"
 3862      6F5F7400 
 3863              	.LASF89:
 3864 01cf 6576656E 		.ascii	"event\000"
 3864      7400
 3865              	.LASF7:
 3866 01d5 73686F72 		.ascii	"short unsigned int\000"
 3866      7420756E 
 3866      7369676E 
 3866      65642069 
 3866      6E7400
 3867              	.LASF20:
 3868 01e8 6D73675F 		.ascii	"msg_t\000"
 3868      7400
 3869              	.LASF93:
 3870 01ee 6F717565 		.ascii	"oqueue\000"
 3870      756500
 3871              	.LASF120:
 3872 01f5 6F73635F 		.ascii	"osc_iaux\000"
 3872      69617578 
 3872      00
 3873              	.LASF83:
 3874 01fe 55534152 		.ascii	"USART_TypeDef\000"
 3874      545F5479 
 3874      70654465 
 3874      6600
 3875              	.LASF100:
 3876 020c 77726974 		.ascii	"writet\000"
 3876      657400
 3877              	.LASF17:
 3878 0213 746D6F64 		.ascii	"tmode_t\000"
 3878      655F7400 
 3879              	.LASF42:
 3880 021b 54687265 		.ascii	"ThreadsList\000"
 3880      6164734C 
 3880      69737400 
 3881              	.LASF21:
 3882 0227 6576656E 		.ascii	"eventmask_t\000"
ARM GAS  /tmp/ccJOsmUH.s 			page 73


 3882      746D6173 
 3882      6B5F7400 
 3883              	.LASF71:
 3884 0233 496E7075 		.ascii	"InputQueue\000"
 3884      74517565 
 3884      756500
 3885              	.LASF70:
 3886 023e 716E6F74 		.ascii	"qnotify_t\000"
 3886      6966795F 
 3886      7400
 3887              	.LASF129:
 3888 0248 2E2F7372 		.ascii	"./src/cpu_io.c\000"
 3888      632F6370 
 3888      755F696F 
 3888      2E6300
 3889              	.LASF62:
 3890 0257 47656E65 		.ascii	"GenericQueue\000"
 3890      72696351 
 3890      75657565 
 3890      00
 3891              	.LASF44:
 3892 0264 73746B61 		.ascii	"stkalign_t\000"
 3892      6C69676E 
 3892      5F7400
 3893              	.LASF112:
 3894 026f 7365745F 		.ascii	"set_dac\000"
 3894      64616300 
 3895              	.LASF96:
 3896 0277 77726974 		.ascii	"write\000"
 3896      6500
 3897              	.LASF64:
 3898 027d 715F636F 		.ascii	"q_counter\000"
 3898      756E7465 
 3898      7200
 3899              	.LASF47:
 3900 0287 4D757465 		.ascii	"Mutex\000"
 3900      7800
 3901              	.LASF29:
 3902 028d 705F6F6C 		.ascii	"p_older\000"
 3902      64657200 
 3903              	.LASF133:
 3904 0295 6370755F 		.ascii	"cpu_io_process\000"
 3904      696F5F70 
 3904      726F6365 
 3904      737300
 3905              	.LASF73:
 3906 02a4 696F666C 		.ascii	"ioflags_t\000"
 3906      6167735F 
 3906      7400
 3907              	.LASF41:
 3908 02ae 54687265 		.ascii	"ThreadsQueue\000"
 3908      61647351 
 3908      75657565 
 3908      00
 3909              	.LASF31:
 3910 02bb 705F7374 		.ascii	"p_stklimit\000"
 3910      6B6C696D 
ARM GAS  /tmp/ccJOsmUH.s 			page 74


 3910      697400
 3911              	.LASF114:
 3912 02c6 7365745F 		.ascii	"set_out_relay\000"
 3912      6F75745F 
 3912      72656C61 
 3912      7900
 3913              	.LASF54:
 3914 02d4 656C5F6D 		.ascii	"el_mask\000"
 3914      61736B00 
 3915              	.LASF106:
 3916 02dc 77726974 		.ascii	"writeResult\000"
 3916      65526573 
 3916      756C7400 
 3917              	.LASF63:
 3918 02e8 715F7761 		.ascii	"q_waiting\000"
 3918      6974696E 
 3918      6700
 3919              	.LASF75:
 3920 02f2 52455345 		.ascii	"RESERVED0\000"
 3920      52564544 
 3920      3000
 3921              	.LASF76:
 3922 02fc 52455345 		.ascii	"RESERVED1\000"
 3922      52564544 
 3922      3100
 3923              	.LASF77:
 3924 0306 52455345 		.ascii	"RESERVED2\000"
 3924      52564544 
 3924      3200
 3925              	.LASF78:
 3926 0310 52455345 		.ascii	"RESERVED3\000"
 3926      52564544 
 3926      3300
 3927              	.LASF79:
 3928 031a 52455345 		.ascii	"RESERVED4\000"
 3928      52564544 
 3928      3400
 3929              	.LASF25:
 3930 0324 705F7072 		.ascii	"p_prev\000"
 3930      657600
 3931              	.LASF82:
 3932 032b 52455345 		.ascii	"RESERVED6\000"
 3932      52564544 
 3932      3600
 3933              	.LASF104:
 3934 0335 66756E63 		.ascii	"funcs_sz\000"
 3934      735F737A 
 3934      00
 3935              	.LASF68:
 3936 033e 715F7264 		.ascii	"q_rdptr\000"
 3936      70747200 
 3937              	.LASF121:
 3938 0346 6F73635F 		.ascii	"osc_eref\000"
 3938      65726566 
 3938      00
 3939              	.LASF8:
 3940 034f 696E7433 		.ascii	"int32_t\000"
ARM GAS  /tmp/ccJOsmUH.s 			page 75


 3940      325F7400 
 3941              	.LASF4:
 3942 0357 756E7369 		.ascii	"unsigned char\000"
 3942      676E6564 
 3942      20636861 
 3942      7200
 3943              	.LASF53:
 3944 0365 656C5F6C 		.ascii	"el_listener\000"
 3944      69737465 
 3944      6E657200 
 3945              	.LASF39:
 3946 0371 705F6D74 		.ascii	"p_mtxlist\000"
 3946      786C6973 
 3946      7400
 3947              	.LASF5:
 3948 037b 73686F72 		.ascii	"short int\000"
 3948      7420696E 
 3948      7400
 3949              	.LASF32:
 3950 0385 705F7374 		.ascii	"p_state\000"
 3950      61746500 
 3951              	.LASF107:
 3952 038d 70726F63 		.ascii	"process_command\000"
 3952      6573735F 
 3952      636F6D6D 
 3952      616E6400 
 3953              	.LASF60:
 3954 039d 65776D61 		.ascii	"ewmask\000"
 3954      736B00
 3955              	.LASF24:
 3956 03a4 705F6E65 		.ascii	"p_next\000"
 3956      787400
 3957              	.LASF33:
 3958 03ab 705F666C 		.ascii	"p_flags\000"
 3958      61677300 
 3959              	.LASF52:
 3960 03b3 656C5F6E 		.ascii	"el_next\000"
 3960      65787400 
 3961              	.LASF109:
 3962 03bb 7365745F 		.ascii	"set_meandr\000"
 3962      6D65616E 
 3962      647200
 3963              	.LASF23:
 3964 03c6 54687265 		.ascii	"Thread\000"
 3964      616400
 3965              	.LASF38:
 3966 03cd 705F6570 		.ascii	"p_epending\000"
 3966      656E6469 
 3966      6E6700
 3967              	.LASF84:
 3968 03d8 53445F55 		.ascii	"SD_UNINIT\000"
 3968      4E494E49 
 3968      5400
 3969              	.LASF80:
 3970 03e2 52455345 		.ascii	"RESERVED5\000"
 3970      52564544 
 3970      3500
ARM GAS  /tmp/ccJOsmUH.s 			page 76


 3971              	.LASF10:
 3972 03ec 75696E74 		.ascii	"uint32_t\000"
 3972      33325F74 
 3972      00
 3973              	.LASF87:
 3974 03f5 73647374 		.ascii	"sdstate_t\000"
 3974      6174655F 
 3974      7400
 3975              	.LASF88:
 3976 03ff 53657269 		.ascii	"SerialDriver\000"
 3976      616C4472 
 3976      69766572 
 3976      00
 3977              	.LASF11:
 3978 040c 6C6F6E67 		.ascii	"long unsigned int\000"
 3978      20756E73 
 3978      69676E65 
 3978      6420696E 
 3978      7400
 3979              	.LASF97:
 3980 041e 72656164 		.ascii	"read\000"
 3980      00
 3981              	.LASF61:
 3982 0423 63686172 		.ascii	"char\000"
 3982      00
 3983              	.LASF132:
 3984 0428 6370755F 		.ascii	"cpu_io_init\000"
 3984      696F5F69 
 3984      6E697400 
 3985              	.LASF50:
 3986 0434 6D5F6E65 		.ascii	"m_next\000"
 3986      787400
 3987              	.LASF22:
 3988 043b 73797374 		.ascii	"systime_t\000"
 3988      696D655F 
 3988      7400
 3989              	.LASF40:
 3990 0445 705F7265 		.ascii	"p_realprio\000"
 3990      616C7072 
 3990      696F00
 3991              	.LASF126:
 3992 0450 62756666 		.ascii	"buffer\000"
 3992      657200
 3993              	.LASF108:
 3994 0457 64617461 		.ascii	"data\000"
 3994      00
 3995              	.LASF102:
 3996 045c 67657466 		.ascii	"getflags\000"
 3996      6C616773 
 3996      00
 3997              	.LASF46:
 3998 0465 636F6E74 		.ascii	"context\000"
 3998      65787400 
 3999              	.LASF45:
 4000 046d 696E7463 		.ascii	"intctx\000"
 4000      747800
 4001              	.LASF86:
ARM GAS  /tmp/ccJOsmUH.s 			page 77


 4002 0474 53445F52 		.ascii	"SD_READY\000"
 4002      45414459 
 4002      00
 4003              	.LASF122:
 4004 047d 6F73635F 		.ascii	"osc_eaux\000"
 4004      65617578 
 4004      00
 4005              	.LASF66:
 4006 0486 715F746F 		.ascii	"q_top\000"
 4006      7000
 4007              	.LASF30:
 4008 048c 705F6E61 		.ascii	"p_name\000"
 4008      6D6500
 4009              	.LASF56:
 4010 0493 65735F6E 		.ascii	"es_next\000"
 4010      65787400 
 4011              	.LASF130:
 4012 049b 2F686F6D 		.ascii	"/home/z80/projects/voltamper.git/firmware/voltamp\000"
 4012      652F7A38 
 4012      302F7072 
 4012      6F6A6563 
 4012      74732F76 
 4013              	.LASF69:
 4014 04cd 715F6E6F 		.ascii	"q_notify\000"
 4014      74696679 
 4014      00
 4015              	.LASF37:
 4016 04d6 705F6D73 		.ascii	"p_msg\000"
 4016      6700
 4017              	.LASF3:
 4018 04dc 75696E74 		.ascii	"uint8_t\000"
 4018      385F7400 
 4019              	.LASF103:
 4020 04e4 66756E63 		.ascii	"func_index\000"
 4020      5F696E64 
 4020      657800
 4021              	.LASF90:
 4022 04ef 666C6167 		.ascii	"flags\000"
 4022      7300
 4023              	.LASF51:
 4024 04f5 4576656E 		.ascii	"EventListener\000"
 4024      744C6973 
 4024      74656E65 
 4024      7200
 4025              	.LASF59:
 4026 0503 77746F62 		.ascii	"wtobjp\000"
 4026      6A7000
 4027              	.LASF123:
 4028 050a 736C6173 		.ascii	"slash\000"
 4028      6800
 4029              	.LASF99:
 4030 0510 67657477 		.ascii	"getwouldblock\000"
 4030      6F756C64 
 4030      626C6F63 
 4030      6B00
 4031              	.LASF111:
 4032 051e 61726773 		.ascii	"args\000"
ARM GAS  /tmp/ccJOsmUH.s 			page 78


 4032      00
 4033              	.LASF49:
 4034 0523 6D5F6F77 		.ascii	"m_owner\000"
 4034      6E657200 
 4035              	.LASF27:
 4036 052b 705F6374 		.ascii	"p_ctx\000"
 4036      7800
 4037              	.LASF35:
 4038 0531 705F7761 		.ascii	"p_waiting\000"
 4038      6974696E 
 4038      6700
 4039              		.ident	"GCC: (Sourcery G++ Lite 2011.03-42) 4.5.2"
ARM GAS  /tmp/ccJOsmUH.s 			page 79


DEFINED SYMBOLS
                            *ABS*:00000000 cpu_io.c
     /tmp/ccJOsmUH.s:24     .text.set_meandr:00000000 $t
     /tmp/ccJOsmUH.s:29     .text.set_meandr:00000000 set_meandr
     /tmp/ccJOsmUH.s:56     .text.set_one_pulse:00000000 $t
     /tmp/ccJOsmUH.s:61     .text.set_one_pulse:00000000 set_one_pulse
     /tmp/ccJOsmUH.s:87     .text.set_dac:00000000 $t
     /tmp/ccJOsmUH.s:92     .text.set_dac:00000000 set_dac
     /tmp/ccJOsmUH.s:118    .text.set_sc_relay:00000000 $t
     /tmp/ccJOsmUH.s:123    .text.set_sc_relay:00000000 set_sc_relay
     /tmp/ccJOsmUH.s:141    .text.set_out_relay:00000000 $t
     /tmp/ccJOsmUH.s:146    .text.set_out_relay:00000000 set_out_relay
     /tmp/ccJOsmUH.s:164    .text.set_leds:00000000 $t
     /tmp/ccJOsmUH.s:169    .text.set_leds:00000000 set_leds
     /tmp/ccJOsmUH.s:187    .text.osc_set_period:00000000 $t
     /tmp/ccJOsmUH.s:192    .text.osc_set_period:00000000 osc_set_period
     /tmp/ccJOsmUH.s:232    .text.writeOscQueue:00000000 $t
     /tmp/ccJOsmUH.s:237    .text.writeOscQueue:00000000 writeOscQueue
     /tmp/ccJOsmUH.s:519    .text.writeOscQueue:00000134 $d
     /tmp/ccJOsmUH.s:527    .text.osc_iaux:00000000 $t
     /tmp/ccJOsmUH.s:532    .text.osc_iaux:00000000 osc_iaux
     /tmp/ccJOsmUH.s:555    .text.osc_eref:00000000 $t
     /tmp/ccJOsmUH.s:560    .text.osc_eref:00000000 osc_eref
     /tmp/ccJOsmUH.s:583    .text.osc_eaux:00000000 $t
     /tmp/ccJOsmUH.s:588    .text.osc_eaux:00000000 osc_eaux
     /tmp/ccJOsmUH.s:611    .text.cpu_io_init:00000000 $t
     /tmp/ccJOsmUH.s:617    .text.cpu_io_init:00000000 cpu_io_init
     /tmp/ccJOsmUH.s:633    .text.cpu_io_init:00000008 $d
     /tmp/ccJOsmUH.s:638    .text.cpu_io_process:00000000 $t
     /tmp/ccJOsmUH.s:644    .text.cpu_io_process:00000000 cpu_io_process
     /tmp/ccJOsmUH.s:706    .text.cpu_io_process:0000002c $d
     /tmp/ccJOsmUH.s:713    .text.funcArgs:00000000 $t
     /tmp/ccJOsmUH.s:719    .text.funcArgs:00000000 funcArgs
     /tmp/ccJOsmUH.s:732    .text.funcArgs:00000004 $d
     /tmp/ccJOsmUH.s:737    .bss.buffer:00000000 $d
     /tmp/ccJOsmUH.s:741    .bss.buffer:00000000 buffer
     /tmp/ccJOsmUH.s:744    .bss.args:00000000 $d
     /tmp/ccJOsmUH.s:748    .bss.args:00000000 args
                     .debug_frame:00000010 $d
     /tmp/ccJOsmUH.s:526    .text.writeOscQueue:00000138 $t
     /tmp/ccJOsmUH.s:637    .text.cpu_io_init:0000000c $t
     /tmp/ccJOsmUH.s:712    .text.cpu_io_process:00000034 $t
     /tmp/ccJOsmUH.s:736    .text.funcArgs:00000008 $t

UNDEFINED SYMBOLS
commandQueue
chOQPutTimeout
setScRelay
setOutRelay
setLeds
setOscPeriod
dbg_check_lock
dbg_check_unlock
chIQGetTimeout
SD1
iauxQueue
erefQueue
ARM GAS  /tmp/ccJOsmUH.s 			page 80


eauxQueue
sdStart
