ARM GAS  C:\Users\z80\AppData\Local\Temp\ccZLkr7i.s 			page 1


   1              		.syntax unified
   2              		.cpu cortex-m3
   3              		.fpu softvfp
   4              		.eabi_attribute 20, 1
   5              		.eabi_attribute 21, 1
   6              		.eabi_attribute 23, 3
   7              		.eabi_attribute 24, 1
   8              		.eabi_attribute 25, 1
   9              		.eabi_attribute 26, 1
  10              		.eabi_attribute 30, 2
  11              		.eabi_attribute 18, 4
  12              		.thumb
  13              		.file	"cpu_io.c"
  14              		.section	.debug_abbrev,"",%progbits
  15              	.Ldebug_abbrev0:
  16              		.section	.debug_info,"",%progbits
  17              	.Ldebug_info0:
  18              		.section	.debug_line,"",%progbits
  19              	.Ldebug_line0:
  20 0000 C6030000 		.text
  20      02005B02 
  20      00000201 
  20      FB0E0D00 
  20      01010101 
  21              	.Ltext0:
  22              		.cfi_sections	.debug_frame
  23              		.section	.text.set_sweep,"ax",%progbits
  24              		.align	2
  25              		.p2align 4,,15
  26              		.thumb
  27              		.thumb_func
  28              		.type	set_sweep, %function
  29              	set_sweep:
  30              	.LFB78:
  31              		.file 1 "./src/cpu_io.c"
  32              		.loc 1 228 0
  33              		.cfi_startproc
  34              		@ args = 0, pretend = 0, frame = 0
  35              		@ frame_needed = 0, uses_anonymous_args = 0
  36              	.LVL0:
  37 0000 08B5     		push	{r3, lr}
  38              	.LCFI0:
  39              		.cfi_def_cfa_offset 8
  40              		.loc 1 230 0
  41              		.cfi_offset 14, -4
  42              		.cfi_offset 3, -8
  43 0002 FFF7FEFF 		bl	commandQueue
  44              	.LVL1:
  45              		.loc 1 231 0
  46 0006 0321     		movs	r1, #3
  47 0008 4FF0FF32 		mov	r2, #-1
  48 000c FFF7FEFF 		bl	chOQPutTimeout
  49              	.LVL2:
  50              		.loc 1 232 0
  51 0010 08BD     		pop	{r3, pc}
  52              		.cfi_endproc
  53              	.LFE78:
ARM GAS  C:\Users\z80\AppData\Local\Temp\ccZLkr7i.s 			page 2


  54              		.size	set_sweep, .-set_sweep
  55 0012 00BFAFF3 		.section	.text.set_meandr,"ax",%progbits
  55      0080AFF3 
  55      0080AFF3 
  55      0080
  56              		.align	2
  57              		.p2align 4,,15
  58              		.thumb
  59              		.thumb_func
  60              		.type	set_meandr, %function
  61              	set_meandr:
  62              	.LFB77:
  63              		.loc 1 221 0
  64              		.cfi_startproc
  65              		@ args = 0, pretend = 0, frame = 0
  66              		@ frame_needed = 0, uses_anonymous_args = 0
  67              	.LVL3:
  68 0000 08B5     		push	{r3, lr}
  69              	.LCFI1:
  70              		.cfi_def_cfa_offset 8
  71              		.loc 1 223 0
  72              		.cfi_offset 14, -4
  73              		.cfi_offset 3, -8
  74 0002 FFF7FEFF 		bl	commandQueue
  75              	.LVL4:
  76              		.loc 1 224 0
  77 0006 0221     		movs	r1, #2
  78 0008 4FF0FF32 		mov	r2, #-1
  79 000c FFF7FEFF 		bl	chOQPutTimeout
  80              	.LVL5:
  81              		.loc 1 225 0
  82 0010 08BD     		pop	{r3, pc}
  83              		.cfi_endproc
  84              	.LFE77:
  85              		.size	set_meandr, .-set_meandr
  86 0012 00BFAFF3 		.section	.text.set_one_pulse,"ax",%progbits
  86      0080AFF3 
  86      0080AFF3 
  86      0080
  87              		.align	2
  88              		.p2align 4,,15
  89              		.thumb
  90              		.thumb_func
  91              		.type	set_one_pulse, %function
  92              	set_one_pulse:
  93              	.LFB76:
  94              		.loc 1 214 0
  95              		.cfi_startproc
  96              		@ args = 0, pretend = 0, frame = 0
  97              		@ frame_needed = 0, uses_anonymous_args = 0
  98              	.LVL6:
  99 0000 08B5     		push	{r3, lr}
 100              	.LCFI2:
 101              		.cfi_def_cfa_offset 8
 102              		.loc 1 216 0
 103              		.cfi_offset 14, -4
 104              		.cfi_offset 3, -8
ARM GAS  C:\Users\z80\AppData\Local\Temp\ccZLkr7i.s 			page 3


 105 0002 FFF7FEFF 		bl	commandQueue
 106              	.LVL7:
 107              		.loc 1 217 0
 108 0006 0121     		movs	r1, #1
 109 0008 4FF0FF32 		mov	r2, #-1
 110 000c FFF7FEFF 		bl	chOQPutTimeout
 111              	.LVL8:
 112              		.loc 1 218 0
 113 0010 08BD     		pop	{r3, pc}
 114              		.cfi_endproc
 115              	.LFE76:
 116              		.size	set_one_pulse, .-set_one_pulse
 117 0012 00BFAFF3 		.section	.text.set_dac,"ax",%progbits
 117      0080AFF3 
 117      0080AFF3 
 117      0080
 118              		.align	2
 119              		.p2align 4,,15
 120              		.thumb
 121              		.thumb_func
 122              		.type	set_dac, %function
 123              	set_dac:
 124              	.LFB75:
 125              		.loc 1 207 0
 126              		.cfi_startproc
 127              		@ args = 0, pretend = 0, frame = 0
 128              		@ frame_needed = 0, uses_anonymous_args = 0
 129              	.LVL9:
 130 0000 08B5     		push	{r3, lr}
 131              	.LCFI3:
 132              		.cfi_def_cfa_offset 8
 133              		.loc 1 209 0
 134              		.cfi_offset 14, -4
 135              		.cfi_offset 3, -8
 136 0002 FFF7FEFF 		bl	commandQueue
 137              	.LVL10:
 138              		.loc 1 210 0
 139 0006 0021     		movs	r1, #0
 140 0008 4FF0FF32 		mov	r2, #-1
 141 000c FFF7FEFF 		bl	chOQPutTimeout
 142              	.LVL11:
 143              		.loc 1 211 0
 144 0010 08BD     		pop	{r3, pc}
 145              		.cfi_endproc
 146              	.LFE75:
 147              		.size	set_dac, .-set_dac
 148 0012 00BFAFF3 		.section	.text.set_sc_relay,"ax",%progbits
 148      0080AFF3 
 148      0080AFF3 
 148      0080
 149              		.align	2
 150              		.p2align 4,,15
 151              		.thumb
 152              		.thumb_func
 153              		.type	set_sc_relay, %function
 154              	set_sc_relay:
 155              	.LFB74:
ARM GAS  C:\Users\z80\AppData\Local\Temp\ccZLkr7i.s 			page 4


 156              		.loc 1 202 0
 157              		.cfi_startproc
 158              		@ args = 0, pretend = 0, frame = 0
 159              		@ frame_needed = 0, uses_anonymous_args = 0
 160              	.LVL12:
 161 0000 08B5     		push	{r3, lr}
 162              	.LCFI4:
 163              		.cfi_def_cfa_offset 8
 164              		.loc 1 203 0
 165 0002 0078     		ldrb	r0, [r0, #0]	@ zero_extendqisi2
 166              	.LVL13:
 167              		.cfi_offset 14, -4
 168              		.cfi_offset 3, -8
 169 0004 FFF7FEFF 		bl	setScRelay
 170              		.loc 1 204 0
 171 0008 08BD     		pop	{r3, pc}
 172              		.cfi_endproc
 173              	.LFE74:
 174              		.size	set_sc_relay, .-set_sc_relay
 175 000a 00BFAFF3 		.section	.text.set_out_relay,"ax",%progbits
 175      0080
 176              		.align	2
 177              		.p2align 4,,15
 178              		.thumb
 179              		.thumb_func
 180              		.type	set_out_relay, %function
 181              	set_out_relay:
 182              	.LFB73:
 183              		.loc 1 197 0
 184              		.cfi_startproc
 185              		@ args = 0, pretend = 0, frame = 0
 186              		@ frame_needed = 0, uses_anonymous_args = 0
 187              	.LVL14:
 188 0000 08B5     		push	{r3, lr}
 189              	.LCFI5:
 190              		.cfi_def_cfa_offset 8
 191              		.loc 1 198 0
 192 0002 0078     		ldrb	r0, [r0, #0]	@ zero_extendqisi2
 193              	.LVL15:
 194              		.cfi_offset 14, -4
 195              		.cfi_offset 3, -8
 196 0004 FFF7FEFF 		bl	setOutRelay
 197              		.loc 1 199 0
 198 0008 08BD     		pop	{r3, pc}
 199              		.cfi_endproc
 200              	.LFE73:
 201              		.size	set_out_relay, .-set_out_relay
 202 000a 00BFAFF3 		.section	.text.set_leds,"ax",%progbits
 202      0080
 203              		.align	2
 204              		.p2align 4,,15
 205              		.thumb
 206              		.thumb_func
 207              		.type	set_leds, %function
 208              	set_leds:
 209              	.LFB72:
 210              		.loc 1 192 0
ARM GAS  C:\Users\z80\AppData\Local\Temp\ccZLkr7i.s 			page 5


 211              		.cfi_startproc
 212              		@ args = 0, pretend = 0, frame = 0
 213              		@ frame_needed = 0, uses_anonymous_args = 0
 214              	.LVL16:
 215 0000 08B5     		push	{r3, lr}
 216              	.LCFI6:
 217              		.cfi_def_cfa_offset 8
 218              		.loc 1 193 0
 219 0002 0078     		ldrb	r0, [r0, #0]	@ zero_extendqisi2
 220              	.LVL17:
 221              		.cfi_offset 14, -4
 222              		.cfi_offset 3, -8
 223 0004 FFF7FEFF 		bl	setLeds
 224              		.loc 1 194 0
 225 0008 08BD     		pop	{r3, pc}
 226              		.cfi_endproc
 227              	.LFE72:
 228              		.size	set_leds, .-set_leds
 229 000a 00BFAFF3 		.section	.text.osc_set_period,"ax",%progbits
 229      0080
 230              		.align	2
 231              		.p2align 4,,15
 232              		.thumb
 233              		.thumb_func
 234              		.type	osc_set_period, %function
 235              	osc_set_period:
 236              	.LFB71:
 237              		.loc 1 181 0
 238              		.cfi_startproc
 239              		@ args = 0, pretend = 0, frame = 0
 240              		@ frame_needed = 0, uses_anonymous_args = 0
 241              	.LVL18:
 242 0000 08B5     		push	{r3, lr}
 243              	.LCFI7:
 244              		.cfi_def_cfa_offset 8
 245              		.loc 1 186 0
 246 0002 8178     		ldrb	r1, [r0, #2]	@ zero_extendqisi2
 247              		.loc 1 185 0
 248 0004 4378     		ldrb	r3, [r0, #1]	@ zero_extendqisi2
 249              		.cfi_offset 14, -4
 250              		.cfi_offset 3, -8
 251              		.loc 1 186 0
 252 0006 0904     		lsls	r1, r1, #16
 253              		.loc 1 184 0
 254 0008 0278     		ldrb	r2, [r0, #0]	@ zero_extendqisi2
 255 000a 01EB0321 		add	r1, r1, r3, lsl #8
 256              		.loc 1 187 0
 257 000e C378     		ldrb	r3, [r0, #3]	@ zero_extendqisi2
 258              		.loc 1 185 0
 259 0010 8818     		adds	r0, r1, r2
 260              	.LVL19:
 261              		.loc 1 184 0
 262 0012 00EB0360 		add	r0, r0, r3, lsl #24
 263              		.loc 1 188 0
 264 0016 FFF7FEFF 		bl	setOscPeriod
 265              		.loc 1 189 0
 266 001a 08BD     		pop	{r3, pc}
ARM GAS  C:\Users\z80\AppData\Local\Temp\ccZLkr7i.s 			page 6


 267              		.cfi_endproc
 268              	.LFE71:
 269              		.size	osc_set_period, .-osc_set_period
 270 001c AFF30080 		.section	.text.writeOscQueue,"ax",%progbits
 271              		.align	2
 272              		.p2align 4,,15
 273              		.thumb
 274              		.thumb_func
 275              		.type	writeOscQueue, %function
 276              	writeOscQueue:
 277              	.LFB67:
 278              		.loc 1 141 0
 279              		.cfi_startproc
 280              		@ args = 0, pretend = 0, frame = 0
 281              		@ frame_needed = 0, uses_anonymous_args = 0
 282              	.LVL20:
 283 0000 F8B5     		push	{r3, r4, r5, r6, r7, lr}
 284              	.LCFI8:
 285              		.cfi_def_cfa_offset 24
 286              		.loc 1 141 0
 287 0002 0546     		mov	r5, r0
 288              		.cfi_offset 14, -4
 289              		.cfi_offset 7, -8
 290              		.cfi_offset 6, -12
 291              		.cfi_offset 5, -16
 292              		.cfi_offset 4, -20
 293              		.cfi_offset 3, -24
 294              	.LBB17:
 295              		.loc 1 145 0
 296 0004 2023     		movs	r3, #32
 297              	.LVL21:
 298              	@ 145 "./src/cpu_io.c" 1
 299 0006 83F31188 		msr     BASEPRI, r3
 300              	@ 0 "" 2
 301              	.LVL22:
 302              		.thumb
 303              	.LBE17:
 304 000a FFF7FEFF 		bl	dbg_check_lock
 305              	.LVL23:
 306              		.loc 1 146 0
 307 000e AC68     		ldr	r4, [r5, #8]
 308              		.loc 1 147 0
 309 0010 FFF7FEFF 		bl	dbg_check_unlock
 310              		.loc 1 146 0
 311 0014 24F00104 		bic	r4, r4, #1
 312              	.LVL24:
 313              	.LBB18:
 314              		.loc 1 147 0
 315 0018 0023     		movs	r3, #0
 316              	.LVL25:
 317              	@ 147 "./src/cpu_io.c" 1
 318 001a 83F31188 		msr     BASEPRI, r3
 319              	@ 0 "" 2
 320              	.LVL26:
 321              		.thumb
 322              	.LBE18:
 323              		.loc 1 148 0
ARM GAS  C:\Users\z80\AppData\Local\Temp\ccZLkr7i.s 			page 7


 324 001e ECB1     		cbz	r4, .L10
 325 0020 1E46     		mov	r6, r3
 326 0022 0AE0     		b	.L13
 327              	.LVL27:
 328              	.L17:
 329              	.LBB19:
 330              	.LBB21:
 331              	.LBB23:
 332              		.loc 1 240 0 discriminator 1
 333 0024 1748     		ldr	r0, .L18
 334              	.LVL28:
 335 0026 3946     		mov	r1, r7
 336 0028 4FF0FF32 		mov	r2, #-1
 337 002c FFF7FEFF 		bl	chOQPutTimeout
 338              		.loc 1 241 0 discriminator 1
 339 0030 5C2F     		cmp	r7, #92
 340 0032 20D0     		beq	.L16
 341              	.L12:
 342              	.LBE23:
 343              	.LBE21:
 344              	.LBE19:
 345              		.loc 1 148 0 discriminator 3
 346 0034 0136     		adds	r6, r6, #1
 347              	.LVL29:
 348 0036 B442     		cmp	r4, r6
 349 0038 10D9     		bls	.L10
 350              	.LVL30:
 351              	.L13:
 352              	.LBB28:
 353              		.loc 1 150 0
 354 003a 0021     		movs	r1, #0
 355 003c 2846     		mov	r0, r5
 356 003e FFF7FEFF 		bl	chIQGetTimeout
 357              	.LVL31:
 358              		.loc 1 153 0
 359 0042 C7B2     		uxtb	r7, r0
 360              		.loc 1 151 0
 361 0044 0230     		adds	r0, r0, #2
 362              	.LVL32:
 363              		.loc 1 153 0
 364 0046 0128     		cmp	r0, #1
 365 0048 ECD8     		bhi	.L17
 366              	.LVL33:
 367              	.LBB26:
 368              	.LBB24:
 369              		.loc 1 240 0
 370 004a 0021     		movs	r1, #0
 371 004c 0D48     		ldr	r0, .L18
 372              	.LVL34:
 373 004e 4FF0FF32 		mov	r2, #-1
 374              	.LBE24:
 375              	.LBE26:
 376              	.LBE28:
 377              		.loc 1 148 0
 378 0052 0136     		adds	r6, r6, #1
 379              	.LBB29:
 380              	.LBB20:
ARM GAS  C:\Users\z80\AppData\Local\Temp\ccZLkr7i.s 			page 8


 381              	.LBB22:
 382              		.loc 1 240 0
 383 0054 FFF7FEFF 		bl	chOQPutTimeout
 384              	.LVL35:
 385              	.LBE22:
 386              	.LBE20:
 387              	.LBE29:
 388              		.loc 1 148 0
 389 0058 B442     		cmp	r4, r6
 390 005a EED8     		bhi	.L13
 391              	.LVL36:
 392              	.L10:
 393              	.LBB30:
 394              	.LBB31:
 395              		.loc 1 247 0
 396 005c 5C21     		movs	r1, #92
 397 005e 4FF0FF32 		mov	r2, #-1
 398 0062 0848     		ldr	r0, .L18
 399 0064 FFF7FEFF 		bl	chOQPutTimeout
 400              	.LVL37:
 401              		.loc 1 248 0
 402 0068 0021     		movs	r1, #0
 403 006a 4FF0FF32 		mov	r2, #-1
 404 006e 0548     		ldr	r0, .L18
 405 0070 FFF7FEFF 		bl	chOQPutTimeout
 406              	.LBE31:
 407              	.LBE30:
 408              		.loc 1 157 0
 409 0074 F8BD     		pop	{r3, r4, r5, r6, r7, pc}
 410              	.LVL38:
 411              	.L16:
 412              	.LBB32:
 413              	.LBB27:
 414              	.LBB25:
 415              		.loc 1 242 0
 416 0076 3946     		mov	r1, r7
 417 0078 4FF0FF32 		mov	r2, #-1
 418 007c 0148     		ldr	r0, .L18
 419 007e FFF7FEFF 		bl	chOQPutTimeout
 420 0082 D7E7     		b	.L12
 421              	.L19:
 422              		.align	2
 423              	.L18:
 424 0084 30000000 		.word	SD1+48
 425              	.LBE25:
 426              	.LBE27:
 427              	.LBE32:
 428              		.cfi_endproc
 429              	.LFE67:
 430              		.size	writeOscQueue, .-writeOscQueue
 431 0088 AFF30080 		.section	.text.osc_iaux,"ax",%progbits
 431      AFF30080 
 432              		.align	2
 433              		.p2align 4,,15
 434              		.thumb
 435              		.thumb_func
 436              		.type	osc_iaux, %function
ARM GAS  C:\Users\z80\AppData\Local\Temp\ccZLkr7i.s 			page 9


 437              	osc_iaux:
 438              	.LFB70:
 439              		.loc 1 174 0
 440              		.cfi_startproc
 441              		@ args = 0, pretend = 0, frame = 0
 442              		@ frame_needed = 0, uses_anonymous_args = 0
 443              	.LVL39:
 444 0000 08B5     		push	{r3, lr}
 445              	.LCFI9:
 446              		.cfi_def_cfa_offset 8
 447              		.loc 1 176 0
 448              		.cfi_offset 14, -4
 449              		.cfi_offset 3, -8
 450 0002 FFF7FEFF 		bl	iauxQueue
 451              	.LVL40:
 452              		.loc 1 177 0
 453 0006 FFF7FEFF 		bl	writeOscQueue
 454              	.LVL41:
 455              		.loc 1 178 0
 456 000a 08BD     		pop	{r3, pc}
 457              		.cfi_endproc
 458              	.LFE70:
 459              		.size	osc_iaux, .-osc_iaux
 460 000c AFF30080 		.section	.text.osc_eref,"ax",%progbits
 461              		.align	2
 462              		.p2align 4,,15
 463              		.thumb
 464              		.thumb_func
 465              		.type	osc_eref, %function
 466              	osc_eref:
 467              	.LFB69:
 468              		.loc 1 167 0
 469              		.cfi_startproc
 470              		@ args = 0, pretend = 0, frame = 0
 471              		@ frame_needed = 0, uses_anonymous_args = 0
 472              	.LVL42:
 473 0000 08B5     		push	{r3, lr}
 474              	.LCFI10:
 475              		.cfi_def_cfa_offset 8
 476              		.loc 1 169 0
 477              		.cfi_offset 14, -4
 478              		.cfi_offset 3, -8
 479 0002 FFF7FEFF 		bl	erefQueue
 480              	.LVL43:
 481              		.loc 1 170 0
 482 0006 FFF7FEFF 		bl	writeOscQueue
 483              	.LVL44:
 484              		.loc 1 171 0
 485 000a 08BD     		pop	{r3, pc}
 486              		.cfi_endproc
 487              	.LFE69:
 488              		.size	osc_eref, .-osc_eref
 489 000c AFF30080 		.section	.text.osc_eaux,"ax",%progbits
 490              		.align	2
 491              		.p2align 4,,15
 492              		.thumb
 493              		.thumb_func
ARM GAS  C:\Users\z80\AppData\Local\Temp\ccZLkr7i.s 			page 10


 494              		.type	osc_eaux, %function
 495              	osc_eaux:
 496              	.LFB68:
 497              		.loc 1 160 0
 498              		.cfi_startproc
 499              		@ args = 0, pretend = 0, frame = 0
 500              		@ frame_needed = 0, uses_anonymous_args = 0
 501              	.LVL45:
 502 0000 08B5     		push	{r3, lr}
 503              	.LCFI11:
 504              		.cfi_def_cfa_offset 8
 505              		.loc 1 162 0
 506              		.cfi_offset 14, -4
 507              		.cfi_offset 3, -8
 508 0002 FFF7FEFF 		bl	eauxQueue
 509              	.LVL46:
 510              		.loc 1 163 0
 511 0006 FFF7FEFF 		bl	writeOscQueue
 512              	.LVL47:
 513              		.loc 1 164 0
 514 000a 08BD     		pop	{r3, pc}
 515              		.cfi_endproc
 516              	.LFE68:
 517              		.size	osc_eaux, .-osc_eaux
 518 000c AFF30080 		.section	.text.cpu_io_init,"ax",%progbits
 519              		.align	2
 520              		.p2align 4,,15
 521              		.global	cpu_io_init
 522              		.thumb
 523              		.thumb_func
 524              		.type	cpu_io_init, %function
 525              	cpu_io_init:
 526              	.LFB62:
 527              		.loc 1 31 0
 528              		.cfi_startproc
 529              		@ args = 0, pretend = 0, frame = 0
 530              		@ frame_needed = 0, uses_anonymous_args = 0
 531              		.loc 1 33 0
 532 0000 40F20000 		movw	r0, #:lower16:SD1
 533              		.loc 1 31 0
 534 0004 08B5     		push	{r3, lr}
 535              	.LCFI12:
 536              		.cfi_def_cfa_offset 8
 537              		.loc 1 33 0
 538 0006 C0F20000 		movt	r0, #:upper16:SD1
 539 000a 0021     		movs	r1, #0
 540              		.cfi_offset 14, -4
 541              		.cfi_offset 3, -8
 542 000c FFF7FEFF 		bl	sdStart
 543              		.loc 1 34 0
 544 0010 08BD     		pop	{r3, pc}
 545              		.cfi_endproc
 546              	.LFE62:
 547              		.size	cpu_io_init, .-cpu_io_init
 548 0012 00BFAFF3 		.section	.text.cpu_io_process,"ax",%progbits
 548      0080AFF3 
 548      0080AFF3 
ARM GAS  C:\Users\z80\AppData\Local\Temp\ccZLkr7i.s 			page 11


 548      0080
 549              		.align	2
 550              		.p2align 4,,15
 551              		.global	cpu_io_process
 552              		.thumb
 553              		.thumb_func
 554              		.type	cpu_io_process, %function
 555              	cpu_io_process:
 556              	.LFB63:
 557              		.loc 1 37 0
 558              		.cfi_startproc
 559              		@ args = 0, pretend = 0, frame = 0
 560              		@ frame_needed = 0, uses_anonymous_args = 0
 561 0000 10B5     		push	{r4, lr}
 562              	.LCFI13:
 563              		.cfi_def_cfa_offset 8
 564 0002 0A4C     		ldr	r4, .L31
 565              		.cfi_offset 14, -4
 566              		.cfi_offset 4, -8
 567              	.L29:
 568              	.LVL48:
 569              	.LBB33:
 570              		.loc 1 47 0
 571 0004 0021     		movs	r1, #0
 572 0006 0A48     		ldr	r0, .L31+4
 573 0008 FFF7FEFF 		bl	chIQGetTimeout
 574              	.LVL49:
 575              		.loc 1 48 0
 576 000c 831C     		adds	r3, r0, #2
 577              		.loc 1 49 0
 578 000e 012B     		cmp	r3, #1
 579              	.LBB34:
 580              		.loc 1 51 0
 581 0010 C0B2     		uxtb	r0, r0
 582              	.LVL50:
 583              	.LBE34:
 584              		.loc 1 49 0
 585 0012 F7D9     		bls	.L29
 586              	.LVL51:
 587              	.L30:
 588              	.LBB35:
 589              		.loc 1 55 0
 590 0014 5C28     		cmp	r0, #92
 591              		.loc 1 56 0
 592 0016 18BF     		it	ne
 593 0018 2070     		strbne	r0, [r4, #0]
 594              	.LBE35:
 595              		.loc 1 47 0
 596 001a 0021     		movs	r1, #0
 597 001c 0448     		ldr	r0, .L31+4
 598              	.LVL52:
 599 001e FFF7FEFF 		bl	chIQGetTimeout
 600              	.LVL53:
 601              		.loc 1 48 0
 602 0022 831C     		adds	r3, r0, #2
 603              		.loc 1 49 0
 604 0024 012B     		cmp	r3, #1
ARM GAS  C:\Users\z80\AppData\Local\Temp\ccZLkr7i.s 			page 12


 605              	.LBB36:
 606              		.loc 1 51 0
 607 0026 C0B2     		uxtb	r0, r0
 608              	.LVL54:
 609              	.LBE36:
 610              		.loc 1 49 0
 611 0028 F4D8     		bhi	.L30
 612 002a EBE7     		b	.L29
 613              	.L32:
 614              		.align	2
 615              	.L31:
 616 002c 00000000 		.word	.LANCHOR0
 617 0030 10000000 		.word	SD1+16
 618              	.LBE33:
 619              		.cfi_endproc
 620              	.LFE63:
 621              		.size	cpu_io_process, .-cpu_io_process
 622 0034 AFF30080 		.section	.text.funcArgs,"ax",%progbits
 622      AFF30080 
 622      AFF30080 
 623              		.align	2
 624              		.p2align 4,,15
 625              		.global	funcArgs
 626              		.thumb
 627              		.thumb_func
 628              		.type	funcArgs, %function
 629              	funcArgs:
 630              	.LFB64:
 631              		.loc 1 79 0
 632              		.cfi_startproc
 633              		@ args = 0, pretend = 0, frame = 0
 634              		@ frame_needed = 0, uses_anonymous_args = 0
 635              		@ link register save eliminated.
 636              		.loc 1 80 0
 637 0000 40F20000 		movw	r0, #:lower16:.LANCHOR1
 638 0004 C0F20000 		movt	r0, #:upper16:.LANCHOR1
 639              		.loc 1 81 0
 640 0008 7047     		bx	lr
 641              		.cfi_endproc
 642              	.LFE64:
 643              		.size	funcArgs, .-funcArgs
 644 000a 00BFAFF3 		.section	.bss.buffer,"aw",%nobits
 644      0080
 645              		.align	2
 646              		.set	.LANCHOR0,. + 0
 647              		.type	buffer, %object
 648              		.size	buffer, 32
 649              	buffer:
 650 0000 00000000 		.space	32
 650      00000000 
 650      00000000 
 650      00000000 
 650      00000000 
 651              		.section	.bss.args,"aw",%nobits
 652              		.align	2
 653              		.set	.LANCHOR1,. + 0
 654              		.type	args, %object
ARM GAS  C:\Users\z80\AppData\Local\Temp\ccZLkr7i.s 			page 13


 655              		.size	args, 32
 656              	args:
 657 0000 00000000 		.space	32
 657      00000000 
 657      00000000 
 657      00000000 
 657      00000000 
 658              		.text
 659              	.Letext0:
 660              		.section	.debug_loc,"",%progbits
 661              	.Ldebug_loc0:
 662              	.LLST0:
 663 0000 00000000 		.4byte	.LFB78
 664 0004 02000000 		.4byte	.LCFI0
 665 0008 0200     		.2byte	0x2
 666 000a 7D       		.byte	0x7d
 667 000b 00       		.sleb128 0
 668 000c 02000000 		.4byte	.LCFI0
 669 0010 12000000 		.4byte	.LFE78
 670 0014 0200     		.2byte	0x2
 671 0016 7D       		.byte	0x7d
 672 0017 08       		.sleb128 8
 673 0018 00000000 		.4byte	0x0
 674 001c 00000000 		.4byte	0x0
 675              	.LLST1:
 676 0020 00000000 		.4byte	.LVL0
 677 0024 05000000 		.4byte	.LVL1-1
 678 0028 0100     		.2byte	0x1
 679 002a 50       		.byte	0x50
 680 002b 00000000 		.4byte	0x0
 681 002f 00000000 		.4byte	0x0
 682              	.LLST2:
 683 0033 06000000 		.4byte	.LVL1
 684 0037 0F000000 		.4byte	.LVL2-1
 685 003b 0100     		.2byte	0x1
 686 003d 50       		.byte	0x50
 687 003e 00000000 		.4byte	0x0
 688 0042 00000000 		.4byte	0x0
 689              	.LLST3:
 690 0046 00000000 		.4byte	.LFB77
 691 004a 02000000 		.4byte	.LCFI1
 692 004e 0200     		.2byte	0x2
 693 0050 7D       		.byte	0x7d
 694 0051 00       		.sleb128 0
 695 0052 02000000 		.4byte	.LCFI1
 696 0056 12000000 		.4byte	.LFE77
 697 005a 0200     		.2byte	0x2
 698 005c 7D       		.byte	0x7d
 699 005d 08       		.sleb128 8
 700 005e 00000000 		.4byte	0x0
 701 0062 00000000 		.4byte	0x0
 702              	.LLST4:
 703 0066 00000000 		.4byte	.LVL3
 704 006a 05000000 		.4byte	.LVL4-1
 705 006e 0100     		.2byte	0x1
 706 0070 50       		.byte	0x50
 707 0071 00000000 		.4byte	0x0
ARM GAS  C:\Users\z80\AppData\Local\Temp\ccZLkr7i.s 			page 14


 708 0075 00000000 		.4byte	0x0
 709              	.LLST5:
 710 0079 06000000 		.4byte	.LVL4
 711 007d 0F000000 		.4byte	.LVL5-1
 712 0081 0100     		.2byte	0x1
 713 0083 50       		.byte	0x50
 714 0084 00000000 		.4byte	0x0
 715 0088 00000000 		.4byte	0x0
 716              	.LLST6:
 717 008c 00000000 		.4byte	.LFB76
 718 0090 02000000 		.4byte	.LCFI2
 719 0094 0200     		.2byte	0x2
 720 0096 7D       		.byte	0x7d
 721 0097 00       		.sleb128 0
 722 0098 02000000 		.4byte	.LCFI2
 723 009c 12000000 		.4byte	.LFE76
 724 00a0 0200     		.2byte	0x2
 725 00a2 7D       		.byte	0x7d
 726 00a3 08       		.sleb128 8
 727 00a4 00000000 		.4byte	0x0
 728 00a8 00000000 		.4byte	0x0
 729              	.LLST7:
 730 00ac 00000000 		.4byte	.LVL6
 731 00b0 05000000 		.4byte	.LVL7-1
 732 00b4 0100     		.2byte	0x1
 733 00b6 50       		.byte	0x50
 734 00b7 00000000 		.4byte	0x0
 735 00bb 00000000 		.4byte	0x0
 736              	.LLST8:
 737 00bf 06000000 		.4byte	.LVL7
 738 00c3 0F000000 		.4byte	.LVL8-1
 739 00c7 0100     		.2byte	0x1
 740 00c9 50       		.byte	0x50
 741 00ca 00000000 		.4byte	0x0
 742 00ce 00000000 		.4byte	0x0
 743              	.LLST9:
 744 00d2 00000000 		.4byte	.LFB75
 745 00d6 02000000 		.4byte	.LCFI3
 746 00da 0200     		.2byte	0x2
 747 00dc 7D       		.byte	0x7d
 748 00dd 00       		.sleb128 0
 749 00de 02000000 		.4byte	.LCFI3
 750 00e2 12000000 		.4byte	.LFE75
 751 00e6 0200     		.2byte	0x2
 752 00e8 7D       		.byte	0x7d
 753 00e9 08       		.sleb128 8
 754 00ea 00000000 		.4byte	0x0
 755 00ee 00000000 		.4byte	0x0
 756              	.LLST10:
 757 00f2 00000000 		.4byte	.LVL9
 758 00f6 05000000 		.4byte	.LVL10-1
 759 00fa 0100     		.2byte	0x1
 760 00fc 50       		.byte	0x50
 761 00fd 00000000 		.4byte	0x0
 762 0101 00000000 		.4byte	0x0
 763              	.LLST11:
 764 0105 06000000 		.4byte	.LVL10
ARM GAS  C:\Users\z80\AppData\Local\Temp\ccZLkr7i.s 			page 15


 765 0109 0F000000 		.4byte	.LVL11-1
 766 010d 0100     		.2byte	0x1
 767 010f 50       		.byte	0x50
 768 0110 00000000 		.4byte	0x0
 769 0114 00000000 		.4byte	0x0
 770              	.LLST12:
 771 0118 00000000 		.4byte	.LFB74
 772 011c 02000000 		.4byte	.LCFI4
 773 0120 0200     		.2byte	0x2
 774 0122 7D       		.byte	0x7d
 775 0123 00       		.sleb128 0
 776 0124 02000000 		.4byte	.LCFI4
 777 0128 0A000000 		.4byte	.LFE74
 778 012c 0200     		.2byte	0x2
 779 012e 7D       		.byte	0x7d
 780 012f 08       		.sleb128 8
 781 0130 00000000 		.4byte	0x0
 782 0134 00000000 		.4byte	0x0
 783              	.LLST13:
 784 0138 00000000 		.4byte	.LVL12
 785 013c 04000000 		.4byte	.LVL13
 786 0140 0100     		.2byte	0x1
 787 0142 50       		.byte	0x50
 788 0143 00000000 		.4byte	0x0
 789 0147 00000000 		.4byte	0x0
 790              	.LLST14:
 791 014b 00000000 		.4byte	.LFB73
 792 014f 02000000 		.4byte	.LCFI5
 793 0153 0200     		.2byte	0x2
 794 0155 7D       		.byte	0x7d
 795 0156 00       		.sleb128 0
 796 0157 02000000 		.4byte	.LCFI5
 797 015b 0A000000 		.4byte	.LFE73
 798 015f 0200     		.2byte	0x2
 799 0161 7D       		.byte	0x7d
 800 0162 08       		.sleb128 8
 801 0163 00000000 		.4byte	0x0
 802 0167 00000000 		.4byte	0x0
 803              	.LLST15:
 804 016b 00000000 		.4byte	.LVL14
 805 016f 04000000 		.4byte	.LVL15
 806 0173 0100     		.2byte	0x1
 807 0175 50       		.byte	0x50
 808 0176 00000000 		.4byte	0x0
 809 017a 00000000 		.4byte	0x0
 810              	.LLST16:
 811 017e 00000000 		.4byte	.LFB72
 812 0182 02000000 		.4byte	.LCFI6
 813 0186 0200     		.2byte	0x2
 814 0188 7D       		.byte	0x7d
 815 0189 00       		.sleb128 0
 816 018a 02000000 		.4byte	.LCFI6
 817 018e 0A000000 		.4byte	.LFE72
 818 0192 0200     		.2byte	0x2
 819 0194 7D       		.byte	0x7d
 820 0195 08       		.sleb128 8
 821 0196 00000000 		.4byte	0x0
ARM GAS  C:\Users\z80\AppData\Local\Temp\ccZLkr7i.s 			page 16


 822 019a 00000000 		.4byte	0x0
 823              	.LLST17:
 824 019e 00000000 		.4byte	.LVL16
 825 01a2 04000000 		.4byte	.LVL17
 826 01a6 0100     		.2byte	0x1
 827 01a8 50       		.byte	0x50
 828 01a9 00000000 		.4byte	0x0
 829 01ad 00000000 		.4byte	0x0
 830              	.LLST18:
 831 01b1 00000000 		.4byte	.LFB71
 832 01b5 02000000 		.4byte	.LCFI7
 833 01b9 0200     		.2byte	0x2
 834 01bb 7D       		.byte	0x7d
 835 01bc 00       		.sleb128 0
 836 01bd 02000000 		.4byte	.LCFI7
 837 01c1 1C000000 		.4byte	.LFE71
 838 01c5 0200     		.2byte	0x2
 839 01c7 7D       		.byte	0x7d
 840 01c8 08       		.sleb128 8
 841 01c9 00000000 		.4byte	0x0
 842 01cd 00000000 		.4byte	0x0
 843              	.LLST19:
 844 01d1 00000000 		.4byte	.LVL18
 845 01d5 12000000 		.4byte	.LVL19
 846 01d9 0100     		.2byte	0x1
 847 01db 50       		.byte	0x50
 848 01dc 00000000 		.4byte	0x0
 849 01e0 00000000 		.4byte	0x0
 850              	.LLST20:
 851 01e4 00000000 		.4byte	.LFB67
 852 01e8 02000000 		.4byte	.LCFI8
 853 01ec 0200     		.2byte	0x2
 854 01ee 7D       		.byte	0x7d
 855 01ef 00       		.sleb128 0
 856 01f0 02000000 		.4byte	.LCFI8
 857 01f4 88000000 		.4byte	.LFE67
 858 01f8 0200     		.2byte	0x2
 859 01fa 7D       		.byte	0x7d
 860 01fb 18       		.sleb128 24
 861 01fc 00000000 		.4byte	0x0
 862 0200 00000000 		.4byte	0x0
 863              	.LLST21:
 864 0204 00000000 		.4byte	.LVL20
 865 0208 0D000000 		.4byte	.LVL23-1
 866 020c 0100     		.2byte	0x1
 867 020e 50       		.byte	0x50
 868 020f 0D000000 		.4byte	.LVL23-1
 869 0213 88000000 		.4byte	.LFE67
 870 0217 0100     		.2byte	0x1
 871 0219 55       		.byte	0x55
 872 021a 00000000 		.4byte	0x0
 873 021e 00000000 		.4byte	0x0
 874              	.LLST22:
 875 0222 24000000 		.4byte	.LVL27
 876 0226 26000000 		.4byte	.LVL28
 877 022a 0300     		.2byte	0x3
 878 022c 70       		.byte	0x70
ARM GAS  C:\Users\z80\AppData\Local\Temp\ccZLkr7i.s 			page 17


 879 022d 7E       		.sleb128 -2
 880 022e 9F       		.byte	0x9f
 881 022f 42000000 		.4byte	.LVL31
 882 0233 46000000 		.4byte	.LVL32
 883 0237 0100     		.2byte	0x1
 884 0239 50       		.byte	0x50
 885 023a 46000000 		.4byte	.LVL32
 886 023e 4E000000 		.4byte	.LVL34
 887 0242 0300     		.2byte	0x3
 888 0244 70       		.byte	0x70
 889 0245 7E       		.sleb128 -2
 890 0246 9F       		.byte	0x9f
 891 0247 00000000 		.4byte	0x0
 892 024b 00000000 		.4byte	0x0
 893              	.LLST23:
 894 024f 24000000 		.4byte	.LVL27
 895 0253 26000000 		.4byte	.LVL28
 896 0257 0F00     		.2byte	0xf
 897 0259 70       		.byte	0x70
 898 025a 00       		.sleb128 0
 899 025b 23       		.byte	0x23
 900 025c 80808080 		.uleb128 0x80000000
 900      08
 901 0261 0C       		.byte	0xc
 902 0262 01000080 		.4byte	0x80000001
 903 0266 2C       		.byte	0x2c
 904 0267 9F       		.byte	0x9f
 905 0268 42000000 		.4byte	.LVL31
 906 026c 46000000 		.4byte	.LVL32
 907 0270 0F00     		.2byte	0xf
 908 0272 70       		.byte	0x70
 909 0273 02       		.sleb128 2
 910 0274 23       		.byte	0x23
 911 0275 80808080 		.uleb128 0x80000000
 911      08
 912 027a 0C       		.byte	0xc
 913 027b 01000080 		.4byte	0x80000001
 914 027f 2C       		.byte	0x2c
 915 0280 9F       		.byte	0x9f
 916 0281 46000000 		.4byte	.LVL32
 917 0285 4E000000 		.4byte	.LVL34
 918 0289 0F00     		.2byte	0xf
 919 028b 70       		.byte	0x70
 920 028c 00       		.sleb128 0
 921 028d 23       		.byte	0x23
 922 028e 80808080 		.uleb128 0x80000000
 922      08
 923 0293 0C       		.byte	0xc
 924 0294 01000080 		.4byte	0x80000001
 925 0298 2C       		.byte	0x2c
 926 0299 9F       		.byte	0x9f
 927 029a 00000000 		.4byte	0x0
 928 029e 00000000 		.4byte	0x0
 929              	.LLST24:
 930 02a2 1E000000 		.4byte	.LVL26
 931 02a6 24000000 		.4byte	.LVL27
 932 02aa 0200     		.2byte	0x2
ARM GAS  C:\Users\z80\AppData\Local\Temp\ccZLkr7i.s 			page 18


 933 02ac 30       		.byte	0x30
 934 02ad 9F       		.byte	0x9f
 935 02ae 36000000 		.4byte	.LVL29
 936 02b2 3A000000 		.4byte	.LVL30
 937 02b6 0100     		.2byte	0x1
 938 02b8 56       		.byte	0x56
 939 02b9 58000000 		.4byte	.LVL35
 940 02bd 5C000000 		.4byte	.LVL36
 941 02c1 0100     		.2byte	0x1
 942 02c3 56       		.byte	0x56
 943 02c4 00000000 		.4byte	0x0
 944 02c8 00000000 		.4byte	0x0
 945              	.LLST25:
 946 02cc 0A000000 		.4byte	.LVL22
 947 02d0 0D000000 		.4byte	.LVL23-1
 948 02d4 0100     		.2byte	0x1
 949 02d6 53       		.byte	0x53
 950 02d7 00000000 		.4byte	0x0
 951 02db 00000000 		.4byte	0x0
 952              	.LLST26:
 953 02df 1E000000 		.4byte	.LVL26
 954 02e3 24000000 		.4byte	.LVL27
 955 02e7 0100     		.2byte	0x1
 956 02e9 53       		.byte	0x53
 957 02ea 3A000000 		.4byte	.LVL30
 958 02ee 41000000 		.4byte	.LVL31-1
 959 02f2 0100     		.2byte	0x1
 960 02f4 53       		.byte	0x53
 961 02f5 5C000000 		.4byte	.LVL36
 962 02f9 67000000 		.4byte	.LVL37-1
 963 02fd 0100     		.2byte	0x1
 964 02ff 53       		.byte	0x53
 965 0300 00000000 		.4byte	0x0
 966 0304 00000000 		.4byte	0x0
 967              	.LLST27:
 968 0308 24000000 		.4byte	.LVL27
 969 030c 3A000000 		.4byte	.LVL30
 970 0310 0100     		.2byte	0x1
 971 0312 57       		.byte	0x57
 972 0313 4A000000 		.4byte	.LVL33
 973 0317 5C000000 		.4byte	.LVL36
 974 031b 0200     		.2byte	0x2
 975 031d 30       		.byte	0x30
 976 031e 9F       		.byte	0x9f
 977 031f 76000000 		.4byte	.LVL38
 978 0323 88000000 		.4byte	.LFE67
 979 0327 0100     		.2byte	0x1
 980 0329 57       		.byte	0x57
 981 032a 00000000 		.4byte	0x0
 982 032e 00000000 		.4byte	0x0
 983              	.LLST28:
 984 0332 24000000 		.4byte	.LVL27
 985 0336 3A000000 		.4byte	.LVL30
 986 033a 0100     		.2byte	0x1
 987 033c 57       		.byte	0x57
 988 033d 4A000000 		.4byte	.LVL33
 989 0341 5C000000 		.4byte	.LVL36
ARM GAS  C:\Users\z80\AppData\Local\Temp\ccZLkr7i.s 			page 19


 990 0345 0200     		.2byte	0x2
 991 0347 30       		.byte	0x30
 992 0348 9F       		.byte	0x9f
 993 0349 76000000 		.4byte	.LVL38
 994 034d 88000000 		.4byte	.LFE67
 995 0351 0100     		.2byte	0x1
 996 0353 57       		.byte	0x57
 997 0354 00000000 		.4byte	0x0
 998 0358 00000000 		.4byte	0x0
 999              	.LLST29:
 1000 035c 00000000 		.4byte	.LFB70
 1001 0360 02000000 		.4byte	.LCFI9
 1002 0364 0200     		.2byte	0x2
 1003 0366 7D       		.byte	0x7d
 1004 0367 00       		.sleb128 0
 1005 0368 02000000 		.4byte	.LCFI9
 1006 036c 0C000000 		.4byte	.LFE70
 1007 0370 0200     		.2byte	0x2
 1008 0372 7D       		.byte	0x7d
 1009 0373 08       		.sleb128 8
 1010 0374 00000000 		.4byte	0x0
 1011 0378 00000000 		.4byte	0x0
 1012              	.LLST30:
 1013 037c 00000000 		.4byte	.LVL39
 1014 0380 05000000 		.4byte	.LVL40-1
 1015 0384 0100     		.2byte	0x1
 1016 0386 50       		.byte	0x50
 1017 0387 00000000 		.4byte	0x0
 1018 038b 00000000 		.4byte	0x0
 1019              	.LLST31:
 1020 038f 06000000 		.4byte	.LVL40
 1021 0393 09000000 		.4byte	.LVL41-1
 1022 0397 0100     		.2byte	0x1
 1023 0399 50       		.byte	0x50
 1024 039a 00000000 		.4byte	0x0
 1025 039e 00000000 		.4byte	0x0
 1026              	.LLST32:
 1027 03a2 00000000 		.4byte	.LFB69
 1028 03a6 02000000 		.4byte	.LCFI10
 1029 03aa 0200     		.2byte	0x2
 1030 03ac 7D       		.byte	0x7d
 1031 03ad 00       		.sleb128 0
 1032 03ae 02000000 		.4byte	.LCFI10
 1033 03b2 0C000000 		.4byte	.LFE69
 1034 03b6 0200     		.2byte	0x2
 1035 03b8 7D       		.byte	0x7d
 1036 03b9 08       		.sleb128 8
 1037 03ba 00000000 		.4byte	0x0
 1038 03be 00000000 		.4byte	0x0
 1039              	.LLST33:
 1040 03c2 00000000 		.4byte	.LVL42
 1041 03c6 05000000 		.4byte	.LVL43-1
 1042 03ca 0100     		.2byte	0x1
 1043 03cc 50       		.byte	0x50
 1044 03cd 00000000 		.4byte	0x0
 1045 03d1 00000000 		.4byte	0x0
 1046              	.LLST34:
ARM GAS  C:\Users\z80\AppData\Local\Temp\ccZLkr7i.s 			page 20


 1047 03d5 06000000 		.4byte	.LVL43
 1048 03d9 09000000 		.4byte	.LVL44-1
 1049 03dd 0100     		.2byte	0x1
 1050 03df 50       		.byte	0x50
 1051 03e0 00000000 		.4byte	0x0
 1052 03e4 00000000 		.4byte	0x0
 1053              	.LLST35:
 1054 03e8 00000000 		.4byte	.LFB68
 1055 03ec 02000000 		.4byte	.LCFI11
 1056 03f0 0200     		.2byte	0x2
 1057 03f2 7D       		.byte	0x7d
 1058 03f3 00       		.sleb128 0
 1059 03f4 02000000 		.4byte	.LCFI11
 1060 03f8 0C000000 		.4byte	.LFE68
 1061 03fc 0200     		.2byte	0x2
 1062 03fe 7D       		.byte	0x7d
 1063 03ff 08       		.sleb128 8
 1064 0400 00000000 		.4byte	0x0
 1065 0404 00000000 		.4byte	0x0
 1066              	.LLST36:
 1067 0408 00000000 		.4byte	.LVL45
 1068 040c 05000000 		.4byte	.LVL46-1
 1069 0410 0100     		.2byte	0x1
 1070 0412 50       		.byte	0x50
 1071 0413 00000000 		.4byte	0x0
 1072 0417 00000000 		.4byte	0x0
 1073              	.LLST37:
 1074 041b 06000000 		.4byte	.LVL46
 1075 041f 09000000 		.4byte	.LVL47-1
 1076 0423 0100     		.2byte	0x1
 1077 0425 50       		.byte	0x50
 1078 0426 00000000 		.4byte	0x0
 1079 042a 00000000 		.4byte	0x0
 1080              	.LLST38:
 1081 042e 00000000 		.4byte	.LFB62
 1082 0432 06000000 		.4byte	.LCFI12
 1083 0436 0200     		.2byte	0x2
 1084 0438 7D       		.byte	0x7d
 1085 0439 00       		.sleb128 0
 1086 043a 06000000 		.4byte	.LCFI12
 1087 043e 12000000 		.4byte	.LFE62
 1088 0442 0200     		.2byte	0x2
 1089 0444 7D       		.byte	0x7d
 1090 0445 08       		.sleb128 8
 1091 0446 00000000 		.4byte	0x0
 1092 044a 00000000 		.4byte	0x0
 1093              	.LLST39:
 1094 044e 00000000 		.4byte	.LFB63
 1095 0452 02000000 		.4byte	.LCFI13
 1096 0456 0200     		.2byte	0x2
 1097 0458 7D       		.byte	0x7d
 1098 0459 00       		.sleb128 0
 1099 045a 02000000 		.4byte	.LCFI13
 1100 045e 34000000 		.4byte	.LFE63
 1101 0462 0200     		.2byte	0x2
 1102 0464 7D       		.byte	0x7d
 1103 0465 08       		.sleb128 8
ARM GAS  C:\Users\z80\AppData\Local\Temp\ccZLkr7i.s 			page 21


 1104 0466 00000000 		.4byte	0x0
 1105 046a 00000000 		.4byte	0x0
 1106              	.LLST40:
 1107 046e 0C000000 		.4byte	.LVL49
 1108 0472 12000000 		.4byte	.LVL50
 1109 0476 0100     		.2byte	0x1
 1110 0478 50       		.byte	0x50
 1111 0479 12000000 		.4byte	.LVL50
 1112 047d 14000000 		.4byte	.LVL51
 1113 0481 0300     		.2byte	0x3
 1114 0483 73       		.byte	0x73
 1115 0484 7E       		.sleb128 -2
 1116 0485 9F       		.byte	0x9f
 1117 0486 22000000 		.4byte	.LVL53
 1118 048a 28000000 		.4byte	.LVL54
 1119 048e 0100     		.2byte	0x1
 1120 0490 50       		.byte	0x50
 1121 0491 28000000 		.4byte	.LVL54
 1122 0495 34000000 		.4byte	.LFE63
 1123 0499 0300     		.2byte	0x3
 1124 049b 73       		.byte	0x73
 1125 049c 7E       		.sleb128 -2
 1126 049d 9F       		.byte	0x9f
 1127 049e 00000000 		.4byte	0x0
 1128 04a2 00000000 		.4byte	0x0
 1129              	.LLST41:
 1130 04a6 0C000000 		.4byte	.LVL49
 1131 04aa 12000000 		.4byte	.LVL50
 1132 04ae 0F00     		.2byte	0xf
 1133 04b0 70       		.byte	0x70
 1134 04b1 02       		.sleb128 2
 1135 04b2 23       		.byte	0x23
 1136 04b3 80808080 		.uleb128 0x80000000
 1136      08
 1137 04b8 0C       		.byte	0xc
 1138 04b9 01000080 		.4byte	0x80000001
 1139 04bd 2C       		.byte	0x2c
 1140 04be 9F       		.byte	0x9f
 1141 04bf 12000000 		.4byte	.LVL50
 1142 04c3 14000000 		.4byte	.LVL51
 1143 04c7 0F00     		.2byte	0xf
 1144 04c9 73       		.byte	0x73
 1145 04ca 00       		.sleb128 0
 1146 04cb 23       		.byte	0x23
 1147 04cc 80808080 		.uleb128 0x80000000
 1147      08
 1148 04d1 0C       		.byte	0xc
 1149 04d2 01000080 		.4byte	0x80000001
 1150 04d6 2C       		.byte	0x2c
 1151 04d7 9F       		.byte	0x9f
 1152 04d8 22000000 		.4byte	.LVL53
 1153 04dc 28000000 		.4byte	.LVL54
 1154 04e0 0F00     		.2byte	0xf
 1155 04e2 70       		.byte	0x70
 1156 04e3 02       		.sleb128 2
 1157 04e4 23       		.byte	0x23
 1158 04e5 80808080 		.uleb128 0x80000000
ARM GAS  C:\Users\z80\AppData\Local\Temp\ccZLkr7i.s 			page 22


 1158      08
 1159 04ea 0C       		.byte	0xc
 1160 04eb 01000080 		.4byte	0x80000001
 1161 04ef 2C       		.byte	0x2c
 1162 04f0 9F       		.byte	0x9f
 1163 04f1 28000000 		.4byte	.LVL54
 1164 04f5 34000000 		.4byte	.LFE63
 1165 04f9 0F00     		.2byte	0xf
 1166 04fb 73       		.byte	0x73
 1167 04fc 00       		.sleb128 0
 1168 04fd 23       		.byte	0x23
 1169 04fe 80808080 		.uleb128 0x80000000
 1169      08
 1170 0503 0C       		.byte	0xc
 1171 0504 01000080 		.4byte	0x80000001
 1172 0508 2C       		.byte	0x2c
 1173 0509 9F       		.byte	0x9f
 1174 050a 00000000 		.4byte	0x0
 1175 050e 00000000 		.4byte	0x0
 1176              	.LLST42:
 1177 0512 14000000 		.4byte	.LVL51
 1178 0516 1E000000 		.4byte	.LVL52
 1179 051a 0100     		.2byte	0x1
 1180 051c 50       		.byte	0x50
 1181 051d 00000000 		.4byte	0x0
 1182 0521 00000000 		.4byte	0x0
 1183              		.file 2 "c:\\programs\\yagarto\\bin\\../lib/gcc/arm-none-eabi/4.5.0/include/stddef.h"
 1184              		.file 3 "c:/programs/yagarto/lib/gcc/../../arm-none-eabi/sys-include/stdint.h"
 1185              		.file 4 "../chibios_2.4.x/os/ports/GCC/ARMCMx/chtypes.h"
 1186              		.file 5 "../chibios_2.4.x/os/kernel/include/chlists.h"
 1187              		.file 6 "../chibios_2.4.x/os/kernel/include/chthreads.h"
 1188              		.file 7 "../chibios_2.4.x/os/ports/GCC/ARMCMx/chcore_v7m.h"
 1189              		.file 8 "../chibios_2.4.x/os/kernel/include/chmtx.h"
 1190              		.file 9 "../chibios_2.4.x/os/kernel/include/chevents.h"
 1191              		.file 10 "../chibios_2.4.x/os/kernel/include/chqueues.h"
 1192              		.file 11 "../chibios_2.4.x/os/kernel/include/chioch.h"
 1193              		.file 12 "./src/cpu_io.h"
 1194              		.file 13 "../chibios_2.4.x/os/hal/platforms/STM32F1xx/stm32f10x.h"
 1195              		.file 14 "../chibios_2.4.x/os/hal/include/serial.h"
 1196              		.file 15 "../chibios_2.4.x/os/ports/common/ARMCMx/CMSIS/include/core_cm3.h"
 1197              		.file 16 "../chibios_2.4.x/os/hal/platforms/STM32/serial_lld.h"
 1198              		.section	.debug_info
 1199 0000 230D0000 		.4byte	0xd23
 1200 0004 0200     		.2byte	0x2
 1201 0006 00000000 		.4byte	.Ldebug_abbrev0
 1202 000a 04       		.byte	0x4
 1203 000b 01       		.uleb128 0x1
 1204 000c FA040000 		.4byte	.LASF129
 1205 0010 01       		.byte	0x1
 1206 0011 46020000 		.4byte	.LASF130
 1207 0015 B9020000 		.4byte	.LASF131
 1208 0019 00000000 		.4byte	0x0
 1209 001d 00000000 		.4byte	0x0
 1210 0021 70000000 		.4byte	.Ldebug_ranges0+0x70
 1211 0025 00000000 		.4byte	.Ldebug_line0
 1212 0029 02       		.uleb128 0x2
 1213 002a 04       		.byte	0x4
ARM GAS  C:\Users\z80\AppData\Local\Temp\ccZLkr7i.s 			page 23


 1214 002b 05       		.byte	0x5
 1215 002c 696E7400 		.ascii	"int\000"
 1216 0030 03       		.uleb128 0x3
 1217 0031 09000000 		.4byte	.LASF2
 1218 0035 02       		.byte	0x2
 1219 0036 D3       		.byte	0xd3
 1220 0037 3B000000 		.4byte	0x3b
 1221 003b 04       		.uleb128 0x4
 1222 003c 04       		.byte	0x4
 1223 003d 07       		.byte	0x7
 1224 003e 6B010000 		.4byte	.LASF0
 1225 0042 04       		.uleb128 0x4
 1226 0043 01       		.byte	0x1
 1227 0044 06       		.byte	0x6
 1228 0045 D2000000 		.4byte	.LASF1
 1229 0049 03       		.uleb128 0x3
 1230 004a D3040000 		.4byte	.LASF3
 1231 004e 03       		.byte	0x3
 1232 004f 2A       		.byte	0x2a
 1233 0050 54000000 		.4byte	0x54
 1234 0054 04       		.uleb128 0x4
 1235 0055 01       		.byte	0x1
 1236 0056 08       		.byte	0x8
 1237 0057 75030000 		.4byte	.LASF4
 1238 005b 04       		.uleb128 0x4
 1239 005c 02       		.byte	0x2
 1240 005d 05       		.byte	0x5
 1241 005e 99030000 		.4byte	.LASF5
 1242 0062 03       		.uleb128 0x3
 1243 0063 78010000 		.4byte	.LASF6
 1244 0067 03       		.byte	0x3
 1245 0068 36       		.byte	0x36
 1246 0069 6D000000 		.4byte	0x6d
 1247 006d 04       		.uleb128 0x4
 1248 006e 02       		.byte	0x2
 1249 006f 07       		.byte	0x7
 1250 0070 D3010000 		.4byte	.LASF7
 1251 0074 03       		.uleb128 0x3
 1252 0075 6D030000 		.4byte	.LASF8
 1253 0079 03       		.byte	0x3
 1254 007a 4F       		.byte	0x4f
 1255 007b 7F000000 		.4byte	0x7f
 1256 007f 04       		.uleb128 0x4
 1257 0080 04       		.byte	0x4
 1258 0081 05       		.byte	0x5
 1259 0082 0E010000 		.4byte	.LASF9
 1260 0086 03       		.uleb128 0x3
 1261 0087 0A040000 		.4byte	.LASF10
 1262 008b 03       		.byte	0x3
 1263 008c 50       		.byte	0x50
 1264 008d 91000000 		.4byte	0x91
 1265 0091 04       		.uleb128 0x4
 1266 0092 04       		.byte	0x4
 1267 0093 07       		.byte	0x7
 1268 0094 2A040000 		.4byte	.LASF11
 1269 0098 04       		.uleb128 0x4
 1270 0099 08       		.byte	0x8
ARM GAS  C:\Users\z80\AppData\Local\Temp\ccZLkr7i.s 			page 24


 1271 009a 05       		.byte	0x5
 1272 009b C4000000 		.4byte	.LASF12
 1273 009f 03       		.uleb128 0x3
 1274 00a0 17000000 		.4byte	.LASF13
 1275 00a4 03       		.byte	0x3
 1276 00a5 78       		.byte	0x78
 1277 00a6 AA000000 		.4byte	0xaa
 1278 00aa 04       		.uleb128 0x4
 1279 00ab 08       		.byte	0x8
 1280 00ac 07       		.byte	0x7
 1281 00ad 4D000000 		.4byte	.LASF14
 1282 00b1 03       		.uleb128 0x3
 1283 00b2 3F000000 		.4byte	.LASF15
 1284 00b6 03       		.byte	0x3
 1285 00b7 A6       		.byte	0xa6
 1286 00b8 3B000000 		.4byte	0x3b
 1287 00bc 03       		.uleb128 0x3
 1288 00bd EB000000 		.4byte	.LASF16
 1289 00c1 04       		.byte	0x4
 1290 00c2 2E       		.byte	0x2e
 1291 00c3 74000000 		.4byte	0x74
 1292 00c7 03       		.uleb128 0x3
 1293 00c8 11020000 		.4byte	.LASF17
 1294 00cc 04       		.byte	0x4
 1295 00cd 2F       		.byte	0x2f
 1296 00ce 49000000 		.4byte	0x49
 1297 00d2 03       		.uleb128 0x3
 1298 00d3 17010000 		.4byte	.LASF18
 1299 00d7 04       		.byte	0x4
 1300 00d8 30       		.byte	0x30
 1301 00d9 49000000 		.4byte	0x49
 1302 00dd 03       		.uleb128 0x3
 1303 00de C5010000 		.4byte	.LASF19
 1304 00e2 04       		.byte	0x4
 1305 00e3 32       		.byte	0x32
 1306 00e4 86000000 		.4byte	0x86
 1307 00e8 03       		.uleb128 0x3
 1308 00e9 E6010000 		.4byte	.LASF20
 1309 00ed 04       		.byte	0x4
 1310 00ee 33       		.byte	0x33
 1311 00ef 74000000 		.4byte	0x74
 1312 00f3 03       		.uleb128 0x3
 1313 00f4 25020000 		.4byte	.LASF21
 1314 00f8 04       		.byte	0x4
 1315 00f9 35       		.byte	0x35
 1316 00fa 86000000 		.4byte	0x86
 1317 00fe 03       		.uleb128 0x3
 1318 00ff 59040000 		.4byte	.LASF22
 1319 0103 04       		.byte	0x4
 1320 0104 36       		.byte	0x36
 1321 0105 86000000 		.4byte	0x86
 1322 0109 03       		.uleb128 0x3
 1323 010a E4030000 		.4byte	.LASF23
 1324 010e 05       		.byte	0x5
 1325 010f 2A       		.byte	0x2a
 1326 0110 14010000 		.4byte	0x114
 1327 0114 05       		.uleb128 0x5
ARM GAS  C:\Users\z80\AppData\Local\Temp\ccZLkr7i.s 			page 25


 1328 0115 E4030000 		.4byte	.LASF23
 1329 0119 48       		.byte	0x48
 1330 011a 06       		.byte	0x6
 1331 011b 5E       		.byte	0x5e
 1332 011c 1D020000 		.4byte	0x21d
 1333 0120 06       		.uleb128 0x6
 1334 0121 C2030000 		.4byte	.LASF24
 1335 0125 06       		.byte	0x6
 1336 0126 5F       		.byte	0x5f
 1337 0127 42020000 		.4byte	0x242
 1338 012b 02       		.byte	0x2
 1339 012c 23       		.byte	0x23
 1340 012d 00       		.uleb128 0x0
 1341 012e 06       		.uleb128 0x6
 1342 012f 42030000 		.4byte	.LASF25
 1343 0133 06       		.byte	0x6
 1344 0134 61       		.byte	0x61
 1345 0135 42020000 		.4byte	0x242
 1346 0139 02       		.byte	0x2
 1347 013a 23       		.byte	0x23
 1348 013b 04       		.uleb128 0x4
 1349 013c 06       		.uleb128 0x6
 1350 013d A8000000 		.4byte	.LASF26
 1351 0141 06       		.byte	0x6
 1352 0142 63       		.byte	0x63
 1353 0143 DD000000 		.4byte	0xdd
 1354 0147 02       		.byte	0x2
 1355 0148 23       		.byte	0x23
 1356 0149 08       		.uleb128 0x8
 1357 014a 06       		.uleb128 0x6
 1358 014b 2E050000 		.4byte	.LASF27
 1359 014f 06       		.byte	0x6
 1360 0150 64       		.byte	0x64
 1361 0151 1A030000 		.4byte	0x31a
 1362 0155 02       		.byte	0x2
 1363 0156 23       		.byte	0x23
 1364 0157 0C       		.uleb128 0xc
 1365 0158 06       		.uleb128 0x6
 1366 0159 31010000 		.4byte	.LASF28
 1367 015d 06       		.byte	0x6
 1368 015e 66       		.byte	0x66
 1369 015f 42020000 		.4byte	0x242
 1370 0163 02       		.byte	0x2
 1371 0164 23       		.byte	0x23
 1372 0165 10       		.uleb128 0x10
 1373 0166 06       		.uleb128 0x6
 1374 0167 8B020000 		.4byte	.LASF29
 1375 016b 06       		.byte	0x6
 1376 016c 67       		.byte	0x67
 1377 016d 42020000 		.4byte	0x242
 1378 0171 02       		.byte	0x2
 1379 0172 23       		.byte	0x23
 1380 0173 14       		.uleb128 0x14
 1381 0174 06       		.uleb128 0x6
 1382 0175 B5040000 		.4byte	.LASF30
 1383 0179 06       		.byte	0x6
 1384 017a 6E       		.byte	0x6e
ARM GAS  C:\Users\z80\AppData\Local\Temp\ccZLkr7i.s 			page 26


 1385 017b 30040000 		.4byte	0x430
 1386 017f 02       		.byte	0x2
 1387 0180 23       		.byte	0x23
 1388 0181 18       		.uleb128 0x18
 1389 0182 06       		.uleb128 0x6
 1390 0183 75040000 		.4byte	.LASF31
 1391 0187 06       		.byte	0x6
 1392 0188 74       		.byte	0x74
 1393 0189 42040000 		.4byte	0x442
 1394 018d 02       		.byte	0x2
 1395 018e 23       		.byte	0x23
 1396 018f 1C       		.uleb128 0x1c
 1397 0190 06       		.uleb128 0x6
 1398 0191 A3030000 		.4byte	.LASF32
 1399 0195 06       		.byte	0x6
 1400 0196 79       		.byte	0x79
 1401 0197 D2000000 		.4byte	0xd2
 1402 019b 02       		.byte	0x2
 1403 019c 23       		.byte	0x23
 1404 019d 20       		.uleb128 0x20
 1405 019e 06       		.uleb128 0x6
 1406 019f C9030000 		.4byte	.LASF33
 1407 01a3 06       		.byte	0x6
 1408 01a4 7D       		.byte	0x7d
 1409 01a5 C7000000 		.4byte	0xc7
 1410 01a9 02       		.byte	0x2
 1411 01aa 23       		.byte	0x23
 1412 01ab 21       		.uleb128 0x21
 1413 01ac 06       		.uleb128 0x6
 1414 01ad 91010000 		.4byte	.LASF34
 1415 01b1 06       		.byte	0x6
 1416 01b2 89       		.byte	0x89
 1417 01b3 40030000 		.4byte	0x340
 1418 01b7 02       		.byte	0x2
 1419 01b8 23       		.byte	0x23
 1420 01b9 24       		.uleb128 0x24
 1421 01ba 07       		.uleb128 0x7
 1422 01bb 705F7500 		.ascii	"p_u\000"
 1423 01bf 06       		.byte	0x6
 1424 01c0 AE       		.byte	0xae
 1425 01c1 FB030000 		.4byte	0x3fb
 1426 01c5 02       		.byte	0x2
 1427 01c6 23       		.byte	0x23
 1428 01c7 28       		.uleb128 0x28
 1429 01c8 06       		.uleb128 0x6
 1430 01c9 34050000 		.4byte	.LASF35
 1431 01cd 06       		.byte	0x6
 1432 01ce B3       		.byte	0xb3
 1433 01cf 6A020000 		.4byte	0x26a
 1434 01d3 02       		.byte	0x2
 1435 01d4 23       		.byte	0x23
 1436 01d5 2C       		.uleb128 0x2c
 1437 01d6 06       		.uleb128 0x6
 1438 01d7 A9010000 		.4byte	.LASF36
 1439 01db 06       		.byte	0x6
 1440 01dc B9       		.byte	0xb9
 1441 01dd 48020000 		.4byte	0x248
ARM GAS  C:\Users\z80\AppData\Local\Temp\ccZLkr7i.s 			page 27


 1442 01e1 02       		.byte	0x2
 1443 01e2 23       		.byte	0x23
 1444 01e3 30       		.uleb128 0x30
 1445 01e4 06       		.uleb128 0x6
 1446 01e5 CD040000 		.4byte	.LASF37
 1447 01e9 06       		.byte	0x6
 1448 01ea BD       		.byte	0xbd
 1449 01eb E8000000 		.4byte	0xe8
 1450 01ef 02       		.byte	0x2
 1451 01f0 23       		.byte	0x23
 1452 01f1 38       		.uleb128 0x38
 1453 01f2 06       		.uleb128 0x6
 1454 01f3 EB030000 		.4byte	.LASF38
 1455 01f7 06       		.byte	0x6
 1456 01f8 C3       		.byte	0xc3
 1457 01f9 F3000000 		.4byte	0xf3
 1458 01fd 02       		.byte	0x2
 1459 01fe 23       		.byte	0x23
 1460 01ff 3C       		.uleb128 0x3c
 1461 0200 06       		.uleb128 0x6
 1462 0201 8F030000 		.4byte	.LASF39
 1463 0205 06       		.byte	0x6
 1464 0206 CA       		.byte	0xca
 1465 0207 48040000 		.4byte	0x448
 1466 020b 02       		.byte	0x2
 1467 020c 23       		.byte	0x23
 1468 020d 40       		.uleb128 0x40
 1469 020e 06       		.uleb128 0x6
 1470 020f 63040000 		.4byte	.LASF40
 1471 0213 06       		.byte	0x6
 1472 0214 CE       		.byte	0xce
 1473 0215 DD000000 		.4byte	0xdd
 1474 0219 02       		.byte	0x2
 1475 021a 23       		.byte	0x23
 1476 021b 44       		.uleb128 0x44
 1477 021c 00       		.byte	0x0
 1478 021d 08       		.uleb128 0x8
 1479 021e 08       		.byte	0x8
 1480 021f 05       		.byte	0x5
 1481 0220 61       		.byte	0x61
 1482 0221 42020000 		.4byte	0x242
 1483 0225 06       		.uleb128 0x6
 1484 0226 C2030000 		.4byte	.LASF24
 1485 022a 05       		.byte	0x5
 1486 022b 62       		.byte	0x62
 1487 022c 42020000 		.4byte	0x242
 1488 0230 02       		.byte	0x2
 1489 0231 23       		.byte	0x23
 1490 0232 00       		.uleb128 0x0
 1491 0233 06       		.uleb128 0x6
 1492 0234 42030000 		.4byte	.LASF25
 1493 0238 05       		.byte	0x5
 1494 0239 64       		.byte	0x64
 1495 023a 42020000 		.4byte	0x242
 1496 023e 02       		.byte	0x2
 1497 023f 23       		.byte	0x23
 1498 0240 04       		.uleb128 0x4
ARM GAS  C:\Users\z80\AppData\Local\Temp\ccZLkr7i.s 			page 28


 1499 0241 00       		.byte	0x0
 1500 0242 09       		.uleb128 0x9
 1501 0243 04       		.byte	0x4
 1502 0244 09010000 		.4byte	0x109
 1503 0248 03       		.uleb128 0x3
 1504 0249 AC020000 		.4byte	.LASF41
 1505 024d 05       		.byte	0x5
 1506 024e 66       		.byte	0x66
 1507 024f 1D020000 		.4byte	0x21d
 1508 0253 08       		.uleb128 0x8
 1509 0254 04       		.byte	0x4
 1510 0255 05       		.byte	0x5
 1511 0256 6B       		.byte	0x6b
 1512 0257 6A020000 		.4byte	0x26a
 1513 025b 06       		.uleb128 0x6
 1514 025c C2030000 		.4byte	.LASF24
 1515 0260 05       		.byte	0x5
 1516 0261 6D       		.byte	0x6d
 1517 0262 42020000 		.4byte	0x242
 1518 0266 02       		.byte	0x2
 1519 0267 23       		.byte	0x23
 1520 0268 00       		.uleb128 0x0
 1521 0269 00       		.byte	0x0
 1522 026a 03       		.uleb128 0x3
 1523 026b 19020000 		.4byte	.LASF42
 1524 026f 05       		.byte	0x5
 1525 0270 70       		.byte	0x70
 1526 0271 53020000 		.4byte	0x253
 1527 0275 03       		.uleb128 0x3
 1528 0276 50010000 		.4byte	.LASF43
 1529 027a 07       		.byte	0x7
 1530 027b D7       		.byte	0xd7
 1531 027c 80020000 		.4byte	0x280
 1532 0280 0A       		.uleb128 0xa
 1533 0281 04       		.byte	0x4
 1534 0282 03       		.uleb128 0x3
 1535 0283 62020000 		.4byte	.LASF44
 1536 0287 07       		.byte	0x7
 1537 0288 DD       		.byte	0xdd
 1538 0289 9F000000 		.4byte	0x9f
 1539 028d 05       		.uleb128 0x5
 1540 028e 96040000 		.4byte	.LASF45
 1541 0292 24       		.byte	0x24
 1542 0293 07       		.byte	0x7
 1543 0294 FE       		.byte	0xfe
 1544 0295 1A030000 		.4byte	0x31a
 1545 0299 0B       		.uleb128 0xb
 1546 029a 723400   		.ascii	"r4\000"
 1547 029d 07       		.byte	0x7
 1548 029e 1101     		.2byte	0x111
 1549 02a0 75020000 		.4byte	0x275
 1550 02a4 02       		.byte	0x2
 1551 02a5 23       		.byte	0x23
 1552 02a6 00       		.uleb128 0x0
 1553 02a7 0B       		.uleb128 0xb
 1554 02a8 723500   		.ascii	"r5\000"
 1555 02ab 07       		.byte	0x7
ARM GAS  C:\Users\z80\AppData\Local\Temp\ccZLkr7i.s 			page 29


 1556 02ac 1201     		.2byte	0x112
 1557 02ae 75020000 		.4byte	0x275
 1558 02b2 02       		.byte	0x2
 1559 02b3 23       		.byte	0x23
 1560 02b4 04       		.uleb128 0x4
 1561 02b5 0B       		.uleb128 0xb
 1562 02b6 723600   		.ascii	"r6\000"
 1563 02b9 07       		.byte	0x7
 1564 02ba 1301     		.2byte	0x113
 1565 02bc 75020000 		.4byte	0x275
 1566 02c0 02       		.byte	0x2
 1567 02c1 23       		.byte	0x23
 1568 02c2 08       		.uleb128 0x8
 1569 02c3 0B       		.uleb128 0xb
 1570 02c4 723700   		.ascii	"r7\000"
 1571 02c7 07       		.byte	0x7
 1572 02c8 1401     		.2byte	0x114
 1573 02ca 75020000 		.4byte	0x275
 1574 02ce 02       		.byte	0x2
 1575 02cf 23       		.byte	0x23
 1576 02d0 0C       		.uleb128 0xc
 1577 02d1 0B       		.uleb128 0xb
 1578 02d2 723800   		.ascii	"r8\000"
 1579 02d5 07       		.byte	0x7
 1580 02d6 1501     		.2byte	0x115
 1581 02d8 75020000 		.4byte	0x275
 1582 02dc 02       		.byte	0x2
 1583 02dd 23       		.byte	0x23
 1584 02de 10       		.uleb128 0x10
 1585 02df 0B       		.uleb128 0xb
 1586 02e0 723900   		.ascii	"r9\000"
 1587 02e3 07       		.byte	0x7
 1588 02e4 1601     		.2byte	0x116
 1589 02e6 75020000 		.4byte	0x275
 1590 02ea 02       		.byte	0x2
 1591 02eb 23       		.byte	0x23
 1592 02ec 14       		.uleb128 0x14
 1593 02ed 0B       		.uleb128 0xb
 1594 02ee 72313000 		.ascii	"r10\000"
 1595 02f2 07       		.byte	0x7
 1596 02f3 1701     		.2byte	0x117
 1597 02f5 75020000 		.4byte	0x275
 1598 02f9 02       		.byte	0x2
 1599 02fa 23       		.byte	0x23
 1600 02fb 18       		.uleb128 0x18
 1601 02fc 0B       		.uleb128 0xb
 1602 02fd 72313100 		.ascii	"r11\000"
 1603 0301 07       		.byte	0x7
 1604 0302 1801     		.2byte	0x118
 1605 0304 75020000 		.4byte	0x275
 1606 0308 02       		.byte	0x2
 1607 0309 23       		.byte	0x23
 1608 030a 1C       		.uleb128 0x1c
 1609 030b 0B       		.uleb128 0xb
 1610 030c 6C7200   		.ascii	"lr\000"
 1611 030f 07       		.byte	0x7
 1612 0310 1901     		.2byte	0x119
ARM GAS  C:\Users\z80\AppData\Local\Temp\ccZLkr7i.s 			page 30


 1613 0312 75020000 		.4byte	0x275
 1614 0316 02       		.byte	0x2
 1615 0317 23       		.byte	0x23
 1616 0318 20       		.uleb128 0x20
 1617 0319 00       		.byte	0x0
 1618 031a 0C       		.uleb128 0xc
 1619 031b 8E040000 		.4byte	.LASF46
 1620 031f 04       		.byte	0x4
 1621 0320 07       		.byte	0x7
 1622 0321 2301     		.2byte	0x123
 1623 0323 37030000 		.4byte	0x337
 1624 0327 0B       		.uleb128 0xb
 1625 0328 72313300 		.ascii	"r13\000"
 1626 032c 07       		.byte	0x7
 1627 032d 2401     		.2byte	0x124
 1628 032f 37030000 		.4byte	0x337
 1629 0333 02       		.byte	0x2
 1630 0334 23       		.byte	0x23
 1631 0335 00       		.uleb128 0x0
 1632 0336 00       		.byte	0x0
 1633 0337 09       		.uleb128 0x9
 1634 0338 04       		.byte	0x4
 1635 0339 8D020000 		.4byte	0x28d
 1636 033d 0D       		.uleb128 0xd
 1637 033e 04       		.byte	0x4
 1638 033f 07       		.byte	0x7
 1639 0340 0E       		.uleb128 0xe
 1640 0341 FE000000 		.4byte	0xfe
 1641 0345 05       		.uleb128 0x5
 1642 0346 85020000 		.4byte	.LASF47
 1643 034a 10       		.byte	0x10
 1644 034b 08       		.byte	0x8
 1645 034c 2C       		.byte	0x2c
 1646 034d 7C030000 		.4byte	0x37c
 1647 0351 06       		.uleb128 0x6
 1648 0352 F2000000 		.4byte	.LASF48
 1649 0356 08       		.byte	0x8
 1650 0357 2D       		.byte	0x2d
 1651 0358 48020000 		.4byte	0x248
 1652 035c 02       		.byte	0x2
 1653 035d 23       		.byte	0x23
 1654 035e 00       		.uleb128 0x0
 1655 035f 06       		.uleb128 0x6
 1656 0360 26050000 		.4byte	.LASF49
 1657 0364 08       		.byte	0x8
 1658 0365 2F       		.byte	0x2f
 1659 0366 42020000 		.4byte	0x242
 1660 036a 02       		.byte	0x2
 1661 036b 23       		.byte	0x23
 1662 036c 08       		.uleb128 0x8
 1663 036d 06       		.uleb128 0x6
 1664 036e 52040000 		.4byte	.LASF50
 1665 0372 08       		.byte	0x8
 1666 0373 31       		.byte	0x31
 1667 0374 7C030000 		.4byte	0x37c
 1668 0378 02       		.byte	0x2
 1669 0379 23       		.byte	0x23
ARM GAS  C:\Users\z80\AppData\Local\Temp\ccZLkr7i.s 			page 31


 1670 037a 0C       		.uleb128 0xc
 1671 037b 00       		.byte	0x0
 1672 037c 09       		.uleb128 0x9
 1673 037d 04       		.byte	0x4
 1674 037e 45030000 		.4byte	0x345
 1675 0382 03       		.uleb128 0x3
 1676 0383 85020000 		.4byte	.LASF47
 1677 0387 08       		.byte	0x8
 1678 0388 33       		.byte	0x33
 1679 0389 45030000 		.4byte	0x345
 1680 038d 03       		.uleb128 0x3
 1681 038e EC040000 		.4byte	.LASF51
 1682 0392 09       		.byte	0x9
 1683 0393 29       		.byte	0x29
 1684 0394 98030000 		.4byte	0x398
 1685 0398 05       		.uleb128 0x5
 1686 0399 EC040000 		.4byte	.LASF51
 1687 039d 0C       		.byte	0xc
 1688 039e 09       		.byte	0x9
 1689 039f 2E       		.byte	0x2e
 1690 03a0 CF030000 		.4byte	0x3cf
 1691 03a4 06       		.uleb128 0x6
 1692 03a5 D1030000 		.4byte	.LASF52
 1693 03a9 09       		.byte	0x9
 1694 03aa 2F       		.byte	0x2f
 1695 03ab CF030000 		.4byte	0x3cf
 1696 03af 02       		.byte	0x2
 1697 03b0 23       		.byte	0x23
 1698 03b1 00       		.uleb128 0x0
 1699 03b2 06       		.uleb128 0x6
 1700 03b3 83030000 		.4byte	.LASF53
 1701 03b7 09       		.byte	0x9
 1702 03b8 32       		.byte	0x32
 1703 03b9 42020000 		.4byte	0x242
 1704 03bd 02       		.byte	0x2
 1705 03be 23       		.byte	0x23
 1706 03bf 04       		.uleb128 0x4
 1707 03c0 06       		.uleb128 0x6
 1708 03c1 F2020000 		.4byte	.LASF54
 1709 03c5 09       		.byte	0x9
 1710 03c6 34       		.byte	0x34
 1711 03c7 F3000000 		.4byte	0xf3
 1712 03cb 02       		.byte	0x2
 1713 03cc 23       		.byte	0x23
 1714 03cd 08       		.uleb128 0x8
 1715 03ce 00       		.byte	0x0
 1716 03cf 09       		.uleb128 0x9
 1717 03d0 04       		.byte	0x4
 1718 03d1 8D030000 		.4byte	0x38d
 1719 03d5 05       		.uleb128 0x5
 1720 03d6 59010000 		.4byte	.LASF55
 1721 03da 04       		.byte	0x4
 1722 03db 09       		.byte	0x9
 1723 03dc 3C       		.byte	0x3c
 1724 03dd F0030000 		.4byte	0x3f0
 1725 03e1 06       		.uleb128 0x6
 1726 03e2 BC040000 		.4byte	.LASF56
ARM GAS  C:\Users\z80\AppData\Local\Temp\ccZLkr7i.s 			page 32


 1727 03e6 09       		.byte	0x9
 1728 03e7 3D       		.byte	0x3d
 1729 03e8 CF030000 		.4byte	0x3cf
 1730 03ec 02       		.byte	0x2
 1731 03ed 23       		.byte	0x23
 1732 03ee 00       		.uleb128 0x0
 1733 03ef 00       		.byte	0x0
 1734 03f0 03       		.uleb128 0x3
 1735 03f1 59010000 		.4byte	.LASF55
 1736 03f5 09       		.byte	0x9
 1737 03f6 40       		.byte	0x40
 1738 03f7 D5030000 		.4byte	0x3d5
 1739 03fb 0F       		.uleb128 0xf
 1740 03fc 04       		.byte	0x4
 1741 03fd 06       		.byte	0x6
 1742 03fe 90       		.byte	0x90
 1743 03ff 30040000 		.4byte	0x430
 1744 0403 10       		.uleb128 0x10
 1745 0404 10000000 		.4byte	.LASF57
 1746 0408 06       		.byte	0x6
 1747 0409 97       		.byte	0x97
 1748 040a E8000000 		.4byte	0xe8
 1749 040e 10       		.uleb128 0x10
 1750 040f 7B000000 		.4byte	.LASF58
 1751 0413 06       		.byte	0x6
 1752 0414 9E       		.byte	0x9e
 1753 0415 E8000000 		.4byte	0xe8
 1754 0419 10       		.uleb128 0x10
 1755 041a 06050000 		.4byte	.LASF59
 1756 041e 06       		.byte	0x6
 1757 041f A5       		.byte	0xa5
 1758 0420 80020000 		.4byte	0x280
 1759 0424 10       		.uleb128 0x10
 1760 0425 BB030000 		.4byte	.LASF60
 1761 0429 06       		.byte	0x6
 1762 042a AC       		.byte	0xac
 1763 042b F3000000 		.4byte	0xf3
 1764 042f 00       		.byte	0x0
 1765 0430 09       		.uleb128 0x9
 1766 0431 04       		.byte	0x4
 1767 0432 36040000 		.4byte	0x436
 1768 0436 11       		.uleb128 0x11
 1769 0437 3B040000 		.4byte	0x43b
 1770 043b 04       		.uleb128 0x4
 1771 043c 01       		.byte	0x1
 1772 043d 08       		.byte	0x8
 1773 043e 41040000 		.4byte	.LASF61
 1774 0442 09       		.uleb128 0x9
 1775 0443 04       		.byte	0x4
 1776 0444 82020000 		.4byte	0x282
 1777 0448 09       		.uleb128 0x9
 1778 0449 04       		.byte	0x4
 1779 044a 82030000 		.4byte	0x382
 1780 044e 03       		.uleb128 0x3
 1781 044f 55020000 		.4byte	.LASF62
 1782 0453 0A       		.byte	0xa
 1783 0454 37       		.byte	0x37
ARM GAS  C:\Users\z80\AppData\Local\Temp\ccZLkr7i.s 			page 33


 1784 0455 59040000 		.4byte	0x459
 1785 0459 05       		.uleb128 0x5
 1786 045a 55020000 		.4byte	.LASF62
 1787 045e 20       		.byte	0x20
 1788 045f 0A       		.byte	0xa
 1789 0460 45       		.byte	0x45
 1790 0461 C8040000 		.4byte	0x4c8
 1791 0465 06       		.uleb128 0x6
 1792 0466 06030000 		.4byte	.LASF63
 1793 046a 0A       		.byte	0xa
 1794 046b 46       		.byte	0x46
 1795 046c 48020000 		.4byte	0x248
 1796 0470 02       		.byte	0x2
 1797 0471 23       		.byte	0x23
 1798 0472 00       		.uleb128 0x0
 1799 0473 06       		.uleb128 0x6
 1800 0474 7B020000 		.4byte	.LASF64
 1801 0478 0A       		.byte	0xa
 1802 0479 47       		.byte	0x47
 1803 047a 30000000 		.4byte	0x30
 1804 047e 02       		.byte	0x2
 1805 047f 23       		.byte	0x23
 1806 0480 08       		.uleb128 0x8
 1807 0481 06       		.uleb128 0x6
 1808 0482 20010000 		.4byte	.LASF65
 1809 0486 0A       		.byte	0xa
 1810 0487 48       		.byte	0x48
 1811 0488 EB040000 		.4byte	0x4eb
 1812 048c 02       		.byte	0x2
 1813 048d 23       		.byte	0x23
 1814 048e 0C       		.uleb128 0xc
 1815 048f 06       		.uleb128 0x6
 1816 0490 AF040000 		.4byte	.LASF66
 1817 0494 0A       		.byte	0xa
 1818 0495 49       		.byte	0x49
 1819 0496 EB040000 		.4byte	0x4eb
 1820 049a 02       		.byte	0x2
 1821 049b 23       		.byte	0x23
 1822 049c 10       		.uleb128 0x10
 1823 049d 06       		.uleb128 0x6
 1824 049e 29010000 		.4byte	.LASF67
 1825 04a2 0A       		.byte	0xa
 1826 04a3 4B       		.byte	0x4b
 1827 04a4 EB040000 		.4byte	0x4eb
 1828 04a8 02       		.byte	0x2
 1829 04a9 23       		.byte	0x23
 1830 04aa 14       		.uleb128 0x14
 1831 04ab 06       		.uleb128 0x6
 1832 04ac 5C030000 		.4byte	.LASF68
 1833 04b0 0A       		.byte	0xa
 1834 04b1 4C       		.byte	0x4c
 1835 04b2 EB040000 		.4byte	0x4eb
 1836 04b6 02       		.byte	0x2
 1837 04b7 23       		.byte	0x23
 1838 04b8 18       		.uleb128 0x18
 1839 04b9 06       		.uleb128 0x6
 1840 04ba C4040000 		.4byte	.LASF69
ARM GAS  C:\Users\z80\AppData\Local\Temp\ccZLkr7i.s 			page 34


 1841 04be 0A       		.byte	0xa
 1842 04bf 4D       		.byte	0x4d
 1843 04c0 C8040000 		.4byte	0x4c8
 1844 04c4 02       		.byte	0x2
 1845 04c5 23       		.byte	0x23
 1846 04c6 1C       		.uleb128 0x1c
 1847 04c7 00       		.byte	0x0
 1848 04c8 03       		.uleb128 0x3
 1849 04c9 3C020000 		.4byte	.LASF70
 1850 04cd 0A       		.byte	0xa
 1851 04ce 3A       		.byte	0x3a
 1852 04cf D3040000 		.4byte	0x4d3
 1853 04d3 09       		.uleb128 0x9
 1854 04d4 04       		.byte	0x4
 1855 04d5 D9040000 		.4byte	0x4d9
 1856 04d9 12       		.uleb128 0x12
 1857 04da 01       		.byte	0x1
 1858 04db E5040000 		.4byte	0x4e5
 1859 04df 13       		.uleb128 0x13
 1860 04e0 E5040000 		.4byte	0x4e5
 1861 04e4 00       		.byte	0x0
 1862 04e5 09       		.uleb128 0x9
 1863 04e6 04       		.byte	0x4
 1864 04e7 4E040000 		.4byte	0x44e
 1865 04eb 09       		.uleb128 0x9
 1866 04ec 04       		.byte	0x4
 1867 04ed 49000000 		.4byte	0x49
 1868 04f1 03       		.uleb128 0x3
 1869 04f2 31020000 		.4byte	.LASF71
 1870 04f6 0A       		.byte	0xa
 1871 04f7 76       		.byte	0x76
 1872 04f8 4E040000 		.4byte	0x44e
 1873 04fc 03       		.uleb128 0x3
 1874 04fd 26000000 		.4byte	.LASF72
 1875 0501 0A       		.byte	0xa
 1876 0502 E6       		.byte	0xe6
 1877 0503 4E040000 		.4byte	0x44e
 1878 0507 14       		.uleb128 0x14
 1879 0508 01       		.byte	0x1
 1880 0509 30000000 		.4byte	0x30
 1881 050d 21050000 		.4byte	0x521
 1882 0511 13       		.uleb128 0x13
 1883 0512 80020000 		.4byte	0x280
 1884 0516 13       		.uleb128 0x13
 1885 0517 21050000 		.4byte	0x521
 1886 051b 13       		.uleb128 0x13
 1887 051c 30000000 		.4byte	0x30
 1888 0520 00       		.byte	0x0
 1889 0521 09       		.uleb128 0x9
 1890 0522 04       		.byte	0x4
 1891 0523 27050000 		.4byte	0x527
 1892 0527 11       		.uleb128 0x11
 1893 0528 49000000 		.4byte	0x49
 1894 052c 09       		.uleb128 0x9
 1895 052d 04       		.byte	0x4
 1896 052e 07050000 		.4byte	0x507
 1897 0532 14       		.uleb128 0x14
ARM GAS  C:\Users\z80\AppData\Local\Temp\ccZLkr7i.s 			page 35


 1898 0533 01       		.byte	0x1
 1899 0534 30000000 		.4byte	0x30
 1900 0538 4C050000 		.4byte	0x54c
 1901 053c 13       		.uleb128 0x13
 1902 053d 80020000 		.4byte	0x280
 1903 0541 13       		.uleb128 0x13
 1904 0542 EB040000 		.4byte	0x4eb
 1905 0546 13       		.uleb128 0x13
 1906 0547 30000000 		.4byte	0x30
 1907 054b 00       		.byte	0x0
 1908 054c 09       		.uleb128 0x9
 1909 054d 04       		.byte	0x4
 1910 054e 32050000 		.4byte	0x532
 1911 0552 14       		.uleb128 0x14
 1912 0553 01       		.byte	0x1
 1913 0554 BC000000 		.4byte	0xbc
 1914 0558 62050000 		.4byte	0x562
 1915 055c 13       		.uleb128 0x13
 1916 055d 80020000 		.4byte	0x280
 1917 0561 00       		.byte	0x0
 1918 0562 09       		.uleb128 0x9
 1919 0563 04       		.byte	0x4
 1920 0564 52050000 		.4byte	0x552
 1921 0568 14       		.uleb128 0x14
 1922 0569 01       		.byte	0x1
 1923 056a E8000000 		.4byte	0xe8
 1924 056e 82050000 		.4byte	0x582
 1925 0572 13       		.uleb128 0x13
 1926 0573 80020000 		.4byte	0x280
 1927 0577 13       		.uleb128 0x13
 1928 0578 49000000 		.4byte	0x49
 1929 057c 13       		.uleb128 0x13
 1930 057d FE000000 		.4byte	0xfe
 1931 0581 00       		.byte	0x0
 1932 0582 09       		.uleb128 0x9
 1933 0583 04       		.byte	0x4
 1934 0584 68050000 		.4byte	0x568
 1935 0588 14       		.uleb128 0x14
 1936 0589 01       		.byte	0x1
 1937 058a E8000000 		.4byte	0xe8
 1938 058e 9D050000 		.4byte	0x59d
 1939 0592 13       		.uleb128 0x13
 1940 0593 80020000 		.4byte	0x280
 1941 0597 13       		.uleb128 0x13
 1942 0598 FE000000 		.4byte	0xfe
 1943 059c 00       		.byte	0x0
 1944 059d 09       		.uleb128 0x9
 1945 059e 04       		.byte	0x4
 1946 059f 88050000 		.4byte	0x588
 1947 05a3 14       		.uleb128 0x14
 1948 05a4 01       		.byte	0x1
 1949 05a5 30000000 		.4byte	0x30
 1950 05a9 C2050000 		.4byte	0x5c2
 1951 05ad 13       		.uleb128 0x13
 1952 05ae 80020000 		.4byte	0x280
 1953 05b2 13       		.uleb128 0x13
 1954 05b3 21050000 		.4byte	0x521
ARM GAS  C:\Users\z80\AppData\Local\Temp\ccZLkr7i.s 			page 36


 1955 05b7 13       		.uleb128 0x13
 1956 05b8 30000000 		.4byte	0x30
 1957 05bc 13       		.uleb128 0x13
 1958 05bd FE000000 		.4byte	0xfe
 1959 05c1 00       		.byte	0x0
 1960 05c2 09       		.uleb128 0x9
 1961 05c3 04       		.byte	0x4
 1962 05c4 A3050000 		.4byte	0x5a3
 1963 05c8 14       		.uleb128 0x14
 1964 05c9 01       		.byte	0x1
 1965 05ca 30000000 		.4byte	0x30
 1966 05ce E7050000 		.4byte	0x5e7
 1967 05d2 13       		.uleb128 0x13
 1968 05d3 80020000 		.4byte	0x280
 1969 05d7 13       		.uleb128 0x13
 1970 05d8 EB040000 		.4byte	0x4eb
 1971 05dc 13       		.uleb128 0x13
 1972 05dd 30000000 		.4byte	0x30
 1973 05e1 13       		.uleb128 0x13
 1974 05e2 FE000000 		.4byte	0xfe
 1975 05e6 00       		.byte	0x0
 1976 05e7 09       		.uleb128 0x9
 1977 05e8 04       		.byte	0x4
 1978 05e9 C8050000 		.4byte	0x5c8
 1979 05ed 15       		.uleb128 0x15
 1980 05ee A2020000 		.4byte	.LASF73
 1981 05f2 0B       		.byte	0xb
 1982 05f3 0B01     		.2byte	0x10b
 1983 05f5 B1000000 		.4byte	0xb1
 1984 05f9 14       		.uleb128 0x14
 1985 05fa 01       		.byte	0x1
 1986 05fb ED050000 		.4byte	0x5ed
 1987 05ff 09060000 		.4byte	0x609
 1988 0603 13       		.uleb128 0x13
 1989 0604 80020000 		.4byte	0x280
 1990 0608 00       		.byte	0x0
 1991 0609 09       		.uleb128 0x9
 1992 060a 04       		.byte	0x4
 1993 060b F9050000 		.4byte	0x5f9
 1994 060f 03       		.uleb128 0x3
 1995 0610 32000000 		.4byte	.LASF74
 1996 0614 0C       		.byte	0xc
 1997 0615 0B       		.byte	0xb
 1998 0616 1A060000 		.4byte	0x61a
 1999 061a 09       		.uleb128 0x9
 2000 061b 04       		.byte	0x4
 2001 061c 20060000 		.4byte	0x620
 2002 0620 12       		.uleb128 0x12
 2003 0621 01       		.byte	0x1
 2004 0622 2C060000 		.4byte	0x62c
 2005 0626 13       		.uleb128 0x13
 2006 0627 EB040000 		.4byte	0x4eb
 2007 062b 00       		.byte	0x0
 2008 062c 0E       		.uleb128 0xe
 2009 062d 62000000 		.4byte	0x62
 2010 0631 0E       		.uleb128 0xe
 2011 0632 74000000 		.4byte	0x74
ARM GAS  C:\Users\z80\AppData\Local\Temp\ccZLkr7i.s 			page 37


 2012 0636 16       		.uleb128 0x16
 2013 0637 1C       		.byte	0x1c
 2014 0638 0D       		.byte	0xd
 2015 0639 E104     		.2byte	0x4e1
 2016 063b 10070000 		.4byte	0x710
 2017 063f 0B       		.uleb128 0xb
 2018 0640 535200   		.ascii	"SR\000"
 2019 0643 0D       		.byte	0xd
 2020 0644 E304     		.2byte	0x4e3
 2021 0646 2C060000 		.4byte	0x62c
 2022 064a 02       		.byte	0x2
 2023 064b 23       		.byte	0x23
 2024 064c 00       		.uleb128 0x0
 2025 064d 17       		.uleb128 0x17
 2026 064e 10030000 		.4byte	.LASF75
 2027 0652 0D       		.byte	0xd
 2028 0653 E404     		.2byte	0x4e4
 2029 0655 62000000 		.4byte	0x62
 2030 0659 02       		.byte	0x2
 2031 065a 23       		.byte	0x23
 2032 065b 02       		.uleb128 0x2
 2033 065c 0B       		.uleb128 0xb
 2034 065d 445200   		.ascii	"DR\000"
 2035 0660 0D       		.byte	0xd
 2036 0661 E504     		.2byte	0x4e5
 2037 0663 2C060000 		.4byte	0x62c
 2038 0667 02       		.byte	0x2
 2039 0668 23       		.byte	0x23
 2040 0669 04       		.uleb128 0x4
 2041 066a 17       		.uleb128 0x17
 2042 066b 1A030000 		.4byte	.LASF76
 2043 066f 0D       		.byte	0xd
 2044 0670 E604     		.2byte	0x4e6
 2045 0672 62000000 		.4byte	0x62
 2046 0676 02       		.byte	0x2
 2047 0677 23       		.byte	0x23
 2048 0678 06       		.uleb128 0x6
 2049 0679 0B       		.uleb128 0xb
 2050 067a 42525200 		.ascii	"BRR\000"
 2051 067e 0D       		.byte	0xd
 2052 067f E704     		.2byte	0x4e7
 2053 0681 2C060000 		.4byte	0x62c
 2054 0685 02       		.byte	0x2
 2055 0686 23       		.byte	0x23
 2056 0687 08       		.uleb128 0x8
 2057 0688 17       		.uleb128 0x17
 2058 0689 24030000 		.4byte	.LASF77
 2059 068d 0D       		.byte	0xd
 2060 068e E804     		.2byte	0x4e8
 2061 0690 62000000 		.4byte	0x62
 2062 0694 02       		.byte	0x2
 2063 0695 23       		.byte	0x23
 2064 0696 0A       		.uleb128 0xa
 2065 0697 0B       		.uleb128 0xb
 2066 0698 43523100 		.ascii	"CR1\000"
 2067 069c 0D       		.byte	0xd
 2068 069d E904     		.2byte	0x4e9
ARM GAS  C:\Users\z80\AppData\Local\Temp\ccZLkr7i.s 			page 38


 2069 069f 2C060000 		.4byte	0x62c
 2070 06a3 02       		.byte	0x2
 2071 06a4 23       		.byte	0x23
 2072 06a5 0C       		.uleb128 0xc
 2073 06a6 17       		.uleb128 0x17
 2074 06a7 2E030000 		.4byte	.LASF78
 2075 06ab 0D       		.byte	0xd
 2076 06ac EA04     		.2byte	0x4ea
 2077 06ae 62000000 		.4byte	0x62
 2078 06b2 02       		.byte	0x2
 2079 06b3 23       		.byte	0x23
 2080 06b4 0E       		.uleb128 0xe
 2081 06b5 0B       		.uleb128 0xb
 2082 06b6 43523200 		.ascii	"CR2\000"
 2083 06ba 0D       		.byte	0xd
 2084 06bb EB04     		.2byte	0x4eb
 2085 06bd 2C060000 		.4byte	0x62c
 2086 06c1 02       		.byte	0x2
 2087 06c2 23       		.byte	0x23
 2088 06c3 10       		.uleb128 0x10
 2089 06c4 17       		.uleb128 0x17
 2090 06c5 38030000 		.4byte	.LASF79
 2091 06c9 0D       		.byte	0xd
 2092 06ca EC04     		.2byte	0x4ec
 2093 06cc 62000000 		.4byte	0x62
 2094 06d0 02       		.byte	0x2
 2095 06d1 23       		.byte	0x23
 2096 06d2 12       		.uleb128 0x12
 2097 06d3 0B       		.uleb128 0xb
 2098 06d4 43523300 		.ascii	"CR3\000"
 2099 06d8 0D       		.byte	0xd
 2100 06d9 ED04     		.2byte	0x4ed
 2101 06db 2C060000 		.4byte	0x62c
 2102 06df 02       		.byte	0x2
 2103 06e0 23       		.byte	0x23
 2104 06e1 14       		.uleb128 0x14
 2105 06e2 17       		.uleb128 0x17
 2106 06e3 00040000 		.4byte	.LASF80
 2107 06e7 0D       		.byte	0xd
 2108 06e8 EE04     		.2byte	0x4ee
 2109 06ea 62000000 		.4byte	0x62
 2110 06ee 02       		.byte	0x2
 2111 06ef 23       		.byte	0x23
 2112 06f0 16       		.uleb128 0x16
 2113 06f1 17       		.uleb128 0x17
 2114 06f2 DE000000 		.4byte	.LASF81
 2115 06f6 0D       		.byte	0xd
 2116 06f7 EF04     		.2byte	0x4ef
 2117 06f9 2C060000 		.4byte	0x62c
 2118 06fd 02       		.byte	0x2
 2119 06fe 23       		.byte	0x23
 2120 06ff 18       		.uleb128 0x18
 2121 0700 17       		.uleb128 0x17
 2122 0701 49030000 		.4byte	.LASF82
 2123 0705 0D       		.byte	0xd
 2124 0706 F004     		.2byte	0x4f0
 2125 0708 62000000 		.4byte	0x62
ARM GAS  C:\Users\z80\AppData\Local\Temp\ccZLkr7i.s 			page 39


 2126 070c 02       		.byte	0x2
 2127 070d 23       		.byte	0x23
 2128 070e 1A       		.uleb128 0x1a
 2129 070f 00       		.byte	0x0
 2130 0710 15       		.uleb128 0x15
 2131 0711 FC010000 		.4byte	.LASF83
 2132 0715 0D       		.byte	0xd
 2133 0716 F104     		.2byte	0x4f1
 2134 0718 36060000 		.4byte	0x636
 2135 071c 18       		.uleb128 0x18
 2136 071d 01       		.byte	0x1
 2137 071e 0E       		.byte	0xe
 2138 071f 64       		.byte	0x64
 2139 0720 37070000 		.4byte	0x737
 2140 0724 19       		.uleb128 0x19
 2141 0725 F6030000 		.4byte	.LASF84
 2142 0729 00       		.sleb128 0
 2143 072a 19       		.uleb128 0x19
 2144 072b E3000000 		.4byte	.LASF85
 2145 072f 01       		.sleb128 1
 2146 0730 19       		.uleb128 0x19
 2147 0731 9D040000 		.4byte	.LASF86
 2148 0735 02       		.sleb128 2
 2149 0736 00       		.byte	0x0
 2150 0737 03       		.uleb128 0x3
 2151 0738 13040000 		.4byte	.LASF87
 2152 073c 0E       		.byte	0xe
 2153 073d 68       		.byte	0x68
 2154 073e 1C070000 		.4byte	0x71c
 2155 0742 03       		.uleb128 0x3
 2156 0743 1D040000 		.4byte	.LASF88
 2157 0747 0E       		.byte	0xe
 2158 0748 6D       		.byte	0x6d
 2159 0749 4D070000 		.4byte	0x74d
 2160 074d 05       		.uleb128 0x5
 2161 074e 1D040000 		.4byte	.LASF88
 2162 0752 74       		.byte	0x74
 2163 0753 0E       		.byte	0xe
 2164 0754 87       		.byte	0x87
 2165 0755 D6070000 		.4byte	0x7d6
 2166 0759 07       		.uleb128 0x7
 2167 075a 766D7400 		.ascii	"vmt\000"
 2168 075e 0E       		.byte	0xe
 2169 075f 89       		.byte	0x89
 2170 0760 61080000 		.4byte	0x861
 2171 0764 02       		.byte	0x2
 2172 0765 23       		.byte	0x23
 2173 0766 00       		.uleb128 0x0
 2174 0767 06       		.uleb128 0x6
 2175 0768 CD010000 		.4byte	.LASF89
 2176 076c 0E       		.byte	0xe
 2177 076d 8A       		.byte	0x8a
 2178 076e F0030000 		.4byte	0x3f0
 2179 0772 02       		.byte	0x2
 2180 0773 23       		.byte	0x23
 2181 0774 04       		.uleb128 0x4
 2182 0775 06       		.uleb128 0x6
ARM GAS  C:\Users\z80\AppData\Local\Temp\ccZLkr7i.s 			page 40


 2183 0776 E6040000 		.4byte	.LASF90
 2184 077a 0E       		.byte	0xe
 2185 077b 8A       		.byte	0x8a
 2186 077c ED050000 		.4byte	0x5ed
 2187 0780 02       		.byte	0x2
 2188 0781 23       		.byte	0x23
 2189 0782 08       		.uleb128 0x8
 2190 0783 06       		.uleb128 0x6
 2191 0784 08010000 		.4byte	.LASF91
 2192 0788 0E       		.byte	0xe
 2193 0789 8A       		.byte	0x8a
 2194 078a 37070000 		.4byte	0x737
 2195 078e 02       		.byte	0x2
 2196 078f 23       		.byte	0x23
 2197 0790 0C       		.uleb128 0xc
 2198 0791 06       		.uleb128 0x6
 2199 0792 A2010000 		.4byte	.LASF92
 2200 0796 0E       		.byte	0xe
 2201 0797 8A       		.byte	0x8a
 2202 0798 F1040000 		.4byte	0x4f1
 2203 079c 02       		.byte	0x2
 2204 079d 23       		.byte	0x23
 2205 079e 10       		.uleb128 0x10
 2206 079f 06       		.uleb128 0x6
 2207 07a0 EC010000 		.4byte	.LASF93
 2208 07a4 0E       		.byte	0xe
 2209 07a5 8A       		.byte	0x8a
 2210 07a6 FC040000 		.4byte	0x4fc
 2211 07aa 02       		.byte	0x2
 2212 07ab 23       		.byte	0x23
 2213 07ac 30       		.uleb128 0x30
 2214 07ad 07       		.uleb128 0x7
 2215 07ae 696200   		.ascii	"ib\000"
 2216 07b1 0E       		.byte	0xe
 2217 07b2 8A       		.byte	0x8a
 2218 07b3 6C080000 		.4byte	0x86c
 2219 07b7 02       		.byte	0x2
 2220 07b8 23       		.byte	0x23
 2221 07b9 50       		.uleb128 0x50
 2222 07ba 07       		.uleb128 0x7
 2223 07bb 6F6200   		.ascii	"ob\000"
 2224 07be 0E       		.byte	0xe
 2225 07bf 8A       		.byte	0x8a
 2226 07c0 6C080000 		.4byte	0x86c
 2227 07c4 02       		.byte	0x2
 2228 07c5 23       		.byte	0x23
 2229 07c6 60       		.uleb128 0x60
 2230 07c7 06       		.uleb128 0x6
 2231 07c8 65010000 		.4byte	.LASF94
 2232 07cc 0E       		.byte	0xe
 2233 07cd 8A       		.byte	0x8a
 2234 07ce 7C080000 		.4byte	0x87c
 2235 07d2 02       		.byte	0x2
 2236 07d3 23       		.byte	0x23
 2237 07d4 70       		.uleb128 0x70
 2238 07d5 00       		.byte	0x0
 2239 07d6 05       		.uleb128 0x5
ARM GAS  C:\Users\z80\AppData\Local\Temp\ccZLkr7i.s 			page 41


 2240 07d7 81010000 		.4byte	.LASF95
 2241 07db 24       		.byte	0x24
 2242 07dc 0E       		.byte	0xe
 2243 07dd 7C       		.byte	0x7c
 2244 07de 61080000 		.4byte	0x861
 2245 07e2 06       		.uleb128 0x6
 2246 07e3 75020000 		.4byte	.LASF96
 2247 07e7 0E       		.byte	0xe
 2248 07e8 7D       		.byte	0x7d
 2249 07e9 2C050000 		.4byte	0x52c
 2250 07ed 02       		.byte	0x2
 2251 07ee 23       		.byte	0x23
 2252 07ef 00       		.uleb128 0x0
 2253 07f0 06       		.uleb128 0x6
 2254 07f1 3C040000 		.4byte	.LASF97
 2255 07f5 0E       		.byte	0xe
 2256 07f6 7D       		.byte	0x7d
 2257 07f7 4C050000 		.4byte	0x54c
 2258 07fb 02       		.byte	0x2
 2259 07fc 23       		.byte	0x23
 2260 07fd 04       		.uleb128 0x4
 2261 07fe 06       		.uleb128 0x6
 2262 07ff 39010000 		.4byte	.LASF98
 2263 0803 0E       		.byte	0xe
 2264 0804 7D       		.byte	0x7d
 2265 0805 62050000 		.4byte	0x562
 2266 0809 02       		.byte	0x2
 2267 080a 23       		.byte	0x23
 2268 080b 08       		.uleb128 0x8
 2269 080c 06       		.uleb128 0x6
 2270 080d 13050000 		.4byte	.LASF99
 2271 0811 0E       		.byte	0xe
 2272 0812 7D       		.byte	0x7d
 2273 0813 62050000 		.4byte	0x562
 2274 0817 02       		.byte	0x2
 2275 0818 23       		.byte	0x23
 2276 0819 0C       		.uleb128 0xc
 2277 081a 07       		.uleb128 0x7
 2278 081b 70757400 		.ascii	"put\000"
 2279 081f 0E       		.byte	0xe
 2280 0820 7D       		.byte	0x7d
 2281 0821 82050000 		.4byte	0x582
 2282 0825 02       		.byte	0x2
 2283 0826 23       		.byte	0x23
 2284 0827 10       		.uleb128 0x10
 2285 0828 07       		.uleb128 0x7
 2286 0829 67657400 		.ascii	"get\000"
 2287 082d 0E       		.byte	0xe
 2288 082e 7D       		.byte	0x7d
 2289 082f 9D050000 		.4byte	0x59d
 2290 0833 02       		.byte	0x2
 2291 0834 23       		.byte	0x23
 2292 0835 14       		.uleb128 0x14
 2293 0836 06       		.uleb128 0x6
 2294 0837 0A020000 		.4byte	.LASF100
 2295 083b 0E       		.byte	0xe
 2296 083c 7D       		.byte	0x7d
ARM GAS  C:\Users\z80\AppData\Local\Temp\ccZLkr7i.s 			page 42


 2297 083d C2050000 		.4byte	0x5c2
 2298 0841 02       		.byte	0x2
 2299 0842 23       		.byte	0x23
 2300 0843 18       		.uleb128 0x18
 2301 0844 06       		.uleb128 0x6
 2302 0845 AF000000 		.4byte	.LASF101
 2303 0849 0E       		.byte	0xe
 2304 084a 7D       		.byte	0x7d
 2305 084b E7050000 		.4byte	0x5e7
 2306 084f 02       		.byte	0x2
 2307 0850 23       		.byte	0x23
 2308 0851 1C       		.uleb128 0x1c
 2309 0852 06       		.uleb128 0x6
 2310 0853 85040000 		.4byte	.LASF102
 2311 0857 0E       		.byte	0xe
 2312 0858 7D       		.byte	0x7d
 2313 0859 09060000 		.4byte	0x609
 2314 085d 02       		.byte	0x2
 2315 085e 23       		.byte	0x23
 2316 085f 20       		.uleb128 0x20
 2317 0860 00       		.byte	0x0
 2318 0861 09       		.uleb128 0x9
 2319 0862 04       		.byte	0x4
 2320 0863 67080000 		.4byte	0x867
 2321 0867 11       		.uleb128 0x11
 2322 0868 D6070000 		.4byte	0x7d6
 2323 086c 1A       		.uleb128 0x1a
 2324 086d 49000000 		.4byte	0x49
 2325 0871 7C080000 		.4byte	0x87c
 2326 0875 1B       		.uleb128 0x1b
 2327 0876 3D030000 		.4byte	0x33d
 2328 087a 0F       		.byte	0xf
 2329 087b 00       		.byte	0x0
 2330 087c 09       		.uleb128 0x9
 2331 087d 04       		.byte	0x4
 2332 087e 10070000 		.4byte	0x710
 2333 0882 1C       		.uleb128 0x1c
 2334 0883 B4010000 		.4byte	.LASF105
 2335 0887 01       		.byte	0x1
 2336 0888 83       		.byte	0x83
 2337 0889 01       		.byte	0x1
 2338 088a 01       		.byte	0x1
 2339 088b A6080000 		.4byte	0x8a6
 2340 088f 1D       		.uleb128 0x1d
 2341 0890 DB040000 		.4byte	.LASF103
 2342 0894 01       		.byte	0x1
 2343 0895 85       		.byte	0x85
 2344 0896 29000000 		.4byte	0x29
 2345 089a 1D       		.uleb128 0x1d
 2346 089b 53030000 		.4byte	.LASF104
 2347 089f 01       		.byte	0x1
 2348 08a0 87       		.byte	0x87
 2349 08a1 29000000 		.4byte	0x29
 2350 08a5 00       		.byte	0x0
 2351 08a6 1C       		.uleb128 0x1c
 2352 08a7 FA020000 		.4byte	.LASF106
 2353 08ab 01       		.byte	0x1
ARM GAS  C:\Users\z80\AppData\Local\Temp\ccZLkr7i.s 			page 43


 2354 08ac EE       		.byte	0xee
 2355 08ad 01       		.byte	0x1
 2356 08ae 01       		.byte	0x1
 2357 08af BD080000 		.4byte	0x8bd
 2358 08b3 1E       		.uleb128 0x1e
 2359 08b4 7600     		.ascii	"v\000"
 2360 08b6 01       		.byte	0x1
 2361 08b7 EE       		.byte	0xee
 2362 08b8 49000000 		.4byte	0x49
 2363 08bc 00       		.byte	0x0
 2364 08bd 1F       		.uleb128 0x1f
 2365 08be 00000000 		.4byte	.LASF132
 2366 08c2 01       		.byte	0x1
 2367 08c3 F5       		.byte	0xf5
 2368 08c4 01       		.byte	0x1
 2369 08c5 01       		.byte	0x1
 2370 08c6 1C       		.uleb128 0x1c
 2371 08c7 AB030000 		.4byte	.LASF107
 2372 08cb 01       		.byte	0x1
 2373 08cc 55       		.byte	0x55
 2374 08cd 01       		.byte	0x1
 2375 08ce 01       		.byte	0x1
 2376 08cf 08090000 		.4byte	0x908
 2377 08d3 1E       		.uleb128 0x1e
 2378 08d4 62756600 		.ascii	"buf\000"
 2379 08d8 01       		.byte	0x1
 2380 08d9 55       		.byte	0x55
 2381 08da EB040000 		.4byte	0x4eb
 2382 08de 1E       		.uleb128 0x1e
 2383 08df 737A00   		.ascii	"sz\000"
 2384 08e2 01       		.byte	0x1
 2385 08e3 55       		.byte	0x55
 2386 08e4 29000000 		.4byte	0x29
 2387 08e8 20       		.uleb128 0x20
 2388 08e9 6900     		.ascii	"i\000"
 2389 08eb 01       		.byte	0x1
 2390 08ec 57       		.byte	0x57
 2391 08ed 29000000 		.4byte	0x29
 2392 08f1 20       		.uleb128 0x20
 2393 08f2 636D6400 		.ascii	"cmd\000"
 2394 08f6 01       		.byte	0x1
 2395 08f7 58       		.byte	0x58
 2396 08f8 49000000 		.4byte	0x49
 2397 08fc 1D       		.uleb128 0x1d
 2398 08fd 80040000 		.4byte	.LASF108
 2399 0901 01       		.byte	0x1
 2400 0902 5A       		.byte	0x5a
 2401 0903 EB040000 		.4byte	0x4eb
 2402 0907 00       		.byte	0x0
 2403 0908 21       		.uleb128 0x21
 2404 0909 98010000 		.4byte	.LASF109
 2405 090d 01       		.byte	0x1
 2406 090e E3       		.byte	0xe3
 2407 090f 01       		.byte	0x1
 2408 0910 00000000 		.4byte	.LFB78
 2409 0914 12000000 		.4byte	.LFE78
 2410 0918 00000000 		.4byte	.LLST0
ARM GAS  C:\Users\z80\AppData\Local\Temp\ccZLkr7i.s 			page 44


 2411 091c 3D090000 		.4byte	0x93d
 2412 0920 22       		.uleb128 0x22
 2413 0921 21050000 		.4byte	.LASF111
 2414 0925 01       		.byte	0x1
 2415 0926 E3       		.byte	0xe3
 2416 0927 EB040000 		.4byte	0x4eb
 2417 092b 20000000 		.4byte	.LLST1
 2418 092f 23       		.uleb128 0x23
 2419 0930 7100     		.ascii	"q\000"
 2420 0932 01       		.byte	0x1
 2421 0933 E6       		.byte	0xe6
 2422 0934 3D090000 		.4byte	0x93d
 2423 0938 33000000 		.4byte	.LLST2
 2424 093c 00       		.byte	0x0
 2425 093d 09       		.uleb128 0x9
 2426 093e 04       		.byte	0x4
 2427 093f FC040000 		.4byte	0x4fc
 2428 0943 21       		.uleb128 0x21
 2429 0944 D9030000 		.4byte	.LASF110
 2430 0948 01       		.byte	0x1
 2431 0949 DC       		.byte	0xdc
 2432 094a 01       		.byte	0x1
 2433 094b 00000000 		.4byte	.LFB77
 2434 094f 12000000 		.4byte	.LFE77
 2435 0953 46000000 		.4byte	.LLST3
 2436 0957 78090000 		.4byte	0x978
 2437 095b 22       		.uleb128 0x22
 2438 095c 21050000 		.4byte	.LASF111
 2439 0960 01       		.byte	0x1
 2440 0961 DC       		.byte	0xdc
 2441 0962 EB040000 		.4byte	0x4eb
 2442 0966 66000000 		.4byte	.LLST4
 2443 096a 23       		.uleb128 0x23
 2444 096b 7100     		.ascii	"q\000"
 2445 096d 01       		.byte	0x1
 2446 096e DF       		.byte	0xdf
 2447 096f 3D090000 		.4byte	0x93d
 2448 0973 79000000 		.4byte	.LLST5
 2449 0977 00       		.byte	0x0
 2450 0978 21       		.uleb128 0x21
 2451 0979 64000000 		.4byte	.LASF112
 2452 097d 01       		.byte	0x1
 2453 097e D5       		.byte	0xd5
 2454 097f 01       		.byte	0x1
 2455 0980 00000000 		.4byte	.LFB76
 2456 0984 12000000 		.4byte	.LFE76
 2457 0988 8C000000 		.4byte	.LLST6
 2458 098c AD090000 		.4byte	0x9ad
 2459 0990 22       		.uleb128 0x22
 2460 0991 21050000 		.4byte	.LASF111
 2461 0995 01       		.byte	0x1
 2462 0996 D5       		.byte	0xd5
 2463 0997 EB040000 		.4byte	0x4eb
 2464 099b AC000000 		.4byte	.LLST7
 2465 099f 23       		.uleb128 0x23
 2466 09a0 7100     		.ascii	"q\000"
 2467 09a2 01       		.byte	0x1
ARM GAS  C:\Users\z80\AppData\Local\Temp\ccZLkr7i.s 			page 45


 2468 09a3 D8       		.byte	0xd8
 2469 09a4 3D090000 		.4byte	0x93d
 2470 09a8 BF000000 		.4byte	.LLST8
 2471 09ac 00       		.byte	0x0
 2472 09ad 21       		.uleb128 0x21
 2473 09ae 6D020000 		.4byte	.LASF113
 2474 09b2 01       		.byte	0x1
 2475 09b3 CE       		.byte	0xce
 2476 09b4 01       		.byte	0x1
 2477 09b5 00000000 		.4byte	.LFB75
 2478 09b9 12000000 		.4byte	.LFE75
 2479 09bd D2000000 		.4byte	.LLST9
 2480 09c1 E2090000 		.4byte	0x9e2
 2481 09c5 22       		.uleb128 0x22
 2482 09c6 21050000 		.4byte	.LASF111
 2483 09ca 01       		.byte	0x1
 2484 09cb CE       		.byte	0xce
 2485 09cc EB040000 		.4byte	0x4eb
 2486 09d0 F2000000 		.4byte	.LLST10
 2487 09d4 23       		.uleb128 0x23
 2488 09d5 7100     		.ascii	"q\000"
 2489 09d7 01       		.byte	0x1
 2490 09d8 D1       		.byte	0xd1
 2491 09d9 3D090000 		.4byte	0x93d
 2492 09dd 05010000 		.4byte	.LLST11
 2493 09e1 00       		.byte	0x0
 2494 09e2 21       		.uleb128 0x21
 2495 09e3 84000000 		.4byte	.LASF114
 2496 09e7 01       		.byte	0x1
 2497 09e8 C9       		.byte	0xc9
 2498 09e9 01       		.byte	0x1
 2499 09ea 00000000 		.4byte	.LFB74
 2500 09ee 0A000000 		.4byte	.LFE74
 2501 09f2 18010000 		.4byte	.LLST12
 2502 09f6 0A0A0000 		.4byte	0xa0a
 2503 09fa 22       		.uleb128 0x22
 2504 09fb 21050000 		.4byte	.LASF111
 2505 09ff 01       		.byte	0x1
 2506 0a00 C9       		.byte	0xc9
 2507 0a01 EB040000 		.4byte	0x4eb
 2508 0a05 38010000 		.4byte	.LLST13
 2509 0a09 00       		.byte	0x0
 2510 0a0a 21       		.uleb128 0x21
 2511 0a0b E4020000 		.4byte	.LASF115
 2512 0a0f 01       		.byte	0x1
 2513 0a10 C4       		.byte	0xc4
 2514 0a11 01       		.byte	0x1
 2515 0a12 00000000 		.4byte	.LFB73
 2516 0a16 0A000000 		.4byte	.LFE73
 2517 0a1a 4B010000 		.4byte	.LLST14
 2518 0a1e 320A0000 		.4byte	0xa32
 2519 0a22 22       		.uleb128 0x22
 2520 0a23 21050000 		.4byte	.LASF111
 2521 0a27 01       		.byte	0x1
 2522 0a28 C4       		.byte	0xc4
 2523 0a29 EB040000 		.4byte	0x4eb
 2524 0a2d 6B010000 		.4byte	.LLST15
ARM GAS  C:\Users\z80\AppData\Local\Temp\ccZLkr7i.s 			page 46


 2525 0a31 00       		.byte	0x0
 2526 0a32 21       		.uleb128 0x21
 2527 0a33 47010000 		.4byte	.LASF116
 2528 0a37 01       		.byte	0x1
 2529 0a38 BF       		.byte	0xbf
 2530 0a39 01       		.byte	0x1
 2531 0a3a 00000000 		.4byte	.LFB72
 2532 0a3e 0A000000 		.4byte	.LFE72
 2533 0a42 7E010000 		.4byte	.LLST16
 2534 0a46 5A0A0000 		.4byte	0xa5a
 2535 0a4a 22       		.uleb128 0x22
 2536 0a4b 21050000 		.4byte	.LASF111
 2537 0a4f 01       		.byte	0x1
 2538 0a50 BF       		.byte	0xbf
 2539 0a51 EB040000 		.4byte	0x4eb
 2540 0a55 9E010000 		.4byte	.LLST17
 2541 0a59 00       		.byte	0x0
 2542 0a5a 21       		.uleb128 0x21
 2543 0a5b B5000000 		.4byte	.LASF117
 2544 0a5f 01       		.byte	0x1
 2545 0a60 B4       		.byte	0xb4
 2546 0a61 01       		.byte	0x1
 2547 0a62 00000000 		.4byte	.LFB71
 2548 0a66 1C000000 		.4byte	.LFE71
 2549 0a6a B1010000 		.4byte	.LLST18
 2550 0a6e 8D0A0000 		.4byte	0xa8d
 2551 0a72 22       		.uleb128 0x22
 2552 0a73 21050000 		.4byte	.LASF111
 2553 0a77 01       		.byte	0x1
 2554 0a78 B4       		.byte	0xb4
 2555 0a79 EB040000 		.4byte	0x4eb
 2556 0a7d D1010000 		.4byte	.LLST19
 2557 0a81 1D       		.uleb128 0x1d
 2558 0a82 38000000 		.4byte	.LASF118
 2559 0a86 01       		.byte	0x1
 2560 0a87 B7       		.byte	0xb7
 2561 0a88 86000000 		.4byte	0x86
 2562 0a8c 00       		.byte	0x0
 2563 0a8d 21       		.uleb128 0x21
 2564 0a8e FA000000 		.4byte	.LASF119
 2565 0a92 01       		.byte	0x1
 2566 0a93 8C       		.byte	0x8c
 2567 0a94 01       		.byte	0x1
 2568 0a95 00000000 		.4byte	.LFB67
 2569 0a99 88000000 		.4byte	.LFE67
 2570 0a9d E4010000 		.4byte	.LLST20
 2571 0aa1 640B0000 		.4byte	0xb64
 2572 0aa5 24       		.uleb128 0x24
 2573 0aa6 7100     		.ascii	"q\000"
 2574 0aa8 01       		.byte	0x1
 2575 0aa9 8C       		.byte	0x8c
 2576 0aaa 640B0000 		.4byte	0xb64
 2577 0aae 04020000 		.4byte	.LLST21
 2578 0ab2 23       		.uleb128 0x23
 2579 0ab3 6D736700 		.ascii	"msg\000"
 2580 0ab7 01       		.byte	0x1
 2581 0ab8 8E       		.byte	0x8e
ARM GAS  C:\Users\z80\AppData\Local\Temp\ccZLkr7i.s 			page 47


 2582 0ab9 E8000000 		.4byte	0xe8
 2583 0abd 22020000 		.4byte	.LLST22
 2584 0ac1 25       		.uleb128 0x25
 2585 0ac2 BE010000 		.4byte	.LASF120
 2586 0ac6 01       		.byte	0x1
 2587 0ac7 8F       		.byte	0x8f
 2588 0ac8 49000000 		.4byte	0x49
 2589 0acc 4F020000 		.4byte	.LLST23
 2590 0ad0 26       		.uleb128 0x26
 2591 0ad1 636E7400 		.ascii	"cnt\000"
 2592 0ad5 01       		.byte	0x1
 2593 0ad6 90       		.byte	0x90
 2594 0ad7 30000000 		.4byte	0x30
 2595 0adb 01       		.byte	0x1
 2596 0adc 54       		.byte	0x54
 2597 0add 23       		.uleb128 0x23
 2598 0ade 6900     		.ascii	"i\000"
 2599 0ae0 01       		.byte	0x1
 2600 0ae1 90       		.byte	0x90
 2601 0ae2 30000000 		.4byte	0x30
 2602 0ae6 A2020000 		.4byte	.LLST24
 2603 0aea 27       		.uleb128 0x27
 2604 0aeb 04000000 		.4byte	.LBB17
 2605 0aef 0A000000 		.4byte	.LBE17
 2606 0af3 070B0000 		.4byte	0xb07
 2607 0af7 23       		.uleb128 0x23
 2608 0af8 746D7000 		.ascii	"tmp\000"
 2609 0afc 01       		.byte	0x1
 2610 0afd 91       		.byte	0x91
 2611 0afe 86000000 		.4byte	0x86
 2612 0b02 CC020000 		.4byte	.LLST25
 2613 0b06 00       		.byte	0x0
 2614 0b07 27       		.uleb128 0x27
 2615 0b08 18000000 		.4byte	.LBB18
 2616 0b0c 1E000000 		.4byte	.LBE18
 2617 0b10 240B0000 		.4byte	0xb24
 2618 0b14 23       		.uleb128 0x23
 2619 0b15 746D7000 		.ascii	"tmp\000"
 2620 0b19 01       		.byte	0x1
 2621 0b1a 93       		.byte	0x93
 2622 0b1b 86000000 		.4byte	0x86
 2623 0b1f DF020000 		.4byte	.LLST26
 2624 0b23 00       		.byte	0x0
 2625 0b24 28       		.uleb128 0x28
 2626 0b25 00000000 		.4byte	.Ldebug_ranges0+0x0
 2627 0b29 540B0000 		.4byte	0xb54
 2628 0b2d 23       		.uleb128 0x23
 2629 0b2e 7600     		.ascii	"v\000"
 2630 0b30 01       		.byte	0x1
 2631 0b31 98       		.byte	0x98
 2632 0b32 49000000 		.4byte	0x49
 2633 0b36 08030000 		.4byte	.LLST27
 2634 0b3a 29       		.uleb128 0x29
 2635 0b3b A6080000 		.4byte	0x8a6
 2636 0b3f 24000000 		.4byte	.LBB21
 2637 0b43 28000000 		.4byte	.Ldebug_ranges0+0x28
 2638 0b47 01       		.byte	0x1
ARM GAS  C:\Users\z80\AppData\Local\Temp\ccZLkr7i.s 			page 48


 2639 0b48 9A       		.byte	0x9a
 2640 0b49 2A       		.uleb128 0x2a
 2641 0b4a B3080000 		.4byte	0x8b3
 2642 0b4e 32030000 		.4byte	.LLST28
 2643 0b52 00       		.byte	0x0
 2644 0b53 00       		.byte	0x0
 2645 0b54 2B       		.uleb128 0x2b
 2646 0b55 BD080000 		.4byte	0x8bd
 2647 0b59 5C000000 		.4byte	.LBB30
 2648 0b5d 74000000 		.4byte	.LBE30
 2649 0b61 01       		.byte	0x1
 2650 0b62 9C       		.byte	0x9c
 2651 0b63 00       		.byte	0x0
 2652 0b64 09       		.uleb128 0x9
 2653 0b65 04       		.byte	0x4
 2654 0b66 F1040000 		.4byte	0x4f1
 2655 0b6a 21       		.uleb128 0x21
 2656 0b6b F3010000 		.4byte	.LASF121
 2657 0b6f 01       		.byte	0x1
 2658 0b70 AD       		.byte	0xad
 2659 0b71 01       		.byte	0x1
 2660 0b72 00000000 		.4byte	.LFB70
 2661 0b76 0C000000 		.4byte	.LFE70
 2662 0b7a 5C030000 		.4byte	.LLST29
 2663 0b7e 9F0B0000 		.4byte	0xb9f
 2664 0b82 22       		.uleb128 0x22
 2665 0b83 21050000 		.4byte	.LASF111
 2666 0b87 01       		.byte	0x1
 2667 0b88 AD       		.byte	0xad
 2668 0b89 EB040000 		.4byte	0x4eb
 2669 0b8d 7C030000 		.4byte	.LLST30
 2670 0b91 23       		.uleb128 0x23
 2671 0b92 7100     		.ascii	"q\000"
 2672 0b94 01       		.byte	0x1
 2673 0b95 B0       		.byte	0xb0
 2674 0b96 640B0000 		.4byte	0xb64
 2675 0b9a 8F030000 		.4byte	.LLST31
 2676 0b9e 00       		.byte	0x0
 2677 0b9f 21       		.uleb128 0x21
 2678 0ba0 64030000 		.4byte	.LASF122
 2679 0ba4 01       		.byte	0x1
 2680 0ba5 A6       		.byte	0xa6
 2681 0ba6 01       		.byte	0x1
 2682 0ba7 00000000 		.4byte	.LFB69
 2683 0bab 0C000000 		.4byte	.LFE69
 2684 0baf A2030000 		.4byte	.LLST32
 2685 0bb3 D40B0000 		.4byte	0xbd4
 2686 0bb7 22       		.uleb128 0x22
 2687 0bb8 21050000 		.4byte	.LASF111
 2688 0bbc 01       		.byte	0x1
 2689 0bbd A6       		.byte	0xa6
 2690 0bbe EB040000 		.4byte	0x4eb
 2691 0bc2 C2030000 		.4byte	.LLST33
 2692 0bc6 23       		.uleb128 0x23
 2693 0bc7 7100     		.ascii	"q\000"
 2694 0bc9 01       		.byte	0x1
 2695 0bca A9       		.byte	0xa9
ARM GAS  C:\Users\z80\AppData\Local\Temp\ccZLkr7i.s 			page 49


 2696 0bcb 640B0000 		.4byte	0xb64
 2697 0bcf D5030000 		.4byte	.LLST34
 2698 0bd3 00       		.byte	0x0
 2699 0bd4 21       		.uleb128 0x21
 2700 0bd5 A6040000 		.4byte	.LASF123
 2701 0bd9 01       		.byte	0x1
 2702 0bda 9F       		.byte	0x9f
 2703 0bdb 01       		.byte	0x1
 2704 0bdc 00000000 		.4byte	.LFB68
 2705 0be0 0C000000 		.4byte	.LFE68
 2706 0be4 E8030000 		.4byte	.LLST35
 2707 0be8 090C0000 		.4byte	0xc09
 2708 0bec 22       		.uleb128 0x22
 2709 0bed 21050000 		.4byte	.LASF111
 2710 0bf1 01       		.byte	0x1
 2711 0bf2 9F       		.byte	0x9f
 2712 0bf3 EB040000 		.4byte	0x4eb
 2713 0bf7 08040000 		.4byte	.LLST36
 2714 0bfb 23       		.uleb128 0x23
 2715 0bfc 7100     		.ascii	"q\000"
 2716 0bfe 01       		.byte	0x1
 2717 0bff A2       		.byte	0xa2
 2718 0c00 640B0000 		.4byte	0xb64
 2719 0c04 1B040000 		.4byte	.LLST37
 2720 0c08 00       		.byte	0x0
 2721 0c09 2C       		.uleb128 0x2c
 2722 0c0a 01       		.byte	0x1
 2723 0c0b 46040000 		.4byte	.LASF133
 2724 0c0f 01       		.byte	0x1
 2725 0c10 1E       		.byte	0x1e
 2726 0c11 01       		.byte	0x1
 2727 0c12 00000000 		.4byte	.LFB62
 2728 0c16 12000000 		.4byte	.LFE62
 2729 0c1a 2E040000 		.4byte	.LLST38
 2730 0c1e 2D       		.uleb128 0x2d
 2731 0c1f 01       		.byte	0x1
 2732 0c20 93020000 		.4byte	.LASF134
 2733 0c24 01       		.byte	0x1
 2734 0c25 24       		.byte	0x24
 2735 0c26 01       		.byte	0x1
 2736 0c27 00000000 		.4byte	.LFB63
 2737 0c2b 34000000 		.4byte	.LFE63
 2738 0c2f 4E040000 		.4byte	.LLST39
 2739 0c33 8B0C0000 		.4byte	0xc8b
 2740 0c37 2E       		.uleb128 0x2e
 2741 0c38 04000000 		.4byte	.LBB33
 2742 0c3c 34000000 		.4byte	.LBE33
 2743 0c40 2F       		.uleb128 0x2f
 2744 0c41 0D050000 		.4byte	.LASF124
 2745 0c45 01       		.byte	0x1
 2746 0c46 28       		.byte	0x28
 2747 0c47 49000000 		.4byte	0x49
 2748 0c4b 00       		.byte	0x0
 2749 0c4c 2F       		.uleb128 0x2f
 2750 0c4d 91000000 		.4byte	.LASF125
 2751 0c51 01       		.byte	0x1
 2752 0c52 29       		.byte	0x29
ARM GAS  C:\Users\z80\AppData\Local\Temp\ccZLkr7i.s 			page 50


 2753 0c53 29000000 		.4byte	0x29
 2754 0c57 00       		.byte	0x0
 2755 0c58 23       		.uleb128 0x23
 2756 0c59 6D736700 		.ascii	"msg\000"
 2757 0c5d 01       		.byte	0x1
 2758 0c5e 2E       		.byte	0x2e
 2759 0c5f E8000000 		.4byte	0xe8
 2760 0c63 6E040000 		.4byte	.LLST40
 2761 0c67 25       		.uleb128 0x25
 2762 0c68 BE010000 		.4byte	.LASF120
 2763 0c6c 01       		.byte	0x1
 2764 0c6d 30       		.byte	0x30
 2765 0c6e 49000000 		.4byte	0x49
 2766 0c72 A6040000 		.4byte	.LLST41
 2767 0c76 30       		.uleb128 0x30
 2768 0c77 50000000 		.4byte	.Ldebug_ranges0+0x50
 2769 0c7b 23       		.uleb128 0x23
 2770 0c7c 7600     		.ascii	"v\000"
 2771 0c7e 01       		.byte	0x1
 2772 0c7f 33       		.byte	0x33
 2773 0c80 49000000 		.4byte	0x49
 2774 0c84 12050000 		.4byte	.LLST42
 2775 0c88 00       		.byte	0x0
 2776 0c89 00       		.byte	0x0
 2777 0c8a 00       		.byte	0x0
 2778 0c8b 31       		.uleb128 0x31
 2779 0c8c 01       		.byte	0x1
 2780 0c8d 72000000 		.4byte	.LASF135
 2781 0c91 01       		.byte	0x1
 2782 0c92 4E       		.byte	0x4e
 2783 0c93 01       		.byte	0x1
 2784 0c94 EB040000 		.4byte	0x4eb
 2785 0c98 00000000 		.4byte	.LFB64
 2786 0c9c 0A000000 		.4byte	.LFE64
 2787 0ca0 02       		.byte	0x2
 2788 0ca1 7D       		.byte	0x7d
 2789 0ca2 00       		.sleb128 0
 2790 0ca3 32       		.uleb128 0x32
 2791 0ca4 9B000000 		.4byte	.LASF126
 2792 0ca8 0F       		.byte	0xf
 2793 0ca9 9404     		.2byte	0x494
 2794 0cab 31060000 		.4byte	0x631
 2795 0caf 01       		.byte	0x1
 2796 0cb0 01       		.byte	0x1
 2797 0cb1 33       		.uleb128 0x33
 2798 0cb2 53443100 		.ascii	"SD1\000"
 2799 0cb6 10       		.byte	0x10
 2800 0cb7 FB       		.byte	0xfb
 2801 0cb8 42070000 		.4byte	0x742
 2802 0cbc 01       		.byte	0x1
 2803 0cbd 01       		.byte	0x1
 2804 0cbe 1A       		.uleb128 0x1a
 2805 0cbf 49000000 		.4byte	0x49
 2806 0cc3 CE0C0000 		.4byte	0xcce
 2807 0cc7 1B       		.uleb128 0x1b
 2808 0cc8 3D030000 		.4byte	0x33d
 2809 0ccc 1F       		.byte	0x1f
ARM GAS  C:\Users\z80\AppData\Local\Temp\ccZLkr7i.s 			page 51


 2810 0ccd 00       		.byte	0x0
 2811 0cce 34       		.uleb128 0x34
 2812 0ccf 6E040000 		.4byte	.LASF127
 2813 0cd3 01       		.byte	0x1
 2814 0cd4 15       		.byte	0x15
 2815 0cd5 BE0C0000 		.4byte	0xcbe
 2816 0cd9 05       		.byte	0x5
 2817 0cda 03       		.byte	0x3
 2818 0cdb 00000000 		.4byte	buffer
 2819 0cdf 34       		.uleb128 0x34
 2820 0ce0 21050000 		.4byte	.LASF111
 2821 0ce4 01       		.byte	0x1
 2822 0ce5 16       		.byte	0x16
 2823 0ce6 BE0C0000 		.4byte	0xcbe
 2824 0cea 05       		.byte	0x5
 2825 0ceb 03       		.byte	0x3
 2826 0cec 00000000 		.4byte	args
 2827 0cf0 1A       		.uleb128 0x1a
 2828 0cf1 0F060000 		.4byte	0x60f
 2829 0cf5 000D0000 		.4byte	0xd00
 2830 0cf9 1B       		.uleb128 0x1b
 2831 0cfa 3D030000 		.4byte	0x33d
 2832 0cfe 0A       		.byte	0xa
 2833 0cff 00       		.byte	0x0
 2834 0d00 1D       		.uleb128 0x1d
 2835 0d01 20000000 		.4byte	.LASF128
 2836 0d05 01       		.byte	0x1
 2837 0d06 74       		.byte	0x74
 2838 0d07 F00C0000 		.4byte	0xcf0
 2839 0d0b 32       		.uleb128 0x32
 2840 0d0c 9B000000 		.4byte	.LASF126
 2841 0d10 0F       		.byte	0xf
 2842 0d11 9404     		.2byte	0x494
 2843 0d13 31060000 		.4byte	0x631
 2844 0d17 01       		.byte	0x1
 2845 0d18 01       		.byte	0x1
 2846 0d19 33       		.uleb128 0x33
 2847 0d1a 53443100 		.ascii	"SD1\000"
 2848 0d1e 10       		.byte	0x10
 2849 0d1f FB       		.byte	0xfb
 2850 0d20 42070000 		.4byte	0x742
 2851 0d24 01       		.byte	0x1
 2852 0d25 01       		.byte	0x1
 2853 0d26 00       		.byte	0x0
 2854              		.section	.debug_abbrev
 2855 0000 01       		.uleb128 0x1
 2856 0001 11       		.uleb128 0x11
 2857 0002 01       		.byte	0x1
 2858 0003 25       		.uleb128 0x25
 2859 0004 0E       		.uleb128 0xe
 2860 0005 13       		.uleb128 0x13
 2861 0006 0B       		.uleb128 0xb
 2862 0007 03       		.uleb128 0x3
 2863 0008 0E       		.uleb128 0xe
 2864 0009 1B       		.uleb128 0x1b
 2865 000a 0E       		.uleb128 0xe
 2866 000b 11       		.uleb128 0x11
ARM GAS  C:\Users\z80\AppData\Local\Temp\ccZLkr7i.s 			page 52


 2867 000c 01       		.uleb128 0x1
 2868 000d 52       		.uleb128 0x52
 2869 000e 01       		.uleb128 0x1
 2870 000f 55       		.uleb128 0x55
 2871 0010 06       		.uleb128 0x6
 2872 0011 10       		.uleb128 0x10
 2873 0012 06       		.uleb128 0x6
 2874 0013 00       		.byte	0x0
 2875 0014 00       		.byte	0x0
 2876 0015 02       		.uleb128 0x2
 2877 0016 24       		.uleb128 0x24
 2878 0017 00       		.byte	0x0
 2879 0018 0B       		.uleb128 0xb
 2880 0019 0B       		.uleb128 0xb
 2881 001a 3E       		.uleb128 0x3e
 2882 001b 0B       		.uleb128 0xb
 2883 001c 03       		.uleb128 0x3
 2884 001d 08       		.uleb128 0x8
 2885 001e 00       		.byte	0x0
 2886 001f 00       		.byte	0x0
 2887 0020 03       		.uleb128 0x3
 2888 0021 16       		.uleb128 0x16
 2889 0022 00       		.byte	0x0
 2890 0023 03       		.uleb128 0x3
 2891 0024 0E       		.uleb128 0xe
 2892 0025 3A       		.uleb128 0x3a
 2893 0026 0B       		.uleb128 0xb
 2894 0027 3B       		.uleb128 0x3b
 2895 0028 0B       		.uleb128 0xb
 2896 0029 49       		.uleb128 0x49
 2897 002a 13       		.uleb128 0x13
 2898 002b 00       		.byte	0x0
 2899 002c 00       		.byte	0x0
 2900 002d 04       		.uleb128 0x4
 2901 002e 24       		.uleb128 0x24
 2902 002f 00       		.byte	0x0
 2903 0030 0B       		.uleb128 0xb
 2904 0031 0B       		.uleb128 0xb
 2905 0032 3E       		.uleb128 0x3e
 2906 0033 0B       		.uleb128 0xb
 2907 0034 03       		.uleb128 0x3
 2908 0035 0E       		.uleb128 0xe
 2909 0036 00       		.byte	0x0
 2910 0037 00       		.byte	0x0
 2911 0038 05       		.uleb128 0x5
 2912 0039 13       		.uleb128 0x13
 2913 003a 01       		.byte	0x1
 2914 003b 03       		.uleb128 0x3
 2915 003c 0E       		.uleb128 0xe
 2916 003d 0B       		.uleb128 0xb
 2917 003e 0B       		.uleb128 0xb
 2918 003f 3A       		.uleb128 0x3a
 2919 0040 0B       		.uleb128 0xb
 2920 0041 3B       		.uleb128 0x3b
 2921 0042 0B       		.uleb128 0xb
 2922 0043 01       		.uleb128 0x1
 2923 0044 13       		.uleb128 0x13
ARM GAS  C:\Users\z80\AppData\Local\Temp\ccZLkr7i.s 			page 53


 2924 0045 00       		.byte	0x0
 2925 0046 00       		.byte	0x0
 2926 0047 06       		.uleb128 0x6
 2927 0048 0D       		.uleb128 0xd
 2928 0049 00       		.byte	0x0
 2929 004a 03       		.uleb128 0x3
 2930 004b 0E       		.uleb128 0xe
 2931 004c 3A       		.uleb128 0x3a
 2932 004d 0B       		.uleb128 0xb
 2933 004e 3B       		.uleb128 0x3b
 2934 004f 0B       		.uleb128 0xb
 2935 0050 49       		.uleb128 0x49
 2936 0051 13       		.uleb128 0x13
 2937 0052 38       		.uleb128 0x38
 2938 0053 0A       		.uleb128 0xa
 2939 0054 00       		.byte	0x0
 2940 0055 00       		.byte	0x0
 2941 0056 07       		.uleb128 0x7
 2942 0057 0D       		.uleb128 0xd
 2943 0058 00       		.byte	0x0
 2944 0059 03       		.uleb128 0x3
 2945 005a 08       		.uleb128 0x8
 2946 005b 3A       		.uleb128 0x3a
 2947 005c 0B       		.uleb128 0xb
 2948 005d 3B       		.uleb128 0x3b
 2949 005e 0B       		.uleb128 0xb
 2950 005f 49       		.uleb128 0x49
 2951 0060 13       		.uleb128 0x13
 2952 0061 38       		.uleb128 0x38
 2953 0062 0A       		.uleb128 0xa
 2954 0063 00       		.byte	0x0
 2955 0064 00       		.byte	0x0
 2956 0065 08       		.uleb128 0x8
 2957 0066 13       		.uleb128 0x13
 2958 0067 01       		.byte	0x1
 2959 0068 0B       		.uleb128 0xb
 2960 0069 0B       		.uleb128 0xb
 2961 006a 3A       		.uleb128 0x3a
 2962 006b 0B       		.uleb128 0xb
 2963 006c 3B       		.uleb128 0x3b
 2964 006d 0B       		.uleb128 0xb
 2965 006e 01       		.uleb128 0x1
 2966 006f 13       		.uleb128 0x13
 2967 0070 00       		.byte	0x0
 2968 0071 00       		.byte	0x0
 2969 0072 09       		.uleb128 0x9
 2970 0073 0F       		.uleb128 0xf
 2971 0074 00       		.byte	0x0
 2972 0075 0B       		.uleb128 0xb
 2973 0076 0B       		.uleb128 0xb
 2974 0077 49       		.uleb128 0x49
 2975 0078 13       		.uleb128 0x13
 2976 0079 00       		.byte	0x0
 2977 007a 00       		.byte	0x0
 2978 007b 0A       		.uleb128 0xa
 2979 007c 0F       		.uleb128 0xf
 2980 007d 00       		.byte	0x0
ARM GAS  C:\Users\z80\AppData\Local\Temp\ccZLkr7i.s 			page 54


 2981 007e 0B       		.uleb128 0xb
 2982 007f 0B       		.uleb128 0xb
 2983 0080 00       		.byte	0x0
 2984 0081 00       		.byte	0x0
 2985 0082 0B       		.uleb128 0xb
 2986 0083 0D       		.uleb128 0xd
 2987 0084 00       		.byte	0x0
 2988 0085 03       		.uleb128 0x3
 2989 0086 08       		.uleb128 0x8
 2990 0087 3A       		.uleb128 0x3a
 2991 0088 0B       		.uleb128 0xb
 2992 0089 3B       		.uleb128 0x3b
 2993 008a 05       		.uleb128 0x5
 2994 008b 49       		.uleb128 0x49
 2995 008c 13       		.uleb128 0x13
 2996 008d 38       		.uleb128 0x38
 2997 008e 0A       		.uleb128 0xa
 2998 008f 00       		.byte	0x0
 2999 0090 00       		.byte	0x0
 3000 0091 0C       		.uleb128 0xc
 3001 0092 13       		.uleb128 0x13
 3002 0093 01       		.byte	0x1
 3003 0094 03       		.uleb128 0x3
 3004 0095 0E       		.uleb128 0xe
 3005 0096 0B       		.uleb128 0xb
 3006 0097 0B       		.uleb128 0xb
 3007 0098 3A       		.uleb128 0x3a
 3008 0099 0B       		.uleb128 0xb
 3009 009a 3B       		.uleb128 0x3b
 3010 009b 05       		.uleb128 0x5
 3011 009c 01       		.uleb128 0x1
 3012 009d 13       		.uleb128 0x13
 3013 009e 00       		.byte	0x0
 3014 009f 00       		.byte	0x0
 3015 00a0 0D       		.uleb128 0xd
 3016 00a1 24       		.uleb128 0x24
 3017 00a2 00       		.byte	0x0
 3018 00a3 0B       		.uleb128 0xb
 3019 00a4 0B       		.uleb128 0xb
 3020 00a5 3E       		.uleb128 0x3e
 3021 00a6 0B       		.uleb128 0xb
 3022 00a7 00       		.byte	0x0
 3023 00a8 00       		.byte	0x0
 3024 00a9 0E       		.uleb128 0xe
 3025 00aa 35       		.uleb128 0x35
 3026 00ab 00       		.byte	0x0
 3027 00ac 49       		.uleb128 0x49
 3028 00ad 13       		.uleb128 0x13
 3029 00ae 00       		.byte	0x0
 3030 00af 00       		.byte	0x0
 3031 00b0 0F       		.uleb128 0xf
 3032 00b1 17       		.uleb128 0x17
 3033 00b2 01       		.byte	0x1
 3034 00b3 0B       		.uleb128 0xb
 3035 00b4 0B       		.uleb128 0xb
 3036 00b5 3A       		.uleb128 0x3a
 3037 00b6 0B       		.uleb128 0xb
ARM GAS  C:\Users\z80\AppData\Local\Temp\ccZLkr7i.s 			page 55


 3038 00b7 3B       		.uleb128 0x3b
 3039 00b8 0B       		.uleb128 0xb
 3040 00b9 01       		.uleb128 0x1
 3041 00ba 13       		.uleb128 0x13
 3042 00bb 00       		.byte	0x0
 3043 00bc 00       		.byte	0x0
 3044 00bd 10       		.uleb128 0x10
 3045 00be 0D       		.uleb128 0xd
 3046 00bf 00       		.byte	0x0
 3047 00c0 03       		.uleb128 0x3
 3048 00c1 0E       		.uleb128 0xe
 3049 00c2 3A       		.uleb128 0x3a
 3050 00c3 0B       		.uleb128 0xb
 3051 00c4 3B       		.uleb128 0x3b
 3052 00c5 0B       		.uleb128 0xb
 3053 00c6 49       		.uleb128 0x49
 3054 00c7 13       		.uleb128 0x13
 3055 00c8 00       		.byte	0x0
 3056 00c9 00       		.byte	0x0
 3057 00ca 11       		.uleb128 0x11
 3058 00cb 26       		.uleb128 0x26
 3059 00cc 00       		.byte	0x0
 3060 00cd 49       		.uleb128 0x49
 3061 00ce 13       		.uleb128 0x13
 3062 00cf 00       		.byte	0x0
 3063 00d0 00       		.byte	0x0
 3064 00d1 12       		.uleb128 0x12
 3065 00d2 15       		.uleb128 0x15
 3066 00d3 01       		.byte	0x1
 3067 00d4 27       		.uleb128 0x27
 3068 00d5 0C       		.uleb128 0xc
 3069 00d6 01       		.uleb128 0x1
 3070 00d7 13       		.uleb128 0x13
 3071 00d8 00       		.byte	0x0
 3072 00d9 00       		.byte	0x0
 3073 00da 13       		.uleb128 0x13
 3074 00db 05       		.uleb128 0x5
 3075 00dc 00       		.byte	0x0
 3076 00dd 49       		.uleb128 0x49
 3077 00de 13       		.uleb128 0x13
 3078 00df 00       		.byte	0x0
 3079 00e0 00       		.byte	0x0
 3080 00e1 14       		.uleb128 0x14
 3081 00e2 15       		.uleb128 0x15
 3082 00e3 01       		.byte	0x1
 3083 00e4 27       		.uleb128 0x27
 3084 00e5 0C       		.uleb128 0xc
 3085 00e6 49       		.uleb128 0x49
 3086 00e7 13       		.uleb128 0x13
 3087 00e8 01       		.uleb128 0x1
 3088 00e9 13       		.uleb128 0x13
 3089 00ea 00       		.byte	0x0
 3090 00eb 00       		.byte	0x0
 3091 00ec 15       		.uleb128 0x15
 3092 00ed 16       		.uleb128 0x16
 3093 00ee 00       		.byte	0x0
 3094 00ef 03       		.uleb128 0x3
ARM GAS  C:\Users\z80\AppData\Local\Temp\ccZLkr7i.s 			page 56


 3095 00f0 0E       		.uleb128 0xe
 3096 00f1 3A       		.uleb128 0x3a
 3097 00f2 0B       		.uleb128 0xb
 3098 00f3 3B       		.uleb128 0x3b
 3099 00f4 05       		.uleb128 0x5
 3100 00f5 49       		.uleb128 0x49
 3101 00f6 13       		.uleb128 0x13
 3102 00f7 00       		.byte	0x0
 3103 00f8 00       		.byte	0x0
 3104 00f9 16       		.uleb128 0x16
 3105 00fa 13       		.uleb128 0x13
 3106 00fb 01       		.byte	0x1
 3107 00fc 0B       		.uleb128 0xb
 3108 00fd 0B       		.uleb128 0xb
 3109 00fe 3A       		.uleb128 0x3a
 3110 00ff 0B       		.uleb128 0xb
 3111 0100 3B       		.uleb128 0x3b
 3112 0101 05       		.uleb128 0x5
 3113 0102 01       		.uleb128 0x1
 3114 0103 13       		.uleb128 0x13
 3115 0104 00       		.byte	0x0
 3116 0105 00       		.byte	0x0
 3117 0106 17       		.uleb128 0x17
 3118 0107 0D       		.uleb128 0xd
 3119 0108 00       		.byte	0x0
 3120 0109 03       		.uleb128 0x3
 3121 010a 0E       		.uleb128 0xe
 3122 010b 3A       		.uleb128 0x3a
 3123 010c 0B       		.uleb128 0xb
 3124 010d 3B       		.uleb128 0x3b
 3125 010e 05       		.uleb128 0x5
 3126 010f 49       		.uleb128 0x49
 3127 0110 13       		.uleb128 0x13
 3128 0111 38       		.uleb128 0x38
 3129 0112 0A       		.uleb128 0xa
 3130 0113 00       		.byte	0x0
 3131 0114 00       		.byte	0x0
 3132 0115 18       		.uleb128 0x18
 3133 0116 04       		.uleb128 0x4
 3134 0117 01       		.byte	0x1
 3135 0118 0B       		.uleb128 0xb
 3136 0119 0B       		.uleb128 0xb
 3137 011a 3A       		.uleb128 0x3a
 3138 011b 0B       		.uleb128 0xb
 3139 011c 3B       		.uleb128 0x3b
 3140 011d 0B       		.uleb128 0xb
 3141 011e 01       		.uleb128 0x1
 3142 011f 13       		.uleb128 0x13
 3143 0120 00       		.byte	0x0
 3144 0121 00       		.byte	0x0
 3145 0122 19       		.uleb128 0x19
 3146 0123 28       		.uleb128 0x28
 3147 0124 00       		.byte	0x0
 3148 0125 03       		.uleb128 0x3
 3149 0126 0E       		.uleb128 0xe
 3150 0127 1C       		.uleb128 0x1c
 3151 0128 0D       		.uleb128 0xd
ARM GAS  C:\Users\z80\AppData\Local\Temp\ccZLkr7i.s 			page 57


 3152 0129 00       		.byte	0x0
 3153 012a 00       		.byte	0x0
 3154 012b 1A       		.uleb128 0x1a
 3155 012c 01       		.uleb128 0x1
 3156 012d 01       		.byte	0x1
 3157 012e 49       		.uleb128 0x49
 3158 012f 13       		.uleb128 0x13
 3159 0130 01       		.uleb128 0x1
 3160 0131 13       		.uleb128 0x13
 3161 0132 00       		.byte	0x0
 3162 0133 00       		.byte	0x0
 3163 0134 1B       		.uleb128 0x1b
 3164 0135 21       		.uleb128 0x21
 3165 0136 00       		.byte	0x0
 3166 0137 49       		.uleb128 0x49
 3167 0138 13       		.uleb128 0x13
 3168 0139 2F       		.uleb128 0x2f
 3169 013a 0B       		.uleb128 0xb
 3170 013b 00       		.byte	0x0
 3171 013c 00       		.byte	0x0
 3172 013d 1C       		.uleb128 0x1c
 3173 013e 2E       		.uleb128 0x2e
 3174 013f 01       		.byte	0x1
 3175 0140 03       		.uleb128 0x3
 3176 0141 0E       		.uleb128 0xe
 3177 0142 3A       		.uleb128 0x3a
 3178 0143 0B       		.uleb128 0xb
 3179 0144 3B       		.uleb128 0x3b
 3180 0145 0B       		.uleb128 0xb
 3181 0146 27       		.uleb128 0x27
 3182 0147 0C       		.uleb128 0xc
 3183 0148 20       		.uleb128 0x20
 3184 0149 0B       		.uleb128 0xb
 3185 014a 01       		.uleb128 0x1
 3186 014b 13       		.uleb128 0x13
 3187 014c 00       		.byte	0x0
 3188 014d 00       		.byte	0x0
 3189 014e 1D       		.uleb128 0x1d
 3190 014f 34       		.uleb128 0x34
 3191 0150 00       		.byte	0x0
 3192 0151 03       		.uleb128 0x3
 3193 0152 0E       		.uleb128 0xe
 3194 0153 3A       		.uleb128 0x3a
 3195 0154 0B       		.uleb128 0xb
 3196 0155 3B       		.uleb128 0x3b
 3197 0156 0B       		.uleb128 0xb
 3198 0157 49       		.uleb128 0x49
 3199 0158 13       		.uleb128 0x13
 3200 0159 00       		.byte	0x0
 3201 015a 00       		.byte	0x0
 3202 015b 1E       		.uleb128 0x1e
 3203 015c 05       		.uleb128 0x5
 3204 015d 00       		.byte	0x0
 3205 015e 03       		.uleb128 0x3
 3206 015f 08       		.uleb128 0x8
 3207 0160 3A       		.uleb128 0x3a
 3208 0161 0B       		.uleb128 0xb
ARM GAS  C:\Users\z80\AppData\Local\Temp\ccZLkr7i.s 			page 58


 3209 0162 3B       		.uleb128 0x3b
 3210 0163 0B       		.uleb128 0xb
 3211 0164 49       		.uleb128 0x49
 3212 0165 13       		.uleb128 0x13
 3213 0166 00       		.byte	0x0
 3214 0167 00       		.byte	0x0
 3215 0168 1F       		.uleb128 0x1f
 3216 0169 2E       		.uleb128 0x2e
 3217 016a 00       		.byte	0x0
 3218 016b 03       		.uleb128 0x3
 3219 016c 0E       		.uleb128 0xe
 3220 016d 3A       		.uleb128 0x3a
 3221 016e 0B       		.uleb128 0xb
 3222 016f 3B       		.uleb128 0x3b
 3223 0170 0B       		.uleb128 0xb
 3224 0171 27       		.uleb128 0x27
 3225 0172 0C       		.uleb128 0xc
 3226 0173 20       		.uleb128 0x20
 3227 0174 0B       		.uleb128 0xb
 3228 0175 00       		.byte	0x0
 3229 0176 00       		.byte	0x0
 3230 0177 20       		.uleb128 0x20
 3231 0178 34       		.uleb128 0x34
 3232 0179 00       		.byte	0x0
 3233 017a 03       		.uleb128 0x3
 3234 017b 08       		.uleb128 0x8
 3235 017c 3A       		.uleb128 0x3a
 3236 017d 0B       		.uleb128 0xb
 3237 017e 3B       		.uleb128 0x3b
 3238 017f 0B       		.uleb128 0xb
 3239 0180 49       		.uleb128 0x49
 3240 0181 13       		.uleb128 0x13
 3241 0182 00       		.byte	0x0
 3242 0183 00       		.byte	0x0
 3243 0184 21       		.uleb128 0x21
 3244 0185 2E       		.uleb128 0x2e
 3245 0186 01       		.byte	0x1
 3246 0187 03       		.uleb128 0x3
 3247 0188 0E       		.uleb128 0xe
 3248 0189 3A       		.uleb128 0x3a
 3249 018a 0B       		.uleb128 0xb
 3250 018b 3B       		.uleb128 0x3b
 3251 018c 0B       		.uleb128 0xb
 3252 018d 27       		.uleb128 0x27
 3253 018e 0C       		.uleb128 0xc
 3254 018f 11       		.uleb128 0x11
 3255 0190 01       		.uleb128 0x1
 3256 0191 12       		.uleb128 0x12
 3257 0192 01       		.uleb128 0x1
 3258 0193 40       		.uleb128 0x40
 3259 0194 06       		.uleb128 0x6
 3260 0195 01       		.uleb128 0x1
 3261 0196 13       		.uleb128 0x13
 3262 0197 00       		.byte	0x0
 3263 0198 00       		.byte	0x0
 3264 0199 22       		.uleb128 0x22
 3265 019a 05       		.uleb128 0x5
ARM GAS  C:\Users\z80\AppData\Local\Temp\ccZLkr7i.s 			page 59


 3266 019b 00       		.byte	0x0
 3267 019c 03       		.uleb128 0x3
 3268 019d 0E       		.uleb128 0xe
 3269 019e 3A       		.uleb128 0x3a
 3270 019f 0B       		.uleb128 0xb
 3271 01a0 3B       		.uleb128 0x3b
 3272 01a1 0B       		.uleb128 0xb
 3273 01a2 49       		.uleb128 0x49
 3274 01a3 13       		.uleb128 0x13
 3275 01a4 02       		.uleb128 0x2
 3276 01a5 06       		.uleb128 0x6
 3277 01a6 00       		.byte	0x0
 3278 01a7 00       		.byte	0x0
 3279 01a8 23       		.uleb128 0x23
 3280 01a9 34       		.uleb128 0x34
 3281 01aa 00       		.byte	0x0
 3282 01ab 03       		.uleb128 0x3
 3283 01ac 08       		.uleb128 0x8
 3284 01ad 3A       		.uleb128 0x3a
 3285 01ae 0B       		.uleb128 0xb
 3286 01af 3B       		.uleb128 0x3b
 3287 01b0 0B       		.uleb128 0xb
 3288 01b1 49       		.uleb128 0x49
 3289 01b2 13       		.uleb128 0x13
 3290 01b3 02       		.uleb128 0x2
 3291 01b4 06       		.uleb128 0x6
 3292 01b5 00       		.byte	0x0
 3293 01b6 00       		.byte	0x0
 3294 01b7 24       		.uleb128 0x24
 3295 01b8 05       		.uleb128 0x5
 3296 01b9 00       		.byte	0x0
 3297 01ba 03       		.uleb128 0x3
 3298 01bb 08       		.uleb128 0x8
 3299 01bc 3A       		.uleb128 0x3a
 3300 01bd 0B       		.uleb128 0xb
 3301 01be 3B       		.uleb128 0x3b
 3302 01bf 0B       		.uleb128 0xb
 3303 01c0 49       		.uleb128 0x49
 3304 01c1 13       		.uleb128 0x13
 3305 01c2 02       		.uleb128 0x2
 3306 01c3 06       		.uleb128 0x6
 3307 01c4 00       		.byte	0x0
 3308 01c5 00       		.byte	0x0
 3309 01c6 25       		.uleb128 0x25
 3310 01c7 34       		.uleb128 0x34
 3311 01c8 00       		.byte	0x0
 3312 01c9 03       		.uleb128 0x3
 3313 01ca 0E       		.uleb128 0xe
 3314 01cb 3A       		.uleb128 0x3a
 3315 01cc 0B       		.uleb128 0xb
 3316 01cd 3B       		.uleb128 0x3b
 3317 01ce 0B       		.uleb128 0xb
 3318 01cf 49       		.uleb128 0x49
 3319 01d0 13       		.uleb128 0x13
 3320 01d1 02       		.uleb128 0x2
 3321 01d2 06       		.uleb128 0x6
 3322 01d3 00       		.byte	0x0
ARM GAS  C:\Users\z80\AppData\Local\Temp\ccZLkr7i.s 			page 60


 3323 01d4 00       		.byte	0x0
 3324 01d5 26       		.uleb128 0x26
 3325 01d6 34       		.uleb128 0x34
 3326 01d7 00       		.byte	0x0
 3327 01d8 03       		.uleb128 0x3
 3328 01d9 08       		.uleb128 0x8
 3329 01da 3A       		.uleb128 0x3a
 3330 01db 0B       		.uleb128 0xb
 3331 01dc 3B       		.uleb128 0x3b
 3332 01dd 0B       		.uleb128 0xb
 3333 01de 49       		.uleb128 0x49
 3334 01df 13       		.uleb128 0x13
 3335 01e0 02       		.uleb128 0x2
 3336 01e1 0A       		.uleb128 0xa
 3337 01e2 00       		.byte	0x0
 3338 01e3 00       		.byte	0x0
 3339 01e4 27       		.uleb128 0x27
 3340 01e5 0B       		.uleb128 0xb
 3341 01e6 01       		.byte	0x1
 3342 01e7 11       		.uleb128 0x11
 3343 01e8 01       		.uleb128 0x1
 3344 01e9 12       		.uleb128 0x12
 3345 01ea 01       		.uleb128 0x1
 3346 01eb 01       		.uleb128 0x1
 3347 01ec 13       		.uleb128 0x13
 3348 01ed 00       		.byte	0x0
 3349 01ee 00       		.byte	0x0
 3350 01ef 28       		.uleb128 0x28
 3351 01f0 0B       		.uleb128 0xb
 3352 01f1 01       		.byte	0x1
 3353 01f2 55       		.uleb128 0x55
 3354 01f3 06       		.uleb128 0x6
 3355 01f4 01       		.uleb128 0x1
 3356 01f5 13       		.uleb128 0x13
 3357 01f6 00       		.byte	0x0
 3358 01f7 00       		.byte	0x0
 3359 01f8 29       		.uleb128 0x29
 3360 01f9 1D       		.uleb128 0x1d
 3361 01fa 01       		.byte	0x1
 3362 01fb 31       		.uleb128 0x31
 3363 01fc 13       		.uleb128 0x13
 3364 01fd 52       		.uleb128 0x52
 3365 01fe 01       		.uleb128 0x1
 3366 01ff 55       		.uleb128 0x55
 3367 0200 06       		.uleb128 0x6
 3368 0201 58       		.uleb128 0x58
 3369 0202 0B       		.uleb128 0xb
 3370 0203 59       		.uleb128 0x59
 3371 0204 0B       		.uleb128 0xb
 3372 0205 00       		.byte	0x0
 3373 0206 00       		.byte	0x0
 3374 0207 2A       		.uleb128 0x2a
 3375 0208 05       		.uleb128 0x5
 3376 0209 00       		.byte	0x0
 3377 020a 31       		.uleb128 0x31
 3378 020b 13       		.uleb128 0x13
 3379 020c 02       		.uleb128 0x2
ARM GAS  C:\Users\z80\AppData\Local\Temp\ccZLkr7i.s 			page 61


 3380 020d 06       		.uleb128 0x6
 3381 020e 00       		.byte	0x0
 3382 020f 00       		.byte	0x0
 3383 0210 2B       		.uleb128 0x2b
 3384 0211 1D       		.uleb128 0x1d
 3385 0212 00       		.byte	0x0
 3386 0213 31       		.uleb128 0x31
 3387 0214 13       		.uleb128 0x13
 3388 0215 11       		.uleb128 0x11
 3389 0216 01       		.uleb128 0x1
 3390 0217 12       		.uleb128 0x12
 3391 0218 01       		.uleb128 0x1
 3392 0219 58       		.uleb128 0x58
 3393 021a 0B       		.uleb128 0xb
 3394 021b 59       		.uleb128 0x59
 3395 021c 0B       		.uleb128 0xb
 3396 021d 00       		.byte	0x0
 3397 021e 00       		.byte	0x0
 3398 021f 2C       		.uleb128 0x2c
 3399 0220 2E       		.uleb128 0x2e
 3400 0221 00       		.byte	0x0
 3401 0222 3F       		.uleb128 0x3f
 3402 0223 0C       		.uleb128 0xc
 3403 0224 03       		.uleb128 0x3
 3404 0225 0E       		.uleb128 0xe
 3405 0226 3A       		.uleb128 0x3a
 3406 0227 0B       		.uleb128 0xb
 3407 0228 3B       		.uleb128 0x3b
 3408 0229 0B       		.uleb128 0xb
 3409 022a 27       		.uleb128 0x27
 3410 022b 0C       		.uleb128 0xc
 3411 022c 11       		.uleb128 0x11
 3412 022d 01       		.uleb128 0x1
 3413 022e 12       		.uleb128 0x12
 3414 022f 01       		.uleb128 0x1
 3415 0230 40       		.uleb128 0x40
 3416 0231 06       		.uleb128 0x6
 3417 0232 00       		.byte	0x0
 3418 0233 00       		.byte	0x0
 3419 0234 2D       		.uleb128 0x2d
 3420 0235 2E       		.uleb128 0x2e
 3421 0236 01       		.byte	0x1
 3422 0237 3F       		.uleb128 0x3f
 3423 0238 0C       		.uleb128 0xc
 3424 0239 03       		.uleb128 0x3
 3425 023a 0E       		.uleb128 0xe
 3426 023b 3A       		.uleb128 0x3a
 3427 023c 0B       		.uleb128 0xb
 3428 023d 3B       		.uleb128 0x3b
 3429 023e 0B       		.uleb128 0xb
 3430 023f 27       		.uleb128 0x27
 3431 0240 0C       		.uleb128 0xc
 3432 0241 11       		.uleb128 0x11
 3433 0242 01       		.uleb128 0x1
 3434 0243 12       		.uleb128 0x12
 3435 0244 01       		.uleb128 0x1
 3436 0245 40       		.uleb128 0x40
ARM GAS  C:\Users\z80\AppData\Local\Temp\ccZLkr7i.s 			page 62


 3437 0246 06       		.uleb128 0x6
 3438 0247 01       		.uleb128 0x1
 3439 0248 13       		.uleb128 0x13
 3440 0249 00       		.byte	0x0
 3441 024a 00       		.byte	0x0
 3442 024b 2E       		.uleb128 0x2e
 3443 024c 0B       		.uleb128 0xb
 3444 024d 01       		.byte	0x1
 3445 024e 11       		.uleb128 0x11
 3446 024f 01       		.uleb128 0x1
 3447 0250 12       		.uleb128 0x12
 3448 0251 01       		.uleb128 0x1
 3449 0252 00       		.byte	0x0
 3450 0253 00       		.byte	0x0
 3451 0254 2F       		.uleb128 0x2f
 3452 0255 34       		.uleb128 0x34
 3453 0256 00       		.byte	0x0
 3454 0257 03       		.uleb128 0x3
 3455 0258 0E       		.uleb128 0xe
 3456 0259 3A       		.uleb128 0x3a
 3457 025a 0B       		.uleb128 0xb
 3458 025b 3B       		.uleb128 0x3b
 3459 025c 0B       		.uleb128 0xb
 3460 025d 49       		.uleb128 0x49
 3461 025e 13       		.uleb128 0x13
 3462 025f 1C       		.uleb128 0x1c
 3463 0260 0B       		.uleb128 0xb
 3464 0261 00       		.byte	0x0
 3465 0262 00       		.byte	0x0
 3466 0263 30       		.uleb128 0x30
 3467 0264 0B       		.uleb128 0xb
 3468 0265 01       		.byte	0x1
 3469 0266 55       		.uleb128 0x55
 3470 0267 06       		.uleb128 0x6
 3471 0268 00       		.byte	0x0
 3472 0269 00       		.byte	0x0
 3473 026a 31       		.uleb128 0x31
 3474 026b 2E       		.uleb128 0x2e
 3475 026c 00       		.byte	0x0
 3476 026d 3F       		.uleb128 0x3f
 3477 026e 0C       		.uleb128 0xc
 3478 026f 03       		.uleb128 0x3
 3479 0270 0E       		.uleb128 0xe
 3480 0271 3A       		.uleb128 0x3a
 3481 0272 0B       		.uleb128 0xb
 3482 0273 3B       		.uleb128 0x3b
 3483 0274 0B       		.uleb128 0xb
 3484 0275 27       		.uleb128 0x27
 3485 0276 0C       		.uleb128 0xc
 3486 0277 49       		.uleb128 0x49
 3487 0278 13       		.uleb128 0x13
 3488 0279 11       		.uleb128 0x11
 3489 027a 01       		.uleb128 0x1
 3490 027b 12       		.uleb128 0x12
 3491 027c 01       		.uleb128 0x1
 3492 027d 40       		.uleb128 0x40
 3493 027e 0A       		.uleb128 0xa
ARM GAS  C:\Users\z80\AppData\Local\Temp\ccZLkr7i.s 			page 63


 3494 027f 00       		.byte	0x0
 3495 0280 00       		.byte	0x0
 3496 0281 32       		.uleb128 0x32
 3497 0282 34       		.uleb128 0x34
 3498 0283 00       		.byte	0x0
 3499 0284 03       		.uleb128 0x3
 3500 0285 0E       		.uleb128 0xe
 3501 0286 3A       		.uleb128 0x3a
 3502 0287 0B       		.uleb128 0xb
 3503 0288 3B       		.uleb128 0x3b
 3504 0289 05       		.uleb128 0x5
 3505 028a 49       		.uleb128 0x49
 3506 028b 13       		.uleb128 0x13
 3507 028c 3F       		.uleb128 0x3f
 3508 028d 0C       		.uleb128 0xc
 3509 028e 3C       		.uleb128 0x3c
 3510 028f 0C       		.uleb128 0xc
 3511 0290 00       		.byte	0x0
 3512 0291 00       		.byte	0x0
 3513 0292 33       		.uleb128 0x33
 3514 0293 34       		.uleb128 0x34
 3515 0294 00       		.byte	0x0
 3516 0295 03       		.uleb128 0x3
 3517 0296 08       		.uleb128 0x8
 3518 0297 3A       		.uleb128 0x3a
 3519 0298 0B       		.uleb128 0xb
 3520 0299 3B       		.uleb128 0x3b
 3521 029a 0B       		.uleb128 0xb
 3522 029b 49       		.uleb128 0x49
 3523 029c 13       		.uleb128 0x13
 3524 029d 3F       		.uleb128 0x3f
 3525 029e 0C       		.uleb128 0xc
 3526 029f 3C       		.uleb128 0x3c
 3527 02a0 0C       		.uleb128 0xc
 3528 02a1 00       		.byte	0x0
 3529 02a2 00       		.byte	0x0
 3530 02a3 34       		.uleb128 0x34
 3531 02a4 34       		.uleb128 0x34
 3532 02a5 00       		.byte	0x0
 3533 02a6 03       		.uleb128 0x3
 3534 02a7 0E       		.uleb128 0xe
 3535 02a8 3A       		.uleb128 0x3a
 3536 02a9 0B       		.uleb128 0xb
 3537 02aa 3B       		.uleb128 0x3b
 3538 02ab 0B       		.uleb128 0xb
 3539 02ac 49       		.uleb128 0x49
 3540 02ad 13       		.uleb128 0x13
 3541 02ae 02       		.uleb128 0x2
 3542 02af 0A       		.uleb128 0xa
 3543 02b0 00       		.byte	0x0
 3544 02b1 00       		.byte	0x0
 3545 02b2 00       		.byte	0x0
 3546              		.section	.debug_pubnames,"",%progbits
 3547 0000 3E000000 		.4byte	0x3e
 3548 0004 0200     		.2byte	0x2
 3549 0006 00000000 		.4byte	.Ldebug_info0
 3550 000a 270D0000 		.4byte	0xd27
ARM GAS  C:\Users\z80\AppData\Local\Temp\ccZLkr7i.s 			page 64


 3551 000e 090C0000 		.4byte	0xc09
 3552 0012 6370755F 		.ascii	"cpu_io_init\000"
 3552      696F5F69 
 3552      6E697400 
 3553 001e 1E0C0000 		.4byte	0xc1e
 3554 0022 6370755F 		.ascii	"cpu_io_process\000"
 3554      696F5F70 
 3554      726F6365 
 3554      737300
 3555 0031 8B0C0000 		.4byte	0xc8b
 3556 0035 66756E63 		.ascii	"funcArgs\000"
 3556      41726773 
 3556      00
 3557 003e 00000000 		.4byte	0x0
 3558              		.section	.debug_pubtypes,"",%progbits
 3559 0000 41020000 		.4byte	0x241
 3560 0004 0200     		.2byte	0x2
 3561 0006 00000000 		.4byte	.Ldebug_info0
 3562 000a 270D0000 		.4byte	0xd27
 3563 000e 30000000 		.4byte	0x30
 3564 0012 73697A65 		.ascii	"size_t\000"
 3564      5F7400
 3565 0019 49000000 		.4byte	0x49
 3566 001d 75696E74 		.ascii	"uint8_t\000"
 3566      385F7400 
 3567 0025 62000000 		.4byte	0x62
 3568 0029 75696E74 		.ascii	"uint16_t\000"
 3568      31365F74 
 3568      00
 3569 0032 74000000 		.4byte	0x74
 3570 0036 696E7433 		.ascii	"int32_t\000"
 3570      325F7400 
 3571 003e 86000000 		.4byte	0x86
 3572 0042 75696E74 		.ascii	"uint32_t\000"
 3572      33325F74 
 3572      00
 3573 004b 9F000000 		.4byte	0x9f
 3574 004f 75696E74 		.ascii	"uint64_t\000"
 3574      36345F74 
 3574      00
 3575 0058 B1000000 		.4byte	0xb1
 3576 005c 75696E74 		.ascii	"uint_fast16_t\000"
 3576      5F666173 
 3576      7431365F 
 3576      7400
 3577 006a BC000000 		.4byte	0xbc
 3578 006e 626F6F6C 		.ascii	"bool_t\000"
 3578      5F7400
 3579 0075 C7000000 		.4byte	0xc7
 3580 0079 746D6F64 		.ascii	"tmode_t\000"
 3580      655F7400 
 3581 0081 D2000000 		.4byte	0xd2
 3582 0085 74737461 		.ascii	"tstate_t\000"
 3582      74655F74 
 3582      00
 3583 008e DD000000 		.4byte	0xdd
 3584 0092 74707269 		.ascii	"tprio_t\000"
ARM GAS  C:\Users\z80\AppData\Local\Temp\ccZLkr7i.s 			page 65


 3584      6F5F7400 
 3585 009a E8000000 		.4byte	0xe8
 3586 009e 6D73675F 		.ascii	"msg_t\000"
 3586      7400
 3587 00a4 F3000000 		.4byte	0xf3
 3588 00a8 6576656E 		.ascii	"eventmask_t\000"
 3588      746D6173 
 3588      6B5F7400 
 3589 00b4 FE000000 		.4byte	0xfe
 3590 00b8 73797374 		.ascii	"systime_t\000"
 3590      696D655F 
 3590      7400
 3591 00c2 09010000 		.4byte	0x109
 3592 00c6 54687265 		.ascii	"Thread\000"
 3592      616400
 3593 00cd 48020000 		.4byte	0x248
 3594 00d1 54687265 		.ascii	"ThreadsQueue\000"
 3594      61647351 
 3594      75657565 
 3594      00
 3595 00de 6A020000 		.4byte	0x26a
 3596 00e2 54687265 		.ascii	"ThreadsList\000"
 3596      6164734C 
 3596      69737400 
 3597 00ee 75020000 		.4byte	0x275
 3598 00f2 72656761 		.ascii	"regarm_t\000"
 3598      726D5F74 
 3598      00
 3599 00fb 82020000 		.4byte	0x282
 3600 00ff 73746B61 		.ascii	"stkalign_t\000"
 3600      6C69676E 
 3600      5F7400
 3601 010a 8D020000 		.4byte	0x28d
 3602 010e 696E7463 		.ascii	"intctx\000"
 3602      747800
 3603 0115 1A030000 		.4byte	0x31a
 3604 0119 636F6E74 		.ascii	"context\000"
 3604      65787400 
 3605 0121 45030000 		.4byte	0x345
 3606 0125 4D757465 		.ascii	"Mutex\000"
 3606      7800
 3607 012b 82030000 		.4byte	0x382
 3608 012f 4D757465 		.ascii	"Mutex\000"
 3608      7800
 3609 0135 8D030000 		.4byte	0x38d
 3610 0139 4576656E 		.ascii	"EventListener\000"
 3610      744C6973 
 3610      74656E65 
 3610      7200
 3611 0147 98030000 		.4byte	0x398
 3612 014b 4576656E 		.ascii	"EventListener\000"
 3612      744C6973 
 3612      74656E65 
 3612      7200
 3613 0159 D5030000 		.4byte	0x3d5
 3614 015d 4576656E 		.ascii	"EventSource\000"
 3614      74536F75 
ARM GAS  C:\Users\z80\AppData\Local\Temp\ccZLkr7i.s 			page 66


 3614      72636500 
 3615 0169 F0030000 		.4byte	0x3f0
 3616 016d 4576656E 		.ascii	"EventSource\000"
 3616      74536F75 
 3616      72636500 
 3617 0179 14010000 		.4byte	0x114
 3618 017d 54687265 		.ascii	"Thread\000"
 3618      616400
 3619 0184 4E040000 		.4byte	0x44e
 3620 0188 47656E65 		.ascii	"GenericQueue\000"
 3620      72696351 
 3620      75657565 
 3620      00
 3621 0195 C8040000 		.4byte	0x4c8
 3622 0199 716E6F74 		.ascii	"qnotify_t\000"
 3622      6966795F 
 3622      7400
 3623 01a3 59040000 		.4byte	0x459
 3624 01a7 47656E65 		.ascii	"GenericQueue\000"
 3624      72696351 
 3624      75657565 
 3624      00
 3625 01b4 F1040000 		.4byte	0x4f1
 3626 01b8 496E7075 		.ascii	"InputQueue\000"
 3626      74517565 
 3626      756500
 3627 01c3 FC040000 		.4byte	0x4fc
 3628 01c7 4F757470 		.ascii	"OutputQueue\000"
 3628      75745175 
 3628      65756500 
 3629 01d3 ED050000 		.4byte	0x5ed
 3630 01d7 696F666C 		.ascii	"ioflags_t\000"
 3630      6167735F 
 3630      7400
 3631 01e1 0F060000 		.4byte	0x60f
 3632 01e5 5446756E 		.ascii	"TFunc\000"
 3632      6300
 3633 01eb 10070000 		.4byte	0x710
 3634 01ef 55534152 		.ascii	"USART_TypeDef\000"
 3634      545F5479 
 3634      70654465 
 3634      6600
 3635 01fd 37070000 		.4byte	0x737
 3636 0201 73647374 		.ascii	"sdstate_t\000"
 3636      6174655F 
 3636      7400
 3637 020b 42070000 		.4byte	0x742
 3638 020f 53657269 		.ascii	"SerialDriver\000"
 3638      616C4472 
 3638      69766572 
 3638      00
 3639 021c D6070000 		.4byte	0x7d6
 3640 0220 53657269 		.ascii	"SerialDriverVMT\000"
 3640      616C4472 
 3640      69766572 
 3640      564D5400 
 3641 0230 4D070000 		.4byte	0x74d
ARM GAS  C:\Users\z80\AppData\Local\Temp\ccZLkr7i.s 			page 67


 3642 0234 53657269 		.ascii	"SerialDriver\000"
 3642      616C4472 
 3642      69766572 
 3642      00
 3643 0241 00000000 		.4byte	0x0
 3644              		.section	.debug_aranges,"",%progbits
 3645 0000 8C000000 		.4byte	0x8c
 3646 0004 0200     		.2byte	0x2
 3647 0006 00000000 		.4byte	.Ldebug_info0
 3648 000a 04       		.byte	0x4
 3649 000b 00       		.byte	0x0
 3650 000c 0000     		.2byte	0x0
 3651 000e 0000     		.2byte	0x0
 3652 0010 00000000 		.4byte	.LFB78
 3653 0014 12000000 		.4byte	.LFE78-.LFB78
 3654 0018 00000000 		.4byte	.LFB77
 3655 001c 12000000 		.4byte	.LFE77-.LFB77
 3656 0020 00000000 		.4byte	.LFB76
 3657 0024 12000000 		.4byte	.LFE76-.LFB76
 3658 0028 00000000 		.4byte	.LFB75
 3659 002c 12000000 		.4byte	.LFE75-.LFB75
 3660 0030 00000000 		.4byte	.LFB74
 3661 0034 0A000000 		.4byte	.LFE74-.LFB74
 3662 0038 00000000 		.4byte	.LFB73
 3663 003c 0A000000 		.4byte	.LFE73-.LFB73
 3664 0040 00000000 		.4byte	.LFB72
 3665 0044 0A000000 		.4byte	.LFE72-.LFB72
 3666 0048 00000000 		.4byte	.LFB71
 3667 004c 1C000000 		.4byte	.LFE71-.LFB71
 3668 0050 00000000 		.4byte	.LFB67
 3669 0054 88000000 		.4byte	.LFE67-.LFB67
 3670 0058 00000000 		.4byte	.LFB70
 3671 005c 0C000000 		.4byte	.LFE70-.LFB70
 3672 0060 00000000 		.4byte	.LFB69
 3673 0064 0C000000 		.4byte	.LFE69-.LFB69
 3674 0068 00000000 		.4byte	.LFB68
 3675 006c 0C000000 		.4byte	.LFE68-.LFB68
 3676 0070 00000000 		.4byte	.LFB62
 3677 0074 12000000 		.4byte	.LFE62-.LFB62
 3678 0078 00000000 		.4byte	.LFB63
 3679 007c 34000000 		.4byte	.LFE63-.LFB63
 3680 0080 00000000 		.4byte	.LFB64
 3681 0084 0A000000 		.4byte	.LFE64-.LFB64
 3682 0088 00000000 		.4byte	0x0
 3683 008c 00000000 		.4byte	0x0
 3684              		.section	.debug_ranges,"",%progbits
 3685              	.Ldebug_ranges0:
 3686 0000 24000000 		.4byte	.LBB19
 3687 0004 34000000 		.4byte	.LBE19
 3688 0008 76000000 		.4byte	.LBB32
 3689 000c 88000000 		.4byte	.LBE32
 3690 0010 54000000 		.4byte	.LBB29
 3691 0014 58000000 		.4byte	.LBE29
 3692 0018 3A000000 		.4byte	.LBB28
 3693 001c 52000000 		.4byte	.LBE28
 3694 0020 00000000 		.4byte	0x0
 3695 0024 00000000 		.4byte	0x0
ARM GAS  C:\Users\z80\AppData\Local\Temp\ccZLkr7i.s 			page 68


 3696 0028 24000000 		.4byte	.LBB21
 3697 002c 34000000 		.4byte	.LBE21
 3698 0030 76000000 		.4byte	.LBB27
 3699 0034 88000000 		.4byte	.LBE27
 3700 0038 54000000 		.4byte	.LBB20
 3701 003c 58000000 		.4byte	.LBE20
 3702 0040 4A000000 		.4byte	.LBB26
 3703 0044 52000000 		.4byte	.LBE26
 3704 0048 00000000 		.4byte	0x0
 3705 004c 00000000 		.4byte	0x0
 3706 0050 10000000 		.4byte	.LBB34
 3707 0054 12000000 		.4byte	.LBE34
 3708 0058 26000000 		.4byte	.LBB36
 3709 005c 28000000 		.4byte	.LBE36
 3710 0060 14000000 		.4byte	.LBB35
 3711 0064 1A000000 		.4byte	.LBE35
 3712 0068 00000000 		.4byte	0x0
 3713 006c 00000000 		.4byte	0x0
 3714 0070 00000000 		.4byte	.LFB78
 3715 0074 12000000 		.4byte	.LFE78
 3716 0078 00000000 		.4byte	.LFB77
 3717 007c 12000000 		.4byte	.LFE77
 3718 0080 00000000 		.4byte	.LFB76
 3719 0084 12000000 		.4byte	.LFE76
 3720 0088 00000000 		.4byte	.LFB75
 3721 008c 12000000 		.4byte	.LFE75
 3722 0090 00000000 		.4byte	.LFB74
 3723 0094 0A000000 		.4byte	.LFE74
 3724 0098 00000000 		.4byte	.LFB73
 3725 009c 0A000000 		.4byte	.LFE73
 3726 00a0 00000000 		.4byte	.LFB72
 3727 00a4 0A000000 		.4byte	.LFE72
 3728 00a8 00000000 		.4byte	.LFB71
 3729 00ac 1C000000 		.4byte	.LFE71
 3730 00b0 00000000 		.4byte	.LFB67
 3731 00b4 88000000 		.4byte	.LFE67
 3732 00b8 00000000 		.4byte	.LFB70
 3733 00bc 0C000000 		.4byte	.LFE70
 3734 00c0 00000000 		.4byte	.LFB69
 3735 00c4 0C000000 		.4byte	.LFE69
 3736 00c8 00000000 		.4byte	.LFB68
 3737 00cc 0C000000 		.4byte	.LFE68
 3738 00d0 00000000 		.4byte	.LFB62
 3739 00d4 12000000 		.4byte	.LFE62
 3740 00d8 00000000 		.4byte	.LFB63
 3741 00dc 34000000 		.4byte	.LFE63
 3742 00e0 00000000 		.4byte	.LFB64
 3743 00e4 0A000000 		.4byte	.LFE64
 3744 00e8 00000000 		.4byte	0x0
 3745 00ec 00000000 		.4byte	0x0
 3746              		.section	.debug_str,"MS",%progbits,1
 3747              	.LASF132:
 3748 0000 77726974 		.ascii	"writeEom\000"
 3748      65456F6D 
 3748      00
 3749              	.LASF2:
 3750 0009 73697A65 		.ascii	"size_t\000"
ARM GAS  C:\Users\z80\AppData\Local\Temp\ccZLkr7i.s 			page 69


 3750      5F7400
 3751              	.LASF57:
 3752 0010 7264796D 		.ascii	"rdymsg\000"
 3752      736700
 3753              	.LASF13:
 3754 0017 75696E74 		.ascii	"uint64_t\000"
 3754      36345F74 
 3754      00
 3755              	.LASF128:
 3756 0020 66756E63 		.ascii	"funcs\000"
 3756      7300
 3757              	.LASF72:
 3758 0026 4F757470 		.ascii	"OutputQueue\000"
 3758      75745175 
 3758      65756500 
 3759              	.LASF74:
 3760 0032 5446756E 		.ascii	"TFunc\000"
 3760      6300
 3761              	.LASF118:
 3762 0038 70657269 		.ascii	"period\000"
 3762      6F6400
 3763              	.LASF15:
 3764 003f 75696E74 		.ascii	"uint_fast16_t\000"
 3764      5F666173 
 3764      7431365F 
 3764      7400
 3765              	.LASF14:
 3766 004d 6C6F6E67 		.ascii	"long long unsigned int\000"
 3766      206C6F6E 
 3766      6720756E 
 3766      7369676E 
 3766      65642069 
 3767              	.LASF112:
 3768 0064 7365745F 		.ascii	"set_one_pulse\000"
 3768      6F6E655F 
 3768      70756C73 
 3768      6500
 3769              	.LASF135:
 3770 0072 66756E63 		.ascii	"funcArgs\000"
 3770      41726773 
 3770      00
 3771              	.LASF58:
 3772 007b 65786974 		.ascii	"exitcode\000"
 3772      636F6465 
 3772      00
 3773              	.LASF114:
 3774 0084 7365745F 		.ascii	"set_sc_relay\000"
 3774      73635F72 
 3774      656C6179 
 3774      00
 3775              	.LASF125:
 3776 0091 6F75745F 		.ascii	"out_index\000"
 3776      696E6465 
 3776      7800
 3777              	.LASF126:
 3778 009b 49544D5F 		.ascii	"ITM_RxBuffer\000"
 3778      52784275 
ARM GAS  C:\Users\z80\AppData\Local\Temp\ccZLkr7i.s 			page 70


 3778      66666572 
 3778      00
 3779              	.LASF26:
 3780 00a8 705F7072 		.ascii	"p_prio\000"
 3780      696F00
 3781              	.LASF101:
 3782 00af 72656164 		.ascii	"readt\000"
 3782      7400
 3783              	.LASF117:
 3784 00b5 6F73635F 		.ascii	"osc_set_period\000"
 3784      7365745F 
 3784      70657269 
 3784      6F6400
 3785              	.LASF12:
 3786 00c4 6C6F6E67 		.ascii	"long long int\000"
 3786      206C6F6E 
 3786      6720696E 
 3786      7400
 3787              	.LASF1:
 3788 00d2 7369676E 		.ascii	"signed char\000"
 3788      65642063 
 3788      68617200 
 3789              	.LASF81:
 3790 00de 47545052 		.ascii	"GTPR\000"
 3790      00
 3791              	.LASF85:
 3792 00e3 53445F53 		.ascii	"SD_STOP\000"
 3792      544F5000 
 3793              	.LASF16:
 3794 00eb 626F6F6C 		.ascii	"bool_t\000"
 3794      5F7400
 3795              	.LASF48:
 3796 00f2 6D5F7175 		.ascii	"m_queue\000"
 3796      65756500 
 3797              	.LASF119:
 3798 00fa 77726974 		.ascii	"writeOscQueue\000"
 3798      654F7363 
 3798      51756575 
 3798      6500
 3799              	.LASF91:
 3800 0108 73746174 		.ascii	"state\000"
 3800      6500
 3801              	.LASF9:
 3802 010e 6C6F6E67 		.ascii	"long int\000"
 3802      20696E74 
 3802      00
 3803              	.LASF18:
 3804 0117 74737461 		.ascii	"tstate_t\000"
 3804      74655F74 
 3804      00
 3805              	.LASF65:
 3806 0120 715F6275 		.ascii	"q_buffer\000"
 3806      66666572 
 3806      00
 3807              	.LASF67:
 3808 0129 715F7772 		.ascii	"q_wrptr\000"
 3808      70747200 
ARM GAS  C:\Users\z80\AppData\Local\Temp\ccZLkr7i.s 			page 71


 3809              	.LASF28:
 3810 0131 705F6E65 		.ascii	"p_newer\000"
 3810      77657200 
 3811              	.LASF98:
 3812 0139 70757477 		.ascii	"putwouldblock\000"
 3812      6F756C64 
 3812      626C6F63 
 3812      6B00
 3813              	.LASF116:
 3814 0147 7365745F 		.ascii	"set_leds\000"
 3814      6C656473 
 3814      00
 3815              	.LASF43:
 3816 0150 72656761 		.ascii	"regarm_t\000"
 3816      726D5F74 
 3816      00
 3817              	.LASF55:
 3818 0159 4576656E 		.ascii	"EventSource\000"
 3818      74536F75 
 3818      72636500 
 3819              	.LASF94:
 3820 0165 75736172 		.ascii	"usart\000"
 3820      7400
 3821              	.LASF0:
 3822 016b 756E7369 		.ascii	"unsigned int\000"
 3822      676E6564 
 3822      20696E74 
 3822      00
 3823              	.LASF6:
 3824 0178 75696E74 		.ascii	"uint16_t\000"
 3824      31365F74 
 3824      00
 3825              	.LASF95:
 3826 0181 53657269 		.ascii	"SerialDriverVMT\000"
 3826      616C4472 
 3826      69766572 
 3826      564D5400 
 3827              	.LASF34:
 3828 0191 705F7469 		.ascii	"p_time\000"
 3828      6D6500
 3829              	.LASF109:
 3830 0198 7365745F 		.ascii	"set_sweep\000"
 3830      73776565 
 3830      7000
 3831              	.LASF92:
 3832 01a2 69717565 		.ascii	"iqueue\000"
 3832      756500
 3833              	.LASF36:
 3834 01a9 705F6D73 		.ascii	"p_msgqueue\000"
 3834      67717565 
 3834      756500
 3835              	.LASF105:
 3836 01b4 65786563 		.ascii	"exec_func\000"
 3836      5F66756E 
 3836      6300
 3837              	.LASF120:
 3838 01be 6E6F4461 		.ascii	"noData\000"
ARM GAS  C:\Users\z80\AppData\Local\Temp\ccZLkr7i.s 			page 72


 3838      746100
 3839              	.LASF19:
 3840 01c5 74707269 		.ascii	"tprio_t\000"
 3840      6F5F7400 
 3841              	.LASF89:
 3842 01cd 6576656E 		.ascii	"event\000"
 3842      7400
 3843              	.LASF7:
 3844 01d3 73686F72 		.ascii	"short unsigned int\000"
 3844      7420756E 
 3844      7369676E 
 3844      65642069 
 3844      6E7400
 3845              	.LASF20:
 3846 01e6 6D73675F 		.ascii	"msg_t\000"
 3846      7400
 3847              	.LASF93:
 3848 01ec 6F717565 		.ascii	"oqueue\000"
 3848      756500
 3849              	.LASF121:
 3850 01f3 6F73635F 		.ascii	"osc_iaux\000"
 3850      69617578 
 3850      00
 3851              	.LASF83:
 3852 01fc 55534152 		.ascii	"USART_TypeDef\000"
 3852      545F5479 
 3852      70654465 
 3852      6600
 3853              	.LASF100:
 3854 020a 77726974 		.ascii	"writet\000"
 3854      657400
 3855              	.LASF17:
 3856 0211 746D6F64 		.ascii	"tmode_t\000"
 3856      655F7400 
 3857              	.LASF42:
 3858 0219 54687265 		.ascii	"ThreadsList\000"
 3858      6164734C 
 3858      69737400 
 3859              	.LASF21:
 3860 0225 6576656E 		.ascii	"eventmask_t\000"
 3860      746D6173 
 3860      6B5F7400 
 3861              	.LASF71:
 3862 0231 496E7075 		.ascii	"InputQueue\000"
 3862      74517565 
 3862      756500
 3863              	.LASF70:
 3864 023c 716E6F74 		.ascii	"qnotify_t\000"
 3864      6966795F 
 3864      7400
 3865              	.LASF130:
 3866 0246 2E2F7372 		.ascii	"./src/cpu_io.c\000"
 3866      632F6370 
 3866      755F696F 
 3866      2E6300
 3867              	.LASF62:
 3868 0255 47656E65 		.ascii	"GenericQueue\000"
ARM GAS  C:\Users\z80\AppData\Local\Temp\ccZLkr7i.s 			page 73


 3868      72696351 
 3868      75657565 
 3868      00
 3869              	.LASF44:
 3870 0262 73746B61 		.ascii	"stkalign_t\000"
 3870      6C69676E 
 3870      5F7400
 3871              	.LASF113:
 3872 026d 7365745F 		.ascii	"set_dac\000"
 3872      64616300 
 3873              	.LASF96:
 3874 0275 77726974 		.ascii	"write\000"
 3874      6500
 3875              	.LASF64:
 3876 027b 715F636F 		.ascii	"q_counter\000"
 3876      756E7465 
 3876      7200
 3877              	.LASF47:
 3878 0285 4D757465 		.ascii	"Mutex\000"
 3878      7800
 3879              	.LASF29:
 3880 028b 705F6F6C 		.ascii	"p_older\000"
 3880      64657200 
 3881              	.LASF134:
 3882 0293 6370755F 		.ascii	"cpu_io_process\000"
 3882      696F5F70 
 3882      726F6365 
 3882      737300
 3883              	.LASF73:
 3884 02a2 696F666C 		.ascii	"ioflags_t\000"
 3884      6167735F 
 3884      7400
 3885              	.LASF41:
 3886 02ac 54687265 		.ascii	"ThreadsQueue\000"
 3886      61647351 
 3886      75657565 
 3886      00
 3887              	.LASF131:
 3888 02b9 433A5C70 		.ascii	"C:\\projects\\voltamper.git\\firmware\\voltamp\000"
 3888      726F6A65 
 3888      6374735C 
 3888      766F6C74 
 3888      616D7065 
 3889              	.LASF115:
 3890 02e4 7365745F 		.ascii	"set_out_relay\000"
 3890      6F75745F 
 3890      72656C61 
 3890      7900
 3891              	.LASF54:
 3892 02f2 656C5F6D 		.ascii	"el_mask\000"
 3892      61736B00 
 3893              	.LASF106:
 3894 02fa 77726974 		.ascii	"writeResult\000"
 3894      65526573 
 3894      756C7400 
 3895              	.LASF63:
 3896 0306 715F7761 		.ascii	"q_waiting\000"
ARM GAS  C:\Users\z80\AppData\Local\Temp\ccZLkr7i.s 			page 74


 3896      6974696E 
 3896      6700
 3897              	.LASF75:
 3898 0310 52455345 		.ascii	"RESERVED0\000"
 3898      52564544 
 3898      3000
 3899              	.LASF76:
 3900 031a 52455345 		.ascii	"RESERVED1\000"
 3900      52564544 
 3900      3100
 3901              	.LASF77:
 3902 0324 52455345 		.ascii	"RESERVED2\000"
 3902      52564544 
 3902      3200
 3903              	.LASF78:
 3904 032e 52455345 		.ascii	"RESERVED3\000"
 3904      52564544 
 3904      3300
 3905              	.LASF79:
 3906 0338 52455345 		.ascii	"RESERVED4\000"
 3906      52564544 
 3906      3400
 3907              	.LASF25:
 3908 0342 705F7072 		.ascii	"p_prev\000"
 3908      657600
 3909              	.LASF82:
 3910 0349 52455345 		.ascii	"RESERVED6\000"
 3910      52564544 
 3910      3600
 3911              	.LASF104:
 3912 0353 66756E63 		.ascii	"funcs_sz\000"
 3912      735F737A 
 3912      00
 3913              	.LASF68:
 3914 035c 715F7264 		.ascii	"q_rdptr\000"
 3914      70747200 
 3915              	.LASF122:
 3916 0364 6F73635F 		.ascii	"osc_eref\000"
 3916      65726566 
 3916      00
 3917              	.LASF8:
 3918 036d 696E7433 		.ascii	"int32_t\000"
 3918      325F7400 
 3919              	.LASF4:
 3920 0375 756E7369 		.ascii	"unsigned char\000"
 3920      676E6564 
 3920      20636861 
 3920      7200
 3921              	.LASF53:
 3922 0383 656C5F6C 		.ascii	"el_listener\000"
 3922      69737465 
 3922      6E657200 
 3923              	.LASF39:
 3924 038f 705F6D74 		.ascii	"p_mtxlist\000"
 3924      786C6973 
 3924      7400
 3925              	.LASF5:
ARM GAS  C:\Users\z80\AppData\Local\Temp\ccZLkr7i.s 			page 75


 3926 0399 73686F72 		.ascii	"short int\000"
 3926      7420696E 
 3926      7400
 3927              	.LASF32:
 3928 03a3 705F7374 		.ascii	"p_state\000"
 3928      61746500 
 3929              	.LASF107:
 3930 03ab 70726F63 		.ascii	"process_command\000"
 3930      6573735F 
 3930      636F6D6D 
 3930      616E6400 
 3931              	.LASF60:
 3932 03bb 65776D61 		.ascii	"ewmask\000"
 3932      736B00
 3933              	.LASF24:
 3934 03c2 705F6E65 		.ascii	"p_next\000"
 3934      787400
 3935              	.LASF33:
 3936 03c9 705F666C 		.ascii	"p_flags\000"
 3936      61677300 
 3937              	.LASF52:
 3938 03d1 656C5F6E 		.ascii	"el_next\000"
 3938      65787400 
 3939              	.LASF110:
 3940 03d9 7365745F 		.ascii	"set_meandr\000"
 3940      6D65616E 
 3940      647200
 3941              	.LASF23:
 3942 03e4 54687265 		.ascii	"Thread\000"
 3942      616400
 3943              	.LASF38:
 3944 03eb 705F6570 		.ascii	"p_epending\000"
 3944      656E6469 
 3944      6E6700
 3945              	.LASF84:
 3946 03f6 53445F55 		.ascii	"SD_UNINIT\000"
 3946      4E494E49 
 3946      5400
 3947              	.LASF80:
 3948 0400 52455345 		.ascii	"RESERVED5\000"
 3948      52564544 
 3948      3500
 3949              	.LASF10:
 3950 040a 75696E74 		.ascii	"uint32_t\000"
 3950      33325F74 
 3950      00
 3951              	.LASF87:
 3952 0413 73647374 		.ascii	"sdstate_t\000"
 3952      6174655F 
 3952      7400
 3953              	.LASF88:
 3954 041d 53657269 		.ascii	"SerialDriver\000"
 3954      616C4472 
 3954      69766572 
 3954      00
 3955              	.LASF11:
 3956 042a 6C6F6E67 		.ascii	"long unsigned int\000"
ARM GAS  C:\Users\z80\AppData\Local\Temp\ccZLkr7i.s 			page 76


 3956      20756E73 
 3956      69676E65 
 3956      6420696E 
 3956      7400
 3957              	.LASF97:
 3958 043c 72656164 		.ascii	"read\000"
 3958      00
 3959              	.LASF61:
 3960 0441 63686172 		.ascii	"char\000"
 3960      00
 3961              	.LASF133:
 3962 0446 6370755F 		.ascii	"cpu_io_init\000"
 3962      696F5F69 
 3962      6E697400 
 3963              	.LASF50:
 3964 0452 6D5F6E65 		.ascii	"m_next\000"
 3964      787400
 3965              	.LASF22:
 3966 0459 73797374 		.ascii	"systime_t\000"
 3966      696D655F 
 3966      7400
 3967              	.LASF40:
 3968 0463 705F7265 		.ascii	"p_realprio\000"
 3968      616C7072 
 3968      696F00
 3969              	.LASF127:
 3970 046e 62756666 		.ascii	"buffer\000"
 3970      657200
 3971              	.LASF31:
 3972 0475 705F7374 		.ascii	"p_stklimit\000"
 3972      6B6C696D 
 3972      697400
 3973              	.LASF108:
 3974 0480 64617461 		.ascii	"data\000"
 3974      00
 3975              	.LASF102:
 3976 0485 67657466 		.ascii	"getflags\000"
 3976      6C616773 
 3976      00
 3977              	.LASF46:
 3978 048e 636F6E74 		.ascii	"context\000"
 3978      65787400 
 3979              	.LASF45:
 3980 0496 696E7463 		.ascii	"intctx\000"
 3980      747800
 3981              	.LASF86:
 3982 049d 53445F52 		.ascii	"SD_READY\000"
 3982      45414459 
 3982      00
 3983              	.LASF123:
 3984 04a6 6F73635F 		.ascii	"osc_eaux\000"
 3984      65617578 
 3984      00
 3985              	.LASF66:
 3986 04af 715F746F 		.ascii	"q_top\000"
 3986      7000
 3987              	.LASF30:
ARM GAS  C:\Users\z80\AppData\Local\Temp\ccZLkr7i.s 			page 77


 3988 04b5 705F6E61 		.ascii	"p_name\000"
 3988      6D6500
 3989              	.LASF56:
 3990 04bc 65735F6E 		.ascii	"es_next\000"
 3990      65787400 
 3991              	.LASF69:
 3992 04c4 715F6E6F 		.ascii	"q_notify\000"
 3992      74696679 
 3992      00
 3993              	.LASF37:
 3994 04cd 705F6D73 		.ascii	"p_msg\000"
 3994      6700
 3995              	.LASF3:
 3996 04d3 75696E74 		.ascii	"uint8_t\000"
 3996      385F7400 
 3997              	.LASF103:
 3998 04db 66756E63 		.ascii	"func_index\000"
 3998      5F696E64 
 3998      657800
 3999              	.LASF90:
 4000 04e6 666C6167 		.ascii	"flags\000"
 4000      7300
 4001              	.LASF51:
 4002 04ec 4576656E 		.ascii	"EventListener\000"
 4002      744C6973 
 4002      74656E65 
 4002      7200
 4003              	.LASF129:
 4004 04fa 474E5520 		.ascii	"GNU C 4.5.0\000"
 4004      4320342E 
 4004      352E3000 
 4005              	.LASF59:
 4006 0506 77746F62 		.ascii	"wtobjp\000"
 4006      6A7000
 4007              	.LASF124:
 4008 050d 736C6173 		.ascii	"slash\000"
 4008      6800
 4009              	.LASF99:
 4010 0513 67657477 		.ascii	"getwouldblock\000"
 4010      6F756C64 
 4010      626C6F63 
 4010      6B00
 4011              	.LASF111:
 4012 0521 61726773 		.ascii	"args\000"
 4012      00
 4013              	.LASF49:
 4014 0526 6D5F6F77 		.ascii	"m_owner\000"
 4014      6E657200 
 4015              	.LASF27:
 4016 052e 705F6374 		.ascii	"p_ctx\000"
 4016      7800
 4017              	.LASF35:
 4018 0534 705F7761 		.ascii	"p_waiting\000"
 4018      6974696E 
 4018      6700
 4019              		.ident	"GCC: (GNU) 4.5.0"
ARM GAS  C:\Users\z80\AppData\Local\Temp\ccZLkr7i.s 			page 78


DEFINED SYMBOLS
                            *ABS*:00000000 cpu_io.c
C:\Users\z80\AppData\Local\Temp\ccZLkr7i.s:24     .text.set_sweep:00000000 $t
C:\Users\z80\AppData\Local\Temp\ccZLkr7i.s:29     .text.set_sweep:00000000 set_sweep
C:\Users\z80\AppData\Local\Temp\ccZLkr7i.s:56     .text.set_meandr:00000000 $t
C:\Users\z80\AppData\Local\Temp\ccZLkr7i.s:61     .text.set_meandr:00000000 set_meandr
C:\Users\z80\AppData\Local\Temp\ccZLkr7i.s:87     .text.set_one_pulse:00000000 $t
C:\Users\z80\AppData\Local\Temp\ccZLkr7i.s:92     .text.set_one_pulse:00000000 set_one_pulse
C:\Users\z80\AppData\Local\Temp\ccZLkr7i.s:118    .text.set_dac:00000000 $t
C:\Users\z80\AppData\Local\Temp\ccZLkr7i.s:123    .text.set_dac:00000000 set_dac
C:\Users\z80\AppData\Local\Temp\ccZLkr7i.s:149    .text.set_sc_relay:00000000 $t
C:\Users\z80\AppData\Local\Temp\ccZLkr7i.s:154    .text.set_sc_relay:00000000 set_sc_relay
C:\Users\z80\AppData\Local\Temp\ccZLkr7i.s:176    .text.set_out_relay:00000000 $t
C:\Users\z80\AppData\Local\Temp\ccZLkr7i.s:181    .text.set_out_relay:00000000 set_out_relay
C:\Users\z80\AppData\Local\Temp\ccZLkr7i.s:203    .text.set_leds:00000000 $t
C:\Users\z80\AppData\Local\Temp\ccZLkr7i.s:208    .text.set_leds:00000000 set_leds
C:\Users\z80\AppData\Local\Temp\ccZLkr7i.s:230    .text.osc_set_period:00000000 $t
C:\Users\z80\AppData\Local\Temp\ccZLkr7i.s:235    .text.osc_set_period:00000000 osc_set_period
C:\Users\z80\AppData\Local\Temp\ccZLkr7i.s:271    .text.writeOscQueue:00000000 $t
C:\Users\z80\AppData\Local\Temp\ccZLkr7i.s:276    .text.writeOscQueue:00000000 writeOscQueue
C:\Users\z80\AppData\Local\Temp\ccZLkr7i.s:424    .text.writeOscQueue:00000084 $d
C:\Users\z80\AppData\Local\Temp\ccZLkr7i.s:432    .text.osc_iaux:00000000 $t
C:\Users\z80\AppData\Local\Temp\ccZLkr7i.s:437    .text.osc_iaux:00000000 osc_iaux
C:\Users\z80\AppData\Local\Temp\ccZLkr7i.s:461    .text.osc_eref:00000000 $t
C:\Users\z80\AppData\Local\Temp\ccZLkr7i.s:466    .text.osc_eref:00000000 osc_eref
C:\Users\z80\AppData\Local\Temp\ccZLkr7i.s:490    .text.osc_eaux:00000000 $t
C:\Users\z80\AppData\Local\Temp\ccZLkr7i.s:495    .text.osc_eaux:00000000 osc_eaux
C:\Users\z80\AppData\Local\Temp\ccZLkr7i.s:519    .text.cpu_io_init:00000000 $t
C:\Users\z80\AppData\Local\Temp\ccZLkr7i.s:525    .text.cpu_io_init:00000000 cpu_io_init
C:\Users\z80\AppData\Local\Temp\ccZLkr7i.s:549    .text.cpu_io_process:00000000 $t
C:\Users\z80\AppData\Local\Temp\ccZLkr7i.s:555    .text.cpu_io_process:00000000 cpu_io_process
C:\Users\z80\AppData\Local\Temp\ccZLkr7i.s:616    .text.cpu_io_process:0000002c $d
C:\Users\z80\AppData\Local\Temp\ccZLkr7i.s:623    .text.funcArgs:00000000 $t
C:\Users\z80\AppData\Local\Temp\ccZLkr7i.s:629    .text.funcArgs:00000000 funcArgs
C:\Users\z80\AppData\Local\Temp\ccZLkr7i.s:653    .bss.args:00000000 .LANCHOR1
C:\Users\z80\AppData\Local\Temp\ccZLkr7i.s:645    .bss.buffer:00000000 $d
C:\Users\z80\AppData\Local\Temp\ccZLkr7i.s:649    .bss.buffer:00000000 buffer
C:\Users\z80\AppData\Local\Temp\ccZLkr7i.s:652    .bss.args:00000000 $d
C:\Users\z80\AppData\Local\Temp\ccZLkr7i.s:656    .bss.args:00000000 args
                     .debug_frame:00000010 $d
C:\Users\z80\AppData\Local\Temp\ccZLkr7i.s:431    .text.writeOscQueue:00000088 $t
C:\Users\z80\AppData\Local\Temp\ccZLkr7i.s:622    .text.cpu_io_process:00000034 $t

UNDEFINED SYMBOLS
commandQueue
chOQPutTimeout
setScRelay
setOutRelay
setLeds
setOscPeriod
dbg_check_lock
dbg_check_unlock
chIQGetTimeout
SD1
iauxQueue
erefQueue
eauxQueue
ARM GAS  C:\Users\z80\AppData\Local\Temp\ccZLkr7i.s 			page 79


sdStart
