ARM GAS  C:\Users\z80\AppData\Local\Temp\cckPXr2I.s 			page 1


   1              		.syntax unified
   2              		.cpu cortex-m3
   3              		.fpu softvfp
   4              		.eabi_attribute 20, 1
   5              		.eabi_attribute 21, 1
   6              		.eabi_attribute 23, 3
   7              		.eabi_attribute 24, 1
   8              		.eabi_attribute 25, 1
   9              		.eabi_attribute 26, 1
  10              		.eabi_attribute 30, 2
  11              		.eabi_attribute 18, 4
  12              		.thumb
  13              		.file	"cpu_io.c"
  14              		.section	.debug_abbrev,"",%progbits
  15              	.Ldebug_abbrev0:
  16              		.section	.debug_info,"",%progbits
  17              	.Ldebug_info0:
  18              		.section	.debug_line,"",%progbits
  19              	.Ldebug_line0:
  20 0000 80040000 		.text
  20      02009702 
  20      00000201 
  20      FB0E0D00 
  20      01010101 
  21              	.Ltext0:
  22              		.cfi_sections	.debug_frame
  23              		.section	.text.writeResult,"ax",%progbits
  24              		.align	2
  25              		.p2align 4,,15
  26              		.thumb
  27              		.thumb_func
  28              		.type	writeResult, %function
  29              	writeResult:
  30              	.LFB81:
  31              		.file 1 "./src/cpu_io.c"
  32              		.loc 1 276 0
  33              		.cfi_startproc
  34              		@ args = 0, pretend = 0, frame = 0
  35              		@ frame_needed = 0, uses_anonymous_args = 0
  36              	.LVL0:
  37              		.loc 1 277 0
  38 0000 D0F10103 		rsbs	r3, r0, #1
  39 0004 38BF     		it	cc
  40 0006 0023     		movcc	r3, #0
  41 0008 5C28     		cmp	r0, #92
  42 000a 08BF     		it	eq
  43 000c 43F00103 		orreq	r3, r3, #1
  44              		.loc 1 276 0
  45 0010 10B5     		push	{r4, lr}
  46              	.LCFI0:
  47              		.cfi_def_cfa_offset 8
  48              		.loc 1 276 0
  49 0012 0446     		mov	r4, r0
  50              		.cfi_offset 14, -4
  51              		.cfi_offset 4, -8
  52              		.loc 1 277 0
  53 0014 2BB1     		cbz	r3, .L2
ARM GAS  C:\Users\z80\AppData\Local\Temp\cckPXr2I.s 			page 2


  54              		.loc 1 278 0
  55 0016 0648     		ldr	r0, .L4
  56              	.LVL1:
  57 0018 5C21     		movs	r1, #92
  58 001a 4FF0FF32 		mov	r2, #-1
  59 001e FFF7FEFF 		bl	chOQPutTimeout
  60              	.L2:
  61              		.loc 1 279 0
  62 0022 2146     		mov	r1, r4
  63 0024 4FF0FF32 		mov	r2, #-1
  64 0028 0148     		ldr	r0, .L4
  65 002a FFF7FEFF 		bl	chOQPutTimeout
  66              		.loc 1 280 0
  67 002e 10BD     		pop	{r4, pc}
  68              	.L5:
  69              		.align	2
  70              	.L4:
  71 0030 30000000 		.word	SD1+48
  72              		.cfi_endproc
  73              	.LFE81:
  74              		.size	writeResult, .-writeResult
  75 0034 AFF30080 		.section	.text.writeEom,"ax",%progbits
  75      AFF30080 
  75      AFF30080 
  76              		.align	2
  77              		.p2align 4,,15
  78              		.thumb
  79              		.thumb_func
  80              		.type	writeEom, %function
  81              	writeEom:
  82              	.LFB82:
  83              		.loc 1 283 0
  84              		.cfi_startproc
  85              		@ args = 0, pretend = 0, frame = 0
  86              		@ frame_needed = 0, uses_anonymous_args = 0
  87 0000 08B5     		push	{r3, lr}
  88              	.LCFI1:
  89              		.cfi_def_cfa_offset 8
  90              		.loc 1 284 0
  91 0002 0021     		movs	r1, #0
  92 0004 4FF0FF32 		mov	r2, #-1
  93 0008 0148     		ldr	r0, .L7
  94              		.cfi_offset 14, -4
  95              		.cfi_offset 3, -8
  96 000a FFF7FEFF 		bl	chOQPutTimeout
  97              		.loc 1 285 0
  98 000e 08BD     		pop	{r3, pc}
  99              	.L8:
 100              		.align	2
 101              	.L7:
 102 0010 30000000 		.word	SD1+48
 103              		.cfi_endproc
 104              	.LFE82:
 105              		.size	writeEom, .-writeEom
 106 0014 AFF30080 		.section	.text.firmware_version,"ax",%progbits
 106      AFF30080 
 106      AFF30080 
ARM GAS  C:\Users\z80\AppData\Local\Temp\cckPXr2I.s 			page 3


 107              		.align	2
 108              		.p2align 4,,15
 109              		.thumb
 110              		.thumb_func
 111              		.type	firmware_version, %function
 112              	firmware_version:
 113              	.LFB80:
 114              		.loc 1 260 0
 115              		.cfi_startproc
 116              		@ args = 0, pretend = 0, frame = 8
 117              		@ frame_needed = 0, uses_anonymous_args = 0
 118              	.LVL2:
 119 0000 30B5     		push	{r4, r5, lr}
 120              	.LCFI2:
 121              		.cfi_def_cfa_offset 12
 122              		.loc 1 262 0
 123 0002 0A4B     		ldr	r3, .L12
 124              		.loc 1 260 0
 125 0004 83B0     		sub	sp, sp, #12
 126              	.LCFI3:
 127              		.cfi_def_cfa_offset 24
 128              		.loc 1 262 0
 129 0006 02AD     		add	r5, sp, #8
 130              		.cfi_offset 14, -4
 131              		.cfi_offset 5, -8
 132              		.cfi_offset 4, -12
 133 0008 93E80300 		ldmia	r3, {r0, r1}
 134              	.LVL3:
 135 000c 45F8080D 		str	r0, [r5, #-8]!
 136 0010 6C1E     		subs	r4, r5, #1
 137 0012 ADF80410 		strh	r1, [sp, #4]	@ movhi
 138              	.LVL4:
 139              		.loc 1 259 0
 140 0016 0435     		adds	r5, r5, #4
 141              	.LVL5:
 142              	.L10:
 143              		.loc 1 266 0 discriminator 2
 144 0018 14F8010F 		ldrb	r0, [r4, #1]!	@ zero_extendqisi2
 145 001c FFF7FEFF 		bl	writeResult
 146              		.loc 1 265 0 discriminator 2
 147 0020 AC42     		cmp	r4, r5
 148 0022 F9D1     		bne	.L10
 149              		.loc 1 267 0
 150 0024 FFF7FEFF 		bl	writeEom
 151              		.loc 1 268 0
 152 0028 03B0     		add	sp, sp, #12
 153 002a 30BD     		pop	{r4, r5, pc}
 154              	.L13:
 155              		.align	2
 156              	.L12:
 157 002c 00000000 		.word	.LC0
 158              		.cfi_endproc
 159              	.LFE80:
 160              		.size	firmware_version, .-firmware_version
 161              		.section	.text.hardware_version,"ax",%progbits
 162              		.align	2
 163              		.p2align 4,,15
ARM GAS  C:\Users\z80\AppData\Local\Temp\cckPXr2I.s 			page 4


 164              		.thumb
 165              		.thumb_func
 166              		.type	hardware_version, %function
 167              	hardware_version:
 168              	.LFB79:
 169              		.loc 1 249 0
 170              		.cfi_startproc
 171              		@ args = 0, pretend = 0, frame = 16
 172              		@ frame_needed = 0, uses_anonymous_args = 0
 173              	.LVL6:
 174 0000 30B5     		push	{r4, r5, lr}
 175              	.LCFI4:
 176              		.cfi_def_cfa_offset 12
 177              		.loc 1 251 0
 178 0002 0A4B     		ldr	r3, .L17
 179              		.loc 1 249 0
 180 0004 85B0     		sub	sp, sp, #20
 181              	.LCFI5:
 182              		.cfi_def_cfa_offset 32
 183              		.loc 1 251 0
 184 0006 EC46     		mov	ip, sp
 185 0008 0FCB     		ldmia	r3, {r0, r1, r2, r3}
 186              	.LVL7:
 187 000a ACE80700 		stmia	ip!, {r0, r1, r2}
 188 000e 6D46     		mov	r5, sp
 189              		.cfi_offset 14, -4
 190              		.cfi_offset 5, -8
 191              		.cfi_offset 4, -12
 192 0010 6C1E     		subs	r4, r5, #1
 193 0012 ACF80030 		strh	r3, [ip, #0]	@ movhi
 194              	.LVL8:
 195              		.loc 1 248 0
 196 0016 6546     		mov	r5, ip
 197              	.LVL9:
 198              	.L15:
 199              		.loc 1 255 0 discriminator 2
 200 0018 14F8010F 		ldrb	r0, [r4, #1]!	@ zero_extendqisi2
 201 001c FFF7FEFF 		bl	writeResult
 202              		.loc 1 254 0 discriminator 2
 203 0020 AC42     		cmp	r4, r5
 204 0022 F9D1     		bne	.L15
 205              		.loc 1 256 0
 206 0024 FFF7FEFF 		bl	writeEom
 207              		.loc 1 257 0
 208 0028 05B0     		add	sp, sp, #20
 209 002a 30BD     		pop	{r4, r5, pc}
 210              	.L18:
 211              		.align	2
 212              	.L17:
 213 002c 08000000 		.word	.LC1
 214              		.cfi_endproc
 215              	.LFE79:
 216              		.size	hardware_version, .-hardware_version
 217              		.section	.text.set_sweep,"ax",%progbits
 218              		.align	2
 219              		.p2align 4,,15
 220              		.thumb
ARM GAS  C:\Users\z80\AppData\Local\Temp\cckPXr2I.s 			page 5


 221              		.thumb_func
 222              		.type	set_sweep, %function
 223              	set_sweep:
 224              	.LFB78:
 225              		.loc 1 242 0
 226              		.cfi_startproc
 227              		@ args = 0, pretend = 0, frame = 0
 228              		@ frame_needed = 0, uses_anonymous_args = 0
 229              	.LVL10:
 230 0000 08B5     		push	{r3, lr}
 231              	.LCFI6:
 232              		.cfi_def_cfa_offset 8
 233              		.loc 1 244 0
 234              		.cfi_offset 14, -4
 235              		.cfi_offset 3, -8
 236 0002 FFF7FEFF 		bl	commandQueue
 237              	.LVL11:
 238              		.loc 1 245 0
 239 0006 0321     		movs	r1, #3
 240 0008 4FF0FF32 		mov	r2, #-1
 241 000c FFF7FEFF 		bl	chOQPutTimeout
 242              	.LVL12:
 243              		.loc 1 246 0
 244 0010 08BD     		pop	{r3, pc}
 245              		.cfi_endproc
 246              	.LFE78:
 247              		.size	set_sweep, .-set_sweep
 248 0012 00BFAFF3 		.section	.text.set_meandr,"ax",%progbits
 248      0080AFF3 
 248      0080AFF3 
 248      0080
 249              		.align	2
 250              		.p2align 4,,15
 251              		.thumb
 252              		.thumb_func
 253              		.type	set_meandr, %function
 254              	set_meandr:
 255              	.LFB77:
 256              		.loc 1 235 0
 257              		.cfi_startproc
 258              		@ args = 0, pretend = 0, frame = 0
 259              		@ frame_needed = 0, uses_anonymous_args = 0
 260              	.LVL13:
 261 0000 08B5     		push	{r3, lr}
 262              	.LCFI7:
 263              		.cfi_def_cfa_offset 8
 264              		.loc 1 237 0
 265              		.cfi_offset 14, -4
 266              		.cfi_offset 3, -8
 267 0002 FFF7FEFF 		bl	commandQueue
 268              	.LVL14:
 269              		.loc 1 238 0
 270 0006 0221     		movs	r1, #2
 271 0008 4FF0FF32 		mov	r2, #-1
 272 000c FFF7FEFF 		bl	chOQPutTimeout
 273              	.LVL15:
 274              		.loc 1 239 0
ARM GAS  C:\Users\z80\AppData\Local\Temp\cckPXr2I.s 			page 6


 275 0010 08BD     		pop	{r3, pc}
 276              		.cfi_endproc
 277              	.LFE77:
 278              		.size	set_meandr, .-set_meandr
 279 0012 00BFAFF3 		.section	.text.set_one_pulse,"ax",%progbits
 279      0080AFF3 
 279      0080AFF3 
 279      0080
 280              		.align	2
 281              		.p2align 4,,15
 282              		.thumb
 283              		.thumb_func
 284              		.type	set_one_pulse, %function
 285              	set_one_pulse:
 286              	.LFB76:
 287              		.loc 1 228 0
 288              		.cfi_startproc
 289              		@ args = 0, pretend = 0, frame = 0
 290              		@ frame_needed = 0, uses_anonymous_args = 0
 291              	.LVL16:
 292 0000 08B5     		push	{r3, lr}
 293              	.LCFI8:
 294              		.cfi_def_cfa_offset 8
 295              		.loc 1 230 0
 296              		.cfi_offset 14, -4
 297              		.cfi_offset 3, -8
 298 0002 FFF7FEFF 		bl	commandQueue
 299              	.LVL17:
 300              		.loc 1 231 0
 301 0006 0121     		movs	r1, #1
 302 0008 4FF0FF32 		mov	r2, #-1
 303 000c FFF7FEFF 		bl	chOQPutTimeout
 304              	.LVL18:
 305              		.loc 1 232 0
 306 0010 08BD     		pop	{r3, pc}
 307              		.cfi_endproc
 308              	.LFE76:
 309              		.size	set_one_pulse, .-set_one_pulse
 310 0012 00BFAFF3 		.section	.text.set_dac,"ax",%progbits
 310      0080AFF3 
 310      0080AFF3 
 310      0080
 311              		.align	2
 312              		.p2align 4,,15
 313              		.thumb
 314              		.thumb_func
 315              		.type	set_dac, %function
 316              	set_dac:
 317              	.LFB75:
 318              		.loc 1 221 0
 319              		.cfi_startproc
 320              		@ args = 0, pretend = 0, frame = 0
 321              		@ frame_needed = 0, uses_anonymous_args = 0
 322              	.LVL19:
 323 0000 08B5     		push	{r3, lr}
 324              	.LCFI9:
 325              		.cfi_def_cfa_offset 8
ARM GAS  C:\Users\z80\AppData\Local\Temp\cckPXr2I.s 			page 7


 326              		.loc 1 223 0
 327              		.cfi_offset 14, -4
 328              		.cfi_offset 3, -8
 329 0002 FFF7FEFF 		bl	commandQueue
 330              	.LVL20:
 331              		.loc 1 224 0
 332 0006 0021     		movs	r1, #0
 333 0008 4FF0FF32 		mov	r2, #-1
 334 000c FFF7FEFF 		bl	chOQPutTimeout
 335              	.LVL21:
 336              		.loc 1 225 0
 337 0010 08BD     		pop	{r3, pc}
 338              		.cfi_endproc
 339              	.LFE75:
 340              		.size	set_dac, .-set_dac
 341 0012 00BFAFF3 		.section	.text.set_sc_relay,"ax",%progbits
 341      0080AFF3 
 341      0080AFF3 
 341      0080
 342              		.align	2
 343              		.p2align 4,,15
 344              		.thumb
 345              		.thumb_func
 346              		.type	set_sc_relay, %function
 347              	set_sc_relay:
 348              	.LFB74:
 349              		.loc 1 216 0
 350              		.cfi_startproc
 351              		@ args = 0, pretend = 0, frame = 0
 352              		@ frame_needed = 0, uses_anonymous_args = 0
 353              	.LVL22:
 354 0000 08B5     		push	{r3, lr}
 355              	.LCFI10:
 356              		.cfi_def_cfa_offset 8
 357              		.loc 1 217 0
 358 0002 0078     		ldrb	r0, [r0, #0]	@ zero_extendqisi2
 359              	.LVL23:
 360              		.cfi_offset 14, -4
 361              		.cfi_offset 3, -8
 362 0004 FFF7FEFF 		bl	setScRelay
 363              		.loc 1 218 0
 364 0008 08BD     		pop	{r3, pc}
 365              		.cfi_endproc
 366              	.LFE74:
 367              		.size	set_sc_relay, .-set_sc_relay
 368 000a 00BFAFF3 		.section	.text.set_out_relay,"ax",%progbits
 368      0080
 369              		.align	2
 370              		.p2align 4,,15
 371              		.thumb
 372              		.thumb_func
 373              		.type	set_out_relay, %function
 374              	set_out_relay:
 375              	.LFB73:
 376              		.loc 1 211 0
 377              		.cfi_startproc
 378              		@ args = 0, pretend = 0, frame = 0
ARM GAS  C:\Users\z80\AppData\Local\Temp\cckPXr2I.s 			page 8


 379              		@ frame_needed = 0, uses_anonymous_args = 0
 380              	.LVL24:
 381 0000 08B5     		push	{r3, lr}
 382              	.LCFI11:
 383              		.cfi_def_cfa_offset 8
 384              		.loc 1 212 0
 385 0002 0078     		ldrb	r0, [r0, #0]	@ zero_extendqisi2
 386              	.LVL25:
 387              		.cfi_offset 14, -4
 388              		.cfi_offset 3, -8
 389 0004 FFF7FEFF 		bl	setOutRelay
 390              		.loc 1 213 0
 391 0008 08BD     		pop	{r3, pc}
 392              		.cfi_endproc
 393              	.LFE73:
 394              		.size	set_out_relay, .-set_out_relay
 395 000a 00BFAFF3 		.section	.text.set_leds,"ax",%progbits
 395      0080
 396              		.align	2
 397              		.p2align 4,,15
 398              		.thumb
 399              		.thumb_func
 400              		.type	set_leds, %function
 401              	set_leds:
 402              	.LFB72:
 403              		.loc 1 206 0
 404              		.cfi_startproc
 405              		@ args = 0, pretend = 0, frame = 0
 406              		@ frame_needed = 0, uses_anonymous_args = 0
 407              	.LVL26:
 408 0000 08B5     		push	{r3, lr}
 409              	.LCFI12:
 410              		.cfi_def_cfa_offset 8
 411              		.loc 1 207 0
 412 0002 0078     		ldrb	r0, [r0, #0]	@ zero_extendqisi2
 413              	.LVL27:
 414              		.cfi_offset 14, -4
 415              		.cfi_offset 3, -8
 416 0004 FFF7FEFF 		bl	setLeds
 417              		.loc 1 208 0
 418 0008 08BD     		pop	{r3, pc}
 419              		.cfi_endproc
 420              	.LFE72:
 421              		.size	set_leds, .-set_leds
 422 000a 00BFAFF3 		.section	.text.osc_set_period,"ax",%progbits
 422      0080
 423              		.align	2
 424              		.p2align 4,,15
 425              		.thumb
 426              		.thumb_func
 427              		.type	osc_set_period, %function
 428              	osc_set_period:
 429              	.LFB71:
 430              		.loc 1 195 0
 431              		.cfi_startproc
 432              		@ args = 0, pretend = 0, frame = 0
 433              		@ frame_needed = 0, uses_anonymous_args = 0
ARM GAS  C:\Users\z80\AppData\Local\Temp\cckPXr2I.s 			page 9


 434              	.LVL28:
 435 0000 08B5     		push	{r3, lr}
 436              	.LCFI13:
 437              		.cfi_def_cfa_offset 8
 438              		.loc 1 200 0
 439 0002 8178     		ldrb	r1, [r0, #2]	@ zero_extendqisi2
 440              		.loc 1 199 0
 441 0004 4378     		ldrb	r3, [r0, #1]	@ zero_extendqisi2
 442              		.cfi_offset 14, -4
 443              		.cfi_offset 3, -8
 444              		.loc 1 200 0
 445 0006 0904     		lsls	r1, r1, #16
 446              		.loc 1 198 0
 447 0008 0278     		ldrb	r2, [r0, #0]	@ zero_extendqisi2
 448 000a 01EB0321 		add	r1, r1, r3, lsl #8
 449              		.loc 1 201 0
 450 000e C378     		ldrb	r3, [r0, #3]	@ zero_extendqisi2
 451              		.loc 1 199 0
 452 0010 8818     		adds	r0, r1, r2
 453              	.LVL29:
 454              		.loc 1 198 0
 455 0012 00EB0360 		add	r0, r0, r3, lsl #24
 456              		.loc 1 202 0
 457 0016 FFF7FEFF 		bl	setOscPeriod
 458              		.loc 1 203 0
 459 001a 08BD     		pop	{r3, pc}
 460              		.cfi_endproc
 461              	.LFE71:
 462              		.size	osc_set_period, .-osc_set_period
 463 001c AFF30080 		.section	.text.writeOscQueue,"ax",%progbits
 464              		.align	2
 465              		.p2align 4,,15
 466              		.thumb
 467              		.thumb_func
 468              		.type	writeOscQueue, %function
 469              	writeOscQueue:
 470              	.LFB67:
 471              		.loc 1 155 0
 472              		.cfi_startproc
 473              		@ args = 0, pretend = 0, frame = 0
 474              		@ frame_needed = 0, uses_anonymous_args = 0
 475              	.LVL30:
 476 0000 70B5     		push	{r4, r5, r6, lr}
 477              	.LCFI14:
 478              		.cfi_def_cfa_offset 16
 479              	.LBB9:
 480              		.loc 1 159 0
 481 0002 2023     		movs	r3, #32
 482              	.LVL31:
 483              	.LBE9:
 484              		.loc 1 155 0
 485 0004 0546     		mov	r5, r0
 486              		.cfi_offset 14, -4
 487              		.cfi_offset 6, -8
 488              		.cfi_offset 5, -12
 489              		.cfi_offset 4, -16
 490              	.LBB10:
ARM GAS  C:\Users\z80\AppData\Local\Temp\cckPXr2I.s 			page 10


 491              		.loc 1 159 0
 492              	@ 159 "./src/cpu_io.c" 1
 493 0006 83F31188 		msr     BASEPRI, r3
 494              	@ 0 "" 2
 495              	.LVL32:
 496              		.thumb
 497              	.LBE10:
 498 000a FFF7FEFF 		bl	dbg_check_lock
 499              	.LVL33:
 500              		.loc 1 160 0
 501 000e AC68     		ldr	r4, [r5, #8]
 502              		.loc 1 161 0
 503 0010 FFF7FEFF 		bl	dbg_check_unlock
 504              		.loc 1 160 0
 505 0014 24F00104 		bic	r4, r4, #1
 506              	.LVL34:
 507              	.LBB11:
 508              		.loc 1 161 0
 509 0018 0023     		movs	r3, #0
 510              	.LVL35:
 511              	@ 161 "./src/cpu_io.c" 1
 512 001a 83F31188 		msr     BASEPRI, r3
 513              	@ 0 "" 2
 514              	.LVL36:
 515              		.thumb
 516              	.LBE11:
 517              		.loc 1 162 0
 518 001e 74B1     		cbz	r4, .L28
 519 0020 1E46     		mov	r6, r3
 520              	.LVL37:
 521              	.L30:
 522              	.LBB12:
 523              		.loc 1 164 0
 524 0022 0021     		movs	r1, #0
 525 0024 2846     		mov	r0, r5
 526 0026 FFF7FEFF 		bl	chIQGetTimeout
 527              	.LVL38:
 528              		.loc 1 165 0
 529 002a 831C     		adds	r3, r0, #2
 530              		.loc 1 167 0
 531 002c 012B     		cmp	r3, #1
 532 002e 8CBF     		ite	hi
 533 0030 C0B2     		uxtbhi	r0, r0
 534              	.LVL39:
 535 0032 0020     		movls	r0, #0
 536              	.LVL40:
 537              	.LBE12:
 538              		.loc 1 162 0
 539 0034 0136     		adds	r6, r6, #1
 540              	.LBB13:
 541              		.loc 1 168 0
 542 0036 FFF7FEFF 		bl	writeResult
 543              	.LVL41:
 544              	.LBE13:
 545              		.loc 1 162 0
 546 003a B442     		cmp	r4, r6
 547 003c F1D8     		bhi	.L30
ARM GAS  C:\Users\z80\AppData\Local\Temp\cckPXr2I.s 			page 11


 548              	.LVL42:
 549              	.L28:
 550              		.loc 1 170 0
 551 003e FFF7FEFF 		bl	writeEom
 552              	.LVL43:
 553              		.loc 1 171 0
 554 0042 70BD     		pop	{r4, r5, r6, pc}
 555              		.cfi_endproc
 556              	.LFE67:
 557              		.size	writeOscQueue, .-writeOscQueue
 558 0044 AFF30080 		.section	.text.osc_iaux,"ax",%progbits
 558      AFF30080 
 558      AFF30080 
 559              		.align	2
 560              		.p2align 4,,15
 561              		.thumb
 562              		.thumb_func
 563              		.type	osc_iaux, %function
 564              	osc_iaux:
 565              	.LFB70:
 566              		.loc 1 188 0
 567              		.cfi_startproc
 568              		@ args = 0, pretend = 0, frame = 0
 569              		@ frame_needed = 0, uses_anonymous_args = 0
 570              	.LVL44:
 571 0000 08B5     		push	{r3, lr}
 572              	.LCFI15:
 573              		.cfi_def_cfa_offset 8
 574              		.loc 1 190 0
 575              		.cfi_offset 14, -4
 576              		.cfi_offset 3, -8
 577 0002 FFF7FEFF 		bl	iauxQueue
 578              	.LVL45:
 579              		.loc 1 191 0
 580 0006 FFF7FEFF 		bl	writeOscQueue
 581              	.LVL46:
 582              		.loc 1 192 0
 583 000a 08BD     		pop	{r3, pc}
 584              		.cfi_endproc
 585              	.LFE70:
 586              		.size	osc_iaux, .-osc_iaux
 587 000c AFF30080 		.section	.text.osc_eref,"ax",%progbits
 588              		.align	2
 589              		.p2align 4,,15
 590              		.thumb
 591              		.thumb_func
 592              		.type	osc_eref, %function
 593              	osc_eref:
 594              	.LFB69:
 595              		.loc 1 181 0
 596              		.cfi_startproc
 597              		@ args = 0, pretend = 0, frame = 0
 598              		@ frame_needed = 0, uses_anonymous_args = 0
 599              	.LVL47:
 600 0000 08B5     		push	{r3, lr}
 601              	.LCFI16:
 602              		.cfi_def_cfa_offset 8
ARM GAS  C:\Users\z80\AppData\Local\Temp\cckPXr2I.s 			page 12


 603              		.loc 1 183 0
 604              		.cfi_offset 14, -4
 605              		.cfi_offset 3, -8
 606 0002 FFF7FEFF 		bl	erefQueue
 607              	.LVL48:
 608              		.loc 1 184 0
 609 0006 FFF7FEFF 		bl	writeOscQueue
 610              	.LVL49:
 611              		.loc 1 185 0
 612 000a 08BD     		pop	{r3, pc}
 613              		.cfi_endproc
 614              	.LFE69:
 615              		.size	osc_eref, .-osc_eref
 616 000c AFF30080 		.section	.text.osc_eaux,"ax",%progbits
 617              		.align	2
 618              		.p2align 4,,15
 619              		.thumb
 620              		.thumb_func
 621              		.type	osc_eaux, %function
 622              	osc_eaux:
 623              	.LFB68:
 624              		.loc 1 174 0
 625              		.cfi_startproc
 626              		@ args = 0, pretend = 0, frame = 0
 627              		@ frame_needed = 0, uses_anonymous_args = 0
 628              	.LVL50:
 629 0000 08B5     		push	{r3, lr}
 630              	.LCFI17:
 631              		.cfi_def_cfa_offset 8
 632              		.loc 1 176 0
 633              		.cfi_offset 14, -4
 634              		.cfi_offset 3, -8
 635 0002 FFF7FEFF 		bl	eauxQueue
 636              	.LVL51:
 637              		.loc 1 177 0
 638 0006 FFF7FEFF 		bl	writeOscQueue
 639              	.LVL52:
 640              		.loc 1 178 0
 641 000a 08BD     		pop	{r3, pc}
 642              		.cfi_endproc
 643              	.LFE68:
 644              		.size	osc_eaux, .-osc_eaux
 645 000c AFF30080 		.section	.text.cpu_io_init,"ax",%progbits
 646              		.align	2
 647              		.p2align 4,,15
 648              		.global	cpu_io_init
 649              		.thumb
 650              		.thumb_func
 651              		.type	cpu_io_init, %function
 652              	cpu_io_init:
 653              	.LFB62:
 654              		.loc 1 34 0
 655              		.cfi_startproc
 656              		@ args = 0, pretend = 0, frame = 0
 657              		@ frame_needed = 0, uses_anonymous_args = 0
 658 0000 10B5     		push	{r4, lr}
 659              	.LCFI18:
ARM GAS  C:\Users\z80\AppData\Local\Temp\cckPXr2I.s 			page 13


 660              		.cfi_def_cfa_offset 8
 661              		.loc 1 36 0
 662 0002 40F20000 		movw	r0, #:lower16:SD1
 663              		.loc 1 39 0
 664 0006 4FF40064 		mov	r4, #2048
 665              		.cfi_offset 14, -4
 666              		.cfi_offset 4, -8
 667              		.loc 1 36 0
 668 000a 0021     		movs	r1, #0
 669              		.loc 1 39 0
 670 000c C4F20104 		movt	r4, 16385
 671              		.loc 1 36 0
 672 0010 C0F20000 		movt	r0, #:upper16:SD1
 673 0014 FFF7FEFF 		bl	sdStart
 674              		.loc 1 39 0
 675 0018 2046     		mov	r0, r4
 676 001a 1022     		movs	r2, #16
 677 001c 4FF40071 		mov	r1, #512
 678 0020 FFF7FEFF 		bl	_pal_lld_setgroupmode
 679              		.loc 1 40 0
 680 0024 2046     		mov	r0, r4
 681 0026 4FF48061 		mov	r1, #1024
 682 002a 0222     		movs	r2, #2
 683 002c FFF7FEFF 		bl	_pal_lld_setgroupmode
 684              		.loc 1 41 0
 685 0030 10BD     		pop	{r4, pc}
 686              		.cfi_endproc
 687              	.LFE62:
 688              		.size	cpu_io_init, .-cpu_io_init
 689 0032 00BFAFF3 		.section	.text.cpu_io_process,"ax",%progbits
 689      0080AFF3 
 689      0080AFF3 
 689      0080
 690              		.align	2
 691              		.p2align 4,,15
 692              		.global	cpu_io_process
 693              		.thumb
 694              		.thumb_func
 695              		.type	cpu_io_process, %function
 696              	cpu_io_process:
 697              	.LFB63:
 698              		.loc 1 44 0
 699              		.cfi_startproc
 700              		@ args = 0, pretend = 0, frame = 0
 701              		@ frame_needed = 0, uses_anonymous_args = 0
 702 0000 10B5     		push	{r4, lr}
 703              	.LCFI19:
 704              		.cfi_def_cfa_offset 8
 705              		.loc 1 58 0
 706 0002 2948     		ldr	r0, .L50
 707 0004 4FF0FF31 		mov	r1, #-1
 708              		.cfi_offset 14, -4
 709              		.cfi_offset 4, -8
 710 0008 FFF7FEFF 		bl	chIQGetTimeout
 711              	.LVL53:
 712              		.loc 1 59 0
 713 000c 831C     		adds	r3, r0, #2
ARM GAS  C:\Users\z80\AppData\Local\Temp\cckPXr2I.s 			page 14


 714              		.loc 1 60 0
 715 000e 012B     		cmp	r3, #1
 716 0010 0ED9     		bls	.L37
 717              	.LBB14:
 718              		.loc 1 64 0
 719 0012 264A     		ldr	r2, .L50+4
 720              		.loc 1 62 0
 721 0014 C0B2     		uxtb	r0, r0
 722              	.LVL54:
 723              		.loc 1 64 0
 724 0016 1378     		ldrb	r3, [r2, #0]	@ zero_extendqisi2
 725              	.LVL55:
 726 0018 5BB9     		cbnz	r3, .L39
 727              		.loc 1 66 0
 728 001a C0B9     		cbnz	r0, .L40
 729              	.LBB17:
 730              	.LBB20:
 731              		.loc 1 99 0
 732 001c 2449     		ldr	r1, .L50+8
 733              	.LBE20:
 734              	.LBE17:
 735              		.loc 1 69 0
 736 001e 254C     		ldr	r4, .L50+12
 737              	.LBB16:
 738              	.LBB19:
 739              		.loc 1 101 0
 740 0020 0B78     		ldrb	r3, [r1, #0]	@ zero_extendqisi2
 741              	.LBE19:
 742              	.LBE16:
 743              		.loc 1 69 0
 744 0022 2068     		ldr	r0, [r4, #0]
 745              	.LVL56:
 746              	.LBB15:
 747              	.LBB27:
 748              		.loc 1 101 0
 749 0024 012B     		cmp	r3, #1
 750 0026 1ED0     		beq	.L42
 751 0028 022B     		cmp	r3, #2
 752 002a 32D0     		beq	.L49
 753              	.L41:
 754              	.LBB22:
 755              	.LBB24:
 756              		.loc 1 150 0
 757 002c 0023     		movs	r3, #0
 758              	.LVL57:
 759              	.L46:
 760              	.LBE24:
 761              	.LBE22:
 762              	.LBE27:
 763              	.LBE15:
 764              		.loc 1 83 0
 765 002e 2360     		str	r3, [r4, #0]
 766              	.LVL58:
 767              	.L37:
 768              	.LBE14:
 769              		.loc 1 86 0
 770 0030 10BD     		pop	{r4, pc}
ARM GAS  C:\Users\z80\AppData\Local\Temp\cckPXr2I.s 			page 15


 771              	.LVL59:
 772              	.L39:
 773              	.LBB31:
 774              		.loc 1 80 0
 775 0032 204C     		ldr	r4, .L50+12
 776              		.loc 1 79 0
 777 0034 4FF0000C 		mov	ip, #0
 778              		.loc 1 80 0
 779 0038 2168     		ldr	r1, [r4, #0]
 780              		.loc 1 79 0
 781 003a 82F800C0 		strb	ip, [r2, #0]
 782              		.loc 1 80 0
 783 003e 4B1C     		adds	r3, r1, #1
 784 0040 1B4A     		ldr	r2, .L50+8
 785 0042 202B     		cmp	r3, #32
 786 0044 A8BF     		it	ge
 787 0046 2023     		movge	r3, #32
 788 0048 5054     		strb	r0, [r2, r1]
 789              		.loc 1 83 0
 790 004a 2360     		str	r3, [r4, #0]
 791 004c F0E7     		b	.L37
 792              	.L40:
 793              		.loc 1 72 0
 794 004e 5C28     		cmp	r0, #92
 795 0050 16D0     		beq	.L47
 796              		.loc 1 73 0
 797 0052 184C     		ldr	r4, .L50+12
 798 0054 1649     		ldr	r1, .L50+8
 799 0056 2268     		ldr	r2, [r4, #0]
 800 0058 531C     		adds	r3, r2, #1
 801 005a 202B     		cmp	r3, #32
 802 005c A8BF     		it	ge
 803 005e 2023     		movge	r3, #32
 804 0060 8854     		strb	r0, [r1, r2]
 805              		.loc 1 83 0
 806 0062 2360     		str	r3, [r4, #0]
 807 0064 E4E7     		b	.L37
 808              	.LVL60:
 809              	.L42:
 810              	.LBB29:
 811              	.LBB18:
 812              		.loc 1 104 0
 813 0066 0128     		cmp	r0, #1
 814 0068 E0DD     		ble	.L41
 815 006a 134A     		ldr	r2, .L50+16
 816              		.loc 1 100 0
 817 006c 4B1C     		adds	r3, r1, #1
 818              		.loc 1 43 0
 819 006e 0818     		adds	r0, r1, r0
 820              	.LVL61:
 821              	.L44:
 822              		.loc 1 105 0
 823 0070 13F8011B 		ldrb	r1, [r3], #1	@ zero_extendqisi2
 824              		.loc 1 104 0
 825 0074 8342     		cmp	r3, r0
 826              		.loc 1 105 0
 827 0076 02F8011F 		strb	r1, [r2, #1]!
ARM GAS  C:\Users\z80\AppData\Local\Temp\cckPXr2I.s 			page 16


 828              		.loc 1 104 0
 829 007a F9D1     		bne	.L44
 830              	.LBB21:
 831              	.LBB23:
 832              		.loc 1 150 0
 833 007c 0023     		movs	r3, #0
 834 007e D6E7     		b	.L46
 835              	.LVL62:
 836              	.L47:
 837              	.LBE23:
 838              	.LBE21:
 839              	.LBE18:
 840              	.LBE29:
 841              		.loc 1 75 0
 842 0080 0C4C     		ldr	r4, .L50+12
 843 0082 0121     		movs	r1, #1
 844 0084 2368     		ldr	r3, [r4, #0]
 845 0086 1170     		strb	r1, [r2, #0]
 846 0088 202B     		cmp	r3, #32
 847 008a A8BF     		it	ge
 848 008c 2023     		movge	r3, #32
 849              		.loc 1 83 0
 850 008e 2360     		str	r3, [r4, #0]
 851 0090 CEE7     		b	.L37
 852              	.LVL63:
 853              	.L49:
 854              	.LBB30:
 855              	.LBB28:
 856              	.LBB26:
 857              	.LBB25:
 858              		.loc 1 147 0
 859 0092 4B78     		ldrb	r3, [r1, #1]	@ zero_extendqisi2
 860              	.LVL64:
 861              		.loc 1 151 0
 862 0094 094A     		ldr	r2, .L50+20
 863              		.loc 1 150 0
 864 0096 0C2B     		cmp	r3, #12
 865 0098 C8BF     		it	gt
 866 009a 0023     		movgt	r3, #0
 867              	.LVL65:
 868              		.loc 1 151 0
 869 009c 52F82330 		ldr	r3, [r2, r3, lsl #2]
 870              	.LVL66:
 871 00a0 0748     		ldr	r0, .L50+24
 872              	.LVL67:
 873 00a2 9847     		blx	r3
 874              	.LVL68:
 875              		.loc 1 150 0
 876 00a4 0023     		movs	r3, #0
 877 00a6 C2E7     		b	.L46
 878              	.L51:
 879              		.align	2
 880              	.L50:
 881 00a8 10000000 		.word	SD1+16
 882 00ac 00000000 		.word	.LANCHOR0
 883 00b0 00000000 		.word	.LANCHOR2
 884 00b4 00000000 		.word	.LANCHOR1
ARM GAS  C:\Users\z80\AppData\Local\Temp\cckPXr2I.s 			page 17


 885 00b8 FFFFFFFF 		.word	.LANCHOR3-1
 886 00bc 00000000 		.word	.LANCHOR4
 887 00c0 00000000 		.word	.LANCHOR3
 888              	.LBE25:
 889              	.LBE26:
 890              	.LBE28:
 891              	.LBE30:
 892              	.LBE31:
 893              		.cfi_endproc
 894              	.LFE63:
 895              		.size	cpu_io_process, .-cpu_io_process
 896 00c4 AFF30080 		.section	.text.funcArgs,"ax",%progbits
 896      AFF30080 
 896      AFF30080 
 897              		.align	2
 898              		.p2align 4,,15
 899              		.global	funcArgs
 900              		.thumb
 901              		.thumb_func
 902              		.type	funcArgs, %function
 903              	funcArgs:
 904              	.LFB64:
 905              		.loc 1 89 0
 906              		.cfi_startproc
 907              		@ args = 0, pretend = 0, frame = 0
 908              		@ frame_needed = 0, uses_anonymous_args = 0
 909              		@ link register save eliminated.
 910              		.loc 1 90 0
 911 0000 40F20000 		movw	r0, #:lower16:.LANCHOR3
 912 0004 C0F20000 		movt	r0, #:upper16:.LANCHOR3
 913              		.loc 1 91 0
 914 0008 7047     		bx	lr
 915              		.cfi_endproc
 916              	.LFE64:
 917              		.size	funcArgs, .-funcArgs
 918 000a 00BFAFF3 		.section	.rodata.funcs,"a",%progbits
 918      0080
 919              		.align	2
 920              		.set	.LANCHOR4,. + 0
 921              		.type	funcs, %object
 922              		.size	funcs, 52
 923              	funcs:
 924 0000 00000000 		.word	osc_eaux
 925 0004 00000000 		.word	osc_eref
 926 0008 00000000 		.word	osc_iaux
 927 000c 00000000 		.word	osc_set_period
 928 0010 00000000 		.word	set_leds
 929 0014 00000000 		.word	set_out_relay
 930 0018 00000000 		.word	set_sc_relay
 931 001c 00000000 		.word	set_dac
 932 0020 00000000 		.word	set_one_pulse
 933 0024 00000000 		.word	set_meandr
 934 0028 00000000 		.word	set_sweep
 935 002c 00000000 		.word	hardware_version
 936 0030 00000000 		.word	firmware_version
 937              		.section	.bss.buffer,"aw",%nobits
 938              		.align	2
ARM GAS  C:\Users\z80\AppData\Local\Temp\cckPXr2I.s 			page 18


 939              		.set	.LANCHOR2,. + 0
 940              		.type	buffer, %object
 941              		.size	buffer, 32
 942              	buffer:
 943 0000 00000000 		.space	32
 943      00000000 
 943      00000000 
 943      00000000 
 943      00000000 
 944              		.section	.bss.slash.3686,"aw",%nobits
 945              		.set	.LANCHOR0,. + 0
 946              		.type	slash.3686, %object
 947              		.size	slash.3686, 1
 948              	slash.3686:
 949 0000 00       		.space	1
 950              		.section	.rodata.str1.4,"aMS",%progbits,1
 951              		.align	2
 952              	.LC0:
 953 0000 302E302E 		.ascii	"0.0.1\000"
 953      3100
 954 0006 0000     		.space	2
 955              	.LC1:
 956 0008 766F6C74 		.ascii	"voltamp-1.0.0\000"
 956      616D702D 
 956      312E302E 
 956      3000
 957 0016 0000     		.section	.bss.out_index.3687,"aw",%nobits
 958              		.align	2
 959              		.set	.LANCHOR1,. + 0
 960              		.type	out_index.3687, %object
 961              		.size	out_index.3687, 4
 962              	out_index.3687:
 963 0000 00000000 		.space	4
 964              		.section	.bss.args,"aw",%nobits
 965              		.align	2
 966              		.set	.LANCHOR3,. + 0
 967              		.type	args, %object
 968              		.size	args, 32
 969              	args:
 970 0000 00000000 		.space	32
 970      00000000 
 970      00000000 
 970      00000000 
 970      00000000 
 971              		.text
 972              	.Letext0:
 973              		.section	.debug_loc,"",%progbits
 974              	.Ldebug_loc0:
 975              	.LLST0:
 976 0000 00000000 		.4byte	.LFB81
 977 0004 12000000 		.4byte	.LCFI0
 978 0008 0200     		.2byte	0x2
 979 000a 7D       		.byte	0x7d
 980 000b 00       		.sleb128 0
 981 000c 12000000 		.4byte	.LCFI0
 982 0010 34000000 		.4byte	.LFE81
 983 0014 0200     		.2byte	0x2
ARM GAS  C:\Users\z80\AppData\Local\Temp\cckPXr2I.s 			page 19


 984 0016 7D       		.byte	0x7d
 985 0017 08       		.sleb128 8
 986 0018 00000000 		.4byte	0x0
 987 001c 00000000 		.4byte	0x0
 988              	.LLST1:
 989 0020 00000000 		.4byte	.LVL0
 990 0024 18000000 		.4byte	.LVL1
 991 0028 0100     		.2byte	0x1
 992 002a 50       		.byte	0x50
 993 002b 00000000 		.4byte	0x0
 994 002f 00000000 		.4byte	0x0
 995              	.LLST2:
 996 0033 00000000 		.4byte	.LFB82
 997 0037 02000000 		.4byte	.LCFI1
 998 003b 0200     		.2byte	0x2
 999 003d 7D       		.byte	0x7d
 1000 003e 00       		.sleb128 0
 1001 003f 02000000 		.4byte	.LCFI1
 1002 0043 14000000 		.4byte	.LFE82
 1003 0047 0200     		.2byte	0x2
 1004 0049 7D       		.byte	0x7d
 1005 004a 08       		.sleb128 8
 1006 004b 00000000 		.4byte	0x0
 1007 004f 00000000 		.4byte	0x0
 1008              	.LLST3:
 1009 0053 00000000 		.4byte	.LFB80
 1010 0057 02000000 		.4byte	.LCFI2
 1011 005b 0200     		.2byte	0x2
 1012 005d 7D       		.byte	0x7d
 1013 005e 00       		.sleb128 0
 1014 005f 02000000 		.4byte	.LCFI2
 1015 0063 06000000 		.4byte	.LCFI3
 1016 0067 0200     		.2byte	0x2
 1017 0069 7D       		.byte	0x7d
 1018 006a 0C       		.sleb128 12
 1019 006b 06000000 		.4byte	.LCFI3
 1020 006f 30000000 		.4byte	.LFE80
 1021 0073 0200     		.2byte	0x2
 1022 0075 7D       		.byte	0x7d
 1023 0076 18       		.sleb128 24
 1024 0077 00000000 		.4byte	0x0
 1025 007b 00000000 		.4byte	0x0
 1026              	.LLST4:
 1027 007f 00000000 		.4byte	.LVL2
 1028 0083 0C000000 		.4byte	.LVL3
 1029 0087 0100     		.2byte	0x1
 1030 0089 50       		.byte	0x50
 1031 008a 00000000 		.4byte	0x0
 1032 008e 00000000 		.4byte	0x0
 1033              	.LLST5:
 1034 0092 16000000 		.4byte	.LVL4
 1035 0096 18000000 		.4byte	.LVL5
 1036 009a 0200     		.2byte	0x2
 1037 009c 30       		.byte	0x30
 1038 009d 9F       		.byte	0x9f
 1039 009e 00000000 		.4byte	0x0
 1040 00a2 00000000 		.4byte	0x0
ARM GAS  C:\Users\z80\AppData\Local\Temp\cckPXr2I.s 			page 20


 1041              	.LLST6:
 1042 00a6 00000000 		.4byte	.LFB79
 1043 00aa 02000000 		.4byte	.LCFI4
 1044 00ae 0200     		.2byte	0x2
 1045 00b0 7D       		.byte	0x7d
 1046 00b1 00       		.sleb128 0
 1047 00b2 02000000 		.4byte	.LCFI4
 1048 00b6 06000000 		.4byte	.LCFI5
 1049 00ba 0200     		.2byte	0x2
 1050 00bc 7D       		.byte	0x7d
 1051 00bd 0C       		.sleb128 12
 1052 00be 06000000 		.4byte	.LCFI5
 1053 00c2 30000000 		.4byte	.LFE79
 1054 00c6 0200     		.2byte	0x2
 1055 00c8 7D       		.byte	0x7d
 1056 00c9 20       		.sleb128 32
 1057 00ca 00000000 		.4byte	0x0
 1058 00ce 00000000 		.4byte	0x0
 1059              	.LLST7:
 1060 00d2 00000000 		.4byte	.LVL6
 1061 00d6 0A000000 		.4byte	.LVL7
 1062 00da 0100     		.2byte	0x1
 1063 00dc 50       		.byte	0x50
 1064 00dd 00000000 		.4byte	0x0
 1065 00e1 00000000 		.4byte	0x0
 1066              	.LLST8:
 1067 00e5 16000000 		.4byte	.LVL8
 1068 00e9 18000000 		.4byte	.LVL9
 1069 00ed 0200     		.2byte	0x2
 1070 00ef 30       		.byte	0x30
 1071 00f0 9F       		.byte	0x9f
 1072 00f1 00000000 		.4byte	0x0
 1073 00f5 00000000 		.4byte	0x0
 1074              	.LLST9:
 1075 00f9 00000000 		.4byte	.LFB78
 1076 00fd 02000000 		.4byte	.LCFI6
 1077 0101 0200     		.2byte	0x2
 1078 0103 7D       		.byte	0x7d
 1079 0104 00       		.sleb128 0
 1080 0105 02000000 		.4byte	.LCFI6
 1081 0109 12000000 		.4byte	.LFE78
 1082 010d 0200     		.2byte	0x2
 1083 010f 7D       		.byte	0x7d
 1084 0110 08       		.sleb128 8
 1085 0111 00000000 		.4byte	0x0
 1086 0115 00000000 		.4byte	0x0
 1087              	.LLST10:
 1088 0119 00000000 		.4byte	.LVL10
 1089 011d 05000000 		.4byte	.LVL11-1
 1090 0121 0100     		.2byte	0x1
 1091 0123 50       		.byte	0x50
 1092 0124 00000000 		.4byte	0x0
 1093 0128 00000000 		.4byte	0x0
 1094              	.LLST11:
 1095 012c 06000000 		.4byte	.LVL11
 1096 0130 0F000000 		.4byte	.LVL12-1
 1097 0134 0100     		.2byte	0x1
ARM GAS  C:\Users\z80\AppData\Local\Temp\cckPXr2I.s 			page 21


 1098 0136 50       		.byte	0x50
 1099 0137 00000000 		.4byte	0x0
 1100 013b 00000000 		.4byte	0x0
 1101              	.LLST12:
 1102 013f 00000000 		.4byte	.LFB77
 1103 0143 02000000 		.4byte	.LCFI7
 1104 0147 0200     		.2byte	0x2
 1105 0149 7D       		.byte	0x7d
 1106 014a 00       		.sleb128 0
 1107 014b 02000000 		.4byte	.LCFI7
 1108 014f 12000000 		.4byte	.LFE77
 1109 0153 0200     		.2byte	0x2
 1110 0155 7D       		.byte	0x7d
 1111 0156 08       		.sleb128 8
 1112 0157 00000000 		.4byte	0x0
 1113 015b 00000000 		.4byte	0x0
 1114              	.LLST13:
 1115 015f 00000000 		.4byte	.LVL13
 1116 0163 05000000 		.4byte	.LVL14-1
 1117 0167 0100     		.2byte	0x1
 1118 0169 50       		.byte	0x50
 1119 016a 00000000 		.4byte	0x0
 1120 016e 00000000 		.4byte	0x0
 1121              	.LLST14:
 1122 0172 06000000 		.4byte	.LVL14
 1123 0176 0F000000 		.4byte	.LVL15-1
 1124 017a 0100     		.2byte	0x1
 1125 017c 50       		.byte	0x50
 1126 017d 00000000 		.4byte	0x0
 1127 0181 00000000 		.4byte	0x0
 1128              	.LLST15:
 1129 0185 00000000 		.4byte	.LFB76
 1130 0189 02000000 		.4byte	.LCFI8
 1131 018d 0200     		.2byte	0x2
 1132 018f 7D       		.byte	0x7d
 1133 0190 00       		.sleb128 0
 1134 0191 02000000 		.4byte	.LCFI8
 1135 0195 12000000 		.4byte	.LFE76
 1136 0199 0200     		.2byte	0x2
 1137 019b 7D       		.byte	0x7d
 1138 019c 08       		.sleb128 8
 1139 019d 00000000 		.4byte	0x0
 1140 01a1 00000000 		.4byte	0x0
 1141              	.LLST16:
 1142 01a5 00000000 		.4byte	.LVL16
 1143 01a9 05000000 		.4byte	.LVL17-1
 1144 01ad 0100     		.2byte	0x1
 1145 01af 50       		.byte	0x50
 1146 01b0 00000000 		.4byte	0x0
 1147 01b4 00000000 		.4byte	0x0
 1148              	.LLST17:
 1149 01b8 06000000 		.4byte	.LVL17
 1150 01bc 0F000000 		.4byte	.LVL18-1
 1151 01c0 0100     		.2byte	0x1
 1152 01c2 50       		.byte	0x50
 1153 01c3 00000000 		.4byte	0x0
 1154 01c7 00000000 		.4byte	0x0
ARM GAS  C:\Users\z80\AppData\Local\Temp\cckPXr2I.s 			page 22


 1155              	.LLST18:
 1156 01cb 00000000 		.4byte	.LFB75
 1157 01cf 02000000 		.4byte	.LCFI9
 1158 01d3 0200     		.2byte	0x2
 1159 01d5 7D       		.byte	0x7d
 1160 01d6 00       		.sleb128 0
 1161 01d7 02000000 		.4byte	.LCFI9
 1162 01db 12000000 		.4byte	.LFE75
 1163 01df 0200     		.2byte	0x2
 1164 01e1 7D       		.byte	0x7d
 1165 01e2 08       		.sleb128 8
 1166 01e3 00000000 		.4byte	0x0
 1167 01e7 00000000 		.4byte	0x0
 1168              	.LLST19:
 1169 01eb 00000000 		.4byte	.LVL19
 1170 01ef 05000000 		.4byte	.LVL20-1
 1171 01f3 0100     		.2byte	0x1
 1172 01f5 50       		.byte	0x50
 1173 01f6 00000000 		.4byte	0x0
 1174 01fa 00000000 		.4byte	0x0
 1175              	.LLST20:
 1176 01fe 06000000 		.4byte	.LVL20
 1177 0202 0F000000 		.4byte	.LVL21-1
 1178 0206 0100     		.2byte	0x1
 1179 0208 50       		.byte	0x50
 1180 0209 00000000 		.4byte	0x0
 1181 020d 00000000 		.4byte	0x0
 1182              	.LLST21:
 1183 0211 00000000 		.4byte	.LFB74
 1184 0215 02000000 		.4byte	.LCFI10
 1185 0219 0200     		.2byte	0x2
 1186 021b 7D       		.byte	0x7d
 1187 021c 00       		.sleb128 0
 1188 021d 02000000 		.4byte	.LCFI10
 1189 0221 0A000000 		.4byte	.LFE74
 1190 0225 0200     		.2byte	0x2
 1191 0227 7D       		.byte	0x7d
 1192 0228 08       		.sleb128 8
 1193 0229 00000000 		.4byte	0x0
 1194 022d 00000000 		.4byte	0x0
 1195              	.LLST22:
 1196 0231 00000000 		.4byte	.LVL22
 1197 0235 04000000 		.4byte	.LVL23
 1198 0239 0100     		.2byte	0x1
 1199 023b 50       		.byte	0x50
 1200 023c 00000000 		.4byte	0x0
 1201 0240 00000000 		.4byte	0x0
 1202              	.LLST23:
 1203 0244 00000000 		.4byte	.LFB73
 1204 0248 02000000 		.4byte	.LCFI11
 1205 024c 0200     		.2byte	0x2
 1206 024e 7D       		.byte	0x7d
 1207 024f 00       		.sleb128 0
 1208 0250 02000000 		.4byte	.LCFI11
 1209 0254 0A000000 		.4byte	.LFE73
 1210 0258 0200     		.2byte	0x2
 1211 025a 7D       		.byte	0x7d
ARM GAS  C:\Users\z80\AppData\Local\Temp\cckPXr2I.s 			page 23


 1212 025b 08       		.sleb128 8
 1213 025c 00000000 		.4byte	0x0
 1214 0260 00000000 		.4byte	0x0
 1215              	.LLST24:
 1216 0264 00000000 		.4byte	.LVL24
 1217 0268 04000000 		.4byte	.LVL25
 1218 026c 0100     		.2byte	0x1
 1219 026e 50       		.byte	0x50
 1220 026f 00000000 		.4byte	0x0
 1221 0273 00000000 		.4byte	0x0
 1222              	.LLST25:
 1223 0277 00000000 		.4byte	.LFB72
 1224 027b 02000000 		.4byte	.LCFI12
 1225 027f 0200     		.2byte	0x2
 1226 0281 7D       		.byte	0x7d
 1227 0282 00       		.sleb128 0
 1228 0283 02000000 		.4byte	.LCFI12
 1229 0287 0A000000 		.4byte	.LFE72
 1230 028b 0200     		.2byte	0x2
 1231 028d 7D       		.byte	0x7d
 1232 028e 08       		.sleb128 8
 1233 028f 00000000 		.4byte	0x0
 1234 0293 00000000 		.4byte	0x0
 1235              	.LLST26:
 1236 0297 00000000 		.4byte	.LVL26
 1237 029b 04000000 		.4byte	.LVL27
 1238 029f 0100     		.2byte	0x1
 1239 02a1 50       		.byte	0x50
 1240 02a2 00000000 		.4byte	0x0
 1241 02a6 00000000 		.4byte	0x0
 1242              	.LLST27:
 1243 02aa 00000000 		.4byte	.LFB71
 1244 02ae 02000000 		.4byte	.LCFI13
 1245 02b2 0200     		.2byte	0x2
 1246 02b4 7D       		.byte	0x7d
 1247 02b5 00       		.sleb128 0
 1248 02b6 02000000 		.4byte	.LCFI13
 1249 02ba 1C000000 		.4byte	.LFE71
 1250 02be 0200     		.2byte	0x2
 1251 02c0 7D       		.byte	0x7d
 1252 02c1 08       		.sleb128 8
 1253 02c2 00000000 		.4byte	0x0
 1254 02c6 00000000 		.4byte	0x0
 1255              	.LLST28:
 1256 02ca 00000000 		.4byte	.LVL28
 1257 02ce 12000000 		.4byte	.LVL29
 1258 02d2 0100     		.2byte	0x1
 1259 02d4 50       		.byte	0x50
 1260 02d5 00000000 		.4byte	0x0
 1261 02d9 00000000 		.4byte	0x0
 1262              	.LLST29:
 1263 02dd 00000000 		.4byte	.LFB67
 1264 02e1 02000000 		.4byte	.LCFI14
 1265 02e5 0200     		.2byte	0x2
 1266 02e7 7D       		.byte	0x7d
 1267 02e8 00       		.sleb128 0
 1268 02e9 02000000 		.4byte	.LCFI14
ARM GAS  C:\Users\z80\AppData\Local\Temp\cckPXr2I.s 			page 24


 1269 02ed 44000000 		.4byte	.LFE67
 1270 02f1 0200     		.2byte	0x2
 1271 02f3 7D       		.byte	0x7d
 1272 02f4 10       		.sleb128 16
 1273 02f5 00000000 		.4byte	0x0
 1274 02f9 00000000 		.4byte	0x0
 1275              	.LLST30:
 1276 02fd 00000000 		.4byte	.LVL30
 1277 0301 0D000000 		.4byte	.LVL33-1
 1278 0305 0100     		.2byte	0x1
 1279 0307 50       		.byte	0x50
 1280 0308 0D000000 		.4byte	.LVL33-1
 1281 030c 44000000 		.4byte	.LFE67
 1282 0310 0100     		.2byte	0x1
 1283 0312 55       		.byte	0x55
 1284 0313 00000000 		.4byte	0x0
 1285 0317 00000000 		.4byte	0x0
 1286              	.LLST31:
 1287 031b 2A000000 		.4byte	.LVL38
 1288 031f 32000000 		.4byte	.LVL39
 1289 0323 0100     		.2byte	0x1
 1290 0325 50       		.byte	0x50
 1291 0326 32000000 		.4byte	.LVL39
 1292 032a 39000000 		.4byte	.LVL41-1
 1293 032e 0300     		.2byte	0x3
 1294 0330 73       		.byte	0x73
 1295 0331 7E       		.sleb128 -2
 1296 0332 9F       		.byte	0x9f
 1297 0333 00000000 		.4byte	0x0
 1298 0337 00000000 		.4byte	0x0
 1299              	.LLST32:
 1300 033b 2A000000 		.4byte	.LVL38
 1301 033f 32000000 		.4byte	.LVL39
 1302 0343 0F00     		.2byte	0xf
 1303 0345 70       		.byte	0x70
 1304 0346 02       		.sleb128 2
 1305 0347 23       		.byte	0x23
 1306 0348 80808080 		.uleb128 0x80000000
 1306      08
 1307 034d 0C       		.byte	0xc
 1308 034e 01000080 		.4byte	0x80000001
 1309 0352 2C       		.byte	0x2c
 1310 0353 9F       		.byte	0x9f
 1311 0354 32000000 		.4byte	.LVL39
 1312 0358 39000000 		.4byte	.LVL41-1
 1313 035c 0F00     		.2byte	0xf
 1314 035e 73       		.byte	0x73
 1315 035f 00       		.sleb128 0
 1316 0360 23       		.byte	0x23
 1317 0361 80808080 		.uleb128 0x80000000
 1317      08
 1318 0366 0C       		.byte	0xc
 1319 0367 01000080 		.4byte	0x80000001
 1320 036b 2C       		.byte	0x2c
 1321 036c 9F       		.byte	0x9f
 1322 036d 00000000 		.4byte	0x0
 1323 0371 00000000 		.4byte	0x0
ARM GAS  C:\Users\z80\AppData\Local\Temp\cckPXr2I.s 			page 25


 1324              	.LLST33:
 1325 0375 1E000000 		.4byte	.LVL36
 1326 0379 22000000 		.4byte	.LVL37
 1327 037d 0200     		.2byte	0x2
 1328 037f 30       		.byte	0x30
 1329 0380 9F       		.byte	0x9f
 1330 0381 3A000000 		.4byte	.LVL41
 1331 0385 3E000000 		.4byte	.LVL42
 1332 0389 0100     		.2byte	0x1
 1333 038b 56       		.byte	0x56
 1334 038c 00000000 		.4byte	0x0
 1335 0390 00000000 		.4byte	0x0
 1336              	.LLST34:
 1337 0394 0A000000 		.4byte	.LVL32
 1338 0398 0D000000 		.4byte	.LVL33-1
 1339 039c 0100     		.2byte	0x1
 1340 039e 53       		.byte	0x53
 1341 039f 00000000 		.4byte	0x0
 1342 03a3 00000000 		.4byte	0x0
 1343              	.LLST35:
 1344 03a7 1E000000 		.4byte	.LVL36
 1345 03ab 29000000 		.4byte	.LVL38-1
 1346 03af 0100     		.2byte	0x1
 1347 03b1 53       		.byte	0x53
 1348 03b2 3E000000 		.4byte	.LVL42
 1349 03b6 41000000 		.4byte	.LVL43-1
 1350 03ba 0100     		.2byte	0x1
 1351 03bc 53       		.byte	0x53
 1352 03bd 00000000 		.4byte	0x0
 1353 03c1 00000000 		.4byte	0x0
 1354              	.LLST36:
 1355 03c5 34000000 		.4byte	.LVL40
 1356 03c9 39000000 		.4byte	.LVL41-1
 1357 03cd 0100     		.2byte	0x1
 1358 03cf 50       		.byte	0x50
 1359 03d0 00000000 		.4byte	0x0
 1360 03d4 00000000 		.4byte	0x0
 1361              	.LLST37:
 1362 03d8 00000000 		.4byte	.LFB70
 1363 03dc 02000000 		.4byte	.LCFI15
 1364 03e0 0200     		.2byte	0x2
 1365 03e2 7D       		.byte	0x7d
 1366 03e3 00       		.sleb128 0
 1367 03e4 02000000 		.4byte	.LCFI15
 1368 03e8 0C000000 		.4byte	.LFE70
 1369 03ec 0200     		.2byte	0x2
 1370 03ee 7D       		.byte	0x7d
 1371 03ef 08       		.sleb128 8
 1372 03f0 00000000 		.4byte	0x0
 1373 03f4 00000000 		.4byte	0x0
 1374              	.LLST38:
 1375 03f8 00000000 		.4byte	.LVL44
 1376 03fc 05000000 		.4byte	.LVL45-1
 1377 0400 0100     		.2byte	0x1
 1378 0402 50       		.byte	0x50
 1379 0403 00000000 		.4byte	0x0
 1380 0407 00000000 		.4byte	0x0
ARM GAS  C:\Users\z80\AppData\Local\Temp\cckPXr2I.s 			page 26


 1381              	.LLST39:
 1382 040b 06000000 		.4byte	.LVL45
 1383 040f 09000000 		.4byte	.LVL46-1
 1384 0413 0100     		.2byte	0x1
 1385 0415 50       		.byte	0x50
 1386 0416 00000000 		.4byte	0x0
 1387 041a 00000000 		.4byte	0x0
 1388              	.LLST40:
 1389 041e 00000000 		.4byte	.LFB69
 1390 0422 02000000 		.4byte	.LCFI16
 1391 0426 0200     		.2byte	0x2
 1392 0428 7D       		.byte	0x7d
 1393 0429 00       		.sleb128 0
 1394 042a 02000000 		.4byte	.LCFI16
 1395 042e 0C000000 		.4byte	.LFE69
 1396 0432 0200     		.2byte	0x2
 1397 0434 7D       		.byte	0x7d
 1398 0435 08       		.sleb128 8
 1399 0436 00000000 		.4byte	0x0
 1400 043a 00000000 		.4byte	0x0
 1401              	.LLST41:
 1402 043e 00000000 		.4byte	.LVL47
 1403 0442 05000000 		.4byte	.LVL48-1
 1404 0446 0100     		.2byte	0x1
 1405 0448 50       		.byte	0x50
 1406 0449 00000000 		.4byte	0x0
 1407 044d 00000000 		.4byte	0x0
 1408              	.LLST42:
 1409 0451 06000000 		.4byte	.LVL48
 1410 0455 09000000 		.4byte	.LVL49-1
 1411 0459 0100     		.2byte	0x1
 1412 045b 50       		.byte	0x50
 1413 045c 00000000 		.4byte	0x0
 1414 0460 00000000 		.4byte	0x0
 1415              	.LLST43:
 1416 0464 00000000 		.4byte	.LFB68
 1417 0468 02000000 		.4byte	.LCFI17
 1418 046c 0200     		.2byte	0x2
 1419 046e 7D       		.byte	0x7d
 1420 046f 00       		.sleb128 0
 1421 0470 02000000 		.4byte	.LCFI17
 1422 0474 0C000000 		.4byte	.LFE68
 1423 0478 0200     		.2byte	0x2
 1424 047a 7D       		.byte	0x7d
 1425 047b 08       		.sleb128 8
 1426 047c 00000000 		.4byte	0x0
 1427 0480 00000000 		.4byte	0x0
 1428              	.LLST44:
 1429 0484 00000000 		.4byte	.LVL50
 1430 0488 05000000 		.4byte	.LVL51-1
 1431 048c 0100     		.2byte	0x1
 1432 048e 50       		.byte	0x50
 1433 048f 00000000 		.4byte	0x0
 1434 0493 00000000 		.4byte	0x0
 1435              	.LLST45:
 1436 0497 06000000 		.4byte	.LVL51
 1437 049b 09000000 		.4byte	.LVL52-1
ARM GAS  C:\Users\z80\AppData\Local\Temp\cckPXr2I.s 			page 27


 1438 049f 0100     		.2byte	0x1
 1439 04a1 50       		.byte	0x50
 1440 04a2 00000000 		.4byte	0x0
 1441 04a6 00000000 		.4byte	0x0
 1442              	.LLST46:
 1443 04aa 00000000 		.4byte	.LFB62
 1444 04ae 02000000 		.4byte	.LCFI18
 1445 04b2 0200     		.2byte	0x2
 1446 04b4 7D       		.byte	0x7d
 1447 04b5 00       		.sleb128 0
 1448 04b6 02000000 		.4byte	.LCFI18
 1449 04ba 32000000 		.4byte	.LFE62
 1450 04be 0200     		.2byte	0x2
 1451 04c0 7D       		.byte	0x7d
 1452 04c1 08       		.sleb128 8
 1453 04c2 00000000 		.4byte	0x0
 1454 04c6 00000000 		.4byte	0x0
 1455              	.LLST47:
 1456 04ca 00000000 		.4byte	.LFB63
 1457 04ce 02000000 		.4byte	.LCFI19
 1458 04d2 0200     		.2byte	0x2
 1459 04d4 7D       		.byte	0x7d
 1460 04d5 00       		.sleb128 0
 1461 04d6 02000000 		.4byte	.LCFI19
 1462 04da C4000000 		.4byte	.LFE63
 1463 04de 0200     		.2byte	0x2
 1464 04e0 7D       		.byte	0x7d
 1465 04e1 08       		.sleb128 8
 1466 04e2 00000000 		.4byte	0x0
 1467 04e6 00000000 		.4byte	0x0
 1468              	.LLST48:
 1469 04ea 0C000000 		.4byte	.LVL53
 1470 04ee 16000000 		.4byte	.LVL54
 1471 04f2 0100     		.2byte	0x1
 1472 04f4 50       		.byte	0x50
 1473 04f5 16000000 		.4byte	.LVL54
 1474 04f9 18000000 		.4byte	.LVL55
 1475 04fd 0300     		.2byte	0x3
 1476 04ff 73       		.byte	0x73
 1477 0500 7E       		.sleb128 -2
 1478 0501 9F       		.byte	0x9f
 1479 0502 00000000 		.4byte	0x0
 1480 0506 00000000 		.4byte	0x0
 1481              	.LLST49:
 1482 050a 0C000000 		.4byte	.LVL53
 1483 050e 16000000 		.4byte	.LVL54
 1484 0512 0F00     		.2byte	0xf
 1485 0514 70       		.byte	0x70
 1486 0515 02       		.sleb128 2
 1487 0516 23       		.byte	0x23
 1488 0517 80808080 		.uleb128 0x80000000
 1488      08
 1489 051c 0C       		.byte	0xc
 1490 051d 01000080 		.4byte	0x80000001
 1491 0521 2C       		.byte	0x2c
 1492 0522 9F       		.byte	0x9f
 1493 0523 16000000 		.4byte	.LVL54
ARM GAS  C:\Users\z80\AppData\Local\Temp\cckPXr2I.s 			page 28


 1494 0527 18000000 		.4byte	.LVL55
 1495 052b 0F00     		.2byte	0xf
 1496 052d 73       		.byte	0x73
 1497 052e 00       		.sleb128 0
 1498 052f 23       		.byte	0x23
 1499 0530 80808080 		.uleb128 0x80000000
 1499      08
 1500 0535 0C       		.byte	0xc
 1501 0536 01000080 		.4byte	0x80000001
 1502 053a 2C       		.byte	0x2c
 1503 053b 9F       		.byte	0x9f
 1504 053c 00000000 		.4byte	0x0
 1505 0540 00000000 		.4byte	0x0
 1506              	.LLST50:
 1507 0544 16000000 		.4byte	.LVL54
 1508 0548 24000000 		.4byte	.LVL56
 1509 054c 0100     		.2byte	0x1
 1510 054e 50       		.byte	0x50
 1511 054f 32000000 		.4byte	.LVL59
 1512 0553 66000000 		.4byte	.LVL60
 1513 0557 0100     		.2byte	0x1
 1514 0559 50       		.byte	0x50
 1515 055a 80000000 		.4byte	.LVL62
 1516 055e 92000000 		.4byte	.LVL63
 1517 0562 0100     		.2byte	0x1
 1518 0564 50       		.byte	0x50
 1519 0565 00000000 		.4byte	0x0
 1520 0569 00000000 		.4byte	0x0
 1521              	.LLST51:
 1522 056d 24000000 		.4byte	.LVL56
 1523 0571 2E000000 		.4byte	.LVL57
 1524 0575 0500     		.2byte	0x5
 1525 0577 03       		.byte	0x3
 1526 0578 00000000 		.4byte	out_index.3687
 1527 057c 66000000 		.4byte	.LVL60
 1528 0580 70000000 		.4byte	.LVL61
 1529 0584 0100     		.2byte	0x1
 1530 0586 50       		.byte	0x50
 1531 0587 70000000 		.4byte	.LVL61
 1532 058b 80000000 		.4byte	.LVL62
 1533 058f 0500     		.2byte	0x5
 1534 0591 03       		.byte	0x3
 1535 0592 00000000 		.4byte	out_index.3687
 1536 0596 92000000 		.4byte	.LVL63
 1537 059a A2000000 		.4byte	.LVL67
 1538 059e 0100     		.2byte	0x1
 1539 05a0 50       		.byte	0x50
 1540 05a1 A2000000 		.4byte	.LVL67
 1541 05a5 A3000000 		.4byte	.LVL68-1
 1542 05a9 0500     		.2byte	0x5
 1543 05ab 03       		.byte	0x3
 1544 05ac 00000000 		.4byte	out_index.3687
 1545 05b0 00000000 		.4byte	0x0
 1546 05b4 00000000 		.4byte	0x0
 1547              	.LLST52:
 1548 05b8 24000000 		.4byte	.LVL56
 1549 05bc 30000000 		.4byte	.LVL58
ARM GAS  C:\Users\z80\AppData\Local\Temp\cckPXr2I.s 			page 29


 1550 05c0 0600     		.2byte	0x6
 1551 05c2 03       		.byte	0x3
 1552 05c3 00000000 		.4byte	buffer
 1553 05c7 9F       		.byte	0x9f
 1554 05c8 66000000 		.4byte	.LVL60
 1555 05cc 80000000 		.4byte	.LVL62
 1556 05d0 0600     		.2byte	0x6
 1557 05d2 03       		.byte	0x3
 1558 05d3 00000000 		.4byte	buffer
 1559 05d7 9F       		.byte	0x9f
 1560 05d8 92000000 		.4byte	.LVL63
 1561 05dc C4000000 		.4byte	.LFE63
 1562 05e0 0600     		.2byte	0x6
 1563 05e2 03       		.byte	0x3
 1564 05e3 00000000 		.4byte	buffer
 1565 05e7 9F       		.byte	0x9f
 1566 05e8 00000000 		.4byte	0x0
 1567 05ec 00000000 		.4byte	0x0
 1568              	.LLST53:
 1569 05f0 66000000 		.4byte	.LVL60
 1570 05f4 70000000 		.4byte	.LVL61
 1571 05f8 0200     		.2byte	0x2
 1572 05fa 30       		.byte	0x30
 1573 05fb 9F       		.byte	0x9f
 1574 05fc 00000000 		.4byte	0x0
 1575 0600 00000000 		.4byte	0x0
 1576              	.LLST54:
 1577 0604 24000000 		.4byte	.LVL56
 1578 0608 2E000000 		.4byte	.LVL57
 1579 060c 0500     		.2byte	0x5
 1580 060e 03       		.byte	0x3
 1581 060f 00000000 		.4byte	buffer
 1582 0613 66000000 		.4byte	.LVL60
 1583 0617 80000000 		.4byte	.LVL62
 1584 061b 0500     		.2byte	0x5
 1585 061d 03       		.byte	0x3
 1586 061e 00000000 		.4byte	buffer
 1587 0622 92000000 		.4byte	.LVL63
 1588 0626 A3000000 		.4byte	.LVL68-1
 1589 062a 0500     		.2byte	0x5
 1590 062c 03       		.byte	0x3
 1591 062d 00000000 		.4byte	buffer
 1592 0631 00000000 		.4byte	0x0
 1593 0635 00000000 		.4byte	0x0
 1594              	.LLST55:
 1595 0639 24000000 		.4byte	.LVL56
 1596 063d 30000000 		.4byte	.LVL58
 1597 0641 0600     		.2byte	0x6
 1598 0643 03       		.byte	0x3
 1599 0644 01000000 		.4byte	buffer+1
 1600 0648 9F       		.byte	0x9f
 1601 0649 66000000 		.4byte	.LVL60
 1602 064d 80000000 		.4byte	.LVL62
 1603 0651 0600     		.2byte	0x6
 1604 0653 03       		.byte	0x3
 1605 0654 01000000 		.4byte	buffer+1
 1606 0658 9F       		.byte	0x9f
ARM GAS  C:\Users\z80\AppData\Local\Temp\cckPXr2I.s 			page 30


 1607 0659 92000000 		.4byte	.LVL63
 1608 065d C4000000 		.4byte	.LFE63
 1609 0661 0600     		.2byte	0x6
 1610 0663 03       		.byte	0x3
 1611 0664 01000000 		.4byte	buffer+1
 1612 0668 9F       		.byte	0x9f
 1613 0669 00000000 		.4byte	0x0
 1614 066d 00000000 		.4byte	0x0
 1615              	.LLST56:
 1616 0671 94000000 		.4byte	.LVL64
 1617 0675 9C000000 		.4byte	.LVL65
 1618 0679 0100     		.2byte	0x1
 1619 067b 53       		.byte	0x53
 1620 067c 9C000000 		.4byte	.LVL65
 1621 0680 A0000000 		.4byte	.LVL66
 1622 0684 0100     		.2byte	0x1
 1623 0686 53       		.byte	0x53
 1624 0687 00000000 		.4byte	0x0
 1625 068b 00000000 		.4byte	0x0
 1626              		.file 2 "c:\\programs\\yagarto\\bin\\../lib/gcc/arm-none-eabi/4.5.0/include/stddef.h"
 1627              		.file 3 "c:/programs/yagarto/lib/gcc/../../arm-none-eabi/sys-include/stdint.h"
 1628              		.file 4 "../chibios_2.4.x/os/ports/GCC/ARMCMx/chtypes.h"
 1629              		.file 5 "../chibios_2.4.x/os/kernel/include/chlists.h"
 1630              		.file 6 "../chibios_2.4.x/os/kernel/include/chthreads.h"
 1631              		.file 7 "../chibios_2.4.x/os/ports/GCC/ARMCMx/chcore_v7m.h"
 1632              		.file 8 "../chibios_2.4.x/os/kernel/include/chmtx.h"
 1633              		.file 9 "../chibios_2.4.x/os/kernel/include/chevents.h"
 1634              		.file 10 "../chibios_2.4.x/os/kernel/include/chqueues.h"
 1635              		.file 11 "../chibios_2.4.x/os/kernel/include/chioch.h"
 1636              		.file 12 "./src/cpu_io.h"
 1637              		.file 13 "../chibios_2.4.x/os/hal/platforms/STM32F1xx/stm32f10x.h"
 1638              		.file 14 "../chibios_2.4.x/os/hal/platforms/STM32/GPIOv1/pal_lld.h"
 1639              		.file 15 "../chibios_2.4.x/os/hal/include/serial.h"
 1640              		.file 16 "../chibios_2.4.x/os/ports/common/ARMCMx/CMSIS/include/core_cm3.h"
 1641              		.file 17 "../chibios_2.4.x/os/hal/platforms/STM32/serial_lld.h"
 1642              		.section	.debug_info
 1643 0000 DF0E0000 		.4byte	0xedf
 1644 0004 0200     		.2byte	0x2
 1645 0006 00000000 		.4byte	.Ldebug_abbrev0
 1646 000a 04       		.byte	0x4
 1647 000b 01       		.uleb128 0x1
 1648 000c 45050000 		.4byte	.LASF136
 1649 0010 01       		.byte	0x1
 1650 0011 91020000 		.4byte	.LASF137
 1651 0015 04030000 		.4byte	.LASF138
 1652 0019 00000000 		.4byte	0x0
 1653 001d 00000000 		.4byte	0x0
 1654 0021 E8000000 		.4byte	.Ldebug_ranges0+0xe8
 1655 0025 00000000 		.4byte	.Ldebug_line0
 1656 0029 02       		.uleb128 0x2
 1657 002a 04       		.byte	0x4
 1658 002b 05       		.byte	0x5
 1659 002c 696E7400 		.ascii	"int\000"
 1660 0030 03       		.uleb128 0x3
 1661 0031 09000000 		.4byte	.LASF2
 1662 0035 02       		.byte	0x2
 1663 0036 D3       		.byte	0xd3
ARM GAS  C:\Users\z80\AppData\Local\Temp\cckPXr2I.s 			page 31


 1664 0037 3B000000 		.4byte	0x3b
 1665 003b 04       		.uleb128 0x4
 1666 003c 04       		.byte	0x4
 1667 003d 07       		.byte	0x7
 1668 003e 8A010000 		.4byte	.LASF0
 1669 0042 04       		.uleb128 0x4
 1670 0043 01       		.byte	0x1
 1671 0044 06       		.byte	0x6
 1672 0045 DF000000 		.4byte	.LASF1
 1673 0049 03       		.uleb128 0x3
 1674 004a 1E050000 		.4byte	.LASF3
 1675 004e 03       		.byte	0x3
 1676 004f 2A       		.byte	0x2a
 1677 0050 54000000 		.4byte	0x54
 1678 0054 04       		.uleb128 0x4
 1679 0055 01       		.byte	0x1
 1680 0056 08       		.byte	0x8
 1681 0057 C0030000 		.4byte	.LASF4
 1682 005b 04       		.uleb128 0x4
 1683 005c 02       		.byte	0x2
 1684 005d 05       		.byte	0x5
 1685 005e E4030000 		.4byte	.LASF5
 1686 0062 03       		.uleb128 0x3
 1687 0063 97010000 		.4byte	.LASF6
 1688 0067 03       		.byte	0x3
 1689 0068 36       		.byte	0x36
 1690 0069 6D000000 		.4byte	0x6d
 1691 006d 04       		.uleb128 0x4
 1692 006e 02       		.byte	0x2
 1693 006f 07       		.byte	0x7
 1694 0070 0D020000 		.4byte	.LASF7
 1695 0074 03       		.uleb128 0x3
 1696 0075 B8030000 		.4byte	.LASF8
 1697 0079 03       		.byte	0x3
 1698 007a 4F       		.byte	0x4f
 1699 007b 7F000000 		.4byte	0x7f
 1700 007f 04       		.uleb128 0x4
 1701 0080 04       		.byte	0x4
 1702 0081 05       		.byte	0x5
 1703 0082 20010000 		.4byte	.LASF9
 1704 0086 03       		.uleb128 0x3
 1705 0087 55040000 		.4byte	.LASF10
 1706 008b 03       		.byte	0x3
 1707 008c 50       		.byte	0x50
 1708 008d 91000000 		.4byte	0x91
 1709 0091 04       		.uleb128 0x4
 1710 0092 04       		.byte	0x4
 1711 0093 07       		.byte	0x7
 1712 0094 75040000 		.4byte	.LASF11
 1713 0098 04       		.uleb128 0x4
 1714 0099 08       		.byte	0x8
 1715 009a 05       		.byte	0x5
 1716 009b D1000000 		.4byte	.LASF12
 1717 009f 03       		.uleb128 0x3
 1718 00a0 17000000 		.4byte	.LASF13
 1719 00a4 03       		.byte	0x3
 1720 00a5 78       		.byte	0x78
ARM GAS  C:\Users\z80\AppData\Local\Temp\cckPXr2I.s 			page 32


 1721 00a6 AA000000 		.4byte	0xaa
 1722 00aa 04       		.uleb128 0x4
 1723 00ab 08       		.byte	0x8
 1724 00ac 07       		.byte	0x7
 1725 00ad 5A000000 		.4byte	.LASF14
 1726 00b1 03       		.uleb128 0x3
 1727 00b2 4C000000 		.4byte	.LASF15
 1728 00b6 03       		.byte	0x3
 1729 00b7 A6       		.byte	0xa6
 1730 00b8 3B000000 		.4byte	0x3b
 1731 00bc 03       		.uleb128 0x3
 1732 00bd FD000000 		.4byte	.LASF16
 1733 00c1 04       		.byte	0x4
 1734 00c2 2E       		.byte	0x2e
 1735 00c3 74000000 		.4byte	0x74
 1736 00c7 03       		.uleb128 0x3
 1737 00c8 5C020000 		.4byte	.LASF17
 1738 00cc 04       		.byte	0x4
 1739 00cd 2F       		.byte	0x2f
 1740 00ce 49000000 		.4byte	0x49
 1741 00d2 03       		.uleb128 0x3
 1742 00d3 29010000 		.4byte	.LASF18
 1743 00d7 04       		.byte	0x4
 1744 00d8 30       		.byte	0x30
 1745 00d9 49000000 		.4byte	0x49
 1746 00dd 03       		.uleb128 0x3
 1747 00de FF010000 		.4byte	.LASF19
 1748 00e2 04       		.byte	0x4
 1749 00e3 32       		.byte	0x32
 1750 00e4 86000000 		.4byte	0x86
 1751 00e8 03       		.uleb128 0x3
 1752 00e9 20020000 		.4byte	.LASF20
 1753 00ed 04       		.byte	0x4
 1754 00ee 33       		.byte	0x33
 1755 00ef 74000000 		.4byte	0x74
 1756 00f3 03       		.uleb128 0x3
 1757 00f4 70020000 		.4byte	.LASF21
 1758 00f8 04       		.byte	0x4
 1759 00f9 35       		.byte	0x35
 1760 00fa 86000000 		.4byte	0x86
 1761 00fe 03       		.uleb128 0x3
 1762 00ff A4040000 		.4byte	.LASF22
 1763 0103 04       		.byte	0x4
 1764 0104 36       		.byte	0x36
 1765 0105 86000000 		.4byte	0x86
 1766 0109 03       		.uleb128 0x3
 1767 010a 2F040000 		.4byte	.LASF23
 1768 010e 05       		.byte	0x5
 1769 010f 2A       		.byte	0x2a
 1770 0110 14010000 		.4byte	0x114
 1771 0114 05       		.uleb128 0x5
 1772 0115 2F040000 		.4byte	.LASF23
 1773 0119 48       		.byte	0x48
 1774 011a 06       		.byte	0x6
 1775 011b 5E       		.byte	0x5e
 1776 011c 1D020000 		.4byte	0x21d
 1777 0120 06       		.uleb128 0x6
ARM GAS  C:\Users\z80\AppData\Local\Temp\cckPXr2I.s 			page 33


 1778 0121 0D040000 		.4byte	.LASF24
 1779 0125 06       		.byte	0x6
 1780 0126 5F       		.byte	0x5f
 1781 0127 42020000 		.4byte	0x242
 1782 012b 02       		.byte	0x2
 1783 012c 23       		.byte	0x23
 1784 012d 00       		.uleb128 0x0
 1785 012e 06       		.uleb128 0x6
 1786 012f 8D030000 		.4byte	.LASF25
 1787 0133 06       		.byte	0x6
 1788 0134 61       		.byte	0x61
 1789 0135 42020000 		.4byte	0x242
 1790 0139 02       		.byte	0x2
 1791 013a 23       		.byte	0x23
 1792 013b 04       		.uleb128 0x4
 1793 013c 06       		.uleb128 0x6
 1794 013d B5000000 		.4byte	.LASF26
 1795 0141 06       		.byte	0x6
 1796 0142 63       		.byte	0x63
 1797 0143 DD000000 		.4byte	0xdd
 1798 0147 02       		.byte	0x2
 1799 0148 23       		.byte	0x23
 1800 0149 08       		.uleb128 0x8
 1801 014a 06       		.uleb128 0x6
 1802 014b 79050000 		.4byte	.LASF27
 1803 014f 06       		.byte	0x6
 1804 0150 64       		.byte	0x64
 1805 0151 1A030000 		.4byte	0x31a
 1806 0155 02       		.byte	0x2
 1807 0156 23       		.byte	0x23
 1808 0157 0C       		.uleb128 0xc
 1809 0158 06       		.uleb128 0x6
 1810 0159 43010000 		.4byte	.LASF28
 1811 015d 06       		.byte	0x6
 1812 015e 66       		.byte	0x66
 1813 015f 42020000 		.4byte	0x242
 1814 0163 02       		.byte	0x2
 1815 0164 23       		.byte	0x23
 1816 0165 10       		.uleb128 0x10
 1817 0166 06       		.uleb128 0x6
 1818 0167 D6020000 		.4byte	.LASF29
 1819 016b 06       		.byte	0x6
 1820 016c 67       		.byte	0x67
 1821 016d 42020000 		.4byte	0x242
 1822 0171 02       		.byte	0x2
 1823 0172 23       		.byte	0x23
 1824 0173 14       		.uleb128 0x14
 1825 0174 06       		.uleb128 0x6
 1826 0175 00050000 		.4byte	.LASF30
 1827 0179 06       		.byte	0x6
 1828 017a 6E       		.byte	0x6e
 1829 017b 35040000 		.4byte	0x435
 1830 017f 02       		.byte	0x2
 1831 0180 23       		.byte	0x23
 1832 0181 18       		.uleb128 0x18
 1833 0182 06       		.uleb128 0x6
 1834 0183 C0040000 		.4byte	.LASF31
ARM GAS  C:\Users\z80\AppData\Local\Temp\cckPXr2I.s 			page 34


 1835 0187 06       		.byte	0x6
 1836 0188 74       		.byte	0x74
 1837 0189 47040000 		.4byte	0x447
 1838 018d 02       		.byte	0x2
 1839 018e 23       		.byte	0x23
 1840 018f 1C       		.uleb128 0x1c
 1841 0190 06       		.uleb128 0x6
 1842 0191 EE030000 		.4byte	.LASF32
 1843 0195 06       		.byte	0x6
 1844 0196 79       		.byte	0x79
 1845 0197 D2000000 		.4byte	0xd2
 1846 019b 02       		.byte	0x2
 1847 019c 23       		.byte	0x23
 1848 019d 20       		.uleb128 0x20
 1849 019e 06       		.uleb128 0x6
 1850 019f 14040000 		.4byte	.LASF33
 1851 01a3 06       		.byte	0x6
 1852 01a4 7D       		.byte	0x7d
 1853 01a5 C7000000 		.4byte	0xc7
 1854 01a9 02       		.byte	0x2
 1855 01aa 23       		.byte	0x23
 1856 01ab 21       		.uleb128 0x21
 1857 01ac 06       		.uleb128 0x6
 1858 01ad B0010000 		.4byte	.LASF34
 1859 01b1 06       		.byte	0x6
 1860 01b2 89       		.byte	0x89
 1861 01b3 45030000 		.4byte	0x345
 1862 01b7 02       		.byte	0x2
 1863 01b8 23       		.byte	0x23
 1864 01b9 24       		.uleb128 0x24
 1865 01ba 07       		.uleb128 0x7
 1866 01bb 705F7500 		.ascii	"p_u\000"
 1867 01bf 06       		.byte	0x6
 1868 01c0 AE       		.byte	0xae
 1869 01c1 00040000 		.4byte	0x400
 1870 01c5 02       		.byte	0x2
 1871 01c6 23       		.byte	0x23
 1872 01c7 28       		.uleb128 0x28
 1873 01c8 06       		.uleb128 0x6
 1874 01c9 7F050000 		.4byte	.LASF35
 1875 01cd 06       		.byte	0x6
 1876 01ce B3       		.byte	0xb3
 1877 01cf 6A020000 		.4byte	0x26a
 1878 01d3 02       		.byte	0x2
 1879 01d4 23       		.byte	0x23
 1880 01d5 2C       		.uleb128 0x2c
 1881 01d6 06       		.uleb128 0x6
 1882 01d7 D9010000 		.4byte	.LASF36
 1883 01db 06       		.byte	0x6
 1884 01dc B9       		.byte	0xb9
 1885 01dd 48020000 		.4byte	0x248
 1886 01e1 02       		.byte	0x2
 1887 01e2 23       		.byte	0x23
 1888 01e3 30       		.uleb128 0x30
 1889 01e4 06       		.uleb128 0x6
 1890 01e5 18050000 		.4byte	.LASF37
 1891 01e9 06       		.byte	0x6
ARM GAS  C:\Users\z80\AppData\Local\Temp\cckPXr2I.s 			page 35


 1892 01ea BD       		.byte	0xbd
 1893 01eb E8000000 		.4byte	0xe8
 1894 01ef 02       		.byte	0x2
 1895 01f0 23       		.byte	0x23
 1896 01f1 38       		.uleb128 0x38
 1897 01f2 06       		.uleb128 0x6
 1898 01f3 36040000 		.4byte	.LASF38
 1899 01f7 06       		.byte	0x6
 1900 01f8 C3       		.byte	0xc3
 1901 01f9 F3000000 		.4byte	0xf3
 1902 01fd 02       		.byte	0x2
 1903 01fe 23       		.byte	0x23
 1904 01ff 3C       		.uleb128 0x3c
 1905 0200 06       		.uleb128 0x6
 1906 0201 DA030000 		.4byte	.LASF39
 1907 0205 06       		.byte	0x6
 1908 0206 CA       		.byte	0xca
 1909 0207 4D040000 		.4byte	0x44d
 1910 020b 02       		.byte	0x2
 1911 020c 23       		.byte	0x23
 1912 020d 40       		.uleb128 0x40
 1913 020e 06       		.uleb128 0x6
 1914 020f AE040000 		.4byte	.LASF40
 1915 0213 06       		.byte	0x6
 1916 0214 CE       		.byte	0xce
 1917 0215 DD000000 		.4byte	0xdd
 1918 0219 02       		.byte	0x2
 1919 021a 23       		.byte	0x23
 1920 021b 44       		.uleb128 0x44
 1921 021c 00       		.byte	0x0
 1922 021d 08       		.uleb128 0x8
 1923 021e 08       		.byte	0x8
 1924 021f 05       		.byte	0x5
 1925 0220 61       		.byte	0x61
 1926 0221 42020000 		.4byte	0x242
 1927 0225 06       		.uleb128 0x6
 1928 0226 0D040000 		.4byte	.LASF24
 1929 022a 05       		.byte	0x5
 1930 022b 62       		.byte	0x62
 1931 022c 42020000 		.4byte	0x242
 1932 0230 02       		.byte	0x2
 1933 0231 23       		.byte	0x23
 1934 0232 00       		.uleb128 0x0
 1935 0233 06       		.uleb128 0x6
 1936 0234 8D030000 		.4byte	.LASF25
 1937 0238 05       		.byte	0x5
 1938 0239 64       		.byte	0x64
 1939 023a 42020000 		.4byte	0x242
 1940 023e 02       		.byte	0x2
 1941 023f 23       		.byte	0x23
 1942 0240 04       		.uleb128 0x4
 1943 0241 00       		.byte	0x0
 1944 0242 09       		.uleb128 0x9
 1945 0243 04       		.byte	0x4
 1946 0244 09010000 		.4byte	0x109
 1947 0248 03       		.uleb128 0x3
 1948 0249 F7020000 		.4byte	.LASF41
ARM GAS  C:\Users\z80\AppData\Local\Temp\cckPXr2I.s 			page 36


 1949 024d 05       		.byte	0x5
 1950 024e 66       		.byte	0x66
 1951 024f 1D020000 		.4byte	0x21d
 1952 0253 08       		.uleb128 0x8
 1953 0254 04       		.byte	0x4
 1954 0255 05       		.byte	0x5
 1955 0256 6B       		.byte	0x6b
 1956 0257 6A020000 		.4byte	0x26a
 1957 025b 06       		.uleb128 0x6
 1958 025c 0D040000 		.4byte	.LASF24
 1959 0260 05       		.byte	0x5
 1960 0261 6D       		.byte	0x6d
 1961 0262 42020000 		.4byte	0x242
 1962 0266 02       		.byte	0x2
 1963 0267 23       		.byte	0x23
 1964 0268 00       		.uleb128 0x0
 1965 0269 00       		.byte	0x0
 1966 026a 03       		.uleb128 0x3
 1967 026b 64020000 		.4byte	.LASF42
 1968 026f 05       		.byte	0x5
 1969 0270 70       		.byte	0x70
 1970 0271 53020000 		.4byte	0x253
 1971 0275 03       		.uleb128 0x3
 1972 0276 6F010000 		.4byte	.LASF43
 1973 027a 07       		.byte	0x7
 1974 027b D7       		.byte	0xd7
 1975 027c 80020000 		.4byte	0x280
 1976 0280 0A       		.uleb128 0xa
 1977 0281 04       		.byte	0x4
 1978 0282 03       		.uleb128 0x3
 1979 0283 AD020000 		.4byte	.LASF44
 1980 0287 07       		.byte	0x7
 1981 0288 DD       		.byte	0xdd
 1982 0289 9F000000 		.4byte	0x9f
 1983 028d 05       		.uleb128 0x5
 1984 028e E1040000 		.4byte	.LASF45
 1985 0292 24       		.byte	0x24
 1986 0293 07       		.byte	0x7
 1987 0294 FE       		.byte	0xfe
 1988 0295 1A030000 		.4byte	0x31a
 1989 0299 0B       		.uleb128 0xb
 1990 029a 723400   		.ascii	"r4\000"
 1991 029d 07       		.byte	0x7
 1992 029e 1101     		.2byte	0x111
 1993 02a0 75020000 		.4byte	0x275
 1994 02a4 02       		.byte	0x2
 1995 02a5 23       		.byte	0x23
 1996 02a6 00       		.uleb128 0x0
 1997 02a7 0B       		.uleb128 0xb
 1998 02a8 723500   		.ascii	"r5\000"
 1999 02ab 07       		.byte	0x7
 2000 02ac 1201     		.2byte	0x112
 2001 02ae 75020000 		.4byte	0x275
 2002 02b2 02       		.byte	0x2
 2003 02b3 23       		.byte	0x23
 2004 02b4 04       		.uleb128 0x4
 2005 02b5 0B       		.uleb128 0xb
ARM GAS  C:\Users\z80\AppData\Local\Temp\cckPXr2I.s 			page 37


 2006 02b6 723600   		.ascii	"r6\000"
 2007 02b9 07       		.byte	0x7
 2008 02ba 1301     		.2byte	0x113
 2009 02bc 75020000 		.4byte	0x275
 2010 02c0 02       		.byte	0x2
 2011 02c1 23       		.byte	0x23
 2012 02c2 08       		.uleb128 0x8
 2013 02c3 0B       		.uleb128 0xb
 2014 02c4 723700   		.ascii	"r7\000"
 2015 02c7 07       		.byte	0x7
 2016 02c8 1401     		.2byte	0x114
 2017 02ca 75020000 		.4byte	0x275
 2018 02ce 02       		.byte	0x2
 2019 02cf 23       		.byte	0x23
 2020 02d0 0C       		.uleb128 0xc
 2021 02d1 0B       		.uleb128 0xb
 2022 02d2 723800   		.ascii	"r8\000"
 2023 02d5 07       		.byte	0x7
 2024 02d6 1501     		.2byte	0x115
 2025 02d8 75020000 		.4byte	0x275
 2026 02dc 02       		.byte	0x2
 2027 02dd 23       		.byte	0x23
 2028 02de 10       		.uleb128 0x10
 2029 02df 0B       		.uleb128 0xb
 2030 02e0 723900   		.ascii	"r9\000"
 2031 02e3 07       		.byte	0x7
 2032 02e4 1601     		.2byte	0x116
 2033 02e6 75020000 		.4byte	0x275
 2034 02ea 02       		.byte	0x2
 2035 02eb 23       		.byte	0x23
 2036 02ec 14       		.uleb128 0x14
 2037 02ed 0B       		.uleb128 0xb
 2038 02ee 72313000 		.ascii	"r10\000"
 2039 02f2 07       		.byte	0x7
 2040 02f3 1701     		.2byte	0x117
 2041 02f5 75020000 		.4byte	0x275
 2042 02f9 02       		.byte	0x2
 2043 02fa 23       		.byte	0x23
 2044 02fb 18       		.uleb128 0x18
 2045 02fc 0B       		.uleb128 0xb
 2046 02fd 72313100 		.ascii	"r11\000"
 2047 0301 07       		.byte	0x7
 2048 0302 1801     		.2byte	0x118
 2049 0304 75020000 		.4byte	0x275
 2050 0308 02       		.byte	0x2
 2051 0309 23       		.byte	0x23
 2052 030a 1C       		.uleb128 0x1c
 2053 030b 0B       		.uleb128 0xb
 2054 030c 6C7200   		.ascii	"lr\000"
 2055 030f 07       		.byte	0x7
 2056 0310 1901     		.2byte	0x119
 2057 0312 75020000 		.4byte	0x275
 2058 0316 02       		.byte	0x2
 2059 0317 23       		.byte	0x23
 2060 0318 20       		.uleb128 0x20
 2061 0319 00       		.byte	0x0
 2062 031a 0C       		.uleb128 0xc
ARM GAS  C:\Users\z80\AppData\Local\Temp\cckPXr2I.s 			page 38


 2063 031b D9040000 		.4byte	.LASF46
 2064 031f 04       		.byte	0x4
 2065 0320 07       		.byte	0x7
 2066 0321 2301     		.2byte	0x123
 2067 0323 37030000 		.4byte	0x337
 2068 0327 0B       		.uleb128 0xb
 2069 0328 72313300 		.ascii	"r13\000"
 2070 032c 07       		.byte	0x7
 2071 032d 2401     		.2byte	0x124
 2072 032f 37030000 		.4byte	0x337
 2073 0333 02       		.byte	0x2
 2074 0334 23       		.byte	0x23
 2075 0335 00       		.uleb128 0x0
 2076 0336 00       		.byte	0x0
 2077 0337 09       		.uleb128 0x9
 2078 0338 04       		.byte	0x4
 2079 0339 8D020000 		.4byte	0x28d
 2080 033d 0D       		.uleb128 0xd
 2081 033e 86000000 		.4byte	0x86
 2082 0342 0E       		.uleb128 0xe
 2083 0343 04       		.byte	0x4
 2084 0344 07       		.byte	0x7
 2085 0345 0D       		.uleb128 0xd
 2086 0346 FE000000 		.4byte	0xfe
 2087 034a 05       		.uleb128 0x5
 2088 034b D0020000 		.4byte	.LASF47
 2089 034f 10       		.byte	0x10
 2090 0350 08       		.byte	0x8
 2091 0351 2C       		.byte	0x2c
 2092 0352 81030000 		.4byte	0x381
 2093 0356 06       		.uleb128 0x6
 2094 0357 04010000 		.4byte	.LASF48
 2095 035b 08       		.byte	0x8
 2096 035c 2D       		.byte	0x2d
 2097 035d 48020000 		.4byte	0x248
 2098 0361 02       		.byte	0x2
 2099 0362 23       		.byte	0x23
 2100 0363 00       		.uleb128 0x0
 2101 0364 06       		.uleb128 0x6
 2102 0365 71050000 		.4byte	.LASF49
 2103 0369 08       		.byte	0x8
 2104 036a 2F       		.byte	0x2f
 2105 036b 42020000 		.4byte	0x242
 2106 036f 02       		.byte	0x2
 2107 0370 23       		.byte	0x23
 2108 0371 08       		.uleb128 0x8
 2109 0372 06       		.uleb128 0x6
 2110 0373 9D040000 		.4byte	.LASF50
 2111 0377 08       		.byte	0x8
 2112 0378 31       		.byte	0x31
 2113 0379 81030000 		.4byte	0x381
 2114 037d 02       		.byte	0x2
 2115 037e 23       		.byte	0x23
 2116 037f 0C       		.uleb128 0xc
 2117 0380 00       		.byte	0x0
 2118 0381 09       		.uleb128 0x9
 2119 0382 04       		.byte	0x4
ARM GAS  C:\Users\z80\AppData\Local\Temp\cckPXr2I.s 			page 39


 2120 0383 4A030000 		.4byte	0x34a
 2121 0387 03       		.uleb128 0x3
 2122 0388 D0020000 		.4byte	.LASF47
 2123 038c 08       		.byte	0x8
 2124 038d 33       		.byte	0x33
 2125 038e 4A030000 		.4byte	0x34a
 2126 0392 03       		.uleb128 0x3
 2127 0393 37050000 		.4byte	.LASF51
 2128 0397 09       		.byte	0x9
 2129 0398 29       		.byte	0x29
 2130 0399 9D030000 		.4byte	0x39d
 2131 039d 05       		.uleb128 0x5
 2132 039e 37050000 		.4byte	.LASF51
 2133 03a2 0C       		.byte	0xc
 2134 03a3 09       		.byte	0x9
 2135 03a4 2E       		.byte	0x2e
 2136 03a5 D4030000 		.4byte	0x3d4
 2137 03a9 06       		.uleb128 0x6
 2138 03aa 1C040000 		.4byte	.LASF52
 2139 03ae 09       		.byte	0x9
 2140 03af 2F       		.byte	0x2f
 2141 03b0 D4030000 		.4byte	0x3d4
 2142 03b4 02       		.byte	0x2
 2143 03b5 23       		.byte	0x23
 2144 03b6 00       		.uleb128 0x0
 2145 03b7 06       		.uleb128 0x6
 2146 03b8 CE030000 		.4byte	.LASF53
 2147 03bc 09       		.byte	0x9
 2148 03bd 32       		.byte	0x32
 2149 03be 42020000 		.4byte	0x242
 2150 03c2 02       		.byte	0x2
 2151 03c3 23       		.byte	0x23
 2152 03c4 04       		.uleb128 0x4
 2153 03c5 06       		.uleb128 0x6
 2154 03c6 3D030000 		.4byte	.LASF54
 2155 03ca 09       		.byte	0x9
 2156 03cb 34       		.byte	0x34
 2157 03cc F3000000 		.4byte	0xf3
 2158 03d0 02       		.byte	0x2
 2159 03d1 23       		.byte	0x23
 2160 03d2 08       		.uleb128 0x8
 2161 03d3 00       		.byte	0x0
 2162 03d4 09       		.uleb128 0x9
 2163 03d5 04       		.byte	0x4
 2164 03d6 92030000 		.4byte	0x392
 2165 03da 05       		.uleb128 0x5
 2166 03db 78010000 		.4byte	.LASF55
 2167 03df 04       		.byte	0x4
 2168 03e0 09       		.byte	0x9
 2169 03e1 3C       		.byte	0x3c
 2170 03e2 F5030000 		.4byte	0x3f5
 2171 03e6 06       		.uleb128 0x6
 2172 03e7 07050000 		.4byte	.LASF56
 2173 03eb 09       		.byte	0x9
 2174 03ec 3D       		.byte	0x3d
 2175 03ed D4030000 		.4byte	0x3d4
 2176 03f1 02       		.byte	0x2
ARM GAS  C:\Users\z80\AppData\Local\Temp\cckPXr2I.s 			page 40


 2177 03f2 23       		.byte	0x23
 2178 03f3 00       		.uleb128 0x0
 2179 03f4 00       		.byte	0x0
 2180 03f5 03       		.uleb128 0x3
 2181 03f6 78010000 		.4byte	.LASF55
 2182 03fa 09       		.byte	0x9
 2183 03fb 40       		.byte	0x40
 2184 03fc DA030000 		.4byte	0x3da
 2185 0400 0F       		.uleb128 0xf
 2186 0401 04       		.byte	0x4
 2187 0402 06       		.byte	0x6
 2188 0403 90       		.byte	0x90
 2189 0404 35040000 		.4byte	0x435
 2190 0408 10       		.uleb128 0x10
 2191 0409 10000000 		.4byte	.LASF57
 2192 040d 06       		.byte	0x6
 2193 040e 97       		.byte	0x97
 2194 040f E8000000 		.4byte	0xe8
 2195 0413 10       		.uleb128 0x10
 2196 0414 88000000 		.4byte	.LASF58
 2197 0418 06       		.byte	0x6
 2198 0419 9E       		.byte	0x9e
 2199 041a E8000000 		.4byte	0xe8
 2200 041e 10       		.uleb128 0x10
 2201 041f 51050000 		.4byte	.LASF59
 2202 0423 06       		.byte	0x6
 2203 0424 A5       		.byte	0xa5
 2204 0425 80020000 		.4byte	0x280
 2205 0429 10       		.uleb128 0x10
 2206 042a 06040000 		.4byte	.LASF60
 2207 042e 06       		.byte	0x6
 2208 042f AC       		.byte	0xac
 2209 0430 F3000000 		.4byte	0xf3
 2210 0434 00       		.byte	0x0
 2211 0435 09       		.uleb128 0x9
 2212 0436 04       		.byte	0x4
 2213 0437 3B040000 		.4byte	0x43b
 2214 043b 11       		.uleb128 0x11
 2215 043c 40040000 		.4byte	0x440
 2216 0440 04       		.uleb128 0x4
 2217 0441 01       		.byte	0x1
 2218 0442 08       		.byte	0x8
 2219 0443 8C040000 		.4byte	.LASF61
 2220 0447 09       		.uleb128 0x9
 2221 0448 04       		.byte	0x4
 2222 0449 82020000 		.4byte	0x282
 2223 044d 09       		.uleb128 0x9
 2224 044e 04       		.byte	0x4
 2225 044f 87030000 		.4byte	0x387
 2226 0453 03       		.uleb128 0x3
 2227 0454 A0020000 		.4byte	.LASF62
 2228 0458 0A       		.byte	0xa
 2229 0459 37       		.byte	0x37
 2230 045a 5E040000 		.4byte	0x45e
 2231 045e 05       		.uleb128 0x5
 2232 045f A0020000 		.4byte	.LASF62
 2233 0463 20       		.byte	0x20
ARM GAS  C:\Users\z80\AppData\Local\Temp\cckPXr2I.s 			page 41


 2234 0464 0A       		.byte	0xa
 2235 0465 45       		.byte	0x45
 2236 0466 CD040000 		.4byte	0x4cd
 2237 046a 06       		.uleb128 0x6
 2238 046b 51030000 		.4byte	.LASF63
 2239 046f 0A       		.byte	0xa
 2240 0470 46       		.byte	0x46
 2241 0471 48020000 		.4byte	0x248
 2242 0475 02       		.byte	0x2
 2243 0476 23       		.byte	0x23
 2244 0477 00       		.uleb128 0x0
 2245 0478 06       		.uleb128 0x6
 2246 0479 C6020000 		.4byte	.LASF64
 2247 047d 0A       		.byte	0xa
 2248 047e 47       		.byte	0x47
 2249 047f 30000000 		.4byte	0x30
 2250 0483 02       		.byte	0x2
 2251 0484 23       		.byte	0x23
 2252 0485 08       		.uleb128 0x8
 2253 0486 06       		.uleb128 0x6
 2254 0487 32010000 		.4byte	.LASF65
 2255 048b 0A       		.byte	0xa
 2256 048c 48       		.byte	0x48
 2257 048d F0040000 		.4byte	0x4f0
 2258 0491 02       		.byte	0x2
 2259 0492 23       		.byte	0x23
 2260 0493 0C       		.uleb128 0xc
 2261 0494 06       		.uleb128 0x6
 2262 0495 FA040000 		.4byte	.LASF66
 2263 0499 0A       		.byte	0xa
 2264 049a 49       		.byte	0x49
 2265 049b F0040000 		.4byte	0x4f0
 2266 049f 02       		.byte	0x2
 2267 04a0 23       		.byte	0x23
 2268 04a1 10       		.uleb128 0x10
 2269 04a2 06       		.uleb128 0x6
 2270 04a3 3B010000 		.4byte	.LASF67
 2271 04a7 0A       		.byte	0xa
 2272 04a8 4B       		.byte	0x4b
 2273 04a9 F0040000 		.4byte	0x4f0
 2274 04ad 02       		.byte	0x2
 2275 04ae 23       		.byte	0x23
 2276 04af 14       		.uleb128 0x14
 2277 04b0 06       		.uleb128 0x6
 2278 04b1 A7030000 		.4byte	.LASF68
 2279 04b5 0A       		.byte	0xa
 2280 04b6 4C       		.byte	0x4c
 2281 04b7 F0040000 		.4byte	0x4f0
 2282 04bb 02       		.byte	0x2
 2283 04bc 23       		.byte	0x23
 2284 04bd 18       		.uleb128 0x18
 2285 04be 06       		.uleb128 0x6
 2286 04bf 0F050000 		.4byte	.LASF69
 2287 04c3 0A       		.byte	0xa
 2288 04c4 4D       		.byte	0x4d
 2289 04c5 CD040000 		.4byte	0x4cd
 2290 04c9 02       		.byte	0x2
ARM GAS  C:\Users\z80\AppData\Local\Temp\cckPXr2I.s 			page 42


 2291 04ca 23       		.byte	0x23
 2292 04cb 1C       		.uleb128 0x1c
 2293 04cc 00       		.byte	0x0
 2294 04cd 03       		.uleb128 0x3
 2295 04ce 87020000 		.4byte	.LASF70
 2296 04d2 0A       		.byte	0xa
 2297 04d3 3A       		.byte	0x3a
 2298 04d4 D8040000 		.4byte	0x4d8
 2299 04d8 09       		.uleb128 0x9
 2300 04d9 04       		.byte	0x4
 2301 04da DE040000 		.4byte	0x4de
 2302 04de 12       		.uleb128 0x12
 2303 04df 01       		.byte	0x1
 2304 04e0 EA040000 		.4byte	0x4ea
 2305 04e4 13       		.uleb128 0x13
 2306 04e5 EA040000 		.4byte	0x4ea
 2307 04e9 00       		.byte	0x0
 2308 04ea 09       		.uleb128 0x9
 2309 04eb 04       		.byte	0x4
 2310 04ec 53040000 		.4byte	0x453
 2311 04f0 09       		.uleb128 0x9
 2312 04f1 04       		.byte	0x4
 2313 04f2 49000000 		.4byte	0x49
 2314 04f6 03       		.uleb128 0x3
 2315 04f7 7C020000 		.4byte	.LASF71
 2316 04fb 0A       		.byte	0xa
 2317 04fc 76       		.byte	0x76
 2318 04fd 53040000 		.4byte	0x453
 2319 0501 03       		.uleb128 0x3
 2320 0502 26000000 		.4byte	.LASF72
 2321 0506 0A       		.byte	0xa
 2322 0507 E6       		.byte	0xe6
 2323 0508 53040000 		.4byte	0x453
 2324 050c 14       		.uleb128 0x14
 2325 050d 01       		.byte	0x1
 2326 050e 30000000 		.4byte	0x30
 2327 0512 26050000 		.4byte	0x526
 2328 0516 13       		.uleb128 0x13
 2329 0517 80020000 		.4byte	0x280
 2330 051b 13       		.uleb128 0x13
 2331 051c 26050000 		.4byte	0x526
 2332 0520 13       		.uleb128 0x13
 2333 0521 30000000 		.4byte	0x30
 2334 0525 00       		.byte	0x0
 2335 0526 09       		.uleb128 0x9
 2336 0527 04       		.byte	0x4
 2337 0528 2C050000 		.4byte	0x52c
 2338 052c 11       		.uleb128 0x11
 2339 052d 49000000 		.4byte	0x49
 2340 0531 09       		.uleb128 0x9
 2341 0532 04       		.byte	0x4
 2342 0533 0C050000 		.4byte	0x50c
 2343 0537 14       		.uleb128 0x14
 2344 0538 01       		.byte	0x1
 2345 0539 30000000 		.4byte	0x30
 2346 053d 51050000 		.4byte	0x551
 2347 0541 13       		.uleb128 0x13
ARM GAS  C:\Users\z80\AppData\Local\Temp\cckPXr2I.s 			page 43


 2348 0542 80020000 		.4byte	0x280
 2349 0546 13       		.uleb128 0x13
 2350 0547 F0040000 		.4byte	0x4f0
 2351 054b 13       		.uleb128 0x13
 2352 054c 30000000 		.4byte	0x30
 2353 0550 00       		.byte	0x0
 2354 0551 09       		.uleb128 0x9
 2355 0552 04       		.byte	0x4
 2356 0553 37050000 		.4byte	0x537
 2357 0557 14       		.uleb128 0x14
 2358 0558 01       		.byte	0x1
 2359 0559 BC000000 		.4byte	0xbc
 2360 055d 67050000 		.4byte	0x567
 2361 0561 13       		.uleb128 0x13
 2362 0562 80020000 		.4byte	0x280
 2363 0566 00       		.byte	0x0
 2364 0567 09       		.uleb128 0x9
 2365 0568 04       		.byte	0x4
 2366 0569 57050000 		.4byte	0x557
 2367 056d 14       		.uleb128 0x14
 2368 056e 01       		.byte	0x1
 2369 056f E8000000 		.4byte	0xe8
 2370 0573 87050000 		.4byte	0x587
 2371 0577 13       		.uleb128 0x13
 2372 0578 80020000 		.4byte	0x280
 2373 057c 13       		.uleb128 0x13
 2374 057d 49000000 		.4byte	0x49
 2375 0581 13       		.uleb128 0x13
 2376 0582 FE000000 		.4byte	0xfe
 2377 0586 00       		.byte	0x0
 2378 0587 09       		.uleb128 0x9
 2379 0588 04       		.byte	0x4
 2380 0589 6D050000 		.4byte	0x56d
 2381 058d 14       		.uleb128 0x14
 2382 058e 01       		.byte	0x1
 2383 058f E8000000 		.4byte	0xe8
 2384 0593 A2050000 		.4byte	0x5a2
 2385 0597 13       		.uleb128 0x13
 2386 0598 80020000 		.4byte	0x280
 2387 059c 13       		.uleb128 0x13
 2388 059d FE000000 		.4byte	0xfe
 2389 05a1 00       		.byte	0x0
 2390 05a2 09       		.uleb128 0x9
 2391 05a3 04       		.byte	0x4
 2392 05a4 8D050000 		.4byte	0x58d
 2393 05a8 14       		.uleb128 0x14
 2394 05a9 01       		.byte	0x1
 2395 05aa 30000000 		.4byte	0x30
 2396 05ae C7050000 		.4byte	0x5c7
 2397 05b2 13       		.uleb128 0x13
 2398 05b3 80020000 		.4byte	0x280
 2399 05b7 13       		.uleb128 0x13
 2400 05b8 26050000 		.4byte	0x526
 2401 05bc 13       		.uleb128 0x13
 2402 05bd 30000000 		.4byte	0x30
 2403 05c1 13       		.uleb128 0x13
 2404 05c2 FE000000 		.4byte	0xfe
ARM GAS  C:\Users\z80\AppData\Local\Temp\cckPXr2I.s 			page 44


 2405 05c6 00       		.byte	0x0
 2406 05c7 09       		.uleb128 0x9
 2407 05c8 04       		.byte	0x4
 2408 05c9 A8050000 		.4byte	0x5a8
 2409 05cd 14       		.uleb128 0x14
 2410 05ce 01       		.byte	0x1
 2411 05cf 30000000 		.4byte	0x30
 2412 05d3 EC050000 		.4byte	0x5ec
 2413 05d7 13       		.uleb128 0x13
 2414 05d8 80020000 		.4byte	0x280
 2415 05dc 13       		.uleb128 0x13
 2416 05dd F0040000 		.4byte	0x4f0
 2417 05e1 13       		.uleb128 0x13
 2418 05e2 30000000 		.4byte	0x30
 2419 05e6 13       		.uleb128 0x13
 2420 05e7 FE000000 		.4byte	0xfe
 2421 05eb 00       		.byte	0x0
 2422 05ec 09       		.uleb128 0x9
 2423 05ed 04       		.byte	0x4
 2424 05ee CD050000 		.4byte	0x5cd
 2425 05f2 15       		.uleb128 0x15
 2426 05f3 ED020000 		.4byte	.LASF73
 2427 05f7 0B       		.byte	0xb
 2428 05f8 0B01     		.2byte	0x10b
 2429 05fa B1000000 		.4byte	0xb1
 2430 05fe 14       		.uleb128 0x14
 2431 05ff 01       		.byte	0x1
 2432 0600 F2050000 		.4byte	0x5f2
 2433 0604 0E060000 		.4byte	0x60e
 2434 0608 13       		.uleb128 0x13
 2435 0609 80020000 		.4byte	0x280
 2436 060d 00       		.byte	0x0
 2437 060e 09       		.uleb128 0x9
 2438 060f 04       		.byte	0x4
 2439 0610 FE050000 		.4byte	0x5fe
 2440 0614 03       		.uleb128 0x3
 2441 0615 32000000 		.4byte	.LASF74
 2442 0619 0C       		.byte	0xc
 2443 061a 0B       		.byte	0xb
 2444 061b 1F060000 		.4byte	0x61f
 2445 061f 09       		.uleb128 0x9
 2446 0620 04       		.byte	0x4
 2447 0621 25060000 		.4byte	0x625
 2448 0625 12       		.uleb128 0x12
 2449 0626 01       		.byte	0x1
 2450 0627 31060000 		.4byte	0x631
 2451 062b 13       		.uleb128 0x13
 2452 062c F0040000 		.4byte	0x4f0
 2453 0630 00       		.byte	0x0
 2454 0631 0D       		.uleb128 0xd
 2455 0632 62000000 		.4byte	0x62
 2456 0636 0D       		.uleb128 0xd
 2457 0637 74000000 		.4byte	0x74
 2458 063b 16       		.uleb128 0x16
 2459 063c 1C       		.byte	0x1c
 2460 063d 0D       		.byte	0xd
 2461 063e F803     		.2byte	0x3f8
ARM GAS  C:\Users\z80\AppData\Local\Temp\cckPXr2I.s 			page 45


 2462 0640 AE060000 		.4byte	0x6ae
 2463 0644 0B       		.uleb128 0xb
 2464 0645 43524C00 		.ascii	"CRL\000"
 2465 0649 0D       		.byte	0xd
 2466 064a FA03     		.2byte	0x3fa
 2467 064c 3D030000 		.4byte	0x33d
 2468 0650 02       		.byte	0x2
 2469 0651 23       		.byte	0x23
 2470 0652 00       		.uleb128 0x0
 2471 0653 0B       		.uleb128 0xb
 2472 0654 43524800 		.ascii	"CRH\000"
 2473 0658 0D       		.byte	0xd
 2474 0659 FB03     		.2byte	0x3fb
 2475 065b 3D030000 		.4byte	0x33d
 2476 065f 02       		.byte	0x2
 2477 0660 23       		.byte	0x23
 2478 0661 04       		.uleb128 0x4
 2479 0662 0B       		.uleb128 0xb
 2480 0663 49445200 		.ascii	"IDR\000"
 2481 0667 0D       		.byte	0xd
 2482 0668 FC03     		.2byte	0x3fc
 2483 066a 3D030000 		.4byte	0x33d
 2484 066e 02       		.byte	0x2
 2485 066f 23       		.byte	0x23
 2486 0670 08       		.uleb128 0x8
 2487 0671 0B       		.uleb128 0xb
 2488 0672 4F445200 		.ascii	"ODR\000"
 2489 0676 0D       		.byte	0xd
 2490 0677 FD03     		.2byte	0x3fd
 2491 0679 3D030000 		.4byte	0x33d
 2492 067d 02       		.byte	0x2
 2493 067e 23       		.byte	0x23
 2494 067f 0C       		.uleb128 0xc
 2495 0680 17       		.uleb128 0x17
 2496 0681 EB000000 		.4byte	.LASF75
 2497 0685 0D       		.byte	0xd
 2498 0686 FE03     		.2byte	0x3fe
 2499 0688 3D030000 		.4byte	0x33d
 2500 068c 02       		.byte	0x2
 2501 068d 23       		.byte	0x23
 2502 068e 10       		.uleb128 0x10
 2503 068f 0B       		.uleb128 0xb
 2504 0690 42525200 		.ascii	"BRR\000"
 2505 0694 0D       		.byte	0xd
 2506 0695 FF03     		.2byte	0x3ff
 2507 0697 3D030000 		.4byte	0x33d
 2508 069b 02       		.byte	0x2
 2509 069c 23       		.byte	0x23
 2510 069d 14       		.uleb128 0x14
 2511 069e 17       		.uleb128 0x17
 2512 069f E9010000 		.4byte	.LASF76
 2513 06a3 0D       		.byte	0xd
 2514 06a4 0004     		.2byte	0x400
 2515 06a6 3D030000 		.4byte	0x33d
 2516 06aa 02       		.byte	0x2
 2517 06ab 23       		.byte	0x23
 2518 06ac 18       		.uleb128 0x18
ARM GAS  C:\Users\z80\AppData\Local\Temp\cckPXr2I.s 			page 46


 2519 06ad 00       		.byte	0x0
 2520 06ae 15       		.uleb128 0x15
 2521 06af 59010000 		.4byte	.LASF77
 2522 06b3 0D       		.byte	0xd
 2523 06b4 0104     		.2byte	0x401
 2524 06b6 3B060000 		.4byte	0x63b
 2525 06ba 16       		.uleb128 0x16
 2526 06bb 1C       		.byte	0x1c
 2527 06bc 0D       		.byte	0xd
 2528 06bd E104     		.2byte	0x4e1
 2529 06bf 94070000 		.4byte	0x794
 2530 06c3 0B       		.uleb128 0xb
 2531 06c4 535200   		.ascii	"SR\000"
 2532 06c7 0D       		.byte	0xd
 2533 06c8 E304     		.2byte	0x4e3
 2534 06ca 31060000 		.4byte	0x631
 2535 06ce 02       		.byte	0x2
 2536 06cf 23       		.byte	0x23
 2537 06d0 00       		.uleb128 0x0
 2538 06d1 17       		.uleb128 0x17
 2539 06d2 5B030000 		.4byte	.LASF78
 2540 06d6 0D       		.byte	0xd
 2541 06d7 E404     		.2byte	0x4e4
 2542 06d9 62000000 		.4byte	0x62
 2543 06dd 02       		.byte	0x2
 2544 06de 23       		.byte	0x23
 2545 06df 02       		.uleb128 0x2
 2546 06e0 0B       		.uleb128 0xb
 2547 06e1 445200   		.ascii	"DR\000"
 2548 06e4 0D       		.byte	0xd
 2549 06e5 E504     		.2byte	0x4e5
 2550 06e7 31060000 		.4byte	0x631
 2551 06eb 02       		.byte	0x2
 2552 06ec 23       		.byte	0x23
 2553 06ed 04       		.uleb128 0x4
 2554 06ee 17       		.uleb128 0x17
 2555 06ef 65030000 		.4byte	.LASF79
 2556 06f3 0D       		.byte	0xd
 2557 06f4 E604     		.2byte	0x4e6
 2558 06f6 62000000 		.4byte	0x62
 2559 06fa 02       		.byte	0x2
 2560 06fb 23       		.byte	0x23
 2561 06fc 06       		.uleb128 0x6
 2562 06fd 0B       		.uleb128 0xb
 2563 06fe 42525200 		.ascii	"BRR\000"
 2564 0702 0D       		.byte	0xd
 2565 0703 E704     		.2byte	0x4e7
 2566 0705 31060000 		.4byte	0x631
 2567 0709 02       		.byte	0x2
 2568 070a 23       		.byte	0x23
 2569 070b 08       		.uleb128 0x8
 2570 070c 17       		.uleb128 0x17
 2571 070d 6F030000 		.4byte	.LASF80
 2572 0711 0D       		.byte	0xd
 2573 0712 E804     		.2byte	0x4e8
 2574 0714 62000000 		.4byte	0x62
 2575 0718 02       		.byte	0x2
ARM GAS  C:\Users\z80\AppData\Local\Temp\cckPXr2I.s 			page 47


 2576 0719 23       		.byte	0x23
 2577 071a 0A       		.uleb128 0xa
 2578 071b 0B       		.uleb128 0xb
 2579 071c 43523100 		.ascii	"CR1\000"
 2580 0720 0D       		.byte	0xd
 2581 0721 E904     		.2byte	0x4e9
 2582 0723 31060000 		.4byte	0x631
 2583 0727 02       		.byte	0x2
 2584 0728 23       		.byte	0x23
 2585 0729 0C       		.uleb128 0xc
 2586 072a 17       		.uleb128 0x17
 2587 072b 79030000 		.4byte	.LASF81
 2588 072f 0D       		.byte	0xd
 2589 0730 EA04     		.2byte	0x4ea
 2590 0732 62000000 		.4byte	0x62
 2591 0736 02       		.byte	0x2
 2592 0737 23       		.byte	0x23
 2593 0738 0E       		.uleb128 0xe
 2594 0739 0B       		.uleb128 0xb
 2595 073a 43523200 		.ascii	"CR2\000"
 2596 073e 0D       		.byte	0xd
 2597 073f EB04     		.2byte	0x4eb
 2598 0741 31060000 		.4byte	0x631
 2599 0745 02       		.byte	0x2
 2600 0746 23       		.byte	0x23
 2601 0747 10       		.uleb128 0x10
 2602 0748 17       		.uleb128 0x17
 2603 0749 83030000 		.4byte	.LASF82
 2604 074d 0D       		.byte	0xd
 2605 074e EC04     		.2byte	0x4ec
 2606 0750 62000000 		.4byte	0x62
 2607 0754 02       		.byte	0x2
 2608 0755 23       		.byte	0x23
 2609 0756 12       		.uleb128 0x12
 2610 0757 0B       		.uleb128 0xb
 2611 0758 43523300 		.ascii	"CR3\000"
 2612 075c 0D       		.byte	0xd
 2613 075d ED04     		.2byte	0x4ed
 2614 075f 31060000 		.4byte	0x631
 2615 0763 02       		.byte	0x2
 2616 0764 23       		.byte	0x23
 2617 0765 14       		.uleb128 0x14
 2618 0766 17       		.uleb128 0x17
 2619 0767 4B040000 		.4byte	.LASF83
 2620 076b 0D       		.byte	0xd
 2621 076c EE04     		.2byte	0x4ee
 2622 076e 62000000 		.4byte	0x62
 2623 0772 02       		.byte	0x2
 2624 0773 23       		.byte	0x23
 2625 0774 16       		.uleb128 0x16
 2626 0775 17       		.uleb128 0x17
 2627 0776 F0000000 		.4byte	.LASF84
 2628 077a 0D       		.byte	0xd
 2629 077b EF04     		.2byte	0x4ef
 2630 077d 31060000 		.4byte	0x631
 2631 0781 02       		.byte	0x2
 2632 0782 23       		.byte	0x23
ARM GAS  C:\Users\z80\AppData\Local\Temp\cckPXr2I.s 			page 48


 2633 0783 18       		.uleb128 0x18
 2634 0784 17       		.uleb128 0x17
 2635 0785 94030000 		.4byte	.LASF85
 2636 0789 0D       		.byte	0xd
 2637 078a F004     		.2byte	0x4f0
 2638 078c 62000000 		.4byte	0x62
 2639 0790 02       		.byte	0x2
 2640 0791 23       		.byte	0x23
 2641 0792 1A       		.uleb128 0x1a
 2642 0793 00       		.byte	0x0
 2643 0794 15       		.uleb128 0x15
 2644 0795 47020000 		.4byte	.LASF86
 2645 0799 0D       		.byte	0xd
 2646 079a F104     		.2byte	0x4f1
 2647 079c BA060000 		.4byte	0x6ba
 2648 07a0 03       		.uleb128 0x3
 2649 07a1 38000000 		.4byte	.LASF87
 2650 07a5 0E       		.byte	0xe
 2651 07a6 78       		.byte	0x78
 2652 07a7 86000000 		.4byte	0x86
 2653 07ab 18       		.uleb128 0x18
 2654 07ac 01       		.byte	0x1
 2655 07ad 0F       		.byte	0xf
 2656 07ae 64       		.byte	0x64
 2657 07af C6070000 		.4byte	0x7c6
 2658 07b3 19       		.uleb128 0x19
 2659 07b4 41040000 		.4byte	.LASF88
 2660 07b8 00       		.sleb128 0
 2661 07b9 19       		.uleb128 0x19
 2662 07ba F5000000 		.4byte	.LASF89
 2663 07be 01       		.sleb128 1
 2664 07bf 19       		.uleb128 0x19
 2665 07c0 E8040000 		.4byte	.LASF90
 2666 07c4 02       		.sleb128 2
 2667 07c5 00       		.byte	0x0
 2668 07c6 03       		.uleb128 0x3
 2669 07c7 5E040000 		.4byte	.LASF91
 2670 07cb 0F       		.byte	0xf
 2671 07cc 68       		.byte	0x68
 2672 07cd AB070000 		.4byte	0x7ab
 2673 07d1 03       		.uleb128 0x3
 2674 07d2 68040000 		.4byte	.LASF92
 2675 07d6 0F       		.byte	0xf
 2676 07d7 6D       		.byte	0x6d
 2677 07d8 DC070000 		.4byte	0x7dc
 2678 07dc 1A       		.uleb128 0x1a
 2679 07dd 68040000 		.4byte	.LASF92
 2680 07e1 5404     		.2byte	0x454
 2681 07e3 0F       		.byte	0xf
 2682 07e4 87       		.byte	0x87
 2683 07e5 68080000 		.4byte	0x868
 2684 07e9 07       		.uleb128 0x7
 2685 07ea 766D7400 		.ascii	"vmt\000"
 2686 07ee 0F       		.byte	0xf
 2687 07ef 89       		.byte	0x89
 2688 07f0 F3080000 		.4byte	0x8f3
 2689 07f4 02       		.byte	0x2
ARM GAS  C:\Users\z80\AppData\Local\Temp\cckPXr2I.s 			page 49


 2690 07f5 23       		.byte	0x23
 2691 07f6 00       		.uleb128 0x0
 2692 07f7 06       		.uleb128 0x6
 2693 07f8 07020000 		.4byte	.LASF93
 2694 07fc 0F       		.byte	0xf
 2695 07fd 8A       		.byte	0x8a
 2696 07fe F5030000 		.4byte	0x3f5
 2697 0802 02       		.byte	0x2
 2698 0803 23       		.byte	0x23
 2699 0804 04       		.uleb128 0x4
 2700 0805 06       		.uleb128 0x6
 2701 0806 31050000 		.4byte	.LASF94
 2702 080a 0F       		.byte	0xf
 2703 080b 8A       		.byte	0x8a
 2704 080c F2050000 		.4byte	0x5f2
 2705 0810 02       		.byte	0x2
 2706 0811 23       		.byte	0x23
 2707 0812 08       		.uleb128 0x8
 2708 0813 06       		.uleb128 0x6
 2709 0814 1A010000 		.4byte	.LASF95
 2710 0818 0F       		.byte	0xf
 2711 0819 8A       		.byte	0x8a
 2712 081a C6070000 		.4byte	0x7c6
 2713 081e 02       		.byte	0x2
 2714 081f 23       		.byte	0x23
 2715 0820 0C       		.uleb128 0xc
 2716 0821 06       		.uleb128 0x6
 2717 0822 D2010000 		.4byte	.LASF96
 2718 0826 0F       		.byte	0xf
 2719 0827 8A       		.byte	0x8a
 2720 0828 F6040000 		.4byte	0x4f6
 2721 082c 02       		.byte	0x2
 2722 082d 23       		.byte	0x23
 2723 082e 10       		.uleb128 0x10
 2724 082f 06       		.uleb128 0x6
 2725 0830 26020000 		.4byte	.LASF97
 2726 0834 0F       		.byte	0xf
 2727 0835 8A       		.byte	0x8a
 2728 0836 01050000 		.4byte	0x501
 2729 083a 02       		.byte	0x2
 2730 083b 23       		.byte	0x23
 2731 083c 30       		.uleb128 0x30
 2732 083d 07       		.uleb128 0x7
 2733 083e 696200   		.ascii	"ib\000"
 2734 0841 0F       		.byte	0xf
 2735 0842 8A       		.byte	0x8a
 2736 0843 FE080000 		.4byte	0x8fe
 2737 0847 02       		.byte	0x2
 2738 0848 23       		.byte	0x23
 2739 0849 50       		.uleb128 0x50
 2740 084a 07       		.uleb128 0x7
 2741 084b 6F6200   		.ascii	"ob\000"
 2742 084e 0F       		.byte	0xf
 2743 084f 8A       		.byte	0x8a
 2744 0850 FE080000 		.4byte	0x8fe
 2745 0854 03       		.byte	0x3
 2746 0855 23       		.byte	0x23
ARM GAS  C:\Users\z80\AppData\Local\Temp\cckPXr2I.s 			page 50


 2747 0856 D004     		.uleb128 0x250
 2748 0858 06       		.uleb128 0x6
 2749 0859 84010000 		.4byte	.LASF98
 2750 085d 0F       		.byte	0xf
 2751 085e 8A       		.byte	0x8a
 2752 085f 0F090000 		.4byte	0x90f
 2753 0863 03       		.byte	0x3
 2754 0864 23       		.byte	0x23
 2755 0865 D008     		.uleb128 0x450
 2756 0867 00       		.byte	0x0
 2757 0868 05       		.uleb128 0x5
 2758 0869 A0010000 		.4byte	.LASF99
 2759 086d 24       		.byte	0x24
 2760 086e 0F       		.byte	0xf
 2761 086f 7C       		.byte	0x7c
 2762 0870 F3080000 		.4byte	0x8f3
 2763 0874 06       		.uleb128 0x6
 2764 0875 C0020000 		.4byte	.LASF100
 2765 0879 0F       		.byte	0xf
 2766 087a 7D       		.byte	0x7d
 2767 087b 31050000 		.4byte	0x531
 2768 087f 02       		.byte	0x2
 2769 0880 23       		.byte	0x23
 2770 0881 00       		.uleb128 0x0
 2771 0882 06       		.uleb128 0x6
 2772 0883 87040000 		.4byte	.LASF101
 2773 0887 0F       		.byte	0xf
 2774 0888 7D       		.byte	0x7d
 2775 0889 51050000 		.4byte	0x551
 2776 088d 02       		.byte	0x2
 2777 088e 23       		.byte	0x23
 2778 088f 04       		.uleb128 0x4
 2779 0890 06       		.uleb128 0x6
 2780 0891 4B010000 		.4byte	.LASF102
 2781 0895 0F       		.byte	0xf
 2782 0896 7D       		.byte	0x7d
 2783 0897 67050000 		.4byte	0x567
 2784 089b 02       		.byte	0x2
 2785 089c 23       		.byte	0x23
 2786 089d 08       		.uleb128 0x8
 2787 089e 06       		.uleb128 0x6
 2788 089f 5E050000 		.4byte	.LASF103
 2789 08a3 0F       		.byte	0xf
 2790 08a4 7D       		.byte	0x7d
 2791 08a5 67050000 		.4byte	0x567
 2792 08a9 02       		.byte	0x2
 2793 08aa 23       		.byte	0x23
 2794 08ab 0C       		.uleb128 0xc
 2795 08ac 07       		.uleb128 0x7
 2796 08ad 70757400 		.ascii	"put\000"
 2797 08b1 0F       		.byte	0xf
 2798 08b2 7D       		.byte	0x7d
 2799 08b3 87050000 		.4byte	0x587
 2800 08b7 02       		.byte	0x2
 2801 08b8 23       		.byte	0x23
 2802 08b9 10       		.uleb128 0x10
 2803 08ba 07       		.uleb128 0x7
ARM GAS  C:\Users\z80\AppData\Local\Temp\cckPXr2I.s 			page 51


 2804 08bb 67657400 		.ascii	"get\000"
 2805 08bf 0F       		.byte	0xf
 2806 08c0 7D       		.byte	0x7d
 2807 08c1 A2050000 		.4byte	0x5a2
 2808 08c5 02       		.byte	0x2
 2809 08c6 23       		.byte	0x23
 2810 08c7 14       		.uleb128 0x14
 2811 08c8 06       		.uleb128 0x6
 2812 08c9 55020000 		.4byte	.LASF104
 2813 08cd 0F       		.byte	0xf
 2814 08ce 7D       		.byte	0x7d
 2815 08cf C7050000 		.4byte	0x5c7
 2816 08d3 02       		.byte	0x2
 2817 08d4 23       		.byte	0x23
 2818 08d5 18       		.uleb128 0x18
 2819 08d6 06       		.uleb128 0x6
 2820 08d7 BC000000 		.4byte	.LASF105
 2821 08db 0F       		.byte	0xf
 2822 08dc 7D       		.byte	0x7d
 2823 08dd EC050000 		.4byte	0x5ec
 2824 08e1 02       		.byte	0x2
 2825 08e2 23       		.byte	0x23
 2826 08e3 1C       		.uleb128 0x1c
 2827 08e4 06       		.uleb128 0x6
 2828 08e5 D0040000 		.4byte	.LASF106
 2829 08e9 0F       		.byte	0xf
 2830 08ea 7D       		.byte	0x7d
 2831 08eb 0E060000 		.4byte	0x60e
 2832 08ef 02       		.byte	0x2
 2833 08f0 23       		.byte	0x23
 2834 08f1 20       		.uleb128 0x20
 2835 08f2 00       		.byte	0x0
 2836 08f3 09       		.uleb128 0x9
 2837 08f4 04       		.byte	0x4
 2838 08f5 F9080000 		.4byte	0x8f9
 2839 08f9 11       		.uleb128 0x11
 2840 08fa 68080000 		.4byte	0x868
 2841 08fe 1B       		.uleb128 0x1b
 2842 08ff 49000000 		.4byte	0x49
 2843 0903 0F090000 		.4byte	0x90f
 2844 0907 1C       		.uleb128 0x1c
 2845 0908 42030000 		.4byte	0x342
 2846 090c FF01     		.2byte	0x1ff
 2847 090e 00       		.byte	0x0
 2848 090f 09       		.uleb128 0x9
 2849 0910 04       		.byte	0x4
 2850 0911 94070000 		.4byte	0x794
 2851 0915 1D       		.uleb128 0x1d
 2852 0916 EE010000 		.4byte	.LASF109
 2853 091a 01       		.byte	0x1
 2854 091b 91       		.byte	0x91
 2855 091c 01       		.byte	0x1
 2856 091d 01       		.byte	0x1
 2857 091e 39090000 		.4byte	0x939
 2858 0922 1E       		.uleb128 0x1e
 2859 0923 26050000 		.4byte	.LASF107
 2860 0927 01       		.byte	0x1
ARM GAS  C:\Users\z80\AppData\Local\Temp\cckPXr2I.s 			page 52


 2861 0928 93       		.byte	0x93
 2862 0929 29000000 		.4byte	0x29
 2863 092d 1E       		.uleb128 0x1e
 2864 092e 9E030000 		.4byte	.LASF108
 2865 0932 01       		.byte	0x1
 2866 0933 95       		.byte	0x95
 2867 0934 29000000 		.4byte	0x29
 2868 0938 00       		.byte	0x0
 2869 0939 1D       		.uleb128 0x1d
 2870 093a F6030000 		.4byte	.LASF110
 2871 093e 01       		.byte	0x1
 2872 093f 5F       		.byte	0x5f
 2873 0940 01       		.byte	0x1
 2874 0941 01       		.byte	0x1
 2875 0942 7B090000 		.4byte	0x97b
 2876 0946 1F       		.uleb128 0x1f
 2877 0947 62756600 		.ascii	"buf\000"
 2878 094b 01       		.byte	0x1
 2879 094c 5F       		.byte	0x5f
 2880 094d F0040000 		.4byte	0x4f0
 2881 0951 1F       		.uleb128 0x1f
 2882 0952 737A00   		.ascii	"sz\000"
 2883 0955 01       		.byte	0x1
 2884 0956 5F       		.byte	0x5f
 2885 0957 29000000 		.4byte	0x29
 2886 095b 20       		.uleb128 0x20
 2887 095c 6900     		.ascii	"i\000"
 2888 095e 01       		.byte	0x1
 2889 095f 61       		.byte	0x61
 2890 0960 29000000 		.4byte	0x29
 2891 0964 20       		.uleb128 0x20
 2892 0965 636D6400 		.ascii	"cmd\000"
 2893 0969 01       		.byte	0x1
 2894 096a 62       		.byte	0x62
 2895 096b 49000000 		.4byte	0x49
 2896 096f 1E       		.uleb128 0x1e
 2897 0970 CB040000 		.4byte	.LASF111
 2898 0974 01       		.byte	0x1
 2899 0975 64       		.byte	0x64
 2900 0976 F0040000 		.4byte	0x4f0
 2901 097a 00       		.byte	0x0
 2902 097b 21       		.uleb128 0x21
 2903 097c 45030000 		.4byte	.LASF112
 2904 0980 01       		.byte	0x1
 2905 0981 1301     		.2byte	0x113
 2906 0983 01       		.byte	0x1
 2907 0984 00000000 		.4byte	.LFB81
 2908 0988 34000000 		.4byte	.LFE81
 2909 098c 00000000 		.4byte	.LLST0
 2910 0990 A3090000 		.4byte	0x9a3
 2911 0994 22       		.uleb128 0x22
 2912 0995 7600     		.ascii	"v\000"
 2913 0997 01       		.byte	0x1
 2914 0998 1301     		.2byte	0x113
 2915 099a 49000000 		.4byte	0x49
 2916 099e 20000000 		.4byte	.LLST1
 2917 09a2 00       		.byte	0x0
ARM GAS  C:\Users\z80\AppData\Local\Temp\cckPXr2I.s 			page 53


 2918 09a3 23       		.uleb128 0x23
 2919 09a4 00000000 		.4byte	.LASF139
 2920 09a8 01       		.byte	0x1
 2921 09a9 1A01     		.2byte	0x11a
 2922 09ab 01       		.byte	0x1
 2923 09ac 00000000 		.4byte	.LFB82
 2924 09b0 14000000 		.4byte	.LFE82
 2925 09b4 33000000 		.4byte	.LLST2
 2926 09b8 21       		.uleb128 0x21
 2927 09b9 36020000 		.4byte	.LASF113
 2928 09bd 01       		.byte	0x1
 2929 09be 0301     		.2byte	0x103
 2930 09c0 01       		.byte	0x1
 2931 09c1 00000000 		.4byte	.LFB80
 2932 09c5 30000000 		.4byte	.LFE80
 2933 09c9 53000000 		.4byte	.LLST3
 2934 09cd 0A0A0000 		.4byte	0xa0a
 2935 09d1 24       		.uleb128 0x24
 2936 09d2 6C050000 		.4byte	.LASF114
 2937 09d6 01       		.byte	0x1
 2938 09d7 0301     		.2byte	0x103
 2939 09d9 F0040000 		.4byte	0x4f0
 2940 09dd 7F000000 		.4byte	.LLST4
 2941 09e1 25       		.uleb128 0x25
 2942 09e2 E4010000 		.4byte	.LASF115
 2943 09e6 01       		.byte	0x1
 2944 09e7 0601     		.2byte	0x106
 2945 09e9 1A0A0000 		.4byte	0xa1a
 2946 09ed 02       		.byte	0x2
 2947 09ee 91       		.byte	0x91
 2948 09ef 68       		.sleb128 -24
 2949 09f0 26       		.uleb128 0x26
 2950 09f1 6C00     		.ascii	"l\000"
 2951 09f3 01       		.byte	0x1
 2952 09f4 0701     		.2byte	0x107
 2953 09f6 29000000 		.4byte	0x29
 2954 09fa 05       		.byte	0x5
 2955 09fb 27       		.uleb128 0x27
 2956 09fc 6900     		.ascii	"i\000"
 2957 09fe 01       		.byte	0x1
 2958 09ff 0801     		.2byte	0x108
 2959 0a01 29000000 		.4byte	0x29
 2960 0a05 92000000 		.4byte	.LLST5
 2961 0a09 00       		.byte	0x0
 2962 0a0a 1B       		.uleb128 0x1b
 2963 0a0b 49000000 		.4byte	0x49
 2964 0a0f 1A0A0000 		.4byte	0xa1a
 2965 0a13 28       		.uleb128 0x28
 2966 0a14 42030000 		.4byte	0x342
 2967 0a18 05       		.byte	0x5
 2968 0a19 00       		.byte	0x0
 2969 0a1a 11       		.uleb128 0x11
 2970 0a1b 0A0A0000 		.4byte	0xa0a
 2971 0a1f 29       		.uleb128 0x29
 2972 0a20 B7010000 		.4byte	.LASF116
 2973 0a24 01       		.byte	0x1
 2974 0a25 F8       		.byte	0xf8
ARM GAS  C:\Users\z80\AppData\Local\Temp\cckPXr2I.s 			page 54


 2975 0a26 01       		.byte	0x1
 2976 0a27 00000000 		.4byte	.LFB79
 2977 0a2b 30000000 		.4byte	.LFE79
 2978 0a2f A6000000 		.4byte	.LLST6
 2979 0a33 6C0A0000 		.4byte	0xa6c
 2980 0a37 2A       		.uleb128 0x2a
 2981 0a38 6C050000 		.4byte	.LASF114
 2982 0a3c 01       		.byte	0x1
 2983 0a3d F8       		.byte	0xf8
 2984 0a3e F0040000 		.4byte	0x4f0
 2985 0a42 D2000000 		.4byte	.LLST7
 2986 0a46 2B       		.uleb128 0x2b
 2987 0a47 E4010000 		.4byte	.LASF115
 2988 0a4b 01       		.byte	0x1
 2989 0a4c FB       		.byte	0xfb
 2990 0a4d 7C0A0000 		.4byte	0xa7c
 2991 0a51 02       		.byte	0x2
 2992 0a52 91       		.byte	0x91
 2993 0a53 60       		.sleb128 -32
 2994 0a54 2C       		.uleb128 0x2c
 2995 0a55 6C00     		.ascii	"l\000"
 2996 0a57 01       		.byte	0x1
 2997 0a58 FC       		.byte	0xfc
 2998 0a59 29000000 		.4byte	0x29
 2999 0a5d 0D       		.byte	0xd
 3000 0a5e 2D       		.uleb128 0x2d
 3001 0a5f 6900     		.ascii	"i\000"
 3002 0a61 01       		.byte	0x1
 3003 0a62 FD       		.byte	0xfd
 3004 0a63 29000000 		.4byte	0x29
 3005 0a67 E5000000 		.4byte	.LLST8
 3006 0a6b 00       		.byte	0x0
 3007 0a6c 1B       		.uleb128 0x1b
 3008 0a6d 49000000 		.4byte	0x49
 3009 0a71 7C0A0000 		.4byte	0xa7c
 3010 0a75 28       		.uleb128 0x28
 3011 0a76 42030000 		.4byte	0x342
 3012 0a7a 0D       		.byte	0xd
 3013 0a7b 00       		.byte	0x0
 3014 0a7c 11       		.uleb128 0x11
 3015 0a7d 6C0A0000 		.4byte	0xa6c
 3016 0a81 29       		.uleb128 0x29
 3017 0a82 C8010000 		.4byte	.LASF117
 3018 0a86 01       		.byte	0x1
 3019 0a87 F1       		.byte	0xf1
 3020 0a88 01       		.byte	0x1
 3021 0a89 00000000 		.4byte	.LFB78
 3022 0a8d 12000000 		.4byte	.LFE78
 3023 0a91 F9000000 		.4byte	.LLST9
 3024 0a95 B60A0000 		.4byte	0xab6
 3025 0a99 2A       		.uleb128 0x2a
 3026 0a9a 6C050000 		.4byte	.LASF114
 3027 0a9e 01       		.byte	0x1
 3028 0a9f F1       		.byte	0xf1
 3029 0aa0 F0040000 		.4byte	0x4f0
 3030 0aa4 19010000 		.4byte	.LLST10
 3031 0aa8 2D       		.uleb128 0x2d
ARM GAS  C:\Users\z80\AppData\Local\Temp\cckPXr2I.s 			page 55


 3032 0aa9 7100     		.ascii	"q\000"
 3033 0aab 01       		.byte	0x1
 3034 0aac F4       		.byte	0xf4
 3035 0aad B60A0000 		.4byte	0xab6
 3036 0ab1 2C010000 		.4byte	.LLST11
 3037 0ab5 00       		.byte	0x0
 3038 0ab6 09       		.uleb128 0x9
 3039 0ab7 04       		.byte	0x4
 3040 0ab8 01050000 		.4byte	0x501
 3041 0abc 29       		.uleb128 0x29
 3042 0abd 24040000 		.4byte	.LASF118
 3043 0ac1 01       		.byte	0x1
 3044 0ac2 EA       		.byte	0xea
 3045 0ac3 01       		.byte	0x1
 3046 0ac4 00000000 		.4byte	.LFB77
 3047 0ac8 12000000 		.4byte	.LFE77
 3048 0acc 3F010000 		.4byte	.LLST12
 3049 0ad0 F10A0000 		.4byte	0xaf1
 3050 0ad4 2A       		.uleb128 0x2a
 3051 0ad5 6C050000 		.4byte	.LASF114
 3052 0ad9 01       		.byte	0x1
 3053 0ada EA       		.byte	0xea
 3054 0adb F0040000 		.4byte	0x4f0
 3055 0adf 5F010000 		.4byte	.LLST13
 3056 0ae3 2D       		.uleb128 0x2d
 3057 0ae4 7100     		.ascii	"q\000"
 3058 0ae6 01       		.byte	0x1
 3059 0ae7 ED       		.byte	0xed
 3060 0ae8 B60A0000 		.4byte	0xab6
 3061 0aec 72010000 		.4byte	.LLST14
 3062 0af0 00       		.byte	0x0
 3063 0af1 29       		.uleb128 0x29
 3064 0af2 71000000 		.4byte	.LASF119
 3065 0af6 01       		.byte	0x1
 3066 0af7 E3       		.byte	0xe3
 3067 0af8 01       		.byte	0x1
 3068 0af9 00000000 		.4byte	.LFB76
 3069 0afd 12000000 		.4byte	.LFE76
 3070 0b01 85010000 		.4byte	.LLST15
 3071 0b05 260B0000 		.4byte	0xb26
 3072 0b09 2A       		.uleb128 0x2a
 3073 0b0a 6C050000 		.4byte	.LASF114
 3074 0b0e 01       		.byte	0x1
 3075 0b0f E3       		.byte	0xe3
 3076 0b10 F0040000 		.4byte	0x4f0
 3077 0b14 A5010000 		.4byte	.LLST16
 3078 0b18 2D       		.uleb128 0x2d
 3079 0b19 7100     		.ascii	"q\000"
 3080 0b1b 01       		.byte	0x1
 3081 0b1c E6       		.byte	0xe6
 3082 0b1d B60A0000 		.4byte	0xab6
 3083 0b21 B8010000 		.4byte	.LLST17
 3084 0b25 00       		.byte	0x0
 3085 0b26 29       		.uleb128 0x29
 3086 0b27 B8020000 		.4byte	.LASF120
 3087 0b2b 01       		.byte	0x1
 3088 0b2c DC       		.byte	0xdc
ARM GAS  C:\Users\z80\AppData\Local\Temp\cckPXr2I.s 			page 56


 3089 0b2d 01       		.byte	0x1
 3090 0b2e 00000000 		.4byte	.LFB75
 3091 0b32 12000000 		.4byte	.LFE75
 3092 0b36 CB010000 		.4byte	.LLST18
 3093 0b3a 5B0B0000 		.4byte	0xb5b
 3094 0b3e 2A       		.uleb128 0x2a
 3095 0b3f 6C050000 		.4byte	.LASF114
 3096 0b43 01       		.byte	0x1
 3097 0b44 DC       		.byte	0xdc
 3098 0b45 F0040000 		.4byte	0x4f0
 3099 0b49 EB010000 		.4byte	.LLST19
 3100 0b4d 2D       		.uleb128 0x2d
 3101 0b4e 7100     		.ascii	"q\000"
 3102 0b50 01       		.byte	0x1
 3103 0b51 DF       		.byte	0xdf
 3104 0b52 B60A0000 		.4byte	0xab6
 3105 0b56 FE010000 		.4byte	.LLST20
 3106 0b5a 00       		.byte	0x0
 3107 0b5b 29       		.uleb128 0x29
 3108 0b5c 91000000 		.4byte	.LASF121
 3109 0b60 01       		.byte	0x1
 3110 0b61 D7       		.byte	0xd7
 3111 0b62 01       		.byte	0x1
 3112 0b63 00000000 		.4byte	.LFB74
 3113 0b67 0A000000 		.4byte	.LFE74
 3114 0b6b 11020000 		.4byte	.LLST21
 3115 0b6f 830B0000 		.4byte	0xb83
 3116 0b73 2A       		.uleb128 0x2a
 3117 0b74 6C050000 		.4byte	.LASF114
 3118 0b78 01       		.byte	0x1
 3119 0b79 D7       		.byte	0xd7
 3120 0b7a F0040000 		.4byte	0x4f0
 3121 0b7e 31020000 		.4byte	.LLST22
 3122 0b82 00       		.byte	0x0
 3123 0b83 29       		.uleb128 0x29
 3124 0b84 2F030000 		.4byte	.LASF122
 3125 0b88 01       		.byte	0x1
 3126 0b89 D2       		.byte	0xd2
 3127 0b8a 01       		.byte	0x1
 3128 0b8b 00000000 		.4byte	.LFB73
 3129 0b8f 0A000000 		.4byte	.LFE73
 3130 0b93 44020000 		.4byte	.LLST23
 3131 0b97 AB0B0000 		.4byte	0xbab
 3132 0b9b 2A       		.uleb128 0x2a
 3133 0b9c 6C050000 		.4byte	.LASF114
 3134 0ba0 01       		.byte	0x1
 3135 0ba1 D2       		.byte	0xd2
 3136 0ba2 F0040000 		.4byte	0x4f0
 3137 0ba6 64020000 		.4byte	.LLST24
 3138 0baa 00       		.byte	0x0
 3139 0bab 29       		.uleb128 0x29
 3140 0bac 66010000 		.4byte	.LASF123
 3141 0bb0 01       		.byte	0x1
 3142 0bb1 CD       		.byte	0xcd
 3143 0bb2 01       		.byte	0x1
 3144 0bb3 00000000 		.4byte	.LFB72
 3145 0bb7 0A000000 		.4byte	.LFE72
ARM GAS  C:\Users\z80\AppData\Local\Temp\cckPXr2I.s 			page 57


 3146 0bbb 77020000 		.4byte	.LLST25
 3147 0bbf D30B0000 		.4byte	0xbd3
 3148 0bc3 2A       		.uleb128 0x2a
 3149 0bc4 6C050000 		.4byte	.LASF114
 3150 0bc8 01       		.byte	0x1
 3151 0bc9 CD       		.byte	0xcd
 3152 0bca F0040000 		.4byte	0x4f0
 3153 0bce 97020000 		.4byte	.LLST26
 3154 0bd2 00       		.byte	0x0
 3155 0bd3 29       		.uleb128 0x29
 3156 0bd4 C2000000 		.4byte	.LASF124
 3157 0bd8 01       		.byte	0x1
 3158 0bd9 C2       		.byte	0xc2
 3159 0bda 01       		.byte	0x1
 3160 0bdb 00000000 		.4byte	.LFB71
 3161 0bdf 1C000000 		.4byte	.LFE71
 3162 0be3 AA020000 		.4byte	.LLST27
 3163 0be7 060C0000 		.4byte	0xc06
 3164 0beb 2A       		.uleb128 0x2a
 3165 0bec 6C050000 		.4byte	.LASF114
 3166 0bf0 01       		.byte	0x1
 3167 0bf1 C2       		.byte	0xc2
 3168 0bf2 F0040000 		.4byte	0x4f0
 3169 0bf6 CA020000 		.4byte	.LLST28
 3170 0bfa 1E       		.uleb128 0x1e
 3171 0bfb 45000000 		.4byte	.LASF125
 3172 0bff 01       		.byte	0x1
 3173 0c00 C5       		.byte	0xc5
 3174 0c01 86000000 		.4byte	0x86
 3175 0c05 00       		.byte	0x0
 3176 0c06 29       		.uleb128 0x29
 3177 0c07 0C010000 		.4byte	.LASF126
 3178 0c0b 01       		.byte	0x1
 3179 0c0c 9A       		.byte	0x9a
 3180 0c0d 01       		.byte	0x1
 3181 0c0e 00000000 		.4byte	.LFB67
 3182 0c12 44000000 		.4byte	.LFE67
 3183 0c16 DD020000 		.4byte	.LLST29
 3184 0c1a AD0C0000 		.4byte	0xcad
 3185 0c1e 2E       		.uleb128 0x2e
 3186 0c1f 7100     		.ascii	"q\000"
 3187 0c21 01       		.byte	0x1
 3188 0c22 9A       		.byte	0x9a
 3189 0c23 AD0C0000 		.4byte	0xcad
 3190 0c27 FD020000 		.4byte	.LLST30
 3191 0c2b 2D       		.uleb128 0x2d
 3192 0c2c 6D736700 		.ascii	"msg\000"
 3193 0c30 01       		.byte	0x1
 3194 0c31 9C       		.byte	0x9c
 3195 0c32 E8000000 		.4byte	0xe8
 3196 0c36 1B030000 		.4byte	.LLST31
 3197 0c3a 2F       		.uleb128 0x2f
 3198 0c3b F8010000 		.4byte	.LASF127
 3199 0c3f 01       		.byte	0x1
 3200 0c40 9D       		.byte	0x9d
 3201 0c41 49000000 		.4byte	0x49
 3202 0c45 3B030000 		.4byte	.LLST32
ARM GAS  C:\Users\z80\AppData\Local\Temp\cckPXr2I.s 			page 58


 3203 0c49 30       		.uleb128 0x30
 3204 0c4a 636E7400 		.ascii	"cnt\000"
 3205 0c4e 01       		.byte	0x1
 3206 0c4f 9E       		.byte	0x9e
 3207 0c50 30000000 		.4byte	0x30
 3208 0c54 01       		.byte	0x1
 3209 0c55 54       		.byte	0x54
 3210 0c56 2D       		.uleb128 0x2d
 3211 0c57 6900     		.ascii	"i\000"
 3212 0c59 01       		.byte	0x1
 3213 0c5a 9E       		.byte	0x9e
 3214 0c5b 30000000 		.4byte	0x30
 3215 0c5f 75030000 		.4byte	.LLST33
 3216 0c63 31       		.uleb128 0x31
 3217 0c64 00000000 		.4byte	.Ldebug_ranges0+0x0
 3218 0c68 7C0C0000 		.4byte	0xc7c
 3219 0c6c 2D       		.uleb128 0x2d
 3220 0c6d 746D7000 		.ascii	"tmp\000"
 3221 0c71 01       		.byte	0x1
 3222 0c72 9F       		.byte	0x9f
 3223 0c73 86000000 		.4byte	0x86
 3224 0c77 94030000 		.4byte	.LLST34
 3225 0c7b 00       		.byte	0x0
 3226 0c7c 32       		.uleb128 0x32
 3227 0c7d 18000000 		.4byte	.LBB11
 3228 0c81 1E000000 		.4byte	.LBE11
 3229 0c85 990C0000 		.4byte	0xc99
 3230 0c89 2D       		.uleb128 0x2d
 3231 0c8a 746D7000 		.ascii	"tmp\000"
 3232 0c8e 01       		.byte	0x1
 3233 0c8f A1       		.byte	0xa1
 3234 0c90 86000000 		.4byte	0x86
 3235 0c94 A7030000 		.4byte	.LLST35
 3236 0c98 00       		.byte	0x0
 3237 0c99 33       		.uleb128 0x33
 3238 0c9a 18000000 		.4byte	.Ldebug_ranges0+0x18
 3239 0c9e 2D       		.uleb128 0x2d
 3240 0c9f 7600     		.ascii	"v\000"
 3241 0ca1 01       		.byte	0x1
 3242 0ca2 A6       		.byte	0xa6
 3243 0ca3 49000000 		.4byte	0x49
 3244 0ca7 C5030000 		.4byte	.LLST36
 3245 0cab 00       		.byte	0x0
 3246 0cac 00       		.byte	0x0
 3247 0cad 09       		.uleb128 0x9
 3248 0cae 04       		.byte	0x4
 3249 0caf F6040000 		.4byte	0x4f6
 3250 0cb3 29       		.uleb128 0x29
 3251 0cb4 2D020000 		.4byte	.LASF128
 3252 0cb8 01       		.byte	0x1
 3253 0cb9 BB       		.byte	0xbb
 3254 0cba 01       		.byte	0x1
 3255 0cbb 00000000 		.4byte	.LFB70
 3256 0cbf 0C000000 		.4byte	.LFE70
 3257 0cc3 D8030000 		.4byte	.LLST37
 3258 0cc7 E80C0000 		.4byte	0xce8
 3259 0ccb 2A       		.uleb128 0x2a
ARM GAS  C:\Users\z80\AppData\Local\Temp\cckPXr2I.s 			page 59


 3260 0ccc 6C050000 		.4byte	.LASF114
 3261 0cd0 01       		.byte	0x1
 3262 0cd1 BB       		.byte	0xbb
 3263 0cd2 F0040000 		.4byte	0x4f0
 3264 0cd6 F8030000 		.4byte	.LLST38
 3265 0cda 2D       		.uleb128 0x2d
 3266 0cdb 7100     		.ascii	"q\000"
 3267 0cdd 01       		.byte	0x1
 3268 0cde BE       		.byte	0xbe
 3269 0cdf AD0C0000 		.4byte	0xcad
 3270 0ce3 0B040000 		.4byte	.LLST39
 3271 0ce7 00       		.byte	0x0
 3272 0ce8 29       		.uleb128 0x29
 3273 0ce9 AF030000 		.4byte	.LASF129
 3274 0ced 01       		.byte	0x1
 3275 0cee B4       		.byte	0xb4
 3276 0cef 01       		.byte	0x1
 3277 0cf0 00000000 		.4byte	.LFB69
 3278 0cf4 0C000000 		.4byte	.LFE69
 3279 0cf8 1E040000 		.4byte	.LLST40
 3280 0cfc 1D0D0000 		.4byte	0xd1d
 3281 0d00 2A       		.uleb128 0x2a
 3282 0d01 6C050000 		.4byte	.LASF114
 3283 0d05 01       		.byte	0x1
 3284 0d06 B4       		.byte	0xb4
 3285 0d07 F0040000 		.4byte	0x4f0
 3286 0d0b 3E040000 		.4byte	.LLST41
 3287 0d0f 2D       		.uleb128 0x2d
 3288 0d10 7100     		.ascii	"q\000"
 3289 0d12 01       		.byte	0x1
 3290 0d13 B7       		.byte	0xb7
 3291 0d14 AD0C0000 		.4byte	0xcad
 3292 0d18 51040000 		.4byte	.LLST42
 3293 0d1c 00       		.byte	0x0
 3294 0d1d 29       		.uleb128 0x29
 3295 0d1e F1040000 		.4byte	.LASF130
 3296 0d22 01       		.byte	0x1
 3297 0d23 AD       		.byte	0xad
 3298 0d24 01       		.byte	0x1
 3299 0d25 00000000 		.4byte	.LFB68
 3300 0d29 0C000000 		.4byte	.LFE68
 3301 0d2d 64040000 		.4byte	.LLST43
 3302 0d31 520D0000 		.4byte	0xd52
 3303 0d35 2A       		.uleb128 0x2a
 3304 0d36 6C050000 		.4byte	.LASF114
 3305 0d3a 01       		.byte	0x1
 3306 0d3b AD       		.byte	0xad
 3307 0d3c F0040000 		.4byte	0x4f0
 3308 0d40 84040000 		.4byte	.LLST44
 3309 0d44 2D       		.uleb128 0x2d
 3310 0d45 7100     		.ascii	"q\000"
 3311 0d47 01       		.byte	0x1
 3312 0d48 B0       		.byte	0xb0
 3313 0d49 AD0C0000 		.4byte	0xcad
 3314 0d4d 97040000 		.4byte	.LLST45
 3315 0d51 00       		.byte	0x0
 3316 0d52 34       		.uleb128 0x34
ARM GAS  C:\Users\z80\AppData\Local\Temp\cckPXr2I.s 			page 60


 3317 0d53 01       		.byte	0x1
 3318 0d54 91040000 		.4byte	.LASF140
 3319 0d58 01       		.byte	0x1
 3320 0d59 21       		.byte	0x21
 3321 0d5a 01       		.byte	0x1
 3322 0d5b 00000000 		.4byte	.LFB62
 3323 0d5f 32000000 		.4byte	.LFE62
 3324 0d63 AA040000 		.4byte	.LLST46
 3325 0d67 35       		.uleb128 0x35
 3326 0d68 01       		.byte	0x1
 3327 0d69 DE020000 		.4byte	.LASF141
 3328 0d6d 01       		.byte	0x1
 3329 0d6e 2B       		.byte	0x2b
 3330 0d6f 01       		.byte	0x1
 3331 0d70 00000000 		.4byte	.LFB63
 3332 0d74 C4000000 		.4byte	.LFE63
 3333 0d78 CA040000 		.4byte	.LLST47
 3334 0d7c 3C0E0000 		.4byte	0xe3c
 3335 0d80 2B       		.uleb128 0x2b
 3336 0d81 58050000 		.4byte	.LASF131
 3337 0d85 01       		.byte	0x1
 3338 0d86 2D       		.byte	0x2d
 3339 0d87 49000000 		.4byte	0x49
 3340 0d8b 05       		.byte	0x5
 3341 0d8c 03       		.byte	0x3
 3342 0d8d 00000000 		.4byte	slash.3686
 3343 0d91 2B       		.uleb128 0x2b
 3344 0d92 9E000000 		.4byte	.LASF132
 3345 0d96 01       		.byte	0x1
 3346 0d97 2E       		.byte	0x2e
 3347 0d98 29000000 		.4byte	0x29
 3348 0d9c 05       		.byte	0x5
 3349 0d9d 03       		.byte	0x3
 3350 0d9e 00000000 		.4byte	out_index.3687
 3351 0da2 2D       		.uleb128 0x2d
 3352 0da3 6D736700 		.ascii	"msg\000"
 3353 0da7 01       		.byte	0x1
 3354 0da8 39       		.byte	0x39
 3355 0da9 E8000000 		.4byte	0xe8
 3356 0dad EA040000 		.4byte	.LLST48
 3357 0db1 2F       		.uleb128 0x2f
 3358 0db2 F8010000 		.4byte	.LASF127
 3359 0db6 01       		.byte	0x1
 3360 0db7 3B       		.byte	0x3b
 3361 0db8 49000000 		.4byte	0x49
 3362 0dbc 0A050000 		.4byte	.LLST49
 3363 0dc0 33       		.uleb128 0x33
 3364 0dc1 30000000 		.4byte	.Ldebug_ranges0+0x30
 3365 0dc5 2D       		.uleb128 0x2d
 3366 0dc6 7600     		.ascii	"v\000"
 3367 0dc8 01       		.byte	0x1
 3368 0dc9 3E       		.byte	0x3e
 3369 0dca 49000000 		.4byte	0x49
 3370 0dce 44050000 		.4byte	.LLST50
 3371 0dd2 36       		.uleb128 0x36
 3372 0dd3 39090000 		.4byte	0x939
 3373 0dd7 1C000000 		.4byte	.LBB17
ARM GAS  C:\Users\z80\AppData\Local\Temp\cckPXr2I.s 			page 61


 3374 0ddb 48000000 		.4byte	.Ldebug_ranges0+0x48
 3375 0ddf 01       		.byte	0x1
 3376 0de0 45       		.byte	0x45
 3377 0de1 37       		.uleb128 0x37
 3378 0de2 51090000 		.4byte	0x951
 3379 0de6 6D050000 		.4byte	.LLST51
 3380 0dea 37       		.uleb128 0x37
 3381 0deb 46090000 		.4byte	0x946
 3382 0def B8050000 		.4byte	.LLST52
 3383 0df3 33       		.uleb128 0x33
 3384 0df4 78000000 		.4byte	.Ldebug_ranges0+0x78
 3385 0df8 38       		.uleb128 0x38
 3386 0df9 5B090000 		.4byte	0x95b
 3387 0dfd F0050000 		.4byte	.LLST53
 3388 0e01 38       		.uleb128 0x38
 3389 0e02 64090000 		.4byte	0x964
 3390 0e06 04060000 		.4byte	.LLST54
 3391 0e0a 38       		.uleb128 0x38
 3392 0e0b 6F090000 		.4byte	0x96f
 3393 0e0f 39060000 		.4byte	.LLST55
 3394 0e13 36       		.uleb128 0x36
 3395 0e14 15090000 		.4byte	0x915
 3396 0e18 2C000000 		.4byte	.LBB22
 3397 0e1c A8000000 		.4byte	.Ldebug_ranges0+0xa8
 3398 0e20 01       		.byte	0x1
 3399 0e21 6D       		.byte	0x6d
 3400 0e22 33       		.uleb128 0x33
 3401 0e23 C8000000 		.4byte	.Ldebug_ranges0+0xc8
 3402 0e27 38       		.uleb128 0x38
 3403 0e28 22090000 		.4byte	0x922
 3404 0e2c 71060000 		.4byte	.LLST56
 3405 0e30 39       		.uleb128 0x39
 3406 0e31 2D090000 		.4byte	0x92d
 3407 0e35 0D       		.byte	0xd
 3408 0e36 00       		.byte	0x0
 3409 0e37 00       		.byte	0x0
 3410 0e38 00       		.byte	0x0
 3411 0e39 00       		.byte	0x0
 3412 0e3a 00       		.byte	0x0
 3413 0e3b 00       		.byte	0x0
 3414 0e3c 3A       		.uleb128 0x3a
 3415 0e3d 01       		.byte	0x1
 3416 0e3e 7F000000 		.4byte	.LASF142
 3417 0e42 01       		.byte	0x1
 3418 0e43 58       		.byte	0x58
 3419 0e44 01       		.byte	0x1
 3420 0e45 F0040000 		.4byte	0x4f0
 3421 0e49 00000000 		.4byte	.LFB64
 3422 0e4d 0A000000 		.4byte	.LFE64
 3423 0e51 02       		.byte	0x2
 3424 0e52 7D       		.byte	0x7d
 3425 0e53 00       		.sleb128 0
 3426 0e54 3B       		.uleb128 0x3b
 3427 0e55 A8000000 		.4byte	.LASF133
 3428 0e59 10       		.byte	0x10
 3429 0e5a 9404     		.2byte	0x494
 3430 0e5c 36060000 		.4byte	0x636
ARM GAS  C:\Users\z80\AppData\Local\Temp\cckPXr2I.s 			page 62


 3431 0e60 01       		.byte	0x1
 3432 0e61 01       		.byte	0x1
 3433 0e62 3C       		.uleb128 0x3c
 3434 0e63 53443100 		.ascii	"SD1\000"
 3435 0e67 11       		.byte	0x11
 3436 0e68 FB       		.byte	0xfb
 3437 0e69 D1070000 		.4byte	0x7d1
 3438 0e6d 01       		.byte	0x1
 3439 0e6e 01       		.byte	0x1
 3440 0e6f 1B       		.uleb128 0x1b
 3441 0e70 49000000 		.4byte	0x49
 3442 0e74 7F0E0000 		.4byte	0xe7f
 3443 0e78 28       		.uleb128 0x28
 3444 0e79 42030000 		.4byte	0x342
 3445 0e7d 1F       		.byte	0x1f
 3446 0e7e 00       		.byte	0x0
 3447 0e7f 2B       		.uleb128 0x2b
 3448 0e80 B9040000 		.4byte	.LASF134
 3449 0e84 01       		.byte	0x1
 3450 0e85 18       		.byte	0x18
 3451 0e86 6F0E0000 		.4byte	0xe6f
 3452 0e8a 05       		.byte	0x5
 3453 0e8b 03       		.byte	0x3
 3454 0e8c 00000000 		.4byte	buffer
 3455 0e90 2B       		.uleb128 0x2b
 3456 0e91 6C050000 		.4byte	.LASF114
 3457 0e95 01       		.byte	0x1
 3458 0e96 19       		.byte	0x19
 3459 0e97 6F0E0000 		.4byte	0xe6f
 3460 0e9b 05       		.byte	0x5
 3461 0e9c 03       		.byte	0x3
 3462 0e9d 00000000 		.4byte	args
 3463 0ea1 1B       		.uleb128 0x1b
 3464 0ea2 14060000 		.4byte	0x614
 3465 0ea6 B10E0000 		.4byte	0xeb1
 3466 0eaa 28       		.uleb128 0x28
 3467 0eab 42030000 		.4byte	0x342
 3468 0eaf 0C       		.byte	0xc
 3469 0eb0 00       		.byte	0x0
 3470 0eb1 2B       		.uleb128 0x2b
 3471 0eb2 20000000 		.4byte	.LASF135
 3472 0eb6 01       		.byte	0x1
 3473 0eb7 80       		.byte	0x80
 3474 0eb8 C20E0000 		.4byte	0xec2
 3475 0ebc 05       		.byte	0x5
 3476 0ebd 03       		.byte	0x3
 3477 0ebe 00000000 		.4byte	funcs
 3478 0ec2 11       		.uleb128 0x11
 3479 0ec3 A10E0000 		.4byte	0xea1
 3480 0ec7 3B       		.uleb128 0x3b
 3481 0ec8 A8000000 		.4byte	.LASF133
 3482 0ecc 10       		.byte	0x10
 3483 0ecd 9404     		.2byte	0x494
 3484 0ecf 36060000 		.4byte	0x636
 3485 0ed3 01       		.byte	0x1
 3486 0ed4 01       		.byte	0x1
 3487 0ed5 3C       		.uleb128 0x3c
ARM GAS  C:\Users\z80\AppData\Local\Temp\cckPXr2I.s 			page 63


 3488 0ed6 53443100 		.ascii	"SD1\000"
 3489 0eda 11       		.byte	0x11
 3490 0edb FB       		.byte	0xfb
 3491 0edc D1070000 		.4byte	0x7d1
 3492 0ee0 01       		.byte	0x1
 3493 0ee1 01       		.byte	0x1
 3494 0ee2 00       		.byte	0x0
 3495              		.section	.debug_abbrev
 3496 0000 01       		.uleb128 0x1
 3497 0001 11       		.uleb128 0x11
 3498 0002 01       		.byte	0x1
 3499 0003 25       		.uleb128 0x25
 3500 0004 0E       		.uleb128 0xe
 3501 0005 13       		.uleb128 0x13
 3502 0006 0B       		.uleb128 0xb
 3503 0007 03       		.uleb128 0x3
 3504 0008 0E       		.uleb128 0xe
 3505 0009 1B       		.uleb128 0x1b
 3506 000a 0E       		.uleb128 0xe
 3507 000b 11       		.uleb128 0x11
 3508 000c 01       		.uleb128 0x1
 3509 000d 52       		.uleb128 0x52
 3510 000e 01       		.uleb128 0x1
 3511 000f 55       		.uleb128 0x55
 3512 0010 06       		.uleb128 0x6
 3513 0011 10       		.uleb128 0x10
 3514 0012 06       		.uleb128 0x6
 3515 0013 00       		.byte	0x0
 3516 0014 00       		.byte	0x0
 3517 0015 02       		.uleb128 0x2
 3518 0016 24       		.uleb128 0x24
 3519 0017 00       		.byte	0x0
 3520 0018 0B       		.uleb128 0xb
 3521 0019 0B       		.uleb128 0xb
 3522 001a 3E       		.uleb128 0x3e
 3523 001b 0B       		.uleb128 0xb
 3524 001c 03       		.uleb128 0x3
 3525 001d 08       		.uleb128 0x8
 3526 001e 00       		.byte	0x0
 3527 001f 00       		.byte	0x0
 3528 0020 03       		.uleb128 0x3
 3529 0021 16       		.uleb128 0x16
 3530 0022 00       		.byte	0x0
 3531 0023 03       		.uleb128 0x3
 3532 0024 0E       		.uleb128 0xe
 3533 0025 3A       		.uleb128 0x3a
 3534 0026 0B       		.uleb128 0xb
 3535 0027 3B       		.uleb128 0x3b
 3536 0028 0B       		.uleb128 0xb
 3537 0029 49       		.uleb128 0x49
 3538 002a 13       		.uleb128 0x13
 3539 002b 00       		.byte	0x0
 3540 002c 00       		.byte	0x0
 3541 002d 04       		.uleb128 0x4
 3542 002e 24       		.uleb128 0x24
 3543 002f 00       		.byte	0x0
 3544 0030 0B       		.uleb128 0xb
ARM GAS  C:\Users\z80\AppData\Local\Temp\cckPXr2I.s 			page 64


 3545 0031 0B       		.uleb128 0xb
 3546 0032 3E       		.uleb128 0x3e
 3547 0033 0B       		.uleb128 0xb
 3548 0034 03       		.uleb128 0x3
 3549 0035 0E       		.uleb128 0xe
 3550 0036 00       		.byte	0x0
 3551 0037 00       		.byte	0x0
 3552 0038 05       		.uleb128 0x5
 3553 0039 13       		.uleb128 0x13
 3554 003a 01       		.byte	0x1
 3555 003b 03       		.uleb128 0x3
 3556 003c 0E       		.uleb128 0xe
 3557 003d 0B       		.uleb128 0xb
 3558 003e 0B       		.uleb128 0xb
 3559 003f 3A       		.uleb128 0x3a
 3560 0040 0B       		.uleb128 0xb
 3561 0041 3B       		.uleb128 0x3b
 3562 0042 0B       		.uleb128 0xb
 3563 0043 01       		.uleb128 0x1
 3564 0044 13       		.uleb128 0x13
 3565 0045 00       		.byte	0x0
 3566 0046 00       		.byte	0x0
 3567 0047 06       		.uleb128 0x6
 3568 0048 0D       		.uleb128 0xd
 3569 0049 00       		.byte	0x0
 3570 004a 03       		.uleb128 0x3
 3571 004b 0E       		.uleb128 0xe
 3572 004c 3A       		.uleb128 0x3a
 3573 004d 0B       		.uleb128 0xb
 3574 004e 3B       		.uleb128 0x3b
 3575 004f 0B       		.uleb128 0xb
 3576 0050 49       		.uleb128 0x49
 3577 0051 13       		.uleb128 0x13
 3578 0052 38       		.uleb128 0x38
 3579 0053 0A       		.uleb128 0xa
 3580 0054 00       		.byte	0x0
 3581 0055 00       		.byte	0x0
 3582 0056 07       		.uleb128 0x7
 3583 0057 0D       		.uleb128 0xd
 3584 0058 00       		.byte	0x0
 3585 0059 03       		.uleb128 0x3
 3586 005a 08       		.uleb128 0x8
 3587 005b 3A       		.uleb128 0x3a
 3588 005c 0B       		.uleb128 0xb
 3589 005d 3B       		.uleb128 0x3b
 3590 005e 0B       		.uleb128 0xb
 3591 005f 49       		.uleb128 0x49
 3592 0060 13       		.uleb128 0x13
 3593 0061 38       		.uleb128 0x38
 3594 0062 0A       		.uleb128 0xa
 3595 0063 00       		.byte	0x0
 3596 0064 00       		.byte	0x0
 3597 0065 08       		.uleb128 0x8
 3598 0066 13       		.uleb128 0x13
 3599 0067 01       		.byte	0x1
 3600 0068 0B       		.uleb128 0xb
 3601 0069 0B       		.uleb128 0xb
ARM GAS  C:\Users\z80\AppData\Local\Temp\cckPXr2I.s 			page 65


 3602 006a 3A       		.uleb128 0x3a
 3603 006b 0B       		.uleb128 0xb
 3604 006c 3B       		.uleb128 0x3b
 3605 006d 0B       		.uleb128 0xb
 3606 006e 01       		.uleb128 0x1
 3607 006f 13       		.uleb128 0x13
 3608 0070 00       		.byte	0x0
 3609 0071 00       		.byte	0x0
 3610 0072 09       		.uleb128 0x9
 3611 0073 0F       		.uleb128 0xf
 3612 0074 00       		.byte	0x0
 3613 0075 0B       		.uleb128 0xb
 3614 0076 0B       		.uleb128 0xb
 3615 0077 49       		.uleb128 0x49
 3616 0078 13       		.uleb128 0x13
 3617 0079 00       		.byte	0x0
 3618 007a 00       		.byte	0x0
 3619 007b 0A       		.uleb128 0xa
 3620 007c 0F       		.uleb128 0xf
 3621 007d 00       		.byte	0x0
 3622 007e 0B       		.uleb128 0xb
 3623 007f 0B       		.uleb128 0xb
 3624 0080 00       		.byte	0x0
 3625 0081 00       		.byte	0x0
 3626 0082 0B       		.uleb128 0xb
 3627 0083 0D       		.uleb128 0xd
 3628 0084 00       		.byte	0x0
 3629 0085 03       		.uleb128 0x3
 3630 0086 08       		.uleb128 0x8
 3631 0087 3A       		.uleb128 0x3a
 3632 0088 0B       		.uleb128 0xb
 3633 0089 3B       		.uleb128 0x3b
 3634 008a 05       		.uleb128 0x5
 3635 008b 49       		.uleb128 0x49
 3636 008c 13       		.uleb128 0x13
 3637 008d 38       		.uleb128 0x38
 3638 008e 0A       		.uleb128 0xa
 3639 008f 00       		.byte	0x0
 3640 0090 00       		.byte	0x0
 3641 0091 0C       		.uleb128 0xc
 3642 0092 13       		.uleb128 0x13
 3643 0093 01       		.byte	0x1
 3644 0094 03       		.uleb128 0x3
 3645 0095 0E       		.uleb128 0xe
 3646 0096 0B       		.uleb128 0xb
 3647 0097 0B       		.uleb128 0xb
 3648 0098 3A       		.uleb128 0x3a
 3649 0099 0B       		.uleb128 0xb
 3650 009a 3B       		.uleb128 0x3b
 3651 009b 05       		.uleb128 0x5
 3652 009c 01       		.uleb128 0x1
 3653 009d 13       		.uleb128 0x13
 3654 009e 00       		.byte	0x0
 3655 009f 00       		.byte	0x0
 3656 00a0 0D       		.uleb128 0xd
 3657 00a1 35       		.uleb128 0x35
 3658 00a2 00       		.byte	0x0
ARM GAS  C:\Users\z80\AppData\Local\Temp\cckPXr2I.s 			page 66


 3659 00a3 49       		.uleb128 0x49
 3660 00a4 13       		.uleb128 0x13
 3661 00a5 00       		.byte	0x0
 3662 00a6 00       		.byte	0x0
 3663 00a7 0E       		.uleb128 0xe
 3664 00a8 24       		.uleb128 0x24
 3665 00a9 00       		.byte	0x0
 3666 00aa 0B       		.uleb128 0xb
 3667 00ab 0B       		.uleb128 0xb
 3668 00ac 3E       		.uleb128 0x3e
 3669 00ad 0B       		.uleb128 0xb
 3670 00ae 00       		.byte	0x0
 3671 00af 00       		.byte	0x0
 3672 00b0 0F       		.uleb128 0xf
 3673 00b1 17       		.uleb128 0x17
 3674 00b2 01       		.byte	0x1
 3675 00b3 0B       		.uleb128 0xb
 3676 00b4 0B       		.uleb128 0xb
 3677 00b5 3A       		.uleb128 0x3a
 3678 00b6 0B       		.uleb128 0xb
 3679 00b7 3B       		.uleb128 0x3b
 3680 00b8 0B       		.uleb128 0xb
 3681 00b9 01       		.uleb128 0x1
 3682 00ba 13       		.uleb128 0x13
 3683 00bb 00       		.byte	0x0
 3684 00bc 00       		.byte	0x0
 3685 00bd 10       		.uleb128 0x10
 3686 00be 0D       		.uleb128 0xd
 3687 00bf 00       		.byte	0x0
 3688 00c0 03       		.uleb128 0x3
 3689 00c1 0E       		.uleb128 0xe
 3690 00c2 3A       		.uleb128 0x3a
 3691 00c3 0B       		.uleb128 0xb
 3692 00c4 3B       		.uleb128 0x3b
 3693 00c5 0B       		.uleb128 0xb
 3694 00c6 49       		.uleb128 0x49
 3695 00c7 13       		.uleb128 0x13
 3696 00c8 00       		.byte	0x0
 3697 00c9 00       		.byte	0x0
 3698 00ca 11       		.uleb128 0x11
 3699 00cb 26       		.uleb128 0x26
 3700 00cc 00       		.byte	0x0
 3701 00cd 49       		.uleb128 0x49
 3702 00ce 13       		.uleb128 0x13
 3703 00cf 00       		.byte	0x0
 3704 00d0 00       		.byte	0x0
 3705 00d1 12       		.uleb128 0x12
 3706 00d2 15       		.uleb128 0x15
 3707 00d3 01       		.byte	0x1
 3708 00d4 27       		.uleb128 0x27
 3709 00d5 0C       		.uleb128 0xc
 3710 00d6 01       		.uleb128 0x1
 3711 00d7 13       		.uleb128 0x13
 3712 00d8 00       		.byte	0x0
 3713 00d9 00       		.byte	0x0
 3714 00da 13       		.uleb128 0x13
 3715 00db 05       		.uleb128 0x5
ARM GAS  C:\Users\z80\AppData\Local\Temp\cckPXr2I.s 			page 67


 3716 00dc 00       		.byte	0x0
 3717 00dd 49       		.uleb128 0x49
 3718 00de 13       		.uleb128 0x13
 3719 00df 00       		.byte	0x0
 3720 00e0 00       		.byte	0x0
 3721 00e1 14       		.uleb128 0x14
 3722 00e2 15       		.uleb128 0x15
 3723 00e3 01       		.byte	0x1
 3724 00e4 27       		.uleb128 0x27
 3725 00e5 0C       		.uleb128 0xc
 3726 00e6 49       		.uleb128 0x49
 3727 00e7 13       		.uleb128 0x13
 3728 00e8 01       		.uleb128 0x1
 3729 00e9 13       		.uleb128 0x13
 3730 00ea 00       		.byte	0x0
 3731 00eb 00       		.byte	0x0
 3732 00ec 15       		.uleb128 0x15
 3733 00ed 16       		.uleb128 0x16
 3734 00ee 00       		.byte	0x0
 3735 00ef 03       		.uleb128 0x3
 3736 00f0 0E       		.uleb128 0xe
 3737 00f1 3A       		.uleb128 0x3a
 3738 00f2 0B       		.uleb128 0xb
 3739 00f3 3B       		.uleb128 0x3b
 3740 00f4 05       		.uleb128 0x5
 3741 00f5 49       		.uleb128 0x49
 3742 00f6 13       		.uleb128 0x13
 3743 00f7 00       		.byte	0x0
 3744 00f8 00       		.byte	0x0
 3745 00f9 16       		.uleb128 0x16
 3746 00fa 13       		.uleb128 0x13
 3747 00fb 01       		.byte	0x1
 3748 00fc 0B       		.uleb128 0xb
 3749 00fd 0B       		.uleb128 0xb
 3750 00fe 3A       		.uleb128 0x3a
 3751 00ff 0B       		.uleb128 0xb
 3752 0100 3B       		.uleb128 0x3b
 3753 0101 05       		.uleb128 0x5
 3754 0102 01       		.uleb128 0x1
 3755 0103 13       		.uleb128 0x13
 3756 0104 00       		.byte	0x0
 3757 0105 00       		.byte	0x0
 3758 0106 17       		.uleb128 0x17
 3759 0107 0D       		.uleb128 0xd
 3760 0108 00       		.byte	0x0
 3761 0109 03       		.uleb128 0x3
 3762 010a 0E       		.uleb128 0xe
 3763 010b 3A       		.uleb128 0x3a
 3764 010c 0B       		.uleb128 0xb
 3765 010d 3B       		.uleb128 0x3b
 3766 010e 05       		.uleb128 0x5
 3767 010f 49       		.uleb128 0x49
 3768 0110 13       		.uleb128 0x13
 3769 0111 38       		.uleb128 0x38
 3770 0112 0A       		.uleb128 0xa
 3771 0113 00       		.byte	0x0
 3772 0114 00       		.byte	0x0
ARM GAS  C:\Users\z80\AppData\Local\Temp\cckPXr2I.s 			page 68


 3773 0115 18       		.uleb128 0x18
 3774 0116 04       		.uleb128 0x4
 3775 0117 01       		.byte	0x1
 3776 0118 0B       		.uleb128 0xb
 3777 0119 0B       		.uleb128 0xb
 3778 011a 3A       		.uleb128 0x3a
 3779 011b 0B       		.uleb128 0xb
 3780 011c 3B       		.uleb128 0x3b
 3781 011d 0B       		.uleb128 0xb
 3782 011e 01       		.uleb128 0x1
 3783 011f 13       		.uleb128 0x13
 3784 0120 00       		.byte	0x0
 3785 0121 00       		.byte	0x0
 3786 0122 19       		.uleb128 0x19
 3787 0123 28       		.uleb128 0x28
 3788 0124 00       		.byte	0x0
 3789 0125 03       		.uleb128 0x3
 3790 0126 0E       		.uleb128 0xe
 3791 0127 1C       		.uleb128 0x1c
 3792 0128 0D       		.uleb128 0xd
 3793 0129 00       		.byte	0x0
 3794 012a 00       		.byte	0x0
 3795 012b 1A       		.uleb128 0x1a
 3796 012c 13       		.uleb128 0x13
 3797 012d 01       		.byte	0x1
 3798 012e 03       		.uleb128 0x3
 3799 012f 0E       		.uleb128 0xe
 3800 0130 0B       		.uleb128 0xb
 3801 0131 05       		.uleb128 0x5
 3802 0132 3A       		.uleb128 0x3a
 3803 0133 0B       		.uleb128 0xb
 3804 0134 3B       		.uleb128 0x3b
 3805 0135 0B       		.uleb128 0xb
 3806 0136 01       		.uleb128 0x1
 3807 0137 13       		.uleb128 0x13
 3808 0138 00       		.byte	0x0
 3809 0139 00       		.byte	0x0
 3810 013a 1B       		.uleb128 0x1b
 3811 013b 01       		.uleb128 0x1
 3812 013c 01       		.byte	0x1
 3813 013d 49       		.uleb128 0x49
 3814 013e 13       		.uleb128 0x13
 3815 013f 01       		.uleb128 0x1
 3816 0140 13       		.uleb128 0x13
 3817 0141 00       		.byte	0x0
 3818 0142 00       		.byte	0x0
 3819 0143 1C       		.uleb128 0x1c
 3820 0144 21       		.uleb128 0x21
 3821 0145 00       		.byte	0x0
 3822 0146 49       		.uleb128 0x49
 3823 0147 13       		.uleb128 0x13
 3824 0148 2F       		.uleb128 0x2f
 3825 0149 05       		.uleb128 0x5
 3826 014a 00       		.byte	0x0
 3827 014b 00       		.byte	0x0
 3828 014c 1D       		.uleb128 0x1d
 3829 014d 2E       		.uleb128 0x2e
ARM GAS  C:\Users\z80\AppData\Local\Temp\cckPXr2I.s 			page 69


 3830 014e 01       		.byte	0x1
 3831 014f 03       		.uleb128 0x3
 3832 0150 0E       		.uleb128 0xe
 3833 0151 3A       		.uleb128 0x3a
 3834 0152 0B       		.uleb128 0xb
 3835 0153 3B       		.uleb128 0x3b
 3836 0154 0B       		.uleb128 0xb
 3837 0155 27       		.uleb128 0x27
 3838 0156 0C       		.uleb128 0xc
 3839 0157 20       		.uleb128 0x20
 3840 0158 0B       		.uleb128 0xb
 3841 0159 01       		.uleb128 0x1
 3842 015a 13       		.uleb128 0x13
 3843 015b 00       		.byte	0x0
 3844 015c 00       		.byte	0x0
 3845 015d 1E       		.uleb128 0x1e
 3846 015e 34       		.uleb128 0x34
 3847 015f 00       		.byte	0x0
 3848 0160 03       		.uleb128 0x3
 3849 0161 0E       		.uleb128 0xe
 3850 0162 3A       		.uleb128 0x3a
 3851 0163 0B       		.uleb128 0xb
 3852 0164 3B       		.uleb128 0x3b
 3853 0165 0B       		.uleb128 0xb
 3854 0166 49       		.uleb128 0x49
 3855 0167 13       		.uleb128 0x13
 3856 0168 00       		.byte	0x0
 3857 0169 00       		.byte	0x0
 3858 016a 1F       		.uleb128 0x1f
 3859 016b 05       		.uleb128 0x5
 3860 016c 00       		.byte	0x0
 3861 016d 03       		.uleb128 0x3
 3862 016e 08       		.uleb128 0x8
 3863 016f 3A       		.uleb128 0x3a
 3864 0170 0B       		.uleb128 0xb
 3865 0171 3B       		.uleb128 0x3b
 3866 0172 0B       		.uleb128 0xb
 3867 0173 49       		.uleb128 0x49
 3868 0174 13       		.uleb128 0x13
 3869 0175 00       		.byte	0x0
 3870 0176 00       		.byte	0x0
 3871 0177 20       		.uleb128 0x20
 3872 0178 34       		.uleb128 0x34
 3873 0179 00       		.byte	0x0
 3874 017a 03       		.uleb128 0x3
 3875 017b 08       		.uleb128 0x8
 3876 017c 3A       		.uleb128 0x3a
 3877 017d 0B       		.uleb128 0xb
 3878 017e 3B       		.uleb128 0x3b
 3879 017f 0B       		.uleb128 0xb
 3880 0180 49       		.uleb128 0x49
 3881 0181 13       		.uleb128 0x13
 3882 0182 00       		.byte	0x0
 3883 0183 00       		.byte	0x0
 3884 0184 21       		.uleb128 0x21
 3885 0185 2E       		.uleb128 0x2e
 3886 0186 01       		.byte	0x1
ARM GAS  C:\Users\z80\AppData\Local\Temp\cckPXr2I.s 			page 70


 3887 0187 03       		.uleb128 0x3
 3888 0188 0E       		.uleb128 0xe
 3889 0189 3A       		.uleb128 0x3a
 3890 018a 0B       		.uleb128 0xb
 3891 018b 3B       		.uleb128 0x3b
 3892 018c 05       		.uleb128 0x5
 3893 018d 27       		.uleb128 0x27
 3894 018e 0C       		.uleb128 0xc
 3895 018f 11       		.uleb128 0x11
 3896 0190 01       		.uleb128 0x1
 3897 0191 12       		.uleb128 0x12
 3898 0192 01       		.uleb128 0x1
 3899 0193 40       		.uleb128 0x40
 3900 0194 06       		.uleb128 0x6
 3901 0195 01       		.uleb128 0x1
 3902 0196 13       		.uleb128 0x13
 3903 0197 00       		.byte	0x0
 3904 0198 00       		.byte	0x0
 3905 0199 22       		.uleb128 0x22
 3906 019a 05       		.uleb128 0x5
 3907 019b 00       		.byte	0x0
 3908 019c 03       		.uleb128 0x3
 3909 019d 08       		.uleb128 0x8
 3910 019e 3A       		.uleb128 0x3a
 3911 019f 0B       		.uleb128 0xb
 3912 01a0 3B       		.uleb128 0x3b
 3913 01a1 05       		.uleb128 0x5
 3914 01a2 49       		.uleb128 0x49
 3915 01a3 13       		.uleb128 0x13
 3916 01a4 02       		.uleb128 0x2
 3917 01a5 06       		.uleb128 0x6
 3918 01a6 00       		.byte	0x0
 3919 01a7 00       		.byte	0x0
 3920 01a8 23       		.uleb128 0x23
 3921 01a9 2E       		.uleb128 0x2e
 3922 01aa 00       		.byte	0x0
 3923 01ab 03       		.uleb128 0x3
 3924 01ac 0E       		.uleb128 0xe
 3925 01ad 3A       		.uleb128 0x3a
 3926 01ae 0B       		.uleb128 0xb
 3927 01af 3B       		.uleb128 0x3b
 3928 01b0 05       		.uleb128 0x5
 3929 01b1 27       		.uleb128 0x27
 3930 01b2 0C       		.uleb128 0xc
 3931 01b3 11       		.uleb128 0x11
 3932 01b4 01       		.uleb128 0x1
 3933 01b5 12       		.uleb128 0x12
 3934 01b6 01       		.uleb128 0x1
 3935 01b7 40       		.uleb128 0x40
 3936 01b8 06       		.uleb128 0x6
 3937 01b9 00       		.byte	0x0
 3938 01ba 00       		.byte	0x0
 3939 01bb 24       		.uleb128 0x24
 3940 01bc 05       		.uleb128 0x5
 3941 01bd 00       		.byte	0x0
 3942 01be 03       		.uleb128 0x3
 3943 01bf 0E       		.uleb128 0xe
ARM GAS  C:\Users\z80\AppData\Local\Temp\cckPXr2I.s 			page 71


 3944 01c0 3A       		.uleb128 0x3a
 3945 01c1 0B       		.uleb128 0xb
 3946 01c2 3B       		.uleb128 0x3b
 3947 01c3 05       		.uleb128 0x5
 3948 01c4 49       		.uleb128 0x49
 3949 01c5 13       		.uleb128 0x13
 3950 01c6 02       		.uleb128 0x2
 3951 01c7 06       		.uleb128 0x6
 3952 01c8 00       		.byte	0x0
 3953 01c9 00       		.byte	0x0
 3954 01ca 25       		.uleb128 0x25
 3955 01cb 34       		.uleb128 0x34
 3956 01cc 00       		.byte	0x0
 3957 01cd 03       		.uleb128 0x3
 3958 01ce 0E       		.uleb128 0xe
 3959 01cf 3A       		.uleb128 0x3a
 3960 01d0 0B       		.uleb128 0xb
 3961 01d1 3B       		.uleb128 0x3b
 3962 01d2 05       		.uleb128 0x5
 3963 01d3 49       		.uleb128 0x49
 3964 01d4 13       		.uleb128 0x13
 3965 01d5 02       		.uleb128 0x2
 3966 01d6 0A       		.uleb128 0xa
 3967 01d7 00       		.byte	0x0
 3968 01d8 00       		.byte	0x0
 3969 01d9 26       		.uleb128 0x26
 3970 01da 34       		.uleb128 0x34
 3971 01db 00       		.byte	0x0
 3972 01dc 03       		.uleb128 0x3
 3973 01dd 08       		.uleb128 0x8
 3974 01de 3A       		.uleb128 0x3a
 3975 01df 0B       		.uleb128 0xb
 3976 01e0 3B       		.uleb128 0x3b
 3977 01e1 05       		.uleb128 0x5
 3978 01e2 49       		.uleb128 0x49
 3979 01e3 13       		.uleb128 0x13
 3980 01e4 1C       		.uleb128 0x1c
 3981 01e5 0B       		.uleb128 0xb
 3982 01e6 00       		.byte	0x0
 3983 01e7 00       		.byte	0x0
 3984 01e8 27       		.uleb128 0x27
 3985 01e9 34       		.uleb128 0x34
 3986 01ea 00       		.byte	0x0
 3987 01eb 03       		.uleb128 0x3
 3988 01ec 08       		.uleb128 0x8
 3989 01ed 3A       		.uleb128 0x3a
 3990 01ee 0B       		.uleb128 0xb
 3991 01ef 3B       		.uleb128 0x3b
 3992 01f0 05       		.uleb128 0x5
 3993 01f1 49       		.uleb128 0x49
 3994 01f2 13       		.uleb128 0x13
 3995 01f3 02       		.uleb128 0x2
 3996 01f4 06       		.uleb128 0x6
 3997 01f5 00       		.byte	0x0
 3998 01f6 00       		.byte	0x0
 3999 01f7 28       		.uleb128 0x28
 4000 01f8 21       		.uleb128 0x21
ARM GAS  C:\Users\z80\AppData\Local\Temp\cckPXr2I.s 			page 72


 4001 01f9 00       		.byte	0x0
 4002 01fa 49       		.uleb128 0x49
 4003 01fb 13       		.uleb128 0x13
 4004 01fc 2F       		.uleb128 0x2f
 4005 01fd 0B       		.uleb128 0xb
 4006 01fe 00       		.byte	0x0
 4007 01ff 00       		.byte	0x0
 4008 0200 29       		.uleb128 0x29
 4009 0201 2E       		.uleb128 0x2e
 4010 0202 01       		.byte	0x1
 4011 0203 03       		.uleb128 0x3
 4012 0204 0E       		.uleb128 0xe
 4013 0205 3A       		.uleb128 0x3a
 4014 0206 0B       		.uleb128 0xb
 4015 0207 3B       		.uleb128 0x3b
 4016 0208 0B       		.uleb128 0xb
 4017 0209 27       		.uleb128 0x27
 4018 020a 0C       		.uleb128 0xc
 4019 020b 11       		.uleb128 0x11
 4020 020c 01       		.uleb128 0x1
 4021 020d 12       		.uleb128 0x12
 4022 020e 01       		.uleb128 0x1
 4023 020f 40       		.uleb128 0x40
 4024 0210 06       		.uleb128 0x6
 4025 0211 01       		.uleb128 0x1
 4026 0212 13       		.uleb128 0x13
 4027 0213 00       		.byte	0x0
 4028 0214 00       		.byte	0x0
 4029 0215 2A       		.uleb128 0x2a
 4030 0216 05       		.uleb128 0x5
 4031 0217 00       		.byte	0x0
 4032 0218 03       		.uleb128 0x3
 4033 0219 0E       		.uleb128 0xe
 4034 021a 3A       		.uleb128 0x3a
 4035 021b 0B       		.uleb128 0xb
 4036 021c 3B       		.uleb128 0x3b
 4037 021d 0B       		.uleb128 0xb
 4038 021e 49       		.uleb128 0x49
 4039 021f 13       		.uleb128 0x13
 4040 0220 02       		.uleb128 0x2
 4041 0221 06       		.uleb128 0x6
 4042 0222 00       		.byte	0x0
 4043 0223 00       		.byte	0x0
 4044 0224 2B       		.uleb128 0x2b
 4045 0225 34       		.uleb128 0x34
 4046 0226 00       		.byte	0x0
 4047 0227 03       		.uleb128 0x3
 4048 0228 0E       		.uleb128 0xe
 4049 0229 3A       		.uleb128 0x3a
 4050 022a 0B       		.uleb128 0xb
 4051 022b 3B       		.uleb128 0x3b
 4052 022c 0B       		.uleb128 0xb
 4053 022d 49       		.uleb128 0x49
 4054 022e 13       		.uleb128 0x13
 4055 022f 02       		.uleb128 0x2
 4056 0230 0A       		.uleb128 0xa
 4057 0231 00       		.byte	0x0
ARM GAS  C:\Users\z80\AppData\Local\Temp\cckPXr2I.s 			page 73


 4058 0232 00       		.byte	0x0
 4059 0233 2C       		.uleb128 0x2c
 4060 0234 34       		.uleb128 0x34
 4061 0235 00       		.byte	0x0
 4062 0236 03       		.uleb128 0x3
 4063 0237 08       		.uleb128 0x8
 4064 0238 3A       		.uleb128 0x3a
 4065 0239 0B       		.uleb128 0xb
 4066 023a 3B       		.uleb128 0x3b
 4067 023b 0B       		.uleb128 0xb
 4068 023c 49       		.uleb128 0x49
 4069 023d 13       		.uleb128 0x13
 4070 023e 1C       		.uleb128 0x1c
 4071 023f 0B       		.uleb128 0xb
 4072 0240 00       		.byte	0x0
 4073 0241 00       		.byte	0x0
 4074 0242 2D       		.uleb128 0x2d
 4075 0243 34       		.uleb128 0x34
 4076 0244 00       		.byte	0x0
 4077 0245 03       		.uleb128 0x3
 4078 0246 08       		.uleb128 0x8
 4079 0247 3A       		.uleb128 0x3a
 4080 0248 0B       		.uleb128 0xb
 4081 0249 3B       		.uleb128 0x3b
 4082 024a 0B       		.uleb128 0xb
 4083 024b 49       		.uleb128 0x49
 4084 024c 13       		.uleb128 0x13
 4085 024d 02       		.uleb128 0x2
 4086 024e 06       		.uleb128 0x6
 4087 024f 00       		.byte	0x0
 4088 0250 00       		.byte	0x0
 4089 0251 2E       		.uleb128 0x2e
 4090 0252 05       		.uleb128 0x5
 4091 0253 00       		.byte	0x0
 4092 0254 03       		.uleb128 0x3
 4093 0255 08       		.uleb128 0x8
 4094 0256 3A       		.uleb128 0x3a
 4095 0257 0B       		.uleb128 0xb
 4096 0258 3B       		.uleb128 0x3b
 4097 0259 0B       		.uleb128 0xb
 4098 025a 49       		.uleb128 0x49
 4099 025b 13       		.uleb128 0x13
 4100 025c 02       		.uleb128 0x2
 4101 025d 06       		.uleb128 0x6
 4102 025e 00       		.byte	0x0
 4103 025f 00       		.byte	0x0
 4104 0260 2F       		.uleb128 0x2f
 4105 0261 34       		.uleb128 0x34
 4106 0262 00       		.byte	0x0
 4107 0263 03       		.uleb128 0x3
 4108 0264 0E       		.uleb128 0xe
 4109 0265 3A       		.uleb128 0x3a
 4110 0266 0B       		.uleb128 0xb
 4111 0267 3B       		.uleb128 0x3b
 4112 0268 0B       		.uleb128 0xb
 4113 0269 49       		.uleb128 0x49
 4114 026a 13       		.uleb128 0x13
ARM GAS  C:\Users\z80\AppData\Local\Temp\cckPXr2I.s 			page 74


 4115 026b 02       		.uleb128 0x2
 4116 026c 06       		.uleb128 0x6
 4117 026d 00       		.byte	0x0
 4118 026e 00       		.byte	0x0
 4119 026f 30       		.uleb128 0x30
 4120 0270 34       		.uleb128 0x34
 4121 0271 00       		.byte	0x0
 4122 0272 03       		.uleb128 0x3
 4123 0273 08       		.uleb128 0x8
 4124 0274 3A       		.uleb128 0x3a
 4125 0275 0B       		.uleb128 0xb
 4126 0276 3B       		.uleb128 0x3b
 4127 0277 0B       		.uleb128 0xb
 4128 0278 49       		.uleb128 0x49
 4129 0279 13       		.uleb128 0x13
 4130 027a 02       		.uleb128 0x2
 4131 027b 0A       		.uleb128 0xa
 4132 027c 00       		.byte	0x0
 4133 027d 00       		.byte	0x0
 4134 027e 31       		.uleb128 0x31
 4135 027f 0B       		.uleb128 0xb
 4136 0280 01       		.byte	0x1
 4137 0281 55       		.uleb128 0x55
 4138 0282 06       		.uleb128 0x6
 4139 0283 01       		.uleb128 0x1
 4140 0284 13       		.uleb128 0x13
 4141 0285 00       		.byte	0x0
 4142 0286 00       		.byte	0x0
 4143 0287 32       		.uleb128 0x32
 4144 0288 0B       		.uleb128 0xb
 4145 0289 01       		.byte	0x1
 4146 028a 11       		.uleb128 0x11
 4147 028b 01       		.uleb128 0x1
 4148 028c 12       		.uleb128 0x12
 4149 028d 01       		.uleb128 0x1
 4150 028e 01       		.uleb128 0x1
 4151 028f 13       		.uleb128 0x13
 4152 0290 00       		.byte	0x0
 4153 0291 00       		.byte	0x0
 4154 0292 33       		.uleb128 0x33
 4155 0293 0B       		.uleb128 0xb
 4156 0294 01       		.byte	0x1
 4157 0295 55       		.uleb128 0x55
 4158 0296 06       		.uleb128 0x6
 4159 0297 00       		.byte	0x0
 4160 0298 00       		.byte	0x0
 4161 0299 34       		.uleb128 0x34
 4162 029a 2E       		.uleb128 0x2e
 4163 029b 00       		.byte	0x0
 4164 029c 3F       		.uleb128 0x3f
 4165 029d 0C       		.uleb128 0xc
 4166 029e 03       		.uleb128 0x3
 4167 029f 0E       		.uleb128 0xe
 4168 02a0 3A       		.uleb128 0x3a
 4169 02a1 0B       		.uleb128 0xb
 4170 02a2 3B       		.uleb128 0x3b
 4171 02a3 0B       		.uleb128 0xb
ARM GAS  C:\Users\z80\AppData\Local\Temp\cckPXr2I.s 			page 75


 4172 02a4 27       		.uleb128 0x27
 4173 02a5 0C       		.uleb128 0xc
 4174 02a6 11       		.uleb128 0x11
 4175 02a7 01       		.uleb128 0x1
 4176 02a8 12       		.uleb128 0x12
 4177 02a9 01       		.uleb128 0x1
 4178 02aa 40       		.uleb128 0x40
 4179 02ab 06       		.uleb128 0x6
 4180 02ac 00       		.byte	0x0
 4181 02ad 00       		.byte	0x0
 4182 02ae 35       		.uleb128 0x35
 4183 02af 2E       		.uleb128 0x2e
 4184 02b0 01       		.byte	0x1
 4185 02b1 3F       		.uleb128 0x3f
 4186 02b2 0C       		.uleb128 0xc
 4187 02b3 03       		.uleb128 0x3
 4188 02b4 0E       		.uleb128 0xe
 4189 02b5 3A       		.uleb128 0x3a
 4190 02b6 0B       		.uleb128 0xb
 4191 02b7 3B       		.uleb128 0x3b
 4192 02b8 0B       		.uleb128 0xb
 4193 02b9 27       		.uleb128 0x27
 4194 02ba 0C       		.uleb128 0xc
 4195 02bb 11       		.uleb128 0x11
 4196 02bc 01       		.uleb128 0x1
 4197 02bd 12       		.uleb128 0x12
 4198 02be 01       		.uleb128 0x1
 4199 02bf 40       		.uleb128 0x40
 4200 02c0 06       		.uleb128 0x6
 4201 02c1 01       		.uleb128 0x1
 4202 02c2 13       		.uleb128 0x13
 4203 02c3 00       		.byte	0x0
 4204 02c4 00       		.byte	0x0
 4205 02c5 36       		.uleb128 0x36
 4206 02c6 1D       		.uleb128 0x1d
 4207 02c7 01       		.byte	0x1
 4208 02c8 31       		.uleb128 0x31
 4209 02c9 13       		.uleb128 0x13
 4210 02ca 52       		.uleb128 0x52
 4211 02cb 01       		.uleb128 0x1
 4212 02cc 55       		.uleb128 0x55
 4213 02cd 06       		.uleb128 0x6
 4214 02ce 58       		.uleb128 0x58
 4215 02cf 0B       		.uleb128 0xb
 4216 02d0 59       		.uleb128 0x59
 4217 02d1 0B       		.uleb128 0xb
 4218 02d2 00       		.byte	0x0
 4219 02d3 00       		.byte	0x0
 4220 02d4 37       		.uleb128 0x37
 4221 02d5 05       		.uleb128 0x5
 4222 02d6 00       		.byte	0x0
 4223 02d7 31       		.uleb128 0x31
 4224 02d8 13       		.uleb128 0x13
 4225 02d9 02       		.uleb128 0x2
 4226 02da 06       		.uleb128 0x6
 4227 02db 00       		.byte	0x0
 4228 02dc 00       		.byte	0x0
ARM GAS  C:\Users\z80\AppData\Local\Temp\cckPXr2I.s 			page 76


 4229 02dd 38       		.uleb128 0x38
 4230 02de 34       		.uleb128 0x34
 4231 02df 00       		.byte	0x0
 4232 02e0 31       		.uleb128 0x31
 4233 02e1 13       		.uleb128 0x13
 4234 02e2 02       		.uleb128 0x2
 4235 02e3 06       		.uleb128 0x6
 4236 02e4 00       		.byte	0x0
 4237 02e5 00       		.byte	0x0
 4238 02e6 39       		.uleb128 0x39
 4239 02e7 34       		.uleb128 0x34
 4240 02e8 00       		.byte	0x0
 4241 02e9 31       		.uleb128 0x31
 4242 02ea 13       		.uleb128 0x13
 4243 02eb 1C       		.uleb128 0x1c
 4244 02ec 0B       		.uleb128 0xb
 4245 02ed 00       		.byte	0x0
 4246 02ee 00       		.byte	0x0
 4247 02ef 3A       		.uleb128 0x3a
 4248 02f0 2E       		.uleb128 0x2e
 4249 02f1 00       		.byte	0x0
 4250 02f2 3F       		.uleb128 0x3f
 4251 02f3 0C       		.uleb128 0xc
 4252 02f4 03       		.uleb128 0x3
 4253 02f5 0E       		.uleb128 0xe
 4254 02f6 3A       		.uleb128 0x3a
 4255 02f7 0B       		.uleb128 0xb
 4256 02f8 3B       		.uleb128 0x3b
 4257 02f9 0B       		.uleb128 0xb
 4258 02fa 27       		.uleb128 0x27
 4259 02fb 0C       		.uleb128 0xc
 4260 02fc 49       		.uleb128 0x49
 4261 02fd 13       		.uleb128 0x13
 4262 02fe 11       		.uleb128 0x11
 4263 02ff 01       		.uleb128 0x1
 4264 0300 12       		.uleb128 0x12
 4265 0301 01       		.uleb128 0x1
 4266 0302 40       		.uleb128 0x40
 4267 0303 0A       		.uleb128 0xa
 4268 0304 00       		.byte	0x0
 4269 0305 00       		.byte	0x0
 4270 0306 3B       		.uleb128 0x3b
 4271 0307 34       		.uleb128 0x34
 4272 0308 00       		.byte	0x0
 4273 0309 03       		.uleb128 0x3
 4274 030a 0E       		.uleb128 0xe
 4275 030b 3A       		.uleb128 0x3a
 4276 030c 0B       		.uleb128 0xb
 4277 030d 3B       		.uleb128 0x3b
 4278 030e 05       		.uleb128 0x5
 4279 030f 49       		.uleb128 0x49
 4280 0310 13       		.uleb128 0x13
 4281 0311 3F       		.uleb128 0x3f
 4282 0312 0C       		.uleb128 0xc
 4283 0313 3C       		.uleb128 0x3c
 4284 0314 0C       		.uleb128 0xc
 4285 0315 00       		.byte	0x0
ARM GAS  C:\Users\z80\AppData\Local\Temp\cckPXr2I.s 			page 77


 4286 0316 00       		.byte	0x0
 4287 0317 3C       		.uleb128 0x3c
 4288 0318 34       		.uleb128 0x34
 4289 0319 00       		.byte	0x0
 4290 031a 03       		.uleb128 0x3
 4291 031b 08       		.uleb128 0x8
 4292 031c 3A       		.uleb128 0x3a
 4293 031d 0B       		.uleb128 0xb
 4294 031e 3B       		.uleb128 0x3b
 4295 031f 0B       		.uleb128 0xb
 4296 0320 49       		.uleb128 0x49
 4297 0321 13       		.uleb128 0x13
 4298 0322 3F       		.uleb128 0x3f
 4299 0323 0C       		.uleb128 0xc
 4300 0324 3C       		.uleb128 0x3c
 4301 0325 0C       		.uleb128 0xc
 4302 0326 00       		.byte	0x0
 4303 0327 00       		.byte	0x0
 4304 0328 00       		.byte	0x0
 4305              		.section	.debug_pubnames,"",%progbits
 4306 0000 3E000000 		.4byte	0x3e
 4307 0004 0200     		.2byte	0x2
 4308 0006 00000000 		.4byte	.Ldebug_info0
 4309 000a E30E0000 		.4byte	0xee3
 4310 000e 520D0000 		.4byte	0xd52
 4311 0012 6370755F 		.ascii	"cpu_io_init\000"
 4311      696F5F69 
 4311      6E697400 
 4312 001e 670D0000 		.4byte	0xd67
 4313 0022 6370755F 		.ascii	"cpu_io_process\000"
 4313      696F5F70 
 4313      726F6365 
 4313      737300
 4314 0031 3C0E0000 		.4byte	0xe3c
 4315 0035 66756E63 		.ascii	"funcArgs\000"
 4315      41726773 
 4315      00
 4316 003e 00000000 		.4byte	0x0
 4317              		.section	.debug_pubtypes,"",%progbits
 4318 0000 63020000 		.4byte	0x263
 4319 0004 0200     		.2byte	0x2
 4320 0006 00000000 		.4byte	.Ldebug_info0
 4321 000a E30E0000 		.4byte	0xee3
 4322 000e 30000000 		.4byte	0x30
 4323 0012 73697A65 		.ascii	"size_t\000"
 4323      5F7400
 4324 0019 49000000 		.4byte	0x49
 4325 001d 75696E74 		.ascii	"uint8_t\000"
 4325      385F7400 
 4326 0025 62000000 		.4byte	0x62
 4327 0029 75696E74 		.ascii	"uint16_t\000"
 4327      31365F74 
 4327      00
 4328 0032 74000000 		.4byte	0x74
 4329 0036 696E7433 		.ascii	"int32_t\000"
 4329      325F7400 
 4330 003e 86000000 		.4byte	0x86
ARM GAS  C:\Users\z80\AppData\Local\Temp\cckPXr2I.s 			page 78


 4331 0042 75696E74 		.ascii	"uint32_t\000"
 4331      33325F74 
 4331      00
 4332 004b 9F000000 		.4byte	0x9f
 4333 004f 75696E74 		.ascii	"uint64_t\000"
 4333      36345F74 
 4333      00
 4334 0058 B1000000 		.4byte	0xb1
 4335 005c 75696E74 		.ascii	"uint_fast16_t\000"
 4335      5F666173 
 4335      7431365F 
 4335      7400
 4336 006a BC000000 		.4byte	0xbc
 4337 006e 626F6F6C 		.ascii	"bool_t\000"
 4337      5F7400
 4338 0075 C7000000 		.4byte	0xc7
 4339 0079 746D6F64 		.ascii	"tmode_t\000"
 4339      655F7400 
 4340 0081 D2000000 		.4byte	0xd2
 4341 0085 74737461 		.ascii	"tstate_t\000"
 4341      74655F74 
 4341      00
 4342 008e DD000000 		.4byte	0xdd
 4343 0092 74707269 		.ascii	"tprio_t\000"
 4343      6F5F7400 
 4344 009a E8000000 		.4byte	0xe8
 4345 009e 6D73675F 		.ascii	"msg_t\000"
 4345      7400
 4346 00a4 F3000000 		.4byte	0xf3
 4347 00a8 6576656E 		.ascii	"eventmask_t\000"
 4347      746D6173 
 4347      6B5F7400 
 4348 00b4 FE000000 		.4byte	0xfe
 4349 00b8 73797374 		.ascii	"systime_t\000"
 4349      696D655F 
 4349      7400
 4350 00c2 09010000 		.4byte	0x109
 4351 00c6 54687265 		.ascii	"Thread\000"
 4351      616400
 4352 00cd 48020000 		.4byte	0x248
 4353 00d1 54687265 		.ascii	"ThreadsQueue\000"
 4353      61647351 
 4353      75657565 
 4353      00
 4354 00de 6A020000 		.4byte	0x26a
 4355 00e2 54687265 		.ascii	"ThreadsList\000"
 4355      6164734C 
 4355      69737400 
 4356 00ee 75020000 		.4byte	0x275
 4357 00f2 72656761 		.ascii	"regarm_t\000"
 4357      726D5F74 
 4357      00
 4358 00fb 82020000 		.4byte	0x282
 4359 00ff 73746B61 		.ascii	"stkalign_t\000"
 4359      6C69676E 
 4359      5F7400
 4360 010a 8D020000 		.4byte	0x28d
ARM GAS  C:\Users\z80\AppData\Local\Temp\cckPXr2I.s 			page 79


 4361 010e 696E7463 		.ascii	"intctx\000"
 4361      747800
 4362 0115 1A030000 		.4byte	0x31a
 4363 0119 636F6E74 		.ascii	"context\000"
 4363      65787400 
 4364 0121 4A030000 		.4byte	0x34a
 4365 0125 4D757465 		.ascii	"Mutex\000"
 4365      7800
 4366 012b 87030000 		.4byte	0x387
 4367 012f 4D757465 		.ascii	"Mutex\000"
 4367      7800
 4368 0135 92030000 		.4byte	0x392
 4369 0139 4576656E 		.ascii	"EventListener\000"
 4369      744C6973 
 4369      74656E65 
 4369      7200
 4370 0147 9D030000 		.4byte	0x39d
 4371 014b 4576656E 		.ascii	"EventListener\000"
 4371      744C6973 
 4371      74656E65 
 4371      7200
 4372 0159 DA030000 		.4byte	0x3da
 4373 015d 4576656E 		.ascii	"EventSource\000"
 4373      74536F75 
 4373      72636500 
 4374 0169 F5030000 		.4byte	0x3f5
 4375 016d 4576656E 		.ascii	"EventSource\000"
 4375      74536F75 
 4375      72636500 
 4376 0179 14010000 		.4byte	0x114
 4377 017d 54687265 		.ascii	"Thread\000"
 4377      616400
 4378 0184 53040000 		.4byte	0x453
 4379 0188 47656E65 		.ascii	"GenericQueue\000"
 4379      72696351 
 4379      75657565 
 4379      00
 4380 0195 CD040000 		.4byte	0x4cd
 4381 0199 716E6F74 		.ascii	"qnotify_t\000"
 4381      6966795F 
 4381      7400
 4382 01a3 5E040000 		.4byte	0x45e
 4383 01a7 47656E65 		.ascii	"GenericQueue\000"
 4383      72696351 
 4383      75657565 
 4383      00
 4384 01b4 F6040000 		.4byte	0x4f6
 4385 01b8 496E7075 		.ascii	"InputQueue\000"
 4385      74517565 
 4385      756500
 4386 01c3 01050000 		.4byte	0x501
 4387 01c7 4F757470 		.ascii	"OutputQueue\000"
 4387      75745175 
 4387      65756500 
 4388 01d3 F2050000 		.4byte	0x5f2
 4389 01d7 696F666C 		.ascii	"ioflags_t\000"
 4389      6167735F 
ARM GAS  C:\Users\z80\AppData\Local\Temp\cckPXr2I.s 			page 80


 4389      7400
 4390 01e1 14060000 		.4byte	0x614
 4391 01e5 5446756E 		.ascii	"TFunc\000"
 4391      6300
 4392 01eb AE060000 		.4byte	0x6ae
 4393 01ef 4750494F 		.ascii	"GPIO_TypeDef\000"
 4393      5F547970 
 4393      65446566 
 4393      00
 4394 01fc 94070000 		.4byte	0x794
 4395 0200 55534152 		.ascii	"USART_TypeDef\000"
 4395      545F5479 
 4395      70654465 
 4395      6600
 4396 020e A0070000 		.4byte	0x7a0
 4397 0212 696F706F 		.ascii	"ioportmask_t\000"
 4397      72746D61 
 4397      736B5F74 
 4397      00
 4398 021f C6070000 		.4byte	0x7c6
 4399 0223 73647374 		.ascii	"sdstate_t\000"
 4399      6174655F 
 4399      7400
 4400 022d D1070000 		.4byte	0x7d1
 4401 0231 53657269 		.ascii	"SerialDriver\000"
 4401      616C4472 
 4401      69766572 
 4401      00
 4402 023e 68080000 		.4byte	0x868
 4403 0242 53657269 		.ascii	"SerialDriverVMT\000"
 4403      616C4472 
 4403      69766572 
 4403      564D5400 
 4404 0252 DC070000 		.4byte	0x7dc
 4405 0256 53657269 		.ascii	"SerialDriver\000"
 4405      616C4472 
 4405      69766572 
 4405      00
 4406 0263 00000000 		.4byte	0x0
 4407              		.section	.debug_aranges,"",%progbits
 4408 0000 AC000000 		.4byte	0xac
 4409 0004 0200     		.2byte	0x2
 4410 0006 00000000 		.4byte	.Ldebug_info0
 4411 000a 04       		.byte	0x4
 4412 000b 00       		.byte	0x0
 4413 000c 0000     		.2byte	0x0
 4414 000e 0000     		.2byte	0x0
 4415 0010 00000000 		.4byte	.LFB81
 4416 0014 34000000 		.4byte	.LFE81-.LFB81
 4417 0018 00000000 		.4byte	.LFB82
 4418 001c 14000000 		.4byte	.LFE82-.LFB82
 4419 0020 00000000 		.4byte	.LFB80
 4420 0024 30000000 		.4byte	.LFE80-.LFB80
 4421 0028 00000000 		.4byte	.LFB79
 4422 002c 30000000 		.4byte	.LFE79-.LFB79
 4423 0030 00000000 		.4byte	.LFB78
 4424 0034 12000000 		.4byte	.LFE78-.LFB78
ARM GAS  C:\Users\z80\AppData\Local\Temp\cckPXr2I.s 			page 81


 4425 0038 00000000 		.4byte	.LFB77
 4426 003c 12000000 		.4byte	.LFE77-.LFB77
 4427 0040 00000000 		.4byte	.LFB76
 4428 0044 12000000 		.4byte	.LFE76-.LFB76
 4429 0048 00000000 		.4byte	.LFB75
 4430 004c 12000000 		.4byte	.LFE75-.LFB75
 4431 0050 00000000 		.4byte	.LFB74
 4432 0054 0A000000 		.4byte	.LFE74-.LFB74
 4433 0058 00000000 		.4byte	.LFB73
 4434 005c 0A000000 		.4byte	.LFE73-.LFB73
 4435 0060 00000000 		.4byte	.LFB72
 4436 0064 0A000000 		.4byte	.LFE72-.LFB72
 4437 0068 00000000 		.4byte	.LFB71
 4438 006c 1C000000 		.4byte	.LFE71-.LFB71
 4439 0070 00000000 		.4byte	.LFB67
 4440 0074 44000000 		.4byte	.LFE67-.LFB67
 4441 0078 00000000 		.4byte	.LFB70
 4442 007c 0C000000 		.4byte	.LFE70-.LFB70
 4443 0080 00000000 		.4byte	.LFB69
 4444 0084 0C000000 		.4byte	.LFE69-.LFB69
 4445 0088 00000000 		.4byte	.LFB68
 4446 008c 0C000000 		.4byte	.LFE68-.LFB68
 4447 0090 00000000 		.4byte	.LFB62
 4448 0094 32000000 		.4byte	.LFE62-.LFB62
 4449 0098 00000000 		.4byte	.LFB63
 4450 009c C4000000 		.4byte	.LFE63-.LFB63
 4451 00a0 00000000 		.4byte	.LFB64
 4452 00a4 0A000000 		.4byte	.LFE64-.LFB64
 4453 00a8 00000000 		.4byte	0x0
 4454 00ac 00000000 		.4byte	0x0
 4455              		.section	.debug_ranges,"",%progbits
 4456              	.Ldebug_ranges0:
 4457 0000 02000000 		.4byte	.LBB9
 4458 0004 04000000 		.4byte	.LBE9
 4459 0008 06000000 		.4byte	.LBB10
 4460 000c 0A000000 		.4byte	.LBE10
 4461 0010 00000000 		.4byte	0x0
 4462 0014 00000000 		.4byte	0x0
 4463 0018 22000000 		.4byte	.LBB12
 4464 001c 34000000 		.4byte	.LBE12
 4465 0020 36000000 		.4byte	.LBB13
 4466 0024 3A000000 		.4byte	.LBE13
 4467 0028 00000000 		.4byte	0x0
 4468 002c 00000000 		.4byte	0x0
 4469 0030 12000000 		.4byte	.LBB14
 4470 0034 30000000 		.4byte	.LBE14
 4471 0038 32000000 		.4byte	.LBB31
 4472 003c C4000000 		.4byte	.LBE31
 4473 0040 00000000 		.4byte	0x0
 4474 0044 00000000 		.4byte	0x0
 4475 0048 1C000000 		.4byte	.LBB17
 4476 004c 1E000000 		.4byte	.LBE17
 4477 0050 92000000 		.4byte	.LBB30
 4478 0054 C4000000 		.4byte	.LBE30
 4479 0058 66000000 		.4byte	.LBB29
 4480 005c 80000000 		.4byte	.LBE29
 4481 0060 24000000 		.4byte	.LBB15
ARM GAS  C:\Users\z80\AppData\Local\Temp\cckPXr2I.s 			page 82


 4482 0064 2E000000 		.4byte	.LBE15
 4483 0068 20000000 		.4byte	.LBB16
 4484 006c 22000000 		.4byte	.LBE16
 4485 0070 00000000 		.4byte	0x0
 4486 0074 00000000 		.4byte	0x0
 4487 0078 1C000000 		.4byte	.LBB20
 4488 007c 1E000000 		.4byte	.LBE20
 4489 0080 92000000 		.4byte	.LBB28
 4490 0084 C4000000 		.4byte	.LBE28
 4491 0088 66000000 		.4byte	.LBB18
 4492 008c 80000000 		.4byte	.LBE18
 4493 0090 24000000 		.4byte	.LBB27
 4494 0094 2E000000 		.4byte	.LBE27
 4495 0098 20000000 		.4byte	.LBB19
 4496 009c 22000000 		.4byte	.LBE19
 4497 00a0 00000000 		.4byte	0x0
 4498 00a4 00000000 		.4byte	0x0
 4499 00a8 2C000000 		.4byte	.LBB22
 4500 00ac 2E000000 		.4byte	.LBE22
 4501 00b0 92000000 		.4byte	.LBB26
 4502 00b4 C4000000 		.4byte	.LBE26
 4503 00b8 7C000000 		.4byte	.LBB21
 4504 00bc 80000000 		.4byte	.LBE21
 4505 00c0 00000000 		.4byte	0x0
 4506 00c4 00000000 		.4byte	0x0
 4507 00c8 2C000000 		.4byte	.LBB24
 4508 00cc 2E000000 		.4byte	.LBE24
 4509 00d0 92000000 		.4byte	.LBB25
 4510 00d4 C4000000 		.4byte	.LBE25
 4511 00d8 7C000000 		.4byte	.LBB23
 4512 00dc 80000000 		.4byte	.LBE23
 4513 00e0 00000000 		.4byte	0x0
 4514 00e4 00000000 		.4byte	0x0
 4515 00e8 00000000 		.4byte	.LFB81
 4516 00ec 34000000 		.4byte	.LFE81
 4517 00f0 00000000 		.4byte	.LFB82
 4518 00f4 14000000 		.4byte	.LFE82
 4519 00f8 00000000 		.4byte	.LFB80
 4520 00fc 30000000 		.4byte	.LFE80
 4521 0100 00000000 		.4byte	.LFB79
 4522 0104 30000000 		.4byte	.LFE79
 4523 0108 00000000 		.4byte	.LFB78
 4524 010c 12000000 		.4byte	.LFE78
 4525 0110 00000000 		.4byte	.LFB77
 4526 0114 12000000 		.4byte	.LFE77
 4527 0118 00000000 		.4byte	.LFB76
 4528 011c 12000000 		.4byte	.LFE76
 4529 0120 00000000 		.4byte	.LFB75
 4530 0124 12000000 		.4byte	.LFE75
 4531 0128 00000000 		.4byte	.LFB74
 4532 012c 0A000000 		.4byte	.LFE74
 4533 0130 00000000 		.4byte	.LFB73
 4534 0134 0A000000 		.4byte	.LFE73
 4535 0138 00000000 		.4byte	.LFB72
 4536 013c 0A000000 		.4byte	.LFE72
 4537 0140 00000000 		.4byte	.LFB71
 4538 0144 1C000000 		.4byte	.LFE71
ARM GAS  C:\Users\z80\AppData\Local\Temp\cckPXr2I.s 			page 83


 4539 0148 00000000 		.4byte	.LFB67
 4540 014c 44000000 		.4byte	.LFE67
 4541 0150 00000000 		.4byte	.LFB70
 4542 0154 0C000000 		.4byte	.LFE70
 4543 0158 00000000 		.4byte	.LFB69
 4544 015c 0C000000 		.4byte	.LFE69
 4545 0160 00000000 		.4byte	.LFB68
 4546 0164 0C000000 		.4byte	.LFE68
 4547 0168 00000000 		.4byte	.LFB62
 4548 016c 32000000 		.4byte	.LFE62
 4549 0170 00000000 		.4byte	.LFB63
 4550 0174 C4000000 		.4byte	.LFE63
 4551 0178 00000000 		.4byte	.LFB64
 4552 017c 0A000000 		.4byte	.LFE64
 4553 0180 00000000 		.4byte	0x0
 4554 0184 00000000 		.4byte	0x0
 4555              		.section	.debug_str,"MS",%progbits,1
 4556              	.LASF139:
 4557 0000 77726974 		.ascii	"writeEom\000"
 4557      65456F6D 
 4557      00
 4558              	.LASF2:
 4559 0009 73697A65 		.ascii	"size_t\000"
 4559      5F7400
 4560              	.LASF57:
 4561 0010 7264796D 		.ascii	"rdymsg\000"
 4561      736700
 4562              	.LASF13:
 4563 0017 75696E74 		.ascii	"uint64_t\000"
 4563      36345F74 
 4563      00
 4564              	.LASF135:
 4565 0020 66756E63 		.ascii	"funcs\000"
 4565      7300
 4566              	.LASF72:
 4567 0026 4F757470 		.ascii	"OutputQueue\000"
 4567      75745175 
 4567      65756500 
 4568              	.LASF74:
 4569 0032 5446756E 		.ascii	"TFunc\000"
 4569      6300
 4570              	.LASF87:
 4571 0038 696F706F 		.ascii	"ioportmask_t\000"
 4571      72746D61 
 4571      736B5F74 
 4571      00
 4572              	.LASF125:
 4573 0045 70657269 		.ascii	"period\000"
 4573      6F6400
 4574              	.LASF15:
 4575 004c 75696E74 		.ascii	"uint_fast16_t\000"
 4575      5F666173 
 4575      7431365F 
 4575      7400
 4576              	.LASF14:
 4577 005a 6C6F6E67 		.ascii	"long long unsigned int\000"
 4577      206C6F6E 
ARM GAS  C:\Users\z80\AppData\Local\Temp\cckPXr2I.s 			page 84


 4577      6720756E 
 4577      7369676E 
 4577      65642069 
 4578              	.LASF119:
 4579 0071 7365745F 		.ascii	"set_one_pulse\000"
 4579      6F6E655F 
 4579      70756C73 
 4579      6500
 4580              	.LASF142:
 4581 007f 66756E63 		.ascii	"funcArgs\000"
 4581      41726773 
 4581      00
 4582              	.LASF58:
 4583 0088 65786974 		.ascii	"exitcode\000"
 4583      636F6465 
 4583      00
 4584              	.LASF121:
 4585 0091 7365745F 		.ascii	"set_sc_relay\000"
 4585      73635F72 
 4585      656C6179 
 4585      00
 4586              	.LASF132:
 4587 009e 6F75745F 		.ascii	"out_index\000"
 4587      696E6465 
 4587      7800
 4588              	.LASF133:
 4589 00a8 49544D5F 		.ascii	"ITM_RxBuffer\000"
 4589      52784275 
 4589      66666572 
 4589      00
 4590              	.LASF26:
 4591 00b5 705F7072 		.ascii	"p_prio\000"
 4591      696F00
 4592              	.LASF105:
 4593 00bc 72656164 		.ascii	"readt\000"
 4593      7400
 4594              	.LASF124:
 4595 00c2 6F73635F 		.ascii	"osc_set_period\000"
 4595      7365745F 
 4595      70657269 
 4595      6F6400
 4596              	.LASF12:
 4597 00d1 6C6F6E67 		.ascii	"long long int\000"
 4597      206C6F6E 
 4597      6720696E 
 4597      7400
 4598              	.LASF1:
 4599 00df 7369676E 		.ascii	"signed char\000"
 4599      65642063 
 4599      68617200 
 4600              	.LASF75:
 4601 00eb 42535252 		.ascii	"BSRR\000"
 4601      00
 4602              	.LASF84:
 4603 00f0 47545052 		.ascii	"GTPR\000"
 4603      00
 4604              	.LASF89:
ARM GAS  C:\Users\z80\AppData\Local\Temp\cckPXr2I.s 			page 85


 4605 00f5 53445F53 		.ascii	"SD_STOP\000"
 4605      544F5000 
 4606              	.LASF16:
 4607 00fd 626F6F6C 		.ascii	"bool_t\000"
 4607      5F7400
 4608              	.LASF48:
 4609 0104 6D5F7175 		.ascii	"m_queue\000"
 4609      65756500 
 4610              	.LASF126:
 4611 010c 77726974 		.ascii	"writeOscQueue\000"
 4611      654F7363 
 4611      51756575 
 4611      6500
 4612              	.LASF95:
 4613 011a 73746174 		.ascii	"state\000"
 4613      6500
 4614              	.LASF9:
 4615 0120 6C6F6E67 		.ascii	"long int\000"
 4615      20696E74 
 4615      00
 4616              	.LASF18:
 4617 0129 74737461 		.ascii	"tstate_t\000"
 4617      74655F74 
 4617      00
 4618              	.LASF65:
 4619 0132 715F6275 		.ascii	"q_buffer\000"
 4619      66666572 
 4619      00
 4620              	.LASF67:
 4621 013b 715F7772 		.ascii	"q_wrptr\000"
 4621      70747200 
 4622              	.LASF28:
 4623 0143 705F6E65 		.ascii	"p_newer\000"
 4623      77657200 
 4624              	.LASF102:
 4625 014b 70757477 		.ascii	"putwouldblock\000"
 4625      6F756C64 
 4625      626C6F63 
 4625      6B00
 4626              	.LASF77:
 4627 0159 4750494F 		.ascii	"GPIO_TypeDef\000"
 4627      5F547970 
 4627      65446566 
 4627      00
 4628              	.LASF123:
 4629 0166 7365745F 		.ascii	"set_leds\000"
 4629      6C656473 
 4629      00
 4630              	.LASF43:
 4631 016f 72656761 		.ascii	"regarm_t\000"
 4631      726D5F74 
 4631      00
 4632              	.LASF55:
 4633 0178 4576656E 		.ascii	"EventSource\000"
 4633      74536F75 
 4633      72636500 
 4634              	.LASF98:
ARM GAS  C:\Users\z80\AppData\Local\Temp\cckPXr2I.s 			page 86


 4635 0184 75736172 		.ascii	"usart\000"
 4635      7400
 4636              	.LASF0:
 4637 018a 756E7369 		.ascii	"unsigned int\000"
 4637      676E6564 
 4637      20696E74 
 4637      00
 4638              	.LASF6:
 4639 0197 75696E74 		.ascii	"uint16_t\000"
 4639      31365F74 
 4639      00
 4640              	.LASF99:
 4641 01a0 53657269 		.ascii	"SerialDriverVMT\000"
 4641      616C4472 
 4641      69766572 
 4641      564D5400 
 4642              	.LASF34:
 4643 01b0 705F7469 		.ascii	"p_time\000"
 4643      6D6500
 4644              	.LASF116:
 4645 01b7 68617264 		.ascii	"hardware_version\000"
 4645      77617265 
 4645      5F766572 
 4645      73696F6E 
 4645      00
 4646              	.LASF117:
 4647 01c8 7365745F 		.ascii	"set_sweep\000"
 4647      73776565 
 4647      7000
 4648              	.LASF96:
 4649 01d2 69717565 		.ascii	"iqueue\000"
 4649      756500
 4650              	.LASF36:
 4651 01d9 705F6D73 		.ascii	"p_msgqueue\000"
 4651      67717565 
 4651      756500
 4652              	.LASF115:
 4653 01e4 73747269 		.ascii	"stri\000"
 4653      00
 4654              	.LASF76:
 4655 01e9 4C434B52 		.ascii	"LCKR\000"
 4655      00
 4656              	.LASF109:
 4657 01ee 65786563 		.ascii	"exec_func\000"
 4657      5F66756E 
 4657      6300
 4658              	.LASF127:
 4659 01f8 6E6F4461 		.ascii	"noData\000"
 4659      746100
 4660              	.LASF19:
 4661 01ff 74707269 		.ascii	"tprio_t\000"
 4661      6F5F7400 
 4662              	.LASF93:
 4663 0207 6576656E 		.ascii	"event\000"
 4663      7400
 4664              	.LASF7:
 4665 020d 73686F72 		.ascii	"short unsigned int\000"
ARM GAS  C:\Users\z80\AppData\Local\Temp\cckPXr2I.s 			page 87


 4665      7420756E 
 4665      7369676E 
 4665      65642069 
 4665      6E7400
 4666              	.LASF20:
 4667 0220 6D73675F 		.ascii	"msg_t\000"
 4667      7400
 4668              	.LASF97:
 4669 0226 6F717565 		.ascii	"oqueue\000"
 4669      756500
 4670              	.LASF128:
 4671 022d 6F73635F 		.ascii	"osc_iaux\000"
 4671      69617578 
 4671      00
 4672              	.LASF113:
 4673 0236 6669726D 		.ascii	"firmware_version\000"
 4673      77617265 
 4673      5F766572 
 4673      73696F6E 
 4673      00
 4674              	.LASF86:
 4675 0247 55534152 		.ascii	"USART_TypeDef\000"
 4675      545F5479 
 4675      70654465 
 4675      6600
 4676              	.LASF104:
 4677 0255 77726974 		.ascii	"writet\000"
 4677      657400
 4678              	.LASF17:
 4679 025c 746D6F64 		.ascii	"tmode_t\000"
 4679      655F7400 
 4680              	.LASF42:
 4681 0264 54687265 		.ascii	"ThreadsList\000"
 4681      6164734C 
 4681      69737400 
 4682              	.LASF21:
 4683 0270 6576656E 		.ascii	"eventmask_t\000"
 4683      746D6173 
 4683      6B5F7400 
 4684              	.LASF71:
 4685 027c 496E7075 		.ascii	"InputQueue\000"
 4685      74517565 
 4685      756500
 4686              	.LASF70:
 4687 0287 716E6F74 		.ascii	"qnotify_t\000"
 4687      6966795F 
 4687      7400
 4688              	.LASF137:
 4689 0291 2E2F7372 		.ascii	"./src/cpu_io.c\000"
 4689      632F6370 
 4689      755F696F 
 4689      2E6300
 4690              	.LASF62:
 4691 02a0 47656E65 		.ascii	"GenericQueue\000"
 4691      72696351 
 4691      75657565 
 4691      00
ARM GAS  C:\Users\z80\AppData\Local\Temp\cckPXr2I.s 			page 88


 4692              	.LASF44:
 4693 02ad 73746B61 		.ascii	"stkalign_t\000"
 4693      6C69676E 
 4693      5F7400
 4694              	.LASF120:
 4695 02b8 7365745F 		.ascii	"set_dac\000"
 4695      64616300 
 4696              	.LASF100:
 4697 02c0 77726974 		.ascii	"write\000"
 4697      6500
 4698              	.LASF64:
 4699 02c6 715F636F 		.ascii	"q_counter\000"
 4699      756E7465 
 4699      7200
 4700              	.LASF47:
 4701 02d0 4D757465 		.ascii	"Mutex\000"
 4701      7800
 4702              	.LASF29:
 4703 02d6 705F6F6C 		.ascii	"p_older\000"
 4703      64657200 
 4704              	.LASF141:
 4705 02de 6370755F 		.ascii	"cpu_io_process\000"
 4705      696F5F70 
 4705      726F6365 
 4705      737300
 4706              	.LASF73:
 4707 02ed 696F666C 		.ascii	"ioflags_t\000"
 4707      6167735F 
 4707      7400
 4708              	.LASF41:
 4709 02f7 54687265 		.ascii	"ThreadsQueue\000"
 4709      61647351 
 4709      75657565 
 4709      00
 4710              	.LASF138:
 4711 0304 433A5C70 		.ascii	"C:\\projects\\voltamper.git\\firmware\\voltamp\000"
 4711      726F6A65 
 4711      6374735C 
 4711      766F6C74 
 4711      616D7065 
 4712              	.LASF122:
 4713 032f 7365745F 		.ascii	"set_out_relay\000"
 4713      6F75745F 
 4713      72656C61 
 4713      7900
 4714              	.LASF54:
 4715 033d 656C5F6D 		.ascii	"el_mask\000"
 4715      61736B00 
 4716              	.LASF112:
 4717 0345 77726974 		.ascii	"writeResult\000"
 4717      65526573 
 4717      756C7400 
 4718              	.LASF63:
 4719 0351 715F7761 		.ascii	"q_waiting\000"
 4719      6974696E 
 4719      6700
 4720              	.LASF78:
ARM GAS  C:\Users\z80\AppData\Local\Temp\cckPXr2I.s 			page 89


 4721 035b 52455345 		.ascii	"RESERVED0\000"
 4721      52564544 
 4721      3000
 4722              	.LASF79:
 4723 0365 52455345 		.ascii	"RESERVED1\000"
 4723      52564544 
 4723      3100
 4724              	.LASF80:
 4725 036f 52455345 		.ascii	"RESERVED2\000"
 4725      52564544 
 4725      3200
 4726              	.LASF81:
 4727 0379 52455345 		.ascii	"RESERVED3\000"
 4727      52564544 
 4727      3300
 4728              	.LASF82:
 4729 0383 52455345 		.ascii	"RESERVED4\000"
 4729      52564544 
 4729      3400
 4730              	.LASF25:
 4731 038d 705F7072 		.ascii	"p_prev\000"
 4731      657600
 4732              	.LASF85:
 4733 0394 52455345 		.ascii	"RESERVED6\000"
 4733      52564544 
 4733      3600
 4734              	.LASF108:
 4735 039e 66756E63 		.ascii	"funcs_sz\000"
 4735      735F737A 
 4735      00
 4736              	.LASF68:
 4737 03a7 715F7264 		.ascii	"q_rdptr\000"
 4737      70747200 
 4738              	.LASF129:
 4739 03af 6F73635F 		.ascii	"osc_eref\000"
 4739      65726566 
 4739      00
 4740              	.LASF8:
 4741 03b8 696E7433 		.ascii	"int32_t\000"
 4741      325F7400 
 4742              	.LASF4:
 4743 03c0 756E7369 		.ascii	"unsigned char\000"
 4743      676E6564 
 4743      20636861 
 4743      7200
 4744              	.LASF53:
 4745 03ce 656C5F6C 		.ascii	"el_listener\000"
 4745      69737465 
 4745      6E657200 
 4746              	.LASF39:
 4747 03da 705F6D74 		.ascii	"p_mtxlist\000"
 4747      786C6973 
 4747      7400
 4748              	.LASF5:
 4749 03e4 73686F72 		.ascii	"short int\000"
 4749      7420696E 
 4749      7400
ARM GAS  C:\Users\z80\AppData\Local\Temp\cckPXr2I.s 			page 90


 4750              	.LASF32:
 4751 03ee 705F7374 		.ascii	"p_state\000"
 4751      61746500 
 4752              	.LASF110:
 4753 03f6 70726F63 		.ascii	"process_command\000"
 4753      6573735F 
 4753      636F6D6D 
 4753      616E6400 
 4754              	.LASF60:
 4755 0406 65776D61 		.ascii	"ewmask\000"
 4755      736B00
 4756              	.LASF24:
 4757 040d 705F6E65 		.ascii	"p_next\000"
 4757      787400
 4758              	.LASF33:
 4759 0414 705F666C 		.ascii	"p_flags\000"
 4759      61677300 
 4760              	.LASF52:
 4761 041c 656C5F6E 		.ascii	"el_next\000"
 4761      65787400 
 4762              	.LASF118:
 4763 0424 7365745F 		.ascii	"set_meandr\000"
 4763      6D65616E 
 4763      647200
 4764              	.LASF23:
 4765 042f 54687265 		.ascii	"Thread\000"
 4765      616400
 4766              	.LASF38:
 4767 0436 705F6570 		.ascii	"p_epending\000"
 4767      656E6469 
 4767      6E6700
 4768              	.LASF88:
 4769 0441 53445F55 		.ascii	"SD_UNINIT\000"
 4769      4E494E49 
 4769      5400
 4770              	.LASF83:
 4771 044b 52455345 		.ascii	"RESERVED5\000"
 4771      52564544 
 4771      3500
 4772              	.LASF10:
 4773 0455 75696E74 		.ascii	"uint32_t\000"
 4773      33325F74 
 4773      00
 4774              	.LASF91:
 4775 045e 73647374 		.ascii	"sdstate_t\000"
 4775      6174655F 
 4775      7400
 4776              	.LASF92:
 4777 0468 53657269 		.ascii	"SerialDriver\000"
 4777      616C4472 
 4777      69766572 
 4777      00
 4778              	.LASF11:
 4779 0475 6C6F6E67 		.ascii	"long unsigned int\000"
 4779      20756E73 
 4779      69676E65 
 4779      6420696E 
ARM GAS  C:\Users\z80\AppData\Local\Temp\cckPXr2I.s 			page 91


 4779      7400
 4780              	.LASF101:
 4781 0487 72656164 		.ascii	"read\000"
 4781      00
 4782              	.LASF61:
 4783 048c 63686172 		.ascii	"char\000"
 4783      00
 4784              	.LASF140:
 4785 0491 6370755F 		.ascii	"cpu_io_init\000"
 4785      696F5F69 
 4785      6E697400 
 4786              	.LASF50:
 4787 049d 6D5F6E65 		.ascii	"m_next\000"
 4787      787400
 4788              	.LASF22:
 4789 04a4 73797374 		.ascii	"systime_t\000"
 4789      696D655F 
 4789      7400
 4790              	.LASF40:
 4791 04ae 705F7265 		.ascii	"p_realprio\000"
 4791      616C7072 
 4791      696F00
 4792              	.LASF134:
 4793 04b9 62756666 		.ascii	"buffer\000"
 4793      657200
 4794              	.LASF31:
 4795 04c0 705F7374 		.ascii	"p_stklimit\000"
 4795      6B6C696D 
 4795      697400
 4796              	.LASF111:
 4797 04cb 64617461 		.ascii	"data\000"
 4797      00
 4798              	.LASF106:
 4799 04d0 67657466 		.ascii	"getflags\000"
 4799      6C616773 
 4799      00
 4800              	.LASF46:
 4801 04d9 636F6E74 		.ascii	"context\000"
 4801      65787400 
 4802              	.LASF45:
 4803 04e1 696E7463 		.ascii	"intctx\000"
 4803      747800
 4804              	.LASF90:
 4805 04e8 53445F52 		.ascii	"SD_READY\000"
 4805      45414459 
 4805      00
 4806              	.LASF130:
 4807 04f1 6F73635F 		.ascii	"osc_eaux\000"
 4807      65617578 
 4807      00
 4808              	.LASF66:
 4809 04fa 715F746F 		.ascii	"q_top\000"
 4809      7000
 4810              	.LASF30:
 4811 0500 705F6E61 		.ascii	"p_name\000"
 4811      6D6500
 4812              	.LASF56:
ARM GAS  C:\Users\z80\AppData\Local\Temp\cckPXr2I.s 			page 92


 4813 0507 65735F6E 		.ascii	"es_next\000"
 4813      65787400 
 4814              	.LASF69:
 4815 050f 715F6E6F 		.ascii	"q_notify\000"
 4815      74696679 
 4815      00
 4816              	.LASF37:
 4817 0518 705F6D73 		.ascii	"p_msg\000"
 4817      6700
 4818              	.LASF3:
 4819 051e 75696E74 		.ascii	"uint8_t\000"
 4819      385F7400 
 4820              	.LASF107:
 4821 0526 66756E63 		.ascii	"func_index\000"
 4821      5F696E64 
 4821      657800
 4822              	.LASF94:
 4823 0531 666C6167 		.ascii	"flags\000"
 4823      7300
 4824              	.LASF51:
 4825 0537 4576656E 		.ascii	"EventListener\000"
 4825      744C6973 
 4825      74656E65 
 4825      7200
 4826              	.LASF136:
 4827 0545 474E5520 		.ascii	"GNU C 4.5.0\000"
 4827      4320342E 
 4827      352E3000 
 4828              	.LASF59:
 4829 0551 77746F62 		.ascii	"wtobjp\000"
 4829      6A7000
 4830              	.LASF131:
 4831 0558 736C6173 		.ascii	"slash\000"
 4831      6800
 4832              	.LASF103:
 4833 055e 67657477 		.ascii	"getwouldblock\000"
 4833      6F756C64 
 4833      626C6F63 
 4833      6B00
 4834              	.LASF114:
 4835 056c 61726773 		.ascii	"args\000"
 4835      00
 4836              	.LASF49:
 4837 0571 6D5F6F77 		.ascii	"m_owner\000"
 4837      6E657200 
 4838              	.LASF27:
 4839 0579 705F6374 		.ascii	"p_ctx\000"
 4839      7800
 4840              	.LASF35:
 4841 057f 705F7761 		.ascii	"p_waiting\000"
 4841      6974696E 
 4841      6700
 4842              		.ident	"GCC: (GNU) 4.5.0"
ARM GAS  C:\Users\z80\AppData\Local\Temp\cckPXr2I.s 			page 93


DEFINED SYMBOLS
                            *ABS*:00000000 cpu_io.c
C:\Users\z80\AppData\Local\Temp\cckPXr2I.s:24     .text.writeResult:00000000 $t
C:\Users\z80\AppData\Local\Temp\cckPXr2I.s:29     .text.writeResult:00000000 writeResult
C:\Users\z80\AppData\Local\Temp\cckPXr2I.s:71     .text.writeResult:00000030 $d
C:\Users\z80\AppData\Local\Temp\cckPXr2I.s:76     .text.writeEom:00000000 $t
C:\Users\z80\AppData\Local\Temp\cckPXr2I.s:81     .text.writeEom:00000000 writeEom
C:\Users\z80\AppData\Local\Temp\cckPXr2I.s:102    .text.writeEom:00000010 $d
C:\Users\z80\AppData\Local\Temp\cckPXr2I.s:107    .text.firmware_version:00000000 $t
C:\Users\z80\AppData\Local\Temp\cckPXr2I.s:112    .text.firmware_version:00000000 firmware_version
C:\Users\z80\AppData\Local\Temp\cckPXr2I.s:157    .text.firmware_version:0000002c $d
C:\Users\z80\AppData\Local\Temp\cckPXr2I.s:162    .text.hardware_version:00000000 $t
C:\Users\z80\AppData\Local\Temp\cckPXr2I.s:167    .text.hardware_version:00000000 hardware_version
C:\Users\z80\AppData\Local\Temp\cckPXr2I.s:213    .text.hardware_version:0000002c $d
C:\Users\z80\AppData\Local\Temp\cckPXr2I.s:218    .text.set_sweep:00000000 $t
C:\Users\z80\AppData\Local\Temp\cckPXr2I.s:223    .text.set_sweep:00000000 set_sweep
C:\Users\z80\AppData\Local\Temp\cckPXr2I.s:249    .text.set_meandr:00000000 $t
C:\Users\z80\AppData\Local\Temp\cckPXr2I.s:254    .text.set_meandr:00000000 set_meandr
C:\Users\z80\AppData\Local\Temp\cckPXr2I.s:280    .text.set_one_pulse:00000000 $t
C:\Users\z80\AppData\Local\Temp\cckPXr2I.s:285    .text.set_one_pulse:00000000 set_one_pulse
C:\Users\z80\AppData\Local\Temp\cckPXr2I.s:311    .text.set_dac:00000000 $t
C:\Users\z80\AppData\Local\Temp\cckPXr2I.s:316    .text.set_dac:00000000 set_dac
C:\Users\z80\AppData\Local\Temp\cckPXr2I.s:342    .text.set_sc_relay:00000000 $t
C:\Users\z80\AppData\Local\Temp\cckPXr2I.s:347    .text.set_sc_relay:00000000 set_sc_relay
C:\Users\z80\AppData\Local\Temp\cckPXr2I.s:369    .text.set_out_relay:00000000 $t
C:\Users\z80\AppData\Local\Temp\cckPXr2I.s:374    .text.set_out_relay:00000000 set_out_relay
C:\Users\z80\AppData\Local\Temp\cckPXr2I.s:396    .text.set_leds:00000000 $t
C:\Users\z80\AppData\Local\Temp\cckPXr2I.s:401    .text.set_leds:00000000 set_leds
C:\Users\z80\AppData\Local\Temp\cckPXr2I.s:423    .text.osc_set_period:00000000 $t
C:\Users\z80\AppData\Local\Temp\cckPXr2I.s:428    .text.osc_set_period:00000000 osc_set_period
C:\Users\z80\AppData\Local\Temp\cckPXr2I.s:464    .text.writeOscQueue:00000000 $t
C:\Users\z80\AppData\Local\Temp\cckPXr2I.s:469    .text.writeOscQueue:00000000 writeOscQueue
C:\Users\z80\AppData\Local\Temp\cckPXr2I.s:559    .text.osc_iaux:00000000 $t
C:\Users\z80\AppData\Local\Temp\cckPXr2I.s:564    .text.osc_iaux:00000000 osc_iaux
C:\Users\z80\AppData\Local\Temp\cckPXr2I.s:588    .text.osc_eref:00000000 $t
C:\Users\z80\AppData\Local\Temp\cckPXr2I.s:593    .text.osc_eref:00000000 osc_eref
C:\Users\z80\AppData\Local\Temp\cckPXr2I.s:617    .text.osc_eaux:00000000 $t
C:\Users\z80\AppData\Local\Temp\cckPXr2I.s:622    .text.osc_eaux:00000000 osc_eaux
C:\Users\z80\AppData\Local\Temp\cckPXr2I.s:646    .text.cpu_io_init:00000000 $t
C:\Users\z80\AppData\Local\Temp\cckPXr2I.s:652    .text.cpu_io_init:00000000 cpu_io_init
C:\Users\z80\AppData\Local\Temp\cckPXr2I.s:690    .text.cpu_io_process:00000000 $t
C:\Users\z80\AppData\Local\Temp\cckPXr2I.s:696    .text.cpu_io_process:00000000 cpu_io_process
C:\Users\z80\AppData\Local\Temp\cckPXr2I.s:881    .text.cpu_io_process:000000a8 $d
C:\Users\z80\AppData\Local\Temp\cckPXr2I.s:897    .text.funcArgs:00000000 $t
C:\Users\z80\AppData\Local\Temp\cckPXr2I.s:903    .text.funcArgs:00000000 funcArgs
C:\Users\z80\AppData\Local\Temp\cckPXr2I.s:966    .bss.args:00000000 .LANCHOR3
C:\Users\z80\AppData\Local\Temp\cckPXr2I.s:919    .rodata.funcs:00000000 $d
C:\Users\z80\AppData\Local\Temp\cckPXr2I.s:923    .rodata.funcs:00000000 funcs
C:\Users\z80\AppData\Local\Temp\cckPXr2I.s:938    .bss.buffer:00000000 $d
C:\Users\z80\AppData\Local\Temp\cckPXr2I.s:942    .bss.buffer:00000000 buffer
C:\Users\z80\AppData\Local\Temp\cckPXr2I.s:948    .bss.slash.3686:00000000 slash.3686
C:\Users\z80\AppData\Local\Temp\cckPXr2I.s:949    .bss.slash.3686:00000000 $d
C:\Users\z80\AppData\Local\Temp\cckPXr2I.s:951    .rodata.str1.4:00000000 $d
C:\Users\z80\AppData\Local\Temp\cckPXr2I.s:958    .bss.out_index.3687:00000000 $d
C:\Users\z80\AppData\Local\Temp\cckPXr2I.s:962    .bss.out_index.3687:00000000 out_index.3687
C:\Users\z80\AppData\Local\Temp\cckPXr2I.s:965    .bss.args:00000000 $d
C:\Users\z80\AppData\Local\Temp\cckPXr2I.s:969    .bss.args:00000000 args
ARM GAS  C:\Users\z80\AppData\Local\Temp\cckPXr2I.s 			page 94


                     .debug_frame:00000010 $d
C:\Users\z80\AppData\Local\Temp\cckPXr2I.s:75     .text.writeResult:00000034 $t
C:\Users\z80\AppData\Local\Temp\cckPXr2I.s:106    .text.writeEom:00000014 $t
C:\Users\z80\AppData\Local\Temp\cckPXr2I.s:896    .text.cpu_io_process:000000c4 $t

UNDEFINED SYMBOLS
chOQPutTimeout
SD1
commandQueue
setScRelay
setOutRelay
setLeds
setOscPeriod
dbg_check_lock
dbg_check_unlock
chIQGetTimeout
iauxQueue
erefQueue
eauxQueue
sdStart
_pal_lld_setgroupmode
