ARM GAS  /tmp/ccjS8vxc.s 			page 1


   1              		.syntax unified
   2              		.cpu cortex-m3
   3              		.fpu softvfp
   4              		.eabi_attribute 20, 1
   5              		.eabi_attribute 21, 1
   6              		.eabi_attribute 23, 3
   7              		.eabi_attribute 24, 1
   8              		.eabi_attribute 25, 1
   9              		.eabi_attribute 26, 1
  10              		.eabi_attribute 30, 6
  11              		.eabi_attribute 18, 4
  12              		.thumb
  13              		.file	"crt0.c"
  14              		.section	.debug_abbrev,"",%progbits
  15              	.Ldebug_abbrev0:
  16              		.section	.debug_info,"",%progbits
  17              	.Ldebug_info0:
  18              		.section	.debug_line,"",%progbits
  19              	.Ldebug_line0:
  20 0000 5A010000 		.text
  20      0200BF00 
  20      00000201 
  20      FB0E0D00 
  20      01010101 
  21              	.Ltext0:
  22              		.cfi_sections	.debug_frame
  23              		.section	.text.__early_init,"ax",%progbits
  24              		.align	2
  25              		.p2align 4,,15
  26              		.weak	__early_init
  27              		.thumb
  28              		.thumb_func
  29              		.type	__early_init, %function
  30              	__early_init:
  31              	.LFB7:
  32              		.file 1 "../chibios_2.4.x/os/ports/GCC/ARMCMx/crt0.c"
  33              		.loc 1 220 0
  34              		.cfi_startproc
  35              		@ args = 0, pretend = 0, frame = 0
  36              		@ frame_needed = 0, uses_anonymous_args = 0
  37              		@ link register save eliminated.
  38              		.loc 1 220 0
  39 0000 7047     		bx	lr
  40              		.cfi_endproc
  41              	.LFE7:
  42              		.size	__early_init, .-__early_init
  43 0002 00BFAFF3 		.section	.text.__late_init,"ax",%progbits
  43      0080AFF3 
  43      0080AFF3 
  43      0080
  44              		.align	2
  45              		.p2align 4,,15
  46              		.weak	__late_init
  47              		.thumb
  48              		.thumb_func
  49              		.type	__late_init, %function
  50              	__late_init:
ARM GAS  /tmp/ccjS8vxc.s 			page 2


  51              	.LFB8:
  52              		.loc 1 232 0
  53              		.cfi_startproc
  54              		@ args = 0, pretend = 0, frame = 0
  55              		@ frame_needed = 0, uses_anonymous_args = 0
  56              		@ link register save eliminated.
  57              		.loc 1 232 0
  58 0000 7047     		bx	lr
  59              		.cfi_endproc
  60              	.LFE8:
  61              		.size	__late_init, .-__late_init
  62 0002 00BFAFF3 		.section	.text._default_exit,"ax",%progbits
  62      0080AFF3 
  62      0080AFF3 
  62      0080
  63              		.align	2
  64              		.p2align 4,,15
  65              		.weak	_default_exit
  66              		.thumb
  67              		.thumb_func
  68              		.type	_default_exit, %function
  69              	_default_exit:
  70              	.LFB9:
  71              		.loc 1 243 0
  72              		.cfi_startproc
  73              		@ Naked Function: prologue and epilogue provided by programmer.
  74              		@ args = 0, pretend = 0, frame = 0
  75              		@ frame_needed = 0, uses_anonymous_args = 0
  76              	.L4:
  77              		.loc 1 245 0 discriminator 1
  78 0000 FEE7     		b	.L4
  79              		.cfi_endproc
  80              	.LFE9:
  81              		.size	_default_exit, .-_default_exit
  82 0002 00BFAFF3 		.section	.text.ResetHandler,"ax",%progbits
  82      0080AFF3 
  82      0080AFF3 
  82      0080
  83              		.align	2
  84              		.p2align 4,,15
  85              		.global	ResetHandler
  86              		.thumb
  87              		.thumb_func
  88              		.type	ResetHandler, %function
  89              	ResetHandler:
  90              	.LFB10:
  91              		.loc 1 254 0
  92              		.cfi_startproc
  93              		@ Naked Function: prologue and epilogue provided by programmer.
  94              		@ args = 0, pretend = 0, frame = 0
  95              		@ frame_needed = 0, uses_anonymous_args = 0
  96              		.loc 1 260 0
  97              	@ 260 "../chibios_2.4.x/os/ports/GCC/ARMCMx/crt0.c" 1
  98 0000 72B6     		cpsid   i
  99              	@ 0 "" 2
 100              		.loc 1 261 0
 101              		.thumb
ARM GAS  /tmp/ccjS8vxc.s 			page 3


 102 0002 264C     		ldr	r4, .L18
 103              		.loc 1 262 0
 104              	@ 262 "../chibios_2.4.x/os/ports/GCC/ARMCMx/crt0.c" 1
 105 0004 84F30988 		msr     PSP, r4
 106              	@ 0 "" 2
 107              		.loc 1 280 0
 108              		.thumb
 109 0008 4FF00204 		mov	r4, #2
 110              		.loc 1 282 0
 111              	@ 282 "../chibios_2.4.x/os/ports/GCC/ARMCMx/crt0.c" 1
 112 000c 84F31488 		msr     CONTROL, r4
 113              	@ 0 "" 2
 114              		.loc 1 283 0
 115              	@ 283 "../chibios_2.4.x/os/ports/GCC/ARMCMx/crt0.c" 1
 116 0010 BFF36F8F 		isb
 117              	@ 0 "" 2
 118              		.thumb
 119              	.LBB2:
 120              		.loc 1 287 0
 121 0014 224C     		ldr	r4, .L18+4
 122 0016 234D     		ldr	r5, .L18+8
 123 0018 04E0     		b	.L6
 124              	.L7:
 125              		.loc 1 287 0 is_stmt 0 discriminator 2
 126 001a 4FF05533 		mov	r3, #1431655765
 127 001e 2360     		str	r3, [r4, #0]
 128 0020 04F10404 		add	r4, r4, #4
 129              	.L6:
 130              		.loc 1 287 0 discriminator 1
 131 0024 AC42     		cmp	r4, r5
 132 0026 F8D3     		bcc	.L7
 133              	.LBE2:
 134              	.LBB3:
 135              		.loc 1 290 0 is_stmt 1
 136 0028 1F4C     		ldr	r4, .L18+12
 137 002a 1C4D     		ldr	r5, .L18
 138 002c 04E0     		b	.L8
 139              	.L9:
 140              		.loc 1 290 0 is_stmt 0 discriminator 2
 141 002e 4FF05533 		mov	r3, #1431655765
 142 0032 2360     		str	r3, [r4, #0]
 143 0034 04F10404 		add	r4, r4, #4
 144              	.L8:
 145              		.loc 1 290 0 discriminator 1
 146 0038 AC42     		cmp	r4, r5
 147 003a F8D3     		bcc	.L9
 148              	.LBE3:
 149              		.loc 1 296 0 is_stmt 1
 150 003c FFF7FEFF 		bl	__early_init
 151              	.LBB4:
 152              		.loc 1 303 0
 153 0040 1A4D     		ldr	r5, .L18+16
 154              		.loc 1 304 0
 155 0042 1B4C     		ldr	r4, .L18+20
 156              		.loc 1 305 0
 157 0044 05E0     		b	.L10
 158              	.L11:
ARM GAS  /tmp/ccjS8vxc.s 			page 4


 159              		.loc 1 306 0
 160 0046 2B68     		ldr	r3, [r5, #0]
 161 0048 2360     		str	r3, [r4, #0]
 162 004a 04F10404 		add	r4, r4, #4
 163 004e 05F10405 		add	r5, r5, #4
 164              	.L10:
 165              		.loc 1 305 0 discriminator 1
 166 0052 184B     		ldr	r3, .L18+24
 167 0054 9C42     		cmp	r4, r3
 168 0056 F6D3     		bcc	.L11
 169              	.LBE4:
 170              	.LBB5:
 171              		.loc 1 312 0
 172 0058 174C     		ldr	r4, .L18+28
 173 005a 184D     		ldr	r5, .L18+32
 174 005c 04E0     		b	.L12
 175              	.L13:
 176              		.loc 1 312 0 is_stmt 0 discriminator 2
 177 005e 4FF00003 		mov	r3, #0
 178 0062 2360     		str	r3, [r4, #0]
 179 0064 04F10404 		add	r4, r4, #4
 180              	.L12:
 181              		.loc 1 312 0 discriminator 1
 182 0068 AC42     		cmp	r4, r5
 183 006a F8D3     		bcc	.L13
 184              	.LBE5:
 185              		.loc 1 316 0 is_stmt 1
 186 006c FFF7FEFF 		bl	__late_init
 187              	.LBB6:
 188              		.loc 1 321 0
 189 0070 134C     		ldr	r4, .L18+36
 190              		.loc 1 322 0
 191 0072 03E0     		b	.L14
 192              	.L15:
 193              		.loc 1 323 0
 194 0074 2368     		ldr	r3, [r4, #0]
 195 0076 9847     		blx	r3
 196              		.loc 1 324 0
 197 0078 04F10404 		add	r4, r4, #4
 198              	.L14:
 199              		.loc 1 322 0 discriminator 1
 200 007c 114B     		ldr	r3, .L18+40
 201 007e 9C42     		cmp	r4, r3
 202 0080 F8D3     		bcc	.L15
 203              	.LBE6:
 204              		.loc 1 330 0
 205 0082 FFF7FEFF 		bl	main
 206              	.LBB7:
 207              		.loc 1 335 0
 208 0086 104C     		ldr	r4, .L18+44
 209              		.loc 1 336 0
 210 0088 03E0     		b	.L16
 211              	.L17:
 212              		.loc 1 337 0
 213 008a 2368     		ldr	r3, [r4, #0]
 214 008c 9847     		blx	r3
 215              		.loc 1 338 0
ARM GAS  /tmp/ccjS8vxc.s 			page 5


 216 008e 04F10404 		add	r4, r4, #4
 217              	.L16:
 218              		.loc 1 336 0 discriminator 1
 219 0092 0E4B     		ldr	r3, .L18+48
 220 0094 9C42     		cmp	r4, r3
 221 0096 F8D3     		bcc	.L17
 222              	.LBE7:
 223              		.loc 1 344 0
 224 0098 FFF7FEFF 		bl	_default_exit
 225              		.loc 1 345 0
 226              	.L19:
 227              		.align	2
 228              	.L18:
 229 009c 00000000 		.word	__process_stack_end__
 230 00a0 00000000 		.word	__main_stack_base__
 231 00a4 00000000 		.word	__main_stack_end__
 232 00a8 00000000 		.word	__process_stack_base__
 233 00ac 00000000 		.word	_textdata
 234 00b0 00000000 		.word	_data
 235 00b4 00000000 		.word	_edata
 236 00b8 00000000 		.word	_bss_start
 237 00bc 00000000 		.word	_bss_end
 238 00c0 00000000 		.word	__init_array_start
 239 00c4 00000000 		.word	__init_array_end
 240 00c8 00000000 		.word	__fini_array_start
 241 00cc 00000000 		.word	__fini_array_end
 242              		.cfi_endproc
 243              	.LFE10:
 244              		.size	ResetHandler, .-ResetHandler
 245              		.text
 246              	.Letext0:
 247              		.file 2 "/home/z80/programs/code-sourcery/2011.03-42/bin/../lib/gcc/arm-none-eabi/4.5.2/../../../.
 248              		.section	.debug_info
 249 0000 48030000 		.4byte	0x348
 250 0004 0200     		.2byte	0x2
 251 0006 00000000 		.4byte	.Ldebug_abbrev0
 252 000a 04       		.byte	0x4
 253 000b 01       		.uleb128 0x1
 254 000c 23000000 		.4byte	.LASF30
 255 0010 01       		.byte	0x1
 256 0011 43010000 		.4byte	.LASF31
 257 0015 5D000000 		.4byte	.LASF32
 258 0019 00000000 		.4byte	0x0
 259 001d 00000000 		.4byte	0x0
 260 0021 00000000 		.4byte	.Ldebug_ranges0+0x0
 261 0025 00000000 		.4byte	.Ldebug_line0
 262 0029 02       		.uleb128 0x2
 263 002a 04       		.byte	0x4
 264 002b 05       		.byte	0x5
 265 002c 696E7400 		.ascii	"int\000"
 266 0030 03       		.uleb128 0x3
 267 0031 04       		.byte	0x4
 268 0032 07       		.byte	0x7
 269 0033 FF000000 		.4byte	.LASF0
 270 0037 03       		.uleb128 0x3
 271 0038 01       		.byte	0x1
 272 0039 06       		.byte	0x6
ARM GAS  /tmp/ccjS8vxc.s 			page 6


 273 003a C8010000 		.4byte	.LASF1
 274 003e 04       		.uleb128 0x4
 275 003f 6F010000 		.4byte	.LASF6
 276 0043 02       		.byte	0x2
 277 0044 2A       		.byte	0x2a
 278 0045 49000000 		.4byte	0x49
 279 0049 03       		.uleb128 0x3
 280 004a 01       		.byte	0x1
 281 004b 08       		.byte	0x8
 282 004c 8F000000 		.4byte	.LASF2
 283 0050 03       		.uleb128 0x3
 284 0051 02       		.byte	0x2
 285 0052 05       		.byte	0x5
 286 0053 9E010000 		.4byte	.LASF3
 287 0057 03       		.uleb128 0x3
 288 0058 02       		.byte	0x2
 289 0059 07       		.byte	0x7
 290 005a C8000000 		.4byte	.LASF4
 291 005e 03       		.uleb128 0x3
 292 005f 04       		.byte	0x4
 293 0060 05       		.byte	0x5
 294 0061 B9010000 		.4byte	.LASF5
 295 0065 04       		.uleb128 0x4
 296 0066 B0010000 		.4byte	.LASF7
 297 006a 02       		.byte	0x2
 298 006b 50       		.byte	0x50
 299 006c 70000000 		.4byte	0x70
 300 0070 03       		.uleb128 0x3
 301 0071 04       		.byte	0x4
 302 0072 07       		.byte	0x7
 303 0073 A9000000 		.4byte	.LASF8
 304 0077 03       		.uleb128 0x3
 305 0078 08       		.byte	0x8
 306 0079 05       		.byte	0x5
 307 007a 77010000 		.4byte	.LASF9
 308 007e 03       		.uleb128 0x3
 309 007f 08       		.byte	0x8
 310 0080 07       		.byte	0x7
 311 0081 0C010000 		.4byte	.LASF10
 312 0085 03       		.uleb128 0x3
 313 0086 01       		.byte	0x1
 314 0087 08       		.byte	0x8
 315 0088 85010000 		.4byte	.LASF11
 316 008c 04       		.uleb128 0x4
 317 008d A8010000 		.4byte	.LASF12
 318 0091 01       		.byte	0x1
 319 0092 26       		.byte	0x26
 320 0093 97000000 		.4byte	0x97
 321 0097 05       		.uleb128 0x5
 322 0098 04       		.byte	0x4
 323 0099 9D000000 		.4byte	0x9d
 324 009d 06       		.uleb128 0x6
 325 009e 01       		.byte	0x1
 326 009f 04       		.uleb128 0x4
 327 00a0 46000000 		.4byte	.LASF13
 328 00a4 01       		.byte	0x1
 329 00a5 27       		.byte	0x27
ARM GAS  /tmp/ccjS8vxc.s 			page 7


 330 00a6 AA000000 		.4byte	0xaa
 331 00aa 05       		.uleb128 0x5
 332 00ab 04       		.byte	0x4
 333 00ac 8C000000 		.4byte	0x8c
 334 00b0 07       		.uleb128 0x7
 335 00b1 01       		.byte	0x1
 336 00b2 36010000 		.4byte	.LASF14
 337 00b6 01       		.byte	0x1
 338 00b7 DC       		.byte	0xdc
 339 00b8 01       		.byte	0x1
 340 00b9 00000000 		.4byte	.LFB7
 341 00bd 02000000 		.4byte	.LFE7
 342 00c1 02       		.byte	0x2
 343 00c2 7D       		.byte	0x7d
 344 00c3 00       		.sleb128 0
 345 00c4 07       		.uleb128 0x7
 346 00c5 01       		.byte	0x1
 347 00c6 9D000000 		.4byte	.LASF15
 348 00ca 01       		.byte	0x1
 349 00cb E8       		.byte	0xe8
 350 00cc 01       		.byte	0x1
 351 00cd 00000000 		.4byte	.LFB8
 352 00d1 02000000 		.4byte	.LFE8
 353 00d5 02       		.byte	0x2
 354 00d6 7D       		.byte	0x7d
 355 00d7 00       		.sleb128 0
 356 00d8 07       		.uleb128 0x7
 357 00d9 01       		.byte	0x1
 358 00da 4F000000 		.4byte	.LASF16
 359 00de 01       		.byte	0x1
 360 00df F3       		.byte	0xf3
 361 00e0 01       		.byte	0x1
 362 00e1 00000000 		.4byte	.LFB9
 363 00e5 02000000 		.4byte	.LFE9
 364 00e9 02       		.byte	0x2
 365 00ea 7D       		.byte	0x7d
 366 00eb 00       		.sleb128 0
 367 00ec 08       		.uleb128 0x8
 368 00ed 01       		.byte	0x1
 369 00ee BB000000 		.4byte	.LASF33
 370 00f2 01       		.byte	0x1
 371 00f3 FE       		.byte	0xfe
 372 00f4 01       		.byte	0x1
 373 00f5 00000000 		.4byte	.LFB10
 374 00f9 D0000000 		.4byte	.LFE10
 375 00fd 02       		.byte	0x2
 376 00fe 7D       		.byte	0x7d
 377 00ff 00       		.sleb128 0
 378 0100 F3010000 		.4byte	0x1f3
 379 0104 09       		.uleb128 0x9
 380 0105 70737000 		.ascii	"psp\000"
 381 0109 01       		.byte	0x1
 382 010a FF       		.byte	0xff
 383 010b 65000000 		.4byte	0x65
 384 010f 01       		.byte	0x1
 385 0110 54       		.byte	0x54
 386 0111 09       		.uleb128 0x9
ARM GAS  /tmp/ccjS8vxc.s 			page 8


 387 0112 72656700 		.ascii	"reg\000"
 388 0116 01       		.byte	0x1
 389 0117 FF       		.byte	0xff
 390 0118 65000000 		.4byte	0x65
 391 011c 01       		.byte	0x1
 392 011d 54       		.byte	0x54
 393 011e 0A       		.uleb128 0xa
 394 011f 14000000 		.4byte	.LBB2
 395 0123 28000000 		.4byte	.LBE2
 396 0127 46010000 		.4byte	0x146
 397 012b 0B       		.uleb128 0xb
 398 012c 703100   		.ascii	"p1\000"
 399 012f 01       		.byte	0x1
 400 0130 1F01     		.2byte	0x11f
 401 0132 F3010000 		.4byte	0x1f3
 402 0136 01       		.byte	0x1
 403 0137 54       		.byte	0x54
 404 0138 0B       		.uleb128 0xb
 405 0139 703200   		.ascii	"p2\000"
 406 013c 01       		.byte	0x1
 407 013d 1F01     		.2byte	0x11f
 408 013f F3010000 		.4byte	0x1f3
 409 0143 01       		.byte	0x1
 410 0144 55       		.byte	0x55
 411 0145 00       		.byte	0x0
 412 0146 0A       		.uleb128 0xa
 413 0147 28000000 		.4byte	.LBB3
 414 014b 3C000000 		.4byte	.LBE3
 415 014f 6E010000 		.4byte	0x16e
 416 0153 0B       		.uleb128 0xb
 417 0154 703100   		.ascii	"p1\000"
 418 0157 01       		.byte	0x1
 419 0158 2201     		.2byte	0x122
 420 015a F3010000 		.4byte	0x1f3
 421 015e 01       		.byte	0x1
 422 015f 54       		.byte	0x54
 423 0160 0B       		.uleb128 0xb
 424 0161 703200   		.ascii	"p2\000"
 425 0164 01       		.byte	0x1
 426 0165 2201     		.2byte	0x122
 427 0167 F3010000 		.4byte	0x1f3
 428 016b 01       		.byte	0x1
 429 016c 55       		.byte	0x55
 430 016d 00       		.byte	0x0
 431 016e 0A       		.uleb128 0xa
 432 016f 40000000 		.4byte	.LBB4
 433 0173 58000000 		.4byte	.LBE4
 434 0177 96010000 		.4byte	0x196
 435 017b 0B       		.uleb128 0xb
 436 017c 747000   		.ascii	"tp\000"
 437 017f 01       		.byte	0x1
 438 0180 2D01     		.2byte	0x12d
 439 0182 F3010000 		.4byte	0x1f3
 440 0186 01       		.byte	0x1
 441 0187 55       		.byte	0x55
 442 0188 0B       		.uleb128 0xb
 443 0189 647000   		.ascii	"dp\000"
ARM GAS  /tmp/ccjS8vxc.s 			page 9


 444 018c 01       		.byte	0x1
 445 018d 2D01     		.2byte	0x12d
 446 018f F3010000 		.4byte	0x1f3
 447 0193 01       		.byte	0x1
 448 0194 54       		.byte	0x54
 449 0195 00       		.byte	0x0
 450 0196 0A       		.uleb128 0xa
 451 0197 58000000 		.4byte	.LBB5
 452 019b 6C000000 		.4byte	.LBE5
 453 019f BE010000 		.4byte	0x1be
 454 01a3 0B       		.uleb128 0xb
 455 01a4 703100   		.ascii	"p1\000"
 456 01a7 01       		.byte	0x1
 457 01a8 3801     		.2byte	0x138
 458 01aa F3010000 		.4byte	0x1f3
 459 01ae 01       		.byte	0x1
 460 01af 54       		.byte	0x54
 461 01b0 0B       		.uleb128 0xb
 462 01b1 703200   		.ascii	"p2\000"
 463 01b4 01       		.byte	0x1
 464 01b5 3801     		.2byte	0x138
 465 01b7 F3010000 		.4byte	0x1f3
 466 01bb 01       		.byte	0x1
 467 01bc 55       		.byte	0x55
 468 01bd 00       		.byte	0x0
 469 01be 0A       		.uleb128 0xa
 470 01bf 70000000 		.4byte	.LBB6
 471 01c3 82000000 		.4byte	.LBE6
 472 01c7 DA010000 		.4byte	0x1da
 473 01cb 0B       		.uleb128 0xb
 474 01cc 66707000 		.ascii	"fpp\000"
 475 01d0 01       		.byte	0x1
 476 01d1 4101     		.2byte	0x141
 477 01d3 9F000000 		.4byte	0x9f
 478 01d7 01       		.byte	0x1
 479 01d8 54       		.byte	0x54
 480 01d9 00       		.byte	0x0
 481 01da 0C       		.uleb128 0xc
 482 01db 86000000 		.4byte	.LBB7
 483 01df 98000000 		.4byte	.LBE7
 484 01e3 0B       		.uleb128 0xb
 485 01e4 66707000 		.ascii	"fpp\000"
 486 01e8 01       		.byte	0x1
 487 01e9 4F01     		.2byte	0x14f
 488 01eb 9F000000 		.4byte	0x9f
 489 01ef 01       		.byte	0x1
 490 01f0 54       		.byte	0x54
 491 01f1 00       		.byte	0x0
 492 01f2 00       		.byte	0x0
 493 01f3 05       		.uleb128 0x5
 494 01f4 04       		.byte	0x4
 495 01f5 65000000 		.4byte	0x65
 496 01f9 0D       		.uleb128 0xd
 497 01fa 8A010000 		.4byte	.LASF17
 498 01fe 01       		.byte	0x1
 499 01ff 7D       		.byte	0x7d
 500 0200 65000000 		.4byte	0x65
ARM GAS  /tmp/ccjS8vxc.s 			page 10


 501 0204 01       		.byte	0x1
 502 0205 01       		.byte	0x1
 503 0206 0D       		.uleb128 0xd
 504 0207 FD010000 		.4byte	.LASF18
 505 020b 01       		.byte	0x1
 506 020c 85       		.byte	0x85
 507 020d 65000000 		.4byte	0x65
 508 0211 01       		.byte	0x1
 509 0212 01       		.byte	0x1
 510 0213 0D       		.uleb128 0xd
 511 0214 2F000000 		.4byte	.LASF19
 512 0218 01       		.byte	0x1
 513 0219 8C       		.byte	0x8c
 514 021a 65000000 		.4byte	0x65
 515 021e 01       		.byte	0x1
 516 021f 01       		.byte	0x1
 517 0220 0D       		.uleb128 0xd
 518 0221 D4010000 		.4byte	.LASF20
 519 0225 01       		.byte	0x1
 520 0226 93       		.byte	0x93
 521 0227 65000000 		.4byte	0x65
 522 022b 01       		.byte	0x1
 523 022c 01       		.byte	0x1
 524 022d 0D       		.uleb128 0xd
 525 022e 2C010000 		.4byte	.LASF21
 526 0232 01       		.byte	0x1
 527 0233 99       		.byte	0x99
 528 0234 65000000 		.4byte	0x65
 529 0238 01       		.byte	0x1
 530 0239 01       		.byte	0x1
 531 023a 0D       		.uleb128 0xd
 532 023b C2010000 		.4byte	.LASF22
 533 023f 01       		.byte	0x1
 534 0240 9F       		.byte	0x9f
 535 0241 65000000 		.4byte	0x65
 536 0245 01       		.byte	0x1
 537 0246 01       		.byte	0x1
 538 0247 0D       		.uleb128 0xd
 539 0248 0B000000 		.4byte	.LASF23
 540 024c 01       		.byte	0x1
 541 024d A5       		.byte	0xa5
 542 024e 65000000 		.4byte	0x65
 543 0252 01       		.byte	0x1
 544 0253 01       		.byte	0x1
 545 0254 0D       		.uleb128 0xd
 546 0255 00000000 		.4byte	.LASF24
 547 0259 01       		.byte	0x1
 548 025a AB       		.byte	0xab
 549 025b 65000000 		.4byte	0x65
 550 025f 01       		.byte	0x1
 551 0260 01       		.byte	0x1
 552 0261 0D       		.uleb128 0xd
 553 0262 23010000 		.4byte	.LASF25
 554 0266 01       		.byte	0x1
 555 0267 B1       		.byte	0xb1
 556 0268 65000000 		.4byte	0x65
 557 026c 01       		.byte	0x1
ARM GAS  /tmp/ccjS8vxc.s 			page 11


 558 026d 01       		.byte	0x1
 559 026e 0D       		.uleb128 0xd
 560 026f EA010000 		.4byte	.LASF26
 561 0273 01       		.byte	0x1
 562 0274 B7       		.byte	0xb7
 563 0275 8C000000 		.4byte	0x8c
 564 0279 01       		.byte	0x1
 565 027a 01       		.byte	0x1
 566 027b 0D       		.uleb128 0xd
 567 027c EE000000 		.4byte	.LASF27
 568 0280 01       		.byte	0x1
 569 0281 BD       		.byte	0xbd
 570 0282 8C000000 		.4byte	0x8c
 571 0286 01       		.byte	0x1
 572 0287 01       		.byte	0x1
 573 0288 0D       		.uleb128 0xd
 574 0289 DB000000 		.4byte	.LASF28
 575 028d 01       		.byte	0x1
 576 028e C3       		.byte	0xc3
 577 028f 8C000000 		.4byte	0x8c
 578 0293 01       		.byte	0x1
 579 0294 01       		.byte	0x1
 580 0295 0D       		.uleb128 0xd
 581 0296 12000000 		.4byte	.LASF29
 582 029a 01       		.byte	0x1
 583 029b C9       		.byte	0xc9
 584 029c 8C000000 		.4byte	0x8c
 585 02a0 01       		.byte	0x1
 586 02a1 01       		.byte	0x1
 587 02a2 0D       		.uleb128 0xd
 588 02a3 8A010000 		.4byte	.LASF17
 589 02a7 01       		.byte	0x1
 590 02a8 7D       		.byte	0x7d
 591 02a9 65000000 		.4byte	0x65
 592 02ad 01       		.byte	0x1
 593 02ae 01       		.byte	0x1
 594 02af 0D       		.uleb128 0xd
 595 02b0 FD010000 		.4byte	.LASF18
 596 02b4 01       		.byte	0x1
 597 02b5 85       		.byte	0x85
 598 02b6 65000000 		.4byte	0x65
 599 02ba 01       		.byte	0x1
 600 02bb 01       		.byte	0x1
 601 02bc 0D       		.uleb128 0xd
 602 02bd 2F000000 		.4byte	.LASF19
 603 02c1 01       		.byte	0x1
 604 02c2 8C       		.byte	0x8c
 605 02c3 65000000 		.4byte	0x65
 606 02c7 01       		.byte	0x1
 607 02c8 01       		.byte	0x1
 608 02c9 0D       		.uleb128 0xd
 609 02ca D4010000 		.4byte	.LASF20
 610 02ce 01       		.byte	0x1
 611 02cf 93       		.byte	0x93
 612 02d0 65000000 		.4byte	0x65
 613 02d4 01       		.byte	0x1
 614 02d5 01       		.byte	0x1
ARM GAS  /tmp/ccjS8vxc.s 			page 12


 615 02d6 0D       		.uleb128 0xd
 616 02d7 2C010000 		.4byte	.LASF21
 617 02db 01       		.byte	0x1
 618 02dc 99       		.byte	0x99
 619 02dd 65000000 		.4byte	0x65
 620 02e1 01       		.byte	0x1
 621 02e2 01       		.byte	0x1
 622 02e3 0D       		.uleb128 0xd
 623 02e4 C2010000 		.4byte	.LASF22
 624 02e8 01       		.byte	0x1
 625 02e9 9F       		.byte	0x9f
 626 02ea 65000000 		.4byte	0x65
 627 02ee 01       		.byte	0x1
 628 02ef 01       		.byte	0x1
 629 02f0 0D       		.uleb128 0xd
 630 02f1 0B000000 		.4byte	.LASF23
 631 02f5 01       		.byte	0x1
 632 02f6 A5       		.byte	0xa5
 633 02f7 65000000 		.4byte	0x65
 634 02fb 01       		.byte	0x1
 635 02fc 01       		.byte	0x1
 636 02fd 0D       		.uleb128 0xd
 637 02fe 00000000 		.4byte	.LASF24
 638 0302 01       		.byte	0x1
 639 0303 AB       		.byte	0xab
 640 0304 65000000 		.4byte	0x65
 641 0308 01       		.byte	0x1
 642 0309 01       		.byte	0x1
 643 030a 0D       		.uleb128 0xd
 644 030b 23010000 		.4byte	.LASF25
 645 030f 01       		.byte	0x1
 646 0310 B1       		.byte	0xb1
 647 0311 65000000 		.4byte	0x65
 648 0315 01       		.byte	0x1
 649 0316 01       		.byte	0x1
 650 0317 0D       		.uleb128 0xd
 651 0318 EA010000 		.4byte	.LASF26
 652 031c 01       		.byte	0x1
 653 031d B7       		.byte	0xb7
 654 031e 8C000000 		.4byte	0x8c
 655 0322 01       		.byte	0x1
 656 0323 01       		.byte	0x1
 657 0324 0D       		.uleb128 0xd
 658 0325 EE000000 		.4byte	.LASF27
 659 0329 01       		.byte	0x1
 660 032a BD       		.byte	0xbd
 661 032b 8C000000 		.4byte	0x8c
 662 032f 01       		.byte	0x1
 663 0330 01       		.byte	0x1
 664 0331 0D       		.uleb128 0xd
 665 0332 DB000000 		.4byte	.LASF28
 666 0336 01       		.byte	0x1
 667 0337 C3       		.byte	0xc3
 668 0338 8C000000 		.4byte	0x8c
 669 033c 01       		.byte	0x1
 670 033d 01       		.byte	0x1
 671 033e 0D       		.uleb128 0xd
ARM GAS  /tmp/ccjS8vxc.s 			page 13


 672 033f 12000000 		.4byte	.LASF29
 673 0343 01       		.byte	0x1
 674 0344 C9       		.byte	0xc9
 675 0345 8C000000 		.4byte	0x8c
 676 0349 01       		.byte	0x1
 677 034a 01       		.byte	0x1
 678 034b 00       		.byte	0x0
 679              		.section	.debug_abbrev
 680 0000 01       		.uleb128 0x1
 681 0001 11       		.uleb128 0x11
 682 0002 01       		.byte	0x1
 683 0003 25       		.uleb128 0x25
 684 0004 0E       		.uleb128 0xe
 685 0005 13       		.uleb128 0x13
 686 0006 0B       		.uleb128 0xb
 687 0007 03       		.uleb128 0x3
 688 0008 0E       		.uleb128 0xe
 689 0009 1B       		.uleb128 0x1b
 690 000a 0E       		.uleb128 0xe
 691 000b 11       		.uleb128 0x11
 692 000c 01       		.uleb128 0x1
 693 000d 52       		.uleb128 0x52
 694 000e 01       		.uleb128 0x1
 695 000f 55       		.uleb128 0x55
 696 0010 06       		.uleb128 0x6
 697 0011 10       		.uleb128 0x10
 698 0012 06       		.uleb128 0x6
 699 0013 00       		.byte	0x0
 700 0014 00       		.byte	0x0
 701 0015 02       		.uleb128 0x2
 702 0016 24       		.uleb128 0x24
 703 0017 00       		.byte	0x0
 704 0018 0B       		.uleb128 0xb
 705 0019 0B       		.uleb128 0xb
 706 001a 3E       		.uleb128 0x3e
 707 001b 0B       		.uleb128 0xb
 708 001c 03       		.uleb128 0x3
 709 001d 08       		.uleb128 0x8
 710 001e 00       		.byte	0x0
 711 001f 00       		.byte	0x0
 712 0020 03       		.uleb128 0x3
 713 0021 24       		.uleb128 0x24
 714 0022 00       		.byte	0x0
 715 0023 0B       		.uleb128 0xb
 716 0024 0B       		.uleb128 0xb
 717 0025 3E       		.uleb128 0x3e
 718 0026 0B       		.uleb128 0xb
 719 0027 03       		.uleb128 0x3
 720 0028 0E       		.uleb128 0xe
 721 0029 00       		.byte	0x0
 722 002a 00       		.byte	0x0
 723 002b 04       		.uleb128 0x4
 724 002c 16       		.uleb128 0x16
 725 002d 00       		.byte	0x0
 726 002e 03       		.uleb128 0x3
 727 002f 0E       		.uleb128 0xe
 728 0030 3A       		.uleb128 0x3a
ARM GAS  /tmp/ccjS8vxc.s 			page 14


 729 0031 0B       		.uleb128 0xb
 730 0032 3B       		.uleb128 0x3b
 731 0033 0B       		.uleb128 0xb
 732 0034 49       		.uleb128 0x49
 733 0035 13       		.uleb128 0x13
 734 0036 00       		.byte	0x0
 735 0037 00       		.byte	0x0
 736 0038 05       		.uleb128 0x5
 737 0039 0F       		.uleb128 0xf
 738 003a 00       		.byte	0x0
 739 003b 0B       		.uleb128 0xb
 740 003c 0B       		.uleb128 0xb
 741 003d 49       		.uleb128 0x49
 742 003e 13       		.uleb128 0x13
 743 003f 00       		.byte	0x0
 744 0040 00       		.byte	0x0
 745 0041 06       		.uleb128 0x6
 746 0042 15       		.uleb128 0x15
 747 0043 00       		.byte	0x0
 748 0044 27       		.uleb128 0x27
 749 0045 0C       		.uleb128 0xc
 750 0046 00       		.byte	0x0
 751 0047 00       		.byte	0x0
 752 0048 07       		.uleb128 0x7
 753 0049 2E       		.uleb128 0x2e
 754 004a 00       		.byte	0x0
 755 004b 3F       		.uleb128 0x3f
 756 004c 0C       		.uleb128 0xc
 757 004d 03       		.uleb128 0x3
 758 004e 0E       		.uleb128 0xe
 759 004f 3A       		.uleb128 0x3a
 760 0050 0B       		.uleb128 0xb
 761 0051 3B       		.uleb128 0x3b
 762 0052 0B       		.uleb128 0xb
 763 0053 27       		.uleb128 0x27
 764 0054 0C       		.uleb128 0xc
 765 0055 11       		.uleb128 0x11
 766 0056 01       		.uleb128 0x1
 767 0057 12       		.uleb128 0x12
 768 0058 01       		.uleb128 0x1
 769 0059 40       		.uleb128 0x40
 770 005a 0A       		.uleb128 0xa
 771 005b 00       		.byte	0x0
 772 005c 00       		.byte	0x0
 773 005d 08       		.uleb128 0x8
 774 005e 2E       		.uleb128 0x2e
 775 005f 01       		.byte	0x1
 776 0060 3F       		.uleb128 0x3f
 777 0061 0C       		.uleb128 0xc
 778 0062 03       		.uleb128 0x3
 779 0063 0E       		.uleb128 0xe
 780 0064 3A       		.uleb128 0x3a
 781 0065 0B       		.uleb128 0xb
 782 0066 3B       		.uleb128 0x3b
 783 0067 0B       		.uleb128 0xb
 784 0068 27       		.uleb128 0x27
 785 0069 0C       		.uleb128 0xc
ARM GAS  /tmp/ccjS8vxc.s 			page 15


 786 006a 11       		.uleb128 0x11
 787 006b 01       		.uleb128 0x1
 788 006c 12       		.uleb128 0x12
 789 006d 01       		.uleb128 0x1
 790 006e 40       		.uleb128 0x40
 791 006f 0A       		.uleb128 0xa
 792 0070 01       		.uleb128 0x1
 793 0071 13       		.uleb128 0x13
 794 0072 00       		.byte	0x0
 795 0073 00       		.byte	0x0
 796 0074 09       		.uleb128 0x9
 797 0075 34       		.uleb128 0x34
 798 0076 00       		.byte	0x0
 799 0077 03       		.uleb128 0x3
 800 0078 08       		.uleb128 0x8
 801 0079 3A       		.uleb128 0x3a
 802 007a 0B       		.uleb128 0xb
 803 007b 3B       		.uleb128 0x3b
 804 007c 0B       		.uleb128 0xb
 805 007d 49       		.uleb128 0x49
 806 007e 13       		.uleb128 0x13
 807 007f 02       		.uleb128 0x2
 808 0080 0A       		.uleb128 0xa
 809 0081 00       		.byte	0x0
 810 0082 00       		.byte	0x0
 811 0083 0A       		.uleb128 0xa
 812 0084 0B       		.uleb128 0xb
 813 0085 01       		.byte	0x1
 814 0086 11       		.uleb128 0x11
 815 0087 01       		.uleb128 0x1
 816 0088 12       		.uleb128 0x12
 817 0089 01       		.uleb128 0x1
 818 008a 01       		.uleb128 0x1
 819 008b 13       		.uleb128 0x13
 820 008c 00       		.byte	0x0
 821 008d 00       		.byte	0x0
 822 008e 0B       		.uleb128 0xb
 823 008f 34       		.uleb128 0x34
 824 0090 00       		.byte	0x0
 825 0091 03       		.uleb128 0x3
 826 0092 08       		.uleb128 0x8
 827 0093 3A       		.uleb128 0x3a
 828 0094 0B       		.uleb128 0xb
 829 0095 3B       		.uleb128 0x3b
 830 0096 05       		.uleb128 0x5
 831 0097 49       		.uleb128 0x49
 832 0098 13       		.uleb128 0x13
 833 0099 02       		.uleb128 0x2
 834 009a 0A       		.uleb128 0xa
 835 009b 00       		.byte	0x0
 836 009c 00       		.byte	0x0
 837 009d 0C       		.uleb128 0xc
 838 009e 0B       		.uleb128 0xb
 839 009f 01       		.byte	0x1
 840 00a0 11       		.uleb128 0x11
 841 00a1 01       		.uleb128 0x1
 842 00a2 12       		.uleb128 0x12
ARM GAS  /tmp/ccjS8vxc.s 			page 16


 843 00a3 01       		.uleb128 0x1
 844 00a4 00       		.byte	0x0
 845 00a5 00       		.byte	0x0
 846 00a6 0D       		.uleb128 0xd
 847 00a7 34       		.uleb128 0x34
 848 00a8 00       		.byte	0x0
 849 00a9 03       		.uleb128 0x3
 850 00aa 0E       		.uleb128 0xe
 851 00ab 3A       		.uleb128 0x3a
 852 00ac 0B       		.uleb128 0xb
 853 00ad 3B       		.uleb128 0x3b
 854 00ae 0B       		.uleb128 0xb
 855 00af 49       		.uleb128 0x49
 856 00b0 13       		.uleb128 0x13
 857 00b1 3F       		.uleb128 0x3f
 858 00b2 0C       		.uleb128 0xc
 859 00b3 3C       		.uleb128 0x3c
 860 00b4 0C       		.uleb128 0xc
 861 00b5 00       		.byte	0x0
 862 00b6 00       		.byte	0x0
 863 00b7 00       		.byte	0x0
 864              		.section	.debug_pubnames,"",%progbits
 865 0000 52000000 		.4byte	0x52
 866 0004 0200     		.2byte	0x2
 867 0006 00000000 		.4byte	.Ldebug_info0
 868 000a 4C030000 		.4byte	0x34c
 869 000e B0000000 		.4byte	0xb0
 870 0012 5F5F6561 		.ascii	"__early_init\000"
 870      726C795F 
 870      696E6974 
 870      00
 871 001f C4000000 		.4byte	0xc4
 872 0023 5F5F6C61 		.ascii	"__late_init\000"
 872      74655F69 
 872      6E697400 
 873 002f D8000000 		.4byte	0xd8
 874 0033 5F646566 		.ascii	"_default_exit\000"
 874      61756C74 
 874      5F657869 
 874      7400
 875 0041 EC000000 		.4byte	0xec
 876 0045 52657365 		.ascii	"ResetHandler\000"
 876      7448616E 
 876      646C6572 
 876      00
 877 0052 00000000 		.4byte	0x0
 878              		.section	.debug_pubtypes,"",%progbits
 879 0000 40000000 		.4byte	0x40
 880 0004 0200     		.2byte	0x2
 881 0006 00000000 		.4byte	.Ldebug_info0
 882 000a 4C030000 		.4byte	0x34c
 883 000e 3E000000 		.4byte	0x3e
 884 0012 75696E74 		.ascii	"uint8_t\000"
 884      385F7400 
 885 001a 65000000 		.4byte	0x65
 886 001e 75696E74 		.ascii	"uint32_t\000"
 886      33325F74 
ARM GAS  /tmp/ccjS8vxc.s 			page 17


 886      00
 887 0027 8C000000 		.4byte	0x8c
 888 002b 66756E63 		.ascii	"funcp_t\000"
 888      705F7400 
 889 0033 9F000000 		.4byte	0x9f
 890 0037 66756E63 		.ascii	"funcpp_t\000"
 890      70705F74 
 890      00
 891 0040 00000000 		.4byte	0x0
 892              		.section	.debug_aranges,"",%progbits
 893 0000 34000000 		.4byte	0x34
 894 0004 0200     		.2byte	0x2
 895 0006 00000000 		.4byte	.Ldebug_info0
 896 000a 04       		.byte	0x4
 897 000b 00       		.byte	0x0
 898 000c 0000     		.2byte	0x0
 899 000e 0000     		.2byte	0x0
 900 0010 00000000 		.4byte	.LFB7
 901 0014 02000000 		.4byte	.LFE7-.LFB7
 902 0018 00000000 		.4byte	.LFB8
 903 001c 02000000 		.4byte	.LFE8-.LFB8
 904 0020 00000000 		.4byte	.LFB9
 905 0024 02000000 		.4byte	.LFE9-.LFB9
 906 0028 00000000 		.4byte	.LFB10
 907 002c D0000000 		.4byte	.LFE10-.LFB10
 908 0030 00000000 		.4byte	0x0
 909 0034 00000000 		.4byte	0x0
 910              		.section	.debug_ranges,"",%progbits
 911              	.Ldebug_ranges0:
 912 0000 00000000 		.4byte	.LFB7
 913 0004 02000000 		.4byte	.LFE7
 914 0008 00000000 		.4byte	.LFB8
 915 000c 02000000 		.4byte	.LFE8
 916 0010 00000000 		.4byte	.LFB9
 917 0014 02000000 		.4byte	.LFE9
 918 0018 00000000 		.4byte	.LFB10
 919 001c D0000000 		.4byte	.LFE10
 920 0020 00000000 		.4byte	0x0
 921 0024 00000000 		.4byte	0x0
 922              		.section	.debug_str,"MS",%progbits,1
 923              	.LASF24:
 924 0000 5F627373 		.ascii	"_bss_start\000"
 924      5F737461 
 924      727400
 925              	.LASF23:
 926 000b 5F656461 		.ascii	"_edata\000"
 926      746100
 927              	.LASF29:
 928 0012 5F5F6669 		.ascii	"__fini_array_end\000"
 928      6E695F61 
 928      72726179 
 928      5F656E64 
 928      00
 929              	.LASF30:
 930 0023 474E5520 		.ascii	"GNU C 4.5.2\000"
 930      4320342E 
 930      352E3200 
ARM GAS  /tmp/ccjS8vxc.s 			page 18


 931              	.LASF19:
 932 002f 5F5F7072 		.ascii	"__process_stack_base__\000"
 932      6F636573 
 932      735F7374 
 932      61636B5F 
 932      62617365 
 933              	.LASF13:
 934 0046 66756E63 		.ascii	"funcpp_t\000"
 934      70705F74 
 934      00
 935              	.LASF16:
 936 004f 5F646566 		.ascii	"_default_exit\000"
 936      61756C74 
 936      5F657869 
 936      7400
 937              	.LASF32:
 938 005d 2F686F6D 		.ascii	"/home/z80/projects/voltamper.git/firmware/voltamp\000"
 938      652F7A38 
 938      302F7072 
 938      6F6A6563 
 938      74732F76 
 939              	.LASF2:
 940 008f 756E7369 		.ascii	"unsigned char\000"
 940      676E6564 
 940      20636861 
 940      7200
 941              	.LASF15:
 942 009d 5F5F6C61 		.ascii	"__late_init\000"
 942      74655F69 
 942      6E697400 
 943              	.LASF8:
 944 00a9 6C6F6E67 		.ascii	"long unsigned int\000"
 944      20756E73 
 944      69676E65 
 944      6420696E 
 944      7400
 945              	.LASF33:
 946 00bb 52657365 		.ascii	"ResetHandler\000"
 946      7448616E 
 946      646C6572 
 946      00
 947              	.LASF4:
 948 00c8 73686F72 		.ascii	"short unsigned int\000"
 948      7420756E 
 948      7369676E 
 948      65642069 
 948      6E7400
 949              	.LASF28:
 950 00db 5F5F6669 		.ascii	"__fini_array_start\000"
 950      6E695F61 
 950      72726179 
 950      5F737461 
 950      727400
 951              	.LASF27:
 952 00ee 5F5F696E 		.ascii	"__init_array_end\000"
 952      69745F61 
 952      72726179 
ARM GAS  /tmp/ccjS8vxc.s 			page 19


 952      5F656E64 
 952      00
 953              	.LASF0:
 954 00ff 756E7369 		.ascii	"unsigned int\000"
 954      676E6564 
 954      20696E74 
 954      00
 955              	.LASF10:
 956 010c 6C6F6E67 		.ascii	"long long unsigned int\000"
 956      206C6F6E 
 956      6720756E 
 956      7369676E 
 956      65642069 
 957              	.LASF25:
 958 0123 5F627373 		.ascii	"_bss_end\000"
 958      5F656E64 
 958      00
 959              	.LASF21:
 960 012c 5F746578 		.ascii	"_textdata\000"
 960      74646174 
 960      6100
 961              	.LASF14:
 962 0136 5F5F6561 		.ascii	"__early_init\000"
 962      726C795F 
 962      696E6974 
 962      00
 963              	.LASF31:
 964 0143 2E2E2F63 		.ascii	"../chibios_2.4.x/os/ports/GCC/ARMCMx/crt0.c\000"
 964      68696269 
 964      6F735F32 
 964      2E342E78 
 964      2F6F732F 
 965              	.LASF6:
 966 016f 75696E74 		.ascii	"uint8_t\000"
 966      385F7400 
 967              	.LASF9:
 968 0177 6C6F6E67 		.ascii	"long long int\000"
 968      206C6F6E 
 968      6720696E 
 968      7400
 969              	.LASF11:
 970 0185 63686172 		.ascii	"char\000"
 970      00
 971              	.LASF17:
 972 018a 5F5F6D61 		.ascii	"__main_stack_base__\000"
 972      696E5F73 
 972      7461636B 
 972      5F626173 
 972      655F5F00 
 973              	.LASF3:
 974 019e 73686F72 		.ascii	"short int\000"
 974      7420696E 
 974      7400
 975              	.LASF12:
 976 01a8 66756E63 		.ascii	"funcp_t\000"
 976      705F7400 
 977              	.LASF7:
ARM GAS  /tmp/ccjS8vxc.s 			page 20


 978 01b0 75696E74 		.ascii	"uint32_t\000"
 978      33325F74 
 978      00
 979              	.LASF5:
 980 01b9 6C6F6E67 		.ascii	"long int\000"
 980      20696E74 
 980      00
 981              	.LASF22:
 982 01c2 5F646174 		.ascii	"_data\000"
 982      6100
 983              	.LASF1:
 984 01c8 7369676E 		.ascii	"signed char\000"
 984      65642063 
 984      68617200 
 985              	.LASF20:
 986 01d4 5F5F7072 		.ascii	"__process_stack_end__\000"
 986      6F636573 
 986      735F7374 
 986      61636B5F 
 986      656E645F 
 987              	.LASF26:
 988 01ea 5F5F696E 		.ascii	"__init_array_start\000"
 988      69745F61 
 988      72726179 
 988      5F737461 
 988      727400
 989              	.LASF18:
 990 01fd 5F5F6D61 		.ascii	"__main_stack_end__\000"
 990      696E5F73 
 990      7461636B 
 990      5F656E64 
 990      5F5F00
 991              		.ident	"GCC: (Sourcery G++ Lite 2011.03-42) 4.5.2"
ARM GAS  /tmp/ccjS8vxc.s 			page 21


DEFINED SYMBOLS
                            *ABS*:00000000 crt0.c
     /tmp/ccjS8vxc.s:24     .text.__early_init:00000000 $t
     /tmp/ccjS8vxc.s:30     .text.__early_init:00000000 __early_init
     /tmp/ccjS8vxc.s:44     .text.__late_init:00000000 $t
     /tmp/ccjS8vxc.s:50     .text.__late_init:00000000 __late_init
     /tmp/ccjS8vxc.s:63     .text._default_exit:00000000 $t
     /tmp/ccjS8vxc.s:69     .text._default_exit:00000000 _default_exit
     /tmp/ccjS8vxc.s:83     .text.ResetHandler:00000000 $t
     /tmp/ccjS8vxc.s:89     .text.ResetHandler:00000000 ResetHandler
     /tmp/ccjS8vxc.s:229    .text.ResetHandler:0000009c $d
                     .debug_frame:00000010 $d

UNDEFINED SYMBOLS
main
__process_stack_end__
__main_stack_base__
__main_stack_end__
__process_stack_base__
_textdata
_data
_edata
_bss_start
_bss_end
__init_array_start
__init_array_end
__fini_array_start
__fini_array_end
