ARM GAS  C:\Users\z80\AppData\Local\Temp\ccCXTmNd.s 			page 1


   1              		.syntax unified
   2              		.cpu cortex-m3
   3              		.fpu softvfp
   4              		.eabi_attribute 20, 1
   5              		.eabi_attribute 21, 1
   6              		.eabi_attribute 23, 3
   7              		.eabi_attribute 24, 1
   8              		.eabi_attribute 25, 1
   9              		.eabi_attribute 26, 1
  10              		.eabi_attribute 30, 2
  11              		.eabi_attribute 18, 4
  12              		.thumb
  13              		.file	"crt0.c"
  14              		.section	.debug_abbrev,"",%progbits
  15              	.Ldebug_abbrev0:
  16              		.section	.debug_info,"",%progbits
  17              	.Ldebug_info0:
  18              		.section	.debug_line,"",%progbits
  19              	.Ldebug_line0:
  20 0000 11010000 		.text
  20      02008A00 
  20      00000201 
  20      FB0E0D00 
  20      01010101 
  21              	.Ltext0:
  22              		.cfi_sections	.debug_frame
  23              		.section	.text.__early_init,"ax",%progbits
  24              		.align	2
  25              		.p2align 4,,15
  26              		.weak	__early_init
  27              		.thumb
  28              		.thumb_func
  29              		.type	__early_init, %function
  30              	__early_init:
  31              	.LFB7:
  32              		.file 1 "../chibios_2.4.x/os/ports/GCC/ARMCMx/crt0.c"
  33              		.loc 1 220 0
  34              		.cfi_startproc
  35              		@ args = 0, pretend = 0, frame = 0
  36              		@ frame_needed = 0, uses_anonymous_args = 0
  37              		@ link register save eliminated.
  38              		.loc 1 220 0
  39 0000 7047     		bx	lr
  40              		.cfi_endproc
  41              	.LFE7:
  42              		.size	__early_init, .-__early_init
  43 0002 00BFAFF3 		.section	.text.__late_init,"ax",%progbits
  43      0080AFF3 
  43      0080AFF3 
  43      0080
  44              		.align	2
  45              		.p2align 4,,15
  46              		.weak	__late_init
  47              		.thumb
  48              		.thumb_func
  49              		.type	__late_init, %function
  50              	__late_init:
ARM GAS  C:\Users\z80\AppData\Local\Temp\ccCXTmNd.s 			page 2


  51              	.LFB8:
  52              		.loc 1 232 0
  53              		.cfi_startproc
  54              		@ args = 0, pretend = 0, frame = 0
  55              		@ frame_needed = 0, uses_anonymous_args = 0
  56              		@ link register save eliminated.
  57              		.loc 1 232 0
  58 0000 7047     		bx	lr
  59              		.cfi_endproc
  60              	.LFE8:
  61              		.size	__late_init, .-__late_init
  62 0002 00BFAFF3 		.section	.text._default_exit,"ax",%progbits
  62      0080AFF3 
  62      0080AFF3 
  62      0080
  63              		.align	2
  64              		.p2align 4,,15
  65              		.weak	_default_exit
  66              		.thumb
  67              		.thumb_func
  68              		.type	_default_exit, %function
  69              	_default_exit:
  70              	.LFB9:
  71              		.loc 1 243 0
  72              		.cfi_startproc
  73              		@ Naked Function: prologue and epilogue provided by programmer.
  74              		@ args = 0, pretend = 0, frame = 0
  75              		@ frame_needed = 0, uses_anonymous_args = 0
  76              	.L4:
  77 0000 FEE7     		b	.L4
  78              		.cfi_endproc
  79              	.LFE9:
  80              		.size	_default_exit, .-_default_exit
  81 0002 00BFAFF3 		.section	.text.ResetHandler,"ax",%progbits
  81      0080AFF3 
  81      0080AFF3 
  81      0080
  82              		.align	2
  83              		.p2align 4,,15
  84              		.global	ResetHandler
  85              		.thumb
  86              		.thumb_func
  87              		.type	ResetHandler, %function
  88              	ResetHandler:
  89              	.LFB10:
  90              		.loc 1 254 0
  91              		.cfi_startproc
  92              		@ Naked Function: prologue and epilogue provided by programmer.
  93              		@ args = 0, pretend = 0, frame = 0
  94              		@ frame_needed = 0, uses_anonymous_args = 0
  95              		.loc 1 260 0
  96              	@ 260 "../chibios_2.4.x/os/ports/GCC/ARMCMx/crt0.c" 1
  97 0000 72B6     		cpsid   i
  98              	@ 0 "" 2
  99              	.LVL0:
 100              		.loc 1 262 0
 101              		.thumb
ARM GAS  C:\Users\z80\AppData\Local\Temp\ccCXTmNd.s 			page 3


 102 0002 244A     		ldr	r2, .L25
 103              	@ 262 "../chibios_2.4.x/os/ports/GCC/ARMCMx/crt0.c" 1
 104 0004 82F30988 		msr     PSP, r2
 105              	@ 0 "" 2
 106              	.LVL1:
 107              		.loc 1 282 0
 108              		.thumb
 109 0008 0223     		movs	r3, #2
 110              	@ 282 "../chibios_2.4.x/os/ports/GCC/ARMCMx/crt0.c" 1
 111 000a 83F31488 		msr     CONTROL, r3
 112              	@ 0 "" 2
 113              		.loc 1 283 0
 114              	@ 283 "../chibios_2.4.x/os/ports/GCC/ARMCMx/crt0.c" 1
 115 000e BFF36F8F 		isb
 116              	@ 0 "" 2
 117              	.LVL2:
 118              		.thumb
 119              	.LBB2:
 120              		.loc 1 287 0
 121 0012 214B     		ldr	r3, .L25+4
 122 0014 2149     		ldr	r1, .L25+8
 123 0016 8B42     		cmp	r3, r1
 124 0018 05D2     		bcs	.L6
 125              		.loc 1 287 0 is_stmt 0 discriminator 2
 126 001a 4FF05530 		mov	r0, #1431655765
 127              	.LVL3:
 128              	.L7:
 129 001e 43F8040B 		str	r0, [r3], #4
 130              	.LVL4:
 131 0022 8B42     		cmp	r3, r1
 132 0024 FBD3     		bcc	.L7
 133              	.LVL5:
 134              	.L6:
 135              	.LBE2:
 136              	.LBB3:
 137              		.loc 1 290 0 is_stmt 1 discriminator 1
 138 0026 1E4B     		ldr	r3, .L25+12
 139 0028 9342     		cmp	r3, r2
 140 002a 05D2     		bcs	.L8
 141              		.loc 1 290 0 is_stmt 0 discriminator 2
 142 002c 4FF05531 		mov	r1, #1431655765
 143              	.LVL6:
 144              	.L9:
 145 0030 43F8041B 		str	r1, [r3], #4
 146              	.LVL7:
 147 0034 9342     		cmp	r3, r2
 148 0036 FBD3     		bcc	.L9
 149              	.LVL8:
 150              	.L8:
 151              	.LBE3:
 152              		.loc 1 296 0 is_stmt 1
 153 0038 FFF7FEFF 		bl	__early_init
 154              	.LVL9:
 155              	.LBB4:
 156              		.loc 1 305 0
 157 003c 194B     		ldr	r3, .L25+16
 158 003e 1A48     		ldr	r0, .L25+20
ARM GAS  C:\Users\z80\AppData\Local\Temp\ccCXTmNd.s 			page 4


 159 0040 8342     		cmp	r3, r0
 160 0042 06D2     		bcs	.L10
 161 0044 194A     		ldr	r2, .L25+24
 162              	.LVL10:
 163              	.L11:
 164              		.loc 1 306 0
 165 0046 52F8041B 		ldr	r1, [r2], #4
 166 004a 43F8041B 		str	r1, [r3], #4
 167              	.LVL11:
 168              		.loc 1 305 0
 169 004e 8342     		cmp	r3, r0
 170 0050 F9D3     		bcc	.L11
 171              	.LVL12:
 172              	.L10:
 173              	.LBE4:
 174              	.LBB5:
 175              		.loc 1 312 0 discriminator 1
 176 0052 174B     		ldr	r3, .L25+28
 177 0054 174A     		ldr	r2, .L25+32
 178 0056 9342     		cmp	r3, r2
 179 0058 04D2     		bcs	.L12
 180              		.loc 1 312 0 is_stmt 0 discriminator 2
 181 005a 0021     		movs	r1, #0
 182              	.LVL13:
 183              	.L13:
 184 005c 43F8041B 		str	r1, [r3], #4
 185              	.LVL14:
 186 0060 9342     		cmp	r3, r2
 187 0062 FBD3     		bcc	.L13
 188              	.LVL15:
 189              	.L12:
 190              	.LBE5:
 191              	.LBB6:
 192              		.loc 1 322 0 is_stmt 1
 193 0064 144D     		ldr	r5, .L25+36
 194 0066 154C     		ldr	r4, .L25+40
 195              	.LBE6:
 196              		.loc 1 316 0
 197 0068 FFF7FEFF 		bl	__late_init
 198              	.LVL16:
 199              	.LBB7:
 200              		.loc 1 322 0
 201 006c AC42     		cmp	r4, r5
 202 006e 04D2     		bcs	.L14
 203              	.LVL17:
 204              	.L15:
 205              		.loc 1 323 0
 206 0070 54F8043B 		ldr	r3, [r4], #4
 207 0074 9847     		blx	r3
 208              	.LVL18:
 209              		.loc 1 322 0
 210 0076 AC42     		cmp	r4, r5
 211 0078 FAD3     		bcc	.L15
 212              	.LVL19:
 213              	.L14:
 214              	.LBE7:
 215              	.LBB8:
ARM GAS  C:\Users\z80\AppData\Local\Temp\ccCXTmNd.s 			page 5


 216              		.loc 1 336 0
 217 007a 114D     		ldr	r5, .L25+44
 218 007c 114C     		ldr	r4, .L25+48
 219              	.LBE8:
 220              		.loc 1 330 0
 221 007e FFF7FEFF 		bl	main
 222              	.LVL20:
 223              	.LBB9:
 224              		.loc 1 336 0
 225 0082 AC42     		cmp	r4, r5
 226 0084 04D2     		bcs	.L16
 227              	.LVL21:
 228              	.L17:
 229              		.loc 1 337 0
 230 0086 54F8043B 		ldr	r3, [r4], #4
 231 008a 9847     		blx	r3
 232              	.LVL22:
 233              		.loc 1 336 0
 234 008c AC42     		cmp	r4, r5
 235 008e FAD3     		bcc	.L17
 236              	.LVL23:
 237              	.L16:
 238              	.LBE9:
 239              		.loc 1 344 0
 240 0090 FFF7FEFF 		bl	_default_exit
 241              		.loc 1 345 0
 242              	.L26:
 243              		.align	2
 244              	.L25:
 245 0094 00000000 		.word	__process_stack_end__
 246 0098 00000000 		.word	__main_stack_base__
 247 009c 00000000 		.word	__main_stack_end__
 248 00a0 00000000 		.word	__process_stack_base__
 249 00a4 00000000 		.word	_data
 250 00a8 00000000 		.word	_edata
 251 00ac 00000000 		.word	_textdata
 252 00b0 00000000 		.word	_bss_start
 253 00b4 00000000 		.word	_bss_end
 254 00b8 00000000 		.word	__init_array_end
 255 00bc 00000000 		.word	__init_array_start
 256 00c0 00000000 		.word	__fini_array_end
 257 00c4 00000000 		.word	__fini_array_start
 258              		.cfi_endproc
 259              	.LFE10:
 260              		.size	ResetHandler, .-ResetHandler
 261 00c8 AFF30080 		.text
 261      AFF30080 
 262              	.Letext0:
 263              		.section	.debug_loc,"",%progbits
 264              	.Ldebug_loc0:
 265              	.LLST0:
 266 0000 22000000 		.4byte	.LVL4
 267 0004 26000000 		.4byte	.LVL5
 268 0008 0100     		.2byte	0x1
 269 000a 53       		.byte	0x53
 270 000b 00000000 		.4byte	0x0
 271 000f 00000000 		.4byte	0x0
ARM GAS  C:\Users\z80\AppData\Local\Temp\ccCXTmNd.s 			page 6


 272              	.LLST1:
 273 0013 34000000 		.4byte	.LVL7
 274 0017 38000000 		.4byte	.LVL8
 275 001b 0100     		.2byte	0x1
 276 001d 53       		.byte	0x53
 277 001e 00000000 		.4byte	0x0
 278 0022 00000000 		.4byte	0x0
 279              	.LLST2:
 280 0026 4E000000 		.4byte	.LVL11
 281 002a 52000000 		.4byte	.LVL12
 282 002e 0100     		.2byte	0x1
 283 0030 53       		.byte	0x53
 284 0031 00000000 		.4byte	0x0
 285 0035 00000000 		.4byte	0x0
 286              	.LLST3:
 287 0039 60000000 		.4byte	.LVL14
 288 003d 64000000 		.4byte	.LVL15
 289 0041 0100     		.2byte	0x1
 290 0043 53       		.byte	0x53
 291 0044 00000000 		.4byte	0x0
 292 0048 00000000 		.4byte	0x0
 293              	.LLST4:
 294 004c 76000000 		.4byte	.LVL18
 295 0050 7A000000 		.4byte	.LVL19
 296 0054 0100     		.2byte	0x1
 297 0056 54       		.byte	0x54
 298 0057 00000000 		.4byte	0x0
 299 005b 00000000 		.4byte	0x0
 300              	.LLST5:
 301 005f 8C000000 		.4byte	.LVL22
 302 0063 90000000 		.4byte	.LVL23
 303 0067 0100     		.2byte	0x1
 304 0069 54       		.byte	0x54
 305 006a 00000000 		.4byte	0x0
 306 006e 00000000 		.4byte	0x0
 307              		.file 2 "c:/programs/yagarto/lib/gcc/../../arm-none-eabi/sys-include/stdint.h"
 308              		.section	.debug_info
 309 0000 44030000 		.4byte	0x344
 310 0004 0200     		.2byte	0x2
 311 0006 00000000 		.4byte	.Ldebug_abbrev0
 312 000a 04       		.byte	0x4
 313 000b 01       		.uleb128 0x1
 314 000c C1000000 		.4byte	.LASF30
 315 0010 01       		.byte	0x1
 316 0011 11010000 		.4byte	.LASF31
 317 0015 76010000 		.4byte	.LASF32
 318 0019 00000000 		.4byte	0x0
 319 001d 00000000 		.4byte	0x0
 320 0021 30000000 		.4byte	.Ldebug_ranges0+0x30
 321 0025 00000000 		.4byte	.Ldebug_line0
 322 0029 02       		.uleb128 0x2
 323 002a 04       		.byte	0x4
 324 002b 05       		.byte	0x5
 325 002c 696E7400 		.ascii	"int\000"
 326 0030 03       		.uleb128 0x3
 327 0031 04       		.byte	0x4
 328 0032 07       		.byte	0x7
ARM GAS  C:\Users\z80\AppData\Local\Temp\ccCXTmNd.s 			page 7


 329 0033 CD000000 		.4byte	.LASF0
 330 0037 03       		.uleb128 0x3
 331 0038 01       		.byte	0x1
 332 0039 06       		.byte	0x6
 333 003a C1010000 		.4byte	.LASF1
 334 003e 04       		.uleb128 0x4
 335 003f 3D010000 		.4byte	.LASF6
 336 0043 02       		.byte	0x2
 337 0044 2A       		.byte	0x2a
 338 0045 49000000 		.4byte	0x49
 339 0049 03       		.uleb128 0x3
 340 004a 01       		.byte	0x1
 341 004b 08       		.byte	0x8
 342 004c 51000000 		.4byte	.LASF2
 343 0050 03       		.uleb128 0x3
 344 0051 02       		.byte	0x2
 345 0052 05       		.byte	0x5
 346 0053 6C010000 		.4byte	.LASF3
 347 0057 03       		.uleb128 0x3
 348 0058 02       		.byte	0x2
 349 0059 07       		.byte	0x7
 350 005a 8A000000 		.4byte	.LASF4
 351 005e 03       		.uleb128 0x3
 352 005f 04       		.byte	0x4
 353 0060 05       		.byte	0x5
 354 0061 B2010000 		.4byte	.LASF5
 355 0065 04       		.uleb128 0x4
 356 0066 A9010000 		.4byte	.LASF7
 357 006a 02       		.byte	0x2
 358 006b 50       		.byte	0x50
 359 006c 70000000 		.4byte	0x70
 360 0070 03       		.uleb128 0x3
 361 0071 04       		.byte	0x4
 362 0072 07       		.byte	0x7
 363 0073 6B000000 		.4byte	.LASF8
 364 0077 03       		.uleb128 0x3
 365 0078 08       		.byte	0x8
 366 0079 05       		.byte	0x5
 367 007a 45010000 		.4byte	.LASF9
 368 007e 03       		.uleb128 0x3
 369 007f 08       		.byte	0x8
 370 0080 07       		.byte	0x7
 371 0081 DA000000 		.4byte	.LASF10
 372 0085 05       		.uleb128 0x5
 373 0086 04       		.byte	0x4
 374 0087 07       		.byte	0x7
 375 0088 03       		.uleb128 0x3
 376 0089 01       		.byte	0x1
 377 008a 08       		.byte	0x8
 378 008b 53010000 		.4byte	.LASF11
 379 008f 04       		.uleb128 0x4
 380 0090 A1010000 		.4byte	.LASF12
 381 0094 01       		.byte	0x1
 382 0095 26       		.byte	0x26
 383 0096 9A000000 		.4byte	0x9a
 384 009a 06       		.uleb128 0x6
 385 009b 04       		.byte	0x4
ARM GAS  C:\Users\z80\AppData\Local\Temp\ccCXTmNd.s 			page 8


 386 009c A0000000 		.4byte	0xa0
 387 00a0 07       		.uleb128 0x7
 388 00a1 01       		.byte	0x1
 389 00a2 04       		.uleb128 0x4
 390 00a3 3A000000 		.4byte	.LASF13
 391 00a7 01       		.byte	0x1
 392 00a8 27       		.byte	0x27
 393 00a9 AD000000 		.4byte	0xad
 394 00ad 06       		.uleb128 0x6
 395 00ae 04       		.byte	0x4
 396 00af 8F000000 		.4byte	0x8f
 397 00b3 08       		.uleb128 0x8
 398 00b4 01       		.byte	0x1
 399 00b5 04010000 		.4byte	.LASF14
 400 00b9 01       		.byte	0x1
 401 00ba DC       		.byte	0xdc
 402 00bb 01       		.byte	0x1
 403 00bc 00000000 		.4byte	.LFB7
 404 00c0 02000000 		.4byte	.LFE7
 405 00c4 02       		.byte	0x2
 406 00c5 7D       		.byte	0x7d
 407 00c6 00       		.sleb128 0
 408 00c7 08       		.uleb128 0x8
 409 00c8 01       		.byte	0x1
 410 00c9 5F000000 		.4byte	.LASF15
 411 00cd 01       		.byte	0x1
 412 00ce E8       		.byte	0xe8
 413 00cf 01       		.byte	0x1
 414 00d0 00000000 		.4byte	.LFB8
 415 00d4 02000000 		.4byte	.LFE8
 416 00d8 02       		.byte	0x2
 417 00d9 7D       		.byte	0x7d
 418 00da 00       		.sleb128 0
 419 00db 08       		.uleb128 0x8
 420 00dc 01       		.byte	0x1
 421 00dd 43000000 		.4byte	.LASF16
 422 00e1 01       		.byte	0x1
 423 00e2 F3       		.byte	0xf3
 424 00e3 01       		.byte	0x1
 425 00e4 00000000 		.4byte	.LFB9
 426 00e8 02000000 		.4byte	.LFE9
 427 00ec 02       		.byte	0x2
 428 00ed 7D       		.byte	0x7d
 429 00ee 00       		.sleb128 0
 430 00ef 09       		.uleb128 0x9
 431 00f0 01       		.byte	0x1
 432 00f1 7D000000 		.4byte	.LASF33
 433 00f5 01       		.byte	0x1
 434 00f6 FE       		.byte	0xfe
 435 00f7 01       		.byte	0x1
 436 00f8 00000000 		.4byte	.LFB10
 437 00fc C8000000 		.4byte	.LFE10
 438 0100 02       		.byte	0x2
 439 0101 7D       		.byte	0x7d
 440 0102 00       		.sleb128 0
 441 0103 EF010000 		.4byte	0x1ef
 442 0107 0A       		.uleb128 0xa
ARM GAS  C:\Users\z80\AppData\Local\Temp\ccCXTmNd.s 			page 9


 443 0108 70737000 		.ascii	"psp\000"
 444 010c 01       		.byte	0x1
 445 010d FF       		.byte	0xff
 446 010e 65000000 		.4byte	0x65
 447 0112 0B       		.uleb128 0xb
 448 0113 72656700 		.ascii	"reg\000"
 449 0117 01       		.byte	0x1
 450 0118 FF       		.byte	0xff
 451 0119 65000000 		.4byte	0x65
 452 011d 02       		.byte	0x2
 453 011e 0C       		.uleb128 0xc
 454 011f 12000000 		.4byte	.LBB2
 455 0123 26000000 		.4byte	.LBE2
 456 0127 46010000 		.4byte	0x146
 457 012b 0D       		.uleb128 0xd
 458 012c 703100   		.ascii	"p1\000"
 459 012f 01       		.byte	0x1
 460 0130 1F01     		.2byte	0x11f
 461 0132 EF010000 		.4byte	0x1ef
 462 0136 00000000 		.4byte	.LLST0
 463 013a 0E       		.uleb128 0xe
 464 013b 703200   		.ascii	"p2\000"
 465 013e 01       		.byte	0x1
 466 013f 1F01     		.2byte	0x11f
 467 0141 EF010000 		.4byte	0x1ef
 468 0145 00       		.byte	0x0
 469 0146 0C       		.uleb128 0xc
 470 0147 26000000 		.4byte	.LBB3
 471 014b 38000000 		.4byte	.LBE3
 472 014f 6E010000 		.4byte	0x16e
 473 0153 0D       		.uleb128 0xd
 474 0154 703100   		.ascii	"p1\000"
 475 0157 01       		.byte	0x1
 476 0158 2201     		.2byte	0x122
 477 015a EF010000 		.4byte	0x1ef
 478 015e 13000000 		.4byte	.LLST1
 479 0162 0E       		.uleb128 0xe
 480 0163 703200   		.ascii	"p2\000"
 481 0166 01       		.byte	0x1
 482 0167 2201     		.2byte	0x122
 483 0169 EF010000 		.4byte	0x1ef
 484 016d 00       		.byte	0x0
 485 016e 0C       		.uleb128 0xc
 486 016f 3C000000 		.4byte	.LBB4
 487 0173 52000000 		.4byte	.LBE4
 488 0177 96010000 		.4byte	0x196
 489 017b 0E       		.uleb128 0xe
 490 017c 747000   		.ascii	"tp\000"
 491 017f 01       		.byte	0x1
 492 0180 2D01     		.2byte	0x12d
 493 0182 EF010000 		.4byte	0x1ef
 494 0186 0D       		.uleb128 0xd
 495 0187 647000   		.ascii	"dp\000"
 496 018a 01       		.byte	0x1
 497 018b 2D01     		.2byte	0x12d
 498 018d EF010000 		.4byte	0x1ef
 499 0191 26000000 		.4byte	.LLST2
ARM GAS  C:\Users\z80\AppData\Local\Temp\ccCXTmNd.s 			page 10


 500 0195 00       		.byte	0x0
 501 0196 0C       		.uleb128 0xc
 502 0197 52000000 		.4byte	.LBB5
 503 019b 64000000 		.4byte	.LBE5
 504 019f BE010000 		.4byte	0x1be
 505 01a3 0D       		.uleb128 0xd
 506 01a4 703100   		.ascii	"p1\000"
 507 01a7 01       		.byte	0x1
 508 01a8 3801     		.2byte	0x138
 509 01aa EF010000 		.4byte	0x1ef
 510 01ae 39000000 		.4byte	.LLST3
 511 01b2 0E       		.uleb128 0xe
 512 01b3 703200   		.ascii	"p2\000"
 513 01b6 01       		.byte	0x1
 514 01b7 3801     		.2byte	0x138
 515 01b9 EF010000 		.4byte	0x1ef
 516 01bd 00       		.byte	0x0
 517 01be 0F       		.uleb128 0xf
 518 01bf 00000000 		.4byte	.Ldebug_ranges0+0x0
 519 01c3 D8010000 		.4byte	0x1d8
 520 01c7 0D       		.uleb128 0xd
 521 01c8 66707000 		.ascii	"fpp\000"
 522 01cc 01       		.byte	0x1
 523 01cd 4101     		.2byte	0x141
 524 01cf A2000000 		.4byte	0xa2
 525 01d3 4C000000 		.4byte	.LLST4
 526 01d7 00       		.byte	0x0
 527 01d8 10       		.uleb128 0x10
 528 01d9 18000000 		.4byte	.Ldebug_ranges0+0x18
 529 01dd 0D       		.uleb128 0xd
 530 01de 66707000 		.ascii	"fpp\000"
 531 01e2 01       		.byte	0x1
 532 01e3 4F01     		.2byte	0x14f
 533 01e5 A2000000 		.4byte	0xa2
 534 01e9 5F000000 		.4byte	.LLST5
 535 01ed 00       		.byte	0x0
 536 01ee 00       		.byte	0x0
 537 01ef 06       		.uleb128 0x6
 538 01f0 04       		.byte	0x4
 539 01f1 65000000 		.4byte	0x65
 540 01f5 11       		.uleb128 0x11
 541 01f6 58010000 		.4byte	.LASF17
 542 01fa 01       		.byte	0x1
 543 01fb 7D       		.byte	0x7d
 544 01fc 65000000 		.4byte	0x65
 545 0200 01       		.byte	0x1
 546 0201 01       		.byte	0x1
 547 0202 11       		.uleb128 0x11
 548 0203 F6010000 		.4byte	.LASF18
 549 0207 01       		.byte	0x1
 550 0208 85       		.byte	0x85
 551 0209 65000000 		.4byte	0x65
 552 020d 01       		.byte	0x1
 553 020e 01       		.byte	0x1
 554 020f 11       		.uleb128 0x11
 555 0210 23000000 		.4byte	.LASF19
 556 0214 01       		.byte	0x1
ARM GAS  C:\Users\z80\AppData\Local\Temp\ccCXTmNd.s 			page 11


 557 0215 8C       		.byte	0x8c
 558 0216 65000000 		.4byte	0x65
 559 021a 01       		.byte	0x1
 560 021b 01       		.byte	0x1
 561 021c 11       		.uleb128 0x11
 562 021d CD010000 		.4byte	.LASF20
 563 0221 01       		.byte	0x1
 564 0222 93       		.byte	0x93
 565 0223 65000000 		.4byte	0x65
 566 0227 01       		.byte	0x1
 567 0228 01       		.byte	0x1
 568 0229 11       		.uleb128 0x11
 569 022a FA000000 		.4byte	.LASF21
 570 022e 01       		.byte	0x1
 571 022f 99       		.byte	0x99
 572 0230 65000000 		.4byte	0x65
 573 0234 01       		.byte	0x1
 574 0235 01       		.byte	0x1
 575 0236 11       		.uleb128 0x11
 576 0237 BB010000 		.4byte	.LASF22
 577 023b 01       		.byte	0x1
 578 023c 9F       		.byte	0x9f
 579 023d 65000000 		.4byte	0x65
 580 0241 01       		.byte	0x1
 581 0242 01       		.byte	0x1
 582 0243 11       		.uleb128 0x11
 583 0244 0B000000 		.4byte	.LASF23
 584 0248 01       		.byte	0x1
 585 0249 A5       		.byte	0xa5
 586 024a 65000000 		.4byte	0x65
 587 024e 01       		.byte	0x1
 588 024f 01       		.byte	0x1
 589 0250 11       		.uleb128 0x11
 590 0251 00000000 		.4byte	.LASF24
 591 0255 01       		.byte	0x1
 592 0256 AB       		.byte	0xab
 593 0257 65000000 		.4byte	0x65
 594 025b 01       		.byte	0x1
 595 025c 01       		.byte	0x1
 596 025d 11       		.uleb128 0x11
 597 025e F1000000 		.4byte	.LASF25
 598 0262 01       		.byte	0x1
 599 0263 B1       		.byte	0xb1
 600 0264 65000000 		.4byte	0x65
 601 0268 01       		.byte	0x1
 602 0269 01       		.byte	0x1
 603 026a 11       		.uleb128 0x11
 604 026b E3010000 		.4byte	.LASF26
 605 026f 01       		.byte	0x1
 606 0270 B7       		.byte	0xb7
 607 0271 8F000000 		.4byte	0x8f
 608 0275 01       		.byte	0x1
 609 0276 01       		.byte	0x1
 610 0277 11       		.uleb128 0x11
 611 0278 B0000000 		.4byte	.LASF27
 612 027c 01       		.byte	0x1
 613 027d BD       		.byte	0xbd
ARM GAS  C:\Users\z80\AppData\Local\Temp\ccCXTmNd.s 			page 12


 614 027e 8F000000 		.4byte	0x8f
 615 0282 01       		.byte	0x1
 616 0283 01       		.byte	0x1
 617 0284 11       		.uleb128 0x11
 618 0285 9D000000 		.4byte	.LASF28
 619 0289 01       		.byte	0x1
 620 028a C3       		.byte	0xc3
 621 028b 8F000000 		.4byte	0x8f
 622 028f 01       		.byte	0x1
 623 0290 01       		.byte	0x1
 624 0291 11       		.uleb128 0x11
 625 0292 12000000 		.4byte	.LASF29
 626 0296 01       		.byte	0x1
 627 0297 C9       		.byte	0xc9
 628 0298 8F000000 		.4byte	0x8f
 629 029c 01       		.byte	0x1
 630 029d 01       		.byte	0x1
 631 029e 11       		.uleb128 0x11
 632 029f 58010000 		.4byte	.LASF17
 633 02a3 01       		.byte	0x1
 634 02a4 7D       		.byte	0x7d
 635 02a5 65000000 		.4byte	0x65
 636 02a9 01       		.byte	0x1
 637 02aa 01       		.byte	0x1
 638 02ab 11       		.uleb128 0x11
 639 02ac F6010000 		.4byte	.LASF18
 640 02b0 01       		.byte	0x1
 641 02b1 85       		.byte	0x85
 642 02b2 65000000 		.4byte	0x65
 643 02b6 01       		.byte	0x1
 644 02b7 01       		.byte	0x1
 645 02b8 11       		.uleb128 0x11
 646 02b9 23000000 		.4byte	.LASF19
 647 02bd 01       		.byte	0x1
 648 02be 8C       		.byte	0x8c
 649 02bf 65000000 		.4byte	0x65
 650 02c3 01       		.byte	0x1
 651 02c4 01       		.byte	0x1
 652 02c5 11       		.uleb128 0x11
 653 02c6 CD010000 		.4byte	.LASF20
 654 02ca 01       		.byte	0x1
 655 02cb 93       		.byte	0x93
 656 02cc 65000000 		.4byte	0x65
 657 02d0 01       		.byte	0x1
 658 02d1 01       		.byte	0x1
 659 02d2 11       		.uleb128 0x11
 660 02d3 FA000000 		.4byte	.LASF21
 661 02d7 01       		.byte	0x1
 662 02d8 99       		.byte	0x99
 663 02d9 65000000 		.4byte	0x65
 664 02dd 01       		.byte	0x1
 665 02de 01       		.byte	0x1
 666 02df 11       		.uleb128 0x11
 667 02e0 BB010000 		.4byte	.LASF22
 668 02e4 01       		.byte	0x1
 669 02e5 9F       		.byte	0x9f
 670 02e6 65000000 		.4byte	0x65
ARM GAS  C:\Users\z80\AppData\Local\Temp\ccCXTmNd.s 			page 13


 671 02ea 01       		.byte	0x1
 672 02eb 01       		.byte	0x1
 673 02ec 11       		.uleb128 0x11
 674 02ed 0B000000 		.4byte	.LASF23
 675 02f1 01       		.byte	0x1
 676 02f2 A5       		.byte	0xa5
 677 02f3 65000000 		.4byte	0x65
 678 02f7 01       		.byte	0x1
 679 02f8 01       		.byte	0x1
 680 02f9 11       		.uleb128 0x11
 681 02fa 00000000 		.4byte	.LASF24
 682 02fe 01       		.byte	0x1
 683 02ff AB       		.byte	0xab
 684 0300 65000000 		.4byte	0x65
 685 0304 01       		.byte	0x1
 686 0305 01       		.byte	0x1
 687 0306 11       		.uleb128 0x11
 688 0307 F1000000 		.4byte	.LASF25
 689 030b 01       		.byte	0x1
 690 030c B1       		.byte	0xb1
 691 030d 65000000 		.4byte	0x65
 692 0311 01       		.byte	0x1
 693 0312 01       		.byte	0x1
 694 0313 11       		.uleb128 0x11
 695 0314 E3010000 		.4byte	.LASF26
 696 0318 01       		.byte	0x1
 697 0319 B7       		.byte	0xb7
 698 031a 8F000000 		.4byte	0x8f
 699 031e 01       		.byte	0x1
 700 031f 01       		.byte	0x1
 701 0320 11       		.uleb128 0x11
 702 0321 B0000000 		.4byte	.LASF27
 703 0325 01       		.byte	0x1
 704 0326 BD       		.byte	0xbd
 705 0327 8F000000 		.4byte	0x8f
 706 032b 01       		.byte	0x1
 707 032c 01       		.byte	0x1
 708 032d 11       		.uleb128 0x11
 709 032e 9D000000 		.4byte	.LASF28
 710 0332 01       		.byte	0x1
 711 0333 C3       		.byte	0xc3
 712 0334 8F000000 		.4byte	0x8f
 713 0338 01       		.byte	0x1
 714 0339 01       		.byte	0x1
 715 033a 11       		.uleb128 0x11
 716 033b 12000000 		.4byte	.LASF29
 717 033f 01       		.byte	0x1
 718 0340 C9       		.byte	0xc9
 719 0341 8F000000 		.4byte	0x8f
 720 0345 01       		.byte	0x1
 721 0346 01       		.byte	0x1
 722 0347 00       		.byte	0x0
 723              		.section	.debug_abbrev
 724 0000 01       		.uleb128 0x1
 725 0001 11       		.uleb128 0x11
 726 0002 01       		.byte	0x1
 727 0003 25       		.uleb128 0x25
ARM GAS  C:\Users\z80\AppData\Local\Temp\ccCXTmNd.s 			page 14


 728 0004 0E       		.uleb128 0xe
 729 0005 13       		.uleb128 0x13
 730 0006 0B       		.uleb128 0xb
 731 0007 03       		.uleb128 0x3
 732 0008 0E       		.uleb128 0xe
 733 0009 1B       		.uleb128 0x1b
 734 000a 0E       		.uleb128 0xe
 735 000b 11       		.uleb128 0x11
 736 000c 01       		.uleb128 0x1
 737 000d 52       		.uleb128 0x52
 738 000e 01       		.uleb128 0x1
 739 000f 55       		.uleb128 0x55
 740 0010 06       		.uleb128 0x6
 741 0011 10       		.uleb128 0x10
 742 0012 06       		.uleb128 0x6
 743 0013 00       		.byte	0x0
 744 0014 00       		.byte	0x0
 745 0015 02       		.uleb128 0x2
 746 0016 24       		.uleb128 0x24
 747 0017 00       		.byte	0x0
 748 0018 0B       		.uleb128 0xb
 749 0019 0B       		.uleb128 0xb
 750 001a 3E       		.uleb128 0x3e
 751 001b 0B       		.uleb128 0xb
 752 001c 03       		.uleb128 0x3
 753 001d 08       		.uleb128 0x8
 754 001e 00       		.byte	0x0
 755 001f 00       		.byte	0x0
 756 0020 03       		.uleb128 0x3
 757 0021 24       		.uleb128 0x24
 758 0022 00       		.byte	0x0
 759 0023 0B       		.uleb128 0xb
 760 0024 0B       		.uleb128 0xb
 761 0025 3E       		.uleb128 0x3e
 762 0026 0B       		.uleb128 0xb
 763 0027 03       		.uleb128 0x3
 764 0028 0E       		.uleb128 0xe
 765 0029 00       		.byte	0x0
 766 002a 00       		.byte	0x0
 767 002b 04       		.uleb128 0x4
 768 002c 16       		.uleb128 0x16
 769 002d 00       		.byte	0x0
 770 002e 03       		.uleb128 0x3
 771 002f 0E       		.uleb128 0xe
 772 0030 3A       		.uleb128 0x3a
 773 0031 0B       		.uleb128 0xb
 774 0032 3B       		.uleb128 0x3b
 775 0033 0B       		.uleb128 0xb
 776 0034 49       		.uleb128 0x49
 777 0035 13       		.uleb128 0x13
 778 0036 00       		.byte	0x0
 779 0037 00       		.byte	0x0
 780 0038 05       		.uleb128 0x5
 781 0039 24       		.uleb128 0x24
 782 003a 00       		.byte	0x0
 783 003b 0B       		.uleb128 0xb
 784 003c 0B       		.uleb128 0xb
ARM GAS  C:\Users\z80\AppData\Local\Temp\ccCXTmNd.s 			page 15


 785 003d 3E       		.uleb128 0x3e
 786 003e 0B       		.uleb128 0xb
 787 003f 00       		.byte	0x0
 788 0040 00       		.byte	0x0
 789 0041 06       		.uleb128 0x6
 790 0042 0F       		.uleb128 0xf
 791 0043 00       		.byte	0x0
 792 0044 0B       		.uleb128 0xb
 793 0045 0B       		.uleb128 0xb
 794 0046 49       		.uleb128 0x49
 795 0047 13       		.uleb128 0x13
 796 0048 00       		.byte	0x0
 797 0049 00       		.byte	0x0
 798 004a 07       		.uleb128 0x7
 799 004b 15       		.uleb128 0x15
 800 004c 00       		.byte	0x0
 801 004d 27       		.uleb128 0x27
 802 004e 0C       		.uleb128 0xc
 803 004f 00       		.byte	0x0
 804 0050 00       		.byte	0x0
 805 0051 08       		.uleb128 0x8
 806 0052 2E       		.uleb128 0x2e
 807 0053 00       		.byte	0x0
 808 0054 3F       		.uleb128 0x3f
 809 0055 0C       		.uleb128 0xc
 810 0056 03       		.uleb128 0x3
 811 0057 0E       		.uleb128 0xe
 812 0058 3A       		.uleb128 0x3a
 813 0059 0B       		.uleb128 0xb
 814 005a 3B       		.uleb128 0x3b
 815 005b 0B       		.uleb128 0xb
 816 005c 27       		.uleb128 0x27
 817 005d 0C       		.uleb128 0xc
 818 005e 11       		.uleb128 0x11
 819 005f 01       		.uleb128 0x1
 820 0060 12       		.uleb128 0x12
 821 0061 01       		.uleb128 0x1
 822 0062 40       		.uleb128 0x40
 823 0063 0A       		.uleb128 0xa
 824 0064 00       		.byte	0x0
 825 0065 00       		.byte	0x0
 826 0066 09       		.uleb128 0x9
 827 0067 2E       		.uleb128 0x2e
 828 0068 01       		.byte	0x1
 829 0069 3F       		.uleb128 0x3f
 830 006a 0C       		.uleb128 0xc
 831 006b 03       		.uleb128 0x3
 832 006c 0E       		.uleb128 0xe
 833 006d 3A       		.uleb128 0x3a
 834 006e 0B       		.uleb128 0xb
 835 006f 3B       		.uleb128 0x3b
 836 0070 0B       		.uleb128 0xb
 837 0071 27       		.uleb128 0x27
 838 0072 0C       		.uleb128 0xc
 839 0073 11       		.uleb128 0x11
 840 0074 01       		.uleb128 0x1
 841 0075 12       		.uleb128 0x12
ARM GAS  C:\Users\z80\AppData\Local\Temp\ccCXTmNd.s 			page 16


 842 0076 01       		.uleb128 0x1
 843 0077 40       		.uleb128 0x40
 844 0078 0A       		.uleb128 0xa
 845 0079 01       		.uleb128 0x1
 846 007a 13       		.uleb128 0x13
 847 007b 00       		.byte	0x0
 848 007c 00       		.byte	0x0
 849 007d 0A       		.uleb128 0xa
 850 007e 34       		.uleb128 0x34
 851 007f 00       		.byte	0x0
 852 0080 03       		.uleb128 0x3
 853 0081 08       		.uleb128 0x8
 854 0082 3A       		.uleb128 0x3a
 855 0083 0B       		.uleb128 0xb
 856 0084 3B       		.uleb128 0x3b
 857 0085 0B       		.uleb128 0xb
 858 0086 49       		.uleb128 0x49
 859 0087 13       		.uleb128 0x13
 860 0088 00       		.byte	0x0
 861 0089 00       		.byte	0x0
 862 008a 0B       		.uleb128 0xb
 863 008b 34       		.uleb128 0x34
 864 008c 00       		.byte	0x0
 865 008d 03       		.uleb128 0x3
 866 008e 08       		.uleb128 0x8
 867 008f 3A       		.uleb128 0x3a
 868 0090 0B       		.uleb128 0xb
 869 0091 3B       		.uleb128 0x3b
 870 0092 0B       		.uleb128 0xb
 871 0093 49       		.uleb128 0x49
 872 0094 13       		.uleb128 0x13
 873 0095 1C       		.uleb128 0x1c
 874 0096 0B       		.uleb128 0xb
 875 0097 00       		.byte	0x0
 876 0098 00       		.byte	0x0
 877 0099 0C       		.uleb128 0xc
 878 009a 0B       		.uleb128 0xb
 879 009b 01       		.byte	0x1
 880 009c 11       		.uleb128 0x11
 881 009d 01       		.uleb128 0x1
 882 009e 12       		.uleb128 0x12
 883 009f 01       		.uleb128 0x1
 884 00a0 01       		.uleb128 0x1
 885 00a1 13       		.uleb128 0x13
 886 00a2 00       		.byte	0x0
 887 00a3 00       		.byte	0x0
 888 00a4 0D       		.uleb128 0xd
 889 00a5 34       		.uleb128 0x34
 890 00a6 00       		.byte	0x0
 891 00a7 03       		.uleb128 0x3
 892 00a8 08       		.uleb128 0x8
 893 00a9 3A       		.uleb128 0x3a
 894 00aa 0B       		.uleb128 0xb
 895 00ab 3B       		.uleb128 0x3b
 896 00ac 05       		.uleb128 0x5
 897 00ad 49       		.uleb128 0x49
 898 00ae 13       		.uleb128 0x13
ARM GAS  C:\Users\z80\AppData\Local\Temp\ccCXTmNd.s 			page 17


 899 00af 02       		.uleb128 0x2
 900 00b0 06       		.uleb128 0x6
 901 00b1 00       		.byte	0x0
 902 00b2 00       		.byte	0x0
 903 00b3 0E       		.uleb128 0xe
 904 00b4 34       		.uleb128 0x34
 905 00b5 00       		.byte	0x0
 906 00b6 03       		.uleb128 0x3
 907 00b7 08       		.uleb128 0x8
 908 00b8 3A       		.uleb128 0x3a
 909 00b9 0B       		.uleb128 0xb
 910 00ba 3B       		.uleb128 0x3b
 911 00bb 05       		.uleb128 0x5
 912 00bc 49       		.uleb128 0x49
 913 00bd 13       		.uleb128 0x13
 914 00be 00       		.byte	0x0
 915 00bf 00       		.byte	0x0
 916 00c0 0F       		.uleb128 0xf
 917 00c1 0B       		.uleb128 0xb
 918 00c2 01       		.byte	0x1
 919 00c3 55       		.uleb128 0x55
 920 00c4 06       		.uleb128 0x6
 921 00c5 01       		.uleb128 0x1
 922 00c6 13       		.uleb128 0x13
 923 00c7 00       		.byte	0x0
 924 00c8 00       		.byte	0x0
 925 00c9 10       		.uleb128 0x10
 926 00ca 0B       		.uleb128 0xb
 927 00cb 01       		.byte	0x1
 928 00cc 55       		.uleb128 0x55
 929 00cd 06       		.uleb128 0x6
 930 00ce 00       		.byte	0x0
 931 00cf 00       		.byte	0x0
 932 00d0 11       		.uleb128 0x11
 933 00d1 34       		.uleb128 0x34
 934 00d2 00       		.byte	0x0
 935 00d3 03       		.uleb128 0x3
 936 00d4 0E       		.uleb128 0xe
 937 00d5 3A       		.uleb128 0x3a
 938 00d6 0B       		.uleb128 0xb
 939 00d7 3B       		.uleb128 0x3b
 940 00d8 0B       		.uleb128 0xb
 941 00d9 49       		.uleb128 0x49
 942 00da 13       		.uleb128 0x13
 943 00db 3F       		.uleb128 0x3f
 944 00dc 0C       		.uleb128 0xc
 945 00dd 3C       		.uleb128 0x3c
 946 00de 0C       		.uleb128 0xc
 947 00df 00       		.byte	0x0
 948 00e0 00       		.byte	0x0
 949 00e1 00       		.byte	0x0
 950              		.section	.debug_pubnames,"",%progbits
 951 0000 52000000 		.4byte	0x52
 952 0004 0200     		.2byte	0x2
 953 0006 00000000 		.4byte	.Ldebug_info0
 954 000a 48030000 		.4byte	0x348
 955 000e B3000000 		.4byte	0xb3
ARM GAS  C:\Users\z80\AppData\Local\Temp\ccCXTmNd.s 			page 18


 956 0012 5F5F6561 		.ascii	"__early_init\000"
 956      726C795F 
 956      696E6974 
 956      00
 957 001f C7000000 		.4byte	0xc7
 958 0023 5F5F6C61 		.ascii	"__late_init\000"
 958      74655F69 
 958      6E697400 
 959 002f DB000000 		.4byte	0xdb
 960 0033 5F646566 		.ascii	"_default_exit\000"
 960      61756C74 
 960      5F657869 
 960      7400
 961 0041 EF000000 		.4byte	0xef
 962 0045 52657365 		.ascii	"ResetHandler\000"
 962      7448616E 
 962      646C6572 
 962      00
 963 0052 00000000 		.4byte	0x0
 964              		.section	.debug_pubtypes,"",%progbits
 965 0000 40000000 		.4byte	0x40
 966 0004 0200     		.2byte	0x2
 967 0006 00000000 		.4byte	.Ldebug_info0
 968 000a 48030000 		.4byte	0x348
 969 000e 3E000000 		.4byte	0x3e
 970 0012 75696E74 		.ascii	"uint8_t\000"
 970      385F7400 
 971 001a 65000000 		.4byte	0x65
 972 001e 75696E74 		.ascii	"uint32_t\000"
 972      33325F74 
 972      00
 973 0027 8F000000 		.4byte	0x8f
 974 002b 66756E63 		.ascii	"funcp_t\000"
 974      705F7400 
 975 0033 A2000000 		.4byte	0xa2
 976 0037 66756E63 		.ascii	"funcpp_t\000"
 976      70705F74 
 976      00
 977 0040 00000000 		.4byte	0x0
 978              		.section	.debug_aranges,"",%progbits
 979 0000 34000000 		.4byte	0x34
 980 0004 0200     		.2byte	0x2
 981 0006 00000000 		.4byte	.Ldebug_info0
 982 000a 04       		.byte	0x4
 983 000b 00       		.byte	0x0
 984 000c 0000     		.2byte	0x0
 985 000e 0000     		.2byte	0x0
 986 0010 00000000 		.4byte	.LFB7
 987 0014 02000000 		.4byte	.LFE7-.LFB7
 988 0018 00000000 		.4byte	.LFB8
 989 001c 02000000 		.4byte	.LFE8-.LFB8
 990 0020 00000000 		.4byte	.LFB9
 991 0024 02000000 		.4byte	.LFE9-.LFB9
 992 0028 00000000 		.4byte	.LFB10
 993 002c C8000000 		.4byte	.LFE10-.LFB10
 994 0030 00000000 		.4byte	0x0
 995 0034 00000000 		.4byte	0x0
ARM GAS  C:\Users\z80\AppData\Local\Temp\ccCXTmNd.s 			page 19


 996              		.section	.debug_ranges,"",%progbits
 997              	.Ldebug_ranges0:
 998 0000 64000000 		.4byte	.LBB6
 999 0004 68000000 		.4byte	.LBE6
 1000 0008 6C000000 		.4byte	.LBB7
 1001 000c 7A000000 		.4byte	.LBE7
 1002 0010 00000000 		.4byte	0x0
 1003 0014 00000000 		.4byte	0x0
 1004 0018 7A000000 		.4byte	.LBB8
 1005 001c 7E000000 		.4byte	.LBE8
 1006 0020 82000000 		.4byte	.LBB9
 1007 0024 90000000 		.4byte	.LBE9
 1008 0028 00000000 		.4byte	0x0
 1009 002c 00000000 		.4byte	0x0
 1010 0030 00000000 		.4byte	.LFB7
 1011 0034 02000000 		.4byte	.LFE7
 1012 0038 00000000 		.4byte	.LFB8
 1013 003c 02000000 		.4byte	.LFE8
 1014 0040 00000000 		.4byte	.LFB9
 1015 0044 02000000 		.4byte	.LFE9
 1016 0048 00000000 		.4byte	.LFB10
 1017 004c C8000000 		.4byte	.LFE10
 1018 0050 00000000 		.4byte	0x0
 1019 0054 00000000 		.4byte	0x0
 1020              		.section	.debug_str,"MS",%progbits,1
 1021              	.LASF24:
 1022 0000 5F627373 		.ascii	"_bss_start\000"
 1022      5F737461 
 1022      727400
 1023              	.LASF23:
 1024 000b 5F656461 		.ascii	"_edata\000"
 1024      746100
 1025              	.LASF29:
 1026 0012 5F5F6669 		.ascii	"__fini_array_end\000"
 1026      6E695F61 
 1026      72726179 
 1026      5F656E64 
 1026      00
 1027              	.LASF19:
 1028 0023 5F5F7072 		.ascii	"__process_stack_base__\000"
 1028      6F636573 
 1028      735F7374 
 1028      61636B5F 
 1028      62617365 
 1029              	.LASF13:
 1030 003a 66756E63 		.ascii	"funcpp_t\000"
 1030      70705F74 
 1030      00
 1031              	.LASF16:
 1032 0043 5F646566 		.ascii	"_default_exit\000"
 1032      61756C74 
 1032      5F657869 
 1032      7400
 1033              	.LASF2:
 1034 0051 756E7369 		.ascii	"unsigned char\000"
 1034      676E6564 
 1034      20636861 
ARM GAS  C:\Users\z80\AppData\Local\Temp\ccCXTmNd.s 			page 20


 1034      7200
 1035              	.LASF15:
 1036 005f 5F5F6C61 		.ascii	"__late_init\000"
 1036      74655F69 
 1036      6E697400 
 1037              	.LASF8:
 1038 006b 6C6F6E67 		.ascii	"long unsigned int\000"
 1038      20756E73 
 1038      69676E65 
 1038      6420696E 
 1038      7400
 1039              	.LASF33:
 1040 007d 52657365 		.ascii	"ResetHandler\000"
 1040      7448616E 
 1040      646C6572 
 1040      00
 1041              	.LASF4:
 1042 008a 73686F72 		.ascii	"short unsigned int\000"
 1042      7420756E 
 1042      7369676E 
 1042      65642069 
 1042      6E7400
 1043              	.LASF28:
 1044 009d 5F5F6669 		.ascii	"__fini_array_start\000"
 1044      6E695F61 
 1044      72726179 
 1044      5F737461 
 1044      727400
 1045              	.LASF27:
 1046 00b0 5F5F696E 		.ascii	"__init_array_end\000"
 1046      69745F61 
 1046      72726179 
 1046      5F656E64 
 1046      00
 1047              	.LASF30:
 1048 00c1 474E5520 		.ascii	"GNU C 4.5.0\000"
 1048      4320342E 
 1048      352E3000 
 1049              	.LASF0:
 1050 00cd 756E7369 		.ascii	"unsigned int\000"
 1050      676E6564 
 1050      20696E74 
 1050      00
 1051              	.LASF10:
 1052 00da 6C6F6E67 		.ascii	"long long unsigned int\000"
 1052      206C6F6E 
 1052      6720756E 
 1052      7369676E 
 1052      65642069 
 1053              	.LASF25:
 1054 00f1 5F627373 		.ascii	"_bss_end\000"
 1054      5F656E64 
 1054      00
 1055              	.LASF21:
 1056 00fa 5F746578 		.ascii	"_textdata\000"
 1056      74646174 
 1056      6100
ARM GAS  C:\Users\z80\AppData\Local\Temp\ccCXTmNd.s 			page 21


 1057              	.LASF14:
 1058 0104 5F5F6561 		.ascii	"__early_init\000"
 1058      726C795F 
 1058      696E6974 
 1058      00
 1059              	.LASF31:
 1060 0111 2E2E2F63 		.ascii	"../chibios_2.4.x/os/ports/GCC/ARMCMx/crt0.c\000"
 1060      68696269 
 1060      6F735F32 
 1060      2E342E78 
 1060      2F6F732F 
 1061              	.LASF6:
 1062 013d 75696E74 		.ascii	"uint8_t\000"
 1062      385F7400 
 1063              	.LASF9:
 1064 0145 6C6F6E67 		.ascii	"long long int\000"
 1064      206C6F6E 
 1064      6720696E 
 1064      7400
 1065              	.LASF11:
 1066 0153 63686172 		.ascii	"char\000"
 1066      00
 1067              	.LASF17:
 1068 0158 5F5F6D61 		.ascii	"__main_stack_base__\000"
 1068      696E5F73 
 1068      7461636B 
 1068      5F626173 
 1068      655F5F00 
 1069              	.LASF3:
 1070 016c 73686F72 		.ascii	"short int\000"
 1070      7420696E 
 1070      7400
 1071              	.LASF32:
 1072 0176 433A5C70 		.ascii	"C:\\projects\\voltamper.git\\firmware\\voltamp\000"
 1072      726F6A65 
 1072      6374735C 
 1072      766F6C74 
 1072      616D7065 
 1073              	.LASF12:
 1074 01a1 66756E63 		.ascii	"funcp_t\000"
 1074      705F7400 
 1075              	.LASF7:
 1076 01a9 75696E74 		.ascii	"uint32_t\000"
 1076      33325F74 
 1076      00
 1077              	.LASF5:
 1078 01b2 6C6F6E67 		.ascii	"long int\000"
 1078      20696E74 
 1078      00
 1079              	.LASF22:
 1080 01bb 5F646174 		.ascii	"_data\000"
 1080      6100
 1081              	.LASF1:
 1082 01c1 7369676E 		.ascii	"signed char\000"
 1082      65642063 
 1082      68617200 
 1083              	.LASF20:
ARM GAS  C:\Users\z80\AppData\Local\Temp\ccCXTmNd.s 			page 22


 1084 01cd 5F5F7072 		.ascii	"__process_stack_end__\000"
 1084      6F636573 
 1084      735F7374 
 1084      61636B5F 
 1084      656E645F 
 1085              	.LASF26:
 1086 01e3 5F5F696E 		.ascii	"__init_array_start\000"
 1086      69745F61 
 1086      72726179 
 1086      5F737461 
 1086      727400
 1087              	.LASF18:
 1088 01f6 5F5F6D61 		.ascii	"__main_stack_end__\000"
 1088      696E5F73 
 1088      7461636B 
 1088      5F656E64 
 1088      5F5F00
 1089              		.ident	"GCC: (GNU) 4.5.0"
ARM GAS  C:\Users\z80\AppData\Local\Temp\ccCXTmNd.s 			page 23


DEFINED SYMBOLS
                            *ABS*:00000000 crt0.c
C:\Users\z80\AppData\Local\Temp\ccCXTmNd.s:24     .text.__early_init:00000000 $t
C:\Users\z80\AppData\Local\Temp\ccCXTmNd.s:30     .text.__early_init:00000000 __early_init
C:\Users\z80\AppData\Local\Temp\ccCXTmNd.s:44     .text.__late_init:00000000 $t
C:\Users\z80\AppData\Local\Temp\ccCXTmNd.s:50     .text.__late_init:00000000 __late_init
C:\Users\z80\AppData\Local\Temp\ccCXTmNd.s:63     .text._default_exit:00000000 $t
C:\Users\z80\AppData\Local\Temp\ccCXTmNd.s:69     .text._default_exit:00000000 _default_exit
C:\Users\z80\AppData\Local\Temp\ccCXTmNd.s:82     .text.ResetHandler:00000000 $t
C:\Users\z80\AppData\Local\Temp\ccCXTmNd.s:88     .text.ResetHandler:00000000 ResetHandler
C:\Users\z80\AppData\Local\Temp\ccCXTmNd.s:245    .text.ResetHandler:00000094 $d
                     .debug_frame:00000010 $d
C:\Users\z80\AppData\Local\Temp\ccCXTmNd.s:261    .text.ResetHandler:000000c8 $t

UNDEFINED SYMBOLS
main
__process_stack_end__
__main_stack_base__
__main_stack_end__
__process_stack_base__
_data
_edata
_textdata
_bss_start
_bss_end
__init_array_end
__init_array_start
__fini_array_end
__fini_array_start
