ARM GAS  C:\Users\z80\AppData\Local\Temp\ccM8H8yf.s 			page 1


   1              		.syntax unified
   2              		.cpu cortex-m3
   3              		.fpu softvfp
   4              		.eabi_attribute 20, 1
   5              		.eabi_attribute 21, 1
   6              		.eabi_attribute 23, 3
   7              		.eabi_attribute 24, 1
   8              		.eabi_attribute 25, 1
   9              		.eabi_attribute 26, 1
  10              		.eabi_attribute 30, 2
  11              		.eabi_attribute 18, 4
  12              		.thumb
  13              		.file	"evtimer.c"
  20 0000 7C010000 		.text
  20      02003501 
  20      00000201 
  20      FB0E0D00 
  20      01010101 
  21              	.Ltext0:
  22              		.cfi_sections	.debug_frame
  23              		.section	.text.tmrcb,"ax",%progbits
  24              		.align	2
  25              		.p2align 4,,15
  26              		.thumb
  27              		.thumb_func
  28              		.type	tmrcb, %function
  29              	tmrcb:
  30              	.LFB7:
  31              		.file 1 "../chibios_2.4.x/os/various/evtimer.c"
  32              		.loc 1 39 0
  33              		.cfi_startproc
  34              		@ args = 0, pretend = 0, frame = 0
  35              		@ frame_needed = 0, uses_anonymous_args = 0
  36              	.LVL0:
  37 0000 10B5     		push	{r4, lr}
  38              	.LCFI0:
  39              		.cfi_def_cfa_offset 8
  40              		.loc 1 42 0
  41 0002 0021     		movs	r1, #0
  42              		.loc 1 39 0
  43 0004 0446     		mov	r4, r0
  44              		.cfi_offset 14, -4
  45              		.cfi_offset 4, -8
  46              	.LVL1:
  47              		.loc 1 42 0
  48 0006 00F11400 		add	r0, r0, #20
  49              	.LVL2:
  50 000a FFF7FEFF 		bl	chEvtBroadcastFlagsI
  51              	.LVL3:
  52              		.loc 1 43 0
  53 000e 40F20002 		movw	r2, #:lower16:tmrcb
ARM GAS  C:\Users\z80\AppData\Local\Temp\ccM8H8yf.s 			page 2


  54 0012 A169     		ldr	r1, [r4, #24]
  55 0014 C0F20002 		movt	r2, #:upper16:tmrcb
  56 0018 2046     		mov	r0, r4
  57 001a 2346     		mov	r3, r4
  58 001c FFF7FEFF 		bl	chVTSetI
  59              		.loc 1 44 0
  60 0020 10BD     		pop	{r4, pc}
  61              		.cfi_endproc
  62              	.LFE7:
  63              		.size	tmrcb, .-tmrcb
  64 0022 00BFAFF3 		.section	.text.evtStart,"ax",%progbits
  64      0080AFF3 
  64      0080AFF3 
  64      0080
  65              		.align	2
  66              		.p2align 4,,15
  67              		.global	evtStart
  68              		.thumb
  69              		.thumb_func
  70              		.type	evtStart, %function
  71              	evtStart:
  72              	.LFB8:
  73              		.loc 1 52 0
  74              		.cfi_startproc
  75              		@ args = 0, pretend = 0, frame = 0
  76              		@ frame_needed = 0, uses_anonymous_args = 0
  77              	.LVL4:
  78 0000 10B5     		push	{r4, lr}
  79              	.LCFI1:
  80              		.cfi_def_cfa_offset 8
  81              	.LBB2:
  82              		.loc 1 54 0
  83 0002 2023     		movs	r3, #32
  84              	.LVL5:
  85              	.LBE2:
  86              		.loc 1 52 0
  87 0004 0446     		mov	r4, r0
  88              		.cfi_offset 14, -4
  89              		.cfi_offset 4, -8
  90              	.LBB3:
  91              		.loc 1 54 0
  92              	@ 54 "../chibios_2.4.x/os/various/evtimer.c" 1
  93 0006 83F31188 		msr     BASEPRI, r3
  94              	@ 0 "" 2
  95              	.LVL6:
  96              		.thumb
  97              	.LBE3:
  98 000a FFF7FEFF 		bl	dbg_check_lock
  99              	.LVL7:
 100              		.loc 1 56 0
 101 000e E368     		ldr	r3, [r4, #12]
 102 0010 2BB1     		cbz	r3, .L5
 103              	.L3:
 104              		.loc 1 59 0
 105 0012 FFF7FEFF 		bl	dbg_check_unlock
 106              	.LBB4:
 107 0016 0023     		movs	r3, #0
ARM GAS  C:\Users\z80\AppData\Local\Temp\ccM8H8yf.s 			page 3


 108              	.LVL8:
 109              	@ 59 "../chibios_2.4.x/os/various/evtimer.c" 1
 110 0018 83F31188 		msr     BASEPRI, r3
 111              	@ 0 "" 2
 112              	.LVL9:
 113              		.thumb
 114              	.LBE4:
 115              		.loc 1 60 0
 116 001c 10BD     		pop	{r4, pc}
 117              	.LVL10:
 118              	.L5:
 119              		.loc 1 57 0
 120 001e A169     		ldr	r1, [r4, #24]
 121 0020 2046     		mov	r0, r4
 122 0022 024A     		ldr	r2, .L6
 123 0024 2346     		mov	r3, r4
 124 0026 FFF7FEFF 		bl	chVTSetI
 125 002a F2E7     		b	.L3
 126              	.L7:
 127              		.align	2
 128              	.L6:
 129 002c 00000000 		.word	tmrcb
 130              		.cfi_endproc
 131              	.LFE8:
 132              		.size	evtStart, .-evtStart
 133              		.section	.text.evtStop,"ax",%progbits
 134              		.align	2
 135              		.p2align 4,,15
 136              		.global	evtStop
 137              		.thumb
 138              		.thumb_func
 139              		.type	evtStop, %function
 140              	evtStop:
 141              	.LFB9:
 142              		.loc 1 68 0
 143              		.cfi_startproc
 144              		@ args = 0, pretend = 0, frame = 0
 145              		@ frame_needed = 0, uses_anonymous_args = 0
 146              	.LVL11:
 147 0000 10B5     		push	{r4, lr}
 148              	.LCFI2:
 149              		.cfi_def_cfa_offset 8
 150              	.LBB5:
 151              		.loc 1 70 0
 152 0002 2023     		movs	r3, #32
 153              	.LVL12:
 154              	.LBE5:
 155              		.loc 1 68 0
 156 0004 0446     		mov	r4, r0
 157              		.cfi_offset 14, -4
 158              		.cfi_offset 4, -8
 159              	.LBB6:
 160              		.loc 1 70 0
 161              	@ 70 "../chibios_2.4.x/os/various/evtimer.c" 1
 162 0006 83F31188 		msr     BASEPRI, r3
 163              	@ 0 "" 2
 164              	.LVL13:
ARM GAS  C:\Users\z80\AppData\Local\Temp\ccM8H8yf.s 			page 4


 165              		.thumb
 166              	.LBE6:
 167 000a FFF7FEFF 		bl	dbg_check_lock
 168              	.LVL14:
 169              		.loc 1 72 0
 170 000e E368     		ldr	r3, [r4, #12]
 171 0010 13B1     		cbz	r3, .L9
 172              		.loc 1 73 0
 173 0012 2046     		mov	r0, r4
 174 0014 FFF7FEFF 		bl	chVTResetI
 175              	.L9:
 176              		.loc 1 75 0
 177 0018 FFF7FEFF 		bl	dbg_check_unlock
 178              	.LBB7:
 179 001c 0023     		movs	r3, #0
 180              	.LVL15:
 181              	@ 75 "../chibios_2.4.x/os/various/evtimer.c" 1
 182 001e 83F31188 		msr     BASEPRI, r3
 183              	@ 0 "" 2
 184              	.LVL16:
 185              		.thumb
 186              	.LBE7:
 187              		.loc 1 76 0
 188 0022 10BD     		pop	{r4, pc}
 189              		.cfi_endproc
 190              	.LFE9:
 191              		.size	evtStop, .-evtStop
 192 0024 AFF30080 		.text
 192      AFF30080 
 192      AFF30080 
 193              	.Letext0: