ARM GAS  C:\Users\z80\AppData\Local\Temp\cchRnF9j.s 			page 1


   1              		.syntax unified
   2              		.cpu cortex-m3
   3              		.fpu softvfp
   4              		.eabi_attribute 20, 1
   5              		.eabi_attribute 21, 1
   6              		.eabi_attribute 23, 3
   7              		.eabi_attribute 24, 1
   8              		.eabi_attribute 25, 1
   9              		.eabi_attribute 26, 1
  10              		.eabi_attribute 30, 6
  11              		.eabi_attribute 18, 4
  12              		.thumb
  13              		.file	"evtimer.c"
  14              		.section	.debug_abbrev,"",%progbits
  15              	.Ldebug_abbrev0:
  16              		.section	.debug_info,"",%progbits
  17              	.Ldebug_info0:
  18              		.section	.debug_line,"",%progbits
  19              	.Ldebug_line0:
  20 0000 77010000 		.text
  20      02003501 
  20      00000201 
  20      FB0E0D00 
  20      01010101 
  21              	.Ltext0:
  22              		.cfi_sections	.debug_frame
  23              		.section	.text.tmrcb,"ax",%progbits
  24              		.align	2
  25              		.p2align 4,,15
  26              		.thumb
  27              		.thumb_func
  28              		.type	tmrcb, %function
  29              	tmrcb:
  30              	.LFB7:
  31              		.file 1 "../chibios_2.4.x/os/various/evtimer.c"
  32              		.loc 1 39 0
  33              		.cfi_startproc
  34              		@ args = 0, pretend = 0, frame = 16
  35              		@ frame_needed = 0, uses_anonymous_args = 0
  36 0000 00B5     		push	{lr}
  37              	.LCFI0:
  38              		.cfi_def_cfa_offset 4
  39 0002 85B0     		sub	sp, sp, #20
  40              	.LCFI1:
  41              		.cfi_def_cfa_offset 24
  42 0004 0190     		str	r0, [sp, #4]
  43              		.loc 1 40 0
  44 0006 019B     		ldr	r3, [sp, #4]
  45 0008 0393     		str	r3, [sp, #12]
  46              		.loc 1 42 0
  47 000a 039B     		ldr	r3, [sp, #12]
  48 000c 03F11403 		add	r3, r3, #20
  49 0010 1846     		mov	r0, r3
  50 0012 4FF00001 		mov	r1, #0
  51              		.cfi_offset 14, -4
  52 0016 FFF7FEFF 		bl	chEvtBroadcastFlagsI
  53              		.loc 1 43 0
ARM GAS  C:\Users\z80\AppData\Local\Temp\cchRnF9j.s 			page 2


  54 001a 039A     		ldr	r2, [sp, #12]
  55 001c 039B     		ldr	r3, [sp, #12]
  56 001e 9B69     		ldr	r3, [r3, #24]
  57 0020 1046     		mov	r0, r2
  58 0022 1946     		mov	r1, r3
  59 0024 40F20002 		movw	r2, #:lower16:tmrcb
  60 0028 C0F20002 		movt	r2, #:upper16:tmrcb
  61 002c 039B     		ldr	r3, [sp, #12]
  62 002e FFF7FEFF 		bl	chVTSetI
  63              		.loc 1 44 0
  64 0032 05B0     		add	sp, sp, #20
  65 0034 00BD     		pop	{pc}
  66              		.cfi_endproc
  67              	.LFE7:
  68              		.size	tmrcb, .-tmrcb
  69              		.section	.text.evtStart,"ax",%progbits
  70              		.align	2
  71              		.p2align 4,,15
  72              		.global	evtStart
  73              		.thumb
  74              		.thumb_func
  75              		.type	evtStart, %function
  76              	evtStart:
  77              	.LFB8:
  78              		.loc 1 52 0
  79              		.cfi_startproc
  80              		@ args = 0, pretend = 0, frame = 8
  81              		@ frame_needed = 0, uses_anonymous_args = 0
  82 0000 00B5     		push	{lr}
  83              	.LCFI2:
  84              		.cfi_def_cfa_offset 4
  85 0002 83B0     		sub	sp, sp, #12
  86              	.LCFI3:
  87              		.cfi_def_cfa_offset 16
  88 0004 0190     		str	r0, [sp, #4]
  89              	.LBB2:
  90              		.loc 1 54 0
  91 0006 4FF02003 		mov	r3, #32
  92              	@ 54 "../chibios_2.4.x/os/various/evtimer.c" 1
  93 000a 83F31188 		msr     BASEPRI, r3
  94              	@ 0 "" 2
  95              		.thumb
  96              	.LBE2:
  97              		.cfi_offset 14, -4
  98 000e FFF7FEFF 		bl	dbg_check_lock
  99              		.loc 1 56 0
 100 0012 019B     		ldr	r3, [sp, #4]
 101 0014 DB68     		ldr	r3, [r3, #12]
 102 0016 002B     		cmp	r3, #0
 103 0018 0BD1     		bne	.L3
 104              		.loc 1 57 0
 105 001a 019A     		ldr	r2, [sp, #4]
 106 001c 019B     		ldr	r3, [sp, #4]
 107 001e 9B69     		ldr	r3, [r3, #24]
 108 0020 1046     		mov	r0, r2
 109 0022 1946     		mov	r1, r3
 110 0024 40F20002 		movw	r2, #:lower16:tmrcb
ARM GAS  C:\Users\z80\AppData\Local\Temp\cchRnF9j.s 			page 3


 111 0028 C0F20002 		movt	r2, #:upper16:tmrcb
 112 002c 019B     		ldr	r3, [sp, #4]
 113 002e FFF7FEFF 		bl	chVTSetI
 114              	.L3:
 115              		.loc 1 59 0
 116 0032 FFF7FEFF 		bl	dbg_check_unlock
 117              	.LBB3:
 118 0036 4FF00003 		mov	r3, #0
 119              	@ 59 "../chibios_2.4.x/os/various/evtimer.c" 1
 120 003a 83F31188 		msr     BASEPRI, r3
 121              	@ 0 "" 2
 122              		.thumb
 123              	.LBE3:
 124              		.loc 1 60 0
 125 003e 03B0     		add	sp, sp, #12
 126 0040 00BD     		pop	{pc}
 127              		.cfi_endproc
 128              	.LFE8:
 129              		.size	evtStart, .-evtStart
 130 0042 00BFAFF3 		.section	.text.evtStop,"ax",%progbits
 130      0080AFF3 
 130      0080AFF3 
 130      0080
 131              		.align	2
 132              		.p2align 4,,15
 133              		.global	evtStop
 134              		.thumb
 135              		.thumb_func
 136              		.type	evtStop, %function
 137              	evtStop:
 138              	.LFB9:
 139              		.loc 1 68 0
 140              		.cfi_startproc
 141              		@ args = 0, pretend = 0, frame = 8
 142              		@ frame_needed = 0, uses_anonymous_args = 0
 143 0000 00B5     		push	{lr}
 144              	.LCFI4:
 145              		.cfi_def_cfa_offset 4
 146 0002 83B0     		sub	sp, sp, #12
 147              	.LCFI5:
 148              		.cfi_def_cfa_offset 16
 149 0004 0190     		str	r0, [sp, #4]
 150              	.LBB4:
 151              		.loc 1 70 0
 152 0006 4FF02003 		mov	r3, #32
 153              	@ 70 "../chibios_2.4.x/os/various/evtimer.c" 1
 154 000a 83F31188 		msr     BASEPRI, r3
 155              	@ 0 "" 2
 156              		.thumb
 157              	.LBE4:
 158              		.cfi_offset 14, -4
 159 000e FFF7FEFF 		bl	dbg_check_lock
 160              		.loc 1 72 0
 161 0012 019B     		ldr	r3, [sp, #4]
 162 0014 DB68     		ldr	r3, [r3, #12]
 163 0016 002B     		cmp	r3, #0
 164 0018 03D0     		beq	.L5
ARM GAS  C:\Users\z80\AppData\Local\Temp\cchRnF9j.s 			page 4


 165              		.loc 1 73 0
 166 001a 019B     		ldr	r3, [sp, #4]
 167 001c 1846     		mov	r0, r3
 168 001e FFF7FEFF 		bl	chVTResetI
 169              	.L5:
 170              		.loc 1 75 0
 171 0022 FFF7FEFF 		bl	dbg_check_unlock
 172              	.LBB5:
 173 0026 4FF00003 		mov	r3, #0
 174              	@ 75 "../chibios_2.4.x/os/various/evtimer.c" 1
 175 002a 83F31188 		msr     BASEPRI, r3
 176              	@ 0 "" 2
 177              		.thumb
 178              	.LBE5:
 179              		.loc 1 76 0
 180 002e 03B0     		add	sp, sp, #12
 181 0030 00BD     		pop	{pc}
 182              		.cfi_endproc
 183              	.LFE9:
 184              		.size	evtStop, .-evtStop
 185 0032 00BFAFF3 		.text
 185      0080AFF3 
 185      0080AFF3 
 185      0080
 186              	.Letext0:
 187              		.section	.debug_loc,"",%progbits
 188              	.Ldebug_loc0:
 189              	.LLST0:
 190 0000 00000000 		.4byte	.LFB7
 191 0004 02000000 		.4byte	.LCFI0
 192 0008 0200     		.2byte	0x2
 193 000a 7D       		.byte	0x7d
 194 000b 00       		.sleb128 0
 195 000c 02000000 		.4byte	.LCFI0
 196 0010 04000000 		.4byte	.LCFI1
 197 0014 0200     		.2byte	0x2
 198 0016 7D       		.byte	0x7d
 199 0017 04       		.sleb128 4
 200 0018 04000000 		.4byte	.LCFI1
 201 001c 36000000 		.4byte	.LFE7
 202 0020 0200     		.2byte	0x2
 203 0022 7D       		.byte	0x7d
 204 0023 18       		.sleb128 24
 205 0024 00000000 		.4byte	0x0
 206 0028 00000000 		.4byte	0x0
 207              	.LLST1:
 208 002c 00000000 		.4byte	.LFB8
 209 0030 02000000 		.4byte	.LCFI2
 210 0034 0200     		.2byte	0x2
 211 0036 7D       		.byte	0x7d
 212 0037 00       		.sleb128 0
 213 0038 02000000 		.4byte	.LCFI2
 214 003c 04000000 		.4byte	.LCFI3
 215 0040 0200     		.2byte	0x2
 216 0042 7D       		.byte	0x7d
 217 0043 04       		.sleb128 4
 218 0044 04000000 		.4byte	.LCFI3
ARM GAS  C:\Users\z80\AppData\Local\Temp\cchRnF9j.s 			page 5


 219 0048 42000000 		.4byte	.LFE8
 220 004c 0200     		.2byte	0x2
 221 004e 7D       		.byte	0x7d
 222 004f 10       		.sleb128 16
 223 0050 00000000 		.4byte	0x0
 224 0054 00000000 		.4byte	0x0
 225              	.LLST2:
 226 0058 00000000 		.4byte	.LFB9
 227 005c 02000000 		.4byte	.LCFI4
 228 0060 0200     		.2byte	0x2
 229 0062 7D       		.byte	0x7d
 230 0063 00       		.sleb128 0
 231 0064 02000000 		.4byte	.LCFI4
 232 0068 04000000 		.4byte	.LCFI5
 233 006c 0200     		.2byte	0x2
 234 006e 7D       		.byte	0x7d
 235 006f 04       		.sleb128 4
 236 0070 04000000 		.4byte	.LCFI5
 237 0074 32000000 		.4byte	.LFE9
 238 0078 0200     		.2byte	0x2
 239 007a 7D       		.byte	0x7d
 240 007b 10       		.sleb128 16
 241 007c 00000000 		.4byte	0x0
 242 0080 00000000 		.4byte	0x0
 243              		.file 2 "c:/programs/yagarto/lib/gcc/../../arm-none-eabi/sys-include/stdint.h"
 244              		.file 3 "../chibios_2.4.x/os/ports/GCC/ARMCMx/chtypes.h"
 245              		.file 4 "../chibios_2.4.x/os/kernel/include/chlists.h"
 246              		.file 5 "../chibios_2.4.x/os/kernel/include/chthreads.h"
 247              		.file 6 "../chibios_2.4.x/os/ports/GCC/ARMCMx/chcore_v7m.h"
 248              		.file 7 "../chibios_2.4.x/os/kernel/include/chvt.h"
 249              		.file 8 "../chibios_2.4.x/os/kernel/include/chmtx.h"
 250              		.file 9 "../chibios_2.4.x/os/kernel/include/chevents.h"
 251              		.file 10 "../chibios_2.4.x/os/various/evtimer.h"
 252              		.section	.debug_info
 253 0000 C7050000 		.4byte	0x5c7
 254 0004 0200     		.2byte	0x2
 255 0006 00000000 		.4byte	.Ldebug_abbrev0
 256 000a 04       		.byte	0x4
 257 000b 01       		.uleb128 0x1
 258 000c C4020000 		.4byte	.LASF69
 259 0010 01       		.byte	0x1
 260 0011 9D010000 		.4byte	.LASF70
 261 0015 72010000 		.4byte	.LASF71
 262 0019 00000000 		.4byte	0x0
 263 001d 00000000 		.4byte	0x0
 264 0021 00000000 		.4byte	.Ldebug_ranges0+0x0
 265 0025 00000000 		.4byte	.Ldebug_line0
 266 0029 02       		.uleb128 0x2
 267 002a 04       		.byte	0x4
 268 002b 05       		.byte	0x5
 269 002c 696E7400 		.ascii	"int\000"
 270 0030 03       		.uleb128 0x3
 271 0031 04       		.byte	0x4
 272 0032 07       		.byte	0x7
 273 0033 BE000000 		.4byte	.LASF0
 274 0037 03       		.uleb128 0x3
 275 0038 01       		.byte	0x1
ARM GAS  C:\Users\z80\AppData\Local\Temp\cchRnF9j.s 			page 6


 276 0039 06       		.byte	0x6
 277 003a 60000000 		.4byte	.LASF1
 278 003e 04       		.uleb128 0x4
 279 003f AE020000 		.4byte	.LASF5
 280 0043 02       		.byte	0x2
 281 0044 2A       		.byte	0x2a
 282 0045 49000000 		.4byte	0x49
 283 0049 03       		.uleb128 0x3
 284 004a 01       		.byte	0x1
 285 004b 08       		.byte	0x8
 286 004c DA010000 		.4byte	.LASF2
 287 0050 03       		.uleb128 0x3
 288 0051 02       		.byte	0x2
 289 0052 05       		.byte	0x5
 290 0053 FE010000 		.4byte	.LASF3
 291 0057 03       		.uleb128 0x3
 292 0058 02       		.byte	0x2
 293 0059 07       		.byte	0x7
 294 005a ED000000 		.4byte	.LASF4
 295 005e 04       		.uleb128 0x4
 296 005f D2010000 		.4byte	.LASF6
 297 0063 02       		.byte	0x2
 298 0064 4F       		.byte	0x4f
 299 0065 69000000 		.4byte	0x69
 300 0069 03       		.uleb128 0x3
 301 006a 04       		.byte	0x4
 302 006b 05       		.byte	0x5
 303 006c 7C000000 		.4byte	.LASF7
 304 0070 04       		.uleb128 0x4
 305 0071 38020000 		.4byte	.LASF8
 306 0075 02       		.byte	0x2
 307 0076 50       		.byte	0x50
 308 0077 7B000000 		.4byte	0x7b
 309 007b 03       		.uleb128 0x3
 310 007c 04       		.byte	0x4
 311 007d 07       		.byte	0x7
 312 007e D3000000 		.4byte	.LASF9
 313 0082 03       		.uleb128 0x3
 314 0083 08       		.byte	0x8
 315 0084 05       		.byte	0x5
 316 0085 52000000 		.4byte	.LASF10
 317 0089 04       		.uleb128 0x4
 318 008a 19000000 		.4byte	.LASF11
 319 008e 02       		.byte	0x2
 320 008f 78       		.byte	0x78
 321 0090 94000000 		.4byte	0x94
 322 0094 03       		.uleb128 0x3
 323 0095 08       		.byte	0x8
 324 0096 07       		.byte	0x7
 325 0097 22000000 		.4byte	.LASF12
 326 009b 04       		.uleb128 0x4
 327 009c 0E010000 		.4byte	.LASF13
 328 00a0 03       		.byte	0x3
 329 00a1 2F       		.byte	0x2f
 330 00a2 3E000000 		.4byte	0x3e
 331 00a6 04       		.uleb128 0x4
 332 00a7 85000000 		.4byte	.LASF14
ARM GAS  C:\Users\z80\AppData\Local\Temp\cchRnF9j.s 			page 7


 333 00ab 03       		.byte	0x3
 334 00ac 30       		.byte	0x30
 335 00ad 3E000000 		.4byte	0x3e
 336 00b1 04       		.uleb128 0x4
 337 00b2 CA010000 		.4byte	.LASF15
 338 00b6 03       		.byte	0x3
 339 00b7 32       		.byte	0x32
 340 00b8 70000000 		.4byte	0x70
 341 00bc 04       		.uleb128 0x4
 342 00bd 00010000 		.4byte	.LASF16
 343 00c1 03       		.byte	0x3
 344 00c2 33       		.byte	0x33
 345 00c3 5E000000 		.4byte	0x5e
 346 00c7 04       		.uleb128 0x4
 347 00c8 22010000 		.4byte	.LASF17
 348 00cc 03       		.byte	0x3
 349 00cd 35       		.byte	0x35
 350 00ce 70000000 		.4byte	0x70
 351 00d2 04       		.uleb128 0x4
 352 00d3 60020000 		.4byte	.LASF18
 353 00d7 03       		.byte	0x3
 354 00d8 36       		.byte	0x36
 355 00d9 70000000 		.4byte	0x70
 356 00dd 04       		.uleb128 0x4
 357 00de 26020000 		.4byte	.LASF19
 358 00e2 04       		.byte	0x4
 359 00e3 2A       		.byte	0x2a
 360 00e4 E8000000 		.4byte	0xe8
 361 00e8 05       		.uleb128 0x5
 362 00e9 26020000 		.4byte	.LASF19
 363 00ed 48       		.byte	0x48
 364 00ee 05       		.byte	0x5
 365 00ef 5E       		.byte	0x5e
 366 00f0 F1010000 		.4byte	0x1f1
 367 00f4 06       		.uleb128 0x6
 368 00f5 17020000 		.4byte	.LASF20
 369 00f9 05       		.byte	0x5
 370 00fa 5F       		.byte	0x5f
 371 00fb 16020000 		.4byte	0x216
 372 00ff 02       		.byte	0x2
 373 0100 23       		.byte	0x23
 374 0101 00       		.uleb128 0x0
 375 0102 06       		.uleb128 0x6
 376 0103 C3010000 		.4byte	.LASF21
 377 0107 05       		.byte	0x5
 378 0108 61       		.byte	0x61
 379 0109 16020000 		.4byte	0x216
 380 010d 02       		.byte	0x2
 381 010e 23       		.byte	0x23
 382 010f 04       		.uleb128 0x4
 383 0110 06       		.uleb128 0x6
 384 0111 4B000000 		.4byte	.LASF22
 385 0115 05       		.byte	0x5
 386 0116 63       		.byte	0x63
 387 0117 B1000000 		.4byte	0xb1
 388 011b 02       		.byte	0x2
 389 011c 23       		.byte	0x23
ARM GAS  C:\Users\z80\AppData\Local\Temp\cchRnF9j.s 			page 8


 390 011d 08       		.uleb128 0x8
 391 011e 06       		.uleb128 0x6
 392 011f EC020000 		.4byte	.LASF23
 393 0123 05       		.byte	0x5
 394 0124 64       		.byte	0x64
 395 0125 EE020000 		.4byte	0x2ee
 396 0129 02       		.byte	0x2
 397 012a 23       		.byte	0x23
 398 012b 0C       		.uleb128 0xc
 399 012c 06       		.uleb128 0x6
 400 012d 8E000000 		.4byte	.LASF24
 401 0131 05       		.byte	0x5
 402 0132 66       		.byte	0x66
 403 0133 16020000 		.4byte	0x216
 404 0137 02       		.byte	0x2
 405 0138 23       		.byte	0x23
 406 0139 10       		.uleb128 0x10
 407 013a 06       		.uleb128 0x6
 408 013b 5D010000 		.4byte	.LASF25
 409 013f 05       		.byte	0x5
 410 0140 67       		.byte	0x67
 411 0141 16020000 		.4byte	0x216
 412 0145 02       		.byte	0x2
 413 0146 23       		.byte	0x23
 414 0147 14       		.uleb128 0x14
 415 0148 06       		.uleb128 0x6
 416 0149 D7020000 		.4byte	.LASF26
 417 014d 05       		.byte	0x5
 418 014e 6E       		.byte	0x6e
 419 014f 85040000 		.4byte	0x485
 420 0153 02       		.byte	0x2
 421 0154 23       		.byte	0x23
 422 0155 18       		.uleb128 0x18
 423 0156 06       		.uleb128 0x6
 424 0157 B3000000 		.4byte	.LASF27
 425 015b 05       		.byte	0x5
 426 015c 74       		.byte	0x74
 427 015d 97040000 		.4byte	0x497
 428 0161 02       		.byte	0x2
 429 0162 23       		.byte	0x23
 430 0163 1C       		.uleb128 0x1c
 431 0164 06       		.uleb128 0x6
 432 0165 08020000 		.4byte	.LASF28
 433 0169 05       		.byte	0x5
 434 016a 79       		.byte	0x79
 435 016b A6000000 		.4byte	0xa6
 436 016f 02       		.byte	0x2
 437 0170 23       		.byte	0x23
 438 0171 20       		.uleb128 0x20
 439 0172 06       		.uleb128 0x6
 440 0173 1E020000 		.4byte	.LASF29
 441 0177 05       		.byte	0x5
 442 0178 7D       		.byte	0x7d
 443 0179 9B000000 		.4byte	0x9b
 444 017d 02       		.byte	0x2
 445 017e 23       		.byte	0x23
 446 017f 21       		.uleb128 0x21
ARM GAS  C:\Users\z80\AppData\Local\Temp\cchRnF9j.s 			page 9


 447 0180 06       		.uleb128 0x6
 448 0181 86020000 		.4byte	.LASF30
 449 0185 05       		.byte	0x5
 450 0186 89       		.byte	0x89
 451 0187 95030000 		.4byte	0x395
 452 018b 02       		.byte	0x2
 453 018c 23       		.byte	0x23
 454 018d 24       		.uleb128 0x24
 455 018e 07       		.uleb128 0x7
 456 018f 705F7500 		.ascii	"p_u\000"
 457 0193 05       		.byte	0x5
 458 0194 AE       		.byte	0xae
 459 0195 50040000 		.4byte	0x450
 460 0199 02       		.byte	0x2
 461 019a 23       		.byte	0x23
 462 019b 28       		.uleb128 0x28
 463 019c 06       		.uleb128 0x6
 464 019d F2020000 		.4byte	.LASF31
 465 01a1 05       		.byte	0x5
 466 01a2 B3       		.byte	0xb3
 467 01a3 3E020000 		.4byte	0x23e
 468 01a7 02       		.byte	0x2
 469 01a8 23       		.byte	0x23
 470 01a9 2C       		.uleb128 0x2c
 471 01aa 06       		.uleb128 0x6
 472 01ab 94020000 		.4byte	.LASF32
 473 01af 05       		.byte	0x5
 474 01b0 B9       		.byte	0xb9
 475 01b1 1C020000 		.4byte	0x21c
 476 01b5 02       		.byte	0x2
 477 01b6 23       		.byte	0x23
 478 01b7 30       		.uleb128 0x30
 479 01b8 06       		.uleb128 0x6
 480 01b9 0C000000 		.4byte	.LASF33
 481 01bd 05       		.byte	0x5
 482 01be BD       		.byte	0xbd
 483 01bf BC000000 		.4byte	0xbc
 484 01c3 02       		.byte	0x2
 485 01c4 23       		.byte	0x23
 486 01c5 38       		.uleb128 0x38
 487 01c6 06       		.uleb128 0x6
 488 01c7 2D020000 		.4byte	.LASF34
 489 01cb 05       		.byte	0x5
 490 01cc C3       		.byte	0xc3
 491 01cd C7000000 		.4byte	0xc7
 492 01d1 02       		.byte	0x2
 493 01d2 23       		.byte	0x23
 494 01d3 3C       		.uleb128 0x3c
 495 01d4 06       		.uleb128 0x6
 496 01d5 F4010000 		.4byte	.LASF35
 497 01d9 05       		.byte	0x5
 498 01da CA       		.byte	0xca
 499 01db 9D040000 		.4byte	0x49d
 500 01df 02       		.byte	0x2
 501 01e0 23       		.byte	0x23
 502 01e1 40       		.uleb128 0x40
 503 01e2 06       		.uleb128 0x6
ARM GAS  C:\Users\z80\AppData\Local\Temp\cchRnF9j.s 			page 10


 504 01e3 6A020000 		.4byte	.LASF36
 505 01e7 05       		.byte	0x5
 506 01e8 CE       		.byte	0xce
 507 01e9 B1000000 		.4byte	0xb1
 508 01ed 02       		.byte	0x2
 509 01ee 23       		.byte	0x23
 510 01ef 44       		.uleb128 0x44
 511 01f0 00       		.byte	0x0
 512 01f1 08       		.uleb128 0x8
 513 01f2 08       		.byte	0x8
 514 01f3 04       		.byte	0x4
 515 01f4 61       		.byte	0x61
 516 01f5 16020000 		.4byte	0x216
 517 01f9 06       		.uleb128 0x6
 518 01fa 17020000 		.4byte	.LASF20
 519 01fe 04       		.byte	0x4
 520 01ff 62       		.byte	0x62
 521 0200 16020000 		.4byte	0x216
 522 0204 02       		.byte	0x2
 523 0205 23       		.byte	0x23
 524 0206 00       		.uleb128 0x0
 525 0207 06       		.uleb128 0x6
 526 0208 C3010000 		.4byte	.LASF21
 527 020c 04       		.byte	0x4
 528 020d 64       		.byte	0x64
 529 020e 16020000 		.4byte	0x216
 530 0212 02       		.byte	0x2
 531 0213 23       		.byte	0x23
 532 0214 04       		.uleb128 0x4
 533 0215 00       		.byte	0x0
 534 0216 09       		.uleb128 0x9
 535 0217 04       		.byte	0x4
 536 0218 DD000000 		.4byte	0xdd
 537 021c 04       		.uleb128 0x4
 538 021d 65010000 		.4byte	.LASF37
 539 0221 04       		.byte	0x4
 540 0222 66       		.byte	0x66
 541 0223 F1010000 		.4byte	0x1f1
 542 0227 08       		.uleb128 0x8
 543 0228 04       		.byte	0x4
 544 0229 04       		.byte	0x4
 545 022a 6B       		.byte	0x6b
 546 022b 3E020000 		.4byte	0x23e
 547 022f 06       		.uleb128 0x6
 548 0230 17020000 		.4byte	.LASF20
 549 0234 04       		.byte	0x4
 550 0235 6D       		.byte	0x6d
 551 0236 16020000 		.4byte	0x216
 552 023a 02       		.byte	0x2
 553 023b 23       		.byte	0x23
 554 023c 00       		.uleb128 0x0
 555 023d 00       		.byte	0x0
 556 023e 04       		.uleb128 0x4
 557 023f 16010000 		.4byte	.LASF38
 558 0243 04       		.byte	0x4
 559 0244 70       		.byte	0x70
 560 0245 27020000 		.4byte	0x227
ARM GAS  C:\Users\z80\AppData\Local\Temp\cchRnF9j.s 			page 11


 561 0249 04       		.uleb128 0x4
 562 024a 96000000 		.4byte	.LASF39
 563 024e 06       		.byte	0x6
 564 024f D7       		.byte	0xd7
 565 0250 54020000 		.4byte	0x254
 566 0254 0A       		.uleb128 0xa
 567 0255 04       		.byte	0x4
 568 0256 04       		.uleb128 0x4
 569 0257 34010000 		.4byte	.LASF40
 570 025b 06       		.byte	0x6
 571 025c DD       		.byte	0xdd
 572 025d 89000000 		.4byte	0x89
 573 0261 05       		.uleb128 0x5
 574 0262 8D020000 		.4byte	.LASF41
 575 0266 24       		.byte	0x24
 576 0267 06       		.byte	0x6
 577 0268 FE       		.byte	0xfe
 578 0269 EE020000 		.4byte	0x2ee
 579 026d 0B       		.uleb128 0xb
 580 026e 723400   		.ascii	"r4\000"
 581 0271 06       		.byte	0x6
 582 0272 1101     		.2byte	0x111
 583 0274 49020000 		.4byte	0x249
 584 0278 02       		.byte	0x2
 585 0279 23       		.byte	0x23
 586 027a 00       		.uleb128 0x0
 587 027b 0B       		.uleb128 0xb
 588 027c 723500   		.ascii	"r5\000"
 589 027f 06       		.byte	0x6
 590 0280 1201     		.2byte	0x112
 591 0282 49020000 		.4byte	0x249
 592 0286 02       		.byte	0x2
 593 0287 23       		.byte	0x23
 594 0288 04       		.uleb128 0x4
 595 0289 0B       		.uleb128 0xb
 596 028a 723600   		.ascii	"r6\000"
 597 028d 06       		.byte	0x6
 598 028e 1301     		.2byte	0x113
 599 0290 49020000 		.4byte	0x249
 600 0294 02       		.byte	0x2
 601 0295 23       		.byte	0x23
 602 0296 08       		.uleb128 0x8
 603 0297 0B       		.uleb128 0xb
 604 0298 723700   		.ascii	"r7\000"
 605 029b 06       		.byte	0x6
 606 029c 1401     		.2byte	0x114
 607 029e 49020000 		.4byte	0x249
 608 02a2 02       		.byte	0x2
 609 02a3 23       		.byte	0x23
 610 02a4 0C       		.uleb128 0xc
 611 02a5 0B       		.uleb128 0xb
 612 02a6 723800   		.ascii	"r8\000"
 613 02a9 06       		.byte	0x6
 614 02aa 1501     		.2byte	0x115
 615 02ac 49020000 		.4byte	0x249
 616 02b0 02       		.byte	0x2
 617 02b1 23       		.byte	0x23
ARM GAS  C:\Users\z80\AppData\Local\Temp\cchRnF9j.s 			page 12


 618 02b2 10       		.uleb128 0x10
 619 02b3 0B       		.uleb128 0xb
 620 02b4 723900   		.ascii	"r9\000"
 621 02b7 06       		.byte	0x6
 622 02b8 1601     		.2byte	0x116
 623 02ba 49020000 		.4byte	0x249
 624 02be 02       		.byte	0x2
 625 02bf 23       		.byte	0x23
 626 02c0 14       		.uleb128 0x14
 627 02c1 0B       		.uleb128 0xb
 628 02c2 72313000 		.ascii	"r10\000"
 629 02c6 06       		.byte	0x6
 630 02c7 1701     		.2byte	0x117
 631 02c9 49020000 		.4byte	0x249
 632 02cd 02       		.byte	0x2
 633 02ce 23       		.byte	0x23
 634 02cf 18       		.uleb128 0x18
 635 02d0 0B       		.uleb128 0xb
 636 02d1 72313100 		.ascii	"r11\000"
 637 02d5 06       		.byte	0x6
 638 02d6 1801     		.2byte	0x118
 639 02d8 49020000 		.4byte	0x249
 640 02dc 02       		.byte	0x2
 641 02dd 23       		.byte	0x23
 642 02de 1C       		.uleb128 0x1c
 643 02df 0B       		.uleb128 0xb
 644 02e0 6C7200   		.ascii	"lr\000"
 645 02e3 06       		.byte	0x6
 646 02e4 1901     		.2byte	0x119
 647 02e6 49020000 		.4byte	0x249
 648 02ea 02       		.byte	0x2
 649 02eb 23       		.byte	0x23
 650 02ec 20       		.uleb128 0x20
 651 02ed 00       		.byte	0x0
 652 02ee 0C       		.uleb128 0xc
 653 02ef E5000000 		.4byte	.LASF42
 654 02f3 04       		.byte	0x4
 655 02f4 06       		.byte	0x6
 656 02f5 2301     		.2byte	0x123
 657 02f7 0B030000 		.4byte	0x30b
 658 02fb 0B       		.uleb128 0xb
 659 02fc 72313300 		.ascii	"r13\000"
 660 0300 06       		.byte	0x6
 661 0301 2401     		.2byte	0x124
 662 0303 0B030000 		.4byte	0x30b
 663 0307 02       		.byte	0x2
 664 0308 23       		.byte	0x23
 665 0309 00       		.uleb128 0x0
 666 030a 00       		.byte	0x0
 667 030b 09       		.uleb128 0x9
 668 030c 04       		.byte	0x4
 669 030d 61020000 		.4byte	0x261
 670 0311 0D       		.uleb128 0xd
 671 0312 04       		.byte	0x4
 672 0313 07       		.byte	0x7
 673 0314 04       		.uleb128 0x4
 674 0315 75020000 		.4byte	.LASF43
ARM GAS  C:\Users\z80\AppData\Local\Temp\cchRnF9j.s 			page 13


 675 0319 07       		.byte	0x7
 676 031a 53       		.byte	0x53
 677 031b 1F030000 		.4byte	0x31f
 678 031f 09       		.uleb128 0x9
 679 0320 04       		.byte	0x4
 680 0321 25030000 		.4byte	0x325
 681 0325 0E       		.uleb128 0xe
 682 0326 01       		.byte	0x1
 683 0327 31030000 		.4byte	0x331
 684 032b 0F       		.uleb128 0xf
 685 032c 54020000 		.4byte	0x254
 686 0330 00       		.byte	0x0
 687 0331 04       		.uleb128 0x4
 688 0332 41020000 		.4byte	.LASF44
 689 0336 07       		.byte	0x7
 690 0337 58       		.byte	0x58
 691 0338 3C030000 		.4byte	0x33c
 692 033c 05       		.uleb128 0x5
 693 033d 41020000 		.4byte	.LASF44
 694 0341 14       		.byte	0x14
 695 0342 07       		.byte	0x7
 696 0343 5F       		.byte	0x5f
 697 0344 8F030000 		.4byte	0x38f
 698 0348 06       		.uleb128 0x6
 699 0349 CB000000 		.4byte	.LASF45
 700 034d 07       		.byte	0x7
 701 034e 60       		.byte	0x60
 702 034f 8F030000 		.4byte	0x38f
 703 0353 02       		.byte	0x2
 704 0354 23       		.byte	0x23
 705 0355 00       		.uleb128 0x0
 706 0356 06       		.uleb128 0x6
 707 0357 9F000000 		.4byte	.LASF46
 708 035b 07       		.byte	0x7
 709 035c 62       		.byte	0x62
 710 035d 8F030000 		.4byte	0x38f
 711 0361 02       		.byte	0x2
 712 0362 23       		.byte	0x23
 713 0363 04       		.uleb128 0x4
 714 0364 06       		.uleb128 0x6
 715 0365 3F010000 		.4byte	.LASF47
 716 0369 07       		.byte	0x7
 717 036a 64       		.byte	0x64
 718 036b D2000000 		.4byte	0xd2
 719 036f 02       		.byte	0x2
 720 0370 23       		.byte	0x23
 721 0371 08       		.uleb128 0x8
 722 0372 06       		.uleb128 0x6
 723 0373 4D010000 		.4byte	.LASF48
 724 0377 07       		.byte	0x7
 725 0378 65       		.byte	0x65
 726 0379 14030000 		.4byte	0x314
 727 037d 02       		.byte	0x2
 728 037e 23       		.byte	0x23
 729 037f 0C       		.uleb128 0xc
 730 0380 06       		.uleb128 0x6
 731 0381 9F020000 		.4byte	.LASF49
ARM GAS  C:\Users\z80\AppData\Local\Temp\cchRnF9j.s 			page 14


 732 0385 07       		.byte	0x7
 733 0386 67       		.byte	0x67
 734 0387 54020000 		.4byte	0x254
 735 038b 02       		.byte	0x2
 736 038c 23       		.byte	0x23
 737 038d 10       		.uleb128 0x10
 738 038e 00       		.byte	0x0
 739 038f 09       		.uleb128 0x9
 740 0390 04       		.byte	0x4
 741 0391 31030000 		.4byte	0x331
 742 0395 10       		.uleb128 0x10
 743 0396 D2000000 		.4byte	0xd2
 744 039a 05       		.uleb128 0x5
 745 039b 2E010000 		.4byte	.LASF50
 746 039f 10       		.byte	0x10
 747 03a0 08       		.byte	0x8
 748 03a1 2C       		.byte	0x2c
 749 03a2 D1030000 		.4byte	0x3d1
 750 03a6 06       		.uleb128 0x6
 751 03a7 74000000 		.4byte	.LASF51
 752 03ab 08       		.byte	0x8
 753 03ac 2D       		.byte	0x2d
 754 03ad 1C020000 		.4byte	0x21c
 755 03b1 02       		.byte	0x2
 756 03b2 23       		.byte	0x23
 757 03b3 00       		.uleb128 0x0
 758 03b4 06       		.uleb128 0x6
 759 03b5 E4020000 		.4byte	.LASF52
 760 03b9 08       		.byte	0x8
 761 03ba 2F       		.byte	0x2f
 762 03bb 16020000 		.4byte	0x216
 763 03bf 02       		.byte	0x2
 764 03c0 23       		.byte	0x23
 765 03c1 08       		.uleb128 0x8
 766 03c2 06       		.uleb128 0x6
 767 03c3 59020000 		.4byte	.LASF53
 768 03c7 08       		.byte	0x8
 769 03c8 31       		.byte	0x31
 770 03c9 D1030000 		.4byte	0x3d1
 771 03cd 02       		.byte	0x2
 772 03ce 23       		.byte	0x23
 773 03cf 0C       		.uleb128 0xc
 774 03d0 00       		.byte	0x0
 775 03d1 09       		.uleb128 0x9
 776 03d2 04       		.byte	0x4
 777 03d3 9A030000 		.4byte	0x39a
 778 03d7 04       		.uleb128 0x4
 779 03d8 2E010000 		.4byte	.LASF50
 780 03dc 08       		.byte	0x8
 781 03dd 33       		.byte	0x33
 782 03de 9A030000 		.4byte	0x39a
 783 03e2 04       		.uleb128 0x4
 784 03e3 B6020000 		.4byte	.LASF54
 785 03e7 09       		.byte	0x9
 786 03e8 29       		.byte	0x29
 787 03e9 ED030000 		.4byte	0x3ed
 788 03ed 05       		.uleb128 0x5
ARM GAS  C:\Users\z80\AppData\Local\Temp\cchRnF9j.s 			page 15


 789 03ee B6020000 		.4byte	.LASF54
 790 03f2 0C       		.byte	0xc
 791 03f3 09       		.byte	0x9
 792 03f4 2E       		.byte	0x2e
 793 03f5 24040000 		.4byte	0x424
 794 03f9 06       		.uleb128 0x6
 795 03fa 06010000 		.4byte	.LASF55
 796 03fe 09       		.byte	0x9
 797 03ff 2F       		.byte	0x2f
 798 0400 24040000 		.4byte	0x424
 799 0404 02       		.byte	0x2
 800 0405 23       		.byte	0x23
 801 0406 00       		.uleb128 0x0
 802 0407 06       		.uleb128 0x6
 803 0408 E8010000 		.4byte	.LASF56
 804 040c 09       		.byte	0x9
 805 040d 32       		.byte	0x32
 806 040e 16020000 		.4byte	0x216
 807 0412 02       		.byte	0x2
 808 0413 23       		.byte	0x23
 809 0414 04       		.uleb128 0x4
 810 0415 06       		.uleb128 0x6
 811 0416 55010000 		.4byte	.LASF57
 812 041a 09       		.byte	0x9
 813 041b 34       		.byte	0x34
 814 041c C7000000 		.4byte	0xc7
 815 0420 02       		.byte	0x2
 816 0421 23       		.byte	0x23
 817 0422 08       		.uleb128 0x8
 818 0423 00       		.byte	0x0
 819 0424 09       		.uleb128 0x9
 820 0425 04       		.byte	0x4
 821 0426 E2030000 		.4byte	0x3e2
 822 042a 05       		.uleb128 0x5
 823 042b A7000000 		.4byte	.LASF58
 824 042f 04       		.byte	0x4
 825 0430 09       		.byte	0x9
 826 0431 3C       		.byte	0x3c
 827 0432 45040000 		.4byte	0x445
 828 0436 06       		.uleb128 0x6
 829 0437 A6020000 		.4byte	.LASF59
 830 043b 09       		.byte	0x9
 831 043c 3D       		.byte	0x3d
 832 043d 24040000 		.4byte	0x424
 833 0441 02       		.byte	0x2
 834 0442 23       		.byte	0x23
 835 0443 00       		.uleb128 0x0
 836 0444 00       		.byte	0x0
 837 0445 04       		.uleb128 0x4
 838 0446 A7000000 		.4byte	.LASF58
 839 044a 09       		.byte	0x9
 840 044b 40       		.byte	0x40
 841 044c 2A040000 		.4byte	0x42a
 842 0450 11       		.uleb128 0x11
 843 0451 04       		.byte	0x4
 844 0452 05       		.byte	0x5
 845 0453 90       		.byte	0x90
ARM GAS  C:\Users\z80\AppData\Local\Temp\cchRnF9j.s 			page 16


 846 0454 85040000 		.4byte	0x485
 847 0458 12       		.uleb128 0x12
 848 0459 12000000 		.4byte	.LASF60
 849 045d 05       		.byte	0x5
 850 045e 97       		.byte	0x97
 851 045f BC000000 		.4byte	0xbc
 852 0463 12       		.uleb128 0x12
 853 0464 39000000 		.4byte	.LASF61
 854 0468 05       		.byte	0x5
 855 0469 9E       		.byte	0x9e
 856 046a BC000000 		.4byte	0xbc
 857 046e 12       		.uleb128 0x12
 858 046f D0020000 		.4byte	.LASF62
 859 0473 05       		.byte	0x5
 860 0474 A5       		.byte	0xa5
 861 0475 54020000 		.4byte	0x254
 862 0479 12       		.uleb128 0x12
 863 047a 10020000 		.4byte	.LASF63
 864 047e 05       		.byte	0x5
 865 047f AC       		.byte	0xac
 866 0480 C7000000 		.4byte	0xc7
 867 0484 00       		.byte	0x0
 868 0485 09       		.uleb128 0x9
 869 0486 04       		.byte	0x4
 870 0487 8B040000 		.4byte	0x48b
 871 048b 13       		.uleb128 0x13
 872 048c 90040000 		.4byte	0x490
 873 0490 03       		.uleb128 0x3
 874 0491 01       		.byte	0x1
 875 0492 08       		.byte	0x8
 876 0493 4E020000 		.4byte	.LASF64
 877 0497 09       		.uleb128 0x9
 878 0498 04       		.byte	0x4
 879 0499 56020000 		.4byte	0x256
 880 049d 09       		.uleb128 0x9
 881 049e 04       		.byte	0x4
 882 049f D7030000 		.4byte	0x3d7
 883 04a3 08       		.uleb128 0x8
 884 04a4 1C       		.byte	0x1c
 885 04a5 0A       		.byte	0xa
 886 04a6 2A       		.byte	0x2a
 887 04a7 D6040000 		.4byte	0x4d6
 888 04ab 06       		.uleb128 0x6
 889 04ac DE020000 		.4byte	.LASF65
 890 04b0 0A       		.byte	0xa
 891 04b1 2B       		.byte	0x2b
 892 04b2 31030000 		.4byte	0x331
 893 04b6 02       		.byte	0x2
 894 04b7 23       		.byte	0x23
 895 04b8 00       		.uleb128 0x0
 896 04b9 06       		.uleb128 0x6
 897 04ba 47010000 		.4byte	.LASF66
 898 04be 0A       		.byte	0xa
 899 04bf 2C       		.byte	0x2c
 900 04c0 45040000 		.4byte	0x445
 901 04c4 02       		.byte	0x2
 902 04c5 23       		.byte	0x23
ARM GAS  C:\Users\z80\AppData\Local\Temp\cchRnF9j.s 			page 17


 903 04c6 14       		.uleb128 0x14
 904 04c7 06       		.uleb128 0x6
 905 04c8 00000000 		.4byte	.LASF67
 906 04cc 0A       		.byte	0xa
 907 04cd 2D       		.byte	0x2d
 908 04ce D2000000 		.4byte	0xd2
 909 04d2 02       		.byte	0x2
 910 04d3 23       		.byte	0x23
 911 04d4 18       		.uleb128 0x18
 912 04d5 00       		.byte	0x0
 913 04d6 04       		.uleb128 0x4
 914 04d7 6C000000 		.4byte	.LASF68
 915 04db 0A       		.byte	0xa
 916 04dc 2E       		.byte	0x2e
 917 04dd A3040000 		.4byte	0x4a3
 918 04e1 14       		.uleb128 0x14
 919 04e2 53020000 		.4byte	.LASF72
 920 04e6 01       		.byte	0x1
 921 04e7 27       		.byte	0x27
 922 04e8 01       		.byte	0x1
 923 04e9 00000000 		.4byte	.LFB7
 924 04ed 36000000 		.4byte	.LFE7
 925 04f1 00000000 		.4byte	.LLST0
 926 04f5 14050000 		.4byte	0x514
 927 04f9 15       		.uleb128 0x15
 928 04fa 7000     		.ascii	"p\000"
 929 04fc 01       		.byte	0x1
 930 04fd 27       		.byte	0x27
 931 04fe 54020000 		.4byte	0x254
 932 0502 02       		.byte	0x2
 933 0503 91       		.byte	0x91
 934 0504 6C       		.sleb128 -20
 935 0505 16       		.uleb128 0x16
 936 0506 65747000 		.ascii	"etp\000"
 937 050a 01       		.byte	0x1
 938 050b 28       		.byte	0x28
 939 050c 14050000 		.4byte	0x514
 940 0510 02       		.byte	0x2
 941 0511 91       		.byte	0x91
 942 0512 74       		.sleb128 -12
 943 0513 00       		.byte	0x0
 944 0514 09       		.uleb128 0x9
 945 0515 04       		.byte	0x4
 946 0516 D6040000 		.4byte	0x4d6
 947 051a 17       		.uleb128 0x17
 948 051b 01       		.byte	0x1
 949 051c 42000000 		.4byte	.LASF73
 950 0520 01       		.byte	0x1
 951 0521 34       		.byte	0x34
 952 0522 01       		.byte	0x1
 953 0523 00000000 		.4byte	.LFB8
 954 0527 42000000 		.4byte	.LFE8
 955 052b 2C000000 		.4byte	.LLST1
 956 052f 74050000 		.4byte	0x574
 957 0533 15       		.uleb128 0x15
 958 0534 65747000 		.ascii	"etp\000"
 959 0538 01       		.byte	0x1
ARM GAS  C:\Users\z80\AppData\Local\Temp\cchRnF9j.s 			page 18


 960 0539 34       		.byte	0x34
 961 053a 14050000 		.4byte	0x514
 962 053e 02       		.byte	0x2
 963 053f 91       		.byte	0x91
 964 0540 74       		.sleb128 -12
 965 0541 18       		.uleb128 0x18
 966 0542 06000000 		.4byte	.LBB2
 967 0546 0E000000 		.4byte	.LBE2
 968 054a 5C050000 		.4byte	0x55c
 969 054e 16       		.uleb128 0x16
 970 054f 746D7000 		.ascii	"tmp\000"
 971 0553 01       		.byte	0x1
 972 0554 36       		.byte	0x36
 973 0555 70000000 		.4byte	0x70
 974 0559 01       		.byte	0x1
 975 055a 53       		.byte	0x53
 976 055b 00       		.byte	0x0
 977 055c 19       		.uleb128 0x19
 978 055d 36000000 		.4byte	.LBB3
 979 0561 3E000000 		.4byte	.LBE3
 980 0565 16       		.uleb128 0x16
 981 0566 746D7000 		.ascii	"tmp\000"
 982 056a 01       		.byte	0x1
 983 056b 3B       		.byte	0x3b
 984 056c 70000000 		.4byte	0x70
 985 0570 01       		.byte	0x1
 986 0571 53       		.byte	0x53
 987 0572 00       		.byte	0x0
 988 0573 00       		.byte	0x0
 989 0574 1A       		.uleb128 0x1a
 990 0575 01       		.byte	0x1
 991 0576 7E020000 		.4byte	.LASF74
 992 057a 01       		.byte	0x1
 993 057b 44       		.byte	0x44
 994 057c 01       		.byte	0x1
 995 057d 00000000 		.4byte	.LFB9
 996 0581 32000000 		.4byte	.LFE9
 997 0585 58000000 		.4byte	.LLST2
 998 0589 15       		.uleb128 0x15
 999 058a 65747000 		.ascii	"etp\000"
 1000 058e 01       		.byte	0x1
 1001 058f 44       		.byte	0x44
 1002 0590 14050000 		.4byte	0x514
 1003 0594 02       		.byte	0x2
 1004 0595 91       		.byte	0x91
 1005 0596 74       		.sleb128 -12
 1006 0597 18       		.uleb128 0x18
 1007 0598 06000000 		.4byte	.LBB4
 1008 059c 0E000000 		.4byte	.LBE4
 1009 05a0 B2050000 		.4byte	0x5b2
 1010 05a4 16       		.uleb128 0x16
 1011 05a5 746D7000 		.ascii	"tmp\000"
 1012 05a9 01       		.byte	0x1
 1013 05aa 46       		.byte	0x46
 1014 05ab 70000000 		.4byte	0x70
 1015 05af 01       		.byte	0x1
 1016 05b0 53       		.byte	0x53
ARM GAS  C:\Users\z80\AppData\Local\Temp\cchRnF9j.s 			page 19


 1017 05b1 00       		.byte	0x0
 1018 05b2 19       		.uleb128 0x19
 1019 05b3 26000000 		.4byte	.LBB5
 1020 05b7 2E000000 		.4byte	.LBE5
 1021 05bb 16       		.uleb128 0x16
 1022 05bc 746D7000 		.ascii	"tmp\000"
 1023 05c0 01       		.byte	0x1
 1024 05c1 4B       		.byte	0x4b
 1025 05c2 70000000 		.4byte	0x70
 1026 05c6 01       		.byte	0x1
 1027 05c7 53       		.byte	0x53
 1028 05c8 00       		.byte	0x0
 1029 05c9 00       		.byte	0x0
 1030 05ca 00       		.byte	0x0
 1031              		.section	.debug_abbrev
 1032 0000 01       		.uleb128 0x1
 1033 0001 11       		.uleb128 0x11
 1034 0002 01       		.byte	0x1
 1035 0003 25       		.uleb128 0x25
 1036 0004 0E       		.uleb128 0xe
 1037 0005 13       		.uleb128 0x13
 1038 0006 0B       		.uleb128 0xb
 1039 0007 03       		.uleb128 0x3
 1040 0008 0E       		.uleb128 0xe
 1041 0009 1B       		.uleb128 0x1b
 1042 000a 0E       		.uleb128 0xe
 1043 000b 11       		.uleb128 0x11
 1044 000c 01       		.uleb128 0x1
 1045 000d 52       		.uleb128 0x52
 1046 000e 01       		.uleb128 0x1
 1047 000f 55       		.uleb128 0x55
 1048 0010 06       		.uleb128 0x6
 1049 0011 10       		.uleb128 0x10
 1050 0012 06       		.uleb128 0x6
 1051 0013 00       		.byte	0x0
 1052 0014 00       		.byte	0x0
 1053 0015 02       		.uleb128 0x2
 1054 0016 24       		.uleb128 0x24
 1055 0017 00       		.byte	0x0
 1056 0018 0B       		.uleb128 0xb
 1057 0019 0B       		.uleb128 0xb
 1058 001a 3E       		.uleb128 0x3e
 1059 001b 0B       		.uleb128 0xb
 1060 001c 03       		.uleb128 0x3
 1061 001d 08       		.uleb128 0x8
 1062 001e 00       		.byte	0x0
 1063 001f 00       		.byte	0x0
 1064 0020 03       		.uleb128 0x3
 1065 0021 24       		.uleb128 0x24
 1066 0022 00       		.byte	0x0
 1067 0023 0B       		.uleb128 0xb
 1068 0024 0B       		.uleb128 0xb
 1069 0025 3E       		.uleb128 0x3e
 1070 0026 0B       		.uleb128 0xb
 1071 0027 03       		.uleb128 0x3
 1072 0028 0E       		.uleb128 0xe
 1073 0029 00       		.byte	0x0
ARM GAS  C:\Users\z80\AppData\Local\Temp\cchRnF9j.s 			page 20


 1074 002a 00       		.byte	0x0
 1075 002b 04       		.uleb128 0x4
 1076 002c 16       		.uleb128 0x16
 1077 002d 00       		.byte	0x0
 1078 002e 03       		.uleb128 0x3
 1079 002f 0E       		.uleb128 0xe
 1080 0030 3A       		.uleb128 0x3a
 1081 0031 0B       		.uleb128 0xb
 1082 0032 3B       		.uleb128 0x3b
 1083 0033 0B       		.uleb128 0xb
 1084 0034 49       		.uleb128 0x49
 1085 0035 13       		.uleb128 0x13
 1086 0036 00       		.byte	0x0
 1087 0037 00       		.byte	0x0
 1088 0038 05       		.uleb128 0x5
 1089 0039 13       		.uleb128 0x13
 1090 003a 01       		.byte	0x1
 1091 003b 03       		.uleb128 0x3
 1092 003c 0E       		.uleb128 0xe
 1093 003d 0B       		.uleb128 0xb
 1094 003e 0B       		.uleb128 0xb
 1095 003f 3A       		.uleb128 0x3a
 1096 0040 0B       		.uleb128 0xb
 1097 0041 3B       		.uleb128 0x3b
 1098 0042 0B       		.uleb128 0xb
 1099 0043 01       		.uleb128 0x1
 1100 0044 13       		.uleb128 0x13
 1101 0045 00       		.byte	0x0
 1102 0046 00       		.byte	0x0
 1103 0047 06       		.uleb128 0x6
 1104 0048 0D       		.uleb128 0xd
 1105 0049 00       		.byte	0x0
 1106 004a 03       		.uleb128 0x3
 1107 004b 0E       		.uleb128 0xe
 1108 004c 3A       		.uleb128 0x3a
 1109 004d 0B       		.uleb128 0xb
 1110 004e 3B       		.uleb128 0x3b
 1111 004f 0B       		.uleb128 0xb
 1112 0050 49       		.uleb128 0x49
 1113 0051 13       		.uleb128 0x13
 1114 0052 38       		.uleb128 0x38
 1115 0053 0A       		.uleb128 0xa
 1116 0054 00       		.byte	0x0
 1117 0055 00       		.byte	0x0
 1118 0056 07       		.uleb128 0x7
 1119 0057 0D       		.uleb128 0xd
 1120 0058 00       		.byte	0x0
 1121 0059 03       		.uleb128 0x3
 1122 005a 08       		.uleb128 0x8
 1123 005b 3A       		.uleb128 0x3a
 1124 005c 0B       		.uleb128 0xb
 1125 005d 3B       		.uleb128 0x3b
 1126 005e 0B       		.uleb128 0xb
 1127 005f 49       		.uleb128 0x49
 1128 0060 13       		.uleb128 0x13
 1129 0061 38       		.uleb128 0x38
 1130 0062 0A       		.uleb128 0xa
ARM GAS  C:\Users\z80\AppData\Local\Temp\cchRnF9j.s 			page 21


 1131 0063 00       		.byte	0x0
 1132 0064 00       		.byte	0x0
 1133 0065 08       		.uleb128 0x8
 1134 0066 13       		.uleb128 0x13
 1135 0067 01       		.byte	0x1
 1136 0068 0B       		.uleb128 0xb
 1137 0069 0B       		.uleb128 0xb
 1138 006a 3A       		.uleb128 0x3a
 1139 006b 0B       		.uleb128 0xb
 1140 006c 3B       		.uleb128 0x3b
 1141 006d 0B       		.uleb128 0xb
 1142 006e 01       		.uleb128 0x1
 1143 006f 13       		.uleb128 0x13
 1144 0070 00       		.byte	0x0
 1145 0071 00       		.byte	0x0
 1146 0072 09       		.uleb128 0x9
 1147 0073 0F       		.uleb128 0xf
 1148 0074 00       		.byte	0x0
 1149 0075 0B       		.uleb128 0xb
 1150 0076 0B       		.uleb128 0xb
 1151 0077 49       		.uleb128 0x49
 1152 0078 13       		.uleb128 0x13
 1153 0079 00       		.byte	0x0
 1154 007a 00       		.byte	0x0
 1155 007b 0A       		.uleb128 0xa
 1156 007c 0F       		.uleb128 0xf
 1157 007d 00       		.byte	0x0
 1158 007e 0B       		.uleb128 0xb
 1159 007f 0B       		.uleb128 0xb
 1160 0080 00       		.byte	0x0
 1161 0081 00       		.byte	0x0
 1162 0082 0B       		.uleb128 0xb
 1163 0083 0D       		.uleb128 0xd
 1164 0084 00       		.byte	0x0
 1165 0085 03       		.uleb128 0x3
 1166 0086 08       		.uleb128 0x8
 1167 0087 3A       		.uleb128 0x3a
 1168 0088 0B       		.uleb128 0xb
 1169 0089 3B       		.uleb128 0x3b
 1170 008a 05       		.uleb128 0x5
 1171 008b 49       		.uleb128 0x49
 1172 008c 13       		.uleb128 0x13
 1173 008d 38       		.uleb128 0x38
 1174 008e 0A       		.uleb128 0xa
 1175 008f 00       		.byte	0x0
 1176 0090 00       		.byte	0x0
 1177 0091 0C       		.uleb128 0xc
 1178 0092 13       		.uleb128 0x13
 1179 0093 01       		.byte	0x1
 1180 0094 03       		.uleb128 0x3
 1181 0095 0E       		.uleb128 0xe
 1182 0096 0B       		.uleb128 0xb
 1183 0097 0B       		.uleb128 0xb
 1184 0098 3A       		.uleb128 0x3a
 1185 0099 0B       		.uleb128 0xb
 1186 009a 3B       		.uleb128 0x3b
 1187 009b 05       		.uleb128 0x5
ARM GAS  C:\Users\z80\AppData\Local\Temp\cchRnF9j.s 			page 22


 1188 009c 01       		.uleb128 0x1
 1189 009d 13       		.uleb128 0x13
 1190 009e 00       		.byte	0x0
 1191 009f 00       		.byte	0x0
 1192 00a0 0D       		.uleb128 0xd
 1193 00a1 24       		.uleb128 0x24
 1194 00a2 00       		.byte	0x0
 1195 00a3 0B       		.uleb128 0xb
 1196 00a4 0B       		.uleb128 0xb
 1197 00a5 3E       		.uleb128 0x3e
 1198 00a6 0B       		.uleb128 0xb
 1199 00a7 00       		.byte	0x0
 1200 00a8 00       		.byte	0x0
 1201 00a9 0E       		.uleb128 0xe
 1202 00aa 15       		.uleb128 0x15
 1203 00ab 01       		.byte	0x1
 1204 00ac 27       		.uleb128 0x27
 1205 00ad 0C       		.uleb128 0xc
 1206 00ae 01       		.uleb128 0x1
 1207 00af 13       		.uleb128 0x13
 1208 00b0 00       		.byte	0x0
 1209 00b1 00       		.byte	0x0
 1210 00b2 0F       		.uleb128 0xf
 1211 00b3 05       		.uleb128 0x5
 1212 00b4 00       		.byte	0x0
 1213 00b5 49       		.uleb128 0x49
 1214 00b6 13       		.uleb128 0x13
 1215 00b7 00       		.byte	0x0
 1216 00b8 00       		.byte	0x0
 1217 00b9 10       		.uleb128 0x10
 1218 00ba 35       		.uleb128 0x35
 1219 00bb 00       		.byte	0x0
 1220 00bc 49       		.uleb128 0x49
 1221 00bd 13       		.uleb128 0x13
 1222 00be 00       		.byte	0x0
 1223 00bf 00       		.byte	0x0
 1224 00c0 11       		.uleb128 0x11
 1225 00c1 17       		.uleb128 0x17
 1226 00c2 01       		.byte	0x1
 1227 00c3 0B       		.uleb128 0xb
 1228 00c4 0B       		.uleb128 0xb
 1229 00c5 3A       		.uleb128 0x3a
 1230 00c6 0B       		.uleb128 0xb
 1231 00c7 3B       		.uleb128 0x3b
 1232 00c8 0B       		.uleb128 0xb
 1233 00c9 01       		.uleb128 0x1
 1234 00ca 13       		.uleb128 0x13
 1235 00cb 00       		.byte	0x0
 1236 00cc 00       		.byte	0x0
 1237 00cd 12       		.uleb128 0x12
 1238 00ce 0D       		.uleb128 0xd
 1239 00cf 00       		.byte	0x0
 1240 00d0 03       		.uleb128 0x3
 1241 00d1 0E       		.uleb128 0xe
 1242 00d2 3A       		.uleb128 0x3a
 1243 00d3 0B       		.uleb128 0xb
 1244 00d4 3B       		.uleb128 0x3b
ARM GAS  C:\Users\z80\AppData\Local\Temp\cchRnF9j.s 			page 23


 1245 00d5 0B       		.uleb128 0xb
 1246 00d6 49       		.uleb128 0x49
 1247 00d7 13       		.uleb128 0x13
 1248 00d8 00       		.byte	0x0
 1249 00d9 00       		.byte	0x0
 1250 00da 13       		.uleb128 0x13
 1251 00db 26       		.uleb128 0x26
 1252 00dc 00       		.byte	0x0
 1253 00dd 49       		.uleb128 0x49
 1254 00de 13       		.uleb128 0x13
 1255 00df 00       		.byte	0x0
 1256 00e0 00       		.byte	0x0
 1257 00e1 14       		.uleb128 0x14
 1258 00e2 2E       		.uleb128 0x2e
 1259 00e3 01       		.byte	0x1
 1260 00e4 03       		.uleb128 0x3
 1261 00e5 0E       		.uleb128 0xe
 1262 00e6 3A       		.uleb128 0x3a
 1263 00e7 0B       		.uleb128 0xb
 1264 00e8 3B       		.uleb128 0x3b
 1265 00e9 0B       		.uleb128 0xb
 1266 00ea 27       		.uleb128 0x27
 1267 00eb 0C       		.uleb128 0xc
 1268 00ec 11       		.uleb128 0x11
 1269 00ed 01       		.uleb128 0x1
 1270 00ee 12       		.uleb128 0x12
 1271 00ef 01       		.uleb128 0x1
 1272 00f0 40       		.uleb128 0x40
 1273 00f1 06       		.uleb128 0x6
 1274 00f2 01       		.uleb128 0x1
 1275 00f3 13       		.uleb128 0x13
 1276 00f4 00       		.byte	0x0
 1277 00f5 00       		.byte	0x0
 1278 00f6 15       		.uleb128 0x15
 1279 00f7 05       		.uleb128 0x5
 1280 00f8 00       		.byte	0x0
 1281 00f9 03       		.uleb128 0x3
 1282 00fa 08       		.uleb128 0x8
 1283 00fb 3A       		.uleb128 0x3a
 1284 00fc 0B       		.uleb128 0xb
 1285 00fd 3B       		.uleb128 0x3b
 1286 00fe 0B       		.uleb128 0xb
 1287 00ff 49       		.uleb128 0x49
 1288 0100 13       		.uleb128 0x13
 1289 0101 02       		.uleb128 0x2
 1290 0102 0A       		.uleb128 0xa
 1291 0103 00       		.byte	0x0
 1292 0104 00       		.byte	0x0
 1293 0105 16       		.uleb128 0x16
 1294 0106 34       		.uleb128 0x34
 1295 0107 00       		.byte	0x0
 1296 0108 03       		.uleb128 0x3
 1297 0109 08       		.uleb128 0x8
 1298 010a 3A       		.uleb128 0x3a
 1299 010b 0B       		.uleb128 0xb
 1300 010c 3B       		.uleb128 0x3b
 1301 010d 0B       		.uleb128 0xb
ARM GAS  C:\Users\z80\AppData\Local\Temp\cchRnF9j.s 			page 24


 1302 010e 49       		.uleb128 0x49
 1303 010f 13       		.uleb128 0x13
 1304 0110 02       		.uleb128 0x2
 1305 0111 0A       		.uleb128 0xa
 1306 0112 00       		.byte	0x0
 1307 0113 00       		.byte	0x0
 1308 0114 17       		.uleb128 0x17
 1309 0115 2E       		.uleb128 0x2e
 1310 0116 01       		.byte	0x1
 1311 0117 3F       		.uleb128 0x3f
 1312 0118 0C       		.uleb128 0xc
 1313 0119 03       		.uleb128 0x3
 1314 011a 0E       		.uleb128 0xe
 1315 011b 3A       		.uleb128 0x3a
 1316 011c 0B       		.uleb128 0xb
 1317 011d 3B       		.uleb128 0x3b
 1318 011e 0B       		.uleb128 0xb
 1319 011f 27       		.uleb128 0x27
 1320 0120 0C       		.uleb128 0xc
 1321 0121 11       		.uleb128 0x11
 1322 0122 01       		.uleb128 0x1
 1323 0123 12       		.uleb128 0x12
 1324 0124 01       		.uleb128 0x1
 1325 0125 40       		.uleb128 0x40
 1326 0126 06       		.uleb128 0x6
 1327 0127 01       		.uleb128 0x1
 1328 0128 13       		.uleb128 0x13
 1329 0129 00       		.byte	0x0
 1330 012a 00       		.byte	0x0
 1331 012b 18       		.uleb128 0x18
 1332 012c 0B       		.uleb128 0xb
 1333 012d 01       		.byte	0x1
 1334 012e 11       		.uleb128 0x11
 1335 012f 01       		.uleb128 0x1
 1336 0130 12       		.uleb128 0x12
 1337 0131 01       		.uleb128 0x1
 1338 0132 01       		.uleb128 0x1
 1339 0133 13       		.uleb128 0x13
 1340 0134 00       		.byte	0x0
 1341 0135 00       		.byte	0x0
 1342 0136 19       		.uleb128 0x19
 1343 0137 0B       		.uleb128 0xb
 1344 0138 01       		.byte	0x1
 1345 0139 11       		.uleb128 0x11
 1346 013a 01       		.uleb128 0x1
 1347 013b 12       		.uleb128 0x12
 1348 013c 01       		.uleb128 0x1
 1349 013d 00       		.byte	0x0
 1350 013e 00       		.byte	0x0
 1351 013f 1A       		.uleb128 0x1a
 1352 0140 2E       		.uleb128 0x2e
 1353 0141 01       		.byte	0x1
 1354 0142 3F       		.uleb128 0x3f
 1355 0143 0C       		.uleb128 0xc
 1356 0144 03       		.uleb128 0x3
 1357 0145 0E       		.uleb128 0xe
 1358 0146 3A       		.uleb128 0x3a
ARM GAS  C:\Users\z80\AppData\Local\Temp\cchRnF9j.s 			page 25


 1359 0147 0B       		.uleb128 0xb
 1360 0148 3B       		.uleb128 0x3b
 1361 0149 0B       		.uleb128 0xb
 1362 014a 27       		.uleb128 0x27
 1363 014b 0C       		.uleb128 0xc
 1364 014c 11       		.uleb128 0x11
 1365 014d 01       		.uleb128 0x1
 1366 014e 12       		.uleb128 0x12
 1367 014f 01       		.uleb128 0x1
 1368 0150 40       		.uleb128 0x40
 1369 0151 06       		.uleb128 0x6
 1370 0152 00       		.byte	0x0
 1371 0153 00       		.byte	0x0
 1372 0154 00       		.byte	0x0
 1373              		.section	.debug_pubnames,"",%progbits
 1374 0000 27000000 		.4byte	0x27
 1375 0004 0200     		.2byte	0x2
 1376 0006 00000000 		.4byte	.Ldebug_info0
 1377 000a CB050000 		.4byte	0x5cb
 1378 000e 1A050000 		.4byte	0x51a
 1379 0012 65767453 		.ascii	"evtStart\000"
 1379      74617274 
 1379      00
 1380 001b 74050000 		.4byte	0x574
 1381 001f 65767453 		.ascii	"evtStop\000"
 1381      746F7000 
 1382 0027 00000000 		.4byte	0x0
 1383              		.section	.debug_pubtypes,"",%progbits
 1384 0000 8A010000 		.4byte	0x18a
 1385 0004 0200     		.2byte	0x2
 1386 0006 00000000 		.4byte	.Ldebug_info0
 1387 000a CB050000 		.4byte	0x5cb
 1388 000e 3E000000 		.4byte	0x3e
 1389 0012 75696E74 		.ascii	"uint8_t\000"
 1389      385F7400 
 1390 001a 5E000000 		.4byte	0x5e
 1391 001e 696E7433 		.ascii	"int32_t\000"
 1391      325F7400 
 1392 0026 70000000 		.4byte	0x70
 1393 002a 75696E74 		.ascii	"uint32_t\000"
 1393      33325F74 
 1393      00
 1394 0033 89000000 		.4byte	0x89
 1395 0037 75696E74 		.ascii	"uint64_t\000"
 1395      36345F74 
 1395      00
 1396 0040 9B000000 		.4byte	0x9b
 1397 0044 746D6F64 		.ascii	"tmode_t\000"
 1397      655F7400 
 1398 004c A6000000 		.4byte	0xa6
 1399 0050 74737461 		.ascii	"tstate_t\000"
 1399      74655F74 
 1399      00
 1400 0059 B1000000 		.4byte	0xb1
 1401 005d 74707269 		.ascii	"tprio_t\000"
 1401      6F5F7400 
 1402 0065 BC000000 		.4byte	0xbc
ARM GAS  C:\Users\z80\AppData\Local\Temp\cchRnF9j.s 			page 26


 1403 0069 6D73675F 		.ascii	"msg_t\000"
 1403      7400
 1404 006f C7000000 		.4byte	0xc7
 1405 0073 6576656E 		.ascii	"eventmask_t\000"
 1405      746D6173 
 1405      6B5F7400 
 1406 007f D2000000 		.4byte	0xd2
 1407 0083 73797374 		.ascii	"systime_t\000"
 1407      696D655F 
 1407      7400
 1408 008d DD000000 		.4byte	0xdd
 1409 0091 54687265 		.ascii	"Thread\000"
 1409      616400
 1410 0098 1C020000 		.4byte	0x21c
 1411 009c 54687265 		.ascii	"ThreadsQueue\000"
 1411      61647351 
 1411      75657565 
 1411      00
 1412 00a9 3E020000 		.4byte	0x23e
 1413 00ad 54687265 		.ascii	"ThreadsList\000"
 1413      6164734C 
 1413      69737400 
 1414 00b9 49020000 		.4byte	0x249
 1415 00bd 72656761 		.ascii	"regarm_t\000"
 1415      726D5F74 
 1415      00
 1416 00c6 56020000 		.4byte	0x256
 1417 00ca 73746B61 		.ascii	"stkalign_t\000"
 1417      6C69676E 
 1417      5F7400
 1418 00d5 61020000 		.4byte	0x261
 1419 00d9 696E7463 		.ascii	"intctx\000"
 1419      747800
 1420 00e0 EE020000 		.4byte	0x2ee
 1421 00e4 636F6E74 		.ascii	"context\000"
 1421      65787400 
 1422 00ec 14030000 		.4byte	0x314
 1423 00f0 76746675 		.ascii	"vtfunc_t\000"
 1423      6E635F74 
 1423      00
 1424 00f9 31030000 		.4byte	0x331
 1425 00fd 56697274 		.ascii	"VirtualTimer\000"
 1425      75616C54 
 1425      696D6572 
 1425      00
 1426 010a 3C030000 		.4byte	0x33c
 1427 010e 56697274 		.ascii	"VirtualTimer\000"
 1427      75616C54 
 1427      696D6572 
 1427      00
 1428 011b 9A030000 		.4byte	0x39a
 1429 011f 4D757465 		.ascii	"Mutex\000"
 1429      7800
 1430 0125 D7030000 		.4byte	0x3d7
 1431 0129 4D757465 		.ascii	"Mutex\000"
 1431      7800
 1432 012f E2030000 		.4byte	0x3e2
ARM GAS  C:\Users\z80\AppData\Local\Temp\cchRnF9j.s 			page 27


 1433 0133 4576656E 		.ascii	"EventListener\000"
 1433      744C6973 
 1433      74656E65 
 1433      7200
 1434 0141 ED030000 		.4byte	0x3ed
 1435 0145 4576656E 		.ascii	"EventListener\000"
 1435      744C6973 
 1435      74656E65 
 1435      7200
 1436 0153 2A040000 		.4byte	0x42a
 1437 0157 4576656E 		.ascii	"EventSource\000"
 1437      74536F75 
 1437      72636500 
 1438 0163 45040000 		.4byte	0x445
 1439 0167 4576656E 		.ascii	"EventSource\000"
 1439      74536F75 
 1439      72636500 
 1440 0173 E8000000 		.4byte	0xe8
 1441 0177 54687265 		.ascii	"Thread\000"
 1441      616400
 1442 017e D6040000 		.4byte	0x4d6
 1443 0182 45765469 		.ascii	"EvTimer\000"
 1443      6D657200 
 1444 018a 00000000 		.4byte	0x0
 1445              		.section	.debug_aranges,"",%progbits
 1446 0000 2C000000 		.4byte	0x2c
 1447 0004 0200     		.2byte	0x2
 1448 0006 00000000 		.4byte	.Ldebug_info0
 1449 000a 04       		.byte	0x4
 1450 000b 00       		.byte	0x0
 1451 000c 0000     		.2byte	0x0
 1452 000e 0000     		.2byte	0x0
 1453 0010 00000000 		.4byte	.LFB7
 1454 0014 36000000 		.4byte	.LFE7-.LFB7
 1455 0018 00000000 		.4byte	.LFB8
 1456 001c 42000000 		.4byte	.LFE8-.LFB8
 1457 0020 00000000 		.4byte	.LFB9
 1458 0024 32000000 		.4byte	.LFE9-.LFB9
 1459 0028 00000000 		.4byte	0x0
 1460 002c 00000000 		.4byte	0x0
 1461              		.section	.debug_ranges,"",%progbits
 1462              	.Ldebug_ranges0:
 1463 0000 00000000 		.4byte	.LFB7
 1464 0004 36000000 		.4byte	.LFE7
 1465 0008 00000000 		.4byte	.LFB8
 1466 000c 42000000 		.4byte	.LFE8
 1467 0010 00000000 		.4byte	.LFB9
 1468 0014 32000000 		.4byte	.LFE9
 1469 0018 00000000 		.4byte	0x0
 1470 001c 00000000 		.4byte	0x0
 1471              		.section	.debug_str,"MS",%progbits,1
 1472              	.LASF67:
 1473 0000 65745F69 		.ascii	"et_interval\000"
 1473      6E746572 
 1473      76616C00 
 1474              	.LASF33:
 1475 000c 705F6D73 		.ascii	"p_msg\000"
ARM GAS  C:\Users\z80\AppData\Local\Temp\cchRnF9j.s 			page 28


 1475      6700
 1476              	.LASF60:
 1477 0012 7264796D 		.ascii	"rdymsg\000"
 1477      736700
 1478              	.LASF11:
 1479 0019 75696E74 		.ascii	"uint64_t\000"
 1479      36345F74 
 1479      00
 1480              	.LASF12:
 1481 0022 6C6F6E67 		.ascii	"long long unsigned int\000"
 1481      206C6F6E 
 1481      6720756E 
 1481      7369676E 
 1481      65642069 
 1482              	.LASF61:
 1483 0039 65786974 		.ascii	"exitcode\000"
 1483      636F6465 
 1483      00
 1484              	.LASF73:
 1485 0042 65767453 		.ascii	"evtStart\000"
 1485      74617274 
 1485      00
 1486              	.LASF22:
 1487 004b 705F7072 		.ascii	"p_prio\000"
 1487      696F00
 1488              	.LASF10:
 1489 0052 6C6F6E67 		.ascii	"long long int\000"
 1489      206C6F6E 
 1489      6720696E 
 1489      7400
 1490              	.LASF1:
 1491 0060 7369676E 		.ascii	"signed char\000"
 1491      65642063 
 1491      68617200 
 1492              	.LASF68:
 1493 006c 45765469 		.ascii	"EvTimer\000"
 1493      6D657200 
 1494              	.LASF51:
 1495 0074 6D5F7175 		.ascii	"m_queue\000"
 1495      65756500 
 1496              	.LASF7:
 1497 007c 6C6F6E67 		.ascii	"long int\000"
 1497      20696E74 
 1497      00
 1498              	.LASF14:
 1499 0085 74737461 		.ascii	"tstate_t\000"
 1499      74655F74 
 1499      00
 1500              	.LASF24:
 1501 008e 705F6E65 		.ascii	"p_newer\000"
 1501      77657200 
 1502              	.LASF39:
 1503 0096 72656761 		.ascii	"regarm_t\000"
 1503      726D5F74 
 1503      00
 1504              	.LASF46:
 1505 009f 76745F70 		.ascii	"vt_prev\000"
ARM GAS  C:\Users\z80\AppData\Local\Temp\cchRnF9j.s 			page 29


 1505      72657600 
 1506              	.LASF58:
 1507 00a7 4576656E 		.ascii	"EventSource\000"
 1507      74536F75 
 1507      72636500 
 1508              	.LASF27:
 1509 00b3 705F7374 		.ascii	"p_stklimit\000"
 1509      6B6C696D 
 1509      697400
 1510              	.LASF0:
 1511 00be 756E7369 		.ascii	"unsigned int\000"
 1511      676E6564 
 1511      20696E74 
 1511      00
 1512              	.LASF45:
 1513 00cb 76745F6E 		.ascii	"vt_next\000"
 1513      65787400 
 1514              	.LASF9:
 1515 00d3 6C6F6E67 		.ascii	"long unsigned int\000"
 1515      20756E73 
 1515      69676E65 
 1515      6420696E 
 1515      7400
 1516              	.LASF42:
 1517 00e5 636F6E74 		.ascii	"context\000"
 1517      65787400 
 1518              	.LASF4:
 1519 00ed 73686F72 		.ascii	"short unsigned int\000"
 1519      7420756E 
 1519      7369676E 
 1519      65642069 
 1519      6E7400
 1520              	.LASF16:
 1521 0100 6D73675F 		.ascii	"msg_t\000"
 1521      7400
 1522              	.LASF55:
 1523 0106 656C5F6E 		.ascii	"el_next\000"
 1523      65787400 
 1524              	.LASF13:
 1525 010e 746D6F64 		.ascii	"tmode_t\000"
 1525      655F7400 
 1526              	.LASF38:
 1527 0116 54687265 		.ascii	"ThreadsList\000"
 1527      6164734C 
 1527      69737400 
 1528              	.LASF17:
 1529 0122 6576656E 		.ascii	"eventmask_t\000"
 1529      746D6173 
 1529      6B5F7400 
 1530              	.LASF50:
 1531 012e 4D757465 		.ascii	"Mutex\000"
 1531      7800
 1532              	.LASF40:
 1533 0134 73746B61 		.ascii	"stkalign_t\000"
 1533      6C69676E 
 1533      5F7400
 1534              	.LASF47:
ARM GAS  C:\Users\z80\AppData\Local\Temp\cchRnF9j.s 			page 30


 1535 013f 76745F74 		.ascii	"vt_time\000"
 1535      696D6500 
 1536              	.LASF66:
 1537 0147 65745F65 		.ascii	"et_es\000"
 1537      7300
 1538              	.LASF48:
 1539 014d 76745F66 		.ascii	"vt_func\000"
 1539      756E6300 
 1540              	.LASF57:
 1541 0155 656C5F6D 		.ascii	"el_mask\000"
 1541      61736B00 
 1542              	.LASF25:
 1543 015d 705F6F6C 		.ascii	"p_older\000"
 1543      64657200 
 1544              	.LASF37:
 1545 0165 54687265 		.ascii	"ThreadsQueue\000"
 1545      61647351 
 1545      75657565 
 1545      00
 1546              	.LASF71:
 1547 0172 433A5C70 		.ascii	"C:\\projects\\voltamper.git\\firmware\\voltamp\000"
 1547      726F6A65 
 1547      6374735C 
 1547      766F6C74 
 1547      616D7065 
 1548              	.LASF70:
 1549 019d 2E2E2F63 		.ascii	"../chibios_2.4.x/os/various/evtimer.c\000"
 1549      68696269 
 1549      6F735F32 
 1549      2E342E78 
 1549      2F6F732F 
 1550              	.LASF21:
 1551 01c3 705F7072 		.ascii	"p_prev\000"
 1551      657600
 1552              	.LASF15:
 1553 01ca 74707269 		.ascii	"tprio_t\000"
 1553      6F5F7400 
 1554              	.LASF6:
 1555 01d2 696E7433 		.ascii	"int32_t\000"
 1555      325F7400 
 1556              	.LASF2:
 1557 01da 756E7369 		.ascii	"unsigned char\000"
 1557      676E6564 
 1557      20636861 
 1557      7200
 1558              	.LASF56:
 1559 01e8 656C5F6C 		.ascii	"el_listener\000"
 1559      69737465 
 1559      6E657200 
 1560              	.LASF35:
 1561 01f4 705F6D74 		.ascii	"p_mtxlist\000"
 1561      786C6973 
 1561      7400
 1562              	.LASF3:
 1563 01fe 73686F72 		.ascii	"short int\000"
 1563      7420696E 
 1563      7400
ARM GAS  C:\Users\z80\AppData\Local\Temp\cchRnF9j.s 			page 31


 1564              	.LASF28:
 1565 0208 705F7374 		.ascii	"p_state\000"
 1565      61746500 
 1566              	.LASF63:
 1567 0210 65776D61 		.ascii	"ewmask\000"
 1567      736B00
 1568              	.LASF20:
 1569 0217 705F6E65 		.ascii	"p_next\000"
 1569      787400
 1570              	.LASF29:
 1571 021e 705F666C 		.ascii	"p_flags\000"
 1571      61677300 
 1572              	.LASF19:
 1573 0226 54687265 		.ascii	"Thread\000"
 1573      616400
 1574              	.LASF34:
 1575 022d 705F6570 		.ascii	"p_epending\000"
 1575      656E6469 
 1575      6E6700
 1576              	.LASF8:
 1577 0238 75696E74 		.ascii	"uint32_t\000"
 1577      33325F74 
 1577      00
 1578              	.LASF44:
 1579 0241 56697274 		.ascii	"VirtualTimer\000"
 1579      75616C54 
 1579      696D6572 
 1579      00
 1580              	.LASF64:
 1581 024e 63686172 		.ascii	"char\000"
 1581      00
 1582              	.LASF72:
 1583 0253 746D7263 		.ascii	"tmrcb\000"
 1583      6200
 1584              	.LASF53:
 1585 0259 6D5F6E65 		.ascii	"m_next\000"
 1585      787400
 1586              	.LASF18:
 1587 0260 73797374 		.ascii	"systime_t\000"
 1587      696D655F 
 1587      7400
 1588              	.LASF36:
 1589 026a 705F7265 		.ascii	"p_realprio\000"
 1589      616C7072 
 1589      696F00
 1590              	.LASF43:
 1591 0275 76746675 		.ascii	"vtfunc_t\000"
 1591      6E635F74 
 1591      00
 1592              	.LASF74:
 1593 027e 65767453 		.ascii	"evtStop\000"
 1593      746F7000 
 1594              	.LASF30:
 1595 0286 705F7469 		.ascii	"p_time\000"
 1595      6D6500
 1596              	.LASF41:
 1597 028d 696E7463 		.ascii	"intctx\000"
ARM GAS  C:\Users\z80\AppData\Local\Temp\cchRnF9j.s 			page 32


 1597      747800
 1598              	.LASF32:
 1599 0294 705F6D73 		.ascii	"p_msgqueue\000"
 1599      67717565 
 1599      756500
 1600              	.LASF49:
 1601 029f 76745F70 		.ascii	"vt_par\000"
 1601      617200
 1602              	.LASF59:
 1603 02a6 65735F6E 		.ascii	"es_next\000"
 1603      65787400 
 1604              	.LASF5:
 1605 02ae 75696E74 		.ascii	"uint8_t\000"
 1605      385F7400 
 1606              	.LASF54:
 1607 02b6 4576656E 		.ascii	"EventListener\000"
 1607      744C6973 
 1607      74656E65 
 1607      7200
 1608              	.LASF69:
 1609 02c4 474E5520 		.ascii	"GNU C 4.5.0\000"
 1609      4320342E 
 1609      352E3000 
 1610              	.LASF62:
 1611 02d0 77746F62 		.ascii	"wtobjp\000"
 1611      6A7000
 1612              	.LASF26:
 1613 02d7 705F6E61 		.ascii	"p_name\000"
 1613      6D6500
 1614              	.LASF65:
 1615 02de 65745F76 		.ascii	"et_vt\000"
 1615      7400
 1616              	.LASF52:
 1617 02e4 6D5F6F77 		.ascii	"m_owner\000"
 1617      6E657200 
 1618              	.LASF23:
 1619 02ec 705F6374 		.ascii	"p_ctx\000"
 1619      7800
 1620              	.LASF31:
 1621 02f2 705F7761 		.ascii	"p_waiting\000"
 1621      6974696E 
 1621      6700
 1622              		.ident	"GCC: (GNU) 4.5.0"
ARM GAS  C:\Users\z80\AppData\Local\Temp\cchRnF9j.s 			page 33


DEFINED SYMBOLS
                            *ABS*:00000000 evtimer.c
C:\Users\z80\AppData\Local\Temp\cchRnF9j.s:24     .text.tmrcb:00000000 $t
C:\Users\z80\AppData\Local\Temp\cchRnF9j.s:29     .text.tmrcb:00000000 tmrcb
C:\Users\z80\AppData\Local\Temp\cchRnF9j.s:70     .text.evtStart:00000000 $t
C:\Users\z80\AppData\Local\Temp\cchRnF9j.s:76     .text.evtStart:00000000 evtStart
C:\Users\z80\AppData\Local\Temp\cchRnF9j.s:131    .text.evtStop:00000000 $t
C:\Users\z80\AppData\Local\Temp\cchRnF9j.s:137    .text.evtStop:00000000 evtStop
                     .debug_frame:00000010 $d

UNDEFINED SYMBOLS
chEvtBroadcastFlagsI
chVTSetI
dbg_check_lock
dbg_check_unlock
chVTResetI
