ARM GAS  C:\Users\z80\AppData\Local\Temp\ccyeTCmp.s 			page 1


   1              		.syntax unified
   2              		.cpu cortex-m3
   3              		.fpu softvfp
   4              		.eabi_attribute 20, 1
   5              		.eabi_attribute 21, 1
   6              		.eabi_attribute 23, 3
   7              		.eabi_attribute 24, 1
   8              		.eabi_attribute 25, 1
   9              		.eabi_attribute 26, 1
  10              		.eabi_attribute 30, 2
  11              		.eabi_attribute 18, 4
  12              		.thumb
  13              		.file	"evtimer.c"
  14              		.section	.debug_abbrev,"",%progbits
  15              	.Ldebug_abbrev0:
  16              		.section	.debug_info,"",%progbits
  17              	.Ldebug_info0:
  18              		.section	.debug_line,"",%progbits
  19              	.Ldebug_line0:
  20 0000 7C010000 		.text
  20      02003501 
  20      00000201 
  20      FB0E0D00 
  20      01010101 
  21              	.Ltext0:
  22              		.cfi_sections	.debug_frame
  23              		.section	.text.tmrcb,"ax",%progbits
  24              		.align	2
  25              		.p2align 4,,15
  26              		.thumb
  27              		.thumb_func
  28              		.type	tmrcb, %function
  29              	tmrcb:
  30              	.LFB7:
  31              		.file 1 "../chibios_2.4.x/os/various/evtimer.c"
  32              		.loc 1 39 0
  33              		.cfi_startproc
  34              		@ args = 0, pretend = 0, frame = 0
  35              		@ frame_needed = 0, uses_anonymous_args = 0
  36              	.LVL0:
  37 0000 10B5     		push	{r4, lr}
  38              	.LCFI0:
  39              		.cfi_def_cfa_offset 8
  40              		.loc 1 42 0
  41 0002 0021     		movs	r1, #0
  42              		.loc 1 39 0
  43 0004 0446     		mov	r4, r0
  44              		.cfi_offset 14, -4
  45              		.cfi_offset 4, -8
  46              	.LVL1:
  47              		.loc 1 42 0
  48 0006 00F11400 		add	r0, r0, #20
  49              	.LVL2:
  50 000a FFF7FEFF 		bl	chEvtBroadcastFlagsI
  51              		.loc 1 43 0
  52 000e 40F20002 		movw	r2, #:lower16:tmrcb
  53 0012 A169     		ldr	r1, [r4, #24]
ARM GAS  C:\Users\z80\AppData\Local\Temp\ccyeTCmp.s 			page 2


  54 0014 C0F20002 		movt	r2, #:upper16:tmrcb
  55 0018 2046     		mov	r0, r4
  56 001a 2346     		mov	r3, r4
  57 001c FFF7FEFF 		bl	chVTSetI
  58              		.loc 1 44 0
  59 0020 10BD     		pop	{r4, pc}
  60              		.cfi_endproc
  61              	.LFE7:
  62              		.size	tmrcb, .-tmrcb
  63 0022 00BFAFF3 		.section	.text.evtStart,"ax",%progbits
  63      0080AFF3 
  63      0080AFF3 
  63      0080
  64              		.align	2
  65              		.p2align 4,,15
  66              		.global	evtStart
  67              		.thumb
  68              		.thumb_func
  69              		.type	evtStart, %function
  70              	evtStart:
  71              	.LFB8:
  72              		.loc 1 52 0
  73              		.cfi_startproc
  74              		@ args = 0, pretend = 0, frame = 0
  75              		@ frame_needed = 0, uses_anonymous_args = 0
  76              	.LVL3:
  77 0000 10B5     		push	{r4, lr}
  78              	.LCFI1:
  79              		.cfi_def_cfa_offset 8
  80              	.LBB2:
  81              		.loc 1 54 0
  82 0002 2023     		movs	r3, #32
  83              	.LVL4:
  84              	.LBE2:
  85              		.loc 1 52 0
  86 0004 0446     		mov	r4, r0
  87              		.cfi_offset 14, -4
  88              		.cfi_offset 4, -8
  89              	.LBB3:
  90              		.loc 1 54 0
  91              	@ 54 "../chibios_2.4.x/os/various/evtimer.c" 1
  92 0006 83F31188 		msr     BASEPRI, r3
  93              	@ 0 "" 2
  94              	.LVL5:
  95              		.thumb
  96              	.LBE3:
  97 000a FFF7FEFF 		bl	dbg_check_lock
  98              	.LVL6:
  99              		.loc 1 56 0
 100 000e E368     		ldr	r3, [r4, #12]
 101 0010 2BB1     		cbz	r3, .L5
 102              	.L3:
 103              		.loc 1 59 0
 104 0012 FFF7FEFF 		bl	dbg_check_unlock
 105              	.LBB4:
 106 0016 0023     		movs	r3, #0
 107              	.LVL7:
ARM GAS  C:\Users\z80\AppData\Local\Temp\ccyeTCmp.s 			page 3


 108              	@ 59 "../chibios_2.4.x/os/various/evtimer.c" 1
 109 0018 83F31188 		msr     BASEPRI, r3
 110              	@ 0 "" 2
 111              	.LVL8:
 112              		.thumb
 113              	.LBE4:
 114              		.loc 1 60 0
 115 001c 10BD     		pop	{r4, pc}
 116              	.LVL9:
 117              	.L5:
 118              		.loc 1 57 0
 119 001e A169     		ldr	r1, [r4, #24]
 120 0020 2046     		mov	r0, r4
 121 0022 024A     		ldr	r2, .L6
 122 0024 2346     		mov	r3, r4
 123 0026 FFF7FEFF 		bl	chVTSetI
 124 002a F2E7     		b	.L3
 125              	.L7:
 126              		.align	2
 127              	.L6:
 128 002c 00000000 		.word	tmrcb
 129              		.cfi_endproc
 130              	.LFE8:
 131              		.size	evtStart, .-evtStart
 132              		.section	.text.evtStop,"ax",%progbits
 133              		.align	2
 134              		.p2align 4,,15
 135              		.global	evtStop
 136              		.thumb
 137              		.thumb_func
 138              		.type	evtStop, %function
 139              	evtStop:
 140              	.LFB9:
 141              		.loc 1 68 0
 142              		.cfi_startproc
 143              		@ args = 0, pretend = 0, frame = 0
 144              		@ frame_needed = 0, uses_anonymous_args = 0
 145              	.LVL10:
 146 0000 10B5     		push	{r4, lr}
 147              	.LCFI2:
 148              		.cfi_def_cfa_offset 8
 149              	.LBB5:
 150              		.loc 1 70 0
 151 0002 2023     		movs	r3, #32
 152              	.LVL11:
 153              	.LBE5:
 154              		.loc 1 68 0
 155 0004 0446     		mov	r4, r0
 156              		.cfi_offset 14, -4
 157              		.cfi_offset 4, -8
 158              	.LBB6:
 159              		.loc 1 70 0
 160              	@ 70 "../chibios_2.4.x/os/various/evtimer.c" 1
 161 0006 83F31188 		msr     BASEPRI, r3
 162              	@ 0 "" 2
 163              	.LVL12:
 164              		.thumb
ARM GAS  C:\Users\z80\AppData\Local\Temp\ccyeTCmp.s 			page 4


 165              	.LBE6:
 166 000a FFF7FEFF 		bl	dbg_check_lock
 167              	.LVL13:
 168              		.loc 1 72 0
 169 000e E368     		ldr	r3, [r4, #12]
 170 0010 13B1     		cbz	r3, .L9
 171              		.loc 1 73 0
 172 0012 2046     		mov	r0, r4
 173 0014 FFF7FEFF 		bl	chVTResetI
 174              	.L9:
 175              		.loc 1 75 0
 176 0018 FFF7FEFF 		bl	dbg_check_unlock
 177              	.LBB7:
 178 001c 0023     		movs	r3, #0
 179              	.LVL14:
 180              	@ 75 "../chibios_2.4.x/os/various/evtimer.c" 1
 181 001e 83F31188 		msr     BASEPRI, r3
 182              	@ 0 "" 2
 183              	.LVL15:
 184              		.thumb
 185              	.LBE7:
 186              		.loc 1 76 0
 187 0022 10BD     		pop	{r4, pc}
 188              		.cfi_endproc
 189              	.LFE9:
 190              		.size	evtStop, .-evtStop
 191 0024 AFF30080 		.text
 191      AFF30080 
 191      AFF30080 
 192              	.Letext0:
 193              		.section	.debug_loc,"",%progbits
 194              	.Ldebug_loc0:
 195              	.LLST0:
 196 0000 00000000 		.4byte	.LFB7
 197 0004 02000000 		.4byte	.LCFI0
 198 0008 0200     		.2byte	0x2
 199 000a 7D       		.byte	0x7d
 200 000b 00       		.sleb128 0
 201 000c 02000000 		.4byte	.LCFI0
 202 0010 22000000 		.4byte	.LFE7
 203 0014 0200     		.2byte	0x2
 204 0016 7D       		.byte	0x7d
 205 0017 08       		.sleb128 8
 206 0018 00000000 		.4byte	0x0
 207 001c 00000000 		.4byte	0x0
 208              	.LLST1:
 209 0020 00000000 		.4byte	.LVL0
 210 0024 0A000000 		.4byte	.LVL2
 211 0028 0100     		.2byte	0x1
 212 002a 50       		.byte	0x50
 213 002b 0A000000 		.4byte	.LVL2
 214 002f 22000000 		.4byte	.LFE7
 215 0033 0100     		.2byte	0x1
 216 0035 54       		.byte	0x54
 217 0036 00000000 		.4byte	0x0
 218 003a 00000000 		.4byte	0x0
 219              	.LLST2:
ARM GAS  C:\Users\z80\AppData\Local\Temp\ccyeTCmp.s 			page 5


 220 003e 06000000 		.4byte	.LVL1
 221 0042 0A000000 		.4byte	.LVL2
 222 0046 0100     		.2byte	0x1
 223 0048 50       		.byte	0x50
 224 0049 0A000000 		.4byte	.LVL2
 225 004d 22000000 		.4byte	.LFE7
 226 0051 0100     		.2byte	0x1
 227 0053 54       		.byte	0x54
 228 0054 00000000 		.4byte	0x0
 229 0058 00000000 		.4byte	0x0
 230              	.LLST3:
 231 005c 00000000 		.4byte	.LFB8
 232 0060 02000000 		.4byte	.LCFI1
 233 0064 0200     		.2byte	0x2
 234 0066 7D       		.byte	0x7d
 235 0067 00       		.sleb128 0
 236 0068 02000000 		.4byte	.LCFI1
 237 006c 30000000 		.4byte	.LFE8
 238 0070 0200     		.2byte	0x2
 239 0072 7D       		.byte	0x7d
 240 0073 08       		.sleb128 8
 241 0074 00000000 		.4byte	0x0
 242 0078 00000000 		.4byte	0x0
 243              	.LLST4:
 244 007c 00000000 		.4byte	.LVL3
 245 0080 0D000000 		.4byte	.LVL6-1
 246 0084 0100     		.2byte	0x1
 247 0086 50       		.byte	0x50
 248 0087 0D000000 		.4byte	.LVL6-1
 249 008b 30000000 		.4byte	.LFE8
 250 008f 0100     		.2byte	0x1
 251 0091 54       		.byte	0x54
 252 0092 00000000 		.4byte	0x0
 253 0096 00000000 		.4byte	0x0
 254              	.LLST5:
 255 009a 0A000000 		.4byte	.LVL5
 256 009e 0D000000 		.4byte	.LVL6-1
 257 00a2 0100     		.2byte	0x1
 258 00a4 53       		.byte	0x53
 259 00a5 00000000 		.4byte	0x0
 260 00a9 00000000 		.4byte	0x0
 261              	.LLST6:
 262 00ad 1C000000 		.4byte	.LVL8
 263 00b1 1E000000 		.4byte	.LVL9
 264 00b5 0100     		.2byte	0x1
 265 00b7 53       		.byte	0x53
 266 00b8 00000000 		.4byte	0x0
 267 00bc 00000000 		.4byte	0x0
 268              	.LLST7:
 269 00c0 00000000 		.4byte	.LFB9
 270 00c4 02000000 		.4byte	.LCFI2
 271 00c8 0200     		.2byte	0x2
 272 00ca 7D       		.byte	0x7d
 273 00cb 00       		.sleb128 0
 274 00cc 02000000 		.4byte	.LCFI2
 275 00d0 24000000 		.4byte	.LFE9
 276 00d4 0200     		.2byte	0x2
ARM GAS  C:\Users\z80\AppData\Local\Temp\ccyeTCmp.s 			page 6


 277 00d6 7D       		.byte	0x7d
 278 00d7 08       		.sleb128 8
 279 00d8 00000000 		.4byte	0x0
 280 00dc 00000000 		.4byte	0x0
 281              	.LLST8:
 282 00e0 00000000 		.4byte	.LVL10
 283 00e4 0D000000 		.4byte	.LVL13-1
 284 00e8 0100     		.2byte	0x1
 285 00ea 50       		.byte	0x50
 286 00eb 0D000000 		.4byte	.LVL13-1
 287 00ef 24000000 		.4byte	.LFE9
 288 00f3 0100     		.2byte	0x1
 289 00f5 54       		.byte	0x54
 290 00f6 00000000 		.4byte	0x0
 291 00fa 00000000 		.4byte	0x0
 292              	.LLST9:
 293 00fe 0A000000 		.4byte	.LVL12
 294 0102 0D000000 		.4byte	.LVL13-1
 295 0106 0100     		.2byte	0x1
 296 0108 53       		.byte	0x53
 297 0109 00000000 		.4byte	0x0
 298 010d 00000000 		.4byte	0x0
 299              	.LLST10:
 300 0111 22000000 		.4byte	.LVL15
 301 0115 24000000 		.4byte	.LFE9
 302 0119 0100     		.2byte	0x1
 303 011b 53       		.byte	0x53
 304 011c 00000000 		.4byte	0x0
 305 0120 00000000 		.4byte	0x0
 306              		.file 2 "c:/programs/yagarto/lib/gcc/../../arm-none-eabi/sys-include/stdint.h"
 307              		.file 3 "../chibios_2.4.x/os/ports/GCC/ARMCMx/chtypes.h"
 308              		.file 4 "../chibios_2.4.x/os/kernel/include/chlists.h"
 309              		.file 5 "../chibios_2.4.x/os/kernel/include/chthreads.h"
 310              		.file 6 "../chibios_2.4.x/os/ports/GCC/ARMCMx/chcore_v7m.h"
 311              		.file 7 "../chibios_2.4.x/os/kernel/include/chvt.h"
 312              		.file 8 "../chibios_2.4.x/os/kernel/include/chmtx.h"
 313              		.file 9 "../chibios_2.4.x/os/kernel/include/chevents.h"
 314              		.file 10 "../chibios_2.4.x/os/various/evtimer.h"
 315              		.section	.debug_info
 316 0000 CB050000 		.4byte	0x5cb
 317 0004 0200     		.2byte	0x2
 318 0006 00000000 		.4byte	.Ldebug_abbrev0
 319 000a 04       		.byte	0x4
 320 000b 01       		.uleb128 0x1
 321 000c C4020000 		.4byte	.LASF69
 322 0010 01       		.byte	0x1
 323 0011 9D010000 		.4byte	.LASF70
 324 0015 72010000 		.4byte	.LASF71
 325 0019 00000000 		.4byte	0x0
 326 001d 00000000 		.4byte	0x0
 327 0021 30000000 		.4byte	.Ldebug_ranges0+0x30
 328 0025 00000000 		.4byte	.Ldebug_line0
 329 0029 02       		.uleb128 0x2
 330 002a 04       		.byte	0x4
 331 002b 05       		.byte	0x5
 332 002c 696E7400 		.ascii	"int\000"
 333 0030 03       		.uleb128 0x3
ARM GAS  C:\Users\z80\AppData\Local\Temp\ccyeTCmp.s 			page 7


 334 0031 04       		.byte	0x4
 335 0032 07       		.byte	0x7
 336 0033 BE000000 		.4byte	.LASF0
 337 0037 03       		.uleb128 0x3
 338 0038 01       		.byte	0x1
 339 0039 06       		.byte	0x6
 340 003a 60000000 		.4byte	.LASF1
 341 003e 04       		.uleb128 0x4
 342 003f AE020000 		.4byte	.LASF5
 343 0043 02       		.byte	0x2
 344 0044 2A       		.byte	0x2a
 345 0045 49000000 		.4byte	0x49
 346 0049 03       		.uleb128 0x3
 347 004a 01       		.byte	0x1
 348 004b 08       		.byte	0x8
 349 004c DA010000 		.4byte	.LASF2
 350 0050 03       		.uleb128 0x3
 351 0051 02       		.byte	0x2
 352 0052 05       		.byte	0x5
 353 0053 FE010000 		.4byte	.LASF3
 354 0057 03       		.uleb128 0x3
 355 0058 02       		.byte	0x2
 356 0059 07       		.byte	0x7
 357 005a ED000000 		.4byte	.LASF4
 358 005e 04       		.uleb128 0x4
 359 005f D2010000 		.4byte	.LASF6
 360 0063 02       		.byte	0x2
 361 0064 4F       		.byte	0x4f
 362 0065 69000000 		.4byte	0x69
 363 0069 03       		.uleb128 0x3
 364 006a 04       		.byte	0x4
 365 006b 05       		.byte	0x5
 366 006c 7C000000 		.4byte	.LASF7
 367 0070 04       		.uleb128 0x4
 368 0071 38020000 		.4byte	.LASF8
 369 0075 02       		.byte	0x2
 370 0076 50       		.byte	0x50
 371 0077 7B000000 		.4byte	0x7b
 372 007b 03       		.uleb128 0x3
 373 007c 04       		.byte	0x4
 374 007d 07       		.byte	0x7
 375 007e D3000000 		.4byte	.LASF9
 376 0082 03       		.uleb128 0x3
 377 0083 08       		.byte	0x8
 378 0084 05       		.byte	0x5
 379 0085 52000000 		.4byte	.LASF10
 380 0089 04       		.uleb128 0x4
 381 008a 19000000 		.4byte	.LASF11
 382 008e 02       		.byte	0x2
 383 008f 78       		.byte	0x78
 384 0090 94000000 		.4byte	0x94
 385 0094 03       		.uleb128 0x3
 386 0095 08       		.byte	0x8
 387 0096 07       		.byte	0x7
 388 0097 22000000 		.4byte	.LASF12
 389 009b 04       		.uleb128 0x4
 390 009c 0E010000 		.4byte	.LASF13
ARM GAS  C:\Users\z80\AppData\Local\Temp\ccyeTCmp.s 			page 8


 391 00a0 03       		.byte	0x3
 392 00a1 2F       		.byte	0x2f
 393 00a2 3E000000 		.4byte	0x3e
 394 00a6 04       		.uleb128 0x4
 395 00a7 85000000 		.4byte	.LASF14
 396 00ab 03       		.byte	0x3
 397 00ac 30       		.byte	0x30
 398 00ad 3E000000 		.4byte	0x3e
 399 00b1 04       		.uleb128 0x4
 400 00b2 CA010000 		.4byte	.LASF15
 401 00b6 03       		.byte	0x3
 402 00b7 32       		.byte	0x32
 403 00b8 70000000 		.4byte	0x70
 404 00bc 04       		.uleb128 0x4
 405 00bd 00010000 		.4byte	.LASF16
 406 00c1 03       		.byte	0x3
 407 00c2 33       		.byte	0x33
 408 00c3 5E000000 		.4byte	0x5e
 409 00c7 04       		.uleb128 0x4
 410 00c8 22010000 		.4byte	.LASF17
 411 00cc 03       		.byte	0x3
 412 00cd 35       		.byte	0x35
 413 00ce 70000000 		.4byte	0x70
 414 00d2 04       		.uleb128 0x4
 415 00d3 60020000 		.4byte	.LASF18
 416 00d7 03       		.byte	0x3
 417 00d8 36       		.byte	0x36
 418 00d9 70000000 		.4byte	0x70
 419 00dd 04       		.uleb128 0x4
 420 00de 26020000 		.4byte	.LASF19
 421 00e2 04       		.byte	0x4
 422 00e3 2A       		.byte	0x2a
 423 00e4 E8000000 		.4byte	0xe8
 424 00e8 05       		.uleb128 0x5
 425 00e9 26020000 		.4byte	.LASF19
 426 00ed 48       		.byte	0x48
 427 00ee 05       		.byte	0x5
 428 00ef 5E       		.byte	0x5e
 429 00f0 F1010000 		.4byte	0x1f1
 430 00f4 06       		.uleb128 0x6
 431 00f5 17020000 		.4byte	.LASF20
 432 00f9 05       		.byte	0x5
 433 00fa 5F       		.byte	0x5f
 434 00fb 16020000 		.4byte	0x216
 435 00ff 02       		.byte	0x2
 436 0100 23       		.byte	0x23
 437 0101 00       		.uleb128 0x0
 438 0102 06       		.uleb128 0x6
 439 0103 C3010000 		.4byte	.LASF21
 440 0107 05       		.byte	0x5
 441 0108 61       		.byte	0x61
 442 0109 16020000 		.4byte	0x216
 443 010d 02       		.byte	0x2
 444 010e 23       		.byte	0x23
 445 010f 04       		.uleb128 0x4
 446 0110 06       		.uleb128 0x6
 447 0111 4B000000 		.4byte	.LASF22
ARM GAS  C:\Users\z80\AppData\Local\Temp\ccyeTCmp.s 			page 9


 448 0115 05       		.byte	0x5
 449 0116 63       		.byte	0x63
 450 0117 B1000000 		.4byte	0xb1
 451 011b 02       		.byte	0x2
 452 011c 23       		.byte	0x23
 453 011d 08       		.uleb128 0x8
 454 011e 06       		.uleb128 0x6
 455 011f EC020000 		.4byte	.LASF23
 456 0123 05       		.byte	0x5
 457 0124 64       		.byte	0x64
 458 0125 EE020000 		.4byte	0x2ee
 459 0129 02       		.byte	0x2
 460 012a 23       		.byte	0x23
 461 012b 0C       		.uleb128 0xc
 462 012c 06       		.uleb128 0x6
 463 012d 8E000000 		.4byte	.LASF24
 464 0131 05       		.byte	0x5
 465 0132 66       		.byte	0x66
 466 0133 16020000 		.4byte	0x216
 467 0137 02       		.byte	0x2
 468 0138 23       		.byte	0x23
 469 0139 10       		.uleb128 0x10
 470 013a 06       		.uleb128 0x6
 471 013b 5D010000 		.4byte	.LASF25
 472 013f 05       		.byte	0x5
 473 0140 67       		.byte	0x67
 474 0141 16020000 		.4byte	0x216
 475 0145 02       		.byte	0x2
 476 0146 23       		.byte	0x23
 477 0147 14       		.uleb128 0x14
 478 0148 06       		.uleb128 0x6
 479 0149 D7020000 		.4byte	.LASF26
 480 014d 05       		.byte	0x5
 481 014e 6E       		.byte	0x6e
 482 014f 85040000 		.4byte	0x485
 483 0153 02       		.byte	0x2
 484 0154 23       		.byte	0x23
 485 0155 18       		.uleb128 0x18
 486 0156 06       		.uleb128 0x6
 487 0157 B3000000 		.4byte	.LASF27
 488 015b 05       		.byte	0x5
 489 015c 74       		.byte	0x74
 490 015d 97040000 		.4byte	0x497
 491 0161 02       		.byte	0x2
 492 0162 23       		.byte	0x23
 493 0163 1C       		.uleb128 0x1c
 494 0164 06       		.uleb128 0x6
 495 0165 08020000 		.4byte	.LASF28
 496 0169 05       		.byte	0x5
 497 016a 79       		.byte	0x79
 498 016b A6000000 		.4byte	0xa6
 499 016f 02       		.byte	0x2
 500 0170 23       		.byte	0x23
 501 0171 20       		.uleb128 0x20
 502 0172 06       		.uleb128 0x6
 503 0173 1E020000 		.4byte	.LASF29
 504 0177 05       		.byte	0x5
ARM GAS  C:\Users\z80\AppData\Local\Temp\ccyeTCmp.s 			page 10


 505 0178 7D       		.byte	0x7d
 506 0179 9B000000 		.4byte	0x9b
 507 017d 02       		.byte	0x2
 508 017e 23       		.byte	0x23
 509 017f 21       		.uleb128 0x21
 510 0180 06       		.uleb128 0x6
 511 0181 86020000 		.4byte	.LASF30
 512 0185 05       		.byte	0x5
 513 0186 89       		.byte	0x89
 514 0187 95030000 		.4byte	0x395
 515 018b 02       		.byte	0x2
 516 018c 23       		.byte	0x23
 517 018d 24       		.uleb128 0x24
 518 018e 07       		.uleb128 0x7
 519 018f 705F7500 		.ascii	"p_u\000"
 520 0193 05       		.byte	0x5
 521 0194 AE       		.byte	0xae
 522 0195 50040000 		.4byte	0x450
 523 0199 02       		.byte	0x2
 524 019a 23       		.byte	0x23
 525 019b 28       		.uleb128 0x28
 526 019c 06       		.uleb128 0x6
 527 019d F2020000 		.4byte	.LASF31
 528 01a1 05       		.byte	0x5
 529 01a2 B3       		.byte	0xb3
 530 01a3 3E020000 		.4byte	0x23e
 531 01a7 02       		.byte	0x2
 532 01a8 23       		.byte	0x23
 533 01a9 2C       		.uleb128 0x2c
 534 01aa 06       		.uleb128 0x6
 535 01ab 94020000 		.4byte	.LASF32
 536 01af 05       		.byte	0x5
 537 01b0 B9       		.byte	0xb9
 538 01b1 1C020000 		.4byte	0x21c
 539 01b5 02       		.byte	0x2
 540 01b6 23       		.byte	0x23
 541 01b7 30       		.uleb128 0x30
 542 01b8 06       		.uleb128 0x6
 543 01b9 0C000000 		.4byte	.LASF33
 544 01bd 05       		.byte	0x5
 545 01be BD       		.byte	0xbd
 546 01bf BC000000 		.4byte	0xbc
 547 01c3 02       		.byte	0x2
 548 01c4 23       		.byte	0x23
 549 01c5 38       		.uleb128 0x38
 550 01c6 06       		.uleb128 0x6
 551 01c7 2D020000 		.4byte	.LASF34
 552 01cb 05       		.byte	0x5
 553 01cc C3       		.byte	0xc3
 554 01cd C7000000 		.4byte	0xc7
 555 01d1 02       		.byte	0x2
 556 01d2 23       		.byte	0x23
 557 01d3 3C       		.uleb128 0x3c
 558 01d4 06       		.uleb128 0x6
 559 01d5 F4010000 		.4byte	.LASF35
 560 01d9 05       		.byte	0x5
 561 01da CA       		.byte	0xca
ARM GAS  C:\Users\z80\AppData\Local\Temp\ccyeTCmp.s 			page 11


 562 01db 9D040000 		.4byte	0x49d
 563 01df 02       		.byte	0x2
 564 01e0 23       		.byte	0x23
 565 01e1 40       		.uleb128 0x40
 566 01e2 06       		.uleb128 0x6
 567 01e3 6A020000 		.4byte	.LASF36
 568 01e7 05       		.byte	0x5
 569 01e8 CE       		.byte	0xce
 570 01e9 B1000000 		.4byte	0xb1
 571 01ed 02       		.byte	0x2
 572 01ee 23       		.byte	0x23
 573 01ef 44       		.uleb128 0x44
 574 01f0 00       		.byte	0x0
 575 01f1 08       		.uleb128 0x8
 576 01f2 08       		.byte	0x8
 577 01f3 04       		.byte	0x4
 578 01f4 61       		.byte	0x61
 579 01f5 16020000 		.4byte	0x216
 580 01f9 06       		.uleb128 0x6
 581 01fa 17020000 		.4byte	.LASF20
 582 01fe 04       		.byte	0x4
 583 01ff 62       		.byte	0x62
 584 0200 16020000 		.4byte	0x216
 585 0204 02       		.byte	0x2
 586 0205 23       		.byte	0x23
 587 0206 00       		.uleb128 0x0
 588 0207 06       		.uleb128 0x6
 589 0208 C3010000 		.4byte	.LASF21
 590 020c 04       		.byte	0x4
 591 020d 64       		.byte	0x64
 592 020e 16020000 		.4byte	0x216
 593 0212 02       		.byte	0x2
 594 0213 23       		.byte	0x23
 595 0214 04       		.uleb128 0x4
 596 0215 00       		.byte	0x0
 597 0216 09       		.uleb128 0x9
 598 0217 04       		.byte	0x4
 599 0218 DD000000 		.4byte	0xdd
 600 021c 04       		.uleb128 0x4
 601 021d 65010000 		.4byte	.LASF37
 602 0221 04       		.byte	0x4
 603 0222 66       		.byte	0x66
 604 0223 F1010000 		.4byte	0x1f1
 605 0227 08       		.uleb128 0x8
 606 0228 04       		.byte	0x4
 607 0229 04       		.byte	0x4
 608 022a 6B       		.byte	0x6b
 609 022b 3E020000 		.4byte	0x23e
 610 022f 06       		.uleb128 0x6
 611 0230 17020000 		.4byte	.LASF20
 612 0234 04       		.byte	0x4
 613 0235 6D       		.byte	0x6d
 614 0236 16020000 		.4byte	0x216
 615 023a 02       		.byte	0x2
 616 023b 23       		.byte	0x23
 617 023c 00       		.uleb128 0x0
 618 023d 00       		.byte	0x0
ARM GAS  C:\Users\z80\AppData\Local\Temp\ccyeTCmp.s 			page 12


 619 023e 04       		.uleb128 0x4
 620 023f 16010000 		.4byte	.LASF38
 621 0243 04       		.byte	0x4
 622 0244 70       		.byte	0x70
 623 0245 27020000 		.4byte	0x227
 624 0249 04       		.uleb128 0x4
 625 024a 96000000 		.4byte	.LASF39
 626 024e 06       		.byte	0x6
 627 024f D7       		.byte	0xd7
 628 0250 54020000 		.4byte	0x254
 629 0254 0A       		.uleb128 0xa
 630 0255 04       		.byte	0x4
 631 0256 04       		.uleb128 0x4
 632 0257 34010000 		.4byte	.LASF40
 633 025b 06       		.byte	0x6
 634 025c DD       		.byte	0xdd
 635 025d 89000000 		.4byte	0x89
 636 0261 05       		.uleb128 0x5
 637 0262 8D020000 		.4byte	.LASF41
 638 0266 24       		.byte	0x24
 639 0267 06       		.byte	0x6
 640 0268 FE       		.byte	0xfe
 641 0269 EE020000 		.4byte	0x2ee
 642 026d 0B       		.uleb128 0xb
 643 026e 723400   		.ascii	"r4\000"
 644 0271 06       		.byte	0x6
 645 0272 1101     		.2byte	0x111
 646 0274 49020000 		.4byte	0x249
 647 0278 02       		.byte	0x2
 648 0279 23       		.byte	0x23
 649 027a 00       		.uleb128 0x0
 650 027b 0B       		.uleb128 0xb
 651 027c 723500   		.ascii	"r5\000"
 652 027f 06       		.byte	0x6
 653 0280 1201     		.2byte	0x112
 654 0282 49020000 		.4byte	0x249
 655 0286 02       		.byte	0x2
 656 0287 23       		.byte	0x23
 657 0288 04       		.uleb128 0x4
 658 0289 0B       		.uleb128 0xb
 659 028a 723600   		.ascii	"r6\000"
 660 028d 06       		.byte	0x6
 661 028e 1301     		.2byte	0x113
 662 0290 49020000 		.4byte	0x249
 663 0294 02       		.byte	0x2
 664 0295 23       		.byte	0x23
 665 0296 08       		.uleb128 0x8
 666 0297 0B       		.uleb128 0xb
 667 0298 723700   		.ascii	"r7\000"
 668 029b 06       		.byte	0x6
 669 029c 1401     		.2byte	0x114
 670 029e 49020000 		.4byte	0x249
 671 02a2 02       		.byte	0x2
 672 02a3 23       		.byte	0x23
 673 02a4 0C       		.uleb128 0xc
 674 02a5 0B       		.uleb128 0xb
 675 02a6 723800   		.ascii	"r8\000"
ARM GAS  C:\Users\z80\AppData\Local\Temp\ccyeTCmp.s 			page 13


 676 02a9 06       		.byte	0x6
 677 02aa 1501     		.2byte	0x115
 678 02ac 49020000 		.4byte	0x249
 679 02b0 02       		.byte	0x2
 680 02b1 23       		.byte	0x23
 681 02b2 10       		.uleb128 0x10
 682 02b3 0B       		.uleb128 0xb
 683 02b4 723900   		.ascii	"r9\000"
 684 02b7 06       		.byte	0x6
 685 02b8 1601     		.2byte	0x116
 686 02ba 49020000 		.4byte	0x249
 687 02be 02       		.byte	0x2
 688 02bf 23       		.byte	0x23
 689 02c0 14       		.uleb128 0x14
 690 02c1 0B       		.uleb128 0xb
 691 02c2 72313000 		.ascii	"r10\000"
 692 02c6 06       		.byte	0x6
 693 02c7 1701     		.2byte	0x117
 694 02c9 49020000 		.4byte	0x249
 695 02cd 02       		.byte	0x2
 696 02ce 23       		.byte	0x23
 697 02cf 18       		.uleb128 0x18
 698 02d0 0B       		.uleb128 0xb
 699 02d1 72313100 		.ascii	"r11\000"
 700 02d5 06       		.byte	0x6
 701 02d6 1801     		.2byte	0x118
 702 02d8 49020000 		.4byte	0x249
 703 02dc 02       		.byte	0x2
 704 02dd 23       		.byte	0x23
 705 02de 1C       		.uleb128 0x1c
 706 02df 0B       		.uleb128 0xb
 707 02e0 6C7200   		.ascii	"lr\000"
 708 02e3 06       		.byte	0x6
 709 02e4 1901     		.2byte	0x119
 710 02e6 49020000 		.4byte	0x249
 711 02ea 02       		.byte	0x2
 712 02eb 23       		.byte	0x23
 713 02ec 20       		.uleb128 0x20
 714 02ed 00       		.byte	0x0
 715 02ee 0C       		.uleb128 0xc
 716 02ef E5000000 		.4byte	.LASF42
 717 02f3 04       		.byte	0x4
 718 02f4 06       		.byte	0x6
 719 02f5 2301     		.2byte	0x123
 720 02f7 0B030000 		.4byte	0x30b
 721 02fb 0B       		.uleb128 0xb
 722 02fc 72313300 		.ascii	"r13\000"
 723 0300 06       		.byte	0x6
 724 0301 2401     		.2byte	0x124
 725 0303 0B030000 		.4byte	0x30b
 726 0307 02       		.byte	0x2
 727 0308 23       		.byte	0x23
 728 0309 00       		.uleb128 0x0
 729 030a 00       		.byte	0x0
 730 030b 09       		.uleb128 0x9
 731 030c 04       		.byte	0x4
 732 030d 61020000 		.4byte	0x261
ARM GAS  C:\Users\z80\AppData\Local\Temp\ccyeTCmp.s 			page 14


 733 0311 0D       		.uleb128 0xd
 734 0312 04       		.byte	0x4
 735 0313 07       		.byte	0x7
 736 0314 04       		.uleb128 0x4
 737 0315 75020000 		.4byte	.LASF43
 738 0319 07       		.byte	0x7
 739 031a 53       		.byte	0x53
 740 031b 1F030000 		.4byte	0x31f
 741 031f 09       		.uleb128 0x9
 742 0320 04       		.byte	0x4
 743 0321 25030000 		.4byte	0x325
 744 0325 0E       		.uleb128 0xe
 745 0326 01       		.byte	0x1
 746 0327 31030000 		.4byte	0x331
 747 032b 0F       		.uleb128 0xf
 748 032c 54020000 		.4byte	0x254
 749 0330 00       		.byte	0x0
 750 0331 04       		.uleb128 0x4
 751 0332 41020000 		.4byte	.LASF44
 752 0336 07       		.byte	0x7
 753 0337 58       		.byte	0x58
 754 0338 3C030000 		.4byte	0x33c
 755 033c 05       		.uleb128 0x5
 756 033d 41020000 		.4byte	.LASF44
 757 0341 14       		.byte	0x14
 758 0342 07       		.byte	0x7
 759 0343 5F       		.byte	0x5f
 760 0344 8F030000 		.4byte	0x38f
 761 0348 06       		.uleb128 0x6
 762 0349 CB000000 		.4byte	.LASF45
 763 034d 07       		.byte	0x7
 764 034e 60       		.byte	0x60
 765 034f 8F030000 		.4byte	0x38f
 766 0353 02       		.byte	0x2
 767 0354 23       		.byte	0x23
 768 0355 00       		.uleb128 0x0
 769 0356 06       		.uleb128 0x6
 770 0357 9F000000 		.4byte	.LASF46
 771 035b 07       		.byte	0x7
 772 035c 62       		.byte	0x62
 773 035d 8F030000 		.4byte	0x38f
 774 0361 02       		.byte	0x2
 775 0362 23       		.byte	0x23
 776 0363 04       		.uleb128 0x4
 777 0364 06       		.uleb128 0x6
 778 0365 3F010000 		.4byte	.LASF47
 779 0369 07       		.byte	0x7
 780 036a 64       		.byte	0x64
 781 036b D2000000 		.4byte	0xd2
 782 036f 02       		.byte	0x2
 783 0370 23       		.byte	0x23
 784 0371 08       		.uleb128 0x8
 785 0372 06       		.uleb128 0x6
 786 0373 4D010000 		.4byte	.LASF48
 787 0377 07       		.byte	0x7
 788 0378 65       		.byte	0x65
 789 0379 14030000 		.4byte	0x314
ARM GAS  C:\Users\z80\AppData\Local\Temp\ccyeTCmp.s 			page 15


 790 037d 02       		.byte	0x2
 791 037e 23       		.byte	0x23
 792 037f 0C       		.uleb128 0xc
 793 0380 06       		.uleb128 0x6
 794 0381 9F020000 		.4byte	.LASF49
 795 0385 07       		.byte	0x7
 796 0386 67       		.byte	0x67
 797 0387 54020000 		.4byte	0x254
 798 038b 02       		.byte	0x2
 799 038c 23       		.byte	0x23
 800 038d 10       		.uleb128 0x10
 801 038e 00       		.byte	0x0
 802 038f 09       		.uleb128 0x9
 803 0390 04       		.byte	0x4
 804 0391 31030000 		.4byte	0x331
 805 0395 10       		.uleb128 0x10
 806 0396 D2000000 		.4byte	0xd2
 807 039a 05       		.uleb128 0x5
 808 039b 2E010000 		.4byte	.LASF50
 809 039f 10       		.byte	0x10
 810 03a0 08       		.byte	0x8
 811 03a1 2C       		.byte	0x2c
 812 03a2 D1030000 		.4byte	0x3d1
 813 03a6 06       		.uleb128 0x6
 814 03a7 74000000 		.4byte	.LASF51
 815 03ab 08       		.byte	0x8
 816 03ac 2D       		.byte	0x2d
 817 03ad 1C020000 		.4byte	0x21c
 818 03b1 02       		.byte	0x2
 819 03b2 23       		.byte	0x23
 820 03b3 00       		.uleb128 0x0
 821 03b4 06       		.uleb128 0x6
 822 03b5 E4020000 		.4byte	.LASF52
 823 03b9 08       		.byte	0x8
 824 03ba 2F       		.byte	0x2f
 825 03bb 16020000 		.4byte	0x216
 826 03bf 02       		.byte	0x2
 827 03c0 23       		.byte	0x23
 828 03c1 08       		.uleb128 0x8
 829 03c2 06       		.uleb128 0x6
 830 03c3 59020000 		.4byte	.LASF53
 831 03c7 08       		.byte	0x8
 832 03c8 31       		.byte	0x31
 833 03c9 D1030000 		.4byte	0x3d1
 834 03cd 02       		.byte	0x2
 835 03ce 23       		.byte	0x23
 836 03cf 0C       		.uleb128 0xc
 837 03d0 00       		.byte	0x0
 838 03d1 09       		.uleb128 0x9
 839 03d2 04       		.byte	0x4
 840 03d3 9A030000 		.4byte	0x39a
 841 03d7 04       		.uleb128 0x4
 842 03d8 2E010000 		.4byte	.LASF50
 843 03dc 08       		.byte	0x8
 844 03dd 33       		.byte	0x33
 845 03de 9A030000 		.4byte	0x39a
 846 03e2 04       		.uleb128 0x4
ARM GAS  C:\Users\z80\AppData\Local\Temp\ccyeTCmp.s 			page 16


 847 03e3 B6020000 		.4byte	.LASF54
 848 03e7 09       		.byte	0x9
 849 03e8 29       		.byte	0x29
 850 03e9 ED030000 		.4byte	0x3ed
 851 03ed 05       		.uleb128 0x5
 852 03ee B6020000 		.4byte	.LASF54
 853 03f2 0C       		.byte	0xc
 854 03f3 09       		.byte	0x9
 855 03f4 2E       		.byte	0x2e
 856 03f5 24040000 		.4byte	0x424
 857 03f9 06       		.uleb128 0x6
 858 03fa 06010000 		.4byte	.LASF55
 859 03fe 09       		.byte	0x9
 860 03ff 2F       		.byte	0x2f
 861 0400 24040000 		.4byte	0x424
 862 0404 02       		.byte	0x2
 863 0405 23       		.byte	0x23
 864 0406 00       		.uleb128 0x0
 865 0407 06       		.uleb128 0x6
 866 0408 E8010000 		.4byte	.LASF56
 867 040c 09       		.byte	0x9
 868 040d 32       		.byte	0x32
 869 040e 16020000 		.4byte	0x216
 870 0412 02       		.byte	0x2
 871 0413 23       		.byte	0x23
 872 0414 04       		.uleb128 0x4
 873 0415 06       		.uleb128 0x6
 874 0416 55010000 		.4byte	.LASF57
 875 041a 09       		.byte	0x9
 876 041b 34       		.byte	0x34
 877 041c C7000000 		.4byte	0xc7
 878 0420 02       		.byte	0x2
 879 0421 23       		.byte	0x23
 880 0422 08       		.uleb128 0x8
 881 0423 00       		.byte	0x0
 882 0424 09       		.uleb128 0x9
 883 0425 04       		.byte	0x4
 884 0426 E2030000 		.4byte	0x3e2
 885 042a 05       		.uleb128 0x5
 886 042b A7000000 		.4byte	.LASF58
 887 042f 04       		.byte	0x4
 888 0430 09       		.byte	0x9
 889 0431 3C       		.byte	0x3c
 890 0432 45040000 		.4byte	0x445
 891 0436 06       		.uleb128 0x6
 892 0437 A6020000 		.4byte	.LASF59
 893 043b 09       		.byte	0x9
 894 043c 3D       		.byte	0x3d
 895 043d 24040000 		.4byte	0x424
 896 0441 02       		.byte	0x2
 897 0442 23       		.byte	0x23
 898 0443 00       		.uleb128 0x0
 899 0444 00       		.byte	0x0
 900 0445 04       		.uleb128 0x4
 901 0446 A7000000 		.4byte	.LASF58
 902 044a 09       		.byte	0x9
 903 044b 40       		.byte	0x40
ARM GAS  C:\Users\z80\AppData\Local\Temp\ccyeTCmp.s 			page 17


 904 044c 2A040000 		.4byte	0x42a
 905 0450 11       		.uleb128 0x11
 906 0451 04       		.byte	0x4
 907 0452 05       		.byte	0x5
 908 0453 90       		.byte	0x90
 909 0454 85040000 		.4byte	0x485
 910 0458 12       		.uleb128 0x12
 911 0459 12000000 		.4byte	.LASF60
 912 045d 05       		.byte	0x5
 913 045e 97       		.byte	0x97
 914 045f BC000000 		.4byte	0xbc
 915 0463 12       		.uleb128 0x12
 916 0464 39000000 		.4byte	.LASF61
 917 0468 05       		.byte	0x5
 918 0469 9E       		.byte	0x9e
 919 046a BC000000 		.4byte	0xbc
 920 046e 12       		.uleb128 0x12
 921 046f D0020000 		.4byte	.LASF62
 922 0473 05       		.byte	0x5
 923 0474 A5       		.byte	0xa5
 924 0475 54020000 		.4byte	0x254
 925 0479 12       		.uleb128 0x12
 926 047a 10020000 		.4byte	.LASF63
 927 047e 05       		.byte	0x5
 928 047f AC       		.byte	0xac
 929 0480 C7000000 		.4byte	0xc7
 930 0484 00       		.byte	0x0
 931 0485 09       		.uleb128 0x9
 932 0486 04       		.byte	0x4
 933 0487 8B040000 		.4byte	0x48b
 934 048b 13       		.uleb128 0x13
 935 048c 90040000 		.4byte	0x490
 936 0490 03       		.uleb128 0x3
 937 0491 01       		.byte	0x1
 938 0492 08       		.byte	0x8
 939 0493 4E020000 		.4byte	.LASF64
 940 0497 09       		.uleb128 0x9
 941 0498 04       		.byte	0x4
 942 0499 56020000 		.4byte	0x256
 943 049d 09       		.uleb128 0x9
 944 049e 04       		.byte	0x4
 945 049f D7030000 		.4byte	0x3d7
 946 04a3 08       		.uleb128 0x8
 947 04a4 1C       		.byte	0x1c
 948 04a5 0A       		.byte	0xa
 949 04a6 2A       		.byte	0x2a
 950 04a7 D6040000 		.4byte	0x4d6
 951 04ab 06       		.uleb128 0x6
 952 04ac DE020000 		.4byte	.LASF65
 953 04b0 0A       		.byte	0xa
 954 04b1 2B       		.byte	0x2b
 955 04b2 31030000 		.4byte	0x331
 956 04b6 02       		.byte	0x2
 957 04b7 23       		.byte	0x23
 958 04b8 00       		.uleb128 0x0
 959 04b9 06       		.uleb128 0x6
 960 04ba 47010000 		.4byte	.LASF66
ARM GAS  C:\Users\z80\AppData\Local\Temp\ccyeTCmp.s 			page 18


 961 04be 0A       		.byte	0xa
 962 04bf 2C       		.byte	0x2c
 963 04c0 45040000 		.4byte	0x445
 964 04c4 02       		.byte	0x2
 965 04c5 23       		.byte	0x23
 966 04c6 14       		.uleb128 0x14
 967 04c7 06       		.uleb128 0x6
 968 04c8 00000000 		.4byte	.LASF67
 969 04cc 0A       		.byte	0xa
 970 04cd 2D       		.byte	0x2d
 971 04ce D2000000 		.4byte	0xd2
 972 04d2 02       		.byte	0x2
 973 04d3 23       		.byte	0x23
 974 04d4 18       		.uleb128 0x18
 975 04d5 00       		.byte	0x0
 976 04d6 04       		.uleb128 0x4
 977 04d7 6C000000 		.4byte	.LASF68
 978 04db 0A       		.byte	0xa
 979 04dc 2E       		.byte	0x2e
 980 04dd A3040000 		.4byte	0x4a3
 981 04e1 14       		.uleb128 0x14
 982 04e2 53020000 		.4byte	.LASF72
 983 04e6 01       		.byte	0x1
 984 04e7 27       		.byte	0x27
 985 04e8 01       		.byte	0x1
 986 04e9 00000000 		.4byte	.LFB7
 987 04ed 22000000 		.4byte	.LFE7
 988 04f1 00000000 		.4byte	.LLST0
 989 04f5 16050000 		.4byte	0x516
 990 04f9 15       		.uleb128 0x15
 991 04fa 7000     		.ascii	"p\000"
 992 04fc 01       		.byte	0x1
 993 04fd 27       		.byte	0x27
 994 04fe 54020000 		.4byte	0x254
 995 0502 20000000 		.4byte	.LLST1
 996 0506 16       		.uleb128 0x16
 997 0507 65747000 		.ascii	"etp\000"
 998 050b 01       		.byte	0x1
 999 050c 28       		.byte	0x28
 1000 050d 16050000 		.4byte	0x516
 1001 0511 3E000000 		.4byte	.LLST2
 1002 0515 00       		.byte	0x0
 1003 0516 09       		.uleb128 0x9
 1004 0517 04       		.byte	0x4
 1005 0518 D6040000 		.4byte	0x4d6
 1006 051c 17       		.uleb128 0x17
 1007 051d 01       		.byte	0x1
 1008 051e 42000000 		.4byte	.LASF73
 1009 0522 01       		.byte	0x1
 1010 0523 34       		.byte	0x34
 1011 0524 01       		.byte	0x1
 1012 0525 00000000 		.4byte	.LFB8
 1013 0529 30000000 		.4byte	.LFE8
 1014 052d 5C000000 		.4byte	.LLST3
 1015 0531 77050000 		.4byte	0x577
 1016 0535 15       		.uleb128 0x15
 1017 0536 65747000 		.ascii	"etp\000"
ARM GAS  C:\Users\z80\AppData\Local\Temp\ccyeTCmp.s 			page 19


 1018 053a 01       		.byte	0x1
 1019 053b 34       		.byte	0x34
 1020 053c 16050000 		.4byte	0x516
 1021 0540 7C000000 		.4byte	.LLST4
 1022 0544 18       		.uleb128 0x18
 1023 0545 00000000 		.4byte	.Ldebug_ranges0+0x0
 1024 0549 5D050000 		.4byte	0x55d
 1025 054d 16       		.uleb128 0x16
 1026 054e 746D7000 		.ascii	"tmp\000"
 1027 0552 01       		.byte	0x1
 1028 0553 36       		.byte	0x36
 1029 0554 70000000 		.4byte	0x70
 1030 0558 9A000000 		.4byte	.LLST5
 1031 055c 00       		.byte	0x0
 1032 055d 19       		.uleb128 0x19
 1033 055e 16000000 		.4byte	.LBB4
 1034 0562 1C000000 		.4byte	.LBE4
 1035 0566 16       		.uleb128 0x16
 1036 0567 746D7000 		.ascii	"tmp\000"
 1037 056b 01       		.byte	0x1
 1038 056c 3B       		.byte	0x3b
 1039 056d 70000000 		.4byte	0x70
 1040 0571 AD000000 		.4byte	.LLST6
 1041 0575 00       		.byte	0x0
 1042 0576 00       		.byte	0x0
 1043 0577 1A       		.uleb128 0x1a
 1044 0578 01       		.byte	0x1
 1045 0579 7E020000 		.4byte	.LASF74
 1046 057d 01       		.byte	0x1
 1047 057e 44       		.byte	0x44
 1048 057f 01       		.byte	0x1
 1049 0580 00000000 		.4byte	.LFB9
 1050 0584 24000000 		.4byte	.LFE9
 1051 0588 C0000000 		.4byte	.LLST7
 1052 058c 15       		.uleb128 0x15
 1053 058d 65747000 		.ascii	"etp\000"
 1054 0591 01       		.byte	0x1
 1055 0592 44       		.byte	0x44
 1056 0593 16050000 		.4byte	0x516
 1057 0597 E0000000 		.4byte	.LLST8
 1058 059b 18       		.uleb128 0x18
 1059 059c 18000000 		.4byte	.Ldebug_ranges0+0x18
 1060 05a0 B4050000 		.4byte	0x5b4
 1061 05a4 16       		.uleb128 0x16
 1062 05a5 746D7000 		.ascii	"tmp\000"
 1063 05a9 01       		.byte	0x1
 1064 05aa 46       		.byte	0x46
 1065 05ab 70000000 		.4byte	0x70
 1066 05af FE000000 		.4byte	.LLST9
 1067 05b3 00       		.byte	0x0
 1068 05b4 19       		.uleb128 0x19
 1069 05b5 1C000000 		.4byte	.LBB7
 1070 05b9 22000000 		.4byte	.LBE7
 1071 05bd 16       		.uleb128 0x16
 1072 05be 746D7000 		.ascii	"tmp\000"
 1073 05c2 01       		.byte	0x1
 1074 05c3 4B       		.byte	0x4b
ARM GAS  C:\Users\z80\AppData\Local\Temp\ccyeTCmp.s 			page 20


 1075 05c4 70000000 		.4byte	0x70
 1076 05c8 11010000 		.4byte	.LLST10
 1077 05cc 00       		.byte	0x0
 1078 05cd 00       		.byte	0x0
 1079 05ce 00       		.byte	0x0
 1080              		.section	.debug_abbrev
 1081 0000 01       		.uleb128 0x1
 1082 0001 11       		.uleb128 0x11
 1083 0002 01       		.byte	0x1
 1084 0003 25       		.uleb128 0x25
 1085 0004 0E       		.uleb128 0xe
 1086 0005 13       		.uleb128 0x13
 1087 0006 0B       		.uleb128 0xb
 1088 0007 03       		.uleb128 0x3
 1089 0008 0E       		.uleb128 0xe
 1090 0009 1B       		.uleb128 0x1b
 1091 000a 0E       		.uleb128 0xe
 1092 000b 11       		.uleb128 0x11
 1093 000c 01       		.uleb128 0x1
 1094 000d 52       		.uleb128 0x52
 1095 000e 01       		.uleb128 0x1
 1096 000f 55       		.uleb128 0x55
 1097 0010 06       		.uleb128 0x6
 1098 0011 10       		.uleb128 0x10
 1099 0012 06       		.uleb128 0x6
 1100 0013 00       		.byte	0x0
 1101 0014 00       		.byte	0x0
 1102 0015 02       		.uleb128 0x2
 1103 0016 24       		.uleb128 0x24
 1104 0017 00       		.byte	0x0
 1105 0018 0B       		.uleb128 0xb
 1106 0019 0B       		.uleb128 0xb
 1107 001a 3E       		.uleb128 0x3e
 1108 001b 0B       		.uleb128 0xb
 1109 001c 03       		.uleb128 0x3
 1110 001d 08       		.uleb128 0x8
 1111 001e 00       		.byte	0x0
 1112 001f 00       		.byte	0x0
 1113 0020 03       		.uleb128 0x3
 1114 0021 24       		.uleb128 0x24
 1115 0022 00       		.byte	0x0
 1116 0023 0B       		.uleb128 0xb
 1117 0024 0B       		.uleb128 0xb
 1118 0025 3E       		.uleb128 0x3e
 1119 0026 0B       		.uleb128 0xb
 1120 0027 03       		.uleb128 0x3
 1121 0028 0E       		.uleb128 0xe
 1122 0029 00       		.byte	0x0
 1123 002a 00       		.byte	0x0
 1124 002b 04       		.uleb128 0x4
 1125 002c 16       		.uleb128 0x16
 1126 002d 00       		.byte	0x0
 1127 002e 03       		.uleb128 0x3
 1128 002f 0E       		.uleb128 0xe
 1129 0030 3A       		.uleb128 0x3a
 1130 0031 0B       		.uleb128 0xb
 1131 0032 3B       		.uleb128 0x3b
ARM GAS  C:\Users\z80\AppData\Local\Temp\ccyeTCmp.s 			page 21


 1132 0033 0B       		.uleb128 0xb
 1133 0034 49       		.uleb128 0x49
 1134 0035 13       		.uleb128 0x13
 1135 0036 00       		.byte	0x0
 1136 0037 00       		.byte	0x0
 1137 0038 05       		.uleb128 0x5
 1138 0039 13       		.uleb128 0x13
 1139 003a 01       		.byte	0x1
 1140 003b 03       		.uleb128 0x3
 1141 003c 0E       		.uleb128 0xe
 1142 003d 0B       		.uleb128 0xb
 1143 003e 0B       		.uleb128 0xb
 1144 003f 3A       		.uleb128 0x3a
 1145 0040 0B       		.uleb128 0xb
 1146 0041 3B       		.uleb128 0x3b
 1147 0042 0B       		.uleb128 0xb
 1148 0043 01       		.uleb128 0x1
 1149 0044 13       		.uleb128 0x13
 1150 0045 00       		.byte	0x0
 1151 0046 00       		.byte	0x0
 1152 0047 06       		.uleb128 0x6
 1153 0048 0D       		.uleb128 0xd
 1154 0049 00       		.byte	0x0
 1155 004a 03       		.uleb128 0x3
 1156 004b 0E       		.uleb128 0xe
 1157 004c 3A       		.uleb128 0x3a
 1158 004d 0B       		.uleb128 0xb
 1159 004e 3B       		.uleb128 0x3b
 1160 004f 0B       		.uleb128 0xb
 1161 0050 49       		.uleb128 0x49
 1162 0051 13       		.uleb128 0x13
 1163 0052 38       		.uleb128 0x38
 1164 0053 0A       		.uleb128 0xa
 1165 0054 00       		.byte	0x0
 1166 0055 00       		.byte	0x0
 1167 0056 07       		.uleb128 0x7
 1168 0057 0D       		.uleb128 0xd
 1169 0058 00       		.byte	0x0
 1170 0059 03       		.uleb128 0x3
 1171 005a 08       		.uleb128 0x8
 1172 005b 3A       		.uleb128 0x3a
 1173 005c 0B       		.uleb128 0xb
 1174 005d 3B       		.uleb128 0x3b
 1175 005e 0B       		.uleb128 0xb
 1176 005f 49       		.uleb128 0x49
 1177 0060 13       		.uleb128 0x13
 1178 0061 38       		.uleb128 0x38
 1179 0062 0A       		.uleb128 0xa
 1180 0063 00       		.byte	0x0
 1181 0064 00       		.byte	0x0
 1182 0065 08       		.uleb128 0x8
 1183 0066 13       		.uleb128 0x13
 1184 0067 01       		.byte	0x1
 1185 0068 0B       		.uleb128 0xb
 1186 0069 0B       		.uleb128 0xb
 1187 006a 3A       		.uleb128 0x3a
 1188 006b 0B       		.uleb128 0xb
ARM GAS  C:\Users\z80\AppData\Local\Temp\ccyeTCmp.s 			page 22


 1189 006c 3B       		.uleb128 0x3b
 1190 006d 0B       		.uleb128 0xb
 1191 006e 01       		.uleb128 0x1
 1192 006f 13       		.uleb128 0x13
 1193 0070 00       		.byte	0x0
 1194 0071 00       		.byte	0x0
 1195 0072 09       		.uleb128 0x9
 1196 0073 0F       		.uleb128 0xf
 1197 0074 00       		.byte	0x0
 1198 0075 0B       		.uleb128 0xb
 1199 0076 0B       		.uleb128 0xb
 1200 0077 49       		.uleb128 0x49
 1201 0078 13       		.uleb128 0x13
 1202 0079 00       		.byte	0x0
 1203 007a 00       		.byte	0x0
 1204 007b 0A       		.uleb128 0xa
 1205 007c 0F       		.uleb128 0xf
 1206 007d 00       		.byte	0x0
 1207 007e 0B       		.uleb128 0xb
 1208 007f 0B       		.uleb128 0xb
 1209 0080 00       		.byte	0x0
 1210 0081 00       		.byte	0x0
 1211 0082 0B       		.uleb128 0xb
 1212 0083 0D       		.uleb128 0xd
 1213 0084 00       		.byte	0x0
 1214 0085 03       		.uleb128 0x3
 1215 0086 08       		.uleb128 0x8
 1216 0087 3A       		.uleb128 0x3a
 1217 0088 0B       		.uleb128 0xb
 1218 0089 3B       		.uleb128 0x3b
 1219 008a 05       		.uleb128 0x5
 1220 008b 49       		.uleb128 0x49
 1221 008c 13       		.uleb128 0x13
 1222 008d 38       		.uleb128 0x38
 1223 008e 0A       		.uleb128 0xa
 1224 008f 00       		.byte	0x0
 1225 0090 00       		.byte	0x0
 1226 0091 0C       		.uleb128 0xc
 1227 0092 13       		.uleb128 0x13
 1228 0093 01       		.byte	0x1
 1229 0094 03       		.uleb128 0x3
 1230 0095 0E       		.uleb128 0xe
 1231 0096 0B       		.uleb128 0xb
 1232 0097 0B       		.uleb128 0xb
 1233 0098 3A       		.uleb128 0x3a
 1234 0099 0B       		.uleb128 0xb
 1235 009a 3B       		.uleb128 0x3b
 1236 009b 05       		.uleb128 0x5
 1237 009c 01       		.uleb128 0x1
 1238 009d 13       		.uleb128 0x13
 1239 009e 00       		.byte	0x0
 1240 009f 00       		.byte	0x0
 1241 00a0 0D       		.uleb128 0xd
 1242 00a1 24       		.uleb128 0x24
 1243 00a2 00       		.byte	0x0
 1244 00a3 0B       		.uleb128 0xb
 1245 00a4 0B       		.uleb128 0xb
ARM GAS  C:\Users\z80\AppData\Local\Temp\ccyeTCmp.s 			page 23


 1246 00a5 3E       		.uleb128 0x3e
 1247 00a6 0B       		.uleb128 0xb
 1248 00a7 00       		.byte	0x0
 1249 00a8 00       		.byte	0x0
 1250 00a9 0E       		.uleb128 0xe
 1251 00aa 15       		.uleb128 0x15
 1252 00ab 01       		.byte	0x1
 1253 00ac 27       		.uleb128 0x27
 1254 00ad 0C       		.uleb128 0xc
 1255 00ae 01       		.uleb128 0x1
 1256 00af 13       		.uleb128 0x13
 1257 00b0 00       		.byte	0x0
 1258 00b1 00       		.byte	0x0
 1259 00b2 0F       		.uleb128 0xf
 1260 00b3 05       		.uleb128 0x5
 1261 00b4 00       		.byte	0x0
 1262 00b5 49       		.uleb128 0x49
 1263 00b6 13       		.uleb128 0x13
 1264 00b7 00       		.byte	0x0
 1265 00b8 00       		.byte	0x0
 1266 00b9 10       		.uleb128 0x10
 1267 00ba 35       		.uleb128 0x35
 1268 00bb 00       		.byte	0x0
 1269 00bc 49       		.uleb128 0x49
 1270 00bd 13       		.uleb128 0x13
 1271 00be 00       		.byte	0x0
 1272 00bf 00       		.byte	0x0
 1273 00c0 11       		.uleb128 0x11
 1274 00c1 17       		.uleb128 0x17
 1275 00c2 01       		.byte	0x1
 1276 00c3 0B       		.uleb128 0xb
 1277 00c4 0B       		.uleb128 0xb
 1278 00c5 3A       		.uleb128 0x3a
 1279 00c6 0B       		.uleb128 0xb
 1280 00c7 3B       		.uleb128 0x3b
 1281 00c8 0B       		.uleb128 0xb
 1282 00c9 01       		.uleb128 0x1
 1283 00ca 13       		.uleb128 0x13
 1284 00cb 00       		.byte	0x0
 1285 00cc 00       		.byte	0x0
 1286 00cd 12       		.uleb128 0x12
 1287 00ce 0D       		.uleb128 0xd
 1288 00cf 00       		.byte	0x0
 1289 00d0 03       		.uleb128 0x3
 1290 00d1 0E       		.uleb128 0xe
 1291 00d2 3A       		.uleb128 0x3a
 1292 00d3 0B       		.uleb128 0xb
 1293 00d4 3B       		.uleb128 0x3b
 1294 00d5 0B       		.uleb128 0xb
 1295 00d6 49       		.uleb128 0x49
 1296 00d7 13       		.uleb128 0x13
 1297 00d8 00       		.byte	0x0
 1298 00d9 00       		.byte	0x0
 1299 00da 13       		.uleb128 0x13
 1300 00db 26       		.uleb128 0x26
 1301 00dc 00       		.byte	0x0
 1302 00dd 49       		.uleb128 0x49
ARM GAS  C:\Users\z80\AppData\Local\Temp\ccyeTCmp.s 			page 24


 1303 00de 13       		.uleb128 0x13
 1304 00df 00       		.byte	0x0
 1305 00e0 00       		.byte	0x0
 1306 00e1 14       		.uleb128 0x14
 1307 00e2 2E       		.uleb128 0x2e
 1308 00e3 01       		.byte	0x1
 1309 00e4 03       		.uleb128 0x3
 1310 00e5 0E       		.uleb128 0xe
 1311 00e6 3A       		.uleb128 0x3a
 1312 00e7 0B       		.uleb128 0xb
 1313 00e8 3B       		.uleb128 0x3b
 1314 00e9 0B       		.uleb128 0xb
 1315 00ea 27       		.uleb128 0x27
 1316 00eb 0C       		.uleb128 0xc
 1317 00ec 11       		.uleb128 0x11
 1318 00ed 01       		.uleb128 0x1
 1319 00ee 12       		.uleb128 0x12
 1320 00ef 01       		.uleb128 0x1
 1321 00f0 40       		.uleb128 0x40
 1322 00f1 06       		.uleb128 0x6
 1323 00f2 01       		.uleb128 0x1
 1324 00f3 13       		.uleb128 0x13
 1325 00f4 00       		.byte	0x0
 1326 00f5 00       		.byte	0x0
 1327 00f6 15       		.uleb128 0x15
 1328 00f7 05       		.uleb128 0x5
 1329 00f8 00       		.byte	0x0
 1330 00f9 03       		.uleb128 0x3
 1331 00fa 08       		.uleb128 0x8
 1332 00fb 3A       		.uleb128 0x3a
 1333 00fc 0B       		.uleb128 0xb
 1334 00fd 3B       		.uleb128 0x3b
 1335 00fe 0B       		.uleb128 0xb
 1336 00ff 49       		.uleb128 0x49
 1337 0100 13       		.uleb128 0x13
 1338 0101 02       		.uleb128 0x2
 1339 0102 06       		.uleb128 0x6
 1340 0103 00       		.byte	0x0
 1341 0104 00       		.byte	0x0
 1342 0105 16       		.uleb128 0x16
 1343 0106 34       		.uleb128 0x34
 1344 0107 00       		.byte	0x0
 1345 0108 03       		.uleb128 0x3
 1346 0109 08       		.uleb128 0x8
 1347 010a 3A       		.uleb128 0x3a
 1348 010b 0B       		.uleb128 0xb
 1349 010c 3B       		.uleb128 0x3b
 1350 010d 0B       		.uleb128 0xb
 1351 010e 49       		.uleb128 0x49
 1352 010f 13       		.uleb128 0x13
 1353 0110 02       		.uleb128 0x2
 1354 0111 06       		.uleb128 0x6
 1355 0112 00       		.byte	0x0
 1356 0113 00       		.byte	0x0
 1357 0114 17       		.uleb128 0x17
 1358 0115 2E       		.uleb128 0x2e
 1359 0116 01       		.byte	0x1
ARM GAS  C:\Users\z80\AppData\Local\Temp\ccyeTCmp.s 			page 25


 1360 0117 3F       		.uleb128 0x3f
 1361 0118 0C       		.uleb128 0xc
 1362 0119 03       		.uleb128 0x3
 1363 011a 0E       		.uleb128 0xe
 1364 011b 3A       		.uleb128 0x3a
 1365 011c 0B       		.uleb128 0xb
 1366 011d 3B       		.uleb128 0x3b
 1367 011e 0B       		.uleb128 0xb
 1368 011f 27       		.uleb128 0x27
 1369 0120 0C       		.uleb128 0xc
 1370 0121 11       		.uleb128 0x11
 1371 0122 01       		.uleb128 0x1
 1372 0123 12       		.uleb128 0x12
 1373 0124 01       		.uleb128 0x1
 1374 0125 40       		.uleb128 0x40
 1375 0126 06       		.uleb128 0x6
 1376 0127 01       		.uleb128 0x1
 1377 0128 13       		.uleb128 0x13
 1378 0129 00       		.byte	0x0
 1379 012a 00       		.byte	0x0
 1380 012b 18       		.uleb128 0x18
 1381 012c 0B       		.uleb128 0xb
 1382 012d 01       		.byte	0x1
 1383 012e 55       		.uleb128 0x55
 1384 012f 06       		.uleb128 0x6
 1385 0130 01       		.uleb128 0x1
 1386 0131 13       		.uleb128 0x13
 1387 0132 00       		.byte	0x0
 1388 0133 00       		.byte	0x0
 1389 0134 19       		.uleb128 0x19
 1390 0135 0B       		.uleb128 0xb
 1391 0136 01       		.byte	0x1
 1392 0137 11       		.uleb128 0x11
 1393 0138 01       		.uleb128 0x1
 1394 0139 12       		.uleb128 0x12
 1395 013a 01       		.uleb128 0x1
 1396 013b 00       		.byte	0x0
 1397 013c 00       		.byte	0x0
 1398 013d 1A       		.uleb128 0x1a
 1399 013e 2E       		.uleb128 0x2e
 1400 013f 01       		.byte	0x1
 1401 0140 3F       		.uleb128 0x3f
 1402 0141 0C       		.uleb128 0xc
 1403 0142 03       		.uleb128 0x3
 1404 0143 0E       		.uleb128 0xe
 1405 0144 3A       		.uleb128 0x3a
 1406 0145 0B       		.uleb128 0xb
 1407 0146 3B       		.uleb128 0x3b
 1408 0147 0B       		.uleb128 0xb
 1409 0148 27       		.uleb128 0x27
 1410 0149 0C       		.uleb128 0xc
 1411 014a 11       		.uleb128 0x11
 1412 014b 01       		.uleb128 0x1
 1413 014c 12       		.uleb128 0x12
 1414 014d 01       		.uleb128 0x1
 1415 014e 40       		.uleb128 0x40
 1416 014f 06       		.uleb128 0x6
ARM GAS  C:\Users\z80\AppData\Local\Temp\ccyeTCmp.s 			page 26


 1417 0150 00       		.byte	0x0
 1418 0151 00       		.byte	0x0
 1419 0152 00       		.byte	0x0
 1420              		.section	.debug_pubnames,"",%progbits
 1421 0000 27000000 		.4byte	0x27
 1422 0004 0200     		.2byte	0x2
 1423 0006 00000000 		.4byte	.Ldebug_info0
 1424 000a CF050000 		.4byte	0x5cf
 1425 000e 1C050000 		.4byte	0x51c
 1426 0012 65767453 		.ascii	"evtStart\000"
 1426      74617274 
 1426      00
 1427 001b 77050000 		.4byte	0x577
 1428 001f 65767453 		.ascii	"evtStop\000"
 1428      746F7000 
 1429 0027 00000000 		.4byte	0x0
 1430              		.section	.debug_pubtypes,"",%progbits
 1431 0000 8A010000 		.4byte	0x18a
 1432 0004 0200     		.2byte	0x2
 1433 0006 00000000 		.4byte	.Ldebug_info0
 1434 000a CF050000 		.4byte	0x5cf
 1435 000e 3E000000 		.4byte	0x3e
 1436 0012 75696E74 		.ascii	"uint8_t\000"
 1436      385F7400 
 1437 001a 5E000000 		.4byte	0x5e
 1438 001e 696E7433 		.ascii	"int32_t\000"
 1438      325F7400 
 1439 0026 70000000 		.4byte	0x70
 1440 002a 75696E74 		.ascii	"uint32_t\000"
 1440      33325F74 
 1440      00
 1441 0033 89000000 		.4byte	0x89
 1442 0037 75696E74 		.ascii	"uint64_t\000"
 1442      36345F74 
 1442      00
 1443 0040 9B000000 		.4byte	0x9b
 1444 0044 746D6F64 		.ascii	"tmode_t\000"
 1444      655F7400 
 1445 004c A6000000 		.4byte	0xa6
 1446 0050 74737461 		.ascii	"tstate_t\000"
 1446      74655F74 
 1446      00
 1447 0059 B1000000 		.4byte	0xb1
 1448 005d 74707269 		.ascii	"tprio_t\000"
 1448      6F5F7400 
 1449 0065 BC000000 		.4byte	0xbc
 1450 0069 6D73675F 		.ascii	"msg_t\000"
 1450      7400
 1451 006f C7000000 		.4byte	0xc7
 1452 0073 6576656E 		.ascii	"eventmask_t\000"
 1452      746D6173 
 1452      6B5F7400 
 1453 007f D2000000 		.4byte	0xd2
 1454 0083 73797374 		.ascii	"systime_t\000"
 1454      696D655F 
 1454      7400
 1455 008d DD000000 		.4byte	0xdd
ARM GAS  C:\Users\z80\AppData\Local\Temp\ccyeTCmp.s 			page 27


 1456 0091 54687265 		.ascii	"Thread\000"
 1456      616400
 1457 0098 1C020000 		.4byte	0x21c
 1458 009c 54687265 		.ascii	"ThreadsQueue\000"
 1458      61647351 
 1458      75657565 
 1458      00
 1459 00a9 3E020000 		.4byte	0x23e
 1460 00ad 54687265 		.ascii	"ThreadsList\000"
 1460      6164734C 
 1460      69737400 
 1461 00b9 49020000 		.4byte	0x249
 1462 00bd 72656761 		.ascii	"regarm_t\000"
 1462      726D5F74 
 1462      00
 1463 00c6 56020000 		.4byte	0x256
 1464 00ca 73746B61 		.ascii	"stkalign_t\000"
 1464      6C69676E 
 1464      5F7400
 1465 00d5 61020000 		.4byte	0x261
 1466 00d9 696E7463 		.ascii	"intctx\000"
 1466      747800
 1467 00e0 EE020000 		.4byte	0x2ee
 1468 00e4 636F6E74 		.ascii	"context\000"
 1468      65787400 
 1469 00ec 14030000 		.4byte	0x314
 1470 00f0 76746675 		.ascii	"vtfunc_t\000"
 1470      6E635F74 
 1470      00
 1471 00f9 31030000 		.4byte	0x331
 1472 00fd 56697274 		.ascii	"VirtualTimer\000"
 1472      75616C54 
 1472      696D6572 
 1472      00
 1473 010a 3C030000 		.4byte	0x33c
 1474 010e 56697274 		.ascii	"VirtualTimer\000"
 1474      75616C54 
 1474      696D6572 
 1474      00
 1475 011b 9A030000 		.4byte	0x39a
 1476 011f 4D757465 		.ascii	"Mutex\000"
 1476      7800
 1477 0125 D7030000 		.4byte	0x3d7
 1478 0129 4D757465 		.ascii	"Mutex\000"
 1478      7800
 1479 012f E2030000 		.4byte	0x3e2
 1480 0133 4576656E 		.ascii	"EventListener\000"
 1480      744C6973 
 1480      74656E65 
 1480      7200
 1481 0141 ED030000 		.4byte	0x3ed
 1482 0145 4576656E 		.ascii	"EventListener\000"
 1482      744C6973 
 1482      74656E65 
 1482      7200
 1483 0153 2A040000 		.4byte	0x42a
 1484 0157 4576656E 		.ascii	"EventSource\000"
ARM GAS  C:\Users\z80\AppData\Local\Temp\ccyeTCmp.s 			page 28


 1484      74536F75 
 1484      72636500 
 1485 0163 45040000 		.4byte	0x445
 1486 0167 4576656E 		.ascii	"EventSource\000"
 1486      74536F75 
 1486      72636500 
 1487 0173 E8000000 		.4byte	0xe8
 1488 0177 54687265 		.ascii	"Thread\000"
 1488      616400
 1489 017e D6040000 		.4byte	0x4d6
 1490 0182 45765469 		.ascii	"EvTimer\000"
 1490      6D657200 
 1491 018a 00000000 		.4byte	0x0
 1492              		.section	.debug_aranges,"",%progbits
 1493 0000 2C000000 		.4byte	0x2c
 1494 0004 0200     		.2byte	0x2
 1495 0006 00000000 		.4byte	.Ldebug_info0
 1496 000a 04       		.byte	0x4
 1497 000b 00       		.byte	0x0
 1498 000c 0000     		.2byte	0x0
 1499 000e 0000     		.2byte	0x0
 1500 0010 00000000 		.4byte	.LFB7
 1501 0014 22000000 		.4byte	.LFE7-.LFB7
 1502 0018 00000000 		.4byte	.LFB8
 1503 001c 30000000 		.4byte	.LFE8-.LFB8
 1504 0020 00000000 		.4byte	.LFB9
 1505 0024 24000000 		.4byte	.LFE9-.LFB9
 1506 0028 00000000 		.4byte	0x0
 1507 002c 00000000 		.4byte	0x0
 1508              		.section	.debug_ranges,"",%progbits
 1509              	.Ldebug_ranges0:
 1510 0000 02000000 		.4byte	.LBB2
 1511 0004 04000000 		.4byte	.LBE2
 1512 0008 06000000 		.4byte	.LBB3
 1513 000c 0A000000 		.4byte	.LBE3
 1514 0010 00000000 		.4byte	0x0
 1515 0014 00000000 		.4byte	0x0
 1516 0018 02000000 		.4byte	.LBB5
 1517 001c 04000000 		.4byte	.LBE5
 1518 0020 06000000 		.4byte	.LBB6
 1519 0024 0A000000 		.4byte	.LBE6
 1520 0028 00000000 		.4byte	0x0
 1521 002c 00000000 		.4byte	0x0
 1522 0030 00000000 		.4byte	.LFB7
 1523 0034 22000000 		.4byte	.LFE7
 1524 0038 00000000 		.4byte	.LFB8
 1525 003c 30000000 		.4byte	.LFE8
 1526 0040 00000000 		.4byte	.LFB9
 1527 0044 24000000 		.4byte	.LFE9
 1528 0048 00000000 		.4byte	0x0
 1529 004c 00000000 		.4byte	0x0
 1530              		.section	.debug_str,"MS",%progbits,1
 1531              	.LASF67:
 1532 0000 65745F69 		.ascii	"et_interval\000"
 1532      6E746572 
 1532      76616C00 
 1533              	.LASF33:
ARM GAS  C:\Users\z80\AppData\Local\Temp\ccyeTCmp.s 			page 29


 1534 000c 705F6D73 		.ascii	"p_msg\000"
 1534      6700
 1535              	.LASF60:
 1536 0012 7264796D 		.ascii	"rdymsg\000"
 1536      736700
 1537              	.LASF11:
 1538 0019 75696E74 		.ascii	"uint64_t\000"
 1538      36345F74 
 1538      00
 1539              	.LASF12:
 1540 0022 6C6F6E67 		.ascii	"long long unsigned int\000"
 1540      206C6F6E 
 1540      6720756E 
 1540      7369676E 
 1540      65642069 
 1541              	.LASF61:
 1542 0039 65786974 		.ascii	"exitcode\000"
 1542      636F6465 
 1542      00
 1543              	.LASF73:
 1544 0042 65767453 		.ascii	"evtStart\000"
 1544      74617274 
 1544      00
 1545              	.LASF22:
 1546 004b 705F7072 		.ascii	"p_prio\000"
 1546      696F00
 1547              	.LASF10:
 1548 0052 6C6F6E67 		.ascii	"long long int\000"
 1548      206C6F6E 
 1548      6720696E 
 1548      7400
 1549              	.LASF1:
 1550 0060 7369676E 		.ascii	"signed char\000"
 1550      65642063 
 1550      68617200 
 1551              	.LASF68:
 1552 006c 45765469 		.ascii	"EvTimer\000"
 1552      6D657200 
 1553              	.LASF51:
 1554 0074 6D5F7175 		.ascii	"m_queue\000"
 1554      65756500 
 1555              	.LASF7:
 1556 007c 6C6F6E67 		.ascii	"long int\000"
 1556      20696E74 
 1556      00
 1557              	.LASF14:
 1558 0085 74737461 		.ascii	"tstate_t\000"
 1558      74655F74 
 1558      00
 1559              	.LASF24:
 1560 008e 705F6E65 		.ascii	"p_newer\000"
 1560      77657200 
 1561              	.LASF39:
 1562 0096 72656761 		.ascii	"regarm_t\000"
 1562      726D5F74 
 1562      00
 1563              	.LASF46:
ARM GAS  C:\Users\z80\AppData\Local\Temp\ccyeTCmp.s 			page 30


 1564 009f 76745F70 		.ascii	"vt_prev\000"
 1564      72657600 
 1565              	.LASF58:
 1566 00a7 4576656E 		.ascii	"EventSource\000"
 1566      74536F75 
 1566      72636500 
 1567              	.LASF27:
 1568 00b3 705F7374 		.ascii	"p_stklimit\000"
 1568      6B6C696D 
 1568      697400
 1569              	.LASF0:
 1570 00be 756E7369 		.ascii	"unsigned int\000"
 1570      676E6564 
 1570      20696E74 
 1570      00
 1571              	.LASF45:
 1572 00cb 76745F6E 		.ascii	"vt_next\000"
 1572      65787400 
 1573              	.LASF9:
 1574 00d3 6C6F6E67 		.ascii	"long unsigned int\000"
 1574      20756E73 
 1574      69676E65 
 1574      6420696E 
 1574      7400
 1575              	.LASF42:
 1576 00e5 636F6E74 		.ascii	"context\000"
 1576      65787400 
 1577              	.LASF4:
 1578 00ed 73686F72 		.ascii	"short unsigned int\000"
 1578      7420756E 
 1578      7369676E 
 1578      65642069 
 1578      6E7400
 1579              	.LASF16:
 1580 0100 6D73675F 		.ascii	"msg_t\000"
 1580      7400
 1581              	.LASF55:
 1582 0106 656C5F6E 		.ascii	"el_next\000"
 1582      65787400 
 1583              	.LASF13:
 1584 010e 746D6F64 		.ascii	"tmode_t\000"
 1584      655F7400 
 1585              	.LASF38:
 1586 0116 54687265 		.ascii	"ThreadsList\000"
 1586      6164734C 
 1586      69737400 
 1587              	.LASF17:
 1588 0122 6576656E 		.ascii	"eventmask_t\000"
 1588      746D6173 
 1588      6B5F7400 
 1589              	.LASF50:
 1590 012e 4D757465 		.ascii	"Mutex\000"
 1590      7800
 1591              	.LASF40:
 1592 0134 73746B61 		.ascii	"stkalign_t\000"
 1592      6C69676E 
 1592      5F7400
ARM GAS  C:\Users\z80\AppData\Local\Temp\ccyeTCmp.s 			page 31


 1593              	.LASF47:
 1594 013f 76745F74 		.ascii	"vt_time\000"
 1594      696D6500 
 1595              	.LASF66:
 1596 0147 65745F65 		.ascii	"et_es\000"
 1596      7300
 1597              	.LASF48:
 1598 014d 76745F66 		.ascii	"vt_func\000"
 1598      756E6300 
 1599              	.LASF57:
 1600 0155 656C5F6D 		.ascii	"el_mask\000"
 1600      61736B00 
 1601              	.LASF25:
 1602 015d 705F6F6C 		.ascii	"p_older\000"
 1602      64657200 
 1603              	.LASF37:
 1604 0165 54687265 		.ascii	"ThreadsQueue\000"
 1604      61647351 
 1604      75657565 
 1604      00
 1605              	.LASF71:
 1606 0172 433A5C70 		.ascii	"C:\\projects\\voltamper.git\\firmware\\voltamp\000"
 1606      726F6A65 
 1606      6374735C 
 1606      766F6C74 
 1606      616D7065 
 1607              	.LASF70:
 1608 019d 2E2E2F63 		.ascii	"../chibios_2.4.x/os/various/evtimer.c\000"
 1608      68696269 
 1608      6F735F32 
 1608      2E342E78 
 1608      2F6F732F 
 1609              	.LASF21:
 1610 01c3 705F7072 		.ascii	"p_prev\000"
 1610      657600
 1611              	.LASF15:
 1612 01ca 74707269 		.ascii	"tprio_t\000"
 1612      6F5F7400 
 1613              	.LASF6:
 1614 01d2 696E7433 		.ascii	"int32_t\000"
 1614      325F7400 
 1615              	.LASF2:
 1616 01da 756E7369 		.ascii	"unsigned char\000"
 1616      676E6564 
 1616      20636861 
 1616      7200
 1617              	.LASF56:
 1618 01e8 656C5F6C 		.ascii	"el_listener\000"
 1618      69737465 
 1618      6E657200 
 1619              	.LASF35:
 1620 01f4 705F6D74 		.ascii	"p_mtxlist\000"
 1620      786C6973 
 1620      7400
 1621              	.LASF3:
 1622 01fe 73686F72 		.ascii	"short int\000"
 1622      7420696E 
ARM GAS  C:\Users\z80\AppData\Local\Temp\ccyeTCmp.s 			page 32


 1622      7400
 1623              	.LASF28:
 1624 0208 705F7374 		.ascii	"p_state\000"
 1624      61746500 
 1625              	.LASF63:
 1626 0210 65776D61 		.ascii	"ewmask\000"
 1626      736B00
 1627              	.LASF20:
 1628 0217 705F6E65 		.ascii	"p_next\000"
 1628      787400
 1629              	.LASF29:
 1630 021e 705F666C 		.ascii	"p_flags\000"
 1630      61677300 
 1631              	.LASF19:
 1632 0226 54687265 		.ascii	"Thread\000"
 1632      616400
 1633              	.LASF34:
 1634 022d 705F6570 		.ascii	"p_epending\000"
 1634      656E6469 
 1634      6E6700
 1635              	.LASF8:
 1636 0238 75696E74 		.ascii	"uint32_t\000"
 1636      33325F74 
 1636      00
 1637              	.LASF44:
 1638 0241 56697274 		.ascii	"VirtualTimer\000"
 1638      75616C54 
 1638      696D6572 
 1638      00
 1639              	.LASF64:
 1640 024e 63686172 		.ascii	"char\000"
 1640      00
 1641              	.LASF72:
 1642 0253 746D7263 		.ascii	"tmrcb\000"
 1642      6200
 1643              	.LASF53:
 1644 0259 6D5F6E65 		.ascii	"m_next\000"
 1644      787400
 1645              	.LASF18:
 1646 0260 73797374 		.ascii	"systime_t\000"
 1646      696D655F 
 1646      7400
 1647              	.LASF36:
 1648 026a 705F7265 		.ascii	"p_realprio\000"
 1648      616C7072 
 1648      696F00
 1649              	.LASF43:
 1650 0275 76746675 		.ascii	"vtfunc_t\000"
 1650      6E635F74 
 1650      00
 1651              	.LASF74:
 1652 027e 65767453 		.ascii	"evtStop\000"
 1652      746F7000 
 1653              	.LASF30:
 1654 0286 705F7469 		.ascii	"p_time\000"
 1654      6D6500
 1655              	.LASF41:
ARM GAS  C:\Users\z80\AppData\Local\Temp\ccyeTCmp.s 			page 33


 1656 028d 696E7463 		.ascii	"intctx\000"
 1656      747800
 1657              	.LASF32:
 1658 0294 705F6D73 		.ascii	"p_msgqueue\000"
 1658      67717565 
 1658      756500
 1659              	.LASF49:
 1660 029f 76745F70 		.ascii	"vt_par\000"
 1660      617200
 1661              	.LASF59:
 1662 02a6 65735F6E 		.ascii	"es_next\000"
 1662      65787400 
 1663              	.LASF5:
 1664 02ae 75696E74 		.ascii	"uint8_t\000"
 1664      385F7400 
 1665              	.LASF54:
 1666 02b6 4576656E 		.ascii	"EventListener\000"
 1666      744C6973 
 1666      74656E65 
 1666      7200
 1667              	.LASF69:
 1668 02c4 474E5520 		.ascii	"GNU C 4.5.0\000"
 1668      4320342E 
 1668      352E3000 
 1669              	.LASF62:
 1670 02d0 77746F62 		.ascii	"wtobjp\000"
 1670      6A7000
 1671              	.LASF26:
 1672 02d7 705F6E61 		.ascii	"p_name\000"
 1672      6D6500
 1673              	.LASF65:
 1674 02de 65745F76 		.ascii	"et_vt\000"
 1674      7400
 1675              	.LASF52:
 1676 02e4 6D5F6F77 		.ascii	"m_owner\000"
 1676      6E657200 
 1677              	.LASF23:
 1678 02ec 705F6374 		.ascii	"p_ctx\000"
 1678      7800
 1679              	.LASF31:
 1680 02f2 705F7761 		.ascii	"p_waiting\000"
 1680      6974696E 
 1680      6700
 1681              		.ident	"GCC: (GNU) 4.5.0"
ARM GAS  C:\Users\z80\AppData\Local\Temp\ccyeTCmp.s 			page 34


DEFINED SYMBOLS
                            *ABS*:00000000 evtimer.c
C:\Users\z80\AppData\Local\Temp\ccyeTCmp.s:24     .text.tmrcb:00000000 $t
C:\Users\z80\AppData\Local\Temp\ccyeTCmp.s:29     .text.tmrcb:00000000 tmrcb
C:\Users\z80\AppData\Local\Temp\ccyeTCmp.s:64     .text.evtStart:00000000 $t
C:\Users\z80\AppData\Local\Temp\ccyeTCmp.s:70     .text.evtStart:00000000 evtStart
C:\Users\z80\AppData\Local\Temp\ccyeTCmp.s:128    .text.evtStart:0000002c $d
C:\Users\z80\AppData\Local\Temp\ccyeTCmp.s:133    .text.evtStop:00000000 $t
C:\Users\z80\AppData\Local\Temp\ccyeTCmp.s:139    .text.evtStop:00000000 evtStop
                     .debug_frame:00000010 $d

UNDEFINED SYMBOLS
chEvtBroadcastFlagsI
chVTSetI
dbg_check_lock
dbg_check_unlock
chVTResetI
