ARM GAS  /tmp/cc6zvw0N.s 			page 1


   1              		.syntax unified
   2              		.cpu cortex-m3
   3              		.fpu softvfp
   4              		.eabi_attribute 20, 1
   5              		.eabi_attribute 21, 1
   6              		.eabi_attribute 23, 3
   7              		.eabi_attribute 24, 1
   8              		.eabi_attribute 25, 1
   9              		.eabi_attribute 26, 1
  10              		.eabi_attribute 30, 6
  11              		.eabi_attribute 18, 4
  12              		.thumb
  13              		.file	"hal.c"
  20 0000 4C020000 		.text
  20      0200D201 
  20      00000201 
  20      FB0E0D00 
  20      01010101 
  21              	.Ltext0:
  22              		.cfi_sections	.debug_frame
  23              		.section	.text.halInit,"ax",%progbits
  24              		.align	2
  25              		.p2align 4,,15
  26              		.global	halInit
  27              		.thumb
  28              		.thumb_func
  29              		.type	halInit, %function
  30              	halInit:
  31              	.LFB62:
  32              		.file 1 "../chibios_2.4.x/os/hal/src/hal.c"
  33              		.loc 1 68 0
  34              		.cfi_startproc
  35              		@ args = 0, pretend = 0, frame = 0
  36              		@ frame_needed = 0, uses_anonymous_args = 0
  37 0000 08B5     		push	{r3, lr}
  38              	.LCFI0:
  39              		.cfi_def_cfa_offset 8
  40              		.loc 1 70 0
  41              		.cfi_offset 14, -4
  42              		.cfi_offset 3, -8
  43 0002 FFF7FEFF 		bl	hal_lld_init
  44              		.loc 1 73 0
  45 0006 FFF7FEFF 		bl	tmInit
  46              		.loc 1 76 0
  47 000a 0648     		ldr	r0, .L2
  48 000c FFF7FEFF 		bl	_pal_lld_init
  49              		.loc 1 79 0
  50 0010 FFF7FEFF 		bl	adcInit
  51              		.loc 1 91 0
  52 0014 FFF7FEFF 		bl	i2cInit
  53              		.loc 1 103 0
ARM GAS  /tmp/cc6zvw0N.s 			page 2


  54 0018 FFF7FEFF 		bl	sdInit
  55              		.loc 1 127 0
  56 001c FFF7FEFF 		bl	boardInit
  57              		.loc 1 128 0
  58 0020 08BD     		pop	{r3, pc}
  59              	.L3:
  60 0022 00BF     		.align	2
  61              	.L2:
  62 0024 00000000 		.word	pal_default_config
  63              		.cfi_endproc
  64              	.LFE62:
  65              		.size	halInit, .-halInit
  66 0028 AFF30080 		.section	.text.halIsCounterWithin,"ax",%progbits
  66      AFF30080 
  67              		.align	2
  68              		.p2align 4,,15
  69              		.global	halIsCounterWithin
  70              		.thumb
  71              		.thumb_func
  72              		.type	halIsCounterWithin, %function
  73              	halIsCounterWithin:
  74              	.LFB63:
  75              		.loc 1 174 0
  76              		.cfi_startproc
  77              		@ args = 0, pretend = 0, frame = 16
  78              		@ frame_needed = 0, uses_anonymous_args = 0
  79              		@ link register save eliminated.
  80 0000 84B0     		sub	sp, sp, #16
  81              	.LCFI1:
  82              		.cfi_def_cfa_offset 16
  83 0002 0190     		str	r0, [sp, #4]
  84 0004 0091     		str	r1, [sp, #0]
  85              		.loc 1 175 0
  86 0006 124B     		ldr	r3, .L12
  87 0008 5B68     		ldr	r3, [r3, #4]
  88 000a 0393     		str	r3, [sp, #12]
  89              		.loc 1 177 0
  90 000c 009A     		ldr	r2, [sp, #0]
  91 000e 019B     		ldr	r3, [sp, #4]
  92 0010 9A42     		cmp	r2, r3
  93 0012 0DD9     		bls	.L5
  94              		.loc 1 177 0 is_stmt 0 discriminator 1
  95 0014 039A     		ldr	r2, [sp, #12]
  96 0016 019B     		ldr	r3, [sp, #4]
  97 0018 9A42     		cmp	r2, r3
  98 001a 06D3     		bcc	.L6
  99              		.loc 1 177 0 discriminator 3
 100 001c 039A     		ldr	r2, [sp, #12]
 101 001e 009B     		ldr	r3, [sp, #0]
 102 0020 9A42     		cmp	r2, r3
 103 0022 02D2     		bcs	.L6
 104              		.loc 1 177 0 discriminator 1
 105 0024 4FF00103 		mov	r3, #1
 106 0028 01E0     		b	.L7
 107              	.L6:
 108              		.loc 1 177 0 discriminator 4
 109 002a 4FF00003 		mov	r3, #0
ARM GAS  /tmp/cc6zvw0N.s 			page 3


 110              	.L7:
 111 002e 0CE0     		b	.L8
 112              	.L5:
 113              		.loc 1 177 0 discriminator 2
 114 0030 039A     		ldr	r2, [sp, #12]
 115 0032 019B     		ldr	r3, [sp, #4]
 116 0034 9A42     		cmp	r2, r3
 117 0036 03D2     		bcs	.L9
 118              		.loc 1 178 0 is_stmt 1
 119 0038 039A     		ldr	r2, [sp, #12]
 120 003a 009B     		ldr	r3, [sp, #0]
 121 003c 9A42     		cmp	r2, r3
 122 003e 02D2     		bcs	.L10
 123              	.L9:
 124              		.loc 1 177 0 discriminator 6
 125 0040 4FF00103 		mov	r3, #1
 126 0044 01E0     		b	.L11
 127              	.L10:
 128              		.loc 1 177 0 is_stmt 0
 129 0046 4FF00003 		mov	r3, #0
 130              	.L11:
 131              	.L8:
 132              		.loc 1 179 0 is_stmt 1 discriminator 8
 133 004a 1846     		mov	r0, r3
 134 004c 04B0     		add	sp, sp, #16
 135 004e 7047     		bx	lr
 136              	.L13:
 137              		.align	2
 138              	.L12:
 139 0050 001000E0 		.word	-536866816
 140              		.cfi_endproc
 141              	.LFE63:
 142              		.size	halIsCounterWithin, .-halIsCounterWithin
 143 0054 AFF30080 		.section	.text.halPolledDelay,"ax",%progbits
 143      AFF30080 
 143      AFF30080 
 144              		.align	2
 145              		.p2align 4,,15
 146              		.global	halPolledDelay
 147              		.thumb
 148              		.thumb_func
 149              		.type	halPolledDelay, %function
 150              	halPolledDelay:
 151              	.LFB64:
 152              		.loc 1 193 0
 153              		.cfi_startproc
 154              		@ args = 0, pretend = 0, frame = 16
 155              		@ frame_needed = 0, uses_anonymous_args = 0
 156 0000 00B5     		push	{lr}
 157              	.LCFI2:
 158              		.cfi_def_cfa_offset 4
 159 0002 85B0     		sub	sp, sp, #20
 160              	.LCFI3:
 161              		.cfi_def_cfa_offset 24
 162 0004 0190     		str	r0, [sp, #4]
 163              		.loc 1 194 0
 164 0006 084B     		ldr	r3, .L16
ARM GAS  /tmp/cc6zvw0N.s 			page 4


 165 0008 5B68     		ldr	r3, [r3, #4]
 166 000a 0393     		str	r3, [sp, #12]
 167              		.loc 1 195 0
 168 000c 039A     		ldr	r2, [sp, #12]
 169 000e 019B     		ldr	r3, [sp, #4]
 170 0010 D318     		adds	r3, r2, r3
 171 0012 0293     		str	r3, [sp, #8]
 172              		.loc 1 196 0
 173 0014 00BF     		nop
 174              	.L15:
 175              		.loc 1 196 0 is_stmt 0 discriminator 1
 176 0016 0398     		ldr	r0, [sp, #12]
 177 0018 0299     		ldr	r1, [sp, #8]
 178              		.cfi_offset 14, -4
 179 001a FFF7FEFF 		bl	halIsCounterWithin
 180 001e 0346     		mov	r3, r0
 181 0020 002B     		cmp	r3, #0
 182 0022 F8D1     		bne	.L15
 183              		.loc 1 198 0 is_stmt 1
 184 0024 05B0     		add	sp, sp, #20
 185 0026 00BD     		pop	{pc}
 186              	.L17:
 187              		.align	2
 188              	.L16:
 189 0028 001000E0 		.word	-536866816
 190              		.cfi_endproc
 191              	.LFE64:
 192              		.size	halPolledDelay, .-halPolledDelay
 193 002c AFF30080 		.text
 194              	.Letext0: