ARM GAS  /tmp/ccTsyVFb.s 			page 1


   1              		.syntax unified
   2              		.cpu cortex-m3
   3              		.fpu softvfp
   4              		.eabi_attribute 20, 1
   5              		.eabi_attribute 21, 1
   6              		.eabi_attribute 23, 3
   7              		.eabi_attribute 24, 1
   8              		.eabi_attribute 25, 1
   9              		.eabi_attribute 26, 1
  10              		.eabi_attribute 30, 2
  11              		.eabi_attribute 18, 4
  12              		.thumb
  13              		.file	"hal_lld.c"
  14              		.section	.debug_abbrev,"",%progbits
  15              	.Ldebug_abbrev0:
  16              		.section	.debug_info,"",%progbits
  17              	.Ldebug_info0:
  18              		.section	.debug_line,"",%progbits
  19              	.Ldebug_line0:
  20 0000 DB010000 		.text
  20      02004E01 
  20      00000201 
  20      FB0E0D00 
  20      01010101 
  21              	.Ltext0:
  22              		.cfi_sections	.debug_frame
  23              		.section	.text.hal_lld_init,"ax",%progbits
  24              		.align	2
  25              		.p2align 4,,15
  26              		.global	hal_lld_init
  27              		.thumb
  28              		.thumb_func
  29              		.type	hal_lld_init, %function
  30              	hal_lld_init:
  31              	.LFB63:
  32              		.file 1 "../chibios_2.4.x/os/hal/platforms/STM32F1xx/hal_lld.c"
  33              		.loc 1 101 0
  34              		.cfi_startproc
  35              		@ args = 0, pretend = 0, frame = 0
  36              		@ frame_needed = 0, uses_anonymous_args = 0
  37              		@ link register save eliminated.
  38              		.loc 1 104 0
  39 0000 224B     		ldr	r3, .L5
  40 0002 0022     		movs	r2, #0
  41 0004 4FF0FF30 		mov	r0, #-1
  42              		.loc 1 101 0
  43 0008 30B4     		push	{r4, r5}
  44              	.LCFI0:
  45              		.cfi_def_cfa_offset 8
  46              		.loc 1 108 0
  47 000a 2149     		ldr	r1, .L5+4
  48              		.loc 1 104 0
  49 000c 1C69     		ldr	r4, [r3, #16]
  50              		.cfi_offset 5, -4
  51              		.cfi_offset 4, -8
  52              		.loc 1 108 0
  53 000e 00F50C3C 		add	ip, r0, #143360
ARM GAS  /tmp/ccTsyVFb.s 			page 2


  54              		.loc 1 104 0
  55 0012 1861     		str	r0, [r3, #16]
  56 0014 1A61     		str	r2, [r3, #16]
  57              		.loc 1 105 0
  58 0016 DD68     		ldr	r5, [r3, #12]
  59 0018 D860     		str	r0, [r3, #12]
  60              		.loc 1 108 0
  61 001a 0CF52070 		add	r0, ip, #640
  62              		.loc 1 105 0
  63 001e DA60     		str	r2, [r3, #12]
  64              		.loc 1 115 0
  65 0020 1C4C     		ldr	r4, .L5+8
  66              		.loc 1 108 0
  67 0022 4860     		str	r0, [r1, #4]
  68              		.loc 1 110 0
  69 0024 0720     		movs	r0, #7
  70              		.loc 1 109 0
  71 0026 8A60     		str	r2, [r1, #8]
  72              		.loc 1 110 0
  73 0028 0860     		str	r0, [r1, #0]
  74              		.loc 1 115 0
  75 002a E168     		ldr	r1, [r4, #12]
  76              		.loc 1 116 0
  77 002c 1A48     		ldr	r0, .L5+12
  78              		.loc 1 115 0
  79 002e 41F08071 		orr	r1, r1, #16777216
  80 0032 E160     		str	r1, [r4, #12]
  81              		.loc 1 116 0
  82 0034 0468     		ldr	r4, [r0, #0]
  83              	.LBB4:
  84              	.LBB5:
  85              		.loc 1 59 0
  86 0036 1949     		ldr	r1, .L5+16
  87              	.LBE5:
  88              	.LBE4:
  89              		.loc 1 116 0
  90 0038 44F00104 		orr	r4, r4, #1
  91 003c 0460     		str	r4, [r0, #0]
  92              		.loc 1 119 0
  93 003e D869     		ldr	r0, [r3, #28]
  94 0040 40F08050 		orr	r0, r0, #268435456
  95 0044 D861     		str	r0, [r3, #28]
  96              		.loc 1 120 0
  97 0046 D869     		ldr	r0, [r3, #28]
  98 0048 40F00060 		orr	r0, r0, #134217728
  99 004c D861     		str	r0, [r3, #28]
 100              	.LBB7:
 101              	.LBB6:
 102              		.loc 1 59 0
 103 004e 0868     		ldr	r0, [r1, #0]
 104 0050 40F48070 		orr	r0, r0, #256
 105 0054 0860     		str	r0, [r1, #0]
 106              		.loc 1 62 0
 107 0056 186A     		ldr	r0, [r3, #32]
 108 0058 00F44071 		and	r1, r0, #768
 109 005c B1F5407F 		cmp	r1, #768
 110 0060 03D0     		beq	.L2
ARM GAS  /tmp/ccTsyVFb.s 			page 3


 111              		.loc 1 64 0
 112 0062 4FF48031 		mov	r1, #65536
 113 0066 1962     		str	r1, [r3, #32]
 114              		.loc 1 65 0
 115 0068 1A62     		str	r2, [r3, #32]
 116              	.L2:
 117              		.loc 1 78 0
 118 006a 084B     		ldr	r3, .L5
 119 006c 1A6A     		ldr	r2, [r3, #32]
 120 006e 12F4004F 		tst	r2, #32768
 121 0072 07D1     		bne	.L3
 122              		.loc 1 80 0
 123 0074 186A     		ldr	r0, [r3, #32]
 124 0076 40F44072 		orr	r2, r0, #768
 125 007a 1A62     		str	r2, [r3, #32]
 126              		.loc 1 83 0
 127 007c 196A     		ldr	r1, [r3, #32]
 128 007e 41F40040 		orr	r0, r1, #32768
 129 0082 1862     		str	r0, [r3, #32]
 130              	.L3:
 131              	.LBE6:
 132              	.LBE7:
 133              		.loc 1 133 0
 134 0084 30BC     		pop	{r4, r5}
 135              		.loc 1 126 0
 136 0086 FFF7FEBF 		b	dmaInit
 137              	.L6:
 138 008a 00BF     		.align	2
 139              	.L5:
 140 008c 00100240 		.word	1073876992
 141 0090 10E000E0 		.word	-536813552
 142 0094 F0ED00E0 		.word	-536810000
 143 0098 001000E0 		.word	-536866816
 144 009c 00700040 		.word	1073770496
 145              		.cfi_endproc
 146              	.LFE63:
 147              		.size	hal_lld_init, .-hal_lld_init
 148              		.section	.text.stm32_clock_init,"ax",%progbits
 149              		.align	2
 150              		.p2align 4,,15
 151              		.global	stm32_clock_init
 152              		.thumb
 153              		.thumb_func
 154              		.type	stm32_clock_init, %function
 155              	stm32_clock_init:
 156              	.LFB64:
 157              		.loc 1 149 0
 158              		.cfi_startproc
 159              		@ args = 0, pretend = 0, frame = 0
 160              		@ frame_needed = 0, uses_anonymous_args = 0
 161              		@ link register save eliminated.
 162              		.loc 1 154 0
 163 0000 1F4B     		ldr	r3, .L18
 164 0002 1868     		ldr	r0, [r3, #0]
 165              		.loc 1 155 0
 166 0004 1946     		mov	r1, r3
 167              		.loc 1 154 0
ARM GAS  /tmp/ccTsyVFb.s 			page 4


 168 0006 40F00102 		orr	r2, r0, #1
 169 000a 1A60     		str	r2, [r3, #0]
 170              	.L8:
 171              		.loc 1 155 0 discriminator 1
 172 000c 0B68     		ldr	r3, [r1, #0]
 173 000e 1C4A     		ldr	r2, .L18
 174 0010 13F0020F 		tst	r3, #2
 175 0014 FAD0     		beq	.L8
 176              		.loc 1 157 0
 177 0016 1368     		ldr	r3, [r2, #0]
 178              		.loc 1 158 0
 179 0018 0020     		movs	r0, #0
 180              		.loc 1 157 0
 181 001a 03F0F901 		and	r1, r3, #249
 182 001e 1160     		str	r1, [r2, #0]
 183              		.loc 1 159 0
 184 0020 1146     		mov	r1, r2
 185              		.loc 1 158 0
 186 0022 5060     		str	r0, [r2, #4]
 187              	.L9:
 188              		.loc 1 159 0 discriminator 1
 189 0024 4868     		ldr	r0, [r1, #4]
 190 0026 164A     		ldr	r2, .L18
 191 0028 10F00C0F 		tst	r0, #12
 192 002c FAD1     		bne	.L9
 193              		.loc 1 164 0
 194 002e 1068     		ldr	r0, [r2, #0]
 195              		.loc 1 165 0
 196 0030 1146     		mov	r1, r2
 197              		.loc 1 164 0
 198 0032 40F48033 		orr	r3, r0, #65536
 199 0036 1360     		str	r3, [r2, #0]
 200              	.L10:
 201              		.loc 1 165 0 discriminator 1
 202 0038 0B68     		ldr	r3, [r1, #0]
 203 003a 114A     		ldr	r2, .L18
 204 003c 13F4003F 		tst	r3, #131072
 205 0040 FAD0     		beq	.L10
 206              		.loc 1 178 0
 207 0042 5368     		ldr	r3, [r2, #4]
 208              		.loc 1 180 0
 209 0044 1146     		mov	r1, r2
 210              		.loc 1 178 0
 211 0046 43F4E810 		orr	r0, r3, #1900544
 212 004a 5060     		str	r0, [r2, #4]
 213              		.loc 1 179 0
 214 004c 1368     		ldr	r3, [r2, #0]
 215 004e 43F08070 		orr	r0, r3, #16777216
 216 0052 1060     		str	r0, [r2, #0]
 217              	.L11:
 218              		.loc 1 180 0 discriminator 1
 219 0054 0868     		ldr	r0, [r1, #0]
 220 0056 0A4A     		ldr	r2, .L18
 221 0058 10F0007F 		tst	r0, #33554432
 222 005c FAD0     		beq	.L11
 223              		.loc 1 186 0
 224 005e 0948     		ldr	r0, .L18+4
ARM GAS  /tmp/ccTsyVFb.s 			page 5


 225              		.loc 1 196 0
 226 0060 094B     		ldr	r3, .L18+8
 227 0062 1221     		movs	r1, #18
 228              		.loc 1 186 0
 229 0064 5060     		str	r0, [r2, #4]
 230              		.loc 1 196 0
 231 0066 1960     		str	r1, [r3, #0]
 232              		.loc 1 201 0
 233 0068 5068     		ldr	r0, [r2, #4]
 234              		.loc 1 202 0
 235 006a 1146     		mov	r1, r2
 236              		.loc 1 201 0
 237 006c 40F00203 		orr	r3, r0, #2
 238 0070 5360     		str	r3, [r2, #4]
 239              	.L12:
 240              		.loc 1 202 0 discriminator 1
 241 0072 4A68     		ldr	r2, [r1, #4]
 242 0074 02F00C0C 		and	ip, r2, #12
 243 0078 BCF1080F 		cmp	ip, #8
 244 007c F9D1     		bne	.L12
 245              		.loc 1 206 0
 246 007e 7047     		bx	lr
 247              	.L19:
 248              		.align	2
 249              	.L18:
 250 0080 00100240 		.word	1073876992
 251 0084 00641D00 		.word	1926144
 252 0088 00200240 		.word	1073881088
 253              		.cfi_endproc
 254              	.LFE64:
 255              		.size	stm32_clock_init, .-stm32_clock_init
 256 008c AFF30080 		.text
 257              	.Letext0:
 258              		.section	.debug_loc,"",%progbits
 259              	.Ldebug_loc0:
 260              	.LLST0:
 261 0000 00000000 		.4byte	.LFB63
 262 0004 0A000000 		.4byte	.LCFI0
 263 0008 0200     		.2byte	0x2
 264 000a 7D       		.byte	0x7d
 265 000b 00       		.sleb128 0
 266 000c 0A000000 		.4byte	.LCFI0
 267 0010 A0000000 		.4byte	.LFE63
 268 0014 0200     		.2byte	0x2
 269 0016 7D       		.byte	0x7d
 270 0017 08       		.sleb128 8
 271 0018 00000000 		.4byte	0x0
 272 001c 00000000 		.4byte	0x0
 273              		.file 2 "/home/z80/programs/code-sourcery/2011.03-42/bin/../lib/gcc/arm-none-eabi/4.5.2/../../../.
 274              		.file 3 "../chibios_2.4.x/os/ports/common/ARMCMx/nvic.h"
 275              		.file 4 "../chibios_2.4.x/os/ports/common/ARMCMx/CMSIS/include/core_cm3.h"
 276              		.file 5 "../chibios_2.4.x/os/hal/platforms/STM32F1xx/stm32f10x.h"
 277              		.section	.debug_info
 278 0000 AE030000 		.4byte	0x3ae
 279 0004 0200     		.2byte	0x2
 280 0006 00000000 		.4byte	.Ldebug_abbrev0
 281 000a 04       		.byte	0x4
ARM GAS  /tmp/ccTsyVFb.s 			page 6


 282 000b 01       		.uleb128 0x1
 283 000c 80010000 		.4byte	.LASF45
 284 0010 01       		.byte	0x1
 285 0011 62000000 		.4byte	.LASF46
 286 0015 18000000 		.4byte	.LASF47
 287 0019 00000000 		.4byte	0x0
 288 001d 00000000 		.4byte	0x0
 289 0021 18000000 		.4byte	.Ldebug_ranges0+0x18
 290 0025 00000000 		.4byte	.Ldebug_line0
 291 0029 02       		.uleb128 0x2
 292 002a 04       		.byte	0x4
 293 002b 05       		.byte	0x5
 294 002c 696E7400 		.ascii	"int\000"
 295 0030 03       		.uleb128 0x3
 296 0031 04       		.byte	0x4
 297 0032 07       		.byte	0x7
 298 0033 9B010000 		.4byte	.LASF0
 299 0037 03       		.uleb128 0x3
 300 0038 01       		.byte	0x1
 301 0039 06       		.byte	0x6
 302 003a 39020000 		.4byte	.LASF1
 303 003e 03       		.uleb128 0x3
 304 003f 01       		.byte	0x1
 305 0040 08       		.byte	0x8
 306 0041 DB000000 		.4byte	.LASF2
 307 0045 03       		.uleb128 0x3
 308 0046 02       		.byte	0x2
 309 0047 05       		.byte	0x5
 310 0048 67010000 		.4byte	.LASF3
 311 004c 04       		.uleb128 0x4
 312 004d 0D020000 		.4byte	.LASF5
 313 0051 02       		.byte	0x2
 314 0052 36       		.byte	0x36
 315 0053 57000000 		.4byte	0x57
 316 0057 03       		.uleb128 0x3
 317 0058 02       		.byte	0x2
 318 0059 07       		.byte	0x7
 319 005a 02010000 		.4byte	.LASF4
 320 005e 04       		.uleb128 0x4
 321 005f CC010000 		.4byte	.LASF6
 322 0063 02       		.byte	0x2
 323 0064 4F       		.byte	0x4f
 324 0065 69000000 		.4byte	0x69
 325 0069 03       		.uleb128 0x3
 326 006a 04       		.byte	0x4
 327 006b 05       		.byte	0x5
 328 006c 2B020000 		.4byte	.LASF7
 329 0070 04       		.uleb128 0x4
 330 0071 22020000 		.4byte	.LASF8
 331 0075 02       		.byte	0x2
 332 0076 50       		.byte	0x50
 333 0077 7B000000 		.4byte	0x7b
 334 007b 03       		.uleb128 0x3
 335 007c 04       		.byte	0x4
 336 007d 07       		.byte	0x7
 337 007e F0000000 		.4byte	.LASF9
 338 0082 03       		.uleb128 0x3
ARM GAS  /tmp/ccTsyVFb.s 			page 7


 339 0083 08       		.byte	0x8
 340 0084 05       		.byte	0x5
 341 0085 00000000 		.4byte	.LASF10
 342 0089 03       		.uleb128 0x3
 343 008a 08       		.byte	0x8
 344 008b 07       		.byte	0x7
 345 008c B5000000 		.4byte	.LASF11
 346 0090 05       		.uleb128 0x5
 347 0091 70000000 		.4byte	0x70
 348 0095 05       		.uleb128 0x5
 349 0096 7B000000 		.4byte	0x7b
 350 009a 06       		.uleb128 0x6
 351 009b 10       		.byte	0x10
 352 009c 03       		.byte	0x3
 353 009d F1       		.byte	0xf1
 354 009e DB000000 		.4byte	0xdb
 355 00a2 07       		.uleb128 0x7
 356 00a3 44010000 		.4byte	.LASF12
 357 00a7 03       		.byte	0x3
 358 00a8 F2       		.byte	0xf2
 359 00a9 95000000 		.4byte	0x95
 360 00ad 02       		.byte	0x2
 361 00ae 23       		.byte	0x23
 362 00af 00       		.uleb128 0x0
 363 00b0 07       		.uleb128 0x7
 364 00b1 95010000 		.4byte	.LASF13
 365 00b5 03       		.byte	0x3
 366 00b6 F3       		.byte	0xf3
 367 00b7 95000000 		.4byte	0x95
 368 00bb 02       		.byte	0x2
 369 00bc 23       		.byte	0x23
 370 00bd 04       		.uleb128 0x4
 371 00be 07       		.uleb128 0x7
 372 00bf BA010000 		.4byte	.LASF14
 373 00c3 03       		.byte	0x3
 374 00c4 F4       		.byte	0xf4
 375 00c5 95000000 		.4byte	0x95
 376 00c9 02       		.byte	0x2
 377 00ca 23       		.byte	0x23
 378 00cb 08       		.uleb128 0x8
 379 00cc 07       		.uleb128 0x7
 380 00cd D5000000 		.4byte	.LASF15
 381 00d1 03       		.byte	0x3
 382 00d2 F5       		.byte	0xf5
 383 00d3 95000000 		.4byte	0x95
 384 00d7 02       		.byte	0x2
 385 00d8 23       		.byte	0x23
 386 00d9 0C       		.uleb128 0xc
 387 00da 00       		.byte	0x0
 388 00db 04       		.uleb128 0x4
 389 00dc E2010000 		.4byte	.LASF16
 390 00e0 03       		.byte	0x3
 391 00e1 F6       		.byte	0xf6
 392 00e2 9A000000 		.4byte	0x9a
 393 00e6 08       		.uleb128 0x8
 394 00e7 20       		.byte	0x20
 395 00e8 03       		.byte	0x3
ARM GAS  /tmp/ccTsyVFb.s 			page 8


 396 00e9 0601     		.2byte	0x106
 397 00eb 68010000 		.4byte	0x168
 398 00ef 09       		.uleb128 0x9
 399 00f0 C0010000 		.4byte	.LASF17
 400 00f4 03       		.byte	0x3
 401 00f5 0701     		.2byte	0x107
 402 00f7 95000000 		.4byte	0x95
 403 00fb 02       		.byte	0x2
 404 00fc 23       		.byte	0x23
 405 00fd 00       		.uleb128 0x0
 406 00fe 09       		.uleb128 0x9
 407 00ff E9000000 		.4byte	.LASF18
 408 0103 03       		.byte	0x3
 409 0104 0801     		.2byte	0x108
 410 0106 95000000 		.4byte	0x95
 411 010a 02       		.byte	0x2
 412 010b 23       		.byte	0x23
 413 010c 04       		.uleb128 0x4
 414 010d 09       		.uleb128 0x9
 415 010e 30010000 		.4byte	.LASF19
 416 0112 03       		.byte	0x3
 417 0113 0901     		.2byte	0x109
 418 0115 95000000 		.4byte	0x95
 419 0119 02       		.byte	0x2
 420 011a 23       		.byte	0x23
 421 011b 08       		.uleb128 0x8
 422 011c 09       		.uleb128 0x9
 423 011d C5010000 		.4byte	.LASF20
 424 0121 03       		.byte	0x3
 425 0122 0A01     		.2byte	0x10a
 426 0124 95000000 		.4byte	0x95
 427 0128 02       		.byte	0x2
 428 0129 23       		.byte	0x23
 429 012a 0C       		.uleb128 0xc
 430 012b 09       		.uleb128 0x9
 431 012c AC000000 		.4byte	.LASF21
 432 0130 03       		.byte	0x3
 433 0131 0B01     		.2byte	0x10b
 434 0133 95000000 		.4byte	0x95
 435 0137 02       		.byte	0x2
 436 0138 23       		.byte	0x23
 437 0139 10       		.uleb128 0x10
 438 013a 09       		.uleb128 0x9
 439 013b 71010000 		.4byte	.LASF22
 440 013f 03       		.byte	0x3
 441 0140 0C01     		.2byte	0x10c
 442 0142 95000000 		.4byte	0x95
 443 0146 02       		.byte	0x2
 444 0147 23       		.byte	0x23
 445 0148 14       		.uleb128 0x14
 446 0149 09       		.uleb128 0x9
 447 014a 9F000000 		.4byte	.LASF23
 448 014e 03       		.byte	0x3
 449 014f 0D01     		.2byte	0x10d
 450 0151 95000000 		.4byte	0x95
 451 0155 02       		.byte	0x2
 452 0156 23       		.byte	0x23
ARM GAS  /tmp/ccTsyVFb.s 			page 9


 453 0157 18       		.uleb128 0x18
 454 0158 09       		.uleb128 0x9
 455 0159 47000000 		.4byte	.LASF24
 456 015d 03       		.byte	0x3
 457 015e 0E01     		.2byte	0x10e
 458 0160 95000000 		.4byte	0x95
 459 0164 02       		.byte	0x2
 460 0165 23       		.byte	0x23
 461 0166 1C       		.uleb128 0x1c
 462 0167 00       		.byte	0x0
 463 0168 0A       		.uleb128 0xa
 464 0169 5A000000 		.4byte	.LASF25
 465 016d 03       		.byte	0x3
 466 016e 0F01     		.2byte	0x10f
 467 0170 E6000000 		.4byte	0xe6
 468 0174 03       		.uleb128 0x3
 469 0175 01       		.byte	0x1
 470 0176 08       		.byte	0x8
 471 0177 A8010000 		.4byte	.LASF26
 472 017b 0B       		.uleb128 0xb
 473 017c 90000000 		.4byte	0x90
 474 0180 08       		.uleb128 0x8
 475 0181 10       		.byte	0x10
 476 0182 04       		.byte	0x4
 477 0183 3802     		.2byte	0x238
 478 0185 C6010000 		.4byte	0x1c6
 479 0189 09       		.uleb128 0x9
 480 018a C0010000 		.4byte	.LASF17
 481 018e 04       		.byte	0x4
 482 018f 3A02     		.2byte	0x23a
 483 0191 90000000 		.4byte	0x90
 484 0195 02       		.byte	0x2
 485 0196 23       		.byte	0x23
 486 0197 00       		.uleb128 0x0
 487 0198 09       		.uleb128 0x9
 488 0199 F7010000 		.4byte	.LASF27
 489 019d 04       		.byte	0x4
 490 019e 3B02     		.2byte	0x23b
 491 01a0 90000000 		.4byte	0x90
 492 01a4 02       		.byte	0x2
 493 01a5 23       		.byte	0x23
 494 01a6 04       		.uleb128 0x4
 495 01a7 0C       		.uleb128 0xc
 496 01a8 56414C00 		.ascii	"VAL\000"
 497 01ac 04       		.byte	0x4
 498 01ad 3C02     		.2byte	0x23c
 499 01af 90000000 		.4byte	0x90
 500 01b3 02       		.byte	0x2
 501 01b4 23       		.byte	0x23
 502 01b5 08       		.uleb128 0x8
 503 01b6 09       		.uleb128 0x9
 504 01b7 D4010000 		.4byte	.LASF28
 505 01bb 04       		.byte	0x4
 506 01bc 3D02     		.2byte	0x23d
 507 01be 7B010000 		.4byte	0x17b
 508 01c2 02       		.byte	0x2
 509 01c3 23       		.byte	0x23
ARM GAS  /tmp/ccTsyVFb.s 			page 10


 510 01c4 0C       		.uleb128 0xc
 511 01c5 00       		.byte	0x0
 512 01c6 0A       		.uleb128 0xa
 513 01c7 AD010000 		.4byte	.LASF29
 514 01cb 04       		.byte	0x4
 515 01cc 3E02     		.2byte	0x23e
 516 01ce 80010000 		.4byte	0x180
 517 01d2 05       		.uleb128 0x5
 518 01d3 5E000000 		.4byte	0x5e
 519 01d7 08       		.uleb128 0x8
 520 01d8 24       		.byte	0x24
 521 01d9 05       		.byte	0x5
 522 01da 9403     		.2byte	0x394
 523 01dc 65020000 		.4byte	0x265
 524 01e0 0C       		.uleb128 0xc
 525 01e1 41435200 		.ascii	"ACR\000"
 526 01e5 05       		.byte	0x5
 527 01e6 9603     		.2byte	0x396
 528 01e8 90000000 		.4byte	0x90
 529 01ec 02       		.byte	0x2
 530 01ed 23       		.byte	0x23
 531 01ee 00       		.uleb128 0x0
 532 01ef 09       		.uleb128 0x9
 533 01f0 34020000 		.4byte	.LASF30
 534 01f4 05       		.byte	0x5
 535 01f5 9703     		.2byte	0x397
 536 01f7 90000000 		.4byte	0x90
 537 01fb 02       		.byte	0x2
 538 01fc 23       		.byte	0x23
 539 01fd 04       		.uleb128 0x4
 540 01fe 09       		.uleb128 0x9
 541 01ff 4A010000 		.4byte	.LASF31
 542 0203 05       		.byte	0x5
 543 0204 9803     		.2byte	0x398
 544 0206 90000000 		.4byte	0x90
 545 020a 02       		.byte	0x2
 546 020b 23       		.byte	0x23
 547 020c 08       		.uleb128 0x8
 548 020d 0C       		.uleb128 0xc
 549 020e 535200   		.ascii	"SR\000"
 550 0211 05       		.byte	0x5
 551 0212 9903     		.2byte	0x399
 552 0214 90000000 		.4byte	0x90
 553 0218 02       		.byte	0x2
 554 0219 23       		.byte	0x23
 555 021a 0C       		.uleb128 0xc
 556 021b 0C       		.uleb128 0xc
 557 021c 435200   		.ascii	"CR\000"
 558 021f 05       		.byte	0x5
 559 0220 9A03     		.2byte	0x39a
 560 0222 90000000 		.4byte	0x90
 561 0226 02       		.byte	0x2
 562 0227 23       		.byte	0x23
 563 0228 10       		.uleb128 0x10
 564 0229 0C       		.uleb128 0xc
 565 022a 415200   		.ascii	"AR\000"
 566 022d 05       		.byte	0x5
ARM GAS  /tmp/ccTsyVFb.s 			page 11


 567 022e 9B03     		.2byte	0x39b
 568 0230 90000000 		.4byte	0x90
 569 0234 02       		.byte	0x2
 570 0235 23       		.byte	0x23
 571 0236 14       		.uleb128 0x14
 572 0237 09       		.uleb128 0x9
 573 0238 5E010000 		.4byte	.LASF32
 574 023c 05       		.byte	0x5
 575 023d 9C03     		.2byte	0x39c
 576 023f 90000000 		.4byte	0x90
 577 0243 02       		.byte	0x2
 578 0244 23       		.byte	0x23
 579 0245 18       		.uleb128 0x18
 580 0246 0C       		.uleb128 0xc
 581 0247 4F425200 		.ascii	"OBR\000"
 582 024b 05       		.byte	0x5
 583 024c 9D03     		.2byte	0x39d
 584 024e 90000000 		.4byte	0x90
 585 0252 02       		.byte	0x2
 586 0253 23       		.byte	0x23
 587 0254 1C       		.uleb128 0x1c
 588 0255 09       		.uleb128 0x9
 589 0256 A7000000 		.4byte	.LASF33
 590 025a 05       		.byte	0x5
 591 025b 9E03     		.2byte	0x39e
 592 025d 90000000 		.4byte	0x90
 593 0261 02       		.byte	0x2
 594 0262 23       		.byte	0x23
 595 0263 20       		.uleb128 0x20
 596 0264 00       		.byte	0x0
 597 0265 0A       		.uleb128 0xa
 598 0266 4C000000 		.4byte	.LASF34
 599 026a 05       		.byte	0x5
 600 026b A703     		.2byte	0x3a7
 601 026d D7010000 		.4byte	0x1d7
 602 0271 08       		.uleb128 0x8
 603 0272 08       		.byte	0x8
 604 0273 05       		.byte	0x5
 605 0274 3904     		.2byte	0x439
 606 0276 98020000 		.4byte	0x298
 607 027a 0C       		.uleb128 0xc
 608 027b 435200   		.ascii	"CR\000"
 609 027e 05       		.byte	0x5
 610 027f 3B04     		.2byte	0x43b
 611 0281 90000000 		.4byte	0x90
 612 0285 02       		.byte	0x2
 613 0286 23       		.byte	0x23
 614 0287 00       		.uleb128 0x0
 615 0288 0C       		.uleb128 0xc
 616 0289 43535200 		.ascii	"CSR\000"
 617 028d 05       		.byte	0x5
 618 028e 3C04     		.2byte	0x43c
 619 0290 90000000 		.4byte	0x90
 620 0294 02       		.byte	0x2
 621 0295 23       		.byte	0x23
 622 0296 04       		.uleb128 0x4
 623 0297 00       		.byte	0x0
ARM GAS  /tmp/ccTsyVFb.s 			page 12


 624 0298 0A       		.uleb128 0xa
 625 0299 52010000 		.4byte	.LASF35
 626 029d 05       		.byte	0x5
 627 029e 3D04     		.2byte	0x43d
 628 02a0 71020000 		.4byte	0x271
 629 02a4 08       		.uleb128 0x8
 630 02a5 28       		.byte	0x28
 631 02a6 05       		.byte	0x5
 632 02a7 4304     		.2byte	0x443
 633 02a9 43030000 		.4byte	0x343
 634 02ad 0C       		.uleb128 0xc
 635 02ae 435200   		.ascii	"CR\000"
 636 02b1 05       		.byte	0x5
 637 02b2 4504     		.2byte	0x445
 638 02b4 90000000 		.4byte	0x90
 639 02b8 02       		.byte	0x2
 640 02b9 23       		.byte	0x23
 641 02ba 00       		.uleb128 0x0
 642 02bb 09       		.uleb128 0x9
 643 02bc 13000000 		.4byte	.LASF36
 644 02c0 05       		.byte	0x5
 645 02c1 4604     		.2byte	0x446
 646 02c3 90000000 		.4byte	0x90
 647 02c7 02       		.byte	0x2
 648 02c8 23       		.byte	0x23
 649 02c9 04       		.uleb128 0x4
 650 02ca 0C       		.uleb128 0xc
 651 02cb 43495200 		.ascii	"CIR\000"
 652 02cf 05       		.byte	0x5
 653 02d0 4704     		.2byte	0x447
 654 02d2 90000000 		.4byte	0x90
 655 02d6 02       		.byte	0x2
 656 02d7 23       		.byte	0x23
 657 02d8 08       		.uleb128 0x8
 658 02d9 09       		.uleb128 0x9
 659 02da 8C010000 		.4byte	.LASF37
 660 02de 05       		.byte	0x5
 661 02df 4804     		.2byte	0x448
 662 02e1 90000000 		.4byte	0x90
 663 02e5 02       		.byte	0x2
 664 02e6 23       		.byte	0x23
 665 02e7 0C       		.uleb128 0xc
 666 02e8 09       		.uleb128 0x9
 667 02e9 CC000000 		.4byte	.LASF38
 668 02ed 05       		.byte	0x5
 669 02ee 4904     		.2byte	0x449
 670 02f0 90000000 		.4byte	0x90
 671 02f4 02       		.byte	0x2
 672 02f5 23       		.byte	0x23
 673 02f6 10       		.uleb128 0x10
 674 02f7 09       		.uleb128 0x9
 675 02f8 98000000 		.4byte	.LASF39
 676 02fc 05       		.byte	0x5
 677 02fd 4A04     		.2byte	0x44a
 678 02ff 90000000 		.4byte	0x90
 679 0303 02       		.byte	0x2
 680 0304 23       		.byte	0x23
ARM GAS  /tmp/ccTsyVFb.s 			page 13


 681 0305 14       		.uleb128 0x14
 682 0306 09       		.uleb128 0x9
 683 0307 DA010000 		.4byte	.LASF40
 684 030b 05       		.byte	0x5
 685 030c 4B04     		.2byte	0x44b
 686 030e 90000000 		.4byte	0x90
 687 0312 02       		.byte	0x2
 688 0313 23       		.byte	0x23
 689 0314 18       		.uleb128 0x18
 690 0315 09       		.uleb128 0x9
 691 0316 78010000 		.4byte	.LASF41
 692 031a 05       		.byte	0x5
 693 031b 4C04     		.2byte	0x44c
 694 031d 90000000 		.4byte	0x90
 695 0321 02       		.byte	0x2
 696 0322 23       		.byte	0x23
 697 0323 1C       		.uleb128 0x1c
 698 0324 09       		.uleb128 0x9
 699 0325 0E000000 		.4byte	.LASF42
 700 0329 05       		.byte	0x5
 701 032a 4D04     		.2byte	0x44d
 702 032c 90000000 		.4byte	0x90
 703 0330 02       		.byte	0x2
 704 0331 23       		.byte	0x23
 705 0332 20       		.uleb128 0x20
 706 0333 0C       		.uleb128 0xc
 707 0334 43535200 		.ascii	"CSR\000"
 708 0338 05       		.byte	0x5
 709 0339 4E04     		.2byte	0x44e
 710 033b 90000000 		.4byte	0x90
 711 033f 02       		.byte	0x2
 712 0340 23       		.byte	0x23
 713 0341 24       		.uleb128 0x24
 714 0342 00       		.byte	0x0
 715 0343 0A       		.uleb128 0xa
 716 0344 16020000 		.4byte	.LASF43
 717 0348 05       		.byte	0x5
 718 0349 5904     		.2byte	0x459
 719 034b A4020000 		.4byte	0x2a4
 720 034f 0D       		.uleb128 0xd
 721 0350 15010000 		.4byte	.LASF48
 722 0354 01       		.byte	0x1
 723 0355 38       		.byte	0x38
 724 0356 01       		.byte	0x1
 725 0357 01       		.byte	0x1
 726 0358 0E       		.uleb128 0xe
 727 0359 01       		.byte	0x1
 728 035a EA010000 		.4byte	.LASF49
 729 035e 01       		.byte	0x1
 730 035f 65       		.byte	0x65
 731 0360 01       		.byte	0x1
 732 0361 00000000 		.4byte	.LFB63
 733 0365 A0000000 		.4byte	.LFE63
 734 0369 00000000 		.4byte	.LLST0
 735 036d 81030000 		.4byte	0x381
 736 0371 0F       		.uleb128 0xf
 737 0372 4F030000 		.4byte	0x34f
ARM GAS  /tmp/ccTsyVFb.s 			page 14


 738 0376 36000000 		.4byte	.LBB4
 739 037a 00000000 		.4byte	.Ldebug_ranges0+0x0
 740 037e 01       		.byte	0x1
 741 037f 7B       		.byte	0x7b
 742 0380 00       		.byte	0x0
 743 0381 10       		.uleb128 0x10
 744 0382 01       		.byte	0x1
 745 0383 FC010000 		.4byte	.LASF50
 746 0387 01       		.byte	0x1
 747 0388 95       		.byte	0x95
 748 0389 01       		.byte	0x1
 749 038a 00000000 		.4byte	.LFB64
 750 038e 8C000000 		.4byte	.LFE64
 751 0392 02       		.byte	0x2
 752 0393 7D       		.byte	0x7d
 753 0394 00       		.sleb128 0
 754 0395 11       		.uleb128 0x11
 755 0396 37010000 		.4byte	.LASF44
 756 039a 04       		.byte	0x4
 757 039b 9404     		.2byte	0x494
 758 039d D2010000 		.4byte	0x1d2
 759 03a1 01       		.byte	0x1
 760 03a2 01       		.byte	0x1
 761 03a3 11       		.uleb128 0x11
 762 03a4 37010000 		.4byte	.LASF44
 763 03a8 04       		.byte	0x4
 764 03a9 9404     		.2byte	0x494
 765 03ab D2010000 		.4byte	0x1d2
 766 03af 01       		.byte	0x1
 767 03b0 01       		.byte	0x1
 768 03b1 00       		.byte	0x0
 769              		.section	.debug_abbrev
 770 0000 01       		.uleb128 0x1
 771 0001 11       		.uleb128 0x11
 772 0002 01       		.byte	0x1
 773 0003 25       		.uleb128 0x25
 774 0004 0E       		.uleb128 0xe
 775 0005 13       		.uleb128 0x13
 776 0006 0B       		.uleb128 0xb
 777 0007 03       		.uleb128 0x3
 778 0008 0E       		.uleb128 0xe
 779 0009 1B       		.uleb128 0x1b
 780 000a 0E       		.uleb128 0xe
 781 000b 11       		.uleb128 0x11
 782 000c 01       		.uleb128 0x1
 783 000d 52       		.uleb128 0x52
 784 000e 01       		.uleb128 0x1
 785 000f 55       		.uleb128 0x55
 786 0010 06       		.uleb128 0x6
 787 0011 10       		.uleb128 0x10
 788 0012 06       		.uleb128 0x6
 789 0013 00       		.byte	0x0
 790 0014 00       		.byte	0x0
 791 0015 02       		.uleb128 0x2
 792 0016 24       		.uleb128 0x24
 793 0017 00       		.byte	0x0
 794 0018 0B       		.uleb128 0xb
ARM GAS  /tmp/ccTsyVFb.s 			page 15


 795 0019 0B       		.uleb128 0xb
 796 001a 3E       		.uleb128 0x3e
 797 001b 0B       		.uleb128 0xb
 798 001c 03       		.uleb128 0x3
 799 001d 08       		.uleb128 0x8
 800 001e 00       		.byte	0x0
 801 001f 00       		.byte	0x0
 802 0020 03       		.uleb128 0x3
 803 0021 24       		.uleb128 0x24
 804 0022 00       		.byte	0x0
 805 0023 0B       		.uleb128 0xb
 806 0024 0B       		.uleb128 0xb
 807 0025 3E       		.uleb128 0x3e
 808 0026 0B       		.uleb128 0xb
 809 0027 03       		.uleb128 0x3
 810 0028 0E       		.uleb128 0xe
 811 0029 00       		.byte	0x0
 812 002a 00       		.byte	0x0
 813 002b 04       		.uleb128 0x4
 814 002c 16       		.uleb128 0x16
 815 002d 00       		.byte	0x0
 816 002e 03       		.uleb128 0x3
 817 002f 0E       		.uleb128 0xe
 818 0030 3A       		.uleb128 0x3a
 819 0031 0B       		.uleb128 0xb
 820 0032 3B       		.uleb128 0x3b
 821 0033 0B       		.uleb128 0xb
 822 0034 49       		.uleb128 0x49
 823 0035 13       		.uleb128 0x13
 824 0036 00       		.byte	0x0
 825 0037 00       		.byte	0x0
 826 0038 05       		.uleb128 0x5
 827 0039 35       		.uleb128 0x35
 828 003a 00       		.byte	0x0
 829 003b 49       		.uleb128 0x49
 830 003c 13       		.uleb128 0x13
 831 003d 00       		.byte	0x0
 832 003e 00       		.byte	0x0
 833 003f 06       		.uleb128 0x6
 834 0040 13       		.uleb128 0x13
 835 0041 01       		.byte	0x1
 836 0042 0B       		.uleb128 0xb
 837 0043 0B       		.uleb128 0xb
 838 0044 3A       		.uleb128 0x3a
 839 0045 0B       		.uleb128 0xb
 840 0046 3B       		.uleb128 0x3b
 841 0047 0B       		.uleb128 0xb
 842 0048 01       		.uleb128 0x1
 843 0049 13       		.uleb128 0x13
 844 004a 00       		.byte	0x0
 845 004b 00       		.byte	0x0
 846 004c 07       		.uleb128 0x7
 847 004d 0D       		.uleb128 0xd
 848 004e 00       		.byte	0x0
 849 004f 03       		.uleb128 0x3
 850 0050 0E       		.uleb128 0xe
 851 0051 3A       		.uleb128 0x3a
ARM GAS  /tmp/ccTsyVFb.s 			page 16


 852 0052 0B       		.uleb128 0xb
 853 0053 3B       		.uleb128 0x3b
 854 0054 0B       		.uleb128 0xb
 855 0055 49       		.uleb128 0x49
 856 0056 13       		.uleb128 0x13
 857 0057 38       		.uleb128 0x38
 858 0058 0A       		.uleb128 0xa
 859 0059 00       		.byte	0x0
 860 005a 00       		.byte	0x0
 861 005b 08       		.uleb128 0x8
 862 005c 13       		.uleb128 0x13
 863 005d 01       		.byte	0x1
 864 005e 0B       		.uleb128 0xb
 865 005f 0B       		.uleb128 0xb
 866 0060 3A       		.uleb128 0x3a
 867 0061 0B       		.uleb128 0xb
 868 0062 3B       		.uleb128 0x3b
 869 0063 05       		.uleb128 0x5
 870 0064 01       		.uleb128 0x1
 871 0065 13       		.uleb128 0x13
 872 0066 00       		.byte	0x0
 873 0067 00       		.byte	0x0
 874 0068 09       		.uleb128 0x9
 875 0069 0D       		.uleb128 0xd
 876 006a 00       		.byte	0x0
 877 006b 03       		.uleb128 0x3
 878 006c 0E       		.uleb128 0xe
 879 006d 3A       		.uleb128 0x3a
 880 006e 0B       		.uleb128 0xb
 881 006f 3B       		.uleb128 0x3b
 882 0070 05       		.uleb128 0x5
 883 0071 49       		.uleb128 0x49
 884 0072 13       		.uleb128 0x13
 885 0073 38       		.uleb128 0x38
 886 0074 0A       		.uleb128 0xa
 887 0075 00       		.byte	0x0
 888 0076 00       		.byte	0x0
 889 0077 0A       		.uleb128 0xa
 890 0078 16       		.uleb128 0x16
 891 0079 00       		.byte	0x0
 892 007a 03       		.uleb128 0x3
 893 007b 0E       		.uleb128 0xe
 894 007c 3A       		.uleb128 0x3a
 895 007d 0B       		.uleb128 0xb
 896 007e 3B       		.uleb128 0x3b
 897 007f 05       		.uleb128 0x5
 898 0080 49       		.uleb128 0x49
 899 0081 13       		.uleb128 0x13
 900 0082 00       		.byte	0x0
 901 0083 00       		.byte	0x0
 902 0084 0B       		.uleb128 0xb
 903 0085 26       		.uleb128 0x26
 904 0086 00       		.byte	0x0
 905 0087 49       		.uleb128 0x49
 906 0088 13       		.uleb128 0x13
 907 0089 00       		.byte	0x0
 908 008a 00       		.byte	0x0
ARM GAS  /tmp/ccTsyVFb.s 			page 17


 909 008b 0C       		.uleb128 0xc
 910 008c 0D       		.uleb128 0xd
 911 008d 00       		.byte	0x0
 912 008e 03       		.uleb128 0x3
 913 008f 08       		.uleb128 0x8
 914 0090 3A       		.uleb128 0x3a
 915 0091 0B       		.uleb128 0xb
 916 0092 3B       		.uleb128 0x3b
 917 0093 05       		.uleb128 0x5
 918 0094 49       		.uleb128 0x49
 919 0095 13       		.uleb128 0x13
 920 0096 38       		.uleb128 0x38
 921 0097 0A       		.uleb128 0xa
 922 0098 00       		.byte	0x0
 923 0099 00       		.byte	0x0
 924 009a 0D       		.uleb128 0xd
 925 009b 2E       		.uleb128 0x2e
 926 009c 00       		.byte	0x0
 927 009d 03       		.uleb128 0x3
 928 009e 0E       		.uleb128 0xe
 929 009f 3A       		.uleb128 0x3a
 930 00a0 0B       		.uleb128 0xb
 931 00a1 3B       		.uleb128 0x3b
 932 00a2 0B       		.uleb128 0xb
 933 00a3 27       		.uleb128 0x27
 934 00a4 0C       		.uleb128 0xc
 935 00a5 20       		.uleb128 0x20
 936 00a6 0B       		.uleb128 0xb
 937 00a7 00       		.byte	0x0
 938 00a8 00       		.byte	0x0
 939 00a9 0E       		.uleb128 0xe
 940 00aa 2E       		.uleb128 0x2e
 941 00ab 01       		.byte	0x1
 942 00ac 3F       		.uleb128 0x3f
 943 00ad 0C       		.uleb128 0xc
 944 00ae 03       		.uleb128 0x3
 945 00af 0E       		.uleb128 0xe
 946 00b0 3A       		.uleb128 0x3a
 947 00b1 0B       		.uleb128 0xb
 948 00b2 3B       		.uleb128 0x3b
 949 00b3 0B       		.uleb128 0xb
 950 00b4 27       		.uleb128 0x27
 951 00b5 0C       		.uleb128 0xc
 952 00b6 11       		.uleb128 0x11
 953 00b7 01       		.uleb128 0x1
 954 00b8 12       		.uleb128 0x12
 955 00b9 01       		.uleb128 0x1
 956 00ba 40       		.uleb128 0x40
 957 00bb 06       		.uleb128 0x6
 958 00bc 01       		.uleb128 0x1
 959 00bd 13       		.uleb128 0x13
 960 00be 00       		.byte	0x0
 961 00bf 00       		.byte	0x0
 962 00c0 0F       		.uleb128 0xf
 963 00c1 1D       		.uleb128 0x1d
 964 00c2 00       		.byte	0x0
 965 00c3 31       		.uleb128 0x31
ARM GAS  /tmp/ccTsyVFb.s 			page 18


 966 00c4 13       		.uleb128 0x13
 967 00c5 52       		.uleb128 0x52
 968 00c6 01       		.uleb128 0x1
 969 00c7 55       		.uleb128 0x55
 970 00c8 06       		.uleb128 0x6
 971 00c9 58       		.uleb128 0x58
 972 00ca 0B       		.uleb128 0xb
 973 00cb 59       		.uleb128 0x59
 974 00cc 0B       		.uleb128 0xb
 975 00cd 00       		.byte	0x0
 976 00ce 00       		.byte	0x0
 977 00cf 10       		.uleb128 0x10
 978 00d0 2E       		.uleb128 0x2e
 979 00d1 00       		.byte	0x0
 980 00d2 3F       		.uleb128 0x3f
 981 00d3 0C       		.uleb128 0xc
 982 00d4 03       		.uleb128 0x3
 983 00d5 0E       		.uleb128 0xe
 984 00d6 3A       		.uleb128 0x3a
 985 00d7 0B       		.uleb128 0xb
 986 00d8 3B       		.uleb128 0x3b
 987 00d9 0B       		.uleb128 0xb
 988 00da 27       		.uleb128 0x27
 989 00db 0C       		.uleb128 0xc
 990 00dc 11       		.uleb128 0x11
 991 00dd 01       		.uleb128 0x1
 992 00de 12       		.uleb128 0x12
 993 00df 01       		.uleb128 0x1
 994 00e0 40       		.uleb128 0x40
 995 00e1 0A       		.uleb128 0xa
 996 00e2 00       		.byte	0x0
 997 00e3 00       		.byte	0x0
 998 00e4 11       		.uleb128 0x11
 999 00e5 34       		.uleb128 0x34
 1000 00e6 00       		.byte	0x0
 1001 00e7 03       		.uleb128 0x3
 1002 00e8 0E       		.uleb128 0xe
 1003 00e9 3A       		.uleb128 0x3a
 1004 00ea 0B       		.uleb128 0xb
 1005 00eb 3B       		.uleb128 0x3b
 1006 00ec 05       		.uleb128 0x5
 1007 00ed 49       		.uleb128 0x49
 1008 00ee 13       		.uleb128 0x13
 1009 00ef 3F       		.uleb128 0x3f
 1010 00f0 0C       		.uleb128 0xc
 1011 00f1 3C       		.uleb128 0x3c
 1012 00f2 0C       		.uleb128 0xc
 1013 00f3 00       		.byte	0x0
 1014 00f4 00       		.byte	0x0
 1015 00f5 00       		.byte	0x0
 1016              		.section	.debug_pubnames,"",%progbits
 1017 0000 34000000 		.4byte	0x34
 1018 0004 0200     		.2byte	0x2
 1019 0006 00000000 		.4byte	.Ldebug_info0
 1020 000a B2030000 		.4byte	0x3b2
 1021 000e 58030000 		.4byte	0x358
 1022 0012 68616C5F 		.ascii	"hal_lld_init\000"
ARM GAS  /tmp/ccTsyVFb.s 			page 19


 1022      6C6C645F 
 1022      696E6974 
 1022      00
 1023 001f 81030000 		.4byte	0x381
 1024 0023 73746D33 		.ascii	"stm32_clock_init\000"
 1024      325F636C 
 1024      6F636B5F 
 1024      696E6974 
 1024      00
 1025 0034 00000000 		.4byte	0x0
 1026              		.section	.debug_pubtypes,"",%progbits
 1027 0000 8F000000 		.4byte	0x8f
 1028 0004 0200     		.2byte	0x2
 1029 0006 00000000 		.4byte	.Ldebug_info0
 1030 000a B2030000 		.4byte	0x3b2
 1031 000e 4C000000 		.4byte	0x4c
 1032 0012 75696E74 		.ascii	"uint16_t\000"
 1032      31365F74 
 1032      00
 1033 001b 5E000000 		.4byte	0x5e
 1034 001f 696E7433 		.ascii	"int32_t\000"
 1034      325F7400 
 1035 0027 70000000 		.4byte	0x70
 1036 002b 75696E74 		.ascii	"uint32_t\000"
 1036      33325F74 
 1036      00
 1037 0034 DB000000 		.4byte	0xdb
 1038 0038 434D785F 		.ascii	"CMx_SCS\000"
 1038      53435300 
 1039 0040 68010000 		.4byte	0x168
 1040 0044 434D785F 		.ascii	"CMx_DWT\000"
 1040      44575400 
 1041 004c C6010000 		.4byte	0x1c6
 1042 0050 53797354 		.ascii	"SysTick_Type\000"
 1042      69636B5F 
 1042      54797065 
 1042      00
 1043 005d 65020000 		.4byte	0x265
 1044 0061 464C4153 		.ascii	"FLASH_TypeDef\000"
 1044      485F5479 
 1044      70654465 
 1044      6600
 1045 006f 98020000 		.4byte	0x298
 1046 0073 5057525F 		.ascii	"PWR_TypeDef\000"
 1046      54797065 
 1046      44656600 
 1047 007f 43030000 		.4byte	0x343
 1048 0083 5243435F 		.ascii	"RCC_TypeDef\000"
 1048      54797065 
 1048      44656600 
 1049 008f 00000000 		.4byte	0x0
 1050              		.section	.debug_aranges,"",%progbits
 1051 0000 24000000 		.4byte	0x24
 1052 0004 0200     		.2byte	0x2
 1053 0006 00000000 		.4byte	.Ldebug_info0
 1054 000a 04       		.byte	0x4
 1055 000b 00       		.byte	0x0
ARM GAS  /tmp/ccTsyVFb.s 			page 20


 1056 000c 0000     		.2byte	0x0
 1057 000e 0000     		.2byte	0x0
 1058 0010 00000000 		.4byte	.LFB63
 1059 0014 A0000000 		.4byte	.LFE63-.LFB63
 1060 0018 00000000 		.4byte	.LFB64
 1061 001c 8C000000 		.4byte	.LFE64-.LFB64
 1062 0020 00000000 		.4byte	0x0
 1063 0024 00000000 		.4byte	0x0
 1064              		.section	.debug_ranges,"",%progbits
 1065              	.Ldebug_ranges0:
 1066 0000 36000000 		.4byte	.LBB4
 1067 0004 38000000 		.4byte	.LBE4
 1068 0008 4E000000 		.4byte	.LBB7
 1069 000c 84000000 		.4byte	.LBE7
 1070 0010 00000000 		.4byte	0x0
 1071 0014 00000000 		.4byte	0x0
 1072 0018 00000000 		.4byte	.LFB63
 1073 001c A0000000 		.4byte	.LFE63
 1074 0020 00000000 		.4byte	.LFB64
 1075 0024 8C000000 		.4byte	.LFE64
 1076 0028 00000000 		.4byte	0x0
 1077 002c 00000000 		.4byte	0x0
 1078              		.section	.debug_str,"MS",%progbits,1
 1079              	.LASF10:
 1080 0000 6C6F6E67 		.ascii	"long long int\000"
 1080      206C6F6E 
 1080      6720696E 
 1080      7400
 1081              	.LASF42:
 1082 000e 42444352 		.ascii	"BDCR\000"
 1082      00
 1083              	.LASF36:
 1084 0013 43464752 		.ascii	"CFGR\000"
 1084      00
 1085              	.LASF47:
 1086 0018 2F686F6D 		.ascii	"/home/z80/projects/ipm.git/soft/firmware/valve\000"
 1086      652F7A38 
 1086      302F7072 
 1086      6F6A6563 
 1086      74732F69 
 1087              	.LASF24:
 1088 0047 50435352 		.ascii	"PCSR\000"
 1088      00
 1089              	.LASF34:
 1090 004c 464C4153 		.ascii	"FLASH_TypeDef\000"
 1090      485F5479 
 1090      70654465 
 1090      6600
 1091              	.LASF25:
 1092 005a 434D785F 		.ascii	"CMx_DWT\000"
 1092      44575400 
 1093              	.LASF46:
 1094 0062 2E2E2F63 		.ascii	"../chibios_2.4.x/os/hal/platforms/STM32F1xx/hal_lld"
 1094      68696269 
 1094      6F735F32 
 1094      2E342E78 
 1094      2F6F732F 
ARM GAS  /tmp/ccTsyVFb.s 			page 21


 1095 0095 2E6300   		.ascii	".c\000"
 1096              	.LASF39:
 1097 0098 41484245 		.ascii	"AHBENR\000"
 1097      4E5200
 1098              	.LASF23:
 1099 009f 464F4C44 		.ascii	"FOLDCNT\000"
 1099      434E5400 
 1100              	.LASF33:
 1101 00a7 57525052 		.ascii	"WRPR\000"
 1101      00
 1102              	.LASF21:
 1103 00ac 534C4545 		.ascii	"SLEEPCNT\000"
 1103      50434E54 
 1103      00
 1104              	.LASF11:
 1105 00b5 6C6F6E67 		.ascii	"long long unsigned int\000"
 1105      206C6F6E 
 1105      6720756E 
 1105      7369676E 
 1105      65642069 
 1106              	.LASF38:
 1107 00cc 41504231 		.ascii	"APB1RSTR\000"
 1107      52535452 
 1107      00
 1108              	.LASF15:
 1109 00d5 44454D43 		.ascii	"DEMCR\000"
 1109      5200
 1110              	.LASF2:
 1111 00db 756E7369 		.ascii	"unsigned char\000"
 1111      676E6564 
 1111      20636861 
 1111      7200
 1112              	.LASF18:
 1113 00e9 43594343 		.ascii	"CYCCNT\000"
 1113      4E5400
 1114              	.LASF9:
 1115 00f0 6C6F6E67 		.ascii	"long unsigned int\000"
 1115      20756E73 
 1115      69676E65 
 1115      6420696E 
 1115      7400
 1116              	.LASF4:
 1117 0102 73686F72 		.ascii	"short unsigned int\000"
 1117      7420756E 
 1117      7369676E 
 1117      65642069 
 1117      6E7400
 1118              	.LASF48:
 1119 0115 68616C5F 		.ascii	"hal_lld_backup_domain_init\000"
 1119      6C6C645F 
 1119      6261636B 
 1119      75705F64 
 1119      6F6D6169 
 1120              	.LASF19:
 1121 0130 43504943 		.ascii	"CPICNT\000"
 1121      4E5400
 1122              	.LASF44:
ARM GAS  /tmp/ccTsyVFb.s 			page 22


 1123 0137 49544D5F 		.ascii	"ITM_RxBuffer\000"
 1123      52784275 
 1123      66666572 
 1123      00
 1124              	.LASF12:
 1125 0144 44484353 		.ascii	"DHCSR\000"
 1125      5200
 1126              	.LASF31:
 1127 014a 4F50544B 		.ascii	"OPTKEYR\000"
 1127      45595200 
 1128              	.LASF35:
 1129 0152 5057525F 		.ascii	"PWR_TypeDef\000"
 1129      54797065 
 1129      44656600 
 1130              	.LASF32:
 1131 015e 52455345 		.ascii	"RESERVED\000"
 1131      52564544 
 1131      00
 1132              	.LASF3:
 1133 0167 73686F72 		.ascii	"short int\000"
 1133      7420696E 
 1133      7400
 1134              	.LASF22:
 1135 0171 4C535543 		.ascii	"LSUCNT\000"
 1135      4E5400
 1136              	.LASF41:
 1137 0178 41504231 		.ascii	"APB1ENR\000"
 1137      454E5200 
 1138              	.LASF45:
 1139 0180 474E5520 		.ascii	"GNU C 4.5.2\000"
 1139      4320342E 
 1139      352E3200 
 1140              	.LASF37:
 1141 018c 41504232 		.ascii	"APB2RSTR\000"
 1141      52535452 
 1141      00
 1142              	.LASF13:
 1143 0195 44435253 		.ascii	"DCRSR\000"
 1143      5200
 1144              	.LASF0:
 1145 019b 756E7369 		.ascii	"unsigned int\000"
 1145      676E6564 
 1145      20696E74 
 1145      00
 1146              	.LASF26:
 1147 01a8 63686172 		.ascii	"char\000"
 1147      00
 1148              	.LASF29:
 1149 01ad 53797354 		.ascii	"SysTick_Type\000"
 1149      69636B5F 
 1149      54797065 
 1149      00
 1150              	.LASF14:
 1151 01ba 44435244 		.ascii	"DCRDR\000"
 1151      5200
 1152              	.LASF17:
 1153 01c0 4354524C 		.ascii	"CTRL\000"
ARM GAS  /tmp/ccTsyVFb.s 			page 23


 1153      00
 1154              	.LASF20:
 1155 01c5 45584343 		.ascii	"EXCCNT\000"
 1155      4E5400
 1156              	.LASF6:
 1157 01cc 696E7433 		.ascii	"int32_t\000"
 1157      325F7400 
 1158              	.LASF28:
 1159 01d4 43414C49 		.ascii	"CALIB\000"
 1159      4200
 1160              	.LASF40:
 1161 01da 41504232 		.ascii	"APB2ENR\000"
 1161      454E5200 
 1162              	.LASF16:
 1163 01e2 434D785F 		.ascii	"CMx_SCS\000"
 1163      53435300 
 1164              	.LASF49:
 1165 01ea 68616C5F 		.ascii	"hal_lld_init\000"
 1165      6C6C645F 
 1165      696E6974 
 1165      00
 1166              	.LASF27:
 1167 01f7 4C4F4144 		.ascii	"LOAD\000"
 1167      00
 1168              	.LASF50:
 1169 01fc 73746D33 		.ascii	"stm32_clock_init\000"
 1169      325F636C 
 1169      6F636B5F 
 1169      696E6974 
 1169      00
 1170              	.LASF5:
 1171 020d 75696E74 		.ascii	"uint16_t\000"
 1171      31365F74 
 1171      00
 1172              	.LASF43:
 1173 0216 5243435F 		.ascii	"RCC_TypeDef\000"
 1173      54797065 
 1173      44656600 
 1174              	.LASF8:
 1175 0222 75696E74 		.ascii	"uint32_t\000"
 1175      33325F74 
 1175      00
 1176              	.LASF7:
 1177 022b 6C6F6E67 		.ascii	"long int\000"
 1177      20696E74 
 1177      00
 1178              	.LASF30:
 1179 0234 4B455952 		.ascii	"KEYR\000"
 1179      00
 1180              	.LASF1:
 1181 0239 7369676E 		.ascii	"signed char\000"
 1181      65642063 
 1181      68617200 
 1182              		.ident	"GCC: (Sourcery G++ Lite 2011.03-42) 4.5.2"
ARM GAS  /tmp/ccTsyVFb.s 			page 24


DEFINED SYMBOLS
                            *ABS*:00000000 hal_lld.c
     /tmp/ccTsyVFb.s:24     .text.hal_lld_init:00000000 $t
     /tmp/ccTsyVFb.s:30     .text.hal_lld_init:00000000 hal_lld_init
     /tmp/ccTsyVFb.s:140    .text.hal_lld_init:0000008c $d
     /tmp/ccTsyVFb.s:149    .text.stm32_clock_init:00000000 $t
     /tmp/ccTsyVFb.s:155    .text.stm32_clock_init:00000000 stm32_clock_init
     /tmp/ccTsyVFb.s:250    .text.stm32_clock_init:00000080 $d
                     .debug_frame:00000010 $d
     /tmp/ccTsyVFb.s:256    .text.stm32_clock_init:0000008c $t

UNDEFINED SYMBOLS
dmaInit
