ARM GAS  /tmp/ccoH6HWW.s 			page 1


   1              		.syntax unified
   2              		.cpu cortex-m3
   3              		.fpu softvfp
   4              		.eabi_attribute 20, 1
   5              		.eabi_attribute 21, 1
   6              		.eabi_attribute 23, 3
   7              		.eabi_attribute 24, 1
   8              		.eabi_attribute 25, 1
   9              		.eabi_attribute 26, 1
  10              		.eabi_attribute 30, 6
  11              		.eabi_attribute 18, 4
  12              		.thumb
  13              		.file	"hal_lld.c"
  20 0000 CF010000 		.text
  20      02004E01 
  20      00000201 
  20      FB0E0D00 
  20      01010101 
  21              	.Ltext0:
  22              		.cfi_sections	.debug_frame
  23              		.section	.text.hal_lld_backup_domain_init,"ax",%progbits
  24              		.align	2
  25              		.p2align 4,,15
  26              		.thumb
  27              		.thumb_func
  28              		.type	hal_lld_backup_domain_init, %function
  29              	hal_lld_backup_domain_init:
  30              	.LFB62:
  31              		.file 1 "../chibios_2.4.x/os/hal/platforms/STM32F1xx/hal_lld.c"
  32              		.loc 1 56 0
  33              		.cfi_startproc
  34              		@ args = 0, pretend = 0, frame = 0
  35              		@ frame_needed = 0, uses_anonymous_args = 0
  36              		@ link register save eliminated.
  37              		.loc 1 59 0
  38 0000 134B     		ldr	r3, .L4
  39 0002 134A     		ldr	r2, .L4
  40 0004 1268     		ldr	r2, [r2, #0]
  41 0006 42F48072 		orr	r2, r2, #256
  42 000a 1A60     		str	r2, [r3, #0]
  43              		.loc 1 62 0
  44 000c 114B     		ldr	r3, .L4+4
  45 000e 1B6A     		ldr	r3, [r3, #32]
  46 0010 03F44073 		and	r3, r3, #768
  47 0014 B3F5407F 		cmp	r3, #768
  48 0018 07D0     		beq	.L2
  49              		.loc 1 64 0
  50 001a 0E4B     		ldr	r3, .L4+4
  51 001c 4FF48032 		mov	r2, #65536
  52 0020 1A62     		str	r2, [r3, #32]
  53              		.loc 1 65 0
ARM GAS  /tmp/ccoH6HWW.s 			page 2


  54 0022 0C4B     		ldr	r3, .L4+4
  55 0024 4FF00002 		mov	r2, #0
  56 0028 1A62     		str	r2, [r3, #32]
  57              	.L2:
  58              		.loc 1 78 0
  59 002a 0A4B     		ldr	r3, .L4+4
  60 002c 1B6A     		ldr	r3, [r3, #32]
  61 002e 03F40043 		and	r3, r3, #32768
  62 0032 002B     		cmp	r3, #0
  63 0034 0BD1     		bne	.L1
  64              		.loc 1 80 0
  65 0036 074B     		ldr	r3, .L4+4
  66 0038 064A     		ldr	r2, .L4+4
  67 003a 126A     		ldr	r2, [r2, #32]
  68 003c 42F44072 		orr	r2, r2, #768
  69 0040 1A62     		str	r2, [r3, #32]
  70              		.loc 1 83 0
  71 0042 044B     		ldr	r3, .L4+4
  72 0044 034A     		ldr	r2, .L4+4
  73 0046 126A     		ldr	r2, [r2, #32]
  74 0048 42F40042 		orr	r2, r2, #32768
  75 004c 1A62     		str	r2, [r3, #32]
  76              	.L1:
  77              		.loc 1 86 0
  78 004e 7047     		bx	lr
  79              	.L5:
  80              		.align	2
  81              	.L4:
  82 0050 00700040 		.word	1073770496
  83 0054 00100240 		.word	1073876992
  84              		.cfi_endproc
  85              	.LFE62:
  86              		.size	hal_lld_backup_domain_init, .-hal_lld_backup_domain_init
  87 0058 AFF30080 		.section	.text.hal_lld_init,"ax",%progbits
  87      AFF30080 
  88              		.align	2
  89              		.p2align 4,,15
  90              		.global	hal_lld_init
  91              		.thumb
  92              		.thumb_func
  93              		.type	hal_lld_init, %function
  94              	hal_lld_init:
  95              	.LFB63:
  96              		.loc 1 101 0
  97              		.cfi_startproc
  98              		@ args = 0, pretend = 0, frame = 0
  99              		@ frame_needed = 0, uses_anonymous_args = 0
 100 0000 08B5     		push	{r3, lr}
 101              	.LCFI0:
 102              		.cfi_def_cfa_offset 8
 103              		.loc 1 104 0
 104 0002 1E4B     		ldr	r3, .L7
 105              		.cfi_offset 14, -4
 106              		.cfi_offset 3, -8
 107 0004 1B69     		ldr	r3, [r3, #16]
 108 0006 1D4B     		ldr	r3, .L7
 109 0008 4FF0FF32 		mov	r2, #-1
ARM GAS  /tmp/ccoH6HWW.s 			page 3


 110 000c 1A61     		str	r2, [r3, #16]
 111 000e 1B4B     		ldr	r3, .L7
 112 0010 4FF00002 		mov	r2, #0
 113 0014 1A61     		str	r2, [r3, #16]
 114              		.loc 1 105 0
 115 0016 194B     		ldr	r3, .L7
 116 0018 DB68     		ldr	r3, [r3, #12]
 117 001a 184B     		ldr	r3, .L7
 118 001c 4FF0FF32 		mov	r2, #-1
 119 0020 DA60     		str	r2, [r3, #12]
 120 0022 164B     		ldr	r3, .L7
 121 0024 4FF00002 		mov	r2, #0
 122 0028 DA60     		str	r2, [r3, #12]
 123              		.loc 1 108 0
 124 002a 154B     		ldr	r3, .L7+4
 125 002c 4BF67F32 		movw	r2, #47999
 126 0030 5A60     		str	r2, [r3, #4]
 127              		.loc 1 109 0
 128 0032 134B     		ldr	r3, .L7+4
 129 0034 4FF00002 		mov	r2, #0
 130 0038 9A60     		str	r2, [r3, #8]
 131              		.loc 1 110 0
 132 003a 114B     		ldr	r3, .L7+4
 133 003c 4FF00702 		mov	r2, #7
 134 0040 1A60     		str	r2, [r3, #0]
 135              		.loc 1 115 0
 136 0042 104B     		ldr	r3, .L7+8
 137 0044 0F4A     		ldr	r2, .L7+8
 138 0046 D268     		ldr	r2, [r2, #12]
 139 0048 42F08072 		orr	r2, r2, #16777216
 140 004c DA60     		str	r2, [r3, #12]
 141              		.loc 1 116 0
 142 004e 0E4B     		ldr	r3, .L7+12
 143 0050 0D4A     		ldr	r2, .L7+12
 144 0052 1268     		ldr	r2, [r2, #0]
 145 0054 42F00102 		orr	r2, r2, #1
 146 0058 1A60     		str	r2, [r3, #0]
 147              		.loc 1 119 0
 148 005a 084B     		ldr	r3, .L7
 149 005c 074A     		ldr	r2, .L7
 150 005e D269     		ldr	r2, [r2, #28]
 151 0060 42F08052 		orr	r2, r2, #268435456
 152 0064 DA61     		str	r2, [r3, #28]
 153              		.loc 1 120 0
 154 0066 054B     		ldr	r3, .L7
 155 0068 044A     		ldr	r2, .L7
 156 006a D269     		ldr	r2, [r2, #28]
 157 006c 42F00062 		orr	r2, r2, #134217728
 158 0070 DA61     		str	r2, [r3, #28]
 159              		.loc 1 123 0
 160 0072 FFF7FEFF 		bl	hal_lld_backup_domain_init
 161              		.loc 1 126 0
 162 0076 FFF7FEFF 		bl	dmaInit
 163              		.loc 1 133 0
 164 007a 08BD     		pop	{r3, pc}
 165              	.L8:
 166              		.align	2
ARM GAS  /tmp/ccoH6HWW.s 			page 4


 167              	.L7:
 168 007c 00100240 		.word	1073876992
 169 0080 10E000E0 		.word	-536813552
 170 0084 F0ED00E0 		.word	-536810000
 171 0088 001000E0 		.word	-536866816
 172              		.cfi_endproc
 173              	.LFE63:
 174              		.size	hal_lld_init, .-hal_lld_init
 175 008c AFF30080 		.section	.text.stm32_clock_init,"ax",%progbits
 176              		.align	2
 177              		.p2align 4,,15
 178              		.global	stm32_clock_init
 179              		.thumb
 180              		.thumb_func
 181              		.type	stm32_clock_init, %function
 182              	stm32_clock_init:
 183              	.LFB64:
 184              		.loc 1 149 0
 185              		.cfi_startproc
 186              		@ args = 0, pretend = 0, frame = 0
 187              		@ frame_needed = 0, uses_anonymous_args = 0
 188              		@ link register save eliminated.
 189              		.loc 1 154 0
 190 0000 294B     		ldr	r3, .L15
 191 0002 294A     		ldr	r2, .L15
 192 0004 1268     		ldr	r2, [r2, #0]
 193 0006 42F00102 		orr	r2, r2, #1
 194 000a 1A60     		str	r2, [r3, #0]
 195              		.loc 1 155 0
 196 000c 00BF     		nop
 197              	.L10:
 198              		.loc 1 155 0 is_stmt 0 discriminator 1
 199 000e 264B     		ldr	r3, .L15
 200 0010 1B68     		ldr	r3, [r3, #0]
 201 0012 03F00203 		and	r3, r3, #2
 202 0016 002B     		cmp	r3, #0
 203 0018 F9D0     		beq	.L10
 204              		.loc 1 157 0 is_stmt 1
 205 001a 234B     		ldr	r3, .L15
 206 001c 224A     		ldr	r2, .L15
 207 001e 1268     		ldr	r2, [r2, #0]
 208 0020 02F0F902 		and	r2, r2, #249
 209 0024 1A60     		str	r2, [r3, #0]
 210              		.loc 1 158 0
 211 0026 204B     		ldr	r3, .L15
 212 0028 4FF00002 		mov	r2, #0
 213 002c 5A60     		str	r2, [r3, #4]
 214              		.loc 1 159 0
 215 002e 00BF     		nop
 216              	.L11:
 217              		.loc 1 159 0 is_stmt 0 discriminator 1
 218 0030 1D4B     		ldr	r3, .L15
 219 0032 5B68     		ldr	r3, [r3, #4]
 220 0034 03F00C03 		and	r3, r3, #12
 221 0038 002B     		cmp	r3, #0
 222 003a F9D1     		bne	.L11
 223              		.loc 1 164 0 is_stmt 1
ARM GAS  /tmp/ccoH6HWW.s 			page 5


 224 003c 1A4B     		ldr	r3, .L15
 225 003e 1A4A     		ldr	r2, .L15
 226 0040 1268     		ldr	r2, [r2, #0]
 227 0042 42F48032 		orr	r2, r2, #65536
 228 0046 1A60     		str	r2, [r3, #0]
 229              		.loc 1 165 0
 230 0048 00BF     		nop
 231              	.L12:
 232              		.loc 1 165 0 is_stmt 0 discriminator 1
 233 004a 174B     		ldr	r3, .L15
 234 004c 1B68     		ldr	r3, [r3, #0]
 235 004e 03F40033 		and	r3, r3, #131072
 236 0052 002B     		cmp	r3, #0
 237 0054 F9D0     		beq	.L12
 238              		.loc 1 178 0 is_stmt 1
 239 0056 144B     		ldr	r3, .L15
 240 0058 134A     		ldr	r2, .L15
 241 005a 5268     		ldr	r2, [r2, #4]
 242 005c 42F4A022 		orr	r2, r2, #327680
 243 0060 5A60     		str	r2, [r3, #4]
 244              		.loc 1 179 0
 245 0062 114B     		ldr	r3, .L15
 246 0064 104A     		ldr	r2, .L15
 247 0066 1268     		ldr	r2, [r2, #0]
 248 0068 42F08072 		orr	r2, r2, #16777216
 249 006c 1A60     		str	r2, [r3, #0]
 250              		.loc 1 180 0
 251 006e 00BF     		nop
 252              	.L13:
 253              		.loc 1 180 0 is_stmt 0 discriminator 1
 254 0070 0D4B     		ldr	r3, .L15
 255 0072 1B68     		ldr	r3, [r3, #0]
 256 0074 03F00073 		and	r3, r3, #33554432
 257 0078 002B     		cmp	r3, #0
 258 007a F9D0     		beq	.L13
 259              		.loc 1 186 0 is_stmt 1
 260 007c 0A4B     		ldr	r3, .L15
 261 007e 0B4A     		ldr	r2, .L15+4
 262 0080 5A60     		str	r2, [r3, #4]
 263              		.loc 1 196 0
 264 0082 0B4B     		ldr	r3, .L15+8
 265 0084 4FF01002 		mov	r2, #16
 266 0088 1A60     		str	r2, [r3, #0]
 267              		.loc 1 201 0
 268 008a 074B     		ldr	r3, .L15
 269 008c 064A     		ldr	r2, .L15
 270 008e 5268     		ldr	r2, [r2, #4]
 271 0090 42F00202 		orr	r2, r2, #2
 272 0094 5A60     		str	r2, [r3, #4]
 273              		.loc 1 202 0
 274 0096 00BF     		nop
 275              	.L14:
 276              		.loc 1 202 0 is_stmt 0 discriminator 1
 277 0098 034B     		ldr	r3, .L15
 278 009a 5B68     		ldr	r3, [r3, #4]
 279 009c 03F00C03 		and	r3, r3, #12
 280 00a0 082B     		cmp	r3, #8
ARM GAS  /tmp/ccoH6HWW.s 			page 6


 281 00a2 F9D1     		bne	.L14
 282              		.loc 1 206 0 is_stmt 1
 283 00a4 7047     		bx	lr
 284              	.L16:
 285 00a6 00BF     		.align	2
 286              	.L15:
 287 00a8 00100240 		.word	1073876992
 288 00ac 00640500 		.word	353280
 289 00b0 00200240 		.word	1073881088
 290              		.cfi_endproc
 291              	.LFE64:
 292              		.size	stm32_clock_init, .-stm32_clock_init
 293 00b4 AFF30080 		.text
 293      AFF30080 
 293      AFF30080 
 294              	.Letext0: