ARM GAS  C:\Users\z80\AppData\Local\Temp\cck8eIfH.s 			page 1


   1              		.syntax unified
   2              		.cpu cortex-m3
   3              		.fpu softvfp
   4              		.eabi_attribute 20, 1
   5              		.eabi_attribute 21, 1
   6              		.eabi_attribute 23, 3
   7              		.eabi_attribute 24, 1
   8              		.eabi_attribute 25, 1
   9              		.eabi_attribute 26, 1
  10              		.eabi_attribute 30, 2
  11              		.eabi_attribute 18, 4
  12              		.thumb
  13              		.file	"i2c.c"
  14              		.section	.debug_abbrev,"",%progbits
  15              	.Ldebug_abbrev0:
  16              		.section	.debug_info,"",%progbits
  17              	.Ldebug_info0:
  18              		.section	.debug_line,"",%progbits
  19              	.Ldebug_line0:
  20 0000 B9030000 		.text
  20      02004302 
  20      00000201 
  20      FB0E0D00 
  20      01010101 
  21              	.Ltext0:
  22              		.cfi_sections	.debug_frame
  23              		.section	.text.i2cInit,"ax",%progbits
  24              		.align	2
  25              		.p2align 4,,15
  26              		.global	i2cInit
  27              		.thumb
  28              		.thumb_func
  29              		.type	i2cInit, %function
  30              	i2cInit:
  31              	.LFB62:
  32              		.file 1 "../chibios_2.4.x/os/hal/src/i2c.c"
  33              		.loc 1 71 0
  34              		.cfi_startproc
  35              		@ args = 0, pretend = 0, frame = 0
  36              		@ frame_needed = 0, uses_anonymous_args = 0
  37 0000 08B5     		push	{r3, lr}
  38              	.LCFI0:
  39              		.cfi_def_cfa_offset 8
  40              		.loc 1 72 0
  41              		.cfi_offset 14, -4
  42              		.cfi_offset 3, -8
  43 0002 FFF7FEFF 		bl	i2c_lld_init
  44              		.loc 1 73 0
  45 0006 08BD     		pop	{r3, pc}
  46              		.cfi_endproc
  47              	.LFE62:
  48              		.size	i2cInit, .-i2cInit
  49 0008 AFF30080 		.section	.text.i2cObjectInit,"ax",%progbits
  49      AFF30080 
  50              		.align	2
  51              		.p2align 4,,15
  52              		.global	i2cObjectInit
ARM GAS  C:\Users\z80\AppData\Local\Temp\cck8eIfH.s 			page 2


  53              		.thumb
  54              		.thumb_func
  55              		.type	i2cObjectInit, %function
  56              	i2cObjectInit:
  57              	.LFB63:
  58              		.loc 1 82 0
  59              		.cfi_startproc
  60              		@ args = 0, pretend = 0, frame = 0
  61              		@ frame_needed = 0, uses_anonymous_args = 0
  62              	.LVL0:
  63 0000 08B5     		push	{r3, lr}
  64              	.LCFI1:
  65              		.cfi_def_cfa_offset 8
  66              		.loc 1 84 0
  67 0002 0122     		movs	r2, #1
  68              		.loc 1 82 0
  69 0004 0346     		mov	r3, r0
  70              		.cfi_offset 14, -4
  71              		.cfi_offset 3, -8
  72              		.loc 1 84 0
  73 0006 1A70     		strb	r2, [r3, #0]
  74              		.loc 1 85 0
  75 0008 0022     		movs	r2, #0
  76              		.loc 1 89 0
  77 000a 00F10C00 		add	r0, r0, #12
  78              	.LVL1:
  79              		.loc 1 85 0
  80 000e 5A60     		str	r2, [r3, #4]
  81              		.loc 1 89 0
  82 0010 FFF7FEFF 		bl	chMtxInit
  83              	.LVL2:
  84              		.loc 1 98 0
  85 0014 08BD     		pop	{r3, pc}
  86              		.cfi_endproc
  87              	.LFE63:
  88              		.size	i2cObjectInit, .-i2cObjectInit
  89 0016 00BFAFF3 		.section	.text.i2cStart,"ax",%progbits
  89      0080AFF3 
  89      0080
  90              		.align	2
  91              		.p2align 4,,15
  92              		.global	i2cStart
  93              		.thumb
  94              		.thumb_func
  95              		.type	i2cStart, %function
  96              	i2cStart:
  97              	.LFB64:
  98              		.loc 1 108 0
  99              		.cfi_startproc
 100              		@ args = 0, pretend = 0, frame = 0
 101              		@ frame_needed = 0, uses_anonymous_args = 0
 102              	.LVL3:
 103 0000 38B5     		push	{r3, r4, r5, lr}
 104              	.LCFI2:
 105              		.cfi_def_cfa_offset 16
 106              		.loc 1 110 0
 107 0002 D0F10103 		rsbs	r3, r0, #1
ARM GAS  C:\Users\z80\AppData\Local\Temp\cck8eIfH.s 			page 3


 108 0006 38BF     		it	cc
 109 0008 0023     		movcc	r3, #0
 110              		.cfi_offset 14, -4
 111              		.cfi_offset 5, -8
 112              		.cfi_offset 4, -12
 113              		.cfi_offset 3, -16
 114 000a 0029     		cmp	r1, #0
 115 000c 08BF     		it	eq
 116 000e 43F00103 		orreq	r3, r3, #1
 117              		.loc 1 108 0
 118 0012 0446     		mov	r4, r0
 119 0014 0D46     		mov	r5, r1
 120              		.loc 1 110 0
 121 0016 002B     		cmp	r3, #0
 122 0018 1FD1     		bne	.L7
 123              	.LVL4:
 124              	.L4:
 125              		.loc 1 111 0
 126 001a 2378     		ldrb	r3, [r4, #0]	@ zero_extendqisi2
 127 001c 5A1E     		subs	r2, r3, #1
 128 001e D2B2     		uxtb	r2, r2
 129 0020 053B     		subs	r3, r3, #5
 130 0022 18BF     		it	ne
 131 0024 0123     		movne	r3, #1
 132 0026 012A     		cmp	r2, #1
 133 0028 94BF     		ite	ls
 134 002a 0023     		movls	r3, #0
 135 002c 03F00103 		andhi	r3, r3, #1
 136 0030 13B1     		cbz	r3, .L5
 137              		.loc 1 111 0 is_stmt 0 discriminator 1
 138 0032 0C48     		ldr	r0, .L8
 139 0034 FFF7FEFF 		bl	chDbgPanic
 140              	.L5:
 141              	.LBB2:
 142              		.loc 1 116 0 is_stmt 1
 143 0038 2023     		movs	r3, #32
 144              	.LVL5:
 145              	@ 116 "../chibios_2.4.x/os/hal/src/i2c.c" 1
 146 003a 83F31188 		msr     BASEPRI, r3
 147              	@ 0 "" 2
 148              	.LVL6:
 149              		.thumb
 150              	.LBE2:
 151 003e FFF7FEFF 		bl	dbg_check_lock
 152              	.LVL7:
 153              		.loc 1 118 0
 154 0042 2046     		mov	r0, r4
 155              		.loc 1 117 0
 156 0044 6560     		str	r5, [r4, #4]
 157              		.loc 1 118 0
 158 0046 FFF7FEFF 		bl	i2c_lld_start
 159              		.loc 1 119 0
 160 004a 0223     		movs	r3, #2
 161 004c 2370     		strb	r3, [r4, #0]
 162              		.loc 1 120 0
 163 004e FFF7FEFF 		bl	dbg_check_unlock
 164              	.LBB3:
ARM GAS  C:\Users\z80\AppData\Local\Temp\cck8eIfH.s 			page 4


 165 0052 0023     		movs	r3, #0
 166              	.LVL8:
 167              	@ 120 "../chibios_2.4.x/os/hal/src/i2c.c" 1
 168 0054 83F31188 		msr     BASEPRI, r3
 169              	@ 0 "" 2
 170              	.LVL9:
 171              		.thumb
 172              	.LBE3:
 173              		.loc 1 121 0
 174 0058 38BD     		pop	{r3, r4, r5, pc}
 175              	.LVL10:
 176              	.L7:
 177              		.loc 1 110 0 discriminator 1
 178 005a 0348     		ldr	r0, .L8+4
 179 005c FFF7FEFF 		bl	chDbgPanic
 180 0060 DBE7     		b	.L4
 181              	.L9:
 182 0062 00BF     		.align	2
 183              	.L8:
 184 0064 10000000 		.word	.LC1
 185 0068 00000000 		.word	.LC0
 186              		.cfi_endproc
 187              	.LFE64:
 188              		.size	i2cStart, .-i2cStart
 189 006c AFF30080 		.section	.text.i2cStop,"ax",%progbits
 190              		.align	2
 191              		.p2align 4,,15
 192              		.global	i2cStop
 193              		.thumb
 194              		.thumb_func
 195              		.type	i2cStop, %function
 196              	i2cStop:
 197              	.LFB65:
 198              		.loc 1 130 0
 199              		.cfi_startproc
 200              		@ args = 0, pretend = 0, frame = 0
 201              		@ frame_needed = 0, uses_anonymous_args = 0
 202              	.LVL11:
 203 0000 10B5     		push	{r4, lr}
 204              	.LCFI3:
 205              		.cfi_def_cfa_offset 8
 206              		.loc 1 130 0
 207 0002 0446     		mov	r4, r0
 208              		.cfi_offset 14, -4
 209              		.cfi_offset 4, -8
 210              		.loc 1 132 0
 211 0004 F0B1     		cbz	r0, .L13
 212              	.LVL12:
 213              	.L11:
 214              		.loc 1 133 0
 215 0006 2378     		ldrb	r3, [r4, #0]	@ zero_extendqisi2
 216 0008 5A1E     		subs	r2, r3, #1
 217 000a D2B2     		uxtb	r2, r2
 218 000c 053B     		subs	r3, r3, #5
 219 000e 18BF     		it	ne
 220 0010 0123     		movne	r3, #1
 221 0012 012A     		cmp	r2, #1
ARM GAS  C:\Users\z80\AppData\Local\Temp\cck8eIfH.s 			page 5


 222 0014 94BF     		ite	ls
 223 0016 0023     		movls	r3, #0
 224 0018 03F00103 		andhi	r3, r3, #1
 225 001c 13B1     		cbz	r3, .L12
 226              		.loc 1 133 0 is_stmt 0 discriminator 1
 227 001e 0B48     		ldr	r0, .L14
 228 0020 FFF7FEFF 		bl	chDbgPanic
 229              	.L12:
 230              	.LBB4:
 231              		.loc 1 138 0 is_stmt 1
 232 0024 2023     		movs	r3, #32
 233              	.LVL13:
 234              	@ 138 "../chibios_2.4.x/os/hal/src/i2c.c" 1
 235 0026 83F31188 		msr     BASEPRI, r3
 236              	@ 0 "" 2
 237              	.LVL14:
 238              		.thumb
 239              	.LBE4:
 240 002a FFF7FEFF 		bl	dbg_check_lock
 241              	.LVL15:
 242              		.loc 1 139 0
 243 002e 2046     		mov	r0, r4
 244 0030 FFF7FEFF 		bl	i2c_lld_stop
 245              		.loc 1 140 0
 246 0034 0123     		movs	r3, #1
 247 0036 2370     		strb	r3, [r4, #0]
 248              		.loc 1 141 0
 249 0038 FFF7FEFF 		bl	dbg_check_unlock
 250              	.LBB5:
 251 003c 0023     		movs	r3, #0
 252              	.LVL16:
 253              	@ 141 "../chibios_2.4.x/os/hal/src/i2c.c" 1
 254 003e 83F31188 		msr     BASEPRI, r3
 255              	@ 0 "" 2
 256              	.LVL17:
 257              		.thumb
 258              	.LBE5:
 259              		.loc 1 142 0
 260 0042 10BD     		pop	{r4, pc}
 261              	.LVL18:
 262              	.L13:
 263              		.loc 1 132 0 discriminator 1
 264 0044 0248     		ldr	r0, .L14+4
 265 0046 FFF7FEFF 		bl	chDbgPanic
 266 004a DCE7     		b	.L11
 267              	.L15:
 268              		.align	2
 269              	.L14:
 270 004c 2C000000 		.word	.LC3
 271 0050 20000000 		.word	.LC2
 272              		.cfi_endproc
 273              	.LFE65:
 274              		.size	i2cStop, .-i2cStop
 275 0054 AFF30080 		.section	.text.i2cGetErrors,"ax",%progbits
 275      AFF30080 
 275      AFF30080 
 276              		.align	2
ARM GAS  C:\Users\z80\AppData\Local\Temp\cck8eIfH.s 			page 6


 277              		.p2align 4,,15
 278              		.global	i2cGetErrors
 279              		.thumb
 280              		.thumb_func
 281              		.type	i2cGetErrors, %function
 282              	i2cGetErrors:
 283              	.LFB66:
 284              		.loc 1 152 0
 285              		.cfi_startproc
 286              		@ args = 0, pretend = 0, frame = 0
 287              		@ frame_needed = 0, uses_anonymous_args = 0
 288              	.LVL19:
 289 0000 10B5     		push	{r4, lr}
 290              	.LCFI4:
 291              		.cfi_def_cfa_offset 8
 292              		.loc 1 152 0
 293 0002 0446     		mov	r4, r0
 294              		.cfi_offset 14, -4
 295              		.cfi_offset 4, -8
 296              		.loc 1 154 0
 297 0004 08B1     		cbz	r0, .L18
 298              	.LVL20:
 299              	.L17:
 300 0006 A068     		ldr	r0, [r4, #8]
 301              		.loc 1 157 0
 302 0008 10BD     		pop	{r4, pc}
 303              	.L18:
 304              		.loc 1 154 0 discriminator 1
 305 000a 0248     		ldr	r0, .L19
 306 000c FFF7FEFF 		bl	chDbgPanic
 307 0010 F9E7     		b	.L17
 308              	.L20:
 309 0012 00BF     		.align	2
 310              	.L19:
 311 0014 3C000000 		.word	.LC4
 312              		.cfi_endproc
 313              	.LFE66:
 314              		.size	i2cGetErrors, .-i2cGetErrors
 315 0018 AFF30080 		.section	.text.i2cMasterTransmitTimeout,"ax",%progbits
 315      AFF30080 
 316              		.align	2
 317              		.p2align 4,,15
 318              		.global	i2cMasterTransmitTimeout
 319              		.thumb
 320              		.thumb_func
 321              		.type	i2cMasterTransmitTimeout, %function
 322              	i2cMasterTransmitTimeout:
 323              	.LFB67:
 324              		.loc 1 191 0
 325              		.cfi_startproc
 326              		@ args = 12, pretend = 0, frame = 0
 327              		@ frame_needed = 0, uses_anonymous_args = 0
 328              	.LVL21:
 329 0000 2DE9F047 		push	{r4, r5, r6, r7, r8, r9, sl, lr}
 330              	.LCFI5:
 331              		.cfi_def_cfa_offset 32
 332 0004 8846     		mov	r8, r1
ARM GAS  C:\Users\z80\AppData\Local\Temp\cck8eIfH.s 			page 7


 333              		.cfi_offset 14, -4
 334              		.cfi_offset 10, -8
 335              		.cfi_offset 9, -12
 336              		.cfi_offset 8, -16
 337              		.cfi_offset 7, -20
 338              		.cfi_offset 6, -24
 339              		.cfi_offset 5, -28
 340              		.cfi_offset 4, -32
 341              		.loc 1 194 0
 342 0006 D0F10101 		rsbs	r1, r0, #1
 343 000a 38BF     		it	cc
 344 000c 0021     		movcc	r1, #0
 345              	.LVL22:
 346              		.loc 1 191 0
 347 000e 84B0     		sub	sp, sp, #16
 348              	.LCFI6:
 349              		.cfi_def_cfa_offset 48
 350              		.loc 1 194 0
 351 0010 B8F1000F 		cmp	r8, #0
 352 0014 08BF     		it	eq
 353 0016 41F00101 		orreq	r1, r1, #1
 354              		.loc 1 191 0
 355 001a 0446     		mov	r4, r0
 356 001c 9246     		mov	sl, r2
 357 001e 1D46     		mov	r5, r3
 358 0020 DDF83090 		ldr	r9, [sp, #48]
 359 0024 0D9E     		ldr	r6, [sp, #52]
 360 0026 0E9F     		ldr	r7, [sp, #56]
 361              		.loc 1 194 0
 362 0028 49B9     		cbnz	r1, .L22
 363              		.loc 1 194 0 is_stmt 0 discriminator 2
 364 002a D2F10103 		rsbs	r3, r2, #1
 365 002e 38BF     		it	cc
 366 0030 0023     		movcc	r3, #0
 367              	.LVL23:
 368 0032 002D     		cmp	r5, #0
 369 0034 08BF     		it	eq
 370 0036 43F00103 		orreq	r3, r3, #1
 371 003a 002B     		cmp	r3, #0
 372 003c 2AD0     		beq	.L28
 373              	.L22:
 374              		.loc 1 194 0 discriminator 1
 375 003e 1A48     		ldr	r0, .L30
 376              	.LVL24:
 377 0040 FFF7FEFF 		bl	chDbgPanic
 378              	.LVL25:
 379              	.L24:
 380              		.loc 1 200 0 is_stmt 1
 381 0044 2378     		ldrb	r3, [r4, #0]	@ zero_extendqisi2
 382 0046 022B     		cmp	r3, #2
 383 0048 02D0     		beq	.L25
 384              		.loc 1 200 0 is_stmt 0 discriminator 1
 385 004a 1848     		ldr	r0, .L30+4
 386 004c FFF7FEFF 		bl	chDbgPanic
 387              	.L25:
 388              	.LBB6:
 389              		.loc 1 203 0 is_stmt 1
ARM GAS  C:\Users\z80\AppData\Local\Temp\cck8eIfH.s 			page 8


 390 0050 2023     		movs	r3, #32
 391              	.LVL26:
 392              	@ 203 "../chibios_2.4.x/os/hal/src/i2c.c" 1
 393 0052 83F31188 		msr     BASEPRI, r3
 394              	@ 0 "" 2
 395              	.LVL27:
 396              		.thumb
 397              	.LBE6:
 398 0056 FFF7FEFF 		bl	dbg_check_lock
 399              	.LVL28:
 400              		.loc 1 204 0
 401 005a 0023     		movs	r3, #0
 402 005c A360     		str	r3, [r4, #8]
 403              		.loc 1 205 0
 404 005e 0323     		movs	r3, #3
 405 0060 2370     		strb	r3, [r4, #0]
 406              		.loc 1 206 0
 407 0062 2046     		mov	r0, r4
 408 0064 2B46     		mov	r3, r5
 409 0066 4146     		mov	r1, r8
 410 0068 5246     		mov	r2, sl
 411 006a CDF80090 		str	r9, [sp, #0]
 412 006e 0196     		str	r6, [sp, #4]
 413 0070 0297     		str	r7, [sp, #8]
 414 0072 FFF7FEFF 		bl	i2c_lld_master_transmit_timeout
 415              		.loc 1 208 0
 416 0076 B0F1FF3F 		cmp	r0, #-1
 417              		.loc 1 206 0
 418 007a 0546     		mov	r5, r0
 419              	.LVL29:
 420              		.loc 1 208 0
 421 007c 11D0     		beq	.L29
 422              		.loc 1 211 0
 423 007e 0223     		movs	r3, #2
 424 0080 2370     		strb	r3, [r4, #0]
 425              	.L27:
 426              		.loc 1 212 0
 427 0082 FFF7FEFF 		bl	dbg_check_unlock
 428              	.LVL30:
 429              	.LBB7:
 430 0086 0023     		movs	r3, #0
 431              	.LVL31:
 432              	@ 212 "../chibios_2.4.x/os/hal/src/i2c.c" 1
 433 0088 83F31188 		msr     BASEPRI, r3
 434              	@ 0 "" 2
 435              	.LVL32:
 436              		.thumb
 437              	.LBE7:
 438              		.loc 1 214 0
 439 008c 2846     		mov	r0, r5
 440 008e 04B0     		add	sp, sp, #16
 441 0090 BDE8F087 		pop	{r4, r5, r6, r7, r8, r9, sl, pc}
 442              	.LVL33:
 443              	.L28:
 444              		.loc 1 194 0 discriminator 3
 445 0094 16B1     		cbz	r6, .L23
 446              		.loc 1 194 0 is_stmt 0 discriminator 4
ARM GAS  C:\Users\z80\AppData\Local\Temp\cck8eIfH.s 			page 9


 447 0096 B9F1000F 		cmp	r9, #0
 448 009a D0D0     		beq	.L22
 449              	.L23:
 450              		.loc 1 194 0 discriminator 5
 451 009c 002F     		cmp	r7, #0
 452 009e D1D1     		bne	.L24
 453 00a0 CDE7     		b	.L22
 454              	.LVL34:
 455              	.L29:
 456              		.loc 1 209 0 is_stmt 1
 457 00a2 0523     		movs	r3, #5
 458 00a4 2370     		strb	r3, [r4, #0]
 459 00a6 ECE7     		b	.L27
 460              	.L31:
 461              		.align	2
 462              	.L30:
 463 00a8 50000000 		.word	.LC5
 464 00ac 70000000 		.word	.LC6
 465              		.cfi_endproc
 466              	.LFE67:
 467              		.size	i2cMasterTransmitTimeout, .-i2cMasterTransmitTimeout
 468              		.section	.text.i2cMasterReceiveTimeout,"ax",%progbits
 469              		.align	2
 470              		.p2align 4,,15
 471              		.global	i2cMasterReceiveTimeout
 472              		.thumb
 473              		.thumb_func
 474              		.type	i2cMasterReceiveTimeout, %function
 475              	i2cMasterReceiveTimeout:
 476              	.LFB68:
 477              		.loc 1 240 0
 478              		.cfi_startproc
 479              		@ args = 4, pretend = 0, frame = 0
 480              		@ frame_needed = 0, uses_anonymous_args = 0
 481              	.LVL35:
 482 0000 2DE9F041 		push	{r4, r5, r6, r7, r8, lr}
 483              	.LCFI7:
 484              		.cfi_def_cfa_offset 24
 485 0004 0F46     		mov	r7, r1
 486              		.cfi_offset 14, -4
 487              		.cfi_offset 8, -8
 488              		.cfi_offset 7, -12
 489              		.cfi_offset 6, -16
 490              		.cfi_offset 5, -20
 491              		.cfi_offset 4, -24
 492              		.loc 1 244 0
 493 0006 D0F10101 		rsbs	r1, r0, #1
 494 000a 38BF     		it	cc
 495 000c 0021     		movcc	r1, #0
 496              	.LVL36:
 497              		.loc 1 240 0
 498 000e 82B0     		sub	sp, sp, #8
 499              	.LCFI8:
 500              		.cfi_def_cfa_offset 32
 501              		.loc 1 244 0
 502 0010 002F     		cmp	r7, #0
 503 0012 08BF     		it	eq
ARM GAS  C:\Users\z80\AppData\Local\Temp\cck8eIfH.s 			page 10


 504 0014 41F00101 		orreq	r1, r1, #1
 505              		.loc 1 240 0
 506 0018 0446     		mov	r4, r0
 507 001a 9046     		mov	r8, r2
 508 001c 1D46     		mov	r5, r3
 509 001e 089E     		ldr	r6, [sp, #32]
 510              		.loc 1 244 0
 511 0020 49B9     		cbnz	r1, .L33
 512              		.loc 1 244 0 is_stmt 0 discriminator 2
 513 0022 D2F10103 		rsbs	r3, r2, #1
 514 0026 38BF     		it	cc
 515 0028 0023     		movcc	r3, #0
 516              	.LVL37:
 517 002a 002D     		cmp	r5, #0
 518 002c 08BF     		it	eq
 519 002e 43F00103 		orreq	r3, r3, #1
 520 0032 002B     		cmp	r3, #0
 521 0034 27D0     		beq	.L38
 522              	.L33:
 523              		.loc 1 244 0 discriminator 1
 524 0036 1748     		ldr	r0, .L40
 525              	.LVL38:
 526 0038 FFF7FEFF 		bl	chDbgPanic
 527              	.LVL39:
 528              	.L34:
 529              		.loc 1 249 0 is_stmt 1
 530 003c 2378     		ldrb	r3, [r4, #0]	@ zero_extendqisi2
 531 003e 022B     		cmp	r3, #2
 532 0040 02D0     		beq	.L35
 533              		.loc 1 249 0 is_stmt 0 discriminator 1
 534 0042 1548     		ldr	r0, .L40+4
 535 0044 FFF7FEFF 		bl	chDbgPanic
 536              	.L35:
 537              	.LBB8:
 538              		.loc 1 252 0 is_stmt 1
 539 0048 2023     		movs	r3, #32
 540              	.LVL40:
 541              	@ 252 "../chibios_2.4.x/os/hal/src/i2c.c" 1
 542 004a 83F31188 		msr     BASEPRI, r3
 543              	@ 0 "" 2
 544              	.LVL41:
 545              		.thumb
 546              	.LBE8:
 547 004e FFF7FEFF 		bl	dbg_check_lock
 548              	.LVL42:
 549              		.loc 1 253 0
 550 0052 0023     		movs	r3, #0
 551 0054 A360     		str	r3, [r4, #8]
 552              		.loc 1 254 0
 553 0056 0423     		movs	r3, #4
 554 0058 2370     		strb	r3, [r4, #0]
 555              		.loc 1 255 0
 556 005a 2046     		mov	r0, r4
 557 005c 2B46     		mov	r3, r5
 558 005e 3946     		mov	r1, r7
 559 0060 4246     		mov	r2, r8
 560 0062 0096     		str	r6, [sp, #0]
ARM GAS  C:\Users\z80\AppData\Local\Temp\cck8eIfH.s 			page 11


 561 0064 FFF7FEFF 		bl	i2c_lld_master_receive_timeout
 562              		.loc 1 256 0
 563 0068 B0F1FF3F 		cmp	r0, #-1
 564              		.loc 1 255 0
 565 006c 0546     		mov	r5, r0
 566              	.LVL43:
 567              		.loc 1 256 0
 568 006e 0DD0     		beq	.L39
 569              		.loc 1 259 0
 570 0070 0223     		movs	r3, #2
 571 0072 2370     		strb	r3, [r4, #0]
 572              	.L37:
 573              		.loc 1 260 0
 574 0074 FFF7FEFF 		bl	dbg_check_unlock
 575              	.LVL44:
 576              	.LBB9:
 577 0078 0023     		movs	r3, #0
 578              	.LVL45:
 579              	@ 260 "../chibios_2.4.x/os/hal/src/i2c.c" 1
 580 007a 83F31188 		msr     BASEPRI, r3
 581              	@ 0 "" 2
 582              	.LVL46:
 583              		.thumb
 584              	.LBE9:
 585              		.loc 1 262 0
 586 007e 2846     		mov	r0, r5
 587 0080 02B0     		add	sp, sp, #8
 588 0082 BDE8F081 		pop	{r4, r5, r6, r7, r8, pc}
 589              	.LVL47:
 590              	.L38:
 591              		.loc 1 244 0 discriminator 3
 592 0086 002E     		cmp	r6, #0
 593 0088 D8D1     		bne	.L34
 594 008a D4E7     		b	.L33
 595              	.LVL48:
 596              	.L39:
 597              		.loc 1 257 0
 598 008c 0523     		movs	r3, #5
 599 008e 2370     		strb	r3, [r4, #0]
 600 0090 F0E7     		b	.L37
 601              	.L41:
 602 0092 00BF     		.align	2
 603              	.L40:
 604 0094 90000000 		.word	.LC7
 605 0098 AC000000 		.word	.LC8
 606              		.cfi_endproc
 607              	.LFE68:
 608              		.size	i2cMasterReceiveTimeout, .-i2cMasterReceiveTimeout
 609 009c AFF30080 		.section	.text.i2cAcquireBus,"ax",%progbits
 610              		.align	2
 611              		.p2align 4,,15
 612              		.global	i2cAcquireBus
 613              		.thumb
 614              		.thumb_func
 615              		.type	i2cAcquireBus, %function
 616              	i2cAcquireBus:
 617              	.LFB69:
ARM GAS  C:\Users\z80\AppData\Local\Temp\cck8eIfH.s 			page 12


 618              		.loc 1 276 0
 619              		.cfi_startproc
 620              		@ args = 0, pretend = 0, frame = 0
 621              		@ frame_needed = 0, uses_anonymous_args = 0
 622              	.LVL49:
 623 0000 10B5     		push	{r4, lr}
 624              	.LCFI9:
 625              		.cfi_def_cfa_offset 8
 626              		.loc 1 276 0
 627 0002 0446     		mov	r4, r0
 628              		.cfi_offset 14, -4
 629              		.cfi_offset 4, -8
 630              		.loc 1 278 0
 631 0004 20B1     		cbz	r0, .L44
 632              	.LVL50:
 633              	.L43:
 634              		.loc 1 281 0
 635 0006 04F10C00 		add	r0, r4, #12
 636 000a FFF7FEFF 		bl	chMtxLock
 637              		.loc 1 285 0
 638 000e 10BD     		pop	{r4, pc}
 639              	.L44:
 640              		.loc 1 278 0 discriminator 1
 641 0010 0148     		ldr	r0, .L45
 642 0012 FFF7FEFF 		bl	chDbgPanic
 643 0016 F6E7     		b	.L43
 644              	.L46:
 645              		.align	2
 646              	.L45:
 647 0018 C4000000 		.word	.LC9
 648              		.cfi_endproc
 649              	.LFE69:
 650              		.size	i2cAcquireBus, .-i2cAcquireBus
 651 001c AFF30080 		.section	.text.i2cReleaseBus,"ax",%progbits
 652              		.align	2
 653              		.p2align 4,,15
 654              		.global	i2cReleaseBus
 655              		.thumb
 656              		.thumb_func
 657              		.type	i2cReleaseBus, %function
 658              	i2cReleaseBus:
 659              	.LFB70:
 660              		.loc 1 296 0
 661              		.cfi_startproc
 662              		@ args = 0, pretend = 0, frame = 0
 663              		@ frame_needed = 0, uses_anonymous_args = 0
 664              	.LVL51:
 665 0000 08B5     		push	{r3, lr}
 666              	.LCFI10:
 667              		.cfi_def_cfa_offset 8
 668              		.loc 1 298 0
 669 0002 10B1     		cbz	r0, .L49
 670              		.cfi_offset 14, -4
 671              		.cfi_offset 3, -8
 672              	.LVL52:
 673              	.L48:
 674              		.loc 1 301 0
ARM GAS  C:\Users\z80\AppData\Local\Temp\cck8eIfH.s 			page 13


 675 0004 FFF7FEFF 		bl	chMtxUnlock
 676              		.loc 1 305 0
 677 0008 08BD     		pop	{r3, pc}
 678              	.LVL53:
 679              	.L49:
 680              		.loc 1 298 0 discriminator 1
 681 000a 0248     		ldr	r0, .L50
 682              	.LVL54:
 683 000c FFF7FEFF 		bl	chDbgPanic
 684 0010 F8E7     		b	.L48
 685              	.L51:
 686 0012 00BF     		.align	2
 687              	.L50:
 688 0014 D8000000 		.word	.LC10
 689              		.cfi_endproc
 690              	.LFE70:
 691              		.size	i2cReleaseBus, .-i2cReleaseBus
 692 0018 AFF30080 		.section	.text.i2cSlaveIoTimeout,"ax",%progbits
 692      AFF30080 
 693              		.align	2
 694              		.p2align 4,,15
 695              		.global	i2cSlaveIoTimeout
 696              		.thumb
 697              		.thumb_func
 698              		.type	i2cSlaveIoTimeout, %function
 699              	i2cSlaveIoTimeout:
 700              	.LFB71:
 701              		.loc 1 317 0
 702              		.cfi_startproc
 703              		@ args = 20, pretend = 0, frame = 0
 704              		@ frame_needed = 0, uses_anonymous_args = 0
 705              	.LVL55:
 706 0000 F0B5     		push	{r4, r5, r6, r7, lr}
 707              	.LCFI11:
 708              		.cfi_def_cfa_offset 20
 709 0002 1D46     		mov	r5, r3
 710              		.cfi_offset 14, -4
 711              		.cfi_offset 7, -8
 712              		.cfi_offset 6, -12
 713              		.cfi_offset 5, -16
 714              		.cfi_offset 4, -20
 715 0004 87B0     		sub	sp, sp, #28
 716              	.LCFI12:
 717              		.cfi_def_cfa_offset 48
 718              		.loc 1 317 0
 719 0006 0446     		mov	r4, r0
 720 0008 0F46     		mov	r7, r1
 721 000a 1646     		mov	r6, r2
 722              	.LBB10:
 723              		.loc 1 320 0
 724 000c 2023     		movs	r3, #32
 725              	.LVL56:
 726              	@ 320 "../chibios_2.4.x/os/hal/src/i2c.c" 1
 727 000e 83F31188 		msr     BASEPRI, r3
 728              	@ 0 "" 2
 729              	.LVL57:
 730              		.thumb
ARM GAS  C:\Users\z80\AppData\Local\Temp\cck8eIfH.s 			page 14


 731              	.LBE10:
 732 0012 FFF7FEFF 		bl	dbg_check_lock
 733              	.LVL58:
 734              		.loc 1 323 0
 735 0016 DDF830C0 		ldr	ip, [sp, #48]
 736              		.loc 1 321 0
 737 001a 0023     		movs	r3, #0
 738 001c A360     		str	r3, [r4, #8]
 739              		.loc 1 322 0
 740 001e 2370     		strb	r3, [r4, #0]
 741              		.loc 1 323 0
 742 0020 CDF800C0 		str	ip, [sp, #0]
 743 0024 DDF834C0 		ldr	ip, [sp, #52]
 744 0028 2B46     		mov	r3, r5
 745 002a CDF804C0 		str	ip, [sp, #4]
 746 002e DDF838C0 		ldr	ip, [sp, #56]
 747 0032 2046     		mov	r0, r4
 748 0034 CDF808C0 		str	ip, [sp, #8]
 749 0038 DDF83CC0 		ldr	ip, [sp, #60]
 750 003c 3946     		mov	r1, r7
 751 003e CDF80CC0 		str	ip, [sp, #12]
 752 0042 DDF840C0 		ldr	ip, [sp, #64]
 753 0046 3246     		mov	r2, r6
 754 0048 CDF810C0 		str	ip, [sp, #16]
 755 004c FFF7FEFF 		bl	i2c_lld_slave_io_timeout
 756              		.loc 1 330 0
 757 0050 B0F1FF3F 		cmp	r0, #-1
 758              		.loc 1 323 0
 759 0054 0546     		mov	r5, r0
 760              	.LVL59:
 761              		.loc 1 330 0
 762 0056 09D0     		beq	.L55
 763              		.loc 1 333 0
 764 0058 0223     		movs	r3, #2
 765 005a 2370     		strb	r3, [r4, #0]
 766              	.L54:
 767              		.loc 1 334 0
 768 005c FFF7FEFF 		bl	dbg_check_unlock
 769              	.LVL60:
 770              	.LBB11:
 771 0060 0023     		movs	r3, #0
 772              	.LVL61:
 773              	@ 334 "../chibios_2.4.x/os/hal/src/i2c.c" 1
 774 0062 83F31188 		msr     BASEPRI, r3
 775              	@ 0 "" 2
 776              	.LVL62:
 777              		.thumb
 778              	.LBE11:
 779              		.loc 1 337 0
 780 0066 2846     		mov	r0, r5
 781 0068 07B0     		add	sp, sp, #28
 782 006a F0BD     		pop	{r4, r5, r6, r7, pc}
 783              	.LVL63:
 784              	.L55:
 785              		.loc 1 331 0
 786 006c 0523     		movs	r3, #5
 787 006e 2370     		strb	r3, [r4, #0]
ARM GAS  C:\Users\z80\AppData\Local\Temp\cck8eIfH.s 			page 15


 788 0070 F4E7     		b	.L54
 789              		.cfi_endproc
 790              	.LFE71:
 791              		.size	i2cSlaveIoTimeout, .-i2cSlaveIoTimeout
 792 0072 00BFAFF3 		.section	.rodata.str1.4,"aMS",%progbits,1
 792      0080AFF3 
 792      0080AFF3 
 792      0080
 793              		.align	2
 794              	.LC0:
 795 0000 22693263 		.ascii	"\"i2cStart\"()\000"
 795      53746172 
 795      74222829 
 795      00
 796 000d 000000   		.space	3
 797              	.LC1:
 798 0010 69326353 		.ascii	"i2cStart(), #1\000"
 798      74617274 
 798      28292C20 
 798      233100
 799 001f 00       		.space	1
 800              	.LC2:
 801 0020 22693263 		.ascii	"\"i2cStop\"()\000"
 801      53746F70 
 801      22282900 
 802              	.LC3:
 803 002c 69326353 		.ascii	"i2cStop(), #1\000"
 803      746F7028 
 803      292C2023 
 803      3100
 804 003a 0000     		.space	2
 805              	.LC4:
 806 003c 22693263 		.ascii	"\"i2cGetErrors\"()\000"
 806      47657445 
 806      72726F72 
 806      73222829 
 806      00
 807 004d 000000   		.space	3
 808              	.LC5:
 809 0050 22693263 		.ascii	"\"i2cMasterTransmitTimeout\"()\000"
 809      4D617374 
 809      65725472 
 809      616E736D 
 809      69745469 
 810 006d 000000   		.space	3
 811              	.LC6:
 812 0070 6932634D 		.ascii	"i2cMasterTransmitTimeout(), #1\000"
 812      61737465 
 812      72547261 
 812      6E736D69 
 812      7454696D 
 813 008f 00       		.space	1
 814              	.LC7:
 815 0090 22693263 		.ascii	"\"i2cMasterReceiveTimeout\"()\000"
 815      4D617374 
 815      65725265 
 815      63656976 
ARM GAS  C:\Users\z80\AppData\Local\Temp\cck8eIfH.s 			page 16


 815      6554696D 
 816              	.LC8:
 817 00ac 6932634D 		.ascii	"i2cMasterReceive(), #1\000"
 817      61737465 
 817      72526563 
 817      65697665 
 817      28292C20 
 818 00c3 00       		.space	1
 819              	.LC9:
 820 00c4 22693263 		.ascii	"\"i2cAcquireBus\"()\000"
 820      41637175 
 820      69726542 
 820      75732228 
 820      2900
 821 00d6 0000     		.space	2
 822              	.LC10:
 823 00d8 22693263 		.ascii	"\"i2cReleaseBus\"()\000"
 823      52656C65 
 823      61736542 
 823      75732228 
 823      2900
 824 00ea 0000     		.text
 825              	.Letext0:
 826              		.section	.debug_loc,"",%progbits
 827              	.Ldebug_loc0:
 828              	.LLST0:
 829 0000 00000000 		.4byte	.LFB62
 830 0004 02000000 		.4byte	.LCFI0
 831 0008 0200     		.2byte	0x2
 832 000a 7D       		.byte	0x7d
 833 000b 00       		.sleb128 0
 834 000c 02000000 		.4byte	.LCFI0
 835 0010 08000000 		.4byte	.LFE62
 836 0014 0200     		.2byte	0x2
 837 0016 7D       		.byte	0x7d
 838 0017 08       		.sleb128 8
 839 0018 00000000 		.4byte	0x0
 840 001c 00000000 		.4byte	0x0
 841              	.LLST1:
 842 0020 00000000 		.4byte	.LFB63
 843 0024 02000000 		.4byte	.LCFI1
 844 0028 0200     		.2byte	0x2
 845 002a 7D       		.byte	0x7d
 846 002b 00       		.sleb128 0
 847 002c 02000000 		.4byte	.LCFI1
 848 0030 16000000 		.4byte	.LFE63
 849 0034 0200     		.2byte	0x2
 850 0036 7D       		.byte	0x7d
 851 0037 08       		.sleb128 8
 852 0038 00000000 		.4byte	0x0
 853 003c 00000000 		.4byte	0x0
 854              	.LLST2:
 855 0040 00000000 		.4byte	.LVL0
 856 0044 0E000000 		.4byte	.LVL1
 857 0048 0100     		.2byte	0x1
 858 004a 50       		.byte	0x50
 859 004b 0E000000 		.4byte	.LVL1
ARM GAS  C:\Users\z80\AppData\Local\Temp\cck8eIfH.s 			page 17


 860 004f 13000000 		.4byte	.LVL2-1
 861 0053 0100     		.2byte	0x1
 862 0055 53       		.byte	0x53
 863 0056 00000000 		.4byte	0x0
 864 005a 00000000 		.4byte	0x0
 865              	.LLST3:
 866 005e 00000000 		.4byte	.LFB64
 867 0062 02000000 		.4byte	.LCFI2
 868 0066 0200     		.2byte	0x2
 869 0068 7D       		.byte	0x7d
 870 0069 00       		.sleb128 0
 871 006a 02000000 		.4byte	.LCFI2
 872 006e 6C000000 		.4byte	.LFE64
 873 0072 0200     		.2byte	0x2
 874 0074 7D       		.byte	0x7d
 875 0075 10       		.sleb128 16
 876 0076 00000000 		.4byte	0x0
 877 007a 00000000 		.4byte	0x0
 878              	.LLST4:
 879 007e 00000000 		.4byte	.LVL3
 880 0082 1A000000 		.4byte	.LVL4
 881 0086 0100     		.2byte	0x1
 882 0088 50       		.byte	0x50
 883 0089 1A000000 		.4byte	.LVL4
 884 008d 6C000000 		.4byte	.LFE64
 885 0091 0100     		.2byte	0x1
 886 0093 54       		.byte	0x54
 887 0094 00000000 		.4byte	0x0
 888 0098 00000000 		.4byte	0x0
 889              	.LLST5:
 890 009c 00000000 		.4byte	.LVL3
 891 00a0 1A000000 		.4byte	.LVL4
 892 00a4 0100     		.2byte	0x1
 893 00a6 51       		.byte	0x51
 894 00a7 1A000000 		.4byte	.LVL4
 895 00ab 6C000000 		.4byte	.LFE64
 896 00af 0100     		.2byte	0x1
 897 00b1 55       		.byte	0x55
 898 00b2 00000000 		.4byte	0x0
 899 00b6 00000000 		.4byte	0x0
 900              	.LLST6:
 901 00ba 3E000000 		.4byte	.LVL6
 902 00be 41000000 		.4byte	.LVL7-1
 903 00c2 0100     		.2byte	0x1
 904 00c4 53       		.byte	0x53
 905 00c5 00000000 		.4byte	0x0
 906 00c9 00000000 		.4byte	0x0
 907              	.LLST7:
 908 00cd 58000000 		.4byte	.LVL9
 909 00d1 5A000000 		.4byte	.LVL10
 910 00d5 0100     		.2byte	0x1
 911 00d7 53       		.byte	0x53
 912 00d8 00000000 		.4byte	0x0
 913 00dc 00000000 		.4byte	0x0
 914              	.LLST8:
 915 00e0 00000000 		.4byte	.LFB65
 916 00e4 02000000 		.4byte	.LCFI3
ARM GAS  C:\Users\z80\AppData\Local\Temp\cck8eIfH.s 			page 18


 917 00e8 0200     		.2byte	0x2
 918 00ea 7D       		.byte	0x7d
 919 00eb 00       		.sleb128 0
 920 00ec 02000000 		.4byte	.LCFI3
 921 00f0 54000000 		.4byte	.LFE65
 922 00f4 0200     		.2byte	0x2
 923 00f6 7D       		.byte	0x7d
 924 00f7 08       		.sleb128 8
 925 00f8 00000000 		.4byte	0x0
 926 00fc 00000000 		.4byte	0x0
 927              	.LLST9:
 928 0100 00000000 		.4byte	.LVL11
 929 0104 06000000 		.4byte	.LVL12
 930 0108 0100     		.2byte	0x1
 931 010a 50       		.byte	0x50
 932 010b 06000000 		.4byte	.LVL12
 933 010f 54000000 		.4byte	.LFE65
 934 0113 0100     		.2byte	0x1
 935 0115 54       		.byte	0x54
 936 0116 00000000 		.4byte	0x0
 937 011a 00000000 		.4byte	0x0
 938              	.LLST10:
 939 011e 2A000000 		.4byte	.LVL14
 940 0122 2D000000 		.4byte	.LVL15-1
 941 0126 0100     		.2byte	0x1
 942 0128 53       		.byte	0x53
 943 0129 00000000 		.4byte	0x0
 944 012d 00000000 		.4byte	0x0
 945              	.LLST11:
 946 0131 42000000 		.4byte	.LVL17
 947 0135 44000000 		.4byte	.LVL18
 948 0139 0100     		.2byte	0x1
 949 013b 53       		.byte	0x53
 950 013c 00000000 		.4byte	0x0
 951 0140 00000000 		.4byte	0x0
 952              	.LLST12:
 953 0144 00000000 		.4byte	.LFB66
 954 0148 02000000 		.4byte	.LCFI4
 955 014c 0200     		.2byte	0x2
 956 014e 7D       		.byte	0x7d
 957 014f 00       		.sleb128 0
 958 0150 02000000 		.4byte	.LCFI4
 959 0154 18000000 		.4byte	.LFE66
 960 0158 0200     		.2byte	0x2
 961 015a 7D       		.byte	0x7d
 962 015b 08       		.sleb128 8
 963 015c 00000000 		.4byte	0x0
 964 0160 00000000 		.4byte	0x0
 965              	.LLST13:
 966 0164 00000000 		.4byte	.LVL19
 967 0168 06000000 		.4byte	.LVL20
 968 016c 0100     		.2byte	0x1
 969 016e 50       		.byte	0x50
 970 016f 06000000 		.4byte	.LVL20
 971 0173 18000000 		.4byte	.LFE66
 972 0177 0100     		.2byte	0x1
 973 0179 54       		.byte	0x54
ARM GAS  C:\Users\z80\AppData\Local\Temp\cck8eIfH.s 			page 19


 974 017a 00000000 		.4byte	0x0
 975 017e 00000000 		.4byte	0x0
 976              	.LLST14:
 977 0182 00000000 		.4byte	.LFB67
 978 0186 04000000 		.4byte	.LCFI5
 979 018a 0200     		.2byte	0x2
 980 018c 7D       		.byte	0x7d
 981 018d 00       		.sleb128 0
 982 018e 04000000 		.4byte	.LCFI5
 983 0192 10000000 		.4byte	.LCFI6
 984 0196 0200     		.2byte	0x2
 985 0198 7D       		.byte	0x7d
 986 0199 20       		.sleb128 32
 987 019a 10000000 		.4byte	.LCFI6
 988 019e B0000000 		.4byte	.LFE67
 989 01a2 0200     		.2byte	0x2
 990 01a4 7D       		.byte	0x7d
 991 01a5 30       		.sleb128 48
 992 01a6 00000000 		.4byte	0x0
 993 01aa 00000000 		.4byte	0x0
 994              	.LLST15:
 995 01ae 00000000 		.4byte	.LVL21
 996 01b2 40000000 		.4byte	.LVL24
 997 01b6 0100     		.2byte	0x1
 998 01b8 50       		.byte	0x50
 999 01b9 40000000 		.4byte	.LVL24
 1000 01bd B0000000 		.4byte	.LFE67
 1001 01c1 0100     		.2byte	0x1
 1002 01c3 54       		.byte	0x54
 1003 01c4 00000000 		.4byte	0x0
 1004 01c8 00000000 		.4byte	0x0
 1005              	.LLST16:
 1006 01cc 00000000 		.4byte	.LVL21
 1007 01d0 0E000000 		.4byte	.LVL22
 1008 01d4 0100     		.2byte	0x1
 1009 01d6 51       		.byte	0x51
 1010 01d7 00000000 		.4byte	0x0
 1011 01db 00000000 		.4byte	0x0
 1012              	.LLST17:
 1013 01df 00000000 		.4byte	.LVL21
 1014 01e3 43000000 		.4byte	.LVL25-1
 1015 01e7 0100     		.2byte	0x1
 1016 01e9 52       		.byte	0x52
 1017 01ea 43000000 		.4byte	.LVL25-1
 1018 01ee B0000000 		.4byte	.LFE67
 1019 01f2 0100     		.2byte	0x1
 1020 01f4 5A       		.byte	0x5a
 1021 01f5 00000000 		.4byte	0x0
 1022 01f9 00000000 		.4byte	0x0
 1023              	.LLST18:
 1024 01fd 00000000 		.4byte	.LVL21
 1025 0201 32000000 		.4byte	.LVL23
 1026 0205 0100     		.2byte	0x1
 1027 0207 53       		.byte	0x53
 1028 0208 32000000 		.4byte	.LVL23
 1029 020c 7C000000 		.4byte	.LVL29
 1030 0210 0100     		.2byte	0x1
ARM GAS  C:\Users\z80\AppData\Local\Temp\cck8eIfH.s 			page 20


 1031 0212 55       		.byte	0x55
 1032 0213 94000000 		.4byte	.LVL33
 1033 0217 A2000000 		.4byte	.LVL34
 1034 021b 0100     		.2byte	0x1
 1035 021d 55       		.byte	0x55
 1036 021e 00000000 		.4byte	0x0
 1037 0222 00000000 		.4byte	0x0
 1038              	.LLST19:
 1039 0226 7C000000 		.4byte	.LVL29
 1040 022a 85000000 		.4byte	.LVL30-1
 1041 022e 0100     		.2byte	0x1
 1042 0230 50       		.byte	0x50
 1043 0231 85000000 		.4byte	.LVL30-1
 1044 0235 94000000 		.4byte	.LVL33
 1045 0239 0100     		.2byte	0x1
 1046 023b 55       		.byte	0x55
 1047 023c A2000000 		.4byte	.LVL34
 1048 0240 B0000000 		.4byte	.LFE67
 1049 0244 0100     		.2byte	0x1
 1050 0246 50       		.byte	0x50
 1051 0247 00000000 		.4byte	0x0
 1052 024b 00000000 		.4byte	0x0
 1053              	.LLST20:
 1054 024f 56000000 		.4byte	.LVL27
 1055 0253 59000000 		.4byte	.LVL28-1
 1056 0257 0100     		.2byte	0x1
 1057 0259 53       		.byte	0x53
 1058 025a 00000000 		.4byte	0x0
 1059 025e 00000000 		.4byte	0x0
 1060              	.LLST21:
 1061 0262 8C000000 		.4byte	.LVL32
 1062 0266 94000000 		.4byte	.LVL33
 1063 026a 0100     		.2byte	0x1
 1064 026c 53       		.byte	0x53
 1065 026d 00000000 		.4byte	0x0
 1066 0271 00000000 		.4byte	0x0
 1067              	.LLST22:
 1068 0275 00000000 		.4byte	.LFB68
 1069 0279 04000000 		.4byte	.LCFI7
 1070 027d 0200     		.2byte	0x2
 1071 027f 7D       		.byte	0x7d
 1072 0280 00       		.sleb128 0
 1073 0281 04000000 		.4byte	.LCFI7
 1074 0285 10000000 		.4byte	.LCFI8
 1075 0289 0200     		.2byte	0x2
 1076 028b 7D       		.byte	0x7d
 1077 028c 18       		.sleb128 24
 1078 028d 10000000 		.4byte	.LCFI8
 1079 0291 9C000000 		.4byte	.LFE68
 1080 0295 0200     		.2byte	0x2
 1081 0297 7D       		.byte	0x7d
 1082 0298 20       		.sleb128 32
 1083 0299 00000000 		.4byte	0x0
 1084 029d 00000000 		.4byte	0x0
 1085              	.LLST23:
 1086 02a1 00000000 		.4byte	.LVL35
 1087 02a5 38000000 		.4byte	.LVL38
ARM GAS  C:\Users\z80\AppData\Local\Temp\cck8eIfH.s 			page 21


 1088 02a9 0100     		.2byte	0x1
 1089 02ab 50       		.byte	0x50
 1090 02ac 38000000 		.4byte	.LVL38
 1091 02b0 9C000000 		.4byte	.LFE68
 1092 02b4 0100     		.2byte	0x1
 1093 02b6 54       		.byte	0x54
 1094 02b7 00000000 		.4byte	0x0
 1095 02bb 00000000 		.4byte	0x0
 1096              	.LLST24:
 1097 02bf 00000000 		.4byte	.LVL35
 1098 02c3 0E000000 		.4byte	.LVL36
 1099 02c7 0100     		.2byte	0x1
 1100 02c9 51       		.byte	0x51
 1101 02ca 00000000 		.4byte	0x0
 1102 02ce 00000000 		.4byte	0x0
 1103              	.LLST25:
 1104 02d2 00000000 		.4byte	.LVL35
 1105 02d6 3B000000 		.4byte	.LVL39-1
 1106 02da 0100     		.2byte	0x1
 1107 02dc 52       		.byte	0x52
 1108 02dd 3B000000 		.4byte	.LVL39-1
 1109 02e1 9C000000 		.4byte	.LFE68
 1110 02e5 0100     		.2byte	0x1
 1111 02e7 58       		.byte	0x58
 1112 02e8 00000000 		.4byte	0x0
 1113 02ec 00000000 		.4byte	0x0
 1114              	.LLST26:
 1115 02f0 00000000 		.4byte	.LVL35
 1116 02f4 2A000000 		.4byte	.LVL37
 1117 02f8 0100     		.2byte	0x1
 1118 02fa 53       		.byte	0x53
 1119 02fb 2A000000 		.4byte	.LVL37
 1120 02ff 6E000000 		.4byte	.LVL43
 1121 0303 0100     		.2byte	0x1
 1122 0305 55       		.byte	0x55
 1123 0306 86000000 		.4byte	.LVL47
 1124 030a 8C000000 		.4byte	.LVL48
 1125 030e 0100     		.2byte	0x1
 1126 0310 55       		.byte	0x55
 1127 0311 00000000 		.4byte	0x0
 1128 0315 00000000 		.4byte	0x0
 1129              	.LLST27:
 1130 0319 6E000000 		.4byte	.LVL43
 1131 031d 77000000 		.4byte	.LVL44-1
 1132 0321 0100     		.2byte	0x1
 1133 0323 50       		.byte	0x50
 1134 0324 77000000 		.4byte	.LVL44-1
 1135 0328 86000000 		.4byte	.LVL47
 1136 032c 0100     		.2byte	0x1
 1137 032e 55       		.byte	0x55
 1138 032f 8C000000 		.4byte	.LVL48
 1139 0333 9C000000 		.4byte	.LFE68
 1140 0337 0100     		.2byte	0x1
 1141 0339 50       		.byte	0x50
 1142 033a 00000000 		.4byte	0x0
 1143 033e 00000000 		.4byte	0x0
 1144              	.LLST28:
ARM GAS  C:\Users\z80\AppData\Local\Temp\cck8eIfH.s 			page 22


 1145 0342 4E000000 		.4byte	.LVL41
 1146 0346 51000000 		.4byte	.LVL42-1
 1147 034a 0100     		.2byte	0x1
 1148 034c 53       		.byte	0x53
 1149 034d 00000000 		.4byte	0x0
 1150 0351 00000000 		.4byte	0x0
 1151              	.LLST29:
 1152 0355 7E000000 		.4byte	.LVL46
 1153 0359 86000000 		.4byte	.LVL47
 1154 035d 0100     		.2byte	0x1
 1155 035f 53       		.byte	0x53
 1156 0360 00000000 		.4byte	0x0
 1157 0364 00000000 		.4byte	0x0
 1158              	.LLST30:
 1159 0368 00000000 		.4byte	.LFB69
 1160 036c 02000000 		.4byte	.LCFI9
 1161 0370 0200     		.2byte	0x2
 1162 0372 7D       		.byte	0x7d
 1163 0373 00       		.sleb128 0
 1164 0374 02000000 		.4byte	.LCFI9
 1165 0378 1C000000 		.4byte	.LFE69
 1166 037c 0200     		.2byte	0x2
 1167 037e 7D       		.byte	0x7d
 1168 037f 08       		.sleb128 8
 1169 0380 00000000 		.4byte	0x0
 1170 0384 00000000 		.4byte	0x0
 1171              	.LLST31:
 1172 0388 00000000 		.4byte	.LVL49
 1173 038c 06000000 		.4byte	.LVL50
 1174 0390 0100     		.2byte	0x1
 1175 0392 50       		.byte	0x50
 1176 0393 06000000 		.4byte	.LVL50
 1177 0397 1C000000 		.4byte	.LFE69
 1178 039b 0100     		.2byte	0x1
 1179 039d 54       		.byte	0x54
 1180 039e 00000000 		.4byte	0x0
 1181 03a2 00000000 		.4byte	0x0
 1182              	.LLST32:
 1183 03a6 00000000 		.4byte	.LFB70
 1184 03aa 02000000 		.4byte	.LCFI10
 1185 03ae 0200     		.2byte	0x2
 1186 03b0 7D       		.byte	0x7d
 1187 03b1 00       		.sleb128 0
 1188 03b2 02000000 		.4byte	.LCFI10
 1189 03b6 18000000 		.4byte	.LFE70
 1190 03ba 0200     		.2byte	0x2
 1191 03bc 7D       		.byte	0x7d
 1192 03bd 08       		.sleb128 8
 1193 03be 00000000 		.4byte	0x0
 1194 03c2 00000000 		.4byte	0x0
 1195              	.LLST33:
 1196 03c6 00000000 		.4byte	.LVL51
 1197 03ca 04000000 		.4byte	.LVL52
 1198 03ce 0100     		.2byte	0x1
 1199 03d0 50       		.byte	0x50
 1200 03d1 0A000000 		.4byte	.LVL53
 1201 03d5 0C000000 		.4byte	.LVL54
ARM GAS  C:\Users\z80\AppData\Local\Temp\cck8eIfH.s 			page 23


 1202 03d9 0100     		.2byte	0x1
 1203 03db 50       		.byte	0x50
 1204 03dc 00000000 		.4byte	0x0
 1205 03e0 00000000 		.4byte	0x0
 1206              	.LLST34:
 1207 03e4 00000000 		.4byte	.LFB71
 1208 03e8 02000000 		.4byte	.LCFI11
 1209 03ec 0200     		.2byte	0x2
 1210 03ee 7D       		.byte	0x7d
 1211 03ef 00       		.sleb128 0
 1212 03f0 02000000 		.4byte	.LCFI11
 1213 03f4 06000000 		.4byte	.LCFI12
 1214 03f8 0200     		.2byte	0x2
 1215 03fa 7D       		.byte	0x7d
 1216 03fb 14       		.sleb128 20
 1217 03fc 06000000 		.4byte	.LCFI12
 1218 0400 72000000 		.4byte	.LFE71
 1219 0404 0200     		.2byte	0x2
 1220 0406 7D       		.byte	0x7d
 1221 0407 30       		.sleb128 48
 1222 0408 00000000 		.4byte	0x0
 1223 040c 00000000 		.4byte	0x0
 1224              	.LLST35:
 1225 0410 00000000 		.4byte	.LVL55
 1226 0414 15000000 		.4byte	.LVL58-1
 1227 0418 0100     		.2byte	0x1
 1228 041a 50       		.byte	0x50
 1229 041b 15000000 		.4byte	.LVL58-1
 1230 041f 72000000 		.4byte	.LFE71
 1231 0423 0100     		.2byte	0x1
 1232 0425 54       		.byte	0x54
 1233 0426 00000000 		.4byte	0x0
 1234 042a 00000000 		.4byte	0x0
 1235              	.LLST36:
 1236 042e 00000000 		.4byte	.LVL55
 1237 0432 15000000 		.4byte	.LVL58-1
 1238 0436 0100     		.2byte	0x1
 1239 0438 51       		.byte	0x51
 1240 0439 00000000 		.4byte	0x0
 1241 043d 00000000 		.4byte	0x0
 1242              	.LLST37:
 1243 0441 00000000 		.4byte	.LVL55
 1244 0445 15000000 		.4byte	.LVL58-1
 1245 0449 0100     		.2byte	0x1
 1246 044b 52       		.byte	0x52
 1247 044c 15000000 		.4byte	.LVL58-1
 1248 0450 72000000 		.4byte	.LFE71
 1249 0454 0100     		.2byte	0x1
 1250 0456 56       		.byte	0x56
 1251 0457 00000000 		.4byte	0x0
 1252 045b 00000000 		.4byte	0x0
 1253              	.LLST38:
 1254 045f 00000000 		.4byte	.LVL55
 1255 0463 0E000000 		.4byte	.LVL56
 1256 0467 0100     		.2byte	0x1
 1257 0469 53       		.byte	0x53
 1258 046a 0E000000 		.4byte	.LVL56
ARM GAS  C:\Users\z80\AppData\Local\Temp\cck8eIfH.s 			page 24


 1259 046e 56000000 		.4byte	.LVL59
 1260 0472 0100     		.2byte	0x1
 1261 0474 55       		.byte	0x55
 1262 0475 00000000 		.4byte	0x0
 1263 0479 00000000 		.4byte	0x0
 1264              	.LLST39:
 1265 047d 56000000 		.4byte	.LVL59
 1266 0481 5F000000 		.4byte	.LVL60-1
 1267 0485 0100     		.2byte	0x1
 1268 0487 50       		.byte	0x50
 1269 0488 5F000000 		.4byte	.LVL60-1
 1270 048c 72000000 		.4byte	.LFE71
 1271 0490 0100     		.2byte	0x1
 1272 0492 55       		.byte	0x55
 1273 0493 00000000 		.4byte	0x0
 1274 0497 00000000 		.4byte	0x0
 1275              	.LLST40:
 1276 049b 12000000 		.4byte	.LVL57
 1277 049f 15000000 		.4byte	.LVL58-1
 1278 04a3 0100     		.2byte	0x1
 1279 04a5 53       		.byte	0x53
 1280 04a6 00000000 		.4byte	0x0
 1281 04aa 00000000 		.4byte	0x0
 1282              	.LLST41:
 1283 04ae 66000000 		.4byte	.LVL62
 1284 04b2 6C000000 		.4byte	.LVL63
 1285 04b6 0100     		.2byte	0x1
 1286 04b8 53       		.byte	0x53
 1287 04b9 00000000 		.4byte	0x0
 1288 04bd 00000000 		.4byte	0x0
 1289              		.file 2 "c:\\programs\\yagarto\\bin\\../lib/gcc/arm-none-eabi/4.5.0/include/stddef.h"
 1290              		.file 3 "c:/programs/yagarto/lib/gcc/../../arm-none-eabi/sys-include/stdint.h"
 1291              		.file 4 "../chibios_2.4.x/os/ports/GCC/ARMCMx/chtypes.h"
 1292              		.file 5 "../chibios_2.4.x/os/kernel/include/chlists.h"
 1293              		.file 6 "../chibios_2.4.x/os/kernel/include/chthreads.h"
 1294              		.file 7 "../chibios_2.4.x/os/ports/GCC/ARMCMx/chcore_v7m.h"
 1295              		.file 8 "../chibios_2.4.x/os/kernel/include/chmtx.h"
 1296              		.file 9 "../chibios_2.4.x/os/hal/platforms/STM32F1xx/stm32f10x.h"
 1297              		.file 10 "../chibios_2.4.x/os/hal/platforms/STM32F1xx/stm32_dma.h"
 1298              		.file 11 "../chibios_2.4.x/os/hal/include/i2c.h"
 1299              		.file 12 "../chibios_2.4.x/os/hal/platforms/STM32/i2c_lld.h"
 1300              		.file 13 "../chibios_2.4.x/os/ports/common/ARMCMx/CMSIS/include/core_cm3.h"
 1301              		.section	.debug_info
 1302 0000 2F0C0000 		.4byte	0xc2f
 1303 0004 0200     		.2byte	0x2
 1304 0006 00000000 		.4byte	.Ldebug_abbrev0
 1305 000a 04       		.byte	0x4
 1306 000b 01       		.uleb128 0x1
 1307 000c FE040000 		.4byte	.LASF130
 1308 0010 01       		.byte	0x1
 1309 0011 0B010000 		.4byte	.LASF131
 1310 0015 BA020000 		.4byte	.LASF132
 1311 0019 00000000 		.4byte	0x0
 1312 001d 00000000 		.4byte	0x0
 1313 0021 00000000 		.4byte	.Ldebug_ranges0+0x0
 1314 0025 00000000 		.4byte	.Ldebug_line0
 1315 0029 02       		.uleb128 0x2
ARM GAS  C:\Users\z80\AppData\Local\Temp\cck8eIfH.s 			page 25


 1316 002a 04       		.byte	0x4
 1317 002b 05       		.byte	0x5
 1318 002c 696E7400 		.ascii	"int\000"
 1319 0030 03       		.uleb128 0x3
 1320 0031 2F000000 		.4byte	.LASF2
 1321 0035 02       		.byte	0x2
 1322 0036 D3       		.byte	0xd3
 1323 0037 3B000000 		.4byte	0x3b
 1324 003b 04       		.uleb128 0x4
 1325 003c 04       		.byte	0x4
 1326 003d 07       		.byte	0x7
 1327 003e B4010000 		.4byte	.LASF0
 1328 0042 04       		.uleb128 0x4
 1329 0043 01       		.byte	0x1
 1330 0044 06       		.byte	0x6
 1331 0045 E0000000 		.4byte	.LASF1
 1332 0049 03       		.uleb128 0x3
 1333 004a CC040000 		.4byte	.LASF3
 1334 004e 03       		.byte	0x3
 1335 004f 2A       		.byte	0x2a
 1336 0050 54000000 		.4byte	0x54
 1337 0054 04       		.uleb128 0x4
 1338 0055 01       		.byte	0x1
 1339 0056 08       		.byte	0x8
 1340 0057 8B030000 		.4byte	.LASF4
 1341 005b 04       		.uleb128 0x4
 1342 005c 02       		.byte	0x2
 1343 005d 05       		.byte	0x5
 1344 005e 5A020000 		.4byte	.LASF5
 1345 0062 03       		.uleb128 0x3
 1346 0063 39020000 		.4byte	.LASF6
 1347 0067 03       		.byte	0x3
 1348 0068 36       		.byte	0x36
 1349 0069 6D000000 		.4byte	0x6d
 1350 006d 04       		.uleb128 0x4
 1351 006e 02       		.byte	0x2
 1352 006f 07       		.byte	0x7
 1353 0070 0E020000 		.4byte	.LASF7
 1354 0074 03       		.uleb128 0x3
 1355 0075 83030000 		.4byte	.LASF8
 1356 0079 03       		.byte	0x3
 1357 007a 4F       		.byte	0x4f
 1358 007b 7F000000 		.4byte	0x7f
 1359 007f 04       		.uleb128 0x4
 1360 0080 04       		.byte	0x4
 1361 0081 05       		.byte	0x5
 1362 0082 3D010000 		.4byte	.LASF9
 1363 0086 03       		.uleb128 0x3
 1364 0087 2B040000 		.4byte	.LASF10
 1365 008b 03       		.byte	0x3
 1366 008c 50       		.byte	0x50
 1367 008d 91000000 		.4byte	0x91
 1368 0091 04       		.uleb128 0x4
 1369 0092 04       		.byte	0x4
 1370 0093 07       		.byte	0x7
 1371 0094 54040000 		.4byte	.LASF11
 1372 0098 04       		.uleb128 0x4
ARM GAS  C:\Users\z80\AppData\Local\Temp\cck8eIfH.s 			page 26


 1373 0099 08       		.byte	0x8
 1374 009a 05       		.byte	0x5
 1375 009b D2000000 		.4byte	.LASF12
 1376 009f 03       		.uleb128 0x3
 1377 00a0 3D000000 		.4byte	.LASF13
 1378 00a4 03       		.byte	0x3
 1379 00a5 78       		.byte	0x78
 1380 00a6 AA000000 		.4byte	0xaa
 1381 00aa 04       		.uleb128 0x4
 1382 00ab 08       		.byte	0x8
 1383 00ac 07       		.byte	0x7
 1384 00ad 57000000 		.4byte	.LASF14
 1385 00b1 03       		.uleb128 0x3
 1386 00b2 31020000 		.4byte	.LASF15
 1387 00b6 04       		.byte	0x4
 1388 00b7 2F       		.byte	0x2f
 1389 00b8 49000000 		.4byte	0x49
 1390 00bc 03       		.uleb128 0x3
 1391 00bd 46010000 		.4byte	.LASF16
 1392 00c1 04       		.byte	0x4
 1393 00c2 30       		.byte	0x30
 1394 00c3 49000000 		.4byte	0x49
 1395 00c7 03       		.uleb128 0x3
 1396 00c8 5C030000 		.4byte	.LASF17
 1397 00cc 04       		.byte	0x4
 1398 00cd 32       		.byte	0x32
 1399 00ce 86000000 		.4byte	0x86
 1400 00d2 03       		.uleb128 0x3
 1401 00d3 2B020000 		.4byte	.LASF18
 1402 00d7 04       		.byte	0x4
 1403 00d8 33       		.byte	0x33
 1404 00d9 74000000 		.4byte	0x74
 1405 00dd 03       		.uleb128 0x3
 1406 00de 4E020000 		.4byte	.LASF19
 1407 00e2 04       		.byte	0x4
 1408 00e3 35       		.byte	0x35
 1409 00e4 86000000 		.4byte	0x86
 1410 00e8 03       		.uleb128 0x3
 1411 00e9 85040000 		.4byte	.LASF20
 1412 00ed 04       		.byte	0x4
 1413 00ee 36       		.byte	0x36
 1414 00ef 86000000 		.4byte	0x86
 1415 00f3 03       		.uleb128 0x3
 1416 00f4 A2010000 		.4byte	.LASF21
 1417 00f8 05       		.byte	0x5
 1418 00f9 2A       		.byte	0x2a
 1419 00fa FE000000 		.4byte	0xfe
 1420 00fe 05       		.uleb128 0x5
 1421 00ff A2010000 		.4byte	.LASF21
 1422 0103 48       		.byte	0x48
 1423 0104 06       		.byte	0x6
 1424 0105 5E       		.byte	0x5e
 1425 0106 07020000 		.4byte	0x207
 1426 010a 06       		.uleb128 0x6
 1427 010b DD030000 		.4byte	.LASF22
 1428 010f 06       		.byte	0x6
 1429 0110 5F       		.byte	0x5f
ARM GAS  C:\Users\z80\AppData\Local\Temp\cck8eIfH.s 			page 27


 1430 0111 2C020000 		.4byte	0x22c
 1431 0115 02       		.byte	0x2
 1432 0116 23       		.byte	0x23
 1433 0117 00       		.uleb128 0x0
 1434 0118 06       		.uleb128 0x6
 1435 0119 37030000 		.4byte	.LASF23
 1436 011d 06       		.byte	0x6
 1437 011e 61       		.byte	0x61
 1438 011f 2C020000 		.4byte	0x22c
 1439 0123 02       		.byte	0x2
 1440 0124 23       		.byte	0x23
 1441 0125 04       		.uleb128 0x4
 1442 0126 06       		.uleb128 0x6
 1443 0127 AC000000 		.4byte	.LASF24
 1444 012b 06       		.byte	0x6
 1445 012c 63       		.byte	0x63
 1446 012d C7000000 		.4byte	0xc7
 1447 0131 02       		.byte	0x2
 1448 0132 23       		.byte	0x23
 1449 0133 08       		.uleb128 0x8
 1450 0134 06       		.uleb128 0x6
 1451 0135 5A050000 		.4byte	.LASF25
 1452 0139 06       		.byte	0x6
 1453 013a 64       		.byte	0x64
 1454 013b 04030000 		.4byte	0x304
 1455 013f 02       		.byte	0x2
 1456 0140 23       		.byte	0x23
 1457 0141 0C       		.uleb128 0xc
 1458 0142 06       		.uleb128 0x6
 1459 0143 67010000 		.4byte	.LASF26
 1460 0147 06       		.byte	0x6
 1461 0148 66       		.byte	0x66
 1462 0149 2C020000 		.4byte	0x22c
 1463 014d 02       		.byte	0x2
 1464 014e 23       		.byte	0x23
 1465 014f 10       		.uleb128 0x10
 1466 0150 06       		.uleb128 0x6
 1467 0151 95020000 		.4byte	.LASF27
 1468 0155 06       		.byte	0x6
 1469 0156 67       		.byte	0x67
 1470 0157 2C020000 		.4byte	0x22c
 1471 015b 02       		.byte	0x2
 1472 015c 23       		.byte	0x23
 1473 015d 14       		.uleb128 0x14
 1474 015e 06       		.uleb128 0x6
 1475 015f 11050000 		.4byte	.LASF28
 1476 0163 06       		.byte	0x6
 1477 0164 6E       		.byte	0x6e
 1478 0165 B1030000 		.4byte	0x3b1
 1479 0169 02       		.byte	0x2
 1480 016a 23       		.byte	0x23
 1481 016b 18       		.uleb128 0x18
 1482 016c 06       		.uleb128 0x6
 1483 016d A9010000 		.4byte	.LASF29
 1484 0171 06       		.byte	0x6
 1485 0172 74       		.byte	0x74
 1486 0173 C3030000 		.4byte	0x3c3
ARM GAS  C:\Users\z80\AppData\Local\Temp\cck8eIfH.s 			page 28


 1487 0177 02       		.byte	0x2
 1488 0178 23       		.byte	0x23
 1489 0179 1C       		.uleb128 0x1c
 1490 017a 06       		.uleb128 0x6
 1491 017b C1030000 		.4byte	.LASF30
 1492 017f 06       		.byte	0x6
 1493 0180 79       		.byte	0x79
 1494 0181 BC000000 		.4byte	0xbc
 1495 0185 02       		.byte	0x2
 1496 0186 23       		.byte	0x23
 1497 0187 20       		.uleb128 0x20
 1498 0188 06       		.uleb128 0x6
 1499 0189 E4030000 		.4byte	.LASF31
 1500 018d 06       		.byte	0x6
 1501 018e 7D       		.byte	0x7d
 1502 018f B1000000 		.4byte	0xb1
 1503 0193 02       		.byte	0x2
 1504 0194 23       		.byte	0x23
 1505 0195 21       		.uleb128 0x21
 1506 0196 06       		.uleb128 0x6
 1507 0197 60010000 		.4byte	.LASF32
 1508 019b 06       		.byte	0x6
 1509 019c 89       		.byte	0x89
 1510 019d 2F030000 		.4byte	0x32f
 1511 01a1 02       		.byte	0x2
 1512 01a2 23       		.byte	0x23
 1513 01a3 24       		.uleb128 0x24
 1514 01a4 07       		.uleb128 0x7
 1515 01a5 705F7500 		.ascii	"p_u\000"
 1516 01a9 06       		.byte	0x6
 1517 01aa AE       		.byte	0xae
 1518 01ab 7C030000 		.4byte	0x37c
 1519 01af 02       		.byte	0x2
 1520 01b0 23       		.byte	0x23
 1521 01b1 28       		.uleb128 0x28
 1522 01b2 06       		.uleb128 0x6
 1523 01b3 60050000 		.4byte	.LASF33
 1524 01b7 06       		.byte	0x6
 1525 01b8 B3       		.byte	0xb3
 1526 01b9 54020000 		.4byte	0x254
 1527 01bd 02       		.byte	0x2
 1528 01be 23       		.byte	0x23
 1529 01bf 2C       		.uleb128 0x2c
 1530 01c0 06       		.uleb128 0x6
 1531 01c1 CC010000 		.4byte	.LASF34
 1532 01c5 06       		.byte	0x6
 1533 01c6 B9       		.byte	0xb9
 1534 01c7 32020000 		.4byte	0x232
 1535 01cb 02       		.byte	0x2
 1536 01cc 23       		.byte	0x23
 1537 01cd 30       		.uleb128 0x30
 1538 01ce 06       		.uleb128 0x6
 1539 01cf 20050000 		.4byte	.LASF35
 1540 01d3 06       		.byte	0x6
 1541 01d4 BD       		.byte	0xbd
 1542 01d5 D2000000 		.4byte	0xd2
 1543 01d9 02       		.byte	0x2
ARM GAS  C:\Users\z80\AppData\Local\Temp\cck8eIfH.s 			page 29


 1544 01da 23       		.byte	0x23
 1545 01db 38       		.uleb128 0x38
 1546 01dc 06       		.uleb128 0x6
 1547 01dd 11040000 		.4byte	.LASF36
 1548 01e1 06       		.byte	0x6
 1549 01e2 C3       		.byte	0xc3
 1550 01e3 DD000000 		.4byte	0xdd
 1551 01e7 02       		.byte	0x2
 1552 01e8 23       		.byte	0x23
 1553 01e9 3C       		.uleb128 0x3c
 1554 01ea 06       		.uleb128 0x6
 1555 01eb AC030000 		.4byte	.LASF37
 1556 01ef 06       		.byte	0x6
 1557 01f0 CA       		.byte	0xca
 1558 01f1 C9030000 		.4byte	0x3c9
 1559 01f5 02       		.byte	0x2
 1560 01f6 23       		.byte	0x23
 1561 01f7 40       		.uleb128 0x40
 1562 01f8 06       		.uleb128 0x6
 1563 01f9 8F040000 		.4byte	.LASF38
 1564 01fd 06       		.byte	0x6
 1565 01fe CE       		.byte	0xce
 1566 01ff C7000000 		.4byte	0xc7
 1567 0203 02       		.byte	0x2
 1568 0204 23       		.byte	0x23
 1569 0205 44       		.uleb128 0x44
 1570 0206 00       		.byte	0x0
 1571 0207 08       		.uleb128 0x8
 1572 0208 08       		.byte	0x8
 1573 0209 05       		.byte	0x5
 1574 020a 61       		.byte	0x61
 1575 020b 2C020000 		.4byte	0x22c
 1576 020f 06       		.uleb128 0x6
 1577 0210 DD030000 		.4byte	.LASF22
 1578 0214 05       		.byte	0x5
 1579 0215 62       		.byte	0x62
 1580 0216 2C020000 		.4byte	0x22c
 1581 021a 02       		.byte	0x2
 1582 021b 23       		.byte	0x23
 1583 021c 00       		.uleb128 0x0
 1584 021d 06       		.uleb128 0x6
 1585 021e 37030000 		.4byte	.LASF23
 1586 0222 05       		.byte	0x5
 1587 0223 64       		.byte	0x64
 1588 0224 2C020000 		.4byte	0x22c
 1589 0228 02       		.byte	0x2
 1590 0229 23       		.byte	0x23
 1591 022a 04       		.uleb128 0x4
 1592 022b 00       		.byte	0x0
 1593 022c 09       		.uleb128 0x9
 1594 022d 04       		.byte	0x4
 1595 022e F3000000 		.4byte	0xf3
 1596 0232 03       		.uleb128 0x3
 1597 0233 AD020000 		.4byte	.LASF39
 1598 0237 05       		.byte	0x5
 1599 0238 66       		.byte	0x66
 1600 0239 07020000 		.4byte	0x207
ARM GAS  C:\Users\z80\AppData\Local\Temp\cck8eIfH.s 			page 30


 1601 023d 08       		.uleb128 0x8
 1602 023e 04       		.byte	0x4
 1603 023f 05       		.byte	0x5
 1604 0240 6B       		.byte	0x6b
 1605 0241 54020000 		.4byte	0x254
 1606 0245 06       		.uleb128 0x6
 1607 0246 DD030000 		.4byte	.LASF22
 1608 024a 05       		.byte	0x5
 1609 024b 6D       		.byte	0x6d
 1610 024c 2C020000 		.4byte	0x22c
 1611 0250 02       		.byte	0x2
 1612 0251 23       		.byte	0x23
 1613 0252 00       		.uleb128 0x0
 1614 0253 00       		.byte	0x0
 1615 0254 03       		.uleb128 0x3
 1616 0255 42020000 		.4byte	.LASF40
 1617 0259 05       		.byte	0x5
 1618 025a 70       		.byte	0x70
 1619 025b 3D020000 		.4byte	0x23d
 1620 025f 03       		.uleb128 0x3
 1621 0260 87010000 		.4byte	.LASF41
 1622 0264 07       		.byte	0x7
 1623 0265 D7       		.byte	0xd7
 1624 0266 6A020000 		.4byte	0x26a
 1625 026a 0A       		.uleb128 0xa
 1626 026b 04       		.byte	0x4
 1627 026c 03       		.uleb128 0x3
 1628 026d 64020000 		.4byte	.LASF42
 1629 0271 07       		.byte	0x7
 1630 0272 DD       		.byte	0xdd
 1631 0273 9F000000 		.4byte	0x9f
 1632 0277 05       		.uleb128 0x5
 1633 0278 AC040000 		.4byte	.LASF43
 1634 027c 24       		.byte	0x24
 1635 027d 07       		.byte	0x7
 1636 027e FE       		.byte	0xfe
 1637 027f 04030000 		.4byte	0x304
 1638 0283 0B       		.uleb128 0xb
 1639 0284 723400   		.ascii	"r4\000"
 1640 0287 07       		.byte	0x7
 1641 0288 1101     		.2byte	0x111
 1642 028a 5F020000 		.4byte	0x25f
 1643 028e 02       		.byte	0x2
 1644 028f 23       		.byte	0x23
 1645 0290 00       		.uleb128 0x0
 1646 0291 0B       		.uleb128 0xb
 1647 0292 723500   		.ascii	"r5\000"
 1648 0295 07       		.byte	0x7
 1649 0296 1201     		.2byte	0x112
 1650 0298 5F020000 		.4byte	0x25f
 1651 029c 02       		.byte	0x2
 1652 029d 23       		.byte	0x23
 1653 029e 04       		.uleb128 0x4
 1654 029f 0B       		.uleb128 0xb
 1655 02a0 723600   		.ascii	"r6\000"
 1656 02a3 07       		.byte	0x7
 1657 02a4 1301     		.2byte	0x113
ARM GAS  C:\Users\z80\AppData\Local\Temp\cck8eIfH.s 			page 31


 1658 02a6 5F020000 		.4byte	0x25f
 1659 02aa 02       		.byte	0x2
 1660 02ab 23       		.byte	0x23
 1661 02ac 08       		.uleb128 0x8
 1662 02ad 0B       		.uleb128 0xb
 1663 02ae 723700   		.ascii	"r7\000"
 1664 02b1 07       		.byte	0x7
 1665 02b2 1401     		.2byte	0x114
 1666 02b4 5F020000 		.4byte	0x25f
 1667 02b8 02       		.byte	0x2
 1668 02b9 23       		.byte	0x23
 1669 02ba 0C       		.uleb128 0xc
 1670 02bb 0B       		.uleb128 0xb
 1671 02bc 723800   		.ascii	"r8\000"
 1672 02bf 07       		.byte	0x7
 1673 02c0 1501     		.2byte	0x115
 1674 02c2 5F020000 		.4byte	0x25f
 1675 02c6 02       		.byte	0x2
 1676 02c7 23       		.byte	0x23
 1677 02c8 10       		.uleb128 0x10
 1678 02c9 0B       		.uleb128 0xb
 1679 02ca 723900   		.ascii	"r9\000"
 1680 02cd 07       		.byte	0x7
 1681 02ce 1601     		.2byte	0x116
 1682 02d0 5F020000 		.4byte	0x25f
 1683 02d4 02       		.byte	0x2
 1684 02d5 23       		.byte	0x23
 1685 02d6 14       		.uleb128 0x14
 1686 02d7 0B       		.uleb128 0xb
 1687 02d8 72313000 		.ascii	"r10\000"
 1688 02dc 07       		.byte	0x7
 1689 02dd 1701     		.2byte	0x117
 1690 02df 5F020000 		.4byte	0x25f
 1691 02e3 02       		.byte	0x2
 1692 02e4 23       		.byte	0x23
 1693 02e5 18       		.uleb128 0x18
 1694 02e6 0B       		.uleb128 0xb
 1695 02e7 72313100 		.ascii	"r11\000"
 1696 02eb 07       		.byte	0x7
 1697 02ec 1801     		.2byte	0x118
 1698 02ee 5F020000 		.4byte	0x25f
 1699 02f2 02       		.byte	0x2
 1700 02f3 23       		.byte	0x23
 1701 02f4 1C       		.uleb128 0x1c
 1702 02f5 0B       		.uleb128 0xb
 1703 02f6 6C7200   		.ascii	"lr\000"
 1704 02f9 07       		.byte	0x7
 1705 02fa 1901     		.2byte	0x119
 1706 02fc 5F020000 		.4byte	0x25f
 1707 0300 02       		.byte	0x2
 1708 0301 23       		.byte	0x23
 1709 0302 20       		.uleb128 0x20
 1710 0303 00       		.byte	0x0
 1711 0304 0C       		.uleb128 0xc
 1712 0305 A4040000 		.4byte	.LASF44
 1713 0309 04       		.byte	0x4
 1714 030a 07       		.byte	0x7
ARM GAS  C:\Users\z80\AppData\Local\Temp\cck8eIfH.s 			page 32


 1715 030b 2301     		.2byte	0x123
 1716 030d 21030000 		.4byte	0x321
 1717 0311 0B       		.uleb128 0xb
 1718 0312 72313300 		.ascii	"r13\000"
 1719 0316 07       		.byte	0x7
 1720 0317 2401     		.2byte	0x124
 1721 0319 21030000 		.4byte	0x321
 1722 031d 02       		.byte	0x2
 1723 031e 23       		.byte	0x23
 1724 031f 00       		.uleb128 0x0
 1725 0320 00       		.byte	0x0
 1726 0321 09       		.uleb128 0x9
 1727 0322 04       		.byte	0x4
 1728 0323 77020000 		.4byte	0x277
 1729 0327 0D       		.uleb128 0xd
 1730 0328 86000000 		.4byte	0x86
 1731 032c 0E       		.uleb128 0xe
 1732 032d 04       		.byte	0x4
 1733 032e 07       		.byte	0x7
 1734 032f 0D       		.uleb128 0xd
 1735 0330 E8000000 		.4byte	0xe8
 1736 0334 05       		.uleb128 0x5
 1737 0335 78020000 		.4byte	.LASF45
 1738 0339 10       		.byte	0x10
 1739 033a 08       		.byte	0x8
 1740 033b 2C       		.byte	0x2c
 1741 033c 6B030000 		.4byte	0x36b
 1742 0340 06       		.uleb128 0x6
 1743 0341 03010000 		.4byte	.LASF46
 1744 0345 08       		.byte	0x8
 1745 0346 2D       		.byte	0x2d
 1746 0347 32020000 		.4byte	0x232
 1747 034b 02       		.byte	0x2
 1748 034c 23       		.byte	0x23
 1749 034d 00       		.uleb128 0x0
 1750 034e 06       		.uleb128 0x6
 1751 034f 52050000 		.4byte	.LASF47
 1752 0353 08       		.byte	0x8
 1753 0354 2F       		.byte	0x2f
 1754 0355 2C020000 		.4byte	0x22c
 1755 0359 02       		.byte	0x2
 1756 035a 23       		.byte	0x23
 1757 035b 08       		.uleb128 0x8
 1758 035c 06       		.uleb128 0x6
 1759 035d 7E040000 		.4byte	.LASF48
 1760 0361 08       		.byte	0x8
 1761 0362 31       		.byte	0x31
 1762 0363 6B030000 		.4byte	0x36b
 1763 0367 02       		.byte	0x2
 1764 0368 23       		.byte	0x23
 1765 0369 0C       		.uleb128 0xc
 1766 036a 00       		.byte	0x0
 1767 036b 09       		.uleb128 0x9
 1768 036c 04       		.byte	0x4
 1769 036d 34030000 		.4byte	0x334
 1770 0371 03       		.uleb128 0x3
 1771 0372 78020000 		.4byte	.LASF45
ARM GAS  C:\Users\z80\AppData\Local\Temp\cck8eIfH.s 			page 33


 1772 0376 08       		.byte	0x8
 1773 0377 33       		.byte	0x33
 1774 0378 34030000 		.4byte	0x334
 1775 037c 0F       		.uleb128 0xf
 1776 037d 04       		.byte	0x4
 1777 037e 06       		.byte	0x6
 1778 037f 90       		.byte	0x90
 1779 0380 B1030000 		.4byte	0x3b1
 1780 0384 10       		.uleb128 0x10
 1781 0385 36000000 		.4byte	.LASF49
 1782 0389 06       		.byte	0x6
 1783 038a 97       		.byte	0x97
 1784 038b D2000000 		.4byte	0xd2
 1785 038f 10       		.uleb128 0x10
 1786 0390 7C000000 		.4byte	.LASF50
 1787 0394 06       		.byte	0x6
 1788 0395 9E       		.byte	0x9e
 1789 0396 D2000000 		.4byte	0xd2
 1790 039a 10       		.uleb128 0x10
 1791 039b 0A050000 		.4byte	.LASF51
 1792 039f 06       		.byte	0x6
 1793 03a0 A5       		.byte	0xa5
 1794 03a1 6A020000 		.4byte	0x26a
 1795 03a5 10       		.uleb128 0x10
 1796 03a6 D6030000 		.4byte	.LASF52
 1797 03aa 06       		.byte	0x6
 1798 03ab AC       		.byte	0xac
 1799 03ac DD000000 		.4byte	0xdd
 1800 03b0 00       		.byte	0x0
 1801 03b1 09       		.uleb128 0x9
 1802 03b2 04       		.byte	0x4
 1803 03b3 B7030000 		.4byte	0x3b7
 1804 03b7 11       		.uleb128 0x11
 1805 03b8 BC030000 		.4byte	0x3bc
 1806 03bc 04       		.uleb128 0x4
 1807 03bd 01       		.byte	0x1
 1808 03be 08       		.byte	0x8
 1809 03bf 66040000 		.4byte	.LASF53
 1810 03c3 09       		.uleb128 0x9
 1811 03c4 04       		.byte	0x4
 1812 03c5 6C020000 		.4byte	0x26c
 1813 03c9 09       		.uleb128 0x9
 1814 03ca 04       		.byte	0x4
 1815 03cb 71030000 		.4byte	0x371
 1816 03cf 09       		.uleb128 0x9
 1817 03d0 04       		.byte	0x4
 1818 03d1 49000000 		.4byte	0x49
 1819 03d5 09       		.uleb128 0x9
 1820 03d6 04       		.byte	0x4
 1821 03d7 DB030000 		.4byte	0x3db
 1822 03db 11       		.uleb128 0x11
 1823 03dc 49000000 		.4byte	0x49
 1824 03e0 0D       		.uleb128 0xd
 1825 03e1 62000000 		.4byte	0x62
 1826 03e5 0D       		.uleb128 0xd
 1827 03e6 74000000 		.4byte	0x74
 1828 03ea 12       		.uleb128 0x12
ARM GAS  C:\Users\z80\AppData\Local\Temp\cck8eIfH.s 			page 34


 1829 03eb 10       		.byte	0x10
 1830 03ec 09       		.byte	0x9
 1831 03ed 2D03     		.2byte	0x32d
 1832 03ef 30040000 		.4byte	0x430
 1833 03f3 0B       		.uleb128 0xb
 1834 03f4 43435200 		.ascii	"CCR\000"
 1835 03f8 09       		.byte	0x9
 1836 03f9 2F03     		.2byte	0x32f
 1837 03fb 27030000 		.4byte	0x327
 1838 03ff 02       		.byte	0x2
 1839 0400 23       		.byte	0x23
 1840 0401 00       		.uleb128 0x0
 1841 0402 13       		.uleb128 0x13
 1842 0403 C1040000 		.4byte	.LASF54
 1843 0407 09       		.byte	0x9
 1844 0408 3003     		.2byte	0x330
 1845 040a 27030000 		.4byte	0x327
 1846 040e 02       		.byte	0x2
 1847 040f 23       		.byte	0x23
 1848 0410 04       		.uleb128 0x4
 1849 0411 13       		.uleb128 0x13
 1850 0412 C7010000 		.4byte	.LASF55
 1851 0416 09       		.byte	0x9
 1852 0417 3103     		.2byte	0x331
 1853 0419 27030000 		.4byte	0x327
 1854 041d 02       		.byte	0x2
 1855 041e 23       		.byte	0x23
 1856 041f 08       		.uleb128 0x8
 1857 0420 13       		.uleb128 0x13
 1858 0421 C7040000 		.4byte	.LASF56
 1859 0425 09       		.byte	0x9
 1860 0426 3203     		.2byte	0x332
 1861 0428 27030000 		.4byte	0x327
 1862 042c 02       		.byte	0x2
 1863 042d 23       		.byte	0x23
 1864 042e 0C       		.uleb128 0xc
 1865 042f 00       		.byte	0x0
 1866 0430 14       		.uleb128 0x14
 1867 0431 DF010000 		.4byte	.LASF57
 1868 0435 09       		.byte	0x9
 1869 0436 3303     		.2byte	0x333
 1870 0438 EA030000 		.4byte	0x3ea
 1871 043c 12       		.uleb128 0x12
 1872 043d 24       		.byte	0x24
 1873 043e 09       		.byte	0x9
 1874 043f 1304     		.2byte	0x413
 1875 0441 53050000 		.4byte	0x553
 1876 0445 0B       		.uleb128 0xb
 1877 0446 43523100 		.ascii	"CR1\000"
 1878 044a 09       		.byte	0x9
 1879 044b 1504     		.2byte	0x415
 1880 044d E0030000 		.4byte	0x3e0
 1881 0451 02       		.byte	0x2
 1882 0452 23       		.byte	0x23
 1883 0453 00       		.uleb128 0x0
 1884 0454 13       		.uleb128 0x13
 1885 0455 05030000 		.4byte	.LASF58
ARM GAS  C:\Users\z80\AppData\Local\Temp\cck8eIfH.s 			page 35


 1886 0459 09       		.byte	0x9
 1887 045a 1604     		.2byte	0x416
 1888 045c 62000000 		.4byte	0x62
 1889 0460 02       		.byte	0x2
 1890 0461 23       		.byte	0x23
 1891 0462 02       		.uleb128 0x2
 1892 0463 0B       		.uleb128 0xb
 1893 0464 43523200 		.ascii	"CR2\000"
 1894 0468 09       		.byte	0x9
 1895 0469 1704     		.2byte	0x417
 1896 046b E0030000 		.4byte	0x3e0
 1897 046f 02       		.byte	0x2
 1898 0470 23       		.byte	0x23
 1899 0471 04       		.uleb128 0x4
 1900 0472 13       		.uleb128 0x13
 1901 0473 0F030000 		.4byte	.LASF59
 1902 0477 09       		.byte	0x9
 1903 0478 1804     		.2byte	0x418
 1904 047a 62000000 		.4byte	0x62
 1905 047e 02       		.byte	0x2
 1906 047f 23       		.byte	0x23
 1907 0480 06       		.uleb128 0x6
 1908 0481 13       		.uleb128 0x13
 1909 0482 D4040000 		.4byte	.LASF60
 1910 0486 09       		.byte	0x9
 1911 0487 1904     		.2byte	0x419
 1912 0489 E0030000 		.4byte	0x3e0
 1913 048d 02       		.byte	0x2
 1914 048e 23       		.byte	0x23
 1915 048f 08       		.uleb128 0x8
 1916 0490 13       		.uleb128 0x13
 1917 0491 19030000 		.4byte	.LASF61
 1918 0495 09       		.byte	0x9
 1919 0496 1A04     		.2byte	0x41a
 1920 0498 62000000 		.4byte	0x62
 1921 049c 02       		.byte	0x2
 1922 049d 23       		.byte	0x23
 1923 049e 0A       		.uleb128 0xa
 1924 049f 13       		.uleb128 0x13
 1925 04a0 D9040000 		.4byte	.LASF62
 1926 04a4 09       		.byte	0x9
 1927 04a5 1B04     		.2byte	0x41b
 1928 04a7 E0030000 		.4byte	0x3e0
 1929 04ab 02       		.byte	0x2
 1930 04ac 23       		.byte	0x23
 1931 04ad 0C       		.uleb128 0xc
 1932 04ae 13       		.uleb128 0x13
 1933 04af 23030000 		.4byte	.LASF63
 1934 04b3 09       		.byte	0x9
 1935 04b4 1C04     		.2byte	0x41c
 1936 04b6 62000000 		.4byte	0x62
 1937 04ba 02       		.byte	0x2
 1938 04bb 23       		.byte	0x23
 1939 04bc 0E       		.uleb128 0xe
 1940 04bd 0B       		.uleb128 0xb
 1941 04be 445200   		.ascii	"DR\000"
 1942 04c1 09       		.byte	0x9
ARM GAS  C:\Users\z80\AppData\Local\Temp\cck8eIfH.s 			page 36


 1943 04c2 1D04     		.2byte	0x41d
 1944 04c4 E0030000 		.4byte	0x3e0
 1945 04c8 02       		.byte	0x2
 1946 04c9 23       		.byte	0x23
 1947 04ca 10       		.uleb128 0x10
 1948 04cb 13       		.uleb128 0x13
 1949 04cc 2D030000 		.4byte	.LASF64
 1950 04d0 09       		.byte	0x9
 1951 04d1 1E04     		.2byte	0x41e
 1952 04d3 62000000 		.4byte	0x62
 1953 04d7 02       		.byte	0x2
 1954 04d8 23       		.byte	0x23
 1955 04d9 12       		.uleb128 0x12
 1956 04da 0B       		.uleb128 0xb
 1957 04db 53523100 		.ascii	"SR1\000"
 1958 04df 09       		.byte	0x9
 1959 04e0 1F04     		.2byte	0x41f
 1960 04e2 E0030000 		.4byte	0x3e0
 1961 04e6 02       		.byte	0x2
 1962 04e7 23       		.byte	0x23
 1963 04e8 14       		.uleb128 0x14
 1964 04e9 13       		.uleb128 0x13
 1965 04ea 21040000 		.4byte	.LASF65
 1966 04ee 09       		.byte	0x9
 1967 04ef 2004     		.2byte	0x420
 1968 04f1 62000000 		.4byte	0x62
 1969 04f5 02       		.byte	0x2
 1970 04f6 23       		.byte	0x23
 1971 04f7 16       		.uleb128 0x16
 1972 04f8 0B       		.uleb128 0xb
 1973 04f9 53523200 		.ascii	"SR2\000"
 1974 04fd 09       		.byte	0x9
 1975 04fe 2104     		.2byte	0x421
 1976 0500 E0030000 		.4byte	0x3e0
 1977 0504 02       		.byte	0x2
 1978 0505 23       		.byte	0x23
 1979 0506 18       		.uleb128 0x18
 1980 0507 13       		.uleb128 0x13
 1981 0508 3E030000 		.4byte	.LASF66
 1982 050c 09       		.byte	0x9
 1983 050d 2204     		.2byte	0x422
 1984 050f 62000000 		.4byte	0x62
 1985 0513 02       		.byte	0x2
 1986 0514 23       		.byte	0x23
 1987 0515 1A       		.uleb128 0x1a
 1988 0516 0B       		.uleb128 0xb
 1989 0517 43435200 		.ascii	"CCR\000"
 1990 051b 09       		.byte	0x9
 1991 051c 2304     		.2byte	0x423
 1992 051e E0030000 		.4byte	0x3e0
 1993 0522 02       		.byte	0x2
 1994 0523 23       		.byte	0x23
 1995 0524 1C       		.uleb128 0x1c
 1996 0525 13       		.uleb128 0x13
 1997 0526 48030000 		.4byte	.LASF67
 1998 052a 09       		.byte	0x9
 1999 052b 2404     		.2byte	0x424
ARM GAS  C:\Users\z80\AppData\Local\Temp\cck8eIfH.s 			page 37


 2000 052d 62000000 		.4byte	0x62
 2001 0531 02       		.byte	0x2
 2002 0532 23       		.byte	0x23
 2003 0533 1E       		.uleb128 0x1e
 2004 0534 13       		.uleb128 0x13
 2005 0535 46000000 		.4byte	.LASF68
 2006 0539 09       		.byte	0x9
 2007 053a 2504     		.2byte	0x425
 2008 053c E0030000 		.4byte	0x3e0
 2009 0540 02       		.byte	0x2
 2010 0541 23       		.byte	0x23
 2011 0542 20       		.uleb128 0x20
 2012 0543 13       		.uleb128 0x13
 2013 0544 52030000 		.4byte	.LASF69
 2014 0548 09       		.byte	0x9
 2015 0549 2604     		.2byte	0x426
 2016 054b 62000000 		.4byte	0x62
 2017 054f 02       		.byte	0x2
 2018 0550 23       		.byte	0x23
 2019 0551 22       		.uleb128 0x22
 2020 0552 00       		.byte	0x0
 2021 0553 14       		.uleb128 0x14
 2022 0554 26050000 		.4byte	.LASF70
 2023 0558 09       		.byte	0x9
 2024 0559 2704     		.2byte	0x427
 2025 055b 3C040000 		.4byte	0x43c
 2026 055f 08       		.uleb128 0x8
 2027 0560 0C       		.byte	0xc
 2028 0561 0A       		.byte	0xa
 2029 0562 C2       		.byte	0xc2
 2030 0563 AE050000 		.4byte	0x5ae
 2031 0567 06       		.uleb128 0x6
 2032 0568 FE030000 		.4byte	.LASF71
 2033 056c 0A       		.byte	0xa
 2034 056d C3       		.byte	0xc3
 2035 056e AE050000 		.4byte	0x5ae
 2036 0572 02       		.byte	0x2
 2037 0573 23       		.byte	0x23
 2038 0574 00       		.uleb128 0x0
 2039 0575 06       		.uleb128 0x6
 2040 0576 1C040000 		.4byte	.LASF72
 2041 057a 0A       		.byte	0xa
 2042 057b C4       		.byte	0xc4
 2043 057c B4050000 		.4byte	0x5b4
 2044 0580 02       		.byte	0x2
 2045 0581 23       		.byte	0x23
 2046 0582 04       		.uleb128 0x4
 2047 0583 06       		.uleb128 0x6
 2048 0584 F3010000 		.4byte	.LASF73
 2049 0588 0A       		.byte	0xa
 2050 0589 C5       		.byte	0xc5
 2051 058a 49000000 		.4byte	0x49
 2052 058e 02       		.byte	0x2
 2053 058f 23       		.byte	0x23
 2054 0590 08       		.uleb128 0x8
 2055 0591 06       		.uleb128 0x6
 2056 0592 90010000 		.4byte	.LASF74
ARM GAS  C:\Users\z80\AppData\Local\Temp\cck8eIfH.s 			page 38


 2057 0596 0A       		.byte	0xa
 2058 0597 C7       		.byte	0xc7
 2059 0598 49000000 		.4byte	0x49
 2060 059c 02       		.byte	0x2
 2061 059d 23       		.byte	0x23
 2062 059e 09       		.uleb128 0x9
 2063 059f 06       		.uleb128 0x6
 2064 05a0 85000000 		.4byte	.LASF75
 2065 05a4 0A       		.byte	0xa
 2066 05a5 C8       		.byte	0xc8
 2067 05a6 49000000 		.4byte	0x49
 2068 05aa 02       		.byte	0x2
 2069 05ab 23       		.byte	0x23
 2070 05ac 0A       		.uleb128 0xa
 2071 05ad 00       		.byte	0x0
 2072 05ae 09       		.uleb128 0x9
 2073 05af 04       		.byte	0x4
 2074 05b0 30040000 		.4byte	0x430
 2075 05b4 09       		.uleb128 0x9
 2076 05b5 04       		.byte	0x4
 2077 05b6 27030000 		.4byte	0x327
 2078 05ba 03       		.uleb128 0x3
 2079 05bb 99030000 		.4byte	.LASF76
 2080 05bf 0A       		.byte	0xa
 2081 05c0 C9       		.byte	0xc9
 2082 05c1 5F050000 		.4byte	0x55f
 2083 05c5 09       		.uleb128 0x9
 2084 05c6 04       		.byte	0x4
 2085 05c7 CB050000 		.4byte	0x5cb
 2086 05cb 11       		.uleb128 0x11
 2087 05cc BA050000 		.4byte	0x5ba
 2088 05d0 15       		.uleb128 0x15
 2089 05d1 01       		.byte	0x1
 2090 05d2 0B       		.byte	0xb
 2091 05d3 5B       		.byte	0x5b
 2092 05d4 FD050000 		.4byte	0x5fd
 2093 05d8 16       		.uleb128 0x16
 2094 05d9 B6030000 		.4byte	.LASF77
 2095 05dd 00       		.sleb128 0
 2096 05de 16       		.uleb128 0x16
 2097 05df 6F020000 		.4byte	.LASF78
 2098 05e3 01       		.sleb128 1
 2099 05e4 16       		.uleb128 0x16
 2100 05e5 9A040000 		.4byte	.LASF79
 2101 05e9 02       		.sleb128 2
 2102 05ea 16       		.uleb128 0x16
 2103 05eb 64030000 		.4byte	.LASF80
 2104 05ef 03       		.sleb128 3
 2105 05f0 16       		.uleb128 0x16
 2106 05f1 46040000 		.4byte	.LASF81
 2107 05f5 04       		.sleb128 4
 2108 05f6 16       		.uleb128 0x16
 2109 05f7 06040000 		.4byte	.LASF82
 2110 05fb 05       		.sleb128 5
 2111 05fc 00       		.byte	0x0
 2112 05fd 03       		.uleb128 0x3
 2113 05fe 24000000 		.4byte	.LASF83
ARM GAS  C:\Users\z80\AppData\Local\Temp\cck8eIfH.s 			page 39


 2114 0602 0B       		.byte	0xb
 2115 0603 62       		.byte	0x62
 2116 0604 D0050000 		.4byte	0x5d0
 2117 0608 14       		.uleb128 0x14
 2118 0609 2D010000 		.4byte	.LASF84
 2119 060d 0C       		.byte	0xc
 2120 060e 4001     		.2byte	0x140
 2121 0610 62000000 		.4byte	0x62
 2122 0614 14       		.uleb128 0x14
 2123 0615 72030000 		.4byte	.LASF85
 2124 0619 0C       		.byte	0xc
 2125 061a 4501     		.2byte	0x145
 2126 061c 86000000 		.4byte	0x86
 2127 0620 17       		.uleb128 0x17
 2128 0621 01       		.byte	0x1
 2129 0622 0C       		.byte	0xc
 2130 0623 4A01     		.2byte	0x14a
 2131 0625 3C060000 		.4byte	0x63c
 2132 0629 16       		.uleb128 0x16
 2133 062a E5020000 		.4byte	.LASF86
 2134 062e 01       		.sleb128 1
 2135 062f 16       		.uleb128 0x16
 2136 0630 FA010000 		.4byte	.LASF87
 2137 0634 02       		.sleb128 2
 2138 0635 16       		.uleb128 0x16
 2139 0636 75010000 		.4byte	.LASF88
 2140 063a 03       		.sleb128 3
 2141 063b 00       		.byte	0x0
 2142 063c 14       		.uleb128 0x14
 2143 063d 32050000 		.4byte	.LASF89
 2144 0641 0C       		.byte	0xc
 2145 0642 4E01     		.2byte	0x14e
 2146 0644 20060000 		.4byte	0x620
 2147 0648 17       		.uleb128 0x17
 2148 0649 01       		.byte	0x1
 2149 064a 0C       		.byte	0xc
 2150 064b 5301     		.2byte	0x153
 2151 064d 64060000 		.4byte	0x664
 2152 0651 16       		.uleb128 0x16
 2153 0652 00000000 		.4byte	.LASF90
 2154 0656 01       		.sleb128 1
 2155 0657 16       		.uleb128 0x16
 2156 0658 EC030000 		.4byte	.LASF91
 2157 065c 02       		.sleb128 2
 2158 065d 16       		.uleb128 0x16
 2159 065e F0020000 		.4byte	.LASF92
 2160 0662 03       		.sleb128 3
 2161 0663 00       		.byte	0x0
 2162 0664 14       		.uleb128 0x14
 2163 0665 15000000 		.4byte	.LASF93
 2164 0669 0C       		.byte	0xc
 2165 066a 5701     		.2byte	0x157
 2166 066c 48060000 		.4byte	0x648
 2167 0670 12       		.uleb128 0x12
 2168 0671 0C       		.byte	0xc
 2169 0672 0C       		.byte	0xc
 2170 0673 5C01     		.2byte	0x15c
ARM GAS  C:\Users\z80\AppData\Local\Temp\cck8eIfH.s 			page 40


 2171 0675 A7060000 		.4byte	0x6a7
 2172 0679 13       		.uleb128 0x13
 2173 067a 9A010000 		.4byte	.LASF94
 2174 067e 0C       		.byte	0xc
 2175 067f 5D01     		.2byte	0x15d
 2176 0681 3C060000 		.4byte	0x63c
 2177 0685 02       		.byte	0x2
 2178 0686 23       		.byte	0x23
 2179 0687 00       		.uleb128 0x0
 2180 0688 13       		.uleb128 0x13
 2181 0689 F7000000 		.4byte	.LASF95
 2182 068d 0C       		.byte	0xc
 2183 068e 5E01     		.2byte	0x15e
 2184 0690 86000000 		.4byte	0x86
 2185 0694 02       		.byte	0x2
 2186 0695 23       		.byte	0x23
 2187 0696 04       		.uleb128 0x4
 2188 0697 13       		.uleb128 0x13
 2189 0698 85020000 		.4byte	.LASF96
 2190 069c 0C       		.byte	0xc
 2191 069d 6101     		.2byte	0x161
 2192 069f 64060000 		.4byte	0x664
 2193 06a3 02       		.byte	0x2
 2194 06a4 23       		.byte	0x23
 2195 06a5 08       		.uleb128 0x8
 2196 06a6 00       		.byte	0x0
 2197 06a7 14       		.uleb128 0x14
 2198 06a8 56010000 		.4byte	.LASF97
 2199 06ac 0C       		.byte	0xc
 2200 06ad 6301     		.2byte	0x163
 2201 06af 70060000 		.4byte	0x670
 2202 06b3 14       		.uleb128 0x14
 2203 06b4 21020000 		.4byte	.LASF98
 2204 06b8 0C       		.byte	0xc
 2205 06b9 6801     		.2byte	0x168
 2206 06bb BF060000 		.4byte	0x6bf
 2207 06bf 0C       		.uleb128 0xc
 2208 06c0 21020000 		.4byte	.LASF98
 2209 06c4 58       		.byte	0x58
 2210 06c5 0C       		.byte	0xc
 2211 06c6 7101     		.2byte	0x171
 2212 06c8 EA070000 		.4byte	0x7ea
 2213 06cc 13       		.uleb128 0x13
 2214 06cd 37010000 		.4byte	.LASF99
 2215 06d1 0C       		.byte	0xc
 2216 06d2 7501     		.2byte	0x175
 2217 06d4 FD050000 		.4byte	0x5fd
 2218 06d8 02       		.byte	0x2
 2219 06d9 23       		.byte	0x23
 2220 06da 00       		.uleb128 0x0
 2221 06db 13       		.uleb128 0x13
 2222 06dc 6B040000 		.4byte	.LASF100
 2223 06e0 0C       		.byte	0xc
 2224 06e1 7901     		.2byte	0x179
 2225 06e3 0E080000 		.4byte	0x80e
 2226 06e7 02       		.byte	0x2
 2227 06e8 23       		.byte	0x23
ARM GAS  C:\Users\z80\AppData\Local\Temp\cck8eIfH.s 			page 41


 2228 06e9 04       		.uleb128 0x4
 2229 06ea 13       		.uleb128 0x13
 2230 06eb 7E020000 		.4byte	.LASF101
 2231 06ef 0C       		.byte	0xc
 2232 06f0 7D01     		.2byte	0x17d
 2233 06f2 14060000 		.4byte	0x614
 2234 06f6 02       		.byte	0x2
 2235 06f7 23       		.byte	0x23
 2236 06f8 08       		.uleb128 0x8
 2237 06f9 13       		.uleb128 0x13
 2238 06fa 7D030000 		.4byte	.LASF102
 2239 06fe 0C       		.byte	0xc
 2240 06ff 8301     		.2byte	0x183
 2241 0701 71030000 		.4byte	0x371
 2242 0705 02       		.byte	0x2
 2243 0706 23       		.byte	0x23
 2244 0707 0C       		.uleb128 0xc
 2245 0708 13       		.uleb128 0x13
 2246 0709 4F010000 		.4byte	.LASF103
 2247 070d 0C       		.byte	0xc
 2248 070e 8F01     		.2byte	0x18f
 2249 0710 2C020000 		.4byte	0x22c
 2250 0714 02       		.byte	0x2
 2251 0715 23       		.byte	0x23
 2252 0716 1C       		.uleb128 0x1c
 2253 0717 13       		.uleb128 0x13
 2254 0718 6E000000 		.4byte	.LASF104
 2255 071c 0C       		.byte	0xc
 2256 071d 9301     		.2byte	0x193
 2257 071f 08060000 		.4byte	0x608
 2258 0723 02       		.byte	0x2
 2259 0724 23       		.byte	0x23
 2260 0725 20       		.uleb128 0x20
 2261 0726 13       		.uleb128 0x13
 2262 0727 F6040000 		.4byte	.LASF105
 2263 072b 0C       		.byte	0xc
 2264 072c 9701     		.2byte	0x197
 2265 072e 86000000 		.4byte	0x86
 2266 0732 02       		.byte	0x2
 2267 0733 23       		.byte	0x23
 2268 0734 24       		.uleb128 0x24
 2269 0735 13       		.uleb128 0x13
 2270 0736 0F000000 		.4byte	.LASF106
 2271 073a 0C       		.byte	0xc
 2272 073b 9B01     		.2byte	0x19b
 2273 073d C5050000 		.4byte	0x5c5
 2274 0741 02       		.byte	0x2
 2275 0742 23       		.byte	0x23
 2276 0743 28       		.uleb128 0x28
 2277 0744 13       		.uleb128 0x13
 2278 0745 6F010000 		.4byte	.LASF107
 2279 0749 0C       		.byte	0xc
 2280 074a 9F01     		.2byte	0x19f
 2281 074c C5050000 		.4byte	0x5c5
 2282 0750 02       		.byte	0x2
 2283 0751 23       		.byte	0x23
 2284 0752 2C       		.uleb128 0x2c
ARM GAS  C:\Users\z80\AppData\Local\Temp\cck8eIfH.s 			page 42


 2285 0753 0B       		.uleb128 0xb
 2286 0754 69326300 		.ascii	"i2c\000"
 2287 0758 0C       		.byte	0xc
 2288 0759 A301     		.2byte	0x1a3
 2289 075b 19080000 		.4byte	0x819
 2290 075f 02       		.byte	0x2
 2291 0760 23       		.byte	0x23
 2292 0761 30       		.uleb128 0x30
 2293 0762 13       		.uleb128 0x13
 2294 0763 EC000000 		.4byte	.LASF108
 2295 0767 0C       		.byte	0xc
 2296 0768 A501     		.2byte	0x1a5
 2297 076a 49000000 		.4byte	0x49
 2298 076e 02       		.byte	0x2
 2299 076f 23       		.byte	0x23
 2300 0770 34       		.uleb128 0x34
 2301 0771 13       		.uleb128 0x13
 2302 0772 51000000 		.4byte	.LASF109
 2303 0776 0C       		.byte	0xc
 2304 0777 A601     		.2byte	0x1a6
 2305 0779 CF030000 		.4byte	0x3cf
 2306 077d 02       		.byte	0x2
 2307 077e 23       		.byte	0x23
 2308 077f 38       		.uleb128 0x38
 2309 0780 13       		.uleb128 0x13
 2310 0781 9D020000 		.4byte	.LASF110
 2311 0785 0C       		.byte	0xc
 2312 0786 A701     		.2byte	0x1a7
 2313 0788 30000000 		.4byte	0x30
 2314 078c 02       		.byte	0x2
 2315 078d 23       		.byte	0x23
 2316 078e 3C       		.uleb128 0x3c
 2317 078f 13       		.uleb128 0x13
 2318 0790 4C050000 		.4byte	.LASF111
 2319 0794 0C       		.byte	0xc
 2320 0795 A801     		.2byte	0x1a8
 2321 0797 30000000 		.4byte	0x30
 2322 079b 02       		.byte	0x2
 2323 079c 23       		.byte	0x23
 2324 079d 40       		.uleb128 0x40
 2325 079e 13       		.uleb128 0x13
 2326 079f 4C000000 		.4byte	.LASF112
 2327 07a3 0C       		.byte	0xc
 2328 07a4 A901     		.2byte	0x1a9
 2329 07a6 EA070000 		.4byte	0x7ea
 2330 07aa 02       		.byte	0x2
 2331 07ab 23       		.byte	0x23
 2332 07ac 44       		.uleb128 0x44
 2333 07ad 13       		.uleb128 0x13
 2334 07ae C1010000 		.4byte	.LASF113
 2335 07b2 0C       		.byte	0xc
 2336 07b3 AB01     		.2byte	0x1ab
 2337 07b5 CF030000 		.4byte	0x3cf
 2338 07b9 02       		.byte	0x2
 2339 07ba 23       		.byte	0x23
 2340 07bb 48       		.uleb128 0x48
 2341 07bc 13       		.uleb128 0x13
ARM GAS  C:\Users\z80\AppData\Local\Temp\cck8eIfH.s 			page 43


 2342 07bd 6A050000 		.4byte	.LASF114
 2343 07c1 0C       		.byte	0xc
 2344 07c2 AC01     		.2byte	0x1ac
 2345 07c4 30000000 		.4byte	0x30
 2346 07c8 02       		.byte	0x2
 2347 07c9 23       		.byte	0x23
 2348 07ca 4C       		.uleb128 0x4c
 2349 07cb 13       		.uleb128 0x13
 2350 07cc CC000000 		.4byte	.LASF115
 2351 07d0 0C       		.byte	0xc
 2352 07d1 AD01     		.2byte	0x1ad
 2353 07d3 30000000 		.4byte	0x30
 2354 07d7 02       		.byte	0x2
 2355 07d8 23       		.byte	0x23
 2356 07d9 50       		.uleb128 0x50
 2357 07da 13       		.uleb128 0x13
 2358 07db 90020000 		.4byte	.LASF116
 2359 07df 0C       		.byte	0xc
 2360 07e0 AE01     		.2byte	0x1ae
 2361 07e2 EA070000 		.4byte	0x7ea
 2362 07e6 02       		.byte	0x2
 2363 07e7 23       		.byte	0x23
 2364 07e8 54       		.uleb128 0x54
 2365 07e9 00       		.byte	0x0
 2366 07ea 14       		.uleb128 0x14
 2367 07eb 72040000 		.4byte	.LASF117
 2368 07ef 0C       		.byte	0xc
 2369 07f0 6B01     		.2byte	0x16b
 2370 07f2 F6070000 		.4byte	0x7f6
 2371 07f6 09       		.uleb128 0x9
 2372 07f7 04       		.byte	0x4
 2373 07f8 FC070000 		.4byte	0x7fc
 2374 07fc 18       		.uleb128 0x18
 2375 07fd 01       		.byte	0x1
 2376 07fe 08080000 		.4byte	0x808
 2377 0802 19       		.uleb128 0x19
 2378 0803 08080000 		.4byte	0x808
 2379 0807 00       		.byte	0x0
 2380 0808 09       		.uleb128 0x9
 2381 0809 04       		.byte	0x4
 2382 080a B3060000 		.4byte	0x6b3
 2383 080e 09       		.uleb128 0x9
 2384 080f 04       		.byte	0x4
 2385 0810 14080000 		.4byte	0x814
 2386 0814 11       		.uleb128 0x11
 2387 0815 A7060000 		.4byte	0x6a7
 2388 0819 09       		.uleb128 0x9
 2389 081a 04       		.byte	0x4
 2390 081b 53050000 		.4byte	0x553
 2391 081f 1A       		.uleb128 0x1a
 2392 0820 01       		.byte	0x1
 2393 0821 18050000 		.4byte	.LASF133
 2394 0825 01       		.byte	0x1
 2395 0826 47       		.byte	0x47
 2396 0827 01       		.byte	0x1
 2397 0828 00000000 		.4byte	.LFB62
 2398 082c 08000000 		.4byte	.LFE62
ARM GAS  C:\Users\z80\AppData\Local\Temp\cck8eIfH.s 			page 44


 2399 0830 00000000 		.4byte	.LLST0
 2400 0834 1B       		.uleb128 0x1b
 2401 0835 01       		.byte	0x1
 2402 0836 3E050000 		.4byte	.LASF118
 2403 083a 01       		.byte	0x1
 2404 083b 52       		.byte	0x52
 2405 083c 01       		.byte	0x1
 2406 083d 00000000 		.4byte	.LFB63
 2407 0841 16000000 		.4byte	.LFE63
 2408 0845 20000000 		.4byte	.LLST1
 2409 0849 5D080000 		.4byte	0x85d
 2410 084d 1C       		.uleb128 0x1c
 2411 084e A7000000 		.4byte	.LASF120
 2412 0852 01       		.byte	0x1
 2413 0853 52       		.byte	0x52
 2414 0854 08080000 		.4byte	0x808
 2415 0858 40000000 		.4byte	.LLST2
 2416 085c 00       		.byte	0x0
 2417 085d 1B       		.uleb128 0x1b
 2418 085e 01       		.byte	0x1
 2419 085f 73000000 		.4byte	.LASF119
 2420 0863 01       		.byte	0x1
 2421 0864 6C       		.byte	0x6c
 2422 0865 01       		.byte	0x1
 2423 0866 00000000 		.4byte	.LFB64
 2424 086a 6C000000 		.4byte	.LFE64
 2425 086e 5E000000 		.4byte	.LLST3
 2426 0872 CB080000 		.4byte	0x8cb
 2427 0876 1C       		.uleb128 0x1c
 2428 0877 A7000000 		.4byte	.LASF120
 2429 087b 01       		.byte	0x1
 2430 087c 6C       		.byte	0x6c
 2431 087d 08080000 		.4byte	0x808
 2432 0881 7E000000 		.4byte	.LLST4
 2433 0885 1C       		.uleb128 0x1c
 2434 0886 6B040000 		.4byte	.LASF100
 2435 088a 01       		.byte	0x1
 2436 088b 6C       		.byte	0x6c
 2437 088c 0E080000 		.4byte	0x80e
 2438 0890 9C000000 		.4byte	.LLST5
 2439 0894 1D       		.uleb128 0x1d
 2440 0895 38000000 		.4byte	.LBB2
 2441 0899 3E000000 		.4byte	.LBE2
 2442 089d B1080000 		.4byte	0x8b1
 2443 08a1 1E       		.uleb128 0x1e
 2444 08a2 746D7000 		.ascii	"tmp\000"
 2445 08a6 01       		.byte	0x1
 2446 08a7 74       		.byte	0x74
 2447 08a8 86000000 		.4byte	0x86
 2448 08ac BA000000 		.4byte	.LLST6
 2449 08b0 00       		.byte	0x0
 2450 08b1 1F       		.uleb128 0x1f
 2451 08b2 52000000 		.4byte	.LBB3
 2452 08b6 58000000 		.4byte	.LBE3
 2453 08ba 1E       		.uleb128 0x1e
 2454 08bb 746D7000 		.ascii	"tmp\000"
 2455 08bf 01       		.byte	0x1
ARM GAS  C:\Users\z80\AppData\Local\Temp\cck8eIfH.s 			page 45


 2456 08c0 78       		.byte	0x78
 2457 08c1 86000000 		.4byte	0x86
 2458 08c5 CD000000 		.4byte	.LLST7
 2459 08c9 00       		.byte	0x0
 2460 08ca 00       		.byte	0x0
 2461 08cb 1B       		.uleb128 0x1b
 2462 08cc 01       		.byte	0x1
 2463 08cd A5020000 		.4byte	.LASF121
 2464 08d1 01       		.byte	0x1
 2465 08d2 82       		.byte	0x82
 2466 08d3 01       		.byte	0x1
 2467 08d4 00000000 		.4byte	.LFB65
 2468 08d8 54000000 		.4byte	.LFE65
 2469 08dc E0000000 		.4byte	.LLST8
 2470 08e0 2A090000 		.4byte	0x92a
 2471 08e4 1C       		.uleb128 0x1c
 2472 08e5 A7000000 		.4byte	.LASF120
 2473 08e9 01       		.byte	0x1
 2474 08ea 82       		.byte	0x82
 2475 08eb 08080000 		.4byte	0x808
 2476 08ef 00010000 		.4byte	.LLST9
 2477 08f3 1D       		.uleb128 0x1d
 2478 08f4 24000000 		.4byte	.LBB4
 2479 08f8 2A000000 		.4byte	.LBE4
 2480 08fc 10090000 		.4byte	0x910
 2481 0900 1E       		.uleb128 0x1e
 2482 0901 746D7000 		.ascii	"tmp\000"
 2483 0905 01       		.byte	0x1
 2484 0906 8A       		.byte	0x8a
 2485 0907 86000000 		.4byte	0x86
 2486 090b 1E010000 		.4byte	.LLST10
 2487 090f 00       		.byte	0x0
 2488 0910 1F       		.uleb128 0x1f
 2489 0911 3C000000 		.4byte	.LBB5
 2490 0915 42000000 		.4byte	.LBE5
 2491 0919 1E       		.uleb128 0x1e
 2492 091a 746D7000 		.ascii	"tmp\000"
 2493 091e 01       		.byte	0x1
 2494 091f 8D       		.byte	0x8d
 2495 0920 86000000 		.4byte	0x86
 2496 0924 31010000 		.4byte	.LLST11
 2497 0928 00       		.byte	0x0
 2498 0929 00       		.byte	0x0
 2499 092a 20       		.uleb128 0x20
 2500 092b 01       		.byte	0x1
 2501 092c C9030000 		.4byte	.LASF122
 2502 0930 01       		.byte	0x1
 2503 0931 98       		.byte	0x98
 2504 0932 01       		.byte	0x1
 2505 0933 14060000 		.4byte	0x614
 2506 0937 00000000 		.4byte	.LFB66
 2507 093b 18000000 		.4byte	.LFE66
 2508 093f 44010000 		.4byte	.LLST12
 2509 0943 57090000 		.4byte	0x957
 2510 0947 1C       		.uleb128 0x1c
 2511 0948 A7000000 		.4byte	.LASF120
 2512 094c 01       		.byte	0x1
ARM GAS  C:\Users\z80\AppData\Local\Temp\cck8eIfH.s 			page 46


 2513 094d 98       		.byte	0x98
 2514 094e 08080000 		.4byte	0x808
 2515 0952 64010000 		.4byte	.LLST13
 2516 0956 00       		.byte	0x0
 2517 0957 20       		.uleb128 0x20
 2518 0958 01       		.byte	0x1
 2519 0959 B3000000 		.4byte	.LASF123
 2520 095d 01       		.byte	0x1
 2521 095e B9       		.byte	0xb9
 2522 095f 01       		.byte	0x1
 2523 0960 D2000000 		.4byte	0xd2
 2524 0964 00000000 		.4byte	.LFB67
 2525 0968 B0000000 		.4byte	.LFE67
 2526 096c 82010000 		.4byte	.LLST14
 2527 0970 200A0000 		.4byte	0xa20
 2528 0974 1C       		.uleb128 0x1c
 2529 0975 A7000000 		.4byte	.LASF120
 2530 0979 01       		.byte	0x1
 2531 097a B9       		.byte	0xb9
 2532 097b 08080000 		.4byte	0x808
 2533 097f AE010000 		.4byte	.LLST15
 2534 0983 1C       		.uleb128 0x1c
 2535 0984 6E000000 		.4byte	.LASF104
 2536 0988 01       		.byte	0x1
 2537 0989 BA       		.byte	0xba
 2538 098a 08060000 		.4byte	0x608
 2539 098e CC010000 		.4byte	.LLST16
 2540 0992 1C       		.uleb128 0x1c
 2541 0993 C1010000 		.4byte	.LASF113
 2542 0997 01       		.byte	0x1
 2543 0998 BB       		.byte	0xbb
 2544 0999 D5030000 		.4byte	0x3d5
 2545 099d DF010000 		.4byte	.LLST17
 2546 09a1 1C       		.uleb128 0x1c
 2547 09a2 6A050000 		.4byte	.LASF114
 2548 09a6 01       		.byte	0x1
 2549 09a7 BC       		.byte	0xbc
 2550 09a8 30000000 		.4byte	0x30
 2551 09ac FD010000 		.4byte	.LLST18
 2552 09b0 21       		.uleb128 0x21
 2553 09b1 51000000 		.4byte	.LASF109
 2554 09b5 01       		.byte	0x1
 2555 09b6 BD       		.byte	0xbd
 2556 09b7 CF030000 		.4byte	0x3cf
 2557 09bb 02       		.byte	0x2
 2558 09bc 91       		.byte	0x91
 2559 09bd 00       		.sleb128 0
 2560 09be 21       		.uleb128 0x21
 2561 09bf 9D020000 		.4byte	.LASF110
 2562 09c3 01       		.byte	0x1
 2563 09c4 BE       		.byte	0xbe
 2564 09c5 30000000 		.4byte	0x30
 2565 09c9 02       		.byte	0x2
 2566 09ca 91       		.byte	0x91
 2567 09cb 04       		.sleb128 4
 2568 09cc 21       		.uleb128 0x21
 2569 09cd D7010000 		.4byte	.LASF124
ARM GAS  C:\Users\z80\AppData\Local\Temp\cck8eIfH.s 			page 47


 2570 09d1 01       		.byte	0x1
 2571 09d2 BF       		.byte	0xbf
 2572 09d3 E8000000 		.4byte	0xe8
 2573 09d7 02       		.byte	0x2
 2574 09d8 91       		.byte	0x91
 2575 09d9 08       		.sleb128 8
 2576 09da 22       		.uleb128 0x22
 2577 09db 36000000 		.4byte	.LASF49
 2578 09df 01       		.byte	0x1
 2579 09e0 C0       		.byte	0xc0
 2580 09e1 D2000000 		.4byte	0xd2
 2581 09e5 26020000 		.4byte	.LLST19
 2582 09e9 1D       		.uleb128 0x1d
 2583 09ea 50000000 		.4byte	.LBB6
 2584 09ee 56000000 		.4byte	.LBE6
 2585 09f2 060A0000 		.4byte	0xa06
 2586 09f6 1E       		.uleb128 0x1e
 2587 09f7 746D7000 		.ascii	"tmp\000"
 2588 09fb 01       		.byte	0x1
 2589 09fc CB       		.byte	0xcb
 2590 09fd 86000000 		.4byte	0x86
 2591 0a01 4F020000 		.4byte	.LLST20
 2592 0a05 00       		.byte	0x0
 2593 0a06 1F       		.uleb128 0x1f
 2594 0a07 86000000 		.4byte	.LBB7
 2595 0a0b 8C000000 		.4byte	.LBE7
 2596 0a0f 1E       		.uleb128 0x1e
 2597 0a10 746D7000 		.ascii	"tmp\000"
 2598 0a14 01       		.byte	0x1
 2599 0a15 D4       		.byte	0xd4
 2600 0a16 86000000 		.4byte	0x86
 2601 0a1a 62020000 		.4byte	.LLST21
 2602 0a1e 00       		.byte	0x0
 2603 0a1f 00       		.byte	0x0
 2604 0a20 20       		.uleb128 0x20
 2605 0a21 01       		.byte	0x1
 2606 0a22 DE040000 		.4byte	.LASF125
 2607 0a26 01       		.byte	0x1
 2608 0a27 EC       		.byte	0xec
 2609 0a28 01       		.byte	0x1
 2610 0a29 D2000000 		.4byte	0xd2
 2611 0a2d 00000000 		.4byte	.LFB68
 2612 0a31 9C000000 		.4byte	.LFE68
 2613 0a35 75020000 		.4byte	.LLST22
 2614 0a39 CE0A0000 		.4byte	0xace
 2615 0a3d 1C       		.uleb128 0x1c
 2616 0a3e A7000000 		.4byte	.LASF120
 2617 0a42 01       		.byte	0x1
 2618 0a43 EC       		.byte	0xec
 2619 0a44 08080000 		.4byte	0x808
 2620 0a48 A1020000 		.4byte	.LLST23
 2621 0a4c 1C       		.uleb128 0x1c
 2622 0a4d 6E000000 		.4byte	.LASF104
 2623 0a51 01       		.byte	0x1
 2624 0a52 ED       		.byte	0xed
 2625 0a53 08060000 		.4byte	0x608
 2626 0a57 BF020000 		.4byte	.LLST24
ARM GAS  C:\Users\z80\AppData\Local\Temp\cck8eIfH.s 			page 48


 2627 0a5b 1C       		.uleb128 0x1c
 2628 0a5c 51000000 		.4byte	.LASF109
 2629 0a60 01       		.byte	0x1
 2630 0a61 EE       		.byte	0xee
 2631 0a62 CF030000 		.4byte	0x3cf
 2632 0a66 D2020000 		.4byte	.LLST25
 2633 0a6a 1C       		.uleb128 0x1c
 2634 0a6b 9D020000 		.4byte	.LASF110
 2635 0a6f 01       		.byte	0x1
 2636 0a70 EF       		.byte	0xef
 2637 0a71 30000000 		.4byte	0x30
 2638 0a75 F0020000 		.4byte	.LLST26
 2639 0a79 21       		.uleb128 0x21
 2640 0a7a D7010000 		.4byte	.LASF124
 2641 0a7e 01       		.byte	0x1
 2642 0a7f F0       		.byte	0xf0
 2643 0a80 E8000000 		.4byte	0xe8
 2644 0a84 02       		.byte	0x2
 2645 0a85 91       		.byte	0x91
 2646 0a86 00       		.sleb128 0
 2647 0a87 22       		.uleb128 0x22
 2648 0a88 36000000 		.4byte	.LASF49
 2649 0a8c 01       		.byte	0x1
 2650 0a8d F2       		.byte	0xf2
 2651 0a8e D2000000 		.4byte	0xd2
 2652 0a92 19030000 		.4byte	.LLST27
 2653 0a96 1D       		.uleb128 0x1d
 2654 0a97 48000000 		.4byte	.LBB8
 2655 0a9b 4E000000 		.4byte	.LBE8
 2656 0a9f B30A0000 		.4byte	0xab3
 2657 0aa3 1E       		.uleb128 0x1e
 2658 0aa4 746D7000 		.ascii	"tmp\000"
 2659 0aa8 01       		.byte	0x1
 2660 0aa9 FC       		.byte	0xfc
 2661 0aaa 86000000 		.4byte	0x86
 2662 0aae 42030000 		.4byte	.LLST28
 2663 0ab2 00       		.byte	0x0
 2664 0ab3 1F       		.uleb128 0x1f
 2665 0ab4 78000000 		.4byte	.LBB9
 2666 0ab8 7E000000 		.4byte	.LBE9
 2667 0abc 23       		.uleb128 0x23
 2668 0abd 746D7000 		.ascii	"tmp\000"
 2669 0ac1 01       		.byte	0x1
 2670 0ac2 0401     		.2byte	0x104
 2671 0ac4 86000000 		.4byte	0x86
 2672 0ac8 55030000 		.4byte	.LLST29
 2673 0acc 00       		.byte	0x0
 2674 0acd 00       		.byte	0x0
 2675 0ace 24       		.uleb128 0x24
 2676 0acf 01       		.byte	0x1
 2677 0ad0 B3040000 		.4byte	.LASF126
 2678 0ad4 01       		.byte	0x1
 2679 0ad5 1401     		.2byte	0x114
 2680 0ad7 01       		.byte	0x1
 2681 0ad8 00000000 		.4byte	.LFB69
 2682 0adc 1C000000 		.4byte	.LFE69
 2683 0ae0 68030000 		.4byte	.LLST30
ARM GAS  C:\Users\z80\AppData\Local\Temp\cck8eIfH.s 			page 49


 2684 0ae4 F90A0000 		.4byte	0xaf9
 2685 0ae8 25       		.uleb128 0x25
 2686 0ae9 A7000000 		.4byte	.LASF120
 2687 0aed 01       		.byte	0x1
 2688 0aee 1401     		.2byte	0x114
 2689 0af0 08080000 		.4byte	0x808
 2690 0af4 88030000 		.4byte	.LLST31
 2691 0af8 00       		.byte	0x0
 2692 0af9 24       		.uleb128 0x24
 2693 0afa 01       		.byte	0x1
 2694 0afb 8C000000 		.4byte	.LASF127
 2695 0aff 01       		.byte	0x1
 2696 0b00 2801     		.2byte	0x128
 2697 0b02 01       		.byte	0x1
 2698 0b03 00000000 		.4byte	.LFB70
 2699 0b07 18000000 		.4byte	.LFE70
 2700 0b0b A6030000 		.4byte	.LLST32
 2701 0b0f 240B0000 		.4byte	0xb24
 2702 0b13 25       		.uleb128 0x25
 2703 0b14 A7000000 		.4byte	.LASF120
 2704 0b18 01       		.byte	0x1
 2705 0b19 2801     		.2byte	0x128
 2706 0b1b 08080000 		.4byte	0x808
 2707 0b1f C6030000 		.4byte	.LLST33
 2708 0b23 00       		.byte	0x0
 2709 0b24 26       		.uleb128 0x26
 2710 0b25 01       		.byte	0x1
 2711 0b26 34040000 		.4byte	.LASF128
 2712 0b2a 01       		.byte	0x1
 2713 0b2b 3601     		.2byte	0x136
 2714 0b2d 01       		.byte	0x1
 2715 0b2e D2000000 		.4byte	0xd2
 2716 0b32 00000000 		.4byte	.LFB71
 2717 0b36 72000000 		.4byte	.LFE71
 2718 0b3a E4030000 		.4byte	.LLST34
 2719 0b3e 160C0000 		.4byte	0xc16
 2720 0b42 25       		.uleb128 0x25
 2721 0b43 A7000000 		.4byte	.LASF120
 2722 0b47 01       		.byte	0x1
 2723 0b48 3601     		.2byte	0x136
 2724 0b4a 08080000 		.4byte	0x808
 2725 0b4e 10040000 		.4byte	.LLST35
 2726 0b52 25       		.uleb128 0x25
 2727 0b53 6E000000 		.4byte	.LASF104
 2728 0b57 01       		.byte	0x1
 2729 0b58 3701     		.2byte	0x137
 2730 0b5a 08060000 		.4byte	0x608
 2731 0b5e 2E040000 		.4byte	.LLST36
 2732 0b62 25       		.uleb128 0x25
 2733 0b63 51000000 		.4byte	.LASF109
 2734 0b67 01       		.byte	0x1
 2735 0b68 3801     		.2byte	0x138
 2736 0b6a CF030000 		.4byte	0x3cf
 2737 0b6e 41040000 		.4byte	.LLST37
 2738 0b72 25       		.uleb128 0x25
 2739 0b73 9D020000 		.4byte	.LASF110
 2740 0b77 01       		.byte	0x1
ARM GAS  C:\Users\z80\AppData\Local\Temp\cck8eIfH.s 			page 50


 2741 0b78 3801     		.2byte	0x138
 2742 0b7a 30000000 		.4byte	0x30
 2743 0b7e 5F040000 		.4byte	.LLST38
 2744 0b82 27       		.uleb128 0x27
 2745 0b83 C1010000 		.4byte	.LASF113
 2746 0b87 01       		.byte	0x1
 2747 0b88 3901     		.2byte	0x139
 2748 0b8a CF030000 		.4byte	0x3cf
 2749 0b8e 02       		.byte	0x2
 2750 0b8f 91       		.byte	0x91
 2751 0b90 00       		.sleb128 0
 2752 0b91 27       		.uleb128 0x27
 2753 0b92 6A050000 		.4byte	.LASF114
 2754 0b96 01       		.byte	0x1
 2755 0b97 3901     		.2byte	0x139
 2756 0b99 30000000 		.4byte	0x30
 2757 0b9d 02       		.byte	0x2
 2758 0b9e 91       		.byte	0x91
 2759 0b9f 04       		.sleb128 4
 2760 0ba0 27       		.uleb128 0x27
 2761 0ba1 4C000000 		.4byte	.LASF112
 2762 0ba5 01       		.byte	0x1
 2763 0ba6 3A01     		.2byte	0x13a
 2764 0ba8 EA070000 		.4byte	0x7ea
 2765 0bac 02       		.byte	0x2
 2766 0bad 91       		.byte	0x91
 2767 0bae 08       		.sleb128 8
 2768 0baf 27       		.uleb128 0x27
 2769 0bb0 90020000 		.4byte	.LASF116
 2770 0bb4 01       		.byte	0x1
 2771 0bb5 3B01     		.2byte	0x13b
 2772 0bb7 EA070000 		.4byte	0x7ea
 2773 0bbb 02       		.byte	0x2
 2774 0bbc 91       		.byte	0x91
 2775 0bbd 0C       		.sleb128 12
 2776 0bbe 27       		.uleb128 0x27
 2777 0bbf D7010000 		.4byte	.LASF124
 2778 0bc3 01       		.byte	0x1
 2779 0bc4 3C01     		.2byte	0x13c
 2780 0bc6 E8000000 		.4byte	0xe8
 2781 0bca 02       		.byte	0x2
 2782 0bcb 91       		.byte	0x91
 2783 0bcc 10       		.sleb128 16
 2784 0bcd 28       		.uleb128 0x28
 2785 0bce 36000000 		.4byte	.LASF49
 2786 0bd2 01       		.byte	0x1
 2787 0bd3 3E01     		.2byte	0x13e
 2788 0bd5 D2000000 		.4byte	0xd2
 2789 0bd9 7D040000 		.4byte	.LLST39
 2790 0bdd 1D       		.uleb128 0x1d
 2791 0bde 0C000000 		.4byte	.LBB10
 2792 0be2 12000000 		.4byte	.LBE10
 2793 0be6 FB0B0000 		.4byte	0xbfb
 2794 0bea 23       		.uleb128 0x23
 2795 0beb 746D7000 		.ascii	"tmp\000"
 2796 0bef 01       		.byte	0x1
 2797 0bf0 4001     		.2byte	0x140
ARM GAS  C:\Users\z80\AppData\Local\Temp\cck8eIfH.s 			page 51


 2798 0bf2 86000000 		.4byte	0x86
 2799 0bf6 9B040000 		.4byte	.LLST40
 2800 0bfa 00       		.byte	0x0
 2801 0bfb 1F       		.uleb128 0x1f
 2802 0bfc 60000000 		.4byte	.LBB11
 2803 0c00 66000000 		.4byte	.LBE11
 2804 0c04 23       		.uleb128 0x23
 2805 0c05 746D7000 		.ascii	"tmp\000"
 2806 0c09 01       		.byte	0x1
 2807 0c0a 4E01     		.2byte	0x14e
 2808 0c0c 86000000 		.4byte	0x86
 2809 0c10 AE040000 		.4byte	.LLST41
 2810 0c14 00       		.byte	0x0
 2811 0c15 00       		.byte	0x0
 2812 0c16 29       		.uleb128 0x29
 2813 0c17 9A000000 		.4byte	.LASF129
 2814 0c1b 0D       		.byte	0xd
 2815 0c1c 9404     		.2byte	0x494
 2816 0c1e E5030000 		.4byte	0x3e5
 2817 0c22 01       		.byte	0x1
 2818 0c23 01       		.byte	0x1
 2819 0c24 29       		.uleb128 0x29
 2820 0c25 9A000000 		.4byte	.LASF129
 2821 0c29 0D       		.byte	0xd
 2822 0c2a 9404     		.2byte	0x494
 2823 0c2c E5030000 		.4byte	0x3e5
 2824 0c30 01       		.byte	0x1
 2825 0c31 01       		.byte	0x1
 2826 0c32 00       		.byte	0x0
 2827              		.section	.debug_abbrev
 2828 0000 01       		.uleb128 0x1
 2829 0001 11       		.uleb128 0x11
 2830 0002 01       		.byte	0x1
 2831 0003 25       		.uleb128 0x25
 2832 0004 0E       		.uleb128 0xe
 2833 0005 13       		.uleb128 0x13
 2834 0006 0B       		.uleb128 0xb
 2835 0007 03       		.uleb128 0x3
 2836 0008 0E       		.uleb128 0xe
 2837 0009 1B       		.uleb128 0x1b
 2838 000a 0E       		.uleb128 0xe
 2839 000b 11       		.uleb128 0x11
 2840 000c 01       		.uleb128 0x1
 2841 000d 52       		.uleb128 0x52
 2842 000e 01       		.uleb128 0x1
 2843 000f 55       		.uleb128 0x55
 2844 0010 06       		.uleb128 0x6
 2845 0011 10       		.uleb128 0x10
 2846 0012 06       		.uleb128 0x6
 2847 0013 00       		.byte	0x0
 2848 0014 00       		.byte	0x0
 2849 0015 02       		.uleb128 0x2
 2850 0016 24       		.uleb128 0x24
 2851 0017 00       		.byte	0x0
 2852 0018 0B       		.uleb128 0xb
 2853 0019 0B       		.uleb128 0xb
 2854 001a 3E       		.uleb128 0x3e
ARM GAS  C:\Users\z80\AppData\Local\Temp\cck8eIfH.s 			page 52


 2855 001b 0B       		.uleb128 0xb
 2856 001c 03       		.uleb128 0x3
 2857 001d 08       		.uleb128 0x8
 2858 001e 00       		.byte	0x0
 2859 001f 00       		.byte	0x0
 2860 0020 03       		.uleb128 0x3
 2861 0021 16       		.uleb128 0x16
 2862 0022 00       		.byte	0x0
 2863 0023 03       		.uleb128 0x3
 2864 0024 0E       		.uleb128 0xe
 2865 0025 3A       		.uleb128 0x3a
 2866 0026 0B       		.uleb128 0xb
 2867 0027 3B       		.uleb128 0x3b
 2868 0028 0B       		.uleb128 0xb
 2869 0029 49       		.uleb128 0x49
 2870 002a 13       		.uleb128 0x13
 2871 002b 00       		.byte	0x0
 2872 002c 00       		.byte	0x0
 2873 002d 04       		.uleb128 0x4
 2874 002e 24       		.uleb128 0x24
 2875 002f 00       		.byte	0x0
 2876 0030 0B       		.uleb128 0xb
 2877 0031 0B       		.uleb128 0xb
 2878 0032 3E       		.uleb128 0x3e
 2879 0033 0B       		.uleb128 0xb
 2880 0034 03       		.uleb128 0x3
 2881 0035 0E       		.uleb128 0xe
 2882 0036 00       		.byte	0x0
 2883 0037 00       		.byte	0x0
 2884 0038 05       		.uleb128 0x5
 2885 0039 13       		.uleb128 0x13
 2886 003a 01       		.byte	0x1
 2887 003b 03       		.uleb128 0x3
 2888 003c 0E       		.uleb128 0xe
 2889 003d 0B       		.uleb128 0xb
 2890 003e 0B       		.uleb128 0xb
 2891 003f 3A       		.uleb128 0x3a
 2892 0040 0B       		.uleb128 0xb
 2893 0041 3B       		.uleb128 0x3b
 2894 0042 0B       		.uleb128 0xb
 2895 0043 01       		.uleb128 0x1
 2896 0044 13       		.uleb128 0x13
 2897 0045 00       		.byte	0x0
 2898 0046 00       		.byte	0x0
 2899 0047 06       		.uleb128 0x6
 2900 0048 0D       		.uleb128 0xd
 2901 0049 00       		.byte	0x0
 2902 004a 03       		.uleb128 0x3
 2903 004b 0E       		.uleb128 0xe
 2904 004c 3A       		.uleb128 0x3a
 2905 004d 0B       		.uleb128 0xb
 2906 004e 3B       		.uleb128 0x3b
 2907 004f 0B       		.uleb128 0xb
 2908 0050 49       		.uleb128 0x49
 2909 0051 13       		.uleb128 0x13
 2910 0052 38       		.uleb128 0x38
 2911 0053 0A       		.uleb128 0xa
ARM GAS  C:\Users\z80\AppData\Local\Temp\cck8eIfH.s 			page 53


 2912 0054 00       		.byte	0x0
 2913 0055 00       		.byte	0x0
 2914 0056 07       		.uleb128 0x7
 2915 0057 0D       		.uleb128 0xd
 2916 0058 00       		.byte	0x0
 2917 0059 03       		.uleb128 0x3
 2918 005a 08       		.uleb128 0x8
 2919 005b 3A       		.uleb128 0x3a
 2920 005c 0B       		.uleb128 0xb
 2921 005d 3B       		.uleb128 0x3b
 2922 005e 0B       		.uleb128 0xb
 2923 005f 49       		.uleb128 0x49
 2924 0060 13       		.uleb128 0x13
 2925 0061 38       		.uleb128 0x38
 2926 0062 0A       		.uleb128 0xa
 2927 0063 00       		.byte	0x0
 2928 0064 00       		.byte	0x0
 2929 0065 08       		.uleb128 0x8
 2930 0066 13       		.uleb128 0x13
 2931 0067 01       		.byte	0x1
 2932 0068 0B       		.uleb128 0xb
 2933 0069 0B       		.uleb128 0xb
 2934 006a 3A       		.uleb128 0x3a
 2935 006b 0B       		.uleb128 0xb
 2936 006c 3B       		.uleb128 0x3b
 2937 006d 0B       		.uleb128 0xb
 2938 006e 01       		.uleb128 0x1
 2939 006f 13       		.uleb128 0x13
 2940 0070 00       		.byte	0x0
 2941 0071 00       		.byte	0x0
 2942 0072 09       		.uleb128 0x9
 2943 0073 0F       		.uleb128 0xf
 2944 0074 00       		.byte	0x0
 2945 0075 0B       		.uleb128 0xb
 2946 0076 0B       		.uleb128 0xb
 2947 0077 49       		.uleb128 0x49
 2948 0078 13       		.uleb128 0x13
 2949 0079 00       		.byte	0x0
 2950 007a 00       		.byte	0x0
 2951 007b 0A       		.uleb128 0xa
 2952 007c 0F       		.uleb128 0xf
 2953 007d 00       		.byte	0x0
 2954 007e 0B       		.uleb128 0xb
 2955 007f 0B       		.uleb128 0xb
 2956 0080 00       		.byte	0x0
 2957 0081 00       		.byte	0x0
 2958 0082 0B       		.uleb128 0xb
 2959 0083 0D       		.uleb128 0xd
 2960 0084 00       		.byte	0x0
 2961 0085 03       		.uleb128 0x3
 2962 0086 08       		.uleb128 0x8
 2963 0087 3A       		.uleb128 0x3a
 2964 0088 0B       		.uleb128 0xb
 2965 0089 3B       		.uleb128 0x3b
 2966 008a 05       		.uleb128 0x5
 2967 008b 49       		.uleb128 0x49
 2968 008c 13       		.uleb128 0x13
ARM GAS  C:\Users\z80\AppData\Local\Temp\cck8eIfH.s 			page 54


 2969 008d 38       		.uleb128 0x38
 2970 008e 0A       		.uleb128 0xa
 2971 008f 00       		.byte	0x0
 2972 0090 00       		.byte	0x0
 2973 0091 0C       		.uleb128 0xc
 2974 0092 13       		.uleb128 0x13
 2975 0093 01       		.byte	0x1
 2976 0094 03       		.uleb128 0x3
 2977 0095 0E       		.uleb128 0xe
 2978 0096 0B       		.uleb128 0xb
 2979 0097 0B       		.uleb128 0xb
 2980 0098 3A       		.uleb128 0x3a
 2981 0099 0B       		.uleb128 0xb
 2982 009a 3B       		.uleb128 0x3b
 2983 009b 05       		.uleb128 0x5
 2984 009c 01       		.uleb128 0x1
 2985 009d 13       		.uleb128 0x13
 2986 009e 00       		.byte	0x0
 2987 009f 00       		.byte	0x0
 2988 00a0 0D       		.uleb128 0xd
 2989 00a1 35       		.uleb128 0x35
 2990 00a2 00       		.byte	0x0
 2991 00a3 49       		.uleb128 0x49
 2992 00a4 13       		.uleb128 0x13
 2993 00a5 00       		.byte	0x0
 2994 00a6 00       		.byte	0x0
 2995 00a7 0E       		.uleb128 0xe
 2996 00a8 24       		.uleb128 0x24
 2997 00a9 00       		.byte	0x0
 2998 00aa 0B       		.uleb128 0xb
 2999 00ab 0B       		.uleb128 0xb
 3000 00ac 3E       		.uleb128 0x3e
 3001 00ad 0B       		.uleb128 0xb
 3002 00ae 00       		.byte	0x0
 3003 00af 00       		.byte	0x0
 3004 00b0 0F       		.uleb128 0xf
 3005 00b1 17       		.uleb128 0x17
 3006 00b2 01       		.byte	0x1
 3007 00b3 0B       		.uleb128 0xb
 3008 00b4 0B       		.uleb128 0xb
 3009 00b5 3A       		.uleb128 0x3a
 3010 00b6 0B       		.uleb128 0xb
 3011 00b7 3B       		.uleb128 0x3b
 3012 00b8 0B       		.uleb128 0xb
 3013 00b9 01       		.uleb128 0x1
 3014 00ba 13       		.uleb128 0x13
 3015 00bb 00       		.byte	0x0
 3016 00bc 00       		.byte	0x0
 3017 00bd 10       		.uleb128 0x10
 3018 00be 0D       		.uleb128 0xd
 3019 00bf 00       		.byte	0x0
 3020 00c0 03       		.uleb128 0x3
 3021 00c1 0E       		.uleb128 0xe
 3022 00c2 3A       		.uleb128 0x3a
 3023 00c3 0B       		.uleb128 0xb
 3024 00c4 3B       		.uleb128 0x3b
 3025 00c5 0B       		.uleb128 0xb
ARM GAS  C:\Users\z80\AppData\Local\Temp\cck8eIfH.s 			page 55


 3026 00c6 49       		.uleb128 0x49
 3027 00c7 13       		.uleb128 0x13
 3028 00c8 00       		.byte	0x0
 3029 00c9 00       		.byte	0x0
 3030 00ca 11       		.uleb128 0x11
 3031 00cb 26       		.uleb128 0x26
 3032 00cc 00       		.byte	0x0
 3033 00cd 49       		.uleb128 0x49
 3034 00ce 13       		.uleb128 0x13
 3035 00cf 00       		.byte	0x0
 3036 00d0 00       		.byte	0x0
 3037 00d1 12       		.uleb128 0x12
 3038 00d2 13       		.uleb128 0x13
 3039 00d3 01       		.byte	0x1
 3040 00d4 0B       		.uleb128 0xb
 3041 00d5 0B       		.uleb128 0xb
 3042 00d6 3A       		.uleb128 0x3a
 3043 00d7 0B       		.uleb128 0xb
 3044 00d8 3B       		.uleb128 0x3b
 3045 00d9 05       		.uleb128 0x5
 3046 00da 01       		.uleb128 0x1
 3047 00db 13       		.uleb128 0x13
 3048 00dc 00       		.byte	0x0
 3049 00dd 00       		.byte	0x0
 3050 00de 13       		.uleb128 0x13
 3051 00df 0D       		.uleb128 0xd
 3052 00e0 00       		.byte	0x0
 3053 00e1 03       		.uleb128 0x3
 3054 00e2 0E       		.uleb128 0xe
 3055 00e3 3A       		.uleb128 0x3a
 3056 00e4 0B       		.uleb128 0xb
 3057 00e5 3B       		.uleb128 0x3b
 3058 00e6 05       		.uleb128 0x5
 3059 00e7 49       		.uleb128 0x49
 3060 00e8 13       		.uleb128 0x13
 3061 00e9 38       		.uleb128 0x38
 3062 00ea 0A       		.uleb128 0xa
 3063 00eb 00       		.byte	0x0
 3064 00ec 00       		.byte	0x0
 3065 00ed 14       		.uleb128 0x14
 3066 00ee 16       		.uleb128 0x16
 3067 00ef 00       		.byte	0x0
 3068 00f0 03       		.uleb128 0x3
 3069 00f1 0E       		.uleb128 0xe
 3070 00f2 3A       		.uleb128 0x3a
 3071 00f3 0B       		.uleb128 0xb
 3072 00f4 3B       		.uleb128 0x3b
 3073 00f5 05       		.uleb128 0x5
 3074 00f6 49       		.uleb128 0x49
 3075 00f7 13       		.uleb128 0x13
 3076 00f8 00       		.byte	0x0
 3077 00f9 00       		.byte	0x0
 3078 00fa 15       		.uleb128 0x15
 3079 00fb 04       		.uleb128 0x4
 3080 00fc 01       		.byte	0x1
 3081 00fd 0B       		.uleb128 0xb
 3082 00fe 0B       		.uleb128 0xb
ARM GAS  C:\Users\z80\AppData\Local\Temp\cck8eIfH.s 			page 56


 3083 00ff 3A       		.uleb128 0x3a
 3084 0100 0B       		.uleb128 0xb
 3085 0101 3B       		.uleb128 0x3b
 3086 0102 0B       		.uleb128 0xb
 3087 0103 01       		.uleb128 0x1
 3088 0104 13       		.uleb128 0x13
 3089 0105 00       		.byte	0x0
 3090 0106 00       		.byte	0x0
 3091 0107 16       		.uleb128 0x16
 3092 0108 28       		.uleb128 0x28
 3093 0109 00       		.byte	0x0
 3094 010a 03       		.uleb128 0x3
 3095 010b 0E       		.uleb128 0xe
 3096 010c 1C       		.uleb128 0x1c
 3097 010d 0D       		.uleb128 0xd
 3098 010e 00       		.byte	0x0
 3099 010f 00       		.byte	0x0
 3100 0110 17       		.uleb128 0x17
 3101 0111 04       		.uleb128 0x4
 3102 0112 01       		.byte	0x1
 3103 0113 0B       		.uleb128 0xb
 3104 0114 0B       		.uleb128 0xb
 3105 0115 3A       		.uleb128 0x3a
 3106 0116 0B       		.uleb128 0xb
 3107 0117 3B       		.uleb128 0x3b
 3108 0118 05       		.uleb128 0x5
 3109 0119 01       		.uleb128 0x1
 3110 011a 13       		.uleb128 0x13
 3111 011b 00       		.byte	0x0
 3112 011c 00       		.byte	0x0
 3113 011d 18       		.uleb128 0x18
 3114 011e 15       		.uleb128 0x15
 3115 011f 01       		.byte	0x1
 3116 0120 27       		.uleb128 0x27
 3117 0121 0C       		.uleb128 0xc
 3118 0122 01       		.uleb128 0x1
 3119 0123 13       		.uleb128 0x13
 3120 0124 00       		.byte	0x0
 3121 0125 00       		.byte	0x0
 3122 0126 19       		.uleb128 0x19
 3123 0127 05       		.uleb128 0x5
 3124 0128 00       		.byte	0x0
 3125 0129 49       		.uleb128 0x49
 3126 012a 13       		.uleb128 0x13
 3127 012b 00       		.byte	0x0
 3128 012c 00       		.byte	0x0
 3129 012d 1A       		.uleb128 0x1a
 3130 012e 2E       		.uleb128 0x2e
 3131 012f 00       		.byte	0x0
 3132 0130 3F       		.uleb128 0x3f
 3133 0131 0C       		.uleb128 0xc
 3134 0132 03       		.uleb128 0x3
 3135 0133 0E       		.uleb128 0xe
 3136 0134 3A       		.uleb128 0x3a
 3137 0135 0B       		.uleb128 0xb
 3138 0136 3B       		.uleb128 0x3b
 3139 0137 0B       		.uleb128 0xb
ARM GAS  C:\Users\z80\AppData\Local\Temp\cck8eIfH.s 			page 57


 3140 0138 27       		.uleb128 0x27
 3141 0139 0C       		.uleb128 0xc
 3142 013a 11       		.uleb128 0x11
 3143 013b 01       		.uleb128 0x1
 3144 013c 12       		.uleb128 0x12
 3145 013d 01       		.uleb128 0x1
 3146 013e 40       		.uleb128 0x40
 3147 013f 06       		.uleb128 0x6
 3148 0140 00       		.byte	0x0
 3149 0141 00       		.byte	0x0
 3150 0142 1B       		.uleb128 0x1b
 3151 0143 2E       		.uleb128 0x2e
 3152 0144 01       		.byte	0x1
 3153 0145 3F       		.uleb128 0x3f
 3154 0146 0C       		.uleb128 0xc
 3155 0147 03       		.uleb128 0x3
 3156 0148 0E       		.uleb128 0xe
 3157 0149 3A       		.uleb128 0x3a
 3158 014a 0B       		.uleb128 0xb
 3159 014b 3B       		.uleb128 0x3b
 3160 014c 0B       		.uleb128 0xb
 3161 014d 27       		.uleb128 0x27
 3162 014e 0C       		.uleb128 0xc
 3163 014f 11       		.uleb128 0x11
 3164 0150 01       		.uleb128 0x1
 3165 0151 12       		.uleb128 0x12
 3166 0152 01       		.uleb128 0x1
 3167 0153 40       		.uleb128 0x40
 3168 0154 06       		.uleb128 0x6
 3169 0155 01       		.uleb128 0x1
 3170 0156 13       		.uleb128 0x13
 3171 0157 00       		.byte	0x0
 3172 0158 00       		.byte	0x0
 3173 0159 1C       		.uleb128 0x1c
 3174 015a 05       		.uleb128 0x5
 3175 015b 00       		.byte	0x0
 3176 015c 03       		.uleb128 0x3
 3177 015d 0E       		.uleb128 0xe
 3178 015e 3A       		.uleb128 0x3a
 3179 015f 0B       		.uleb128 0xb
 3180 0160 3B       		.uleb128 0x3b
 3181 0161 0B       		.uleb128 0xb
 3182 0162 49       		.uleb128 0x49
 3183 0163 13       		.uleb128 0x13
 3184 0164 02       		.uleb128 0x2
 3185 0165 06       		.uleb128 0x6
 3186 0166 00       		.byte	0x0
 3187 0167 00       		.byte	0x0
 3188 0168 1D       		.uleb128 0x1d
 3189 0169 0B       		.uleb128 0xb
 3190 016a 01       		.byte	0x1
 3191 016b 11       		.uleb128 0x11
 3192 016c 01       		.uleb128 0x1
 3193 016d 12       		.uleb128 0x12
 3194 016e 01       		.uleb128 0x1
 3195 016f 01       		.uleb128 0x1
 3196 0170 13       		.uleb128 0x13
ARM GAS  C:\Users\z80\AppData\Local\Temp\cck8eIfH.s 			page 58


 3197 0171 00       		.byte	0x0
 3198 0172 00       		.byte	0x0
 3199 0173 1E       		.uleb128 0x1e
 3200 0174 34       		.uleb128 0x34
 3201 0175 00       		.byte	0x0
 3202 0176 03       		.uleb128 0x3
 3203 0177 08       		.uleb128 0x8
 3204 0178 3A       		.uleb128 0x3a
 3205 0179 0B       		.uleb128 0xb
 3206 017a 3B       		.uleb128 0x3b
 3207 017b 0B       		.uleb128 0xb
 3208 017c 49       		.uleb128 0x49
 3209 017d 13       		.uleb128 0x13
 3210 017e 02       		.uleb128 0x2
 3211 017f 06       		.uleb128 0x6
 3212 0180 00       		.byte	0x0
 3213 0181 00       		.byte	0x0
 3214 0182 1F       		.uleb128 0x1f
 3215 0183 0B       		.uleb128 0xb
 3216 0184 01       		.byte	0x1
 3217 0185 11       		.uleb128 0x11
 3218 0186 01       		.uleb128 0x1
 3219 0187 12       		.uleb128 0x12
 3220 0188 01       		.uleb128 0x1
 3221 0189 00       		.byte	0x0
 3222 018a 00       		.byte	0x0
 3223 018b 20       		.uleb128 0x20
 3224 018c 2E       		.uleb128 0x2e
 3225 018d 01       		.byte	0x1
 3226 018e 3F       		.uleb128 0x3f
 3227 018f 0C       		.uleb128 0xc
 3228 0190 03       		.uleb128 0x3
 3229 0191 0E       		.uleb128 0xe
 3230 0192 3A       		.uleb128 0x3a
 3231 0193 0B       		.uleb128 0xb
 3232 0194 3B       		.uleb128 0x3b
 3233 0195 0B       		.uleb128 0xb
 3234 0196 27       		.uleb128 0x27
 3235 0197 0C       		.uleb128 0xc
 3236 0198 49       		.uleb128 0x49
 3237 0199 13       		.uleb128 0x13
 3238 019a 11       		.uleb128 0x11
 3239 019b 01       		.uleb128 0x1
 3240 019c 12       		.uleb128 0x12
 3241 019d 01       		.uleb128 0x1
 3242 019e 40       		.uleb128 0x40
 3243 019f 06       		.uleb128 0x6
 3244 01a0 01       		.uleb128 0x1
 3245 01a1 13       		.uleb128 0x13
 3246 01a2 00       		.byte	0x0
 3247 01a3 00       		.byte	0x0
 3248 01a4 21       		.uleb128 0x21
 3249 01a5 05       		.uleb128 0x5
 3250 01a6 00       		.byte	0x0
 3251 01a7 03       		.uleb128 0x3
 3252 01a8 0E       		.uleb128 0xe
 3253 01a9 3A       		.uleb128 0x3a
ARM GAS  C:\Users\z80\AppData\Local\Temp\cck8eIfH.s 			page 59


 3254 01aa 0B       		.uleb128 0xb
 3255 01ab 3B       		.uleb128 0x3b
 3256 01ac 0B       		.uleb128 0xb
 3257 01ad 49       		.uleb128 0x49
 3258 01ae 13       		.uleb128 0x13
 3259 01af 02       		.uleb128 0x2
 3260 01b0 0A       		.uleb128 0xa
 3261 01b1 00       		.byte	0x0
 3262 01b2 00       		.byte	0x0
 3263 01b3 22       		.uleb128 0x22
 3264 01b4 34       		.uleb128 0x34
 3265 01b5 00       		.byte	0x0
 3266 01b6 03       		.uleb128 0x3
 3267 01b7 0E       		.uleb128 0xe
 3268 01b8 3A       		.uleb128 0x3a
 3269 01b9 0B       		.uleb128 0xb
 3270 01ba 3B       		.uleb128 0x3b
 3271 01bb 0B       		.uleb128 0xb
 3272 01bc 49       		.uleb128 0x49
 3273 01bd 13       		.uleb128 0x13
 3274 01be 02       		.uleb128 0x2
 3275 01bf 06       		.uleb128 0x6
 3276 01c0 00       		.byte	0x0
 3277 01c1 00       		.byte	0x0
 3278 01c2 23       		.uleb128 0x23
 3279 01c3 34       		.uleb128 0x34
 3280 01c4 00       		.byte	0x0
 3281 01c5 03       		.uleb128 0x3
 3282 01c6 08       		.uleb128 0x8
 3283 01c7 3A       		.uleb128 0x3a
 3284 01c8 0B       		.uleb128 0xb
 3285 01c9 3B       		.uleb128 0x3b
 3286 01ca 05       		.uleb128 0x5
 3287 01cb 49       		.uleb128 0x49
 3288 01cc 13       		.uleb128 0x13
 3289 01cd 02       		.uleb128 0x2
 3290 01ce 06       		.uleb128 0x6
 3291 01cf 00       		.byte	0x0
 3292 01d0 00       		.byte	0x0
 3293 01d1 24       		.uleb128 0x24
 3294 01d2 2E       		.uleb128 0x2e
 3295 01d3 01       		.byte	0x1
 3296 01d4 3F       		.uleb128 0x3f
 3297 01d5 0C       		.uleb128 0xc
 3298 01d6 03       		.uleb128 0x3
 3299 01d7 0E       		.uleb128 0xe
 3300 01d8 3A       		.uleb128 0x3a
 3301 01d9 0B       		.uleb128 0xb
 3302 01da 3B       		.uleb128 0x3b
 3303 01db 05       		.uleb128 0x5
 3304 01dc 27       		.uleb128 0x27
 3305 01dd 0C       		.uleb128 0xc
 3306 01de 11       		.uleb128 0x11
 3307 01df 01       		.uleb128 0x1
 3308 01e0 12       		.uleb128 0x12
 3309 01e1 01       		.uleb128 0x1
 3310 01e2 40       		.uleb128 0x40
ARM GAS  C:\Users\z80\AppData\Local\Temp\cck8eIfH.s 			page 60


 3311 01e3 06       		.uleb128 0x6
 3312 01e4 01       		.uleb128 0x1
 3313 01e5 13       		.uleb128 0x13
 3314 01e6 00       		.byte	0x0
 3315 01e7 00       		.byte	0x0
 3316 01e8 25       		.uleb128 0x25
 3317 01e9 05       		.uleb128 0x5
 3318 01ea 00       		.byte	0x0
 3319 01eb 03       		.uleb128 0x3
 3320 01ec 0E       		.uleb128 0xe
 3321 01ed 3A       		.uleb128 0x3a
 3322 01ee 0B       		.uleb128 0xb
 3323 01ef 3B       		.uleb128 0x3b
 3324 01f0 05       		.uleb128 0x5
 3325 01f1 49       		.uleb128 0x49
 3326 01f2 13       		.uleb128 0x13
 3327 01f3 02       		.uleb128 0x2
 3328 01f4 06       		.uleb128 0x6
 3329 01f5 00       		.byte	0x0
 3330 01f6 00       		.byte	0x0
 3331 01f7 26       		.uleb128 0x26
 3332 01f8 2E       		.uleb128 0x2e
 3333 01f9 01       		.byte	0x1
 3334 01fa 3F       		.uleb128 0x3f
 3335 01fb 0C       		.uleb128 0xc
 3336 01fc 03       		.uleb128 0x3
 3337 01fd 0E       		.uleb128 0xe
 3338 01fe 3A       		.uleb128 0x3a
 3339 01ff 0B       		.uleb128 0xb
 3340 0200 3B       		.uleb128 0x3b
 3341 0201 05       		.uleb128 0x5
 3342 0202 27       		.uleb128 0x27
 3343 0203 0C       		.uleb128 0xc
 3344 0204 49       		.uleb128 0x49
 3345 0205 13       		.uleb128 0x13
 3346 0206 11       		.uleb128 0x11
 3347 0207 01       		.uleb128 0x1
 3348 0208 12       		.uleb128 0x12
 3349 0209 01       		.uleb128 0x1
 3350 020a 40       		.uleb128 0x40
 3351 020b 06       		.uleb128 0x6
 3352 020c 01       		.uleb128 0x1
 3353 020d 13       		.uleb128 0x13
 3354 020e 00       		.byte	0x0
 3355 020f 00       		.byte	0x0
 3356 0210 27       		.uleb128 0x27
 3357 0211 05       		.uleb128 0x5
 3358 0212 00       		.byte	0x0
 3359 0213 03       		.uleb128 0x3
 3360 0214 0E       		.uleb128 0xe
 3361 0215 3A       		.uleb128 0x3a
 3362 0216 0B       		.uleb128 0xb
 3363 0217 3B       		.uleb128 0x3b
 3364 0218 05       		.uleb128 0x5
 3365 0219 49       		.uleb128 0x49
 3366 021a 13       		.uleb128 0x13
 3367 021b 02       		.uleb128 0x2
ARM GAS  C:\Users\z80\AppData\Local\Temp\cck8eIfH.s 			page 61


 3368 021c 0A       		.uleb128 0xa
 3369 021d 00       		.byte	0x0
 3370 021e 00       		.byte	0x0
 3371 021f 28       		.uleb128 0x28
 3372 0220 34       		.uleb128 0x34
 3373 0221 00       		.byte	0x0
 3374 0222 03       		.uleb128 0x3
 3375 0223 0E       		.uleb128 0xe
 3376 0224 3A       		.uleb128 0x3a
 3377 0225 0B       		.uleb128 0xb
 3378 0226 3B       		.uleb128 0x3b
 3379 0227 05       		.uleb128 0x5
 3380 0228 49       		.uleb128 0x49
 3381 0229 13       		.uleb128 0x13
 3382 022a 02       		.uleb128 0x2
 3383 022b 06       		.uleb128 0x6
 3384 022c 00       		.byte	0x0
 3385 022d 00       		.byte	0x0
 3386 022e 29       		.uleb128 0x29
 3387 022f 34       		.uleb128 0x34
 3388 0230 00       		.byte	0x0
 3389 0231 03       		.uleb128 0x3
 3390 0232 0E       		.uleb128 0xe
 3391 0233 3A       		.uleb128 0x3a
 3392 0234 0B       		.uleb128 0xb
 3393 0235 3B       		.uleb128 0x3b
 3394 0236 05       		.uleb128 0x5
 3395 0237 49       		.uleb128 0x49
 3396 0238 13       		.uleb128 0x13
 3397 0239 3F       		.uleb128 0x3f
 3398 023a 0C       		.uleb128 0xc
 3399 023b 3C       		.uleb128 0x3c
 3400 023c 0C       		.uleb128 0xc
 3401 023d 00       		.byte	0x0
 3402 023e 00       		.byte	0x0
 3403 023f 00       		.byte	0x0
 3404              		.section	.debug_pubnames,"",%progbits
 3405 0000 C9000000 		.4byte	0xc9
 3406 0004 0200     		.2byte	0x2
 3407 0006 00000000 		.4byte	.Ldebug_info0
 3408 000a 330C0000 		.4byte	0xc33
 3409 000e 1F080000 		.4byte	0x81f
 3410 0012 69326349 		.ascii	"i2cInit\000"
 3410      6E697400 
 3411 001a 34080000 		.4byte	0x834
 3412 001e 6932634F 		.ascii	"i2cObjectInit\000"
 3412      626A6563 
 3412      74496E69 
 3412      7400
 3413 002c 5D080000 		.4byte	0x85d
 3414 0030 69326353 		.ascii	"i2cStart\000"
 3414      74617274 
 3414      00
 3415 0039 CB080000 		.4byte	0x8cb
 3416 003d 69326353 		.ascii	"i2cStop\000"
 3416      746F7000 
 3417 0045 2A090000 		.4byte	0x92a
ARM GAS  C:\Users\z80\AppData\Local\Temp\cck8eIfH.s 			page 62


 3418 0049 69326347 		.ascii	"i2cGetErrors\000"
 3418      65744572 
 3418      726F7273 
 3418      00
 3419 0056 57090000 		.4byte	0x957
 3420 005a 6932634D 		.ascii	"i2cMasterTransmitTimeout\000"
 3420      61737465 
 3420      72547261 
 3420      6E736D69 
 3420      7454696D 
 3421 0073 200A0000 		.4byte	0xa20
 3422 0077 6932634D 		.ascii	"i2cMasterReceiveTimeout\000"
 3422      61737465 
 3422      72526563 
 3422      65697665 
 3422      54696D65 
 3423 008f CE0A0000 		.4byte	0xace
 3424 0093 69326341 		.ascii	"i2cAcquireBus\000"
 3424      63717569 
 3424      72654275 
 3424      7300
 3425 00a1 F90A0000 		.4byte	0xaf9
 3426 00a5 69326352 		.ascii	"i2cReleaseBus\000"
 3426      656C6561 
 3426      73654275 
 3426      7300
 3427 00b3 240B0000 		.4byte	0xb24
 3428 00b7 69326353 		.ascii	"i2cSlaveIoTimeout\000"
 3428      6C617665 
 3428      496F5469 
 3428      6D656F75 
 3428      7400
 3429 00c9 00000000 		.4byte	0x0
 3430              		.section	.debug_pubtypes,"",%progbits
 3431 0000 EB010000 		.4byte	0x1eb
 3432 0004 0200     		.2byte	0x2
 3433 0006 00000000 		.4byte	.Ldebug_info0
 3434 000a 330C0000 		.4byte	0xc33
 3435 000e 30000000 		.4byte	0x30
 3436 0012 73697A65 		.ascii	"size_t\000"
 3436      5F7400
 3437 0019 49000000 		.4byte	0x49
 3438 001d 75696E74 		.ascii	"uint8_t\000"
 3438      385F7400 
 3439 0025 62000000 		.4byte	0x62
 3440 0029 75696E74 		.ascii	"uint16_t\000"
 3440      31365F74 
 3440      00
 3441 0032 74000000 		.4byte	0x74
 3442 0036 696E7433 		.ascii	"int32_t\000"
 3442      325F7400 
 3443 003e 86000000 		.4byte	0x86
 3444 0042 75696E74 		.ascii	"uint32_t\000"
 3444      33325F74 
 3444      00
 3445 004b 9F000000 		.4byte	0x9f
 3446 004f 75696E74 		.ascii	"uint64_t\000"
ARM GAS  C:\Users\z80\AppData\Local\Temp\cck8eIfH.s 			page 63


 3446      36345F74 
 3446      00
 3447 0058 B1000000 		.4byte	0xb1
 3448 005c 746D6F64 		.ascii	"tmode_t\000"
 3448      655F7400 
 3449 0064 BC000000 		.4byte	0xbc
 3450 0068 74737461 		.ascii	"tstate_t\000"
 3450      74655F74 
 3450      00
 3451 0071 C7000000 		.4byte	0xc7
 3452 0075 74707269 		.ascii	"tprio_t\000"
 3452      6F5F7400 
 3453 007d D2000000 		.4byte	0xd2
 3454 0081 6D73675F 		.ascii	"msg_t\000"
 3454      7400
 3455 0087 DD000000 		.4byte	0xdd
 3456 008b 6576656E 		.ascii	"eventmask_t\000"
 3456      746D6173 
 3456      6B5F7400 
 3457 0097 E8000000 		.4byte	0xe8
 3458 009b 73797374 		.ascii	"systime_t\000"
 3458      696D655F 
 3458      7400
 3459 00a5 F3000000 		.4byte	0xf3
 3460 00a9 54687265 		.ascii	"Thread\000"
 3460      616400
 3461 00b0 32020000 		.4byte	0x232
 3462 00b4 54687265 		.ascii	"ThreadsQueue\000"
 3462      61647351 
 3462      75657565 
 3462      00
 3463 00c1 54020000 		.4byte	0x254
 3464 00c5 54687265 		.ascii	"ThreadsList\000"
 3464      6164734C 
 3464      69737400 
 3465 00d1 5F020000 		.4byte	0x25f
 3466 00d5 72656761 		.ascii	"regarm_t\000"
 3466      726D5F74 
 3466      00
 3467 00de 6C020000 		.4byte	0x26c
 3468 00e2 73746B61 		.ascii	"stkalign_t\000"
 3468      6C69676E 
 3468      5F7400
 3469 00ed 77020000 		.4byte	0x277
 3470 00f1 696E7463 		.ascii	"intctx\000"
 3470      747800
 3471 00f8 04030000 		.4byte	0x304
 3472 00fc 636F6E74 		.ascii	"context\000"
 3472      65787400 
 3473 0104 34030000 		.4byte	0x334
 3474 0108 4D757465 		.ascii	"Mutex\000"
 3474      7800
 3475 010e 71030000 		.4byte	0x371
 3476 0112 4D757465 		.ascii	"Mutex\000"
 3476      7800
 3477 0118 FE000000 		.4byte	0xfe
 3478 011c 54687265 		.ascii	"Thread\000"
ARM GAS  C:\Users\z80\AppData\Local\Temp\cck8eIfH.s 			page 64


 3478      616400
 3479 0123 30040000 		.4byte	0x430
 3480 0127 444D415F 		.ascii	"DMA_Channel_TypeDef\000"
 3480      4368616E 
 3480      6E656C5F 
 3480      54797065 
 3480      44656600 
 3481 013b 53050000 		.4byte	0x553
 3482 013f 4932435F 		.ascii	"I2C_TypeDef\000"
 3482      54797065 
 3482      44656600 
 3483 014b BA050000 		.4byte	0x5ba
 3484 014f 73746D33 		.ascii	"stm32_dma_stream_t\000"
 3484      325F646D 
 3484      615F7374 
 3484      7265616D 
 3484      5F7400
 3485 0162 FD050000 		.4byte	0x5fd
 3486 0166 69326373 		.ascii	"i2cstate_t\000"
 3486      74617465 
 3486      5F7400
 3487 0171 08060000 		.4byte	0x608
 3488 0175 69326361 		.ascii	"i2caddr_t\000"
 3488      6464725F 
 3488      7400
 3489 017f 14060000 		.4byte	0x614
 3490 0183 69326366 		.ascii	"i2cflags_t\000"
 3490      6C616773 
 3490      5F7400
 3491 018e 3C060000 		.4byte	0x63c
 3492 0192 6932636F 		.ascii	"i2copmode_t\000"
 3492      706D6F64 
 3492      655F7400 
 3493 019e 64060000 		.4byte	0x664
 3494 01a2 69326364 		.ascii	"i2cdutycycle_t\000"
 3494      75747963 
 3494      79636C65 
 3494      5F7400
 3495 01b1 A7060000 		.4byte	0x6a7
 3496 01b5 49324343 		.ascii	"I2CConfig\000"
 3496      6F6E6669 
 3496      6700
 3497 01bf B3060000 		.4byte	0x6b3
 3498 01c3 49324344 		.ascii	"I2CDriver\000"
 3498      72697665 
 3498      7200
 3499 01cd EA070000 		.4byte	0x7ea
 3500 01d1 54493263 		.ascii	"TI2cSlaveCb\000"
 3500      536C6176 
 3500      65436200 
 3501 01dd BF060000 		.4byte	0x6bf
 3502 01e1 49324344 		.ascii	"I2CDriver\000"
 3502      72697665 
 3502      7200
 3503 01eb 00000000 		.4byte	0x0
 3504              		.section	.debug_aranges,"",%progbits
 3505 0000 64000000 		.4byte	0x64
ARM GAS  C:\Users\z80\AppData\Local\Temp\cck8eIfH.s 			page 65


 3506 0004 0200     		.2byte	0x2
 3507 0006 00000000 		.4byte	.Ldebug_info0
 3508 000a 04       		.byte	0x4
 3509 000b 00       		.byte	0x0
 3510 000c 0000     		.2byte	0x0
 3511 000e 0000     		.2byte	0x0
 3512 0010 00000000 		.4byte	.LFB62
 3513 0014 08000000 		.4byte	.LFE62-.LFB62
 3514 0018 00000000 		.4byte	.LFB63
 3515 001c 16000000 		.4byte	.LFE63-.LFB63
 3516 0020 00000000 		.4byte	.LFB64
 3517 0024 6C000000 		.4byte	.LFE64-.LFB64
 3518 0028 00000000 		.4byte	.LFB65
 3519 002c 54000000 		.4byte	.LFE65-.LFB65
 3520 0030 00000000 		.4byte	.LFB66
 3521 0034 18000000 		.4byte	.LFE66-.LFB66
 3522 0038 00000000 		.4byte	.LFB67
 3523 003c B0000000 		.4byte	.LFE67-.LFB67
 3524 0040 00000000 		.4byte	.LFB68
 3525 0044 9C000000 		.4byte	.LFE68-.LFB68
 3526 0048 00000000 		.4byte	.LFB69
 3527 004c 1C000000 		.4byte	.LFE69-.LFB69
 3528 0050 00000000 		.4byte	.LFB70
 3529 0054 18000000 		.4byte	.LFE70-.LFB70
 3530 0058 00000000 		.4byte	.LFB71
 3531 005c 72000000 		.4byte	.LFE71-.LFB71
 3532 0060 00000000 		.4byte	0x0
 3533 0064 00000000 		.4byte	0x0
 3534              		.section	.debug_ranges,"",%progbits
 3535              	.Ldebug_ranges0:
 3536 0000 00000000 		.4byte	.LFB62
 3537 0004 08000000 		.4byte	.LFE62
 3538 0008 00000000 		.4byte	.LFB63
 3539 000c 16000000 		.4byte	.LFE63
 3540 0010 00000000 		.4byte	.LFB64
 3541 0014 6C000000 		.4byte	.LFE64
 3542 0018 00000000 		.4byte	.LFB65
 3543 001c 54000000 		.4byte	.LFE65
 3544 0020 00000000 		.4byte	.LFB66
 3545 0024 18000000 		.4byte	.LFE66
 3546 0028 00000000 		.4byte	.LFB67
 3547 002c B0000000 		.4byte	.LFE67
 3548 0030 00000000 		.4byte	.LFB68
 3549 0034 9C000000 		.4byte	.LFE68
 3550 0038 00000000 		.4byte	.LFB69
 3551 003c 1C000000 		.4byte	.LFE69
 3552 0040 00000000 		.4byte	.LFB70
 3553 0044 18000000 		.4byte	.LFE70
 3554 0048 00000000 		.4byte	.LFB71
 3555 004c 72000000 		.4byte	.LFE71
 3556 0050 00000000 		.4byte	0x0
 3557 0054 00000000 		.4byte	0x0
 3558              		.section	.debug_str,"MS",%progbits,1
 3559              	.LASF90:
 3560 0000 5354445F 		.ascii	"STD_DUTY_CYCLE\000"
 3560      44555459 
 3560      5F435943 
ARM GAS  C:\Users\z80\AppData\Local\Temp\cck8eIfH.s 			page 66


 3560      4C4500
 3561              	.LASF106:
 3562 000f 646D6172 		.ascii	"dmarx\000"
 3562      7800
 3563              	.LASF93:
 3564 0015 69326364 		.ascii	"i2cdutycycle_t\000"
 3564      75747963 
 3564      79636C65 
 3564      5F7400
 3565              	.LASF83:
 3566 0024 69326373 		.ascii	"i2cstate_t\000"
 3566      74617465 
 3566      5F7400
 3567              	.LASF2:
 3568 002f 73697A65 		.ascii	"size_t\000"
 3568      5F7400
 3569              	.LASF49:
 3570 0036 7264796D 		.ascii	"rdymsg\000"
 3570      736700
 3571              	.LASF13:
 3572 003d 75696E74 		.ascii	"uint64_t\000"
 3572      36345F74 
 3572      00
 3573              	.LASF68:
 3574 0046 54524953 		.ascii	"TRISE\000"
 3574      4500
 3575              	.LASF112:
 3576 004c 72786362 		.ascii	"rxcb\000"
 3576      00
 3577              	.LASF109:
 3578 0051 72786275 		.ascii	"rxbuf\000"
 3578      6600
 3579              	.LASF14:
 3580 0057 6C6F6E67 		.ascii	"long long unsigned int\000"
 3580      206C6F6E 
 3580      6720756E 
 3580      7369676E 
 3580      65642069 
 3581              	.LASF104:
 3582 006e 61646472 		.ascii	"addr\000"
 3582      00
 3583              	.LASF119:
 3584 0073 69326353 		.ascii	"i2cStart\000"
 3584      74617274 
 3584      00
 3585              	.LASF50:
 3586 007c 65786974 		.ascii	"exitcode\000"
 3586      636F6465 
 3586      00
 3587              	.LASF75:
 3588 0085 76656374 		.ascii	"vector\000"
 3588      6F7200
 3589              	.LASF127:
 3590 008c 69326352 		.ascii	"i2cReleaseBus\000"
 3590      656C6561 
 3590      73654275 
 3590      7300
ARM GAS  C:\Users\z80\AppData\Local\Temp\cck8eIfH.s 			page 67


 3591              	.LASF129:
 3592 009a 49544D5F 		.ascii	"ITM_RxBuffer\000"
 3592      52784275 
 3592      66666572 
 3592      00
 3593              	.LASF120:
 3594 00a7 69326370 		.ascii	"i2cp\000"
 3594      00
 3595              	.LASF24:
 3596 00ac 705F7072 		.ascii	"p_prio\000"
 3596      696F00
 3597              	.LASF123:
 3598 00b3 6932634D 		.ascii	"i2cMasterTransmitTimeout\000"
 3598      61737465 
 3598      72547261 
 3598      6E736D69 
 3598      7454696D 
 3599              	.LASF115:
 3600 00cc 7478696E 		.ascii	"txind\000"
 3600      6400
 3601              	.LASF12:
 3602 00d2 6C6F6E67 		.ascii	"long long int\000"
 3602      206C6F6E 
 3602      6720696E 
 3602      7400
 3603              	.LASF1:
 3604 00e0 7369676E 		.ascii	"signed char\000"
 3604      65642063 
 3604      68617200 
 3605              	.LASF108:
 3606 00ec 736C6176 		.ascii	"slave_mode\000"
 3606      655F6D6F 
 3606      646500
 3607              	.LASF95:
 3608 00f7 636C6F63 		.ascii	"clock_speed\000"
 3608      6B5F7370 
 3608      65656400 
 3609              	.LASF46:
 3610 0103 6D5F7175 		.ascii	"m_queue\000"
 3610      65756500 
 3611              	.LASF131:
 3612 010b 2E2E2F63 		.ascii	"../chibios_2.4.x/os/hal/src/i2c.c\000"
 3612      68696269 
 3612      6F735F32 
 3612      2E342E78 
 3612      2F6F732F 
 3613              	.LASF84:
 3614 012d 69326361 		.ascii	"i2caddr_t\000"
 3614      6464725F 
 3614      7400
 3615              	.LASF99:
 3616 0137 73746174 		.ascii	"state\000"
 3616      6500
 3617              	.LASF9:
 3618 013d 6C6F6E67 		.ascii	"long int\000"
 3618      20696E74 
 3618      00
ARM GAS  C:\Users\z80\AppData\Local\Temp\cck8eIfH.s 			page 68


 3619              	.LASF16:
 3620 0146 74737461 		.ascii	"tstate_t\000"
 3620      74655F74 
 3620      00
 3621              	.LASF103:
 3622 014f 74687265 		.ascii	"thread\000"
 3622      616400
 3623              	.LASF97:
 3624 0156 49324343 		.ascii	"I2CConfig\000"
 3624      6F6E6669 
 3624      6700
 3625              	.LASF32:
 3626 0160 705F7469 		.ascii	"p_time\000"
 3626      6D6500
 3627              	.LASF26:
 3628 0167 705F6E65 		.ascii	"p_newer\000"
 3628      77657200 
 3629              	.LASF107:
 3630 016f 646D6174 		.ascii	"dmatx\000"
 3630      7800
 3631              	.LASF88:
 3632 0175 4F504D4F 		.ascii	"OPMODE_SMBUS_HOST\000"
 3632      44455F53 
 3632      4D425553 
 3632      5F484F53 
 3632      5400
 3633              	.LASF41:
 3634 0187 72656761 		.ascii	"regarm_t\000"
 3634      726D5F74 
 3634      00
 3635              	.LASF74:
 3636 0190 73656C66 		.ascii	"selfindex\000"
 3636      696E6465 
 3636      7800
 3637              	.LASF94:
 3638 019a 6F705F6D 		.ascii	"op_mode\000"
 3638      6F646500 
 3639              	.LASF21:
 3640 01a2 54687265 		.ascii	"Thread\000"
 3640      616400
 3641              	.LASF29:
 3642 01a9 705F7374 		.ascii	"p_stklimit\000"
 3642      6B6C696D 
 3642      697400
 3643              	.LASF0:
 3644 01b4 756E7369 		.ascii	"unsigned int\000"
 3644      676E6564 
 3644      20696E74 
 3644      00
 3645              	.LASF113:
 3646 01c1 74786275 		.ascii	"txbuf\000"
 3646      6600
 3647              	.LASF55:
 3648 01c7 43504152 		.ascii	"CPAR\000"
 3648      00
 3649              	.LASF34:
 3650 01cc 705F6D73 		.ascii	"p_msgqueue\000"
ARM GAS  C:\Users\z80\AppData\Local\Temp\cck8eIfH.s 			page 69


 3650      67717565 
 3650      756500
 3651              	.LASF124:
 3652 01d7 74696D65 		.ascii	"timeout\000"
 3652      6F757400 
 3653              	.LASF57:
 3654 01df 444D415F 		.ascii	"DMA_Channel_TypeDef\000"
 3654      4368616E 
 3654      6E656C5F 
 3654      54797065 
 3654      44656600 
 3655              	.LASF73:
 3656 01f3 69736869 		.ascii	"ishift\000"
 3656      667400
 3657              	.LASF87:
 3658 01fa 4F504D4F 		.ascii	"OPMODE_SMBUS_DEVICE\000"
 3658      44455F53 
 3658      4D425553 
 3658      5F444556 
 3658      49434500 
 3659              	.LASF7:
 3660 020e 73686F72 		.ascii	"short unsigned int\000"
 3660      7420756E 
 3660      7369676E 
 3660      65642069 
 3660      6E7400
 3661              	.LASF98:
 3662 0221 49324344 		.ascii	"I2CDriver\000"
 3662      72697665 
 3662      7200
 3663              	.LASF18:
 3664 022b 6D73675F 		.ascii	"msg_t\000"
 3664      7400
 3665              	.LASF15:
 3666 0231 746D6F64 		.ascii	"tmode_t\000"
 3666      655F7400 
 3667              	.LASF6:
 3668 0239 75696E74 		.ascii	"uint16_t\000"
 3668      31365F74 
 3668      00
 3669              	.LASF40:
 3670 0242 54687265 		.ascii	"ThreadsList\000"
 3670      6164734C 
 3670      69737400 
 3671              	.LASF19:
 3672 024e 6576656E 		.ascii	"eventmask_t\000"
 3672      746D6173 
 3672      6B5F7400 
 3673              	.LASF5:
 3674 025a 73686F72 		.ascii	"short int\000"
 3674      7420696E 
 3674      7400
 3675              	.LASF42:
 3676 0264 73746B61 		.ascii	"stkalign_t\000"
 3676      6C69676E 
 3676      5F7400
 3677              	.LASF78:
ARM GAS  C:\Users\z80\AppData\Local\Temp\cck8eIfH.s 			page 70


 3678 026f 4932435F 		.ascii	"I2C_STOP\000"
 3678      53544F50 
 3678      00
 3679              	.LASF45:
 3680 0278 4D757465 		.ascii	"Mutex\000"
 3680      7800
 3681              	.LASF101:
 3682 027e 6572726F 		.ascii	"errors\000"
 3682      727300
 3683              	.LASF96:
 3684 0285 64757479 		.ascii	"duty_cycle\000"
 3684      5F637963 
 3684      6C6500
 3685              	.LASF116:
 3686 0290 74786362 		.ascii	"txcb\000"
 3686      00
 3687              	.LASF27:
 3688 0295 705F6F6C 		.ascii	"p_older\000"
 3688      64657200 
 3689              	.LASF110:
 3690 029d 72786279 		.ascii	"rxbytes\000"
 3690      74657300 
 3691              	.LASF121:
 3692 02a5 69326353 		.ascii	"i2cStop\000"
 3692      746F7000 
 3693              	.LASF39:
 3694 02ad 54687265 		.ascii	"ThreadsQueue\000"
 3694      61647351 
 3694      75657565 
 3694      00
 3695              	.LASF132:
 3696 02ba 433A5C70 		.ascii	"C:\\projects\\voltamper.git\\firmware\\voltamp\000"
 3696      726F6A65 
 3696      6374735C 
 3696      766F6C74 
 3696      616D7065 
 3697              	.LASF86:
 3698 02e5 4F504D4F 		.ascii	"OPMODE_I2C\000"
 3698      44455F49 
 3698      324300
 3699              	.LASF92:
 3700 02f0 46415354 		.ascii	"FAST_DUTY_CYCLE_16_9\000"
 3700      5F445554 
 3700      595F4359 
 3700      434C455F 
 3700      31365F39 
 3701              	.LASF58:
 3702 0305 52455345 		.ascii	"RESERVED0\000"
 3702      52564544 
 3702      3000
 3703              	.LASF59:
 3704 030f 52455345 		.ascii	"RESERVED1\000"
 3704      52564544 
 3704      3100
 3705              	.LASF61:
 3706 0319 52455345 		.ascii	"RESERVED2\000"
 3706      52564544 
ARM GAS  C:\Users\z80\AppData\Local\Temp\cck8eIfH.s 			page 71


 3706      3200
 3707              	.LASF63:
 3708 0323 52455345 		.ascii	"RESERVED3\000"
 3708      52564544 
 3708      3300
 3709              	.LASF64:
 3710 032d 52455345 		.ascii	"RESERVED4\000"
 3710      52564544 
 3710      3400
 3711              	.LASF23:
 3712 0337 705F7072 		.ascii	"p_prev\000"
 3712      657600
 3713              	.LASF66:
 3714 033e 52455345 		.ascii	"RESERVED6\000"
 3714      52564544 
 3714      3600
 3715              	.LASF67:
 3716 0348 52455345 		.ascii	"RESERVED7\000"
 3716      52564544 
 3716      3700
 3717              	.LASF69:
 3718 0352 52455345 		.ascii	"RESERVED8\000"
 3718      52564544 
 3718      3800
 3719              	.LASF17:
 3720 035c 74707269 		.ascii	"tprio_t\000"
 3720      6F5F7400 
 3721              	.LASF80:
 3722 0364 4932435F 		.ascii	"I2C_ACTIVE_TX\000"
 3722      41435449 
 3722      56455F54 
 3722      5800
 3723              	.LASF85:
 3724 0372 69326366 		.ascii	"i2cflags_t\000"
 3724      6C616773 
 3724      5F7400
 3725              	.LASF102:
 3726 037d 6D757465 		.ascii	"mutex\000"
 3726      7800
 3727              	.LASF8:
 3728 0383 696E7433 		.ascii	"int32_t\000"
 3728      325F7400 
 3729              	.LASF4:
 3730 038b 756E7369 		.ascii	"unsigned char\000"
 3730      676E6564 
 3730      20636861 
 3730      7200
 3731              	.LASF76:
 3732 0399 73746D33 		.ascii	"stm32_dma_stream_t\000"
 3732      325F646D 
 3732      615F7374 
 3732      7265616D 
 3732      5F7400
 3733              	.LASF37:
 3734 03ac 705F6D74 		.ascii	"p_mtxlist\000"
 3734      786C6973 
 3734      7400
ARM GAS  C:\Users\z80\AppData\Local\Temp\cck8eIfH.s 			page 72


 3735              	.LASF77:
 3736 03b6 4932435F 		.ascii	"I2C_UNINIT\000"
 3736      554E494E 
 3736      495400
 3737              	.LASF30:
 3738 03c1 705F7374 		.ascii	"p_state\000"
 3738      61746500 
 3739              	.LASF122:
 3740 03c9 69326347 		.ascii	"i2cGetErrors\000"
 3740      65744572 
 3740      726F7273 
 3740      00
 3741              	.LASF52:
 3742 03d6 65776D61 		.ascii	"ewmask\000"
 3742      736B00
 3743              	.LASF22:
 3744 03dd 705F6E65 		.ascii	"p_next\000"
 3744      787400
 3745              	.LASF31:
 3746 03e4 705F666C 		.ascii	"p_flags\000"
 3746      61677300 
 3747              	.LASF91:
 3748 03ec 46415354 		.ascii	"FAST_DUTY_CYCLE_2\000"
 3748      5F445554 
 3748      595F4359 
 3748      434C455F 
 3748      3200
 3749              	.LASF71:
 3750 03fe 6368616E 		.ascii	"channel\000"
 3750      6E656C00 
 3751              	.LASF82:
 3752 0406 4932435F 		.ascii	"I2C_LOCKED\000"
 3752      4C4F434B 
 3752      454400
 3753              	.LASF36:
 3754 0411 705F6570 		.ascii	"p_epending\000"
 3754      656E6469 
 3754      6E6700
 3755              	.LASF72:
 3756 041c 69666372 		.ascii	"ifcr\000"
 3756      00
 3757              	.LASF65:
 3758 0421 52455345 		.ascii	"RESERVED5\000"
 3758      52564544 
 3758      3500
 3759              	.LASF10:
 3760 042b 75696E74 		.ascii	"uint32_t\000"
 3760      33325F74 
 3760      00
 3761              	.LASF128:
 3762 0434 69326353 		.ascii	"i2cSlaveIoTimeout\000"
 3762      6C617665 
 3762      496F5469 
 3762      6D656F75 
 3762      7400
 3763              	.LASF81:
 3764 0446 4932435F 		.ascii	"I2C_ACTIVE_RX\000"
ARM GAS  C:\Users\z80\AppData\Local\Temp\cck8eIfH.s 			page 73


 3764      41435449 
 3764      56455F52 
 3764      5800
 3765              	.LASF11:
 3766 0454 6C6F6E67 		.ascii	"long unsigned int\000"
 3766      20756E73 
 3766      69676E65 
 3766      6420696E 
 3766      7400
 3767              	.LASF53:
 3768 0466 63686172 		.ascii	"char\000"
 3768      00
 3769              	.LASF100:
 3770 046b 636F6E66 		.ascii	"config\000"
 3770      696700
 3771              	.LASF117:
 3772 0472 54493263 		.ascii	"TI2cSlaveCb\000"
 3772      536C6176 
 3772      65436200 
 3773              	.LASF48:
 3774 047e 6D5F6E65 		.ascii	"m_next\000"
 3774      787400
 3775              	.LASF20:
 3776 0485 73797374 		.ascii	"systime_t\000"
 3776      696D655F 
 3776      7400
 3777              	.LASF38:
 3778 048f 705F7265 		.ascii	"p_realprio\000"
 3778      616C7072 
 3778      696F00
 3779              	.LASF79:
 3780 049a 4932435F 		.ascii	"I2C_READY\000"
 3780      52454144 
 3780      5900
 3781              	.LASF44:
 3782 04a4 636F6E74 		.ascii	"context\000"
 3782      65787400 
 3783              	.LASF43:
 3784 04ac 696E7463 		.ascii	"intctx\000"
 3784      747800
 3785              	.LASF126:
 3786 04b3 69326341 		.ascii	"i2cAcquireBus\000"
 3786      63717569 
 3786      72654275 
 3786      7300
 3787              	.LASF54:
 3788 04c1 434E4454 		.ascii	"CNDTR\000"
 3788      5200
 3789              	.LASF56:
 3790 04c7 434D4152 		.ascii	"CMAR\000"
 3790      00
 3791              	.LASF3:
 3792 04cc 75696E74 		.ascii	"uint8_t\000"
 3792      385F7400 
 3793              	.LASF60:
 3794 04d4 4F415231 		.ascii	"OAR1\000"
 3794      00
ARM GAS  C:\Users\z80\AppData\Local\Temp\cck8eIfH.s 			page 74


 3795              	.LASF62:
 3796 04d9 4F415232 		.ascii	"OAR2\000"
 3796      00
 3797              	.LASF125:
 3798 04de 6932634D 		.ascii	"i2cMasterReceiveTimeout\000"
 3798      61737465 
 3798      72526563 
 3798      65697665 
 3798      54696D65 
 3799              	.LASF105:
 3800 04f6 646D616D 		.ascii	"dmamode\000"
 3800      6F646500 
 3801              	.LASF130:
 3802 04fe 474E5520 		.ascii	"GNU C 4.5.0\000"
 3802      4320342E 
 3802      352E3000 
 3803              	.LASF51:
 3804 050a 77746F62 		.ascii	"wtobjp\000"
 3804      6A7000
 3805              	.LASF28:
 3806 0511 705F6E61 		.ascii	"p_name\000"
 3806      6D6500
 3807              	.LASF133:
 3808 0518 69326349 		.ascii	"i2cInit\000"
 3808      6E697400 
 3809              	.LASF35:
 3810 0520 705F6D73 		.ascii	"p_msg\000"
 3810      6700
 3811              	.LASF70:
 3812 0526 4932435F 		.ascii	"I2C_TypeDef\000"
 3812      54797065 
 3812      44656600 
 3813              	.LASF89:
 3814 0532 6932636F 		.ascii	"i2copmode_t\000"
 3814      706D6F64 
 3814      655F7400 
 3815              	.LASF118:
 3816 053e 6932634F 		.ascii	"i2cObjectInit\000"
 3816      626A6563 
 3816      74496E69 
 3816      7400
 3817              	.LASF111:
 3818 054c 7278696E 		.ascii	"rxind\000"
 3818      6400
 3819              	.LASF47:
 3820 0552 6D5F6F77 		.ascii	"m_owner\000"
 3820      6E657200 
 3821              	.LASF25:
 3822 055a 705F6374 		.ascii	"p_ctx\000"
 3822      7800
 3823              	.LASF33:
 3824 0560 705F7761 		.ascii	"p_waiting\000"
 3824      6974696E 
 3824      6700
 3825              	.LASF114:
 3826 056a 74786279 		.ascii	"txbytes\000"
 3826      74657300 
ARM GAS  C:\Users\z80\AppData\Local\Temp\cck8eIfH.s 			page 75


 3827              		.ident	"GCC: (GNU) 4.5.0"
ARM GAS  C:\Users\z80\AppData\Local\Temp\cck8eIfH.s 			page 76


DEFINED SYMBOLS
                            *ABS*:00000000 i2c.c
C:\Users\z80\AppData\Local\Temp\cck8eIfH.s:24     .text.i2cInit:00000000 $t
C:\Users\z80\AppData\Local\Temp\cck8eIfH.s:30     .text.i2cInit:00000000 i2cInit
C:\Users\z80\AppData\Local\Temp\cck8eIfH.s:50     .text.i2cObjectInit:00000000 $t
C:\Users\z80\AppData\Local\Temp\cck8eIfH.s:56     .text.i2cObjectInit:00000000 i2cObjectInit
C:\Users\z80\AppData\Local\Temp\cck8eIfH.s:90     .text.i2cStart:00000000 $t
C:\Users\z80\AppData\Local\Temp\cck8eIfH.s:96     .text.i2cStart:00000000 i2cStart
C:\Users\z80\AppData\Local\Temp\cck8eIfH.s:184    .text.i2cStart:00000064 $d
C:\Users\z80\AppData\Local\Temp\cck8eIfH.s:190    .text.i2cStop:00000000 $t
C:\Users\z80\AppData\Local\Temp\cck8eIfH.s:196    .text.i2cStop:00000000 i2cStop
C:\Users\z80\AppData\Local\Temp\cck8eIfH.s:270    .text.i2cStop:0000004c $d
C:\Users\z80\AppData\Local\Temp\cck8eIfH.s:276    .text.i2cGetErrors:00000000 $t
C:\Users\z80\AppData\Local\Temp\cck8eIfH.s:282    .text.i2cGetErrors:00000000 i2cGetErrors
C:\Users\z80\AppData\Local\Temp\cck8eIfH.s:311    .text.i2cGetErrors:00000014 $d
C:\Users\z80\AppData\Local\Temp\cck8eIfH.s:316    .text.i2cMasterTransmitTimeout:00000000 $t
C:\Users\z80\AppData\Local\Temp\cck8eIfH.s:322    .text.i2cMasterTransmitTimeout:00000000 i2cMasterTransmitTimeout
C:\Users\z80\AppData\Local\Temp\cck8eIfH.s:463    .text.i2cMasterTransmitTimeout:000000a8 $d
C:\Users\z80\AppData\Local\Temp\cck8eIfH.s:469    .text.i2cMasterReceiveTimeout:00000000 $t
C:\Users\z80\AppData\Local\Temp\cck8eIfH.s:475    .text.i2cMasterReceiveTimeout:00000000 i2cMasterReceiveTimeout
C:\Users\z80\AppData\Local\Temp\cck8eIfH.s:604    .text.i2cMasterReceiveTimeout:00000094 $d
C:\Users\z80\AppData\Local\Temp\cck8eIfH.s:610    .text.i2cAcquireBus:00000000 $t
C:\Users\z80\AppData\Local\Temp\cck8eIfH.s:616    .text.i2cAcquireBus:00000000 i2cAcquireBus
C:\Users\z80\AppData\Local\Temp\cck8eIfH.s:647    .text.i2cAcquireBus:00000018 $d
C:\Users\z80\AppData\Local\Temp\cck8eIfH.s:652    .text.i2cReleaseBus:00000000 $t
C:\Users\z80\AppData\Local\Temp\cck8eIfH.s:658    .text.i2cReleaseBus:00000000 i2cReleaseBus
C:\Users\z80\AppData\Local\Temp\cck8eIfH.s:688    .text.i2cReleaseBus:00000014 $d
C:\Users\z80\AppData\Local\Temp\cck8eIfH.s:693    .text.i2cSlaveIoTimeout:00000000 $t
C:\Users\z80\AppData\Local\Temp\cck8eIfH.s:699    .text.i2cSlaveIoTimeout:00000000 i2cSlaveIoTimeout
C:\Users\z80\AppData\Local\Temp\cck8eIfH.s:793    .rodata.str1.4:00000000 $d
                     .debug_frame:00000010 $d
C:\Users\z80\AppData\Local\Temp\cck8eIfH.s:189    .text.i2cStart:0000006c $t
C:\Users\z80\AppData\Local\Temp\cck8eIfH.s:275    .text.i2cStop:00000054 $t
C:\Users\z80\AppData\Local\Temp\cck8eIfH.s:315    .text.i2cGetErrors:00000018 $t
C:\Users\z80\AppData\Local\Temp\cck8eIfH.s:609    .text.i2cMasterReceiveTimeout:0000009c $t
C:\Users\z80\AppData\Local\Temp\cck8eIfH.s:651    .text.i2cAcquireBus:0000001c $t
C:\Users\z80\AppData\Local\Temp\cck8eIfH.s:692    .text.i2cReleaseBus:00000018 $t

UNDEFINED SYMBOLS
i2c_lld_init
chMtxInit
chDbgPanic
dbg_check_lock
i2c_lld_start
dbg_check_unlock
i2c_lld_stop
i2c_lld_master_transmit_timeout
i2c_lld_master_receive_timeout
chMtxLock
chMtxUnlock
i2c_lld_slave_io_timeout
