ARM GAS  C:\Users\z80\AppData\Local\Temp\ccQbr6qb.s 			page 1


   1              		.syntax unified
   2              		.cpu cortex-m3
   3              		.fpu softvfp
   4              		.eabi_attribute 20, 1
   5              		.eabi_attribute 21, 1
   6              		.eabi_attribute 23, 3
   7              		.eabi_attribute 24, 1
   8              		.eabi_attribute 25, 1
   9              		.eabi_attribute 26, 1
  10              		.eabi_attribute 30, 6
  11              		.eabi_attribute 18, 4
  12              		.thumb
  13              		.file	"i2c.c"
  14              		.section	.debug_abbrev,"",%progbits
  15              	.Ldebug_abbrev0:
  16              		.section	.debug_info,"",%progbits
  17              	.Ldebug_info0:
  18              		.section	.debug_line,"",%progbits
  19              	.Ldebug_line0:
  20 0000 C9030000 		.text
  20      02004302 
  20      00000201 
  20      FB0E0D00 
  20      01010101 
  21              	.Ltext0:
  22              		.cfi_sections	.debug_frame
  23              		.section	.text.i2cInit,"ax",%progbits
  24              		.align	2
  25              		.p2align 4,,15
  26              		.global	i2cInit
  27              		.thumb
  28              		.thumb_func
  29              		.type	i2cInit, %function
  30              	i2cInit:
  31              	.LFB62:
  32              		.file 1 "../chibios_2.4.x/os/hal/src/i2c.c"
  33              		.loc 1 71 0
  34              		.cfi_startproc
  35              		@ args = 0, pretend = 0, frame = 0
  36              		@ frame_needed = 0, uses_anonymous_args = 0
  37 0000 08B5     		push	{r3, lr}
  38              	.LCFI0:
  39              		.cfi_def_cfa_offset 8
  40              		.loc 1 72 0
  41              		.cfi_offset 14, -4
  42              		.cfi_offset 3, -8
  43 0002 FFF7FEFF 		bl	i2c_lld_init
  44              		.loc 1 73 0
  45 0006 08BD     		pop	{r3, pc}
  46              		.cfi_endproc
  47              	.LFE62:
  48              		.size	i2cInit, .-i2cInit
  49 0008 AFF30080 		.section	.text.i2cObjectInit,"ax",%progbits
  49      AFF30080 
  50              		.align	2
  51              		.p2align 4,,15
  52              		.global	i2cObjectInit
ARM GAS  C:\Users\z80\AppData\Local\Temp\ccQbr6qb.s 			page 2


  53              		.thumb
  54              		.thumb_func
  55              		.type	i2cObjectInit, %function
  56              	i2cObjectInit:
  57              	.LFB63:
  58              		.loc 1 82 0
  59              		.cfi_startproc
  60              		@ args = 0, pretend = 0, frame = 8
  61              		@ frame_needed = 0, uses_anonymous_args = 0
  62 0000 00B5     		push	{lr}
  63              	.LCFI1:
  64              		.cfi_def_cfa_offset 4
  65 0002 83B0     		sub	sp, sp, #12
  66              	.LCFI2:
  67              		.cfi_def_cfa_offset 16
  68 0004 0190     		str	r0, [sp, #4]
  69              		.loc 1 84 0
  70 0006 019B     		ldr	r3, [sp, #4]
  71 0008 4FF00102 		mov	r2, #1
  72 000c 1A70     		strb	r2, [r3, #0]
  73              		.loc 1 85 0
  74 000e 019B     		ldr	r3, [sp, #4]
  75 0010 4FF00002 		mov	r2, #0
  76 0014 5A60     		str	r2, [r3, #4]
  77              		.loc 1 89 0
  78 0016 019B     		ldr	r3, [sp, #4]
  79 0018 03F10C03 		add	r3, r3, #12
  80 001c 1846     		mov	r0, r3
  81              		.cfi_offset 14, -4
  82 001e FFF7FEFF 		bl	chMtxInit
  83              		.loc 1 98 0
  84 0022 03B0     		add	sp, sp, #12
  85 0024 00BD     		pop	{pc}
  86              		.cfi_endproc
  87              	.LFE63:
  88              		.size	i2cObjectInit, .-i2cObjectInit
  89 0026 00BFAFF3 		.section	.rodata
  89      0080AFF3 
  89      0080
  90              		.align	2
  91              	.LC0:
  92 0000 22693263 		.ascii	"\"i2cStart\"()\000"
  92      53746172 
  92      74222829 
  92      00
  93 000d 000000   		.align	2
  94              	.LC1:
  95 0010 69326353 		.ascii	"i2cStart(), #1\000"
  95      74617274 
  95      28292C20 
  95      233100
  96              		.section	.text.i2cStart,"ax",%progbits
  97              		.align	2
  98              		.p2align 4,,15
  99              		.global	i2cStart
 100              		.thumb
 101              		.thumb_func
ARM GAS  C:\Users\z80\AppData\Local\Temp\ccQbr6qb.s 			page 3


 102              		.type	i2cStart, %function
 103              	i2cStart:
 104              	.LFB64:
 105              		.loc 1 108 0
 106              		.cfi_startproc
 107              		@ args = 0, pretend = 0, frame = 8
 108              		@ frame_needed = 0, uses_anonymous_args = 0
 109 0000 00B5     		push	{lr}
 110              	.LCFI3:
 111              		.cfi_def_cfa_offset 4
 112 0002 83B0     		sub	sp, sp, #12
 113              	.LCFI4:
 114              		.cfi_def_cfa_offset 16
 115 0004 0190     		str	r0, [sp, #4]
 116 0006 0091     		str	r1, [sp, #0]
 117              		.loc 1 110 0
 118 0008 019B     		ldr	r3, [sp, #4]
 119 000a 002B     		cmp	r3, #0
 120 000c 02D0     		beq	.L4
 121              		.cfi_offset 14, -4
 122              		.loc 1 110 0 is_stmt 0 discriminator 2
 123 000e 009B     		ldr	r3, [sp, #0]
 124 0010 002B     		cmp	r3, #0
 125 0012 05D1     		bne	.L5
 126              	.L4:
 127              		.loc 1 110 0 discriminator 1
 128 0014 40F20000 		movw	r0, #:lower16:.LC0
 129 0018 C0F20000 		movt	r0, #:upper16:.LC0
 130 001c FFF7FEFF 		bl	chDbgPanic
 131              	.L5:
 132              		.loc 1 111 0 is_stmt 1
 133 0020 019B     		ldr	r3, [sp, #4]
 134 0022 1B78     		ldrb	r3, [r3, #0]	@ zero_extendqisi2
 135 0024 012B     		cmp	r3, #1
 136 0026 0DD0     		beq	.L6
 137              		.loc 1 111 0 is_stmt 0 discriminator 1
 138 0028 019B     		ldr	r3, [sp, #4]
 139 002a 1B78     		ldrb	r3, [r3, #0]	@ zero_extendqisi2
 140 002c 022B     		cmp	r3, #2
 141 002e 09D0     		beq	.L6
 142              		.loc 1 111 0 discriminator 2
 143 0030 019B     		ldr	r3, [sp, #4]
 144 0032 1B78     		ldrb	r3, [r3, #0]	@ zero_extendqisi2
 145 0034 052B     		cmp	r3, #5
 146 0036 05D0     		beq	.L6
 147              		.loc 1 111 0 discriminator 3
 148 0038 40F20000 		movw	r0, #:lower16:.LC1
 149 003c C0F20000 		movt	r0, #:upper16:.LC1
 150 0040 FFF7FEFF 		bl	chDbgPanic
 151              	.L6:
 152              	.LBB2:
 153              		.loc 1 116 0 is_stmt 1
 154 0044 4FF02003 		mov	r3, #32
 155              	@ 116 "../chibios_2.4.x/os/hal/src/i2c.c" 1
 156 0048 83F31188 		msr     BASEPRI, r3
 157              	@ 0 "" 2
 158              		.thumb
ARM GAS  C:\Users\z80\AppData\Local\Temp\ccQbr6qb.s 			page 4


 159              	.LBE2:
 160 004c FFF7FEFF 		bl	dbg_check_lock
 161              		.loc 1 117 0
 162 0050 019B     		ldr	r3, [sp, #4]
 163 0052 009A     		ldr	r2, [sp, #0]
 164 0054 5A60     		str	r2, [r3, #4]
 165              		.loc 1 118 0
 166 0056 0198     		ldr	r0, [sp, #4]
 167 0058 FFF7FEFF 		bl	i2c_lld_start
 168              		.loc 1 119 0
 169 005c 019B     		ldr	r3, [sp, #4]
 170 005e 4FF00202 		mov	r2, #2
 171 0062 1A70     		strb	r2, [r3, #0]
 172              		.loc 1 120 0
 173 0064 FFF7FEFF 		bl	dbg_check_unlock
 174              	.LBB3:
 175 0068 4FF00003 		mov	r3, #0
 176              	@ 120 "../chibios_2.4.x/os/hal/src/i2c.c" 1
 177 006c 83F31188 		msr     BASEPRI, r3
 178              	@ 0 "" 2
 179              		.thumb
 180              	.LBE3:
 181              		.loc 1 121 0
 182 0070 03B0     		add	sp, sp, #12
 183 0072 00BD     		pop	{pc}
 184              		.cfi_endproc
 185              	.LFE64:
 186              		.size	i2cStart, .-i2cStart
 187 0074 AFF30080 		.section	.rodata
 187      AFF30080 
 187      AFF30080 
 188 001f 00       		.align	2
 189              	.LC2:
 190 0020 22693263 		.ascii	"\"i2cStop\"()\000"
 190      53746F70 
 190      22282900 
 191              		.align	2
 192              	.LC3:
 193 002c 69326353 		.ascii	"i2cStop(), #1\000"
 193      746F7028 
 193      292C2023 
 193      3100
 194              		.section	.text.i2cStop,"ax",%progbits
 195              		.align	2
 196              		.p2align 4,,15
 197              		.global	i2cStop
 198              		.thumb
 199              		.thumb_func
 200              		.type	i2cStop, %function
 201              	i2cStop:
 202              	.LFB65:
 203              		.loc 1 130 0
 204              		.cfi_startproc
 205              		@ args = 0, pretend = 0, frame = 8
 206              		@ frame_needed = 0, uses_anonymous_args = 0
 207 0000 00B5     		push	{lr}
 208              	.LCFI5:
ARM GAS  C:\Users\z80\AppData\Local\Temp\ccQbr6qb.s 			page 5


 209              		.cfi_def_cfa_offset 4
 210 0002 83B0     		sub	sp, sp, #12
 211              	.LCFI6:
 212              		.cfi_def_cfa_offset 16
 213 0004 0190     		str	r0, [sp, #4]
 214              		.loc 1 132 0
 215 0006 019B     		ldr	r3, [sp, #4]
 216 0008 002B     		cmp	r3, #0
 217 000a 05D1     		bne	.L8
 218              		.cfi_offset 14, -4
 219              		.loc 1 132 0 is_stmt 0 discriminator 1
 220 000c 40F20000 		movw	r0, #:lower16:.LC2
 221 0010 C0F20000 		movt	r0, #:upper16:.LC2
 222 0014 FFF7FEFF 		bl	chDbgPanic
 223              	.L8:
 224              		.loc 1 133 0 is_stmt 1
 225 0018 019B     		ldr	r3, [sp, #4]
 226 001a 1B78     		ldrb	r3, [r3, #0]	@ zero_extendqisi2
 227 001c 012B     		cmp	r3, #1
 228 001e 0DD0     		beq	.L9
 229              		.loc 1 133 0 is_stmt 0 discriminator 1
 230 0020 019B     		ldr	r3, [sp, #4]
 231 0022 1B78     		ldrb	r3, [r3, #0]	@ zero_extendqisi2
 232 0024 022B     		cmp	r3, #2
 233 0026 09D0     		beq	.L9
 234              		.loc 1 133 0 discriminator 2
 235 0028 019B     		ldr	r3, [sp, #4]
 236 002a 1B78     		ldrb	r3, [r3, #0]	@ zero_extendqisi2
 237 002c 052B     		cmp	r3, #5
 238 002e 05D0     		beq	.L9
 239              		.loc 1 133 0 discriminator 3
 240 0030 40F20000 		movw	r0, #:lower16:.LC3
 241 0034 C0F20000 		movt	r0, #:upper16:.LC3
 242 0038 FFF7FEFF 		bl	chDbgPanic
 243              	.L9:
 244              	.LBB4:
 245              		.loc 1 138 0 is_stmt 1
 246 003c 4FF02003 		mov	r3, #32
 247              	@ 138 "../chibios_2.4.x/os/hal/src/i2c.c" 1
 248 0040 83F31188 		msr     BASEPRI, r3
 249              	@ 0 "" 2
 250              		.thumb
 251              	.LBE4:
 252 0044 FFF7FEFF 		bl	dbg_check_lock
 253              		.loc 1 139 0
 254 0048 0198     		ldr	r0, [sp, #4]
 255 004a FFF7FEFF 		bl	i2c_lld_stop
 256              		.loc 1 140 0
 257 004e 019B     		ldr	r3, [sp, #4]
 258 0050 4FF00102 		mov	r2, #1
 259 0054 1A70     		strb	r2, [r3, #0]
 260              		.loc 1 141 0
 261 0056 FFF7FEFF 		bl	dbg_check_unlock
 262              	.LBB5:
 263 005a 4FF00003 		mov	r3, #0
 264              	@ 141 "../chibios_2.4.x/os/hal/src/i2c.c" 1
 265 005e 83F31188 		msr     BASEPRI, r3
ARM GAS  C:\Users\z80\AppData\Local\Temp\ccQbr6qb.s 			page 6


 266              	@ 0 "" 2
 267              		.thumb
 268              	.LBE5:
 269              		.loc 1 142 0
 270 0062 03B0     		add	sp, sp, #12
 271 0064 00BD     		pop	{pc}
 272              		.cfi_endproc
 273              	.LFE65:
 274              		.size	i2cStop, .-i2cStop
 275 0066 00BFAFF3 		.section	.rodata
 275      0080AFF3 
 275      0080
 276 003a 0000     		.align	2
 277              	.LC4:
 278 003c 22693263 		.ascii	"\"i2cGetErrors\"()\000"
 278      47657445 
 278      72726F72 
 278      73222829 
 278      00
 279              		.section	.text.i2cGetErrors,"ax",%progbits
 280              		.align	2
 281              		.p2align 4,,15
 282              		.global	i2cGetErrors
 283              		.thumb
 284              		.thumb_func
 285              		.type	i2cGetErrors, %function
 286              	i2cGetErrors:
 287              	.LFB66:
 288              		.loc 1 152 0
 289              		.cfi_startproc
 290              		@ args = 0, pretend = 0, frame = 8
 291              		@ frame_needed = 0, uses_anonymous_args = 0
 292 0000 00B5     		push	{lr}
 293              	.LCFI7:
 294              		.cfi_def_cfa_offset 4
 295 0002 83B0     		sub	sp, sp, #12
 296              	.LCFI8:
 297              		.cfi_def_cfa_offset 16
 298 0004 0190     		str	r0, [sp, #4]
 299              		.loc 1 154 0
 300 0006 019B     		ldr	r3, [sp, #4]
 301 0008 002B     		cmp	r3, #0
 302 000a 05D1     		bne	.L11
 303              		.cfi_offset 14, -4
 304              		.loc 1 154 0 is_stmt 0 discriminator 1
 305 000c 40F20000 		movw	r0, #:lower16:.LC4
 306 0010 C0F20000 		movt	r0, #:upper16:.LC4
 307 0014 FFF7FEFF 		bl	chDbgPanic
 308              	.L11:
 309              		.loc 1 156 0 is_stmt 1
 310 0018 019B     		ldr	r3, [sp, #4]
 311 001a 9B68     		ldr	r3, [r3, #8]
 312              		.loc 1 157 0
 313 001c 1846     		mov	r0, r3
 314 001e 03B0     		add	sp, sp, #12
 315 0020 00BD     		pop	{pc}
 316              		.cfi_endproc
ARM GAS  C:\Users\z80\AppData\Local\Temp\ccQbr6qb.s 			page 7


 317              	.LFE66:
 318              		.size	i2cGetErrors, .-i2cGetErrors
 319 0022 00BFAFF3 		.section	.rodata
 319      0080AFF3 
 319      0080AFF3 
 319      0080
 320 004d 000000   		.align	2
 321              	.LC5:
 322 0050 22693263 		.ascii	"\"i2cMasterTransmitTimeout\"()\000"
 322      4D617374 
 322      65725472 
 322      616E736D 
 322      69745469 
 323 006d 000000   		.align	2
 324              	.LC6:
 325 0070 6932634D 		.ascii	"i2cMasterTransmitTimeout(), #1\000"
 325      61737465 
 325      72547261 
 325      6E736D69 
 325      7454696D 
 326              		.section	.text.i2cMasterTransmitTimeout,"ax",%progbits
 327              		.align	2
 328              		.p2align 4,,15
 329              		.global	i2cMasterTransmitTimeout
 330              		.thumb
 331              		.thumb_func
 332              		.type	i2cMasterTransmitTimeout, %function
 333              	i2cMasterTransmitTimeout:
 334              	.LFB67:
 335              		.loc 1 191 0
 336              		.cfi_startproc
 337              		@ args = 12, pretend = 0, frame = 24
 338              		@ frame_needed = 0, uses_anonymous_args = 0
 339 0000 00B5     		push	{lr}
 340              	.LCFI9:
 341              		.cfi_def_cfa_offset 4
 342 0002 8BB0     		sub	sp, sp, #44
 343              	.LCFI10:
 344              		.cfi_def_cfa_offset 48
 345 0004 0790     		str	r0, [sp, #28]
 346 0006 0592     		str	r2, [sp, #20]
 347 0008 0493     		str	r3, [sp, #16]
 348 000a 0B46     		mov	r3, r1	@ movhi
 349 000c ADF81A30 		strh	r3, [sp, #26]	@ movhi
 350              		.loc 1 194 0
 351 0010 079B     		ldr	r3, [sp, #28]
 352 0012 002B     		cmp	r3, #0
 353 0014 15D0     		beq	.L13
 354              		.cfi_offset 14, -4
 355              		.loc 1 194 0 is_stmt 0 discriminator 2
 356 0016 BDF81A30 		ldrh	r3, [sp, #26]
 357 001a 002B     		cmp	r3, #0
 358 001c 11D0     		beq	.L13
 359              		.loc 1 194 0 discriminator 3
 360 001e 049B     		ldr	r3, [sp, #16]
 361 0020 002B     		cmp	r3, #0
 362 0022 0ED0     		beq	.L13
ARM GAS  C:\Users\z80\AppData\Local\Temp\ccQbr6qb.s 			page 8


 363              		.loc 1 194 0 discriminator 4
 364 0024 059B     		ldr	r3, [sp, #20]
 365 0026 002B     		cmp	r3, #0
 366 0028 0BD0     		beq	.L13
 367              		.loc 1 194 0 discriminator 5
 368 002a 0D9B     		ldr	r3, [sp, #52]
 369 002c 002B     		cmp	r3, #0
 370 002e 05D0     		beq	.L14
 371              		.loc 1 194 0 discriminator 6
 372 0030 0D9B     		ldr	r3, [sp, #52]
 373 0032 002B     		cmp	r3, #0
 374 0034 05D0     		beq	.L13
 375              		.loc 1 194 0 discriminator 8
 376 0036 0C9B     		ldr	r3, [sp, #48]
 377 0038 002B     		cmp	r3, #0
 378 003a 02D0     		beq	.L13
 379              	.L14:
 380              		.loc 1 194 0 discriminator 7
 381 003c 0E9B     		ldr	r3, [sp, #56]
 382 003e 002B     		cmp	r3, #0
 383 0040 05D1     		bne	.L15
 384              	.L13:
 385              		.loc 1 194 0 discriminator 1
 386 0042 40F20000 		movw	r0, #:lower16:.LC5
 387 0046 C0F20000 		movt	r0, #:upper16:.LC5
 388 004a FFF7FEFF 		bl	chDbgPanic
 389              	.L15:
 390              		.loc 1 200 0 is_stmt 1
 391 004e 079B     		ldr	r3, [sp, #28]
 392 0050 1B78     		ldrb	r3, [r3, #0]	@ zero_extendqisi2
 393 0052 022B     		cmp	r3, #2
 394 0054 05D0     		beq	.L16
 395              		.loc 1 200 0 is_stmt 0 discriminator 1
 396 0056 40F20000 		movw	r0, #:lower16:.LC6
 397 005a C0F20000 		movt	r0, #:upper16:.LC6
 398 005e FFF7FEFF 		bl	chDbgPanic
 399              	.L16:
 400              	.LBB6:
 401              		.loc 1 203 0 is_stmt 1
 402 0062 4FF02003 		mov	r3, #32
 403              	@ 203 "../chibios_2.4.x/os/hal/src/i2c.c" 1
 404 0066 83F31188 		msr     BASEPRI, r3
 405              	@ 0 "" 2
 406              		.thumb
 407              	.LBE6:
 408 006a FFF7FEFF 		bl	dbg_check_lock
 409              		.loc 1 204 0
 410 006e 079B     		ldr	r3, [sp, #28]
 411 0070 4FF00002 		mov	r2, #0
 412 0074 9A60     		str	r2, [r3, #8]
 413              		.loc 1 205 0
 414 0076 079B     		ldr	r3, [sp, #28]
 415 0078 4FF00302 		mov	r2, #3
 416 007c 1A70     		strb	r2, [r3, #0]
 417              		.loc 1 206 0
 418 007e BDF81A30 		ldrh	r3, [sp, #26]
 419 0082 0C9A     		ldr	r2, [sp, #48]
ARM GAS  C:\Users\z80\AppData\Local\Temp\ccQbr6qb.s 			page 9


 420 0084 0092     		str	r2, [sp, #0]
 421 0086 0D9A     		ldr	r2, [sp, #52]
 422 0088 0192     		str	r2, [sp, #4]
 423 008a 0E9A     		ldr	r2, [sp, #56]
 424 008c 0292     		str	r2, [sp, #8]
 425 008e 0798     		ldr	r0, [sp, #28]
 426 0090 1946     		mov	r1, r3
 427 0092 059A     		ldr	r2, [sp, #20]
 428 0094 049B     		ldr	r3, [sp, #16]
 429 0096 FFF7FEFF 		bl	i2c_lld_master_transmit_timeout
 430 009a 0346     		mov	r3, r0
 431 009c 0993     		str	r3, [sp, #36]
 432              		.loc 1 208 0
 433 009e 099B     		ldr	r3, [sp, #36]
 434 00a0 B3F1FF3F 		cmp	r3, #-1
 435 00a4 04D1     		bne	.L17
 436              		.loc 1 209 0
 437 00a6 079B     		ldr	r3, [sp, #28]
 438 00a8 4FF00502 		mov	r2, #5
 439 00ac 1A70     		strb	r2, [r3, #0]
 440 00ae 03E0     		b	.L18
 441              	.L17:
 442              		.loc 1 211 0
 443 00b0 079B     		ldr	r3, [sp, #28]
 444 00b2 4FF00202 		mov	r2, #2
 445 00b6 1A70     		strb	r2, [r3, #0]
 446              	.L18:
 447              		.loc 1 212 0
 448 00b8 FFF7FEFF 		bl	dbg_check_unlock
 449              	.LBB7:
 450 00bc 4FF00003 		mov	r3, #0
 451              	@ 212 "../chibios_2.4.x/os/hal/src/i2c.c" 1
 452 00c0 83F31188 		msr     BASEPRI, r3
 453              	@ 0 "" 2
 454              		.thumb
 455              	.LBE7:
 456              		.loc 1 213 0
 457 00c4 099B     		ldr	r3, [sp, #36]
 458              		.loc 1 214 0
 459 00c6 1846     		mov	r0, r3
 460 00c8 0BB0     		add	sp, sp, #44
 461 00ca 00BD     		pop	{pc}
 462              		.cfi_endproc
 463              	.LFE67:
 464              		.size	i2cMasterTransmitTimeout, .-i2cMasterTransmitTimeout
 465 00cc AFF30080 		.section	.rodata
 466 008f 00       		.align	2
 467              	.LC7:
 468 0090 22693263 		.ascii	"\"i2cMasterReceiveTimeout\"()\000"
 468      4D617374 
 468      65725265 
 468      63656976 
 468      6554696D 
 469              		.align	2
 470              	.LC8:
 471 00ac 6932634D 		.ascii	"i2cMasterReceive(), #1\000"
 471      61737465 
ARM GAS  C:\Users\z80\AppData\Local\Temp\ccQbr6qb.s 			page 10


 471      72526563 
 471      65697665 
 471      28292C20 
 472              		.section	.text.i2cMasterReceiveTimeout,"ax",%progbits
 473              		.align	2
 474              		.p2align 4,,15
 475              		.global	i2cMasterReceiveTimeout
 476              		.thumb
 477              		.thumb_func
 478              		.type	i2cMasterReceiveTimeout, %function
 479              	i2cMasterReceiveTimeout:
 480              	.LFB68:
 481              		.loc 1 240 0
 482              		.cfi_startproc
 483              		@ args = 4, pretend = 0, frame = 24
 484              		@ frame_needed = 0, uses_anonymous_args = 0
 485 0000 00B5     		push	{lr}
 486              	.LCFI11:
 487              		.cfi_def_cfa_offset 4
 488 0002 89B0     		sub	sp, sp, #36
 489              	.LCFI12:
 490              		.cfi_def_cfa_offset 40
 491 0004 0590     		str	r0, [sp, #20]
 492 0006 0392     		str	r2, [sp, #12]
 493 0008 0293     		str	r3, [sp, #8]
 494 000a 0B46     		mov	r3, r1	@ movhi
 495 000c ADF81230 		strh	r3, [sp, #18]	@ movhi
 496              		.loc 1 244 0
 497 0010 059B     		ldr	r3, [sp, #20]
 498 0012 002B     		cmp	r3, #0
 499 0014 0CD0     		beq	.L20
 500              		.cfi_offset 14, -4
 501              		.loc 1 244 0 is_stmt 0 discriminator 2
 502 0016 BDF81230 		ldrh	r3, [sp, #18]
 503 001a 002B     		cmp	r3, #0
 504 001c 08D0     		beq	.L20
 505              		.loc 1 244 0 discriminator 3
 506 001e 029B     		ldr	r3, [sp, #8]
 507 0020 002B     		cmp	r3, #0
 508 0022 05D0     		beq	.L20
 509              		.loc 1 244 0 discriminator 4
 510 0024 039B     		ldr	r3, [sp, #12]
 511 0026 002B     		cmp	r3, #0
 512 0028 02D0     		beq	.L20
 513              		.loc 1 244 0 discriminator 5
 514 002a 0A9B     		ldr	r3, [sp, #40]
 515 002c 002B     		cmp	r3, #0
 516 002e 05D1     		bne	.L21
 517              	.L20:
 518              		.loc 1 244 0 discriminator 1
 519 0030 40F20000 		movw	r0, #:lower16:.LC7
 520 0034 C0F20000 		movt	r0, #:upper16:.LC7
 521 0038 FFF7FEFF 		bl	chDbgPanic
 522              	.L21:
 523              		.loc 1 249 0 is_stmt 1
 524 003c 059B     		ldr	r3, [sp, #20]
 525 003e 1B78     		ldrb	r3, [r3, #0]	@ zero_extendqisi2
ARM GAS  C:\Users\z80\AppData\Local\Temp\ccQbr6qb.s 			page 11


 526 0040 022B     		cmp	r3, #2
 527 0042 05D0     		beq	.L22
 528              		.loc 1 249 0 is_stmt 0 discriminator 1
 529 0044 40F20000 		movw	r0, #:lower16:.LC8
 530 0048 C0F20000 		movt	r0, #:upper16:.LC8
 531 004c FFF7FEFF 		bl	chDbgPanic
 532              	.L22:
 533              	.LBB8:
 534              		.loc 1 252 0 is_stmt 1
 535 0050 4FF02003 		mov	r3, #32
 536              	@ 252 "../chibios_2.4.x/os/hal/src/i2c.c" 1
 537 0054 83F31188 		msr     BASEPRI, r3
 538              	@ 0 "" 2
 539              		.thumb
 540              	.LBE8:
 541 0058 FFF7FEFF 		bl	dbg_check_lock
 542              		.loc 1 253 0
 543 005c 059B     		ldr	r3, [sp, #20]
 544 005e 4FF00002 		mov	r2, #0
 545 0062 9A60     		str	r2, [r3, #8]
 546              		.loc 1 254 0
 547 0064 059B     		ldr	r3, [sp, #20]
 548 0066 4FF00402 		mov	r2, #4
 549 006a 1A70     		strb	r2, [r3, #0]
 550              		.loc 1 255 0
 551 006c BDF81230 		ldrh	r3, [sp, #18]
 552 0070 0A9A     		ldr	r2, [sp, #40]
 553 0072 0092     		str	r2, [sp, #0]
 554 0074 0598     		ldr	r0, [sp, #20]
 555 0076 1946     		mov	r1, r3
 556 0078 039A     		ldr	r2, [sp, #12]
 557 007a 029B     		ldr	r3, [sp, #8]
 558 007c FFF7FEFF 		bl	i2c_lld_master_receive_timeout
 559 0080 0346     		mov	r3, r0
 560 0082 0793     		str	r3, [sp, #28]
 561              		.loc 1 256 0
 562 0084 079B     		ldr	r3, [sp, #28]
 563 0086 B3F1FF3F 		cmp	r3, #-1
 564 008a 04D1     		bne	.L23
 565              		.loc 1 257 0
 566 008c 059B     		ldr	r3, [sp, #20]
 567 008e 4FF00502 		mov	r2, #5
 568 0092 1A70     		strb	r2, [r3, #0]
 569 0094 03E0     		b	.L24
 570              	.L23:
 571              		.loc 1 259 0
 572 0096 059B     		ldr	r3, [sp, #20]
 573 0098 4FF00202 		mov	r2, #2
 574 009c 1A70     		strb	r2, [r3, #0]
 575              	.L24:
 576              		.loc 1 260 0
 577 009e FFF7FEFF 		bl	dbg_check_unlock
 578              	.LBB9:
 579 00a2 4FF00003 		mov	r3, #0
 580              	@ 260 "../chibios_2.4.x/os/hal/src/i2c.c" 1
 581 00a6 83F31188 		msr     BASEPRI, r3
 582              	@ 0 "" 2
ARM GAS  C:\Users\z80\AppData\Local\Temp\ccQbr6qb.s 			page 12


 583              		.thumb
 584              	.LBE9:
 585              		.loc 1 261 0
 586 00aa 079B     		ldr	r3, [sp, #28]
 587              		.loc 1 262 0
 588 00ac 1846     		mov	r0, r3
 589 00ae 09B0     		add	sp, sp, #36
 590 00b0 00BD     		pop	{pc}
 591              		.cfi_endproc
 592              	.LFE68:
 593              		.size	i2cMasterReceiveTimeout, .-i2cMasterReceiveTimeout
 594 00b2 00BFAFF3 		.section	.rodata
 594      0080AFF3 
 594      0080AFF3 
 594      0080
 595 00c3 00       		.align	2
 596              	.LC9:
 597 00c4 22693263 		.ascii	"\"i2cAcquireBus\"()\000"
 597      41637175 
 597      69726542 
 597      75732228 
 597      2900
 598              		.section	.text.i2cAcquireBus,"ax",%progbits
 599              		.align	2
 600              		.p2align 4,,15
 601              		.global	i2cAcquireBus
 602              		.thumb
 603              		.thumb_func
 604              		.type	i2cAcquireBus, %function
 605              	i2cAcquireBus:
 606              	.LFB69:
 607              		.loc 1 276 0
 608              		.cfi_startproc
 609              		@ args = 0, pretend = 0, frame = 8
 610              		@ frame_needed = 0, uses_anonymous_args = 0
 611 0000 00B5     		push	{lr}
 612              	.LCFI13:
 613              		.cfi_def_cfa_offset 4
 614 0002 83B0     		sub	sp, sp, #12
 615              	.LCFI14:
 616              		.cfi_def_cfa_offset 16
 617 0004 0190     		str	r0, [sp, #4]
 618              		.loc 1 278 0
 619 0006 019B     		ldr	r3, [sp, #4]
 620 0008 002B     		cmp	r3, #0
 621 000a 05D1     		bne	.L26
 622              		.cfi_offset 14, -4
 623              		.loc 1 278 0 is_stmt 0 discriminator 1
 624 000c 40F20000 		movw	r0, #:lower16:.LC9
 625 0010 C0F20000 		movt	r0, #:upper16:.LC9
 626 0014 FFF7FEFF 		bl	chDbgPanic
 627              	.L26:
 628              		.loc 1 281 0 is_stmt 1
 629 0018 019B     		ldr	r3, [sp, #4]
 630 001a 03F10C03 		add	r3, r3, #12
 631 001e 1846     		mov	r0, r3
 632 0020 FFF7FEFF 		bl	chMtxLock
ARM GAS  C:\Users\z80\AppData\Local\Temp\ccQbr6qb.s 			page 13


 633              		.loc 1 285 0
 634 0024 03B0     		add	sp, sp, #12
 635 0026 00BD     		pop	{pc}
 636              		.cfi_endproc
 637              	.LFE69:
 638              		.size	i2cAcquireBus, .-i2cAcquireBus
 639 0028 AFF30080 		.section	.rodata
 639      AFF30080 
 640 00d6 0000     		.align	2
 641              	.LC10:
 642 00d8 22693263 		.ascii	"\"i2cReleaseBus\"()\000"
 642      52656C65 
 642      61736542 
 642      75732228 
 642      2900
 643 00ea 0000     		.section	.text.i2cReleaseBus,"ax",%progbits
 644              		.align	2
 645              		.p2align 4,,15
 646              		.global	i2cReleaseBus
 647              		.thumb
 648              		.thumb_func
 649              		.type	i2cReleaseBus, %function
 650              	i2cReleaseBus:
 651              	.LFB70:
 652              		.loc 1 296 0
 653              		.cfi_startproc
 654              		@ args = 0, pretend = 0, frame = 8
 655              		@ frame_needed = 0, uses_anonymous_args = 0
 656 0000 00B5     		push	{lr}
 657              	.LCFI15:
 658              		.cfi_def_cfa_offset 4
 659 0002 83B0     		sub	sp, sp, #12
 660              	.LCFI16:
 661              		.cfi_def_cfa_offset 16
 662 0004 0190     		str	r0, [sp, #4]
 663              		.loc 1 298 0
 664 0006 019B     		ldr	r3, [sp, #4]
 665 0008 002B     		cmp	r3, #0
 666 000a 05D1     		bne	.L28
 667              		.cfi_offset 14, -4
 668              		.loc 1 298 0 is_stmt 0 discriminator 1
 669 000c 40F20000 		movw	r0, #:lower16:.LC10
 670 0010 C0F20000 		movt	r0, #:upper16:.LC10
 671 0014 FFF7FEFF 		bl	chDbgPanic
 672              	.L28:
 673              		.loc 1 301 0 is_stmt 1
 674 0018 FFF7FEFF 		bl	chMtxUnlock
 675              		.loc 1 305 0
 676 001c 03B0     		add	sp, sp, #12
 677 001e 00BD     		pop	{pc}
 678              		.cfi_endproc
 679              	.LFE70:
 680              		.size	i2cReleaseBus, .-i2cReleaseBus
 681              		.section	.text.i2cSlaveIoTimeout,"ax",%progbits
 682              		.align	2
 683              		.p2align 4,,15
 684              		.global	i2cSlaveIoTimeout
ARM GAS  C:\Users\z80\AppData\Local\Temp\ccQbr6qb.s 			page 14


 685              		.thumb
 686              		.thumb_func
 687              		.type	i2cSlaveIoTimeout, %function
 688              	i2cSlaveIoTimeout:
 689              	.LFB71:
 690              		.loc 1 317 0
 691              		.cfi_startproc
 692              		@ args = 20, pretend = 0, frame = 24
 693              		@ frame_needed = 0, uses_anonymous_args = 0
 694 0000 00B5     		push	{lr}
 695              	.LCFI17:
 696              		.cfi_def_cfa_offset 4
 697 0002 8DB0     		sub	sp, sp, #52
 698              	.LCFI18:
 699              		.cfi_def_cfa_offset 56
 700 0004 0990     		str	r0, [sp, #36]
 701 0006 0792     		str	r2, [sp, #28]
 702 0008 0693     		str	r3, [sp, #24]
 703 000a 0B46     		mov	r3, r1	@ movhi
 704 000c ADF82230 		strh	r3, [sp, #34]	@ movhi
 705              	.LBB10:
 706              		.loc 1 320 0
 707 0010 4FF02003 		mov	r3, #32
 708              	@ 320 "../chibios_2.4.x/os/hal/src/i2c.c" 1
 709 0014 83F31188 		msr     BASEPRI, r3
 710              	@ 0 "" 2
 711              		.thumb
 712              	.LBE10:
 713              		.cfi_offset 14, -4
 714 0018 FFF7FEFF 		bl	dbg_check_lock
 715              		.loc 1 321 0
 716 001c 099B     		ldr	r3, [sp, #36]
 717 001e 4FF00002 		mov	r2, #0
 718 0022 9A60     		str	r2, [r3, #8]
 719              		.loc 1 322 0
 720 0024 099B     		ldr	r3, [sp, #36]
 721 0026 4FF00002 		mov	r2, #0
 722 002a 1A70     		strb	r2, [r3, #0]
 723              		.loc 1 323 0
 724 002c BDF82230 		ldrh	r3, [sp, #34]
 725 0030 0E9A     		ldr	r2, [sp, #56]
 726 0032 0092     		str	r2, [sp, #0]
 727 0034 0F9A     		ldr	r2, [sp, #60]
 728 0036 0192     		str	r2, [sp, #4]
 729 0038 109A     		ldr	r2, [sp, #64]
 730 003a 0292     		str	r2, [sp, #8]
 731 003c 119A     		ldr	r2, [sp, #68]
 732 003e 0392     		str	r2, [sp, #12]
 733 0040 129A     		ldr	r2, [sp, #72]
 734 0042 0492     		str	r2, [sp, #16]
 735 0044 0998     		ldr	r0, [sp, #36]
 736 0046 1946     		mov	r1, r3
 737 0048 079A     		ldr	r2, [sp, #28]
 738 004a 069B     		ldr	r3, [sp, #24]
 739 004c FFF7FEFF 		bl	i2c_lld_slave_io_timeout
 740 0050 0346     		mov	r3, r0
 741 0052 0B93     		str	r3, [sp, #44]
ARM GAS  C:\Users\z80\AppData\Local\Temp\ccQbr6qb.s 			page 15


 742              		.loc 1 330 0
 743 0054 0B9B     		ldr	r3, [sp, #44]
 744 0056 B3F1FF3F 		cmp	r3, #-1
 745 005a 04D1     		bne	.L30
 746              		.loc 1 331 0
 747 005c 099B     		ldr	r3, [sp, #36]
 748 005e 4FF00502 		mov	r2, #5
 749 0062 1A70     		strb	r2, [r3, #0]
 750 0064 03E0     		b	.L31
 751              	.L30:
 752              		.loc 1 333 0
 753 0066 099B     		ldr	r3, [sp, #36]
 754 0068 4FF00202 		mov	r2, #2
 755 006c 1A70     		strb	r2, [r3, #0]
 756              	.L31:
 757              		.loc 1 334 0
 758 006e FFF7FEFF 		bl	dbg_check_unlock
 759              	.LBB11:
 760 0072 4FF00003 		mov	r3, #0
 761              	@ 334 "../chibios_2.4.x/os/hal/src/i2c.c" 1
 762 0076 83F31188 		msr     BASEPRI, r3
 763              	@ 0 "" 2
 764              		.thumb
 765              	.LBE11:
 766              		.loc 1 335 0
 767 007a 0B9B     		ldr	r3, [sp, #44]
 768              		.loc 1 337 0
 769 007c 1846     		mov	r0, r3
 770 007e 0DB0     		add	sp, sp, #52
 771 0080 00BD     		pop	{pc}
 772              		.cfi_endproc
 773              	.LFE71:
 774              		.size	i2cSlaveIoTimeout, .-i2cSlaveIoTimeout
 775 0082 00BFAFF3 		.text
 775      0080AFF3 
 775      0080AFF3 
 775      0080
 776              	.Letext0:
 777              		.section	.debug_loc,"",%progbits
 778              	.Ldebug_loc0:
 779              	.LLST0:
 780 0000 00000000 		.4byte	.LFB62
 781 0004 02000000 		.4byte	.LCFI0
 782 0008 0200     		.2byte	0x2
 783 000a 7D       		.byte	0x7d
 784 000b 00       		.sleb128 0
 785 000c 02000000 		.4byte	.LCFI0
 786 0010 08000000 		.4byte	.LFE62
 787 0014 0200     		.2byte	0x2
 788 0016 7D       		.byte	0x7d
 789 0017 08       		.sleb128 8
 790 0018 00000000 		.4byte	0x0
 791 001c 00000000 		.4byte	0x0
 792              	.LLST1:
 793 0020 00000000 		.4byte	.LFB63
 794 0024 02000000 		.4byte	.LCFI1
 795 0028 0200     		.2byte	0x2
ARM GAS  C:\Users\z80\AppData\Local\Temp\ccQbr6qb.s 			page 16


 796 002a 7D       		.byte	0x7d
 797 002b 00       		.sleb128 0
 798 002c 02000000 		.4byte	.LCFI1
 799 0030 04000000 		.4byte	.LCFI2
 800 0034 0200     		.2byte	0x2
 801 0036 7D       		.byte	0x7d
 802 0037 04       		.sleb128 4
 803 0038 04000000 		.4byte	.LCFI2
 804 003c 26000000 		.4byte	.LFE63
 805 0040 0200     		.2byte	0x2
 806 0042 7D       		.byte	0x7d
 807 0043 10       		.sleb128 16
 808 0044 00000000 		.4byte	0x0
 809 0048 00000000 		.4byte	0x0
 810              	.LLST2:
 811 004c 00000000 		.4byte	.LFB64
 812 0050 02000000 		.4byte	.LCFI3
 813 0054 0200     		.2byte	0x2
 814 0056 7D       		.byte	0x7d
 815 0057 00       		.sleb128 0
 816 0058 02000000 		.4byte	.LCFI3
 817 005c 04000000 		.4byte	.LCFI4
 818 0060 0200     		.2byte	0x2
 819 0062 7D       		.byte	0x7d
 820 0063 04       		.sleb128 4
 821 0064 04000000 		.4byte	.LCFI4
 822 0068 74000000 		.4byte	.LFE64
 823 006c 0200     		.2byte	0x2
 824 006e 7D       		.byte	0x7d
 825 006f 10       		.sleb128 16
 826 0070 00000000 		.4byte	0x0
 827 0074 00000000 		.4byte	0x0
 828              	.LLST3:
 829 0078 00000000 		.4byte	.LFB65
 830 007c 02000000 		.4byte	.LCFI5
 831 0080 0200     		.2byte	0x2
 832 0082 7D       		.byte	0x7d
 833 0083 00       		.sleb128 0
 834 0084 02000000 		.4byte	.LCFI5
 835 0088 04000000 		.4byte	.LCFI6
 836 008c 0200     		.2byte	0x2
 837 008e 7D       		.byte	0x7d
 838 008f 04       		.sleb128 4
 839 0090 04000000 		.4byte	.LCFI6
 840 0094 66000000 		.4byte	.LFE65
 841 0098 0200     		.2byte	0x2
 842 009a 7D       		.byte	0x7d
 843 009b 10       		.sleb128 16
 844 009c 00000000 		.4byte	0x0
 845 00a0 00000000 		.4byte	0x0
 846              	.LLST4:
 847 00a4 00000000 		.4byte	.LFB66
 848 00a8 02000000 		.4byte	.LCFI7
 849 00ac 0200     		.2byte	0x2
 850 00ae 7D       		.byte	0x7d
 851 00af 00       		.sleb128 0
 852 00b0 02000000 		.4byte	.LCFI7
ARM GAS  C:\Users\z80\AppData\Local\Temp\ccQbr6qb.s 			page 17


 853 00b4 04000000 		.4byte	.LCFI8
 854 00b8 0200     		.2byte	0x2
 855 00ba 7D       		.byte	0x7d
 856 00bb 04       		.sleb128 4
 857 00bc 04000000 		.4byte	.LCFI8
 858 00c0 22000000 		.4byte	.LFE66
 859 00c4 0200     		.2byte	0x2
 860 00c6 7D       		.byte	0x7d
 861 00c7 10       		.sleb128 16
 862 00c8 00000000 		.4byte	0x0
 863 00cc 00000000 		.4byte	0x0
 864              	.LLST5:
 865 00d0 00000000 		.4byte	.LFB67
 866 00d4 02000000 		.4byte	.LCFI9
 867 00d8 0200     		.2byte	0x2
 868 00da 7D       		.byte	0x7d
 869 00db 00       		.sleb128 0
 870 00dc 02000000 		.4byte	.LCFI9
 871 00e0 04000000 		.4byte	.LCFI10
 872 00e4 0200     		.2byte	0x2
 873 00e6 7D       		.byte	0x7d
 874 00e7 04       		.sleb128 4
 875 00e8 04000000 		.4byte	.LCFI10
 876 00ec CC000000 		.4byte	.LFE67
 877 00f0 0200     		.2byte	0x2
 878 00f2 7D       		.byte	0x7d
 879 00f3 30       		.sleb128 48
 880 00f4 00000000 		.4byte	0x0
 881 00f8 00000000 		.4byte	0x0
 882              	.LLST6:
 883 00fc 00000000 		.4byte	.LFB68
 884 0100 02000000 		.4byte	.LCFI11
 885 0104 0200     		.2byte	0x2
 886 0106 7D       		.byte	0x7d
 887 0107 00       		.sleb128 0
 888 0108 02000000 		.4byte	.LCFI11
 889 010c 04000000 		.4byte	.LCFI12
 890 0110 0200     		.2byte	0x2
 891 0112 7D       		.byte	0x7d
 892 0113 04       		.sleb128 4
 893 0114 04000000 		.4byte	.LCFI12
 894 0118 B2000000 		.4byte	.LFE68
 895 011c 0200     		.2byte	0x2
 896 011e 7D       		.byte	0x7d
 897 011f 28       		.sleb128 40
 898 0120 00000000 		.4byte	0x0
 899 0124 00000000 		.4byte	0x0
 900              	.LLST7:
 901 0128 00000000 		.4byte	.LFB69
 902 012c 02000000 		.4byte	.LCFI13
 903 0130 0200     		.2byte	0x2
 904 0132 7D       		.byte	0x7d
 905 0133 00       		.sleb128 0
 906 0134 02000000 		.4byte	.LCFI13
 907 0138 04000000 		.4byte	.LCFI14
 908 013c 0200     		.2byte	0x2
 909 013e 7D       		.byte	0x7d
ARM GAS  C:\Users\z80\AppData\Local\Temp\ccQbr6qb.s 			page 18


 910 013f 04       		.sleb128 4
 911 0140 04000000 		.4byte	.LCFI14
 912 0144 28000000 		.4byte	.LFE69
 913 0148 0200     		.2byte	0x2
 914 014a 7D       		.byte	0x7d
 915 014b 10       		.sleb128 16
 916 014c 00000000 		.4byte	0x0
 917 0150 00000000 		.4byte	0x0
 918              	.LLST8:
 919 0154 00000000 		.4byte	.LFB70
 920 0158 02000000 		.4byte	.LCFI15
 921 015c 0200     		.2byte	0x2
 922 015e 7D       		.byte	0x7d
 923 015f 00       		.sleb128 0
 924 0160 02000000 		.4byte	.LCFI15
 925 0164 04000000 		.4byte	.LCFI16
 926 0168 0200     		.2byte	0x2
 927 016a 7D       		.byte	0x7d
 928 016b 04       		.sleb128 4
 929 016c 04000000 		.4byte	.LCFI16
 930 0170 20000000 		.4byte	.LFE70
 931 0174 0200     		.2byte	0x2
 932 0176 7D       		.byte	0x7d
 933 0177 10       		.sleb128 16
 934 0178 00000000 		.4byte	0x0
 935 017c 00000000 		.4byte	0x0
 936              	.LLST9:
 937 0180 00000000 		.4byte	.LFB71
 938 0184 02000000 		.4byte	.LCFI17
 939 0188 0200     		.2byte	0x2
 940 018a 7D       		.byte	0x7d
 941 018b 00       		.sleb128 0
 942 018c 02000000 		.4byte	.LCFI17
 943 0190 04000000 		.4byte	.LCFI18
 944 0194 0200     		.2byte	0x2
 945 0196 7D       		.byte	0x7d
 946 0197 04       		.sleb128 4
 947 0198 04000000 		.4byte	.LCFI18
 948 019c 82000000 		.4byte	.LFE71
 949 01a0 0200     		.2byte	0x2
 950 01a2 7D       		.byte	0x7d
 951 01a3 38       		.sleb128 56
 952 01a4 00000000 		.4byte	0x0
 953 01a8 00000000 		.4byte	0x0
 954              		.file 2 "c:\\programs\\yagarto\\bin\\../lib/gcc/arm-none-eabi/4.5.0/include/stddef.h"
 955              		.file 3 "c:/programs/yagarto/lib/gcc/../../arm-none-eabi/sys-include/stdint.h"
 956              		.file 4 "../chibios_2.4.x/os/ports/GCC/ARMCMx/chtypes.h"
 957              		.file 5 "../chibios_2.4.x/os/kernel/include/chlists.h"
 958              		.file 6 "../chibios_2.4.x/os/kernel/include/chthreads.h"
 959              		.file 7 "../chibios_2.4.x/os/ports/GCC/ARMCMx/chcore_v7m.h"
 960              		.file 8 "../chibios_2.4.x/os/kernel/include/chmtx.h"
 961              		.file 9 "../chibios_2.4.x/os/hal/platforms/STM32F1xx/stm32f10x.h"
 962              		.file 10 "../chibios_2.4.x/os/hal/platforms/STM32F1xx/stm32_dma.h"
 963              		.file 11 "../chibios_2.4.x/os/hal/include/i2c.h"
 964              		.file 12 "../chibios_2.4.x/os/hal/platforms/STM32/i2c_lld.h"
 965              		.file 13 "../chibios_2.4.x/os/ports/common/ARMCMx/CMSIS/include/core_cm3.h"
 966              		.section	.debug_info
ARM GAS  C:\Users\z80\AppData\Local\Temp\ccQbr6qb.s 			page 19


 967 0000 050C0000 		.4byte	0xc05
 968 0004 0200     		.2byte	0x2
 969 0006 00000000 		.4byte	.Ldebug_abbrev0
 970 000a 04       		.byte	0x4
 971 000b 01       		.uleb128 0x1
 972 000c FE040000 		.4byte	.LASF130
 973 0010 01       		.byte	0x1
 974 0011 0B010000 		.4byte	.LASF131
 975 0015 BA020000 		.4byte	.LASF132
 976 0019 00000000 		.4byte	0x0
 977 001d 00000000 		.4byte	0x0
 978 0021 00000000 		.4byte	.Ldebug_ranges0+0x0
 979 0025 00000000 		.4byte	.Ldebug_line0
 980 0029 02       		.uleb128 0x2
 981 002a 04       		.byte	0x4
 982 002b 05       		.byte	0x5
 983 002c 696E7400 		.ascii	"int\000"
 984 0030 03       		.uleb128 0x3
 985 0031 2F000000 		.4byte	.LASF2
 986 0035 02       		.byte	0x2
 987 0036 D3       		.byte	0xd3
 988 0037 3B000000 		.4byte	0x3b
 989 003b 04       		.uleb128 0x4
 990 003c 04       		.byte	0x4
 991 003d 07       		.byte	0x7
 992 003e B4010000 		.4byte	.LASF0
 993 0042 04       		.uleb128 0x4
 994 0043 01       		.byte	0x1
 995 0044 06       		.byte	0x6
 996 0045 E0000000 		.4byte	.LASF1
 997 0049 03       		.uleb128 0x3
 998 004a CC040000 		.4byte	.LASF3
 999 004e 03       		.byte	0x3
 1000 004f 2A       		.byte	0x2a
 1001 0050 54000000 		.4byte	0x54
 1002 0054 04       		.uleb128 0x4
 1003 0055 01       		.byte	0x1
 1004 0056 08       		.byte	0x8
 1005 0057 8B030000 		.4byte	.LASF4
 1006 005b 04       		.uleb128 0x4
 1007 005c 02       		.byte	0x2
 1008 005d 05       		.byte	0x5
 1009 005e 5A020000 		.4byte	.LASF5
 1010 0062 03       		.uleb128 0x3
 1011 0063 39020000 		.4byte	.LASF6
 1012 0067 03       		.byte	0x3
 1013 0068 36       		.byte	0x36
 1014 0069 6D000000 		.4byte	0x6d
 1015 006d 04       		.uleb128 0x4
 1016 006e 02       		.byte	0x2
 1017 006f 07       		.byte	0x7
 1018 0070 0E020000 		.4byte	.LASF7
 1019 0074 03       		.uleb128 0x3
 1020 0075 83030000 		.4byte	.LASF8
 1021 0079 03       		.byte	0x3
 1022 007a 4F       		.byte	0x4f
 1023 007b 7F000000 		.4byte	0x7f
ARM GAS  C:\Users\z80\AppData\Local\Temp\ccQbr6qb.s 			page 20


 1024 007f 04       		.uleb128 0x4
 1025 0080 04       		.byte	0x4
 1026 0081 05       		.byte	0x5
 1027 0082 3D010000 		.4byte	.LASF9
 1028 0086 03       		.uleb128 0x3
 1029 0087 2B040000 		.4byte	.LASF10
 1030 008b 03       		.byte	0x3
 1031 008c 50       		.byte	0x50
 1032 008d 91000000 		.4byte	0x91
 1033 0091 04       		.uleb128 0x4
 1034 0092 04       		.byte	0x4
 1035 0093 07       		.byte	0x7
 1036 0094 54040000 		.4byte	.LASF11
 1037 0098 04       		.uleb128 0x4
 1038 0099 08       		.byte	0x8
 1039 009a 05       		.byte	0x5
 1040 009b D2000000 		.4byte	.LASF12
 1041 009f 03       		.uleb128 0x3
 1042 00a0 3D000000 		.4byte	.LASF13
 1043 00a4 03       		.byte	0x3
 1044 00a5 78       		.byte	0x78
 1045 00a6 AA000000 		.4byte	0xaa
 1046 00aa 04       		.uleb128 0x4
 1047 00ab 08       		.byte	0x8
 1048 00ac 07       		.byte	0x7
 1049 00ad 57000000 		.4byte	.LASF14
 1050 00b1 03       		.uleb128 0x3
 1051 00b2 31020000 		.4byte	.LASF15
 1052 00b6 04       		.byte	0x4
 1053 00b7 2F       		.byte	0x2f
 1054 00b8 49000000 		.4byte	0x49
 1055 00bc 03       		.uleb128 0x3
 1056 00bd 46010000 		.4byte	.LASF16
 1057 00c1 04       		.byte	0x4
 1058 00c2 30       		.byte	0x30
 1059 00c3 49000000 		.4byte	0x49
 1060 00c7 03       		.uleb128 0x3
 1061 00c8 5C030000 		.4byte	.LASF17
 1062 00cc 04       		.byte	0x4
 1063 00cd 32       		.byte	0x32
 1064 00ce 86000000 		.4byte	0x86
 1065 00d2 03       		.uleb128 0x3
 1066 00d3 2B020000 		.4byte	.LASF18
 1067 00d7 04       		.byte	0x4
 1068 00d8 33       		.byte	0x33
 1069 00d9 74000000 		.4byte	0x74
 1070 00dd 03       		.uleb128 0x3
 1071 00de 4E020000 		.4byte	.LASF19
 1072 00e2 04       		.byte	0x4
 1073 00e3 35       		.byte	0x35
 1074 00e4 86000000 		.4byte	0x86
 1075 00e8 03       		.uleb128 0x3
 1076 00e9 85040000 		.4byte	.LASF20
 1077 00ed 04       		.byte	0x4
 1078 00ee 36       		.byte	0x36
 1079 00ef 86000000 		.4byte	0x86
 1080 00f3 03       		.uleb128 0x3
ARM GAS  C:\Users\z80\AppData\Local\Temp\ccQbr6qb.s 			page 21


 1081 00f4 A2010000 		.4byte	.LASF21
 1082 00f8 05       		.byte	0x5
 1083 00f9 2A       		.byte	0x2a
 1084 00fa FE000000 		.4byte	0xfe
 1085 00fe 05       		.uleb128 0x5
 1086 00ff A2010000 		.4byte	.LASF21
 1087 0103 48       		.byte	0x48
 1088 0104 06       		.byte	0x6
 1089 0105 5E       		.byte	0x5e
 1090 0106 07020000 		.4byte	0x207
 1091 010a 06       		.uleb128 0x6
 1092 010b DD030000 		.4byte	.LASF22
 1093 010f 06       		.byte	0x6
 1094 0110 5F       		.byte	0x5f
 1095 0111 2C020000 		.4byte	0x22c
 1096 0115 02       		.byte	0x2
 1097 0116 23       		.byte	0x23
 1098 0117 00       		.uleb128 0x0
 1099 0118 06       		.uleb128 0x6
 1100 0119 37030000 		.4byte	.LASF23
 1101 011d 06       		.byte	0x6
 1102 011e 61       		.byte	0x61
 1103 011f 2C020000 		.4byte	0x22c
 1104 0123 02       		.byte	0x2
 1105 0124 23       		.byte	0x23
 1106 0125 04       		.uleb128 0x4
 1107 0126 06       		.uleb128 0x6
 1108 0127 AC000000 		.4byte	.LASF24
 1109 012b 06       		.byte	0x6
 1110 012c 63       		.byte	0x63
 1111 012d C7000000 		.4byte	0xc7
 1112 0131 02       		.byte	0x2
 1113 0132 23       		.byte	0x23
 1114 0133 08       		.uleb128 0x8
 1115 0134 06       		.uleb128 0x6
 1116 0135 5A050000 		.4byte	.LASF25
 1117 0139 06       		.byte	0x6
 1118 013a 64       		.byte	0x64
 1119 013b 04030000 		.4byte	0x304
 1120 013f 02       		.byte	0x2
 1121 0140 23       		.byte	0x23
 1122 0141 0C       		.uleb128 0xc
 1123 0142 06       		.uleb128 0x6
 1124 0143 67010000 		.4byte	.LASF26
 1125 0147 06       		.byte	0x6
 1126 0148 66       		.byte	0x66
 1127 0149 2C020000 		.4byte	0x22c
 1128 014d 02       		.byte	0x2
 1129 014e 23       		.byte	0x23
 1130 014f 10       		.uleb128 0x10
 1131 0150 06       		.uleb128 0x6
 1132 0151 95020000 		.4byte	.LASF27
 1133 0155 06       		.byte	0x6
 1134 0156 67       		.byte	0x67
 1135 0157 2C020000 		.4byte	0x22c
 1136 015b 02       		.byte	0x2
 1137 015c 23       		.byte	0x23
ARM GAS  C:\Users\z80\AppData\Local\Temp\ccQbr6qb.s 			page 22


 1138 015d 14       		.uleb128 0x14
 1139 015e 06       		.uleb128 0x6
 1140 015f 11050000 		.4byte	.LASF28
 1141 0163 06       		.byte	0x6
 1142 0164 6E       		.byte	0x6e
 1143 0165 B1030000 		.4byte	0x3b1
 1144 0169 02       		.byte	0x2
 1145 016a 23       		.byte	0x23
 1146 016b 18       		.uleb128 0x18
 1147 016c 06       		.uleb128 0x6
 1148 016d A9010000 		.4byte	.LASF29
 1149 0171 06       		.byte	0x6
 1150 0172 74       		.byte	0x74
 1151 0173 C3030000 		.4byte	0x3c3
 1152 0177 02       		.byte	0x2
 1153 0178 23       		.byte	0x23
 1154 0179 1C       		.uleb128 0x1c
 1155 017a 06       		.uleb128 0x6
 1156 017b C1030000 		.4byte	.LASF30
 1157 017f 06       		.byte	0x6
 1158 0180 79       		.byte	0x79
 1159 0181 BC000000 		.4byte	0xbc
 1160 0185 02       		.byte	0x2
 1161 0186 23       		.byte	0x23
 1162 0187 20       		.uleb128 0x20
 1163 0188 06       		.uleb128 0x6
 1164 0189 E4030000 		.4byte	.LASF31
 1165 018d 06       		.byte	0x6
 1166 018e 7D       		.byte	0x7d
 1167 018f B1000000 		.4byte	0xb1
 1168 0193 02       		.byte	0x2
 1169 0194 23       		.byte	0x23
 1170 0195 21       		.uleb128 0x21
 1171 0196 06       		.uleb128 0x6
 1172 0197 60010000 		.4byte	.LASF32
 1173 019b 06       		.byte	0x6
 1174 019c 89       		.byte	0x89
 1175 019d 2F030000 		.4byte	0x32f
 1176 01a1 02       		.byte	0x2
 1177 01a2 23       		.byte	0x23
 1178 01a3 24       		.uleb128 0x24
 1179 01a4 07       		.uleb128 0x7
 1180 01a5 705F7500 		.ascii	"p_u\000"
 1181 01a9 06       		.byte	0x6
 1182 01aa AE       		.byte	0xae
 1183 01ab 7C030000 		.4byte	0x37c
 1184 01af 02       		.byte	0x2
 1185 01b0 23       		.byte	0x23
 1186 01b1 28       		.uleb128 0x28
 1187 01b2 06       		.uleb128 0x6
 1188 01b3 60050000 		.4byte	.LASF33
 1189 01b7 06       		.byte	0x6
 1190 01b8 B3       		.byte	0xb3
 1191 01b9 54020000 		.4byte	0x254
 1192 01bd 02       		.byte	0x2
 1193 01be 23       		.byte	0x23
 1194 01bf 2C       		.uleb128 0x2c
ARM GAS  C:\Users\z80\AppData\Local\Temp\ccQbr6qb.s 			page 23


 1195 01c0 06       		.uleb128 0x6
 1196 01c1 CC010000 		.4byte	.LASF34
 1197 01c5 06       		.byte	0x6
 1198 01c6 B9       		.byte	0xb9
 1199 01c7 32020000 		.4byte	0x232
 1200 01cb 02       		.byte	0x2
 1201 01cc 23       		.byte	0x23
 1202 01cd 30       		.uleb128 0x30
 1203 01ce 06       		.uleb128 0x6
 1204 01cf 20050000 		.4byte	.LASF35
 1205 01d3 06       		.byte	0x6
 1206 01d4 BD       		.byte	0xbd
 1207 01d5 D2000000 		.4byte	0xd2
 1208 01d9 02       		.byte	0x2
 1209 01da 23       		.byte	0x23
 1210 01db 38       		.uleb128 0x38
 1211 01dc 06       		.uleb128 0x6
 1212 01dd 11040000 		.4byte	.LASF36
 1213 01e1 06       		.byte	0x6
 1214 01e2 C3       		.byte	0xc3
 1215 01e3 DD000000 		.4byte	0xdd
 1216 01e7 02       		.byte	0x2
 1217 01e8 23       		.byte	0x23
 1218 01e9 3C       		.uleb128 0x3c
 1219 01ea 06       		.uleb128 0x6
 1220 01eb AC030000 		.4byte	.LASF37
 1221 01ef 06       		.byte	0x6
 1222 01f0 CA       		.byte	0xca
 1223 01f1 C9030000 		.4byte	0x3c9
 1224 01f5 02       		.byte	0x2
 1225 01f6 23       		.byte	0x23
 1226 01f7 40       		.uleb128 0x40
 1227 01f8 06       		.uleb128 0x6
 1228 01f9 8F040000 		.4byte	.LASF38
 1229 01fd 06       		.byte	0x6
 1230 01fe CE       		.byte	0xce
 1231 01ff C7000000 		.4byte	0xc7
 1232 0203 02       		.byte	0x2
 1233 0204 23       		.byte	0x23
 1234 0205 44       		.uleb128 0x44
 1235 0206 00       		.byte	0x0
 1236 0207 08       		.uleb128 0x8
 1237 0208 08       		.byte	0x8
 1238 0209 05       		.byte	0x5
 1239 020a 61       		.byte	0x61
 1240 020b 2C020000 		.4byte	0x22c
 1241 020f 06       		.uleb128 0x6
 1242 0210 DD030000 		.4byte	.LASF22
 1243 0214 05       		.byte	0x5
 1244 0215 62       		.byte	0x62
 1245 0216 2C020000 		.4byte	0x22c
 1246 021a 02       		.byte	0x2
 1247 021b 23       		.byte	0x23
 1248 021c 00       		.uleb128 0x0
 1249 021d 06       		.uleb128 0x6
 1250 021e 37030000 		.4byte	.LASF23
 1251 0222 05       		.byte	0x5
ARM GAS  C:\Users\z80\AppData\Local\Temp\ccQbr6qb.s 			page 24


 1252 0223 64       		.byte	0x64
 1253 0224 2C020000 		.4byte	0x22c
 1254 0228 02       		.byte	0x2
 1255 0229 23       		.byte	0x23
 1256 022a 04       		.uleb128 0x4
 1257 022b 00       		.byte	0x0
 1258 022c 09       		.uleb128 0x9
 1259 022d 04       		.byte	0x4
 1260 022e F3000000 		.4byte	0xf3
 1261 0232 03       		.uleb128 0x3
 1262 0233 AD020000 		.4byte	.LASF39
 1263 0237 05       		.byte	0x5
 1264 0238 66       		.byte	0x66
 1265 0239 07020000 		.4byte	0x207
 1266 023d 08       		.uleb128 0x8
 1267 023e 04       		.byte	0x4
 1268 023f 05       		.byte	0x5
 1269 0240 6B       		.byte	0x6b
 1270 0241 54020000 		.4byte	0x254
 1271 0245 06       		.uleb128 0x6
 1272 0246 DD030000 		.4byte	.LASF22
 1273 024a 05       		.byte	0x5
 1274 024b 6D       		.byte	0x6d
 1275 024c 2C020000 		.4byte	0x22c
 1276 0250 02       		.byte	0x2
 1277 0251 23       		.byte	0x23
 1278 0252 00       		.uleb128 0x0
 1279 0253 00       		.byte	0x0
 1280 0254 03       		.uleb128 0x3
 1281 0255 42020000 		.4byte	.LASF40
 1282 0259 05       		.byte	0x5
 1283 025a 70       		.byte	0x70
 1284 025b 3D020000 		.4byte	0x23d
 1285 025f 03       		.uleb128 0x3
 1286 0260 87010000 		.4byte	.LASF41
 1287 0264 07       		.byte	0x7
 1288 0265 D7       		.byte	0xd7
 1289 0266 6A020000 		.4byte	0x26a
 1290 026a 0A       		.uleb128 0xa
 1291 026b 04       		.byte	0x4
 1292 026c 03       		.uleb128 0x3
 1293 026d 64020000 		.4byte	.LASF42
 1294 0271 07       		.byte	0x7
 1295 0272 DD       		.byte	0xdd
 1296 0273 9F000000 		.4byte	0x9f
 1297 0277 05       		.uleb128 0x5
 1298 0278 AC040000 		.4byte	.LASF43
 1299 027c 24       		.byte	0x24
 1300 027d 07       		.byte	0x7
 1301 027e FE       		.byte	0xfe
 1302 027f 04030000 		.4byte	0x304
 1303 0283 0B       		.uleb128 0xb
 1304 0284 723400   		.ascii	"r4\000"
 1305 0287 07       		.byte	0x7
 1306 0288 1101     		.2byte	0x111
 1307 028a 5F020000 		.4byte	0x25f
 1308 028e 02       		.byte	0x2
ARM GAS  C:\Users\z80\AppData\Local\Temp\ccQbr6qb.s 			page 25


 1309 028f 23       		.byte	0x23
 1310 0290 00       		.uleb128 0x0
 1311 0291 0B       		.uleb128 0xb
 1312 0292 723500   		.ascii	"r5\000"
 1313 0295 07       		.byte	0x7
 1314 0296 1201     		.2byte	0x112
 1315 0298 5F020000 		.4byte	0x25f
 1316 029c 02       		.byte	0x2
 1317 029d 23       		.byte	0x23
 1318 029e 04       		.uleb128 0x4
 1319 029f 0B       		.uleb128 0xb
 1320 02a0 723600   		.ascii	"r6\000"
 1321 02a3 07       		.byte	0x7
 1322 02a4 1301     		.2byte	0x113
 1323 02a6 5F020000 		.4byte	0x25f
 1324 02aa 02       		.byte	0x2
 1325 02ab 23       		.byte	0x23
 1326 02ac 08       		.uleb128 0x8
 1327 02ad 0B       		.uleb128 0xb
 1328 02ae 723700   		.ascii	"r7\000"
 1329 02b1 07       		.byte	0x7
 1330 02b2 1401     		.2byte	0x114
 1331 02b4 5F020000 		.4byte	0x25f
 1332 02b8 02       		.byte	0x2
 1333 02b9 23       		.byte	0x23
 1334 02ba 0C       		.uleb128 0xc
 1335 02bb 0B       		.uleb128 0xb
 1336 02bc 723800   		.ascii	"r8\000"
 1337 02bf 07       		.byte	0x7
 1338 02c0 1501     		.2byte	0x115
 1339 02c2 5F020000 		.4byte	0x25f
 1340 02c6 02       		.byte	0x2
 1341 02c7 23       		.byte	0x23
 1342 02c8 10       		.uleb128 0x10
 1343 02c9 0B       		.uleb128 0xb
 1344 02ca 723900   		.ascii	"r9\000"
 1345 02cd 07       		.byte	0x7
 1346 02ce 1601     		.2byte	0x116
 1347 02d0 5F020000 		.4byte	0x25f
 1348 02d4 02       		.byte	0x2
 1349 02d5 23       		.byte	0x23
 1350 02d6 14       		.uleb128 0x14
 1351 02d7 0B       		.uleb128 0xb
 1352 02d8 72313000 		.ascii	"r10\000"
 1353 02dc 07       		.byte	0x7
 1354 02dd 1701     		.2byte	0x117
 1355 02df 5F020000 		.4byte	0x25f
 1356 02e3 02       		.byte	0x2
 1357 02e4 23       		.byte	0x23
 1358 02e5 18       		.uleb128 0x18
 1359 02e6 0B       		.uleb128 0xb
 1360 02e7 72313100 		.ascii	"r11\000"
 1361 02eb 07       		.byte	0x7
 1362 02ec 1801     		.2byte	0x118
 1363 02ee 5F020000 		.4byte	0x25f
 1364 02f2 02       		.byte	0x2
 1365 02f3 23       		.byte	0x23
ARM GAS  C:\Users\z80\AppData\Local\Temp\ccQbr6qb.s 			page 26


 1366 02f4 1C       		.uleb128 0x1c
 1367 02f5 0B       		.uleb128 0xb
 1368 02f6 6C7200   		.ascii	"lr\000"
 1369 02f9 07       		.byte	0x7
 1370 02fa 1901     		.2byte	0x119
 1371 02fc 5F020000 		.4byte	0x25f
 1372 0300 02       		.byte	0x2
 1373 0301 23       		.byte	0x23
 1374 0302 20       		.uleb128 0x20
 1375 0303 00       		.byte	0x0
 1376 0304 0C       		.uleb128 0xc
 1377 0305 A4040000 		.4byte	.LASF44
 1378 0309 04       		.byte	0x4
 1379 030a 07       		.byte	0x7
 1380 030b 2301     		.2byte	0x123
 1381 030d 21030000 		.4byte	0x321
 1382 0311 0B       		.uleb128 0xb
 1383 0312 72313300 		.ascii	"r13\000"
 1384 0316 07       		.byte	0x7
 1385 0317 2401     		.2byte	0x124
 1386 0319 21030000 		.4byte	0x321
 1387 031d 02       		.byte	0x2
 1388 031e 23       		.byte	0x23
 1389 031f 00       		.uleb128 0x0
 1390 0320 00       		.byte	0x0
 1391 0321 09       		.uleb128 0x9
 1392 0322 04       		.byte	0x4
 1393 0323 77020000 		.4byte	0x277
 1394 0327 0D       		.uleb128 0xd
 1395 0328 86000000 		.4byte	0x86
 1396 032c 0E       		.uleb128 0xe
 1397 032d 04       		.byte	0x4
 1398 032e 07       		.byte	0x7
 1399 032f 0D       		.uleb128 0xd
 1400 0330 E8000000 		.4byte	0xe8
 1401 0334 05       		.uleb128 0x5
 1402 0335 78020000 		.4byte	.LASF45
 1403 0339 10       		.byte	0x10
 1404 033a 08       		.byte	0x8
 1405 033b 2C       		.byte	0x2c
 1406 033c 6B030000 		.4byte	0x36b
 1407 0340 06       		.uleb128 0x6
 1408 0341 03010000 		.4byte	.LASF46
 1409 0345 08       		.byte	0x8
 1410 0346 2D       		.byte	0x2d
 1411 0347 32020000 		.4byte	0x232
 1412 034b 02       		.byte	0x2
 1413 034c 23       		.byte	0x23
 1414 034d 00       		.uleb128 0x0
 1415 034e 06       		.uleb128 0x6
 1416 034f 52050000 		.4byte	.LASF47
 1417 0353 08       		.byte	0x8
 1418 0354 2F       		.byte	0x2f
 1419 0355 2C020000 		.4byte	0x22c
 1420 0359 02       		.byte	0x2
 1421 035a 23       		.byte	0x23
 1422 035b 08       		.uleb128 0x8
ARM GAS  C:\Users\z80\AppData\Local\Temp\ccQbr6qb.s 			page 27


 1423 035c 06       		.uleb128 0x6
 1424 035d 7E040000 		.4byte	.LASF48
 1425 0361 08       		.byte	0x8
 1426 0362 31       		.byte	0x31
 1427 0363 6B030000 		.4byte	0x36b
 1428 0367 02       		.byte	0x2
 1429 0368 23       		.byte	0x23
 1430 0369 0C       		.uleb128 0xc
 1431 036a 00       		.byte	0x0
 1432 036b 09       		.uleb128 0x9
 1433 036c 04       		.byte	0x4
 1434 036d 34030000 		.4byte	0x334
 1435 0371 03       		.uleb128 0x3
 1436 0372 78020000 		.4byte	.LASF45
 1437 0376 08       		.byte	0x8
 1438 0377 33       		.byte	0x33
 1439 0378 34030000 		.4byte	0x334
 1440 037c 0F       		.uleb128 0xf
 1441 037d 04       		.byte	0x4
 1442 037e 06       		.byte	0x6
 1443 037f 90       		.byte	0x90
 1444 0380 B1030000 		.4byte	0x3b1
 1445 0384 10       		.uleb128 0x10
 1446 0385 36000000 		.4byte	.LASF49
 1447 0389 06       		.byte	0x6
 1448 038a 97       		.byte	0x97
 1449 038b D2000000 		.4byte	0xd2
 1450 038f 10       		.uleb128 0x10
 1451 0390 7C000000 		.4byte	.LASF50
 1452 0394 06       		.byte	0x6
 1453 0395 9E       		.byte	0x9e
 1454 0396 D2000000 		.4byte	0xd2
 1455 039a 10       		.uleb128 0x10
 1456 039b 0A050000 		.4byte	.LASF51
 1457 039f 06       		.byte	0x6
 1458 03a0 A5       		.byte	0xa5
 1459 03a1 6A020000 		.4byte	0x26a
 1460 03a5 10       		.uleb128 0x10
 1461 03a6 D6030000 		.4byte	.LASF52
 1462 03aa 06       		.byte	0x6
 1463 03ab AC       		.byte	0xac
 1464 03ac DD000000 		.4byte	0xdd
 1465 03b0 00       		.byte	0x0
 1466 03b1 09       		.uleb128 0x9
 1467 03b2 04       		.byte	0x4
 1468 03b3 B7030000 		.4byte	0x3b7
 1469 03b7 11       		.uleb128 0x11
 1470 03b8 BC030000 		.4byte	0x3bc
 1471 03bc 04       		.uleb128 0x4
 1472 03bd 01       		.byte	0x1
 1473 03be 08       		.byte	0x8
 1474 03bf 66040000 		.4byte	.LASF53
 1475 03c3 09       		.uleb128 0x9
 1476 03c4 04       		.byte	0x4
 1477 03c5 6C020000 		.4byte	0x26c
 1478 03c9 09       		.uleb128 0x9
 1479 03ca 04       		.byte	0x4
ARM GAS  C:\Users\z80\AppData\Local\Temp\ccQbr6qb.s 			page 28


 1480 03cb 71030000 		.4byte	0x371
 1481 03cf 09       		.uleb128 0x9
 1482 03d0 04       		.byte	0x4
 1483 03d1 49000000 		.4byte	0x49
 1484 03d5 09       		.uleb128 0x9
 1485 03d6 04       		.byte	0x4
 1486 03d7 DB030000 		.4byte	0x3db
 1487 03db 11       		.uleb128 0x11
 1488 03dc 49000000 		.4byte	0x49
 1489 03e0 0D       		.uleb128 0xd
 1490 03e1 62000000 		.4byte	0x62
 1491 03e5 0D       		.uleb128 0xd
 1492 03e6 74000000 		.4byte	0x74
 1493 03ea 12       		.uleb128 0x12
 1494 03eb 10       		.byte	0x10
 1495 03ec 09       		.byte	0x9
 1496 03ed 2D03     		.2byte	0x32d
 1497 03ef 30040000 		.4byte	0x430
 1498 03f3 0B       		.uleb128 0xb
 1499 03f4 43435200 		.ascii	"CCR\000"
 1500 03f8 09       		.byte	0x9
 1501 03f9 2F03     		.2byte	0x32f
 1502 03fb 27030000 		.4byte	0x327
 1503 03ff 02       		.byte	0x2
 1504 0400 23       		.byte	0x23
 1505 0401 00       		.uleb128 0x0
 1506 0402 13       		.uleb128 0x13
 1507 0403 C1040000 		.4byte	.LASF54
 1508 0407 09       		.byte	0x9
 1509 0408 3003     		.2byte	0x330
 1510 040a 27030000 		.4byte	0x327
 1511 040e 02       		.byte	0x2
 1512 040f 23       		.byte	0x23
 1513 0410 04       		.uleb128 0x4
 1514 0411 13       		.uleb128 0x13
 1515 0412 C7010000 		.4byte	.LASF55
 1516 0416 09       		.byte	0x9
 1517 0417 3103     		.2byte	0x331
 1518 0419 27030000 		.4byte	0x327
 1519 041d 02       		.byte	0x2
 1520 041e 23       		.byte	0x23
 1521 041f 08       		.uleb128 0x8
 1522 0420 13       		.uleb128 0x13
 1523 0421 C7040000 		.4byte	.LASF56
 1524 0425 09       		.byte	0x9
 1525 0426 3203     		.2byte	0x332
 1526 0428 27030000 		.4byte	0x327
 1527 042c 02       		.byte	0x2
 1528 042d 23       		.byte	0x23
 1529 042e 0C       		.uleb128 0xc
 1530 042f 00       		.byte	0x0
 1531 0430 14       		.uleb128 0x14
 1532 0431 DF010000 		.4byte	.LASF57
 1533 0435 09       		.byte	0x9
 1534 0436 3303     		.2byte	0x333
 1535 0438 EA030000 		.4byte	0x3ea
 1536 043c 12       		.uleb128 0x12
ARM GAS  C:\Users\z80\AppData\Local\Temp\ccQbr6qb.s 			page 29


 1537 043d 24       		.byte	0x24
 1538 043e 09       		.byte	0x9
 1539 043f 1304     		.2byte	0x413
 1540 0441 53050000 		.4byte	0x553
 1541 0445 0B       		.uleb128 0xb
 1542 0446 43523100 		.ascii	"CR1\000"
 1543 044a 09       		.byte	0x9
 1544 044b 1504     		.2byte	0x415
 1545 044d E0030000 		.4byte	0x3e0
 1546 0451 02       		.byte	0x2
 1547 0452 23       		.byte	0x23
 1548 0453 00       		.uleb128 0x0
 1549 0454 13       		.uleb128 0x13
 1550 0455 05030000 		.4byte	.LASF58
 1551 0459 09       		.byte	0x9
 1552 045a 1604     		.2byte	0x416
 1553 045c 62000000 		.4byte	0x62
 1554 0460 02       		.byte	0x2
 1555 0461 23       		.byte	0x23
 1556 0462 02       		.uleb128 0x2
 1557 0463 0B       		.uleb128 0xb
 1558 0464 43523200 		.ascii	"CR2\000"
 1559 0468 09       		.byte	0x9
 1560 0469 1704     		.2byte	0x417
 1561 046b E0030000 		.4byte	0x3e0
 1562 046f 02       		.byte	0x2
 1563 0470 23       		.byte	0x23
 1564 0471 04       		.uleb128 0x4
 1565 0472 13       		.uleb128 0x13
 1566 0473 0F030000 		.4byte	.LASF59
 1567 0477 09       		.byte	0x9
 1568 0478 1804     		.2byte	0x418
 1569 047a 62000000 		.4byte	0x62
 1570 047e 02       		.byte	0x2
 1571 047f 23       		.byte	0x23
 1572 0480 06       		.uleb128 0x6
 1573 0481 13       		.uleb128 0x13
 1574 0482 D4040000 		.4byte	.LASF60
 1575 0486 09       		.byte	0x9
 1576 0487 1904     		.2byte	0x419
 1577 0489 E0030000 		.4byte	0x3e0
 1578 048d 02       		.byte	0x2
 1579 048e 23       		.byte	0x23
 1580 048f 08       		.uleb128 0x8
 1581 0490 13       		.uleb128 0x13
 1582 0491 19030000 		.4byte	.LASF61
 1583 0495 09       		.byte	0x9
 1584 0496 1A04     		.2byte	0x41a
 1585 0498 62000000 		.4byte	0x62
 1586 049c 02       		.byte	0x2
 1587 049d 23       		.byte	0x23
 1588 049e 0A       		.uleb128 0xa
 1589 049f 13       		.uleb128 0x13
 1590 04a0 D9040000 		.4byte	.LASF62
 1591 04a4 09       		.byte	0x9
 1592 04a5 1B04     		.2byte	0x41b
 1593 04a7 E0030000 		.4byte	0x3e0
ARM GAS  C:\Users\z80\AppData\Local\Temp\ccQbr6qb.s 			page 30


 1594 04ab 02       		.byte	0x2
 1595 04ac 23       		.byte	0x23
 1596 04ad 0C       		.uleb128 0xc
 1597 04ae 13       		.uleb128 0x13
 1598 04af 23030000 		.4byte	.LASF63
 1599 04b3 09       		.byte	0x9
 1600 04b4 1C04     		.2byte	0x41c
 1601 04b6 62000000 		.4byte	0x62
 1602 04ba 02       		.byte	0x2
 1603 04bb 23       		.byte	0x23
 1604 04bc 0E       		.uleb128 0xe
 1605 04bd 0B       		.uleb128 0xb
 1606 04be 445200   		.ascii	"DR\000"
 1607 04c1 09       		.byte	0x9
 1608 04c2 1D04     		.2byte	0x41d
 1609 04c4 E0030000 		.4byte	0x3e0
 1610 04c8 02       		.byte	0x2
 1611 04c9 23       		.byte	0x23
 1612 04ca 10       		.uleb128 0x10
 1613 04cb 13       		.uleb128 0x13
 1614 04cc 2D030000 		.4byte	.LASF64
 1615 04d0 09       		.byte	0x9
 1616 04d1 1E04     		.2byte	0x41e
 1617 04d3 62000000 		.4byte	0x62
 1618 04d7 02       		.byte	0x2
 1619 04d8 23       		.byte	0x23
 1620 04d9 12       		.uleb128 0x12
 1621 04da 0B       		.uleb128 0xb
 1622 04db 53523100 		.ascii	"SR1\000"
 1623 04df 09       		.byte	0x9
 1624 04e0 1F04     		.2byte	0x41f
 1625 04e2 E0030000 		.4byte	0x3e0
 1626 04e6 02       		.byte	0x2
 1627 04e7 23       		.byte	0x23
 1628 04e8 14       		.uleb128 0x14
 1629 04e9 13       		.uleb128 0x13
 1630 04ea 21040000 		.4byte	.LASF65
 1631 04ee 09       		.byte	0x9
 1632 04ef 2004     		.2byte	0x420
 1633 04f1 62000000 		.4byte	0x62
 1634 04f5 02       		.byte	0x2
 1635 04f6 23       		.byte	0x23
 1636 04f7 16       		.uleb128 0x16
 1637 04f8 0B       		.uleb128 0xb
 1638 04f9 53523200 		.ascii	"SR2\000"
 1639 04fd 09       		.byte	0x9
 1640 04fe 2104     		.2byte	0x421
 1641 0500 E0030000 		.4byte	0x3e0
 1642 0504 02       		.byte	0x2
 1643 0505 23       		.byte	0x23
 1644 0506 18       		.uleb128 0x18
 1645 0507 13       		.uleb128 0x13
 1646 0508 3E030000 		.4byte	.LASF66
 1647 050c 09       		.byte	0x9
 1648 050d 2204     		.2byte	0x422
 1649 050f 62000000 		.4byte	0x62
 1650 0513 02       		.byte	0x2
ARM GAS  C:\Users\z80\AppData\Local\Temp\ccQbr6qb.s 			page 31


 1651 0514 23       		.byte	0x23
 1652 0515 1A       		.uleb128 0x1a
 1653 0516 0B       		.uleb128 0xb
 1654 0517 43435200 		.ascii	"CCR\000"
 1655 051b 09       		.byte	0x9
 1656 051c 2304     		.2byte	0x423
 1657 051e E0030000 		.4byte	0x3e0
 1658 0522 02       		.byte	0x2
 1659 0523 23       		.byte	0x23
 1660 0524 1C       		.uleb128 0x1c
 1661 0525 13       		.uleb128 0x13
 1662 0526 48030000 		.4byte	.LASF67
 1663 052a 09       		.byte	0x9
 1664 052b 2404     		.2byte	0x424
 1665 052d 62000000 		.4byte	0x62
 1666 0531 02       		.byte	0x2
 1667 0532 23       		.byte	0x23
 1668 0533 1E       		.uleb128 0x1e
 1669 0534 13       		.uleb128 0x13
 1670 0535 46000000 		.4byte	.LASF68
 1671 0539 09       		.byte	0x9
 1672 053a 2504     		.2byte	0x425
 1673 053c E0030000 		.4byte	0x3e0
 1674 0540 02       		.byte	0x2
 1675 0541 23       		.byte	0x23
 1676 0542 20       		.uleb128 0x20
 1677 0543 13       		.uleb128 0x13
 1678 0544 52030000 		.4byte	.LASF69
 1679 0548 09       		.byte	0x9
 1680 0549 2604     		.2byte	0x426
 1681 054b 62000000 		.4byte	0x62
 1682 054f 02       		.byte	0x2
 1683 0550 23       		.byte	0x23
 1684 0551 22       		.uleb128 0x22
 1685 0552 00       		.byte	0x0
 1686 0553 14       		.uleb128 0x14
 1687 0554 26050000 		.4byte	.LASF70
 1688 0558 09       		.byte	0x9
 1689 0559 2704     		.2byte	0x427
 1690 055b 3C040000 		.4byte	0x43c
 1691 055f 08       		.uleb128 0x8
 1692 0560 0C       		.byte	0xc
 1693 0561 0A       		.byte	0xa
 1694 0562 C2       		.byte	0xc2
 1695 0563 AE050000 		.4byte	0x5ae
 1696 0567 06       		.uleb128 0x6
 1697 0568 FE030000 		.4byte	.LASF71
 1698 056c 0A       		.byte	0xa
 1699 056d C3       		.byte	0xc3
 1700 056e AE050000 		.4byte	0x5ae
 1701 0572 02       		.byte	0x2
 1702 0573 23       		.byte	0x23
 1703 0574 00       		.uleb128 0x0
 1704 0575 06       		.uleb128 0x6
 1705 0576 1C040000 		.4byte	.LASF72
 1706 057a 0A       		.byte	0xa
 1707 057b C4       		.byte	0xc4
ARM GAS  C:\Users\z80\AppData\Local\Temp\ccQbr6qb.s 			page 32


 1708 057c B4050000 		.4byte	0x5b4
 1709 0580 02       		.byte	0x2
 1710 0581 23       		.byte	0x23
 1711 0582 04       		.uleb128 0x4
 1712 0583 06       		.uleb128 0x6
 1713 0584 F3010000 		.4byte	.LASF73
 1714 0588 0A       		.byte	0xa
 1715 0589 C5       		.byte	0xc5
 1716 058a 49000000 		.4byte	0x49
 1717 058e 02       		.byte	0x2
 1718 058f 23       		.byte	0x23
 1719 0590 08       		.uleb128 0x8
 1720 0591 06       		.uleb128 0x6
 1721 0592 90010000 		.4byte	.LASF74
 1722 0596 0A       		.byte	0xa
 1723 0597 C7       		.byte	0xc7
 1724 0598 49000000 		.4byte	0x49
 1725 059c 02       		.byte	0x2
 1726 059d 23       		.byte	0x23
 1727 059e 09       		.uleb128 0x9
 1728 059f 06       		.uleb128 0x6
 1729 05a0 85000000 		.4byte	.LASF75
 1730 05a4 0A       		.byte	0xa
 1731 05a5 C8       		.byte	0xc8
 1732 05a6 49000000 		.4byte	0x49
 1733 05aa 02       		.byte	0x2
 1734 05ab 23       		.byte	0x23
 1735 05ac 0A       		.uleb128 0xa
 1736 05ad 00       		.byte	0x0
 1737 05ae 09       		.uleb128 0x9
 1738 05af 04       		.byte	0x4
 1739 05b0 30040000 		.4byte	0x430
 1740 05b4 09       		.uleb128 0x9
 1741 05b5 04       		.byte	0x4
 1742 05b6 27030000 		.4byte	0x327
 1743 05ba 03       		.uleb128 0x3
 1744 05bb 99030000 		.4byte	.LASF76
 1745 05bf 0A       		.byte	0xa
 1746 05c0 C9       		.byte	0xc9
 1747 05c1 5F050000 		.4byte	0x55f
 1748 05c5 09       		.uleb128 0x9
 1749 05c6 04       		.byte	0x4
 1750 05c7 CB050000 		.4byte	0x5cb
 1751 05cb 11       		.uleb128 0x11
 1752 05cc BA050000 		.4byte	0x5ba
 1753 05d0 15       		.uleb128 0x15
 1754 05d1 01       		.byte	0x1
 1755 05d2 0B       		.byte	0xb
 1756 05d3 5B       		.byte	0x5b
 1757 05d4 FD050000 		.4byte	0x5fd
 1758 05d8 16       		.uleb128 0x16
 1759 05d9 B6030000 		.4byte	.LASF77
 1760 05dd 00       		.sleb128 0
 1761 05de 16       		.uleb128 0x16
 1762 05df 6F020000 		.4byte	.LASF78
 1763 05e3 01       		.sleb128 1
 1764 05e4 16       		.uleb128 0x16
ARM GAS  C:\Users\z80\AppData\Local\Temp\ccQbr6qb.s 			page 33


 1765 05e5 9A040000 		.4byte	.LASF79
 1766 05e9 02       		.sleb128 2
 1767 05ea 16       		.uleb128 0x16
 1768 05eb 64030000 		.4byte	.LASF80
 1769 05ef 03       		.sleb128 3
 1770 05f0 16       		.uleb128 0x16
 1771 05f1 46040000 		.4byte	.LASF81
 1772 05f5 04       		.sleb128 4
 1773 05f6 16       		.uleb128 0x16
 1774 05f7 06040000 		.4byte	.LASF82
 1775 05fb 05       		.sleb128 5
 1776 05fc 00       		.byte	0x0
 1777 05fd 03       		.uleb128 0x3
 1778 05fe 24000000 		.4byte	.LASF83
 1779 0602 0B       		.byte	0xb
 1780 0603 62       		.byte	0x62
 1781 0604 D0050000 		.4byte	0x5d0
 1782 0608 14       		.uleb128 0x14
 1783 0609 2D010000 		.4byte	.LASF84
 1784 060d 0C       		.byte	0xc
 1785 060e 4001     		.2byte	0x140
 1786 0610 62000000 		.4byte	0x62
 1787 0614 14       		.uleb128 0x14
 1788 0615 72030000 		.4byte	.LASF85
 1789 0619 0C       		.byte	0xc
 1790 061a 4501     		.2byte	0x145
 1791 061c 86000000 		.4byte	0x86
 1792 0620 17       		.uleb128 0x17
 1793 0621 01       		.byte	0x1
 1794 0622 0C       		.byte	0xc
 1795 0623 4A01     		.2byte	0x14a
 1796 0625 3C060000 		.4byte	0x63c
 1797 0629 16       		.uleb128 0x16
 1798 062a E5020000 		.4byte	.LASF86
 1799 062e 01       		.sleb128 1
 1800 062f 16       		.uleb128 0x16
 1801 0630 FA010000 		.4byte	.LASF87
 1802 0634 02       		.sleb128 2
 1803 0635 16       		.uleb128 0x16
 1804 0636 75010000 		.4byte	.LASF88
 1805 063a 03       		.sleb128 3
 1806 063b 00       		.byte	0x0
 1807 063c 14       		.uleb128 0x14
 1808 063d 32050000 		.4byte	.LASF89
 1809 0641 0C       		.byte	0xc
 1810 0642 4E01     		.2byte	0x14e
 1811 0644 20060000 		.4byte	0x620
 1812 0648 17       		.uleb128 0x17
 1813 0649 01       		.byte	0x1
 1814 064a 0C       		.byte	0xc
 1815 064b 5301     		.2byte	0x153
 1816 064d 64060000 		.4byte	0x664
 1817 0651 16       		.uleb128 0x16
 1818 0652 00000000 		.4byte	.LASF90
 1819 0656 01       		.sleb128 1
 1820 0657 16       		.uleb128 0x16
 1821 0658 EC030000 		.4byte	.LASF91
ARM GAS  C:\Users\z80\AppData\Local\Temp\ccQbr6qb.s 			page 34


 1822 065c 02       		.sleb128 2
 1823 065d 16       		.uleb128 0x16
 1824 065e F0020000 		.4byte	.LASF92
 1825 0662 03       		.sleb128 3
 1826 0663 00       		.byte	0x0
 1827 0664 14       		.uleb128 0x14
 1828 0665 15000000 		.4byte	.LASF93
 1829 0669 0C       		.byte	0xc
 1830 066a 5701     		.2byte	0x157
 1831 066c 48060000 		.4byte	0x648
 1832 0670 12       		.uleb128 0x12
 1833 0671 0C       		.byte	0xc
 1834 0672 0C       		.byte	0xc
 1835 0673 5C01     		.2byte	0x15c
 1836 0675 A7060000 		.4byte	0x6a7
 1837 0679 13       		.uleb128 0x13
 1838 067a 9A010000 		.4byte	.LASF94
 1839 067e 0C       		.byte	0xc
 1840 067f 5D01     		.2byte	0x15d
 1841 0681 3C060000 		.4byte	0x63c
 1842 0685 02       		.byte	0x2
 1843 0686 23       		.byte	0x23
 1844 0687 00       		.uleb128 0x0
 1845 0688 13       		.uleb128 0x13
 1846 0689 F7000000 		.4byte	.LASF95
 1847 068d 0C       		.byte	0xc
 1848 068e 5E01     		.2byte	0x15e
 1849 0690 86000000 		.4byte	0x86
 1850 0694 02       		.byte	0x2
 1851 0695 23       		.byte	0x23
 1852 0696 04       		.uleb128 0x4
 1853 0697 13       		.uleb128 0x13
 1854 0698 85020000 		.4byte	.LASF96
 1855 069c 0C       		.byte	0xc
 1856 069d 6101     		.2byte	0x161
 1857 069f 64060000 		.4byte	0x664
 1858 06a3 02       		.byte	0x2
 1859 06a4 23       		.byte	0x23
 1860 06a5 08       		.uleb128 0x8
 1861 06a6 00       		.byte	0x0
 1862 06a7 14       		.uleb128 0x14
 1863 06a8 56010000 		.4byte	.LASF97
 1864 06ac 0C       		.byte	0xc
 1865 06ad 6301     		.2byte	0x163
 1866 06af 70060000 		.4byte	0x670
 1867 06b3 14       		.uleb128 0x14
 1868 06b4 21020000 		.4byte	.LASF98
 1869 06b8 0C       		.byte	0xc
 1870 06b9 6801     		.2byte	0x168
 1871 06bb BF060000 		.4byte	0x6bf
 1872 06bf 0C       		.uleb128 0xc
 1873 06c0 21020000 		.4byte	.LASF98
 1874 06c4 58       		.byte	0x58
 1875 06c5 0C       		.byte	0xc
 1876 06c6 7101     		.2byte	0x171
 1877 06c8 EA070000 		.4byte	0x7ea
 1878 06cc 13       		.uleb128 0x13
ARM GAS  C:\Users\z80\AppData\Local\Temp\ccQbr6qb.s 			page 35


 1879 06cd 37010000 		.4byte	.LASF99
 1880 06d1 0C       		.byte	0xc
 1881 06d2 7501     		.2byte	0x175
 1882 06d4 FD050000 		.4byte	0x5fd
 1883 06d8 02       		.byte	0x2
 1884 06d9 23       		.byte	0x23
 1885 06da 00       		.uleb128 0x0
 1886 06db 13       		.uleb128 0x13
 1887 06dc 6B040000 		.4byte	.LASF100
 1888 06e0 0C       		.byte	0xc
 1889 06e1 7901     		.2byte	0x179
 1890 06e3 0E080000 		.4byte	0x80e
 1891 06e7 02       		.byte	0x2
 1892 06e8 23       		.byte	0x23
 1893 06e9 04       		.uleb128 0x4
 1894 06ea 13       		.uleb128 0x13
 1895 06eb 7E020000 		.4byte	.LASF101
 1896 06ef 0C       		.byte	0xc
 1897 06f0 7D01     		.2byte	0x17d
 1898 06f2 14060000 		.4byte	0x614
 1899 06f6 02       		.byte	0x2
 1900 06f7 23       		.byte	0x23
 1901 06f8 08       		.uleb128 0x8
 1902 06f9 13       		.uleb128 0x13
 1903 06fa 7D030000 		.4byte	.LASF102
 1904 06fe 0C       		.byte	0xc
 1905 06ff 8301     		.2byte	0x183
 1906 0701 71030000 		.4byte	0x371
 1907 0705 02       		.byte	0x2
 1908 0706 23       		.byte	0x23
 1909 0707 0C       		.uleb128 0xc
 1910 0708 13       		.uleb128 0x13
 1911 0709 4F010000 		.4byte	.LASF103
 1912 070d 0C       		.byte	0xc
 1913 070e 8F01     		.2byte	0x18f
 1914 0710 2C020000 		.4byte	0x22c
 1915 0714 02       		.byte	0x2
 1916 0715 23       		.byte	0x23
 1917 0716 1C       		.uleb128 0x1c
 1918 0717 13       		.uleb128 0x13
 1919 0718 6E000000 		.4byte	.LASF104
 1920 071c 0C       		.byte	0xc
 1921 071d 9301     		.2byte	0x193
 1922 071f 08060000 		.4byte	0x608
 1923 0723 02       		.byte	0x2
 1924 0724 23       		.byte	0x23
 1925 0725 20       		.uleb128 0x20
 1926 0726 13       		.uleb128 0x13
 1927 0727 F6040000 		.4byte	.LASF105
 1928 072b 0C       		.byte	0xc
 1929 072c 9701     		.2byte	0x197
 1930 072e 86000000 		.4byte	0x86
 1931 0732 02       		.byte	0x2
 1932 0733 23       		.byte	0x23
 1933 0734 24       		.uleb128 0x24
 1934 0735 13       		.uleb128 0x13
 1935 0736 0F000000 		.4byte	.LASF106
ARM GAS  C:\Users\z80\AppData\Local\Temp\ccQbr6qb.s 			page 36


 1936 073a 0C       		.byte	0xc
 1937 073b 9B01     		.2byte	0x19b
 1938 073d C5050000 		.4byte	0x5c5
 1939 0741 02       		.byte	0x2
 1940 0742 23       		.byte	0x23
 1941 0743 28       		.uleb128 0x28
 1942 0744 13       		.uleb128 0x13
 1943 0745 6F010000 		.4byte	.LASF107
 1944 0749 0C       		.byte	0xc
 1945 074a 9F01     		.2byte	0x19f
 1946 074c C5050000 		.4byte	0x5c5
 1947 0750 02       		.byte	0x2
 1948 0751 23       		.byte	0x23
 1949 0752 2C       		.uleb128 0x2c
 1950 0753 0B       		.uleb128 0xb
 1951 0754 69326300 		.ascii	"i2c\000"
 1952 0758 0C       		.byte	0xc
 1953 0759 A301     		.2byte	0x1a3
 1954 075b 19080000 		.4byte	0x819
 1955 075f 02       		.byte	0x2
 1956 0760 23       		.byte	0x23
 1957 0761 30       		.uleb128 0x30
 1958 0762 13       		.uleb128 0x13
 1959 0763 EC000000 		.4byte	.LASF108
 1960 0767 0C       		.byte	0xc
 1961 0768 A501     		.2byte	0x1a5
 1962 076a 49000000 		.4byte	0x49
 1963 076e 02       		.byte	0x2
 1964 076f 23       		.byte	0x23
 1965 0770 34       		.uleb128 0x34
 1966 0771 13       		.uleb128 0x13
 1967 0772 51000000 		.4byte	.LASF109
 1968 0776 0C       		.byte	0xc
 1969 0777 A601     		.2byte	0x1a6
 1970 0779 CF030000 		.4byte	0x3cf
 1971 077d 02       		.byte	0x2
 1972 077e 23       		.byte	0x23
 1973 077f 38       		.uleb128 0x38
 1974 0780 13       		.uleb128 0x13
 1975 0781 9D020000 		.4byte	.LASF110
 1976 0785 0C       		.byte	0xc
 1977 0786 A701     		.2byte	0x1a7
 1978 0788 30000000 		.4byte	0x30
 1979 078c 02       		.byte	0x2
 1980 078d 23       		.byte	0x23
 1981 078e 3C       		.uleb128 0x3c
 1982 078f 13       		.uleb128 0x13
 1983 0790 4C050000 		.4byte	.LASF111
 1984 0794 0C       		.byte	0xc
 1985 0795 A801     		.2byte	0x1a8
 1986 0797 30000000 		.4byte	0x30
 1987 079b 02       		.byte	0x2
 1988 079c 23       		.byte	0x23
 1989 079d 40       		.uleb128 0x40
 1990 079e 13       		.uleb128 0x13
 1991 079f 4C000000 		.4byte	.LASF112
 1992 07a3 0C       		.byte	0xc
ARM GAS  C:\Users\z80\AppData\Local\Temp\ccQbr6qb.s 			page 37


 1993 07a4 A901     		.2byte	0x1a9
 1994 07a6 EA070000 		.4byte	0x7ea
 1995 07aa 02       		.byte	0x2
 1996 07ab 23       		.byte	0x23
 1997 07ac 44       		.uleb128 0x44
 1998 07ad 13       		.uleb128 0x13
 1999 07ae C1010000 		.4byte	.LASF113
 2000 07b2 0C       		.byte	0xc
 2001 07b3 AB01     		.2byte	0x1ab
 2002 07b5 CF030000 		.4byte	0x3cf
 2003 07b9 02       		.byte	0x2
 2004 07ba 23       		.byte	0x23
 2005 07bb 48       		.uleb128 0x48
 2006 07bc 13       		.uleb128 0x13
 2007 07bd 6A050000 		.4byte	.LASF114
 2008 07c1 0C       		.byte	0xc
 2009 07c2 AC01     		.2byte	0x1ac
 2010 07c4 30000000 		.4byte	0x30
 2011 07c8 02       		.byte	0x2
 2012 07c9 23       		.byte	0x23
 2013 07ca 4C       		.uleb128 0x4c
 2014 07cb 13       		.uleb128 0x13
 2015 07cc CC000000 		.4byte	.LASF115
 2016 07d0 0C       		.byte	0xc
 2017 07d1 AD01     		.2byte	0x1ad
 2018 07d3 30000000 		.4byte	0x30
 2019 07d7 02       		.byte	0x2
 2020 07d8 23       		.byte	0x23
 2021 07d9 50       		.uleb128 0x50
 2022 07da 13       		.uleb128 0x13
 2023 07db 90020000 		.4byte	.LASF116
 2024 07df 0C       		.byte	0xc
 2025 07e0 AE01     		.2byte	0x1ae
 2026 07e2 EA070000 		.4byte	0x7ea
 2027 07e6 02       		.byte	0x2
 2028 07e7 23       		.byte	0x23
 2029 07e8 54       		.uleb128 0x54
 2030 07e9 00       		.byte	0x0
 2031 07ea 14       		.uleb128 0x14
 2032 07eb 72040000 		.4byte	.LASF117
 2033 07ef 0C       		.byte	0xc
 2034 07f0 6B01     		.2byte	0x16b
 2035 07f2 F6070000 		.4byte	0x7f6
 2036 07f6 09       		.uleb128 0x9
 2037 07f7 04       		.byte	0x4
 2038 07f8 FC070000 		.4byte	0x7fc
 2039 07fc 18       		.uleb128 0x18
 2040 07fd 01       		.byte	0x1
 2041 07fe 08080000 		.4byte	0x808
 2042 0802 19       		.uleb128 0x19
 2043 0803 08080000 		.4byte	0x808
 2044 0807 00       		.byte	0x0
 2045 0808 09       		.uleb128 0x9
 2046 0809 04       		.byte	0x4
 2047 080a B3060000 		.4byte	0x6b3
 2048 080e 09       		.uleb128 0x9
 2049 080f 04       		.byte	0x4
ARM GAS  C:\Users\z80\AppData\Local\Temp\ccQbr6qb.s 			page 38


 2050 0810 14080000 		.4byte	0x814
 2051 0814 11       		.uleb128 0x11
 2052 0815 A7060000 		.4byte	0x6a7
 2053 0819 09       		.uleb128 0x9
 2054 081a 04       		.byte	0x4
 2055 081b 53050000 		.4byte	0x553
 2056 081f 1A       		.uleb128 0x1a
 2057 0820 01       		.byte	0x1
 2058 0821 18050000 		.4byte	.LASF133
 2059 0825 01       		.byte	0x1
 2060 0826 47       		.byte	0x47
 2061 0827 01       		.byte	0x1
 2062 0828 00000000 		.4byte	.LFB62
 2063 082c 08000000 		.4byte	.LFE62
 2064 0830 00000000 		.4byte	.LLST0
 2065 0834 1B       		.uleb128 0x1b
 2066 0835 01       		.byte	0x1
 2067 0836 3E050000 		.4byte	.LASF118
 2068 083a 01       		.byte	0x1
 2069 083b 52       		.byte	0x52
 2070 083c 01       		.byte	0x1
 2071 083d 00000000 		.4byte	.LFB63
 2072 0841 26000000 		.4byte	.LFE63
 2073 0845 20000000 		.4byte	.LLST1
 2074 0849 5C080000 		.4byte	0x85c
 2075 084d 1C       		.uleb128 0x1c
 2076 084e A7000000 		.4byte	.LASF120
 2077 0852 01       		.byte	0x1
 2078 0853 52       		.byte	0x52
 2079 0854 08080000 		.4byte	0x808
 2080 0858 02       		.byte	0x2
 2081 0859 91       		.byte	0x91
 2082 085a 74       		.sleb128 -12
 2083 085b 00       		.byte	0x0
 2084 085c 1B       		.uleb128 0x1b
 2085 085d 01       		.byte	0x1
 2086 085e 73000000 		.4byte	.LASF119
 2087 0862 01       		.byte	0x1
 2088 0863 6C       		.byte	0x6c
 2089 0864 01       		.byte	0x1
 2090 0865 00000000 		.4byte	.LFB64
 2091 0869 74000000 		.4byte	.LFE64
 2092 086d 4C000000 		.4byte	.LLST2
 2093 0871 C4080000 		.4byte	0x8c4
 2094 0875 1C       		.uleb128 0x1c
 2095 0876 A7000000 		.4byte	.LASF120
 2096 087a 01       		.byte	0x1
 2097 087b 6C       		.byte	0x6c
 2098 087c 08080000 		.4byte	0x808
 2099 0880 02       		.byte	0x2
 2100 0881 91       		.byte	0x91
 2101 0882 74       		.sleb128 -12
 2102 0883 1C       		.uleb128 0x1c
 2103 0884 6B040000 		.4byte	.LASF100
 2104 0888 01       		.byte	0x1
 2105 0889 6C       		.byte	0x6c
 2106 088a 0E080000 		.4byte	0x80e
ARM GAS  C:\Users\z80\AppData\Local\Temp\ccQbr6qb.s 			page 39


 2107 088e 02       		.byte	0x2
 2108 088f 91       		.byte	0x91
 2109 0890 70       		.sleb128 -16
 2110 0891 1D       		.uleb128 0x1d
 2111 0892 44000000 		.4byte	.LBB2
 2112 0896 4C000000 		.4byte	.LBE2
 2113 089a AC080000 		.4byte	0x8ac
 2114 089e 1E       		.uleb128 0x1e
 2115 089f 746D7000 		.ascii	"tmp\000"
 2116 08a3 01       		.byte	0x1
 2117 08a4 74       		.byte	0x74
 2118 08a5 86000000 		.4byte	0x86
 2119 08a9 01       		.byte	0x1
 2120 08aa 53       		.byte	0x53
 2121 08ab 00       		.byte	0x0
 2122 08ac 1F       		.uleb128 0x1f
 2123 08ad 68000000 		.4byte	.LBB3
 2124 08b1 70000000 		.4byte	.LBE3
 2125 08b5 1E       		.uleb128 0x1e
 2126 08b6 746D7000 		.ascii	"tmp\000"
 2127 08ba 01       		.byte	0x1
 2128 08bb 78       		.byte	0x78
 2129 08bc 86000000 		.4byte	0x86
 2130 08c0 01       		.byte	0x1
 2131 08c1 53       		.byte	0x53
 2132 08c2 00       		.byte	0x0
 2133 08c3 00       		.byte	0x0
 2134 08c4 1B       		.uleb128 0x1b
 2135 08c5 01       		.byte	0x1
 2136 08c6 A5020000 		.4byte	.LASF121
 2137 08ca 01       		.byte	0x1
 2138 08cb 82       		.byte	0x82
 2139 08cc 01       		.byte	0x1
 2140 08cd 00000000 		.4byte	.LFB65
 2141 08d1 66000000 		.4byte	.LFE65
 2142 08d5 78000000 		.4byte	.LLST3
 2143 08d9 1E090000 		.4byte	0x91e
 2144 08dd 1C       		.uleb128 0x1c
 2145 08de A7000000 		.4byte	.LASF120
 2146 08e2 01       		.byte	0x1
 2147 08e3 82       		.byte	0x82
 2148 08e4 08080000 		.4byte	0x808
 2149 08e8 02       		.byte	0x2
 2150 08e9 91       		.byte	0x91
 2151 08ea 74       		.sleb128 -12
 2152 08eb 1D       		.uleb128 0x1d
 2153 08ec 3C000000 		.4byte	.LBB4
 2154 08f0 44000000 		.4byte	.LBE4
 2155 08f4 06090000 		.4byte	0x906
 2156 08f8 1E       		.uleb128 0x1e
 2157 08f9 746D7000 		.ascii	"tmp\000"
 2158 08fd 01       		.byte	0x1
 2159 08fe 8A       		.byte	0x8a
 2160 08ff 86000000 		.4byte	0x86
 2161 0903 01       		.byte	0x1
 2162 0904 53       		.byte	0x53
 2163 0905 00       		.byte	0x0
ARM GAS  C:\Users\z80\AppData\Local\Temp\ccQbr6qb.s 			page 40


 2164 0906 1F       		.uleb128 0x1f
 2165 0907 5A000000 		.4byte	.LBB5
 2166 090b 62000000 		.4byte	.LBE5
 2167 090f 1E       		.uleb128 0x1e
 2168 0910 746D7000 		.ascii	"tmp\000"
 2169 0914 01       		.byte	0x1
 2170 0915 8D       		.byte	0x8d
 2171 0916 86000000 		.4byte	0x86
 2172 091a 01       		.byte	0x1
 2173 091b 53       		.byte	0x53
 2174 091c 00       		.byte	0x0
 2175 091d 00       		.byte	0x0
 2176 091e 20       		.uleb128 0x20
 2177 091f 01       		.byte	0x1
 2178 0920 C9030000 		.4byte	.LASF122
 2179 0924 01       		.byte	0x1
 2180 0925 98       		.byte	0x98
 2181 0926 01       		.byte	0x1
 2182 0927 14060000 		.4byte	0x614
 2183 092b 00000000 		.4byte	.LFB66
 2184 092f 22000000 		.4byte	.LFE66
 2185 0933 A4000000 		.4byte	.LLST4
 2186 0937 4A090000 		.4byte	0x94a
 2187 093b 1C       		.uleb128 0x1c
 2188 093c A7000000 		.4byte	.LASF120
 2189 0940 01       		.byte	0x1
 2190 0941 98       		.byte	0x98
 2191 0942 08080000 		.4byte	0x808
 2192 0946 02       		.byte	0x2
 2193 0947 91       		.byte	0x91
 2194 0948 74       		.sleb128 -12
 2195 0949 00       		.byte	0x0
 2196 094a 20       		.uleb128 0x20
 2197 094b 01       		.byte	0x1
 2198 094c B3000000 		.4byte	.LASF123
 2199 0950 01       		.byte	0x1
 2200 0951 B9       		.byte	0xb9
 2201 0952 01       		.byte	0x1
 2202 0953 D2000000 		.4byte	0xd2
 2203 0957 00000000 		.4byte	.LFB67
 2204 095b CC000000 		.4byte	.LFE67
 2205 095f D0000000 		.4byte	.LLST5
 2206 0963 0A0A0000 		.4byte	0xa0a
 2207 0967 1C       		.uleb128 0x1c
 2208 0968 A7000000 		.4byte	.LASF120
 2209 096c 01       		.byte	0x1
 2210 096d B9       		.byte	0xb9
 2211 096e 08080000 		.4byte	0x808
 2212 0972 02       		.byte	0x2
 2213 0973 91       		.byte	0x91
 2214 0974 6C       		.sleb128 -20
 2215 0975 1C       		.uleb128 0x1c
 2216 0976 6E000000 		.4byte	.LASF104
 2217 097a 01       		.byte	0x1
 2218 097b BA       		.byte	0xba
 2219 097c 08060000 		.4byte	0x608
 2220 0980 02       		.byte	0x2
ARM GAS  C:\Users\z80\AppData\Local\Temp\ccQbr6qb.s 			page 41


 2221 0981 91       		.byte	0x91
 2222 0982 6A       		.sleb128 -22
 2223 0983 1C       		.uleb128 0x1c
 2224 0984 C1010000 		.4byte	.LASF113
 2225 0988 01       		.byte	0x1
 2226 0989 BB       		.byte	0xbb
 2227 098a D5030000 		.4byte	0x3d5
 2228 098e 02       		.byte	0x2
 2229 098f 91       		.byte	0x91
 2230 0990 64       		.sleb128 -28
 2231 0991 1C       		.uleb128 0x1c
 2232 0992 6A050000 		.4byte	.LASF114
 2233 0996 01       		.byte	0x1
 2234 0997 BC       		.byte	0xbc
 2235 0998 30000000 		.4byte	0x30
 2236 099c 02       		.byte	0x2
 2237 099d 91       		.byte	0x91
 2238 099e 60       		.sleb128 -32
 2239 099f 1C       		.uleb128 0x1c
 2240 09a0 51000000 		.4byte	.LASF109
 2241 09a4 01       		.byte	0x1
 2242 09a5 BD       		.byte	0xbd
 2243 09a6 CF030000 		.4byte	0x3cf
 2244 09aa 02       		.byte	0x2
 2245 09ab 91       		.byte	0x91
 2246 09ac 00       		.sleb128 0
 2247 09ad 1C       		.uleb128 0x1c
 2248 09ae 9D020000 		.4byte	.LASF110
 2249 09b2 01       		.byte	0x1
 2250 09b3 BE       		.byte	0xbe
 2251 09b4 30000000 		.4byte	0x30
 2252 09b8 02       		.byte	0x2
 2253 09b9 91       		.byte	0x91
 2254 09ba 04       		.sleb128 4
 2255 09bb 1C       		.uleb128 0x1c
 2256 09bc D7010000 		.4byte	.LASF124
 2257 09c0 01       		.byte	0x1
 2258 09c1 BF       		.byte	0xbf
 2259 09c2 E8000000 		.4byte	0xe8
 2260 09c6 02       		.byte	0x2
 2261 09c7 91       		.byte	0x91
 2262 09c8 08       		.sleb128 8
 2263 09c9 21       		.uleb128 0x21
 2264 09ca 36000000 		.4byte	.LASF49
 2265 09ce 01       		.byte	0x1
 2266 09cf C0       		.byte	0xc0
 2267 09d0 D2000000 		.4byte	0xd2
 2268 09d4 02       		.byte	0x2
 2269 09d5 91       		.byte	0x91
 2270 09d6 74       		.sleb128 -12
 2271 09d7 1D       		.uleb128 0x1d
 2272 09d8 62000000 		.4byte	.LBB6
 2273 09dc 6A000000 		.4byte	.LBE6
 2274 09e0 F2090000 		.4byte	0x9f2
 2275 09e4 1E       		.uleb128 0x1e
 2276 09e5 746D7000 		.ascii	"tmp\000"
 2277 09e9 01       		.byte	0x1
ARM GAS  C:\Users\z80\AppData\Local\Temp\ccQbr6qb.s 			page 42


 2278 09ea CB       		.byte	0xcb
 2279 09eb 86000000 		.4byte	0x86
 2280 09ef 01       		.byte	0x1
 2281 09f0 53       		.byte	0x53
 2282 09f1 00       		.byte	0x0
 2283 09f2 1F       		.uleb128 0x1f
 2284 09f3 BC000000 		.4byte	.LBB7
 2285 09f7 C4000000 		.4byte	.LBE7
 2286 09fb 1E       		.uleb128 0x1e
 2287 09fc 746D7000 		.ascii	"tmp\000"
 2288 0a00 01       		.byte	0x1
 2289 0a01 D4       		.byte	0xd4
 2290 0a02 86000000 		.4byte	0x86
 2291 0a06 01       		.byte	0x1
 2292 0a07 53       		.byte	0x53
 2293 0a08 00       		.byte	0x0
 2294 0a09 00       		.byte	0x0
 2295 0a0a 20       		.uleb128 0x20
 2296 0a0b 01       		.byte	0x1
 2297 0a0c DE040000 		.4byte	.LASF125
 2298 0a10 01       		.byte	0x1
 2299 0a11 EC       		.byte	0xec
 2300 0a12 01       		.byte	0x1
 2301 0a13 D2000000 		.4byte	0xd2
 2302 0a17 00000000 		.4byte	.LFB68
 2303 0a1b B2000000 		.4byte	.LFE68
 2304 0a1f FC000000 		.4byte	.LLST6
 2305 0a23 AF0A0000 		.4byte	0xaaf
 2306 0a27 1C       		.uleb128 0x1c
 2307 0a28 A7000000 		.4byte	.LASF120
 2308 0a2c 01       		.byte	0x1
 2309 0a2d EC       		.byte	0xec
 2310 0a2e 08080000 		.4byte	0x808
 2311 0a32 02       		.byte	0x2
 2312 0a33 91       		.byte	0x91
 2313 0a34 6C       		.sleb128 -20
 2314 0a35 1C       		.uleb128 0x1c
 2315 0a36 6E000000 		.4byte	.LASF104
 2316 0a3a 01       		.byte	0x1
 2317 0a3b ED       		.byte	0xed
 2318 0a3c 08060000 		.4byte	0x608
 2319 0a40 02       		.byte	0x2
 2320 0a41 91       		.byte	0x91
 2321 0a42 6A       		.sleb128 -22
 2322 0a43 1C       		.uleb128 0x1c
 2323 0a44 51000000 		.4byte	.LASF109
 2324 0a48 01       		.byte	0x1
 2325 0a49 EE       		.byte	0xee
 2326 0a4a CF030000 		.4byte	0x3cf
 2327 0a4e 02       		.byte	0x2
 2328 0a4f 91       		.byte	0x91
 2329 0a50 64       		.sleb128 -28
 2330 0a51 1C       		.uleb128 0x1c
 2331 0a52 9D020000 		.4byte	.LASF110
 2332 0a56 01       		.byte	0x1
 2333 0a57 EF       		.byte	0xef
 2334 0a58 30000000 		.4byte	0x30
ARM GAS  C:\Users\z80\AppData\Local\Temp\ccQbr6qb.s 			page 43


 2335 0a5c 02       		.byte	0x2
 2336 0a5d 91       		.byte	0x91
 2337 0a5e 60       		.sleb128 -32
 2338 0a5f 1C       		.uleb128 0x1c
 2339 0a60 D7010000 		.4byte	.LASF124
 2340 0a64 01       		.byte	0x1
 2341 0a65 F0       		.byte	0xf0
 2342 0a66 E8000000 		.4byte	0xe8
 2343 0a6a 02       		.byte	0x2
 2344 0a6b 91       		.byte	0x91
 2345 0a6c 00       		.sleb128 0
 2346 0a6d 21       		.uleb128 0x21
 2347 0a6e 36000000 		.4byte	.LASF49
 2348 0a72 01       		.byte	0x1
 2349 0a73 F2       		.byte	0xf2
 2350 0a74 D2000000 		.4byte	0xd2
 2351 0a78 02       		.byte	0x2
 2352 0a79 91       		.byte	0x91
 2353 0a7a 74       		.sleb128 -12
 2354 0a7b 1D       		.uleb128 0x1d
 2355 0a7c 50000000 		.4byte	.LBB8
 2356 0a80 58000000 		.4byte	.LBE8
 2357 0a84 960A0000 		.4byte	0xa96
 2358 0a88 1E       		.uleb128 0x1e
 2359 0a89 746D7000 		.ascii	"tmp\000"
 2360 0a8d 01       		.byte	0x1
 2361 0a8e FC       		.byte	0xfc
 2362 0a8f 86000000 		.4byte	0x86
 2363 0a93 01       		.byte	0x1
 2364 0a94 53       		.byte	0x53
 2365 0a95 00       		.byte	0x0
 2366 0a96 1F       		.uleb128 0x1f
 2367 0a97 A2000000 		.4byte	.LBB9
 2368 0a9b AA000000 		.4byte	.LBE9
 2369 0a9f 22       		.uleb128 0x22
 2370 0aa0 746D7000 		.ascii	"tmp\000"
 2371 0aa4 01       		.byte	0x1
 2372 0aa5 0401     		.2byte	0x104
 2373 0aa7 86000000 		.4byte	0x86
 2374 0aab 01       		.byte	0x1
 2375 0aac 53       		.byte	0x53
 2376 0aad 00       		.byte	0x0
 2377 0aae 00       		.byte	0x0
 2378 0aaf 23       		.uleb128 0x23
 2379 0ab0 01       		.byte	0x1
 2380 0ab1 B3040000 		.4byte	.LASF126
 2381 0ab5 01       		.byte	0x1
 2382 0ab6 1401     		.2byte	0x114
 2383 0ab8 01       		.byte	0x1
 2384 0ab9 00000000 		.4byte	.LFB69
 2385 0abd 28000000 		.4byte	.LFE69
 2386 0ac1 28010000 		.4byte	.LLST7
 2387 0ac5 D90A0000 		.4byte	0xad9
 2388 0ac9 24       		.uleb128 0x24
 2389 0aca A7000000 		.4byte	.LASF120
 2390 0ace 01       		.byte	0x1
 2391 0acf 1401     		.2byte	0x114
ARM GAS  C:\Users\z80\AppData\Local\Temp\ccQbr6qb.s 			page 44


 2392 0ad1 08080000 		.4byte	0x808
 2393 0ad5 02       		.byte	0x2
 2394 0ad6 91       		.byte	0x91
 2395 0ad7 74       		.sleb128 -12
 2396 0ad8 00       		.byte	0x0
 2397 0ad9 23       		.uleb128 0x23
 2398 0ada 01       		.byte	0x1
 2399 0adb 8C000000 		.4byte	.LASF127
 2400 0adf 01       		.byte	0x1
 2401 0ae0 2801     		.2byte	0x128
 2402 0ae2 01       		.byte	0x1
 2403 0ae3 00000000 		.4byte	.LFB70
 2404 0ae7 20000000 		.4byte	.LFE70
 2405 0aeb 54010000 		.4byte	.LLST8
 2406 0aef 030B0000 		.4byte	0xb03
 2407 0af3 24       		.uleb128 0x24
 2408 0af4 A7000000 		.4byte	.LASF120
 2409 0af8 01       		.byte	0x1
 2410 0af9 2801     		.2byte	0x128
 2411 0afb 08080000 		.4byte	0x808
 2412 0aff 02       		.byte	0x2
 2413 0b00 91       		.byte	0x91
 2414 0b01 74       		.sleb128 -12
 2415 0b02 00       		.byte	0x0
 2416 0b03 25       		.uleb128 0x25
 2417 0b04 01       		.byte	0x1
 2418 0b05 34040000 		.4byte	.LASF128
 2419 0b09 01       		.byte	0x1
 2420 0b0a 3601     		.2byte	0x136
 2421 0b0c 01       		.byte	0x1
 2422 0b0d D2000000 		.4byte	0xd2
 2423 0b11 00000000 		.4byte	.LFB71
 2424 0b15 82000000 		.4byte	.LFE71
 2425 0b19 80010000 		.4byte	.LLST9
 2426 0b1d EC0B0000 		.4byte	0xbec
 2427 0b21 24       		.uleb128 0x24
 2428 0b22 A7000000 		.4byte	.LASF120
 2429 0b26 01       		.byte	0x1
 2430 0b27 3601     		.2byte	0x136
 2431 0b29 08080000 		.4byte	0x808
 2432 0b2d 02       		.byte	0x2
 2433 0b2e 91       		.byte	0x91
 2434 0b2f 6C       		.sleb128 -20
 2435 0b30 24       		.uleb128 0x24
 2436 0b31 6E000000 		.4byte	.LASF104
 2437 0b35 01       		.byte	0x1
 2438 0b36 3701     		.2byte	0x137
 2439 0b38 08060000 		.4byte	0x608
 2440 0b3c 02       		.byte	0x2
 2441 0b3d 91       		.byte	0x91
 2442 0b3e 6A       		.sleb128 -22
 2443 0b3f 24       		.uleb128 0x24
 2444 0b40 51000000 		.4byte	.LASF109
 2445 0b44 01       		.byte	0x1
 2446 0b45 3801     		.2byte	0x138
 2447 0b47 CF030000 		.4byte	0x3cf
 2448 0b4b 02       		.byte	0x2
ARM GAS  C:\Users\z80\AppData\Local\Temp\ccQbr6qb.s 			page 45


 2449 0b4c 91       		.byte	0x91
 2450 0b4d 64       		.sleb128 -28
 2451 0b4e 24       		.uleb128 0x24
 2452 0b4f 9D020000 		.4byte	.LASF110
 2453 0b53 01       		.byte	0x1
 2454 0b54 3801     		.2byte	0x138
 2455 0b56 30000000 		.4byte	0x30
 2456 0b5a 02       		.byte	0x2
 2457 0b5b 91       		.byte	0x91
 2458 0b5c 60       		.sleb128 -32
 2459 0b5d 24       		.uleb128 0x24
 2460 0b5e C1010000 		.4byte	.LASF113
 2461 0b62 01       		.byte	0x1
 2462 0b63 3901     		.2byte	0x139
 2463 0b65 CF030000 		.4byte	0x3cf
 2464 0b69 02       		.byte	0x2
 2465 0b6a 91       		.byte	0x91
 2466 0b6b 00       		.sleb128 0
 2467 0b6c 24       		.uleb128 0x24
 2468 0b6d 6A050000 		.4byte	.LASF114
 2469 0b71 01       		.byte	0x1
 2470 0b72 3901     		.2byte	0x139
 2471 0b74 30000000 		.4byte	0x30
 2472 0b78 02       		.byte	0x2
 2473 0b79 91       		.byte	0x91
 2474 0b7a 04       		.sleb128 4
 2475 0b7b 24       		.uleb128 0x24
 2476 0b7c 4C000000 		.4byte	.LASF112
 2477 0b80 01       		.byte	0x1
 2478 0b81 3A01     		.2byte	0x13a
 2479 0b83 EA070000 		.4byte	0x7ea
 2480 0b87 02       		.byte	0x2
 2481 0b88 91       		.byte	0x91
 2482 0b89 08       		.sleb128 8
 2483 0b8a 24       		.uleb128 0x24
 2484 0b8b 90020000 		.4byte	.LASF116
 2485 0b8f 01       		.byte	0x1
 2486 0b90 3B01     		.2byte	0x13b
 2487 0b92 EA070000 		.4byte	0x7ea
 2488 0b96 02       		.byte	0x2
 2489 0b97 91       		.byte	0x91
 2490 0b98 0C       		.sleb128 12
 2491 0b99 24       		.uleb128 0x24
 2492 0b9a D7010000 		.4byte	.LASF124
 2493 0b9e 01       		.byte	0x1
 2494 0b9f 3C01     		.2byte	0x13c
 2495 0ba1 E8000000 		.4byte	0xe8
 2496 0ba5 02       		.byte	0x2
 2497 0ba6 91       		.byte	0x91
 2498 0ba7 10       		.sleb128 16
 2499 0ba8 26       		.uleb128 0x26
 2500 0ba9 36000000 		.4byte	.LASF49
 2501 0bad 01       		.byte	0x1
 2502 0bae 3E01     		.2byte	0x13e
 2503 0bb0 D2000000 		.4byte	0xd2
 2504 0bb4 02       		.byte	0x2
 2505 0bb5 91       		.byte	0x91
ARM GAS  C:\Users\z80\AppData\Local\Temp\ccQbr6qb.s 			page 46


 2506 0bb6 74       		.sleb128 -12
 2507 0bb7 1D       		.uleb128 0x1d
 2508 0bb8 10000000 		.4byte	.LBB10
 2509 0bbc 18000000 		.4byte	.LBE10
 2510 0bc0 D30B0000 		.4byte	0xbd3
 2511 0bc4 22       		.uleb128 0x22
 2512 0bc5 746D7000 		.ascii	"tmp\000"
 2513 0bc9 01       		.byte	0x1
 2514 0bca 4001     		.2byte	0x140
 2515 0bcc 86000000 		.4byte	0x86
 2516 0bd0 01       		.byte	0x1
 2517 0bd1 53       		.byte	0x53
 2518 0bd2 00       		.byte	0x0
 2519 0bd3 1F       		.uleb128 0x1f
 2520 0bd4 72000000 		.4byte	.LBB11
 2521 0bd8 7A000000 		.4byte	.LBE11
 2522 0bdc 22       		.uleb128 0x22
 2523 0bdd 746D7000 		.ascii	"tmp\000"
 2524 0be1 01       		.byte	0x1
 2525 0be2 4E01     		.2byte	0x14e
 2526 0be4 86000000 		.4byte	0x86
 2527 0be8 01       		.byte	0x1
 2528 0be9 53       		.byte	0x53
 2529 0bea 00       		.byte	0x0
 2530 0beb 00       		.byte	0x0
 2531 0bec 27       		.uleb128 0x27
 2532 0bed 9A000000 		.4byte	.LASF129
 2533 0bf1 0D       		.byte	0xd
 2534 0bf2 9404     		.2byte	0x494
 2535 0bf4 E5030000 		.4byte	0x3e5
 2536 0bf8 01       		.byte	0x1
 2537 0bf9 01       		.byte	0x1
 2538 0bfa 27       		.uleb128 0x27
 2539 0bfb 9A000000 		.4byte	.LASF129
 2540 0bff 0D       		.byte	0xd
 2541 0c00 9404     		.2byte	0x494
 2542 0c02 E5030000 		.4byte	0x3e5
 2543 0c06 01       		.byte	0x1
 2544 0c07 01       		.byte	0x1
 2545 0c08 00       		.byte	0x0
 2546              		.section	.debug_abbrev
 2547 0000 01       		.uleb128 0x1
 2548 0001 11       		.uleb128 0x11
 2549 0002 01       		.byte	0x1
 2550 0003 25       		.uleb128 0x25
 2551 0004 0E       		.uleb128 0xe
 2552 0005 13       		.uleb128 0x13
 2553 0006 0B       		.uleb128 0xb
 2554 0007 03       		.uleb128 0x3
 2555 0008 0E       		.uleb128 0xe
 2556 0009 1B       		.uleb128 0x1b
 2557 000a 0E       		.uleb128 0xe
 2558 000b 11       		.uleb128 0x11
 2559 000c 01       		.uleb128 0x1
 2560 000d 52       		.uleb128 0x52
 2561 000e 01       		.uleb128 0x1
 2562 000f 55       		.uleb128 0x55
ARM GAS  C:\Users\z80\AppData\Local\Temp\ccQbr6qb.s 			page 47


 2563 0010 06       		.uleb128 0x6
 2564 0011 10       		.uleb128 0x10
 2565 0012 06       		.uleb128 0x6
 2566 0013 00       		.byte	0x0
 2567 0014 00       		.byte	0x0
 2568 0015 02       		.uleb128 0x2
 2569 0016 24       		.uleb128 0x24
 2570 0017 00       		.byte	0x0
 2571 0018 0B       		.uleb128 0xb
 2572 0019 0B       		.uleb128 0xb
 2573 001a 3E       		.uleb128 0x3e
 2574 001b 0B       		.uleb128 0xb
 2575 001c 03       		.uleb128 0x3
 2576 001d 08       		.uleb128 0x8
 2577 001e 00       		.byte	0x0
 2578 001f 00       		.byte	0x0
 2579 0020 03       		.uleb128 0x3
 2580 0021 16       		.uleb128 0x16
 2581 0022 00       		.byte	0x0
 2582 0023 03       		.uleb128 0x3
 2583 0024 0E       		.uleb128 0xe
 2584 0025 3A       		.uleb128 0x3a
 2585 0026 0B       		.uleb128 0xb
 2586 0027 3B       		.uleb128 0x3b
 2587 0028 0B       		.uleb128 0xb
 2588 0029 49       		.uleb128 0x49
 2589 002a 13       		.uleb128 0x13
 2590 002b 00       		.byte	0x0
 2591 002c 00       		.byte	0x0
 2592 002d 04       		.uleb128 0x4
 2593 002e 24       		.uleb128 0x24
 2594 002f 00       		.byte	0x0
 2595 0030 0B       		.uleb128 0xb
 2596 0031 0B       		.uleb128 0xb
 2597 0032 3E       		.uleb128 0x3e
 2598 0033 0B       		.uleb128 0xb
 2599 0034 03       		.uleb128 0x3
 2600 0035 0E       		.uleb128 0xe
 2601 0036 00       		.byte	0x0
 2602 0037 00       		.byte	0x0
 2603 0038 05       		.uleb128 0x5
 2604 0039 13       		.uleb128 0x13
 2605 003a 01       		.byte	0x1
 2606 003b 03       		.uleb128 0x3
 2607 003c 0E       		.uleb128 0xe
 2608 003d 0B       		.uleb128 0xb
 2609 003e 0B       		.uleb128 0xb
 2610 003f 3A       		.uleb128 0x3a
 2611 0040 0B       		.uleb128 0xb
 2612 0041 3B       		.uleb128 0x3b
 2613 0042 0B       		.uleb128 0xb
 2614 0043 01       		.uleb128 0x1
 2615 0044 13       		.uleb128 0x13
 2616 0045 00       		.byte	0x0
 2617 0046 00       		.byte	0x0
 2618 0047 06       		.uleb128 0x6
 2619 0048 0D       		.uleb128 0xd
ARM GAS  C:\Users\z80\AppData\Local\Temp\ccQbr6qb.s 			page 48


 2620 0049 00       		.byte	0x0
 2621 004a 03       		.uleb128 0x3
 2622 004b 0E       		.uleb128 0xe
 2623 004c 3A       		.uleb128 0x3a
 2624 004d 0B       		.uleb128 0xb
 2625 004e 3B       		.uleb128 0x3b
 2626 004f 0B       		.uleb128 0xb
 2627 0050 49       		.uleb128 0x49
 2628 0051 13       		.uleb128 0x13
 2629 0052 38       		.uleb128 0x38
 2630 0053 0A       		.uleb128 0xa
 2631 0054 00       		.byte	0x0
 2632 0055 00       		.byte	0x0
 2633 0056 07       		.uleb128 0x7
 2634 0057 0D       		.uleb128 0xd
 2635 0058 00       		.byte	0x0
 2636 0059 03       		.uleb128 0x3
 2637 005a 08       		.uleb128 0x8
 2638 005b 3A       		.uleb128 0x3a
 2639 005c 0B       		.uleb128 0xb
 2640 005d 3B       		.uleb128 0x3b
 2641 005e 0B       		.uleb128 0xb
 2642 005f 49       		.uleb128 0x49
 2643 0060 13       		.uleb128 0x13
 2644 0061 38       		.uleb128 0x38
 2645 0062 0A       		.uleb128 0xa
 2646 0063 00       		.byte	0x0
 2647 0064 00       		.byte	0x0
 2648 0065 08       		.uleb128 0x8
 2649 0066 13       		.uleb128 0x13
 2650 0067 01       		.byte	0x1
 2651 0068 0B       		.uleb128 0xb
 2652 0069 0B       		.uleb128 0xb
 2653 006a 3A       		.uleb128 0x3a
 2654 006b 0B       		.uleb128 0xb
 2655 006c 3B       		.uleb128 0x3b
 2656 006d 0B       		.uleb128 0xb
 2657 006e 01       		.uleb128 0x1
 2658 006f 13       		.uleb128 0x13
 2659 0070 00       		.byte	0x0
 2660 0071 00       		.byte	0x0
 2661 0072 09       		.uleb128 0x9
 2662 0073 0F       		.uleb128 0xf
 2663 0074 00       		.byte	0x0
 2664 0075 0B       		.uleb128 0xb
 2665 0076 0B       		.uleb128 0xb
 2666 0077 49       		.uleb128 0x49
 2667 0078 13       		.uleb128 0x13
 2668 0079 00       		.byte	0x0
 2669 007a 00       		.byte	0x0
 2670 007b 0A       		.uleb128 0xa
 2671 007c 0F       		.uleb128 0xf
 2672 007d 00       		.byte	0x0
 2673 007e 0B       		.uleb128 0xb
 2674 007f 0B       		.uleb128 0xb
 2675 0080 00       		.byte	0x0
 2676 0081 00       		.byte	0x0
ARM GAS  C:\Users\z80\AppData\Local\Temp\ccQbr6qb.s 			page 49


 2677 0082 0B       		.uleb128 0xb
 2678 0083 0D       		.uleb128 0xd
 2679 0084 00       		.byte	0x0
 2680 0085 03       		.uleb128 0x3
 2681 0086 08       		.uleb128 0x8
 2682 0087 3A       		.uleb128 0x3a
 2683 0088 0B       		.uleb128 0xb
 2684 0089 3B       		.uleb128 0x3b
 2685 008a 05       		.uleb128 0x5
 2686 008b 49       		.uleb128 0x49
 2687 008c 13       		.uleb128 0x13
 2688 008d 38       		.uleb128 0x38
 2689 008e 0A       		.uleb128 0xa
 2690 008f 00       		.byte	0x0
 2691 0090 00       		.byte	0x0
 2692 0091 0C       		.uleb128 0xc
 2693 0092 13       		.uleb128 0x13
 2694 0093 01       		.byte	0x1
 2695 0094 03       		.uleb128 0x3
 2696 0095 0E       		.uleb128 0xe
 2697 0096 0B       		.uleb128 0xb
 2698 0097 0B       		.uleb128 0xb
 2699 0098 3A       		.uleb128 0x3a
 2700 0099 0B       		.uleb128 0xb
 2701 009a 3B       		.uleb128 0x3b
 2702 009b 05       		.uleb128 0x5
 2703 009c 01       		.uleb128 0x1
 2704 009d 13       		.uleb128 0x13
 2705 009e 00       		.byte	0x0
 2706 009f 00       		.byte	0x0
 2707 00a0 0D       		.uleb128 0xd
 2708 00a1 35       		.uleb128 0x35
 2709 00a2 00       		.byte	0x0
 2710 00a3 49       		.uleb128 0x49
 2711 00a4 13       		.uleb128 0x13
 2712 00a5 00       		.byte	0x0
 2713 00a6 00       		.byte	0x0
 2714 00a7 0E       		.uleb128 0xe
 2715 00a8 24       		.uleb128 0x24
 2716 00a9 00       		.byte	0x0
 2717 00aa 0B       		.uleb128 0xb
 2718 00ab 0B       		.uleb128 0xb
 2719 00ac 3E       		.uleb128 0x3e
 2720 00ad 0B       		.uleb128 0xb
 2721 00ae 00       		.byte	0x0
 2722 00af 00       		.byte	0x0
 2723 00b0 0F       		.uleb128 0xf
 2724 00b1 17       		.uleb128 0x17
 2725 00b2 01       		.byte	0x1
 2726 00b3 0B       		.uleb128 0xb
 2727 00b4 0B       		.uleb128 0xb
 2728 00b5 3A       		.uleb128 0x3a
 2729 00b6 0B       		.uleb128 0xb
 2730 00b7 3B       		.uleb128 0x3b
 2731 00b8 0B       		.uleb128 0xb
 2732 00b9 01       		.uleb128 0x1
 2733 00ba 13       		.uleb128 0x13
ARM GAS  C:\Users\z80\AppData\Local\Temp\ccQbr6qb.s 			page 50


 2734 00bb 00       		.byte	0x0
 2735 00bc 00       		.byte	0x0
 2736 00bd 10       		.uleb128 0x10
 2737 00be 0D       		.uleb128 0xd
 2738 00bf 00       		.byte	0x0
 2739 00c0 03       		.uleb128 0x3
 2740 00c1 0E       		.uleb128 0xe
 2741 00c2 3A       		.uleb128 0x3a
 2742 00c3 0B       		.uleb128 0xb
 2743 00c4 3B       		.uleb128 0x3b
 2744 00c5 0B       		.uleb128 0xb
 2745 00c6 49       		.uleb128 0x49
 2746 00c7 13       		.uleb128 0x13
 2747 00c8 00       		.byte	0x0
 2748 00c9 00       		.byte	0x0
 2749 00ca 11       		.uleb128 0x11
 2750 00cb 26       		.uleb128 0x26
 2751 00cc 00       		.byte	0x0
 2752 00cd 49       		.uleb128 0x49
 2753 00ce 13       		.uleb128 0x13
 2754 00cf 00       		.byte	0x0
 2755 00d0 00       		.byte	0x0
 2756 00d1 12       		.uleb128 0x12
 2757 00d2 13       		.uleb128 0x13
 2758 00d3 01       		.byte	0x1
 2759 00d4 0B       		.uleb128 0xb
 2760 00d5 0B       		.uleb128 0xb
 2761 00d6 3A       		.uleb128 0x3a
 2762 00d7 0B       		.uleb128 0xb
 2763 00d8 3B       		.uleb128 0x3b
 2764 00d9 05       		.uleb128 0x5
 2765 00da 01       		.uleb128 0x1
 2766 00db 13       		.uleb128 0x13
 2767 00dc 00       		.byte	0x0
 2768 00dd 00       		.byte	0x0
 2769 00de 13       		.uleb128 0x13
 2770 00df 0D       		.uleb128 0xd
 2771 00e0 00       		.byte	0x0
 2772 00e1 03       		.uleb128 0x3
 2773 00e2 0E       		.uleb128 0xe
 2774 00e3 3A       		.uleb128 0x3a
 2775 00e4 0B       		.uleb128 0xb
 2776 00e5 3B       		.uleb128 0x3b
 2777 00e6 05       		.uleb128 0x5
 2778 00e7 49       		.uleb128 0x49
 2779 00e8 13       		.uleb128 0x13
 2780 00e9 38       		.uleb128 0x38
 2781 00ea 0A       		.uleb128 0xa
 2782 00eb 00       		.byte	0x0
 2783 00ec 00       		.byte	0x0
 2784 00ed 14       		.uleb128 0x14
 2785 00ee 16       		.uleb128 0x16
 2786 00ef 00       		.byte	0x0
 2787 00f0 03       		.uleb128 0x3
 2788 00f1 0E       		.uleb128 0xe
 2789 00f2 3A       		.uleb128 0x3a
 2790 00f3 0B       		.uleb128 0xb
ARM GAS  C:\Users\z80\AppData\Local\Temp\ccQbr6qb.s 			page 51


 2791 00f4 3B       		.uleb128 0x3b
 2792 00f5 05       		.uleb128 0x5
 2793 00f6 49       		.uleb128 0x49
 2794 00f7 13       		.uleb128 0x13
 2795 00f8 00       		.byte	0x0
 2796 00f9 00       		.byte	0x0
 2797 00fa 15       		.uleb128 0x15
 2798 00fb 04       		.uleb128 0x4
 2799 00fc 01       		.byte	0x1
 2800 00fd 0B       		.uleb128 0xb
 2801 00fe 0B       		.uleb128 0xb
 2802 00ff 3A       		.uleb128 0x3a
 2803 0100 0B       		.uleb128 0xb
 2804 0101 3B       		.uleb128 0x3b
 2805 0102 0B       		.uleb128 0xb
 2806 0103 01       		.uleb128 0x1
 2807 0104 13       		.uleb128 0x13
 2808 0105 00       		.byte	0x0
 2809 0106 00       		.byte	0x0
 2810 0107 16       		.uleb128 0x16
 2811 0108 28       		.uleb128 0x28
 2812 0109 00       		.byte	0x0
 2813 010a 03       		.uleb128 0x3
 2814 010b 0E       		.uleb128 0xe
 2815 010c 1C       		.uleb128 0x1c
 2816 010d 0D       		.uleb128 0xd
 2817 010e 00       		.byte	0x0
 2818 010f 00       		.byte	0x0
 2819 0110 17       		.uleb128 0x17
 2820 0111 04       		.uleb128 0x4
 2821 0112 01       		.byte	0x1
 2822 0113 0B       		.uleb128 0xb
 2823 0114 0B       		.uleb128 0xb
 2824 0115 3A       		.uleb128 0x3a
 2825 0116 0B       		.uleb128 0xb
 2826 0117 3B       		.uleb128 0x3b
 2827 0118 05       		.uleb128 0x5
 2828 0119 01       		.uleb128 0x1
 2829 011a 13       		.uleb128 0x13
 2830 011b 00       		.byte	0x0
 2831 011c 00       		.byte	0x0
 2832 011d 18       		.uleb128 0x18
 2833 011e 15       		.uleb128 0x15
 2834 011f 01       		.byte	0x1
 2835 0120 27       		.uleb128 0x27
 2836 0121 0C       		.uleb128 0xc
 2837 0122 01       		.uleb128 0x1
 2838 0123 13       		.uleb128 0x13
 2839 0124 00       		.byte	0x0
 2840 0125 00       		.byte	0x0
 2841 0126 19       		.uleb128 0x19
 2842 0127 05       		.uleb128 0x5
 2843 0128 00       		.byte	0x0
 2844 0129 49       		.uleb128 0x49
 2845 012a 13       		.uleb128 0x13
 2846 012b 00       		.byte	0x0
 2847 012c 00       		.byte	0x0
ARM GAS  C:\Users\z80\AppData\Local\Temp\ccQbr6qb.s 			page 52


 2848 012d 1A       		.uleb128 0x1a
 2849 012e 2E       		.uleb128 0x2e
 2850 012f 00       		.byte	0x0
 2851 0130 3F       		.uleb128 0x3f
 2852 0131 0C       		.uleb128 0xc
 2853 0132 03       		.uleb128 0x3
 2854 0133 0E       		.uleb128 0xe
 2855 0134 3A       		.uleb128 0x3a
 2856 0135 0B       		.uleb128 0xb
 2857 0136 3B       		.uleb128 0x3b
 2858 0137 0B       		.uleb128 0xb
 2859 0138 27       		.uleb128 0x27
 2860 0139 0C       		.uleb128 0xc
 2861 013a 11       		.uleb128 0x11
 2862 013b 01       		.uleb128 0x1
 2863 013c 12       		.uleb128 0x12
 2864 013d 01       		.uleb128 0x1
 2865 013e 40       		.uleb128 0x40
 2866 013f 06       		.uleb128 0x6
 2867 0140 00       		.byte	0x0
 2868 0141 00       		.byte	0x0
 2869 0142 1B       		.uleb128 0x1b
 2870 0143 2E       		.uleb128 0x2e
 2871 0144 01       		.byte	0x1
 2872 0145 3F       		.uleb128 0x3f
 2873 0146 0C       		.uleb128 0xc
 2874 0147 03       		.uleb128 0x3
 2875 0148 0E       		.uleb128 0xe
 2876 0149 3A       		.uleb128 0x3a
 2877 014a 0B       		.uleb128 0xb
 2878 014b 3B       		.uleb128 0x3b
 2879 014c 0B       		.uleb128 0xb
 2880 014d 27       		.uleb128 0x27
 2881 014e 0C       		.uleb128 0xc
 2882 014f 11       		.uleb128 0x11
 2883 0150 01       		.uleb128 0x1
 2884 0151 12       		.uleb128 0x12
 2885 0152 01       		.uleb128 0x1
 2886 0153 40       		.uleb128 0x40
 2887 0154 06       		.uleb128 0x6
 2888 0155 01       		.uleb128 0x1
 2889 0156 13       		.uleb128 0x13
 2890 0157 00       		.byte	0x0
 2891 0158 00       		.byte	0x0
 2892 0159 1C       		.uleb128 0x1c
 2893 015a 05       		.uleb128 0x5
 2894 015b 00       		.byte	0x0
 2895 015c 03       		.uleb128 0x3
 2896 015d 0E       		.uleb128 0xe
 2897 015e 3A       		.uleb128 0x3a
 2898 015f 0B       		.uleb128 0xb
 2899 0160 3B       		.uleb128 0x3b
 2900 0161 0B       		.uleb128 0xb
 2901 0162 49       		.uleb128 0x49
 2902 0163 13       		.uleb128 0x13
 2903 0164 02       		.uleb128 0x2
 2904 0165 0A       		.uleb128 0xa
ARM GAS  C:\Users\z80\AppData\Local\Temp\ccQbr6qb.s 			page 53


 2905 0166 00       		.byte	0x0
 2906 0167 00       		.byte	0x0
 2907 0168 1D       		.uleb128 0x1d
 2908 0169 0B       		.uleb128 0xb
 2909 016a 01       		.byte	0x1
 2910 016b 11       		.uleb128 0x11
 2911 016c 01       		.uleb128 0x1
 2912 016d 12       		.uleb128 0x12
 2913 016e 01       		.uleb128 0x1
 2914 016f 01       		.uleb128 0x1
 2915 0170 13       		.uleb128 0x13
 2916 0171 00       		.byte	0x0
 2917 0172 00       		.byte	0x0
 2918 0173 1E       		.uleb128 0x1e
 2919 0174 34       		.uleb128 0x34
 2920 0175 00       		.byte	0x0
 2921 0176 03       		.uleb128 0x3
 2922 0177 08       		.uleb128 0x8
 2923 0178 3A       		.uleb128 0x3a
 2924 0179 0B       		.uleb128 0xb
 2925 017a 3B       		.uleb128 0x3b
 2926 017b 0B       		.uleb128 0xb
 2927 017c 49       		.uleb128 0x49
 2928 017d 13       		.uleb128 0x13
 2929 017e 02       		.uleb128 0x2
 2930 017f 0A       		.uleb128 0xa
 2931 0180 00       		.byte	0x0
 2932 0181 00       		.byte	0x0
 2933 0182 1F       		.uleb128 0x1f
 2934 0183 0B       		.uleb128 0xb
 2935 0184 01       		.byte	0x1
 2936 0185 11       		.uleb128 0x11
 2937 0186 01       		.uleb128 0x1
 2938 0187 12       		.uleb128 0x12
 2939 0188 01       		.uleb128 0x1
 2940 0189 00       		.byte	0x0
 2941 018a 00       		.byte	0x0
 2942 018b 20       		.uleb128 0x20
 2943 018c 2E       		.uleb128 0x2e
 2944 018d 01       		.byte	0x1
 2945 018e 3F       		.uleb128 0x3f
 2946 018f 0C       		.uleb128 0xc
 2947 0190 03       		.uleb128 0x3
 2948 0191 0E       		.uleb128 0xe
 2949 0192 3A       		.uleb128 0x3a
 2950 0193 0B       		.uleb128 0xb
 2951 0194 3B       		.uleb128 0x3b
 2952 0195 0B       		.uleb128 0xb
 2953 0196 27       		.uleb128 0x27
 2954 0197 0C       		.uleb128 0xc
 2955 0198 49       		.uleb128 0x49
 2956 0199 13       		.uleb128 0x13
 2957 019a 11       		.uleb128 0x11
 2958 019b 01       		.uleb128 0x1
 2959 019c 12       		.uleb128 0x12
 2960 019d 01       		.uleb128 0x1
 2961 019e 40       		.uleb128 0x40
ARM GAS  C:\Users\z80\AppData\Local\Temp\ccQbr6qb.s 			page 54


 2962 019f 06       		.uleb128 0x6
 2963 01a0 01       		.uleb128 0x1
 2964 01a1 13       		.uleb128 0x13
 2965 01a2 00       		.byte	0x0
 2966 01a3 00       		.byte	0x0
 2967 01a4 21       		.uleb128 0x21
 2968 01a5 34       		.uleb128 0x34
 2969 01a6 00       		.byte	0x0
 2970 01a7 03       		.uleb128 0x3
 2971 01a8 0E       		.uleb128 0xe
 2972 01a9 3A       		.uleb128 0x3a
 2973 01aa 0B       		.uleb128 0xb
 2974 01ab 3B       		.uleb128 0x3b
 2975 01ac 0B       		.uleb128 0xb
 2976 01ad 49       		.uleb128 0x49
 2977 01ae 13       		.uleb128 0x13
 2978 01af 02       		.uleb128 0x2
 2979 01b0 0A       		.uleb128 0xa
 2980 01b1 00       		.byte	0x0
 2981 01b2 00       		.byte	0x0
 2982 01b3 22       		.uleb128 0x22
 2983 01b4 34       		.uleb128 0x34
 2984 01b5 00       		.byte	0x0
 2985 01b6 03       		.uleb128 0x3
 2986 01b7 08       		.uleb128 0x8
 2987 01b8 3A       		.uleb128 0x3a
 2988 01b9 0B       		.uleb128 0xb
 2989 01ba 3B       		.uleb128 0x3b
 2990 01bb 05       		.uleb128 0x5
 2991 01bc 49       		.uleb128 0x49
 2992 01bd 13       		.uleb128 0x13
 2993 01be 02       		.uleb128 0x2
 2994 01bf 0A       		.uleb128 0xa
 2995 01c0 00       		.byte	0x0
 2996 01c1 00       		.byte	0x0
 2997 01c2 23       		.uleb128 0x23
 2998 01c3 2E       		.uleb128 0x2e
 2999 01c4 01       		.byte	0x1
 3000 01c5 3F       		.uleb128 0x3f
 3001 01c6 0C       		.uleb128 0xc
 3002 01c7 03       		.uleb128 0x3
 3003 01c8 0E       		.uleb128 0xe
 3004 01c9 3A       		.uleb128 0x3a
 3005 01ca 0B       		.uleb128 0xb
 3006 01cb 3B       		.uleb128 0x3b
 3007 01cc 05       		.uleb128 0x5
 3008 01cd 27       		.uleb128 0x27
 3009 01ce 0C       		.uleb128 0xc
 3010 01cf 11       		.uleb128 0x11
 3011 01d0 01       		.uleb128 0x1
 3012 01d1 12       		.uleb128 0x12
 3013 01d2 01       		.uleb128 0x1
 3014 01d3 40       		.uleb128 0x40
 3015 01d4 06       		.uleb128 0x6
 3016 01d5 01       		.uleb128 0x1
 3017 01d6 13       		.uleb128 0x13
 3018 01d7 00       		.byte	0x0
ARM GAS  C:\Users\z80\AppData\Local\Temp\ccQbr6qb.s 			page 55


 3019 01d8 00       		.byte	0x0
 3020 01d9 24       		.uleb128 0x24
 3021 01da 05       		.uleb128 0x5
 3022 01db 00       		.byte	0x0
 3023 01dc 03       		.uleb128 0x3
 3024 01dd 0E       		.uleb128 0xe
 3025 01de 3A       		.uleb128 0x3a
 3026 01df 0B       		.uleb128 0xb
 3027 01e0 3B       		.uleb128 0x3b
 3028 01e1 05       		.uleb128 0x5
 3029 01e2 49       		.uleb128 0x49
 3030 01e3 13       		.uleb128 0x13
 3031 01e4 02       		.uleb128 0x2
 3032 01e5 0A       		.uleb128 0xa
 3033 01e6 00       		.byte	0x0
 3034 01e7 00       		.byte	0x0
 3035 01e8 25       		.uleb128 0x25
 3036 01e9 2E       		.uleb128 0x2e
 3037 01ea 01       		.byte	0x1
 3038 01eb 3F       		.uleb128 0x3f
 3039 01ec 0C       		.uleb128 0xc
 3040 01ed 03       		.uleb128 0x3
 3041 01ee 0E       		.uleb128 0xe
 3042 01ef 3A       		.uleb128 0x3a
 3043 01f0 0B       		.uleb128 0xb
 3044 01f1 3B       		.uleb128 0x3b
 3045 01f2 05       		.uleb128 0x5
 3046 01f3 27       		.uleb128 0x27
 3047 01f4 0C       		.uleb128 0xc
 3048 01f5 49       		.uleb128 0x49
 3049 01f6 13       		.uleb128 0x13
 3050 01f7 11       		.uleb128 0x11
 3051 01f8 01       		.uleb128 0x1
 3052 01f9 12       		.uleb128 0x12
 3053 01fa 01       		.uleb128 0x1
 3054 01fb 40       		.uleb128 0x40
 3055 01fc 06       		.uleb128 0x6
 3056 01fd 01       		.uleb128 0x1
 3057 01fe 13       		.uleb128 0x13
 3058 01ff 00       		.byte	0x0
 3059 0200 00       		.byte	0x0
 3060 0201 26       		.uleb128 0x26
 3061 0202 34       		.uleb128 0x34
 3062 0203 00       		.byte	0x0
 3063 0204 03       		.uleb128 0x3
 3064 0205 0E       		.uleb128 0xe
 3065 0206 3A       		.uleb128 0x3a
 3066 0207 0B       		.uleb128 0xb
 3067 0208 3B       		.uleb128 0x3b
 3068 0209 05       		.uleb128 0x5
 3069 020a 49       		.uleb128 0x49
 3070 020b 13       		.uleb128 0x13
 3071 020c 02       		.uleb128 0x2
 3072 020d 0A       		.uleb128 0xa
 3073 020e 00       		.byte	0x0
 3074 020f 00       		.byte	0x0
 3075 0210 27       		.uleb128 0x27
ARM GAS  C:\Users\z80\AppData\Local\Temp\ccQbr6qb.s 			page 56


 3076 0211 34       		.uleb128 0x34
 3077 0212 00       		.byte	0x0
 3078 0213 03       		.uleb128 0x3
 3079 0214 0E       		.uleb128 0xe
 3080 0215 3A       		.uleb128 0x3a
 3081 0216 0B       		.uleb128 0xb
 3082 0217 3B       		.uleb128 0x3b
 3083 0218 05       		.uleb128 0x5
 3084 0219 49       		.uleb128 0x49
 3085 021a 13       		.uleb128 0x13
 3086 021b 3F       		.uleb128 0x3f
 3087 021c 0C       		.uleb128 0xc
 3088 021d 3C       		.uleb128 0x3c
 3089 021e 0C       		.uleb128 0xc
 3090 021f 00       		.byte	0x0
 3091 0220 00       		.byte	0x0
 3092 0221 00       		.byte	0x0
 3093              		.section	.debug_pubnames,"",%progbits
 3094 0000 C9000000 		.4byte	0xc9
 3095 0004 0200     		.2byte	0x2
 3096 0006 00000000 		.4byte	.Ldebug_info0
 3097 000a 090C0000 		.4byte	0xc09
 3098 000e 1F080000 		.4byte	0x81f
 3099 0012 69326349 		.ascii	"i2cInit\000"
 3099      6E697400 
 3100 001a 34080000 		.4byte	0x834
 3101 001e 6932634F 		.ascii	"i2cObjectInit\000"
 3101      626A6563 
 3101      74496E69 
 3101      7400
 3102 002c 5C080000 		.4byte	0x85c
 3103 0030 69326353 		.ascii	"i2cStart\000"
 3103      74617274 
 3103      00
 3104 0039 C4080000 		.4byte	0x8c4
 3105 003d 69326353 		.ascii	"i2cStop\000"
 3105      746F7000 
 3106 0045 1E090000 		.4byte	0x91e
 3107 0049 69326347 		.ascii	"i2cGetErrors\000"
 3107      65744572 
 3107      726F7273 
 3107      00
 3108 0056 4A090000 		.4byte	0x94a
 3109 005a 6932634D 		.ascii	"i2cMasterTransmitTimeout\000"
 3109      61737465 
 3109      72547261 
 3109      6E736D69 
 3109      7454696D 
 3110 0073 0A0A0000 		.4byte	0xa0a
 3111 0077 6932634D 		.ascii	"i2cMasterReceiveTimeout\000"
 3111      61737465 
 3111      72526563 
 3111      65697665 
 3111      54696D65 
 3112 008f AF0A0000 		.4byte	0xaaf
 3113 0093 69326341 		.ascii	"i2cAcquireBus\000"
 3113      63717569 
ARM GAS  C:\Users\z80\AppData\Local\Temp\ccQbr6qb.s 			page 57


 3113      72654275 
 3113      7300
 3114 00a1 D90A0000 		.4byte	0xad9
 3115 00a5 69326352 		.ascii	"i2cReleaseBus\000"
 3115      656C6561 
 3115      73654275 
 3115      7300
 3116 00b3 030B0000 		.4byte	0xb03
 3117 00b7 69326353 		.ascii	"i2cSlaveIoTimeout\000"
 3117      6C617665 
 3117      496F5469 
 3117      6D656F75 
 3117      7400
 3118 00c9 00000000 		.4byte	0x0
 3119              		.section	.debug_pubtypes,"",%progbits
 3120 0000 EB010000 		.4byte	0x1eb
 3121 0004 0200     		.2byte	0x2
 3122 0006 00000000 		.4byte	.Ldebug_info0
 3123 000a 090C0000 		.4byte	0xc09
 3124 000e 30000000 		.4byte	0x30
 3125 0012 73697A65 		.ascii	"size_t\000"
 3125      5F7400
 3126 0019 49000000 		.4byte	0x49
 3127 001d 75696E74 		.ascii	"uint8_t\000"
 3127      385F7400 
 3128 0025 62000000 		.4byte	0x62
 3129 0029 75696E74 		.ascii	"uint16_t\000"
 3129      31365F74 
 3129      00
 3130 0032 74000000 		.4byte	0x74
 3131 0036 696E7433 		.ascii	"int32_t\000"
 3131      325F7400 
 3132 003e 86000000 		.4byte	0x86
 3133 0042 75696E74 		.ascii	"uint32_t\000"
 3133      33325F74 
 3133      00
 3134 004b 9F000000 		.4byte	0x9f
 3135 004f 75696E74 		.ascii	"uint64_t\000"
 3135      36345F74 
 3135      00
 3136 0058 B1000000 		.4byte	0xb1
 3137 005c 746D6F64 		.ascii	"tmode_t\000"
 3137      655F7400 
 3138 0064 BC000000 		.4byte	0xbc
 3139 0068 74737461 		.ascii	"tstate_t\000"
 3139      74655F74 
 3139      00
 3140 0071 C7000000 		.4byte	0xc7
 3141 0075 74707269 		.ascii	"tprio_t\000"
 3141      6F5F7400 
 3142 007d D2000000 		.4byte	0xd2
 3143 0081 6D73675F 		.ascii	"msg_t\000"
 3143      7400
 3144 0087 DD000000 		.4byte	0xdd
 3145 008b 6576656E 		.ascii	"eventmask_t\000"
 3145      746D6173 
 3145      6B5F7400 
ARM GAS  C:\Users\z80\AppData\Local\Temp\ccQbr6qb.s 			page 58


 3146 0097 E8000000 		.4byte	0xe8
 3147 009b 73797374 		.ascii	"systime_t\000"
 3147      696D655F 
 3147      7400
 3148 00a5 F3000000 		.4byte	0xf3
 3149 00a9 54687265 		.ascii	"Thread\000"
 3149      616400
 3150 00b0 32020000 		.4byte	0x232
 3151 00b4 54687265 		.ascii	"ThreadsQueue\000"
 3151      61647351 
 3151      75657565 
 3151      00
 3152 00c1 54020000 		.4byte	0x254
 3153 00c5 54687265 		.ascii	"ThreadsList\000"
 3153      6164734C 
 3153      69737400 
 3154 00d1 5F020000 		.4byte	0x25f
 3155 00d5 72656761 		.ascii	"regarm_t\000"
 3155      726D5F74 
 3155      00
 3156 00de 6C020000 		.4byte	0x26c
 3157 00e2 73746B61 		.ascii	"stkalign_t\000"
 3157      6C69676E 
 3157      5F7400
 3158 00ed 77020000 		.4byte	0x277
 3159 00f1 696E7463 		.ascii	"intctx\000"
 3159      747800
 3160 00f8 04030000 		.4byte	0x304
 3161 00fc 636F6E74 		.ascii	"context\000"
 3161      65787400 
 3162 0104 34030000 		.4byte	0x334
 3163 0108 4D757465 		.ascii	"Mutex\000"
 3163      7800
 3164 010e 71030000 		.4byte	0x371
 3165 0112 4D757465 		.ascii	"Mutex\000"
 3165      7800
 3166 0118 FE000000 		.4byte	0xfe
 3167 011c 54687265 		.ascii	"Thread\000"
 3167      616400
 3168 0123 30040000 		.4byte	0x430
 3169 0127 444D415F 		.ascii	"DMA_Channel_TypeDef\000"
 3169      4368616E 
 3169      6E656C5F 
 3169      54797065 
 3169      44656600 
 3170 013b 53050000 		.4byte	0x553
 3171 013f 4932435F 		.ascii	"I2C_TypeDef\000"
 3171      54797065 
 3171      44656600 
 3172 014b BA050000 		.4byte	0x5ba
 3173 014f 73746D33 		.ascii	"stm32_dma_stream_t\000"
 3173      325F646D 
 3173      615F7374 
 3173      7265616D 
 3173      5F7400
 3174 0162 FD050000 		.4byte	0x5fd
 3175 0166 69326373 		.ascii	"i2cstate_t\000"
ARM GAS  C:\Users\z80\AppData\Local\Temp\ccQbr6qb.s 			page 59


 3175      74617465 
 3175      5F7400
 3176 0171 08060000 		.4byte	0x608
 3177 0175 69326361 		.ascii	"i2caddr_t\000"
 3177      6464725F 
 3177      7400
 3178 017f 14060000 		.4byte	0x614
 3179 0183 69326366 		.ascii	"i2cflags_t\000"
 3179      6C616773 
 3179      5F7400
 3180 018e 3C060000 		.4byte	0x63c
 3181 0192 6932636F 		.ascii	"i2copmode_t\000"
 3181      706D6F64 
 3181      655F7400 
 3182 019e 64060000 		.4byte	0x664
 3183 01a2 69326364 		.ascii	"i2cdutycycle_t\000"
 3183      75747963 
 3183      79636C65 
 3183      5F7400
 3184 01b1 A7060000 		.4byte	0x6a7
 3185 01b5 49324343 		.ascii	"I2CConfig\000"
 3185      6F6E6669 
 3185      6700
 3186 01bf B3060000 		.4byte	0x6b3
 3187 01c3 49324344 		.ascii	"I2CDriver\000"
 3187      72697665 
 3187      7200
 3188 01cd EA070000 		.4byte	0x7ea
 3189 01d1 54493263 		.ascii	"TI2cSlaveCb\000"
 3189      536C6176 
 3189      65436200 
 3190 01dd BF060000 		.4byte	0x6bf
 3191 01e1 49324344 		.ascii	"I2CDriver\000"
 3191      72697665 
 3191      7200
 3192 01eb 00000000 		.4byte	0x0
 3193              		.section	.debug_aranges,"",%progbits
 3194 0000 64000000 		.4byte	0x64
 3195 0004 0200     		.2byte	0x2
 3196 0006 00000000 		.4byte	.Ldebug_info0
 3197 000a 04       		.byte	0x4
 3198 000b 00       		.byte	0x0
 3199 000c 0000     		.2byte	0x0
 3200 000e 0000     		.2byte	0x0
 3201 0010 00000000 		.4byte	.LFB62
 3202 0014 08000000 		.4byte	.LFE62-.LFB62
 3203 0018 00000000 		.4byte	.LFB63
 3204 001c 26000000 		.4byte	.LFE63-.LFB63
 3205 0020 00000000 		.4byte	.LFB64
 3206 0024 74000000 		.4byte	.LFE64-.LFB64
 3207 0028 00000000 		.4byte	.LFB65
 3208 002c 66000000 		.4byte	.LFE65-.LFB65
 3209 0030 00000000 		.4byte	.LFB66
 3210 0034 22000000 		.4byte	.LFE66-.LFB66
 3211 0038 00000000 		.4byte	.LFB67
 3212 003c CC000000 		.4byte	.LFE67-.LFB67
 3213 0040 00000000 		.4byte	.LFB68
ARM GAS  C:\Users\z80\AppData\Local\Temp\ccQbr6qb.s 			page 60


 3214 0044 B2000000 		.4byte	.LFE68-.LFB68
 3215 0048 00000000 		.4byte	.LFB69
 3216 004c 28000000 		.4byte	.LFE69-.LFB69
 3217 0050 00000000 		.4byte	.LFB70
 3218 0054 20000000 		.4byte	.LFE70-.LFB70
 3219 0058 00000000 		.4byte	.LFB71
 3220 005c 82000000 		.4byte	.LFE71-.LFB71
 3221 0060 00000000 		.4byte	0x0
 3222 0064 00000000 		.4byte	0x0
 3223              		.section	.debug_ranges,"",%progbits
 3224              	.Ldebug_ranges0:
 3225 0000 00000000 		.4byte	.LFB62
 3226 0004 08000000 		.4byte	.LFE62
 3227 0008 00000000 		.4byte	.LFB63
 3228 000c 26000000 		.4byte	.LFE63
 3229 0010 00000000 		.4byte	.LFB64
 3230 0014 74000000 		.4byte	.LFE64
 3231 0018 00000000 		.4byte	.LFB65
 3232 001c 66000000 		.4byte	.LFE65
 3233 0020 00000000 		.4byte	.LFB66
 3234 0024 22000000 		.4byte	.LFE66
 3235 0028 00000000 		.4byte	.LFB67
 3236 002c CC000000 		.4byte	.LFE67
 3237 0030 00000000 		.4byte	.LFB68
 3238 0034 B2000000 		.4byte	.LFE68
 3239 0038 00000000 		.4byte	.LFB69
 3240 003c 28000000 		.4byte	.LFE69
 3241 0040 00000000 		.4byte	.LFB70
 3242 0044 20000000 		.4byte	.LFE70
 3243 0048 00000000 		.4byte	.LFB71
 3244 004c 82000000 		.4byte	.LFE71
 3245 0050 00000000 		.4byte	0x0
 3246 0054 00000000 		.4byte	0x0
 3247              		.section	.debug_str,"MS",%progbits,1
 3248              	.LASF90:
 3249 0000 5354445F 		.ascii	"STD_DUTY_CYCLE\000"
 3249      44555459 
 3249      5F435943 
 3249      4C4500
 3250              	.LASF106:
 3251 000f 646D6172 		.ascii	"dmarx\000"
 3251      7800
 3252              	.LASF93:
 3253 0015 69326364 		.ascii	"i2cdutycycle_t\000"
 3253      75747963 
 3253      79636C65 
 3253      5F7400
 3254              	.LASF83:
 3255 0024 69326373 		.ascii	"i2cstate_t\000"
 3255      74617465 
 3255      5F7400
 3256              	.LASF2:
 3257 002f 73697A65 		.ascii	"size_t\000"
 3257      5F7400
 3258              	.LASF49:
 3259 0036 7264796D 		.ascii	"rdymsg\000"
 3259      736700
ARM GAS  C:\Users\z80\AppData\Local\Temp\ccQbr6qb.s 			page 61


 3260              	.LASF13:
 3261 003d 75696E74 		.ascii	"uint64_t\000"
 3261      36345F74 
 3261      00
 3262              	.LASF68:
 3263 0046 54524953 		.ascii	"TRISE\000"
 3263      4500
 3264              	.LASF112:
 3265 004c 72786362 		.ascii	"rxcb\000"
 3265      00
 3266              	.LASF109:
 3267 0051 72786275 		.ascii	"rxbuf\000"
 3267      6600
 3268              	.LASF14:
 3269 0057 6C6F6E67 		.ascii	"long long unsigned int\000"
 3269      206C6F6E 
 3269      6720756E 
 3269      7369676E 
 3269      65642069 
 3270              	.LASF104:
 3271 006e 61646472 		.ascii	"addr\000"
 3271      00
 3272              	.LASF119:
 3273 0073 69326353 		.ascii	"i2cStart\000"
 3273      74617274 
 3273      00
 3274              	.LASF50:
 3275 007c 65786974 		.ascii	"exitcode\000"
 3275      636F6465 
 3275      00
 3276              	.LASF75:
 3277 0085 76656374 		.ascii	"vector\000"
 3277      6F7200
 3278              	.LASF127:
 3279 008c 69326352 		.ascii	"i2cReleaseBus\000"
 3279      656C6561 
 3279      73654275 
 3279      7300
 3280              	.LASF129:
 3281 009a 49544D5F 		.ascii	"ITM_RxBuffer\000"
 3281      52784275 
 3281      66666572 
 3281      00
 3282              	.LASF120:
 3283 00a7 69326370 		.ascii	"i2cp\000"
 3283      00
 3284              	.LASF24:
 3285 00ac 705F7072 		.ascii	"p_prio\000"
 3285      696F00
 3286              	.LASF123:
 3287 00b3 6932634D 		.ascii	"i2cMasterTransmitTimeout\000"
 3287      61737465 
 3287      72547261 
 3287      6E736D69 
 3287      7454696D 
 3288              	.LASF115:
 3289 00cc 7478696E 		.ascii	"txind\000"
ARM GAS  C:\Users\z80\AppData\Local\Temp\ccQbr6qb.s 			page 62


 3289      6400
 3290              	.LASF12:
 3291 00d2 6C6F6E67 		.ascii	"long long int\000"
 3291      206C6F6E 
 3291      6720696E 
 3291      7400
 3292              	.LASF1:
 3293 00e0 7369676E 		.ascii	"signed char\000"
 3293      65642063 
 3293      68617200 
 3294              	.LASF108:
 3295 00ec 736C6176 		.ascii	"slave_mode\000"
 3295      655F6D6F 
 3295      646500
 3296              	.LASF95:
 3297 00f7 636C6F63 		.ascii	"clock_speed\000"
 3297      6B5F7370 
 3297      65656400 
 3298              	.LASF46:
 3299 0103 6D5F7175 		.ascii	"m_queue\000"
 3299      65756500 
 3300              	.LASF131:
 3301 010b 2E2E2F63 		.ascii	"../chibios_2.4.x/os/hal/src/i2c.c\000"
 3301      68696269 
 3301      6F735F32 
 3301      2E342E78 
 3301      2F6F732F 
 3302              	.LASF84:
 3303 012d 69326361 		.ascii	"i2caddr_t\000"
 3303      6464725F 
 3303      7400
 3304              	.LASF99:
 3305 0137 73746174 		.ascii	"state\000"
 3305      6500
 3306              	.LASF9:
 3307 013d 6C6F6E67 		.ascii	"long int\000"
 3307      20696E74 
 3307      00
 3308              	.LASF16:
 3309 0146 74737461 		.ascii	"tstate_t\000"
 3309      74655F74 
 3309      00
 3310              	.LASF103:
 3311 014f 74687265 		.ascii	"thread\000"
 3311      616400
 3312              	.LASF97:
 3313 0156 49324343 		.ascii	"I2CConfig\000"
 3313      6F6E6669 
 3313      6700
 3314              	.LASF32:
 3315 0160 705F7469 		.ascii	"p_time\000"
 3315      6D6500
 3316              	.LASF26:
 3317 0167 705F6E65 		.ascii	"p_newer\000"
 3317      77657200 
 3318              	.LASF107:
 3319 016f 646D6174 		.ascii	"dmatx\000"
ARM GAS  C:\Users\z80\AppData\Local\Temp\ccQbr6qb.s 			page 63


 3319      7800
 3320              	.LASF88:
 3321 0175 4F504D4F 		.ascii	"OPMODE_SMBUS_HOST\000"
 3321      44455F53 
 3321      4D425553 
 3321      5F484F53 
 3321      5400
 3322              	.LASF41:
 3323 0187 72656761 		.ascii	"regarm_t\000"
 3323      726D5F74 
 3323      00
 3324              	.LASF74:
 3325 0190 73656C66 		.ascii	"selfindex\000"
 3325      696E6465 
 3325      7800
 3326              	.LASF94:
 3327 019a 6F705F6D 		.ascii	"op_mode\000"
 3327      6F646500 
 3328              	.LASF21:
 3329 01a2 54687265 		.ascii	"Thread\000"
 3329      616400
 3330              	.LASF29:
 3331 01a9 705F7374 		.ascii	"p_stklimit\000"
 3331      6B6C696D 
 3331      697400
 3332              	.LASF0:
 3333 01b4 756E7369 		.ascii	"unsigned int\000"
 3333      676E6564 
 3333      20696E74 
 3333      00
 3334              	.LASF113:
 3335 01c1 74786275 		.ascii	"txbuf\000"
 3335      6600
 3336              	.LASF55:
 3337 01c7 43504152 		.ascii	"CPAR\000"
 3337      00
 3338              	.LASF34:
 3339 01cc 705F6D73 		.ascii	"p_msgqueue\000"
 3339      67717565 
 3339      756500
 3340              	.LASF124:
 3341 01d7 74696D65 		.ascii	"timeout\000"
 3341      6F757400 
 3342              	.LASF57:
 3343 01df 444D415F 		.ascii	"DMA_Channel_TypeDef\000"
 3343      4368616E 
 3343      6E656C5F 
 3343      54797065 
 3343      44656600 
 3344              	.LASF73:
 3345 01f3 69736869 		.ascii	"ishift\000"
 3345      667400
 3346              	.LASF87:
 3347 01fa 4F504D4F 		.ascii	"OPMODE_SMBUS_DEVICE\000"
 3347      44455F53 
 3347      4D425553 
 3347      5F444556 
ARM GAS  C:\Users\z80\AppData\Local\Temp\ccQbr6qb.s 			page 64


 3347      49434500 
 3348              	.LASF7:
 3349 020e 73686F72 		.ascii	"short unsigned int\000"
 3349      7420756E 
 3349      7369676E 
 3349      65642069 
 3349      6E7400
 3350              	.LASF98:
 3351 0221 49324344 		.ascii	"I2CDriver\000"
 3351      72697665 
 3351      7200
 3352              	.LASF18:
 3353 022b 6D73675F 		.ascii	"msg_t\000"
 3353      7400
 3354              	.LASF15:
 3355 0231 746D6F64 		.ascii	"tmode_t\000"
 3355      655F7400 
 3356              	.LASF6:
 3357 0239 75696E74 		.ascii	"uint16_t\000"
 3357      31365F74 
 3357      00
 3358              	.LASF40:
 3359 0242 54687265 		.ascii	"ThreadsList\000"
 3359      6164734C 
 3359      69737400 
 3360              	.LASF19:
 3361 024e 6576656E 		.ascii	"eventmask_t\000"
 3361      746D6173 
 3361      6B5F7400 
 3362              	.LASF5:
 3363 025a 73686F72 		.ascii	"short int\000"
 3363      7420696E 
 3363      7400
 3364              	.LASF42:
 3365 0264 73746B61 		.ascii	"stkalign_t\000"
 3365      6C69676E 
 3365      5F7400
 3366              	.LASF78:
 3367 026f 4932435F 		.ascii	"I2C_STOP\000"
 3367      53544F50 
 3367      00
 3368              	.LASF45:
 3369 0278 4D757465 		.ascii	"Mutex\000"
 3369      7800
 3370              	.LASF101:
 3371 027e 6572726F 		.ascii	"errors\000"
 3371      727300
 3372              	.LASF96:
 3373 0285 64757479 		.ascii	"duty_cycle\000"
 3373      5F637963 
 3373      6C6500
 3374              	.LASF116:
 3375 0290 74786362 		.ascii	"txcb\000"
 3375      00
 3376              	.LASF27:
 3377 0295 705F6F6C 		.ascii	"p_older\000"
 3377      64657200 
ARM GAS  C:\Users\z80\AppData\Local\Temp\ccQbr6qb.s 			page 65


 3378              	.LASF110:
 3379 029d 72786279 		.ascii	"rxbytes\000"
 3379      74657300 
 3380              	.LASF121:
 3381 02a5 69326353 		.ascii	"i2cStop\000"
 3381      746F7000 
 3382              	.LASF39:
 3383 02ad 54687265 		.ascii	"ThreadsQueue\000"
 3383      61647351 
 3383      75657565 
 3383      00
 3384              	.LASF132:
 3385 02ba 433A5C70 		.ascii	"C:\\projects\\voltamper.git\\firmware\\voltamp\000"
 3385      726F6A65 
 3385      6374735C 
 3385      766F6C74 
 3385      616D7065 
 3386              	.LASF86:
 3387 02e5 4F504D4F 		.ascii	"OPMODE_I2C\000"
 3387      44455F49 
 3387      324300
 3388              	.LASF92:
 3389 02f0 46415354 		.ascii	"FAST_DUTY_CYCLE_16_9\000"
 3389      5F445554 
 3389      595F4359 
 3389      434C455F 
 3389      31365F39 
 3390              	.LASF58:
 3391 0305 52455345 		.ascii	"RESERVED0\000"
 3391      52564544 
 3391      3000
 3392              	.LASF59:
 3393 030f 52455345 		.ascii	"RESERVED1\000"
 3393      52564544 
 3393      3100
 3394              	.LASF61:
 3395 0319 52455345 		.ascii	"RESERVED2\000"
 3395      52564544 
 3395      3200
 3396              	.LASF63:
 3397 0323 52455345 		.ascii	"RESERVED3\000"
 3397      52564544 
 3397      3300
 3398              	.LASF64:
 3399 032d 52455345 		.ascii	"RESERVED4\000"
 3399      52564544 
 3399      3400
 3400              	.LASF23:
 3401 0337 705F7072 		.ascii	"p_prev\000"
 3401      657600
 3402              	.LASF66:
 3403 033e 52455345 		.ascii	"RESERVED6\000"
 3403      52564544 
 3403      3600
 3404              	.LASF67:
 3405 0348 52455345 		.ascii	"RESERVED7\000"
 3405      52564544 
ARM GAS  C:\Users\z80\AppData\Local\Temp\ccQbr6qb.s 			page 66


 3405      3700
 3406              	.LASF69:
 3407 0352 52455345 		.ascii	"RESERVED8\000"
 3407      52564544 
 3407      3800
 3408              	.LASF17:
 3409 035c 74707269 		.ascii	"tprio_t\000"
 3409      6F5F7400 
 3410              	.LASF80:
 3411 0364 4932435F 		.ascii	"I2C_ACTIVE_TX\000"
 3411      41435449 
 3411      56455F54 
 3411      5800
 3412              	.LASF85:
 3413 0372 69326366 		.ascii	"i2cflags_t\000"
 3413      6C616773 
 3413      5F7400
 3414              	.LASF102:
 3415 037d 6D757465 		.ascii	"mutex\000"
 3415      7800
 3416              	.LASF8:
 3417 0383 696E7433 		.ascii	"int32_t\000"
 3417      325F7400 
 3418              	.LASF4:
 3419 038b 756E7369 		.ascii	"unsigned char\000"
 3419      676E6564 
 3419      20636861 
 3419      7200
 3420              	.LASF76:
 3421 0399 73746D33 		.ascii	"stm32_dma_stream_t\000"
 3421      325F646D 
 3421      615F7374 
 3421      7265616D 
 3421      5F7400
 3422              	.LASF37:
 3423 03ac 705F6D74 		.ascii	"p_mtxlist\000"
 3423      786C6973 
 3423      7400
 3424              	.LASF77:
 3425 03b6 4932435F 		.ascii	"I2C_UNINIT\000"
 3425      554E494E 
 3425      495400
 3426              	.LASF30:
 3427 03c1 705F7374 		.ascii	"p_state\000"
 3427      61746500 
 3428              	.LASF122:
 3429 03c9 69326347 		.ascii	"i2cGetErrors\000"
 3429      65744572 
 3429      726F7273 
 3429      00
 3430              	.LASF52:
 3431 03d6 65776D61 		.ascii	"ewmask\000"
 3431      736B00
 3432              	.LASF22:
 3433 03dd 705F6E65 		.ascii	"p_next\000"
 3433      787400
 3434              	.LASF31:
ARM GAS  C:\Users\z80\AppData\Local\Temp\ccQbr6qb.s 			page 67


 3435 03e4 705F666C 		.ascii	"p_flags\000"
 3435      61677300 
 3436              	.LASF91:
 3437 03ec 46415354 		.ascii	"FAST_DUTY_CYCLE_2\000"
 3437      5F445554 
 3437      595F4359 
 3437      434C455F 
 3437      3200
 3438              	.LASF71:
 3439 03fe 6368616E 		.ascii	"channel\000"
 3439      6E656C00 
 3440              	.LASF82:
 3441 0406 4932435F 		.ascii	"I2C_LOCKED\000"
 3441      4C4F434B 
 3441      454400
 3442              	.LASF36:
 3443 0411 705F6570 		.ascii	"p_epending\000"
 3443      656E6469 
 3443      6E6700
 3444              	.LASF72:
 3445 041c 69666372 		.ascii	"ifcr\000"
 3445      00
 3446              	.LASF65:
 3447 0421 52455345 		.ascii	"RESERVED5\000"
 3447      52564544 
 3447      3500
 3448              	.LASF10:
 3449 042b 75696E74 		.ascii	"uint32_t\000"
 3449      33325F74 
 3449      00
 3450              	.LASF128:
 3451 0434 69326353 		.ascii	"i2cSlaveIoTimeout\000"
 3451      6C617665 
 3451      496F5469 
 3451      6D656F75 
 3451      7400
 3452              	.LASF81:
 3453 0446 4932435F 		.ascii	"I2C_ACTIVE_RX\000"
 3453      41435449 
 3453      56455F52 
 3453      5800
 3454              	.LASF11:
 3455 0454 6C6F6E67 		.ascii	"long unsigned int\000"
 3455      20756E73 
 3455      69676E65 
 3455      6420696E 
 3455      7400
 3456              	.LASF53:
 3457 0466 63686172 		.ascii	"char\000"
 3457      00
 3458              	.LASF100:
 3459 046b 636F6E66 		.ascii	"config\000"
 3459      696700
 3460              	.LASF117:
 3461 0472 54493263 		.ascii	"TI2cSlaveCb\000"
 3461      536C6176 
 3461      65436200 
ARM GAS  C:\Users\z80\AppData\Local\Temp\ccQbr6qb.s 			page 68


 3462              	.LASF48:
 3463 047e 6D5F6E65 		.ascii	"m_next\000"
 3463      787400
 3464              	.LASF20:
 3465 0485 73797374 		.ascii	"systime_t\000"
 3465      696D655F 
 3465      7400
 3466              	.LASF38:
 3467 048f 705F7265 		.ascii	"p_realprio\000"
 3467      616C7072 
 3467      696F00
 3468              	.LASF79:
 3469 049a 4932435F 		.ascii	"I2C_READY\000"
 3469      52454144 
 3469      5900
 3470              	.LASF44:
 3471 04a4 636F6E74 		.ascii	"context\000"
 3471      65787400 
 3472              	.LASF43:
 3473 04ac 696E7463 		.ascii	"intctx\000"
 3473      747800
 3474              	.LASF126:
 3475 04b3 69326341 		.ascii	"i2cAcquireBus\000"
 3475      63717569 
 3475      72654275 
 3475      7300
 3476              	.LASF54:
 3477 04c1 434E4454 		.ascii	"CNDTR\000"
 3477      5200
 3478              	.LASF56:
 3479 04c7 434D4152 		.ascii	"CMAR\000"
 3479      00
 3480              	.LASF3:
 3481 04cc 75696E74 		.ascii	"uint8_t\000"
 3481      385F7400 
 3482              	.LASF60:
 3483 04d4 4F415231 		.ascii	"OAR1\000"
 3483      00
 3484              	.LASF62:
 3485 04d9 4F415232 		.ascii	"OAR2\000"
 3485      00
 3486              	.LASF125:
 3487 04de 6932634D 		.ascii	"i2cMasterReceiveTimeout\000"
 3487      61737465 
 3487      72526563 
 3487      65697665 
 3487      54696D65 
 3488              	.LASF105:
 3489 04f6 646D616D 		.ascii	"dmamode\000"
 3489      6F646500 
 3490              	.LASF130:
 3491 04fe 474E5520 		.ascii	"GNU C 4.5.0\000"
 3491      4320342E 
 3491      352E3000 
 3492              	.LASF51:
 3493 050a 77746F62 		.ascii	"wtobjp\000"
 3493      6A7000
ARM GAS  C:\Users\z80\AppData\Local\Temp\ccQbr6qb.s 			page 69


 3494              	.LASF28:
 3495 0511 705F6E61 		.ascii	"p_name\000"
 3495      6D6500
 3496              	.LASF133:
 3497 0518 69326349 		.ascii	"i2cInit\000"
 3497      6E697400 
 3498              	.LASF35:
 3499 0520 705F6D73 		.ascii	"p_msg\000"
 3499      6700
 3500              	.LASF70:
 3501 0526 4932435F 		.ascii	"I2C_TypeDef\000"
 3501      54797065 
 3501      44656600 
 3502              	.LASF89:
 3503 0532 6932636F 		.ascii	"i2copmode_t\000"
 3503      706D6F64 
 3503      655F7400 
 3504              	.LASF118:
 3505 053e 6932634F 		.ascii	"i2cObjectInit\000"
 3505      626A6563 
 3505      74496E69 
 3505      7400
 3506              	.LASF111:
 3507 054c 7278696E 		.ascii	"rxind\000"
 3507      6400
 3508              	.LASF47:
 3509 0552 6D5F6F77 		.ascii	"m_owner\000"
 3509      6E657200 
 3510              	.LASF25:
 3511 055a 705F6374 		.ascii	"p_ctx\000"
 3511      7800
 3512              	.LASF33:
 3513 0560 705F7761 		.ascii	"p_waiting\000"
 3513      6974696E 
 3513      6700
 3514              	.LASF114:
 3515 056a 74786279 		.ascii	"txbytes\000"
 3515      74657300 
 3516              		.ident	"GCC: (GNU) 4.5.0"
ARM GAS  C:\Users\z80\AppData\Local\Temp\ccQbr6qb.s 			page 70


DEFINED SYMBOLS
                            *ABS*:00000000 i2c.c
C:\Users\z80\AppData\Local\Temp\ccQbr6qb.s:24     .text.i2cInit:00000000 $t
C:\Users\z80\AppData\Local\Temp\ccQbr6qb.s:30     .text.i2cInit:00000000 i2cInit
C:\Users\z80\AppData\Local\Temp\ccQbr6qb.s:50     .text.i2cObjectInit:00000000 $t
C:\Users\z80\AppData\Local\Temp\ccQbr6qb.s:56     .text.i2cObjectInit:00000000 i2cObjectInit
C:\Users\z80\AppData\Local\Temp\ccQbr6qb.s:90     .rodata:00000000 $d
C:\Users\z80\AppData\Local\Temp\ccQbr6qb.s:91     .rodata:00000000 .LC0
C:\Users\z80\AppData\Local\Temp\ccQbr6qb.s:94     .rodata:00000010 .LC1
C:\Users\z80\AppData\Local\Temp\ccQbr6qb.s:97     .text.i2cStart:00000000 $t
C:\Users\z80\AppData\Local\Temp\ccQbr6qb.s:103    .text.i2cStart:00000000 i2cStart
C:\Users\z80\AppData\Local\Temp\ccQbr6qb.s:189    .rodata:00000020 .LC2
C:\Users\z80\AppData\Local\Temp\ccQbr6qb.s:192    .rodata:0000002c .LC3
C:\Users\z80\AppData\Local\Temp\ccQbr6qb.s:195    .text.i2cStop:00000000 $t
C:\Users\z80\AppData\Local\Temp\ccQbr6qb.s:201    .text.i2cStop:00000000 i2cStop
C:\Users\z80\AppData\Local\Temp\ccQbr6qb.s:277    .rodata:0000003c .LC4
C:\Users\z80\AppData\Local\Temp\ccQbr6qb.s:280    .text.i2cGetErrors:00000000 $t
C:\Users\z80\AppData\Local\Temp\ccQbr6qb.s:286    .text.i2cGetErrors:00000000 i2cGetErrors
C:\Users\z80\AppData\Local\Temp\ccQbr6qb.s:321    .rodata:00000050 .LC5
C:\Users\z80\AppData\Local\Temp\ccQbr6qb.s:324    .rodata:00000070 .LC6
C:\Users\z80\AppData\Local\Temp\ccQbr6qb.s:327    .text.i2cMasterTransmitTimeout:00000000 $t
C:\Users\z80\AppData\Local\Temp\ccQbr6qb.s:333    .text.i2cMasterTransmitTimeout:00000000 i2cMasterTransmitTimeout
C:\Users\z80\AppData\Local\Temp\ccQbr6qb.s:467    .rodata:00000090 .LC7
C:\Users\z80\AppData\Local\Temp\ccQbr6qb.s:470    .rodata:000000ac .LC8
C:\Users\z80\AppData\Local\Temp\ccQbr6qb.s:473    .text.i2cMasterReceiveTimeout:00000000 $t
C:\Users\z80\AppData\Local\Temp\ccQbr6qb.s:479    .text.i2cMasterReceiveTimeout:00000000 i2cMasterReceiveTimeout
C:\Users\z80\AppData\Local\Temp\ccQbr6qb.s:596    .rodata:000000c4 .LC9
C:\Users\z80\AppData\Local\Temp\ccQbr6qb.s:599    .text.i2cAcquireBus:00000000 $t
C:\Users\z80\AppData\Local\Temp\ccQbr6qb.s:605    .text.i2cAcquireBus:00000000 i2cAcquireBus
C:\Users\z80\AppData\Local\Temp\ccQbr6qb.s:641    .rodata:000000d8 .LC10
C:\Users\z80\AppData\Local\Temp\ccQbr6qb.s:644    .text.i2cReleaseBus:00000000 $t
C:\Users\z80\AppData\Local\Temp\ccQbr6qb.s:650    .text.i2cReleaseBus:00000000 i2cReleaseBus
C:\Users\z80\AppData\Local\Temp\ccQbr6qb.s:682    .text.i2cSlaveIoTimeout:00000000 $t
C:\Users\z80\AppData\Local\Temp\ccQbr6qb.s:688    .text.i2cSlaveIoTimeout:00000000 i2cSlaveIoTimeout
                     .debug_frame:00000010 $d

UNDEFINED SYMBOLS
i2c_lld_init
chMtxInit
chDbgPanic
dbg_check_lock
i2c_lld_start
dbg_check_unlock
i2c_lld_stop
i2c_lld_master_transmit_timeout
i2c_lld_master_receive_timeout
chMtxLock
chMtxUnlock
i2c_lld_slave_io_timeout
