ARM GAS  /tmp/ccdGSeGj.s 			page 1


   1              		.syntax unified
   2              		.cpu cortex-m3
   3              		.fpu softvfp
   4              		.eabi_attribute 20, 1
   5              		.eabi_attribute 21, 1
   6              		.eabi_attribute 23, 3
   7              		.eabi_attribute 24, 1
   8              		.eabi_attribute 25, 1
   9              		.eabi_attribute 26, 1
  10              		.eabi_attribute 30, 6
  11              		.eabi_attribute 18, 4
  12              		.thumb
  13              		.file	"i2c.c"
  20 0000 16040000 		.text
  20      02009002 
  20      00000201 
  20      FB0E0D00 
  20      01010101 
  21              	.Ltext0:
  22              		.cfi_sections	.debug_frame
  23              		.section	.text.i2cInit,"ax",%progbits
  24              		.align	2
  25              		.p2align 4,,15
  26              		.global	i2cInit
  27              		.thumb
  28              		.thumb_func
  29              		.type	i2cInit, %function
  30              	i2cInit:
  31              	.LFB62:
  32              		.file 1 "../chibios_2.4.x/os/hal/src/i2c.c"
  33              		.loc 1 71 0
  34              		.cfi_startproc
  35              		@ args = 0, pretend = 0, frame = 0
  36              		@ frame_needed = 0, uses_anonymous_args = 0
  37 0000 08B5     		push	{r3, lr}
  38              	.LCFI0:
  39              		.cfi_def_cfa_offset 8
  40              		.loc 1 72 0
  41              		.cfi_offset 14, -4
  42              		.cfi_offset 3, -8
  43 0002 FFF7FEFF 		bl	i2c_lld_init
  44              		.loc 1 73 0
  45 0006 08BD     		pop	{r3, pc}
  46              		.cfi_endproc
  47              	.LFE62:
  48              		.size	i2cInit, .-i2cInit
  49 0008 AFF30080 		.section	.text.i2cObjectInit,"ax",%progbits
  49      AFF30080 
  50              		.align	2
  51              		.p2align 4,,15
  52              		.global	i2cObjectInit
ARM GAS  /tmp/ccdGSeGj.s 			page 2


  53              		.thumb
  54              		.thumb_func
  55              		.type	i2cObjectInit, %function
  56              	i2cObjectInit:
  57              	.LFB63:
  58              		.loc 1 82 0
  59              		.cfi_startproc
  60              		@ args = 0, pretend = 0, frame = 8
  61              		@ frame_needed = 0, uses_anonymous_args = 0
  62 0000 00B5     		push	{lr}
  63              	.LCFI1:
  64              		.cfi_def_cfa_offset 4
  65 0002 83B0     		sub	sp, sp, #12
  66              	.LCFI2:
  67              		.cfi_def_cfa_offset 16
  68 0004 0190     		str	r0, [sp, #4]
  69              		.loc 1 84 0
  70 0006 019B     		ldr	r3, [sp, #4]
  71 0008 4FF00102 		mov	r2, #1
  72 000c 1A70     		strb	r2, [r3, #0]
  73              		.loc 1 85 0
  74 000e 019B     		ldr	r3, [sp, #4]
  75 0010 4FF00002 		mov	r2, #0
  76 0014 5A60     		str	r2, [r3, #4]
  77              		.loc 1 89 0
  78 0016 019B     		ldr	r3, [sp, #4]
  79 0018 03F10C03 		add	r3, r3, #12
  80 001c 1846     		mov	r0, r3
  81              		.cfi_offset 14, -4
  82 001e FFF7FEFF 		bl	chMtxInit
  83              		.loc 1 98 0
  84 0022 03B0     		add	sp, sp, #12
  85 0024 00BD     		pop	{pc}
  86              		.cfi_endproc
  87              	.LFE63:
  88              		.size	i2cObjectInit, .-i2cObjectInit
  89 0026 00BFAFF3 		.section	.rodata
  89      0080AFF3 
  89      0080
  90              		.align	2
  91              	.LC0:
  92 0000 22693263 		.ascii	"\"i2cStart\"()\000"
  92      53746172 
  92      74222829 
  92      00
  93 000d 000000   		.align	2
  94              	.LC1:
  95 0010 69326353 		.ascii	"i2cStart(), #1\000"
  95      74617274 
  95      28292C20 
  95      233100
  96              		.section	.text.i2cStart,"ax",%progbits
  97              		.align	2
  98              		.p2align 4,,15
  99              		.global	i2cStart
 100              		.thumb
 101              		.thumb_func
ARM GAS  /tmp/ccdGSeGj.s 			page 3


 102              		.type	i2cStart, %function
 103              	i2cStart:
 104              	.LFB64:
 105              		.loc 1 108 0
 106              		.cfi_startproc
 107              		@ args = 0, pretend = 0, frame = 8
 108              		@ frame_needed = 0, uses_anonymous_args = 0
 109 0000 00B5     		push	{lr}
 110              	.LCFI3:
 111              		.cfi_def_cfa_offset 4
 112 0002 83B0     		sub	sp, sp, #12
 113              	.LCFI4:
 114              		.cfi_def_cfa_offset 16
 115 0004 0190     		str	r0, [sp, #4]
 116 0006 0091     		str	r1, [sp, #0]
 117              		.loc 1 110 0
 118 0008 019B     		ldr	r3, [sp, #4]
 119 000a 002B     		cmp	r3, #0
 120 000c 02D0     		beq	.L4
 121              		.cfi_offset 14, -4
 122              		.loc 1 110 0 is_stmt 0 discriminator 2
 123 000e 009B     		ldr	r3, [sp, #0]
 124 0010 002B     		cmp	r3, #0
 125 0012 02D1     		bne	.L5
 126              	.L4:
 127              		.loc 1 110 0 discriminator 1
 128 0014 1448     		ldr	r0, .L7
 129 0016 FFF7FEFF 		bl	chDbgPanic
 130              	.L5:
 131              		.loc 1 111 0 is_stmt 1
 132 001a 019B     		ldr	r3, [sp, #4]
 133 001c 1B78     		ldrb	r3, [r3, #0]	@ zero_extendqisi2
 134 001e 012B     		cmp	r3, #1
 135 0020 0AD0     		beq	.L6
 136              		.loc 1 111 0 is_stmt 0 discriminator 1
 137 0022 019B     		ldr	r3, [sp, #4]
 138 0024 1B78     		ldrb	r3, [r3, #0]	@ zero_extendqisi2
 139 0026 022B     		cmp	r3, #2
 140 0028 06D0     		beq	.L6
 141              		.loc 1 111 0 discriminator 2
 142 002a 019B     		ldr	r3, [sp, #4]
 143 002c 1B78     		ldrb	r3, [r3, #0]	@ zero_extendqisi2
 144 002e 052B     		cmp	r3, #5
 145 0030 02D0     		beq	.L6
 146              		.loc 1 111 0 discriminator 3
 147 0032 0E48     		ldr	r0, .L7+4
 148 0034 FFF7FEFF 		bl	chDbgPanic
 149              	.L6:
 150              	.LBB2:
 151              		.loc 1 116 0 is_stmt 1
 152 0038 4FF02003 		mov	r3, #32
 153              	@ 116 "../chibios_2.4.x/os/hal/src/i2c.c" 1
 154 003c 83F31188 		msr     BASEPRI, r3
 155              	@ 0 "" 2
 156              		.thumb
 157              	.LBE2:
 158 0040 FFF7FEFF 		bl	dbg_check_lock
ARM GAS  /tmp/ccdGSeGj.s 			page 4


 159              		.loc 1 117 0
 160 0044 019B     		ldr	r3, [sp, #4]
 161 0046 009A     		ldr	r2, [sp, #0]
 162 0048 5A60     		str	r2, [r3, #4]
 163              		.loc 1 118 0
 164 004a 0198     		ldr	r0, [sp, #4]
 165 004c FFF7FEFF 		bl	i2c_lld_start
 166              		.loc 1 119 0
 167 0050 019B     		ldr	r3, [sp, #4]
 168 0052 4FF00202 		mov	r2, #2
 169 0056 1A70     		strb	r2, [r3, #0]
 170              		.loc 1 120 0
 171 0058 FFF7FEFF 		bl	dbg_check_unlock
 172              	.LBB3:
 173 005c 4FF00003 		mov	r3, #0
 174              	@ 120 "../chibios_2.4.x/os/hal/src/i2c.c" 1
 175 0060 83F31188 		msr     BASEPRI, r3
 176              	@ 0 "" 2
 177              		.thumb
 178              	.LBE3:
 179              		.loc 1 121 0
 180 0064 03B0     		add	sp, sp, #12
 181 0066 00BD     		pop	{pc}
 182              	.L8:
 183              		.align	2
 184              	.L7:
 185 0068 00000000 		.word	.LC0
 186 006c 10000000 		.word	.LC1
 187              		.cfi_endproc
 188              	.LFE64:
 189              		.size	i2cStart, .-i2cStart
 190              		.section	.rodata
 191 001f 00       		.align	2
 192              	.LC2:
 193 0020 22693263 		.ascii	"\"i2cStop\"()\000"
 193      53746F70 
 193      22282900 
 194              		.align	2
 195              	.LC3:
 196 002c 69326353 		.ascii	"i2cStop(), #1\000"
 196      746F7028 
 196      292C2023 
 196      3100
 197              		.section	.text.i2cStop,"ax",%progbits
 198              		.align	2
 199              		.p2align 4,,15
 200              		.global	i2cStop
 201              		.thumb
 202              		.thumb_func
 203              		.type	i2cStop, %function
 204              	i2cStop:
 205              	.LFB65:
 206              		.loc 1 130 0
 207              		.cfi_startproc
 208              		@ args = 0, pretend = 0, frame = 8
 209              		@ frame_needed = 0, uses_anonymous_args = 0
 210 0000 00B5     		push	{lr}
ARM GAS  /tmp/ccdGSeGj.s 			page 5


 211              	.LCFI5:
 212              		.cfi_def_cfa_offset 4
 213 0002 83B0     		sub	sp, sp, #12
 214              	.LCFI6:
 215              		.cfi_def_cfa_offset 16
 216 0004 0190     		str	r0, [sp, #4]
 217              		.loc 1 132 0
 218 0006 019B     		ldr	r3, [sp, #4]
 219 0008 002B     		cmp	r3, #0
 220 000a 02D1     		bne	.L10
 221              		.cfi_offset 14, -4
 222              		.loc 1 132 0 is_stmt 0 discriminator 1
 223 000c 1348     		ldr	r0, .L12
 224 000e FFF7FEFF 		bl	chDbgPanic
 225              	.L10:
 226              		.loc 1 133 0 is_stmt 1
 227 0012 019B     		ldr	r3, [sp, #4]
 228 0014 1B78     		ldrb	r3, [r3, #0]	@ zero_extendqisi2
 229 0016 012B     		cmp	r3, #1
 230 0018 0AD0     		beq	.L11
 231              		.loc 1 133 0 is_stmt 0 discriminator 1
 232 001a 019B     		ldr	r3, [sp, #4]
 233 001c 1B78     		ldrb	r3, [r3, #0]	@ zero_extendqisi2
 234 001e 022B     		cmp	r3, #2
 235 0020 06D0     		beq	.L11
 236              		.loc 1 133 0 discriminator 2
 237 0022 019B     		ldr	r3, [sp, #4]
 238 0024 1B78     		ldrb	r3, [r3, #0]	@ zero_extendqisi2
 239 0026 052B     		cmp	r3, #5
 240 0028 02D0     		beq	.L11
 241              		.loc 1 133 0 discriminator 3
 242 002a 0D48     		ldr	r0, .L12+4
 243 002c FFF7FEFF 		bl	chDbgPanic
 244              	.L11:
 245              	.LBB4:
 246              		.loc 1 138 0 is_stmt 1
 247 0030 4FF02003 		mov	r3, #32
 248              	@ 138 "../chibios_2.4.x/os/hal/src/i2c.c" 1
 249 0034 83F31188 		msr     BASEPRI, r3
 250              	@ 0 "" 2
 251              		.thumb
 252              	.LBE4:
 253 0038 FFF7FEFF 		bl	dbg_check_lock
 254              		.loc 1 139 0
 255 003c 0198     		ldr	r0, [sp, #4]
 256 003e FFF7FEFF 		bl	i2c_lld_stop
 257              		.loc 1 140 0
 258 0042 019B     		ldr	r3, [sp, #4]
 259 0044 4FF00102 		mov	r2, #1
 260 0048 1A70     		strb	r2, [r3, #0]
 261              		.loc 1 141 0
 262 004a FFF7FEFF 		bl	dbg_check_unlock
 263              	.LBB5:
 264 004e 4FF00003 		mov	r3, #0
 265              	@ 141 "../chibios_2.4.x/os/hal/src/i2c.c" 1
 266 0052 83F31188 		msr     BASEPRI, r3
 267              	@ 0 "" 2
ARM GAS  /tmp/ccdGSeGj.s 			page 6


 268              		.thumb
 269              	.LBE5:
 270              		.loc 1 142 0
 271 0056 03B0     		add	sp, sp, #12
 272 0058 00BD     		pop	{pc}
 273              	.L13:
 274 005a 00BF     		.align	2
 275              	.L12:
 276 005c 20000000 		.word	.LC2
 277 0060 2C000000 		.word	.LC3
 278              		.cfi_endproc
 279              	.LFE65:
 280              		.size	i2cStop, .-i2cStop
 281 0064 AFF30080 		.section	.rodata
 281      AFF30080 
 281      AFF30080 
 282 003a 0000     		.align	2
 283              	.LC4:
 284 003c 22693263 		.ascii	"\"i2cGetErrors\"()\000"
 284      47657445 
 284      72726F72 
 284      73222829 
 284      00
 285              		.section	.text.i2cGetErrors,"ax",%progbits
 286              		.align	2
 287              		.p2align 4,,15
 288              		.global	i2cGetErrors
 289              		.thumb
 290              		.thumb_func
 291              		.type	i2cGetErrors, %function
 292              	i2cGetErrors:
 293              	.LFB66:
 294              		.loc 1 152 0
 295              		.cfi_startproc
 296              		@ args = 0, pretend = 0, frame = 8
 297              		@ frame_needed = 0, uses_anonymous_args = 0
 298 0000 00B5     		push	{lr}
 299              	.LCFI7:
 300              		.cfi_def_cfa_offset 4
 301 0002 83B0     		sub	sp, sp, #12
 302              	.LCFI8:
 303              		.cfi_def_cfa_offset 16
 304 0004 0190     		str	r0, [sp, #4]
 305              		.loc 1 154 0
 306 0006 019B     		ldr	r3, [sp, #4]
 307 0008 002B     		cmp	r3, #0
 308 000a 02D1     		bne	.L15
 309              		.cfi_offset 14, -4
 310              		.loc 1 154 0 is_stmt 0 discriminator 1
 311 000c 0348     		ldr	r0, .L16
 312 000e FFF7FEFF 		bl	chDbgPanic
 313              	.L15:
 314              		.loc 1 156 0 is_stmt 1
 315 0012 019B     		ldr	r3, [sp, #4]
 316 0014 9B68     		ldr	r3, [r3, #8]
 317              		.loc 1 157 0
 318 0016 1846     		mov	r0, r3
ARM GAS  /tmp/ccdGSeGj.s 			page 7


 319 0018 03B0     		add	sp, sp, #12
 320 001a 00BD     		pop	{pc}
 321              	.L17:
 322              		.align	2
 323              	.L16:
 324 001c 3C000000 		.word	.LC4
 325              		.cfi_endproc
 326              	.LFE66:
 327              		.size	i2cGetErrors, .-i2cGetErrors
 328              		.section	.rodata
 329 004d 000000   		.align	2
 330              	.LC5:
 331 0050 22693263 		.ascii	"\"i2cMasterTransmitTimeout\"()\000"
 331      4D617374 
 331      65725472 
 331      616E736D 
 331      69745469 
 332 006d 000000   		.align	2
 333              	.LC6:
 334 0070 6932634D 		.ascii	"i2cMasterTransmitTimeout(), #1\000"
 334      61737465 
 334      72547261 
 334      6E736D69 
 334      7454696D 
 335              		.section	.text.i2cMasterTransmitTimeout,"ax",%progbits
 336              		.align	2
 337              		.p2align 4,,15
 338              		.global	i2cMasterTransmitTimeout
 339              		.thumb
 340              		.thumb_func
 341              		.type	i2cMasterTransmitTimeout, %function
 342              	i2cMasterTransmitTimeout:
 343              	.LFB67:
 344              		.loc 1 191 0
 345              		.cfi_startproc
 346              		@ args = 12, pretend = 0, frame = 24
 347              		@ frame_needed = 0, uses_anonymous_args = 0
 348 0000 00B5     		push	{lr}
 349              	.LCFI9:
 350              		.cfi_def_cfa_offset 4
 351 0002 8BB0     		sub	sp, sp, #44
 352              	.LCFI10:
 353              		.cfi_def_cfa_offset 48
 354 0004 0790     		str	r0, [sp, #28]
 355 0006 0592     		str	r2, [sp, #20]
 356 0008 0493     		str	r3, [sp, #16]
 357 000a 0B46     		mov	r3, r1	@ movhi
 358 000c ADF81A30 		strh	r3, [sp, #26]	@ movhi
 359              		.loc 1 194 0
 360 0010 079B     		ldr	r3, [sp, #28]
 361 0012 002B     		cmp	r3, #0
 362 0014 15D0     		beq	.L19
 363              		.cfi_offset 14, -4
 364              		.loc 1 194 0 is_stmt 0 discriminator 2
 365 0016 BDF81A30 		ldrh	r3, [sp, #26]
 366 001a 002B     		cmp	r3, #0
 367 001c 11D0     		beq	.L19
ARM GAS  /tmp/ccdGSeGj.s 			page 8


 368              		.loc 1 194 0 discriminator 3
 369 001e 049B     		ldr	r3, [sp, #16]
 370 0020 002B     		cmp	r3, #0
 371 0022 0ED0     		beq	.L19
 372              		.loc 1 194 0 discriminator 4
 373 0024 059B     		ldr	r3, [sp, #20]
 374 0026 002B     		cmp	r3, #0
 375 0028 0BD0     		beq	.L19
 376              		.loc 1 194 0 discriminator 5
 377 002a 0D9B     		ldr	r3, [sp, #52]
 378 002c 002B     		cmp	r3, #0
 379 002e 05D0     		beq	.L20
 380              		.loc 1 194 0 discriminator 6
 381 0030 0D9B     		ldr	r3, [sp, #52]
 382 0032 002B     		cmp	r3, #0
 383 0034 05D0     		beq	.L19
 384              		.loc 1 194 0 discriminator 8
 385 0036 0C9B     		ldr	r3, [sp, #48]
 386 0038 002B     		cmp	r3, #0
 387 003a 02D0     		beq	.L19
 388              	.L20:
 389              		.loc 1 194 0 discriminator 7
 390 003c 0E9B     		ldr	r3, [sp, #56]
 391 003e 002B     		cmp	r3, #0
 392 0040 02D1     		bne	.L21
 393              	.L19:
 394              		.loc 1 194 0 discriminator 1
 395 0042 1F48     		ldr	r0, .L25
 396 0044 FFF7FEFF 		bl	chDbgPanic
 397              	.L21:
 398              		.loc 1 200 0 is_stmt 1
 399 0048 079B     		ldr	r3, [sp, #28]
 400 004a 1B78     		ldrb	r3, [r3, #0]	@ zero_extendqisi2
 401 004c 022B     		cmp	r3, #2
 402 004e 02D0     		beq	.L22
 403              		.loc 1 200 0 is_stmt 0 discriminator 1
 404 0050 1C48     		ldr	r0, .L25+4
 405 0052 FFF7FEFF 		bl	chDbgPanic
 406              	.L22:
 407              	.LBB6:
 408              		.loc 1 203 0 is_stmt 1
 409 0056 4FF02003 		mov	r3, #32
 410              	@ 203 "../chibios_2.4.x/os/hal/src/i2c.c" 1
 411 005a 83F31188 		msr     BASEPRI, r3
 412              	@ 0 "" 2
 413              		.thumb
 414              	.LBE6:
 415 005e FFF7FEFF 		bl	dbg_check_lock
 416              		.loc 1 204 0
 417 0062 079B     		ldr	r3, [sp, #28]
 418 0064 4FF00002 		mov	r2, #0
 419 0068 9A60     		str	r2, [r3, #8]
 420              		.loc 1 205 0
 421 006a 079B     		ldr	r3, [sp, #28]
 422 006c 4FF00302 		mov	r2, #3
 423 0070 1A70     		strb	r2, [r3, #0]
 424              		.loc 1 206 0
ARM GAS  /tmp/ccdGSeGj.s 			page 9


 425 0072 BDF81A30 		ldrh	r3, [sp, #26]
 426 0076 0C9A     		ldr	r2, [sp, #48]
 427 0078 0092     		str	r2, [sp, #0]
 428 007a 0D9A     		ldr	r2, [sp, #52]
 429 007c 0192     		str	r2, [sp, #4]
 430 007e 0E9A     		ldr	r2, [sp, #56]
 431 0080 0292     		str	r2, [sp, #8]
 432 0082 0798     		ldr	r0, [sp, #28]
 433 0084 1946     		mov	r1, r3
 434 0086 059A     		ldr	r2, [sp, #20]
 435 0088 049B     		ldr	r3, [sp, #16]
 436 008a FFF7FEFF 		bl	i2c_lld_master_transmit_timeout
 437 008e 0990     		str	r0, [sp, #36]
 438              		.loc 1 208 0
 439 0090 099B     		ldr	r3, [sp, #36]
 440 0092 B3F1FF3F 		cmp	r3, #-1
 441 0096 04D1     		bne	.L23
 442              		.loc 1 209 0
 443 0098 079B     		ldr	r3, [sp, #28]
 444 009a 4FF00502 		mov	r2, #5
 445 009e 1A70     		strb	r2, [r3, #0]
 446 00a0 03E0     		b	.L24
 447              	.L23:
 448              		.loc 1 211 0
 449 00a2 079B     		ldr	r3, [sp, #28]
 450 00a4 4FF00202 		mov	r2, #2
 451 00a8 1A70     		strb	r2, [r3, #0]
 452              	.L24:
 453              		.loc 1 212 0
 454 00aa FFF7FEFF 		bl	dbg_check_unlock
 455              	.LBB7:
 456 00ae 4FF00003 		mov	r3, #0
 457              	@ 212 "../chibios_2.4.x/os/hal/src/i2c.c" 1
 458 00b2 83F31188 		msr     BASEPRI, r3
 459              	@ 0 "" 2
 460              		.thumb
 461              	.LBE7:
 462              		.loc 1 213 0
 463 00b6 099B     		ldr	r3, [sp, #36]
 464              		.loc 1 214 0
 465 00b8 1846     		mov	r0, r3
 466 00ba 0BB0     		add	sp, sp, #44
 467 00bc 00BD     		pop	{pc}
 468              	.L26:
 469 00be 00BF     		.align	2
 470              	.L25:
 471 00c0 50000000 		.word	.LC5
 472 00c4 70000000 		.word	.LC6
 473              		.cfi_endproc
 474              	.LFE67:
 475              		.size	i2cMasterTransmitTimeout, .-i2cMasterTransmitTimeout
 476 00c8 AFF30080 		.section	.rodata
 476      AFF30080 
 477 008f 00       		.align	2
 478              	.LC7:
 479 0090 22693263 		.ascii	"\"i2cMasterReceiveTimeout\"()\000"
 479      4D617374 
ARM GAS  /tmp/ccdGSeGj.s 			page 10


 479      65725265 
 479      63656976 
 479      6554696D 
 480              		.align	2
 481              	.LC8:
 482 00ac 6932634D 		.ascii	"i2cMasterReceive(), #1\000"
 482      61737465 
 482      72526563 
 482      65697665 
 482      28292C20 
 483              		.section	.text.i2cMasterReceiveTimeout,"ax",%progbits
 484              		.align	2
 485              		.p2align 4,,15
 486              		.global	i2cMasterReceiveTimeout
 487              		.thumb
 488              		.thumb_func
 489              		.type	i2cMasterReceiveTimeout, %function
 490              	i2cMasterReceiveTimeout:
 491              	.LFB68:
 492              		.loc 1 240 0
 493              		.cfi_startproc
 494              		@ args = 4, pretend = 0, frame = 24
 495              		@ frame_needed = 0, uses_anonymous_args = 0
 496 0000 00B5     		push	{lr}
 497              	.LCFI11:
 498              		.cfi_def_cfa_offset 4
 499 0002 89B0     		sub	sp, sp, #36
 500              	.LCFI12:
 501              		.cfi_def_cfa_offset 40
 502 0004 0590     		str	r0, [sp, #20]
 503 0006 0392     		str	r2, [sp, #12]
 504 0008 0293     		str	r3, [sp, #8]
 505 000a 0B46     		mov	r3, r1	@ movhi
 506 000c ADF81230 		strh	r3, [sp, #18]	@ movhi
 507              		.loc 1 244 0
 508 0010 059B     		ldr	r3, [sp, #20]
 509 0012 002B     		cmp	r3, #0
 510 0014 0CD0     		beq	.L28
 511              		.cfi_offset 14, -4
 512              		.loc 1 244 0 is_stmt 0 discriminator 2
 513 0016 BDF81230 		ldrh	r3, [sp, #18]
 514 001a 002B     		cmp	r3, #0
 515 001c 08D0     		beq	.L28
 516              		.loc 1 244 0 discriminator 3
 517 001e 029B     		ldr	r3, [sp, #8]
 518 0020 002B     		cmp	r3, #0
 519 0022 05D0     		beq	.L28
 520              		.loc 1 244 0 discriminator 4
 521 0024 039B     		ldr	r3, [sp, #12]
 522 0026 002B     		cmp	r3, #0
 523 0028 02D0     		beq	.L28
 524              		.loc 1 244 0 discriminator 5
 525 002a 0A9B     		ldr	r3, [sp, #40]
 526 002c 002B     		cmp	r3, #0
 527 002e 02D1     		bne	.L29
 528              	.L28:
 529              		.loc 1 244 0 discriminator 1
ARM GAS  /tmp/ccdGSeGj.s 			page 11


 530 0030 1C48     		ldr	r0, .L33
 531 0032 FFF7FEFF 		bl	chDbgPanic
 532              	.L29:
 533              		.loc 1 249 0 is_stmt 1
 534 0036 059B     		ldr	r3, [sp, #20]
 535 0038 1B78     		ldrb	r3, [r3, #0]	@ zero_extendqisi2
 536 003a 022B     		cmp	r3, #2
 537 003c 02D0     		beq	.L30
 538              		.loc 1 249 0 is_stmt 0 discriminator 1
 539 003e 1A48     		ldr	r0, .L33+4
 540 0040 FFF7FEFF 		bl	chDbgPanic
 541              	.L30:
 542              	.LBB8:
 543              		.loc 1 252 0 is_stmt 1
 544 0044 4FF02003 		mov	r3, #32
 545              	@ 252 "../chibios_2.4.x/os/hal/src/i2c.c" 1
 546 0048 83F31188 		msr     BASEPRI, r3
 547              	@ 0 "" 2
 548              		.thumb
 549              	.LBE8:
 550 004c FFF7FEFF 		bl	dbg_check_lock
 551              		.loc 1 253 0
 552 0050 059B     		ldr	r3, [sp, #20]
 553 0052 4FF00002 		mov	r2, #0
 554 0056 9A60     		str	r2, [r3, #8]
 555              		.loc 1 254 0
 556 0058 059B     		ldr	r3, [sp, #20]
 557 005a 4FF00402 		mov	r2, #4
 558 005e 1A70     		strb	r2, [r3, #0]
 559              		.loc 1 255 0
 560 0060 BDF81230 		ldrh	r3, [sp, #18]
 561 0064 0A9A     		ldr	r2, [sp, #40]
 562 0066 0092     		str	r2, [sp, #0]
 563 0068 0598     		ldr	r0, [sp, #20]
 564 006a 1946     		mov	r1, r3
 565 006c 039A     		ldr	r2, [sp, #12]
 566 006e 029B     		ldr	r3, [sp, #8]
 567 0070 FFF7FEFF 		bl	i2c_lld_master_receive_timeout
 568 0074 0790     		str	r0, [sp, #28]
 569              		.loc 1 256 0
 570 0076 079B     		ldr	r3, [sp, #28]
 571 0078 B3F1FF3F 		cmp	r3, #-1
 572 007c 04D1     		bne	.L31
 573              		.loc 1 257 0
 574 007e 059B     		ldr	r3, [sp, #20]
 575 0080 4FF00502 		mov	r2, #5
 576 0084 1A70     		strb	r2, [r3, #0]
 577 0086 03E0     		b	.L32
 578              	.L31:
 579              		.loc 1 259 0
 580 0088 059B     		ldr	r3, [sp, #20]
 581 008a 4FF00202 		mov	r2, #2
 582 008e 1A70     		strb	r2, [r3, #0]
 583              	.L32:
 584              		.loc 1 260 0
 585 0090 FFF7FEFF 		bl	dbg_check_unlock
 586              	.LBB9:
ARM GAS  /tmp/ccdGSeGj.s 			page 12


 587 0094 4FF00003 		mov	r3, #0
 588              	@ 260 "../chibios_2.4.x/os/hal/src/i2c.c" 1
 589 0098 83F31188 		msr     BASEPRI, r3
 590              	@ 0 "" 2
 591              		.thumb
 592              	.LBE9:
 593              		.loc 1 261 0
 594 009c 079B     		ldr	r3, [sp, #28]
 595              		.loc 1 262 0
 596 009e 1846     		mov	r0, r3
 597 00a0 09B0     		add	sp, sp, #36
 598 00a2 00BD     		pop	{pc}
 599              	.L34:
 600              		.align	2
 601              	.L33:
 602 00a4 90000000 		.word	.LC7
 603 00a8 AC000000 		.word	.LC8
 604              		.cfi_endproc
 605              	.LFE68:
 606              		.size	i2cMasterReceiveTimeout, .-i2cMasterReceiveTimeout
 607 00ac AFF30080 		.section	.rodata
 608 00c3 00       		.align	2
 609              	.LC9:
 610 00c4 22693263 		.ascii	"\"i2cAcquireBus\"()\000"
 610      41637175 
 610      69726542 
 610      75732228 
 610      2900
 611              		.section	.text.i2cAcquireBus,"ax",%progbits
 612              		.align	2
 613              		.p2align 4,,15
 614              		.global	i2cAcquireBus
 615              		.thumb
 616              		.thumb_func
 617              		.type	i2cAcquireBus, %function
 618              	i2cAcquireBus:
 619              	.LFB69:
 620              		.loc 1 276 0
 621              		.cfi_startproc
 622              		@ args = 0, pretend = 0, frame = 8
 623              		@ frame_needed = 0, uses_anonymous_args = 0
 624 0000 00B5     		push	{lr}
 625              	.LCFI13:
 626              		.cfi_def_cfa_offset 4
 627 0002 83B0     		sub	sp, sp, #12
 628              	.LCFI14:
 629              		.cfi_def_cfa_offset 16
 630 0004 0190     		str	r0, [sp, #4]
 631              		.loc 1 278 0
 632 0006 019B     		ldr	r3, [sp, #4]
 633 0008 002B     		cmp	r3, #0
 634 000a 02D1     		bne	.L36
 635              		.cfi_offset 14, -4
 636              		.loc 1 278 0 is_stmt 0 discriminator 1
 637 000c 0548     		ldr	r0, .L37
 638 000e FFF7FEFF 		bl	chDbgPanic
 639              	.L36:
ARM GAS  /tmp/ccdGSeGj.s 			page 13


 640              		.loc 1 281 0 is_stmt 1
 641 0012 019B     		ldr	r3, [sp, #4]
 642 0014 03F10C03 		add	r3, r3, #12
 643 0018 1846     		mov	r0, r3
 644 001a FFF7FEFF 		bl	chMtxLock
 645              		.loc 1 285 0
 646 001e 03B0     		add	sp, sp, #12
 647 0020 00BD     		pop	{pc}
 648              	.L38:
 649 0022 00BF     		.align	2
 650              	.L37:
 651 0024 C4000000 		.word	.LC9
 652              		.cfi_endproc
 653              	.LFE69:
 654              		.size	i2cAcquireBus, .-i2cAcquireBus
 655 0028 AFF30080 		.section	.rodata
 655      AFF30080 
 656 00d6 0000     		.align	2
 657              	.LC10:
 658 00d8 22693263 		.ascii	"\"i2cReleaseBus\"()\000"
 658      52656C65 
 658      61736542 
 658      75732228 
 658      2900
 659 00ea 0000     		.section	.text.i2cReleaseBus,"ax",%progbits
 660              		.align	2
 661              		.p2align 4,,15
 662              		.global	i2cReleaseBus
 663              		.thumb
 664              		.thumb_func
 665              		.type	i2cReleaseBus, %function
 666              	i2cReleaseBus:
 667              	.LFB70:
 668              		.loc 1 296 0
 669              		.cfi_startproc
 670              		@ args = 0, pretend = 0, frame = 8
 671              		@ frame_needed = 0, uses_anonymous_args = 0
 672 0000 00B5     		push	{lr}
 673              	.LCFI15:
 674              		.cfi_def_cfa_offset 4
 675 0002 83B0     		sub	sp, sp, #12
 676              	.LCFI16:
 677              		.cfi_def_cfa_offset 16
 678 0004 0190     		str	r0, [sp, #4]
 679              		.loc 1 298 0
 680 0006 019B     		ldr	r3, [sp, #4]
 681 0008 002B     		cmp	r3, #0
 682 000a 02D1     		bne	.L40
 683              		.cfi_offset 14, -4
 684              		.loc 1 298 0 is_stmt 0 discriminator 1
 685 000c 0348     		ldr	r0, .L41
 686 000e FFF7FEFF 		bl	chDbgPanic
 687              	.L40:
 688              		.loc 1 301 0 is_stmt 1
 689 0012 FFF7FEFF 		bl	chMtxUnlock
 690              		.loc 1 305 0
 691 0016 03B0     		add	sp, sp, #12
ARM GAS  /tmp/ccdGSeGj.s 			page 14


 692 0018 00BD     		pop	{pc}
 693              	.L42:
 694 001a 00BF     		.align	2
 695              	.L41:
 696 001c D8000000 		.word	.LC10
 697              		.cfi_endproc
 698              	.LFE70:
 699              		.size	i2cReleaseBus, .-i2cReleaseBus
 700              		.section	.text.i2cSlaveIoTimeout,"ax",%progbits
 701              		.align	2
 702              		.p2align 4,,15
 703              		.global	i2cSlaveIoTimeout
 704              		.thumb
 705              		.thumb_func
 706              		.type	i2cSlaveIoTimeout, %function
 707              	i2cSlaveIoTimeout:
 708              	.LFB71:
 709              		.loc 1 317 0
 710              		.cfi_startproc
 711              		@ args = 20, pretend = 0, frame = 24
 712              		@ frame_needed = 0, uses_anonymous_args = 0
 713 0000 00B5     		push	{lr}
 714              	.LCFI17:
 715              		.cfi_def_cfa_offset 4
 716 0002 8DB0     		sub	sp, sp, #52
 717              	.LCFI18:
 718              		.cfi_def_cfa_offset 56
 719 0004 0990     		str	r0, [sp, #36]
 720 0006 0792     		str	r2, [sp, #28]
 721 0008 0693     		str	r3, [sp, #24]
 722 000a 0B46     		mov	r3, r1	@ movhi
 723 000c ADF82230 		strh	r3, [sp, #34]	@ movhi
 724              	.LBB10:
 725              		.loc 1 320 0
 726 0010 4FF02003 		mov	r3, #32
 727              	@ 320 "../chibios_2.4.x/os/hal/src/i2c.c" 1
 728 0014 83F31188 		msr     BASEPRI, r3
 729              	@ 0 "" 2
 730              		.thumb
 731              	.LBE10:
 732              		.cfi_offset 14, -4
 733 0018 FFF7FEFF 		bl	dbg_check_lock
 734              		.loc 1 321 0
 735 001c 099B     		ldr	r3, [sp, #36]
 736 001e 4FF00002 		mov	r2, #0
 737 0022 9A60     		str	r2, [r3, #8]
 738              		.loc 1 322 0
 739 0024 099B     		ldr	r3, [sp, #36]
 740 0026 4FF00002 		mov	r2, #0
 741 002a 1A70     		strb	r2, [r3, #0]
 742              		.loc 1 323 0
 743 002c BDF82230 		ldrh	r3, [sp, #34]
 744 0030 0E9A     		ldr	r2, [sp, #56]
 745 0032 0092     		str	r2, [sp, #0]
 746 0034 0F9A     		ldr	r2, [sp, #60]
 747 0036 0192     		str	r2, [sp, #4]
 748 0038 109A     		ldr	r2, [sp, #64]
ARM GAS  /tmp/ccdGSeGj.s 			page 15


 749 003a 0292     		str	r2, [sp, #8]
 750 003c 119A     		ldr	r2, [sp, #68]
 751 003e 0392     		str	r2, [sp, #12]
 752 0040 129A     		ldr	r2, [sp, #72]
 753 0042 0492     		str	r2, [sp, #16]
 754 0044 0998     		ldr	r0, [sp, #36]
 755 0046 1946     		mov	r1, r3
 756 0048 079A     		ldr	r2, [sp, #28]
 757 004a 069B     		ldr	r3, [sp, #24]
 758 004c FFF7FEFF 		bl	i2c_lld_slave_io_timeout
 759 0050 0B90     		str	r0, [sp, #44]
 760              		.loc 1 330 0
 761 0052 0B9B     		ldr	r3, [sp, #44]
 762 0054 B3F1FF3F 		cmp	r3, #-1
 763 0058 04D1     		bne	.L44
 764              		.loc 1 331 0
 765 005a 099B     		ldr	r3, [sp, #36]
 766 005c 4FF00502 		mov	r2, #5
 767 0060 1A70     		strb	r2, [r3, #0]
 768 0062 03E0     		b	.L45
 769              	.L44:
 770              		.loc 1 333 0
 771 0064 099B     		ldr	r3, [sp, #36]
 772 0066 4FF00202 		mov	r2, #2
 773 006a 1A70     		strb	r2, [r3, #0]
 774              	.L45:
 775              		.loc 1 334 0
 776 006c FFF7FEFF 		bl	dbg_check_unlock
 777              	.LBB11:
 778 0070 4FF00003 		mov	r3, #0
 779              	@ 334 "../chibios_2.4.x/os/hal/src/i2c.c" 1
 780 0074 83F31188 		msr     BASEPRI, r3
 781              	@ 0 "" 2
 782              		.thumb
 783              	.LBE11:
 784              		.loc 1 335 0
 785 0078 0B9B     		ldr	r3, [sp, #44]
 786              		.loc 1 337 0
 787 007a 1846     		mov	r0, r3
 788 007c 0DB0     		add	sp, sp, #52
 789 007e 00BD     		pop	{pc}
 790              		.cfi_endproc
 791              	.LFE71:
 792              		.size	i2cSlaveIoTimeout, .-i2cSlaveIoTimeout
 793              		.text
 794              	.Letext0: