ARM GAS  /tmp/cci0vxXu.s 			page 1


   1              		.syntax unified
   2              		.cpu cortex-m3
   3              		.fpu softvfp
   4              		.eabi_attribute 20, 1
   5              		.eabi_attribute 21, 1
   6              		.eabi_attribute 23, 3
   7              		.eabi_attribute 24, 1
   8              		.eabi_attribute 25, 1
   9              		.eabi_attribute 26, 1
  10              		.eabi_attribute 30, 2
  11              		.eabi_attribute 18, 4
  12              		.thumb
  13              		.file	"i2c.c"
  14              		.section	.debug_abbrev,"",%progbits
  15              	.Ldebug_abbrev0:
  16              		.section	.debug_info,"",%progbits
  17              	.Ldebug_info0:
  18              		.section	.debug_line,"",%progbits
  19              	.Ldebug_line0:
  20 0000 2B040000 		.text
  20      02009002 
  20      00000201 
  20      FB0E0D00 
  20      01010101 
  21              	.Ltext0:
  22              		.cfi_sections	.debug_frame
  23              		.section	.text.i2cInit,"ax",%progbits
  24              		.align	2
  25              		.p2align 4,,15
  26              		.global	i2cInit
  27              		.thumb
  28              		.thumb_func
  29              		.type	i2cInit, %function
  30              	i2cInit:
  31              	.LFB62:
  32              		.file 1 "../chibios_2.4.x/os/hal/src/i2c.c"
  33              		.loc 1 71 0
  34              		.cfi_startproc
  35              		@ args = 0, pretend = 0, frame = 0
  36              		@ frame_needed = 0, uses_anonymous_args = 0
  37              		@ link register save eliminated.
  38              		.loc 1 73 0
  39              		.loc 1 72 0
  40 0000 FFF7FEBF 		b	i2c_lld_init
  41              		.cfi_endproc
  42              	.LFE62:
  43              		.size	i2cInit, .-i2cInit
  44 0004 AFF30080 		.section	.text.i2cObjectInit,"ax",%progbits
  44      AFF30080 
  44      AFF30080 
  45              		.align	2
  46              		.p2align 4,,15
  47              		.global	i2cObjectInit
  48              		.thumb
  49              		.thumb_func
  50              		.type	i2cObjectInit, %function
  51              	i2cObjectInit:
ARM GAS  /tmp/cci0vxXu.s 			page 2


  52              	.LFB63:
  53              		.loc 1 82 0
  54              		.cfi_startproc
  55              		@ args = 0, pretend = 0, frame = 0
  56              		@ frame_needed = 0, uses_anonymous_args = 0
  57              		@ link register save eliminated.
  58              	.LVL0:
  59              		.loc 1 84 0
  60 0000 0121     		movs	r1, #1
  61              		.loc 1 85 0
  62 0002 0023     		movs	r3, #0
  63              		.loc 1 84 0
  64 0004 0170     		strb	r1, [r0, #0]
  65              		.loc 1 85 0
  66 0006 4360     		str	r3, [r0, #4]
  67              		.loc 1 89 0
  68 0008 0C30     		adds	r0, r0, #12
  69              	.LVL1:
  70              		.loc 1 98 0
  71              		.loc 1 89 0
  72 000a FFF7FEBF 		b	chMtxInit
  73              		.cfi_endproc
  74              	.LFE63:
  75              		.size	i2cObjectInit, .-i2cObjectInit
  76 000e 00BF     		.section	.text.i2cStart,"ax",%progbits
  77              		.align	2
  78              		.p2align 4,,15
  79              		.global	i2cStart
  80              		.thumb
  81              		.thumb_func
  82              		.type	i2cStart, %function
  83              	i2cStart:
  84              	.LFB64:
  85              		.loc 1 108 0
  86              		.cfi_startproc
  87              		@ args = 0, pretend = 0, frame = 0
  88              		@ frame_needed = 0, uses_anonymous_args = 0
  89              	.LVL2:
  90 0000 38B5     		push	{r3, r4, r5, lr}
  91              	.LCFI0:
  92              		.cfi_def_cfa_offset 16
  93              		.loc 1 110 0
  94 0002 0446     		mov	r4, r0
  95              		.cfi_offset 14, -4
  96              		.cfi_offset 5, -8
  97              		.cfi_offset 4, -12
  98              		.cfi_offset 3, -16
  99              		.loc 1 108 0
 100 0004 0D46     		mov	r5, r1
 101              		.loc 1 110 0
 102 0006 D8B1     		cbz	r0, .L4
 103              		.loc 1 110 0 is_stmt 0 discriminator 2
 104 0008 D1B1     		cbz	r1, .L4
 105              	.LVL3:
 106              	.L5:
 107              		.loc 1 111 0 is_stmt 1
 108 000a 2378     		ldrb	r3, [r4, #0]	@ zero_extendqisi2
ARM GAS  /tmp/cci0vxXu.s 			page 3


 109 000c 581E     		subs	r0, r3, #1
 110 000e C2B2     		uxtb	r2, r0
 111 0010 012A     		cmp	r2, #1
 112 0012 04D9     		bls	.L6
 113              		.loc 1 111 0 is_stmt 0 discriminator 1
 114 0014 052B     		cmp	r3, #5
 115 0016 02D0     		beq	.L6
 116              		.loc 1 111 0 discriminator 2
 117 0018 0B48     		ldr	r0, .L8
 118 001a FFF7FEFF 		bl	chDbgPanic
 119              	.L6:
 120              	.LBB2:
 121              		.loc 1 116 0 is_stmt 1
 122 001e 2023     		movs	r3, #32
 123              	.LVL4:
 124              	@ 116 "../chibios_2.4.x/os/hal/src/i2c.c" 1
 125 0020 83F31188 		msr     BASEPRI, r3
 126              	@ 0 "" 2
 127              	.LVL5:
 128              		.thumb
 129              	.LBE2:
 130 0024 FFF7FEFF 		bl	dbg_check_lock
 131              	.LVL6:
 132              		.loc 1 118 0
 133 0028 2046     		mov	r0, r4
 134              		.loc 1 117 0
 135 002a 6560     		str	r5, [r4, #4]
 136              		.loc 1 118 0
 137 002c FFF7FEFF 		bl	i2c_lld_start
 138              		.loc 1 119 0
 139 0030 0223     		movs	r3, #2
 140 0032 2370     		strb	r3, [r4, #0]
 141              		.loc 1 120 0
 142 0034 FFF7FEFF 		bl	dbg_check_unlock
 143              	.LBB3:
 144 0038 0023     		movs	r3, #0
 145              	.LVL7:
 146              	@ 120 "../chibios_2.4.x/os/hal/src/i2c.c" 1
 147 003a 83F31188 		msr     BASEPRI, r3
 148              	@ 0 "" 2
 149              	.LVL8:
 150              		.thumb
 151              	.LBE3:
 152              		.loc 1 121 0
 153 003e 38BD     		pop	{r3, r4, r5, pc}
 154              	.LVL9:
 155              	.L4:
 156              		.loc 1 110 0 discriminator 1
 157 0040 0248     		ldr	r0, .L8+4
 158 0042 FFF7FEFF 		bl	chDbgPanic
 159 0046 E0E7     		b	.L5
 160              	.L9:
 161              		.align	2
 162              	.L8:
 163 0048 10000000 		.word	.LC1
 164 004c 00000000 		.word	.LC0
 165              		.cfi_endproc
ARM GAS  /tmp/cci0vxXu.s 			page 4


 166              	.LFE64:
 167              		.size	i2cStart, .-i2cStart
 168              		.section	.text.i2cStop,"ax",%progbits
 169              		.align	2
 170              		.p2align 4,,15
 171              		.global	i2cStop
 172              		.thumb
 173              		.thumb_func
 174              		.type	i2cStop, %function
 175              	i2cStop:
 176              	.LFB65:
 177              		.loc 1 130 0
 178              		.cfi_startproc
 179              		@ args = 0, pretend = 0, frame = 0
 180              		@ frame_needed = 0, uses_anonymous_args = 0
 181              	.LVL10:
 182 0000 10B5     		push	{r4, lr}
 183              	.LCFI1:
 184              		.cfi_def_cfa_offset 8
 185              		.loc 1 132 0
 186 0002 0446     		mov	r4, r0
 187              		.cfi_offset 14, -4
 188              		.cfi_offset 4, -8
 189 0004 C8B1     		cbz	r0, .L13
 190              	.LVL11:
 191              	.L11:
 192              		.loc 1 133 0
 193 0006 2378     		ldrb	r3, [r4, #0]	@ zero_extendqisi2
 194 0008 581E     		subs	r0, r3, #1
 195 000a C2B2     		uxtb	r2, r0
 196 000c 012A     		cmp	r2, #1
 197 000e 04D9     		bls	.L12
 198              		.loc 1 133 0 is_stmt 0 discriminator 1
 199 0010 052B     		cmp	r3, #5
 200 0012 02D0     		beq	.L12
 201              		.loc 1 133 0 discriminator 2
 202 0014 0B48     		ldr	r0, .L14
 203 0016 FFF7FEFF 		bl	chDbgPanic
 204              	.L12:
 205              	.LBB4:
 206              		.loc 1 138 0 is_stmt 1
 207 001a 2023     		movs	r3, #32
 208              	.LVL12:
 209              	@ 138 "../chibios_2.4.x/os/hal/src/i2c.c" 1
 210 001c 83F31188 		msr     BASEPRI, r3
 211              	@ 0 "" 2
 212              	.LVL13:
 213              		.thumb
 214              	.LBE4:
 215 0020 FFF7FEFF 		bl	dbg_check_lock
 216              	.LVL14:
 217              		.loc 1 139 0
 218 0024 2046     		mov	r0, r4
 219 0026 FFF7FEFF 		bl	i2c_lld_stop
 220              		.loc 1 140 0
 221 002a 0123     		movs	r3, #1
 222 002c 2370     		strb	r3, [r4, #0]
ARM GAS  /tmp/cci0vxXu.s 			page 5


 223              		.loc 1 141 0
 224 002e FFF7FEFF 		bl	dbg_check_unlock
 225              	.LBB5:
 226 0032 0023     		movs	r3, #0
 227              	.LVL15:
 228              	@ 141 "../chibios_2.4.x/os/hal/src/i2c.c" 1
 229 0034 83F31188 		msr     BASEPRI, r3
 230              	@ 0 "" 2
 231              	.LVL16:
 232              		.thumb
 233              	.LBE5:
 234              		.loc 1 142 0
 235 0038 10BD     		pop	{r4, pc}
 236              	.LVL17:
 237              	.L13:
 238              		.loc 1 132 0 discriminator 1
 239 003a 0348     		ldr	r0, .L14+4
 240 003c FFF7FEFF 		bl	chDbgPanic
 241 0040 E1E7     		b	.L11
 242              	.L15:
 243 0042 00BF     		.align	2
 244              	.L14:
 245 0044 2C000000 		.word	.LC3
 246 0048 20000000 		.word	.LC2
 247              		.cfi_endproc
 248              	.LFE65:
 249              		.size	i2cStop, .-i2cStop
 250 004c AFF30080 		.section	.text.i2cGetErrors,"ax",%progbits
 251              		.align	2
 252              		.p2align 4,,15
 253              		.global	i2cGetErrors
 254              		.thumb
 255              		.thumb_func
 256              		.type	i2cGetErrors, %function
 257              	i2cGetErrors:
 258              	.LFB66:
 259              		.loc 1 152 0
 260              		.cfi_startproc
 261              		@ args = 0, pretend = 0, frame = 0
 262              		@ frame_needed = 0, uses_anonymous_args = 0
 263              	.LVL18:
 264 0000 10B5     		push	{r4, lr}
 265              	.LCFI2:
 266              		.cfi_def_cfa_offset 8
 267              		.loc 1 154 0
 268 0002 0446     		mov	r4, r0
 269              		.cfi_offset 14, -4
 270              		.cfi_offset 4, -8
 271 0004 08B1     		cbz	r0, .L18
 272              		.loc 1 157 0
 273 0006 A068     		ldr	r0, [r4, #8]
 274              	.LVL19:
 275 0008 10BD     		pop	{r4, pc}
 276              	.L18:
 277              		.loc 1 154 0 discriminator 1
 278 000a 0248     		ldr	r0, .L19
 279 000c FFF7FEFF 		bl	chDbgPanic
ARM GAS  /tmp/cci0vxXu.s 			page 6


 280              		.loc 1 157 0 discriminator 1
 281 0010 A068     		ldr	r0, [r4, #8]
 282 0012 10BD     		pop	{r4, pc}
 283              	.L20:
 284              		.align	2
 285              	.L19:
 286 0014 3C000000 		.word	.LC4
 287              		.cfi_endproc
 288              	.LFE66:
 289              		.size	i2cGetErrors, .-i2cGetErrors
 290 0018 AFF30080 		.section	.text.i2cMasterTransmitTimeout,"ax",%progbits
 290      AFF30080 
 291              		.align	2
 292              		.p2align 4,,15
 293              		.global	i2cMasterTransmitTimeout
 294              		.thumb
 295              		.thumb_func
 296              		.type	i2cMasterTransmitTimeout, %function
 297              	i2cMasterTransmitTimeout:
 298              	.LFB67:
 299              		.loc 1 191 0
 300              		.cfi_startproc
 301              		@ args = 12, pretend = 0, frame = 0
 302              		@ frame_needed = 0, uses_anonymous_args = 0
 303              	.LVL20:
 304 0000 2DE9F047 		push	{r4, r5, r6, r7, r8, r9, sl, lr}
 305              	.LCFI3:
 306              		.cfi_def_cfa_offset 32
 307 0004 84B0     		sub	sp, sp, #16
 308              	.LCFI4:
 309              		.cfi_def_cfa_offset 48
 310              		.loc 1 194 0
 311 0006 0446     		mov	r4, r0
 312              		.cfi_offset 14, -4
 313              		.cfi_offset 10, -8
 314              		.cfi_offset 9, -12
 315              		.cfi_offset 8, -16
 316              		.cfi_offset 7, -20
 317              		.cfi_offset 6, -24
 318              		.cfi_offset 5, -28
 319              		.cfi_offset 4, -32
 320              		.loc 1 191 0
 321 0008 8846     		mov	r8, r1
 322 000a 9146     		mov	r9, r2
 323 000c 1D46     		mov	r5, r3
 324 000e DDF830A0 		ldr	sl, [sp, #48]
 325 0012 0D9E     		ldr	r6, [sp, #52]
 326 0014 0E9F     		ldr	r7, [sp, #56]
 327              		.loc 1 194 0
 328 0016 08B1     		cbz	r0, .L22
 329              		.loc 1 194 0 is_stmt 0 discriminator 2
 330 0018 0029     		cmp	r1, #0
 331 001a 2AD1     		bne	.L28
 332              	.L22:
 333              		.loc 1 194 0 discriminator 1
 334 001c 1C48     		ldr	r0, .L30
 335              	.LVL21:
ARM GAS  /tmp/cci0vxXu.s 			page 7


 336 001e FFF7FEFF 		bl	chDbgPanic
 337              	.LVL22:
 338              	.L24:
 339              		.loc 1 200 0 is_stmt 1
 340 0022 2378     		ldrb	r3, [r4, #0]	@ zero_extendqisi2
 341 0024 022B     		cmp	r3, #2
 342 0026 02D0     		beq	.L25
 343              		.loc 1 200 0 is_stmt 0 discriminator 1
 344 0028 1A48     		ldr	r0, .L30+4
 345 002a FFF7FEFF 		bl	chDbgPanic
 346              	.L25:
 347              	.LBB6:
 348              		.loc 1 203 0 is_stmt 1
 349 002e 2023     		movs	r3, #32
 350              	.LVL23:
 351              	@ 203 "../chibios_2.4.x/os/hal/src/i2c.c" 1
 352 0030 83F31188 		msr     BASEPRI, r3
 353              	@ 0 "" 2
 354              	.LVL24:
 355              		.thumb
 356              	.LBE6:
 357 0034 FFF7FEFF 		bl	dbg_check_lock
 358              	.LVL25:
 359              		.loc 1 204 0
 360 0038 0021     		movs	r1, #0
 361              		.loc 1 205 0
 362 003a 0320     		movs	r0, #3
 363              		.loc 1 204 0
 364 003c A160     		str	r1, [r4, #8]
 365              		.loc 1 205 0
 366 003e 2070     		strb	r0, [r4, #0]
 367              		.loc 1 206 0
 368 0040 2B46     		mov	r3, r5
 369 0042 2046     		mov	r0, r4
 370 0044 4146     		mov	r1, r8
 371 0046 4A46     		mov	r2, r9
 372 0048 CDF800A0 		str	sl, [sp, #0]
 373 004c 0196     		str	r6, [sp, #4]
 374 004e 0297     		str	r7, [sp, #8]
 375 0050 FFF7FEFF 		bl	i2c_lld_master_transmit_timeout
 376              		.loc 1 208 0
 377 0054 B0F1FF3F 		cmp	r0, #-1
 378              		.loc 1 206 0
 379 0058 0546     		mov	r5, r0
 380              	.LVL26:
 381              		.loc 1 208 0
 382 005a 15D0     		beq	.L29
 383              		.loc 1 211 0
 384 005c 0223     		movs	r3, #2
 385 005e 2370     		strb	r3, [r4, #0]
 386              	.L27:
 387              		.loc 1 212 0
 388 0060 FFF7FEFF 		bl	dbg_check_unlock
 389              	.LVL27:
 390              	.LBB7:
 391 0064 0023     		movs	r3, #0
 392              	.LVL28:
ARM GAS  /tmp/cci0vxXu.s 			page 8


 393              	@ 212 "../chibios_2.4.x/os/hal/src/i2c.c" 1
 394 0066 83F31188 		msr     BASEPRI, r3
 395              	@ 0 "" 2
 396              	.LVL29:
 397              		.thumb
 398              	.LBE7:
 399              		.loc 1 214 0
 400 006a 2846     		mov	r0, r5
 401 006c 04B0     		add	sp, sp, #16
 402 006e BDE8F087 		pop	{r4, r5, r6, r7, r8, r9, sl, pc}
 403              	.LVL30:
 404              	.L28:
 405              		.loc 1 194 0 discriminator 3
 406 0072 002B     		cmp	r3, #0
 407 0074 D2D0     		beq	.L22
 408              		.loc 1 194 0 is_stmt 0 discriminator 4
 409 0076 002A     		cmp	r2, #0
 410 0078 D0D0     		beq	.L22
 411              		.loc 1 194 0 discriminator 5
 412 007a 16B1     		cbz	r6, .L23
 413              		.loc 1 194 0 discriminator 6
 414 007c BAF1000F 		cmp	sl, #0
 415 0080 CCD0     		beq	.L22
 416              	.L23:
 417              		.loc 1 194 0 discriminator 7
 418 0082 002F     		cmp	r7, #0
 419 0084 CDD1     		bne	.L24
 420 0086 C9E7     		b	.L22
 421              	.LVL31:
 422              	.L29:
 423              		.loc 1 209 0 is_stmt 1
 424 0088 0522     		movs	r2, #5
 425 008a 2270     		strb	r2, [r4, #0]
 426 008c E8E7     		b	.L27
 427              	.L31:
 428 008e 00BF     		.align	2
 429              	.L30:
 430 0090 50000000 		.word	.LC5
 431 0094 70000000 		.word	.LC6
 432              		.cfi_endproc
 433              	.LFE67:
 434              		.size	i2cMasterTransmitTimeout, .-i2cMasterTransmitTimeout
 435 0098 AFF30080 		.section	.text.i2cMasterReceiveTimeout,"ax",%progbits
 435      AFF30080 
 436              		.align	2
 437              		.p2align 4,,15
 438              		.global	i2cMasterReceiveTimeout
 439              		.thumb
 440              		.thumb_func
 441              		.type	i2cMasterReceiveTimeout, %function
 442              	i2cMasterReceiveTimeout:
 443              	.LFB68:
 444              		.loc 1 240 0
 445              		.cfi_startproc
 446              		@ args = 4, pretend = 0, frame = 0
 447              		@ frame_needed = 0, uses_anonymous_args = 0
 448              	.LVL32:
ARM GAS  /tmp/cci0vxXu.s 			page 9


 449 0000 2DE9F041 		push	{r4, r5, r6, r7, r8, lr}
 450              	.LCFI5:
 451              		.cfi_def_cfa_offset 24
 452 0004 82B0     		sub	sp, sp, #8
 453              	.LCFI6:
 454              		.cfi_def_cfa_offset 32
 455              		.loc 1 244 0
 456 0006 0446     		mov	r4, r0
 457              		.cfi_offset 14, -4
 458              		.cfi_offset 8, -8
 459              		.cfi_offset 7, -12
 460              		.cfi_offset 6, -16
 461              		.cfi_offset 5, -20
 462              		.cfi_offset 4, -24
 463              		.loc 1 240 0
 464 0008 0F46     		mov	r7, r1
 465 000a 9046     		mov	r8, r2
 466 000c 1D46     		mov	r5, r3
 467 000e 089E     		ldr	r6, [sp, #32]
 468              		.loc 1 244 0
 469 0010 08B1     		cbz	r0, .L33
 470              		.loc 1 244 0 is_stmt 0 discriminator 2
 471 0012 0029     		cmp	r1, #0
 472 0014 27D1     		bne	.L38
 473              	.L33:
 474              		.loc 1 244 0 discriminator 1
 475 0016 1948     		ldr	r0, .L40
 476              	.LVL33:
 477 0018 FFF7FEFF 		bl	chDbgPanic
 478              	.LVL34:
 479              	.L34:
 480              		.loc 1 249 0 is_stmt 1
 481 001c 2378     		ldrb	r3, [r4, #0]	@ zero_extendqisi2
 482 001e 022B     		cmp	r3, #2
 483 0020 02D0     		beq	.L35
 484              		.loc 1 249 0 is_stmt 0 discriminator 1
 485 0022 1748     		ldr	r0, .L40+4
 486 0024 FFF7FEFF 		bl	chDbgPanic
 487              	.L35:
 488              	.LBB8:
 489              		.loc 1 252 0 is_stmt 1
 490 0028 2023     		movs	r3, #32
 491              	.LVL35:
 492              	@ 252 "../chibios_2.4.x/os/hal/src/i2c.c" 1
 493 002a 83F31188 		msr     BASEPRI, r3
 494              	@ 0 "" 2
 495              	.LVL36:
 496              		.thumb
 497              	.LBE8:
 498 002e FFF7FEFF 		bl	dbg_check_lock
 499              	.LVL37:
 500              		.loc 1 253 0
 501 0032 0021     		movs	r1, #0
 502              		.loc 1 254 0
 503 0034 0420     		movs	r0, #4
 504              		.loc 1 253 0
 505 0036 A160     		str	r1, [r4, #8]
ARM GAS  /tmp/cci0vxXu.s 			page 10


 506              		.loc 1 254 0
 507 0038 2070     		strb	r0, [r4, #0]
 508              		.loc 1 255 0
 509 003a 2B46     		mov	r3, r5
 510 003c 2046     		mov	r0, r4
 511 003e 3946     		mov	r1, r7
 512 0040 4246     		mov	r2, r8
 513 0042 0096     		str	r6, [sp, #0]
 514 0044 FFF7FEFF 		bl	i2c_lld_master_receive_timeout
 515              		.loc 1 256 0
 516 0048 B0F1FF3F 		cmp	r0, #-1
 517              		.loc 1 255 0
 518 004c 0546     		mov	r5, r0
 519              	.LVL38:
 520              		.loc 1 256 0
 521 004e 11D0     		beq	.L39
 522              		.loc 1 259 0
 523 0050 0223     		movs	r3, #2
 524 0052 2370     		strb	r3, [r4, #0]
 525              	.L37:
 526              		.loc 1 260 0
 527 0054 FFF7FEFF 		bl	dbg_check_unlock
 528              	.LVL39:
 529              	.LBB9:
 530 0058 0023     		movs	r3, #0
 531              	.LVL40:
 532              	@ 260 "../chibios_2.4.x/os/hal/src/i2c.c" 1
 533 005a 83F31188 		msr     BASEPRI, r3
 534              	@ 0 "" 2
 535              	.LVL41:
 536              		.thumb
 537              	.LBE9:
 538              		.loc 1 262 0
 539 005e 2846     		mov	r0, r5
 540 0060 02B0     		add	sp, sp, #8
 541 0062 BDE8F081 		pop	{r4, r5, r6, r7, r8, pc}
 542              	.LVL42:
 543              	.L38:
 544              		.loc 1 244 0 discriminator 3
 545 0066 002B     		cmp	r3, #0
 546 0068 D5D0     		beq	.L33
 547              		.loc 1 244 0 is_stmt 0 discriminator 4
 548 006a 002A     		cmp	r2, #0
 549 006c D3D0     		beq	.L33
 550              		.loc 1 244 0 discriminator 5
 551 006e 002E     		cmp	r6, #0
 552 0070 D4D1     		bne	.L34
 553 0072 D0E7     		b	.L33
 554              	.LVL43:
 555              	.L39:
 556              		.loc 1 257 0 is_stmt 1
 557 0074 0522     		movs	r2, #5
 558 0076 2270     		strb	r2, [r4, #0]
 559 0078 ECE7     		b	.L37
 560              	.L41:
 561 007a 00BF     		.align	2
 562              	.L40:
ARM GAS  /tmp/cci0vxXu.s 			page 11


 563 007c 90000000 		.word	.LC7
 564 0080 AC000000 		.word	.LC8
 565              		.cfi_endproc
 566              	.LFE68:
 567              		.size	i2cMasterReceiveTimeout, .-i2cMasterReceiveTimeout
 568 0084 AFF30080 		.section	.text.i2cAcquireBus,"ax",%progbits
 568      AFF30080 
 568      AFF30080 
 569              		.align	2
 570              		.p2align 4,,15
 571              		.global	i2cAcquireBus
 572              		.thumb
 573              		.thumb_func
 574              		.type	i2cAcquireBus, %function
 575              	i2cAcquireBus:
 576              	.LFB69:
 577              		.loc 1 276 0
 578              		.cfi_startproc
 579              		@ args = 0, pretend = 0, frame = 0
 580              		@ frame_needed = 0, uses_anonymous_args = 0
 581              	.LVL44:
 582 0000 10B5     		push	{r4, lr}
 583              	.LCFI7:
 584              		.cfi_def_cfa_offset 8
 585              		.loc 1 278 0
 586 0002 0446     		mov	r4, r0
 587              		.cfi_offset 14, -4
 588              		.cfi_offset 4, -8
 589 0004 28B1     		cbz	r0, .L44
 590              	.LVL45:
 591              	.L43:
 592              		.loc 1 281 0
 593 0006 04F10C00 		add	r0, r4, #12
 594              		.loc 1 285 0
 595 000a BDE81040 		pop	{r4, lr}
 596              		.loc 1 281 0
 597 000e FFF7FEBF 		b	chMtxLock
 598              	.L44:
 599              		.loc 1 278 0 discriminator 1
 600 0012 0248     		ldr	r0, .L45
 601 0014 FFF7FEFF 		bl	chDbgPanic
 602 0018 F5E7     		b	.L43
 603              	.L46:
 604 001a 00BF     		.align	2
 605              	.L45:
 606 001c C4000000 		.word	.LC9
 607              		.cfi_endproc
 608              	.LFE69:
 609              		.size	i2cAcquireBus, .-i2cAcquireBus
 610              		.section	.text.i2cReleaseBus,"ax",%progbits
 611              		.align	2
 612              		.p2align 4,,15
 613              		.global	i2cReleaseBus
 614              		.thumb
 615              		.thumb_func
 616              		.type	i2cReleaseBus, %function
 617              	i2cReleaseBus:
ARM GAS  /tmp/cci0vxXu.s 			page 12


 618              	.LFB70:
 619              		.loc 1 296 0
 620              		.cfi_startproc
 621              		@ args = 0, pretend = 0, frame = 0
 622              		@ frame_needed = 0, uses_anonymous_args = 0
 623              	.LVL46:
 624 0000 10B5     		push	{r4, lr}
 625              	.LCFI8:
 626              		.cfi_def_cfa_offset 8
 627              		.loc 1 298 0
 628 0002 18B1     		cbz	r0, .L49
 629              		.cfi_offset 14, -4
 630              		.cfi_offset 4, -8
 631              	.LVL47:
 632              	.L48:
 633              		.loc 1 305 0
 634 0004 BDE81040 		pop	{r4, lr}
 635              		.loc 1 301 0
 636 0008 FFF7FEBF 		b	chMtxUnlock
 637              	.LVL48:
 638              	.L49:
 639              		.loc 1 298 0 discriminator 1
 640 000c 0148     		ldr	r0, .L50
 641              	.LVL49:
 642 000e FFF7FEFF 		bl	chDbgPanic
 643 0012 F7E7     		b	.L48
 644              	.L51:
 645              		.align	2
 646              	.L50:
 647 0014 D8000000 		.word	.LC10
 648              		.cfi_endproc
 649              	.LFE70:
 650              		.size	i2cReleaseBus, .-i2cReleaseBus
 651 0018 AFF30080 		.section	.text.i2cSlaveIoTimeout,"ax",%progbits
 651      AFF30080 
 652              		.align	2
 653              		.p2align 4,,15
 654              		.global	i2cSlaveIoTimeout
 655              		.thumb
 656              		.thumb_func
 657              		.type	i2cSlaveIoTimeout, %function
 658              	i2cSlaveIoTimeout:
 659              	.LFB71:
 660              		.loc 1 317 0
 661              		.cfi_startproc
 662              		@ args = 20, pretend = 0, frame = 0
 663              		@ frame_needed = 0, uses_anonymous_args = 0
 664              	.LVL50:
 665 0000 F0B5     		push	{r4, r5, r6, r7, lr}
 666              	.LCFI9:
 667              		.cfi_def_cfa_offset 20
 668 0002 1D46     		mov	r5, r3
 669              		.cfi_offset 14, -4
 670              		.cfi_offset 7, -8
 671              		.cfi_offset 6, -12
 672              		.cfi_offset 5, -16
 673              		.cfi_offset 4, -20
ARM GAS  /tmp/cci0vxXu.s 			page 13


 674 0004 87B0     		sub	sp, sp, #28
 675              	.LCFI10:
 676              		.cfi_def_cfa_offset 48
 677              		.loc 1 317 0
 678 0006 0446     		mov	r4, r0
 679 0008 0F46     		mov	r7, r1
 680 000a 1646     		mov	r6, r2
 681              	.LBB10:
 682              		.loc 1 320 0
 683 000c 2023     		movs	r3, #32
 684              	.LVL51:
 685              	@ 320 "../chibios_2.4.x/os/hal/src/i2c.c" 1
 686 000e 83F31188 		msr     BASEPRI, r3
 687              	@ 0 "" 2
 688              	.LVL52:
 689              		.thumb
 690              	.LBE10:
 691 0012 FFF7FEFF 		bl	dbg_check_lock
 692              	.LVL53:
 693              		.loc 1 321 0
 694 0016 0023     		movs	r3, #0
 695 0018 A360     		str	r3, [r4, #8]
 696              		.loc 1 322 0
 697 001a 2370     		strb	r3, [r4, #0]
 698              		.loc 1 323 0
 699 001c 2B46     		mov	r3, r5
 700 001e 0C9D     		ldr	r5, [sp, #48]
 701              	.LVL54:
 702 0020 2046     		mov	r0, r4
 703 0022 0095     		str	r5, [sp, #0]
 704 0024 0D9D     		ldr	r5, [sp, #52]
 705 0026 3946     		mov	r1, r7
 706 0028 0195     		str	r5, [sp, #4]
 707 002a 0E9D     		ldr	r5, [sp, #56]
 708 002c 3246     		mov	r2, r6
 709 002e 0295     		str	r5, [sp, #8]
 710 0030 0F9D     		ldr	r5, [sp, #60]
 711 0032 0395     		str	r5, [sp, #12]
 712 0034 109D     		ldr	r5, [sp, #64]
 713 0036 0495     		str	r5, [sp, #16]
 714 0038 FFF7FEFF 		bl	i2c_lld_slave_io_timeout
 715              	.LVL55:
 716              		.loc 1 330 0
 717 003c B0F1FF3F 		cmp	r0, #-1
 718              		.loc 1 323 0
 719 0040 0546     		mov	r5, r0
 720              	.LVL56:
 721              		.loc 1 330 0
 722 0042 09D0     		beq	.L55
 723              		.loc 1 333 0
 724 0044 0221     		movs	r1, #2
 725 0046 2170     		strb	r1, [r4, #0]
 726              	.LVL57:
 727              	.L54:
 728              		.loc 1 334 0
 729 0048 FFF7FEFF 		bl	dbg_check_unlock
 730              	.LBB11:
ARM GAS  /tmp/cci0vxXu.s 			page 14


 731 004c 0023     		movs	r3, #0
 732              	.LVL58:
 733              	@ 334 "../chibios_2.4.x/os/hal/src/i2c.c" 1
 734 004e 83F31188 		msr     BASEPRI, r3
 735              	@ 0 "" 2
 736              	.LVL59:
 737              		.thumb
 738              	.LBE11:
 739              		.loc 1 337 0
 740 0052 2846     		mov	r0, r5
 741 0054 07B0     		add	sp, sp, #28
 742 0056 F0BD     		pop	{r4, r5, r6, r7, pc}
 743              	.LVL60:
 744              	.L55:
 745              		.loc 1 331 0
 746 0058 0520     		movs	r0, #5
 747 005a 2070     		strb	r0, [r4, #0]
 748 005c F4E7     		b	.L54
 749              		.cfi_endproc
 750              	.LFE71:
 751              		.size	i2cSlaveIoTimeout, .-i2cSlaveIoTimeout
 752 005e 00BF     		.section	.rodata.str1.4,"aMS",%progbits,1
 753              		.align	2
 754              	.LC0:
 755 0000 22693263 		.ascii	"\"i2cStart\"()\000"
 755      53746172 
 755      74222829 
 755      00
 756 000d 000000   		.space	3
 757              	.LC1:
 758 0010 69326353 		.ascii	"i2cStart(), #1\000"
 758      74617274 
 758      28292C20 
 758      233100
 759 001f 00       		.space	1
 760              	.LC2:
 761 0020 22693263 		.ascii	"\"i2cStop\"()\000"
 761      53746F70 
 761      22282900 
 762              	.LC3:
 763 002c 69326353 		.ascii	"i2cStop(), #1\000"
 763      746F7028 
 763      292C2023 
 763      3100
 764 003a 0000     		.space	2
 765              	.LC4:
 766 003c 22693263 		.ascii	"\"i2cGetErrors\"()\000"
 766      47657445 
 766      72726F72 
 766      73222829 
 766      00
 767 004d 000000   		.space	3
 768              	.LC5:
 769 0050 22693263 		.ascii	"\"i2cMasterTransmitTimeout\"()\000"
 769      4D617374 
 769      65725472 
 769      616E736D 
ARM GAS  /tmp/cci0vxXu.s 			page 15


 769      69745469 
 770 006d 000000   		.space	3
 771              	.LC6:
 772 0070 6932634D 		.ascii	"i2cMasterTransmitTimeout(), #1\000"
 772      61737465 
 772      72547261 
 772      6E736D69 
 772      7454696D 
 773 008f 00       		.space	1
 774              	.LC7:
 775 0090 22693263 		.ascii	"\"i2cMasterReceiveTimeout\"()\000"
 775      4D617374 
 775      65725265 
 775      63656976 
 775      6554696D 
 776              	.LC8:
 777 00ac 6932634D 		.ascii	"i2cMasterReceive(), #1\000"
 777      61737465 
 777      72526563 
 777      65697665 
 777      28292C20 
 778 00c3 00       		.space	1
 779              	.LC9:
 780 00c4 22693263 		.ascii	"\"i2cAcquireBus\"()\000"
 780      41637175 
 780      69726542 
 780      75732228 
 780      2900
 781 00d6 0000     		.space	2
 782              	.LC10:
 783 00d8 22693263 		.ascii	"\"i2cReleaseBus\"()\000"
 783      52656C65 
 783      61736542 
 783      75732228 
 783      2900
 784 00ea 0000     		.text
 785              	.Letext0:
 786              		.section	.debug_loc,"",%progbits
 787              	.Ldebug_loc0:
 788              	.LLST0:
 789 0000 00000000 		.4byte	.LVL0
 790 0004 0A000000 		.4byte	.LVL1
 791 0008 0100     		.2byte	0x1
 792 000a 50       		.byte	0x50
 793 000b 0A000000 		.4byte	.LVL1
 794 000f 0E000000 		.4byte	.LFE63
 795 0013 0300     		.2byte	0x3
 796 0015 70       		.byte	0x70
 797 0016 74       		.sleb128 -12
 798 0017 9F       		.byte	0x9f
 799 0018 00000000 		.4byte	0x0
 800 001c 00000000 		.4byte	0x0
 801              	.LLST1:
 802 0020 00000000 		.4byte	.LFB64
 803 0024 02000000 		.4byte	.LCFI0
 804 0028 0200     		.2byte	0x2
 805 002a 7D       		.byte	0x7d
ARM GAS  /tmp/cci0vxXu.s 			page 16


 806 002b 00       		.sleb128 0
 807 002c 02000000 		.4byte	.LCFI0
 808 0030 50000000 		.4byte	.LFE64
 809 0034 0200     		.2byte	0x2
 810 0036 7D       		.byte	0x7d
 811 0037 10       		.sleb128 16
 812 0038 00000000 		.4byte	0x0
 813 003c 00000000 		.4byte	0x0
 814              	.LLST2:
 815 0040 00000000 		.4byte	.LVL2
 816 0044 0A000000 		.4byte	.LVL3
 817 0048 0100     		.2byte	0x1
 818 004a 50       		.byte	0x50
 819 004b 0A000000 		.4byte	.LVL3
 820 004f 50000000 		.4byte	.LFE64
 821 0053 0100     		.2byte	0x1
 822 0055 54       		.byte	0x54
 823 0056 00000000 		.4byte	0x0
 824 005a 00000000 		.4byte	0x0
 825              	.LLST3:
 826 005e 00000000 		.4byte	.LVL2
 827 0062 0A000000 		.4byte	.LVL3
 828 0066 0100     		.2byte	0x1
 829 0068 51       		.byte	0x51
 830 0069 0A000000 		.4byte	.LVL3
 831 006d 50000000 		.4byte	.LFE64
 832 0071 0100     		.2byte	0x1
 833 0073 55       		.byte	0x55
 834 0074 00000000 		.4byte	0x0
 835 0078 00000000 		.4byte	0x0
 836              	.LLST4:
 837 007c 24000000 		.4byte	.LVL5
 838 0080 27000000 		.4byte	.LVL6-1
 839 0084 0100     		.2byte	0x1
 840 0086 53       		.byte	0x53
 841 0087 00000000 		.4byte	0x0
 842 008b 00000000 		.4byte	0x0
 843              	.LLST5:
 844 008f 3E000000 		.4byte	.LVL8
 845 0093 40000000 		.4byte	.LVL9
 846 0097 0100     		.2byte	0x1
 847 0099 53       		.byte	0x53
 848 009a 00000000 		.4byte	0x0
 849 009e 00000000 		.4byte	0x0
 850              	.LLST6:
 851 00a2 00000000 		.4byte	.LFB65
 852 00a6 02000000 		.4byte	.LCFI1
 853 00aa 0200     		.2byte	0x2
 854 00ac 7D       		.byte	0x7d
 855 00ad 00       		.sleb128 0
 856 00ae 02000000 		.4byte	.LCFI1
 857 00b2 4C000000 		.4byte	.LFE65
 858 00b6 0200     		.2byte	0x2
 859 00b8 7D       		.byte	0x7d
 860 00b9 08       		.sleb128 8
 861 00ba 00000000 		.4byte	0x0
 862 00be 00000000 		.4byte	0x0
ARM GAS  /tmp/cci0vxXu.s 			page 17


 863              	.LLST7:
 864 00c2 00000000 		.4byte	.LVL10
 865 00c6 06000000 		.4byte	.LVL11
 866 00ca 0100     		.2byte	0x1
 867 00cc 50       		.byte	0x50
 868 00cd 06000000 		.4byte	.LVL11
 869 00d1 4C000000 		.4byte	.LFE65
 870 00d5 0100     		.2byte	0x1
 871 00d7 54       		.byte	0x54
 872 00d8 00000000 		.4byte	0x0
 873 00dc 00000000 		.4byte	0x0
 874              	.LLST8:
 875 00e0 20000000 		.4byte	.LVL13
 876 00e4 23000000 		.4byte	.LVL14-1
 877 00e8 0100     		.2byte	0x1
 878 00ea 53       		.byte	0x53
 879 00eb 00000000 		.4byte	0x0
 880 00ef 00000000 		.4byte	0x0
 881              	.LLST9:
 882 00f3 38000000 		.4byte	.LVL16
 883 00f7 3A000000 		.4byte	.LVL17
 884 00fb 0100     		.2byte	0x1
 885 00fd 53       		.byte	0x53
 886 00fe 00000000 		.4byte	0x0
 887 0102 00000000 		.4byte	0x0
 888              	.LLST10:
 889 0106 00000000 		.4byte	.LFB66
 890 010a 02000000 		.4byte	.LCFI2
 891 010e 0200     		.2byte	0x2
 892 0110 7D       		.byte	0x7d
 893 0111 00       		.sleb128 0
 894 0112 02000000 		.4byte	.LCFI2
 895 0116 18000000 		.4byte	.LFE66
 896 011a 0200     		.2byte	0x2
 897 011c 7D       		.byte	0x7d
 898 011d 08       		.sleb128 8
 899 011e 00000000 		.4byte	0x0
 900 0122 00000000 		.4byte	0x0
 901              	.LLST11:
 902 0126 00000000 		.4byte	.LVL18
 903 012a 08000000 		.4byte	.LVL19
 904 012e 0100     		.2byte	0x1
 905 0130 50       		.byte	0x50
 906 0131 08000000 		.4byte	.LVL19
 907 0135 18000000 		.4byte	.LFE66
 908 0139 0100     		.2byte	0x1
 909 013b 54       		.byte	0x54
 910 013c 00000000 		.4byte	0x0
 911 0140 00000000 		.4byte	0x0
 912              	.LLST12:
 913 0144 00000000 		.4byte	.LFB67
 914 0148 04000000 		.4byte	.LCFI3
 915 014c 0200     		.2byte	0x2
 916 014e 7D       		.byte	0x7d
 917 014f 00       		.sleb128 0
 918 0150 04000000 		.4byte	.LCFI3
 919 0154 06000000 		.4byte	.LCFI4
ARM GAS  /tmp/cci0vxXu.s 			page 18


 920 0158 0200     		.2byte	0x2
 921 015a 7D       		.byte	0x7d
 922 015b 20       		.sleb128 32
 923 015c 06000000 		.4byte	.LCFI4
 924 0160 98000000 		.4byte	.LFE67
 925 0164 0200     		.2byte	0x2
 926 0166 7D       		.byte	0x7d
 927 0167 30       		.sleb128 48
 928 0168 00000000 		.4byte	0x0
 929 016c 00000000 		.4byte	0x0
 930              	.LLST13:
 931 0170 00000000 		.4byte	.LVL20
 932 0174 1E000000 		.4byte	.LVL21
 933 0178 0100     		.2byte	0x1
 934 017a 50       		.byte	0x50
 935 017b 1E000000 		.4byte	.LVL21
 936 017f 98000000 		.4byte	.LFE67
 937 0183 0100     		.2byte	0x1
 938 0185 54       		.byte	0x54
 939 0186 00000000 		.4byte	0x0
 940 018a 00000000 		.4byte	0x0
 941              	.LLST14:
 942 018e 00000000 		.4byte	.LVL20
 943 0192 21000000 		.4byte	.LVL22-1
 944 0196 0100     		.2byte	0x1
 945 0198 51       		.byte	0x51
 946 0199 72000000 		.4byte	.LVL30
 947 019d 88000000 		.4byte	.LVL31
 948 01a1 0100     		.2byte	0x1
 949 01a3 51       		.byte	0x51
 950 01a4 00000000 		.4byte	0x0
 951 01a8 00000000 		.4byte	0x0
 952              	.LLST15:
 953 01ac 00000000 		.4byte	.LVL20
 954 01b0 21000000 		.4byte	.LVL22-1
 955 01b4 0100     		.2byte	0x1
 956 01b6 52       		.byte	0x52
 957 01b7 21000000 		.4byte	.LVL22-1
 958 01bb 98000000 		.4byte	.LFE67
 959 01bf 0100     		.2byte	0x1
 960 01c1 59       		.byte	0x59
 961 01c2 00000000 		.4byte	0x0
 962 01c6 00000000 		.4byte	0x0
 963              	.LLST16:
 964 01ca 00000000 		.4byte	.LVL20
 965 01ce 21000000 		.4byte	.LVL22-1
 966 01d2 0100     		.2byte	0x1
 967 01d4 53       		.byte	0x53
 968 01d5 21000000 		.4byte	.LVL22-1
 969 01d9 5A000000 		.4byte	.LVL26
 970 01dd 0100     		.2byte	0x1
 971 01df 55       		.byte	0x55
 972 01e0 72000000 		.4byte	.LVL30
 973 01e4 88000000 		.4byte	.LVL31
 974 01e8 0100     		.2byte	0x1
 975 01ea 53       		.byte	0x53
 976 01eb 00000000 		.4byte	0x0
ARM GAS  /tmp/cci0vxXu.s 			page 19


 977 01ef 00000000 		.4byte	0x0
 978              	.LLST17:
 979 01f3 5A000000 		.4byte	.LVL26
 980 01f7 63000000 		.4byte	.LVL27-1
 981 01fb 0100     		.2byte	0x1
 982 01fd 50       		.byte	0x50
 983 01fe 63000000 		.4byte	.LVL27-1
 984 0202 72000000 		.4byte	.LVL30
 985 0206 0100     		.2byte	0x1
 986 0208 55       		.byte	0x55
 987 0209 88000000 		.4byte	.LVL31
 988 020d 98000000 		.4byte	.LFE67
 989 0211 0100     		.2byte	0x1
 990 0213 50       		.byte	0x50
 991 0214 00000000 		.4byte	0x0
 992 0218 00000000 		.4byte	0x0
 993              	.LLST18:
 994 021c 34000000 		.4byte	.LVL24
 995 0220 37000000 		.4byte	.LVL25-1
 996 0224 0100     		.2byte	0x1
 997 0226 53       		.byte	0x53
 998 0227 00000000 		.4byte	0x0
 999 022b 00000000 		.4byte	0x0
 1000              	.LLST19:
 1001 022f 6A000000 		.4byte	.LVL29
 1002 0233 72000000 		.4byte	.LVL30
 1003 0237 0100     		.2byte	0x1
 1004 0239 53       		.byte	0x53
 1005 023a 00000000 		.4byte	0x0
 1006 023e 00000000 		.4byte	0x0
 1007              	.LLST20:
 1008 0242 00000000 		.4byte	.LFB68
 1009 0246 04000000 		.4byte	.LCFI5
 1010 024a 0200     		.2byte	0x2
 1011 024c 7D       		.byte	0x7d
 1012 024d 00       		.sleb128 0
 1013 024e 04000000 		.4byte	.LCFI5
 1014 0252 06000000 		.4byte	.LCFI6
 1015 0256 0200     		.2byte	0x2
 1016 0258 7D       		.byte	0x7d
 1017 0259 18       		.sleb128 24
 1018 025a 06000000 		.4byte	.LCFI6
 1019 025e 84000000 		.4byte	.LFE68
 1020 0262 0200     		.2byte	0x2
 1021 0264 7D       		.byte	0x7d
 1022 0265 20       		.sleb128 32
 1023 0266 00000000 		.4byte	0x0
 1024 026a 00000000 		.4byte	0x0
 1025              	.LLST21:
 1026 026e 00000000 		.4byte	.LVL32
 1027 0272 18000000 		.4byte	.LVL33
 1028 0276 0100     		.2byte	0x1
 1029 0278 50       		.byte	0x50
 1030 0279 18000000 		.4byte	.LVL33
 1031 027d 84000000 		.4byte	.LFE68
 1032 0281 0100     		.2byte	0x1
 1033 0283 54       		.byte	0x54
ARM GAS  /tmp/cci0vxXu.s 			page 20


 1034 0284 00000000 		.4byte	0x0
 1035 0288 00000000 		.4byte	0x0
 1036              	.LLST22:
 1037 028c 00000000 		.4byte	.LVL32
 1038 0290 1B000000 		.4byte	.LVL34-1
 1039 0294 0100     		.2byte	0x1
 1040 0296 51       		.byte	0x51
 1041 0297 66000000 		.4byte	.LVL42
 1042 029b 74000000 		.4byte	.LVL43
 1043 029f 0100     		.2byte	0x1
 1044 02a1 51       		.byte	0x51
 1045 02a2 00000000 		.4byte	0x0
 1046 02a6 00000000 		.4byte	0x0
 1047              	.LLST23:
 1048 02aa 00000000 		.4byte	.LVL32
 1049 02ae 1B000000 		.4byte	.LVL34-1
 1050 02b2 0100     		.2byte	0x1
 1051 02b4 52       		.byte	0x52
 1052 02b5 1B000000 		.4byte	.LVL34-1
 1053 02b9 84000000 		.4byte	.LFE68
 1054 02bd 0100     		.2byte	0x1
 1055 02bf 58       		.byte	0x58
 1056 02c0 00000000 		.4byte	0x0
 1057 02c4 00000000 		.4byte	0x0
 1058              	.LLST24:
 1059 02c8 00000000 		.4byte	.LVL32
 1060 02cc 1B000000 		.4byte	.LVL34-1
 1061 02d0 0100     		.2byte	0x1
 1062 02d2 53       		.byte	0x53
 1063 02d3 1B000000 		.4byte	.LVL34-1
 1064 02d7 4E000000 		.4byte	.LVL38
 1065 02db 0100     		.2byte	0x1
 1066 02dd 55       		.byte	0x55
 1067 02de 66000000 		.4byte	.LVL42
 1068 02e2 74000000 		.4byte	.LVL43
 1069 02e6 0100     		.2byte	0x1
 1070 02e8 53       		.byte	0x53
 1071 02e9 00000000 		.4byte	0x0
 1072 02ed 00000000 		.4byte	0x0
 1073              	.LLST25:
 1074 02f1 4E000000 		.4byte	.LVL38
 1075 02f5 57000000 		.4byte	.LVL39-1
 1076 02f9 0100     		.2byte	0x1
 1077 02fb 50       		.byte	0x50
 1078 02fc 57000000 		.4byte	.LVL39-1
 1079 0300 66000000 		.4byte	.LVL42
 1080 0304 0100     		.2byte	0x1
 1081 0306 55       		.byte	0x55
 1082 0307 74000000 		.4byte	.LVL43
 1083 030b 84000000 		.4byte	.LFE68
 1084 030f 0100     		.2byte	0x1
 1085 0311 50       		.byte	0x50
 1086 0312 00000000 		.4byte	0x0
 1087 0316 00000000 		.4byte	0x0
 1088              	.LLST26:
 1089 031a 2E000000 		.4byte	.LVL36
 1090 031e 31000000 		.4byte	.LVL37-1
ARM GAS  /tmp/cci0vxXu.s 			page 21


 1091 0322 0100     		.2byte	0x1
 1092 0324 53       		.byte	0x53
 1093 0325 00000000 		.4byte	0x0
 1094 0329 00000000 		.4byte	0x0
 1095              	.LLST27:
 1096 032d 5E000000 		.4byte	.LVL41
 1097 0331 66000000 		.4byte	.LVL42
 1098 0335 0100     		.2byte	0x1
 1099 0337 53       		.byte	0x53
 1100 0338 00000000 		.4byte	0x0
 1101 033c 00000000 		.4byte	0x0
 1102              	.LLST28:
 1103 0340 00000000 		.4byte	.LFB69
 1104 0344 02000000 		.4byte	.LCFI7
 1105 0348 0200     		.2byte	0x2
 1106 034a 7D       		.byte	0x7d
 1107 034b 00       		.sleb128 0
 1108 034c 02000000 		.4byte	.LCFI7
 1109 0350 20000000 		.4byte	.LFE69
 1110 0354 0200     		.2byte	0x2
 1111 0356 7D       		.byte	0x7d
 1112 0357 08       		.sleb128 8
 1113 0358 00000000 		.4byte	0x0
 1114 035c 00000000 		.4byte	0x0
 1115              	.LLST29:
 1116 0360 00000000 		.4byte	.LVL44
 1117 0364 06000000 		.4byte	.LVL45
 1118 0368 0100     		.2byte	0x1
 1119 036a 50       		.byte	0x50
 1120 036b 06000000 		.4byte	.LVL45
 1121 036f 20000000 		.4byte	.LFE69
 1122 0373 0100     		.2byte	0x1
 1123 0375 54       		.byte	0x54
 1124 0376 00000000 		.4byte	0x0
 1125 037a 00000000 		.4byte	0x0
 1126              	.LLST30:
 1127 037e 00000000 		.4byte	.LFB70
 1128 0382 02000000 		.4byte	.LCFI8
 1129 0386 0200     		.2byte	0x2
 1130 0388 7D       		.byte	0x7d
 1131 0389 00       		.sleb128 0
 1132 038a 02000000 		.4byte	.LCFI8
 1133 038e 18000000 		.4byte	.LFE70
 1134 0392 0200     		.2byte	0x2
 1135 0394 7D       		.byte	0x7d
 1136 0395 08       		.sleb128 8
 1137 0396 00000000 		.4byte	0x0
 1138 039a 00000000 		.4byte	0x0
 1139              	.LLST31:
 1140 039e 00000000 		.4byte	.LVL46
 1141 03a2 04000000 		.4byte	.LVL47
 1142 03a6 0100     		.2byte	0x1
 1143 03a8 50       		.byte	0x50
 1144 03a9 0C000000 		.4byte	.LVL48
 1145 03ad 0E000000 		.4byte	.LVL49
 1146 03b1 0100     		.2byte	0x1
 1147 03b3 50       		.byte	0x50
ARM GAS  /tmp/cci0vxXu.s 			page 22


 1148 03b4 00000000 		.4byte	0x0
 1149 03b8 00000000 		.4byte	0x0
 1150              	.LLST32:
 1151 03bc 00000000 		.4byte	.LFB71
 1152 03c0 02000000 		.4byte	.LCFI9
 1153 03c4 0200     		.2byte	0x2
 1154 03c6 7D       		.byte	0x7d
 1155 03c7 00       		.sleb128 0
 1156 03c8 02000000 		.4byte	.LCFI9
 1157 03cc 06000000 		.4byte	.LCFI10
 1158 03d0 0200     		.2byte	0x2
 1159 03d2 7D       		.byte	0x7d
 1160 03d3 14       		.sleb128 20
 1161 03d4 06000000 		.4byte	.LCFI10
 1162 03d8 5E000000 		.4byte	.LFE71
 1163 03dc 0200     		.2byte	0x2
 1164 03de 7D       		.byte	0x7d
 1165 03df 30       		.sleb128 48
 1166 03e0 00000000 		.4byte	0x0
 1167 03e4 00000000 		.4byte	0x0
 1168              	.LLST33:
 1169 03e8 00000000 		.4byte	.LVL50
 1170 03ec 15000000 		.4byte	.LVL53-1
 1171 03f0 0100     		.2byte	0x1
 1172 03f2 50       		.byte	0x50
 1173 03f3 15000000 		.4byte	.LVL53-1
 1174 03f7 5E000000 		.4byte	.LFE71
 1175 03fb 0100     		.2byte	0x1
 1176 03fd 54       		.byte	0x54
 1177 03fe 00000000 		.4byte	0x0
 1178 0402 00000000 		.4byte	0x0
 1179              	.LLST34:
 1180 0406 00000000 		.4byte	.LVL50
 1181 040a 15000000 		.4byte	.LVL53-1
 1182 040e 0100     		.2byte	0x1
 1183 0410 51       		.byte	0x51
 1184 0411 00000000 		.4byte	0x0
 1185 0415 00000000 		.4byte	0x0
 1186              	.LLST35:
 1187 0419 00000000 		.4byte	.LVL50
 1188 041d 15000000 		.4byte	.LVL53-1
 1189 0421 0100     		.2byte	0x1
 1190 0423 52       		.byte	0x52
 1191 0424 15000000 		.4byte	.LVL53-1
 1192 0428 5E000000 		.4byte	.LFE71
 1193 042c 0100     		.2byte	0x1
 1194 042e 56       		.byte	0x56
 1195 042f 00000000 		.4byte	0x0
 1196 0433 00000000 		.4byte	0x0
 1197              	.LLST36:
 1198 0437 00000000 		.4byte	.LVL50
 1199 043b 0E000000 		.4byte	.LVL51
 1200 043f 0100     		.2byte	0x1
 1201 0441 53       		.byte	0x53
 1202 0442 0E000000 		.4byte	.LVL51
 1203 0446 20000000 		.4byte	.LVL54
 1204 044a 0100     		.2byte	0x1
ARM GAS  /tmp/cci0vxXu.s 			page 23


 1205 044c 55       		.byte	0x55
 1206 044d 20000000 		.4byte	.LVL54
 1207 0451 3B000000 		.4byte	.LVL55-1
 1208 0455 0100     		.2byte	0x1
 1209 0457 53       		.byte	0x53
 1210 0458 00000000 		.4byte	0x0
 1211 045c 00000000 		.4byte	0x0
 1212              	.LLST37:
 1213 0460 42000000 		.4byte	.LVL56
 1214 0464 48000000 		.4byte	.LVL57
 1215 0468 0100     		.2byte	0x1
 1216 046a 50       		.byte	0x50
 1217 046b 48000000 		.4byte	.LVL57
 1218 046f 5E000000 		.4byte	.LFE71
 1219 0473 0100     		.2byte	0x1
 1220 0475 55       		.byte	0x55
 1221 0476 00000000 		.4byte	0x0
 1222 047a 00000000 		.4byte	0x0
 1223              	.LLST38:
 1224 047e 12000000 		.4byte	.LVL52
 1225 0482 15000000 		.4byte	.LVL53-1
 1226 0486 0100     		.2byte	0x1
 1227 0488 53       		.byte	0x53
 1228 0489 00000000 		.4byte	0x0
 1229 048d 00000000 		.4byte	0x0
 1230              	.LLST39:
 1231 0491 52000000 		.4byte	.LVL59
 1232 0495 58000000 		.4byte	.LVL60
 1233 0499 0100     		.2byte	0x1
 1234 049b 53       		.byte	0x53
 1235 049c 00000000 		.4byte	0x0
 1236 04a0 00000000 		.4byte	0x0
 1237              		.file 2 "/home/z80/programs/code-sourcery/2011.03-42/bin/../lib/gcc/arm-none-eabi/4.5.2/include/st
 1238              		.file 3 "/home/z80/programs/code-sourcery/2011.03-42/bin/../lib/gcc/arm-none-eabi/4.5.2/../../../.
 1239              		.file 4 "../chibios_2.4.x/os/ports/GCC/ARMCMx/chtypes.h"
 1240              		.file 5 "../chibios_2.4.x/os/kernel/include/chlists.h"
 1241              		.file 6 "../chibios_2.4.x/os/kernel/include/chthreads.h"
 1242              		.file 7 "../chibios_2.4.x/os/ports/GCC/ARMCMx/chcore_v7m.h"
 1243              		.file 8 "../chibios_2.4.x/os/kernel/include/chmtx.h"
 1244              		.file 9 "../chibios_2.4.x/os/hal/platforms/STM32F1xx/stm32f10x.h"
 1245              		.file 10 "../chibios_2.4.x/os/hal/platforms/STM32F1xx/stm32_dma.h"
 1246              		.file 11 "../chibios_2.4.x/os/hal/include/i2c.h"
 1247              		.file 12 "../chibios_2.4.x/os/hal/platforms/STM32/i2c_lld.h"
 1248              		.file 13 "../chibios_2.4.x/os/ports/common/ARMCMx/CMSIS/include/core_cm3.h"
 1249              		.section	.debug_info
 1250 0000 2A0C0000 		.4byte	0xc2a
 1251 0004 0200     		.2byte	0x2
 1252 0006 00000000 		.4byte	.Ldebug_abbrev0
 1253 000a 04       		.byte	0x4
 1254 000b 01       		.uleb128 0x1
 1255 000c 31020000 		.4byte	.LASF130
 1256 0010 01       		.byte	0x1
 1257 0011 0B010000 		.4byte	.LASF131
 1258 0015 70020000 		.4byte	.LASF132
 1259 0019 00000000 		.4byte	0x0
 1260 001d 00000000 		.4byte	0x0
 1261 0021 00000000 		.4byte	.Ldebug_ranges0+0x0
ARM GAS  /tmp/cci0vxXu.s 			page 24


 1262 0025 00000000 		.4byte	.Ldebug_line0
 1263 0029 02       		.uleb128 0x2
 1264 002a 04       		.byte	0x4
 1265 002b 05       		.byte	0x5
 1266 002c 696E7400 		.ascii	"int\000"
 1267 0030 03       		.uleb128 0x3
 1268 0031 2F000000 		.4byte	.LASF2
 1269 0035 02       		.byte	0x2
 1270 0036 D3       		.byte	0xd3
 1271 0037 3B000000 		.4byte	0x3b
 1272 003b 04       		.uleb128 0x4
 1273 003c 04       		.byte	0x4
 1274 003d 07       		.byte	0x7
 1275 003e B4010000 		.4byte	.LASF0
 1276 0042 04       		.uleb128 0x4
 1277 0043 01       		.byte	0x1
 1278 0044 06       		.byte	0x6
 1279 0045 E0000000 		.4byte	.LASF1
 1280 0049 03       		.uleb128 0x3
 1281 004a DF040000 		.4byte	.LASF3
 1282 004e 03       		.byte	0x3
 1283 004f 2A       		.byte	0x2a
 1284 0050 54000000 		.4byte	0x54
 1285 0054 04       		.uleb128 0x4
 1286 0055 01       		.byte	0x1
 1287 0056 08       		.byte	0x8
 1288 0057 9E030000 		.4byte	.LASF4
 1289 005b 04       		.uleb128 0x4
 1290 005c 02       		.byte	0x2
 1291 005d 05       		.byte	0x5
 1292 005e 66020000 		.4byte	.LASF5
 1293 0062 03       		.uleb128 0x3
 1294 0063 45020000 		.4byte	.LASF6
 1295 0067 03       		.byte	0x3
 1296 0068 36       		.byte	0x36
 1297 0069 6D000000 		.4byte	0x6d
 1298 006d 04       		.uleb128 0x4
 1299 006e 02       		.byte	0x2
 1300 006f 07       		.byte	0x7
 1301 0070 0E020000 		.4byte	.LASF7
 1302 0074 03       		.uleb128 0x3
 1303 0075 96030000 		.4byte	.LASF8
 1304 0079 03       		.byte	0x3
 1305 007a 4F       		.byte	0x4f
 1306 007b 7F000000 		.4byte	0x7f
 1307 007f 04       		.uleb128 0x4
 1308 0080 04       		.byte	0x4
 1309 0081 05       		.byte	0x5
 1310 0082 3D010000 		.4byte	.LASF9
 1311 0086 03       		.uleb128 0x3
 1312 0087 3E040000 		.4byte	.LASF10
 1313 008b 03       		.byte	0x3
 1314 008c 50       		.byte	0x50
 1315 008d 91000000 		.4byte	0x91
 1316 0091 04       		.uleb128 0x4
 1317 0092 04       		.byte	0x4
 1318 0093 07       		.byte	0x7
ARM GAS  /tmp/cci0vxXu.s 			page 25


 1319 0094 67040000 		.4byte	.LASF11
 1320 0098 04       		.uleb128 0x4
 1321 0099 08       		.byte	0x8
 1322 009a 05       		.byte	0x5
 1323 009b D2000000 		.4byte	.LASF12
 1324 009f 03       		.uleb128 0x3
 1325 00a0 3D000000 		.4byte	.LASF13
 1326 00a4 03       		.byte	0x3
 1327 00a5 78       		.byte	0x78
 1328 00a6 AA000000 		.4byte	0xaa
 1329 00aa 04       		.uleb128 0x4
 1330 00ab 08       		.byte	0x8
 1331 00ac 07       		.byte	0x7
 1332 00ad 57000000 		.4byte	.LASF14
 1333 00b1 03       		.uleb128 0x3
 1334 00b2 3D020000 		.4byte	.LASF15
 1335 00b6 04       		.byte	0x4
 1336 00b7 2F       		.byte	0x2f
 1337 00b8 49000000 		.4byte	0x49
 1338 00bc 03       		.uleb128 0x3
 1339 00bd 46010000 		.4byte	.LASF16
 1340 00c1 04       		.byte	0x4
 1341 00c2 30       		.byte	0x30
 1342 00c3 49000000 		.4byte	0x49
 1343 00c7 03       		.uleb128 0x3
 1344 00c8 6F030000 		.4byte	.LASF17
 1345 00cc 04       		.byte	0x4
 1346 00cd 32       		.byte	0x32
 1347 00ce 86000000 		.4byte	0x86
 1348 00d2 03       		.uleb128 0x3
 1349 00d3 2B020000 		.4byte	.LASF18
 1350 00d7 04       		.byte	0x4
 1351 00d8 33       		.byte	0x33
 1352 00d9 74000000 		.4byte	0x74
 1353 00dd 03       		.uleb128 0x3
 1354 00de 5A020000 		.4byte	.LASF19
 1355 00e2 04       		.byte	0x4
 1356 00e3 35       		.byte	0x35
 1357 00e4 86000000 		.4byte	0x86
 1358 00e8 03       		.uleb128 0x3
 1359 00e9 98040000 		.4byte	.LASF20
 1360 00ed 04       		.byte	0x4
 1361 00ee 36       		.byte	0x36
 1362 00ef 86000000 		.4byte	0x86
 1363 00f3 03       		.uleb128 0x3
 1364 00f4 A2010000 		.4byte	.LASF21
 1365 00f8 05       		.byte	0x5
 1366 00f9 2A       		.byte	0x2a
 1367 00fa FE000000 		.4byte	0xfe
 1368 00fe 05       		.uleb128 0x5
 1369 00ff A2010000 		.4byte	.LASF21
 1370 0103 48       		.byte	0x48
 1371 0104 06       		.byte	0x6
 1372 0105 5E       		.byte	0x5e
 1373 0106 07020000 		.4byte	0x207
 1374 010a 06       		.uleb128 0x6
 1375 010b F0030000 		.4byte	.LASF22
ARM GAS  /tmp/cci0vxXu.s 			page 26


 1376 010f 06       		.byte	0x6
 1377 0110 5F       		.byte	0x5f
 1378 0111 2C020000 		.4byte	0x22c
 1379 0115 02       		.byte	0x2
 1380 0116 23       		.byte	0x23
 1381 0117 00       		.uleb128 0x0
 1382 0118 06       		.uleb128 0x6
 1383 0119 4A030000 		.4byte	.LASF23
 1384 011d 06       		.byte	0x6
 1385 011e 61       		.byte	0x61
 1386 011f 2C020000 		.4byte	0x22c
 1387 0123 02       		.byte	0x2
 1388 0124 23       		.byte	0x23
 1389 0125 04       		.uleb128 0x4
 1390 0126 06       		.uleb128 0x6
 1391 0127 AC000000 		.4byte	.LASF24
 1392 012b 06       		.byte	0x6
 1393 012c 63       		.byte	0x63
 1394 012d C7000000 		.4byte	0xc7
 1395 0131 02       		.byte	0x2
 1396 0132 23       		.byte	0x23
 1397 0133 08       		.uleb128 0x8
 1398 0134 06       		.uleb128 0x6
 1399 0135 61050000 		.4byte	.LASF25
 1400 0139 06       		.byte	0x6
 1401 013a 64       		.byte	0x64
 1402 013b 04030000 		.4byte	0x304
 1403 013f 02       		.byte	0x2
 1404 0140 23       		.byte	0x23
 1405 0141 0C       		.uleb128 0xc
 1406 0142 06       		.uleb128 0x6
 1407 0143 67010000 		.4byte	.LASF26
 1408 0147 06       		.byte	0x6
 1409 0148 66       		.byte	0x66
 1410 0149 2C020000 		.4byte	0x22c
 1411 014d 02       		.byte	0x2
 1412 014e 23       		.byte	0x23
 1413 014f 10       		.uleb128 0x10
 1414 0150 06       		.uleb128 0x6
 1415 0151 D3020000 		.4byte	.LASF27
 1416 0155 06       		.byte	0x6
 1417 0156 67       		.byte	0x67
 1418 0157 2C020000 		.4byte	0x22c
 1419 015b 02       		.byte	0x2
 1420 015c 23       		.byte	0x23
 1421 015d 14       		.uleb128 0x14
 1422 015e 06       		.uleb128 0x6
 1423 015f 18050000 		.4byte	.LASF28
 1424 0163 06       		.byte	0x6
 1425 0164 6E       		.byte	0x6e
 1426 0165 AE030000 		.4byte	0x3ae
 1427 0169 02       		.byte	0x2
 1428 016a 23       		.byte	0x23
 1429 016b 18       		.uleb128 0x18
 1430 016c 06       		.uleb128 0x6
 1431 016d A9010000 		.4byte	.LASF29
 1432 0171 06       		.byte	0x6
ARM GAS  /tmp/cci0vxXu.s 			page 27


 1433 0172 74       		.byte	0x74
 1434 0173 C0030000 		.4byte	0x3c0
 1435 0177 02       		.byte	0x2
 1436 0178 23       		.byte	0x23
 1437 0179 1C       		.uleb128 0x1c
 1438 017a 06       		.uleb128 0x6
 1439 017b D4030000 		.4byte	.LASF30
 1440 017f 06       		.byte	0x6
 1441 0180 79       		.byte	0x79
 1442 0181 BC000000 		.4byte	0xbc
 1443 0185 02       		.byte	0x2
 1444 0186 23       		.byte	0x23
 1445 0187 20       		.uleb128 0x20
 1446 0188 06       		.uleb128 0x6
 1447 0189 F7030000 		.4byte	.LASF31
 1448 018d 06       		.byte	0x6
 1449 018e 7D       		.byte	0x7d
 1450 018f B1000000 		.4byte	0xb1
 1451 0193 02       		.byte	0x2
 1452 0194 23       		.byte	0x23
 1453 0195 21       		.uleb128 0x21
 1454 0196 06       		.uleb128 0x6
 1455 0197 60010000 		.4byte	.LASF32
 1456 019b 06       		.byte	0x6
 1457 019c 89       		.byte	0x89
 1458 019d 2C030000 		.4byte	0x32c
 1459 01a1 02       		.byte	0x2
 1460 01a2 23       		.byte	0x23
 1461 01a3 24       		.uleb128 0x24
 1462 01a4 07       		.uleb128 0x7
 1463 01a5 705F7500 		.ascii	"p_u\000"
 1464 01a9 06       		.byte	0x6
 1465 01aa AE       		.byte	0xae
 1466 01ab 79030000 		.4byte	0x379
 1467 01af 02       		.byte	0x2
 1468 01b0 23       		.byte	0x23
 1469 01b1 28       		.uleb128 0x28
 1470 01b2 06       		.uleb128 0x6
 1471 01b3 67050000 		.4byte	.LASF33
 1472 01b7 06       		.byte	0x6
 1473 01b8 B3       		.byte	0xb3
 1474 01b9 54020000 		.4byte	0x254
 1475 01bd 02       		.byte	0x2
 1476 01be 23       		.byte	0x23
 1477 01bf 2C       		.uleb128 0x2c
 1478 01c0 06       		.uleb128 0x6
 1479 01c1 CC010000 		.4byte	.LASF34
 1480 01c5 06       		.byte	0x6
 1481 01c6 B9       		.byte	0xb9
 1482 01c7 32020000 		.4byte	0x232
 1483 01cb 02       		.byte	0x2
 1484 01cc 23       		.byte	0x23
 1485 01cd 30       		.uleb128 0x30
 1486 01ce 06       		.uleb128 0x6
 1487 01cf 27050000 		.4byte	.LASF35
 1488 01d3 06       		.byte	0x6
 1489 01d4 BD       		.byte	0xbd
ARM GAS  /tmp/cci0vxXu.s 			page 28


 1490 01d5 D2000000 		.4byte	0xd2
 1491 01d9 02       		.byte	0x2
 1492 01da 23       		.byte	0x23
 1493 01db 38       		.uleb128 0x38
 1494 01dc 06       		.uleb128 0x6
 1495 01dd 24040000 		.4byte	.LASF36
 1496 01e1 06       		.byte	0x6
 1497 01e2 C3       		.byte	0xc3
 1498 01e3 DD000000 		.4byte	0xdd
 1499 01e7 02       		.byte	0x2
 1500 01e8 23       		.byte	0x23
 1501 01e9 3C       		.uleb128 0x3c
 1502 01ea 06       		.uleb128 0x6
 1503 01eb BF030000 		.4byte	.LASF37
 1504 01ef 06       		.byte	0x6
 1505 01f0 CA       		.byte	0xca
 1506 01f1 C6030000 		.4byte	0x3c6
 1507 01f5 02       		.byte	0x2
 1508 01f6 23       		.byte	0x23
 1509 01f7 40       		.uleb128 0x40
 1510 01f8 06       		.uleb128 0x6
 1511 01f9 A2040000 		.4byte	.LASF38
 1512 01fd 06       		.byte	0x6
 1513 01fe CE       		.byte	0xce
 1514 01ff C7000000 		.4byte	0xc7
 1515 0203 02       		.byte	0x2
 1516 0204 23       		.byte	0x23
 1517 0205 44       		.uleb128 0x44
 1518 0206 00       		.byte	0x0
 1519 0207 08       		.uleb128 0x8
 1520 0208 08       		.byte	0x8
 1521 0209 05       		.byte	0x5
 1522 020a 61       		.byte	0x61
 1523 020b 2C020000 		.4byte	0x22c
 1524 020f 06       		.uleb128 0x6
 1525 0210 F0030000 		.4byte	.LASF22
 1526 0214 05       		.byte	0x5
 1527 0215 62       		.byte	0x62
 1528 0216 2C020000 		.4byte	0x22c
 1529 021a 02       		.byte	0x2
 1530 021b 23       		.byte	0x23
 1531 021c 00       		.uleb128 0x0
 1532 021d 06       		.uleb128 0x6
 1533 021e 4A030000 		.4byte	.LASF23
 1534 0222 05       		.byte	0x5
 1535 0223 64       		.byte	0x64
 1536 0224 2C020000 		.4byte	0x22c
 1537 0228 02       		.byte	0x2
 1538 0229 23       		.byte	0x23
 1539 022a 04       		.uleb128 0x4
 1540 022b 00       		.byte	0x0
 1541 022c 09       		.uleb128 0x9
 1542 022d 04       		.byte	0x4
 1543 022e F3000000 		.4byte	0xf3
 1544 0232 03       		.uleb128 0x3
 1545 0233 EB020000 		.4byte	.LASF39
 1546 0237 05       		.byte	0x5
ARM GAS  /tmp/cci0vxXu.s 			page 29


 1547 0238 66       		.byte	0x66
 1548 0239 07020000 		.4byte	0x207
 1549 023d 08       		.uleb128 0x8
 1550 023e 04       		.byte	0x4
 1551 023f 05       		.byte	0x5
 1552 0240 6B       		.byte	0x6b
 1553 0241 54020000 		.4byte	0x254
 1554 0245 06       		.uleb128 0x6
 1555 0246 F0030000 		.4byte	.LASF22
 1556 024a 05       		.byte	0x5
 1557 024b 6D       		.byte	0x6d
 1558 024c 2C020000 		.4byte	0x22c
 1559 0250 02       		.byte	0x2
 1560 0251 23       		.byte	0x23
 1561 0252 00       		.uleb128 0x0
 1562 0253 00       		.byte	0x0
 1563 0254 03       		.uleb128 0x3
 1564 0255 4E020000 		.4byte	.LASF40
 1565 0259 05       		.byte	0x5
 1566 025a 70       		.byte	0x70
 1567 025b 3D020000 		.4byte	0x23d
 1568 025f 03       		.uleb128 0x3
 1569 0260 87010000 		.4byte	.LASF41
 1570 0264 07       		.byte	0x7
 1571 0265 D7       		.byte	0xd7
 1572 0266 6A020000 		.4byte	0x26a
 1573 026a 0A       		.uleb128 0xa
 1574 026b 04       		.byte	0x4
 1575 026c 03       		.uleb128 0x3
 1576 026d A2020000 		.4byte	.LASF42
 1577 0271 07       		.byte	0x7
 1578 0272 DD       		.byte	0xdd
 1579 0273 9F000000 		.4byte	0x9f
 1580 0277 05       		.uleb128 0x5
 1581 0278 BF040000 		.4byte	.LASF43
 1582 027c 24       		.byte	0x24
 1583 027d 07       		.byte	0x7
 1584 027e FE       		.byte	0xfe
 1585 027f 04030000 		.4byte	0x304
 1586 0283 0B       		.uleb128 0xb
 1587 0284 723400   		.ascii	"r4\000"
 1588 0287 07       		.byte	0x7
 1589 0288 1101     		.2byte	0x111
 1590 028a 5F020000 		.4byte	0x25f
 1591 028e 02       		.byte	0x2
 1592 028f 23       		.byte	0x23
 1593 0290 00       		.uleb128 0x0
 1594 0291 0B       		.uleb128 0xb
 1595 0292 723500   		.ascii	"r5\000"
 1596 0295 07       		.byte	0x7
 1597 0296 1201     		.2byte	0x112
 1598 0298 5F020000 		.4byte	0x25f
 1599 029c 02       		.byte	0x2
 1600 029d 23       		.byte	0x23
 1601 029e 04       		.uleb128 0x4
 1602 029f 0B       		.uleb128 0xb
 1603 02a0 723600   		.ascii	"r6\000"
ARM GAS  /tmp/cci0vxXu.s 			page 30


 1604 02a3 07       		.byte	0x7
 1605 02a4 1301     		.2byte	0x113
 1606 02a6 5F020000 		.4byte	0x25f
 1607 02aa 02       		.byte	0x2
 1608 02ab 23       		.byte	0x23
 1609 02ac 08       		.uleb128 0x8
 1610 02ad 0B       		.uleb128 0xb
 1611 02ae 723700   		.ascii	"r7\000"
 1612 02b1 07       		.byte	0x7
 1613 02b2 1401     		.2byte	0x114
 1614 02b4 5F020000 		.4byte	0x25f
 1615 02b8 02       		.byte	0x2
 1616 02b9 23       		.byte	0x23
 1617 02ba 0C       		.uleb128 0xc
 1618 02bb 0B       		.uleb128 0xb
 1619 02bc 723800   		.ascii	"r8\000"
 1620 02bf 07       		.byte	0x7
 1621 02c0 1501     		.2byte	0x115
 1622 02c2 5F020000 		.4byte	0x25f
 1623 02c6 02       		.byte	0x2
 1624 02c7 23       		.byte	0x23
 1625 02c8 10       		.uleb128 0x10
 1626 02c9 0B       		.uleb128 0xb
 1627 02ca 723900   		.ascii	"r9\000"
 1628 02cd 07       		.byte	0x7
 1629 02ce 1601     		.2byte	0x116
 1630 02d0 5F020000 		.4byte	0x25f
 1631 02d4 02       		.byte	0x2
 1632 02d5 23       		.byte	0x23
 1633 02d6 14       		.uleb128 0x14
 1634 02d7 0B       		.uleb128 0xb
 1635 02d8 72313000 		.ascii	"r10\000"
 1636 02dc 07       		.byte	0x7
 1637 02dd 1701     		.2byte	0x117
 1638 02df 5F020000 		.4byte	0x25f
 1639 02e3 02       		.byte	0x2
 1640 02e4 23       		.byte	0x23
 1641 02e5 18       		.uleb128 0x18
 1642 02e6 0B       		.uleb128 0xb
 1643 02e7 72313100 		.ascii	"r11\000"
 1644 02eb 07       		.byte	0x7
 1645 02ec 1801     		.2byte	0x118
 1646 02ee 5F020000 		.4byte	0x25f
 1647 02f2 02       		.byte	0x2
 1648 02f3 23       		.byte	0x23
 1649 02f4 1C       		.uleb128 0x1c
 1650 02f5 0B       		.uleb128 0xb
 1651 02f6 6C7200   		.ascii	"lr\000"
 1652 02f9 07       		.byte	0x7
 1653 02fa 1901     		.2byte	0x119
 1654 02fc 5F020000 		.4byte	0x25f
 1655 0300 02       		.byte	0x2
 1656 0301 23       		.byte	0x23
 1657 0302 20       		.uleb128 0x20
 1658 0303 00       		.byte	0x0
 1659 0304 0C       		.uleb128 0xc
 1660 0305 B7040000 		.4byte	.LASF44
ARM GAS  /tmp/cci0vxXu.s 			page 31


 1661 0309 04       		.byte	0x4
 1662 030a 07       		.byte	0x7
 1663 030b 2301     		.2byte	0x123
 1664 030d 21030000 		.4byte	0x321
 1665 0311 0B       		.uleb128 0xb
 1666 0312 72313300 		.ascii	"r13\000"
 1667 0316 07       		.byte	0x7
 1668 0317 2401     		.2byte	0x124
 1669 0319 21030000 		.4byte	0x321
 1670 031d 02       		.byte	0x2
 1671 031e 23       		.byte	0x23
 1672 031f 00       		.uleb128 0x0
 1673 0320 00       		.byte	0x0
 1674 0321 09       		.uleb128 0x9
 1675 0322 04       		.byte	0x4
 1676 0323 77020000 		.4byte	0x277
 1677 0327 0D       		.uleb128 0xd
 1678 0328 86000000 		.4byte	0x86
 1679 032c 0D       		.uleb128 0xd
 1680 032d E8000000 		.4byte	0xe8
 1681 0331 05       		.uleb128 0x5
 1682 0332 B6020000 		.4byte	.LASF45
 1683 0336 10       		.byte	0x10
 1684 0337 08       		.byte	0x8
 1685 0338 2C       		.byte	0x2c
 1686 0339 68030000 		.4byte	0x368
 1687 033d 06       		.uleb128 0x6
 1688 033e 03010000 		.4byte	.LASF46
 1689 0342 08       		.byte	0x8
 1690 0343 2D       		.byte	0x2d
 1691 0344 32020000 		.4byte	0x232
 1692 0348 02       		.byte	0x2
 1693 0349 23       		.byte	0x23
 1694 034a 00       		.uleb128 0x0
 1695 034b 06       		.uleb128 0x6
 1696 034c 59050000 		.4byte	.LASF47
 1697 0350 08       		.byte	0x8
 1698 0351 2F       		.byte	0x2f
 1699 0352 2C020000 		.4byte	0x22c
 1700 0356 02       		.byte	0x2
 1701 0357 23       		.byte	0x23
 1702 0358 08       		.uleb128 0x8
 1703 0359 06       		.uleb128 0x6
 1704 035a 91040000 		.4byte	.LASF48
 1705 035e 08       		.byte	0x8
 1706 035f 31       		.byte	0x31
 1707 0360 68030000 		.4byte	0x368
 1708 0364 02       		.byte	0x2
 1709 0365 23       		.byte	0x23
 1710 0366 0C       		.uleb128 0xc
 1711 0367 00       		.byte	0x0
 1712 0368 09       		.uleb128 0x9
 1713 0369 04       		.byte	0x4
 1714 036a 31030000 		.4byte	0x331
 1715 036e 03       		.uleb128 0x3
 1716 036f B6020000 		.4byte	.LASF45
 1717 0373 08       		.byte	0x8
ARM GAS  /tmp/cci0vxXu.s 			page 32


 1718 0374 33       		.byte	0x33
 1719 0375 31030000 		.4byte	0x331
 1720 0379 0E       		.uleb128 0xe
 1721 037a 04       		.byte	0x4
 1722 037b 06       		.byte	0x6
 1723 037c 90       		.byte	0x90
 1724 037d AE030000 		.4byte	0x3ae
 1725 0381 0F       		.uleb128 0xf
 1726 0382 36000000 		.4byte	.LASF49
 1727 0386 06       		.byte	0x6
 1728 0387 97       		.byte	0x97
 1729 0388 D2000000 		.4byte	0xd2
 1730 038c 0F       		.uleb128 0xf
 1731 038d 7C000000 		.4byte	.LASF50
 1732 0391 06       		.byte	0x6
 1733 0392 9E       		.byte	0x9e
 1734 0393 D2000000 		.4byte	0xd2
 1735 0397 0F       		.uleb128 0xf
 1736 0398 11050000 		.4byte	.LASF51
 1737 039c 06       		.byte	0x6
 1738 039d A5       		.byte	0xa5
 1739 039e 6A020000 		.4byte	0x26a
 1740 03a2 0F       		.uleb128 0xf
 1741 03a3 E9030000 		.4byte	.LASF52
 1742 03a7 06       		.byte	0x6
 1743 03a8 AC       		.byte	0xac
 1744 03a9 DD000000 		.4byte	0xdd
 1745 03ad 00       		.byte	0x0
 1746 03ae 09       		.uleb128 0x9
 1747 03af 04       		.byte	0x4
 1748 03b0 B4030000 		.4byte	0x3b4
 1749 03b4 10       		.uleb128 0x10
 1750 03b5 B9030000 		.4byte	0x3b9
 1751 03b9 04       		.uleb128 0x4
 1752 03ba 01       		.byte	0x1
 1753 03bb 08       		.byte	0x8
 1754 03bc 79040000 		.4byte	.LASF53
 1755 03c0 09       		.uleb128 0x9
 1756 03c1 04       		.byte	0x4
 1757 03c2 6C020000 		.4byte	0x26c
 1758 03c6 09       		.uleb128 0x9
 1759 03c7 04       		.byte	0x4
 1760 03c8 6E030000 		.4byte	0x36e
 1761 03cc 09       		.uleb128 0x9
 1762 03cd 04       		.byte	0x4
 1763 03ce 49000000 		.4byte	0x49
 1764 03d2 09       		.uleb128 0x9
 1765 03d3 04       		.byte	0x4
 1766 03d4 D8030000 		.4byte	0x3d8
 1767 03d8 10       		.uleb128 0x10
 1768 03d9 49000000 		.4byte	0x49
 1769 03dd 0D       		.uleb128 0xd
 1770 03de 62000000 		.4byte	0x62
 1771 03e2 0D       		.uleb128 0xd
 1772 03e3 74000000 		.4byte	0x74
 1773 03e7 11       		.uleb128 0x11
 1774 03e8 10       		.byte	0x10
ARM GAS  /tmp/cci0vxXu.s 			page 33


 1775 03e9 09       		.byte	0x9
 1776 03ea 2D03     		.2byte	0x32d
 1777 03ec 2D040000 		.4byte	0x42d
 1778 03f0 0B       		.uleb128 0xb
 1779 03f1 43435200 		.ascii	"CCR\000"
 1780 03f5 09       		.byte	0x9
 1781 03f6 2F03     		.2byte	0x32f
 1782 03f8 27030000 		.4byte	0x327
 1783 03fc 02       		.byte	0x2
 1784 03fd 23       		.byte	0x23
 1785 03fe 00       		.uleb128 0x0
 1786 03ff 12       		.uleb128 0x12
 1787 0400 D4040000 		.4byte	.LASF54
 1788 0404 09       		.byte	0x9
 1789 0405 3003     		.2byte	0x330
 1790 0407 27030000 		.4byte	0x327
 1791 040b 02       		.byte	0x2
 1792 040c 23       		.byte	0x23
 1793 040d 04       		.uleb128 0x4
 1794 040e 12       		.uleb128 0x12
 1795 040f C7010000 		.4byte	.LASF55
 1796 0413 09       		.byte	0x9
 1797 0414 3103     		.2byte	0x331
 1798 0416 27030000 		.4byte	0x327
 1799 041a 02       		.byte	0x2
 1800 041b 23       		.byte	0x23
 1801 041c 08       		.uleb128 0x8
 1802 041d 12       		.uleb128 0x12
 1803 041e DA040000 		.4byte	.LASF56
 1804 0422 09       		.byte	0x9
 1805 0423 3203     		.2byte	0x332
 1806 0425 27030000 		.4byte	0x327
 1807 0429 02       		.byte	0x2
 1808 042a 23       		.byte	0x23
 1809 042b 0C       		.uleb128 0xc
 1810 042c 00       		.byte	0x0
 1811 042d 13       		.uleb128 0x13
 1812 042e DF010000 		.4byte	.LASF57
 1813 0432 09       		.byte	0x9
 1814 0433 3303     		.2byte	0x333
 1815 0435 E7030000 		.4byte	0x3e7
 1816 0439 11       		.uleb128 0x11
 1817 043a 24       		.byte	0x24
 1818 043b 09       		.byte	0x9
 1819 043c 1304     		.2byte	0x413
 1820 043e 50050000 		.4byte	0x550
 1821 0442 0B       		.uleb128 0xb
 1822 0443 43523100 		.ascii	"CR1\000"
 1823 0447 09       		.byte	0x9
 1824 0448 1504     		.2byte	0x415
 1825 044a DD030000 		.4byte	0x3dd
 1826 044e 02       		.byte	0x2
 1827 044f 23       		.byte	0x23
 1828 0450 00       		.uleb128 0x0
 1829 0451 12       		.uleb128 0x12
 1830 0452 18030000 		.4byte	.LASF58
 1831 0456 09       		.byte	0x9
ARM GAS  /tmp/cci0vxXu.s 			page 34


 1832 0457 1604     		.2byte	0x416
 1833 0459 62000000 		.4byte	0x62
 1834 045d 02       		.byte	0x2
 1835 045e 23       		.byte	0x23
 1836 045f 02       		.uleb128 0x2
 1837 0460 0B       		.uleb128 0xb
 1838 0461 43523200 		.ascii	"CR2\000"
 1839 0465 09       		.byte	0x9
 1840 0466 1704     		.2byte	0x417
 1841 0468 DD030000 		.4byte	0x3dd
 1842 046c 02       		.byte	0x2
 1843 046d 23       		.byte	0x23
 1844 046e 04       		.uleb128 0x4
 1845 046f 12       		.uleb128 0x12
 1846 0470 22030000 		.4byte	.LASF59
 1847 0474 09       		.byte	0x9
 1848 0475 1804     		.2byte	0x418
 1849 0477 62000000 		.4byte	0x62
 1850 047b 02       		.byte	0x2
 1851 047c 23       		.byte	0x23
 1852 047d 06       		.uleb128 0x6
 1853 047e 12       		.uleb128 0x12
 1854 047f E7040000 		.4byte	.LASF60
 1855 0483 09       		.byte	0x9
 1856 0484 1904     		.2byte	0x419
 1857 0486 DD030000 		.4byte	0x3dd
 1858 048a 02       		.byte	0x2
 1859 048b 23       		.byte	0x23
 1860 048c 08       		.uleb128 0x8
 1861 048d 12       		.uleb128 0x12
 1862 048e 2C030000 		.4byte	.LASF61
 1863 0492 09       		.byte	0x9
 1864 0493 1A04     		.2byte	0x41a
 1865 0495 62000000 		.4byte	0x62
 1866 0499 02       		.byte	0x2
 1867 049a 23       		.byte	0x23
 1868 049b 0A       		.uleb128 0xa
 1869 049c 12       		.uleb128 0x12
 1870 049d EC040000 		.4byte	.LASF62
 1871 04a1 09       		.byte	0x9
 1872 04a2 1B04     		.2byte	0x41b
 1873 04a4 DD030000 		.4byte	0x3dd
 1874 04a8 02       		.byte	0x2
 1875 04a9 23       		.byte	0x23
 1876 04aa 0C       		.uleb128 0xc
 1877 04ab 12       		.uleb128 0x12
 1878 04ac 36030000 		.4byte	.LASF63
 1879 04b0 09       		.byte	0x9
 1880 04b1 1C04     		.2byte	0x41c
 1881 04b3 62000000 		.4byte	0x62
 1882 04b7 02       		.byte	0x2
 1883 04b8 23       		.byte	0x23
 1884 04b9 0E       		.uleb128 0xe
 1885 04ba 0B       		.uleb128 0xb
 1886 04bb 445200   		.ascii	"DR\000"
 1887 04be 09       		.byte	0x9
 1888 04bf 1D04     		.2byte	0x41d
ARM GAS  /tmp/cci0vxXu.s 			page 35


 1889 04c1 DD030000 		.4byte	0x3dd
 1890 04c5 02       		.byte	0x2
 1891 04c6 23       		.byte	0x23
 1892 04c7 10       		.uleb128 0x10
 1893 04c8 12       		.uleb128 0x12
 1894 04c9 40030000 		.4byte	.LASF64
 1895 04cd 09       		.byte	0x9
 1896 04ce 1E04     		.2byte	0x41e
 1897 04d0 62000000 		.4byte	0x62
 1898 04d4 02       		.byte	0x2
 1899 04d5 23       		.byte	0x23
 1900 04d6 12       		.uleb128 0x12
 1901 04d7 0B       		.uleb128 0xb
 1902 04d8 53523100 		.ascii	"SR1\000"
 1903 04dc 09       		.byte	0x9
 1904 04dd 1F04     		.2byte	0x41f
 1905 04df DD030000 		.4byte	0x3dd
 1906 04e3 02       		.byte	0x2
 1907 04e4 23       		.byte	0x23
 1908 04e5 14       		.uleb128 0x14
 1909 04e6 12       		.uleb128 0x12
 1910 04e7 34040000 		.4byte	.LASF65
 1911 04eb 09       		.byte	0x9
 1912 04ec 2004     		.2byte	0x420
 1913 04ee 62000000 		.4byte	0x62
 1914 04f2 02       		.byte	0x2
 1915 04f3 23       		.byte	0x23
 1916 04f4 16       		.uleb128 0x16
 1917 04f5 0B       		.uleb128 0xb
 1918 04f6 53523200 		.ascii	"SR2\000"
 1919 04fa 09       		.byte	0x9
 1920 04fb 2104     		.2byte	0x421
 1921 04fd DD030000 		.4byte	0x3dd
 1922 0501 02       		.byte	0x2
 1923 0502 23       		.byte	0x23
 1924 0503 18       		.uleb128 0x18
 1925 0504 12       		.uleb128 0x12
 1926 0505 51030000 		.4byte	.LASF66
 1927 0509 09       		.byte	0x9
 1928 050a 2204     		.2byte	0x422
 1929 050c 62000000 		.4byte	0x62
 1930 0510 02       		.byte	0x2
 1931 0511 23       		.byte	0x23
 1932 0512 1A       		.uleb128 0x1a
 1933 0513 0B       		.uleb128 0xb
 1934 0514 43435200 		.ascii	"CCR\000"
 1935 0518 09       		.byte	0x9
 1936 0519 2304     		.2byte	0x423
 1937 051b DD030000 		.4byte	0x3dd
 1938 051f 02       		.byte	0x2
 1939 0520 23       		.byte	0x23
 1940 0521 1C       		.uleb128 0x1c
 1941 0522 12       		.uleb128 0x12
 1942 0523 5B030000 		.4byte	.LASF67
 1943 0527 09       		.byte	0x9
 1944 0528 2404     		.2byte	0x424
 1945 052a 62000000 		.4byte	0x62
ARM GAS  /tmp/cci0vxXu.s 			page 36


 1946 052e 02       		.byte	0x2
 1947 052f 23       		.byte	0x23
 1948 0530 1E       		.uleb128 0x1e
 1949 0531 12       		.uleb128 0x12
 1950 0532 46000000 		.4byte	.LASF68
 1951 0536 09       		.byte	0x9
 1952 0537 2504     		.2byte	0x425
 1953 0539 DD030000 		.4byte	0x3dd
 1954 053d 02       		.byte	0x2
 1955 053e 23       		.byte	0x23
 1956 053f 20       		.uleb128 0x20
 1957 0540 12       		.uleb128 0x12
 1958 0541 65030000 		.4byte	.LASF69
 1959 0545 09       		.byte	0x9
 1960 0546 2604     		.2byte	0x426
 1961 0548 62000000 		.4byte	0x62
 1962 054c 02       		.byte	0x2
 1963 054d 23       		.byte	0x23
 1964 054e 22       		.uleb128 0x22
 1965 054f 00       		.byte	0x0
 1966 0550 13       		.uleb128 0x13
 1967 0551 2D050000 		.4byte	.LASF70
 1968 0555 09       		.byte	0x9
 1969 0556 2704     		.2byte	0x427
 1970 0558 39040000 		.4byte	0x439
 1971 055c 08       		.uleb128 0x8
 1972 055d 0C       		.byte	0xc
 1973 055e 0A       		.byte	0xa
 1974 055f C2       		.byte	0xc2
 1975 0560 AB050000 		.4byte	0x5ab
 1976 0564 06       		.uleb128 0x6
 1977 0565 11040000 		.4byte	.LASF71
 1978 0569 0A       		.byte	0xa
 1979 056a C3       		.byte	0xc3
 1980 056b AB050000 		.4byte	0x5ab
 1981 056f 02       		.byte	0x2
 1982 0570 23       		.byte	0x23
 1983 0571 00       		.uleb128 0x0
 1984 0572 06       		.uleb128 0x6
 1985 0573 2F040000 		.4byte	.LASF72
 1986 0577 0A       		.byte	0xa
 1987 0578 C4       		.byte	0xc4
 1988 0579 B1050000 		.4byte	0x5b1
 1989 057d 02       		.byte	0x2
 1990 057e 23       		.byte	0x23
 1991 057f 04       		.uleb128 0x4
 1992 0580 06       		.uleb128 0x6
 1993 0581 F3010000 		.4byte	.LASF73
 1994 0585 0A       		.byte	0xa
 1995 0586 C5       		.byte	0xc5
 1996 0587 49000000 		.4byte	0x49
 1997 058b 02       		.byte	0x2
 1998 058c 23       		.byte	0x23
 1999 058d 08       		.uleb128 0x8
 2000 058e 06       		.uleb128 0x6
 2001 058f 90010000 		.4byte	.LASF74
 2002 0593 0A       		.byte	0xa
ARM GAS  /tmp/cci0vxXu.s 			page 37


 2003 0594 C7       		.byte	0xc7
 2004 0595 49000000 		.4byte	0x49
 2005 0599 02       		.byte	0x2
 2006 059a 23       		.byte	0x23
 2007 059b 09       		.uleb128 0x9
 2008 059c 06       		.uleb128 0x6
 2009 059d 85000000 		.4byte	.LASF75
 2010 05a1 0A       		.byte	0xa
 2011 05a2 C8       		.byte	0xc8
 2012 05a3 49000000 		.4byte	0x49
 2013 05a7 02       		.byte	0x2
 2014 05a8 23       		.byte	0x23
 2015 05a9 0A       		.uleb128 0xa
 2016 05aa 00       		.byte	0x0
 2017 05ab 09       		.uleb128 0x9
 2018 05ac 04       		.byte	0x4
 2019 05ad 2D040000 		.4byte	0x42d
 2020 05b1 09       		.uleb128 0x9
 2021 05b2 04       		.byte	0x4
 2022 05b3 27030000 		.4byte	0x327
 2023 05b7 03       		.uleb128 0x3
 2024 05b8 AC030000 		.4byte	.LASF76
 2025 05bc 0A       		.byte	0xa
 2026 05bd C9       		.byte	0xc9
 2027 05be 5C050000 		.4byte	0x55c
 2028 05c2 09       		.uleb128 0x9
 2029 05c3 04       		.byte	0x4
 2030 05c4 C8050000 		.4byte	0x5c8
 2031 05c8 10       		.uleb128 0x10
 2032 05c9 B7050000 		.4byte	0x5b7
 2033 05cd 14       		.uleb128 0x14
 2034 05ce 01       		.byte	0x1
 2035 05cf 0B       		.byte	0xb
 2036 05d0 5B       		.byte	0x5b
 2037 05d1 FA050000 		.4byte	0x5fa
 2038 05d5 15       		.uleb128 0x15
 2039 05d6 C9030000 		.4byte	.LASF77
 2040 05da 00       		.sleb128 0
 2041 05db 15       		.uleb128 0x15
 2042 05dc AD020000 		.4byte	.LASF78
 2043 05e0 01       		.sleb128 1
 2044 05e1 15       		.uleb128 0x15
 2045 05e2 AD040000 		.4byte	.LASF79
 2046 05e6 02       		.sleb128 2
 2047 05e7 15       		.uleb128 0x15
 2048 05e8 77030000 		.4byte	.LASF80
 2049 05ec 03       		.sleb128 3
 2050 05ed 15       		.uleb128 0x15
 2051 05ee 59040000 		.4byte	.LASF81
 2052 05f2 04       		.sleb128 4
 2053 05f3 15       		.uleb128 0x15
 2054 05f4 19040000 		.4byte	.LASF82
 2055 05f8 05       		.sleb128 5
 2056 05f9 00       		.byte	0x0
 2057 05fa 03       		.uleb128 0x3
 2058 05fb 24000000 		.4byte	.LASF83
 2059 05ff 0B       		.byte	0xb
ARM GAS  /tmp/cci0vxXu.s 			page 38


 2060 0600 62       		.byte	0x62
 2061 0601 CD050000 		.4byte	0x5cd
 2062 0605 13       		.uleb128 0x13
 2063 0606 2D010000 		.4byte	.LASF84
 2064 060a 0C       		.byte	0xc
 2065 060b 4001     		.2byte	0x140
 2066 060d 62000000 		.4byte	0x62
 2067 0611 13       		.uleb128 0x13
 2068 0612 85030000 		.4byte	.LASF85
 2069 0616 0C       		.byte	0xc
 2070 0617 4501     		.2byte	0x145
 2071 0619 86000000 		.4byte	0x86
 2072 061d 16       		.uleb128 0x16
 2073 061e 01       		.byte	0x1
 2074 061f 0C       		.byte	0xc
 2075 0620 4A01     		.2byte	0x14a
 2076 0622 39060000 		.4byte	0x639
 2077 0626 15       		.uleb128 0x15
 2078 0627 F8020000 		.4byte	.LASF86
 2079 062b 01       		.sleb128 1
 2080 062c 15       		.uleb128 0x15
 2081 062d FA010000 		.4byte	.LASF87
 2082 0631 02       		.sleb128 2
 2083 0632 15       		.uleb128 0x15
 2084 0633 75010000 		.4byte	.LASF88
 2085 0637 03       		.sleb128 3
 2086 0638 00       		.byte	0x0
 2087 0639 13       		.uleb128 0x13
 2088 063a 39050000 		.4byte	.LASF89
 2089 063e 0C       		.byte	0xc
 2090 063f 4E01     		.2byte	0x14e
 2091 0641 1D060000 		.4byte	0x61d
 2092 0645 16       		.uleb128 0x16
 2093 0646 01       		.byte	0x1
 2094 0647 0C       		.byte	0xc
 2095 0648 5301     		.2byte	0x153
 2096 064a 61060000 		.4byte	0x661
 2097 064e 15       		.uleb128 0x15
 2098 064f 00000000 		.4byte	.LASF90
 2099 0653 01       		.sleb128 1
 2100 0654 15       		.uleb128 0x15
 2101 0655 FF030000 		.4byte	.LASF91
 2102 0659 02       		.sleb128 2
 2103 065a 15       		.uleb128 0x15
 2104 065b 03030000 		.4byte	.LASF92
 2105 065f 03       		.sleb128 3
 2106 0660 00       		.byte	0x0
 2107 0661 13       		.uleb128 0x13
 2108 0662 15000000 		.4byte	.LASF93
 2109 0666 0C       		.byte	0xc
 2110 0667 5701     		.2byte	0x157
 2111 0669 45060000 		.4byte	0x645
 2112 066d 11       		.uleb128 0x11
 2113 066e 0C       		.byte	0xc
 2114 066f 0C       		.byte	0xc
 2115 0670 5C01     		.2byte	0x15c
 2116 0672 A4060000 		.4byte	0x6a4
ARM GAS  /tmp/cci0vxXu.s 			page 39


 2117 0676 12       		.uleb128 0x12
 2118 0677 9A010000 		.4byte	.LASF94
 2119 067b 0C       		.byte	0xc
 2120 067c 5D01     		.2byte	0x15d
 2121 067e 39060000 		.4byte	0x639
 2122 0682 02       		.byte	0x2
 2123 0683 23       		.byte	0x23
 2124 0684 00       		.uleb128 0x0
 2125 0685 12       		.uleb128 0x12
 2126 0686 F7000000 		.4byte	.LASF95
 2127 068a 0C       		.byte	0xc
 2128 068b 5E01     		.2byte	0x15e
 2129 068d 86000000 		.4byte	0x86
 2130 0691 02       		.byte	0x2
 2131 0692 23       		.byte	0x23
 2132 0693 04       		.uleb128 0x4
 2133 0694 12       		.uleb128 0x12
 2134 0695 C3020000 		.4byte	.LASF96
 2135 0699 0C       		.byte	0xc
 2136 069a 6101     		.2byte	0x161
 2137 069c 61060000 		.4byte	0x661
 2138 06a0 02       		.byte	0x2
 2139 06a1 23       		.byte	0x23
 2140 06a2 08       		.uleb128 0x8
 2141 06a3 00       		.byte	0x0
 2142 06a4 13       		.uleb128 0x13
 2143 06a5 56010000 		.4byte	.LASF97
 2144 06a9 0C       		.byte	0xc
 2145 06aa 6301     		.2byte	0x163
 2146 06ac 6D060000 		.4byte	0x66d
 2147 06b0 13       		.uleb128 0x13
 2148 06b1 21020000 		.4byte	.LASF98
 2149 06b5 0C       		.byte	0xc
 2150 06b6 6801     		.2byte	0x168
 2151 06b8 BC060000 		.4byte	0x6bc
 2152 06bc 0C       		.uleb128 0xc
 2153 06bd 21020000 		.4byte	.LASF98
 2154 06c1 58       		.byte	0x58
 2155 06c2 0C       		.byte	0xc
 2156 06c3 7101     		.2byte	0x171
 2157 06c5 E7070000 		.4byte	0x7e7
 2158 06c9 12       		.uleb128 0x12
 2159 06ca 37010000 		.4byte	.LASF99
 2160 06ce 0C       		.byte	0xc
 2161 06cf 7501     		.2byte	0x175
 2162 06d1 FA050000 		.4byte	0x5fa
 2163 06d5 02       		.byte	0x2
 2164 06d6 23       		.byte	0x23
 2165 06d7 00       		.uleb128 0x0
 2166 06d8 12       		.uleb128 0x12
 2167 06d9 7E040000 		.4byte	.LASF100
 2168 06dd 0C       		.byte	0xc
 2169 06de 7901     		.2byte	0x179
 2170 06e0 0B080000 		.4byte	0x80b
 2171 06e4 02       		.byte	0x2
 2172 06e5 23       		.byte	0x23
 2173 06e6 04       		.uleb128 0x4
ARM GAS  /tmp/cci0vxXu.s 			page 40


 2174 06e7 12       		.uleb128 0x12
 2175 06e8 BC020000 		.4byte	.LASF101
 2176 06ec 0C       		.byte	0xc
 2177 06ed 7D01     		.2byte	0x17d
 2178 06ef 11060000 		.4byte	0x611
 2179 06f3 02       		.byte	0x2
 2180 06f4 23       		.byte	0x23
 2181 06f5 08       		.uleb128 0x8
 2182 06f6 12       		.uleb128 0x12
 2183 06f7 90030000 		.4byte	.LASF102
 2184 06fb 0C       		.byte	0xc
 2185 06fc 8301     		.2byte	0x183
 2186 06fe 6E030000 		.4byte	0x36e
 2187 0702 02       		.byte	0x2
 2188 0703 23       		.byte	0x23
 2189 0704 0C       		.uleb128 0xc
 2190 0705 12       		.uleb128 0x12
 2191 0706 4F010000 		.4byte	.LASF103
 2192 070a 0C       		.byte	0xc
 2193 070b 8F01     		.2byte	0x18f
 2194 070d 2C020000 		.4byte	0x22c
 2195 0711 02       		.byte	0x2
 2196 0712 23       		.byte	0x23
 2197 0713 1C       		.uleb128 0x1c
 2198 0714 12       		.uleb128 0x12
 2199 0715 6E000000 		.4byte	.LASF104
 2200 0719 0C       		.byte	0xc
 2201 071a 9301     		.2byte	0x193
 2202 071c 05060000 		.4byte	0x605
 2203 0720 02       		.byte	0x2
 2204 0721 23       		.byte	0x23
 2205 0722 20       		.uleb128 0x20
 2206 0723 12       		.uleb128 0x12
 2207 0724 09050000 		.4byte	.LASF105
 2208 0728 0C       		.byte	0xc
 2209 0729 9701     		.2byte	0x197
 2210 072b 86000000 		.4byte	0x86
 2211 072f 02       		.byte	0x2
 2212 0730 23       		.byte	0x23
 2213 0731 24       		.uleb128 0x24
 2214 0732 12       		.uleb128 0x12
 2215 0733 0F000000 		.4byte	.LASF106
 2216 0737 0C       		.byte	0xc
 2217 0738 9B01     		.2byte	0x19b
 2218 073a C2050000 		.4byte	0x5c2
 2219 073e 02       		.byte	0x2
 2220 073f 23       		.byte	0x23
 2221 0740 28       		.uleb128 0x28
 2222 0741 12       		.uleb128 0x12
 2223 0742 6F010000 		.4byte	.LASF107
 2224 0746 0C       		.byte	0xc
 2225 0747 9F01     		.2byte	0x19f
 2226 0749 C2050000 		.4byte	0x5c2
 2227 074d 02       		.byte	0x2
 2228 074e 23       		.byte	0x23
 2229 074f 2C       		.uleb128 0x2c
 2230 0750 0B       		.uleb128 0xb
ARM GAS  /tmp/cci0vxXu.s 			page 41


 2231 0751 69326300 		.ascii	"i2c\000"
 2232 0755 0C       		.byte	0xc
 2233 0756 A301     		.2byte	0x1a3
 2234 0758 16080000 		.4byte	0x816
 2235 075c 02       		.byte	0x2
 2236 075d 23       		.byte	0x23
 2237 075e 30       		.uleb128 0x30
 2238 075f 12       		.uleb128 0x12
 2239 0760 EC000000 		.4byte	.LASF108
 2240 0764 0C       		.byte	0xc
 2241 0765 A501     		.2byte	0x1a5
 2242 0767 49000000 		.4byte	0x49
 2243 076b 02       		.byte	0x2
 2244 076c 23       		.byte	0x23
 2245 076d 34       		.uleb128 0x34
 2246 076e 12       		.uleb128 0x12
 2247 076f 51000000 		.4byte	.LASF109
 2248 0773 0C       		.byte	0xc
 2249 0774 A601     		.2byte	0x1a6
 2250 0776 CC030000 		.4byte	0x3cc
 2251 077a 02       		.byte	0x2
 2252 077b 23       		.byte	0x23
 2253 077c 38       		.uleb128 0x38
 2254 077d 12       		.uleb128 0x12
 2255 077e DB020000 		.4byte	.LASF110
 2256 0782 0C       		.byte	0xc
 2257 0783 A701     		.2byte	0x1a7
 2258 0785 30000000 		.4byte	0x30
 2259 0789 02       		.byte	0x2
 2260 078a 23       		.byte	0x23
 2261 078b 3C       		.uleb128 0x3c
 2262 078c 12       		.uleb128 0x12
 2263 078d 53050000 		.4byte	.LASF111
 2264 0791 0C       		.byte	0xc
 2265 0792 A801     		.2byte	0x1a8
 2266 0794 30000000 		.4byte	0x30
 2267 0798 02       		.byte	0x2
 2268 0799 23       		.byte	0x23
 2269 079a 40       		.uleb128 0x40
 2270 079b 12       		.uleb128 0x12
 2271 079c 4C000000 		.4byte	.LASF112
 2272 07a0 0C       		.byte	0xc
 2273 07a1 A901     		.2byte	0x1a9
 2274 07a3 E7070000 		.4byte	0x7e7
 2275 07a7 02       		.byte	0x2
 2276 07a8 23       		.byte	0x23
 2277 07a9 44       		.uleb128 0x44
 2278 07aa 12       		.uleb128 0x12
 2279 07ab C1010000 		.4byte	.LASF113
 2280 07af 0C       		.byte	0xc
 2281 07b0 AB01     		.2byte	0x1ab
 2282 07b2 CC030000 		.4byte	0x3cc
 2283 07b6 02       		.byte	0x2
 2284 07b7 23       		.byte	0x23
 2285 07b8 48       		.uleb128 0x48
 2286 07b9 12       		.uleb128 0x12
 2287 07ba 71050000 		.4byte	.LASF114
ARM GAS  /tmp/cci0vxXu.s 			page 42


 2288 07be 0C       		.byte	0xc
 2289 07bf AC01     		.2byte	0x1ac
 2290 07c1 30000000 		.4byte	0x30
 2291 07c5 02       		.byte	0x2
 2292 07c6 23       		.byte	0x23
 2293 07c7 4C       		.uleb128 0x4c
 2294 07c8 12       		.uleb128 0x12
 2295 07c9 CC000000 		.4byte	.LASF115
 2296 07cd 0C       		.byte	0xc
 2297 07ce AD01     		.2byte	0x1ad
 2298 07d0 30000000 		.4byte	0x30
 2299 07d4 02       		.byte	0x2
 2300 07d5 23       		.byte	0x23
 2301 07d6 50       		.uleb128 0x50
 2302 07d7 12       		.uleb128 0x12
 2303 07d8 CE020000 		.4byte	.LASF116
 2304 07dc 0C       		.byte	0xc
 2305 07dd AE01     		.2byte	0x1ae
 2306 07df E7070000 		.4byte	0x7e7
 2307 07e3 02       		.byte	0x2
 2308 07e4 23       		.byte	0x23
 2309 07e5 54       		.uleb128 0x54
 2310 07e6 00       		.byte	0x0
 2311 07e7 13       		.uleb128 0x13
 2312 07e8 85040000 		.4byte	.LASF117
 2313 07ec 0C       		.byte	0xc
 2314 07ed 6B01     		.2byte	0x16b
 2315 07ef F3070000 		.4byte	0x7f3
 2316 07f3 09       		.uleb128 0x9
 2317 07f4 04       		.byte	0x4
 2318 07f5 F9070000 		.4byte	0x7f9
 2319 07f9 17       		.uleb128 0x17
 2320 07fa 01       		.byte	0x1
 2321 07fb 05080000 		.4byte	0x805
 2322 07ff 18       		.uleb128 0x18
 2323 0800 05080000 		.4byte	0x805
 2324 0804 00       		.byte	0x0
 2325 0805 09       		.uleb128 0x9
 2326 0806 04       		.byte	0x4
 2327 0807 B0060000 		.4byte	0x6b0
 2328 080b 09       		.uleb128 0x9
 2329 080c 04       		.byte	0x4
 2330 080d 11080000 		.4byte	0x811
 2331 0811 10       		.uleb128 0x10
 2332 0812 A4060000 		.4byte	0x6a4
 2333 0816 09       		.uleb128 0x9
 2334 0817 04       		.byte	0x4
 2335 0818 50050000 		.4byte	0x550
 2336 081c 19       		.uleb128 0x19
 2337 081d 01       		.byte	0x1
 2338 081e 1F050000 		.4byte	.LASF133
 2339 0822 01       		.byte	0x1
 2340 0823 47       		.byte	0x47
 2341 0824 01       		.byte	0x1
 2342 0825 00000000 		.4byte	.LFB62
 2343 0829 04000000 		.4byte	.LFE62
 2344 082d 02       		.byte	0x2
ARM GAS  /tmp/cci0vxXu.s 			page 43


 2345 082e 7D       		.byte	0x7d
 2346 082f 00       		.sleb128 0
 2347 0830 1A       		.uleb128 0x1a
 2348 0831 01       		.byte	0x1
 2349 0832 45050000 		.4byte	.LASF118
 2350 0836 01       		.byte	0x1
 2351 0837 52       		.byte	0x52
 2352 0838 01       		.byte	0x1
 2353 0839 00000000 		.4byte	.LFB63
 2354 083d 0E000000 		.4byte	.LFE63
 2355 0841 02       		.byte	0x2
 2356 0842 7D       		.byte	0x7d
 2357 0843 00       		.sleb128 0
 2358 0844 58080000 		.4byte	0x858
 2359 0848 1B       		.uleb128 0x1b
 2360 0849 A7000000 		.4byte	.LASF120
 2361 084d 01       		.byte	0x1
 2362 084e 52       		.byte	0x52
 2363 084f 05080000 		.4byte	0x805
 2364 0853 00000000 		.4byte	.LLST0
 2365 0857 00       		.byte	0x0
 2366 0858 1C       		.uleb128 0x1c
 2367 0859 01       		.byte	0x1
 2368 085a 73000000 		.4byte	.LASF119
 2369 085e 01       		.byte	0x1
 2370 085f 6C       		.byte	0x6c
 2371 0860 01       		.byte	0x1
 2372 0861 00000000 		.4byte	.LFB64
 2373 0865 50000000 		.4byte	.LFE64
 2374 0869 20000000 		.4byte	.LLST1
 2375 086d C6080000 		.4byte	0x8c6
 2376 0871 1B       		.uleb128 0x1b
 2377 0872 A7000000 		.4byte	.LASF120
 2378 0876 01       		.byte	0x1
 2379 0877 6C       		.byte	0x6c
 2380 0878 05080000 		.4byte	0x805
 2381 087c 40000000 		.4byte	.LLST2
 2382 0880 1B       		.uleb128 0x1b
 2383 0881 7E040000 		.4byte	.LASF100
 2384 0885 01       		.byte	0x1
 2385 0886 6C       		.byte	0x6c
 2386 0887 0B080000 		.4byte	0x80b
 2387 088b 5E000000 		.4byte	.LLST3
 2388 088f 1D       		.uleb128 0x1d
 2389 0890 1E000000 		.4byte	.LBB2
 2390 0894 24000000 		.4byte	.LBE2
 2391 0898 AC080000 		.4byte	0x8ac
 2392 089c 1E       		.uleb128 0x1e
 2393 089d 746D7000 		.ascii	"tmp\000"
 2394 08a1 01       		.byte	0x1
 2395 08a2 74       		.byte	0x74
 2396 08a3 86000000 		.4byte	0x86
 2397 08a7 7C000000 		.4byte	.LLST4
 2398 08ab 00       		.byte	0x0
 2399 08ac 1F       		.uleb128 0x1f
 2400 08ad 38000000 		.4byte	.LBB3
 2401 08b1 3E000000 		.4byte	.LBE3
ARM GAS  /tmp/cci0vxXu.s 			page 44


 2402 08b5 1E       		.uleb128 0x1e
 2403 08b6 746D7000 		.ascii	"tmp\000"
 2404 08ba 01       		.byte	0x1
 2405 08bb 78       		.byte	0x78
 2406 08bc 86000000 		.4byte	0x86
 2407 08c0 8F000000 		.4byte	.LLST5
 2408 08c4 00       		.byte	0x0
 2409 08c5 00       		.byte	0x0
 2410 08c6 1C       		.uleb128 0x1c
 2411 08c7 01       		.byte	0x1
 2412 08c8 E3020000 		.4byte	.LASF121
 2413 08cc 01       		.byte	0x1
 2414 08cd 82       		.byte	0x82
 2415 08ce 01       		.byte	0x1
 2416 08cf 00000000 		.4byte	.LFB65
 2417 08d3 4C000000 		.4byte	.LFE65
 2418 08d7 A2000000 		.4byte	.LLST6
 2419 08db 25090000 		.4byte	0x925
 2420 08df 1B       		.uleb128 0x1b
 2421 08e0 A7000000 		.4byte	.LASF120
 2422 08e4 01       		.byte	0x1
 2423 08e5 82       		.byte	0x82
 2424 08e6 05080000 		.4byte	0x805
 2425 08ea C2000000 		.4byte	.LLST7
 2426 08ee 1D       		.uleb128 0x1d
 2427 08ef 1A000000 		.4byte	.LBB4
 2428 08f3 20000000 		.4byte	.LBE4
 2429 08f7 0B090000 		.4byte	0x90b
 2430 08fb 1E       		.uleb128 0x1e
 2431 08fc 746D7000 		.ascii	"tmp\000"
 2432 0900 01       		.byte	0x1
 2433 0901 8A       		.byte	0x8a
 2434 0902 86000000 		.4byte	0x86
 2435 0906 E0000000 		.4byte	.LLST8
 2436 090a 00       		.byte	0x0
 2437 090b 1F       		.uleb128 0x1f
 2438 090c 32000000 		.4byte	.LBB5
 2439 0910 38000000 		.4byte	.LBE5
 2440 0914 1E       		.uleb128 0x1e
 2441 0915 746D7000 		.ascii	"tmp\000"
 2442 0919 01       		.byte	0x1
 2443 091a 8D       		.byte	0x8d
 2444 091b 86000000 		.4byte	0x86
 2445 091f F3000000 		.4byte	.LLST9
 2446 0923 00       		.byte	0x0
 2447 0924 00       		.byte	0x0
 2448 0925 20       		.uleb128 0x20
 2449 0926 01       		.byte	0x1
 2450 0927 DC030000 		.4byte	.LASF122
 2451 092b 01       		.byte	0x1
 2452 092c 98       		.byte	0x98
 2453 092d 01       		.byte	0x1
 2454 092e 11060000 		.4byte	0x611
 2455 0932 00000000 		.4byte	.LFB66
 2456 0936 18000000 		.4byte	.LFE66
 2457 093a 06010000 		.4byte	.LLST10
 2458 093e 52090000 		.4byte	0x952
ARM GAS  /tmp/cci0vxXu.s 			page 45


 2459 0942 1B       		.uleb128 0x1b
 2460 0943 A7000000 		.4byte	.LASF120
 2461 0947 01       		.byte	0x1
 2462 0948 98       		.byte	0x98
 2463 0949 05080000 		.4byte	0x805
 2464 094d 26010000 		.4byte	.LLST11
 2465 0951 00       		.byte	0x0
 2466 0952 20       		.uleb128 0x20
 2467 0953 01       		.byte	0x1
 2468 0954 B3000000 		.4byte	.LASF123
 2469 0958 01       		.byte	0x1
 2470 0959 B9       		.byte	0xb9
 2471 095a 01       		.byte	0x1
 2472 095b D2000000 		.4byte	0xd2
 2473 095f 00000000 		.4byte	.LFB67
 2474 0963 98000000 		.4byte	.LFE67
 2475 0967 44010000 		.4byte	.LLST12
 2476 096b 1B0A0000 		.4byte	0xa1b
 2477 096f 1B       		.uleb128 0x1b
 2478 0970 A7000000 		.4byte	.LASF120
 2479 0974 01       		.byte	0x1
 2480 0975 B9       		.byte	0xb9
 2481 0976 05080000 		.4byte	0x805
 2482 097a 70010000 		.4byte	.LLST13
 2483 097e 1B       		.uleb128 0x1b
 2484 097f 6E000000 		.4byte	.LASF104
 2485 0983 01       		.byte	0x1
 2486 0984 BA       		.byte	0xba
 2487 0985 05060000 		.4byte	0x605
 2488 0989 8E010000 		.4byte	.LLST14
 2489 098d 1B       		.uleb128 0x1b
 2490 098e C1010000 		.4byte	.LASF113
 2491 0992 01       		.byte	0x1
 2492 0993 BB       		.byte	0xbb
 2493 0994 D2030000 		.4byte	0x3d2
 2494 0998 AC010000 		.4byte	.LLST15
 2495 099c 1B       		.uleb128 0x1b
 2496 099d 71050000 		.4byte	.LASF114
 2497 09a1 01       		.byte	0x1
 2498 09a2 BC       		.byte	0xbc
 2499 09a3 30000000 		.4byte	0x30
 2500 09a7 CA010000 		.4byte	.LLST16
 2501 09ab 21       		.uleb128 0x21
 2502 09ac 51000000 		.4byte	.LASF109
 2503 09b0 01       		.byte	0x1
 2504 09b1 BD       		.byte	0xbd
 2505 09b2 CC030000 		.4byte	0x3cc
 2506 09b6 02       		.byte	0x2
 2507 09b7 91       		.byte	0x91
 2508 09b8 00       		.sleb128 0
 2509 09b9 21       		.uleb128 0x21
 2510 09ba DB020000 		.4byte	.LASF110
 2511 09be 01       		.byte	0x1
 2512 09bf BE       		.byte	0xbe
 2513 09c0 30000000 		.4byte	0x30
 2514 09c4 02       		.byte	0x2
 2515 09c5 91       		.byte	0x91
ARM GAS  /tmp/cci0vxXu.s 			page 46


 2516 09c6 04       		.sleb128 4
 2517 09c7 21       		.uleb128 0x21
 2518 09c8 D7010000 		.4byte	.LASF124
 2519 09cc 01       		.byte	0x1
 2520 09cd BF       		.byte	0xbf
 2521 09ce E8000000 		.4byte	0xe8
 2522 09d2 02       		.byte	0x2
 2523 09d3 91       		.byte	0x91
 2524 09d4 08       		.sleb128 8
 2525 09d5 22       		.uleb128 0x22
 2526 09d6 36000000 		.4byte	.LASF49
 2527 09da 01       		.byte	0x1
 2528 09db C0       		.byte	0xc0
 2529 09dc D2000000 		.4byte	0xd2
 2530 09e0 F3010000 		.4byte	.LLST17
 2531 09e4 1D       		.uleb128 0x1d
 2532 09e5 2E000000 		.4byte	.LBB6
 2533 09e9 34000000 		.4byte	.LBE6
 2534 09ed 010A0000 		.4byte	0xa01
 2535 09f1 1E       		.uleb128 0x1e
 2536 09f2 746D7000 		.ascii	"tmp\000"
 2537 09f6 01       		.byte	0x1
 2538 09f7 CB       		.byte	0xcb
 2539 09f8 86000000 		.4byte	0x86
 2540 09fc 1C020000 		.4byte	.LLST18
 2541 0a00 00       		.byte	0x0
 2542 0a01 1F       		.uleb128 0x1f
 2543 0a02 64000000 		.4byte	.LBB7
 2544 0a06 6A000000 		.4byte	.LBE7
 2545 0a0a 1E       		.uleb128 0x1e
 2546 0a0b 746D7000 		.ascii	"tmp\000"
 2547 0a0f 01       		.byte	0x1
 2548 0a10 D4       		.byte	0xd4
 2549 0a11 86000000 		.4byte	0x86
 2550 0a15 2F020000 		.4byte	.LLST19
 2551 0a19 00       		.byte	0x0
 2552 0a1a 00       		.byte	0x0
 2553 0a1b 20       		.uleb128 0x20
 2554 0a1c 01       		.byte	0x1
 2555 0a1d F1040000 		.4byte	.LASF125
 2556 0a21 01       		.byte	0x1
 2557 0a22 EC       		.byte	0xec
 2558 0a23 01       		.byte	0x1
 2559 0a24 D2000000 		.4byte	0xd2
 2560 0a28 00000000 		.4byte	.LFB68
 2561 0a2c 84000000 		.4byte	.LFE68
 2562 0a30 42020000 		.4byte	.LLST20
 2563 0a34 C90A0000 		.4byte	0xac9
 2564 0a38 1B       		.uleb128 0x1b
 2565 0a39 A7000000 		.4byte	.LASF120
 2566 0a3d 01       		.byte	0x1
 2567 0a3e EC       		.byte	0xec
 2568 0a3f 05080000 		.4byte	0x805
 2569 0a43 6E020000 		.4byte	.LLST21
 2570 0a47 1B       		.uleb128 0x1b
 2571 0a48 6E000000 		.4byte	.LASF104
 2572 0a4c 01       		.byte	0x1
ARM GAS  /tmp/cci0vxXu.s 			page 47


 2573 0a4d ED       		.byte	0xed
 2574 0a4e 05060000 		.4byte	0x605
 2575 0a52 8C020000 		.4byte	.LLST22
 2576 0a56 1B       		.uleb128 0x1b
 2577 0a57 51000000 		.4byte	.LASF109
 2578 0a5b 01       		.byte	0x1
 2579 0a5c EE       		.byte	0xee
 2580 0a5d CC030000 		.4byte	0x3cc
 2581 0a61 AA020000 		.4byte	.LLST23
 2582 0a65 1B       		.uleb128 0x1b
 2583 0a66 DB020000 		.4byte	.LASF110
 2584 0a6a 01       		.byte	0x1
 2585 0a6b EF       		.byte	0xef
 2586 0a6c 30000000 		.4byte	0x30
 2587 0a70 C8020000 		.4byte	.LLST24
 2588 0a74 21       		.uleb128 0x21
 2589 0a75 D7010000 		.4byte	.LASF124
 2590 0a79 01       		.byte	0x1
 2591 0a7a F0       		.byte	0xf0
 2592 0a7b E8000000 		.4byte	0xe8
 2593 0a7f 02       		.byte	0x2
 2594 0a80 91       		.byte	0x91
 2595 0a81 00       		.sleb128 0
 2596 0a82 22       		.uleb128 0x22
 2597 0a83 36000000 		.4byte	.LASF49
 2598 0a87 01       		.byte	0x1
 2599 0a88 F2       		.byte	0xf2
 2600 0a89 D2000000 		.4byte	0xd2
 2601 0a8d F1020000 		.4byte	.LLST25
 2602 0a91 1D       		.uleb128 0x1d
 2603 0a92 28000000 		.4byte	.LBB8
 2604 0a96 2E000000 		.4byte	.LBE8
 2605 0a9a AE0A0000 		.4byte	0xaae
 2606 0a9e 1E       		.uleb128 0x1e
 2607 0a9f 746D7000 		.ascii	"tmp\000"
 2608 0aa3 01       		.byte	0x1
 2609 0aa4 FC       		.byte	0xfc
 2610 0aa5 86000000 		.4byte	0x86
 2611 0aa9 1A030000 		.4byte	.LLST26
 2612 0aad 00       		.byte	0x0
 2613 0aae 1F       		.uleb128 0x1f
 2614 0aaf 58000000 		.4byte	.LBB9
 2615 0ab3 5E000000 		.4byte	.LBE9
 2616 0ab7 23       		.uleb128 0x23
 2617 0ab8 746D7000 		.ascii	"tmp\000"
 2618 0abc 01       		.byte	0x1
 2619 0abd 0401     		.2byte	0x104
 2620 0abf 86000000 		.4byte	0x86
 2621 0ac3 2D030000 		.4byte	.LLST27
 2622 0ac7 00       		.byte	0x0
 2623 0ac8 00       		.byte	0x0
 2624 0ac9 24       		.uleb128 0x24
 2625 0aca 01       		.byte	0x1
 2626 0acb C6040000 		.4byte	.LASF126
 2627 0acf 01       		.byte	0x1
 2628 0ad0 1401     		.2byte	0x114
 2629 0ad2 01       		.byte	0x1
ARM GAS  /tmp/cci0vxXu.s 			page 48


 2630 0ad3 00000000 		.4byte	.LFB69
 2631 0ad7 20000000 		.4byte	.LFE69
 2632 0adb 40030000 		.4byte	.LLST28
 2633 0adf F40A0000 		.4byte	0xaf4
 2634 0ae3 25       		.uleb128 0x25
 2635 0ae4 A7000000 		.4byte	.LASF120
 2636 0ae8 01       		.byte	0x1
 2637 0ae9 1401     		.2byte	0x114
 2638 0aeb 05080000 		.4byte	0x805
 2639 0aef 60030000 		.4byte	.LLST29
 2640 0af3 00       		.byte	0x0
 2641 0af4 24       		.uleb128 0x24
 2642 0af5 01       		.byte	0x1
 2643 0af6 8C000000 		.4byte	.LASF127
 2644 0afa 01       		.byte	0x1
 2645 0afb 2801     		.2byte	0x128
 2646 0afd 01       		.byte	0x1
 2647 0afe 00000000 		.4byte	.LFB70
 2648 0b02 18000000 		.4byte	.LFE70
 2649 0b06 7E030000 		.4byte	.LLST30
 2650 0b0a 1F0B0000 		.4byte	0xb1f
 2651 0b0e 25       		.uleb128 0x25
 2652 0b0f A7000000 		.4byte	.LASF120
 2653 0b13 01       		.byte	0x1
 2654 0b14 2801     		.2byte	0x128
 2655 0b16 05080000 		.4byte	0x805
 2656 0b1a 9E030000 		.4byte	.LLST31
 2657 0b1e 00       		.byte	0x0
 2658 0b1f 26       		.uleb128 0x26
 2659 0b20 01       		.byte	0x1
 2660 0b21 47040000 		.4byte	.LASF128
 2661 0b25 01       		.byte	0x1
 2662 0b26 3601     		.2byte	0x136
 2663 0b28 01       		.byte	0x1
 2664 0b29 D2000000 		.4byte	0xd2
 2665 0b2d 00000000 		.4byte	.LFB71
 2666 0b31 5E000000 		.4byte	.LFE71
 2667 0b35 BC030000 		.4byte	.LLST32
 2668 0b39 110C0000 		.4byte	0xc11
 2669 0b3d 25       		.uleb128 0x25
 2670 0b3e A7000000 		.4byte	.LASF120
 2671 0b42 01       		.byte	0x1
 2672 0b43 3601     		.2byte	0x136
 2673 0b45 05080000 		.4byte	0x805
 2674 0b49 E8030000 		.4byte	.LLST33
 2675 0b4d 25       		.uleb128 0x25
 2676 0b4e 6E000000 		.4byte	.LASF104
 2677 0b52 01       		.byte	0x1
 2678 0b53 3701     		.2byte	0x137
 2679 0b55 05060000 		.4byte	0x605
 2680 0b59 06040000 		.4byte	.LLST34
 2681 0b5d 25       		.uleb128 0x25
 2682 0b5e 51000000 		.4byte	.LASF109
 2683 0b62 01       		.byte	0x1
 2684 0b63 3801     		.2byte	0x138
 2685 0b65 CC030000 		.4byte	0x3cc
 2686 0b69 19040000 		.4byte	.LLST35
ARM GAS  /tmp/cci0vxXu.s 			page 49


 2687 0b6d 25       		.uleb128 0x25
 2688 0b6e DB020000 		.4byte	.LASF110
 2689 0b72 01       		.byte	0x1
 2690 0b73 3801     		.2byte	0x138
 2691 0b75 30000000 		.4byte	0x30
 2692 0b79 37040000 		.4byte	.LLST36
 2693 0b7d 27       		.uleb128 0x27
 2694 0b7e C1010000 		.4byte	.LASF113
 2695 0b82 01       		.byte	0x1
 2696 0b83 3901     		.2byte	0x139
 2697 0b85 CC030000 		.4byte	0x3cc
 2698 0b89 02       		.byte	0x2
 2699 0b8a 91       		.byte	0x91
 2700 0b8b 00       		.sleb128 0
 2701 0b8c 27       		.uleb128 0x27
 2702 0b8d 71050000 		.4byte	.LASF114
 2703 0b91 01       		.byte	0x1
 2704 0b92 3901     		.2byte	0x139
 2705 0b94 30000000 		.4byte	0x30
 2706 0b98 02       		.byte	0x2
 2707 0b99 91       		.byte	0x91
 2708 0b9a 04       		.sleb128 4
 2709 0b9b 27       		.uleb128 0x27
 2710 0b9c 4C000000 		.4byte	.LASF112
 2711 0ba0 01       		.byte	0x1
 2712 0ba1 3A01     		.2byte	0x13a
 2713 0ba3 E7070000 		.4byte	0x7e7
 2714 0ba7 02       		.byte	0x2
 2715 0ba8 91       		.byte	0x91
 2716 0ba9 08       		.sleb128 8
 2717 0baa 27       		.uleb128 0x27
 2718 0bab CE020000 		.4byte	.LASF116
 2719 0baf 01       		.byte	0x1
 2720 0bb0 3B01     		.2byte	0x13b
 2721 0bb2 E7070000 		.4byte	0x7e7
 2722 0bb6 02       		.byte	0x2
 2723 0bb7 91       		.byte	0x91
 2724 0bb8 0C       		.sleb128 12
 2725 0bb9 27       		.uleb128 0x27
 2726 0bba D7010000 		.4byte	.LASF124
 2727 0bbe 01       		.byte	0x1
 2728 0bbf 3C01     		.2byte	0x13c
 2729 0bc1 E8000000 		.4byte	0xe8
 2730 0bc5 02       		.byte	0x2
 2731 0bc6 91       		.byte	0x91
 2732 0bc7 10       		.sleb128 16
 2733 0bc8 28       		.uleb128 0x28
 2734 0bc9 36000000 		.4byte	.LASF49
 2735 0bcd 01       		.byte	0x1
 2736 0bce 3E01     		.2byte	0x13e
 2737 0bd0 D2000000 		.4byte	0xd2
 2738 0bd4 60040000 		.4byte	.LLST37
 2739 0bd8 1D       		.uleb128 0x1d
 2740 0bd9 0C000000 		.4byte	.LBB10
 2741 0bdd 12000000 		.4byte	.LBE10
 2742 0be1 F60B0000 		.4byte	0xbf6
 2743 0be5 23       		.uleb128 0x23
ARM GAS  /tmp/cci0vxXu.s 			page 50


 2744 0be6 746D7000 		.ascii	"tmp\000"
 2745 0bea 01       		.byte	0x1
 2746 0beb 4001     		.2byte	0x140
 2747 0bed 86000000 		.4byte	0x86
 2748 0bf1 7E040000 		.4byte	.LLST38
 2749 0bf5 00       		.byte	0x0
 2750 0bf6 1F       		.uleb128 0x1f
 2751 0bf7 4C000000 		.4byte	.LBB11
 2752 0bfb 52000000 		.4byte	.LBE11
 2753 0bff 23       		.uleb128 0x23
 2754 0c00 746D7000 		.ascii	"tmp\000"
 2755 0c04 01       		.byte	0x1
 2756 0c05 4E01     		.2byte	0x14e
 2757 0c07 86000000 		.4byte	0x86
 2758 0c0b 91040000 		.4byte	.LLST39
 2759 0c0f 00       		.byte	0x0
 2760 0c10 00       		.byte	0x0
 2761 0c11 29       		.uleb128 0x29
 2762 0c12 9A000000 		.4byte	.LASF129
 2763 0c16 0D       		.byte	0xd
 2764 0c17 9404     		.2byte	0x494
 2765 0c19 E2030000 		.4byte	0x3e2
 2766 0c1d 01       		.byte	0x1
 2767 0c1e 01       		.byte	0x1
 2768 0c1f 29       		.uleb128 0x29
 2769 0c20 9A000000 		.4byte	.LASF129
 2770 0c24 0D       		.byte	0xd
 2771 0c25 9404     		.2byte	0x494
 2772 0c27 E2030000 		.4byte	0x3e2
 2773 0c2b 01       		.byte	0x1
 2774 0c2c 01       		.byte	0x1
 2775 0c2d 00       		.byte	0x0
 2776              		.section	.debug_abbrev
 2777 0000 01       		.uleb128 0x1
 2778 0001 11       		.uleb128 0x11
 2779 0002 01       		.byte	0x1
 2780 0003 25       		.uleb128 0x25
 2781 0004 0E       		.uleb128 0xe
 2782 0005 13       		.uleb128 0x13
 2783 0006 0B       		.uleb128 0xb
 2784 0007 03       		.uleb128 0x3
 2785 0008 0E       		.uleb128 0xe
 2786 0009 1B       		.uleb128 0x1b
 2787 000a 0E       		.uleb128 0xe
 2788 000b 11       		.uleb128 0x11
 2789 000c 01       		.uleb128 0x1
 2790 000d 52       		.uleb128 0x52
 2791 000e 01       		.uleb128 0x1
 2792 000f 55       		.uleb128 0x55
 2793 0010 06       		.uleb128 0x6
 2794 0011 10       		.uleb128 0x10
 2795 0012 06       		.uleb128 0x6
 2796 0013 00       		.byte	0x0
 2797 0014 00       		.byte	0x0
 2798 0015 02       		.uleb128 0x2
 2799 0016 24       		.uleb128 0x24
 2800 0017 00       		.byte	0x0
ARM GAS  /tmp/cci0vxXu.s 			page 51


 2801 0018 0B       		.uleb128 0xb
 2802 0019 0B       		.uleb128 0xb
 2803 001a 3E       		.uleb128 0x3e
 2804 001b 0B       		.uleb128 0xb
 2805 001c 03       		.uleb128 0x3
 2806 001d 08       		.uleb128 0x8
 2807 001e 00       		.byte	0x0
 2808 001f 00       		.byte	0x0
 2809 0020 03       		.uleb128 0x3
 2810 0021 16       		.uleb128 0x16
 2811 0022 00       		.byte	0x0
 2812 0023 03       		.uleb128 0x3
 2813 0024 0E       		.uleb128 0xe
 2814 0025 3A       		.uleb128 0x3a
 2815 0026 0B       		.uleb128 0xb
 2816 0027 3B       		.uleb128 0x3b
 2817 0028 0B       		.uleb128 0xb
 2818 0029 49       		.uleb128 0x49
 2819 002a 13       		.uleb128 0x13
 2820 002b 00       		.byte	0x0
 2821 002c 00       		.byte	0x0
 2822 002d 04       		.uleb128 0x4
 2823 002e 24       		.uleb128 0x24
 2824 002f 00       		.byte	0x0
 2825 0030 0B       		.uleb128 0xb
 2826 0031 0B       		.uleb128 0xb
 2827 0032 3E       		.uleb128 0x3e
 2828 0033 0B       		.uleb128 0xb
 2829 0034 03       		.uleb128 0x3
 2830 0035 0E       		.uleb128 0xe
 2831 0036 00       		.byte	0x0
 2832 0037 00       		.byte	0x0
 2833 0038 05       		.uleb128 0x5
 2834 0039 13       		.uleb128 0x13
 2835 003a 01       		.byte	0x1
 2836 003b 03       		.uleb128 0x3
 2837 003c 0E       		.uleb128 0xe
 2838 003d 0B       		.uleb128 0xb
 2839 003e 0B       		.uleb128 0xb
 2840 003f 3A       		.uleb128 0x3a
 2841 0040 0B       		.uleb128 0xb
 2842 0041 3B       		.uleb128 0x3b
 2843 0042 0B       		.uleb128 0xb
 2844 0043 01       		.uleb128 0x1
 2845 0044 13       		.uleb128 0x13
 2846 0045 00       		.byte	0x0
 2847 0046 00       		.byte	0x0
 2848 0047 06       		.uleb128 0x6
 2849 0048 0D       		.uleb128 0xd
 2850 0049 00       		.byte	0x0
 2851 004a 03       		.uleb128 0x3
 2852 004b 0E       		.uleb128 0xe
 2853 004c 3A       		.uleb128 0x3a
 2854 004d 0B       		.uleb128 0xb
 2855 004e 3B       		.uleb128 0x3b
 2856 004f 0B       		.uleb128 0xb
 2857 0050 49       		.uleb128 0x49
ARM GAS  /tmp/cci0vxXu.s 			page 52


 2858 0051 13       		.uleb128 0x13
 2859 0052 38       		.uleb128 0x38
 2860 0053 0A       		.uleb128 0xa
 2861 0054 00       		.byte	0x0
 2862 0055 00       		.byte	0x0
 2863 0056 07       		.uleb128 0x7
 2864 0057 0D       		.uleb128 0xd
 2865 0058 00       		.byte	0x0
 2866 0059 03       		.uleb128 0x3
 2867 005a 08       		.uleb128 0x8
 2868 005b 3A       		.uleb128 0x3a
 2869 005c 0B       		.uleb128 0xb
 2870 005d 3B       		.uleb128 0x3b
 2871 005e 0B       		.uleb128 0xb
 2872 005f 49       		.uleb128 0x49
 2873 0060 13       		.uleb128 0x13
 2874 0061 38       		.uleb128 0x38
 2875 0062 0A       		.uleb128 0xa
 2876 0063 00       		.byte	0x0
 2877 0064 00       		.byte	0x0
 2878 0065 08       		.uleb128 0x8
 2879 0066 13       		.uleb128 0x13
 2880 0067 01       		.byte	0x1
 2881 0068 0B       		.uleb128 0xb
 2882 0069 0B       		.uleb128 0xb
 2883 006a 3A       		.uleb128 0x3a
 2884 006b 0B       		.uleb128 0xb
 2885 006c 3B       		.uleb128 0x3b
 2886 006d 0B       		.uleb128 0xb
 2887 006e 01       		.uleb128 0x1
 2888 006f 13       		.uleb128 0x13
 2889 0070 00       		.byte	0x0
 2890 0071 00       		.byte	0x0
 2891 0072 09       		.uleb128 0x9
 2892 0073 0F       		.uleb128 0xf
 2893 0074 00       		.byte	0x0
 2894 0075 0B       		.uleb128 0xb
 2895 0076 0B       		.uleb128 0xb
 2896 0077 49       		.uleb128 0x49
 2897 0078 13       		.uleb128 0x13
 2898 0079 00       		.byte	0x0
 2899 007a 00       		.byte	0x0
 2900 007b 0A       		.uleb128 0xa
 2901 007c 0F       		.uleb128 0xf
 2902 007d 00       		.byte	0x0
 2903 007e 0B       		.uleb128 0xb
 2904 007f 0B       		.uleb128 0xb
 2905 0080 00       		.byte	0x0
 2906 0081 00       		.byte	0x0
 2907 0082 0B       		.uleb128 0xb
 2908 0083 0D       		.uleb128 0xd
 2909 0084 00       		.byte	0x0
 2910 0085 03       		.uleb128 0x3
 2911 0086 08       		.uleb128 0x8
 2912 0087 3A       		.uleb128 0x3a
 2913 0088 0B       		.uleb128 0xb
 2914 0089 3B       		.uleb128 0x3b
ARM GAS  /tmp/cci0vxXu.s 			page 53


 2915 008a 05       		.uleb128 0x5
 2916 008b 49       		.uleb128 0x49
 2917 008c 13       		.uleb128 0x13
 2918 008d 38       		.uleb128 0x38
 2919 008e 0A       		.uleb128 0xa
 2920 008f 00       		.byte	0x0
 2921 0090 00       		.byte	0x0
 2922 0091 0C       		.uleb128 0xc
 2923 0092 13       		.uleb128 0x13
 2924 0093 01       		.byte	0x1
 2925 0094 03       		.uleb128 0x3
 2926 0095 0E       		.uleb128 0xe
 2927 0096 0B       		.uleb128 0xb
 2928 0097 0B       		.uleb128 0xb
 2929 0098 3A       		.uleb128 0x3a
 2930 0099 0B       		.uleb128 0xb
 2931 009a 3B       		.uleb128 0x3b
 2932 009b 05       		.uleb128 0x5
 2933 009c 01       		.uleb128 0x1
 2934 009d 13       		.uleb128 0x13
 2935 009e 00       		.byte	0x0
 2936 009f 00       		.byte	0x0
 2937 00a0 0D       		.uleb128 0xd
 2938 00a1 35       		.uleb128 0x35
 2939 00a2 00       		.byte	0x0
 2940 00a3 49       		.uleb128 0x49
 2941 00a4 13       		.uleb128 0x13
 2942 00a5 00       		.byte	0x0
 2943 00a6 00       		.byte	0x0
 2944 00a7 0E       		.uleb128 0xe
 2945 00a8 17       		.uleb128 0x17
 2946 00a9 01       		.byte	0x1
 2947 00aa 0B       		.uleb128 0xb
 2948 00ab 0B       		.uleb128 0xb
 2949 00ac 3A       		.uleb128 0x3a
 2950 00ad 0B       		.uleb128 0xb
 2951 00ae 3B       		.uleb128 0x3b
 2952 00af 0B       		.uleb128 0xb
 2953 00b0 01       		.uleb128 0x1
 2954 00b1 13       		.uleb128 0x13
 2955 00b2 00       		.byte	0x0
 2956 00b3 00       		.byte	0x0
 2957 00b4 0F       		.uleb128 0xf
 2958 00b5 0D       		.uleb128 0xd
 2959 00b6 00       		.byte	0x0
 2960 00b7 03       		.uleb128 0x3
 2961 00b8 0E       		.uleb128 0xe
 2962 00b9 3A       		.uleb128 0x3a
 2963 00ba 0B       		.uleb128 0xb
 2964 00bb 3B       		.uleb128 0x3b
 2965 00bc 0B       		.uleb128 0xb
 2966 00bd 49       		.uleb128 0x49
 2967 00be 13       		.uleb128 0x13
 2968 00bf 00       		.byte	0x0
 2969 00c0 00       		.byte	0x0
 2970 00c1 10       		.uleb128 0x10
 2971 00c2 26       		.uleb128 0x26
ARM GAS  /tmp/cci0vxXu.s 			page 54


 2972 00c3 00       		.byte	0x0
 2973 00c4 49       		.uleb128 0x49
 2974 00c5 13       		.uleb128 0x13
 2975 00c6 00       		.byte	0x0
 2976 00c7 00       		.byte	0x0
 2977 00c8 11       		.uleb128 0x11
 2978 00c9 13       		.uleb128 0x13
 2979 00ca 01       		.byte	0x1
 2980 00cb 0B       		.uleb128 0xb
 2981 00cc 0B       		.uleb128 0xb
 2982 00cd 3A       		.uleb128 0x3a
 2983 00ce 0B       		.uleb128 0xb
 2984 00cf 3B       		.uleb128 0x3b
 2985 00d0 05       		.uleb128 0x5
 2986 00d1 01       		.uleb128 0x1
 2987 00d2 13       		.uleb128 0x13
 2988 00d3 00       		.byte	0x0
 2989 00d4 00       		.byte	0x0
 2990 00d5 12       		.uleb128 0x12
 2991 00d6 0D       		.uleb128 0xd
 2992 00d7 00       		.byte	0x0
 2993 00d8 03       		.uleb128 0x3
 2994 00d9 0E       		.uleb128 0xe
 2995 00da 3A       		.uleb128 0x3a
 2996 00db 0B       		.uleb128 0xb
 2997 00dc 3B       		.uleb128 0x3b
 2998 00dd 05       		.uleb128 0x5
 2999 00de 49       		.uleb128 0x49
 3000 00df 13       		.uleb128 0x13
 3001 00e0 38       		.uleb128 0x38
 3002 00e1 0A       		.uleb128 0xa
 3003 00e2 00       		.byte	0x0
 3004 00e3 00       		.byte	0x0
 3005 00e4 13       		.uleb128 0x13
 3006 00e5 16       		.uleb128 0x16
 3007 00e6 00       		.byte	0x0
 3008 00e7 03       		.uleb128 0x3
 3009 00e8 0E       		.uleb128 0xe
 3010 00e9 3A       		.uleb128 0x3a
 3011 00ea 0B       		.uleb128 0xb
 3012 00eb 3B       		.uleb128 0x3b
 3013 00ec 05       		.uleb128 0x5
 3014 00ed 49       		.uleb128 0x49
 3015 00ee 13       		.uleb128 0x13
 3016 00ef 00       		.byte	0x0
 3017 00f0 00       		.byte	0x0
 3018 00f1 14       		.uleb128 0x14
 3019 00f2 04       		.uleb128 0x4
 3020 00f3 01       		.byte	0x1
 3021 00f4 0B       		.uleb128 0xb
 3022 00f5 0B       		.uleb128 0xb
 3023 00f6 3A       		.uleb128 0x3a
 3024 00f7 0B       		.uleb128 0xb
 3025 00f8 3B       		.uleb128 0x3b
 3026 00f9 0B       		.uleb128 0xb
 3027 00fa 01       		.uleb128 0x1
 3028 00fb 13       		.uleb128 0x13
ARM GAS  /tmp/cci0vxXu.s 			page 55


 3029 00fc 00       		.byte	0x0
 3030 00fd 00       		.byte	0x0
 3031 00fe 15       		.uleb128 0x15
 3032 00ff 28       		.uleb128 0x28
 3033 0100 00       		.byte	0x0
 3034 0101 03       		.uleb128 0x3
 3035 0102 0E       		.uleb128 0xe
 3036 0103 1C       		.uleb128 0x1c
 3037 0104 0D       		.uleb128 0xd
 3038 0105 00       		.byte	0x0
 3039 0106 00       		.byte	0x0
 3040 0107 16       		.uleb128 0x16
 3041 0108 04       		.uleb128 0x4
 3042 0109 01       		.byte	0x1
 3043 010a 0B       		.uleb128 0xb
 3044 010b 0B       		.uleb128 0xb
 3045 010c 3A       		.uleb128 0x3a
 3046 010d 0B       		.uleb128 0xb
 3047 010e 3B       		.uleb128 0x3b
 3048 010f 05       		.uleb128 0x5
 3049 0110 01       		.uleb128 0x1
 3050 0111 13       		.uleb128 0x13
 3051 0112 00       		.byte	0x0
 3052 0113 00       		.byte	0x0
 3053 0114 17       		.uleb128 0x17
 3054 0115 15       		.uleb128 0x15
 3055 0116 01       		.byte	0x1
 3056 0117 27       		.uleb128 0x27
 3057 0118 0C       		.uleb128 0xc
 3058 0119 01       		.uleb128 0x1
 3059 011a 13       		.uleb128 0x13
 3060 011b 00       		.byte	0x0
 3061 011c 00       		.byte	0x0
 3062 011d 18       		.uleb128 0x18
 3063 011e 05       		.uleb128 0x5
 3064 011f 00       		.byte	0x0
 3065 0120 49       		.uleb128 0x49
 3066 0121 13       		.uleb128 0x13
 3067 0122 00       		.byte	0x0
 3068 0123 00       		.byte	0x0
 3069 0124 19       		.uleb128 0x19
 3070 0125 2E       		.uleb128 0x2e
 3071 0126 00       		.byte	0x0
 3072 0127 3F       		.uleb128 0x3f
 3073 0128 0C       		.uleb128 0xc
 3074 0129 03       		.uleb128 0x3
 3075 012a 0E       		.uleb128 0xe
 3076 012b 3A       		.uleb128 0x3a
 3077 012c 0B       		.uleb128 0xb
 3078 012d 3B       		.uleb128 0x3b
 3079 012e 0B       		.uleb128 0xb
 3080 012f 27       		.uleb128 0x27
 3081 0130 0C       		.uleb128 0xc
 3082 0131 11       		.uleb128 0x11
 3083 0132 01       		.uleb128 0x1
 3084 0133 12       		.uleb128 0x12
 3085 0134 01       		.uleb128 0x1
ARM GAS  /tmp/cci0vxXu.s 			page 56


 3086 0135 40       		.uleb128 0x40
 3087 0136 0A       		.uleb128 0xa
 3088 0137 00       		.byte	0x0
 3089 0138 00       		.byte	0x0
 3090 0139 1A       		.uleb128 0x1a
 3091 013a 2E       		.uleb128 0x2e
 3092 013b 01       		.byte	0x1
 3093 013c 3F       		.uleb128 0x3f
 3094 013d 0C       		.uleb128 0xc
 3095 013e 03       		.uleb128 0x3
 3096 013f 0E       		.uleb128 0xe
 3097 0140 3A       		.uleb128 0x3a
 3098 0141 0B       		.uleb128 0xb
 3099 0142 3B       		.uleb128 0x3b
 3100 0143 0B       		.uleb128 0xb
 3101 0144 27       		.uleb128 0x27
 3102 0145 0C       		.uleb128 0xc
 3103 0146 11       		.uleb128 0x11
 3104 0147 01       		.uleb128 0x1
 3105 0148 12       		.uleb128 0x12
 3106 0149 01       		.uleb128 0x1
 3107 014a 40       		.uleb128 0x40
 3108 014b 0A       		.uleb128 0xa
 3109 014c 01       		.uleb128 0x1
 3110 014d 13       		.uleb128 0x13
 3111 014e 00       		.byte	0x0
 3112 014f 00       		.byte	0x0
 3113 0150 1B       		.uleb128 0x1b
 3114 0151 05       		.uleb128 0x5
 3115 0152 00       		.byte	0x0
 3116 0153 03       		.uleb128 0x3
 3117 0154 0E       		.uleb128 0xe
 3118 0155 3A       		.uleb128 0x3a
 3119 0156 0B       		.uleb128 0xb
 3120 0157 3B       		.uleb128 0x3b
 3121 0158 0B       		.uleb128 0xb
 3122 0159 49       		.uleb128 0x49
 3123 015a 13       		.uleb128 0x13
 3124 015b 02       		.uleb128 0x2
 3125 015c 06       		.uleb128 0x6
 3126 015d 00       		.byte	0x0
 3127 015e 00       		.byte	0x0
 3128 015f 1C       		.uleb128 0x1c
 3129 0160 2E       		.uleb128 0x2e
 3130 0161 01       		.byte	0x1
 3131 0162 3F       		.uleb128 0x3f
 3132 0163 0C       		.uleb128 0xc
 3133 0164 03       		.uleb128 0x3
 3134 0165 0E       		.uleb128 0xe
 3135 0166 3A       		.uleb128 0x3a
 3136 0167 0B       		.uleb128 0xb
 3137 0168 3B       		.uleb128 0x3b
 3138 0169 0B       		.uleb128 0xb
 3139 016a 27       		.uleb128 0x27
 3140 016b 0C       		.uleb128 0xc
 3141 016c 11       		.uleb128 0x11
 3142 016d 01       		.uleb128 0x1
ARM GAS  /tmp/cci0vxXu.s 			page 57


 3143 016e 12       		.uleb128 0x12
 3144 016f 01       		.uleb128 0x1
 3145 0170 40       		.uleb128 0x40
 3146 0171 06       		.uleb128 0x6
 3147 0172 01       		.uleb128 0x1
 3148 0173 13       		.uleb128 0x13
 3149 0174 00       		.byte	0x0
 3150 0175 00       		.byte	0x0
 3151 0176 1D       		.uleb128 0x1d
 3152 0177 0B       		.uleb128 0xb
 3153 0178 01       		.byte	0x1
 3154 0179 11       		.uleb128 0x11
 3155 017a 01       		.uleb128 0x1
 3156 017b 12       		.uleb128 0x12
 3157 017c 01       		.uleb128 0x1
 3158 017d 01       		.uleb128 0x1
 3159 017e 13       		.uleb128 0x13
 3160 017f 00       		.byte	0x0
 3161 0180 00       		.byte	0x0
 3162 0181 1E       		.uleb128 0x1e
 3163 0182 34       		.uleb128 0x34
 3164 0183 00       		.byte	0x0
 3165 0184 03       		.uleb128 0x3
 3166 0185 08       		.uleb128 0x8
 3167 0186 3A       		.uleb128 0x3a
 3168 0187 0B       		.uleb128 0xb
 3169 0188 3B       		.uleb128 0x3b
 3170 0189 0B       		.uleb128 0xb
 3171 018a 49       		.uleb128 0x49
 3172 018b 13       		.uleb128 0x13
 3173 018c 02       		.uleb128 0x2
 3174 018d 06       		.uleb128 0x6
 3175 018e 00       		.byte	0x0
 3176 018f 00       		.byte	0x0
 3177 0190 1F       		.uleb128 0x1f
 3178 0191 0B       		.uleb128 0xb
 3179 0192 01       		.byte	0x1
 3180 0193 11       		.uleb128 0x11
 3181 0194 01       		.uleb128 0x1
 3182 0195 12       		.uleb128 0x12
 3183 0196 01       		.uleb128 0x1
 3184 0197 00       		.byte	0x0
 3185 0198 00       		.byte	0x0
 3186 0199 20       		.uleb128 0x20
 3187 019a 2E       		.uleb128 0x2e
 3188 019b 01       		.byte	0x1
 3189 019c 3F       		.uleb128 0x3f
 3190 019d 0C       		.uleb128 0xc
 3191 019e 03       		.uleb128 0x3
 3192 019f 0E       		.uleb128 0xe
 3193 01a0 3A       		.uleb128 0x3a
 3194 01a1 0B       		.uleb128 0xb
 3195 01a2 3B       		.uleb128 0x3b
 3196 01a3 0B       		.uleb128 0xb
 3197 01a4 27       		.uleb128 0x27
 3198 01a5 0C       		.uleb128 0xc
 3199 01a6 49       		.uleb128 0x49
ARM GAS  /tmp/cci0vxXu.s 			page 58


 3200 01a7 13       		.uleb128 0x13
 3201 01a8 11       		.uleb128 0x11
 3202 01a9 01       		.uleb128 0x1
 3203 01aa 12       		.uleb128 0x12
 3204 01ab 01       		.uleb128 0x1
 3205 01ac 40       		.uleb128 0x40
 3206 01ad 06       		.uleb128 0x6
 3207 01ae 01       		.uleb128 0x1
 3208 01af 13       		.uleb128 0x13
 3209 01b0 00       		.byte	0x0
 3210 01b1 00       		.byte	0x0
 3211 01b2 21       		.uleb128 0x21
 3212 01b3 05       		.uleb128 0x5
 3213 01b4 00       		.byte	0x0
 3214 01b5 03       		.uleb128 0x3
 3215 01b6 0E       		.uleb128 0xe
 3216 01b7 3A       		.uleb128 0x3a
 3217 01b8 0B       		.uleb128 0xb
 3218 01b9 3B       		.uleb128 0x3b
 3219 01ba 0B       		.uleb128 0xb
 3220 01bb 49       		.uleb128 0x49
 3221 01bc 13       		.uleb128 0x13
 3222 01bd 02       		.uleb128 0x2
 3223 01be 0A       		.uleb128 0xa
 3224 01bf 00       		.byte	0x0
 3225 01c0 00       		.byte	0x0
 3226 01c1 22       		.uleb128 0x22
 3227 01c2 34       		.uleb128 0x34
 3228 01c3 00       		.byte	0x0
 3229 01c4 03       		.uleb128 0x3
 3230 01c5 0E       		.uleb128 0xe
 3231 01c6 3A       		.uleb128 0x3a
 3232 01c7 0B       		.uleb128 0xb
 3233 01c8 3B       		.uleb128 0x3b
 3234 01c9 0B       		.uleb128 0xb
 3235 01ca 49       		.uleb128 0x49
 3236 01cb 13       		.uleb128 0x13
 3237 01cc 02       		.uleb128 0x2
 3238 01cd 06       		.uleb128 0x6
 3239 01ce 00       		.byte	0x0
 3240 01cf 00       		.byte	0x0
 3241 01d0 23       		.uleb128 0x23
 3242 01d1 34       		.uleb128 0x34
 3243 01d2 00       		.byte	0x0
 3244 01d3 03       		.uleb128 0x3
 3245 01d4 08       		.uleb128 0x8
 3246 01d5 3A       		.uleb128 0x3a
 3247 01d6 0B       		.uleb128 0xb
 3248 01d7 3B       		.uleb128 0x3b
 3249 01d8 05       		.uleb128 0x5
 3250 01d9 49       		.uleb128 0x49
 3251 01da 13       		.uleb128 0x13
 3252 01db 02       		.uleb128 0x2
 3253 01dc 06       		.uleb128 0x6
 3254 01dd 00       		.byte	0x0
 3255 01de 00       		.byte	0x0
 3256 01df 24       		.uleb128 0x24
ARM GAS  /tmp/cci0vxXu.s 			page 59


 3257 01e0 2E       		.uleb128 0x2e
 3258 01e1 01       		.byte	0x1
 3259 01e2 3F       		.uleb128 0x3f
 3260 01e3 0C       		.uleb128 0xc
 3261 01e4 03       		.uleb128 0x3
 3262 01e5 0E       		.uleb128 0xe
 3263 01e6 3A       		.uleb128 0x3a
 3264 01e7 0B       		.uleb128 0xb
 3265 01e8 3B       		.uleb128 0x3b
 3266 01e9 05       		.uleb128 0x5
 3267 01ea 27       		.uleb128 0x27
 3268 01eb 0C       		.uleb128 0xc
 3269 01ec 11       		.uleb128 0x11
 3270 01ed 01       		.uleb128 0x1
 3271 01ee 12       		.uleb128 0x12
 3272 01ef 01       		.uleb128 0x1
 3273 01f0 40       		.uleb128 0x40
 3274 01f1 06       		.uleb128 0x6
 3275 01f2 01       		.uleb128 0x1
 3276 01f3 13       		.uleb128 0x13
 3277 01f4 00       		.byte	0x0
 3278 01f5 00       		.byte	0x0
 3279 01f6 25       		.uleb128 0x25
 3280 01f7 05       		.uleb128 0x5
 3281 01f8 00       		.byte	0x0
 3282 01f9 03       		.uleb128 0x3
 3283 01fa 0E       		.uleb128 0xe
 3284 01fb 3A       		.uleb128 0x3a
 3285 01fc 0B       		.uleb128 0xb
 3286 01fd 3B       		.uleb128 0x3b
 3287 01fe 05       		.uleb128 0x5
 3288 01ff 49       		.uleb128 0x49
 3289 0200 13       		.uleb128 0x13
 3290 0201 02       		.uleb128 0x2
 3291 0202 06       		.uleb128 0x6
 3292 0203 00       		.byte	0x0
 3293 0204 00       		.byte	0x0
 3294 0205 26       		.uleb128 0x26
 3295 0206 2E       		.uleb128 0x2e
 3296 0207 01       		.byte	0x1
 3297 0208 3F       		.uleb128 0x3f
 3298 0209 0C       		.uleb128 0xc
 3299 020a 03       		.uleb128 0x3
 3300 020b 0E       		.uleb128 0xe
 3301 020c 3A       		.uleb128 0x3a
 3302 020d 0B       		.uleb128 0xb
 3303 020e 3B       		.uleb128 0x3b
 3304 020f 05       		.uleb128 0x5
 3305 0210 27       		.uleb128 0x27
 3306 0211 0C       		.uleb128 0xc
 3307 0212 49       		.uleb128 0x49
 3308 0213 13       		.uleb128 0x13
 3309 0214 11       		.uleb128 0x11
 3310 0215 01       		.uleb128 0x1
 3311 0216 12       		.uleb128 0x12
 3312 0217 01       		.uleb128 0x1
 3313 0218 40       		.uleb128 0x40
ARM GAS  /tmp/cci0vxXu.s 			page 60


 3314 0219 06       		.uleb128 0x6
 3315 021a 01       		.uleb128 0x1
 3316 021b 13       		.uleb128 0x13
 3317 021c 00       		.byte	0x0
 3318 021d 00       		.byte	0x0
 3319 021e 27       		.uleb128 0x27
 3320 021f 05       		.uleb128 0x5
 3321 0220 00       		.byte	0x0
 3322 0221 03       		.uleb128 0x3
 3323 0222 0E       		.uleb128 0xe
 3324 0223 3A       		.uleb128 0x3a
 3325 0224 0B       		.uleb128 0xb
 3326 0225 3B       		.uleb128 0x3b
 3327 0226 05       		.uleb128 0x5
 3328 0227 49       		.uleb128 0x49
 3329 0228 13       		.uleb128 0x13
 3330 0229 02       		.uleb128 0x2
 3331 022a 0A       		.uleb128 0xa
 3332 022b 00       		.byte	0x0
 3333 022c 00       		.byte	0x0
 3334 022d 28       		.uleb128 0x28
 3335 022e 34       		.uleb128 0x34
 3336 022f 00       		.byte	0x0
 3337 0230 03       		.uleb128 0x3
 3338 0231 0E       		.uleb128 0xe
 3339 0232 3A       		.uleb128 0x3a
 3340 0233 0B       		.uleb128 0xb
 3341 0234 3B       		.uleb128 0x3b
 3342 0235 05       		.uleb128 0x5
 3343 0236 49       		.uleb128 0x49
 3344 0237 13       		.uleb128 0x13
 3345 0238 02       		.uleb128 0x2
 3346 0239 06       		.uleb128 0x6
 3347 023a 00       		.byte	0x0
 3348 023b 00       		.byte	0x0
 3349 023c 29       		.uleb128 0x29
 3350 023d 34       		.uleb128 0x34
 3351 023e 00       		.byte	0x0
 3352 023f 03       		.uleb128 0x3
 3353 0240 0E       		.uleb128 0xe
 3354 0241 3A       		.uleb128 0x3a
 3355 0242 0B       		.uleb128 0xb
 3356 0243 3B       		.uleb128 0x3b
 3357 0244 05       		.uleb128 0x5
 3358 0245 49       		.uleb128 0x49
 3359 0246 13       		.uleb128 0x13
 3360 0247 3F       		.uleb128 0x3f
 3361 0248 0C       		.uleb128 0xc
 3362 0249 3C       		.uleb128 0x3c
 3363 024a 0C       		.uleb128 0xc
 3364 024b 00       		.byte	0x0
 3365 024c 00       		.byte	0x0
 3366 024d 00       		.byte	0x0
 3367              		.section	.debug_pubnames,"",%progbits
 3368 0000 C9000000 		.4byte	0xc9
 3369 0004 0200     		.2byte	0x2
 3370 0006 00000000 		.4byte	.Ldebug_info0
ARM GAS  /tmp/cci0vxXu.s 			page 61


 3371 000a 2E0C0000 		.4byte	0xc2e
 3372 000e 1C080000 		.4byte	0x81c
 3373 0012 69326349 		.ascii	"i2cInit\000"
 3373      6E697400 
 3374 001a 30080000 		.4byte	0x830
 3375 001e 6932634F 		.ascii	"i2cObjectInit\000"
 3375      626A6563 
 3375      74496E69 
 3375      7400
 3376 002c 58080000 		.4byte	0x858
 3377 0030 69326353 		.ascii	"i2cStart\000"
 3377      74617274 
 3377      00
 3378 0039 C6080000 		.4byte	0x8c6
 3379 003d 69326353 		.ascii	"i2cStop\000"
 3379      746F7000 
 3380 0045 25090000 		.4byte	0x925
 3381 0049 69326347 		.ascii	"i2cGetErrors\000"
 3381      65744572 
 3381      726F7273 
 3381      00
 3382 0056 52090000 		.4byte	0x952
 3383 005a 6932634D 		.ascii	"i2cMasterTransmitTimeout\000"
 3383      61737465 
 3383      72547261 
 3383      6E736D69 
 3383      7454696D 
 3384 0073 1B0A0000 		.4byte	0xa1b
 3385 0077 6932634D 		.ascii	"i2cMasterReceiveTimeout\000"
 3385      61737465 
 3385      72526563 
 3385      65697665 
 3385      54696D65 
 3386 008f C90A0000 		.4byte	0xac9
 3387 0093 69326341 		.ascii	"i2cAcquireBus\000"
 3387      63717569 
 3387      72654275 
 3387      7300
 3388 00a1 F40A0000 		.4byte	0xaf4
 3389 00a5 69326352 		.ascii	"i2cReleaseBus\000"
 3389      656C6561 
 3389      73654275 
 3389      7300
 3390 00b3 1F0B0000 		.4byte	0xb1f
 3391 00b7 69326353 		.ascii	"i2cSlaveIoTimeout\000"
 3391      6C617665 
 3391      496F5469 
 3391      6D656F75 
 3391      7400
 3392 00c9 00000000 		.4byte	0x0
 3393              		.section	.debug_pubtypes,"",%progbits
 3394 0000 EB010000 		.4byte	0x1eb
 3395 0004 0200     		.2byte	0x2
 3396 0006 00000000 		.4byte	.Ldebug_info0
 3397 000a 2E0C0000 		.4byte	0xc2e
 3398 000e 30000000 		.4byte	0x30
 3399 0012 73697A65 		.ascii	"size_t\000"
ARM GAS  /tmp/cci0vxXu.s 			page 62


 3399      5F7400
 3400 0019 49000000 		.4byte	0x49
 3401 001d 75696E74 		.ascii	"uint8_t\000"
 3401      385F7400 
 3402 0025 62000000 		.4byte	0x62
 3403 0029 75696E74 		.ascii	"uint16_t\000"
 3403      31365F74 
 3403      00
 3404 0032 74000000 		.4byte	0x74
 3405 0036 696E7433 		.ascii	"int32_t\000"
 3405      325F7400 
 3406 003e 86000000 		.4byte	0x86
 3407 0042 75696E74 		.ascii	"uint32_t\000"
 3407      33325F74 
 3407      00
 3408 004b 9F000000 		.4byte	0x9f
 3409 004f 75696E74 		.ascii	"uint64_t\000"
 3409      36345F74 
 3409      00
 3410 0058 B1000000 		.4byte	0xb1
 3411 005c 746D6F64 		.ascii	"tmode_t\000"
 3411      655F7400 
 3412 0064 BC000000 		.4byte	0xbc
 3413 0068 74737461 		.ascii	"tstate_t\000"
 3413      74655F74 
 3413      00
 3414 0071 C7000000 		.4byte	0xc7
 3415 0075 74707269 		.ascii	"tprio_t\000"
 3415      6F5F7400 
 3416 007d D2000000 		.4byte	0xd2
 3417 0081 6D73675F 		.ascii	"msg_t\000"
 3417      7400
 3418 0087 DD000000 		.4byte	0xdd
 3419 008b 6576656E 		.ascii	"eventmask_t\000"
 3419      746D6173 
 3419      6B5F7400 
 3420 0097 E8000000 		.4byte	0xe8
 3421 009b 73797374 		.ascii	"systime_t\000"
 3421      696D655F 
 3421      7400
 3422 00a5 F3000000 		.4byte	0xf3
 3423 00a9 54687265 		.ascii	"Thread\000"
 3423      616400
 3424 00b0 32020000 		.4byte	0x232
 3425 00b4 54687265 		.ascii	"ThreadsQueue\000"
 3425      61647351 
 3425      75657565 
 3425      00
 3426 00c1 54020000 		.4byte	0x254
 3427 00c5 54687265 		.ascii	"ThreadsList\000"
 3427      6164734C 
 3427      69737400 
 3428 00d1 5F020000 		.4byte	0x25f
 3429 00d5 72656761 		.ascii	"regarm_t\000"
 3429      726D5F74 
 3429      00
 3430 00de 6C020000 		.4byte	0x26c
ARM GAS  /tmp/cci0vxXu.s 			page 63


 3431 00e2 73746B61 		.ascii	"stkalign_t\000"
 3431      6C69676E 
 3431      5F7400
 3432 00ed 77020000 		.4byte	0x277
 3433 00f1 696E7463 		.ascii	"intctx\000"
 3433      747800
 3434 00f8 04030000 		.4byte	0x304
 3435 00fc 636F6E74 		.ascii	"context\000"
 3435      65787400 
 3436 0104 31030000 		.4byte	0x331
 3437 0108 4D757465 		.ascii	"Mutex\000"
 3437      7800
 3438 010e 6E030000 		.4byte	0x36e
 3439 0112 4D757465 		.ascii	"Mutex\000"
 3439      7800
 3440 0118 FE000000 		.4byte	0xfe
 3441 011c 54687265 		.ascii	"Thread\000"
 3441      616400
 3442 0123 2D040000 		.4byte	0x42d
 3443 0127 444D415F 		.ascii	"DMA_Channel_TypeDef\000"
 3443      4368616E 
 3443      6E656C5F 
 3443      54797065 
 3443      44656600 
 3444 013b 50050000 		.4byte	0x550
 3445 013f 4932435F 		.ascii	"I2C_TypeDef\000"
 3445      54797065 
 3445      44656600 
 3446 014b B7050000 		.4byte	0x5b7
 3447 014f 73746D33 		.ascii	"stm32_dma_stream_t\000"
 3447      325F646D 
 3447      615F7374 
 3447      7265616D 
 3447      5F7400
 3448 0162 FA050000 		.4byte	0x5fa
 3449 0166 69326373 		.ascii	"i2cstate_t\000"
 3449      74617465 
 3449      5F7400
 3450 0171 05060000 		.4byte	0x605
 3451 0175 69326361 		.ascii	"i2caddr_t\000"
 3451      6464725F 
 3451      7400
 3452 017f 11060000 		.4byte	0x611
 3453 0183 69326366 		.ascii	"i2cflags_t\000"
 3453      6C616773 
 3453      5F7400
 3454 018e 39060000 		.4byte	0x639
 3455 0192 6932636F 		.ascii	"i2copmode_t\000"
 3455      706D6F64 
 3455      655F7400 
 3456 019e 61060000 		.4byte	0x661
 3457 01a2 69326364 		.ascii	"i2cdutycycle_t\000"
 3457      75747963 
 3457      79636C65 
 3457      5F7400
 3458 01b1 A4060000 		.4byte	0x6a4
 3459 01b5 49324343 		.ascii	"I2CConfig\000"
ARM GAS  /tmp/cci0vxXu.s 			page 64


 3459      6F6E6669 
 3459      6700
 3460 01bf B0060000 		.4byte	0x6b0
 3461 01c3 49324344 		.ascii	"I2CDriver\000"
 3461      72697665 
 3461      7200
 3462 01cd E7070000 		.4byte	0x7e7
 3463 01d1 54493263 		.ascii	"TI2cSlaveCb\000"
 3463      536C6176 
 3463      65436200 
 3464 01dd BC060000 		.4byte	0x6bc
 3465 01e1 49324344 		.ascii	"I2CDriver\000"
 3465      72697665 
 3465      7200
 3466 01eb 00000000 		.4byte	0x0
 3467              		.section	.debug_aranges,"",%progbits
 3468 0000 64000000 		.4byte	0x64
 3469 0004 0200     		.2byte	0x2
 3470 0006 00000000 		.4byte	.Ldebug_info0
 3471 000a 04       		.byte	0x4
 3472 000b 00       		.byte	0x0
 3473 000c 0000     		.2byte	0x0
 3474 000e 0000     		.2byte	0x0
 3475 0010 00000000 		.4byte	.LFB62
 3476 0014 04000000 		.4byte	.LFE62-.LFB62
 3477 0018 00000000 		.4byte	.LFB63
 3478 001c 0E000000 		.4byte	.LFE63-.LFB63
 3479 0020 00000000 		.4byte	.LFB64
 3480 0024 50000000 		.4byte	.LFE64-.LFB64
 3481 0028 00000000 		.4byte	.LFB65
 3482 002c 4C000000 		.4byte	.LFE65-.LFB65
 3483 0030 00000000 		.4byte	.LFB66
 3484 0034 18000000 		.4byte	.LFE66-.LFB66
 3485 0038 00000000 		.4byte	.LFB67
 3486 003c 98000000 		.4byte	.LFE67-.LFB67
 3487 0040 00000000 		.4byte	.LFB68
 3488 0044 84000000 		.4byte	.LFE68-.LFB68
 3489 0048 00000000 		.4byte	.LFB69
 3490 004c 20000000 		.4byte	.LFE69-.LFB69
 3491 0050 00000000 		.4byte	.LFB70
 3492 0054 18000000 		.4byte	.LFE70-.LFB70
 3493 0058 00000000 		.4byte	.LFB71
 3494 005c 5E000000 		.4byte	.LFE71-.LFB71
 3495 0060 00000000 		.4byte	0x0
 3496 0064 00000000 		.4byte	0x0
 3497              		.section	.debug_ranges,"",%progbits
 3498              	.Ldebug_ranges0:
 3499 0000 00000000 		.4byte	.LFB62
 3500 0004 04000000 		.4byte	.LFE62
 3501 0008 00000000 		.4byte	.LFB63
 3502 000c 0E000000 		.4byte	.LFE63
 3503 0010 00000000 		.4byte	.LFB64
 3504 0014 50000000 		.4byte	.LFE64
 3505 0018 00000000 		.4byte	.LFB65
 3506 001c 4C000000 		.4byte	.LFE65
 3507 0020 00000000 		.4byte	.LFB66
 3508 0024 18000000 		.4byte	.LFE66
ARM GAS  /tmp/cci0vxXu.s 			page 65


 3509 0028 00000000 		.4byte	.LFB67
 3510 002c 98000000 		.4byte	.LFE67
 3511 0030 00000000 		.4byte	.LFB68
 3512 0034 84000000 		.4byte	.LFE68
 3513 0038 00000000 		.4byte	.LFB69
 3514 003c 20000000 		.4byte	.LFE69
 3515 0040 00000000 		.4byte	.LFB70
 3516 0044 18000000 		.4byte	.LFE70
 3517 0048 00000000 		.4byte	.LFB71
 3518 004c 5E000000 		.4byte	.LFE71
 3519 0050 00000000 		.4byte	0x0
 3520 0054 00000000 		.4byte	0x0
 3521              		.section	.debug_str,"MS",%progbits,1
 3522              	.LASF90:
 3523 0000 5354445F 		.ascii	"STD_DUTY_CYCLE\000"
 3523      44555459 
 3523      5F435943 
 3523      4C4500
 3524              	.LASF106:
 3525 000f 646D6172 		.ascii	"dmarx\000"
 3525      7800
 3526              	.LASF93:
 3527 0015 69326364 		.ascii	"i2cdutycycle_t\000"
 3527      75747963 
 3527      79636C65 
 3527      5F7400
 3528              	.LASF83:
 3529 0024 69326373 		.ascii	"i2cstate_t\000"
 3529      74617465 
 3529      5F7400
 3530              	.LASF2:
 3531 002f 73697A65 		.ascii	"size_t\000"
 3531      5F7400
 3532              	.LASF49:
 3533 0036 7264796D 		.ascii	"rdymsg\000"
 3533      736700
 3534              	.LASF13:
 3535 003d 75696E74 		.ascii	"uint64_t\000"
 3535      36345F74 
 3535      00
 3536              	.LASF68:
 3537 0046 54524953 		.ascii	"TRISE\000"
 3537      4500
 3538              	.LASF112:
 3539 004c 72786362 		.ascii	"rxcb\000"
 3539      00
 3540              	.LASF109:
 3541 0051 72786275 		.ascii	"rxbuf\000"
 3541      6600
 3542              	.LASF14:
 3543 0057 6C6F6E67 		.ascii	"long long unsigned int\000"
 3543      206C6F6E 
 3543      6720756E 
 3543      7369676E 
 3543      65642069 
 3544              	.LASF104:
 3545 006e 61646472 		.ascii	"addr\000"
ARM GAS  /tmp/cci0vxXu.s 			page 66


 3545      00
 3546              	.LASF119:
 3547 0073 69326353 		.ascii	"i2cStart\000"
 3547      74617274 
 3547      00
 3548              	.LASF50:
 3549 007c 65786974 		.ascii	"exitcode\000"
 3549      636F6465 
 3549      00
 3550              	.LASF75:
 3551 0085 76656374 		.ascii	"vector\000"
 3551      6F7200
 3552              	.LASF127:
 3553 008c 69326352 		.ascii	"i2cReleaseBus\000"
 3553      656C6561 
 3553      73654275 
 3553      7300
 3554              	.LASF129:
 3555 009a 49544D5F 		.ascii	"ITM_RxBuffer\000"
 3555      52784275 
 3555      66666572 
 3555      00
 3556              	.LASF120:
 3557 00a7 69326370 		.ascii	"i2cp\000"
 3557      00
 3558              	.LASF24:
 3559 00ac 705F7072 		.ascii	"p_prio\000"
 3559      696F00
 3560              	.LASF123:
 3561 00b3 6932634D 		.ascii	"i2cMasterTransmitTimeout\000"
 3561      61737465 
 3561      72547261 
 3561      6E736D69 
 3561      7454696D 
 3562              	.LASF115:
 3563 00cc 7478696E 		.ascii	"txind\000"
 3563      6400
 3564              	.LASF12:
 3565 00d2 6C6F6E67 		.ascii	"long long int\000"
 3565      206C6F6E 
 3565      6720696E 
 3565      7400
 3566              	.LASF1:
 3567 00e0 7369676E 		.ascii	"signed char\000"
 3567      65642063 
 3567      68617200 
 3568              	.LASF108:
 3569 00ec 736C6176 		.ascii	"slave_mode\000"
 3569      655F6D6F 
 3569      646500
 3570              	.LASF95:
 3571 00f7 636C6F63 		.ascii	"clock_speed\000"
 3571      6B5F7370 
 3571      65656400 
 3572              	.LASF46:
 3573 0103 6D5F7175 		.ascii	"m_queue\000"
 3573      65756500 
ARM GAS  /tmp/cci0vxXu.s 			page 67


 3574              	.LASF131:
 3575 010b 2E2E2F63 		.ascii	"../chibios_2.4.x/os/hal/src/i2c.c\000"
 3575      68696269 
 3575      6F735F32 
 3575      2E342E78 
 3575      2F6F732F 
 3576              	.LASF84:
 3577 012d 69326361 		.ascii	"i2caddr_t\000"
 3577      6464725F 
 3577      7400
 3578              	.LASF99:
 3579 0137 73746174 		.ascii	"state\000"
 3579      6500
 3580              	.LASF9:
 3581 013d 6C6F6E67 		.ascii	"long int\000"
 3581      20696E74 
 3581      00
 3582              	.LASF16:
 3583 0146 74737461 		.ascii	"tstate_t\000"
 3583      74655F74 
 3583      00
 3584              	.LASF103:
 3585 014f 74687265 		.ascii	"thread\000"
 3585      616400
 3586              	.LASF97:
 3587 0156 49324343 		.ascii	"I2CConfig\000"
 3587      6F6E6669 
 3587      6700
 3588              	.LASF32:
 3589 0160 705F7469 		.ascii	"p_time\000"
 3589      6D6500
 3590              	.LASF26:
 3591 0167 705F6E65 		.ascii	"p_newer\000"
 3591      77657200 
 3592              	.LASF107:
 3593 016f 646D6174 		.ascii	"dmatx\000"
 3593      7800
 3594              	.LASF88:
 3595 0175 4F504D4F 		.ascii	"OPMODE_SMBUS_HOST\000"
 3595      44455F53 
 3595      4D425553 
 3595      5F484F53 
 3595      5400
 3596              	.LASF41:
 3597 0187 72656761 		.ascii	"regarm_t\000"
 3597      726D5F74 
 3597      00
 3598              	.LASF74:
 3599 0190 73656C66 		.ascii	"selfindex\000"
 3599      696E6465 
 3599      7800
 3600              	.LASF94:
 3601 019a 6F705F6D 		.ascii	"op_mode\000"
 3601      6F646500 
 3602              	.LASF21:
 3603 01a2 54687265 		.ascii	"Thread\000"
 3603      616400
ARM GAS  /tmp/cci0vxXu.s 			page 68


 3604              	.LASF29:
 3605 01a9 705F7374 		.ascii	"p_stklimit\000"
 3605      6B6C696D 
 3605      697400
 3606              	.LASF0:
 3607 01b4 756E7369 		.ascii	"unsigned int\000"
 3607      676E6564 
 3607      20696E74 
 3607      00
 3608              	.LASF113:
 3609 01c1 74786275 		.ascii	"txbuf\000"
 3609      6600
 3610              	.LASF55:
 3611 01c7 43504152 		.ascii	"CPAR\000"
 3611      00
 3612              	.LASF34:
 3613 01cc 705F6D73 		.ascii	"p_msgqueue\000"
 3613      67717565 
 3613      756500
 3614              	.LASF124:
 3615 01d7 74696D65 		.ascii	"timeout\000"
 3615      6F757400 
 3616              	.LASF57:
 3617 01df 444D415F 		.ascii	"DMA_Channel_TypeDef\000"
 3617      4368616E 
 3617      6E656C5F 
 3617      54797065 
 3617      44656600 
 3618              	.LASF73:
 3619 01f3 69736869 		.ascii	"ishift\000"
 3619      667400
 3620              	.LASF87:
 3621 01fa 4F504D4F 		.ascii	"OPMODE_SMBUS_DEVICE\000"
 3621      44455F53 
 3621      4D425553 
 3621      5F444556 
 3621      49434500 
 3622              	.LASF7:
 3623 020e 73686F72 		.ascii	"short unsigned int\000"
 3623      7420756E 
 3623      7369676E 
 3623      65642069 
 3623      6E7400
 3624              	.LASF98:
 3625 0221 49324344 		.ascii	"I2CDriver\000"
 3625      72697665 
 3625      7200
 3626              	.LASF18:
 3627 022b 6D73675F 		.ascii	"msg_t\000"
 3627      7400
 3628              	.LASF130:
 3629 0231 474E5520 		.ascii	"GNU C 4.5.2\000"
 3629      4320342E 
 3629      352E3200 
 3630              	.LASF15:
 3631 023d 746D6F64 		.ascii	"tmode_t\000"
 3631      655F7400 
ARM GAS  /tmp/cci0vxXu.s 			page 69


 3632              	.LASF6:
 3633 0245 75696E74 		.ascii	"uint16_t\000"
 3633      31365F74 
 3633      00
 3634              	.LASF40:
 3635 024e 54687265 		.ascii	"ThreadsList\000"
 3635      6164734C 
 3635      69737400 
 3636              	.LASF19:
 3637 025a 6576656E 		.ascii	"eventmask_t\000"
 3637      746D6173 
 3637      6B5F7400 
 3638              	.LASF5:
 3639 0266 73686F72 		.ascii	"short int\000"
 3639      7420696E 
 3639      7400
 3640              	.LASF132:
 3641 0270 2F686F6D 		.ascii	"/home/z80/projects/voltamper.git/firmware/voltamp\000"
 3641      652F7A38 
 3641      302F7072 
 3641      6F6A6563 
 3641      74732F76 
 3642              	.LASF42:
 3643 02a2 73746B61 		.ascii	"stkalign_t\000"
 3643      6C69676E 
 3643      5F7400
 3644              	.LASF78:
 3645 02ad 4932435F 		.ascii	"I2C_STOP\000"
 3645      53544F50 
 3645      00
 3646              	.LASF45:
 3647 02b6 4D757465 		.ascii	"Mutex\000"
 3647      7800
 3648              	.LASF101:
 3649 02bc 6572726F 		.ascii	"errors\000"
 3649      727300
 3650              	.LASF96:
 3651 02c3 64757479 		.ascii	"duty_cycle\000"
 3651      5F637963 
 3651      6C6500
 3652              	.LASF116:
 3653 02ce 74786362 		.ascii	"txcb\000"
 3653      00
 3654              	.LASF27:
 3655 02d3 705F6F6C 		.ascii	"p_older\000"
 3655      64657200 
 3656              	.LASF110:
 3657 02db 72786279 		.ascii	"rxbytes\000"
 3657      74657300 
 3658              	.LASF121:
 3659 02e3 69326353 		.ascii	"i2cStop\000"
 3659      746F7000 
 3660              	.LASF39:
 3661 02eb 54687265 		.ascii	"ThreadsQueue\000"
 3661      61647351 
 3661      75657565 
 3661      00
ARM GAS  /tmp/cci0vxXu.s 			page 70


 3662              	.LASF86:
 3663 02f8 4F504D4F 		.ascii	"OPMODE_I2C\000"
 3663      44455F49 
 3663      324300
 3664              	.LASF92:
 3665 0303 46415354 		.ascii	"FAST_DUTY_CYCLE_16_9\000"
 3665      5F445554 
 3665      595F4359 
 3665      434C455F 
 3665      31365F39 
 3666              	.LASF58:
 3667 0318 52455345 		.ascii	"RESERVED0\000"
 3667      52564544 
 3667      3000
 3668              	.LASF59:
 3669 0322 52455345 		.ascii	"RESERVED1\000"
 3669      52564544 
 3669      3100
 3670              	.LASF61:
 3671 032c 52455345 		.ascii	"RESERVED2\000"
 3671      52564544 
 3671      3200
 3672              	.LASF63:
 3673 0336 52455345 		.ascii	"RESERVED3\000"
 3673      52564544 
 3673      3300
 3674              	.LASF64:
 3675 0340 52455345 		.ascii	"RESERVED4\000"
 3675      52564544 
 3675      3400
 3676              	.LASF23:
 3677 034a 705F7072 		.ascii	"p_prev\000"
 3677      657600
 3678              	.LASF66:
 3679 0351 52455345 		.ascii	"RESERVED6\000"
 3679      52564544 
 3679      3600
 3680              	.LASF67:
 3681 035b 52455345 		.ascii	"RESERVED7\000"
 3681      52564544 
 3681      3700
 3682              	.LASF69:
 3683 0365 52455345 		.ascii	"RESERVED8\000"
 3683      52564544 
 3683      3800
 3684              	.LASF17:
 3685 036f 74707269 		.ascii	"tprio_t\000"
 3685      6F5F7400 
 3686              	.LASF80:
 3687 0377 4932435F 		.ascii	"I2C_ACTIVE_TX\000"
 3687      41435449 
 3687      56455F54 
 3687      5800
 3688              	.LASF85:
 3689 0385 69326366 		.ascii	"i2cflags_t\000"
 3689      6C616773 
 3689      5F7400
ARM GAS  /tmp/cci0vxXu.s 			page 71


 3690              	.LASF102:
 3691 0390 6D757465 		.ascii	"mutex\000"
 3691      7800
 3692              	.LASF8:
 3693 0396 696E7433 		.ascii	"int32_t\000"
 3693      325F7400 
 3694              	.LASF4:
 3695 039e 756E7369 		.ascii	"unsigned char\000"
 3695      676E6564 
 3695      20636861 
 3695      7200
 3696              	.LASF76:
 3697 03ac 73746D33 		.ascii	"stm32_dma_stream_t\000"
 3697      325F646D 
 3697      615F7374 
 3697      7265616D 
 3697      5F7400
 3698              	.LASF37:
 3699 03bf 705F6D74 		.ascii	"p_mtxlist\000"
 3699      786C6973 
 3699      7400
 3700              	.LASF77:
 3701 03c9 4932435F 		.ascii	"I2C_UNINIT\000"
 3701      554E494E 
 3701      495400
 3702              	.LASF30:
 3703 03d4 705F7374 		.ascii	"p_state\000"
 3703      61746500 
 3704              	.LASF122:
 3705 03dc 69326347 		.ascii	"i2cGetErrors\000"
 3705      65744572 
 3705      726F7273 
 3705      00
 3706              	.LASF52:
 3707 03e9 65776D61 		.ascii	"ewmask\000"
 3707      736B00
 3708              	.LASF22:
 3709 03f0 705F6E65 		.ascii	"p_next\000"
 3709      787400
 3710              	.LASF31:
 3711 03f7 705F666C 		.ascii	"p_flags\000"
 3711      61677300 
 3712              	.LASF91:
 3713 03ff 46415354 		.ascii	"FAST_DUTY_CYCLE_2\000"
 3713      5F445554 
 3713      595F4359 
 3713      434C455F 
 3713      3200
 3714              	.LASF71:
 3715 0411 6368616E 		.ascii	"channel\000"
 3715      6E656C00 
 3716              	.LASF82:
 3717 0419 4932435F 		.ascii	"I2C_LOCKED\000"
 3717      4C4F434B 
 3717      454400
 3718              	.LASF36:
 3719 0424 705F6570 		.ascii	"p_epending\000"
ARM GAS  /tmp/cci0vxXu.s 			page 72


 3719      656E6469 
 3719      6E6700
 3720              	.LASF72:
 3721 042f 69666372 		.ascii	"ifcr\000"
 3721      00
 3722              	.LASF65:
 3723 0434 52455345 		.ascii	"RESERVED5\000"
 3723      52564544 
 3723      3500
 3724              	.LASF10:
 3725 043e 75696E74 		.ascii	"uint32_t\000"
 3725      33325F74 
 3725      00
 3726              	.LASF128:
 3727 0447 69326353 		.ascii	"i2cSlaveIoTimeout\000"
 3727      6C617665 
 3727      496F5469 
 3727      6D656F75 
 3727      7400
 3728              	.LASF81:
 3729 0459 4932435F 		.ascii	"I2C_ACTIVE_RX\000"
 3729      41435449 
 3729      56455F52 
 3729      5800
 3730              	.LASF11:
 3731 0467 6C6F6E67 		.ascii	"long unsigned int\000"
 3731      20756E73 
 3731      69676E65 
 3731      6420696E 
 3731      7400
 3732              	.LASF53:
 3733 0479 63686172 		.ascii	"char\000"
 3733      00
 3734              	.LASF100:
 3735 047e 636F6E66 		.ascii	"config\000"
 3735      696700
 3736              	.LASF117:
 3737 0485 54493263 		.ascii	"TI2cSlaveCb\000"
 3737      536C6176 
 3737      65436200 
 3738              	.LASF48:
 3739 0491 6D5F6E65 		.ascii	"m_next\000"
 3739      787400
 3740              	.LASF20:
 3741 0498 73797374 		.ascii	"systime_t\000"
 3741      696D655F 
 3741      7400
 3742              	.LASF38:
 3743 04a2 705F7265 		.ascii	"p_realprio\000"
 3743      616C7072 
 3743      696F00
 3744              	.LASF79:
 3745 04ad 4932435F 		.ascii	"I2C_READY\000"
 3745      52454144 
 3745      5900
 3746              	.LASF44:
 3747 04b7 636F6E74 		.ascii	"context\000"
ARM GAS  /tmp/cci0vxXu.s 			page 73


 3747      65787400 
 3748              	.LASF43:
 3749 04bf 696E7463 		.ascii	"intctx\000"
 3749      747800
 3750              	.LASF126:
 3751 04c6 69326341 		.ascii	"i2cAcquireBus\000"
 3751      63717569 
 3751      72654275 
 3751      7300
 3752              	.LASF54:
 3753 04d4 434E4454 		.ascii	"CNDTR\000"
 3753      5200
 3754              	.LASF56:
 3755 04da 434D4152 		.ascii	"CMAR\000"
 3755      00
 3756              	.LASF3:
 3757 04df 75696E74 		.ascii	"uint8_t\000"
 3757      385F7400 
 3758              	.LASF60:
 3759 04e7 4F415231 		.ascii	"OAR1\000"
 3759      00
 3760              	.LASF62:
 3761 04ec 4F415232 		.ascii	"OAR2\000"
 3761      00
 3762              	.LASF125:
 3763 04f1 6932634D 		.ascii	"i2cMasterReceiveTimeout\000"
 3763      61737465 
 3763      72526563 
 3763      65697665 
 3763      54696D65 
 3764              	.LASF105:
 3765 0509 646D616D 		.ascii	"dmamode\000"
 3765      6F646500 
 3766              	.LASF51:
 3767 0511 77746F62 		.ascii	"wtobjp\000"
 3767      6A7000
 3768              	.LASF28:
 3769 0518 705F6E61 		.ascii	"p_name\000"
 3769      6D6500
 3770              	.LASF133:
 3771 051f 69326349 		.ascii	"i2cInit\000"
 3771      6E697400 
 3772              	.LASF35:
 3773 0527 705F6D73 		.ascii	"p_msg\000"
 3773      6700
 3774              	.LASF70:
 3775 052d 4932435F 		.ascii	"I2C_TypeDef\000"
 3775      54797065 
 3775      44656600 
 3776              	.LASF89:
 3777 0539 6932636F 		.ascii	"i2copmode_t\000"
 3777      706D6F64 
 3777      655F7400 
 3778              	.LASF118:
 3779 0545 6932634F 		.ascii	"i2cObjectInit\000"
 3779      626A6563 
 3779      74496E69 
ARM GAS  /tmp/cci0vxXu.s 			page 74


 3779      7400
 3780              	.LASF111:
 3781 0553 7278696E 		.ascii	"rxind\000"
 3781      6400
 3782              	.LASF47:
 3783 0559 6D5F6F77 		.ascii	"m_owner\000"
 3783      6E657200 
 3784              	.LASF25:
 3785 0561 705F6374 		.ascii	"p_ctx\000"
 3785      7800
 3786              	.LASF33:
 3787 0567 705F7761 		.ascii	"p_waiting\000"
 3787      6974696E 
 3787      6700
 3788              	.LASF114:
 3789 0571 74786279 		.ascii	"txbytes\000"
 3789      74657300 
 3790              		.ident	"GCC: (Sourcery G++ Lite 2011.03-42) 4.5.2"
ARM GAS  /tmp/cci0vxXu.s 			page 75


DEFINED SYMBOLS
                            *ABS*:00000000 i2c.c
     /tmp/cci0vxXu.s:24     .text.i2cInit:00000000 $t
     /tmp/cci0vxXu.s:30     .text.i2cInit:00000000 i2cInit
     /tmp/cci0vxXu.s:45     .text.i2cObjectInit:00000000 $t
     /tmp/cci0vxXu.s:51     .text.i2cObjectInit:00000000 i2cObjectInit
     /tmp/cci0vxXu.s:77     .text.i2cStart:00000000 $t
     /tmp/cci0vxXu.s:83     .text.i2cStart:00000000 i2cStart
     /tmp/cci0vxXu.s:163    .text.i2cStart:00000048 $d
     /tmp/cci0vxXu.s:169    .text.i2cStop:00000000 $t
     /tmp/cci0vxXu.s:175    .text.i2cStop:00000000 i2cStop
     /tmp/cci0vxXu.s:245    .text.i2cStop:00000044 $d
     /tmp/cci0vxXu.s:251    .text.i2cGetErrors:00000000 $t
     /tmp/cci0vxXu.s:257    .text.i2cGetErrors:00000000 i2cGetErrors
     /tmp/cci0vxXu.s:286    .text.i2cGetErrors:00000014 $d
     /tmp/cci0vxXu.s:291    .text.i2cMasterTransmitTimeout:00000000 $t
     /tmp/cci0vxXu.s:297    .text.i2cMasterTransmitTimeout:00000000 i2cMasterTransmitTimeout
     /tmp/cci0vxXu.s:430    .text.i2cMasterTransmitTimeout:00000090 $d
     /tmp/cci0vxXu.s:436    .text.i2cMasterReceiveTimeout:00000000 $t
     /tmp/cci0vxXu.s:442    .text.i2cMasterReceiveTimeout:00000000 i2cMasterReceiveTimeout
     /tmp/cci0vxXu.s:563    .text.i2cMasterReceiveTimeout:0000007c $d
     /tmp/cci0vxXu.s:569    .text.i2cAcquireBus:00000000 $t
     /tmp/cci0vxXu.s:575    .text.i2cAcquireBus:00000000 i2cAcquireBus
     /tmp/cci0vxXu.s:606    .text.i2cAcquireBus:0000001c $d
     /tmp/cci0vxXu.s:611    .text.i2cReleaseBus:00000000 $t
     /tmp/cci0vxXu.s:617    .text.i2cReleaseBus:00000000 i2cReleaseBus
     /tmp/cci0vxXu.s:647    .text.i2cReleaseBus:00000014 $d
     /tmp/cci0vxXu.s:652    .text.i2cSlaveIoTimeout:00000000 $t
     /tmp/cci0vxXu.s:658    .text.i2cSlaveIoTimeout:00000000 i2cSlaveIoTimeout
     /tmp/cci0vxXu.s:753    .rodata.str1.4:00000000 $d
                     .debug_frame:00000010 $d
     /tmp/cci0vxXu.s:250    .text.i2cStop:0000004c $t
     /tmp/cci0vxXu.s:290    .text.i2cGetErrors:00000018 $t
     /tmp/cci0vxXu.s:435    .text.i2cMasterTransmitTimeout:00000098 $t
     /tmp/cci0vxXu.s:568    .text.i2cMasterReceiveTimeout:00000084 $t
     /tmp/cci0vxXu.s:651    .text.i2cReleaseBus:00000018 $t

UNDEFINED SYMBOLS
i2c_lld_init
chMtxInit
chDbgPanic
dbg_check_lock
i2c_lld_start
dbg_check_unlock
i2c_lld_stop
i2c_lld_master_transmit_timeout
i2c_lld_master_receive_timeout
chMtxLock
chMtxUnlock
i2c_lld_slave_io_timeout
