ARM GAS  /tmp/cc8nMvkt.s 			page 1


   1              		.syntax unified
   2              		.cpu cortex-m3
   3              		.fpu softvfp
   4              		.eabi_attribute 20, 1
   5              		.eabi_attribute 21, 1
   6              		.eabi_attribute 23, 3
   7              		.eabi_attribute 24, 1
   8              		.eabi_attribute 25, 1
   9              		.eabi_attribute 26, 1
  10              		.eabi_attribute 30, 2
  11              		.eabi_attribute 18, 4
  12              		.thumb
  13              		.file	"i2c_lld.c"
  20 0000 90060000 		.text
  20      02008E02 
  20      00000201 
  20      FB0E0D00 
  20      01010101 
  21              	.Ltext0:
  22              		.cfi_sections	.debug_frame
  23              		.section	.text.i2c_lld_abort_operation,"ax",%progbits
  24              		.align	2
  25              		.p2align 4,,15
  26              		.thumb
  27              		.thumb_func
  28              		.type	i2c_lld_abort_operation, %function
  29              	i2c_lld_abort_operation:
  30              	.LFB62:
  31              		.file 1 "../chibios_2.4.x/os/hal/platforms/STM32/i2c_lld.c"
  32              		.loc 1 151 0
  33              		.cfi_startproc
  34              		@ args = 0, pretend = 0, frame = 0
  35              		@ frame_needed = 0, uses_anonymous_args = 0
  36              		@ link register save eliminated.
  37              	.LVL0:
  38              		.loc 1 161 0
  39 0000 C26A     		ldr	r2, [r0, #44]
  40              		.loc 1 152 0
  41 0002 036B     		ldr	r3, [r0, #48]
  42              	.LVL1:
  43              		.loc 1 151 0
  44 0004 30B4     		push	{r4, r5}
  45              	.LCFI0:
  46              		.cfi_def_cfa_offset 8
  47              		.loc 1 156 0
  48 0006 0021     		movs	r1, #0
  49              		.loc 1 161 0
  50 0008 1468     		ldr	r4, [r2, #0]
  51              		.cfi_offset 5, -4
  52              		.cfi_offset 4, -8
  53              		.loc 1 155 0
ARM GAS  /tmp/cc8nMvkt.s 			page 2


  54 000a 48F20005 		movw	r5, 32768	@ movhi
  55 000e 1D80     		strh	r5, [r3, #0]	@ movhi
  56              		.loc 1 156 0
  57 0010 1980     		strh	r1, [r3, #0]	@ movhi
  58              		.loc 1 157 0
  59 0012 9980     		strh	r1, [r3, #4]	@ movhi
  60              		.loc 1 158 0
  61 0014 9982     		strh	r1, [r3, #20]	@ movhi
  62              		.loc 1 161 0
  63 0016 2368     		ldr	r3, [r4, #0]
  64 0018 0F21     		movs	r1, #15
  65 001a 23F00103 		bic	r3, r3, #1
  66 001e 2360     		str	r3, [r4, #0]
  67 0020 147A     		ldrb	r4, [r2, #8]	@ zero_extendqisi2
  68              		.loc 1 162 0
  69 0022 836A     		ldr	r3, [r0, #40]
  70              		.loc 1 161 0
  71 0024 11FA04F4 		lsls	r4, r1, r4
  72 0028 5068     		ldr	r0, [r2, #4]
  73              	.LVL2:
  74              		.loc 1 162 0
  75 002a 1A68     		ldr	r2, [r3, #0]
  76              		.loc 1 161 0
  77 002c 0460     		str	r4, [r0, #0]
  78              		.loc 1 162 0
  79 002e 1468     		ldr	r4, [r2, #0]
  80 0030 5868     		ldr	r0, [r3, #4]
  81 0032 24F00104 		bic	r4, r4, #1
  82 0036 1460     		str	r4, [r2, #0]
  83 0038 1B7A     		ldrb	r3, [r3, #8]	@ zero_extendqisi2
  84 003a 9940     		lsls	r1, r1, r3
  85 003c 0160     		str	r1, [r0, #0]
  86              		.loc 1 163 0
  87 003e 30BC     		pop	{r4, r5}
  88 0040 7047     		bx	lr
  89              		.cfi_endproc
  90              	.LFE62:
  91              		.size	i2c_lld_abort_operation, .-i2c_lld_abort_operation
  92 0042 00BFAFF3 		.section	.text.i2c_lld_safety_timeout,"ax",%progbits
  92      0080AFF3 
  92      0080AFF3 
  92      0080
  93              		.align	2
  94              		.p2align 4,,15
  95              		.thumb
  96              		.thumb_func
  97              		.type	i2c_lld_safety_timeout, %function
  98              	i2c_lld_safety_timeout:
  99              	.LFB63:
 100              		.loc 1 172 0
 101              		.cfi_startproc
 102              		@ args = 0, pretend = 0, frame = 0
 103              		@ frame_needed = 0, uses_anonymous_args = 0
 104              	.LVL3:
 105 0000 70B5     		push	{r4, r5, r6, lr}
 106              	.LCFI1:
 107              		.cfi_def_cfa_offset 16
ARM GAS  /tmp/cc8nMvkt.s 			page 3


 108              		.loc 1 175 0
 109 0002 C469     		ldr	r4, [r0, #28]
 110              		.cfi_offset 14, -4
 111              		.cfi_offset 6, -8
 112              		.cfi_offset 5, -12
 113              		.cfi_offset 4, -16
 114              		.loc 1 172 0
 115 0004 0546     		mov	r5, r0
 116              	.LVL4:
 117              		.loc 1 175 0
 118 0006 5CB1     		cbz	r4, .L2
 119              	.LVL5:
 120              	.LBB21:
 121              		.loc 1 177 0
 122 0008 FFF7FEFF 		bl	i2c_lld_abort_operation
 123              	.LVL6:
 124              		.loc 1 178 0
 125 000c 0020     		movs	r0, #0
 126 000e E861     		str	r0, [r5, #28]
 127              		.loc 1 179 0
 128 0010 4FF0FF33 		mov	r3, #-1
 129              		.loc 1 180 0
 130 0014 2046     		mov	r0, r4
 131              		.loc 1 179 0
 132 0016 A362     		str	r3, [r4, #40]
 133              	.LBE21:
 134              		.loc 1 182 0
 135 0018 BDE87040 		pop	{r4, r5, r6, lr}
 136              	.LBB22:
 137              		.loc 1 180 0
 138 001c FFF7FEBF 		b	chSchReadyI
 139              	.LVL7:
 140              	.L2:
 141 0020 70BD     		pop	{r4, r5, r6, pc}
 142              	.LBE22:
 143              		.cfi_endproc
 144              	.LFE63:
 145              		.size	i2c_lld_safety_timeout, .-i2c_lld_safety_timeout
 146 0022 00BFAFF3 		.section	.text.i2c_lld_serve_tx_end_irq,"ax",%progbits
 146      0080AFF3 
 146      0080AFF3 
 146      0080
 147              		.align	2
 148              		.p2align 4,,15
 149              		.thumb
 150              		.thumb_func
 151              		.type	i2c_lld_serve_tx_end_irq, %function
 152              	i2c_lld_serve_tx_end_irq:
 153              	.LFB68:
 154              		.loc 1 436 0
 155              		.cfi_startproc
 156              		@ args = 0, pretend = 0, frame = 0
 157              		@ frame_needed = 0, uses_anonymous_args = 0
 158              	.LVL8:
 159              		.loc 1 441 0
 160 0000 11F0080F 		tst	r1, #8
 161              		.loc 1 436 0
ARM GAS  /tmp/cc8nMvkt.s 			page 4


 162 0004 38B5     		push	{r3, r4, r5, lr}
 163              	.LCFI2:
 164              		.cfi_def_cfa_offset 16
 165              		.loc 1 436 0
 166 0006 0546     		mov	r5, r0
 167              		.cfi_offset 14, -4
 168              		.cfi_offset 5, -8
 169              		.cfi_offset 4, -12
 170              		.cfi_offset 3, -16
 171              		.loc 1 437 0
 172 0008 046B     		ldr	r4, [r0, #48]
 173              	.LVL9:
 174              		.loc 1 441 0
 175 000a 01D0     		beq	.L6
 176              	.LVL10:
 177              		.loc 1 442 0
 178 000c FFF7FEFF 		bl	port_halt
 179              	.LVL11:
 180              	.L6:
 181              		.loc 1 448 0
 182 0010 EB6A     		ldr	r3, [r5, #44]
 183 0012 1A68     		ldr	r2, [r3, #0]
 184 0014 5968     		ldr	r1, [r3, #4]
 185 0016 1068     		ldr	r0, [r2, #0]
 186 0018 20F00100 		bic	r0, r0, #1
 187 001c 1060     		str	r0, [r2, #0]
 188 001e 1B7A     		ldrb	r3, [r3, #8]	@ zero_extendqisi2
 189 0020 0F20     		movs	r0, #15
 190 0022 10FA03F2 		lsls	r2, r0, r3
 191 0026 0A60     		str	r2, [r1, #0]
 192              		.loc 1 452 0
 193 0028 A188     		ldrh	r1, [r4, #4]
 194 002a 88B2     		uxth	r0, r1
 195 002c 40F40073 		orr	r3, r0, #512
 196 0030 A380     		strh	r3, [r4, #4]	@ movhi
 197              		.loc 1 453 0
 198 0032 38BD     		pop	{r3, r4, r5, pc}
 199              		.cfi_endproc
 200              	.LFE68:
 201              		.size	i2c_lld_serve_tx_end_irq, .-i2c_lld_serve_tx_end_irq
 202 0034 AFF30080 		.section	.text.i2c_lld_serve_rx_end_irq,"ax",%progbits
 202      AFF30080 
 202      AFF30080 
 203              		.align	2
 204              		.p2align 4,,15
 205              		.thumb
 206              		.thumb_func
 207              		.type	i2c_lld_serve_rx_end_irq, %function
 208              	i2c_lld_serve_rx_end_irq:
 209              	.LFB67:
 210              		.loc 1 402 0
 211              		.cfi_startproc
 212              		@ args = 0, pretend = 0, frame = 0
 213              		@ frame_needed = 0, uses_anonymous_args = 0
 214              	.LVL12:
 215              		.loc 1 407 0
 216 0000 11F0080F 		tst	r1, #8
ARM GAS  /tmp/cc8nMvkt.s 			page 5


 217              		.loc 1 402 0
 218 0004 70B5     		push	{r4, r5, r6, lr}
 219              	.LCFI3:
 220              		.cfi_def_cfa_offset 16
 221              		.loc 1 402 0
 222 0006 0446     		mov	r4, r0
 223              		.cfi_offset 14, -4
 224              		.cfi_offset 6, -8
 225              		.cfi_offset 5, -12
 226              		.cfi_offset 4, -16
 227              		.loc 1 403 0
 228 0008 056B     		ldr	r5, [r0, #48]
 229              	.LVL13:
 230              		.loc 1 407 0
 231 000a 36D1     		bne	.L11
 232              	.LVL14:
 233              	.L8:
 234              		.loc 1 414 0
 235 000c A66A     		ldr	r6, [r4, #40]
 236 000e 3268     		ldr	r2, [r6, #0]
 237 0010 7168     		ldr	r1, [r6, #4]
 238 0012 1068     		ldr	r0, [r2, #0]
 239 0014 20F00103 		bic	r3, r0, #1
 240 0018 1360     		str	r3, [r2, #0]
 241 001a 307A     		ldrb	r0, [r6, #8]	@ zero_extendqisi2
 242 001c 0F22     		movs	r2, #15
 243 001e 12FA00F3 		lsls	r3, r2, r0
 244 0022 0B60     		str	r3, [r1, #0]
 245              		.loc 1 417 0
 246 0024 94F83460 		ldrb	r6, [r4, #52]	@ zero_extendqisi2
 247 0028 06B1     		cbz	r6, .L12
 248 002a 70BD     		pop	{r4, r5, r6, pc}
 249              	.L12:
 250              		.loc 1 420 0
 251 002c B5F804E0 		ldrh	lr, [r5, #4]
 252              	.LBB23:
 253              		.loc 1 423 0
 254 0030 2023     		movs	r3, #32
 255              	.LVL15:
 256              	.LBE23:
 257              		.loc 1 420 0
 258 0032 2EF48051 		bic	r1, lr, #4096
 259 0036 0804     		lsls	r0, r1, #16
 260 0038 020C     		lsrs	r2, r0, #16
 261 003a AA80     		strh	r2, [r5, #4]	@ movhi
 262              		.loc 1 421 0
 263 003c B5F800C0 		ldrh	ip, [r5, #0]
 264 0040 2CF48061 		bic	r1, ip, #1024
 265 0044 0804     		lsls	r0, r1, #16
 266 0046 020C     		lsrs	r2, r0, #16
 267 0048 2A80     		strh	r2, [r5, #0]	@ movhi
 268              		.loc 1 422 0
 269 004a 2988     		ldrh	r1, [r5, #0]
 270 004c 1FFA81FE 		uxth	lr, r1
 271 0050 4EF4007C 		orr	ip, lr, #512
 272 0054 A5F800C0 		strh	ip, [r5, #0]	@ movhi
 273              	.LBB24:
ARM GAS  /tmp/cc8nMvkt.s 			page 6


 274              		.loc 1 423 0
 275              	@ 423 "../chibios_2.4.x/os/hal/platforms/STM32/i2c_lld.c" 1
 276 0058 83F31188 		msr     BASEPRI, r3
 277              	@ 0 "" 2
 278              	.LVL16:
 279              		.thumb
 280              	.LBE24:
 281 005c FFF7FEFF 		bl	dbg_check_lock_from_isr
 282              	.LVL17:
 283 0060 E369     		ldr	r3, [r4, #28]
 284 0062 23B1     		cbz	r3, .L10
 285              	.LVL18:
 286              	.LBB25:
 287              		.loc 1 423 0 is_stmt 0 discriminator 1
 288 0064 E661     		str	r6, [r4, #28]
 289 0066 1846     		mov	r0, r3
 290 0068 9E62     		str	r6, [r3, #40]
 291 006a FFF7FEFF 		bl	chSchReadyI
 292              	.LVL19:
 293              	.L10:
 294              	.LBE25:
 295              		.loc 1 423 0 discriminator 2
 296 006e FFF7FEFF 		bl	dbg_check_unlock_from_isr
 297              	.LBB26:
 298 0072 0023     		movs	r3, #0
 299              	.LVL20:
 300              	@ 423 "../chibios_2.4.x/os/hal/platforms/STM32/i2c_lld.c" 1
 301 0074 83F31188 		msr     BASEPRI, r3
 302              	@ 0 "" 2
 303              	.LVL21:
 304              		.thumb
 305 0078 70BD     		pop	{r4, r5, r6, pc}
 306              	.LVL22:
 307              	.L11:
 308              	.LBE26:
 309              		.loc 1 408 0 is_stmt 1
 310 007a FFF7FEFF 		bl	port_halt
 311              	.LVL23:
 312 007e C5E7     		b	.L8
 313              		.cfi_endproc
 314              	.LFE67:
 315              		.size	i2c_lld_serve_rx_end_irq, .-i2c_lld_serve_rx_end_irq
 316              		.section	.text.VectorBC,"ax",%progbits
 317              		.align	2
 318              		.p2align 4,,15
 319              		.global	VectorBC
 320              		.thumb
 321              		.thumb_func
 322              		.type	VectorBC, %function
 323              	VectorBC:
 324              	.LFB70:
 325              		.loc 1 539 0
 326              		.cfi_startproc
 327              		@ args = 0, pretend = 0, frame = 0
 328              		@ frame_needed = 0, uses_anonymous_args = 0
 329 0000 2DE9F041 		push	{r4, r5, r6, r7, r8, lr}
 330              	.LCFI4:
ARM GAS  /tmp/cc8nMvkt.s 			page 7


 331              		.cfi_def_cfa_offset 24
 332              	.LBB32:
 333              	.LBB34:
 334              		.loc 1 302 0
 335 0004 684C     		ldr	r4, .L28
 336              		.cfi_offset 14, -4
 337              		.cfi_offset 8, -8
 338              		.cfi_offset 7, -12
 339              		.cfi_offset 6, -16
 340              		.cfi_offset 5, -20
 341              		.cfi_offset 4, -24
 342              	.LBE34:
 343              	.LBE32:
 344              		.loc 1 541 0
 345 0006 FFF7FEFF 		bl	dbg_check_enter_isr
 346              	.LVL24:
 347              	.LBB40:
 348              	.LBB33:
 349              		.loc 1 302 0
 350 000a 256B     		ldr	r5, [r4, #48]
 351              	.LVL25:
 352              		.loc 1 307 0
 353 000c 94F83430 		ldrb	r3, [r4, #52]	@ zero_extendqisi2
 354              		.loc 1 303 0
 355 0010 2A8B     		ldrh	r2, [r5, #24]
 356              		.loc 1 304 0
 357 0012 AE8A     		ldrh	r6, [r5, #20]
 358              	.LVL26:
 359 0014 B6B2     		uxth	r6, r6
 360              	.LVL27:
 361              		.loc 1 307 0
 362 0016 C3B9     		cbnz	r3, .L14
 363              		.loc 1 313 0
 364 0018 46EA0242 		orr	r2, r6, r2, lsl #16
 365              	.LVL28:
 366 001c 634B     		ldr	r3, .L28+4
 367 001e 22F07F42 		bic	r2, r2, #-16777216
 368 0022 9A42     		cmp	r2, r3
 369 0024 74D0     		beq	.L17
 370 0026 5CD8     		bhi	.L20
 371 0028 581E     		subs	r0, r3, #1
 372 002a 8242     		cmp	r2, r0
 373 002c 03D1     		bne	.L15
 374              		.loc 1 315 0
 375 002e B4F820C0 		ldrh	ip, [r4, #32]
 376 0032 A5F810C0 		strh	ip, [r5, #16]	@ movhi
 377              	.LVL29:
 378              	.L15:
 379              		.loc 1 344 0
 380 0036 16F00A0F 		tst	r6, #10
 381 003a 00D0     		beq	.L22
 382              		.loc 1 345 0
 383 003c 2B8B     		ldrh	r3, [r5, #24]
 384              	.LVL30:
 385              	.L22:
 386              	.LBE33:
 387              	.LBE40:
ARM GAS  /tmp/cc8nMvkt.s 			page 8


 388              		.loc 1 545 0
 389 003e FFF7FEFF 		bl	dbg_check_leave_isr
 390              	.LVL31:
 391              		.loc 1 546 0
 392 0042 BDE8F041 		pop	{r4, r5, r6, r7, r8, lr}
 393              		.loc 1 545 0
 394 0046 FFF7FEBF 		b	_port_irq_epilogue
 395              	.LVL32:
 396              	.L14:
 397              	.LBB41:
 398              	.LBB39:
 399              		.loc 1 350 0
 400 004a 16F00A0F 		tst	r6, #10
 401 004e 05D0     		beq	.L24
 402              		.loc 1 357 0
 403 0050 AE8A     		ldrh	r6, [r5, #20]
 404              	.LVL33:
 405              		.loc 1 353 0
 406 0052 0023     		movs	r3, #0
 407              		.loc 1 358 0
 408 0054 2A8B     		ldrh	r2, [r5, #24]
 409              	.LVL34:
 410              		.loc 1 357 0
 411 0056 B6B2     		uxth	r6, r6
 412              		.loc 1 353 0
 413 0058 2364     		str	r3, [r4, #64]
 414              		.loc 1 354 0
 415 005a 2365     		str	r3, [r4, #80]
 416              	.LVL35:
 417              	.L24:
 418              		.loc 1 360 0
 419 005c 16F0800F 		tst	r6, #128
 420 0060 0ED0     		beq	.L25
 421              		.loc 1 362 0
 422 0062 206D     		ldr	r0, [r4, #80]
 423 0064 A26C     		ldr	r2, [r4, #72]
 424              		.loc 1 363 0
 425 0066 216C     		ldr	r1, [r4, #64]
 426              		.loc 1 362 0
 427 0068 12F800E0 		ldrb	lr, [r2, r0]	@ zero_extendqisi2
 428              		.loc 1 363 0
 429 006c E26C     		ldr	r2, [r4, #76]
 430              		.loc 1 362 0
 431 006e 431C     		adds	r3, r0, #1
 432              		.loc 1 363 0
 433 0070 9142     		cmp	r1, r2
 434              		.loc 1 362 0
 435 0072 A5F810E0 		strh	lr, [r5, #16]	@ movhi
 436 0076 2365     		str	r3, [r4, #80]
 437              		.loc 1 363 0
 438 0078 02D3     		bcc	.L25
 439              		.loc 1 364 0
 440 007a 4B4B     		ldr	r3, .L28
 441 007c 0021     		movs	r1, #0
 442 007e 1965     		str	r1, [r3, #80]
 443              	.L25:
 444              		.loc 1 366 0
ARM GAS  /tmp/cc8nMvkt.s 			page 9


 445 0080 16F0400F 		tst	r6, #64
 446 0084 0DD0     		beq	.L26
 447              		.loc 1 368 0
 448 0086 226C     		ldr	r2, [r4, #64]
 449 0088 B5F810C0 		ldrh	ip, [r5, #16]
 450 008c A16B     		ldr	r1, [r4, #56]
 451 008e 531C     		adds	r3, r2, #1
 452 0090 01F802C0 		strb	ip, [r1, r2]
 453              		.loc 1 369 0
 454 0094 E06B     		ldr	r0, [r4, #60]
 455              		.loc 1 368 0
 456 0096 2364     		str	r3, [r4, #64]
 457              		.loc 1 369 0
 458 0098 8342     		cmp	r3, r0
 459 009a 02D3     		bcc	.L26
 460              		.loc 1 370 0
 461 009c 424B     		ldr	r3, .L28
 462 009e 0020     		movs	r0, #0
 463 00a0 1864     		str	r0, [r3, #64]
 464              	.L26:
 465              		.loc 1 372 0
 466 00a2 16F0100F 		tst	r6, #16
 467 00a6 0CD0     		beq	.L27
 468              		.loc 1 375 0
 469 00a8 AE8A     		ldrh	r6, [r5, #20]
 470              	.LVL36:
 471              		.loc 1 376 0
 472 00aa 2988     		ldrh	r1, [r5, #0]
 473              		.loc 1 379 0
 474 00ac 636C     		ldr	r3, [r4, #68]
 475              		.loc 1 376 0
 476 00ae 1FFA81FC 		uxth	ip, r1
 477 00b2 4CF0010E 		orr	lr, ip, #1
 478              		.loc 1 375 0
 479 00b6 B6B2     		uxth	r6, r6
 480              	.LVL37:
 481              		.loc 1 376 0
 482 00b8 A5F800E0 		strh	lr, [r5, #0]	@ movhi
 483              		.loc 1 379 0
 484 00bc 0BB1     		cbz	r3, .L27
 485              		.loc 1 380 0
 486 00be 3A48     		ldr	r0, .L28
 487 00c0 9847     		blx	r3
 488              	.L27:
 489              		.loc 1 382 0
 490 00c2 16F4806F 		tst	r6, #1024
 491 00c6 BAD0     		beq	.L22
 492              		.loc 1 384 0
 493 00c8 B5F814E0 		ldrh	lr, [r5, #20]
 494              		.loc 1 387 0
 495 00cc 636D     		ldr	r3, [r4, #84]
 496              		.loc 1 384 0
 497 00ce 2EF48061 		bic	r1, lr, #1024
 498 00d2 0804     		lsls	r0, r1, #16
 499 00d4 020C     		lsrs	r2, r0, #16
 500 00d6 AA82     		strh	r2, [r5, #20]	@ movhi
 501              		.loc 1 387 0
ARM GAS  /tmp/cc8nMvkt.s 			page 10


 502 00d8 002B     		cmp	r3, #0
 503 00da B0D0     		beq	.L22
 504              		.loc 1 388 0
 505 00dc 3248     		ldr	r0, .L28
 506 00de 9847     		blx	r3
 507 00e0 ADE7     		b	.L22
 508              	.L20:
 509              		.loc 1 313 0
 510 00e2 334B     		ldr	r3, .L28+8
 511 00e4 9A42     		cmp	r2, r3
 512 00e6 32D0     		beq	.L18
 513 00e8 991C     		adds	r1, r3, #2
 514 00ea 8A42     		cmp	r2, r1
 515 00ec A3D1     		bne	.L15
 516              		.loc 1 330 0
 517 00ee A26A     		ldr	r2, [r4, #40]
 518 00f0 1768     		ldr	r7, [r2, #0]
 519 00f2 7F68     		ldr	r7, [r7, #4]
 520 00f4 002F     		cmp	r7, #0
 521 00f6 38D0     		beq	.L21
 522              		.loc 1 333 0
 523 00f8 2B88     		ldrh	r3, [r5, #0]
 524              		.loc 1 332 0
 525 00fa B4F820C0 		ldrh	ip, [r4, #32]
 526              		.loc 1 333 0
 527 00fe 98B2     		uxth	r0, r3
 528              		.loc 1 332 0
 529 0100 4CF00101 		orr	r1, ip, #1
 530              		.loc 1 333 0
 531 0104 40F4A06E 		orr	lr, r0, #1280
 532              		.loc 1 332 0
 533 0108 2184     		strh	r1, [r4, #32]	@ movhi
 534              		.loc 1 333 0
 535 010a A5F800E0 		strh	lr, [r5, #0]	@ movhi
 536 010e 96E7     		b	.L22
 537              	.L17:
 538              		.loc 1 318 0
 539 0110 B5F804C0 		ldrh	ip, [r5, #4]
 540              		.loc 1 319 0
 541 0114 A26A     		ldr	r2, [r4, #40]
 542              		.loc 1 318 0
 543 0116 2CF40070 		bic	r0, ip, #512
 544 011a 0304     		lsls	r3, r0, #16
 545              		.loc 1 319 0
 546 011c 1268     		ldr	r2, [r2, #0]
 547              		.loc 1 318 0
 548 011e 190C     		lsrs	r1, r3, #16
 549 0120 A980     		strh	r1, [r5, #4]	@ movhi
 550              		.loc 1 319 0
 551 0122 1068     		ldr	r0, [r2, #0]
 552 0124 40F00103 		orr	r3, r0, #1
 553 0128 1360     		str	r3, [r2, #0]
 554              		.loc 1 320 0
 555 012a A988     		ldrh	r1, [r5, #4]
 556 012c 88B2     		uxth	r0, r1
 557 012e 40F4805E 		orr	lr, r0, #4096
 558 0132 A5F804E0 		strh	lr, [r5, #4]	@ movhi
ARM GAS  /tmp/cc8nMvkt.s 			page 11


 559              		.loc 1 321 0
 560 0136 5368     		ldr	r3, [r2, #4]
 561 0138 012B     		cmp	r3, #1
 562 013a 3FF67CAF 		bhi	.L15
 563              		.loc 1 322 0
 564 013e B5F800E0 		ldrh	lr, [r5, #0]
 565 0142 2EF48062 		bic	r2, lr, #1024
 566 0146 1304     		lsls	r3, r2, #16
 567 0148 190C     		lsrs	r1, r3, #16
 568 014a 2980     		strh	r1, [r5, #0]	@ movhi
 569 014c 73E7     		b	.L15
 570              	.L18:
 571              		.loc 1 325 0
 572 014e B5F804C0 		ldrh	ip, [r5, #4]
 573              		.loc 1 326 0
 574 0152 E06A     		ldr	r0, [r4, #44]
 575              		.loc 1 325 0
 576 0154 2CF40073 		bic	r3, ip, #512
 577 0158 1904     		lsls	r1, r3, #16
 578              		.loc 1 326 0
 579 015a 0068     		ldr	r0, [r0, #0]
 580              		.loc 1 325 0
 581 015c 0A0C     		lsrs	r2, r1, #16
 582 015e AA80     		strh	r2, [r5, #4]	@ movhi
 583              		.loc 1 326 0
 584 0160 0368     		ldr	r3, [r0, #0]
 585 0162 43F00101 		orr	r1, r3, #1
 586 0166 0160     		str	r1, [r0, #0]
 587 0168 65E7     		b	.L15
 588              	.L21:
 589              		.loc 1 336 0
 590 016a B5F804C0 		ldrh	ip, [r5, #4]
 591              	.LBB35:
 592              		.loc 1 338 0
 593 016e 2023     		movs	r3, #32
 594              	.LVL38:
 595              	.LBE35:
 596              		.loc 1 336 0
 597 0170 2CF40071 		bic	r1, ip, #512
 598 0174 0A04     		lsls	r2, r1, #16
 599 0176 100C     		lsrs	r0, r2, #16
 600 0178 A880     		strh	r0, [r5, #4]	@ movhi
 601              		.loc 1 337 0
 602 017a 2988     		ldrh	r1, [r5, #0]
 603 017c 1FFA81FE 		uxth	lr, r1
 604 0180 4EF40072 		orr	r2, lr, #512
 605 0184 2A80     		strh	r2, [r5, #0]	@ movhi
 606              	.LBB36:
 607              		.loc 1 338 0
 608              	@ 338 "../chibios_2.4.x/os/hal/platforms/STM32/i2c_lld.c" 1
 609 0186 83F31188 		msr     BASEPRI, r3
 610              	@ 0 "" 2
 611              	.LVL39:
 612              		.thumb
 613              	.LBE36:
 614 018a FFF7FEFF 		bl	dbg_check_lock_from_isr
 615              	.LVL40:
ARM GAS  /tmp/cc8nMvkt.s 			page 12


 616 018e E069     		ldr	r0, [r4, #28]
 617 0190 18B1     		cbz	r0, .L23
 618              	.LVL41:
 619              	.LBB37:
 620 0192 8762     		str	r7, [r0, #40]
 621 0194 E761     		str	r7, [r4, #28]
 622 0196 FFF7FEFF 		bl	chSchReadyI
 623              	.LVL42:
 624              	.L23:
 625              	.LBE37:
 626 019a FFF7FEFF 		bl	dbg_check_unlock_from_isr
 627              	.LBB38:
 628 019e 0023     		movs	r3, #0
 629              	@ 338 "../chibios_2.4.x/os/hal/platforms/STM32/i2c_lld.c" 1
 630 01a0 83F31188 		msr     BASEPRI, r3
 631              	@ 0 "" 2
 632              	.LVL43:
 633              		.thumb
 634 01a4 47E7     		b	.L15
 635              	.L29:
 636 01a6 00BF     		.align	2
 637              	.L28:
 638 01a8 00000000 		.word	.LANCHOR0
 639 01ac 02000300 		.word	196610
 640 01b0 82000700 		.word	458882
 641              	.LBE38:
 642              	.LBE39:
 643              	.LBE41:
 644              		.cfi_endproc
 645              	.LFE70:
 646              		.size	VectorBC, .-VectorBC
 647 01b4 AFF30080 		.section	.text.VectorC0,"ax",%progbits
 647      AFF30080 
 647      AFF30080 
 648              		.align	2
 649              		.p2align 4,,15
 650              		.global	VectorC0
 651              		.thumb
 652              		.thumb_func
 653              		.type	VectorC0, %function
 654              	VectorC0:
 655              	.LFB71:
 656              		.loc 1 551 0
 657              		.cfi_startproc
 658              		@ args = 0, pretend = 0, frame = 0
 659              		@ frame_needed = 0, uses_anonymous_args = 0
 660 0000 2DE9F041 		push	{r4, r5, r6, r7, r8, lr}
 661              	.LCFI5:
 662              		.cfi_def_cfa_offset 24
 663              	.LBB49:
 664              	.LBB51:
 665              		.loc 1 463 0
 666 0004 5D4D     		ldr	r5, .L45
 667              		.cfi_offset 14, -4
 668              		.cfi_offset 8, -8
 669              		.cfi_offset 7, -12
 670              		.cfi_offset 6, -16
ARM GAS  /tmp/cc8nMvkt.s 			page 13


 671              		.cfi_offset 5, -20
 672              		.cfi_offset 4, -24
 673              	.LBE51:
 674              	.LBE49:
 675              		.loc 1 553 0
 676 0006 FFF7FEFF 		bl	dbg_check_enter_isr
 677              	.LVL44:
 678              	.LBB58:
 679              	.LBB50:
 680              		.loc 1 463 0
 681 000a 2C6B     		ldr	r4, [r5, #48]
 682              	.LVL45:
 683              	.LBB53:
 684              		.loc 1 467 0
 685 000c 2023     		movs	r3, #32
 686              	.LVL46:
 687              	@ 467 "../chibios_2.4.x/os/hal/platforms/STM32/i2c_lld.c" 1
 688 000e 83F31188 		msr     BASEPRI, r3
 689              	@ 0 "" 2
 690              	.LVL47:
 691              		.thumb
 692              	.LBE53:
 693 0012 FFF7FEFF 		bl	dbg_check_lock_from_isr
 694              	.LVL48:
 695              		.loc 1 468 0
 696 0016 EA6A     		ldr	r2, [r5, #44]
 697              		.loc 1 469 0
 698 0018 AB6A     		ldr	r3, [r5, #40]
 699              		.loc 1 468 0
 700 001a 1068     		ldr	r0, [r2, #0]
 701 001c 5668     		ldr	r6, [r2, #4]
 702 001e 0768     		ldr	r7, [r0, #0]
 703 0020 0F21     		movs	r1, #15
 704 0022 27F00107 		bic	r7, r7, #1
 705 0026 0760     		str	r7, [r0, #0]
 706 0028 107A     		ldrb	r0, [r2, #8]	@ zero_extendqisi2
 707              		.loc 1 469 0
 708 002a 1A68     		ldr	r2, [r3, #0]
 709              		.loc 1 468 0
 710 002c 11FA00F0 		lsls	r0, r1, r0
 711 0030 3060     		str	r0, [r6, #0]
 712              		.loc 1 469 0
 713 0032 1668     		ldr	r6, [r2, #0]
 714 0034 5868     		ldr	r0, [r3, #4]
 715 0036 26F00106 		bic	r6, r6, #1
 716 003a 1660     		str	r6, [r2, #0]
 717 003c 1B7A     		ldrb	r3, [r3, #8]	@ zero_extendqisi2
 718 003e 9940     		lsls	r1, r1, r3
 719 0040 0160     		str	r1, [r0, #0]
 720              		.loc 1 470 0
 721 0042 FFF7FEFF 		bl	dbg_check_unlock_from_isr
 722              	.LBB52:
 723 0046 0023     		movs	r3, #0
 724              	.LVL49:
 725              	@ 470 "../chibios_2.4.x/os/hal/platforms/STM32/i2c_lld.c" 1
 726 0048 83F31188 		msr     BASEPRI, r3
 727              	@ 0 "" 2
ARM GAS  /tmp/cc8nMvkt.s 			page 14


 728              	.LVL50:
 729              		.thumb
 730              	.LBE52:
 731              		.loc 1 474 0
 732 004c A68A     		ldrh	r6, [r4, #20]
 733 004e 16F48076 		ands	r6, r6, #256
 734 0052 07D0     		beq	.L31
 735              		.loc 1 475 0
 736 0054 B4F814C0 		ldrh	ip, [r4, #20]
 737              		.loc 1 476 0
 738 0058 0126     		movs	r6, #1
 739              		.loc 1 475 0
 740 005a 2CF48072 		bic	r2, ip, #256
 741 005e 1304     		lsls	r3, r2, #16
 742              	.LVL51:
 743 0060 190C     		lsrs	r1, r3, #16
 744 0062 A182     		strh	r1, [r4, #20]	@ movhi
 745              	.LVL52:
 746              	.L31:
 747              		.loc 1 478 0
 748 0064 B4F814E0 		ldrh	lr, [r4, #20]
 749 0068 1EF4007F 		tst	lr, #512
 750 006c 07D0     		beq	.L32
 751              		.loc 1 479 0
 752 006e A28A     		ldrh	r2, [r4, #20]
 753              		.loc 1 480 0
 754 0070 46F00206 		orr	r6, r6, #2
 755              	.LVL53:
 756              		.loc 1 479 0
 757 0074 22F40073 		bic	r3, r2, #512
 758              	.LVL54:
 759 0078 1904     		lsls	r1, r3, #16
 760 007a 080C     		lsrs	r0, r1, #16
 761 007c A082     		strh	r0, [r4, #20]	@ movhi
 762              	.LVL55:
 763              	.L32:
 764              		.loc 1 483 0
 765 007e 95F83410 		ldrb	r1, [r5, #52]	@ zero_extendqisi2
 766 0082 3E48     		ldr	r0, .L45
 767 0084 0029     		cmp	r1, #0
 768 0086 3AD1     		bne	.L33
 769              		.loc 1 486 0
 770 0088 B4F814C0 		ldrh	ip, [r4, #20]
 771 008c 1CF4806F 		tst	ip, #1024
 772 0090 41D1     		bne	.L43
 773              	.L34:
 774              		.loc 1 505 0
 775 0092 A08A     		ldrh	r0, [r4, #20]
 776 0094 10F4006F 		tst	r0, #2048
 777 0098 08D0     		beq	.L35
 778              		.loc 1 506 0
 779 009a B4F814E0 		ldrh	lr, [r4, #20]
 780              		.loc 1 507 0
 781 009e 46F00806 		orr	r6, r6, #8
 782              	.LVL56:
 783              		.loc 1 506 0
 784 00a2 2EF40062 		bic	r2, lr, #2048
ARM GAS  /tmp/cc8nMvkt.s 			page 15


 785 00a6 1104     		lsls	r1, r2, #16
 786 00a8 0B0C     		lsrs	r3, r1, #16
 787              	.LVL57:
 788 00aa A382     		strh	r3, [r4, #20]	@ movhi
 789              	.LVL58:
 790              	.L35:
 791              		.loc 1 509 0
 792 00ac B4F814C0 		ldrh	ip, [r4, #20]
 793 00b0 1CF4805F 		tst	ip, #4096
 794 00b4 07D0     		beq	.L36
 795              		.loc 1 510 0
 796 00b6 A28A     		ldrh	r2, [r4, #20]
 797              		.loc 1 511 0
 798 00b8 46F01006 		orr	r6, r6, #16
 799              	.LVL59:
 800              		.loc 1 510 0
 801 00bc 22F48051 		bic	r1, r2, #4096
 802 00c0 0B04     		lsls	r3, r1, #16
 803              	.LVL60:
 804 00c2 180C     		lsrs	r0, r3, #16
 805 00c4 A082     		strh	r0, [r4, #20]	@ movhi
 806              	.LVL61:
 807              	.L36:
 808              		.loc 1 513 0
 809 00c6 B4F814E0 		ldrh	lr, [r4, #20]
 810 00ca 1EF4804F 		tst	lr, #16384
 811 00ce 08D0     		beq	.L37
 812              		.loc 1 514 0
 813 00d0 B4F814C0 		ldrh	ip, [r4, #20]
 814              		.loc 1 515 0
 815 00d4 46F02006 		orr	r6, r6, #32
 816              	.LVL62:
 817              		.loc 1 514 0
 818 00d8 2CF48041 		bic	r1, ip, #16384
 819 00dc 0B04     		lsls	r3, r1, #16
 820              	.LVL63:
 821 00de 180C     		lsrs	r0, r3, #16
 822 00e0 A082     		strh	r0, [r4, #20]	@ movhi
 823              	.LVL64:
 824              	.L37:
 825              		.loc 1 517 0
 826 00e2 B4F814E0 		ldrh	lr, [r4, #20]
 827 00e6 0FFA8EF2 		sxth	r2, lr
 828 00ea 002A     		cmp	r2, #0
 829 00ec 2ADB     		blt	.L44
 830              		.loc 1 523 0
 831 00ee 002E     		cmp	r6, #0
 832 00f0 2ED1     		bne	.L39
 833              	.LVL65:
 834              	.L40:
 835              	.LBE50:
 836              	.LBE58:
 837              		.loc 1 557 0
 838 00f2 FFF7FEFF 		bl	dbg_check_leave_isr
 839              	.LVL66:
 840              		.loc 1 558 0
 841 00f6 BDE8F041 		pop	{r4, r5, r6, r7, r8, lr}
ARM GAS  /tmp/cc8nMvkt.s 			page 16


 842              		.loc 1 557 0
 843 00fa FFF7FEBF 		b	_port_irq_epilogue
 844              	.LVL67:
 845              	.L33:
 846              	.LBB59:
 847              	.LBB57:
 848              		.loc 1 498 0
 849 00fe B4F814C0 		ldrh	ip, [r4, #20]
 850              		.loc 1 501 0
 851 0102 436D     		ldr	r3, [r0, #84]
 852              	.LVL68:
 853              		.loc 1 498 0
 854 0104 2CF48062 		bic	r2, ip, #1024
 855 0108 1104     		lsls	r1, r2, #16
 856 010a 0A0C     		lsrs	r2, r1, #16
 857 010c A282     		strh	r2, [r4, #20]	@ movhi
 858              		.loc 1 501 0
 859 010e 002B     		cmp	r3, #0
 860 0110 BFD0     		beq	.L34
 861              		.loc 1 502 0
 862 0112 9847     		blx	r3
 863 0114 BDE7     		b	.L34
 864              	.LVL69:
 865              	.L43:
 866              		.loc 1 487 0
 867 0116 B4F814E0 		ldrh	lr, [r4, #20]
 868              		.loc 1 490 0
 869 011a 46F00406 		orr	r6, r6, #4
 870              	.LVL70:
 871              		.loc 1 487 0
 872 011e 2EF48061 		bic	r1, lr, #1024
 873 0122 0A04     		lsls	r2, r1, #16
 874 0124 130C     		lsrs	r3, r2, #16
 875              	.LVL71:
 876 0126 A382     		strh	r3, [r4, #20]	@ movhi
 877              		.loc 1 488 0
 878 0128 B4F804C0 		ldrh	ip, [r4, #4]
 879 012c 2CF40070 		bic	r0, ip, #512
 880 0130 0104     		lsls	r1, r0, #16
 881 0132 0A0C     		lsrs	r2, r1, #16
 882 0134 A280     		strh	r2, [r4, #4]	@ movhi
 883              		.loc 1 489 0
 884 0136 2388     		ldrh	r3, [r4, #0]
 885 0138 98B2     		uxth	r0, r3
 886 013a 40F4007E 		orr	lr, r0, #512
 887 013e A4F800E0 		strh	lr, [r4, #0]	@ movhi
 888 0142 A6E7     		b	.L34
 889              	.LVL72:
 890              	.L44:
 891              		.loc 1 518 0
 892 0144 A18A     		ldrh	r1, [r4, #20]
 893              		.loc 1 519 0
 894 0146 46F04006 		orr	r6, r6, #64
 895              	.LVL73:
 896              		.loc 1 518 0
 897 014a 4B04     		lsls	r3, r1, #17
 898              	.LVL74:
ARM GAS  /tmp/cc8nMvkt.s 			page 17


 899 014c 580C     		lsrs	r0, r3, #17
 900 014e A082     		strh	r0, [r4, #20]	@ movhi
 901              	.LVL75:
 902              	.L39:
 903              		.loc 1 524 0
 904 0150 AE60     		str	r6, [r5, #8]
 905              	.LBB54:
 906              		.loc 1 525 0
 907 0152 2023     		movs	r3, #32
 908              	.LVL76:
 909              	@ 525 "../chibios_2.4.x/os/hal/platforms/STM32/i2c_lld.c" 1
 910 0154 83F31188 		msr     BASEPRI, r3
 911              	@ 0 "" 2
 912              	.LVL77:
 913              		.thumb
 914              	.LBE54:
 915 0158 FFF7FEFF 		bl	dbg_check_lock_from_isr
 916              	.LVL78:
 917 015c E869     		ldr	r0, [r5, #28]
 918 015e 38B1     		cbz	r0, .L41
 919              	.LVL79:
 920              	.LBB55:
 921 0160 064B     		ldr	r3, .L45
 922 0162 6FF00101 		mvn	r1, #1
 923 0166 0022     		movs	r2, #0
 924 0168 8162     		str	r1, [r0, #40]
 925 016a DA61     		str	r2, [r3, #28]
 926 016c FFF7FEFF 		bl	chSchReadyI
 927              	.LVL80:
 928              	.L41:
 929              	.LBE55:
 930 0170 FFF7FEFF 		bl	dbg_check_unlock_from_isr
 931              	.LBB56:
 932 0174 0023     		movs	r3, #0
 933              	@ 525 "../chibios_2.4.x/os/hal/platforms/STM32/i2c_lld.c" 1
 934 0176 83F31188 		msr     BASEPRI, r3
 935              	@ 0 "" 2
 936              	.LVL81:
 937              		.thumb
 938 017a BAE7     		b	.L40
 939              	.L46:
 940              		.align	2
 941              	.L45:
 942 017c 00000000 		.word	.LANCHOR0
 943              	.LBE56:
 944              	.LBE57:
 945              	.LBE59:
 946              		.cfi_endproc
 947              	.LFE71:
 948              		.size	VectorC0, .-VectorC0
 949              		.section	.text.i2c_lld_init,"ax",%progbits
 950              		.align	2
 951              		.p2align 4,,15
 952              		.global	i2c_lld_init
 953              		.thumb
 954              		.thumb_func
 955              		.type	i2c_lld_init, %function
ARM GAS  /tmp/cc8nMvkt.s 			page 18


 956              	i2c_lld_init:
 957              	.LFB72:
 958              		.loc 1 630 0
 959              		.cfi_startproc
 960              		@ args = 0, pretend = 0, frame = 0
 961              		@ frame_needed = 0, uses_anonymous_args = 0
 962 0000 10B5     		push	{r4, lr}
 963              	.LCFI6:
 964              		.cfi_def_cfa_offset 8
 965              		.loc 1 633 0
 966 0002 074C     		ldr	r4, .L48
 967              		.cfi_offset 14, -4
 968              		.cfi_offset 4, -8
 969 0004 2046     		mov	r0, r4
 970 0006 FFF7FEFF 		bl	i2cObjectInit
 971              		.loc 1 636 0
 972 000a 064B     		ldr	r3, .L48+4
 973              		.loc 1 635 0
 974 000c 0649     		ldr	r1, .L48+8
 975              		.loc 1 637 0
 976 000e A3F10C02 		sub	r2, r3, #12
 977              		.loc 1 634 0
 978 0012 0020     		movs	r0, #0
 979 0014 E061     		str	r0, [r4, #28]
 980              		.loc 1 635 0
 981 0016 2163     		str	r1, [r4, #48]
 982              		.loc 1 636 0
 983 0018 A362     		str	r3, [r4, #40]
 984              		.loc 1 637 0
 985 001a E262     		str	r2, [r4, #44]
 986              		.loc 1 655 0
 987 001c 10BD     		pop	{r4, pc}
 988              	.L49:
 989 001e 00BF     		.align	2
 990              	.L48:
 991 0020 00000000 		.word	.LANCHOR0
 992 0024 48000000 		.word	_stm32_dma_streams+72
 993 0028 00540040 		.word	1073763328
 994              		.cfi_endproc
 995              	.LFE72:
 996              		.size	i2c_lld_init, .-i2c_lld_init
 997 002c AFF30080 		.section	.text.i2c_lld_start,"ax",%progbits
 998              		.align	2
 999              		.p2align 4,,15
 1000              		.global	i2c_lld_start
 1001              		.thumb
 1002              		.thumb_func
 1003              		.type	i2c_lld_start, %function
 1004              	i2c_lld_start:
 1005              	.LFB73:
 1006              		.loc 1 664 0
 1007              		.cfi_startproc
 1008              		@ args = 0, pretend = 0, frame = 0
 1009              		@ frame_needed = 0, uses_anonymous_args = 0
 1010              	.LVL82:
 1011              		.loc 1 672 0
 1012 0000 0278     		ldrb	r2, [r0, #0]	@ zero_extendqisi2
ARM GAS  /tmp/cc8nMvkt.s 			page 19


 1013              		.loc 1 667 0
 1014 0002 8A23     		movs	r3, #138
 1015              		.loc 1 672 0
 1016 0004 012A     		cmp	r2, #1
 1017              		.loc 1 664 0
 1018 0006 2DE9F041 		push	{r4, r5, r6, r7, r8, lr}
 1019              	.LCFI7:
 1020              		.cfi_def_cfa_offset 24
 1021              		.loc 1 664 0
 1022 000a 0446     		mov	r4, r0
 1023              		.cfi_offset 14, -4
 1024              		.cfi_offset 8, -8
 1025              		.cfi_offset 7, -12
 1026              		.cfi_offset 6, -16
 1027              		.cfi_offset 5, -20
 1028              		.cfi_offset 4, -24
 1029              		.loc 1 667 0
 1030 000c 4362     		str	r3, [r0, #36]
 1031              		.loc 1 665 0
 1032 000e 056B     		ldr	r5, [r0, #48]
 1033              	.LVL83:
 1034              		.loc 1 672 0
 1035 0010 00F0A180 		beq	.L76
 1036              	.L73:
 1037              		.loc 1 665 0
 1038 0014 2F46     		mov	r7, r5
 1039              		.loc 1 675 0
 1040 0016 4FF09A08 		mov	r8, #154
 1041 001a 9C46     		mov	ip, r3
 1042              	.LVL84:
 1043              	.L51:
 1044              	.LBB65:
 1045              	.LBB72:
 1046              		.loc 1 194 0
 1047 001c 6068     		ldr	r0, [r4, #4]
 1048              	.LBE72:
 1049              	.LBE65:
 1050              		.loc 1 754 0
 1051 001e E26A     		ldr	r2, [r4, #44]
 1052              		.loc 1 755 0
 1053 0020 A66A     		ldr	r6, [r4, #40]
 1054              		.loc 1 754 0
 1055 0022 1368     		ldr	r3, [r2, #0]
 1056              		.loc 1 755 0
 1057 0024 3168     		ldr	r1, [r6, #0]
 1058              	.LBB79:
 1059              	.LBB71:
 1060              		.loc 1 194 0
 1061 0026 4668     		ldr	r6, [r0, #4]
 1062              	.LBE71:
 1063              	.LBE79:
 1064              		.loc 1 758 0
 1065 0028 05F11002 		add	r2, r5, #16
 1066              		.loc 1 754 0
 1067 002c C3F80080 		str	r8, [r3, #0]
 1068              	.LBB80:
 1069              	.LBB73:
ARM GAS  /tmp/cc8nMvkt.s 			page 20


 1070              		.loc 1 195 0
 1071 0030 90F80880 		ldrb	r8, [r0, #8]	@ zero_extendqisi2
 1072              	.LBE73:
 1073              	.LBE80:
 1074              		.loc 1 755 0
 1075 0034 C1F800C0 		str	ip, [r1, #0]
 1076              		.loc 1 763 0
 1077 0038 0020     		movs	r0, #0
 1078              		.loc 1 758 0
 1079 003a 8A60     		str	r2, [r1, #8]
 1080              		.loc 1 762 0
 1081 003c 48F2000C 		movw	ip, 32768	@ movhi
 1082              		.loc 1 764 0
 1083 0040 4FF41061 		mov	r1, #2304	@ movhi
 1084              	.LBB81:
 1085              	.LBB70:
 1086              		.loc 1 197 0
 1087 0044 002E     		cmp	r6, #0
 1088              	.LBE70:
 1089              	.LBE81:
 1090              		.loc 1 759 0
 1091 0046 9A60     		str	r2, [r3, #8]
 1092              		.loc 1 762 0
 1093 0048 A5F800C0 		strh	ip, [r5, #0]	@ movhi
 1094              		.loc 1 763 0
 1095 004c 2880     		strh	r0, [r5, #0]	@ movhi
 1096              		.loc 1 764 0
 1097 004e A980     		strh	r1, [r5, #4]	@ movhi
 1098              	.LVL85:
 1099              	.LBB82:
 1100              	.LBB74:
 1101              		.loc 1 197 0
 1102 0050 52DD     		ble	.L54
 1103 0052 8B4B     		ldr	r3, .L84
 1104 0054 9E42     		cmp	r6, r3
 1105 0056 4FDC     		bgt	.L54
 1106              	.LVL86:
 1107              	.L55:
 1108              		.loc 1 201 0
 1109 0058 B7F804C0 		ldrh	ip, [r7, #4]
 1110 005c 2CF03F00 		bic	r0, ip, #63
 1111 0060 0104     		lsls	r1, r0, #16
 1112 0062 0B0C     		lsrs	r3, r1, #16
 1113 0064 BB80     		strh	r3, [r7, #4]	@ movhi
 1114              		.loc 1 202 0
 1115 0066 BA88     		ldrh	r2, [r7, #4]
 1116              		.loc 1 208 0
 1117 0068 8649     		ldr	r1, .L84+4
 1118              		.loc 1 202 0
 1119 006a 90B2     		uxth	r0, r2
 1120 006c 40F0240C 		orr	ip, r0, #36
 1121              		.loc 1 208 0
 1122 0070 8E42     		cmp	r6, r1
 1123              		.loc 1 202 0
 1124 0072 A7F804C0 		strh	ip, [r7, #4]	@ movhi
 1125              	.LVL87:
 1126              		.loc 1 208 0
ARM GAS  /tmp/cc8nMvkt.s 			page 21


 1127 0076 43DC     		bgt	.L56
 1128              		.loc 1 210 0
 1129 0078 B8F1010F 		cmp	r8, #1
 1130 007c 02D0     		beq	.L57
 1131 007e 8248     		ldr	r0, .L84+8
 1132 0080 FFF7FEFF 		bl	chDbgPanic
 1133              	.L57:
 1134              		.loc 1 215 0
 1135 0084 8148     		ldr	r0, .L84+12
 1136 0086 7600     		lsls	r6, r6, #1
 1137              	.LVL88:
 1138 0088 90FBF6F1 		sdiv	r1, r0, r6
 1139 008c 06FB01F8 		mul	r8, r6, r1
 1140              	.LVL89:
 1141 0090 7E4B     		ldr	r3, .L84+12
 1142 0092 C8EB0302 		rsb	r2, r8, r3
 1143 0096 002A     		cmp	r2, #0
 1144 0098 40F0A580 		bne	.L77
 1145              		.loc 1 218 0
 1146 009c 7B4A     		ldr	r2, .L84+12
 1147 009e 92FBF6F6 		sdiv	r6, r2, r6
 1148 00a2 B6B2     		uxth	r6, r6
 1149              	.LVL90:
 1150              		.loc 1 220 0
 1151 00a4 032E     		cmp	r6, #3
 1152 00a6 40F29480 		bls	.L78
 1153              	.LVL91:
 1154              	.L59:
 1155              		.loc 1 226 0
 1156 00aa 2521     		movs	r1, #37
 1157              		.loc 1 223 0
 1158 00ac 4FEA065C 		lsl	ip, r6, #20
 1159              		.loc 1 259 0
 1160 00b0 B6F5805F 		cmp	r6, #4096
 1161              		.loc 1 226 0
 1162 00b4 3984     		strh	r1, [r7, #32]	@ movhi
 1163              		.loc 1 223 0
 1164 00b6 4FEA1C58 		lsr	r8, ip, #20
 1165              	.LVL92:
 1166              		.loc 1 259 0
 1167 00ba 02D3     		bcc	.L60
 1168 00bc 7448     		ldr	r0, .L84+16
 1169 00be FFF7FEFF 		bl	chDbgPanic
 1170              	.LVL93:
 1171              	.L60:
 1172              	.LBE74:
 1173              	.LBE82:
 1174              	.LBB83:
 1175              	.LBB87:
 1176              		.loc 1 274 0
 1177 00c2 6268     		ldr	r2, [r4, #4]
 1178              	.LBE87:
 1179              	.LBE83:
 1180              	.LBB91:
 1181              	.LBB69:
 1182              		.loc 1 1058 0
 1183 00c4 216B     		ldr	r1, [r4, #48]
ARM GAS  /tmp/cc8nMvkt.s 			page 22


 1184              	.LVL94:
 1185              	.LBE69:
 1186              	.LBE91:
 1187              	.LBB92:
 1188              	.LBB86:
 1189              		.loc 1 278 0
 1190 00c6 1278     		ldrb	r2, [r2, #0]	@ zero_extendqisi2
 1191              	.LBE86:
 1192              	.LBE92:
 1193              	.LBB93:
 1194              	.LBB75:
 1195              		.loc 1 262 0
 1196 00c8 A7F81C80 		strh	r8, [r7, #28]	@ movhi
 1197              	.LBE75:
 1198              	.LBE93:
 1199              	.LBB94:
 1200              	.LBB88:
 1201              		.loc 1 277 0
 1202 00cc B1F800C0 		ldrh	ip, [r1, #0]
 1203              		.loc 1 278 0
 1204 00d0 022A     		cmp	r2, #2
 1205              		.loc 1 277 0
 1206 00d2 1FFA8CF3 		uxth	r3, ip
 1207              	.LVL95:
 1208              		.loc 1 278 0
 1209 00d6 2DD0     		beq	.L70
 1210              	.LVL96:
 1211              	.L79:
 1212 00d8 032A     		cmp	r2, #3
 1213 00da 70D0     		beq	.L71
 1214 00dc 012A     		cmp	r2, #1
 1215 00de 03D1     		bne	.L68
 1216              		.loc 1 280 0
 1217 00e0 23F00A00 		bic	r0, r3, #10
 1218 00e4 0304     		lsls	r3, r0, #16
 1219 00e6 1B0C     		lsrs	r3, r3, #16
 1220              	.LVL97:
 1221              	.L68:
 1222              		.loc 1 290 0
 1223 00e8 0B80     		strh	r3, [r1, #0]	@ movhi
 1224              	.LBE88:
 1225              	.LBE94:
 1226              		.loc 1 771 0
 1227 00ea 2888     		ldrh	r0, [r5, #0]
 1228 00ec 83B2     		uxth	r3, r0
 1229              	.LVL98:
 1230 00ee 43F00101 		orr	r1, r3, #1
 1231              	.LVL99:
 1232 00f2 2980     		strh	r1, [r5, #0]	@ movhi
 1233              		.loc 1 772 0
 1234 00f4 BDE8F081 		pop	{r4, r5, r6, r7, r8, pc}
 1235              	.LVL100:
 1236              	.L54:
 1237              	.LBB95:
 1238              	.LBB68:
 1239              		.loc 1 197 0
 1240 00f8 6648     		ldr	r0, .L84+20
ARM GAS  /tmp/cc8nMvkt.s 			page 23


 1241 00fa FFF7FEFF 		bl	chDbgPanic
 1242 00fe ABE7     		b	.L55
 1243              	.LVL101:
 1244              	.L56:
 1245              		.loc 1 228 0
 1246 0100 6548     		ldr	r0, .L84+24
 1247 0102 8642     		cmp	r6, r0
 1248 0104 24DC     		bgt	.L74
 1249              		.loc 1 230 0
 1250 0106 A8F10203 		sub	r3, r8, #2
 1251 010a DAB2     		uxtb	r2, r3
 1252 010c 012A     		cmp	r2, #1
 1253 010e 75D9     		bls	.L63
 1254 0110 6248     		ldr	r0, .L84+28
 1255 0112 FFF7FEFF 		bl	chDbgPanic
 1256 0116 48F6FF78 		movw	r8, #36863
 1257              	.LVL102:
 1258              	.L64:
 1259              	.LBE68:
 1260              	.LBE95:
 1261              	.LBB96:
 1262              	.LBB85:
 1263              		.loc 1 274 0
 1264 011a 6268     		ldr	r2, [r4, #4]
 1265              	.LBE85:
 1266              	.LBE96:
 1267              	.LBB97:
 1268              	.LBB76:
 1269              		.loc 1 256 0
 1270 011c 0B20     		movs	r0, #11
 1271              		.loc 1 1058 0
 1272 011e 216B     		ldr	r1, [r4, #48]
 1273              	.LVL103:
 1274              		.loc 1 256 0
 1275 0120 3884     		strh	r0, [r7, #32]	@ movhi
 1276              	.LBE76:
 1277              	.LBE97:
 1278              	.LBB98:
 1279              	.LBB89:
 1280              		.loc 1 278 0
 1281 0122 1278     		ldrb	r2, [r2, #0]	@ zero_extendqisi2
 1282              	.LBE89:
 1283              	.LBE98:
 1284              	.LBB99:
 1285              	.LBB67:
 1286              		.loc 1 262 0
 1287 0124 A7F81C80 		strh	r8, [r7, #28]	@ movhi
 1288              	.LBE67:
 1289              	.LBE99:
 1290              	.LBB100:
 1291              	.LBB84:
 1292              		.loc 1 277 0
 1293 0128 B1F800C0 		ldrh	ip, [r1, #0]
 1294              		.loc 1 278 0
 1295 012c 022A     		cmp	r2, #2
 1296              		.loc 1 277 0
 1297 012e 1FFA8CF3 		uxth	r3, ip
ARM GAS  /tmp/cc8nMvkt.s 			page 24


 1298              	.LVL104:
 1299              		.loc 1 278 0
 1300 0132 D1D1     		bne	.L79
 1301              	.LVL105:
 1302              	.L70:
 1303              		.loc 1 283 0
 1304 0134 43F00202 		orr	r2, r3, #2
 1305              	.LVL106:
 1306              		.loc 1 284 0
 1307 0138 4FF6F77C 		movw	ip, #65527
 1308 013c 02EA0C03 		and	r3, r2, ip
 1309              	.LVL107:
 1310              		.loc 1 290 0
 1311 0140 0B80     		strh	r3, [r1, #0]	@ movhi
 1312              	.LBE84:
 1313              	.LBE100:
 1314              		.loc 1 771 0
 1315 0142 2888     		ldrh	r0, [r5, #0]
 1316 0144 83B2     		uxth	r3, r0
 1317              	.LVL108:
 1318 0146 43F00101 		orr	r1, r3, #1
 1319              	.LVL109:
 1320 014a 2980     		strh	r1, [r5, #0]	@ movhi
 1321              		.loc 1 772 0
 1322 014c BDE8F081 		pop	{r4, r5, r6, r7, r8, pc}
 1323              	.LVL110:
 1324              	.L74:
 1325              	.LBB101:
 1326              	.LBB77:
 1327              		.loc 1 205 0
 1328 0150 4FF00008 		mov	r8, #0
 1329              	.LVL111:
 1330 0154 B5E7     		b	.L60
 1331              	.LVL112:
 1332              	.L76:
 1333              	.LBE77:
 1334              	.LBE101:
 1335              		.loc 1 675 0
 1336 0156 524E     		ldr	r6, .L84+32
 1337 0158 B042     		cmp	r0, r6
 1338 015a 7FF45BAF 		bne	.L73
 1339              	.LBB102:
 1340              		.loc 1 678 0
 1341 015e 514F     		ldr	r7, .L84+36
 1342 0160 4FF0000E 		mov	lr, #0
 1343 0164 3B69     		ldr	r3, [r7, #16]
 1344              		.loc 1 679 0
 1345 0166 806A     		ldr	r0, [r0, #40]
 1346              		.loc 1 678 0
 1347 0168 43F40018 		orr	r8, r3, #2097152
 1348 016c C7F81080 		str	r8, [r7, #16]
 1349              		.loc 1 679 0
 1350 0170 0A21     		movs	r1, #10
 1351 0172 4D4A     		ldr	r2, .L84+40
 1352 0174 2346     		mov	r3, r4
 1353              		.loc 1 678 0
 1354 0176 C7F810E0 		str	lr, [r7, #16]
ARM GAS  /tmp/cc8nMvkt.s 			page 25


 1355              		.loc 1 679 0
 1356 017a FFF7FEFF 		bl	dmaStreamAllocate
 1357              	.LVL113:
 1358              		.loc 1 683 0
 1359 017e 0028     		cmp	r0, #0
 1360 0180 76D1     		bne	.L80
 1361              	.LVL114:
 1362              	.L52:
 1363              		.loc 1 684 0
 1364 0182 F06A     		ldr	r0, [r6, #44]
 1365 0184 0A21     		movs	r1, #10
 1366 0186 494A     		ldr	r2, .L84+44
 1367 0188 454B     		ldr	r3, .L84+32
 1368 018a FFF7FEFF 		bl	dmaStreamAllocate
 1369              	.LVL115:
 1370              		.loc 1 688 0
 1371 018e 0028     		cmp	r0, #0
 1372 0190 6AD1     		bne	.L81
 1373              	.LVL116:
 1374              	.L53:
 1375              		.loc 1 689 0
 1376 0192 444F     		ldr	r7, .L84+36
 1377              		.loc 1 690 0
 1378 0194 1F20     		movs	r0, #31
 1379              		.loc 1 689 0
 1380 0196 FB69     		ldr	r3, [r7, #28]
 1381              		.loc 1 690 0
 1382 0198 A021     		movs	r1, #160
 1383              		.loc 1 689 0
 1384 019a 43F40012 		orr	r2, r3, #2097152
 1385 019e FA61     		str	r2, [r7, #28]
 1386              		.loc 1 690 0
 1387 01a0 FFF7FEFF 		bl	nvicEnableVector
 1388              		.loc 1 692 0
 1389 01a4 2020     		movs	r0, #32
 1390 01a6 A021     		movs	r1, #160
 1391 01a8 FFF7FEFF 		bl	nvicEnableVector
 1392              		.loc 1 695 0
 1393 01ac 706A     		ldr	r0, [r6, #36]
 1394 01ae 376B     		ldr	r7, [r6, #48]
 1395 01b0 40F4805C 		orr	ip, r0, #4096
 1396 01b4 C6F824C0 		str	ip, [r6, #36]
 1397 01b8 4CF01008 		orr	r8, ip, #16
 1398 01bc 2EE7     		b	.L51
 1399              	.LVL117:
 1400              	.L71:
 1401              	.LBE102:
 1402              	.LBB103:
 1403              	.LBB90:
 1404              		.loc 1 287 0
 1405 01be 43F00A03 		orr	r3, r3, #10
 1406              	.LVL118:
 1407              		.loc 1 290 0
 1408 01c2 0B80     		strh	r3, [r1, #0]	@ movhi
 1409              	.LBE90:
 1410              	.LBE103:
 1411              		.loc 1 771 0
ARM GAS  /tmp/cc8nMvkt.s 			page 26


 1412 01c4 2888     		ldrh	r0, [r5, #0]
 1413 01c6 83B2     		uxth	r3, r0
 1414              	.LVL119:
 1415 01c8 43F00101 		orr	r1, r3, #1
 1416              	.LVL120:
 1417 01cc 2980     		strh	r1, [r5, #0]	@ movhi
 1418              		.loc 1 772 0
 1419 01ce BDE8F081 		pop	{r4, r5, r6, r7, r8, pc}
 1420              	.LVL121:
 1421              	.L78:
 1422              	.LBB104:
 1423              	.LBB66:
 1424              		.loc 1 220 0
 1425 01d2 3748     		ldr	r0, .L84+48
 1426 01d4 FFF7FEFF 		bl	chDbgPanic
 1427              		.loc 1 223 0
 1428 01d8 4FEA0658 		lsl	r8, r6, #20
 1429              		.loc 1 226 0
 1430 01dc 2523     		movs	r3, #37
 1431              		.loc 1 223 0
 1432 01de 4FEA1858 		lsr	r8, r8, #20
 1433              	.LVL122:
 1434              		.loc 1 226 0
 1435 01e2 3B84     		strh	r3, [r7, #32]	@ movhi
 1436 01e4 6DE7     		b	.L60
 1437              	.LVL123:
 1438              	.L77:
 1439              		.loc 1 215 0
 1440 01e6 3348     		ldr	r0, .L84+52
 1441 01e8 FFF7FEFF 		bl	chDbgPanic
 1442              		.loc 1 218 0
 1443 01ec 274A     		ldr	r2, .L84+12
 1444 01ee 92FBF6F6 		sdiv	r6, r2, r6
 1445 01f2 B6B2     		uxth	r6, r6
 1446              	.LVL124:
 1447              		.loc 1 220 0
 1448 01f4 032E     		cmp	r6, #3
 1449 01f6 3FF658AF 		bhi	.L59
 1450 01fa EAE7     		b	.L78
 1451              	.LVL125:
 1452              	.L63:
 1453              		.loc 1 234 0
 1454 01fc B8F1020F 		cmp	r8, #2
 1455 0200 16D1     		bne	.L65
 1456              		.loc 1 236 0
 1457 0202 224A     		ldr	r2, .L84+12
 1458 0204 06EB4606 		add	r6, r6, r6, lsl #1
 1459              	.LVL126:
 1460 0208 92FBF6FC 		sdiv	ip, r2, r6
 1461 020c 06FB0CF8 		mul	r8, r6, ip
 1462              	.LVL127:
 1463 0210 1E48     		ldr	r0, .L84+12
 1464 0212 C8EB0001 		rsb	r1, r8, r0
 1465 0216 39B9     		cbnz	r1, .L82
 1466              	.LVL128:
 1467              	.L66:
 1468              		.loc 1 239 0
ARM GAS  /tmp/cc8nMvkt.s 			page 27


 1469 0218 1C48     		ldr	r0, .L84+12
 1470 021a 90FBF6F6 		sdiv	r6, r0, r6
 1471              	.LVL129:
 1472              		.loc 1 236 0
 1473 021e 3105     		lsls	r1, r6, #20
 1474 0220 0B0D     		lsrs	r3, r1, #20
 1475 0222 43F40048 		orr	r8, r3, #32768
 1476 0226 78E7     		b	.L64
 1477              	.LVL130:
 1478              	.L82:
 1479 0228 2348     		ldr	r0, .L84+56
 1480 022a FFF7FEFF 		bl	chDbgPanic
 1481              	.LVL131:
 1482 022e F3E7     		b	.L66
 1483              	.LVL132:
 1484              	.L65:
 1485              		.loc 1 241 0
 1486 0230 B8F1030F 		cmp	r8, #3
 1487 0234 20D1     		bne	.L75
 1488              		.loc 1 243 0
 1489 0236 06EB8606 		add	r6, r6, r6, lsl #2
 1490              	.LVL133:
 1491 023a 1449     		ldr	r1, .L84+12
 1492 023c 06EB8606 		add	r6, r6, r6, lsl #2
 1493 0240 91FBF6FC 		sdiv	ip, r1, r6
 1494 0244 06FB0CF8 		mul	r8, r6, ip
 1495              	.LVL134:
 1496 0248 104B     		ldr	r3, .L84+12
 1497              	.LVL135:
 1498 024a C8EB0302 		rsb	r2, r8, r3
 1499 024e 3AB9     		cbnz	r2, .L83
 1500              	.L67:
 1501              	.LVL136:
 1502              		.loc 1 246 0
 1503 0250 0E49     		ldr	r1, .L84+12
 1504 0252 91FBF6F3 		sdiv	r3, r1, r6
 1505              		.loc 1 243 0
 1506 0256 1A05     		lsls	r2, r3, #20
 1507 0258 100D     		lsrs	r0, r2, #20
 1508 025a 40F44048 		orr	r8, r0, #49152
 1509 025e 5CE7     		b	.L64
 1510              	.LVL137:
 1511              	.L83:
 1512 0260 1648     		ldr	r0, .L84+60
 1513 0262 FFF7FEFF 		bl	chDbgPanic
 1514 0266 F3E7     		b	.L67
 1515              	.LVL138:
 1516              	.L81:
 1517              	.LBE66:
 1518              	.LBE104:
 1519              	.LBB105:
 1520              		.loc 1 688 0 discriminator 1
 1521 0268 1548     		ldr	r0, .L84+64
 1522              	.LVL139:
 1523 026a FFF7FEFF 		bl	chDbgPanic
 1524 026e 90E7     		b	.L53
 1525              	.LVL140:
ARM GAS  /tmp/cc8nMvkt.s 			page 28


 1526              	.L80:
 1527              		.loc 1 683 0 discriminator 1
 1528 0270 1448     		ldr	r0, .L84+68
 1529              	.LVL141:
 1530 0272 FFF7FEFF 		bl	chDbgPanic
 1531 0276 84E7     		b	.L52
 1532              	.LVL142:
 1533              	.L75:
 1534              	.LBE105:
 1535              	.LBB106:
 1536              	.LBB78:
 1537              		.loc 1 241 0
 1538 0278 48F6FF78 		movw	r8, #36863
 1539              	.LVL143:
 1540 027c 4DE7     		b	.L64
 1541              	.L85:
 1542 027e 00BF     		.align	2
 1543              	.L84:
 1544 0280 00093D00 		.word	4000000
 1545 0284 A0860100 		.word	100000
 1546 0288 40000000 		.word	.LC3
 1547 028c 00512502 		.word	36000000
 1548 0290 D0000000 		.word	.LC9
 1549 0294 28000000 		.word	.LC2
 1550 0298 801A0600 		.word	400000
 1551 029c 88000000 		.word	.LC6
 1552 02a0 00000000 		.word	.LANCHOR0
 1553 02a4 00100240 		.word	1073876992
 1554 02a8 00000000 		.word	i2c_lld_serve_rx_end_irq
 1555 02ac 00000000 		.word	i2c_lld_serve_tx_end_irq
 1556 02b0 70000000 		.word	.LC5
 1557 02b4 58000000 		.word	.LC4
 1558 02b8 A0000000 		.word	.LC7
 1559 02bc B8000000 		.word	.LC8
 1560 02c0 14000000 		.word	.LC1
 1561 02c4 00000000 		.word	.LC0
 1562              	.LBE78:
 1563              	.LBE106:
 1564              		.cfi_endproc
 1565              	.LFE73:
 1566              		.size	i2c_lld_start, .-i2c_lld_start
 1567 02c8 AFF30080 		.section	.text.i2c_lld_stop,"ax",%progbits
 1567      AFF30080 
 1568              		.align	2
 1569              		.p2align 4,,15
 1570              		.global	i2c_lld_stop
 1571              		.thumb
 1572              		.thumb_func
 1573              		.type	i2c_lld_stop, %function
 1574              	i2c_lld_stop:
 1575              	.LFB74:
 1576              		.loc 1 781 0
 1577              		.cfi_startproc
 1578              		@ args = 0, pretend = 0, frame = 0
 1579              		@ frame_needed = 0, uses_anonymous_args = 0
 1580              	.LVL144:
 1581              		.loc 1 784 0
ARM GAS  /tmp/cc8nMvkt.s 			page 29


 1582 0000 0378     		ldrb	r3, [r0, #0]	@ zero_extendqisi2
 1583              		.loc 1 781 0
 1584 0002 10B5     		push	{r4, lr}
 1585              	.LCFI8:
 1586              		.cfi_def_cfa_offset 8
 1587              		.loc 1 784 0
 1588 0004 012B     		cmp	r3, #1
 1589              		.loc 1 781 0
 1590 0006 0446     		mov	r4, r0
 1591              		.cfi_offset 14, -4
 1592              		.cfi_offset 4, -8
 1593              		.loc 1 784 0
 1594 0008 0AD0     		beq	.L86
 1595              		.loc 1 787 0
 1596 000a FFF7FEFF 		bl	i2c_lld_abort_operation
 1597              	.LVL145:
 1598              		.loc 1 788 0
 1599 000e E06A     		ldr	r0, [r4, #44]
 1600 0010 FFF7FEFF 		bl	dmaStreamRelease
 1601              		.loc 1 789 0
 1602 0014 A06A     		ldr	r0, [r4, #40]
 1603 0016 FFF7FEFF 		bl	dmaStreamRelease
 1604              		.loc 1 792 0
 1605 001a 0848     		ldr	r0, .L89
 1606 001c 8442     		cmp	r4, r0
 1607 001e 00D0     		beq	.L88
 1608              	.L86:
 1609 0020 10BD     		pop	{r4, pc}
 1610              	.L88:
 1611              		.loc 1 793 0
 1612 0022 1F20     		movs	r0, #31
 1613 0024 FFF7FEFF 		bl	nvicDisableVector
 1614              		.loc 1 794 0
 1615 0028 2020     		movs	r0, #32
 1616 002a FFF7FEFF 		bl	nvicDisableVector
 1617              		.loc 1 795 0
 1618 002e 0449     		ldr	r1, .L89+4
 1619 0030 CB69     		ldr	r3, [r1, #28]
 1620 0032 23F40012 		bic	r2, r3, #2097152
 1621 0036 CA61     		str	r2, [r1, #28]
 1622 0038 F2E7     		b	.L86
 1623              	.L90:
 1624 003a 00BF     		.align	2
 1625              	.L89:
 1626 003c 00000000 		.word	.LANCHOR0
 1627 0040 00100240 		.word	1073876992
 1628              		.cfi_endproc
 1629              	.LFE74:
 1630              		.size	i2c_lld_stop, .-i2c_lld_stop
 1631 0044 AFF30080 		.section	.text.i2c_lld_master_receive_timeout,"ax",%progbits
 1631      AFF30080 
 1631      AFF30080 
 1632              		.align	2
 1633              		.p2align 4,,15
 1634              		.global	i2c_lld_master_receive_timeout
 1635              		.thumb
 1636              		.thumb_func
ARM GAS  /tmp/cc8nMvkt.s 			page 30


 1637              		.type	i2c_lld_master_receive_timeout, %function
 1638              	i2c_lld_master_receive_timeout:
 1639              	.LFB75:
 1640              		.loc 1 842 0
 1641              		.cfi_startproc
 1642              		@ args = 4, pretend = 0, frame = 24
 1643              		@ frame_needed = 0, uses_anonymous_args = 0
 1644              	.LVL146:
 1645 0000 2DE9F043 		push	{r4, r5, r6, r7, r8, r9, lr}
 1646              	.LCFI9:
 1647              		.cfi_def_cfa_offset 28
 1648              		.loc 1 847 0
 1649 0004 012B     		cmp	r3, #1
 1650              		.loc 1 842 0
 1651 0006 87B0     		sub	sp, sp, #28
 1652              	.LCFI10:
 1653              		.cfi_def_cfa_offset 56
 1654              		.loc 1 842 0
 1655 0008 0646     		mov	r6, r0
 1656              		.cfi_offset 14, -4
 1657              		.cfi_offset 9, -8
 1658              		.cfi_offset 8, -12
 1659              		.cfi_offset 7, -16
 1660              		.cfi_offset 6, -20
 1661              		.cfi_offset 5, -24
 1662              		.cfi_offset 4, -28
 1663 000a 1F46     		mov	r7, r3
 1664 000c 8846     		mov	r8, r1
 1665 000e 9146     		mov	r9, r2
 1666 0010 0E9D     		ldr	r5, [sp, #56]
 1667              		.loc 1 843 0
 1668 0012 046B     		ldr	r4, [r0, #48]
 1669              	.LVL147:
 1670              		.loc 1 847 0
 1671 0014 73D9     		bls	.L105
 1672              	.LVL148:
 1673              	.L92:
 1674              		.loc 1 851 0
 1675 0016 B5F1FF3F 		cmp	r5, #-1
 1676 001a 05D0     		beq	.L93
 1677              		.loc 1 852 0
 1678 001c 01A8     		add	r0, sp, #4
 1679 001e 2946     		mov	r1, r5
 1680 0020 394A     		ldr	r2, .L108
 1681 0022 3346     		mov	r3, r6
 1682 0024 FFF7FEFF 		bl	chVTSetI
 1683              	.L93:
 1684              		.loc 1 855 0
 1685 0028 FFF7FEFF 		bl	dbg_check_unlock
 1686              	.LBB107:
 1687 002c 0023     		movs	r3, #0
 1688              	.LVL149:
 1689              	@ 855 "../chibios_2.4.x/os/hal/platforms/STM32/i2c_lld.c" 1
 1690 002e 83F31188 		msr     BASEPRI, r3
 1691              	@ 0 "" 2
 1692              	.LVL150:
 1693              		.thumb
ARM GAS  /tmp/cc8nMvkt.s 			page 31


 1694              	.LBE107:
 1695              		.loc 1 862 0
 1696 0032 B06A     		ldr	r0, [r6, #40]
 1697              		.loc 1 858 0
 1698 0034 4FEA4808 		lsl	r8, r8, #1
 1699              		.loc 1 862 0
 1700 0038 0268     		ldr	r2, [r0, #0]
 1701              		.loc 1 858 0
 1702 003a 48F00108 		orr	r8, r8, #1
 1703 003e A6F82080 		strh	r8, [r6, #32]	@ movhi
 1704              		.loc 1 859 0
 1705 0042 B360     		str	r3, [r6, #8]
 1706              	.LVL151:
 1707              		.loc 1 862 0
 1708 0044 C2F80C90 		str	r9, [r2, #12]
 1709              		.loc 1 863 0
 1710 0048 5760     		str	r7, [r2, #4]
 1711              		.loc 1 867 0
 1712 004a 04E0     		b	.L94
 1713              	.LVL152:
 1714              	.L95:
 1715              		.loc 1 871 0
 1716 004c FFF7FEFF 		bl	dbg_check_unlock
 1717              	.LBB108:
 1718 0050 0023     		movs	r3, #0
 1719              	.LVL153:
 1720              	@ 871 "../chibios_2.4.x/os/hal/platforms/STM32/i2c_lld.c" 1
 1721 0052 83F31188 		msr     BASEPRI, r3
 1722              	@ 0 "" 2
 1723              	.LVL154:
 1724              		.thumb
 1725              	.L94:
 1726              	.LBE108:
 1727              		.loc 1 867 0 discriminator 1
 1728 0056 218B     		ldrh	r1, [r4, #24]
 1729              	.LBB109:
 1730              		.loc 1 868 0 discriminator 1
 1731 0058 2023     		movs	r3, #32
 1732              	.LVL155:
 1733              	.LBE109:
 1734              		.loc 1 867 0 discriminator 1
 1735 005a 11F0020F 		tst	r1, #2
 1736 005e 03D1     		bne	.L97
 1737              		.loc 1 867 0 is_stmt 0 discriminator 2
 1738 0060 2788     		ldrh	r7, [r4, #0]
 1739 0062 17F40077 		ands	r7, r7, #512
 1740 0066 0CD0     		beq	.L106
 1741              	.L97:
 1742              	.LBB110:
 1743              		.loc 1 868 0 is_stmt 1
 1744              	@ 868 "../chibios_2.4.x/os/hal/platforms/STM32/i2c_lld.c" 1
 1745 0068 83F31188 		msr     BASEPRI, r3
 1746              	@ 0 "" 2
 1747              	.LVL156:
 1748              		.thumb
 1749              	.LBE110:
 1750 006c FFF7FEFF 		bl	dbg_check_lock
ARM GAS  /tmp/cc8nMvkt.s 			page 32


 1751              	.LVL157:
 1752              		.loc 1 869 0
 1753 0070 B5F1FF3F 		cmp	r5, #-1
 1754 0074 EAD0     		beq	.L95
 1755              		.loc 1 869 0 is_stmt 0 discriminator 1
 1756 0076 049B     		ldr	r3, [sp, #16]
 1757 0078 002B     		cmp	r3, #0
 1758 007a E7D1     		bne	.L95
 1759              	.L103:
 1760              		.loc 1 880 0 is_stmt 1
 1761 007c 4FF0FF30 		mov	r0, #-1
 1762 0080 1CE0     		b	.L96
 1763              	.L106:
 1764              	.LBB111:
 1765              		.loc 1 875 0
 1766              	@ 875 "../chibios_2.4.x/os/hal/platforms/STM32/i2c_lld.c" 1
 1767 0082 83F31188 		msr     BASEPRI, r3
 1768              	@ 0 "" 2
 1769              	.LVL158:
 1770              		.thumb
 1771              	.LBE111:
 1772 0086 FFF7FEFF 		bl	dbg_check_lock
 1773              	.LVL159:
 1774              		.loc 1 879 0
 1775 008a B5F1FF3F 		cmp	r5, #-1
 1776 008e 18D1     		bne	.L107
 1777              		.loc 1 883 0
 1778 0090 86F83470 		strb	r7, [r6, #52]
 1779              		.loc 1 886 0
 1780 0094 A388     		ldrh	r3, [r4, #4]
 1781              		.loc 1 890 0
 1782 0096 1D4D     		ldr	r5, .L108+4
 1783              		.loc 1 886 0
 1784 0098 9AB2     		uxth	r2, r3
 1785 009a 42F40071 		orr	r1, r2, #512
 1786 009e A180     		strh	r1, [r4, #4]	@ movhi
 1787              		.loc 1 887 0
 1788 00a0 2088     		ldrh	r0, [r4, #0]
 1789              		.loc 1 890 0
 1790 00a2 EB69     		ldr	r3, [r5, #28]
 1791              		.loc 1 887 0
 1792 00a4 1FFA80FE 		uxth	lr, r0
 1793 00a8 4EF4A06C 		orr	ip, lr, #1280
 1794 00ac A4F800C0 		strh	ip, [r4, #0]	@ movhi
 1795              		.loc 1 891 0
 1796 00b0 0220     		movs	r0, #2
 1797              		.loc 1 890 0
 1798 00b2 F361     		str	r3, [r6, #28]
 1799              		.loc 1 891 0
 1800 00b4 FFF7FEFF 		bl	chSchGoSleepS
 1801              	.L100:
 1802              		.loc 1 895 0
 1803 00b8 E869     		ldr	r0, [r5, #28]
 1804 00ba 806A     		ldr	r0, [r0, #40]
 1805              	.L96:
 1806              		.loc 1 896 0
 1807 00bc 07B0     		add	sp, sp, #28
ARM GAS  /tmp/cc8nMvkt.s 			page 33


 1808 00be BDE8F083 		pop	{r4, r5, r6, r7, r8, r9, pc}
 1809              	.L107:
 1810              		.loc 1 879 0 discriminator 1
 1811 00c2 049A     		ldr	r2, [sp, #16]
 1812 00c4 002A     		cmp	r2, #0
 1813 00c6 D9D0     		beq	.L103
 1814              		.loc 1 883 0
 1815 00c8 86F83470 		strb	r7, [r6, #52]
 1816              		.loc 1 886 0
 1817 00cc A388     		ldrh	r3, [r4, #4]
 1818              		.loc 1 890 0
 1819 00ce 0F4D     		ldr	r5, .L108+4
 1820              		.loc 1 886 0
 1821 00d0 99B2     		uxth	r1, r3
 1822 00d2 41F40070 		orr	r0, r1, #512
 1823 00d6 A080     		strh	r0, [r4, #4]	@ movhi
 1824              		.loc 1 887 0
 1825 00d8 2288     		ldrh	r2, [r4, #0]
 1826              		.loc 1 890 0
 1827 00da EB69     		ldr	r3, [r5, #28]
 1828              		.loc 1 887 0
 1829 00dc 1FFA82FE 		uxth	lr, r2
 1830 00e0 4EF4A06C 		orr	ip, lr, #1280
 1831 00e4 A4F800C0 		strh	ip, [r4, #0]	@ movhi
 1832              		.loc 1 891 0
 1833 00e8 0220     		movs	r0, #2
 1834              		.loc 1 890 0
 1835 00ea F361     		str	r3, [r6, #28]
 1836              		.loc 1 891 0
 1837 00ec FFF7FEFF 		bl	chSchGoSleepS
 1838              		.loc 1 892 0
 1839 00f0 0499     		ldr	r1, [sp, #16]
 1840 00f2 0029     		cmp	r1, #0
 1841 00f4 E0D0     		beq	.L100
 1842              		.loc 1 893 0
 1843 00f6 01A8     		add	r0, sp, #4
 1844 00f8 FFF7FEFF 		bl	chVTResetI
 1845 00fc DCE7     		b	.L100
 1846              	.LVL160:
 1847              	.L105:
 1848              		.loc 1 847 0 discriminator 1
 1849 00fe 0448     		ldr	r0, .L108+8
 1850 0100 FFF7FEFF 		bl	chDbgPanic
 1851              	.LVL161:
 1852 0104 87E7     		b	.L92
 1853              	.L109:
 1854 0106 00BF     		.align	2
 1855              	.L108:
 1856 0108 00000000 		.word	i2c_lld_safety_timeout
 1857 010c 00000000 		.word	rlist
 1858 0110 E8000000 		.word	.LC10
 1859              		.cfi_endproc
 1860              	.LFE75:
 1861              		.size	i2c_lld_master_receive_timeout, .-i2c_lld_master_receive_timeout
 1862 0114 AFF30080 		.section	.text.i2c_lld_master_transmit_timeout,"ax",%progbits
 1862      AFF30080 
 1862      AFF30080 
ARM GAS  /tmp/cc8nMvkt.s 			page 34


 1863              		.align	2
 1864              		.p2align 4,,15
 1865              		.global	i2c_lld_master_transmit_timeout
 1866              		.thumb
 1867              		.thumb_func
 1868              		.type	i2c_lld_master_transmit_timeout, %function
 1869              	i2c_lld_master_transmit_timeout:
 1870              	.LFB76:
 1871              		.loc 1 926 0
 1872              		.cfi_startproc
 1873              		@ args = 12, pretend = 0, frame = 24
 1874              		@ frame_needed = 0, uses_anonymous_args = 0
 1875              	.LVL162:
 1876 0000 2DE9F04F 		push	{r4, r5, r6, r7, r8, r9, sl, fp, lr}
 1877              	.LCFI11:
 1878              		.cfi_def_cfa_offset 36
 1879 0004 87B0     		sub	sp, sp, #28
 1880              	.LCFI12:
 1881              		.cfi_def_cfa_offset 64
 1882              		.loc 1 926 0
 1883 0006 119F     		ldr	r7, [sp, #68]
 1884              		.cfi_offset 14, -4
 1885              		.cfi_offset 11, -8
 1886              		.cfi_offset 10, -12
 1887              		.cfi_offset 9, -16
 1888              		.cfi_offset 8, -20
 1889              		.cfi_offset 7, -24
 1890              		.cfi_offset 6, -28
 1891              		.cfi_offset 5, -32
 1892              		.cfi_offset 4, -36
 1893 0008 0646     		mov	r6, r0
 1894 000a 8846     		mov	r8, r1
 1895 000c 9146     		mov	r9, r2
 1896 000e 9A46     		mov	sl, r3
 1897 0010 DDF840B0 		ldr	fp, [sp, #64]
 1898 0014 129D     		ldr	r5, [sp, #72]
 1899              		.loc 1 927 0
 1900 0016 046B     		ldr	r4, [r0, #48]
 1901              	.LVL163:
 1902              		.loc 1 931 0
 1903 0018 27B1     		cbz	r7, .L111
 1904              		.loc 1 931 0 is_stmt 0 discriminator 1
 1905 001a 012F     		cmp	r7, #1
 1906 001c 5DD9     		bls	.L112
 1907              		.loc 1 931 0 discriminator 3
 1908 001e BBF1000F 		cmp	fp, #0
 1909 0022 5AD0     		beq	.L112
 1910              	.LVL164:
 1911              	.L111:
 1912              		.loc 1 936 0 is_stmt 1
 1913 0024 B5F1FF3F 		cmp	r5, #-1
 1914 0028 05D0     		beq	.L113
 1915              		.loc 1 937 0
 1916 002a 01A8     		add	r0, sp, #4
 1917 002c 2946     		mov	r1, r5
 1918 002e 3C4A     		ldr	r2, .L127
 1919 0030 3346     		mov	r3, r6
ARM GAS  /tmp/cc8nMvkt.s 			page 35


 1920 0032 FFF7FEFF 		bl	chVTSetI
 1921              	.L113:
 1922              		.loc 1 940 0
 1923 0036 FFF7FEFF 		bl	dbg_check_unlock
 1924              	.LBB112:
 1925 003a 0023     		movs	r3, #0
 1926              	.LVL165:
 1927              	@ 940 "../chibios_2.4.x/os/hal/platforms/STM32/i2c_lld.c" 1
 1928 003c 83F31188 		msr     BASEPRI, r3
 1929              	@ 0 "" 2
 1930              	.LVL166:
 1931              		.thumb
 1932              	.LBE112:
 1933              		.loc 1 947 0
 1934 0040 F26A     		ldr	r2, [r6, #44]
 1935              		.loc 1 951 0
 1936 0042 B06A     		ldr	r0, [r6, #40]
 1937              		.loc 1 947 0
 1938 0044 1168     		ldr	r1, [r2, #0]
 1939              		.loc 1 951 0
 1940 0046 0268     		ldr	r2, [r0, #0]
 1941              		.loc 1 943 0
 1942 0048 4FEA4808 		lsl	r8, r8, #1
 1943 004c A6F82080 		strh	r8, [r6, #32]	@ movhi
 1944              		.loc 1 944 0
 1945 0050 B360     		str	r3, [r6, #8]
 1946              	.LVL167:
 1947              		.loc 1 947 0
 1948 0052 C1F80C90 		str	r9, [r1, #12]
 1949              		.loc 1 948 0
 1950 0056 C1F804A0 		str	sl, [r1, #4]
 1951              		.loc 1 951 0
 1952 005a C2F80CB0 		str	fp, [r2, #12]
 1953              		.loc 1 952 0
 1954 005e 5760     		str	r7, [r2, #4]
 1955              		.loc 1 956 0
 1956 0060 04E0     		b	.L114
 1957              	.L115:
 1958              		.loc 1 960 0
 1959 0062 FFF7FEFF 		bl	dbg_check_unlock
 1960              	.LBB113:
 1961 0066 0023     		movs	r3, #0
 1962              	.LVL168:
 1963              	@ 960 "../chibios_2.4.x/os/hal/platforms/STM32/i2c_lld.c" 1
 1964 0068 83F31188 		msr     BASEPRI, r3
 1965              	@ 0 "" 2
 1966              	.LVL169:
 1967              		.thumb
 1968              	.L114:
 1969              	.LBE113:
 1970              		.loc 1 956 0 discriminator 1
 1971 006c B4F818C0 		ldrh	ip, [r4, #24]
 1972              	.LBB114:
 1973              		.loc 1 957 0 discriminator 1
 1974 0070 2023     		movs	r3, #32
 1975              	.LVL170:
 1976              	.LBE114:
ARM GAS  /tmp/cc8nMvkt.s 			page 36


 1977              		.loc 1 956 0 discriminator 1
 1978 0072 1CF0020F 		tst	ip, #2
 1979 0076 03D1     		bne	.L117
 1980              		.loc 1 956 0 is_stmt 0 discriminator 2
 1981 0078 2788     		ldrh	r7, [r4, #0]
 1982 007a 17F40077 		ands	r7, r7, #512
 1983 007e 0CD0     		beq	.L125
 1984              	.L117:
 1985              	.LBB115:
 1986              		.loc 1 957 0 is_stmt 1
 1987              	@ 957 "../chibios_2.4.x/os/hal/platforms/STM32/i2c_lld.c" 1
 1988 0080 83F31188 		msr     BASEPRI, r3
 1989              	@ 0 "" 2
 1990              	.LVL171:
 1991              		.thumb
 1992              	.LBE115:
 1993 0084 FFF7FEFF 		bl	dbg_check_lock
 1994              	.LVL172:
 1995              		.loc 1 958 0
 1996 0088 B5F1FF3F 		cmp	r5, #-1
 1997 008c E9D0     		beq	.L115
 1998              		.loc 1 958 0 is_stmt 0 discriminator 1
 1999 008e 049B     		ldr	r3, [sp, #16]
 2000 0090 002B     		cmp	r3, #0
 2001 0092 E6D1     		bne	.L115
 2002              	.L123:
 2003              		.loc 1 969 0 is_stmt 1
 2004 0094 4FF0FF30 		mov	r0, #-1
 2005 0098 1CE0     		b	.L116
 2006              	.L125:
 2007              	.LBB116:
 2008              		.loc 1 964 0
 2009              	@ 964 "../chibios_2.4.x/os/hal/platforms/STM32/i2c_lld.c" 1
 2010 009a 83F31188 		msr     BASEPRI, r3
 2011              	@ 0 "" 2
 2012              	.LVL173:
 2013              		.thumb
 2014              	.LBE116:
 2015 009e FFF7FEFF 		bl	dbg_check_lock
 2016              	.LVL174:
 2017              		.loc 1 968 0
 2018 00a2 B5F1FF3F 		cmp	r5, #-1
 2019 00a6 1CD1     		bne	.L126
 2020              		.loc 1 972 0
 2021 00a8 86F83470 		strb	r7, [r6, #52]
 2022              		.loc 1 975 0
 2023 00ac A388     		ldrh	r3, [r4, #4]
 2024              		.loc 1 979 0
 2025 00ae 1D4D     		ldr	r5, .L127+4
 2026              		.loc 1 975 0
 2027 00b0 99B2     		uxth	r1, r3
 2028 00b2 41F4007C 		orr	ip, r1, #512
 2029 00b6 A4F804C0 		strh	ip, [r4, #4]	@ movhi
 2030              		.loc 1 976 0
 2031 00ba 2288     		ldrh	r2, [r4, #0]
 2032              		.loc 1 979 0
 2033 00bc EB69     		ldr	r3, [r5, #28]
ARM GAS  /tmp/cc8nMvkt.s 			page 37


 2034              		.loc 1 976 0
 2035 00be 90B2     		uxth	r0, r2
 2036 00c0 40F4807E 		orr	lr, r0, #256
 2037 00c4 A4F800E0 		strh	lr, [r4, #0]	@ movhi
 2038              		.loc 1 980 0
 2039 00c8 0220     		movs	r0, #2
 2040              		.loc 1 979 0
 2041 00ca F361     		str	r3, [r6, #28]
 2042              		.loc 1 980 0
 2043 00cc FFF7FEFF 		bl	chSchGoSleepS
 2044              	.L120:
 2045              		.loc 1 984 0
 2046 00d0 E869     		ldr	r0, [r5, #28]
 2047 00d2 806A     		ldr	r0, [r0, #40]
 2048              	.L116:
 2049              		.loc 1 985 0
 2050 00d4 07B0     		add	sp, sp, #28
 2051 00d6 BDE8F08F 		pop	{r4, r5, r6, r7, r8, r9, sl, fp, pc}
 2052              	.LVL175:
 2053              	.L112:
 2054              		.loc 1 931 0 discriminator 2
 2055 00da 1348     		ldr	r0, .L127+8
 2056 00dc FFF7FEFF 		bl	chDbgPanic
 2057              	.LVL176:
 2058 00e0 A0E7     		b	.L111
 2059              	.L126:
 2060              		.loc 1 968 0 discriminator 1
 2061 00e2 0499     		ldr	r1, [sp, #16]
 2062 00e4 0029     		cmp	r1, #0
 2063 00e6 D5D0     		beq	.L123
 2064              		.loc 1 972 0
 2065 00e8 86F83470 		strb	r7, [r6, #52]
 2066              		.loc 1 975 0
 2067 00ec A188     		ldrh	r1, [r4, #4]
 2068              		.loc 1 979 0
 2069 00ee 0D4D     		ldr	r5, .L127+4
 2070              		.loc 1 975 0
 2071 00f0 8AB2     		uxth	r2, r1
 2072 00f2 42F40070 		orr	r0, r2, #512
 2073 00f6 A080     		strh	r0, [r4, #4]	@ movhi
 2074              		.loc 1 976 0
 2075 00f8 2388     		ldrh	r3, [r4, #0]
 2076              		.loc 1 979 0
 2077 00fa E969     		ldr	r1, [r5, #28]
 2078              		.loc 1 976 0
 2079 00fc 1FFA83FC 		uxth	ip, r3
 2080 0100 4CF4807E 		orr	lr, ip, #256
 2081 0104 A4F800E0 		strh	lr, [r4, #0]	@ movhi
 2082              		.loc 1 980 0
 2083 0108 0220     		movs	r0, #2
 2084              		.loc 1 979 0
 2085 010a F161     		str	r1, [r6, #28]
 2086              		.loc 1 980 0
 2087 010c FFF7FEFF 		bl	chSchGoSleepS
 2088              		.loc 1 981 0
 2089 0110 049A     		ldr	r2, [sp, #16]
 2090 0112 002A     		cmp	r2, #0
ARM GAS  /tmp/cc8nMvkt.s 			page 38


 2091 0114 DCD0     		beq	.L120
 2092              		.loc 1 982 0
 2093 0116 01A8     		add	r0, sp, #4
 2094 0118 FFF7FEFF 		bl	chVTResetI
 2095 011c D8E7     		b	.L120
 2096              	.L128:
 2097 011e 00BF     		.align	2
 2098              	.L127:
 2099 0120 00000000 		.word	i2c_lld_safety_timeout
 2100 0124 00000000 		.word	rlist
 2101 0128 0C010000 		.word	.LC11
 2102              		.cfi_endproc
 2103              	.LFE76:
 2104              		.size	i2c_lld_master_transmit_timeout, .-i2c_lld_master_transmit_timeout
 2105 012c AFF30080 		.section	.text.i2c_lld_slave_io_timeout,"ax",%progbits
 2106              		.align	2
 2107              		.p2align 4,,15
 2108              		.global	i2c_lld_slave_io_timeout
 2109              		.thumb
 2110              		.thumb_func
 2111              		.type	i2c_lld_slave_io_timeout, %function
 2112              	i2c_lld_slave_io_timeout:
 2113              	.LFB77:
 2114              		.loc 1 995 0
 2115              		.cfi_startproc
 2116              		@ args = 20, pretend = 0, frame = 24
 2117              		@ frame_needed = 0, uses_anonymous_args = 0
 2118              	.LVL177:
 2119 0000 2DE9F04F 		push	{r4, r5, r6, r7, r8, r9, sl, fp, lr}
 2120              	.LCFI13:
 2121              		.cfi_def_cfa_offset 36
 2122              		.loc 1 1000 0
 2123 0004 464F     		ldr	r7, .L143
 2124              		.cfi_offset 14, -4
 2125              		.cfi_offset 11, -8
 2126              		.cfi_offset 10, -12
 2127              		.cfi_offset 9, -16
 2128              		.cfi_offset 8, -20
 2129              		.cfi_offset 7, -24
 2130              		.cfi_offset 6, -28
 2131              		.cfi_offset 5, -32
 2132              		.cfi_offset 4, -36
 2133              		.loc 1 995 0
 2134 0006 87B0     		sub	sp, sp, #28
 2135              	.LCFI14:
 2136              		.cfi_def_cfa_offset 64
 2137              		.loc 1 995 0
 2138 0008 149D     		ldr	r5, [sp, #80]
 2139              		.loc 1 1000 0
 2140 000a FC69     		ldr	r4, [r7, #28]
 2141              		.loc 1 1001 0
 2142 000c B5F1FF3F 		cmp	r5, #-1
 2143              		.loc 1 1000 0
 2144 0010 C461     		str	r4, [r0, #28]
 2145              		.loc 1 995 0
 2146 0012 0646     		mov	r6, r0
 2147 0014 8846     		mov	r8, r1
ARM GAS  /tmp/cc8nMvkt.s 			page 39


 2148 0016 9146     		mov	r9, r2
 2149 0018 9A46     		mov	sl, r3
 2150              		.loc 1 996 0
 2151 001a 046B     		ldr	r4, [r0, #48]
 2152              	.LVL178:
 2153              		.loc 1 1001 0
 2154 001c 05D0     		beq	.L130
 2155              	.LVL179:
 2156              		.loc 1 1002 0
 2157 001e 01A8     		add	r0, sp, #4
 2158              	.LVL180:
 2159 0020 2946     		mov	r1, r5
 2160              	.LVL181:
 2161 0022 404A     		ldr	r2, .L143+4
 2162              	.LVL182:
 2163 0024 3346     		mov	r3, r6
 2164              	.LVL183:
 2165 0026 FFF7FEFF 		bl	chVTSetI
 2166              	.LVL184:
 2167              	.L130:
 2168              		.loc 1 1006 0
 2169 002a FFF7FEFF 		bl	dbg_check_unlock
 2170              	.LBB117:
 2171 002e 0023     		movs	r3, #0
 2172              	.LVL185:
 2173              	@ 1006 "../chibios_2.4.x/os/hal/platforms/STM32/i2c_lld.c" 1
 2174 0030 83F31188 		msr     BASEPRI, r3
 2175              	@ 0 "" 2
 2176              	.LVL186:
 2177              		.thumb
 2178              	.LBE117:
 2179              		.loc 1 1007 0
 2180 0034 04E0     		b	.L131
 2181              	.LVL187:
 2182              	.L132:
 2183              		.loc 1 1012 0
 2184 0036 FFF7FEFF 		bl	dbg_check_unlock
 2185              	.LBB118:
 2186 003a 0023     		movs	r3, #0
 2187              	.LVL188:
 2188              	@ 1012 "../chibios_2.4.x/os/hal/platforms/STM32/i2c_lld.c" 1
 2189 003c 83F31188 		msr     BASEPRI, r3
 2190              	@ 0 "" 2
 2191              	.LVL189:
 2192              		.thumb
 2193              	.L131:
 2194              	.LBE118:
 2195              		.loc 1 1007 0 discriminator 1
 2196 0040 228B     		ldrh	r2, [r4, #24]
 2197              	.LBB119:
 2198              		.loc 1 1009 0 discriminator 1
 2199 0042 2023     		movs	r3, #32
 2200              	.LVL190:
 2201              	.LBE119:
 2202              		.loc 1 1007 0 discriminator 1
 2203 0044 12F0020F 		tst	r2, #2
 2204 0048 03D1     		bne	.L134
ARM GAS  /tmp/cc8nMvkt.s 			page 40


 2205              		.loc 1 1007 0 is_stmt 0 discriminator 2
 2206 004a 2088     		ldrh	r0, [r4, #0]
 2207 004c 10F4007F 		tst	r0, #512
 2208 0050 0ED0     		beq	.L141
 2209              	.L134:
 2210              	.LBB120:
 2211              		.loc 1 1009 0 is_stmt 1
 2212              	@ 1009 "../chibios_2.4.x/os/hal/platforms/STM32/i2c_lld.c" 1
 2213 0052 83F31188 		msr     BASEPRI, r3
 2214              	@ 0 "" 2
 2215              	.LVL191:
 2216              		.thumb
 2217              	.LBE120:
 2218 0056 FFF7FEFF 		bl	dbg_check_lock
 2219              	.LVL192:
 2220              		.loc 1 1010 0
 2221 005a B5F1FF3F 		cmp	r5, #-1
 2222 005e EAD0     		beq	.L132
 2223              		.loc 1 1010 0 is_stmt 0 discriminator 1
 2224 0060 049B     		ldr	r3, [sp, #16]
 2225 0062 002B     		cmp	r3, #0
 2226 0064 E7D1     		bne	.L132
 2227              		.loc 1 1021 0 is_stmt 1
 2228 0066 4FF0FF30 		mov	r0, #-1
 2229              	.L133:
 2230              		.loc 1 1058 0
 2231 006a 07B0     		add	sp, sp, #28
 2232 006c BDE8F08F 		pop	{r4, r5, r6, r7, r8, r9, sl, fp, pc}
 2233              	.L141:
 2234              	.LBB121:
 2235              		.loc 1 1016 0
 2236              	@ 1016 "../chibios_2.4.x/os/hal/platforms/STM32/i2c_lld.c" 1
 2237 0070 83F31188 		msr     BASEPRI, r3
 2238              	@ 0 "" 2
 2239              	.LVL193:
 2240              		.thumb
 2241              	.LBE121:
 2242 0074 FFF7FEFF 		bl	dbg_check_lock
 2243              	.LVL194:
 2244              		.loc 1 1020 0
 2245 0078 B5F1FF3F 		cmp	r5, #-1
 2246 007c 49D1     		bne	.L142
 2247              	.L135:
 2248              		.loc 1 1037 0
 2249 007e 0120     		movs	r0, #1
 2250 0080 86F83400 		strb	r0, [r6, #52]
 2251              		.loc 1 1040 0
 2252 0084 B4F800C0 		ldrh	ip, [r4, #0]
 2253              		.loc 1 1030 0
 2254 0088 129B     		ldr	r3, [sp, #72]
 2255              		.loc 1 1040 0
 2256 008a 2CF48072 		bic	r2, ip, #256
 2257              		.loc 1 1030 0
 2258 008e 7364     		str	r3, [r6, #68]
 2259              		.loc 1 1040 0
 2260 0090 1104     		lsls	r1, r2, #16
 2261              		.loc 1 1032 0
ARM GAS  /tmp/cc8nMvkt.s 			page 41


 2262 0092 1098     		ldr	r0, [sp, #64]
 2263              		.loc 1 1033 0
 2264 0094 119A     		ldr	r2, [sp, #68]
 2265              		.loc 1 1035 0
 2266 0096 139B     		ldr	r3, [sp, #76]
 2267              		.loc 1 1025 0
 2268 0098 4FF0000B 		mov	fp, #0
 2269              		.loc 1 1040 0
 2270 009c 090C     		lsrs	r1, r1, #16
 2271              		.loc 1 1024 0
 2272 009e 4FEA4808 		lsl	r8, r8, #1
 2273 00a2 A6F82080 		strh	r8, [r6, #32]	@ movhi
 2274              		.loc 1 1032 0
 2275 00a6 B064     		str	r0, [r6, #72]
 2276              		.loc 1 1033 0
 2277 00a8 F264     		str	r2, [r6, #76]
 2278              		.loc 1 1035 0
 2279 00aa 7365     		str	r3, [r6, #84]
 2280              		.loc 1 1025 0
 2281 00ac C6F808B0 		str	fp, [r6, #8]
 2282              		.loc 1 1027 0
 2283 00b0 C6F83890 		str	r9, [r6, #56]
 2284              		.loc 1 1028 0
 2285 00b4 C6F83CA0 		str	sl, [r6, #60]
 2286              		.loc 1 1029 0
 2287 00b8 C6F840B0 		str	fp, [r6, #64]
 2288              		.loc 1 1034 0
 2289 00bc C6F850B0 		str	fp, [r6, #80]
 2290              		.loc 1 1040 0
 2291 00c0 2180     		strh	r1, [r4, #0]	@ movhi
 2292              		.loc 1 1042 0
 2293 00c2 B4F804E0 		ldrh	lr, [r4, #4]
 2294              		.loc 1 1044 0
 2295 00c6 08F0FE08 		and	r8, r8, #254
 2296              		.loc 1 1042 0
 2297 00ca 2EF40060 		bic	r0, lr, #2048
 2298 00ce 0204     		lsls	r2, r0, #16
 2299 00d0 130C     		lsrs	r3, r2, #16
 2300 00d2 A380     		strh	r3, [r4, #4]	@ movhi
 2301              		.loc 1 1044 0
 2302 00d4 A4F80880 		strh	r8, [r4, #8]	@ movhi
 2303              		.loc 1 1046 0
 2304 00d8 B4F804C0 		ldrh	ip, [r4, #4]
 2305              		.loc 1 1051 0
 2306 00dc FB69     		ldr	r3, [r7, #28]
 2307              		.loc 1 1046 0
 2308 00de 1FFA8CF1 		uxth	r1, ip
 2309 00e2 41F4C060 		orr	r0, r1, #1536
 2310 00e6 A080     		strh	r0, [r4, #4]	@ movhi
 2311              		.loc 1 1048 0
 2312 00e8 2288     		ldrh	r2, [r4, #0]
 2313              		.loc 1 1053 0
 2314 00ea B5F1FF3F 		cmp	r5, #-1
 2315              		.loc 1 1048 0
 2316 00ee 1FFA82FE 		uxth	lr, r2
 2317 00f2 4EF4806C 		orr	ip, lr, #1024
 2318 00f6 A4F800C0 		strh	ip, [r4, #0]	@ movhi
ARM GAS  /tmp/cc8nMvkt.s 			page 42


 2319              		.loc 1 1051 0
 2320 00fa F361     		str	r3, [r6, #28]
 2321              		.loc 1 1053 0
 2322 00fc 07D0     		beq	.L138
 2323              		.loc 1 1053 0 is_stmt 0 discriminator 1
 2324 00fe 0498     		ldr	r0, [sp, #16]
 2325 0100 0028     		cmp	r0, #0
 2326 0102 B2D0     		beq	.L133
 2327              		.loc 1 1054 0 is_stmt 1
 2328 0104 01A8     		add	r0, sp, #4
 2329 0106 FFF7FEFF 		bl	chVTResetI
 2330              		.loc 1 1057 0
 2331 010a 5846     		mov	r0, fp
 2332 010c ADE7     		b	.L133
 2333              	.L138:
 2334 010e 5846     		mov	r0, fp
 2335 0110 ABE7     		b	.L133
 2336              	.L142:
 2337              		.loc 1 1020 0 discriminator 1
 2338 0112 0499     		ldr	r1, [sp, #16]
 2339 0114 0029     		cmp	r1, #0
 2340 0116 B2D1     		bne	.L135
 2341              		.loc 1 1021 0
 2342 0118 4FF0FF30 		mov	r0, #-1
 2343 011c A5E7     		b	.L133
 2344              	.L144:
 2345 011e 00BF     		.align	2
 2346              	.L143:
 2347 0120 00000000 		.word	rlist
 2348 0124 00000000 		.word	i2c_lld_safety_timeout
 2349              		.cfi_endproc
 2350              	.LFE77:
 2351              		.size	i2c_lld_slave_io_timeout, .-i2c_lld_slave_io_timeout
 2352              		.global	I2CD1
 2353 0128 AFF30080 		.section	.rodata.str1.4,"aMS",%progbits,1
 2353      AFF30080 
 2354              		.align	2
 2355              	.LC0:
 2356 0000 6932635F 		.ascii	"i2c_lld_start(), #1\000"
 2356      6C6C645F 
 2356      73746172 
 2356      7428292C 
 2356      20233100 
 2357              	.LC1:
 2358 0014 6932635F 		.ascii	"i2c_lld_start(), #2\000"
 2358      6C6C645F 
 2358      73746172 
 2358      7428292C 
 2358      20233200 
 2359              	.LC2:
 2360 0028 22693263 		.ascii	"\"i2c_lld_set_clock\"()\000"
 2360      5F6C6C64 
 2360      5F736574 
 2360      5F636C6F 
 2360      636B2228 
 2361 003e 0000     		.space	2
 2362              	.LC3:
ARM GAS  /tmp/cc8nMvkt.s 			page 43


 2363 0040 6932635F 		.ascii	"i2c_lld_set_clock(), #1\000"
 2363      6C6C645F 
 2363      7365745F 
 2363      636C6F63 
 2363      6B28292C 
 2364              	.LC4:
 2365 0058 6932635F 		.ascii	"i2c_lld_set_clock(), #2\000"
 2365      6C6C645F 
 2365      7365745F 
 2365      636C6F63 
 2365      6B28292C 
 2366              	.LC5:
 2367 0070 6932635F 		.ascii	"i2c_lld_set_clock(), #3\000"
 2367      6C6C645F 
 2367      7365745F 
 2367      636C6F63 
 2367      6B28292C 
 2368              	.LC6:
 2369 0088 6932635F 		.ascii	"i2c_lld_set_clock(), #4\000"
 2369      6C6C645F 
 2369      7365745F 
 2369      636C6F63 
 2369      6B28292C 
 2370              	.LC7:
 2371 00a0 6932635F 		.ascii	"i2c_lld_set_clock(), #5\000"
 2371      6C6C645F 
 2371      7365745F 
 2371      636C6F63 
 2371      6B28292C 
 2372              	.LC8:
 2373 00b8 6932635F 		.ascii	"i2c_lld_set_clock(), #6\000"
 2373      6C6C645F 
 2373      7365745F 
 2373      636C6F63 
 2373      6B28292C 
 2374              	.LC9:
 2375 00d0 6932635F 		.ascii	"i2c_lld_set_clock(), #8\000"
 2375      6C6C645F 
 2375      7365745F 
 2375      636C6F63 
 2375      6B28292C 
 2376              	.LC10:
 2377 00e8 22693263 		.ascii	"\"i2c_lld_master_receive_timeout\"()\000"
 2377      5F6C6C64 
 2377      5F6D6173 
 2377      7465725F 
 2377      72656365 
 2378 010b 00       		.space	1
 2379              	.LC11:
 2380 010c 22693263 		.ascii	"\"i2c_lld_master_transmit_timeout\"()\000"
 2380      5F6C6C64 
 2380      5F6D6173 
 2380      7465725F 
 2380      7472616E 
 2381              		.section	.bss.I2CD1,"aw",%nobits
 2382              		.align	2
 2383              		.set	.LANCHOR0,. + 0
ARM GAS  /tmp/cc8nMvkt.s 			page 44


 2384              		.type	I2CD1, %object
 2385              		.size	I2CD1, 88
 2386              	I2CD1:
 2387 0000 00000000 		.space	88
 2387      00000000 
 2387      00000000 
 2387      00000000 
 2387      00000000 
 2388              		.text
 2389              	.Letext0: