ARM GAS  C:\Users\z80\AppData\Local\Temp\cc4XZ4SR.s 			page 1


   1              		.syntax unified
   2              		.cpu cortex-m3
   3              		.fpu softvfp
   4              		.eabi_attribute 20, 1
   5              		.eabi_attribute 21, 1
   6              		.eabi_attribute 23, 3
   7              		.eabi_attribute 24, 1
   8              		.eabi_attribute 25, 1
   9              		.eabi_attribute 26, 1
  10              		.eabi_attribute 30, 2
  11              		.eabi_attribute 18, 4
  12              		.thumb
  13              		.file	"i2c_ctrl.c"
  20 0000 A8050000 		.text
  20      02008602 
  20      00000201 
  20      FB0E0D00 
  20      01010101 
  21              	.Ltext0:
  22              		.cfi_sections	.debug_frame
  23              		.section	.text.i2cTxCb,"ax",%progbits
  24              		.align	2
  25              		.p2align 4,,15
  26              		.thumb
  27              		.thumb_func
  28              		.type	i2cTxCb, %function
  29              	i2cTxCb:
  30              	.LFB63:
  31              		.file 1 "./src/i2c_ctrl.c"
  32              		.loc 1 40 0
  33              		.cfi_startproc
  34              		@ args = 0, pretend = 0, frame = 0
  35              		@ frame_needed = 0, uses_anonymous_args = 0
  36              	.LVL0:
  37 0000 08B5     		push	{r3, lr}
  38              	.LCFI0:
  39              		.cfi_def_cfa_offset 8
  40              		.loc 1 42 0
  41 0002 0420     		movs	r0, #4
  42              	.LVL1:
  43              		.cfi_offset 14, -4
  44              		.cfi_offset 3, -8
  45 0004 FFF7FEFF 		bl	toggleLedsI
  46              		.loc 1 43 0
  47 0008 08BD     		pop	{r3, pc}
  48              		.cfi_endproc
  49              	.LFE63:
  50              		.size	i2cTxCb, .-i2cTxCb
  51 000a 00BFAFF3 		.section	.text.i2cRxCb,"ax",%progbits
  51      0080
  52              		.align	2
ARM GAS  C:\Users\z80\AppData\Local\Temp\cc4XZ4SR.s 			page 2


  53              		.p2align 4,,15
  54              		.thumb
  55              		.thumb_func
  56              		.type	i2cRxCb, %function
  57              	i2cRxCb:
  58              	.LFB62:
  59              		.loc 1 34 0
  60              		.cfi_startproc
  61              		@ args = 0, pretend = 0, frame = 0
  62              		@ frame_needed = 0, uses_anonymous_args = 0
  63              	.LVL2:
  64 0000 08B5     		push	{r3, lr}
  65              	.LCFI1:
  66              		.cfi_def_cfa_offset 8
  67              		.loc 1 36 0
  68 0002 0220     		movs	r0, #2
  69              	.LVL3:
  70              		.cfi_offset 14, -4
  71              		.cfi_offset 3, -8
  72 0004 FFF7FEFF 		bl	toggleLedsI
  73              		.loc 1 37 0
  74 0008 08BD     		pop	{r3, pc}
  75              		.cfi_endproc
  76              	.LFE62:
  77              		.size	i2cRxCb, .-i2cRxCb
  78 000a 00BFAFF3 		.section	.text.initI2c,"ax",%progbits
  78      0080
  79              		.align	2
  80              		.p2align 4,,15
  81              		.global	initI2c
  82              		.thumb
  83              		.thumb_func
  84              		.type	initI2c, %function
  85              	initI2c:
  86              	.LFB65:
  87              		.loc 1 198 0
  88              		.cfi_startproc
  89              		@ args = 0, pretend = 0, frame = 0
  90              		@ frame_needed = 0, uses_anonymous_args = 0
  91 0000 30B5     		push	{r4, r5, lr}
  92              	.LCFI2:
  93              		.cfi_def_cfa_offset 12
  94              		.loc 1 200 0
  95 0002 4FF48054 		mov	r4, #4096
  96              		.cfi_offset 14, -4
  97              		.cfi_offset 5, -8
  98              		.cfi_offset 4, -12
  99 0006 C4F20104 		movt	r4, 16385
 100              		.loc 1 198 0
 101 000a 83B0     		sub	sp, sp, #12
 102              	.LCFI3:
 103              		.cfi_def_cfa_offset 24
 104              		.loc 1 200 0
 105 000c 0222     		movs	r2, #2
 106 000e 2046     		mov	r0, r4
 107 0010 4FF40041 		mov	r1, #32768
 108 0014 FFF7FEFF 		bl	_pal_lld_setgroupmode
ARM GAS  C:\Users\z80\AppData\Local\Temp\cc4XZ4SR.s 			page 3


 109              		.loc 1 203 0
 110 0018 4FF44065 		mov	r5, #3072
 111              		.loc 1 201 0
 112 001c 2046     		mov	r0, r4
 113 001e 0222     		movs	r2, #2
 114 0020 4FF48041 		mov	r1, #16384
 115 0024 FFF7FEFF 		bl	_pal_lld_setgroupmode
 116              		.loc 1 203 0
 117 0028 C4F20105 		movt	r5, 16385
 118              		.loc 1 202 0
 119 002c 2046     		mov	r0, r4
 120 002e 0222     		movs	r2, #2
 121 0030 4FF40051 		mov	r1, #8192
 122 0034 FFF7FEFF 		bl	_pal_lld_setgroupmode
 123              		.loc 1 203 0
 124 0038 4021     		movs	r1, #64
 125 003a 1122     		movs	r2, #17
 126 003c 2846     		mov	r0, r5
 127 003e FFF7FEFF 		bl	_pal_lld_setgroupmode
 128              		.loc 1 204 0
 129 0042 1122     		movs	r2, #17
 130 0044 8021     		movs	r1, #128
 131 0046 2846     		mov	r0, r5
 132 0048 FFF7FEFF 		bl	_pal_lld_setgroupmode
 133              		.loc 1 205 0
 134 004c 3220     		movs	r0, #50
 135 004e FFF7FEFF 		bl	chThdSleep
 136              		.loc 1 207 0
 137 0052 FFF7FEFF 		bl	i2cInit
 138              		.loc 1 209 0
 139 0056 40F20000 		movw	r0, #:lower16:I2CD1
 140 005a 40F20001 		movw	r1, #:lower16:.LANCHOR0
 141 005e C0F20000 		movt	r0, #:upper16:I2CD1
 142 0062 C0F20001 		movt	r1, #:upper16:.LANCHOR0
 143 0066 FFF7FEFF 		bl	i2cStart
 144              	.LVL4:
 145              		.loc 1 216 0
 146 006a 40F20001 		movw	r1, #:lower16:.LANCHOR1
 147              		.loc 1 217 0
 148 006e 40F20002 		movw	r2, #:lower16:.LANCHOR2
 149              		.loc 1 218 0
 150 0072 40F20003 		movw	r3, #:lower16:.LANCHOR3
 151              		.loc 1 216 0
 152 0076 0024     		movs	r4, #0
 153 0078 C0F20001 		movt	r1, #:upper16:.LANCHOR1
 154              		.loc 1 217 0
 155 007c C0F20002 		movt	r2, #:upper16:.LANCHOR2
 156              		.loc 1 218 0
 157 0080 C0F20003 		movt	r3, #:upper16:.LANCHOR3
 158              		.loc 1 222 0
 159 0084 40F20000 		movw	r0, #:lower16:.LANCHOR4
 160              		.loc 1 216 0
 161 0088 0C60     		str	r4, [r1, #0]
 162              		.loc 1 217 0
 163 008a 1460     		str	r4, [r2, #0]
 164              		.loc 1 218 0
 165 008c 1C60     		str	r4, [r3, #0]
ARM GAS  C:\Users\z80\AppData\Local\Temp\cc4XZ4SR.s 			page 4


 166              	.LVL5:
 167              		.loc 1 216 0
 168 008e 4C60     		str	r4, [r1, #4]
 169              		.loc 1 217 0
 170 0090 5460     		str	r4, [r2, #4]
 171              		.loc 1 218 0
 172 0092 5C60     		str	r4, [r3, #4]
 173              	.LVL6:
 174              		.loc 1 222 0
 175 0094 C0F20000 		movt	r0, #:upper16:.LANCHOR4
 176 0098 FFF7FEFF 		bl	chMtxInit
 177              		.loc 1 224 0
 178 009c 40F20000 		movw	r0, #:lower16:.LANCHOR5
 179 00a0 40F20003 		movw	r3, #:lower16:i2cThread
 180 00a4 C0F20003 		movt	r3, #:upper16:i2cThread
 181 00a8 4FF4D871 		mov	r1, #432
 182 00ac 4022     		movs	r2, #64
 183 00ae C0F20000 		movt	r0, #:upper16:.LANCHOR5
 184 00b2 0094     		str	r4, [sp, #0]
 185 00b4 FFF7FEFF 		bl	chThdCreateStatic
 186              		.loc 1 225 0
 187 00b8 03B0     		add	sp, sp, #12
 188 00ba 30BD     		pop	{r4, r5, pc}
 189              		.cfi_endproc
 190              	.LFE65:
 191              		.size	initI2c, .-initI2c
 192 00bc AFF30080 		.section	.text.state,"ax",%progbits
 193              		.align	2
 194              		.p2align 4,,15
 195              		.global	state
 196              		.thumb
 197              		.thumb_func
 198              		.type	state, %function
 199              	state:
 200              	.LFB66:
 201              		.loc 1 228 0
 202              		.cfi_startproc
 203              		@ args = 0, pretend = 0, frame = 0
 204              		@ frame_needed = 0, uses_anonymous_args = 0
 205              	.LVL7:
 206 0000 38B5     		push	{r3, r4, r5, lr}
 207              	.LCFI4:
 208              		.cfi_def_cfa_offset 16
 209              		.loc 1 230 0
 210 0002 40F20003 		movw	r3, #:lower16:.LANCHOR4
 211              		.cfi_offset 14, -4
 212              		.cfi_offset 5, -8
 213              		.cfi_offset 4, -12
 214              		.cfi_offset 3, -16
 215 0006 C0F20003 		movt	r3, #:upper16:.LANCHOR4
 216              		.loc 1 228 0
 217 000a 0446     		mov	r4, r0
 218              		.loc 1 230 0
 219 000c 1846     		mov	r0, r3
 220              	.LVL8:
 221              		.loc 1 228 0
 222 000e 0D46     		mov	r5, r1
ARM GAS  C:\Users\z80\AppData\Local\Temp\cc4XZ4SR.s 			page 5


 223              		.loc 1 230 0
 224 0010 FFF7FEFF 		bl	chMtxLock
 225              	.LVL9:
 226              		.loc 1 231 0
 227 0014 40F20003 		movw	r3, #:lower16:.LANCHOR3
 228 0018 C0F20003 		movt	r3, #:upper16:.LANCHOR3
 229 001c 53F82430 		ldr	r3, [r3, r4, lsl #2]
 230 0020 2B60     		str	r3, [r5, #0]
 231              		.loc 1 232 0
 232 0022 FFF7FEFF 		bl	chMtxUnlock
 233              		.loc 1 233 0
 234 0026 38BD     		pop	{r3, r4, r5, pc}
 235              		.cfi_endproc
 236              	.LFE66:
 237              		.size	state, .-state
 238 0028 AFF30080 		.section	.text.setOutput,"ax",%progbits
 238      AFF30080 
 239              		.align	2
 240              		.p2align 4,,15
 241              		.global	setOutput
 242              		.thumb
 243              		.thumb_func
 244              		.type	setOutput, %function
 245              	setOutput:
 246              	.LFB67:
 247              		.loc 1 236 0
 248              		.cfi_startproc
 249              		@ args = 0, pretend = 0, frame = 0
 250              		@ frame_needed = 0, uses_anonymous_args = 0
 251              	.LVL10:
 252 0000 38B5     		push	{r3, r4, r5, lr}
 253              	.LCFI5:
 254              		.cfi_def_cfa_offset 16
 255              		.loc 1 238 0
 256 0002 40F20003 		movw	r3, #:lower16:.LANCHOR4
 257              		.cfi_offset 14, -4
 258              		.cfi_offset 5, -8
 259              		.cfi_offset 4, -12
 260              		.cfi_offset 3, -16
 261 0006 C0F20003 		movt	r3, #:upper16:.LANCHOR4
 262              		.loc 1 236 0
 263 000a 0446     		mov	r4, r0
 264 000c 0D46     		mov	r5, r1
 265              		.loc 1 238 0
 266 000e 1846     		mov	r0, r3
 267              	.LVL11:
 268 0010 FFF7FEFF 		bl	chMtxLock
 269              	.LVL12:
 270              		.loc 1 239 0
 271 0014 2A68     		ldr	r2, [r5, #0]
 272 0016 40F20003 		movw	r3, #:lower16:.LANCHOR2
 273 001a C0F20003 		movt	r3, #:upper16:.LANCHOR2
 274 001e 43F82420 		str	r2, [r3, r4, lsl #2]
 275              		.loc 1 240 0
 276 0022 FFF7FEFF 		bl	chMtxUnlock
 277              		.loc 1 241 0
 278 0026 38BD     		pop	{r3, r4, r5, pc}
ARM GAS  C:\Users\z80\AppData\Local\Temp\cc4XZ4SR.s 			page 6


 279              		.cfi_endproc
 280              	.LFE67:
 281              		.size	setOutput, .-setOutput
 282 0028 AFF30080 		.section	.text.cmd_state,"ax",%progbits
 282      AFF30080 
 283              		.align	2
 284              		.p2align 4,,15
 285              		.global	cmd_state
 286              		.thumb
 287              		.thumb_func
 288              		.type	cmd_state, %function
 289              	cmd_state:
 290              	.LFB68:
 291              		.loc 1 244 0
 292              		.cfi_startproc
 293              		@ args = 0, pretend = 0, frame = 8
 294              		@ frame_needed = 0, uses_anonymous_args = 0
 295              	.LVL13:
 296 0000 2DE9F041 		push	{r4, r5, r6, r7, r8, lr}
 297              	.LCFI6:
 298              		.cfi_def_cfa_offset 24
 299 0004 0024     		movs	r4, #0
 300              		.cfi_offset 14, -4
 301              		.cfi_offset 8, -8
 302              		.cfi_offset 7, -12
 303              		.cfi_offset 6, -16
 304              		.cfi_offset 5, -20
 305              		.cfi_offset 4, -24
 306 0006 82B0     		sub	sp, sp, #8
 307              	.LCFI7:
 308              		.cfi_def_cfa_offset 32
 309 0008 01AF     		add	r7, sp, #4
 310              		.loc 1 252 0
 311 000a 5FFA84F8 		uxtb	r8, r4
 312              		.loc 1 244 0
 313 000e 0646     		mov	r6, r0
 314              		.loc 1 252 0
 315 0010 3946     		mov	r1, r7
 316              	.LVL14:
 317 0012 4046     		mov	r0, r8
 318              	.LVL15:
 319 0014 FFF7FEFF 		bl	state
 320              	.LVL16:
 321              		.loc 1 244 0
 322 0018 0125     		movs	r5, #1
 323              		.loc 1 258 0
 324 001a 3046     		mov	r0, r6
 325 001c 1549     		ldr	r1, .L15
 326              		.loc 1 253 0
 327 001e B8F1000F 		cmp	r8, #0
 328 0022 16D0     		beq	.L13
 329              	.LVL17:
 330              	.L8:
 331              		.loc 1 255 0
 332 0024 B8F1020F 		cmp	r8, #2
 333 0028 18D0     		beq	.L14
 334              		.loc 1 258 0
ARM GAS  C:\Users\z80\AppData\Local\Temp\cc4XZ4SR.s 			page 7


 335 002a 019A     		ldr	r2, [sp, #4]
 336 002c FFF7FEFF 		bl	chprintf
 337              	.LVL18:
 338              		.loc 1 250 0
 339 0030 6BB2     		sxtb	r3, r5
 340 0032 022B     		cmp	r3, #2
 341 0034 17DC     		bgt	.L11
 342              	.LVL19:
 343              	.L9:
 344              		.loc 1 244 0
 345 0036 0134     		adds	r4, r4, #1
 346              		.loc 1 252 0
 347 0038 5FFA84F8 		uxtb	r8, r4
 348 003c 4046     		mov	r0, r8
 349 003e 3946     		mov	r1, r7
 350              		.loc 1 244 0
 351 0040 0135     		adds	r5, r5, #1
 352              		.loc 1 252 0
 353 0042 FFF7FEFF 		bl	state
 354              		.loc 1 244 0
 355 0046 EDB2     		uxtb	r5, r5
 356              		.loc 1 258 0
 357 0048 3046     		mov	r0, r6
 358 004a 0A49     		ldr	r1, .L15
 359              		.loc 1 253 0
 360 004c B8F1000F 		cmp	r8, #0
 361 0050 E8D1     		bne	.L8
 362              	.L13:
 363              		.loc 1 254 0
 364 0052 0949     		ldr	r1, .L15+4
 365 0054 019A     		ldr	r2, [sp, #4]
 366 0056 FFF7FEFF 		bl	chprintf
 367              	.LVL20:
 368 005a ECE7     		b	.L9
 369              	.LVL21:
 370              	.L14:
 371              		.loc 1 256 0
 372 005c 3046     		mov	r0, r6
 373 005e 0749     		ldr	r1, .L15+8
 374 0060 019A     		ldr	r2, [sp, #4]
 375 0062 FFF7FEFF 		bl	chprintf
 376              	.L11:
 377              		.loc 1 260 0
 378 0066 3046     		mov	r0, r6
 379 0068 0549     		ldr	r1, .L15+12
 380 006a FFF7FEFF 		bl	chprintf
 381              		.loc 1 261 0
 382 006e 02B0     		add	sp, sp, #8
 383 0070 BDE8F081 		pop	{r4, r5, r6, r7, r8, pc}
 384              	.L16:
 385              		.align	2
 386              	.L15:
 387 0074 0C000000 		.word	.LC2
 388 0078 00000000 		.word	.LC0
 389 007c 08000000 		.word	.LC1
 390 0080 10000000 		.word	.LC3
 391              		.cfi_endproc
ARM GAS  C:\Users\z80\AppData\Local\Temp\cc4XZ4SR.s 			page 8


 392              	.LFE68:
 393              		.size	cmd_state, .-cmd_state
 394 0084 AFF30080 		.section	.text.cmd_set_output,"ax",%progbits
 394      AFF30080 
 394      AFF30080 
 395              		.align	2
 396              		.p2align 4,,15
 397              		.global	cmd_set_output
 398              		.thumb
 399              		.thumb_func
 400              		.type	cmd_set_output, %function
 401              	cmd_set_output:
 402              	.LFB69:
 403              		.loc 1 264 0
 404              		.cfi_startproc
 405              		@ args = 0, pretend = 0, frame = 8
 406              		@ frame_needed = 0, uses_anonymous_args = 0
 407              	.LVL22:
 408 0000 F0B5     		push	{r4, r5, r6, r7, lr}
 409              	.LCFI8:
 410              		.cfi_def_cfa_offset 20
 411              		.loc 1 265 0
 412 0002 0229     		cmp	r1, #2
 413              		.loc 1 264 0
 414 0004 83B0     		sub	sp, sp, #12
 415              	.LCFI9:
 416              		.cfi_def_cfa_offset 32
 417              		.loc 1 264 0
 418 0006 0446     		mov	r4, r0
 419              		.cfi_offset 14, -4
 420              		.cfi_offset 7, -8
 421              		.cfi_offset 6, -12
 422              		.cfi_offset 5, -16
 423              		.cfi_offset 4, -20
 424              		.loc 1 265 0
 425 0008 16DD     		ble	.L22
 426              		.loc 1 267 0
 427 000a 1646     		mov	r6, r2
 428              		.loc 1 265 0
 429 000c 0025     		movs	r5, #0
 430 000e 01AF     		add	r7, sp, #4
 431              	.LVL23:
 432              	.L20:
 433              	.LBB9:
 434              		.loc 1 275 0 discriminator 2
 435 0010 56F8040B 		ldr	r0, [r6], #4
 436 0014 FFF7FEFF 		bl	atoi
 437 0018 0346     		mov	r3, r0
 438              		.loc 1 276 0 discriminator 2
 439 001a E8B2     		uxtb	r0, r5
 440              		.loc 1 273 0 discriminator 2
 441 001c 0135     		adds	r5, r5, #1
 442              		.loc 1 276 0 discriminator 2
 443 001e 3946     		mov	r1, r7
 444              		.loc 1 273 0 discriminator 2
 445 0020 EDB2     		uxtb	r5, r5
 446              		.loc 1 275 0 discriminator 2
ARM GAS  C:\Users\z80\AppData\Local\Temp\cc4XZ4SR.s 			page 9


 447 0022 0193     		str	r3, [sp, #4]
 448              		.loc 1 276 0 discriminator 2
 449 0024 FFF7FEFF 		bl	setOutput
 450              	.LVL24:
 451              		.loc 1 273 0 discriminator 2
 452 0028 032D     		cmp	r5, #3
 453 002a F1D1     		bne	.L20
 454              		.loc 1 278 0
 455 002c 2046     		mov	r0, r4
 456 002e 0449     		ldr	r1, .L23
 457 0030 FFF7FEFF 		bl	chprintf
 458              	.LVL25:
 459              	.L17:
 460              	.LBE9:
 461              		.loc 1 280 0
 462 0034 03B0     		add	sp, sp, #12
 463 0036 F0BD     		pop	{r4, r5, r6, r7, pc}
 464              	.LVL26:
 465              	.L22:
 466              		.loc 1 267 0
 467 0038 0249     		ldr	r1, .L23+4
 468              	.LVL27:
 469 003a FFF7FEFF 		bl	chprintf
 470              	.LVL28:
 471 003e F9E7     		b	.L17
 472              	.L24:
 473              		.align	2
 474              	.L23:
 475 0040 34000000 		.word	.LC5
 476 0044 1C000000 		.word	.LC4
 477              		.cfi_endproc
 478              	.LFE69:
 479              		.size	cmd_set_output, .-cmd_set_output
 480 0048 AFF30080 		.section	.text.i2cSetAddr,"ax",%progbits
 480      AFF30080 
 481              		.align	2
 482              		.p2align 4,,15
 483              		.global	i2cSetAddr
 484              		.thumb
 485              		.thumb_func
 486              		.type	i2cSetAddr, %function
 487              	i2cSetAddr:
 488              	.LFB70:
 489              		.loc 1 302 0
 490              		.cfi_startproc
 491              		@ args = 0, pretend = 0, frame = 0
 492              		@ frame_needed = 0, uses_anonymous_args = 0
 493              		@ link register save eliminated.
 494              	.LVL29:
 495              		.loc 1 303 0
 496 0000 40F20003 		movw	r3, #:lower16:.LANCHOR6
 497 0004 C0F20003 		movt	r3, #:upper16:.LANCHOR6
 498 0008 1870     		strb	r0, [r3, #0]
 499              		.loc 1 304 0
 500 000a 7047     		bx	lr
 501              		.cfi_endproc
 502              	.LFE70:
ARM GAS  C:\Users\z80\AppData\Local\Temp\cc4XZ4SR.s 			page 10


 503              		.size	i2cSetAddr, .-i2cSetAddr
 504 000c AFF30080 		.section	.text.i2cSetBuf,"ax",%progbits
 505              		.align	2
 506              		.p2align 4,,15
 507              		.global	i2cSetBuf
 508              		.thumb
 509              		.thumb_func
 510              		.type	i2cSetBuf, %function
 511              	i2cSetBuf:
 512              	.LFB71:
 513              		.loc 1 307 0
 514              		.cfi_startproc
 515              		@ args = 0, pretend = 0, frame = 0
 516              		@ frame_needed = 0, uses_anonymous_args = 0
 517              		@ link register save eliminated.
 518              	.LVL30:
 519              		.loc 1 308 0
 520 0000 40F20003 		movw	r3, #:lower16:.LANCHOR7
 521 0004 C0F20003 		movt	r3, #:upper16:.LANCHOR7
 522 0008 1954     		strb	r1, [r3, r0]
 523              		.loc 1 309 0
 524 000a 7047     		bx	lr
 525              		.cfi_endproc
 526              	.LFE71:
 527              		.size	i2cSetBuf, .-i2cSetBuf
 528              		.section	.text.i2cIo,"ax",%progbits
 529              		.align	2
 530              		.p2align 4,,15
 531              		.global	i2cIo
 532              		.thumb
 533              		.thumb_func
 534              		.type	i2cIo, %function
 535              	i2cIo:
 536              	.LFB72:
 537              		.loc 1 312 0
 538              		.cfi_startproc
 539              		@ args = 0, pretend = 0, frame = 0
 540              		@ frame_needed = 0, uses_anonymous_args = 0
 541 0000 70B5     		push	{r4, r5, r6, lr}
 542              	.LCFI10:
 543              		.cfi_def_cfa_offset 16
 544              		.loc 1 335 0
 545 0002 324C     		ldr	r4, .L39
 546              		.cfi_offset 14, -4
 547              		.cfi_offset 6, -8
 548              		.cfi_offset 5, -12
 549              		.cfi_offset 4, -16
 550              		.loc 1 312 0
 551 0004 84B0     		sub	sp, sp, #16
 552              	.LCFI11:
 553              		.cfi_def_cfa_offset 32
 554              		.loc 1 334 0
 555 0006 3248     		ldr	r0, .L39+4
 556 0008 FFF7FEFF 		bl	chMtxLock
 557              		.loc 1 335 0
 558 000c 314D     		ldr	r5, .L39+8
 559 000e 2378     		ldrb	r3, [r4, #0]	@ zero_extendqisi2
ARM GAS  C:\Users\z80\AppData\Local\Temp\cc4XZ4SR.s 			page 11


 560 0010 2B70     		strb	r3, [r5, #0]
 561              		.loc 1 336 0
 562 0012 FFF7FEFF 		bl	chMtxUnlock
 563              		.loc 1 337 0
 564 0016 2B78     		ldrb	r3, [r5, #0]	@ zero_extendqisi2
 565 0018 012B     		cmp	r3, #1
 566 001a 01D0     		beq	.L36
 567              	.L27:
 568              		.loc 1 382 0
 569 001c 04B0     		add	sp, sp, #16
 570 001e 70BD     		pop	{r4, r5, r6, pc}
 571              	.L36:
 572              	.LBB10:
 573              		.loc 1 341 0
 574 0020 2D4B     		ldr	r3, .L39+12
 575              		.loc 1 340 0
 576 0022 2E4D     		ldr	r5, .L39+16
 577              		.loc 1 341 0
 578 0024 1B78     		ldrb	r3, [r3, #0]	@ zero_extendqisi2
 579              		.loc 1 340 0
 580 0026 4FF0960C 		mov	ip, #150
 581 002a C5F800C0 		str	ip, [r5, #0]
 582              		.loc 1 341 0
 583 002e E3B9     		cbnz	r3, .L37
 584              	.L29:
 585              		.loc 1 360 0
 586 0030 2B4B     		ldr	r3, .L39+20
 587 0032 1B78     		ldrb	r3, [r3, #0]	@ zero_extendqisi2
 588 0034 8BB1     		cbz	r3, .L32
 589              		.loc 1 362 0
 590 0036 2B4A     		ldr	r2, .L39+24
 591 0038 D5F800C0 		ldr	ip, [r5, #0]
 592 003c 1178     		ldrb	r1, [r2, #0]	@ zero_extendqisi2
 593 003e 2A48     		ldr	r0, .L39+28
 594 0040 2A4A     		ldr	r2, .L39+32
 595 0042 CDF800C0 		str	ip, [sp, #0]
 596 0046 FFF7FEFF 		bl	i2cMasterReceiveTimeout
 597 004a 294E     		ldr	r6, .L39+36
 598 004c 3060     		str	r0, [r6, #0]
 599              		.loc 1 365 0
 600 004e 40BB     		cbnz	r0, .L33
 601              		.loc 1 366 0
 602 0050 0420     		movs	r0, #4
 603 0052 FFF7FEFF 		bl	toggleLedsImmediate
 604              	.L34:
 605              		.loc 1 369 0
 606 0056 3368     		ldr	r3, [r6, #0]
 607 0058 5BBB     		cbnz	r3, .L38
 608              	.L32:
 609              		.loc 1 378 0
 610 005a 1D48     		ldr	r0, .L39+4
 611 005c FFF7FEFF 		bl	chMtxLock
 612              		.loc 1 379 0
 613 0060 0023     		movs	r3, #0
 614 0062 2370     		strb	r3, [r4, #0]
 615              		.loc 1 380 0
 616 0064 FFF7FEFF 		bl	chMtxUnlock
ARM GAS  C:\Users\z80\AppData\Local\Temp\cc4XZ4SR.s 			page 12


 617 0068 D8E7     		b	.L27
 618              	.L37:
 619              		.loc 1 343 0
 620 006a 1E4A     		ldr	r2, .L39+24
 621 006c 4FF0000E 		mov	lr, #0
 622 0070 1178     		ldrb	r1, [r2, #0]	@ zero_extendqisi2
 623 0072 1D48     		ldr	r0, .L39+28
 624 0074 1F4A     		ldr	r2, .L39+40
 625 0076 CDF800E0 		str	lr, [sp, #0]
 626 007a CDF804E0 		str	lr, [sp, #4]
 627 007e CDF808C0 		str	ip, [sp, #8]
 628 0082 FFF7FEFF 		bl	i2cMasterTransmitTimeout
 629 0086 1A4E     		ldr	r6, .L39+36
 630 0088 3060     		str	r0, [r6, #0]
 631              		.loc 1 347 0
 632 008a 70B9     		cbnz	r0, .L30
 633              		.loc 1 348 0
 634 008c 0220     		movs	r0, #2
 635 008e FFF7FEFF 		bl	toggleLedsImmediate
 636              	.L31:
 637              		.loc 1 351 0
 638 0092 3368     		ldr	r3, [r6, #0]
 639 0094 002B     		cmp	r3, #0
 640 0096 CBD0     		beq	.L29
 641              		.loc 1 353 0
 642 0098 0D48     		ldr	r0, .L39+4
 643 009a FFF7FEFF 		bl	chMtxLock
 644              		.loc 1 354 0
 645 009e 0223     		movs	r3, #2
 646 00a0 0BE0     		b	.L35
 647              	.L33:
 648              		.loc 1 368 0
 649 00a2 0720     		movs	r0, #7
 650 00a4 FFF7FEFF 		bl	setLeds
 651 00a8 D5E7     		b	.L34
 652              	.L30:
 653              		.loc 1 350 0
 654 00aa 0720     		movs	r0, #7
 655 00ac FFF7FEFF 		bl	setLeds
 656 00b0 EFE7     		b	.L31
 657              	.L38:
 658              		.loc 1 371 0
 659 00b2 0748     		ldr	r0, .L39+4
 660 00b4 FFF7FEFF 		bl	chMtxLock
 661              		.loc 1 372 0
 662 00b8 0323     		movs	r3, #3
 663              	.L35:
 664 00ba 2370     		strb	r3, [r4, #0]
 665              		.loc 1 373 0
 666 00bc FFF7FEFF 		bl	chMtxUnlock
 667              		.loc 1 374 0
 668 00c0 0948     		ldr	r0, .L39+28
 669 00c2 0D49     		ldr	r1, .L39+44
 670 00c4 FFF7FEFF 		bl	i2cStart
 671              		.loc 1 375 0
 672 00c8 A8E7     		b	.L27
 673              	.L40:
ARM GAS  C:\Users\z80\AppData\Local\Temp\cc4XZ4SR.s 			page 13


 674 00ca 00BF     		.align	2
 675              	.L39:
 676 00cc 00000000 		.word	.LANCHOR9
 677 00d0 00000000 		.word	.LANCHOR4
 678 00d4 00000000 		.word	.LANCHOR8
 679 00d8 00000000 		.word	.LANCHOR11
 680 00dc 00000000 		.word	.LANCHOR10
 681 00e0 00000000 		.word	.LANCHOR13
 682 00e4 00000000 		.word	.LANCHOR6
 683 00e8 00000000 		.word	I2CD1
 684 00ec 00000000 		.word	.LANCHOR14
 685 00f0 00000000 		.word	.LANCHOR12
 686 00f4 00000000 		.word	.LANCHOR7
 687 00f8 00000000 		.word	.LANCHOR0
 688              	.LBE10:
 689              		.cfi_endproc
 690              	.LFE72:
 691              		.size	i2cIo, .-i2cIo
 692 00fc AFF30080 		.section	.text.i2cThread,"ax",%progbits
 693              		.align	2
 694              		.p2align 4,,15
 695              		.thumb
 696              		.thumb_func
 697              		.type	i2cThread, %function
 698              	i2cThread:
 699              	.LFB64:
 700              		.loc 1 48 0
 701              		.cfi_startproc
 702              		@ args = 0, pretend = 0, frame = 8
 703              		@ frame_needed = 0, uses_anonymous_args = 0
 704              	.LVL31:
 705 0000 2DE9F04F 		push	{r4, r5, r6, r7, r8, r9, sl, fp, lr}
 706              	.LCFI12:
 707              		.cfi_def_cfa_offset 36
 708              		.loc 1 50 0
 709 0004 9F4B     		ldr	r3, .L57
 710 0006 A04A     		ldr	r2, .L57+4
 711 0008 DB69     		ldr	r3, [r3, #28]
 712              		.loc 1 48 0
 713 000a 89B0     		sub	sp, sp, #36
 714              	.LCFI13:
 715              		.cfi_def_cfa_offset 72
 716              		.loc 1 52 0
 717 000c 0A20     		movs	r0, #10
 718              	.LVL32:
 719              		.loc 1 50 0
 720 000e 9A61     		str	r2, [r3, #24]
 721              		.loc 1 52 0
 722              		.cfi_offset 14, -4
 723              		.cfi_offset 11, -8
 724              		.cfi_offset 10, -12
 725              		.cfi_offset 9, -16
 726              		.cfi_offset 8, -20
 727              		.cfi_offset 7, -24
 728              		.cfi_offset 6, -28
 729              		.cfi_offset 5, -32
 730              		.cfi_offset 4, -36
ARM GAS  C:\Users\z80\AppData\Local\Temp\cc4XZ4SR.s 			page 14


 731 0010 FFF7FEFF 		bl	chThdSleep
 732              	.LBB11:
 733              		.loc 1 56 0
 734 0014 4FF48050 		mov	r0, #4096
 735 0018 C4F20100 		movt	r0, 16385
 736              	.LBE11:
 737              		.loc 1 114 0
 738 001c 9B4E     		ldr	r6, .L57+8
 739 001e 9C4F     		ldr	r7, .L57+12
 740 0020 9C4C     		ldr	r4, .L57+16
 741 0022 DFF87492 		ldr	r9, .L57+20
 742 0026 DFF87482 		ldr	r8, .L57+24
 743 002a DFF874A2 		ldr	sl, .L57+28
 744 002e 9D4D     		ldr	r5, .L57+32
 745              	.LBB18:
 746              		.loc 1 56 0
 747 0030 0790     		str	r0, [sp, #28]
 748              	.LBB13:
 749              		.loc 1 93 0
 750 0032 4FF0000B 		mov	fp, #0
 751              	.L48:
 752              	.LBE13:
 753              		.loc 1 56 0
 754 0036 0799     		ldr	r1, [sp, #28]
 755              		.loc 1 58 0
 756 0038 DDF81CE0 		ldr	lr, [sp, #28]
 757              		.loc 1 56 0
 758 003c 8B68     		ldr	r3, [r1, #8]
 759              		.loc 1 57 0
 760 003e 8968     		ldr	r1, [r1, #8]
 761              		.loc 1 58 0
 762 0040 DEF80820 		ldr	r2, [lr, #8]
 763              		.loc 1 56 0
 764 0044 C1F38031 		ubfx	r1, r1, #14, #1
 765 0048 C2F34032 		ubfx	r2, r2, #13, #1
 766 004c 9200     		lsls	r2, r2, #2
 767 004e 42EA4101 		orr	r1, r2, r1, lsl #1
 768 0052 C3F3C033 		ubfx	r3, r3, #15, #1
 769 0056 1943     		orrs	r1, r1, r3
 770              		.loc 1 59 0
 771 0058 C943     		mvns	r1, r1
 772              	.LVL33:
 773              		.loc 1 65 0
 774 005a 11F00701 		ands	r1, r1, #7
 775              	.LVL34:
 776 005e 14BF     		ite	ne
 777 0060 0023     		movne	r3, #0
 778 0062 0123     		moveq	r3, #1
 779              		.loc 1 64 0
 780 0064 0A22     		movs	r2, #10
 781 0066 C8F80020 		str	r2, [r8, #0]
 782              		.loc 1 65 0
 783 006a 40F20002 		movw	r2, #:lower16:.LANCHOR17
 784 006e C0F20002 		movt	r2, #:upper16:.LANCHOR17
 785 0072 1370     		strb	r3, [r2, #0]
 786              		.loc 1 70 0
 787 0074 1846     		mov	r0, r3
ARM GAS  C:\Users\z80\AppData\Local\Temp\cc4XZ4SR.s 			page 15


 788 0076 0691     		str	r1, [sp, #24]
 789 0078 FFF7FEFF 		bl	setLeds
 790              		.loc 1 71 0
 791 007c 40F2000E 		movw	lr, #:lower16:.LANCHOR17
 792 0080 C0F2000E 		movt	lr, #:upper16:.LANCHOR17
 793 0084 9EF80030 		ldrb	r3, [lr, #0]	@ zero_extendqisi2
 794 0088 0699     		ldr	r1, [sp, #24]
 795 008a 002B     		cmp	r3, #0
 796 008c 00F0AA80 		beq	.L42
 797              	.LBB12:
 798              		.loc 1 74 0
 799 0090 8548     		ldr	r0, .L57+36
 800 0092 FFF7FEFF 		bl	chMtxLock
 801              		.loc 1 75 0
 802 0096 FFF7FEFF 		bl	valueRead
 803              		.loc 1 76 0
 804 009a DAF80030 		ldr	r3, [sl, #0]
 805              		.loc 1 75 0
 806 009e 40F20001 		movw	r1, #:lower16:.LANCHOR3
 807 00a2 C0F20001 		movt	r1, #:upper16:.LANCHOR3
 808 00a6 0860     		str	r0, [r1, #0]
 809              		.loc 1 76 0
 810 00a8 1846     		mov	r0, r3
 811 00aa FFF7FEFF 		bl	write
 812              		.loc 1 77 0
 813 00ae FFF7FEFF 		bl	chMtxUnlock
 814              		.loc 1 80 0
 815 00b2 0022     		movs	r2, #0
 816 00b4 3A70     		strb	r2, [r7, #0]
 817 00b6 4AE0     		b	.L47
 818              	.L55:
 819              		.loc 1 99 0
 820 00b8 FFF7FEFF 		bl	chMtxLock
 821              		.loc 1 100 0
 822 00bc 40F20000 		movw	r0, #:lower16:.LANCHOR18
 823 00c0 C0F20000 		movt	r0, #:upper16:.LANCHOR18
 824 00c4 40F20001 		movw	r1, #:lower16:.LANCHOR19
 825 00c8 90F90030 		ldrsb	r3, [r0, #0]
 826 00cc C0F20001 		movt	r1, #:upper16:.LANCHOR19
 827 00d0 0A68     		ldr	r2, [r1, #0]
 828 00d2 40F2000E 		movw	lr, #:lower16:.LANCHOR1
 829 00d6 0133     		adds	r3, r3, #1
 830 00d8 C0F2000E 		movt	lr, #:upper16:.LANCHOR1
 831 00dc 4EF82320 		str	r2, [lr, r3, lsl #2]
 832              		.loc 1 101 0
 833 00e0 FFF7FEFF 		bl	chMtxUnlock
 834              		.loc 1 102 0
 835 00e4 0220     		movs	r0, #2
 836 00e6 FFF7FEFF 		bl	toggleLedsImmediate
 837              	.L43:
 838              		.loc 1 113 0
 839 00ea 97F90010 		ldrsb	r1, [r7, #0]
 840 00ee D8F800C0 		ldr	ip, [r8, #0]
 841 00f2 0131     		adds	r1, r1, #1
 842 00f4 89B2     		uxth	r1, r1
 843 00f6 0423     		movs	r3, #4
 844 00f8 644A     		ldr	r2, .L57+8
ARM GAS  C:\Users\z80\AppData\Local\Temp\cc4XZ4SR.s 			page 16


 845 00fa 6C48     		ldr	r0, .L57+40
 846 00fc CDF800C0 		str	ip, [sp, #0]
 847 0100 FFF7FEFF 		bl	i2cMasterReceiveTimeout
 848 0104 40F20001 		movw	r1, #:lower16:.LANCHOR21
 849 0108 0346     		mov	r3, r0
 850 010a C0F20001 		movt	r1, #:upper16:.LANCHOR21
 851              		.loc 1 118 0
 852 010e 0420     		movs	r0, #4
 853              		.loc 1 113 0
 854 0110 0B60     		str	r3, [r1, #0]
 855              		.loc 1 116 0
 856 0112 002B     		cmp	r3, #0
 857 0114 4CD1     		bne	.L46
 858              		.loc 1 118 0
 859 0116 FFF7FEFF 		bl	toggleLedsImmediate
 860              		.loc 1 129 0
 861 011a 6348     		ldr	r0, .L57+36
 862 011c FFF7FEFF 		bl	chMtxLock
 863              		.loc 1 131 0
 864 0120 40F20002 		movw	r2, #:lower16:.LANCHOR18
 865 0124 C0F20002 		movt	r2, #:upper16:.LANCHOR18
 866 0128 92F90030 		ldrsb	r3, [r2, #0]
 867 012c 40F2000E 		movw	lr, #:lower16:.LANCHOR3
 868 0130 3268     		ldr	r2, [r6, #0]
 869 0132 0133     		adds	r3, r3, #1
 870 0134 C0F2000E 		movt	lr, #:upper16:.LANCHOR3
 871 0138 4EF82320 		str	r2, [lr, r3, lsl #2]
 872              		.loc 1 132 0
 873 013c FFF7FEFF 		bl	chMtxUnlock
 874              		.loc 1 80 0
 875 0140 3B78     		ldrb	r3, [r7, #0]	@ zero_extendqisi2
 876 0142 0133     		adds	r3, r3, #1
 877 0144 DBB2     		uxtb	r3, r3
 878 0146 5AB2     		sxtb	r2, r3
 879 0148 012A     		cmp	r2, #1
 880 014a 3B70     		strb	r3, [r7, #0]
 881 014c 44DC     		bgt	.L54
 882              	.L47:
 883              		.loc 1 85 0
 884 014e 5648     		ldr	r0, .L57+36
 885 0150 FFF7FEFF 		bl	chMtxLock
 886              		.loc 1 86 0
 887 0154 97F90030 		ldrsb	r3, [r7, #0]
 888 0158 0133     		adds	r3, r3, #1
 889 015a 5AF82320 		ldr	r2, [sl, r3, lsl #2]
 890              		.loc 1 87 0
 891 015e 59F82330 		ldr	r3, [r9, r3, lsl #2]
 892              		.loc 1 86 0
 893 0162 2260     		str	r2, [r4, #0]
 894              		.loc 1 87 0
 895 0164 2B60     		str	r3, [r5, #0]
 896              		.loc 1 88 0
 897 0166 FFF7FEFF 		bl	chMtxUnlock
 898              		.loc 1 90 0
 899 016a 2168     		ldr	r1, [r4, #0]
 900 016c 2B68     		ldr	r3, [r5, #0]
 901              		.loc 1 93 0
ARM GAS  C:\Users\z80\AppData\Local\Temp\cc4XZ4SR.s 			page 17


 902 016e 494A     		ldr	r2, .L57+16
 903              		.loc 1 90 0
 904 0170 9942     		cmp	r1, r3
 905 0172 BAD0     		beq	.L43
 906              		.loc 1 93 0
 907 0174 40F20003 		movw	r3, #:lower16:.LANCHOR18
 908 0178 C0F20003 		movt	r3, #:upper16:.LANCHOR18
 909 017c 93F90010 		ldrsb	r1, [r3, #0]
 910 0180 D8F800C0 		ldr	ip, [r8, #0]
 911 0184 0131     		adds	r1, r1, #1
 912 0186 0423     		movs	r3, #4
 913 0188 89B2     		uxth	r1, r1
 914 018a 4848     		ldr	r0, .L57+40
 915 018c CDF800B0 		str	fp, [sp, #0]
 916 0190 CDF804B0 		str	fp, [sp, #4]
 917 0194 CDF808C0 		str	ip, [sp, #8]
 918 0198 FFF7FEFF 		bl	i2cMasterTransmitTimeout
 919 019c 40F2000E 		movw	lr, #:lower16:.LANCHOR21
 920 01a0 0346     		mov	r3, r0
 921 01a2 C0F2000E 		movt	lr, #:upper16:.LANCHOR21
 922              		.loc 1 99 0
 923 01a6 4048     		ldr	r0, .L57+36
 924              		.loc 1 93 0
 925 01a8 CEF80030 		str	r3, [lr, #0]
 926              		.loc 1 97 0
 927 01ac 002B     		cmp	r3, #0
 928 01ae 83D0     		beq	.L55
 929              	.L46:
 930              		.loc 1 122 0
 931 01b0 0720     		movs	r0, #7
 932 01b2 FFF7FEFF 		bl	setLeds
 933              		.loc 1 123 0
 934 01b6 3D48     		ldr	r0, .L57+40
 935 01b8 FFF7FEFF 		bl	i2cStop
 936              		.loc 1 124 0
 937 01bc 0520     		movs	r0, #5
 938 01be FFF7FEFF 		bl	chThdSleep
 939              		.loc 1 125 0
 940 01c2 3A48     		ldr	r0, .L57+40
 941 01c4 3A49     		ldr	r1, .L57+44
 942 01c6 FFF7FEFF 		bl	i2cStart
 943              		.loc 1 80 0
 944 01ca 3B78     		ldrb	r3, [r7, #0]	@ zero_extendqisi2
 945 01cc 0133     		adds	r3, r3, #1
 946 01ce DBB2     		uxtb	r3, r3
 947 01d0 5AB2     		sxtb	r2, r3
 948 01d2 012A     		cmp	r2, #1
 949 01d4 3B70     		strb	r3, [r7, #0]
 950 01d6 BADD     		ble	.L47
 951              	.L54:
 952              		.loc 1 136 0
 953 01d8 FFF7FEFF 		bl	i2cIo
 954              		.loc 1 138 0
 955 01dc 0520     		movs	r0, #5
 956 01de FFF7FEFF 		bl	chThdSleep
 957              	.LBE12:
 958              	.LBE18:
ARM GAS  C:\Users\z80\AppData\Local\Temp\cc4XZ4SR.s 			page 18


 959              		.loc 1 192 0
 960 01e2 28E7     		b	.L48
 961              	.L42:
 962              	.LBB19:
 963              	.LBB14:
 964              		.loc 1 144 0
 965 01e4 334F     		ldr	r7, .L57+48
 966 01e6 DFF8D0B0 		ldr	fp, .L57+52
 967 01ea 3970     		strb	r1, [r7, #0]
 968              		.loc 1 147 0
 969 01ec FFF7FEFF 		bl	valueRead
 970              		.loc 1 150 0
 971 01f0 DFF8C8A0 		ldr	sl, .L57+56
 972              		.loc 1 147 0
 973 01f4 3060     		str	r0, [r6, #0]
 974              		.loc 1 150 0
 975 01f6 4FF00409 		mov	r9, #4
 976              	.L50:
 977 01fa 40F2000E 		movw	lr, #:lower16:.LANCHOR15
 978 01fe C0F2000E 		movt	lr, #:upper16:.LANCHOR15
 979 0202 3978     		ldrb	r1, [r7, #0]	@ zero_extendqisi2
 980 0204 D8F800C0 		ldr	ip, [r8, #0]
 981 0208 CDF800E0 		str	lr, [sp, #0]
 982 020c 40F2000E 		movw	lr, #:lower16:i2cTxCb
 983 0210 C0F2000E 		movt	lr, #:upper16:i2cTxCb
 984 0214 234A     		ldr	r2, .L57+32
 985 0216 4B46     		mov	r3, r9
 986 0218 2448     		ldr	r0, .L57+40
 987 021a CDF80490 		str	r9, [sp, #4]
 988 021e CDF808B0 		str	fp, [sp, #8]
 989 0222 CDF80CE0 		str	lr, [sp, #12]
 990 0226 CDF810C0 		str	ip, [sp, #16]
 991 022a FFF7FEFF 		bl	i2cSlaveIoTimeout
 992 022e 40F20001 		movw	r1, #:lower16:.LANCHOR21
 993 0232 C0F20001 		movt	r1, #:upper16:.LANCHOR21
 994 0236 0860     		str	r0, [r1, #0]
 995              		.loc 1 154 0
 996 0238 C0B9     		cbnz	r0, .L56
 997              	.L49:
 998              		.loc 1 162 0
 999 023a 0020     		movs	r0, #0
 1000 023c FFF7FEFF 		bl	setLeds
 1001              	.L51:
 1002              		.loc 1 171 0 discriminator 1
 1003 0240 0520     		movs	r0, #5
 1004 0242 FFF7FEFF 		bl	chThdSleep
 1005              		.loc 1 172 0 discriminator 1
 1006 0246 FFF7FEFF 		bl	valueRead
 1007              	.LBB15:
 1008              		.loc 1 173 0 discriminator 1
 1009 024a 2023     		movs	r3, #32
 1010              	.LVL35:
 1011              	.LBE15:
 1012              		.loc 1 172 0 discriminator 1
 1013 024c 2060     		str	r0, [r4, #0]
 1014              	.LBB16:
 1015              		.loc 1 173 0 discriminator 1
ARM GAS  C:\Users\z80\AppData\Local\Temp\cc4XZ4SR.s 			page 19


 1016              	@ 173 "./src/i2c_ctrl.c" 1
 1017 024e 83F31188 		msr     BASEPRI, r3
 1018              	@ 0 "" 2
 1019              	.LVL36:
 1020              		.thumb
 1021              	.LBE16:
 1022 0252 FFF7FEFF 		bl	dbg_check_lock
 1023              	.LVL37:
 1024              		.loc 1 174 0 discriminator 1
 1025 0256 2368     		ldr	r3, [r4, #0]
 1026 0258 3360     		str	r3, [r6, #0]
 1027              		.loc 1 175 0 discriminator 1
 1028 025a FFF7FEFF 		bl	dbg_check_unlock
 1029              	.LBB17:
 1030 025e 0023     		movs	r3, #0
 1031              	.LVL38:
 1032              	@ 175 "./src/i2c_ctrl.c" 1
 1033 0260 83F31188 		msr     BASEPRI, r3
 1034              	@ 0 "" 2
 1035              	.LVL39:
 1036              		.thumb
 1037              	.LBE17:
 1038              		.loc 1 176 0 discriminator 1
 1039 0264 2868     		ldr	r0, [r5, #0]
 1040 0266 FFF7FEFF 		bl	write
 1041              	.LVL40:
 1042 026a E9E7     		b	.L51
 1043              	.L56:
 1044              		.loc 1 156 0
 1045 026c 0F48     		ldr	r0, .L57+40
 1046 026e 1049     		ldr	r1, .L57+44
 1047 0270 FFF7FEFF 		bl	i2cStart
 1048              		.loc 1 157 0
 1049 0274 0720     		movs	r0, #7
 1050 0276 FFF7FEFF 		bl	setLeds
 1051              		.loc 1 159 0
 1052 027a DAF80030 		ldr	r3, [sl, #0]
 1053 027e 002B     		cmp	r3, #0
 1054 0280 BBD1     		bne	.L50
 1055 0282 DAE7     		b	.L49
 1056              	.L58:
 1057              		.align	2
 1058              	.L57:
 1059 0284 00000000 		.word	rlist
 1060 0288 40000000 		.word	.LC6
 1061 028c 00000000 		.word	.LANCHOR15
 1062 0290 00000000 		.word	.LANCHOR18
 1063 0294 00000000 		.word	.LANCHOR19
 1064 0298 00000000 		.word	.LANCHOR1
 1065 029c 00000000 		.word	.LANCHOR16
 1066 02a0 00000000 		.word	.LANCHOR2
 1067 02a4 00000000 		.word	.LANCHOR20
 1068 02a8 00000000 		.word	.LANCHOR4
 1069 02ac 00000000 		.word	I2CD1
 1070 02b0 00000000 		.word	.LANCHOR0
 1071 02b4 00000000 		.word	.LANCHOR22
 1072 02b8 00000000 		.word	i2cRxCb
ARM GAS  C:\Users\z80\AppData\Local\Temp\cc4XZ4SR.s 			page 20


 1073 02bc 00000000 		.word	.LANCHOR21
 1074              	.LBE14:
 1075              	.LBE19:
 1076              		.cfi_endproc
 1077              	.LFE64:
 1078              		.size	i2cThread, .-i2cThread
 1079              		.section	.text.i2cSetStatus,"ax",%progbits
 1080              		.align	2
 1081              		.p2align 4,,15
 1082              		.global	i2cSetStatus
 1083              		.thumb
 1084              		.thumb_func
 1085              		.type	i2cSetStatus, %function
 1086              	i2cSetStatus:
 1087              	.LFB73:
 1088              		.loc 1 385 0
 1089              		.cfi_startproc
 1090              		@ args = 0, pretend = 0, frame = 0
 1091              		@ frame_needed = 0, uses_anonymous_args = 0
 1092              	.LVL41:
 1093              		.loc 1 386 0
 1094 0000 40F20003 		movw	r3, #:lower16:.LANCHOR4
 1095 0004 C0F20003 		movt	r3, #:upper16:.LANCHOR4
 1096              		.loc 1 385 0
 1097 0008 10B5     		push	{r4, lr}
 1098              	.LCFI14:
 1099              		.cfi_def_cfa_offset 8
 1100              		.loc 1 385 0
 1101 000a 0446     		mov	r4, r0
 1102              		.cfi_offset 14, -4
 1103              		.cfi_offset 4, -8
 1104              		.loc 1 386 0
 1105 000c 1846     		mov	r0, r3
 1106              	.LVL42:
 1107 000e FFF7FEFF 		bl	chMtxLock
 1108              		.loc 1 387 0
 1109 0012 40F20003 		movw	r3, #:lower16:.LANCHOR9
 1110 0016 C0F20003 		movt	r3, #:upper16:.LANCHOR9
 1111 001a 1C70     		strb	r4, [r3, #0]
 1112              		.loc 1 388 0
 1113 001c FFF7FEFF 		bl	chMtxUnlock
 1114              		.loc 1 389 0
 1115 0020 10BD     		pop	{r4, pc}
 1116              		.cfi_endproc
 1117              	.LFE73:
 1118              		.size	i2cSetStatus, .-i2cSetStatus
 1119 0022 00BFAFF3 		.section	.text.i2cStatus,"ax",%progbits
 1119      0080AFF3 
 1119      0080AFF3 
 1119      0080
 1120              		.align	2
 1121              		.p2align 4,,15
 1122              		.global	i2cStatus
 1123              		.thumb
 1124              		.thumb_func
 1125              		.type	i2cStatus, %function
 1126              	i2cStatus:
ARM GAS  C:\Users\z80\AppData\Local\Temp\cc4XZ4SR.s 			page 21


 1127              	.LFB74:
 1128              		.loc 1 392 0
 1129              		.cfi_startproc
 1130              		@ args = 0, pretend = 0, frame = 0
 1131              		@ frame_needed = 0, uses_anonymous_args = 0
 1132              		.loc 1 393 0
 1133 0000 40F20000 		movw	r0, #:lower16:.LANCHOR4
 1134              		.loc 1 392 0
 1135 0004 10B5     		push	{r4, lr}
 1136              	.LCFI15:
 1137              		.cfi_def_cfa_offset 8
 1138              		.loc 1 393 0
 1139 0006 C0F20000 		movt	r0, #:upper16:.LANCHOR4
 1140              		.cfi_offset 14, -4
 1141              		.cfi_offset 4, -8
 1142 000a FFF7FEFF 		bl	chMtxLock
 1143              		.loc 1 395 0
 1144 000e 40F20003 		movw	r3, #:lower16:.LANCHOR9
 1145 0012 C0F20003 		movt	r3, #:upper16:.LANCHOR9
 1146 0016 1B78     		ldrb	r3, [r3, #0]	@ zero_extendqisi2
 1147 0018 40F20004 		movw	r4, #:lower16:.LANCHOR23
 1148 001c C0F20004 		movt	r4, #:upper16:.LANCHOR23
 1149 0020 2370     		strb	r3, [r4, #0]
 1150              		.loc 1 396 0
 1151 0022 FFF7FEFF 		bl	chMtxUnlock
 1152 0026 2078     		ldrb	r0, [r4, #0]	@ zero_extendqisi2
 1153              		.loc 1 398 0
 1154 0028 10BD     		pop	{r4, pc}
 1155              		.cfi_endproc
 1156              	.LFE74:
 1157              		.size	i2cStatus, .-i2cStatus
 1158 002a 00BFAFF3 		.section	.text.i2cBuf,"ax",%progbits
 1158      0080
 1159              		.align	2
 1160              		.p2align 4,,15
 1161              		.global	i2cBuf
 1162              		.thumb
 1163              		.thumb_func
 1164              		.type	i2cBuf, %function
 1165              	i2cBuf:
 1166              	.LFB75:
 1167              		.loc 1 401 0
 1168              		.cfi_startproc
 1169              		@ args = 0, pretend = 0, frame = 0
 1170              		@ frame_needed = 0, uses_anonymous_args = 0
 1171              		@ link register save eliminated.
 1172              	.LVL43:
 1173              		.loc 1 402 0
 1174 0000 40F20003 		movw	r3, #:lower16:.LANCHOR14
 1175 0004 C0F20003 		movt	r3, #:upper16:.LANCHOR14
 1176              		.loc 1 401 0
 1177 0008 185C     		ldrb	r0, [r3, r0]	@ zero_extendqisi2
 1178              	.LVL44:
 1179              		.loc 1 403 0
 1180 000a 7047     		bx	lr
 1181              		.cfi_endproc
 1182              	.LFE75:
ARM GAS  C:\Users\z80\AppData\Local\Temp\cc4XZ4SR.s 			page 22


 1183              		.size	i2cBuf, .-i2cBuf
 1184 000c AFF30080 		.section	.text.i2c_set_addr,"ax",%progbits
 1185              		.align	2
 1186              		.p2align 4,,15
 1187              		.global	i2c_set_addr
 1188              		.thumb
 1189              		.thumb_func
 1190              		.type	i2c_set_addr, %function
 1191              	i2c_set_addr:
 1192              	.LFB76:
 1193              		.loc 1 408 0
 1194              		.cfi_startproc
 1195              		@ args = 0, pretend = 0, frame = 0
 1196              		@ frame_needed = 0, uses_anonymous_args = 0
 1197              	.LVL45:
 1198              		.loc 1 409 0
 1199 0000 0029     		cmp	r1, #0
 1200              		.loc 1 408 0
 1201 0002 10B5     		push	{r4, lr}
 1202              	.LCFI16:
 1203              		.cfi_def_cfa_offset 8
 1204              		.loc 1 408 0
 1205 0004 0446     		mov	r4, r0
 1206              		.cfi_offset 14, -4
 1207              		.cfi_offset 4, -8
 1208              		.loc 1 409 0
 1209 0006 0CDD     		ble	.L63
 1210              	.LBB20:
 1211              		.loc 1 412 0
 1212 0008 1068     		ldr	r0, [r2, #0]
 1213              	.LVL46:
 1214 000a FFF7FEFF 		bl	atoi
 1215              	.LVL47:
 1216 000e 074B     		ldr	r3, .L65
 1217 0010 C0B2     		uxtb	r0, r0
 1218 0012 1870     		strb	r0, [r3, #0]
 1219              	.LVL48:
 1220              	.LBB21:
 1221              	.LBB22:
 1222              		.loc 1 303 0
 1223 0014 064B     		ldr	r3, .L65+4
 1224              	.LBE22:
 1225              	.LBE21:
 1226              		.loc 1 414 0
 1227 0016 0749     		ldr	r1, .L65+8
 1228              	.LBB24:
 1229              	.LBB23:
 1230              		.loc 1 303 0
 1231 0018 1870     		strb	r0, [r3, #0]
 1232              	.LBE23:
 1233              	.LBE24:
 1234              		.loc 1 414 0
 1235 001a 2046     		mov	r0, r4
 1236              	.LVL49:
 1237 001c FFF7FEFF 		bl	chprintf
 1238              	.L62:
 1239              	.LBE20:
ARM GAS  C:\Users\z80\AppData\Local\Temp\cc4XZ4SR.s 			page 23


 1240              		.loc 1 418 0
 1241 0020 10BD     		pop	{r4, pc}
 1242              	.LVL50:
 1243              	.L63:
 1244              		.loc 1 417 0
 1245 0022 0549     		ldr	r1, .L65+12
 1246              	.LVL51:
 1247 0024 FFF7FEFF 		bl	chprintf
 1248              	.LVL52:
 1249 0028 FAE7     		b	.L62
 1250              	.L66:
 1251 002a 00BF     		.align	2
 1252              	.L65:
 1253 002c 00000000 		.word	.LANCHOR24
 1254 0030 00000000 		.word	.LANCHOR6
 1255 0034 44000000 		.word	.LC7
 1256 0038 54000000 		.word	.LC8
 1257              		.cfi_endproc
 1258              	.LFE76:
 1259              		.size	i2c_set_addr, .-i2c_set_addr
 1260 003c AFF30080 		.section	.text.i2c_set_buf,"ax",%progbits
 1261              		.align	2
 1262              		.p2align 4,,15
 1263              		.global	i2c_set_buf
 1264              		.thumb
 1265              		.thumb_func
 1266              		.type	i2c_set_buf, %function
 1267              	i2c_set_buf:
 1268              	.LFB77:
 1269              		.loc 1 421 0
 1270              		.cfi_startproc
 1271              		@ args = 0, pretend = 0, frame = 0
 1272              		@ frame_needed = 0, uses_anonymous_args = 0
 1273              	.LVL53:
 1274              		.loc 1 422 0
 1275 0000 0029     		cmp	r1, #0
 1276              		.loc 1 421 0
 1277 0002 2DE9F047 		push	{r4, r5, r6, r7, r8, r9, sl, lr}
 1278              	.LCFI17:
 1279              		.cfi_def_cfa_offset 32
 1280              		.loc 1 421 0
 1281 0006 0C46     		mov	r4, r1
 1282              		.cfi_offset 14, -4
 1283              		.cfi_offset 10, -8
 1284              		.cfi_offset 9, -12
 1285              		.cfi_offset 8, -16
 1286              		.cfi_offset 7, -20
 1287              		.cfi_offset 6, -24
 1288              		.cfi_offset 5, -28
 1289              		.cfi_offset 4, -32
 1290 0008 0546     		mov	r5, r0
 1291 000a 1746     		mov	r7, r2
 1292              		.loc 1 422 0
 1293 000c 2ADD     		ble	.L68
 1294              	.LBB25:
 1295              		.loc 1 425 0
 1296 000e 1068     		ldr	r0, [r2, #0]
ARM GAS  C:\Users\z80\AppData\Local\Temp\cc4XZ4SR.s 			page 24


 1297              	.LVL54:
 1298 0010 FFF7FEFF 		bl	atoi
 1299              	.LVL55:
 1300 0014 DFF85480 		ldr	r8, .L73
 1301              		.loc 1 427 0
 1302 0018 154E     		ldr	r6, .L73+4
 1303 001a 0023     		movs	r3, #0
 1304 001c 14F1FF34 		adds	r4, r4, #-1
 1305              	.LVL56:
 1306              		.loc 1 425 0
 1307 0020 88F80000 		strb	r0, [r8, #0]
 1308              		.loc 1 427 0
 1309 0024 3370     		strb	r3, [r6, #0]
 1310 0026 17D0     		beq	.L69
 1311 0028 DFF84890 		ldr	r9, .L73+8
 1312 002c DFF848A0 		ldr	sl, .L73+12
 1313              	.L70:
 1314              	.LBB26:
 1315              		.loc 1 430 0 discriminator 2
 1316 0030 0133     		adds	r3, r3, #1
 1317 0032 57F82300 		ldr	r0, [r7, r3, lsl #2]
 1318 0036 FFF7FEFF 		bl	atoi
 1319              		.loc 1 431 0 discriminator 2
 1320 003a 3278     		ldrb	r2, [r6, #0]	@ zero_extendqisi2
 1321              	.LVL57:
 1322 003c 98F80010 		ldrb	r1, [r8, #0]	@ zero_extendqisi2
 1323              	.LBE26:
 1324              		.loc 1 427 0 discriminator 2
 1325 0040 531C     		adds	r3, r2, #1
 1326 0042 DBB2     		uxtb	r3, r3
 1327              	.LBB31:
 1328              		.loc 1 431 0 discriminator 2
 1329 0044 5218     		adds	r2, r2, r1
 1330              	.LVL58:
 1331              		.loc 1 430 0 discriminator 2
 1332 0046 C0B2     		uxtb	r0, r0
 1333              	.LVL59:
 1334              	.LBB27:
 1335              	.LBB28:
 1336              		.loc 1 308 0 discriminator 2
 1337 0048 D2B2     		uxtb	r2, r2
 1338              	.LBE28:
 1339              	.LBE27:
 1340              	.LBE31:
 1341              		.loc 1 427 0 discriminator 2
 1342 004a A342     		cmp	r3, r4
 1343              	.LBB32:
 1344              		.loc 1 430 0 discriminator 2
 1345 004c 89F80000 		strb	r0, [r9, #0]
 1346              	.LBB30:
 1347              	.LBB29:
 1348              		.loc 1 308 0 discriminator 2
 1349 0050 0AF80200 		strb	r0, [sl, r2]
 1350              	.LBE29:
 1351              	.LBE30:
 1352              	.LBE32:
 1353              		.loc 1 427 0 discriminator 2
ARM GAS  C:\Users\z80\AppData\Local\Temp\cc4XZ4SR.s 			page 25


 1354 0054 3370     		strb	r3, [r6, #0]
 1355 0056 EBDB     		blt	.L70
 1356              	.LVL60:
 1357              	.L69:
 1358              		.loc 1 433 0
 1359 0058 2846     		mov	r0, r5
 1360 005a 0849     		ldr	r1, .L73+16
 1361 005c FFF7FEFF 		bl	chprintf
 1362              	.LVL61:
 1363              	.L67:
 1364              	.LBE25:
 1365              		.loc 1 437 0
 1366 0060 BDE8F087 		pop	{r4, r5, r6, r7, r8, r9, sl, pc}
 1367              	.LVL62:
 1368              	.L68:
 1369              		.loc 1 436 0
 1370 0064 0649     		ldr	r1, .L73+20
 1371              	.LVL63:
 1372 0066 FFF7FEFF 		bl	chprintf
 1373 006a F9E7     		b	.L67
 1374              	.L74:
 1375              		.align	2
 1376              	.L73:
 1377 006c 00000000 		.word	.LANCHOR25
 1378 0070 00000000 		.word	.LANCHOR26
 1379 0074 00000000 		.word	.LANCHOR27
 1380 0078 00000000 		.word	.LANCHOR7
 1381 007c 68000000 		.word	.LC9
 1382 0080 1C000000 		.word	.LC4
 1383              		.cfi_endproc
 1384              	.LFE77:
 1385              		.size	i2c_set_buf, .-i2c_set_buf
 1386 0084 AFF30080 		.section	.text.i2c_io,"ax",%progbits
 1386      AFF30080 
 1386      AFF30080 
 1387              		.align	2
 1388              		.p2align 4,,15
 1389              		.global	i2c_io
 1390              		.thumb
 1391              		.thumb_func
 1392              		.type	i2c_io, %function
 1393              	i2c_io:
 1394              	.LFB78:
 1395              		.loc 1 440 0
 1396              		.cfi_startproc
 1397              		@ args = 0, pretend = 0, frame = 0
 1398              		@ frame_needed = 0, uses_anonymous_args = 0
 1399              	.LVL64:
 1400              		.loc 1 441 0
 1401 0000 0129     		cmp	r1, #1
 1402              		.loc 1 440 0
 1403 0002 70B5     		push	{r4, r5, r6, lr}
 1404              	.LCFI18:
 1405              		.cfi_def_cfa_offset 16
 1406              		.loc 1 440 0
 1407 0004 0446     		mov	r4, r0
 1408              		.cfi_offset 14, -4
ARM GAS  C:\Users\z80\AppData\Local\Temp\cc4XZ4SR.s 			page 26


 1409              		.cfi_offset 6, -8
 1410              		.cfi_offset 5, -12
 1411              		.cfi_offset 4, -16
 1412 0006 1546     		mov	r5, r2
 1413              		.loc 1 441 0
 1414 0008 14DD     		ble	.L76
 1415              		.loc 1 443 0
 1416 000a 1068     		ldr	r0, [r2, #0]
 1417              	.LVL65:
 1418 000c FFF7FEFF 		bl	atoi
 1419              	.LVL66:
 1420 0010 0A4E     		ldr	r6, .L78
 1421 0012 3070     		strb	r0, [r6, #0]
 1422              		.loc 1 444 0
 1423 0014 6868     		ldr	r0, [r5, #4]
 1424 0016 FFF7FEFF 		bl	atoi
 1425 001a 094D     		ldr	r5, .L78+4
 1426              	.LVL67:
 1427 001c 0346     		mov	r3, r0
 1428 001e 2B70     		strb	r3, [r5, #0]
 1429              		.loc 1 447 0
 1430 0020 0120     		movs	r0, #1
 1431 0022 FFF7FEFF 		bl	i2cSetStatus
 1432              		.loc 1 448 0
 1433 0026 3278     		ldrb	r2, [r6, #0]	@ zero_extendqisi2
 1434 0028 2B78     		ldrb	r3, [r5, #0]	@ zero_extendqisi2
 1435 002a 2046     		mov	r0, r4
 1436 002c 0549     		ldr	r1, .L78+8
 1437 002e FFF7FEFF 		bl	chprintf
 1438              	.L75:
 1439              		.loc 1 452 0
 1440 0032 70BD     		pop	{r4, r5, r6, pc}
 1441              	.LVL68:
 1442              	.L76:
 1443              		.loc 1 451 0
 1444 0034 0449     		ldr	r1, .L78+12
 1445              	.LVL69:
 1446 0036 FFF7FEFF 		bl	chprintf
 1447              	.LVL70:
 1448 003a FAE7     		b	.L75
 1449              	.L79:
 1450              		.align	2
 1451              	.L78:
 1452 003c 00000000 		.word	.LANCHOR11
 1453 0040 00000000 		.word	.LANCHOR13
 1454 0044 78000000 		.word	.LC10
 1455 0048 1C000000 		.word	.LC4
 1456              		.cfi_endproc
 1457              	.LFE78:
 1458              		.size	i2c_io, .-i2c_io
 1459 004c AFF30080 		.section	.text.i2c_status,"ax",%progbits
 1460              		.align	2
 1461              		.p2align 4,,15
 1462              		.global	i2c_status
 1463              		.thumb
 1464              		.thumb_func
 1465              		.type	i2c_status, %function
ARM GAS  C:\Users\z80\AppData\Local\Temp\cc4XZ4SR.s 			page 27


 1466              	i2c_status:
 1467              	.LFB79:
 1468              		.loc 1 455 0
 1469              		.cfi_startproc
 1470              		@ args = 0, pretend = 0, frame = 0
 1471              		@ frame_needed = 0, uses_anonymous_args = 0
 1472              	.LVL71:
 1473 0000 10B5     		push	{r4, lr}
 1474              	.LCFI19:
 1475              		.cfi_def_cfa_offset 8
 1476              		.loc 1 455 0
 1477 0002 0446     		mov	r4, r0
 1478              		.cfi_offset 14, -4
 1479              		.cfi_offset 4, -8
 1480              		.loc 1 459 0
 1481 0004 FFF7FEFF 		bl	i2cStatus
 1482              	.LVL72:
 1483 0008 40F20003 		movw	r3, #:lower16:.LANCHOR28
 1484 000c C0F20003 		movt	r3, #:upper16:.LANCHOR28
 1485              		.loc 1 460 0
 1486 0010 40F20001 		movw	r1, #:lower16:.LC11
 1487              		.loc 1 459 0
 1488 0014 0246     		mov	r2, r0
 1489 0016 1870     		strb	r0, [r3, #0]
 1490              		.loc 1 460 0
 1491 0018 C0F20001 		movt	r1, #:upper16:.LC11
 1492 001c 2046     		mov	r0, r4
 1493 001e FFF7FEFF 		bl	chprintf
 1494              		.loc 1 461 0
 1495 0022 10BD     		pop	{r4, pc}
 1496              		.cfi_endproc
 1497              	.LFE79:
 1498              		.size	i2c_status, .-i2c_status
 1499 0024 AFF30080 		.section	.text.i2c_buffer,"ax",%progbits
 1499      AFF30080 
 1499      AFF30080 
 1500              		.align	2
 1501              		.p2align 4,,15
 1502              		.global	i2c_buffer
 1503              		.thumb
 1504              		.thumb_func
 1505              		.type	i2c_buffer, %function
 1506              	i2c_buffer:
 1507              	.LFB80:
 1508              		.loc 1 464 0
 1509              		.cfi_startproc
 1510              		@ args = 0, pretend = 0, frame = 0
 1511              		@ frame_needed = 0, uses_anonymous_args = 0
 1512              	.LVL73:
 1513              		.loc 1 465 0
 1514 0000 0029     		cmp	r1, #0
 1515              		.loc 1 464 0
 1516 0002 F8B5     		push	{r3, r4, r5, r6, r7, lr}
 1517              	.LCFI20:
 1518              		.cfi_def_cfa_offset 24
 1519              		.loc 1 464 0
 1520 0004 0546     		mov	r5, r0
ARM GAS  C:\Users\z80\AppData\Local\Temp\cc4XZ4SR.s 			page 28


 1521              		.cfi_offset 14, -4
 1522              		.cfi_offset 7, -8
 1523              		.cfi_offset 6, -12
 1524              		.cfi_offset 5, -16
 1525              		.cfi_offset 4, -20
 1526              		.cfi_offset 3, -24
 1527              		.loc 1 465 0
 1528 0006 20DD     		ble	.L82
 1529              	.LBB33:
 1530              		.loc 1 468 0
 1531 0008 1068     		ldr	r0, [r2, #0]
 1532              	.LVL74:
 1533 000a FFF7FEFF 		bl	atoi
 1534              	.LVL75:
 1535 000e 114E     		ldr	r6, .L87
 1536 0010 0346     		mov	r3, r0
 1537              		.loc 1 470 0
 1538 0012 1149     		ldr	r1, .L87+4
 1539 0014 2846     		mov	r0, r5
 1540              		.loc 1 468 0
 1541 0016 3370     		strb	r3, [r6, #0]
 1542              		.loc 1 471 0
 1543 0018 104C     		ldr	r4, .L87+8
 1544              		.loc 1 470 0
 1545 001a FFF7FEFF 		bl	chprintf
 1546              		.loc 1 471 0
 1547 001e 3278     		ldrb	r2, [r6, #0]	@ zero_extendqisi2
 1548 0020 0023     		movs	r3, #0
 1549 0022 2370     		strb	r3, [r4, #0]
 1550 0024 62B1     		cbz	r2, .L83
 1551 0026 0E4F     		ldr	r7, .L87+12
 1552              	.L84:
 1553              		.loc 1 472 0 discriminator 2
 1554 0028 FA5C     		ldrb	r2, [r7, r3]	@ zero_extendqisi2
 1555 002a 2846     		mov	r0, r5
 1556 002c 0D49     		ldr	r1, .L87+16
 1557 002e FFF7FEFF 		bl	chprintf
 1558              		.loc 1 471 0 discriminator 2
 1559 0032 2378     		ldrb	r3, [r4, #0]	@ zero_extendqisi2
 1560 0034 3278     		ldrb	r2, [r6, #0]	@ zero_extendqisi2
 1561 0036 0133     		adds	r3, r3, #1
 1562 0038 DBB2     		uxtb	r3, r3
 1563 003a 9A42     		cmp	r2, r3
 1564 003c 2370     		strb	r3, [r4, #0]
 1565 003e F3D8     		bhi	.L84
 1566              	.L83:
 1567              		.loc 1 473 0
 1568 0040 2846     		mov	r0, r5
 1569 0042 0949     		ldr	r1, .L87+20
 1570 0044 FFF7FEFF 		bl	chprintf
 1571              	.L81:
 1572              	.LBE33:
 1573              		.loc 1 477 0
 1574 0048 F8BD     		pop	{r3, r4, r5, r6, r7, pc}
 1575              	.LVL76:
 1576              	.L82:
 1577              		.loc 1 476 0
ARM GAS  C:\Users\z80\AppData\Local\Temp\cc4XZ4SR.s 			page 29


 1578 004a 0849     		ldr	r1, .L87+24
 1579              	.LVL77:
 1580 004c FFF7FEFF 		bl	chprintf
 1581              	.LVL78:
 1582 0050 FAE7     		b	.L81
 1583              	.L88:
 1584 0052 00BF     		.align	2
 1585              	.L87:
 1586 0054 00000000 		.word	.LANCHOR29
 1587 0058 94000000 		.word	.LC12
 1588 005c 00000000 		.word	.LANCHOR30
 1589 0060 00000000 		.word	.LANCHOR14
 1590 0064 0C000000 		.word	.LC2
 1591 0068 9C000000 		.word	.LC13
 1592 006c A4000000 		.word	.LC14
 1593              		.cfi_endproc
 1594              	.LFE80:
 1595              		.size	i2c_buffer, .-i2c_buffer
 1596              		.section	.bss.g_i2cInBuffer,"aw",%nobits
 1597              		.align	2
 1598              		.set	.LANCHOR14,. + 0
 1599              		.type	g_i2cInBuffer, %object
 1600              		.size	g_i2cInBuffer, 13
 1601              	g_i2cInBuffer:
 1602 0000 00000000 		.space	13
 1602      00000000 
 1602      00000000 
 1602      00
 1603 000d 000000   		.section	.data.g_i2cAddr,"aw",%progbits
 1604              		.set	.LANCHOR6,. + 0
 1605              		.type	g_i2cAddr, %object
 1606              		.size	g_i2cAddr, 1
 1607              	g_i2cAddr:
 1608 0000 40       		.byte	64
 1609              		.section	.bss.cnt.4255,"aw",%nobits
 1610              		.set	.LANCHOR29,. + 0
 1611              		.type	cnt.4255, %object
 1612              		.size	cnt.4255, 1
 1613              	cnt.4255:
 1614 0000 00       		.space	1
 1615              		.section	.bss.pendDataOut.4144,"aw",%nobits
 1616              		.align	2
 1617              		.set	.LANCHOR19,. + 0
 1618              		.type	pendDataOut.4144, %object
 1619              		.size	pendDataOut.4144, 4
 1620              	pendDataOut.4144:
 1621 0000 00000000 		.space	4
 1622              		.section	.bss.g_i2cRxSz,"aw",%nobits
 1623              		.set	.LANCHOR13,. + 0
 1624              		.type	g_i2cRxSz, %object
 1625              		.size	g_i2cRxSz, 1
 1626              	g_i2cRxSz:
 1627 0000 00       		.space	1
 1628              		.section	.bss.i.4234,"aw",%nobits
 1629              		.set	.LANCHOR26,. + 0
 1630              		.type	i.4234, %object
 1631              		.size	i.4234, 1
ARM GAS  C:\Users\z80\AppData\Local\Temp\cc4XZ4SR.s 			page 30


 1632              	i.4234:
 1633 0000 00       		.space	1
 1634              		.section	.bss.g_i2cTxSz,"aw",%nobits
 1635              		.set	.LANCHOR11,. + 0
 1636              		.type	g_i2cTxSz, %object
 1637              		.size	g_i2cTxSz, 1
 1638              	g_i2cTxSz:
 1639 0000 00       		.space	1
 1640              		.section	.bss.v.4235,"aw",%nobits
 1641              		.set	.LANCHOR27,. + 0
 1642              		.type	v.4235, %object
 1643              		.size	v.4235, 1
 1644              	v.4235:
 1645 0000 00       		.space	1
 1646              		.section	.bss.status.4209,"aw",%nobits
 1647              		.align	2
 1648              		.set	.LANCHOR12,. + 0
 1649              		.type	status.4209, %object
 1650              		.size	status.4209, 4
 1651              	status.4209:
 1652 0000 00000000 		.space	4
 1653              		.section	.bss.waI2c,"aw",%nobits
 1654              		.align	3
 1655              		.set	.LANCHOR5,. + 0
 1656              		.type	waI2c, %object
 1657              		.size	waI2c, 432
 1658              	waI2c:
 1659 0000 00000000 		.space	432
 1659      00000000 
 1659      00000000 
 1659      00000000 
 1659      00000000 
 1660              		.section	.bss.mutex,"aw",%nobits
 1661              		.align	2
 1662              		.set	.LANCHOR4,. + 0
 1663              		.type	mutex, %object
 1664              		.size	mutex, 16
 1665              	mutex:
 1666 0000 00000000 		.space	16
 1666      00000000 
 1666      00000000 
 1666      00000000 
 1667              		.section	.bss.ins,"aw",%nobits
 1668              		.align	2
 1669              		.set	.LANCHOR3,. + 0
 1670              		.type	ins, %object
 1671              		.size	ins, 12
 1672              	ins:
 1673 0000 00000000 		.space	12
 1673      00000000 
 1673      00000000 
 1674              		.section	.bss.tmo.4142,"aw",%nobits
 1675              		.align	2
 1676              		.set	.LANCHOR16,. + 0
 1677              		.type	tmo.4142, %object
 1678              		.size	tmo.4142, 4
 1679              	tmo.4142:
ARM GAS  C:\Users\z80\AppData\Local\Temp\cc4XZ4SR.s 			page 31


 1680 0000 00000000 		.space	4
 1681              		.section	.bss.addr.4151,"aw",%nobits
 1682              		.set	.LANCHOR22,. + 0
 1683              		.type	addr.4151, %object
 1684              		.size	addr.4151, 1
 1685              	addr.4151:
 1686 0000 00       		.space	1
 1687              		.section	.bss.res.4218,"aw",%nobits
 1688              		.set	.LANCHOR23,. + 0
 1689              		.type	res.4218, %object
 1690              		.size	res.4218, 1
 1691              	res.4218:
 1692 0000 00       		.space	1
 1693              		.section	.bss.master.4140,"aw",%nobits
 1694              		.set	.LANCHOR17,. + 0
 1695              		.type	master.4140, %object
 1696              		.size	master.4140, 1
 1697              	master.4140:
 1698 0000 00       		.space	1
 1699              		.section	.rodata.str1.4,"aMS",%progbits,1
 1700              		.align	2
 1701              	.LC0:
 1702 0000 7B256420 		.ascii	"{%d \000"
 1702      00
 1703 0005 000000   		.space	3
 1704              	.LC1:
 1705 0008 25647D00 		.ascii	"%d}\000"
 1706              	.LC2:
 1707 000c 25642000 		.ascii	"%d \000"
 1708              	.LC3:
 1709 0010 6F6B3A73 		.ascii	"ok:st<\015\012\000"
 1709      743C0D0A 
 1709      00
 1710 0019 000000   		.space	3
 1711              	.LC4:
 1712 001c 6572723A 		.ascii	"err:args expected<\015\012\000"
 1712      61726773 
 1712      20657870 
 1712      65637465 
 1712      643C0D0A 
 1713 0031 000000   		.space	3
 1714              	.LC5:
 1715 0034 6F6B3A6F 		.ascii	"ok:out<\015\012\000"
 1715      75743C0D 
 1715      0A00
 1716 003e 0000     		.space	2
 1717              	.LC6:
 1718 0040 6900     		.ascii	"i\000"
 1719 0042 0000     		.space	2
 1720              	.LC7:
 1721 0044 6F6B3A73 		.ascii	"ok:set_addr<\015\012\000"
 1721      65745F61 
 1721      6464723C 
 1721      0D0A00
 1722 0053 00       		.space	1
 1723              	.LC8:
 1724 0054 6572723A 		.ascii	"err:arg expected<\015\012\000"
ARM GAS  C:\Users\z80\AppData\Local\Temp\cc4XZ4SR.s 			page 32


 1724      61726720 
 1724      65787065 
 1724      63746564 
 1724      3C0D0A00 
 1725              	.LC9:
 1726 0068 6F6B3A73 		.ascii	"ok:set_buf<\015\012\000"
 1726      65745F62 
 1726      75663C0D 
 1726      0A00
 1727 0076 0000     		.space	2
 1728              	.LC10:
 1729 0078 6F6B3A69 		.ascii	"ok:io %d %d<\015\012\000"
 1729      6F202564 
 1729      2025643C 
 1729      0D0A00
 1730 0087 00       		.space	1
 1731              	.LC11:
 1732 0088 6F6B3A7B 		.ascii	"ok:{%d}<\015\012\000"
 1732      25647D3C 
 1732      0D0A00
 1733 0093 00       		.space	1
 1734              	.LC12:
 1735 0094 6F6B3A7B 		.ascii	"ok:{\000"
 1735      00
 1736 0099 000000   		.space	3
 1737              	.LC13:
 1738 009c 7D3C0D0A 		.ascii	"}<\015\012\000"
 1738      00
 1739 00a1 000000   		.space	3
 1740              	.LC14:
 1741 00a4 6572723A 		.ascii	"err: arg expected<\015\012\000"
 1741      20617267 
 1741      20657870 
 1741      65637465 
 1741      643C0D0A 
 1742 00b9 000000   		.section	.bss.g_i2cOutBuffer,"aw",%nobits
 1743              		.align	2
 1744              		.set	.LANCHOR7,. + 0
 1745              		.type	g_i2cOutBuffer, %object
 1746              		.size	g_i2cOutBuffer, 13
 1747              	g_i2cOutBuffer:
 1748 0000 00000000 		.space	13
 1748      00000000 
 1748      00000000 
 1748      00
 1749 000d 000000   		.section	.bss.dataOut.4143,"aw",%nobits
 1750              		.align	2
 1751              		.set	.LANCHOR20,. + 0
 1752              		.type	dataOut.4143, %object
 1753              		.size	dataOut.4143, 4
 1754              	dataOut.4143:
 1755 0000 00000000 		.space	4
 1756              		.section	.bss.dataIn.4145,"aw",%nobits
 1757              		.align	2
 1758              		.set	.LANCHOR15,. + 0
 1759              		.type	dataIn.4145, %object
 1760              		.size	dataIn.4145, 4
ARM GAS  C:\Users\z80\AppData\Local\Temp\cc4XZ4SR.s 			page 33


 1761              	dataIn.4145:
 1762 0000 00000000 		.space	4
 1763              		.section	.bss.tmo.4211,"aw",%nobits
 1764              		.align	2
 1765              		.set	.LANCHOR10,. + 0
 1766              		.type	tmo.4211, %object
 1767              		.size	tmo.4211, 4
 1768              	tmo.4211:
 1769 0000 00000000 		.space	4
 1770              		.section	.bss.outs,"aw",%nobits
 1771              		.align	2
 1772              		.set	.LANCHOR1,. + 0
 1773              		.type	outs, %object
 1774              		.size	outs, 12
 1775              	outs:
 1776 0000 00000000 		.space	12
 1776      00000000 
 1776      00000000 
 1777              		.section	.bss.v.4227,"aw",%nobits
 1778              		.set	.LANCHOR24,. + 0
 1779              		.type	v.4227, %object
 1780              		.size	v.4227, 1
 1781              	v.4227:
 1782 0000 00       		.space	1
 1783              		.section	.bss.at.4233,"aw",%nobits
 1784              		.set	.LANCHOR25,. + 0
 1785              		.type	at.4233, %object
 1786              		.size	at.4233, 1
 1787              	at.4233:
 1788 0000 00       		.space	1
 1789              		.section	.bss.st.4210,"aw",%nobits
 1790              		.set	.LANCHOR8,. + 0
 1791              		.type	st.4210, %object
 1792              		.size	st.4210, 1
 1793              	st.4210:
 1794 0000 00       		.space	1
 1795              		.section	.bss.pendOuts,"aw",%nobits
 1796              		.align	2
 1797              		.set	.LANCHOR2,. + 0
 1798              		.type	pendOuts, %object
 1799              		.size	pendOuts, 12
 1800              	pendOuts:
 1801 0000 00000000 		.space	12
 1801      00000000 
 1801      00000000 
 1802              		.section	.bss.i.4146,"aw",%nobits
 1803              		.set	.LANCHOR18,. + 0
 1804              		.type	i.4146, %object
 1805              		.size	i.4146, 1
 1806              	i.4146:
 1807 0000 00       		.space	1
 1808              		.section	.bss.i.4256,"aw",%nobits
 1809              		.set	.LANCHOR30,. + 0
 1810              		.type	i.4256, %object
 1811              		.size	i.4256, 1
 1812              	i.4256:
 1813 0000 00       		.space	1
ARM GAS  C:\Users\z80\AppData\Local\Temp\cc4XZ4SR.s 			page 34


 1814              		.section	.bss.res.4249,"aw",%nobits
 1815              		.set	.LANCHOR28,. + 0
 1816              		.type	res.4249, %object
 1817              		.size	res.4249, 1
 1818              	res.4249:
 1819 0000 00       		.space	1
 1820              		.section	.bss.status.4141,"aw",%nobits
 1821              		.align	2
 1822              		.set	.LANCHOR21,. + 0
 1823              		.type	status.4141, %object
 1824              		.size	status.4141, 4
 1825              	status.4141:
 1826 0000 00000000 		.space	4
 1827              		.section	.bss.g_i2cStatus,"aw",%nobits
 1828              		.set	.LANCHOR9,. + 0
 1829              		.type	g_i2cStatus, %object
 1830              		.size	g_i2cStatus, 1
 1831              	g_i2cStatus:
 1832 0000 00       		.space	1
 1833              		.section	.rodata.i2cfg1,"a",%progbits
 1834              		.align	2
 1835              		.set	.LANCHOR0,. + 0
 1836              		.type	i2cfg1, %object
 1837              		.size	i2cfg1, 12
 1838              	i2cfg1:
 1839 0000 01       		.byte	1
 1840 0001 000000   		.space	3
 1841 0004 A0860100 		.word	100000
 1842 0008 01       		.byte	1
 1843 0009 000000   		.space	3
 1844              		.text
 1845              	.Letext0: