ARM GAS  C:\Users\z80\AppData\Local\Temp\ccHBr3N4.s 			page 1


   1              		.syntax unified
   2              		.cpu cortex-m3
   3              		.fpu softvfp
   4              		.eabi_attribute 20, 1
   5              		.eabi_attribute 21, 1
   6              		.eabi_attribute 23, 3
   7              		.eabi_attribute 24, 1
   8              		.eabi_attribute 25, 1
   9              		.eabi_attribute 26, 1
  10              		.eabi_attribute 30, 6
  11              		.eabi_attribute 18, 4
  12              		.thumb
  13              		.file	"i2c_lld.c"
  14              		.section	.debug_abbrev,"",%progbits
  15              	.Ldebug_abbrev0:
  16              		.section	.debug_info,"",%progbits
  17              	.Ldebug_info0:
  18              		.section	.debug_line,"",%progbits
  19              	.Ldebug_line0:
  20 0000 9B050000 		.text
  20      02004102 
  20      00000201 
  20      FB0E0D00 
  20      01010101 
  21              	.Ltext0:
  22              		.cfi_sections	.debug_frame
  23              		.global	I2CD1
  24              		.section	.bss.I2CD1,"aw",%nobits
  25              		.align	2
  26              		.type	I2CD1, %object
  27              		.size	I2CD1, 88
  28              	I2CD1:
  29 0000 00000000 		.space	88
  29      00000000 
  29      00000000 
  29      00000000 
  29      00000000 
  30              		.section	.bss.dbgSR1,"aw",%nobits
  31              		.align	1
  32              		.type	dbgSR1, %object
  33              		.size	dbgSR1, 2
  34              	dbgSR1:
  35 0000 0000     		.space	2
  36              		.section	.bss.dbgSR2,"aw",%nobits
  37              		.align	1
  38              		.type	dbgSR2, %object
  39              		.size	dbgSR2, 2
  40              	dbgSR2:
  41 0000 0000     		.space	2
  42              		.section	.bss.dbgCR1,"aw",%nobits
  43              		.align	1
  44              		.type	dbgCR1, %object
  45              		.size	dbgCR1, 2
  46              	dbgCR1:
  47 0000 0000     		.space	2
  48              		.section	.bss.dbgCR2,"aw",%nobits
  49              		.align	1
ARM GAS  C:\Users\z80\AppData\Local\Temp\ccHBr3N4.s 			page 2


  50              		.type	dbgCR2, %object
  51              		.size	dbgCR2, 2
  52              	dbgCR2:
  53 0000 0000     		.space	2
  54              		.section	.text.i2c_lld_abort_operation,"ax",%progbits
  55              		.align	2
  56              		.p2align 4,,15
  57              		.thumb
  58              		.thumb_func
  59              		.type	i2c_lld_abort_operation, %function
  60              	i2c_lld_abort_operation:
  61              	.LFB62:
  62              		.file 1 "../chibios_2.4.x/os/hal/platforms/STM32/i2c_lld.c"
  63              		.loc 1 151 0
  64              		.cfi_startproc
  65              		@ args = 0, pretend = 0, frame = 16
  66              		@ frame_needed = 0, uses_anonymous_args = 0
  67              		@ link register save eliminated.
  68 0000 84B0     		sub	sp, sp, #16
  69              	.LCFI0:
  70              		.cfi_def_cfa_offset 16
  71 0002 0190     		str	r0, [sp, #4]
  72              		.loc 1 152 0
  73 0004 019B     		ldr	r3, [sp, #4]
  74 0006 1B6B     		ldr	r3, [r3, #48]
  75 0008 0393     		str	r3, [sp, #12]
  76              		.loc 1 155 0
  77 000a 039B     		ldr	r3, [sp, #12]
  78 000c 4FF40042 		mov	r2, #32768
  79 0010 1A80     		strh	r2, [r3, #0]	@ movhi
  80              		.loc 1 156 0
  81 0012 039B     		ldr	r3, [sp, #12]
  82 0014 4FF00002 		mov	r2, #0
  83 0018 1A80     		strh	r2, [r3, #0]	@ movhi
  84              		.loc 1 157 0
  85 001a 039B     		ldr	r3, [sp, #12]
  86 001c 4FF00002 		mov	r2, #0
  87 0020 9A80     		strh	r2, [r3, #4]	@ movhi
  88              		.loc 1 158 0
  89 0022 039B     		ldr	r3, [sp, #12]
  90 0024 4FF00002 		mov	r2, #0
  91 0028 9A82     		strh	r2, [r3, #20]	@ movhi
  92              		.loc 1 161 0
  93 002a 019B     		ldr	r3, [sp, #4]
  94 002c DB6A     		ldr	r3, [r3, #44]
  95 002e 1B68     		ldr	r3, [r3, #0]
  96 0030 019A     		ldr	r2, [sp, #4]
  97 0032 D26A     		ldr	r2, [r2, #44]
  98 0034 1268     		ldr	r2, [r2, #0]
  99 0036 1268     		ldr	r2, [r2, #0]
 100 0038 22F00102 		bic	r2, r2, #1
 101 003c 1A60     		str	r2, [r3, #0]
 102 003e 019B     		ldr	r3, [sp, #4]
 103 0040 DB6A     		ldr	r3, [r3, #44]
 104 0042 5B68     		ldr	r3, [r3, #4]
 105 0044 019A     		ldr	r2, [sp, #4]
 106 0046 D26A     		ldr	r2, [r2, #44]
ARM GAS  C:\Users\z80\AppData\Local\Temp\ccHBr3N4.s 			page 3


 107 0048 127A     		ldrb	r2, [r2, #8]	@ zero_extendqisi2
 108 004a 4FF00F01 		mov	r1, #15
 109 004e 01FA02F2 		lsl	r2, r1, r2
 110 0052 1A60     		str	r2, [r3, #0]
 111              		.loc 1 162 0
 112 0054 019B     		ldr	r3, [sp, #4]
 113 0056 9B6A     		ldr	r3, [r3, #40]
 114 0058 1B68     		ldr	r3, [r3, #0]
 115 005a 019A     		ldr	r2, [sp, #4]
 116 005c 926A     		ldr	r2, [r2, #40]
 117 005e 1268     		ldr	r2, [r2, #0]
 118 0060 1268     		ldr	r2, [r2, #0]
 119 0062 22F00102 		bic	r2, r2, #1
 120 0066 1A60     		str	r2, [r3, #0]
 121 0068 019B     		ldr	r3, [sp, #4]
 122 006a 9B6A     		ldr	r3, [r3, #40]
 123 006c 5B68     		ldr	r3, [r3, #4]
 124 006e 019A     		ldr	r2, [sp, #4]
 125 0070 926A     		ldr	r2, [r2, #40]
 126 0072 127A     		ldrb	r2, [r2, #8]	@ zero_extendqisi2
 127 0074 4FF00F01 		mov	r1, #15
 128 0078 01FA02F2 		lsl	r2, r1, r2
 129 007c 1A60     		str	r2, [r3, #0]
 130              		.loc 1 163 0
 131 007e 04B0     		add	sp, sp, #16
 132 0080 7047     		bx	lr
 133              		.cfi_endproc
 134              	.LFE62:
 135              		.size	i2c_lld_abort_operation, .-i2c_lld_abort_operation
 136 0082 00BFAFF3 		.section	.text.i2c_lld_safety_timeout,"ax",%progbits
 136      0080AFF3 
 136      0080AFF3 
 136      0080
 137              		.align	2
 138              		.p2align 4,,15
 139              		.thumb
 140              		.thumb_func
 141              		.type	i2c_lld_safety_timeout, %function
 142              	i2c_lld_safety_timeout:
 143              	.LFB63:
 144              		.loc 1 172 0
 145              		.cfi_startproc
 146              		@ args = 0, pretend = 0, frame = 16
 147              		@ frame_needed = 0, uses_anonymous_args = 0
 148 0000 00B5     		push	{lr}
 149              	.LCFI1:
 150              		.cfi_def_cfa_offset 4
 151 0002 85B0     		sub	sp, sp, #20
 152              	.LCFI2:
 153              		.cfi_def_cfa_offset 24
 154 0004 0190     		str	r0, [sp, #4]
 155              		.loc 1 173 0
 156 0006 019B     		ldr	r3, [sp, #4]
 157 0008 0393     		str	r3, [sp, #12]
 158              		.loc 1 175 0
 159 000a 039B     		ldr	r3, [sp, #12]
 160 000c DB69     		ldr	r3, [r3, #28]
ARM GAS  C:\Users\z80\AppData\Local\Temp\ccHBr3N4.s 			page 4


 161 000e 002B     		cmp	r3, #0
 162 0010 10D0     		beq	.L2
 163              		.cfi_offset 14, -4
 164              	.LBB2:
 165              		.loc 1 176 0
 166 0012 039B     		ldr	r3, [sp, #12]
 167 0014 DB69     		ldr	r3, [r3, #28]
 168 0016 0293     		str	r3, [sp, #8]
 169              		.loc 1 177 0
 170 0018 0398     		ldr	r0, [sp, #12]
 171 001a FFF7FEFF 		bl	i2c_lld_abort_operation
 172              		.loc 1 178 0
 173 001e 039B     		ldr	r3, [sp, #12]
 174 0020 4FF00002 		mov	r2, #0
 175 0024 DA61     		str	r2, [r3, #28]
 176              		.loc 1 179 0
 177 0026 029B     		ldr	r3, [sp, #8]
 178 0028 4FF0FF32 		mov	r2, #-1
 179 002c 9A62     		str	r2, [r3, #40]
 180              		.loc 1 180 0
 181 002e 0298     		ldr	r0, [sp, #8]
 182 0030 FFF7FEFF 		bl	chSchReadyI
 183              	.L2:
 184              	.LBE2:
 185              		.loc 1 182 0
 186 0034 05B0     		add	sp, sp, #20
 187 0036 00BD     		pop	{pc}
 188              		.cfi_endproc
 189              	.LFE63:
 190              		.size	i2c_lld_safety_timeout, .-i2c_lld_safety_timeout
 191 0038 AFF30080 		.section	.rodata
 191      AFF30080 
 192              		.align	2
 193              	.LC0:
 194 0000 22693263 		.ascii	"\"i2c_lld_set_clock\"()\000"
 194      5F6C6C64 
 194      5F736574 
 194      5F636C6F 
 194      636B2228 
 195 0016 0000     		.align	2
 196              	.LC1:
 197 0018 6932635F 		.ascii	"i2c_lld_set_clock(), #1\000"
 197      6C6C645F 
 197      7365745F 
 197      636C6F63 
 197      6B28292C 
 198              		.align	2
 199              	.LC2:
 200 0030 6932635F 		.ascii	"i2c_lld_set_clock(), #2\000"
 200      6C6C645F 
 200      7365745F 
 200      636C6F63 
 200      6B28292C 
 201              		.align	2
 202              	.LC3:
 203 0048 6932635F 		.ascii	"i2c_lld_set_clock(), #3\000"
 203      6C6C645F 
ARM GAS  C:\Users\z80\AppData\Local\Temp\ccHBr3N4.s 			page 5


 203      7365745F 
 203      636C6F63 
 203      6B28292C 
 204              		.align	2
 205              	.LC4:
 206 0060 6932635F 		.ascii	"i2c_lld_set_clock(), #4\000"
 206      6C6C645F 
 206      7365745F 
 206      636C6F63 
 206      6B28292C 
 207              		.align	2
 208              	.LC5:
 209 0078 6932635F 		.ascii	"i2c_lld_set_clock(), #5\000"
 209      6C6C645F 
 209      7365745F 
 209      636C6F63 
 209      6B28292C 
 210              		.align	2
 211              	.LC6:
 212 0090 6932635F 		.ascii	"i2c_lld_set_clock(), #6\000"
 212      6C6C645F 
 212      7365745F 
 212      636C6F63 
 212      6B28292C 
 213              		.align	2
 214              	.LC7:
 215 00a8 6932635F 		.ascii	"i2c_lld_set_clock(), #7\000"
 215      6C6C645F 
 215      7365745F 
 215      636C6F63 
 215      6B28292C 
 216              		.align	2
 217              	.LC8:
 218 00c0 6932635F 		.ascii	"i2c_lld_set_clock(), #8\000"
 218      6C6C645F 
 218      7365745F 
 218      636C6F63 
 218      6B28292C 
 219              		.section	.text.i2c_lld_set_clock,"ax",%progbits
 220              		.align	2
 221              		.p2align 4,,15
 222              		.thumb
 223              		.thumb_func
 224              		.type	i2c_lld_set_clock, %function
 225              	i2c_lld_set_clock:
 226              	.LFB64:
 227              		.loc 1 191 0
 228              		.cfi_startproc
 229              		@ args = 0, pretend = 0, frame = 24
 230              		@ frame_needed = 0, uses_anonymous_args = 0
 231 0000 00B5     		push	{lr}
 232              	.LCFI3:
 233              		.cfi_def_cfa_offset 4
 234 0002 87B0     		sub	sp, sp, #28
 235              	.LCFI4:
 236              		.cfi_def_cfa_offset 32
 237 0004 0190     		str	r0, [sp, #4]
ARM GAS  C:\Users\z80\AppData\Local\Temp\ccHBr3N4.s 			page 6


 238              		.loc 1 192 0
 239 0006 019B     		ldr	r3, [sp, #4]
 240 0008 1B6B     		ldr	r3, [r3, #48]
 241 000a 0493     		str	r3, [sp, #16]
 242              		.loc 1 194 0
 243 000c 019B     		ldr	r3, [sp, #4]
 244 000e 5B68     		ldr	r3, [r3, #4]
 245 0010 5B68     		ldr	r3, [r3, #4]
 246 0012 0393     		str	r3, [sp, #12]
 247              		.loc 1 195 0
 248 0014 019B     		ldr	r3, [sp, #4]
 249 0016 5B68     		ldr	r3, [r3, #4]
 250 0018 1B7A     		ldrb	r3, [r3, #8]
 251 001a 8DF80B30 		strb	r3, [sp, #11]
 252              		.loc 1 197 0
 253 001e 019B     		ldr	r3, [sp, #4]
 254 0020 002B     		cmp	r3, #0
 255 0022 09D0     		beq	.L5
 256              		.cfi_offset 14, -4
 257              		.loc 1 197 0 is_stmt 0 discriminator 2
 258 0024 039B     		ldr	r3, [sp, #12]
 259 0026 002B     		cmp	r3, #0
 260 0028 06DD     		ble	.L5
 261              		.loc 1 197 0 discriminator 3
 262 002a 039A     		ldr	r2, [sp, #12]
 263 002c 4FF41063 		mov	r3, #2304
 264 0030 C0F23D03 		movt	r3, 61
 265 0034 9A42     		cmp	r2, r3
 266 0036 05DD     		ble	.L6
 267              	.L5:
 268              		.loc 1 197 0 discriminator 1
 269 0038 40F20000 		movw	r0, #:lower16:.LC0
 270 003c C0F20000 		movt	r0, #:upper16:.LC0
 271 0040 FFF7FEFF 		bl	chDbgPanic
 272              	.L6:
 273              		.loc 1 201 0 is_stmt 1
 274 0044 049B     		ldr	r3, [sp, #16]
 275 0046 9B88     		ldrh	r3, [r3, #4]	@ movhi
 276 0048 9BB2     		uxth	r3, r3
 277 004a 23F03F03 		bic	r3, r3, #63
 278 004e 9AB2     		uxth	r2, r3
 279 0050 049B     		ldr	r3, [sp, #16]
 280 0052 9A80     		strh	r2, [r3, #4]	@ movhi
 281              		.loc 1 202 0
 282 0054 049B     		ldr	r3, [sp, #16]
 283 0056 9B88     		ldrh	r3, [r3, #4]	@ movhi
 284 0058 9BB2     		uxth	r3, r3
 285 005a 43F00C03 		orr	r3, r3, #12
 286 005e 9AB2     		uxth	r2, r3
 287 0060 049B     		ldr	r3, [sp, #16]
 288 0062 9A80     		strh	r2, [r3, #4]	@ movhi
 289              		.loc 1 205 0
 290 0064 4FF00003 		mov	r3, #0
 291 0068 ADF81630 		strh	r3, [sp, #22]	@ movhi
 292              		.loc 1 206 0
 293 006c 40F6FF73 		movw	r3, #4095
 294 0070 ADF81430 		strh	r3, [sp, #20]	@ movhi
ARM GAS  C:\Users\z80\AppData\Local\Temp\ccHBr3N4.s 			page 7


 295              		.loc 1 208 0
 296 0074 039A     		ldr	r2, [sp, #12]
 297 0076 48F2A063 		movw	r3, #34464
 298 007a C0F20103 		movt	r3, 1
 299 007e 9A42     		cmp	r2, r3
 300 0080 46DC     		bgt	.L7
 301              		.loc 1 210 0
 302 0082 9DF80B30 		ldrb	r3, [sp, #11]	@ zero_extendqisi2
 303 0086 012B     		cmp	r3, #1
 304 0088 05D0     		beq	.L8
 305              		.loc 1 210 0 is_stmt 0 discriminator 1
 306 008a 40F20000 		movw	r0, #:lower16:.LC1
 307 008e C0F20000 		movt	r0, #:upper16:.LC1
 308 0092 FFF7FEFF 		bl	chDbgPanic
 309              	.L8:
 310              		.loc 1 215 0 is_stmt 1
 311 0096 039B     		ldr	r3, [sp, #12]
 312 0098 4FEA4302 		lsl	r2, r3, #1
 313 009c 4FF4D853 		mov	r3, #6912
 314 00a0 C0F2B703 		movt	r3, 183
 315 00a4 93FBF2F1 		sdiv	r1, r3, r2
 316 00a8 02FB01F2 		mul	r2, r2, r1
 317 00ac C2EB0303 		rsb	r3, r2, r3
 318 00b0 002B     		cmp	r3, #0
 319 00b2 05D0     		beq	.L9
 320              		.loc 1 215 0 is_stmt 0 discriminator 1
 321 00b4 40F20000 		movw	r0, #:lower16:.LC2
 322 00b8 C0F20000 		movt	r0, #:upper16:.LC2
 323 00bc FFF7FEFF 		bl	chDbgPanic
 324              	.L9:
 325              		.loc 1 218 0 is_stmt 1
 326 00c0 039B     		ldr	r3, [sp, #12]
 327 00c2 4FEA4302 		lsl	r2, r3, #1
 328 00c6 4FF4D853 		mov	r3, #6912
 329 00ca C0F2B703 		movt	r3, 183
 330 00ce 93FBF2F3 		sdiv	r3, r3, r2
 331 00d2 ADF81430 		strh	r3, [sp, #20]	@ movhi
 332              		.loc 1 220 0
 333 00d6 BDF81430 		ldrh	r3, [sp, #20]
 334 00da 032B     		cmp	r3, #3
 335 00dc 05D8     		bhi	.L10
 336              		.loc 1 220 0 is_stmt 0 discriminator 1
 337 00de 40F20000 		movw	r0, #:lower16:.LC3
 338 00e2 C0F20000 		movt	r0, #:upper16:.LC3
 339 00e6 FFF7FEFF 		bl	chDbgPanic
 340              	.L10:
 341              		.loc 1 223 0 is_stmt 1
 342 00ea BDF81430 		ldrh	r3, [sp, #20]
 343 00ee 4FEA0353 		lsl	r3, r3, #20
 344 00f2 4FEA1353 		lsr	r3, r3, #20
 345 00f6 9AB2     		uxth	r2, r3
 346 00f8 BDF81630 		ldrh	r3, [sp, #22]
 347 00fc 42EA0303 		orr	r3, r2, r3
 348 0100 9BB2     		uxth	r3, r3
 349 0102 ADF81630 		strh	r3, [sp, #22]	@ movhi
 350              		.loc 1 226 0
 351 0106 049B     		ldr	r3, [sp, #16]
ARM GAS  C:\Users\z80\AppData\Local\Temp\ccHBr3N4.s 			page 8


 352 0108 4FF00D02 		mov	r2, #13
 353 010c 1A84     		strh	r2, [r3, #32]	@ movhi
 354 010e 93E0     		b	.L11
 355              	.L7:
 356              		.loc 1 228 0
 357 0110 039A     		ldr	r2, [sp, #12]
 358 0112 4FF4D453 		mov	r3, #6784
 359 0116 C0F20603 		movt	r3, 6
 360 011a 9A42     		cmp	r2, r3
 361 011c 00F38C80 		bgt	.L11
 362              		.loc 1 230 0
 363 0120 9DF80B30 		ldrb	r3, [sp, #11]	@ zero_extendqisi2
 364 0124 022B     		cmp	r3, #2
 365 0126 09D0     		beq	.L12
 366              		.loc 1 230 0 is_stmt 0 discriminator 1
 367 0128 9DF80B30 		ldrb	r3, [sp, #11]	@ zero_extendqisi2
 368 012c 032B     		cmp	r3, #3
 369 012e 05D0     		beq	.L12
 370              		.loc 1 230 0 discriminator 2
 371 0130 40F20000 		movw	r0, #:lower16:.LC4
 372 0134 C0F20000 		movt	r0, #:upper16:.LC4
 373 0138 FFF7FEFF 		bl	chDbgPanic
 374              	.L12:
 375              		.loc 1 234 0 is_stmt 1
 376 013c 9DF80B30 		ldrb	r3, [sp, #11]	@ zero_extendqisi2
 377 0140 022B     		cmp	r3, #2
 378 0142 24D1     		bne	.L13
 379              		.loc 1 236 0
 380 0144 039A     		ldr	r2, [sp, #12]
 381 0146 1346     		mov	r3, r2
 382 0148 4FEA4303 		lsl	r3, r3, #1
 383 014c 1A44     		add	r2, r3, r2
 384 014e 4FF4D853 		mov	r3, #6912
 385 0152 C0F2B703 		movt	r3, 183
 386 0156 93FBF2F1 		sdiv	r1, r3, r2
 387 015a 02FB01F2 		mul	r2, r2, r1
 388 015e C2EB0303 		rsb	r3, r2, r3
 389 0162 002B     		cmp	r3, #0
 390 0164 05D0     		beq	.L14
 391              		.loc 1 236 0 is_stmt 0 discriminator 1
 392 0166 40F20000 		movw	r0, #:lower16:.LC5
 393 016a C0F20000 		movt	r0, #:upper16:.LC5
 394 016e FFF7FEFF 		bl	chDbgPanic
 395              	.L14:
 396              		.loc 1 239 0 is_stmt 1
 397 0172 039A     		ldr	r2, [sp, #12]
 398 0174 1346     		mov	r3, r2
 399 0176 4FEA4303 		lsl	r3, r3, #1
 400 017a 1A44     		add	r2, r3, r2
 401 017c 4FF4D853 		mov	r3, #6912
 402 0180 C0F2B703 		movt	r3, 183
 403 0184 93FBF2F3 		sdiv	r3, r3, r2
 404 0188 ADF81430 		strh	r3, [sp, #20]	@ movhi
 405 018c 33E0     		b	.L15
 406              	.L13:
 407              		.loc 1 241 0
 408 018e 9DF80B30 		ldrb	r3, [sp, #11]	@ zero_extendqisi2
ARM GAS  C:\Users\z80\AppData\Local\Temp\ccHBr3N4.s 			page 9


 409 0192 032B     		cmp	r3, #3
 410 0194 2FD1     		bne	.L15
 411              		.loc 1 243 0
 412 0196 039A     		ldr	r2, [sp, #12]
 413 0198 1346     		mov	r3, r2
 414 019a 4FEA8303 		lsl	r3, r3, #2
 415 019e 1344     		add	r3, r3, r2
 416 01a0 4FEA8302 		lsl	r2, r3, #2
 417 01a4 1A44     		add	r2, r3, r2
 418 01a6 4FF4D853 		mov	r3, #6912
 419 01aa C0F2B703 		movt	r3, 183
 420 01ae 93FBF2F1 		sdiv	r1, r3, r2
 421 01b2 02FB01F2 		mul	r2, r2, r1
 422 01b6 C2EB0303 		rsb	r3, r2, r3
 423 01ba 002B     		cmp	r3, #0
 424 01bc 05D0     		beq	.L16
 425              		.loc 1 243 0 is_stmt 0 discriminator 1
 426 01be 40F20000 		movw	r0, #:lower16:.LC6
 427 01c2 C0F20000 		movt	r0, #:upper16:.LC6
 428 01c6 FFF7FEFF 		bl	chDbgPanic
 429              	.L16:
 430              		.loc 1 246 0 is_stmt 1
 431 01ca 039A     		ldr	r2, [sp, #12]
 432 01cc 1346     		mov	r3, r2
 433 01ce 4FEA8303 		lsl	r3, r3, #2
 434 01d2 1344     		add	r3, r3, r2
 435 01d4 4FEA8302 		lsl	r2, r3, #2
 436 01d8 1A44     		add	r2, r3, r2
 437 01da 4FF4D853 		mov	r3, #6912
 438 01de C0F2B703 		movt	r3, 183
 439 01e2 93FBF2F3 		sdiv	r3, r3, r2
 440 01e6 ADF81430 		strh	r3, [sp, #20]	@ movhi
 441              		.loc 1 247 0
 442 01ea BDF81630 		ldrh	r3, [sp, #22]	@ movhi
 443 01ee 43F48043 		orr	r3, r3, #16384
 444 01f2 ADF81630 		strh	r3, [sp, #22]	@ movhi
 445              	.L15:
 446              		.loc 1 250 0
 447 01f6 BDF81430 		ldrh	r3, [sp, #20]
 448 01fa 002B     		cmp	r3, #0
 449 01fc 05D1     		bne	.L17
 450              		.loc 1 250 0 is_stmt 0 discriminator 1
 451 01fe 40F20000 		movw	r0, #:lower16:.LC7
 452 0202 C0F20000 		movt	r0, #:upper16:.LC7
 453 0206 FFF7FEFF 		bl	chDbgPanic
 454              	.L17:
 455              		.loc 1 253 0 is_stmt 1
 456 020a BDF81430 		ldrh	r3, [sp, #20]
 457 020e 4FEA0353 		lsl	r3, r3, #20
 458 0212 4FEA1353 		lsr	r3, r3, #20
 459 0216 9BB2     		uxth	r3, r3
 460 0218 6FEA4343 		mvn	r3, r3, lsl #17
 461 021c 6FEA5343 		mvn	r3, r3, lsr #17
 462 0220 9AB2     		uxth	r2, r3
 463 0222 BDF81630 		ldrh	r3, [sp, #22]
 464 0226 42EA0303 		orr	r3, r2, r3
 465 022a 9BB2     		uxth	r3, r3
ARM GAS  C:\Users\z80\AppData\Local\Temp\ccHBr3N4.s 			page 10


 466 022c ADF81630 		strh	r3, [sp, #22]	@ movhi
 467              		.loc 1 256 0
 468 0230 049B     		ldr	r3, [sp, #16]
 469 0232 4FF00402 		mov	r2, #4
 470 0236 1A84     		strh	r2, [r3, #32]	@ movhi
 471              	.L11:
 472              		.loc 1 259 0
 473 0238 BDF81420 		ldrh	r2, [sp, #20]
 474 023c 40F6FF73 		movw	r3, #4095
 475 0240 9A42     		cmp	r2, r3
 476 0242 05D9     		bls	.L18
 477              		.loc 1 259 0 is_stmt 0 discriminator 1
 478 0244 40F20000 		movw	r0, #:lower16:.LC8
 479 0248 C0F20000 		movt	r0, #:upper16:.LC8
 480 024c FFF7FEFF 		bl	chDbgPanic
 481              	.L18:
 482              		.loc 1 262 0 is_stmt 1
 483 0250 049B     		ldr	r3, [sp, #16]
 484 0252 BDF81620 		ldrh	r2, [sp, #22]	@ movhi
 485 0256 9A83     		strh	r2, [r3, #28]	@ movhi
 486              		.loc 1 263 0
 487 0258 07B0     		add	sp, sp, #28
 488 025a 00BD     		pop	{pc}
 489              		.cfi_endproc
 490              	.LFE64:
 491              		.size	i2c_lld_set_clock, .-i2c_lld_set_clock
 492 025c AFF30080 		.section	.text.i2c_lld_set_opmode,"ax",%progbits
 493              		.align	2
 494              		.p2align 4,,15
 495              		.thumb
 496              		.thumb_func
 497              		.type	i2c_lld_set_opmode, %function
 498              	i2c_lld_set_opmode:
 499              	.LFB65:
 500              		.loc 1 272 0
 501              		.cfi_startproc
 502              		@ args = 0, pretend = 0, frame = 24
 503              		@ frame_needed = 0, uses_anonymous_args = 0
 504              		@ link register save eliminated.
 505 0000 86B0     		sub	sp, sp, #24
 506              	.LCFI5:
 507              		.cfi_def_cfa_offset 24
 508 0002 0190     		str	r0, [sp, #4]
 509              		.loc 1 273 0
 510 0004 019B     		ldr	r3, [sp, #4]
 511 0006 1B6B     		ldr	r3, [r3, #48]
 512 0008 0493     		str	r3, [sp, #16]
 513              		.loc 1 274 0
 514 000a 019B     		ldr	r3, [sp, #4]
 515 000c 5B68     		ldr	r3, [r3, #4]
 516 000e 1B78     		ldrb	r3, [r3, #0]
 517 0010 8DF80F30 		strb	r3, [sp, #15]
 518              		.loc 1 277 0
 519 0014 049B     		ldr	r3, [sp, #16]
 520 0016 1B88     		ldrh	r3, [r3, #0]	@ movhi
 521 0018 ADF81630 		strh	r3, [sp, #22]	@ movhi
 522              		.loc 1 278 0
ARM GAS  C:\Users\z80\AppData\Local\Temp\ccHBr3N4.s 			page 11


 523 001c 9DF80F30 		ldrb	r3, [sp, #15]	@ zero_extendqisi2
 524 0020 022B     		cmp	r3, #2
 525 0022 0AD0     		beq	.L22
 526 0024 032B     		cmp	r3, #3
 527 0026 15D0     		beq	.L23
 528 0028 012B     		cmp	r3, #1
 529 002a 1AD1     		bne	.L20
 530              	.L21:
 531              		.loc 1 280 0
 532 002c BDF81630 		ldrh	r3, [sp, #22]	@ movhi
 533 0030 23F00A03 		bic	r3, r3, #10
 534 0034 ADF81630 		strh	r3, [sp, #22]	@ movhi
 535              		.loc 1 281 0
 536 0038 13E0     		b	.L20
 537              	.L22:
 538              		.loc 1 283 0
 539 003a BDF81630 		ldrh	r3, [sp, #22]	@ movhi
 540 003e 43F00203 		orr	r3, r3, #2
 541 0042 ADF81630 		strh	r3, [sp, #22]	@ movhi
 542              		.loc 1 284 0
 543 0046 BDF81630 		ldrh	r3, [sp, #22]	@ movhi
 544 004a 23F00803 		bic	r3, r3, #8
 545 004e ADF81630 		strh	r3, [sp, #22]	@ movhi
 546              		.loc 1 285 0
 547 0052 06E0     		b	.L20
 548              	.L23:
 549              		.loc 1 287 0
 550 0054 BDF81630 		ldrh	r3, [sp, #22]	@ movhi
 551 0058 43F00A03 		orr	r3, r3, #10
 552 005c ADF81630 		strh	r3, [sp, #22]	@ movhi
 553              		.loc 1 288 0
 554 0060 00BF     		nop
 555              	.L20:
 556              		.loc 1 290 0
 557 0062 049B     		ldr	r3, [sp, #16]
 558 0064 BDF81620 		ldrh	r2, [sp, #22]	@ movhi
 559 0068 1A80     		strh	r2, [r3, #0]	@ movhi
 560              		.loc 1 291 0
 561 006a 06B0     		add	sp, sp, #24
 562 006c 7047     		bx	lr
 563              		.cfi_endproc
 564              	.LFE65:
 565              		.size	i2c_lld_set_opmode, .-i2c_lld_set_opmode
 566 006e 00BF     		.section	.text.i2c_lld_serve_event_interrupt,"ax",%progbits
 567              		.align	2
 568              		.p2align 4,,15
 569              		.thumb
 570              		.thumb_func
 571              		.type	i2c_lld_serve_event_interrupt, %function
 572              	i2c_lld_serve_event_interrupt:
 573              	.LFB66:
 574              		.loc 1 300 0
 575              		.cfi_startproc
 576              		@ args = 0, pretend = 0, frame = 24
 577              		@ frame_needed = 0, uses_anonymous_args = 0
 578 0000 00B5     		push	{lr}
 579              	.LCFI6:
ARM GAS  C:\Users\z80\AppData\Local\Temp\ccHBr3N4.s 			page 12


 580              		.cfi_def_cfa_offset 4
 581 0002 87B0     		sub	sp, sp, #28
 582              	.LCFI7:
 583              		.cfi_def_cfa_offset 32
 584 0004 0190     		str	r0, [sp, #4]
 585              		.loc 1 302 0
 586 0006 019B     		ldr	r3, [sp, #4]
 587 0008 1B6B     		ldr	r3, [r3, #48]
 588 000a 0493     		str	r3, [sp, #16]
 589              		.loc 1 303 0
 590 000c 049B     		ldr	r3, [sp, #16]
 591 000e 1B8B     		ldrh	r3, [r3, #24]	@ movhi
 592 0010 9BB2     		uxth	r3, r3
 593 0012 0393     		str	r3, [sp, #12]
 594              		.loc 1 304 0
 595 0014 049B     		ldr	r3, [sp, #16]
 596 0016 9B8A     		ldrh	r3, [r3, #20]	@ movhi
 597 0018 9BB2     		uxth	r3, r3
 598 001a 0593     		str	r3, [sp, #20]
 599              		.loc 1 307 0
 600 001c 019B     		ldr	r3, [sp, #4]
 601 001e 93F83430 		ldrb	r3, [r3, #52]	@ zero_extendqisi2
 602 0022 002B     		cmp	r3, #0
 603 0024 40F0B780 		bne	.L25
 604              		.cfi_offset 14, -4
 605              		.loc 1 313 0
 606 0028 039B     		ldr	r3, [sp, #12]
 607 002a 4FEA0342 		lsl	r2, r3, #16
 608 002e 059B     		ldr	r3, [sp, #20]
 609 0030 42EA0303 		orr	r3, r2, r3
 610 0034 23F07F43 		bic	r3, r3, #-16777216
 611 0038 4FF00202 		mov	r2, #2
 612 003c C0F20302 		movt	r2, 3
 613 0040 9342     		cmp	r3, r2
 614 0042 1ED0     		beq	.L28
 615 0044 4FF00202 		mov	r2, #2
 616 0048 C0F20302 		movt	r2, 3
 617 004c 9342     		cmp	r3, r2
 618 004e 06D8     		bhi	.L31
 619 0050 4FF00102 		mov	r2, #1
 620 0054 C0F20302 		movt	r2, 3
 621 0058 9342     		cmp	r3, r2
 622 005a 0DD0     		beq	.L27
 623              		.loc 1 341 0
 624 005c 93E0     		b	.L32
 625              	.L31:
 626              		.loc 1 313 0
 627 005e 4FF08202 		mov	r2, #130
 628 0062 C0F20702 		movt	r2, 7
 629 0066 9342     		cmp	r3, r2
 630 0068 34D0     		beq	.L29
 631 006a 4FF08402 		mov	r2, #132
 632 006e C0F20702 		movt	r2, 7
 633 0072 9342     		cmp	r3, r2
 634 0074 41D0     		beq	.L30
 635              		.loc 1 341 0
 636 0076 86E0     		b	.L32
ARM GAS  C:\Users\z80\AppData\Local\Temp\ccHBr3N4.s 			page 13


 637              	.L27:
 638              		.loc 1 315 0
 639 0078 019B     		ldr	r3, [sp, #4]
 640 007a 1A8C     		ldrh	r2, [r3, #32]
 641 007c 049B     		ldr	r3, [sp, #16]
 642 007e 1A82     		strh	r2, [r3, #16]	@ movhi
 643              		.loc 1 316 0
 644 0080 81E0     		b	.L32
 645              	.L28:
 646              		.loc 1 318 0
 647 0082 049B     		ldr	r3, [sp, #16]
 648 0084 9B88     		ldrh	r3, [r3, #4]	@ movhi
 649 0086 9BB2     		uxth	r3, r3
 650 0088 23F40073 		bic	r3, r3, #512
 651 008c 9AB2     		uxth	r2, r3
 652 008e 049B     		ldr	r3, [sp, #16]
 653 0090 9A80     		strh	r2, [r3, #4]	@ movhi
 654              		.loc 1 319 0
 655 0092 019B     		ldr	r3, [sp, #4]
 656 0094 9B6A     		ldr	r3, [r3, #40]
 657 0096 1B68     		ldr	r3, [r3, #0]
 658 0098 019A     		ldr	r2, [sp, #4]
 659 009a 926A     		ldr	r2, [r2, #40]
 660 009c 1268     		ldr	r2, [r2, #0]
 661 009e 1268     		ldr	r2, [r2, #0]
 662 00a0 42F00102 		orr	r2, r2, #1
 663 00a4 1A60     		str	r2, [r3, #0]
 664              		.loc 1 320 0
 665 00a6 049B     		ldr	r3, [sp, #16]
 666 00a8 9B88     		ldrh	r3, [r3, #4]	@ movhi
 667 00aa 9BB2     		uxth	r3, r3
 668 00ac 43F48053 		orr	r3, r3, #4096
 669 00b0 9AB2     		uxth	r2, r3
 670 00b2 049B     		ldr	r3, [sp, #16]
 671 00b4 9A80     		strh	r2, [r3, #4]	@ movhi
 672              		.loc 1 321 0
 673 00b6 019B     		ldr	r3, [sp, #4]
 674 00b8 9B6A     		ldr	r3, [r3, #40]
 675 00ba 1B68     		ldr	r3, [r3, #0]
 676 00bc 5B68     		ldr	r3, [r3, #4]
 677 00be 012B     		cmp	r3, #1
 678 00c0 60D8     		bhi	.L42
 679              		.loc 1 322 0
 680 00c2 049B     		ldr	r3, [sp, #16]
 681 00c4 1B88     		ldrh	r3, [r3, #0]	@ movhi
 682 00c6 9BB2     		uxth	r3, r3
 683 00c8 23F48063 		bic	r3, r3, #1024
 684 00cc 9AB2     		uxth	r2, r3
 685 00ce 049B     		ldr	r3, [sp, #16]
 686 00d0 1A80     		strh	r2, [r3, #0]	@ movhi
 687              		.loc 1 323 0
 688 00d2 58E0     		b	.L32
 689              	.L29:
 690              		.loc 1 325 0
 691 00d4 049B     		ldr	r3, [sp, #16]
 692 00d6 9B88     		ldrh	r3, [r3, #4]	@ movhi
 693 00d8 9BB2     		uxth	r3, r3
ARM GAS  C:\Users\z80\AppData\Local\Temp\ccHBr3N4.s 			page 14


 694 00da 23F40073 		bic	r3, r3, #512
 695 00de 9AB2     		uxth	r2, r3
 696 00e0 049B     		ldr	r3, [sp, #16]
 697 00e2 9A80     		strh	r2, [r3, #4]	@ movhi
 698              		.loc 1 326 0
 699 00e4 019B     		ldr	r3, [sp, #4]
 700 00e6 DB6A     		ldr	r3, [r3, #44]
 701 00e8 1B68     		ldr	r3, [r3, #0]
 702 00ea 019A     		ldr	r2, [sp, #4]
 703 00ec D26A     		ldr	r2, [r2, #44]
 704 00ee 1268     		ldr	r2, [r2, #0]
 705 00f0 1268     		ldr	r2, [r2, #0]
 706 00f2 42F00102 		orr	r2, r2, #1
 707 00f6 1A60     		str	r2, [r3, #0]
 708              		.loc 1 327 0
 709 00f8 45E0     		b	.L32
 710              	.L30:
 711              		.loc 1 330 0
 712 00fa 019B     		ldr	r3, [sp, #4]
 713 00fc 9B6A     		ldr	r3, [r3, #40]
 714 00fe 1B68     		ldr	r3, [r3, #0]
 715 0100 5B68     		ldr	r3, [r3, #4]
 716 0102 002B     		cmp	r3, #0
 717 0104 0FD0     		beq	.L34
 718              		.loc 1 332 0
 719 0106 019B     		ldr	r3, [sp, #4]
 720 0108 1B8C     		ldrh	r3, [r3, #32]
 721 010a 43F00103 		orr	r3, r3, #1
 722 010e 9AB2     		uxth	r2, r3
 723 0110 019B     		ldr	r3, [sp, #4]
 724 0112 1A84     		strh	r2, [r3, #32]	@ movhi
 725              		.loc 1 333 0
 726 0114 049B     		ldr	r3, [sp, #16]
 727 0116 1B88     		ldrh	r3, [r3, #0]	@ movhi
 728 0118 9BB2     		uxth	r3, r3
 729 011a 43F4A063 		orr	r3, r3, #1280
 730 011e 9AB2     		uxth	r2, r3
 731 0120 049B     		ldr	r3, [sp, #16]
 732 0122 1A80     		strh	r2, [r3, #0]	@ movhi
 733              		.loc 1 334 0
 734 0124 B5E0     		b	.L24
 735              	.L34:
 736              		.loc 1 336 0
 737 0126 049B     		ldr	r3, [sp, #16]
 738 0128 9B88     		ldrh	r3, [r3, #4]	@ movhi
 739 012a 9BB2     		uxth	r3, r3
 740 012c 23F40073 		bic	r3, r3, #512
 741 0130 9AB2     		uxth	r2, r3
 742 0132 049B     		ldr	r3, [sp, #16]
 743 0134 9A80     		strh	r2, [r3, #4]	@ movhi
 744              		.loc 1 337 0
 745 0136 049B     		ldr	r3, [sp, #16]
 746 0138 1B88     		ldrh	r3, [r3, #0]	@ movhi
 747 013a 9BB2     		uxth	r3, r3
 748 013c 43F40073 		orr	r3, r3, #512
 749 0140 9AB2     		uxth	r2, r3
 750 0142 049B     		ldr	r3, [sp, #16]
ARM GAS  C:\Users\z80\AppData\Local\Temp\ccHBr3N4.s 			page 15


 751 0144 1A80     		strh	r2, [r3, #0]	@ movhi
 752              	.LBB3:
 753              		.loc 1 338 0
 754 0146 4FF02003 		mov	r3, #32
 755              	@ 338 "../chibios_2.4.x/os/hal/platforms/STM32/i2c_lld.c" 1
 756 014a 83F31188 		msr     BASEPRI, r3
 757              	@ 0 "" 2
 758              		.thumb
 759              	.LBE3:
 760 014e FFF7FEFF 		bl	dbg_check_lock_from_isr
 761 0152 019B     		ldr	r3, [sp, #4]
 762 0154 DB69     		ldr	r3, [r3, #28]
 763 0156 002B     		cmp	r3, #0
 764 0158 0DD0     		beq	.L36
 765              	.LBB4:
 766              		.loc 1 338 0 is_stmt 0 discriminator 1
 767 015a 019B     		ldr	r3, [sp, #4]
 768 015c DB69     		ldr	r3, [r3, #28]
 769 015e 0293     		str	r3, [sp, #8]
 770 0160 019B     		ldr	r3, [sp, #4]
 771 0162 4FF00002 		mov	r2, #0
 772 0166 DA61     		str	r2, [r3, #28]
 773 0168 029B     		ldr	r3, [sp, #8]
 774 016a 4FF00002 		mov	r2, #0
 775 016e 9A62     		str	r2, [r3, #40]
 776 0170 0298     		ldr	r0, [sp, #8]
 777 0172 FFF7FEFF 		bl	chSchReadyI
 778              	.L36:
 779              	.LBE4:
 780              		.loc 1 338 0 discriminator 2
 781 0176 FFF7FEFF 		bl	dbg_check_unlock_from_isr
 782              	.LBB5:
 783 017a 4FF00003 		mov	r3, #0
 784              	@ 338 "../chibios_2.4.x/os/hal/platforms/STM32/i2c_lld.c" 1
 785 017e 83F31188 		msr     BASEPRI, r3
 786              	@ 0 "" 2
 787              		.thumb
 788              	.LBE5:
 789              		.loc 1 339 0 is_stmt 1 discriminator 2
 790 0182 00E0     		b	.L32
 791              	.L42:
 792              		.loc 1 323 0
 793 0184 00BF     		nop
 794              	.L32:
 795              		.loc 1 344 0
 796 0186 059B     		ldr	r3, [sp, #20]
 797 0188 03F00A03 		and	r3, r3, #10
 798 018c 002B     		cmp	r3, #0
 799 018e 7FD0     		beq	.L43
 800              		.loc 1 345 0
 801 0190 049B     		ldr	r3, [sp, #16]
 802 0192 1B8B     		ldrh	r3, [r3, #24]	@ movhi
 803 0194 7DE0     		b	.L24
 804              	.L25:
 805              		.loc 1 350 0
 806 0196 059B     		ldr	r3, [sp, #20]
 807 0198 03F00A03 		and	r3, r3, #10
ARM GAS  C:\Users\z80\AppData\Local\Temp\ccHBr3N4.s 			page 16


 808 019c 002B     		cmp	r3, #0
 809 019e 0FD0     		beq	.L38
 810              		.loc 1 353 0
 811 01a0 019B     		ldr	r3, [sp, #4]
 812 01a2 4FF00002 		mov	r2, #0
 813 01a6 1A64     		str	r2, [r3, #64]
 814              		.loc 1 354 0
 815 01a8 019B     		ldr	r3, [sp, #4]
 816 01aa 4FF00002 		mov	r2, #0
 817 01ae 1A65     		str	r2, [r3, #80]
 818              		.loc 1 357 0
 819 01b0 049B     		ldr	r3, [sp, #16]
 820 01b2 9B8A     		ldrh	r3, [r3, #20]	@ movhi
 821 01b4 9BB2     		uxth	r3, r3
 822 01b6 0593     		str	r3, [sp, #20]
 823              		.loc 1 358 0
 824 01b8 049B     		ldr	r3, [sp, #16]
 825 01ba 1B8B     		ldrh	r3, [r3, #24]	@ movhi
 826 01bc 9BB2     		uxth	r3, r3
 827 01be 0393     		str	r3, [sp, #12]
 828              	.L38:
 829              		.loc 1 360 0
 830 01c0 059B     		ldr	r3, [sp, #20]
 831 01c2 03F08003 		and	r3, r3, #128
 832 01c6 002B     		cmp	r3, #0
 833 01c8 16D0     		beq	.L39
 834              		.loc 1 362 0
 835 01ca 019B     		ldr	r3, [sp, #4]
 836 01cc 9A6C     		ldr	r2, [r3, #72]
 837 01ce 019B     		ldr	r3, [sp, #4]
 838 01d0 1B6D     		ldr	r3, [r3, #80]
 839 01d2 1A44     		add	r2, r2, r3
 840 01d4 1278     		ldrb	r2, [r2, #0]	@ zero_extendqisi2
 841 01d6 1146     		mov	r1, r2
 842 01d8 049A     		ldr	r2, [sp, #16]
 843 01da 1182     		strh	r1, [r2, #16]	@ movhi
 844 01dc 03F10102 		add	r2, r3, #1
 845 01e0 019B     		ldr	r3, [sp, #4]
 846 01e2 1A65     		str	r2, [r3, #80]
 847              		.loc 1 363 0
 848 01e4 019B     		ldr	r3, [sp, #4]
 849 01e6 1A6C     		ldr	r2, [r3, #64]
 850 01e8 019B     		ldr	r3, [sp, #4]
 851 01ea DB6C     		ldr	r3, [r3, #76]
 852 01ec 9A42     		cmp	r2, r3
 853 01ee 03D3     		bcc	.L39
 854              		.loc 1 364 0
 855 01f0 019B     		ldr	r3, [sp, #4]
 856 01f2 4FF00002 		mov	r2, #0
 857 01f6 1A65     		str	r2, [r3, #80]
 858              	.L39:
 859              		.loc 1 366 0
 860 01f8 059B     		ldr	r3, [sp, #20]
 861 01fa 03F04003 		and	r3, r3, #64
 862 01fe 002B     		cmp	r3, #0
 863 0200 17D0     		beq	.L40
 864              		.loc 1 368 0
ARM GAS  C:\Users\z80\AppData\Local\Temp\ccHBr3N4.s 			page 17


 865 0202 019B     		ldr	r3, [sp, #4]
 866 0204 9A6B     		ldr	r2, [r3, #56]
 867 0206 019B     		ldr	r3, [sp, #4]
 868 0208 1B6C     		ldr	r3, [r3, #64]
 869 020a 1A44     		add	r2, r2, r3
 870 020c 0499     		ldr	r1, [sp, #16]
 871 020e 098A     		ldrh	r1, [r1, #16]	@ movhi
 872 0210 89B2     		uxth	r1, r1
 873 0212 C9B2     		uxtb	r1, r1
 874 0214 1170     		strb	r1, [r2, #0]
 875 0216 03F10102 		add	r2, r3, #1
 876 021a 019B     		ldr	r3, [sp, #4]
 877 021c 1A64     		str	r2, [r3, #64]
 878              		.loc 1 369 0
 879 021e 019B     		ldr	r3, [sp, #4]
 880 0220 1A6C     		ldr	r2, [r3, #64]
 881 0222 019B     		ldr	r3, [sp, #4]
 882 0224 DB6B     		ldr	r3, [r3, #60]
 883 0226 9A42     		cmp	r2, r3
 884 0228 03D3     		bcc	.L40
 885              		.loc 1 370 0
 886 022a 019B     		ldr	r3, [sp, #4]
 887 022c 4FF00002 		mov	r2, #0
 888 0230 1A64     		str	r2, [r3, #64]
 889              	.L40:
 890              		.loc 1 372 0
 891 0232 059B     		ldr	r3, [sp, #20]
 892 0234 03F01003 		and	r3, r3, #16
 893 0238 002B     		cmp	r3, #0
 894 023a 13D0     		beq	.L41
 895              		.loc 1 375 0
 896 023c 049B     		ldr	r3, [sp, #16]
 897 023e 9B8A     		ldrh	r3, [r3, #20]	@ movhi
 898 0240 9BB2     		uxth	r3, r3
 899 0242 0593     		str	r3, [sp, #20]
 900              		.loc 1 376 0
 901 0244 049B     		ldr	r3, [sp, #16]
 902 0246 1B88     		ldrh	r3, [r3, #0]	@ movhi
 903 0248 9BB2     		uxth	r3, r3
 904 024a 43F00103 		orr	r3, r3, #1
 905 024e 9AB2     		uxth	r2, r3
 906 0250 049B     		ldr	r3, [sp, #16]
 907 0252 1A80     		strh	r2, [r3, #0]	@ movhi
 908              		.loc 1 379 0
 909 0254 019B     		ldr	r3, [sp, #4]
 910 0256 5B6C     		ldr	r3, [r3, #68]
 911 0258 002B     		cmp	r3, #0
 912 025a 03D0     		beq	.L41
 913              		.loc 1 380 0
 914 025c 019B     		ldr	r3, [sp, #4]
 915 025e 5B6C     		ldr	r3, [r3, #68]
 916 0260 0198     		ldr	r0, [sp, #4]
 917 0262 9847     		blx	r3
 918              	.L41:
 919              		.loc 1 382 0
 920 0264 059B     		ldr	r3, [sp, #20]
 921 0266 03F48063 		and	r3, r3, #1024
ARM GAS  C:\Users\z80\AppData\Local\Temp\ccHBr3N4.s 			page 18


 922 026a 002B     		cmp	r3, #0
 923 026c 11D0     		beq	.L24
 924              		.loc 1 384 0
 925 026e 049B     		ldr	r3, [sp, #16]
 926 0270 9B8A     		ldrh	r3, [r3, #20]	@ movhi
 927 0272 9BB2     		uxth	r3, r3
 928 0274 23F48063 		bic	r3, r3, #1024
 929 0278 9AB2     		uxth	r2, r3
 930 027a 049B     		ldr	r3, [sp, #16]
 931 027c 9A82     		strh	r2, [r3, #20]	@ movhi
 932              		.loc 1 387 0
 933 027e 019B     		ldr	r3, [sp, #4]
 934 0280 5B6D     		ldr	r3, [r3, #84]
 935 0282 002B     		cmp	r3, #0
 936 0284 05D0     		beq	.L24
 937              		.loc 1 388 0
 938 0286 019B     		ldr	r3, [sp, #4]
 939 0288 5B6D     		ldr	r3, [r3, #84]
 940 028a 0198     		ldr	r0, [sp, #4]
 941 028c 9847     		blx	r3
 942 028e 00E0     		b	.L24
 943              	.L43:
 944              		.loc 1 345 0
 945 0290 00BF     		nop
 946              	.L24:
 947              		.loc 1 392 0
 948 0292 07B0     		add	sp, sp, #28
 949 0294 00BD     		pop	{pc}
 950              		.cfi_endproc
 951              	.LFE66:
 952              		.size	i2c_lld_serve_event_interrupt, .-i2c_lld_serve_event_interrupt
 953 0296 00BFAFF3 		.section	.text.i2c_lld_serve_rx_end_irq,"ax",%progbits
 953      0080AFF3 
 953      0080
 954              		.align	2
 955              		.p2align 4,,15
 956              		.thumb
 957              		.thumb_func
 958              		.type	i2c_lld_serve_rx_end_irq, %function
 959              	i2c_lld_serve_rx_end_irq:
 960              	.LFB67:
 961              		.loc 1 402 0
 962              		.cfi_startproc
 963              		@ args = 0, pretend = 0, frame = 16
 964              		@ frame_needed = 0, uses_anonymous_args = 0
 965 0000 00B5     		push	{lr}
 966              	.LCFI8:
 967              		.cfi_def_cfa_offset 4
 968 0002 85B0     		sub	sp, sp, #20
 969              	.LCFI9:
 970              		.cfi_def_cfa_offset 24
 971 0004 0190     		str	r0, [sp, #4]
 972 0006 0091     		str	r1, [sp, #0]
 973              		.loc 1 403 0
 974 0008 019B     		ldr	r3, [sp, #4]
 975 000a 1B6B     		ldr	r3, [r3, #48]
 976 000c 0393     		str	r3, [sp, #12]
ARM GAS  C:\Users\z80\AppData\Local\Temp\ccHBr3N4.s 			page 19


 977              		.loc 1 407 0
 978 000e 009B     		ldr	r3, [sp, #0]
 979 0010 03F00803 		and	r3, r3, #8
 980 0014 002B     		cmp	r3, #0
 981 0016 01D0     		beq	.L45
 982              		.cfi_offset 14, -4
 983              		.loc 1 408 0
 984 0018 FFF7FEFF 		bl	port_halt
 985              	.L45:
 986              		.loc 1 414 0
 987 001c 019B     		ldr	r3, [sp, #4]
 988 001e 9B6A     		ldr	r3, [r3, #40]
 989 0020 1B68     		ldr	r3, [r3, #0]
 990 0022 019A     		ldr	r2, [sp, #4]
 991 0024 926A     		ldr	r2, [r2, #40]
 992 0026 1268     		ldr	r2, [r2, #0]
 993 0028 1268     		ldr	r2, [r2, #0]
 994 002a 22F00102 		bic	r2, r2, #1
 995 002e 1A60     		str	r2, [r3, #0]
 996 0030 019B     		ldr	r3, [sp, #4]
 997 0032 9B6A     		ldr	r3, [r3, #40]
 998 0034 5B68     		ldr	r3, [r3, #4]
 999 0036 019A     		ldr	r2, [sp, #4]
 1000 0038 926A     		ldr	r2, [r2, #40]
 1001 003a 127A     		ldrb	r2, [r2, #8]	@ zero_extendqisi2
 1002 003c 4FF00F01 		mov	r1, #15
 1003 0040 01FA02F2 		lsl	r2, r1, r2
 1004 0044 1A60     		str	r2, [r3, #0]
 1005              		.loc 1 417 0
 1006 0046 019B     		ldr	r3, [sp, #4]
 1007 0048 93F83430 		ldrb	r3, [r3, #52]	@ zero_extendqisi2
 1008 004c 002B     		cmp	r3, #0
 1009 004e 35D1     		bne	.L44
 1010              		.loc 1 420 0
 1011 0050 039B     		ldr	r3, [sp, #12]
 1012 0052 9B88     		ldrh	r3, [r3, #4]	@ movhi
 1013 0054 9BB2     		uxth	r3, r3
 1014 0056 23F48053 		bic	r3, r3, #4096
 1015 005a 9AB2     		uxth	r2, r3
 1016 005c 039B     		ldr	r3, [sp, #12]
 1017 005e 9A80     		strh	r2, [r3, #4]	@ movhi
 1018              		.loc 1 421 0
 1019 0060 039B     		ldr	r3, [sp, #12]
 1020 0062 1B88     		ldrh	r3, [r3, #0]	@ movhi
 1021 0064 9BB2     		uxth	r3, r3
 1022 0066 23F48063 		bic	r3, r3, #1024
 1023 006a 9AB2     		uxth	r2, r3
 1024 006c 039B     		ldr	r3, [sp, #12]
 1025 006e 1A80     		strh	r2, [r3, #0]	@ movhi
 1026              		.loc 1 422 0
 1027 0070 039B     		ldr	r3, [sp, #12]
 1028 0072 1B88     		ldrh	r3, [r3, #0]	@ movhi
 1029 0074 9BB2     		uxth	r3, r3
 1030 0076 43F40073 		orr	r3, r3, #512
 1031 007a 9AB2     		uxth	r2, r3
 1032 007c 039B     		ldr	r3, [sp, #12]
 1033 007e 1A80     		strh	r2, [r3, #0]	@ movhi
ARM GAS  C:\Users\z80\AppData\Local\Temp\ccHBr3N4.s 			page 20


 1034              	.LBB6:
 1035              		.loc 1 423 0
 1036 0080 4FF02003 		mov	r3, #32
 1037              	@ 423 "../chibios_2.4.x/os/hal/platforms/STM32/i2c_lld.c" 1
 1038 0084 83F31188 		msr     BASEPRI, r3
 1039              	@ 0 "" 2
 1040              		.thumb
 1041              	.LBE6:
 1042 0088 FFF7FEFF 		bl	dbg_check_lock_from_isr
 1043 008c 019B     		ldr	r3, [sp, #4]
 1044 008e DB69     		ldr	r3, [r3, #28]
 1045 0090 002B     		cmp	r3, #0
 1046 0092 0DD0     		beq	.L47
 1047              	.LBB7:
 1048              		.loc 1 423 0 is_stmt 0 discriminator 1
 1049 0094 019B     		ldr	r3, [sp, #4]
 1050 0096 DB69     		ldr	r3, [r3, #28]
 1051 0098 0293     		str	r3, [sp, #8]
 1052 009a 019B     		ldr	r3, [sp, #4]
 1053 009c 4FF00002 		mov	r2, #0
 1054 00a0 DA61     		str	r2, [r3, #28]
 1055 00a2 029B     		ldr	r3, [sp, #8]
 1056 00a4 4FF00002 		mov	r2, #0
 1057 00a8 9A62     		str	r2, [r3, #40]
 1058 00aa 0298     		ldr	r0, [sp, #8]
 1059 00ac FFF7FEFF 		bl	chSchReadyI
 1060              	.L47:
 1061              	.LBE7:
 1062              		.loc 1 423 0 discriminator 2
 1063 00b0 FFF7FEFF 		bl	dbg_check_unlock_from_isr
 1064              	.LBB8:
 1065 00b4 4FF00003 		mov	r3, #0
 1066              	@ 423 "../chibios_2.4.x/os/hal/platforms/STM32/i2c_lld.c" 1
 1067 00b8 83F31188 		msr     BASEPRI, r3
 1068              	@ 0 "" 2
 1069              		.thumb
 1070              	.L44:
 1071              	.LBE8:
 1072              		.loc 1 427 0 is_stmt 1
 1073 00bc 05B0     		add	sp, sp, #20
 1074 00be 00BD     		pop	{pc}
 1075              		.cfi_endproc
 1076              	.LFE67:
 1077              		.size	i2c_lld_serve_rx_end_irq, .-i2c_lld_serve_rx_end_irq
 1078              		.section	.text.i2c_lld_serve_tx_end_irq,"ax",%progbits
 1079              		.align	2
 1080              		.p2align 4,,15
 1081              		.thumb
 1082              		.thumb_func
 1083              		.type	i2c_lld_serve_tx_end_irq, %function
 1084              	i2c_lld_serve_tx_end_irq:
 1085              	.LFB68:
 1086              		.loc 1 436 0
 1087              		.cfi_startproc
 1088              		@ args = 0, pretend = 0, frame = 16
 1089              		@ frame_needed = 0, uses_anonymous_args = 0
 1090 0000 00B5     		push	{lr}
ARM GAS  C:\Users\z80\AppData\Local\Temp\ccHBr3N4.s 			page 21


 1091              	.LCFI10:
 1092              		.cfi_def_cfa_offset 4
 1093 0002 85B0     		sub	sp, sp, #20
 1094              	.LCFI11:
 1095              		.cfi_def_cfa_offset 24
 1096 0004 0190     		str	r0, [sp, #4]
 1097 0006 0091     		str	r1, [sp, #0]
 1098              		.loc 1 437 0
 1099 0008 019B     		ldr	r3, [sp, #4]
 1100 000a 1B6B     		ldr	r3, [r3, #48]
 1101 000c 0393     		str	r3, [sp, #12]
 1102              		.loc 1 441 0
 1103 000e 009B     		ldr	r3, [sp, #0]
 1104 0010 03F00803 		and	r3, r3, #8
 1105 0014 002B     		cmp	r3, #0
 1106 0016 01D0     		beq	.L49
 1107              		.cfi_offset 14, -4
 1108              		.loc 1 442 0
 1109 0018 FFF7FEFF 		bl	port_halt
 1110              	.L49:
 1111              		.loc 1 448 0
 1112 001c 019B     		ldr	r3, [sp, #4]
 1113 001e DB6A     		ldr	r3, [r3, #44]
 1114 0020 1B68     		ldr	r3, [r3, #0]
 1115 0022 019A     		ldr	r2, [sp, #4]
 1116 0024 D26A     		ldr	r2, [r2, #44]
 1117 0026 1268     		ldr	r2, [r2, #0]
 1118 0028 1268     		ldr	r2, [r2, #0]
 1119 002a 22F00102 		bic	r2, r2, #1
 1120 002e 1A60     		str	r2, [r3, #0]
 1121 0030 019B     		ldr	r3, [sp, #4]
 1122 0032 DB6A     		ldr	r3, [r3, #44]
 1123 0034 5B68     		ldr	r3, [r3, #4]
 1124 0036 019A     		ldr	r2, [sp, #4]
 1125 0038 D26A     		ldr	r2, [r2, #44]
 1126 003a 127A     		ldrb	r2, [r2, #8]	@ zero_extendqisi2
 1127 003c 4FF00F01 		mov	r1, #15
 1128 0040 01FA02F2 		lsl	r2, r1, r2
 1129 0044 1A60     		str	r2, [r3, #0]
 1130              		.loc 1 452 0
 1131 0046 039B     		ldr	r3, [sp, #12]
 1132 0048 9B88     		ldrh	r3, [r3, #4]	@ movhi
 1133 004a 9BB2     		uxth	r3, r3
 1134 004c 43F40073 		orr	r3, r3, #512
 1135 0050 9AB2     		uxth	r2, r3
 1136 0052 039B     		ldr	r3, [sp, #12]
 1137 0054 9A80     		strh	r2, [r3, #4]	@ movhi
 1138              		.loc 1 453 0
 1139 0056 05B0     		add	sp, sp, #20
 1140 0058 00BD     		pop	{pc}
 1141              		.cfi_endproc
 1142              	.LFE68:
 1143              		.size	i2c_lld_serve_tx_end_irq, .-i2c_lld_serve_tx_end_irq
 1144 005a 00BFAFF3 		.section	.text.i2c_lld_serve_error_interrupt,"ax",%progbits
 1144      0080
 1145              		.align	2
 1146              		.p2align 4,,15
ARM GAS  C:\Users\z80\AppData\Local\Temp\ccHBr3N4.s 			page 22


 1147              		.thumb
 1148              		.thumb_func
 1149              		.type	i2c_lld_serve_error_interrupt, %function
 1150              	i2c_lld_serve_error_interrupt:
 1151              	.LFB69:
 1152              		.loc 1 462 0
 1153              		.cfi_startproc
 1154              		@ args = 0, pretend = 0, frame = 24
 1155              		@ frame_needed = 0, uses_anonymous_args = 0
 1156 0000 00B5     		push	{lr}
 1157              	.LCFI12:
 1158              		.cfi_def_cfa_offset 4
 1159 0002 87B0     		sub	sp, sp, #28
 1160              	.LCFI13:
 1161              		.cfi_def_cfa_offset 32
 1162 0004 0190     		str	r0, [sp, #4]
 1163              		.loc 1 463 0
 1164 0006 019B     		ldr	r3, [sp, #4]
 1165 0008 1B6B     		ldr	r3, [r3, #48]
 1166 000a 0493     		str	r3, [sp, #16]
 1167              	.LBB9:
 1168              		.loc 1 467 0
 1169 000c 4FF02003 		mov	r3, #32
 1170              	@ 467 "../chibios_2.4.x/os/hal/platforms/STM32/i2c_lld.c" 1
 1171 0010 83F31188 		msr     BASEPRI, r3
 1172              	@ 0 "" 2
 1173              		.thumb
 1174              	.LBE9:
 1175              		.cfi_offset 14, -4
 1176 0014 FFF7FEFF 		bl	dbg_check_lock_from_isr
 1177              		.loc 1 468 0
 1178 0018 019B     		ldr	r3, [sp, #4]
 1179 001a DB6A     		ldr	r3, [r3, #44]
 1180 001c 1B68     		ldr	r3, [r3, #0]
 1181 001e 019A     		ldr	r2, [sp, #4]
 1182 0020 D26A     		ldr	r2, [r2, #44]
 1183 0022 1268     		ldr	r2, [r2, #0]
 1184 0024 1268     		ldr	r2, [r2, #0]
 1185 0026 22F00102 		bic	r2, r2, #1
 1186 002a 1A60     		str	r2, [r3, #0]
 1187 002c 019B     		ldr	r3, [sp, #4]
 1188 002e DB6A     		ldr	r3, [r3, #44]
 1189 0030 5B68     		ldr	r3, [r3, #4]
 1190 0032 019A     		ldr	r2, [sp, #4]
 1191 0034 D26A     		ldr	r2, [r2, #44]
 1192 0036 127A     		ldrb	r2, [r2, #8]	@ zero_extendqisi2
 1193 0038 4FF00F01 		mov	r1, #15
 1194 003c 01FA02F2 		lsl	r2, r1, r2
 1195 0040 1A60     		str	r2, [r3, #0]
 1196              		.loc 1 469 0
 1197 0042 019B     		ldr	r3, [sp, #4]
 1198 0044 9B6A     		ldr	r3, [r3, #40]
 1199 0046 1B68     		ldr	r3, [r3, #0]
 1200 0048 019A     		ldr	r2, [sp, #4]
 1201 004a 926A     		ldr	r2, [r2, #40]
 1202 004c 1268     		ldr	r2, [r2, #0]
 1203 004e 1268     		ldr	r2, [r2, #0]
ARM GAS  C:\Users\z80\AppData\Local\Temp\ccHBr3N4.s 			page 23


 1204 0050 22F00102 		bic	r2, r2, #1
 1205 0054 1A60     		str	r2, [r3, #0]
 1206 0056 019B     		ldr	r3, [sp, #4]
 1207 0058 9B6A     		ldr	r3, [r3, #40]
 1208 005a 5B68     		ldr	r3, [r3, #4]
 1209 005c 019A     		ldr	r2, [sp, #4]
 1210 005e 926A     		ldr	r2, [r2, #40]
 1211 0060 127A     		ldrb	r2, [r2, #8]	@ zero_extendqisi2
 1212 0062 4FF00F01 		mov	r1, #15
 1213 0066 01FA02F2 		lsl	r2, r1, r2
 1214 006a 1A60     		str	r2, [r3, #0]
 1215              		.loc 1 470 0
 1216 006c FFF7FEFF 		bl	dbg_check_unlock_from_isr
 1217              	.LBB10:
 1218 0070 4FF00003 		mov	r3, #0
 1219              	@ 470 "../chibios_2.4.x/os/hal/platforms/STM32/i2c_lld.c" 1
 1220 0074 83F31188 		msr     BASEPRI, r3
 1221              	@ 0 "" 2
 1222              		.thumb
 1223              	.LBE10:
 1224              		.loc 1 472 0
 1225 0078 4FF00003 		mov	r3, #0
 1226 007c 0593     		str	r3, [sp, #20]
 1227              		.loc 1 474 0
 1228 007e 049B     		ldr	r3, [sp, #16]
 1229 0080 9B8A     		ldrh	r3, [r3, #20]	@ movhi
 1230 0082 9BB2     		uxth	r3, r3
 1231 0084 03F48073 		and	r3, r3, #256
 1232 0088 002B     		cmp	r3, #0
 1233 008a 0BD0     		beq	.L51
 1234              		.loc 1 475 0
 1235 008c 049B     		ldr	r3, [sp, #16]
 1236 008e 9B8A     		ldrh	r3, [r3, #20]	@ movhi
 1237 0090 9BB2     		uxth	r3, r3
 1238 0092 23F48073 		bic	r3, r3, #256
 1239 0096 9AB2     		uxth	r2, r3
 1240 0098 049B     		ldr	r3, [sp, #16]
 1241 009a 9A82     		strh	r2, [r3, #20]	@ movhi
 1242              		.loc 1 476 0
 1243 009c 059B     		ldr	r3, [sp, #20]
 1244 009e 43F00103 		orr	r3, r3, #1
 1245 00a2 0593     		str	r3, [sp, #20]
 1246              	.L51:
 1247              		.loc 1 478 0
 1248 00a4 049B     		ldr	r3, [sp, #16]
 1249 00a6 9B8A     		ldrh	r3, [r3, #20]	@ movhi
 1250 00a8 9BB2     		uxth	r3, r3
 1251 00aa 03F40073 		and	r3, r3, #512
 1252 00ae 002B     		cmp	r3, #0
 1253 00b0 0BD0     		beq	.L52
 1254              		.loc 1 479 0
 1255 00b2 049B     		ldr	r3, [sp, #16]
 1256 00b4 9B8A     		ldrh	r3, [r3, #20]	@ movhi
 1257 00b6 9BB2     		uxth	r3, r3
 1258 00b8 23F40073 		bic	r3, r3, #512
 1259 00bc 9AB2     		uxth	r2, r3
 1260 00be 049B     		ldr	r3, [sp, #16]
ARM GAS  C:\Users\z80\AppData\Local\Temp\ccHBr3N4.s 			page 24


 1261 00c0 9A82     		strh	r2, [r3, #20]	@ movhi
 1262              		.loc 1 480 0
 1263 00c2 059B     		ldr	r3, [sp, #20]
 1264 00c4 43F00203 		orr	r3, r3, #2
 1265 00c8 0593     		str	r3, [sp, #20]
 1266              	.L52:
 1267              		.loc 1 483 0
 1268 00ca 019B     		ldr	r3, [sp, #4]
 1269 00cc 93F83430 		ldrb	r3, [r3, #52]	@ zero_extendqisi2
 1270 00d0 002B     		cmp	r3, #0
 1271 00d2 23D1     		bne	.L53
 1272              		.loc 1 486 0
 1273 00d4 049B     		ldr	r3, [sp, #16]
 1274 00d6 9B8A     		ldrh	r3, [r3, #20]	@ movhi
 1275 00d8 9BB2     		uxth	r3, r3
 1276 00da 03F48063 		and	r3, r3, #1024
 1277 00de 002B     		cmp	r3, #0
 1278 00e0 2DD0     		beq	.L62
 1279              		.loc 1 487 0
 1280 00e2 049B     		ldr	r3, [sp, #16]
 1281 00e4 9B8A     		ldrh	r3, [r3, #20]	@ movhi
 1282 00e6 9BB2     		uxth	r3, r3
 1283 00e8 23F48063 		bic	r3, r3, #1024
 1284 00ec 9AB2     		uxth	r2, r3
 1285 00ee 049B     		ldr	r3, [sp, #16]
 1286 00f0 9A82     		strh	r2, [r3, #20]	@ movhi
 1287              		.loc 1 488 0
 1288 00f2 049B     		ldr	r3, [sp, #16]
 1289 00f4 9B88     		ldrh	r3, [r3, #4]	@ movhi
 1290 00f6 9BB2     		uxth	r3, r3
 1291 00f8 23F40073 		bic	r3, r3, #512
 1292 00fc 9AB2     		uxth	r2, r3
 1293 00fe 049B     		ldr	r3, [sp, #16]
 1294 0100 9A80     		strh	r2, [r3, #4]	@ movhi
 1295              		.loc 1 489 0
 1296 0102 049B     		ldr	r3, [sp, #16]
 1297 0104 1B88     		ldrh	r3, [r3, #0]	@ movhi
 1298 0106 9BB2     		uxth	r3, r3
 1299 0108 43F40073 		orr	r3, r3, #512
 1300 010c 9AB2     		uxth	r2, r3
 1301 010e 049B     		ldr	r3, [sp, #16]
 1302 0110 1A80     		strh	r2, [r3, #0]	@ movhi
 1303              		.loc 1 490 0
 1304 0112 059B     		ldr	r3, [sp, #20]
 1305 0114 43F00403 		orr	r3, r3, #4
 1306 0118 0593     		str	r3, [sp, #20]
 1307 011a 11E0     		b	.L55
 1308              	.L53:
 1309              		.loc 1 498 0
 1310 011c 049B     		ldr	r3, [sp, #16]
 1311 011e 9B8A     		ldrh	r3, [r3, #20]	@ movhi
 1312 0120 9BB2     		uxth	r3, r3
 1313 0122 23F48063 		bic	r3, r3, #1024
 1314 0126 9AB2     		uxth	r2, r3
 1315 0128 049B     		ldr	r3, [sp, #16]
 1316 012a 9A82     		strh	r2, [r3, #20]	@ movhi
 1317              		.loc 1 501 0
ARM GAS  C:\Users\z80\AppData\Local\Temp\ccHBr3N4.s 			page 25


 1318 012c 019B     		ldr	r3, [sp, #4]
 1319 012e 5B6D     		ldr	r3, [r3, #84]
 1320 0130 002B     		cmp	r3, #0
 1321 0132 05D0     		beq	.L55
 1322              		.loc 1 502 0
 1323 0134 019B     		ldr	r3, [sp, #4]
 1324 0136 5B6D     		ldr	r3, [r3, #84]
 1325 0138 0198     		ldr	r0, [sp, #4]
 1326 013a 9847     		blx	r3
 1327 013c 00E0     		b	.L55
 1328              	.L62:
 1329              		.loc 1 490 0
 1330 013e 00BF     		nop
 1331              	.L55:
 1332              		.loc 1 505 0
 1333 0140 049B     		ldr	r3, [sp, #16]
 1334 0142 9B8A     		ldrh	r3, [r3, #20]	@ movhi
 1335 0144 9BB2     		uxth	r3, r3
 1336 0146 03F40063 		and	r3, r3, #2048
 1337 014a 002B     		cmp	r3, #0
 1338 014c 0BD0     		beq	.L56
 1339              		.loc 1 506 0
 1340 014e 049B     		ldr	r3, [sp, #16]
 1341 0150 9B8A     		ldrh	r3, [r3, #20]	@ movhi
 1342 0152 9BB2     		uxth	r3, r3
 1343 0154 23F40063 		bic	r3, r3, #2048
 1344 0158 9AB2     		uxth	r2, r3
 1345 015a 049B     		ldr	r3, [sp, #16]
 1346 015c 9A82     		strh	r2, [r3, #20]	@ movhi
 1347              		.loc 1 507 0
 1348 015e 059B     		ldr	r3, [sp, #20]
 1349 0160 43F00803 		orr	r3, r3, #8
 1350 0164 0593     		str	r3, [sp, #20]
 1351              	.L56:
 1352              		.loc 1 509 0
 1353 0166 049B     		ldr	r3, [sp, #16]
 1354 0168 9B8A     		ldrh	r3, [r3, #20]	@ movhi
 1355 016a 9BB2     		uxth	r3, r3
 1356 016c 03F48053 		and	r3, r3, #4096
 1357 0170 002B     		cmp	r3, #0
 1358 0172 0BD0     		beq	.L57
 1359              		.loc 1 510 0
 1360 0174 049B     		ldr	r3, [sp, #16]
 1361 0176 9B8A     		ldrh	r3, [r3, #20]	@ movhi
 1362 0178 9BB2     		uxth	r3, r3
 1363 017a 23F48053 		bic	r3, r3, #4096
 1364 017e 9AB2     		uxth	r2, r3
 1365 0180 049B     		ldr	r3, [sp, #16]
 1366 0182 9A82     		strh	r2, [r3, #20]	@ movhi
 1367              		.loc 1 511 0
 1368 0184 059B     		ldr	r3, [sp, #20]
 1369 0186 43F01003 		orr	r3, r3, #16
 1370 018a 0593     		str	r3, [sp, #20]
 1371              	.L57:
 1372              		.loc 1 513 0
 1373 018c 049B     		ldr	r3, [sp, #16]
 1374 018e 9B8A     		ldrh	r3, [r3, #20]	@ movhi
ARM GAS  C:\Users\z80\AppData\Local\Temp\ccHBr3N4.s 			page 26


 1375 0190 9BB2     		uxth	r3, r3
 1376 0192 03F48043 		and	r3, r3, #16384
 1377 0196 002B     		cmp	r3, #0
 1378 0198 0BD0     		beq	.L58
 1379              		.loc 1 514 0
 1380 019a 049B     		ldr	r3, [sp, #16]
 1381 019c 9B8A     		ldrh	r3, [r3, #20]	@ movhi
 1382 019e 9BB2     		uxth	r3, r3
 1383 01a0 23F48043 		bic	r3, r3, #16384
 1384 01a4 9AB2     		uxth	r2, r3
 1385 01a6 049B     		ldr	r3, [sp, #16]
 1386 01a8 9A82     		strh	r2, [r3, #20]	@ movhi
 1387              		.loc 1 515 0
 1388 01aa 059B     		ldr	r3, [sp, #20]
 1389 01ac 43F02003 		orr	r3, r3, #32
 1390 01b0 0593     		str	r3, [sp, #20]
 1391              	.L58:
 1392              		.loc 1 517 0
 1393 01b2 049B     		ldr	r3, [sp, #16]
 1394 01b4 9B8A     		ldrh	r3, [r3, #20]	@ movhi
 1395 01b6 9BB2     		uxth	r3, r3
 1396 01b8 9BB2     		uxth	r3, r3
 1397 01ba 1BB2     		sxth	r3, r3
 1398 01bc 002B     		cmp	r3, #0
 1399 01be 0DDA     		bge	.L59
 1400              		.loc 1 518 0
 1401 01c0 049B     		ldr	r3, [sp, #16]
 1402 01c2 9B8A     		ldrh	r3, [r3, #20]	@ movhi
 1403 01c4 9BB2     		uxth	r3, r3
 1404 01c6 4FEA4343 		lsl	r3, r3, #17
 1405 01ca 4FEA5343 		lsr	r3, r3, #17
 1406 01ce 9AB2     		uxth	r2, r3
 1407 01d0 049B     		ldr	r3, [sp, #16]
 1408 01d2 9A82     		strh	r2, [r3, #20]	@ movhi
 1409              		.loc 1 519 0
 1410 01d4 059B     		ldr	r3, [sp, #20]
 1411 01d6 43F04003 		orr	r3, r3, #64
 1412 01da 0593     		str	r3, [sp, #20]
 1413              	.L59:
 1414              		.loc 1 523 0
 1415 01dc 059B     		ldr	r3, [sp, #20]
 1416 01de 002B     		cmp	r3, #0
 1417 01e0 20D0     		beq	.L50
 1418              		.loc 1 524 0
 1419 01e2 019B     		ldr	r3, [sp, #4]
 1420 01e4 059A     		ldr	r2, [sp, #20]
 1421 01e6 9A60     		str	r2, [r3, #8]
 1422              	.LBB11:
 1423              		.loc 1 525 0
 1424 01e8 4FF02003 		mov	r3, #32
 1425              	@ 525 "../chibios_2.4.x/os/hal/platforms/STM32/i2c_lld.c" 1
 1426 01ec 83F31188 		msr     BASEPRI, r3
 1427              	@ 0 "" 2
 1428              		.thumb
 1429              	.LBE11:
 1430 01f0 FFF7FEFF 		bl	dbg_check_lock_from_isr
 1431 01f4 019B     		ldr	r3, [sp, #4]
ARM GAS  C:\Users\z80\AppData\Local\Temp\ccHBr3N4.s 			page 27


 1432 01f6 DB69     		ldr	r3, [r3, #28]
 1433 01f8 002B     		cmp	r3, #0
 1434 01fa 0DD0     		beq	.L61
 1435              	.LBB12:
 1436              		.loc 1 525 0 is_stmt 0 discriminator 1
 1437 01fc 019B     		ldr	r3, [sp, #4]
 1438 01fe DB69     		ldr	r3, [r3, #28]
 1439 0200 0393     		str	r3, [sp, #12]
 1440 0202 019B     		ldr	r3, [sp, #4]
 1441 0204 4FF00002 		mov	r2, #0
 1442 0208 DA61     		str	r2, [r3, #28]
 1443 020a 039B     		ldr	r3, [sp, #12]
 1444 020c 6FF00102 		mvn	r2, #1
 1445 0210 9A62     		str	r2, [r3, #40]
 1446 0212 0398     		ldr	r0, [sp, #12]
 1447 0214 FFF7FEFF 		bl	chSchReadyI
 1448              	.L61:
 1449              	.LBE12:
 1450              		.loc 1 525 0 discriminator 2
 1451 0218 FFF7FEFF 		bl	dbg_check_unlock_from_isr
 1452              	.LBB13:
 1453 021c 4FF00003 		mov	r3, #0
 1454              	@ 525 "../chibios_2.4.x/os/hal/platforms/STM32/i2c_lld.c" 1
 1455 0220 83F31188 		msr     BASEPRI, r3
 1456              	@ 0 "" 2
 1457              		.thumb
 1458              	.L50:
 1459              	.LBE13:
 1460              		.loc 1 527 0 is_stmt 1
 1461 0224 07B0     		add	sp, sp, #28
 1462 0226 00BD     		pop	{pc}
 1463              		.cfi_endproc
 1464              	.LFE69:
 1465              		.size	i2c_lld_serve_error_interrupt, .-i2c_lld_serve_error_interrupt
 1466 0228 AFF30080 		.section	.text.VectorBC,"ax",%progbits
 1466      AFF30080 
 1467              		.align	2
 1468              		.p2align 4,,15
 1469              		.global	VectorBC
 1470              		.thumb
 1471              		.thumb_func
 1472              		.type	VectorBC, %function
 1473              	VectorBC:
 1474              	.LFB70:
 1475              		.loc 1 539 0
 1476              		.cfi_startproc
 1477              		@ args = 0, pretend = 0, frame = 0
 1478              		@ frame_needed = 0, uses_anonymous_args = 0
 1479 0000 08B5     		push	{r3, lr}
 1480              	.LCFI14:
 1481              		.cfi_def_cfa_offset 8
 1482              		.loc 1 541 0
 1483              		.cfi_offset 14, -4
 1484              		.cfi_offset 3, -8
 1485 0002 FFF7FEFF 		bl	dbg_check_enter_isr
 1486              		.loc 1 543 0
 1487 0006 40F20000 		movw	r0, #:lower16:I2CD1
ARM GAS  C:\Users\z80\AppData\Local\Temp\ccHBr3N4.s 			page 28


 1488 000a C0F20000 		movt	r0, #:upper16:I2CD1
 1489 000e FFF7FEFF 		bl	i2c_lld_serve_event_interrupt
 1490              		.loc 1 545 0
 1491 0012 FFF7FEFF 		bl	dbg_check_leave_isr
 1492 0016 FFF7FEFF 		bl	_port_irq_epilogue
 1493              		.loc 1 546 0
 1494 001a 08BD     		pop	{r3, pc}
 1495              		.cfi_endproc
 1496              	.LFE70:
 1497              		.size	VectorBC, .-VectorBC
 1498 001c AFF30080 		.section	.text.VectorC0,"ax",%progbits
 1499              		.align	2
 1500              		.p2align 4,,15
 1501              		.global	VectorC0
 1502              		.thumb
 1503              		.thumb_func
 1504              		.type	VectorC0, %function
 1505              	VectorC0:
 1506              	.LFB71:
 1507              		.loc 1 551 0
 1508              		.cfi_startproc
 1509              		@ args = 0, pretend = 0, frame = 0
 1510              		@ frame_needed = 0, uses_anonymous_args = 0
 1511 0000 08B5     		push	{r3, lr}
 1512              	.LCFI15:
 1513              		.cfi_def_cfa_offset 8
 1514              		.loc 1 553 0
 1515              		.cfi_offset 14, -4
 1516              		.cfi_offset 3, -8
 1517 0002 FFF7FEFF 		bl	dbg_check_enter_isr
 1518              		.loc 1 555 0
 1519 0006 40F20000 		movw	r0, #:lower16:I2CD1
 1520 000a C0F20000 		movt	r0, #:upper16:I2CD1
 1521 000e FFF7FEFF 		bl	i2c_lld_serve_error_interrupt
 1522              		.loc 1 557 0
 1523 0012 FFF7FEFF 		bl	dbg_check_leave_isr
 1524 0016 FFF7FEFF 		bl	_port_irq_epilogue
 1525              		.loc 1 558 0
 1526 001a 08BD     		pop	{r3, pc}
 1527              		.cfi_endproc
 1528              	.LFE71:
 1529              		.size	VectorC0, .-VectorC0
 1530 001c AFF30080 		.section	.text.i2c_lld_init,"ax",%progbits
 1531              		.align	2
 1532              		.p2align 4,,15
 1533              		.global	i2c_lld_init
 1534              		.thumb
 1535              		.thumb_func
 1536              		.type	i2c_lld_init, %function
 1537              	i2c_lld_init:
 1538              	.LFB72:
 1539              		.loc 1 630 0
 1540              		.cfi_startproc
 1541              		@ args = 0, pretend = 0, frame = 0
 1542              		@ frame_needed = 0, uses_anonymous_args = 0
 1543 0000 08B5     		push	{r3, lr}
 1544              	.LCFI16:
ARM GAS  C:\Users\z80\AppData\Local\Temp\ccHBr3N4.s 			page 29


 1545              		.cfi_def_cfa_offset 8
 1546              		.loc 1 633 0
 1547 0002 40F20000 		movw	r0, #:lower16:I2CD1
 1548 0006 C0F20000 		movt	r0, #:upper16:I2CD1
 1549              		.cfi_offset 14, -4
 1550              		.cfi_offset 3, -8
 1551 000a FFF7FEFF 		bl	i2cObjectInit
 1552              		.loc 1 634 0
 1553 000e 40F20003 		movw	r3, #:lower16:I2CD1
 1554 0012 C0F20003 		movt	r3, #:upper16:I2CD1
 1555 0016 4FF00002 		mov	r2, #0
 1556 001a DA61     		str	r2, [r3, #28]
 1557              		.loc 1 635 0
 1558 001c 40F20003 		movw	r3, #:lower16:I2CD1
 1559 0020 C0F20003 		movt	r3, #:upper16:I2CD1
 1560 0024 4FF4A842 		mov	r2, #21504
 1561 0028 C4F20002 		movt	r2, 16384
 1562 002c 1A63     		str	r2, [r3, #48]
 1563              		.loc 1 636 0
 1564 002e 40F20003 		movw	r3, #:lower16:I2CD1
 1565 0032 C0F20003 		movt	r3, #:upper16:I2CD1
 1566 0036 044A     		ldr	r2, .L66
 1567 0038 9A62     		str	r2, [r3, #40]
 1568              		.loc 1 637 0
 1569 003a 40F20003 		movw	r3, #:lower16:I2CD1
 1570 003e C0F20003 		movt	r3, #:upper16:I2CD1
 1571 0042 024A     		ldr	r2, .L66+4
 1572 0044 DA62     		str	r2, [r3, #44]
 1573              		.loc 1 655 0
 1574 0046 08BD     		pop	{r3, pc}
 1575              	.L67:
 1576              		.align	2
 1577              	.L66:
 1578 0048 48000000 		.word	_stm32_dma_streams+72
 1579 004c 3C000000 		.word	_stm32_dma_streams+60
 1580              		.cfi_endproc
 1581              	.LFE72:
 1582              		.size	i2c_lld_init, .-i2c_lld_init
 1583              		.section	.rodata
 1584              		.align	2
 1585              	.LC9:
 1586 00d8 6932635F 		.ascii	"i2c_lld_start(), #1\000"
 1586      6C6C645F 
 1586      73746172 
 1586      7428292C 
 1586      20233100 
 1587              		.align	2
 1588              	.LC10:
 1589 00ec 6932635F 		.ascii	"i2c_lld_start(), #2\000"
 1589      6C6C645F 
 1589      73746172 
 1589      7428292C 
 1589      20233200 
 1590              		.section	.text.i2c_lld_start,"ax",%progbits
 1591              		.align	2
 1592              		.p2align 4,,15
 1593              		.global	i2c_lld_start
ARM GAS  C:\Users\z80\AppData\Local\Temp\ccHBr3N4.s 			page 30


 1594              		.thumb
 1595              		.thumb_func
 1596              		.type	i2c_lld_start, %function
 1597              	i2c_lld_start:
 1598              	.LFB73:
 1599              		.loc 1 664 0
 1600              		.cfi_startproc
 1601              		@ args = 0, pretend = 0, frame = 16
 1602              		@ frame_needed = 0, uses_anonymous_args = 0
 1603 0000 00B5     		push	{lr}
 1604              	.LCFI17:
 1605              		.cfi_def_cfa_offset 4
 1606 0002 85B0     		sub	sp, sp, #20
 1607              	.LCFI18:
 1608              		.cfi_def_cfa_offset 24
 1609 0004 0190     		str	r0, [sp, #4]
 1610              		.loc 1 665 0
 1611 0006 019B     		ldr	r3, [sp, #4]
 1612 0008 1B6B     		ldr	r3, [r3, #48]
 1613 000a 0393     		str	r3, [sp, #12]
 1614              		.loc 1 667 0
 1615 000c 019B     		ldr	r3, [sp, #4]
 1616 000e 4FF08A02 		mov	r2, #138
 1617 0012 5A62     		str	r2, [r3, #36]
 1618              		.loc 1 672 0
 1619 0014 019B     		ldr	r3, [sp, #4]
 1620 0016 1B78     		ldrb	r3, [r3, #0]	@ zero_extendqisi2
 1621 0018 012B     		cmp	r3, #1
 1622 001a 67D1     		bne	.L69
 1623              		.cfi_offset 14, -4
 1624              		.loc 1 675 0
 1625 001c 019A     		ldr	r2, [sp, #4]
 1626 001e 40F20003 		movw	r3, #:lower16:I2CD1
 1627 0022 C0F20003 		movt	r3, #:upper16:I2CD1
 1628 0026 9A42     		cmp	r2, r3
 1629 0028 60D1     		bne	.L69
 1630              	.LBB14:
 1631              		.loc 1 678 0
 1632 002a 4FF48053 		mov	r3, #4096
 1633 002e C4F20203 		movt	r3, 16386
 1634 0032 4FF48052 		mov	r2, #4096
 1635 0036 C4F20202 		movt	r2, 16386
 1636 003a 1269     		ldr	r2, [r2, #16]
 1637 003c 42F40012 		orr	r2, r2, #2097152
 1638 0040 1A61     		str	r2, [r3, #16]
 1639 0042 4FF48053 		mov	r3, #4096
 1640 0046 C4F20203 		movt	r3, 16386
 1641 004a 4FF00002 		mov	r2, #0
 1642 004e 1A61     		str	r2, [r3, #16]
 1643              		.loc 1 679 0
 1644 0050 019B     		ldr	r3, [sp, #4]
 1645 0052 9A6A     		ldr	r2, [r3, #40]
 1646 0054 40F20003 		movw	r3, #:lower16:i2c_lld_serve_rx_end_irq
 1647 0058 C0F20003 		movt	r3, #:upper16:i2c_lld_serve_rx_end_irq
 1648 005c 1046     		mov	r0, r2
 1649 005e 4FF00A01 		mov	r1, #10
 1650 0062 1A46     		mov	r2, r3
ARM GAS  C:\Users\z80\AppData\Local\Temp\ccHBr3N4.s 			page 31


 1651 0064 019B     		ldr	r3, [sp, #4]
 1652 0066 FFF7FEFF 		bl	dmaStreamAllocate
 1653 006a 0346     		mov	r3, r0
 1654 006c 0293     		str	r3, [sp, #8]
 1655              		.loc 1 683 0
 1656 006e 029B     		ldr	r3, [sp, #8]
 1657 0070 002B     		cmp	r3, #0
 1658 0072 05D0     		beq	.L70
 1659              		.loc 1 683 0 is_stmt 0 discriminator 1
 1660 0074 40F20000 		movw	r0, #:lower16:.LC9
 1661 0078 C0F20000 		movt	r0, #:upper16:.LC9
 1662 007c FFF7FEFF 		bl	chDbgPanic
 1663              	.L70:
 1664              		.loc 1 684 0 is_stmt 1
 1665 0080 019B     		ldr	r3, [sp, #4]
 1666 0082 DA6A     		ldr	r2, [r3, #44]
 1667 0084 40F20003 		movw	r3, #:lower16:i2c_lld_serve_tx_end_irq
 1668 0088 C0F20003 		movt	r3, #:upper16:i2c_lld_serve_tx_end_irq
 1669 008c 1046     		mov	r0, r2
 1670 008e 4FF00A01 		mov	r1, #10
 1671 0092 1A46     		mov	r2, r3
 1672 0094 019B     		ldr	r3, [sp, #4]
 1673 0096 FFF7FEFF 		bl	dmaStreamAllocate
 1674 009a 0346     		mov	r3, r0
 1675 009c 0293     		str	r3, [sp, #8]
 1676              		.loc 1 688 0
 1677 009e 029B     		ldr	r3, [sp, #8]
 1678 00a0 002B     		cmp	r3, #0
 1679 00a2 05D0     		beq	.L71
 1680              		.loc 1 688 0 is_stmt 0 discriminator 1
 1681 00a4 40F20000 		movw	r0, #:lower16:.LC10
 1682 00a8 C0F20000 		movt	r0, #:upper16:.LC10
 1683 00ac FFF7FEFF 		bl	chDbgPanic
 1684              	.L71:
 1685              		.loc 1 689 0 is_stmt 1
 1686 00b0 4FF48053 		mov	r3, #4096
 1687 00b4 C4F20203 		movt	r3, 16386
 1688 00b8 4FF48052 		mov	r2, #4096
 1689 00bc C4F20202 		movt	r2, 16386
 1690 00c0 D269     		ldr	r2, [r2, #28]
 1691 00c2 42F40012 		orr	r2, r2, #2097152
 1692 00c6 DA61     		str	r2, [r3, #28]
 1693              		.loc 1 690 0
 1694 00c8 4FF01F00 		mov	r0, #31
 1695 00cc 4FF0A001 		mov	r1, #160
 1696 00d0 FFF7FEFF 		bl	nvicEnableVector
 1697              		.loc 1 692 0
 1698 00d4 4FF02000 		mov	r0, #32
 1699 00d8 4FF0A001 		mov	r1, #160
 1700 00dc FFF7FEFF 		bl	nvicEnableVector
 1701              		.loc 1 695 0
 1702 00e0 019B     		ldr	r3, [sp, #4]
 1703 00e2 5B6A     		ldr	r3, [r3, #36]
 1704 00e4 43F48052 		orr	r2, r3, #4096
 1705 00e8 019B     		ldr	r3, [sp, #4]
 1706 00ea 5A62     		str	r2, [r3, #36]
 1707              	.L69:
ARM GAS  C:\Users\z80\AppData\Local\Temp\ccHBr3N4.s 			page 32


 1708              	.LBE14:
 1709              		.loc 1 754 0
 1710 00ec 019B     		ldr	r3, [sp, #4]
 1711 00ee DB6A     		ldr	r3, [r3, #44]
 1712 00f0 1B68     		ldr	r3, [r3, #0]
 1713 00f2 019A     		ldr	r2, [sp, #4]
 1714 00f4 526A     		ldr	r2, [r2, #36]
 1715 00f6 42F01002 		orr	r2, r2, #16
 1716 00fa 1A60     		str	r2, [r3, #0]
 1717              		.loc 1 755 0
 1718 00fc 019B     		ldr	r3, [sp, #4]
 1719 00fe 9B6A     		ldr	r3, [r3, #40]
 1720 0100 1B68     		ldr	r3, [r3, #0]
 1721 0102 019A     		ldr	r2, [sp, #4]
 1722 0104 526A     		ldr	r2, [r2, #36]
 1723 0106 1A60     		str	r2, [r3, #0]
 1724              		.loc 1 758 0
 1725 0108 019B     		ldr	r3, [sp, #4]
 1726 010a 9B6A     		ldr	r3, [r3, #40]
 1727 010c 1B68     		ldr	r3, [r3, #0]
 1728 010e 039A     		ldr	r2, [sp, #12]
 1729 0110 02F11002 		add	r2, r2, #16
 1730 0114 9A60     		str	r2, [r3, #8]
 1731              		.loc 1 759 0
 1732 0116 019B     		ldr	r3, [sp, #4]
 1733 0118 DB6A     		ldr	r3, [r3, #44]
 1734 011a 1B68     		ldr	r3, [r3, #0]
 1735 011c 039A     		ldr	r2, [sp, #12]
 1736 011e 02F11002 		add	r2, r2, #16
 1737 0122 9A60     		str	r2, [r3, #8]
 1738              		.loc 1 762 0
 1739 0124 039B     		ldr	r3, [sp, #12]
 1740 0126 4FF40042 		mov	r2, #32768
 1741 012a 1A80     		strh	r2, [r3, #0]	@ movhi
 1742              		.loc 1 763 0
 1743 012c 039B     		ldr	r3, [sp, #12]
 1744 012e 4FF00002 		mov	r2, #0
 1745 0132 1A80     		strh	r2, [r3, #0]	@ movhi
 1746              		.loc 1 764 0
 1747 0134 039B     		ldr	r3, [sp, #12]
 1748 0136 4FF41062 		mov	r2, #2304
 1749 013a 9A80     		strh	r2, [r3, #4]	@ movhi
 1750              		.loc 1 767 0
 1751 013c 0198     		ldr	r0, [sp, #4]
 1752 013e FFF7FEFF 		bl	i2c_lld_set_clock
 1753              		.loc 1 768 0
 1754 0142 0198     		ldr	r0, [sp, #4]
 1755 0144 FFF7FEFF 		bl	i2c_lld_set_opmode
 1756              		.loc 1 771 0
 1757 0148 039B     		ldr	r3, [sp, #12]
 1758 014a 1B88     		ldrh	r3, [r3, #0]	@ movhi
 1759 014c 9BB2     		uxth	r3, r3
 1760 014e 43F00103 		orr	r3, r3, #1
 1761 0152 9AB2     		uxth	r2, r3
 1762 0154 039B     		ldr	r3, [sp, #12]
 1763 0156 1A80     		strh	r2, [r3, #0]	@ movhi
 1764              		.loc 1 772 0
ARM GAS  C:\Users\z80\AppData\Local\Temp\ccHBr3N4.s 			page 33


 1765 0158 05B0     		add	sp, sp, #20
 1766 015a 00BD     		pop	{pc}
 1767              		.cfi_endproc
 1768              	.LFE73:
 1769              		.size	i2c_lld_start, .-i2c_lld_start
 1770 015c AFF30080 		.section	.text.i2c_lld_stop,"ax",%progbits
 1771              		.align	2
 1772              		.p2align 4,,15
 1773              		.global	i2c_lld_stop
 1774              		.thumb
 1775              		.thumb_func
 1776              		.type	i2c_lld_stop, %function
 1777              	i2c_lld_stop:
 1778              	.LFB74:
 1779              		.loc 1 781 0
 1780              		.cfi_startproc
 1781              		@ args = 0, pretend = 0, frame = 8
 1782              		@ frame_needed = 0, uses_anonymous_args = 0
 1783 0000 00B5     		push	{lr}
 1784              	.LCFI19:
 1785              		.cfi_def_cfa_offset 4
 1786 0002 83B0     		sub	sp, sp, #12
 1787              	.LCFI20:
 1788              		.cfi_def_cfa_offset 16
 1789 0004 0190     		str	r0, [sp, #4]
 1790              		.loc 1 784 0
 1791 0006 019B     		ldr	r3, [sp, #4]
 1792 0008 1B78     		ldrb	r3, [r3, #0]	@ zero_extendqisi2
 1793 000a 012B     		cmp	r3, #1
 1794 000c 27D0     		beq	.L72
 1795              		.cfi_offset 14, -4
 1796              		.loc 1 787 0
 1797 000e 0198     		ldr	r0, [sp, #4]
 1798 0010 FFF7FEFF 		bl	i2c_lld_abort_operation
 1799              		.loc 1 788 0
 1800 0014 019B     		ldr	r3, [sp, #4]
 1801 0016 DB6A     		ldr	r3, [r3, #44]
 1802 0018 1846     		mov	r0, r3
 1803 001a FFF7FEFF 		bl	dmaStreamRelease
 1804              		.loc 1 789 0
 1805 001e 019B     		ldr	r3, [sp, #4]
 1806 0020 9B6A     		ldr	r3, [r3, #40]
 1807 0022 1846     		mov	r0, r3
 1808 0024 FFF7FEFF 		bl	dmaStreamRelease
 1809              		.loc 1 792 0
 1810 0028 019A     		ldr	r2, [sp, #4]
 1811 002a 40F20003 		movw	r3, #:lower16:I2CD1
 1812 002e C0F20003 		movt	r3, #:upper16:I2CD1
 1813 0032 9A42     		cmp	r2, r3
 1814 0034 13D1     		bne	.L72
 1815              		.loc 1 793 0
 1816 0036 4FF01F00 		mov	r0, #31
 1817 003a FFF7FEFF 		bl	nvicDisableVector
 1818              		.loc 1 794 0
 1819 003e 4FF02000 		mov	r0, #32
 1820 0042 FFF7FEFF 		bl	nvicDisableVector
 1821              		.loc 1 795 0
ARM GAS  C:\Users\z80\AppData\Local\Temp\ccHBr3N4.s 			page 34


 1822 0046 4FF48053 		mov	r3, #4096
 1823 004a C4F20203 		movt	r3, 16386
 1824 004e 4FF48052 		mov	r2, #4096
 1825 0052 C4F20202 		movt	r2, 16386
 1826 0056 D269     		ldr	r2, [r2, #28]
 1827 0058 22F40012 		bic	r2, r2, #2097152
 1828 005c DA61     		str	r2, [r3, #28]
 1829              	.L72:
 1830              		.loc 1 815 0
 1831 005e 03B0     		add	sp, sp, #12
 1832 0060 00BD     		pop	{pc}
 1833              		.cfi_endproc
 1834              	.LFE74:
 1835              		.size	i2c_lld_stop, .-i2c_lld_stop
 1836 0062 00BFAFF3 		.section	.rodata
 1836      0080AFF3 
 1836      0080AFF3 
 1836      0080
 1837              		.align	2
 1838              	.LC11:
 1839 0100 22693263 		.ascii	"\"i2c_lld_master_receive_timeout\"()\000"
 1839      5F6C6C64 
 1839      5F6D6173 
 1839      7465725F 
 1839      72656365 
 1840              		.section	.text.i2c_lld_master_receive_timeout,"ax",%progbits
 1841              		.align	2
 1842              		.p2align 4,,15
 1843              		.global	i2c_lld_master_receive_timeout
 1844              		.thumb
 1845              		.thumb_func
 1846              		.type	i2c_lld_master_receive_timeout, %function
 1847              	i2c_lld_master_receive_timeout:
 1848              	.LFB75:
 1849              		.loc 1 842 0
 1850              		.cfi_startproc
 1851              		@ args = 4, pretend = 0, frame = 40
 1852              		@ frame_needed = 0, uses_anonymous_args = 0
 1853 0000 00B5     		push	{lr}
 1854              	.LCFI21:
 1855              		.cfi_def_cfa_offset 4
 1856 0002 8BB0     		sub	sp, sp, #44
 1857              	.LCFI22:
 1858              		.cfi_def_cfa_offset 48
 1859 0004 0390     		str	r0, [sp, #12]
 1860 0006 0192     		str	r2, [sp, #4]
 1861 0008 0093     		str	r3, [sp, #0]
 1862 000a 0B46     		mov	r3, r1	@ movhi
 1863 000c ADF80A30 		strh	r3, [sp, #10]	@ movhi
 1864              		.loc 1 843 0
 1865 0010 039B     		ldr	r3, [sp, #12]
 1866 0012 1B6B     		ldr	r3, [r3, #48]
 1867 0014 0993     		str	r3, [sp, #36]
 1868              		.loc 1 847 0
 1869 0016 009B     		ldr	r3, [sp, #0]
 1870 0018 012B     		cmp	r3, #1
 1871 001a 05D8     		bhi	.L75
ARM GAS  C:\Users\z80\AppData\Local\Temp\ccHBr3N4.s 			page 35


 1872              		.cfi_offset 14, -4
 1873              		.loc 1 847 0 is_stmt 0 discriminator 1
 1874 001c 40F20000 		movw	r0, #:lower16:.LC11
 1875 0020 C0F20000 		movt	r0, #:upper16:.LC11
 1876 0024 FFF7FEFF 		bl	chDbgPanic
 1877              	.L75:
 1878              		.loc 1 851 0 is_stmt 1
 1879 0028 0C9B     		ldr	r3, [sp, #48]
 1880 002a B3F1FF3F 		cmp	r3, #-1
 1881 002e 09D0     		beq	.L76
 1882              		.loc 1 852 0
 1883 0030 04AB     		add	r3, sp, #16
 1884 0032 1846     		mov	r0, r3
 1885 0034 0C99     		ldr	r1, [sp, #48]
 1886 0036 40F20002 		movw	r2, #:lower16:i2c_lld_safety_timeout
 1887 003a C0F20002 		movt	r2, #:upper16:i2c_lld_safety_timeout
 1888 003e 039B     		ldr	r3, [sp, #12]
 1889 0040 FFF7FEFF 		bl	chVTSetI
 1890              	.L76:
 1891              		.loc 1 855 0
 1892 0044 FFF7FEFF 		bl	dbg_check_unlock
 1893              	.LBB15:
 1894 0048 4FF00003 		mov	r3, #0
 1895              	@ 855 "../chibios_2.4.x/os/hal/platforms/STM32/i2c_lld.c" 1
 1896 004c 83F31188 		msr     BASEPRI, r3
 1897              	@ 0 "" 2
 1898              		.thumb
 1899              	.LBE15:
 1900              		.loc 1 858 0
 1901 0050 BDF80A30 		ldrh	r3, [sp, #10]
 1902 0054 4FEA4303 		lsl	r3, r3, #1
 1903 0058 9BB2     		uxth	r3, r3
 1904 005a 43F00103 		orr	r3, r3, #1
 1905 005e 9BB2     		uxth	r3, r3
 1906 0060 9AB2     		uxth	r2, r3
 1907 0062 039B     		ldr	r3, [sp, #12]
 1908 0064 1A84     		strh	r2, [r3, #32]	@ movhi
 1909              		.loc 1 859 0
 1910 0066 039B     		ldr	r3, [sp, #12]
 1911 0068 4FF00002 		mov	r2, #0
 1912 006c 9A60     		str	r2, [r3, #8]
 1913              		.loc 1 862 0
 1914 006e 039B     		ldr	r3, [sp, #12]
 1915 0070 9B6A     		ldr	r3, [r3, #40]
 1916 0072 1B68     		ldr	r3, [r3, #0]
 1917 0074 019A     		ldr	r2, [sp, #4]
 1918 0076 DA60     		str	r2, [r3, #12]
 1919              		.loc 1 863 0
 1920 0078 039B     		ldr	r3, [sp, #12]
 1921 007a 9B6A     		ldr	r3, [r3, #40]
 1922 007c 1B68     		ldr	r3, [r3, #0]
 1923 007e 009A     		ldr	r2, [sp, #0]
 1924 0080 5A60     		str	r2, [r3, #4]
 1925              		.loc 1 867 0
 1926 0082 15E0     		b	.L77
 1927              	.L80:
 1928              	.LBB16:
ARM GAS  C:\Users\z80\AppData\Local\Temp\ccHBr3N4.s 			page 36


 1929              		.loc 1 868 0
 1930 0084 4FF02003 		mov	r3, #32
 1931              	@ 868 "../chibios_2.4.x/os/hal/platforms/STM32/i2c_lld.c" 1
 1932 0088 83F31188 		msr     BASEPRI, r3
 1933              	@ 0 "" 2
 1934              		.thumb
 1935              	.LBE16:
 1936 008c FFF7FEFF 		bl	dbg_check_lock
 1937              		.loc 1 869 0
 1938 0090 0C9B     		ldr	r3, [sp, #48]
 1939 0092 B3F1FF3F 		cmp	r3, #-1
 1940 0096 05D0     		beq	.L78
 1941              		.loc 1 869 0 is_stmt 0 discriminator 1
 1942 0098 079B     		ldr	r3, [sp, #28]
 1943 009a 002B     		cmp	r3, #0
 1944 009c 02D1     		bne	.L78
 1945              		.loc 1 870 0 is_stmt 1
 1946 009e 4FF0FF33 		mov	r3, #-1
 1947 00a2 54E0     		b	.L79
 1948              	.L78:
 1949              		.loc 1 871 0
 1950 00a4 FFF7FEFF 		bl	dbg_check_unlock
 1951              	.LBB17:
 1952 00a8 4FF00003 		mov	r3, #0
 1953              	@ 871 "../chibios_2.4.x/os/hal/platforms/STM32/i2c_lld.c" 1
 1954 00ac 83F31188 		msr     BASEPRI, r3
 1955              	@ 0 "" 2
 1956              		.thumb
 1957              	.L77:
 1958              	.LBE17:
 1959              		.loc 1 867 0 discriminator 1
 1960 00b0 099B     		ldr	r3, [sp, #36]
 1961 00b2 1B8B     		ldrh	r3, [r3, #24]	@ movhi
 1962 00b4 9BB2     		uxth	r3, r3
 1963 00b6 03F00203 		and	r3, r3, #2
 1964 00ba 002B     		cmp	r3, #0
 1965 00bc E2D1     		bne	.L80
 1966              		.loc 1 867 0 is_stmt 0 discriminator 2
 1967 00be 099B     		ldr	r3, [sp, #36]
 1968 00c0 1B88     		ldrh	r3, [r3, #0]	@ movhi
 1969 00c2 9BB2     		uxth	r3, r3
 1970 00c4 03F40073 		and	r3, r3, #512
 1971 00c8 002B     		cmp	r3, #0
 1972 00ca DBD1     		bne	.L80
 1973              	.LBB18:
 1974              		.loc 1 875 0 is_stmt 1
 1975 00cc 4FF02003 		mov	r3, #32
 1976              	@ 875 "../chibios_2.4.x/os/hal/platforms/STM32/i2c_lld.c" 1
 1977 00d0 83F31188 		msr     BASEPRI, r3
 1978              	@ 0 "" 2
 1979              		.thumb
 1980              	.LBE18:
 1981 00d4 FFF7FEFF 		bl	dbg_check_lock
 1982              		.loc 1 879 0
 1983 00d8 0C9B     		ldr	r3, [sp, #48]
 1984 00da B3F1FF3F 		cmp	r3, #-1
 1985 00de 05D0     		beq	.L81
ARM GAS  C:\Users\z80\AppData\Local\Temp\ccHBr3N4.s 			page 37


 1986              		.loc 1 879 0 is_stmt 0 discriminator 1
 1987 00e0 079B     		ldr	r3, [sp, #28]
 1988 00e2 002B     		cmp	r3, #0
 1989 00e4 02D1     		bne	.L81
 1990              		.loc 1 880 0 is_stmt 1
 1991 00e6 4FF0FF33 		mov	r3, #-1
 1992 00ea 30E0     		b	.L79
 1993              	.L81:
 1994              		.loc 1 883 0
 1995 00ec 039B     		ldr	r3, [sp, #12]
 1996 00ee 4FF00002 		mov	r2, #0
 1997 00f2 83F83420 		strb	r2, [r3, #52]
 1998              		.loc 1 886 0
 1999 00f6 099B     		ldr	r3, [sp, #36]
 2000 00f8 9B88     		ldrh	r3, [r3, #4]	@ movhi
 2001 00fa 9BB2     		uxth	r3, r3
 2002 00fc 43F40073 		orr	r3, r3, #512
 2003 0100 9AB2     		uxth	r2, r3
 2004 0102 099B     		ldr	r3, [sp, #36]
 2005 0104 9A80     		strh	r2, [r3, #4]	@ movhi
 2006              		.loc 1 887 0
 2007 0106 099B     		ldr	r3, [sp, #36]
 2008 0108 1B88     		ldrh	r3, [r3, #0]	@ movhi
 2009 010a 9BB2     		uxth	r3, r3
 2010 010c 43F4A063 		orr	r3, r3, #1280
 2011 0110 9AB2     		uxth	r2, r3
 2012 0112 099B     		ldr	r3, [sp, #36]
 2013 0114 1A80     		strh	r2, [r3, #0]	@ movhi
 2014              		.loc 1 890 0
 2015 0116 40F20003 		movw	r3, #:lower16:rlist
 2016 011a C0F20003 		movt	r3, #:upper16:rlist
 2017 011e DA69     		ldr	r2, [r3, #28]
 2018 0120 039B     		ldr	r3, [sp, #12]
 2019 0122 DA61     		str	r2, [r3, #28]
 2020              		.loc 1 891 0
 2021 0124 4FF00200 		mov	r0, #2
 2022 0128 FFF7FEFF 		bl	chSchGoSleepS
 2023              		.loc 1 892 0
 2024 012c 0C9B     		ldr	r3, [sp, #48]
 2025 012e B3F1FF3F 		cmp	r3, #-1
 2026 0132 06D0     		beq	.L82
 2027              		.loc 1 892 0 is_stmt 0 discriminator 1
 2028 0134 079B     		ldr	r3, [sp, #28]
 2029 0136 002B     		cmp	r3, #0
 2030 0138 03D0     		beq	.L82
 2031              		.loc 1 893 0 is_stmt 1
 2032 013a 04AB     		add	r3, sp, #16
 2033 013c 1846     		mov	r0, r3
 2034 013e FFF7FEFF 		bl	chVTResetI
 2035              	.L82:
 2036              		.loc 1 895 0
 2037 0142 40F20003 		movw	r3, #:lower16:rlist
 2038 0146 C0F20003 		movt	r3, #:upper16:rlist
 2039 014a DB69     		ldr	r3, [r3, #28]
 2040 014c 9B6A     		ldr	r3, [r3, #40]
 2041              	.L79:
 2042              		.loc 1 896 0
ARM GAS  C:\Users\z80\AppData\Local\Temp\ccHBr3N4.s 			page 38


 2043 014e 1846     		mov	r0, r3
 2044 0150 0BB0     		add	sp, sp, #44
 2045 0152 00BD     		pop	{pc}
 2046              		.cfi_endproc
 2047              	.LFE75:
 2048              		.size	i2c_lld_master_receive_timeout, .-i2c_lld_master_receive_timeout
 2049 0154 AFF30080 		.section	.rodata
 2049      AFF30080 
 2049      AFF30080 
 2050 0123 00       		.align	2
 2051              	.LC12:
 2052 0124 22693263 		.ascii	"\"i2c_lld_master_transmit_timeout\"()\000"
 2052      5F6C6C64 
 2052      5F6D6173 
 2052      7465725F 
 2052      7472616E 
 2053              		.section	.text.i2c_lld_master_transmit_timeout,"ax",%progbits
 2054              		.align	2
 2055              		.p2align 4,,15
 2056              		.global	i2c_lld_master_transmit_timeout
 2057              		.thumb
 2058              		.thumb_func
 2059              		.type	i2c_lld_master_transmit_timeout, %function
 2060              	i2c_lld_master_transmit_timeout:
 2061              	.LFB76:
 2062              		.loc 1 926 0
 2063              		.cfi_startproc
 2064              		@ args = 12, pretend = 0, frame = 40
 2065              		@ frame_needed = 0, uses_anonymous_args = 0
 2066 0000 00B5     		push	{lr}
 2067              	.LCFI23:
 2068              		.cfi_def_cfa_offset 4
 2069 0002 8BB0     		sub	sp, sp, #44
 2070              	.LCFI24:
 2071              		.cfi_def_cfa_offset 48
 2072 0004 0390     		str	r0, [sp, #12]
 2073 0006 0192     		str	r2, [sp, #4]
 2074 0008 0093     		str	r3, [sp, #0]
 2075 000a 0B46     		mov	r3, r1	@ movhi
 2076 000c ADF80A30 		strh	r3, [sp, #10]	@ movhi
 2077              		.loc 1 927 0
 2078 0010 039B     		ldr	r3, [sp, #12]
 2079 0012 1B6B     		ldr	r3, [r3, #48]
 2080 0014 0993     		str	r3, [sp, #36]
 2081              		.loc 1 931 0
 2082 0016 0D9B     		ldr	r3, [sp, #52]
 2083 0018 002B     		cmp	r3, #0
 2084 001a 0BD0     		beq	.L84
 2085              		.cfi_offset 14, -4
 2086              		.loc 1 931 0 is_stmt 0 discriminator 1
 2087 001c 0D9B     		ldr	r3, [sp, #52]
 2088 001e 012B     		cmp	r3, #1
 2089 0020 02D9     		bls	.L85
 2090              		.loc 1 931 0 discriminator 3
 2091 0022 0C9B     		ldr	r3, [sp, #48]
 2092 0024 002B     		cmp	r3, #0
 2093 0026 05D1     		bne	.L84
ARM GAS  C:\Users\z80\AppData\Local\Temp\ccHBr3N4.s 			page 39


 2094              	.L85:
 2095              		.loc 1 931 0 discriminator 2
 2096 0028 40F20000 		movw	r0, #:lower16:.LC12
 2097 002c C0F20000 		movt	r0, #:upper16:.LC12
 2098 0030 FFF7FEFF 		bl	chDbgPanic
 2099              	.L84:
 2100              		.loc 1 936 0 is_stmt 1
 2101 0034 0E9B     		ldr	r3, [sp, #56]
 2102 0036 B3F1FF3F 		cmp	r3, #-1
 2103 003a 09D0     		beq	.L86
 2104              		.loc 1 937 0
 2105 003c 04AB     		add	r3, sp, #16
 2106 003e 1846     		mov	r0, r3
 2107 0040 0E99     		ldr	r1, [sp, #56]
 2108 0042 40F20002 		movw	r2, #:lower16:i2c_lld_safety_timeout
 2109 0046 C0F20002 		movt	r2, #:upper16:i2c_lld_safety_timeout
 2110 004a 039B     		ldr	r3, [sp, #12]
 2111 004c FFF7FEFF 		bl	chVTSetI
 2112              	.L86:
 2113              		.loc 1 940 0
 2114 0050 FFF7FEFF 		bl	dbg_check_unlock
 2115              	.LBB19:
 2116 0054 4FF00003 		mov	r3, #0
 2117              	@ 940 "../chibios_2.4.x/os/hal/platforms/STM32/i2c_lld.c" 1
 2118 0058 83F31188 		msr     BASEPRI, r3
 2119              	@ 0 "" 2
 2120              		.thumb
 2121              	.LBE19:
 2122              		.loc 1 943 0
 2123 005c BDF80A30 		ldrh	r3, [sp, #10]	@ movhi
 2124 0060 4FEA4303 		lsl	r3, r3, #1
 2125 0064 9AB2     		uxth	r2, r3
 2126 0066 039B     		ldr	r3, [sp, #12]
 2127 0068 1A84     		strh	r2, [r3, #32]	@ movhi
 2128              		.loc 1 944 0
 2129 006a 039B     		ldr	r3, [sp, #12]
 2130 006c 4FF00002 		mov	r2, #0
 2131 0070 9A60     		str	r2, [r3, #8]
 2132              		.loc 1 947 0
 2133 0072 039B     		ldr	r3, [sp, #12]
 2134 0074 DB6A     		ldr	r3, [r3, #44]
 2135 0076 1B68     		ldr	r3, [r3, #0]
 2136 0078 019A     		ldr	r2, [sp, #4]
 2137 007a DA60     		str	r2, [r3, #12]
 2138              		.loc 1 948 0
 2139 007c 039B     		ldr	r3, [sp, #12]
 2140 007e DB6A     		ldr	r3, [r3, #44]
 2141 0080 1B68     		ldr	r3, [r3, #0]
 2142 0082 009A     		ldr	r2, [sp, #0]
 2143 0084 5A60     		str	r2, [r3, #4]
 2144              		.loc 1 951 0
 2145 0086 039B     		ldr	r3, [sp, #12]
 2146 0088 9B6A     		ldr	r3, [r3, #40]
 2147 008a 1B68     		ldr	r3, [r3, #0]
 2148 008c 0C9A     		ldr	r2, [sp, #48]
 2149 008e DA60     		str	r2, [r3, #12]
 2150              		.loc 1 952 0
ARM GAS  C:\Users\z80\AppData\Local\Temp\ccHBr3N4.s 			page 40


 2151 0090 039B     		ldr	r3, [sp, #12]
 2152 0092 9B6A     		ldr	r3, [r3, #40]
 2153 0094 1B68     		ldr	r3, [r3, #0]
 2154 0096 0D9A     		ldr	r2, [sp, #52]
 2155 0098 5A60     		str	r2, [r3, #4]
 2156              		.loc 1 956 0
 2157 009a 15E0     		b	.L87
 2158              	.L90:
 2159              	.LBB20:
 2160              		.loc 1 957 0
 2161 009c 4FF02003 		mov	r3, #32
 2162              	@ 957 "../chibios_2.4.x/os/hal/platforms/STM32/i2c_lld.c" 1
 2163 00a0 83F31188 		msr     BASEPRI, r3
 2164              	@ 0 "" 2
 2165              		.thumb
 2166              	.LBE20:
 2167 00a4 FFF7FEFF 		bl	dbg_check_lock
 2168              		.loc 1 958 0
 2169 00a8 0E9B     		ldr	r3, [sp, #56]
 2170 00aa B3F1FF3F 		cmp	r3, #-1
 2171 00ae 05D0     		beq	.L88
 2172              		.loc 1 958 0 is_stmt 0 discriminator 1
 2173 00b0 079B     		ldr	r3, [sp, #28]
 2174 00b2 002B     		cmp	r3, #0
 2175 00b4 02D1     		bne	.L88
 2176              		.loc 1 959 0 is_stmt 1
 2177 00b6 4FF0FF33 		mov	r3, #-1
 2178 00ba 54E0     		b	.L89
 2179              	.L88:
 2180              		.loc 1 960 0
 2181 00bc FFF7FEFF 		bl	dbg_check_unlock
 2182              	.LBB21:
 2183 00c0 4FF00003 		mov	r3, #0
 2184              	@ 960 "../chibios_2.4.x/os/hal/platforms/STM32/i2c_lld.c" 1
 2185 00c4 83F31188 		msr     BASEPRI, r3
 2186              	@ 0 "" 2
 2187              		.thumb
 2188              	.L87:
 2189              	.LBE21:
 2190              		.loc 1 956 0 discriminator 1
 2191 00c8 099B     		ldr	r3, [sp, #36]
 2192 00ca 1B8B     		ldrh	r3, [r3, #24]	@ movhi
 2193 00cc 9BB2     		uxth	r3, r3
 2194 00ce 03F00203 		and	r3, r3, #2
 2195 00d2 002B     		cmp	r3, #0
 2196 00d4 E2D1     		bne	.L90
 2197              		.loc 1 956 0 is_stmt 0 discriminator 2
 2198 00d6 099B     		ldr	r3, [sp, #36]
 2199 00d8 1B88     		ldrh	r3, [r3, #0]	@ movhi
 2200 00da 9BB2     		uxth	r3, r3
 2201 00dc 03F40073 		and	r3, r3, #512
 2202 00e0 002B     		cmp	r3, #0
 2203 00e2 DBD1     		bne	.L90
 2204              	.LBB22:
 2205              		.loc 1 964 0 is_stmt 1
 2206 00e4 4FF02003 		mov	r3, #32
 2207              	@ 964 "../chibios_2.4.x/os/hal/platforms/STM32/i2c_lld.c" 1
ARM GAS  C:\Users\z80\AppData\Local\Temp\ccHBr3N4.s 			page 41


 2208 00e8 83F31188 		msr     BASEPRI, r3
 2209              	@ 0 "" 2
 2210              		.thumb
 2211              	.LBE22:
 2212 00ec FFF7FEFF 		bl	dbg_check_lock
 2213              		.loc 1 968 0
 2214 00f0 0E9B     		ldr	r3, [sp, #56]
 2215 00f2 B3F1FF3F 		cmp	r3, #-1
 2216 00f6 05D0     		beq	.L91
 2217              		.loc 1 968 0 is_stmt 0 discriminator 1
 2218 00f8 079B     		ldr	r3, [sp, #28]
 2219 00fa 002B     		cmp	r3, #0
 2220 00fc 02D1     		bne	.L91
 2221              		.loc 1 969 0 is_stmt 1
 2222 00fe 4FF0FF33 		mov	r3, #-1
 2223 0102 30E0     		b	.L89
 2224              	.L91:
 2225              		.loc 1 972 0
 2226 0104 039B     		ldr	r3, [sp, #12]
 2227 0106 4FF00002 		mov	r2, #0
 2228 010a 83F83420 		strb	r2, [r3, #52]
 2229              		.loc 1 975 0
 2230 010e 099B     		ldr	r3, [sp, #36]
 2231 0110 9B88     		ldrh	r3, [r3, #4]	@ movhi
 2232 0112 9BB2     		uxth	r3, r3
 2233 0114 43F40073 		orr	r3, r3, #512
 2234 0118 9AB2     		uxth	r2, r3
 2235 011a 099B     		ldr	r3, [sp, #36]
 2236 011c 9A80     		strh	r2, [r3, #4]	@ movhi
 2237              		.loc 1 976 0
 2238 011e 099B     		ldr	r3, [sp, #36]
 2239 0120 1B88     		ldrh	r3, [r3, #0]	@ movhi
 2240 0122 9BB2     		uxth	r3, r3
 2241 0124 43F48073 		orr	r3, r3, #256
 2242 0128 9AB2     		uxth	r2, r3
 2243 012a 099B     		ldr	r3, [sp, #36]
 2244 012c 1A80     		strh	r2, [r3, #0]	@ movhi
 2245              		.loc 1 979 0
 2246 012e 40F20003 		movw	r3, #:lower16:rlist
 2247 0132 C0F20003 		movt	r3, #:upper16:rlist
 2248 0136 DA69     		ldr	r2, [r3, #28]
 2249 0138 039B     		ldr	r3, [sp, #12]
 2250 013a DA61     		str	r2, [r3, #28]
 2251              		.loc 1 980 0
 2252 013c 4FF00200 		mov	r0, #2
 2253 0140 FFF7FEFF 		bl	chSchGoSleepS
 2254              		.loc 1 981 0
 2255 0144 0E9B     		ldr	r3, [sp, #56]
 2256 0146 B3F1FF3F 		cmp	r3, #-1
 2257 014a 06D0     		beq	.L92
 2258              		.loc 1 981 0 is_stmt 0 discriminator 1
 2259 014c 079B     		ldr	r3, [sp, #28]
 2260 014e 002B     		cmp	r3, #0
 2261 0150 03D0     		beq	.L92
 2262              		.loc 1 982 0 is_stmt 1
 2263 0152 04AB     		add	r3, sp, #16
 2264 0154 1846     		mov	r0, r3
ARM GAS  C:\Users\z80\AppData\Local\Temp\ccHBr3N4.s 			page 42


 2265 0156 FFF7FEFF 		bl	chVTResetI
 2266              	.L92:
 2267              		.loc 1 984 0
 2268 015a 40F20003 		movw	r3, #:lower16:rlist
 2269 015e C0F20003 		movt	r3, #:upper16:rlist
 2270 0162 DB69     		ldr	r3, [r3, #28]
 2271 0164 9B6A     		ldr	r3, [r3, #40]
 2272              	.L89:
 2273              		.loc 1 985 0
 2274 0166 1846     		mov	r0, r3
 2275 0168 0BB0     		add	sp, sp, #44
 2276 016a 00BD     		pop	{pc}
 2277              		.cfi_endproc
 2278              	.LFE76:
 2279              		.size	i2c_lld_master_transmit_timeout, .-i2c_lld_master_transmit_timeout
 2280 016c AFF30080 		.section	.text.i2c_lld_slave_io_timeout,"ax",%progbits
 2281              		.align	2
 2282              		.p2align 4,,15
 2283              		.global	i2c_lld_slave_io_timeout
 2284              		.thumb
 2285              		.thumb_func
 2286              		.type	i2c_lld_slave_io_timeout, %function
 2287              	i2c_lld_slave_io_timeout:
 2288              	.LFB77:
 2289              		.loc 1 995 0
 2290              		.cfi_startproc
 2291              		@ args = 20, pretend = 0, frame = 40
 2292              		@ frame_needed = 0, uses_anonymous_args = 0
 2293 0000 00B5     		push	{lr}
 2294              	.LCFI25:
 2295              		.cfi_def_cfa_offset 4
 2296 0002 8BB0     		sub	sp, sp, #44
 2297              	.LCFI26:
 2298              		.cfi_def_cfa_offset 48
 2299 0004 0390     		str	r0, [sp, #12]
 2300 0006 0192     		str	r2, [sp, #4]
 2301 0008 0093     		str	r3, [sp, #0]
 2302 000a 0B46     		mov	r3, r1	@ movhi
 2303 000c ADF80A30 		strh	r3, [sp, #10]	@ movhi
 2304              		.loc 1 996 0
 2305 0010 039B     		ldr	r3, [sp, #12]
 2306 0012 1B6B     		ldr	r3, [r3, #48]
 2307 0014 0993     		str	r3, [sp, #36]
 2308              		.loc 1 1000 0
 2309 0016 40F20003 		movw	r3, #:lower16:rlist
 2310 001a C0F20003 		movt	r3, #:upper16:rlist
 2311 001e DA69     		ldr	r2, [r3, #28]
 2312 0020 039B     		ldr	r3, [sp, #12]
 2313 0022 DA61     		str	r2, [r3, #28]
 2314              		.loc 1 1001 0
 2315 0024 109B     		ldr	r3, [sp, #64]
 2316 0026 B3F1FF3F 		cmp	r3, #-1
 2317 002a 09D0     		beq	.L94
 2318              		.cfi_offset 14, -4
 2319              		.loc 1 1002 0
 2320 002c 04AB     		add	r3, sp, #16
 2321 002e 1846     		mov	r0, r3
ARM GAS  C:\Users\z80\AppData\Local\Temp\ccHBr3N4.s 			page 43


 2322 0030 1099     		ldr	r1, [sp, #64]
 2323 0032 40F20002 		movw	r2, #:lower16:i2c_lld_safety_timeout
 2324 0036 C0F20002 		movt	r2, #:upper16:i2c_lld_safety_timeout
 2325 003a 039B     		ldr	r3, [sp, #12]
 2326 003c FFF7FEFF 		bl	chVTSetI
 2327              	.L94:
 2328              		.loc 1 1006 0
 2329 0040 FFF7FEFF 		bl	dbg_check_unlock
 2330              	.LBB23:
 2331 0044 4FF00003 		mov	r3, #0
 2332              	@ 1006 "../chibios_2.4.x/os/hal/platforms/STM32/i2c_lld.c" 1
 2333 0048 83F31188 		msr     BASEPRI, r3
 2334              	@ 0 "" 2
 2335              		.thumb
 2336              	.LBE23:
 2337              		.loc 1 1007 0
 2338 004c 15E0     		b	.L95
 2339              	.L98:
 2340              	.LBB24:
 2341              		.loc 1 1009 0
 2342 004e 4FF02003 		mov	r3, #32
 2343              	@ 1009 "../chibios_2.4.x/os/hal/platforms/STM32/i2c_lld.c" 1
 2344 0052 83F31188 		msr     BASEPRI, r3
 2345              	@ 0 "" 2
 2346              		.thumb
 2347              	.LBE24:
 2348 0056 FFF7FEFF 		bl	dbg_check_lock
 2349              		.loc 1 1010 0
 2350 005a 109B     		ldr	r3, [sp, #64]
 2351 005c B3F1FF3F 		cmp	r3, #-1
 2352 0060 05D0     		beq	.L96
 2353              		.loc 1 1010 0 is_stmt 0 discriminator 1
 2354 0062 079B     		ldr	r3, [sp, #28]
 2355 0064 002B     		cmp	r3, #0
 2356 0066 02D1     		bne	.L96
 2357              		.loc 1 1011 0 is_stmt 1
 2358 0068 4FF0FF33 		mov	r3, #-1
 2359 006c 8BE0     		b	.L97
 2360              	.L96:
 2361              		.loc 1 1012 0
 2362 006e FFF7FEFF 		bl	dbg_check_unlock
 2363              	.LBB25:
 2364 0072 4FF00003 		mov	r3, #0
 2365              	@ 1012 "../chibios_2.4.x/os/hal/platforms/STM32/i2c_lld.c" 1
 2366 0076 83F31188 		msr     BASEPRI, r3
 2367              	@ 0 "" 2
 2368              		.thumb
 2369              	.L95:
 2370              	.LBE25:
 2371              		.loc 1 1007 0 discriminator 1
 2372 007a 099B     		ldr	r3, [sp, #36]
 2373 007c 1B8B     		ldrh	r3, [r3, #24]	@ movhi
 2374 007e 9BB2     		uxth	r3, r3
 2375 0080 03F00203 		and	r3, r3, #2
 2376 0084 002B     		cmp	r3, #0
 2377 0086 E2D1     		bne	.L98
 2378              		.loc 1 1007 0 is_stmt 0 discriminator 2
ARM GAS  C:\Users\z80\AppData\Local\Temp\ccHBr3N4.s 			page 44


 2379 0088 099B     		ldr	r3, [sp, #36]
 2380 008a 1B88     		ldrh	r3, [r3, #0]	@ movhi
 2381 008c 9BB2     		uxth	r3, r3
 2382 008e 03F40073 		and	r3, r3, #512
 2383 0092 002B     		cmp	r3, #0
 2384 0094 DBD1     		bne	.L98
 2385              	.LBB26:
 2386              		.loc 1 1016 0 is_stmt 1
 2387 0096 4FF02003 		mov	r3, #32
 2388              	@ 1016 "../chibios_2.4.x/os/hal/platforms/STM32/i2c_lld.c" 1
 2389 009a 83F31188 		msr     BASEPRI, r3
 2390              	@ 0 "" 2
 2391              		.thumb
 2392              	.LBE26:
 2393 009e FFF7FEFF 		bl	dbg_check_lock
 2394              		.loc 1 1020 0
 2395 00a2 109B     		ldr	r3, [sp, #64]
 2396 00a4 B3F1FF3F 		cmp	r3, #-1
 2397 00a8 05D0     		beq	.L99
 2398              		.loc 1 1020 0 is_stmt 0 discriminator 1
 2399 00aa 079B     		ldr	r3, [sp, #28]
 2400 00ac 002B     		cmp	r3, #0
 2401 00ae 02D1     		bne	.L99
 2402              		.loc 1 1021 0 is_stmt 1
 2403 00b0 4FF0FF33 		mov	r3, #-1
 2404 00b4 67E0     		b	.L97
 2405              	.L99:
 2406              		.loc 1 1024 0
 2407 00b6 BDF80A30 		ldrh	r3, [sp, #10]	@ movhi
 2408 00ba 4FEA4303 		lsl	r3, r3, #1
 2409 00be 9AB2     		uxth	r2, r3
 2410 00c0 039B     		ldr	r3, [sp, #12]
 2411 00c2 1A84     		strh	r2, [r3, #32]	@ movhi
 2412              		.loc 1 1025 0
 2413 00c4 039B     		ldr	r3, [sp, #12]
 2414 00c6 4FF00002 		mov	r2, #0
 2415 00ca 9A60     		str	r2, [r3, #8]
 2416              		.loc 1 1027 0
 2417 00cc 039B     		ldr	r3, [sp, #12]
 2418 00ce 019A     		ldr	r2, [sp, #4]
 2419 00d0 9A63     		str	r2, [r3, #56]
 2420              		.loc 1 1028 0
 2421 00d2 039B     		ldr	r3, [sp, #12]
 2422 00d4 009A     		ldr	r2, [sp, #0]
 2423 00d6 DA63     		str	r2, [r3, #60]
 2424              		.loc 1 1029 0
 2425 00d8 039B     		ldr	r3, [sp, #12]
 2426 00da 4FF00002 		mov	r2, #0
 2427 00de 1A64     		str	r2, [r3, #64]
 2428              		.loc 1 1030 0
 2429 00e0 039B     		ldr	r3, [sp, #12]
 2430 00e2 0E9A     		ldr	r2, [sp, #56]
 2431 00e4 5A64     		str	r2, [r3, #68]
 2432              		.loc 1 1032 0
 2433 00e6 039B     		ldr	r3, [sp, #12]
 2434 00e8 0C9A     		ldr	r2, [sp, #48]
 2435 00ea 9A64     		str	r2, [r3, #72]
ARM GAS  C:\Users\z80\AppData\Local\Temp\ccHBr3N4.s 			page 45


 2436              		.loc 1 1033 0
 2437 00ec 039B     		ldr	r3, [sp, #12]
 2438 00ee 0D9A     		ldr	r2, [sp, #52]
 2439 00f0 DA64     		str	r2, [r3, #76]
 2440              		.loc 1 1034 0
 2441 00f2 039B     		ldr	r3, [sp, #12]
 2442 00f4 4FF00002 		mov	r2, #0
 2443 00f8 1A65     		str	r2, [r3, #80]
 2444              		.loc 1 1035 0
 2445 00fa 039B     		ldr	r3, [sp, #12]
 2446 00fc 0F9A     		ldr	r2, [sp, #60]
 2447 00fe 5A65     		str	r2, [r3, #84]
 2448              		.loc 1 1037 0
 2449 0100 039B     		ldr	r3, [sp, #12]
 2450 0102 4FF00102 		mov	r2, #1
 2451 0106 83F83420 		strb	r2, [r3, #52]
 2452              		.loc 1 1040 0
 2453 010a 099B     		ldr	r3, [sp, #36]
 2454 010c 1B88     		ldrh	r3, [r3, #0]	@ movhi
 2455 010e 9BB2     		uxth	r3, r3
 2456 0110 23F48073 		bic	r3, r3, #256
 2457 0114 9AB2     		uxth	r2, r3
 2458 0116 099B     		ldr	r3, [sp, #36]
 2459 0118 1A80     		strh	r2, [r3, #0]	@ movhi
 2460              		.loc 1 1042 0
 2461 011a 099B     		ldr	r3, [sp, #36]
 2462 011c 9B88     		ldrh	r3, [r3, #4]	@ movhi
 2463 011e 9BB2     		uxth	r3, r3
 2464 0120 23F40063 		bic	r3, r3, #2048
 2465 0124 9AB2     		uxth	r2, r3
 2466 0126 099B     		ldr	r3, [sp, #36]
 2467 0128 9A80     		strh	r2, [r3, #4]	@ movhi
 2468              		.loc 1 1044 0
 2469 012a BDF80A30 		ldrh	r3, [sp, #10]
 2470 012e 4FEA4303 		lsl	r3, r3, #1
 2471 0132 9BB2     		uxth	r3, r3
 2472 0134 03F0FF03 		and	r3, r3, #255
 2473 0138 9AB2     		uxth	r2, r3
 2474 013a 099B     		ldr	r3, [sp, #36]
 2475 013c 1A81     		strh	r2, [r3, #8]	@ movhi
 2476              		.loc 1 1046 0
 2477 013e 099B     		ldr	r3, [sp, #36]
 2478 0140 9B88     		ldrh	r3, [r3, #4]	@ movhi
 2479 0142 9BB2     		uxth	r3, r3
 2480 0144 43F4C063 		orr	r3, r3, #1536
 2481 0148 9AB2     		uxth	r2, r3
 2482 014a 099B     		ldr	r3, [sp, #36]
 2483 014c 9A80     		strh	r2, [r3, #4]	@ movhi
 2484              		.loc 1 1048 0
 2485 014e 099B     		ldr	r3, [sp, #36]
 2486 0150 1B88     		ldrh	r3, [r3, #0]	@ movhi
 2487 0152 9BB2     		uxth	r3, r3
 2488 0154 43F48063 		orr	r3, r3, #1024
 2489 0158 9AB2     		uxth	r2, r3
 2490 015a 099B     		ldr	r3, [sp, #36]
 2491 015c 1A80     		strh	r2, [r3, #0]	@ movhi
 2492              		.loc 1 1051 0
ARM GAS  C:\Users\z80\AppData\Local\Temp\ccHBr3N4.s 			page 46


 2493 015e 40F20003 		movw	r3, #:lower16:rlist
 2494 0162 C0F20003 		movt	r3, #:upper16:rlist
 2495 0166 DA69     		ldr	r2, [r3, #28]
 2496 0168 039B     		ldr	r3, [sp, #12]
 2497 016a DA61     		str	r2, [r3, #28]
 2498              		.loc 1 1053 0
 2499 016c 109B     		ldr	r3, [sp, #64]
 2500 016e B3F1FF3F 		cmp	r3, #-1
 2501 0172 06D0     		beq	.L100
 2502              		.loc 1 1053 0 is_stmt 0 discriminator 1
 2503 0174 079B     		ldr	r3, [sp, #28]
 2504 0176 002B     		cmp	r3, #0
 2505 0178 03D0     		beq	.L100
 2506              		.loc 1 1054 0 is_stmt 1
 2507 017a 04AB     		add	r3, sp, #16
 2508 017c 1846     		mov	r0, r3
 2509 017e FFF7FEFF 		bl	chVTResetI
 2510              	.L100:
 2511              		.loc 1 1057 0
 2512 0182 4FF00003 		mov	r3, #0
 2513              	.L97:
 2514              		.loc 1 1058 0
 2515 0186 1846     		mov	r0, r3
 2516 0188 0BB0     		add	sp, sp, #44
 2517 018a 00BD     		pop	{pc}
 2518              		.cfi_endproc
 2519              	.LFE77:
 2520              		.size	i2c_lld_slave_io_timeout, .-i2c_lld_slave_io_timeout
 2521 018c AFF30080 		.text
 2522              	.Letext0:
 2523              		.section	.debug_loc,"",%progbits
 2524              	.Ldebug_loc0:
 2525              	.LLST0:
 2526 0000 00000000 		.4byte	.LFB62
 2527 0004 02000000 		.4byte	.LCFI0
 2528 0008 0200     		.2byte	0x2
 2529 000a 7D       		.byte	0x7d
 2530 000b 00       		.sleb128 0
 2531 000c 02000000 		.4byte	.LCFI0
 2532 0010 82000000 		.4byte	.LFE62
 2533 0014 0200     		.2byte	0x2
 2534 0016 7D       		.byte	0x7d
 2535 0017 10       		.sleb128 16
 2536 0018 00000000 		.4byte	0x0
 2537 001c 00000000 		.4byte	0x0
 2538              	.LLST1:
 2539 0020 00000000 		.4byte	.LFB63
 2540 0024 02000000 		.4byte	.LCFI1
 2541 0028 0200     		.2byte	0x2
 2542 002a 7D       		.byte	0x7d
 2543 002b 00       		.sleb128 0
 2544 002c 02000000 		.4byte	.LCFI1
 2545 0030 04000000 		.4byte	.LCFI2
 2546 0034 0200     		.2byte	0x2
 2547 0036 7D       		.byte	0x7d
 2548 0037 04       		.sleb128 4
 2549 0038 04000000 		.4byte	.LCFI2
ARM GAS  C:\Users\z80\AppData\Local\Temp\ccHBr3N4.s 			page 47


 2550 003c 38000000 		.4byte	.LFE63
 2551 0040 0200     		.2byte	0x2
 2552 0042 7D       		.byte	0x7d
 2553 0043 18       		.sleb128 24
 2554 0044 00000000 		.4byte	0x0
 2555 0048 00000000 		.4byte	0x0
 2556              	.LLST2:
 2557 004c 00000000 		.4byte	.LFB64
 2558 0050 02000000 		.4byte	.LCFI3
 2559 0054 0200     		.2byte	0x2
 2560 0056 7D       		.byte	0x7d
 2561 0057 00       		.sleb128 0
 2562 0058 02000000 		.4byte	.LCFI3
 2563 005c 04000000 		.4byte	.LCFI4
 2564 0060 0200     		.2byte	0x2
 2565 0062 7D       		.byte	0x7d
 2566 0063 04       		.sleb128 4
 2567 0064 04000000 		.4byte	.LCFI4
 2568 0068 5C020000 		.4byte	.LFE64
 2569 006c 0200     		.2byte	0x2
 2570 006e 7D       		.byte	0x7d
 2571 006f 20       		.sleb128 32
 2572 0070 00000000 		.4byte	0x0
 2573 0074 00000000 		.4byte	0x0
 2574              	.LLST3:
 2575 0078 00000000 		.4byte	.LFB65
 2576 007c 02000000 		.4byte	.LCFI5
 2577 0080 0200     		.2byte	0x2
 2578 0082 7D       		.byte	0x7d
 2579 0083 00       		.sleb128 0
 2580 0084 02000000 		.4byte	.LCFI5
 2581 0088 6E000000 		.4byte	.LFE65
 2582 008c 0200     		.2byte	0x2
 2583 008e 7D       		.byte	0x7d
 2584 008f 18       		.sleb128 24
 2585 0090 00000000 		.4byte	0x0
 2586 0094 00000000 		.4byte	0x0
 2587              	.LLST4:
 2588 0098 00000000 		.4byte	.LFB66
 2589 009c 02000000 		.4byte	.LCFI6
 2590 00a0 0200     		.2byte	0x2
 2591 00a2 7D       		.byte	0x7d
 2592 00a3 00       		.sleb128 0
 2593 00a4 02000000 		.4byte	.LCFI6
 2594 00a8 04000000 		.4byte	.LCFI7
 2595 00ac 0200     		.2byte	0x2
 2596 00ae 7D       		.byte	0x7d
 2597 00af 04       		.sleb128 4
 2598 00b0 04000000 		.4byte	.LCFI7
 2599 00b4 96020000 		.4byte	.LFE66
 2600 00b8 0200     		.2byte	0x2
 2601 00ba 7D       		.byte	0x7d
 2602 00bb 20       		.sleb128 32
 2603 00bc 00000000 		.4byte	0x0
 2604 00c0 00000000 		.4byte	0x0
 2605              	.LLST5:
 2606 00c4 00000000 		.4byte	.LFB67
ARM GAS  C:\Users\z80\AppData\Local\Temp\ccHBr3N4.s 			page 48


 2607 00c8 02000000 		.4byte	.LCFI8
 2608 00cc 0200     		.2byte	0x2
 2609 00ce 7D       		.byte	0x7d
 2610 00cf 00       		.sleb128 0
 2611 00d0 02000000 		.4byte	.LCFI8
 2612 00d4 04000000 		.4byte	.LCFI9
 2613 00d8 0200     		.2byte	0x2
 2614 00da 7D       		.byte	0x7d
 2615 00db 04       		.sleb128 4
 2616 00dc 04000000 		.4byte	.LCFI9
 2617 00e0 C0000000 		.4byte	.LFE67
 2618 00e4 0200     		.2byte	0x2
 2619 00e6 7D       		.byte	0x7d
 2620 00e7 18       		.sleb128 24
 2621 00e8 00000000 		.4byte	0x0
 2622 00ec 00000000 		.4byte	0x0
 2623              	.LLST6:
 2624 00f0 00000000 		.4byte	.LFB68
 2625 00f4 02000000 		.4byte	.LCFI10
 2626 00f8 0200     		.2byte	0x2
 2627 00fa 7D       		.byte	0x7d
 2628 00fb 00       		.sleb128 0
 2629 00fc 02000000 		.4byte	.LCFI10
 2630 0100 04000000 		.4byte	.LCFI11
 2631 0104 0200     		.2byte	0x2
 2632 0106 7D       		.byte	0x7d
 2633 0107 04       		.sleb128 4
 2634 0108 04000000 		.4byte	.LCFI11
 2635 010c 5A000000 		.4byte	.LFE68
 2636 0110 0200     		.2byte	0x2
 2637 0112 7D       		.byte	0x7d
 2638 0113 18       		.sleb128 24
 2639 0114 00000000 		.4byte	0x0
 2640 0118 00000000 		.4byte	0x0
 2641              	.LLST7:
 2642 011c 00000000 		.4byte	.LFB69
 2643 0120 02000000 		.4byte	.LCFI12
 2644 0124 0200     		.2byte	0x2
 2645 0126 7D       		.byte	0x7d
 2646 0127 00       		.sleb128 0
 2647 0128 02000000 		.4byte	.LCFI12
 2648 012c 04000000 		.4byte	.LCFI13
 2649 0130 0200     		.2byte	0x2
 2650 0132 7D       		.byte	0x7d
 2651 0133 04       		.sleb128 4
 2652 0134 04000000 		.4byte	.LCFI13
 2653 0138 28020000 		.4byte	.LFE69
 2654 013c 0200     		.2byte	0x2
 2655 013e 7D       		.byte	0x7d
 2656 013f 20       		.sleb128 32
 2657 0140 00000000 		.4byte	0x0
 2658 0144 00000000 		.4byte	0x0
 2659              	.LLST8:
 2660 0148 00000000 		.4byte	.LFB70
 2661 014c 02000000 		.4byte	.LCFI14
 2662 0150 0200     		.2byte	0x2
 2663 0152 7D       		.byte	0x7d
ARM GAS  C:\Users\z80\AppData\Local\Temp\ccHBr3N4.s 			page 49


 2664 0153 00       		.sleb128 0
 2665 0154 02000000 		.4byte	.LCFI14
 2666 0158 1C000000 		.4byte	.LFE70
 2667 015c 0200     		.2byte	0x2
 2668 015e 7D       		.byte	0x7d
 2669 015f 08       		.sleb128 8
 2670 0160 00000000 		.4byte	0x0
 2671 0164 00000000 		.4byte	0x0
 2672              	.LLST9:
 2673 0168 00000000 		.4byte	.LFB71
 2674 016c 02000000 		.4byte	.LCFI15
 2675 0170 0200     		.2byte	0x2
 2676 0172 7D       		.byte	0x7d
 2677 0173 00       		.sleb128 0
 2678 0174 02000000 		.4byte	.LCFI15
 2679 0178 1C000000 		.4byte	.LFE71
 2680 017c 0200     		.2byte	0x2
 2681 017e 7D       		.byte	0x7d
 2682 017f 08       		.sleb128 8
 2683 0180 00000000 		.4byte	0x0
 2684 0184 00000000 		.4byte	0x0
 2685              	.LLST10:
 2686 0188 00000000 		.4byte	.LFB72
 2687 018c 02000000 		.4byte	.LCFI16
 2688 0190 0200     		.2byte	0x2
 2689 0192 7D       		.byte	0x7d
 2690 0193 00       		.sleb128 0
 2691 0194 02000000 		.4byte	.LCFI16
 2692 0198 50000000 		.4byte	.LFE72
 2693 019c 0200     		.2byte	0x2
 2694 019e 7D       		.byte	0x7d
 2695 019f 08       		.sleb128 8
 2696 01a0 00000000 		.4byte	0x0
 2697 01a4 00000000 		.4byte	0x0
 2698              	.LLST11:
 2699 01a8 00000000 		.4byte	.LFB73
 2700 01ac 02000000 		.4byte	.LCFI17
 2701 01b0 0200     		.2byte	0x2
 2702 01b2 7D       		.byte	0x7d
 2703 01b3 00       		.sleb128 0
 2704 01b4 02000000 		.4byte	.LCFI17
 2705 01b8 04000000 		.4byte	.LCFI18
 2706 01bc 0200     		.2byte	0x2
 2707 01be 7D       		.byte	0x7d
 2708 01bf 04       		.sleb128 4
 2709 01c0 04000000 		.4byte	.LCFI18
 2710 01c4 5C010000 		.4byte	.LFE73
 2711 01c8 0200     		.2byte	0x2
 2712 01ca 7D       		.byte	0x7d
 2713 01cb 18       		.sleb128 24
 2714 01cc 00000000 		.4byte	0x0
 2715 01d0 00000000 		.4byte	0x0
 2716              	.LLST12:
 2717 01d4 00000000 		.4byte	.LFB74
 2718 01d8 02000000 		.4byte	.LCFI19
 2719 01dc 0200     		.2byte	0x2
 2720 01de 7D       		.byte	0x7d
ARM GAS  C:\Users\z80\AppData\Local\Temp\ccHBr3N4.s 			page 50


 2721 01df 00       		.sleb128 0
 2722 01e0 02000000 		.4byte	.LCFI19
 2723 01e4 04000000 		.4byte	.LCFI20
 2724 01e8 0200     		.2byte	0x2
 2725 01ea 7D       		.byte	0x7d
 2726 01eb 04       		.sleb128 4
 2727 01ec 04000000 		.4byte	.LCFI20
 2728 01f0 62000000 		.4byte	.LFE74
 2729 01f4 0200     		.2byte	0x2
 2730 01f6 7D       		.byte	0x7d
 2731 01f7 10       		.sleb128 16
 2732 01f8 00000000 		.4byte	0x0
 2733 01fc 00000000 		.4byte	0x0
 2734              	.LLST13:
 2735 0200 00000000 		.4byte	.LFB75
 2736 0204 02000000 		.4byte	.LCFI21
 2737 0208 0200     		.2byte	0x2
 2738 020a 7D       		.byte	0x7d
 2739 020b 00       		.sleb128 0
 2740 020c 02000000 		.4byte	.LCFI21
 2741 0210 04000000 		.4byte	.LCFI22
 2742 0214 0200     		.2byte	0x2
 2743 0216 7D       		.byte	0x7d
 2744 0217 04       		.sleb128 4
 2745 0218 04000000 		.4byte	.LCFI22
 2746 021c 54010000 		.4byte	.LFE75
 2747 0220 0200     		.2byte	0x2
 2748 0222 7D       		.byte	0x7d
 2749 0223 30       		.sleb128 48
 2750 0224 00000000 		.4byte	0x0
 2751 0228 00000000 		.4byte	0x0
 2752              	.LLST14:
 2753 022c 00000000 		.4byte	.LFB76
 2754 0230 02000000 		.4byte	.LCFI23
 2755 0234 0200     		.2byte	0x2
 2756 0236 7D       		.byte	0x7d
 2757 0237 00       		.sleb128 0
 2758 0238 02000000 		.4byte	.LCFI23
 2759 023c 04000000 		.4byte	.LCFI24
 2760 0240 0200     		.2byte	0x2
 2761 0242 7D       		.byte	0x7d
 2762 0243 04       		.sleb128 4
 2763 0244 04000000 		.4byte	.LCFI24
 2764 0248 6C010000 		.4byte	.LFE76
 2765 024c 0200     		.2byte	0x2
 2766 024e 7D       		.byte	0x7d
 2767 024f 30       		.sleb128 48
 2768 0250 00000000 		.4byte	0x0
 2769 0254 00000000 		.4byte	0x0
 2770              	.LLST15:
 2771 0258 00000000 		.4byte	.LFB77
 2772 025c 02000000 		.4byte	.LCFI25
 2773 0260 0200     		.2byte	0x2
 2774 0262 7D       		.byte	0x7d
 2775 0263 00       		.sleb128 0
 2776 0264 02000000 		.4byte	.LCFI25
 2777 0268 04000000 		.4byte	.LCFI26
ARM GAS  C:\Users\z80\AppData\Local\Temp\ccHBr3N4.s 			page 51


 2778 026c 0200     		.2byte	0x2
 2779 026e 7D       		.byte	0x7d
 2780 026f 04       		.sleb128 4
 2781 0270 04000000 		.4byte	.LCFI26
 2782 0274 8C010000 		.4byte	.LFE77
 2783 0278 0200     		.2byte	0x2
 2784 027a 7D       		.byte	0x7d
 2785 027b 30       		.sleb128 48
 2786 027c 00000000 		.4byte	0x0
 2787 0280 00000000 		.4byte	0x0
 2788              		.file 2 "c:\\programs\\yagarto\\bin\\../lib/gcc/arm-none-eabi/4.5.0/include/stddef.h"
 2789              		.file 3 "c:/programs/yagarto/lib/gcc/../../arm-none-eabi/sys-include/stdint.h"
 2790              		.file 4 "../chibios_2.4.x/os/ports/GCC/ARMCMx/chtypes.h"
 2791              		.file 5 "../chibios_2.4.x/os/kernel/include/chlists.h"
 2792              		.file 6 "../chibios_2.4.x/os/kernel/include/chthreads.h"
 2793              		.file 7 "../chibios_2.4.x/os/ports/GCC/ARMCMx/chcore_v7m.h"
 2794              		.file 8 "../chibios_2.4.x/os/kernel/include/chvt.h"
 2795              		.file 9 "../chibios_2.4.x/os/kernel/include/chschd.h"
 2796              		.file 10 "../chibios_2.4.x/os/kernel/include/chmtx.h"
 2797              		.file 11 "../chibios_2.4.x/os/hal/platforms/STM32F1xx/stm32f10x.h"
 2798              		.file 12 "../chibios_2.4.x/os/hal/platforms/STM32F1xx/stm32_dma.h"
 2799              		.file 13 "../chibios_2.4.x/os/hal/include/i2c.h"
 2800              		.file 14 "../chibios_2.4.x/os/hal/platforms/STM32/i2c_lld.h"
 2801              		.file 15 "../chibios_2.4.x/os/ports/common/ARMCMx/CMSIS/include/core_cm3.h"
 2802              		.section	.debug_info
 2803 0000 7E130000 		.4byte	0x137e
 2804 0004 0200     		.2byte	0x2
 2805 0006 00000000 		.4byte	.Ldebug_abbrev0
 2806 000a 04       		.byte	0x4
 2807 000b 01       		.uleb128 0x1
 2808 000c 07070000 		.4byte	.LASF229
 2809 0010 01       		.byte	0x1
 2810 0011 DA040000 		.4byte	.LASF230
 2811 0015 0F040000 		.4byte	.LASF231
 2812 0019 00000000 		.4byte	0x0
 2813 001d 00000000 		.4byte	0x0
 2814 0021 00000000 		.4byte	.Ldebug_ranges0+0x0
 2815 0025 00000000 		.4byte	.Ldebug_line0
 2816 0029 02       		.uleb128 0x2
 2817 002a 04       		.byte	0x4
 2818 002b 05       		.byte	0x5
 2819 002c 696E7400 		.ascii	"int\000"
 2820 0030 03       		.uleb128 0x3
 2821 0031 00000000 		.4byte	.LASF2
 2822 0035 02       		.byte	0x2
 2823 0036 D3       		.byte	0xd3
 2824 0037 3B000000 		.4byte	0x3b
 2825 003b 04       		.uleb128 0x4
 2826 003c 04       		.byte	0x4
 2827 003d 07       		.byte	0x7
 2828 003e 0C060000 		.4byte	.LASF0
 2829 0042 04       		.uleb128 0x4
 2830 0043 01       		.byte	0x1
 2831 0044 06       		.byte	0x6
 2832 0045 D6010000 		.4byte	.LASF1
 2833 0049 03       		.uleb128 0x3
 2834 004a E9010000 		.4byte	.LASF3
ARM GAS  C:\Users\z80\AppData\Local\Temp\ccHBr3N4.s 			page 52


 2835 004e 03       		.byte	0x3
 2836 004f 2A       		.byte	0x2a
 2837 0050 54000000 		.4byte	0x54
 2838 0054 04       		.uleb128 0x4
 2839 0055 01       		.byte	0x1
 2840 0056 08       		.byte	0x8
 2841 0057 19020000 		.4byte	.LASF4
 2842 005b 04       		.uleb128 0x4
 2843 005c 02       		.byte	0x2
 2844 005d 05       		.byte	0x5
 2845 005e 57080000 		.4byte	.LASF5
 2846 0062 03       		.uleb128 0x3
 2847 0063 5A070000 		.4byte	.LASF6
 2848 0067 03       		.byte	0x3
 2849 0068 36       		.byte	0x36
 2850 0069 6D000000 		.4byte	0x6d
 2851 006d 04       		.uleb128 0x4
 2852 006e 02       		.byte	0x2
 2853 006f 07       		.byte	0x7
 2854 0070 9C090000 		.4byte	.LASF7
 2855 0074 03       		.uleb128 0x3
 2856 0075 6C000000 		.4byte	.LASF8
 2857 0079 03       		.byte	0x3
 2858 007a 4F       		.byte	0x4f
 2859 007b 7F000000 		.4byte	0x7f
 2860 007f 04       		.uleb128 0x4
 2861 0080 04       		.byte	0x4
 2862 0081 05       		.byte	0x5
 2863 0082 40010000 		.4byte	.LASF9
 2864 0086 03       		.uleb128 0x3
 2865 0087 22090000 		.4byte	.LASF10
 2866 008b 03       		.byte	0x3
 2867 008c 50       		.byte	0x50
 2868 008d 91000000 		.4byte	0x91
 2869 0091 04       		.uleb128 0x4
 2870 0092 04       		.byte	0x4
 2871 0093 07       		.byte	0x7
 2872 0094 58040000 		.4byte	.LASF11
 2873 0098 04       		.uleb128 0x4
 2874 0099 08       		.byte	0x8
 2875 009a 05       		.byte	0x5
 2876 009b 43050000 		.4byte	.LASF12
 2877 009f 03       		.uleb128 0x3
 2878 00a0 74080000 		.4byte	.LASF13
 2879 00a4 03       		.byte	0x3
 2880 00a5 78       		.byte	0x78
 2881 00a6 AA000000 		.4byte	0xaa
 2882 00aa 04       		.uleb128 0x4
 2883 00ab 08       		.byte	0x8
 2884 00ac 07       		.byte	0x7
 2885 00ad 22070000 		.4byte	.LASF14
 2886 00b1 03       		.uleb128 0x3
 2887 00b2 BB080000 		.4byte	.LASF15
 2888 00b6 04       		.byte	0x4
 2889 00b7 2E       		.byte	0x2e
 2890 00b8 74000000 		.4byte	0x74
 2891 00bc 03       		.uleb128 0x3
ARM GAS  C:\Users\z80\AppData\Local\Temp\ccHBr3N4.s 			page 53


 2892 00bd F0070000 		.4byte	.LASF16
 2893 00c1 04       		.byte	0x4
 2894 00c2 2F       		.byte	0x2f
 2895 00c3 49000000 		.4byte	0x49
 2896 00c7 03       		.uleb128 0x3
 2897 00c8 70010000 		.4byte	.LASF17
 2898 00cc 04       		.byte	0x4
 2899 00cd 30       		.byte	0x30
 2900 00ce 49000000 		.4byte	0x49
 2901 00d2 03       		.uleb128 0x3
 2902 00d3 26000000 		.4byte	.LASF18
 2903 00d7 04       		.byte	0x4
 2904 00d8 32       		.byte	0x32
 2905 00d9 86000000 		.4byte	0x86
 2906 00dd 03       		.uleb128 0x3
 2907 00de 63070000 		.4byte	.LASF19
 2908 00e2 04       		.byte	0x4
 2909 00e3 33       		.byte	0x33
 2910 00e4 74000000 		.4byte	0x74
 2911 00e8 03       		.uleb128 0x3
 2912 00e9 F1010000 		.4byte	.LASF20
 2913 00ed 04       		.byte	0x4
 2914 00ee 35       		.byte	0x35
 2915 00ef 86000000 		.4byte	0x86
 2916 00f3 03       		.uleb128 0x3
 2917 00f4 07000000 		.4byte	.LASF21
 2918 00f8 04       		.byte	0x4
 2919 00f9 36       		.byte	0x36
 2920 00fa 86000000 		.4byte	0x86
 2921 00fe 03       		.uleb128 0x3
 2922 00ff 81030000 		.4byte	.LASF22
 2923 0103 04       		.byte	0x4
 2924 0104 37       		.byte	0x37
 2925 0105 74000000 		.4byte	0x74
 2926 0109 03       		.uleb128 0x3
 2927 010a CB080000 		.4byte	.LASF23
 2928 010e 05       		.byte	0x5
 2929 010f 2A       		.byte	0x2a
 2930 0110 14010000 		.4byte	0x114
 2931 0114 05       		.uleb128 0x5
 2932 0115 CB080000 		.4byte	.LASF23
 2933 0119 48       		.byte	0x48
 2934 011a 06       		.byte	0x6
 2935 011b 5E       		.byte	0x5e
 2936 011c 1D020000 		.4byte	0x21d
 2937 0120 06       		.uleb128 0x6
 2938 0121 49010000 		.4byte	.LASF24
 2939 0125 06       		.byte	0x6
 2940 0126 5F       		.byte	0x5f
 2941 0127 42020000 		.4byte	0x242
 2942 012b 02       		.byte	0x2
 2943 012c 23       		.byte	0x23
 2944 012d 00       		.uleb128 0x0
 2945 012e 06       		.uleb128 0x6
 2946 012f 5D010000 		.4byte	.LASF25
 2947 0133 06       		.byte	0x6
 2948 0134 61       		.byte	0x61
ARM GAS  C:\Users\z80\AppData\Local\Temp\ccHBr3N4.s 			page 54


 2949 0135 42020000 		.4byte	0x242
 2950 0139 02       		.byte	0x2
 2951 013a 23       		.byte	0x23
 2952 013b 04       		.uleb128 0x4
 2953 013c 06       		.uleb128 0x6
 2954 013d FA020000 		.4byte	.LASF26
 2955 0141 06       		.byte	0x6
 2956 0142 63       		.byte	0x63
 2957 0143 D2000000 		.4byte	0xd2
 2958 0147 02       		.byte	0x2
 2959 0148 23       		.byte	0x23
 2960 0149 08       		.uleb128 0x8
 2961 014a 06       		.uleb128 0x6
 2962 014b 20000000 		.4byte	.LASF27
 2963 014f 06       		.byte	0x6
 2964 0150 64       		.byte	0x64
 2965 0151 1A030000 		.4byte	0x31a
 2966 0155 02       		.byte	0x2
 2967 0156 23       		.byte	0x23
 2968 0157 0C       		.uleb128 0xc
 2969 0158 06       		.uleb128 0x6
 2970 0159 38010000 		.4byte	.LASF28
 2971 015d 06       		.byte	0x6
 2972 015e 66       		.byte	0x66
 2973 015f 42020000 		.4byte	0x242
 2974 0163 02       		.byte	0x2
 2975 0164 23       		.byte	0x23
 2976 0165 10       		.uleb128 0x10
 2977 0166 06       		.uleb128 0x6
 2978 0167 39070000 		.4byte	.LASF29
 2979 016b 06       		.byte	0x6
 2980 016c 67       		.byte	0x67
 2981 016d 42020000 		.4byte	0x242
 2982 0171 02       		.byte	0x2
 2983 0172 23       		.byte	0x23
 2984 0173 14       		.uleb128 0x14
 2985 0174 06       		.uleb128 0x6
 2986 0175 1C0A0000 		.4byte	.LASF30
 2987 0179 06       		.byte	0x6
 2988 017a 6E       		.byte	0x6e
 2989 017b BE040000 		.4byte	0x4be
 2990 017f 02       		.byte	0x2
 2991 0180 23       		.byte	0x23
 2992 0181 18       		.uleb128 0x18
 2993 0182 06       		.uleb128 0x6
 2994 0183 D2090000 		.4byte	.LASF31
 2995 0187 06       		.byte	0x6
 2996 0188 74       		.byte	0x74
 2997 0189 D0040000 		.4byte	0x4d0
 2998 018d 02       		.byte	0x2
 2999 018e 23       		.byte	0x23
 3000 018f 1C       		.uleb128 0x1c
 3001 0190 06       		.uleb128 0x6
 3002 0191 540A0000 		.4byte	.LASF32
 3003 0195 06       		.byte	0x6
 3004 0196 79       		.byte	0x79
 3005 0197 C7000000 		.4byte	0xc7
ARM GAS  C:\Users\z80\AppData\Local\Temp\ccHBr3N4.s 			page 55


 3006 019b 02       		.byte	0x2
 3007 019c 23       		.byte	0x23
 3008 019d 20       		.uleb128 0x20
 3009 019e 06       		.uleb128 0x6
 3010 019f EC050000 		.4byte	.LASF33
 3011 01a3 06       		.byte	0x6
 3012 01a4 7D       		.byte	0x7d
 3013 01a5 BC000000 		.4byte	0xbc
 3014 01a9 02       		.byte	0x2
 3015 01aa 23       		.byte	0x23
 3016 01ab 21       		.uleb128 0x21
 3017 01ac 06       		.uleb128 0x6
 3018 01ad 5C060000 		.4byte	.LASF34
 3019 01b1 06       		.byte	0x6
 3020 01b2 89       		.byte	0x89
 3021 01b3 C6030000 		.4byte	0x3c6
 3022 01b7 02       		.byte	0x2
 3023 01b8 23       		.byte	0x23
 3024 01b9 24       		.uleb128 0x24
 3025 01ba 07       		.uleb128 0x7
 3026 01bb 705F7500 		.ascii	"p_u\000"
 3027 01bf 06       		.byte	0x6
 3028 01c0 AE       		.byte	0xae
 3029 01c1 89040000 		.4byte	0x489
 3030 01c5 02       		.byte	0x2
 3031 01c6 23       		.byte	0x23
 3032 01c7 28       		.uleb128 0x28
 3033 01c8 06       		.uleb128 0x6
 3034 01c9 D1050000 		.4byte	.LASF35
 3035 01cd 06       		.byte	0x6
 3036 01ce B3       		.byte	0xb3
 3037 01cf 6A020000 		.4byte	0x26a
 3038 01d3 02       		.byte	0x2
 3039 01d4 23       		.byte	0x23
 3040 01d5 2C       		.uleb128 0x2c
 3041 01d6 06       		.uleb128 0x6
 3042 01d7 5B000000 		.4byte	.LASF36
 3043 01db 06       		.byte	0x6
 3044 01dc B9       		.byte	0xb9
 3045 01dd 48020000 		.4byte	0x248
 3046 01e1 02       		.byte	0x2
 3047 01e2 23       		.byte	0x23
 3048 01e3 30       		.uleb128 0x30
 3049 01e4 06       		.uleb128 0x6
 3050 01e5 4E0A0000 		.4byte	.LASF37
 3051 01e9 06       		.byte	0x6
 3052 01ea BD       		.byte	0xbd
 3053 01eb DD000000 		.4byte	0xdd
 3054 01ef 02       		.byte	0x2
 3055 01f0 23       		.byte	0x23
 3056 01f1 38       		.uleb128 0x38
 3057 01f2 06       		.uleb128 0x6
 3058 01f3 C7030000 		.4byte	.LASF38
 3059 01f7 06       		.byte	0x6
 3060 01f8 C3       		.byte	0xc3
 3061 01f9 E8000000 		.4byte	0xe8
 3062 01fd 02       		.byte	0x2
ARM GAS  C:\Users\z80\AppData\Local\Temp\ccHBr3N4.s 			page 56


 3063 01fe 23       		.byte	0x23
 3064 01ff 3C       		.uleb128 0x3c
 3065 0200 06       		.uleb128 0x6
 3066 0201 79010000 		.4byte	.LASF39
 3067 0205 06       		.byte	0x6
 3068 0206 CA       		.byte	0xca
 3069 0207 D6040000 		.4byte	0x4d6
 3070 020b 02       		.byte	0x2
 3071 020c 23       		.byte	0x23
 3072 020d 40       		.uleb128 0x40
 3073 020e 06       		.uleb128 0x6
 3074 020f 79060000 		.4byte	.LASF40
 3075 0213 06       		.byte	0x6
 3076 0214 CE       		.byte	0xce
 3077 0215 D2000000 		.4byte	0xd2
 3078 0219 02       		.byte	0x2
 3079 021a 23       		.byte	0x23
 3080 021b 44       		.uleb128 0x44
 3081 021c 00       		.byte	0x0
 3082 021d 08       		.uleb128 0x8
 3083 021e 08       		.byte	0x8
 3084 021f 05       		.byte	0x5
 3085 0220 61       		.byte	0x61
 3086 0221 42020000 		.4byte	0x242
 3087 0225 06       		.uleb128 0x6
 3088 0226 49010000 		.4byte	.LASF24
 3089 022a 05       		.byte	0x5
 3090 022b 62       		.byte	0x62
 3091 022c 42020000 		.4byte	0x242
 3092 0230 02       		.byte	0x2
 3093 0231 23       		.byte	0x23
 3094 0232 00       		.uleb128 0x0
 3095 0233 06       		.uleb128 0x6
 3096 0234 5D010000 		.4byte	.LASF25
 3097 0238 05       		.byte	0x5
 3098 0239 64       		.byte	0x64
 3099 023a 42020000 		.4byte	0x242
 3100 023e 02       		.byte	0x2
 3101 023f 23       		.byte	0x23
 3102 0240 04       		.uleb128 0x4
 3103 0241 00       		.byte	0x0
 3104 0242 09       		.uleb128 0x9
 3105 0243 04       		.byte	0x4
 3106 0244 09010000 		.4byte	0x109
 3107 0248 03       		.uleb128 0x3
 3108 0249 53090000 		.4byte	.LASF41
 3109 024d 05       		.byte	0x5
 3110 024e 66       		.byte	0x66
 3111 024f 1D020000 		.4byte	0x21d
 3112 0253 08       		.uleb128 0x8
 3113 0254 04       		.byte	0x4
 3114 0255 05       		.byte	0x5
 3115 0256 6B       		.byte	0x6b
 3116 0257 6A020000 		.4byte	0x26a
 3117 025b 06       		.uleb128 0x6
 3118 025c 49010000 		.4byte	.LASF24
 3119 0260 05       		.byte	0x5
ARM GAS  C:\Users\z80\AppData\Local\Temp\ccHBr3N4.s 			page 57


 3120 0261 6D       		.byte	0x6d
 3121 0262 42020000 		.4byte	0x242
 3122 0266 02       		.byte	0x2
 3123 0267 23       		.byte	0x23
 3124 0268 00       		.uleb128 0x0
 3125 0269 00       		.byte	0x0
 3126 026a 03       		.uleb128 0x3
 3127 026b 46060000 		.4byte	.LASF42
 3128 026f 05       		.byte	0x5
 3129 0270 70       		.byte	0x70
 3130 0271 53020000 		.4byte	0x253
 3131 0275 03       		.uleb128 0x3
 3132 0276 89010000 		.4byte	.LASF43
 3133 027a 07       		.byte	0x7
 3134 027b D7       		.byte	0xd7
 3135 027c 80020000 		.4byte	0x280
 3136 0280 0A       		.uleb128 0xa
 3137 0281 04       		.byte	0x4
 3138 0282 03       		.uleb128 0x3
 3139 0283 15030000 		.4byte	.LASF44
 3140 0287 07       		.byte	0x7
 3141 0288 DD       		.byte	0xdd
 3142 0289 9F000000 		.4byte	0x9f
 3143 028d 05       		.uleb128 0x5
 3144 028e C0030000 		.4byte	.LASF45
 3145 0292 24       		.byte	0x24
 3146 0293 07       		.byte	0x7
 3147 0294 FE       		.byte	0xfe
 3148 0295 1A030000 		.4byte	0x31a
 3149 0299 0B       		.uleb128 0xb
 3150 029a 723400   		.ascii	"r4\000"
 3151 029d 07       		.byte	0x7
 3152 029e 1101     		.2byte	0x111
 3153 02a0 75020000 		.4byte	0x275
 3154 02a4 02       		.byte	0x2
 3155 02a5 23       		.byte	0x23
 3156 02a6 00       		.uleb128 0x0
 3157 02a7 0B       		.uleb128 0xb
 3158 02a8 723500   		.ascii	"r5\000"
 3159 02ab 07       		.byte	0x7
 3160 02ac 1201     		.2byte	0x112
 3161 02ae 75020000 		.4byte	0x275
 3162 02b2 02       		.byte	0x2
 3163 02b3 23       		.byte	0x23
 3164 02b4 04       		.uleb128 0x4
 3165 02b5 0B       		.uleb128 0xb
 3166 02b6 723600   		.ascii	"r6\000"
 3167 02b9 07       		.byte	0x7
 3168 02ba 1301     		.2byte	0x113
 3169 02bc 75020000 		.4byte	0x275
 3170 02c0 02       		.byte	0x2
 3171 02c1 23       		.byte	0x23
 3172 02c2 08       		.uleb128 0x8
 3173 02c3 0B       		.uleb128 0xb
 3174 02c4 723700   		.ascii	"r7\000"
 3175 02c7 07       		.byte	0x7
 3176 02c8 1401     		.2byte	0x114
ARM GAS  C:\Users\z80\AppData\Local\Temp\ccHBr3N4.s 			page 58


 3177 02ca 75020000 		.4byte	0x275
 3178 02ce 02       		.byte	0x2
 3179 02cf 23       		.byte	0x23
 3180 02d0 0C       		.uleb128 0xc
 3181 02d1 0B       		.uleb128 0xb
 3182 02d2 723800   		.ascii	"r8\000"
 3183 02d5 07       		.byte	0x7
 3184 02d6 1501     		.2byte	0x115
 3185 02d8 75020000 		.4byte	0x275
 3186 02dc 02       		.byte	0x2
 3187 02dd 23       		.byte	0x23
 3188 02de 10       		.uleb128 0x10
 3189 02df 0B       		.uleb128 0xb
 3190 02e0 723900   		.ascii	"r9\000"
 3191 02e3 07       		.byte	0x7
 3192 02e4 1601     		.2byte	0x116
 3193 02e6 75020000 		.4byte	0x275
 3194 02ea 02       		.byte	0x2
 3195 02eb 23       		.byte	0x23
 3196 02ec 14       		.uleb128 0x14
 3197 02ed 0B       		.uleb128 0xb
 3198 02ee 72313000 		.ascii	"r10\000"
 3199 02f2 07       		.byte	0x7
 3200 02f3 1701     		.2byte	0x117
 3201 02f5 75020000 		.4byte	0x275
 3202 02f9 02       		.byte	0x2
 3203 02fa 23       		.byte	0x23
 3204 02fb 18       		.uleb128 0x18
 3205 02fc 0B       		.uleb128 0xb
 3206 02fd 72313100 		.ascii	"r11\000"
 3207 0301 07       		.byte	0x7
 3208 0302 1801     		.2byte	0x118
 3209 0304 75020000 		.4byte	0x275
 3210 0308 02       		.byte	0x2
 3211 0309 23       		.byte	0x23
 3212 030a 1C       		.uleb128 0x1c
 3213 030b 0B       		.uleb128 0xb
 3214 030c 6C7200   		.ascii	"lr\000"
 3215 030f 07       		.byte	0x7
 3216 0310 1901     		.2byte	0x119
 3217 0312 75020000 		.4byte	0x275
 3218 0316 02       		.byte	0x2
 3219 0317 23       		.byte	0x23
 3220 0318 20       		.uleb128 0x20
 3221 0319 00       		.byte	0x0
 3222 031a 0C       		.uleb128 0xc
 3223 031b FD010000 		.4byte	.LASF46
 3224 031f 04       		.byte	0x4
 3225 0320 07       		.byte	0x7
 3226 0321 2301     		.2byte	0x123
 3227 0323 37030000 		.4byte	0x337
 3228 0327 0B       		.uleb128 0xb
 3229 0328 72313300 		.ascii	"r13\000"
 3230 032c 07       		.byte	0x7
 3231 032d 2401     		.2byte	0x124
 3232 032f 37030000 		.4byte	0x337
 3233 0333 02       		.byte	0x2
ARM GAS  C:\Users\z80\AppData\Local\Temp\ccHBr3N4.s 			page 59


 3234 0334 23       		.byte	0x23
 3235 0335 00       		.uleb128 0x0
 3236 0336 00       		.byte	0x0
 3237 0337 09       		.uleb128 0x9
 3238 0338 04       		.byte	0x4
 3239 0339 8D020000 		.4byte	0x28d
 3240 033d 0D       		.uleb128 0xd
 3241 033e 86000000 		.4byte	0x86
 3242 0342 0E       		.uleb128 0xe
 3243 0343 04       		.byte	0x4
 3244 0344 07       		.byte	0x7
 3245 0345 03       		.uleb128 0x3
 3246 0346 87000000 		.4byte	.LASF47
 3247 034a 08       		.byte	0x8
 3248 034b 53       		.byte	0x53
 3249 034c 50030000 		.4byte	0x350
 3250 0350 09       		.uleb128 0x9
 3251 0351 04       		.byte	0x4
 3252 0352 56030000 		.4byte	0x356
 3253 0356 0F       		.uleb128 0xf
 3254 0357 01       		.byte	0x1
 3255 0358 62030000 		.4byte	0x362
 3256 035c 10       		.uleb128 0x10
 3257 035d 80020000 		.4byte	0x280
 3258 0361 00       		.byte	0x0
 3259 0362 03       		.uleb128 0x3
 3260 0363 2B090000 		.4byte	.LASF48
 3261 0367 08       		.byte	0x8
 3262 0368 58       		.byte	0x58
 3263 0369 6D030000 		.4byte	0x36d
 3264 036d 05       		.uleb128 0x5
 3265 036e 2B090000 		.4byte	.LASF48
 3266 0372 14       		.byte	0x14
 3267 0373 08       		.byte	0x8
 3268 0374 5F       		.byte	0x5f
 3269 0375 C0030000 		.4byte	0x3c0
 3270 0379 06       		.uleb128 0x6
 3271 037a 64050000 		.4byte	.LASF49
 3272 037e 08       		.byte	0x8
 3273 037f 60       		.byte	0x60
 3274 0380 C0030000 		.4byte	0x3c0
 3275 0384 02       		.byte	0x2
 3276 0385 23       		.byte	0x23
 3277 0386 00       		.uleb128 0x0
 3278 0387 06       		.uleb128 0x6
 3279 0388 63020000 		.4byte	.LASF50
 3280 038c 08       		.byte	0x8
 3281 038d 62       		.byte	0x62
 3282 038e C0030000 		.4byte	0x3c0
 3283 0392 02       		.byte	0x2
 3284 0393 23       		.byte	0x23
 3285 0394 04       		.uleb128 0x4
 3286 0395 06       		.uleb128 0x6
 3287 0396 230A0000 		.4byte	.LASF51
 3288 039a 08       		.byte	0x8
 3289 039b 64       		.byte	0x64
 3290 039c F3000000 		.4byte	0xf3
ARM GAS  C:\Users\z80\AppData\Local\Temp\ccHBr3N4.s 			page 60


 3291 03a0 02       		.byte	0x2
 3292 03a1 23       		.byte	0x23
 3293 03a2 08       		.uleb128 0x8
 3294 03a3 06       		.uleb128 0x6
 3295 03a4 9A030000 		.4byte	.LASF52
 3296 03a8 08       		.byte	0x8
 3297 03a9 65       		.byte	0x65
 3298 03aa 45030000 		.4byte	0x345
 3299 03ae 02       		.byte	0x2
 3300 03af 23       		.byte	0x23
 3301 03b0 0C       		.uleb128 0xc
 3302 03b1 06       		.uleb128 0x6
 3303 03b2 05010000 		.4byte	.LASF53
 3304 03b6 08       		.byte	0x8
 3305 03b7 67       		.byte	0x67
 3306 03b8 80020000 		.4byte	0x280
 3307 03bc 02       		.byte	0x2
 3308 03bd 23       		.byte	0x23
 3309 03be 10       		.uleb128 0x10
 3310 03bf 00       		.byte	0x0
 3311 03c0 09       		.uleb128 0x9
 3312 03c1 04       		.byte	0x4
 3313 03c2 62030000 		.4byte	0x362
 3314 03c6 0D       		.uleb128 0xd
 3315 03c7 F3000000 		.4byte	0xf3
 3316 03cb 08       		.uleb128 0x8
 3317 03cc 20       		.byte	0x20
 3318 03cd 09       		.byte	0x9
 3319 03ce 5E       		.byte	0x5e
 3320 03cf 36040000 		.4byte	0x436
 3321 03d3 06       		.uleb128 0x6
 3322 03d4 C8070000 		.4byte	.LASF54
 3323 03d8 09       		.byte	0x9
 3324 03d9 5F       		.byte	0x5f
 3325 03da 48020000 		.4byte	0x248
 3326 03de 02       		.byte	0x2
 3327 03df 23       		.byte	0x23
 3328 03e0 00       		.uleb128 0x0
 3329 03e1 06       		.uleb128 0x6
 3330 03e2 8F080000 		.4byte	.LASF55
 3331 03e6 09       		.byte	0x9
 3332 03e7 60       		.byte	0x60
 3333 03e8 D2000000 		.4byte	0xd2
 3334 03ec 02       		.byte	0x2
 3335 03ed 23       		.byte	0x23
 3336 03ee 08       		.uleb128 0x8
 3337 03ef 06       		.uleb128 0x6
 3338 03f0 66000000 		.4byte	.LASF56
 3339 03f4 09       		.byte	0x9
 3340 03f5 62       		.byte	0x62
 3341 03f6 1A030000 		.4byte	0x31a
 3342 03fa 02       		.byte	0x2
 3343 03fb 23       		.byte	0x23
 3344 03fc 0C       		.uleb128 0xc
 3345 03fd 06       		.uleb128 0x6
 3346 03fe 78020000 		.4byte	.LASF57
 3347 0402 09       		.byte	0x9
ARM GAS  C:\Users\z80\AppData\Local\Temp\ccHBr3N4.s 			page 61


 3348 0403 65       		.byte	0x65
 3349 0404 42020000 		.4byte	0x242
 3350 0408 02       		.byte	0x2
 3351 0409 23       		.byte	0x23
 3352 040a 10       		.uleb128 0x10
 3353 040b 06       		.uleb128 0x6
 3354 040c 14080000 		.4byte	.LASF58
 3355 0410 09       		.byte	0x9
 3356 0411 66       		.byte	0x66
 3357 0412 42020000 		.4byte	0x242
 3358 0416 02       		.byte	0x2
 3359 0417 23       		.byte	0x23
 3360 0418 14       		.uleb128 0x14
 3361 0419 06       		.uleb128 0x6
 3362 041a 6F060000 		.4byte	.LASF59
 3363 041e 09       		.byte	0x9
 3364 041f 6A       		.byte	0x6a
 3365 0420 FE000000 		.4byte	0xfe
 3366 0424 02       		.byte	0x2
 3367 0425 23       		.byte	0x23
 3368 0426 18       		.uleb128 0x18
 3369 0427 06       		.uleb128 0x6
 3370 0428 7F070000 		.4byte	.LASF60
 3371 042c 09       		.byte	0x9
 3372 042d 6C       		.byte	0x6c
 3373 042e 42020000 		.4byte	0x242
 3374 0432 02       		.byte	0x2
 3375 0433 23       		.byte	0x23
 3376 0434 1C       		.uleb128 0x1c
 3377 0435 00       		.byte	0x0
 3378 0436 03       		.uleb128 0x3
 3379 0437 090A0000 		.4byte	.LASF61
 3380 043b 09       		.byte	0x9
 3381 043c 6E       		.byte	0x6e
 3382 043d CB030000 		.4byte	0x3cb
 3383 0441 05       		.uleb128 0x5
 3384 0442 3D050000 		.4byte	.LASF62
 3385 0446 10       		.byte	0x10
 3386 0447 0A       		.byte	0xa
 3387 0448 2C       		.byte	0x2c
 3388 0449 78040000 		.4byte	0x478
 3389 044d 06       		.uleb128 0x6
 3390 044e 5C050000 		.4byte	.LASF63
 3391 0452 0A       		.byte	0xa
 3392 0453 2D       		.byte	0x2d
 3393 0454 48020000 		.4byte	0x248
 3394 0458 02       		.byte	0x2
 3395 0459 23       		.byte	0x23
 3396 045a 00       		.uleb128 0x0
 3397 045b 06       		.uleb128 0x6
 3398 045c FD000000 		.4byte	.LASF64
 3399 0460 0A       		.byte	0xa
 3400 0461 2F       		.byte	0x2f
 3401 0462 42020000 		.4byte	0x242
 3402 0466 02       		.byte	0x2
 3403 0467 23       		.byte	0x23
 3404 0468 08       		.uleb128 0x8
ARM GAS  C:\Users\z80\AppData\Local\Temp\ccHBr3N4.s 			page 62


 3405 0469 06       		.uleb128 0x6
 3406 046a 3E0A0000 		.4byte	.LASF65
 3407 046e 0A       		.byte	0xa
 3408 046f 31       		.byte	0x31
 3409 0470 78040000 		.4byte	0x478
 3410 0474 02       		.byte	0x2
 3411 0475 23       		.byte	0x23
 3412 0476 0C       		.uleb128 0xc
 3413 0477 00       		.byte	0x0
 3414 0478 09       		.uleb128 0x9
 3415 0479 04       		.byte	0x4
 3416 047a 41040000 		.4byte	0x441
 3417 047e 03       		.uleb128 0x3
 3418 047f 3D050000 		.4byte	.LASF62
 3419 0483 0A       		.byte	0xa
 3420 0484 33       		.byte	0x33
 3421 0485 41040000 		.4byte	0x441
 3422 0489 11       		.uleb128 0x11
 3423 048a 04       		.byte	0x4
 3424 048b 06       		.byte	0x6
 3425 048c 90       		.byte	0x90
 3426 048d BE040000 		.4byte	0x4be
 3427 0491 12       		.uleb128 0x12
 3428 0492 8A090000 		.4byte	.LASF66
 3429 0496 06       		.byte	0x6
 3430 0497 97       		.byte	0x97
 3431 0498 DD000000 		.4byte	0xdd
 3432 049c 12       		.uleb128 0x12
 3433 049d 0C010000 		.4byte	.LASF67
 3434 04a1 06       		.byte	0x6
 3435 04a2 9E       		.byte	0x9e
 3436 04a3 DD000000 		.4byte	0xdd
 3437 04a7 12       		.uleb128 0x12
 3438 04a8 01030000 		.4byte	.LASF68
 3439 04ac 06       		.byte	0x6
 3440 04ad A5       		.byte	0xa5
 3441 04ae 80020000 		.4byte	0x280
 3442 04b2 12       		.uleb128 0x12
 3443 04b3 E2010000 		.4byte	.LASF69
 3444 04b7 06       		.byte	0x6
 3445 04b8 AC       		.byte	0xac
 3446 04b9 E8000000 		.4byte	0xe8
 3447 04bd 00       		.byte	0x0
 3448 04be 09       		.uleb128 0x9
 3449 04bf 04       		.byte	0x4
 3450 04c0 C4040000 		.4byte	0x4c4
 3451 04c4 13       		.uleb128 0x13
 3452 04c5 C9040000 		.4byte	0x4c9
 3453 04c9 04       		.uleb128 0x4
 3454 04ca 01       		.byte	0x1
 3455 04cb 08       		.byte	0x8
 3456 04cc E8020000 		.4byte	.LASF70
 3457 04d0 09       		.uleb128 0x9
 3458 04d1 04       		.byte	0x4
 3459 04d2 82020000 		.4byte	0x282
 3460 04d6 09       		.uleb128 0x9
 3461 04d7 04       		.byte	0x4
ARM GAS  C:\Users\z80\AppData\Local\Temp\ccHBr3N4.s 			page 63


 3462 04d8 7E040000 		.4byte	0x47e
 3463 04dc 09       		.uleb128 0x9
 3464 04dd 04       		.byte	0x4
 3465 04de 49000000 		.4byte	0x49
 3466 04e2 09       		.uleb128 0x9
 3467 04e3 04       		.byte	0x4
 3468 04e4 E8040000 		.4byte	0x4e8
 3469 04e8 13       		.uleb128 0x13
 3470 04e9 49000000 		.4byte	0x49
 3471 04ed 14       		.uleb128 0x14
 3472 04ee 6A060000 		.4byte	.LASF232
 3473 04f2 01       		.byte	0x1
 3474 04f3 0B       		.byte	0xb
 3475 04f4 A9       		.byte	0xa9
 3476 04f5 2C060000 		.4byte	0x62c
 3477 04f9 15       		.uleb128 0x15
 3478 04fa 3A040000 		.4byte	.LASF71
 3479 04fe 72       		.sleb128 -14
 3480 04ff 15       		.uleb128 0x15
 3481 0500 6A040000 		.4byte	.LASF72
 3482 0504 74       		.sleb128 -12
 3483 0505 15       		.uleb128 0x15
 3484 0506 1E050000 		.4byte	.LASF73
 3485 050a 75       		.sleb128 -11
 3486 050b 15       		.uleb128 0x15
 3487 050c B9020000 		.4byte	.LASF74
 3488 0510 76       		.sleb128 -10
 3489 0511 15       		.uleb128 0x15
 3490 0512 76050000 		.4byte	.LASF75
 3491 0516 7B       		.sleb128 -5
 3492 0517 15       		.uleb128 0x15
 3493 0518 02080000 		.4byte	.LASF76
 3494 051c 7C       		.sleb128 -4
 3495 051d 15       		.uleb128 0x15
 3496 051e C6090000 		.4byte	.LASF77
 3497 0522 7E       		.sleb128 -2
 3498 0523 15       		.uleb128 0x15
 3499 0524 B8010000 		.4byte	.LASF78
 3500 0528 7F       		.sleb128 -1
 3501 0529 15       		.uleb128 0x15
 3502 052a 4E040000 		.4byte	.LASF79
 3503 052e 00       		.sleb128 0
 3504 052f 15       		.uleb128 0x15
 3505 0530 D0070000 		.4byte	.LASF80
 3506 0534 01       		.sleb128 1
 3507 0535 15       		.uleb128 0x15
 3508 0536 64010000 		.4byte	.LASF81
 3509 053a 02       		.sleb128 2
 3510 053b 15       		.uleb128 0x15
 3511 053c 450A0000 		.4byte	.LASF82
 3512 0540 03       		.sleb128 3
 3513 0541 15       		.uleb128 0x15
 3514 0542 B9000000 		.4byte	.LASF83
 3515 0546 04       		.sleb128 4
 3516 0547 15       		.uleb128 0x15
 3517 0548 7D080000 		.4byte	.LASF84
 3518 054c 05       		.sleb128 5
ARM GAS  C:\Users\z80\AppData\Local\Temp\ccHBr3N4.s 			page 64


 3519 054d 15       		.uleb128 0x15
 3520 054e DF070000 		.4byte	.LASF85
 3521 0552 06       		.sleb128 6
 3522 0553 15       		.uleb128 0x15
 3523 0554 FA030000 		.4byte	.LASF86
 3524 0558 07       		.sleb128 7
 3525 0559 15       		.uleb128 0x15
 3526 055a 89070000 		.4byte	.LASF87
 3527 055e 08       		.sleb128 8
 3528 055f 15       		.uleb128 0x15
 3529 0560 BB090000 		.4byte	.LASF88
 3530 0564 09       		.sleb128 9
 3531 0565 15       		.uleb128 0x15
 3532 0566 91090000 		.4byte	.LASF89
 3533 056a 0A       		.sleb128 10
 3534 056b 15       		.uleb128 0x15
 3535 056c 80020000 		.4byte	.LASF90
 3536 0570 0B       		.sleb128 11
 3537 0571 15       		.uleb128 0x15
 3538 0572 D2080000 		.4byte	.LASF91
 3539 0576 0C       		.sleb128 12
 3540 0577 15       		.uleb128 0x15
 3541 0578 38080000 		.4byte	.LASF92
 3542 057c 0D       		.sleb128 13
 3543 057d 15       		.uleb128 0x15
 3544 057e 80040000 		.4byte	.LASF93
 3545 0582 0E       		.sleb128 14
 3546 0583 15       		.uleb128 0x15
 3547 0584 74000000 		.4byte	.LASF94
 3548 0588 0F       		.sleb128 15
 3549 0589 15       		.uleb128 0x15
 3550 058a 2B0A0000 		.4byte	.LASF95
 3551 058e 10       		.sleb128 16
 3552 058f 15       		.uleb128 0x15
 3553 0590 33060000 		.4byte	.LASF96
 3554 0594 11       		.sleb128 17
 3555 0595 15       		.uleb128 0x15
 3556 0596 A8080000 		.4byte	.LASF97
 3557 059a 12       		.sleb128 18
 3558 059b 15       		.uleb128 0x15
 3559 059c C9020000 		.4byte	.LASF98
 3560 05a0 13       		.sleb128 19
 3561 05a1 15       		.uleb128 0x15
 3562 05a2 23080000 		.4byte	.LASF99
 3563 05a6 14       		.sleb128 20
 3564 05a7 15       		.uleb128 0x15
 3565 05a8 45090000 		.4byte	.LASF100
 3566 05ac 15       		.sleb128 21
 3567 05ad 15       		.uleb128 0x15
 3568 05ae 9B040000 		.4byte	.LASF101
 3569 05b2 16       		.sleb128 22
 3570 05b3 15       		.uleb128 0x15
 3571 05b4 7D090000 		.4byte	.LASF102
 3572 05b8 17       		.sleb128 23
 3573 05b9 15       		.uleb128 0x15
 3574 05ba A1020000 		.4byte	.LASF103
 3575 05be 18       		.sleb128 24
ARM GAS  C:\Users\z80\AppData\Local\Temp\ccHBr3N4.s 			page 65


 3576 05bf 15       		.uleb128 0x15
 3577 05c0 38090000 		.4byte	.LASF104
 3578 05c4 19       		.sleb128 25
 3579 05c5 15       		.uleb128 0x15
 3580 05c6 B3060000 		.4byte	.LASF105
 3581 05ca 1A       		.sleb128 26
 3582 05cb 15       		.uleb128 0x15
 3583 05cc ED030000 		.4byte	.LASF106
 3584 05d0 1B       		.sleb128 27
 3585 05d1 15       		.uleb128 0x15
 3586 05d2 D7000000 		.4byte	.LASF107
 3587 05d6 1C       		.sleb128 28
 3588 05d7 15       		.uleb128 0x15
 3589 05d8 69070000 		.4byte	.LASF108
 3590 05dc 1D       		.sleb128 29
 3591 05dd 15       		.uleb128 0x15
 3592 05de 47030000 		.4byte	.LASF109
 3593 05e2 1E       		.sleb128 30
 3594 05e3 15       		.uleb128 0x15
 3595 05e4 87030000 		.4byte	.LASF110
 3596 05e8 1F       		.sleb128 31
 3597 05e9 15       		.uleb128 0x15
 3598 05ea 6B020000 		.4byte	.LASF111
 3599 05ee 20       		.sleb128 32
 3600 05ef 15       		.uleb128 0x15
 3601 05f0 19060000 		.4byte	.LASF112
 3602 05f4 21       		.sleb128 33
 3603 05f5 15       		.uleb128 0x15
 3604 05f6 11050000 		.4byte	.LASF113
 3605 05fa 22       		.sleb128 34
 3606 05fb 15       		.uleb128 0x15
 3607 05fc 6C050000 		.4byte	.LASF114
 3608 0600 23       		.sleb128 35
 3609 0601 15       		.uleb128 0x15
 3610 0602 1F010000 		.4byte	.LASF115
 3611 0606 24       		.sleb128 36
 3612 0607 15       		.uleb128 0x15
 3613 0608 73070000 		.4byte	.LASF116
 3614 060c 25       		.sleb128 37
 3615 060d 15       		.uleb128 0x15
 3616 060e 62030000 		.4byte	.LASF117
 3617 0612 26       		.sleb128 38
 3618 0613 15       		.uleb128 0x15
 3619 0614 C5010000 		.4byte	.LASF118
 3620 0618 27       		.sleb128 39
 3621 0619 15       		.uleb128 0x15
 3622 061a 13070000 		.4byte	.LASF119
 3623 061e 28       		.sleb128 40
 3624 061f 15       		.uleb128 0x15
 3625 0620 E8060000 		.4byte	.LASF120
 3626 0624 29       		.sleb128 41
 3627 0625 15       		.uleb128 0x15
 3628 0626 51030000 		.4byte	.LASF121
 3629 062a 2A       		.sleb128 42
 3630 062b 00       		.byte	0x0
 3631 062c 0D       		.uleb128 0xd
 3632 062d 62000000 		.4byte	0x62
ARM GAS  C:\Users\z80\AppData\Local\Temp\ccHBr3N4.s 			page 66


 3633 0631 0D       		.uleb128 0xd
 3634 0632 74000000 		.4byte	0x74
 3635 0636 16       		.uleb128 0x16
 3636 0637 10       		.byte	0x10
 3637 0638 0B       		.byte	0xb
 3638 0639 2D03     		.2byte	0x32d
 3639 063b 7C060000 		.4byte	0x67c
 3640 063f 0B       		.uleb128 0xb
 3641 0640 43435200 		.ascii	"CCR\000"
 3642 0644 0B       		.byte	0xb
 3643 0645 2F03     		.2byte	0x32f
 3644 0647 3D030000 		.4byte	0x33d
 3645 064b 02       		.byte	0x2
 3646 064c 23       		.byte	0x23
 3647 064d 00       		.uleb128 0x0
 3648 064e 17       		.uleb128 0x17
 3649 064f D1000000 		.4byte	.LASF122
 3650 0653 0B       		.byte	0xb
 3651 0654 3003     		.2byte	0x330
 3652 0656 3D030000 		.4byte	0x33d
 3653 065a 02       		.byte	0x2
 3654 065b 23       		.byte	0x23
 3655 065c 04       		.uleb128 0x4
 3656 065d 17       		.uleb128 0x17
 3657 065e D1010000 		.4byte	.LASF123
 3658 0662 0B       		.byte	0xb
 3659 0663 3103     		.2byte	0x331
 3660 0665 3D030000 		.4byte	0x33d
 3661 0669 02       		.byte	0x2
 3662 066a 23       		.byte	0x23
 3663 066b 08       		.uleb128 0x8
 3664 066c 17       		.uleb128 0x17
 3665 066d 2E060000 		.4byte	.LASF124
 3666 0671 0B       		.byte	0xb
 3667 0672 3203     		.2byte	0x332
 3668 0674 3D030000 		.4byte	0x33d
 3669 0678 02       		.byte	0x2
 3670 0679 23       		.byte	0x23
 3671 067a 0C       		.uleb128 0xc
 3672 067b 00       		.byte	0x0
 3673 067c 18       		.uleb128 0x18
 3674 067d C5060000 		.4byte	.LASF125
 3675 0681 0B       		.byte	0xb
 3676 0682 3303     		.2byte	0x333
 3677 0684 36060000 		.4byte	0x636
 3678 0688 16       		.uleb128 0x16
 3679 0689 24       		.byte	0x24
 3680 068a 0B       		.byte	0xb
 3681 068b 1304     		.2byte	0x413
 3682 068d 9F070000 		.4byte	0x79f
 3683 0691 0B       		.uleb128 0xb
 3684 0692 43523100 		.ascii	"CR1\000"
 3685 0696 0B       		.byte	0xb
 3686 0697 1504     		.2byte	0x415
 3687 0699 2C060000 		.4byte	0x62c
 3688 069d 02       		.byte	0x2
 3689 069e 23       		.byte	0x23
ARM GAS  C:\Users\z80\AppData\Local\Temp\ccHBr3N4.s 			page 67


 3690 069f 00       		.uleb128 0x0
 3691 06a0 17       		.uleb128 0x17
 3692 06a1 05020000 		.4byte	.LASF126
 3693 06a5 0B       		.byte	0xb
 3694 06a6 1604     		.2byte	0x416
 3695 06a8 62000000 		.4byte	0x62
 3696 06ac 02       		.byte	0x2
 3697 06ad 23       		.byte	0x23
 3698 06ae 02       		.uleb128 0x2
 3699 06af 0B       		.uleb128 0xb
 3700 06b0 43523200 		.ascii	"CR2\000"
 3701 06b4 0B       		.byte	0xb
 3702 06b5 1704     		.2byte	0x417
 3703 06b7 2C060000 		.4byte	0x62c
 3704 06bb 02       		.byte	0x2
 3705 06bc 23       		.byte	0x23
 3706 06bd 04       		.uleb128 0x4
 3707 06be 17       		.uleb128 0x17
 3708 06bf 0F020000 		.4byte	.LASF127
 3709 06c3 0B       		.byte	0xb
 3710 06c4 1804     		.2byte	0x418
 3711 06c6 62000000 		.4byte	0x62
 3712 06ca 02       		.byte	0x2
 3713 06cb 23       		.byte	0x23
 3714 06cc 06       		.uleb128 0x6
 3715 06cd 17       		.uleb128 0x17
 3716 06ce F8070000 		.4byte	.LASF128
 3717 06d2 0B       		.byte	0xb
 3718 06d3 1904     		.2byte	0x419
 3719 06d5 2C060000 		.4byte	0x62c
 3720 06d9 02       		.byte	0x2
 3721 06da 23       		.byte	0x23
 3722 06db 08       		.uleb128 0x8
 3723 06dc 17       		.uleb128 0x17
 3724 06dd AF020000 		.4byte	.LASF129
 3725 06e1 0B       		.byte	0xb
 3726 06e2 1A04     		.2byte	0x41a
 3727 06e4 62000000 		.4byte	0x62
 3728 06e8 02       		.byte	0x2
 3729 06e9 23       		.byte	0x23
 3730 06ea 0A       		.uleb128 0xa
 3731 06eb 17       		.uleb128 0x17
 3732 06ec FD070000 		.4byte	.LASF130
 3733 06f0 0B       		.byte	0xb
 3734 06f1 1B04     		.2byte	0x41b
 3735 06f3 2C060000 		.4byte	0x62c
 3736 06f7 02       		.byte	0x2
 3737 06f8 23       		.byte	0x23
 3738 06f9 0C       		.uleb128 0xc
 3739 06fa 17       		.uleb128 0x17
 3740 06fb 27020000 		.4byte	.LASF131
 3741 06ff 0B       		.byte	0xb
 3742 0700 1C04     		.2byte	0x41c
 3743 0702 62000000 		.4byte	0x62
 3744 0706 02       		.byte	0x2
 3745 0707 23       		.byte	0x23
 3746 0708 0E       		.uleb128 0xe
ARM GAS  C:\Users\z80\AppData\Local\Temp\ccHBr3N4.s 			page 68


 3747 0709 0B       		.uleb128 0xb
 3748 070a 445200   		.ascii	"DR\000"
 3749 070d 0B       		.byte	0xb
 3750 070e 1D04     		.2byte	0x41d
 3751 0710 2C060000 		.4byte	0x62c
 3752 0714 02       		.byte	0x2
 3753 0715 23       		.byte	0x23
 3754 0716 10       		.uleb128 0x10
 3755 0717 17       		.uleb128 0x17
 3756 0718 31020000 		.4byte	.LASF132
 3757 071c 0B       		.byte	0xb
 3758 071d 1E04     		.2byte	0x41e
 3759 071f 62000000 		.4byte	0x62
 3760 0723 02       		.byte	0x2
 3761 0724 23       		.byte	0x23
 3762 0725 12       		.uleb128 0x12
 3763 0726 0B       		.uleb128 0xb
 3764 0727 53523100 		.ascii	"SR1\000"
 3765 072b 0B       		.byte	0xb
 3766 072c 1F04     		.2byte	0x41f
 3767 072e 2C060000 		.4byte	0x62c
 3768 0732 02       		.byte	0x2
 3769 0733 23       		.byte	0x23
 3770 0734 14       		.uleb128 0x14
 3771 0735 17       		.uleb128 0x17
 3772 0736 3B020000 		.4byte	.LASF133
 3773 073a 0B       		.byte	0xb
 3774 073b 2004     		.2byte	0x420
 3775 073d 62000000 		.4byte	0x62
 3776 0741 02       		.byte	0x2
 3777 0742 23       		.byte	0x23
 3778 0743 16       		.uleb128 0x16
 3779 0744 0B       		.uleb128 0xb
 3780 0745 53523200 		.ascii	"SR2\000"
 3781 0749 0B       		.byte	0xb
 3782 074a 2104     		.2byte	0x421
 3783 074c 2C060000 		.4byte	0x62c
 3784 0750 02       		.byte	0x2
 3785 0751 23       		.byte	0x23
 3786 0752 18       		.uleb128 0x18
 3787 0753 17       		.uleb128 0x17
 3788 0754 45020000 		.4byte	.LASF134
 3789 0758 0B       		.byte	0xb
 3790 0759 2204     		.2byte	0x422
 3791 075b 62000000 		.4byte	0x62
 3792 075f 02       		.byte	0x2
 3793 0760 23       		.byte	0x23
 3794 0761 1A       		.uleb128 0x1a
 3795 0762 0B       		.uleb128 0xb
 3796 0763 43435200 		.ascii	"CCR\000"
 3797 0767 0B       		.byte	0xb
 3798 0768 2304     		.2byte	0x423
 3799 076a 2C060000 		.4byte	0x62c
 3800 076e 02       		.byte	0x2
 3801 076f 23       		.byte	0x23
 3802 0770 1C       		.uleb128 0x1c
 3803 0771 17       		.uleb128 0x17
ARM GAS  C:\Users\z80\AppData\Local\Temp\ccHBr3N4.s 			page 69


 3804 0772 4F020000 		.4byte	.LASF135
 3805 0776 0B       		.byte	0xb
 3806 0777 2404     		.2byte	0x424
 3807 0779 62000000 		.4byte	0x62
 3808 077d 02       		.byte	0x2
 3809 077e 23       		.byte	0x23
 3810 077f 1E       		.uleb128 0x1e
 3811 0780 17       		.uleb128 0x17
 3812 0781 BC040000 		.4byte	.LASF136
 3813 0785 0B       		.byte	0xb
 3814 0786 2504     		.2byte	0x425
 3815 0788 2C060000 		.4byte	0x62c
 3816 078c 02       		.byte	0x2
 3817 078d 23       		.byte	0x23
 3818 078e 20       		.uleb128 0x20
 3819 078f 17       		.uleb128 0x17
 3820 0790 59020000 		.4byte	.LASF137
 3821 0794 0B       		.byte	0xb
 3822 0795 2604     		.2byte	0x426
 3823 0797 62000000 		.4byte	0x62
 3824 079b 02       		.byte	0x2
 3825 079c 23       		.byte	0x23
 3826 079d 22       		.uleb128 0x22
 3827 079e 00       		.byte	0x0
 3828 079f 18       		.uleb128 0x18
 3829 07a0 9B070000 		.4byte	.LASF138
 3830 07a4 0B       		.byte	0xb
 3831 07a5 2704     		.2byte	0x427
 3832 07a7 88060000 		.4byte	0x688
 3833 07ab 16       		.uleb128 0x16
 3834 07ac 28       		.byte	0x28
 3835 07ad 0B       		.byte	0xb
 3836 07ae 4304     		.2byte	0x443
 3837 07b0 4A080000 		.4byte	0x84a
 3838 07b4 0B       		.uleb128 0xb
 3839 07b5 435200   		.ascii	"CR\000"
 3840 07b8 0B       		.byte	0xb
 3841 07b9 4504     		.2byte	0x445
 3842 07bb 3D030000 		.4byte	0x33d
 3843 07bf 02       		.byte	0x2
 3844 07c0 23       		.byte	0x23
 3845 07c1 00       		.uleb128 0x0
 3846 07c2 17       		.uleb128 0x17
 3847 07c3 E8030000 		.4byte	.LASF139
 3848 07c7 0B       		.byte	0xb
 3849 07c8 4604     		.2byte	0x446
 3850 07ca 3D030000 		.4byte	0x33d
 3851 07ce 02       		.byte	0x2
 3852 07cf 23       		.byte	0x23
 3853 07d0 04       		.uleb128 0x4
 3854 07d1 0B       		.uleb128 0xb
 3855 07d2 43495200 		.ascii	"CIR\000"
 3856 07d6 0B       		.byte	0xb
 3857 07d7 4704     		.2byte	0x447
 3858 07d9 3D030000 		.4byte	0x33d
 3859 07dd 02       		.byte	0x2
 3860 07de 23       		.byte	0x23
ARM GAS  C:\Users\z80\AppData\Local\Temp\ccHBr3N4.s 			page 70


 3861 07df 08       		.uleb128 0x8
 3862 07e0 17       		.uleb128 0x17
 3863 07e1 82050000 		.4byte	.LASF140
 3864 07e5 0B       		.byte	0xb
 3865 07e6 4804     		.2byte	0x448
 3866 07e8 3D030000 		.4byte	0x33d
 3867 07ec 02       		.byte	0x2
 3868 07ed 23       		.byte	0x23
 3869 07ee 0C       		.uleb128 0xc
 3870 07ef 17       		.uleb128 0x17
 3871 07f0 86080000 		.4byte	.LASF141
 3872 07f4 0B       		.byte	0xb
 3873 07f5 4904     		.2byte	0x449
 3874 07f7 3D030000 		.4byte	0x33d
 3875 07fb 02       		.byte	0x2
 3876 07fc 23       		.byte	0x23
 3877 07fd 10       		.uleb128 0x10
 3878 07fe 17       		.uleb128 0x17
 3879 07ff B4080000 		.4byte	.LASF142
 3880 0803 0B       		.byte	0xb
 3881 0804 4A04     		.2byte	0x44a
 3882 0806 3D030000 		.4byte	0x33d
 3883 080a 02       		.byte	0x2
 3884 080b 23       		.byte	0x23
 3885 080c 14       		.uleb128 0x14
 3886 080d 17       		.uleb128 0x17
 3887 080e 92010000 		.4byte	.LASF143
 3888 0812 0B       		.byte	0xb
 3889 0813 4B04     		.2byte	0x44b
 3890 0815 3D030000 		.4byte	0x33d
 3891 0819 02       		.byte	0x2
 3892 081a 23       		.byte	0x23
 3893 081b 18       		.uleb128 0x18
 3894 081c 17       		.uleb128 0x17
 3895 081d F7060000 		.4byte	.LASF144
 3896 0821 0B       		.byte	0xb
 3897 0822 4C04     		.2byte	0x44c
 3898 0824 3D030000 		.4byte	0x33d
 3899 0828 02       		.byte	0x2
 3900 0829 23       		.byte	0x23
 3901 082a 1C       		.uleb128 0x1c
 3902 082b 17       		.uleb128 0x17
 3903 082c 7C030000 		.4byte	.LASF145
 3904 0830 0B       		.byte	0xb
 3905 0831 4D04     		.2byte	0x44d
 3906 0833 3D030000 		.4byte	0x33d
 3907 0837 02       		.byte	0x2
 3908 0838 23       		.byte	0x23
 3909 0839 20       		.uleb128 0x20
 3910 083a 0B       		.uleb128 0xb
 3911 083b 43535200 		.ascii	"CSR\000"
 3912 083f 0B       		.byte	0xb
 3913 0840 4E04     		.2byte	0x44e
 3914 0842 3D030000 		.4byte	0x33d
 3915 0846 02       		.byte	0x2
 3916 0847 23       		.byte	0x23
 3917 0848 24       		.uleb128 0x24
ARM GAS  C:\Users\z80\AppData\Local\Temp\ccHBr3N4.s 			page 71


 3918 0849 00       		.byte	0x0
 3919 084a 18       		.uleb128 0x18
 3920 084b 4B080000 		.4byte	.LASF146
 3921 084f 0B       		.byte	0xb
 3922 0850 5904     		.2byte	0x459
 3923 0852 AB070000 		.4byte	0x7ab
 3924 0856 08       		.uleb128 0x8
 3925 0857 0C       		.byte	0xc
 3926 0858 0C       		.byte	0xc
 3927 0859 C2       		.byte	0xc2
 3928 085a A5080000 		.4byte	0x8a5
 3929 085e 06       		.uleb128 0x6
 3930 085f 93040000 		.4byte	.LASF147
 3931 0863 0C       		.byte	0xc
 3932 0864 C3       		.byte	0xc3
 3933 0865 A5080000 		.4byte	0x8a5
 3934 0869 02       		.byte	0x2
 3935 086a 23       		.byte	0x23
 3936 086b 00       		.uleb128 0x0
 3937 086c 06       		.uleb128 0x6
 3938 086d F6090000 		.4byte	.LASF148
 3939 0871 0C       		.byte	0xc
 3940 0872 C4       		.byte	0xc4
 3941 0873 AB080000 		.4byte	0x8ab
 3942 0877 02       		.byte	0x2
 3943 0878 23       		.byte	0x23
 3944 0879 04       		.uleb128 0x4
 3945 087a 06       		.uleb128 0x6
 3946 087b F3020000 		.4byte	.LASF149
 3947 087f 0C       		.byte	0xc
 3948 0880 C5       		.byte	0xc5
 3949 0881 49000000 		.4byte	0x49
 3950 0885 02       		.byte	0x2
 3951 0886 23       		.byte	0x23
 3952 0887 08       		.uleb128 0x8
 3953 0888 06       		.uleb128 0x6
 3954 0889 02060000 		.4byte	.LASF150
 3955 088d 0C       		.byte	0xc
 3956 088e C7       		.byte	0xc7
 3957 088f 49000000 		.4byte	0x49
 3958 0893 02       		.byte	0x2
 3959 0894 23       		.byte	0x23
 3960 0895 09       		.uleb128 0x9
 3961 0896 06       		.uleb128 0x6
 3962 0897 94070000 		.4byte	.LASF151
 3963 089b 0C       		.byte	0xc
 3964 089c C8       		.byte	0xc8
 3965 089d 49000000 		.4byte	0x49
 3966 08a1 02       		.byte	0x2
 3967 08a2 23       		.byte	0x23
 3968 08a3 0A       		.uleb128 0xa
 3969 08a4 00       		.byte	0x0
 3970 08a5 09       		.uleb128 0x9
 3971 08a6 04       		.byte	0x4
 3972 08a7 7C060000 		.4byte	0x67c
 3973 08ab 09       		.uleb128 0x9
 3974 08ac 04       		.byte	0x4
ARM GAS  C:\Users\z80\AppData\Local\Temp\ccHBr3N4.s 			page 72


 3975 08ad 3D030000 		.4byte	0x33d
 3976 08b1 03       		.uleb128 0x3
 3977 08b2 C2040000 		.4byte	.LASF152
 3978 08b6 0C       		.byte	0xc
 3979 08b7 C9       		.byte	0xc9
 3980 08b8 56080000 		.4byte	0x856
 3981 08bc 03       		.uleb128 0x3
 3982 08bd D9060000 		.4byte	.LASF153
 3983 08c1 0C       		.byte	0xc
 3984 08c2 D2       		.byte	0xd2
 3985 08c3 C7080000 		.4byte	0x8c7
 3986 08c7 09       		.uleb128 0x9
 3987 08c8 04       		.byte	0x4
 3988 08c9 CD080000 		.4byte	0x8cd
 3989 08cd 0F       		.uleb128 0xf
 3990 08ce 01       		.byte	0x1
 3991 08cf DE080000 		.4byte	0x8de
 3992 08d3 10       		.uleb128 0x10
 3993 08d4 80020000 		.4byte	0x280
 3994 08d8 10       		.uleb128 0x10
 3995 08d9 86000000 		.4byte	0x86
 3996 08dd 00       		.byte	0x0
 3997 08de 09       		.uleb128 0x9
 3998 08df 04       		.byte	0x4
 3999 08e0 E4080000 		.4byte	0x8e4
 4000 08e4 13       		.uleb128 0x13
 4001 08e5 B1080000 		.4byte	0x8b1
 4002 08e9 19       		.uleb128 0x19
 4003 08ea 01       		.byte	0x1
 4004 08eb 0D       		.byte	0xd
 4005 08ec 5B       		.byte	0x5b
 4006 08ed 16090000 		.4byte	0x916
 4007 08f1 15       		.uleb128 0x15
 4008 08f2 51050000 		.4byte	.LASF154
 4009 08f6 00       		.sleb128 0
 4010 08f7 15       		.uleb128 0x15
 4011 08f8 130A0000 		.4byte	.LASF155
 4012 08fc 01       		.sleb128 1
 4013 08fd 15       		.uleb128 0x15
 4014 08fe 52060000 		.4byte	.LASF156
 4015 0902 02       		.sleb128 2
 4016 0903 15       		.uleb128 0x15
 4017 0904 39030000 		.4byte	.LASF157
 4018 0908 03       		.sleb128 3
 4019 0909 15       		.uleb128 0x15
 4020 090a 93020000 		.4byte	.LASF158
 4021 090e 04       		.sleb128 4
 4022 090f 15       		.uleb128 0x15
 4023 0910 D2030000 		.4byte	.LASF159
 4024 0914 05       		.sleb128 5
 4025 0915 00       		.byte	0x0
 4026 0916 03       		.uleb128 0x3
 4027 0917 A3050000 		.4byte	.LASF160
 4028 091b 0D       		.byte	0xd
 4029 091c 62       		.byte	0x62
 4030 091d E9080000 		.4byte	0x8e9
 4031 0921 18       		.uleb128 0x18
ARM GAS  C:\Users\z80\AppData\Local\Temp\ccHBr3N4.s 			page 73


 4032 0922 15010000 		.4byte	.LASF161
 4033 0926 0E       		.byte	0xe
 4034 0927 4001     		.2byte	0x140
 4035 0929 62000000 		.4byte	0x62
 4036 092d 18       		.uleb128 0x18
 4037 092e 72090000 		.4byte	.LASF162
 4038 0932 0E       		.byte	0xe
 4039 0933 4501     		.2byte	0x145
 4040 0935 86000000 		.4byte	0x86
 4041 0939 1A       		.uleb128 0x1a
 4042 093a 01       		.byte	0x1
 4043 093b 0E       		.byte	0xe
 4044 093c 4A01     		.2byte	0x14a
 4045 093e 55090000 		.4byte	0x955
 4046 0942 15       		.uleb128 0x15
 4047 0943 DD020000 		.4byte	.LASF163
 4048 0947 01       		.sleb128 1
 4049 0948 15       		.uleb128 0x15
 4050 0949 47000000 		.4byte	.LASF164
 4051 094d 02       		.sleb128 2
 4052 094e 15       		.uleb128 0x15
 4053 094f 96080000 		.4byte	.LASF165
 4054 0953 03       		.sleb128 3
 4055 0954 00       		.byte	0x0
 4056 0955 18       		.uleb128 0x18
 4057 0956 4E070000 		.4byte	.LASF166
 4058 095a 0E       		.byte	0xe
 4059 095b 4E01     		.2byte	0x14e
 4060 095d 39090000 		.4byte	0x939
 4061 0961 1A       		.uleb128 0x1a
 4062 0962 01       		.byte	0x1
 4063 0963 0E       		.byte	0xe
 4064 0964 5301     		.2byte	0x153
 4065 0966 7D090000 		.4byte	0x97d
 4066 096a 15       		.uleb128 0x15
 4067 096b A7070000 		.4byte	.LASF167
 4068 096f 01       		.sleb128 1
 4069 0970 15       		.uleb128 0x15
 4070 0971 90000000 		.4byte	.LASF168
 4071 0975 02       		.sleb128 2
 4072 0976 15       		.uleb128 0x15
 4073 0977 E1000000 		.4byte	.LASF169
 4074 097b 03       		.sleb128 3
 4075 097c 00       		.byte	0x0
 4076 097d 18       		.uleb128 0x18
 4077 097e 29010000 		.4byte	.LASF170
 4078 0982 0E       		.byte	0xe
 4079 0983 5701     		.2byte	0x157
 4080 0985 61090000 		.4byte	0x961
 4081 0989 16       		.uleb128 0x16
 4082 098a 0C       		.byte	0xc
 4083 098b 0E       		.byte	0xe
 4084 098c 5C01     		.2byte	0x15c
 4085 098e C0090000 		.4byte	0x9c0
 4086 0992 17       		.uleb128 0x17
 4087 0993 1A090000 		.4byte	.LASF171
 4088 0997 0E       		.byte	0xe
ARM GAS  C:\Users\z80\AppData\Local\Temp\ccHBr3N4.s 			page 74


 4089 0998 5D01     		.2byte	0x15d
 4090 099a 55090000 		.4byte	0x955
 4091 099e 02       		.byte	0x2
 4092 099f 23       		.byte	0x23
 4093 09a0 00       		.uleb128 0x0
 4094 09a1 17       		.uleb128 0x17
 4095 09a2 AF090000 		.4byte	.LASF172
 4096 09a6 0E       		.byte	0xe
 4097 09a7 5E01     		.2byte	0x15e
 4098 09a9 86000000 		.4byte	0x86
 4099 09ad 02       		.byte	0x2
 4100 09ae 23       		.byte	0x23
 4101 09af 04       		.uleb128 0x4
 4102 09b0 17       		.uleb128 0x17
 4103 09b1 DD030000 		.4byte	.LASF173
 4104 09b5 0E       		.byte	0xe
 4105 09b6 6101     		.2byte	0x161
 4106 09b8 7D090000 		.4byte	0x97d
 4107 09bc 02       		.byte	0x2
 4108 09bd 23       		.byte	0x23
 4109 09be 08       		.uleb128 0x8
 4110 09bf 00       		.byte	0x0
 4111 09c0 18       		.uleb128 0x18
 4112 09c1 A9060000 		.4byte	.LASF174
 4113 09c5 0E       		.byte	0xe
 4114 09c6 6301     		.2byte	0x163
 4115 09c8 89090000 		.4byte	0x989
 4116 09cc 18       		.uleb128 0x18
 4117 09cd 05040000 		.4byte	.LASF175
 4118 09d1 0E       		.byte	0xe
 4119 09d2 6801     		.2byte	0x168
 4120 09d4 D8090000 		.4byte	0x9d8
 4121 09d8 0C       		.uleb128 0xc
 4122 09d9 05040000 		.4byte	.LASF175
 4123 09dd 58       		.byte	0x58
 4124 09de 0E       		.byte	0xe
 4125 09df 7101     		.2byte	0x171
 4126 09e1 030B0000 		.4byte	0xb03
 4127 09e5 17       		.uleb128 0x17
 4128 09e6 CB000000 		.4byte	.LASF176
 4129 09ea 0E       		.byte	0xe
 4130 09eb 7501     		.2byte	0x175
 4131 09ed 16090000 		.4byte	0x916
 4132 09f1 02       		.byte	0x2
 4133 09f2 23       		.byte	0x23
 4134 09f3 00       		.uleb128 0x0
 4135 09f4 17       		.uleb128 0x17
 4136 09f5 C4000000 		.4byte	.LASF177
 4137 09f9 0E       		.byte	0xe
 4138 09fa 7901     		.2byte	0x179
 4139 09fc 270B0000 		.4byte	0xb27
 4140 0a00 02       		.byte	0x2
 4141 0a01 23       		.byte	0x23
 4142 0a02 04       		.uleb128 0x4
 4143 0a03 17       		.uleb128 0x17
 4144 0a04 08030000 		.4byte	.LASF178
 4145 0a08 0E       		.byte	0xe
ARM GAS  C:\Users\z80\AppData\Local\Temp\ccHBr3N4.s 			page 75


 4146 0a09 7D01     		.2byte	0x17d
 4147 0a0b 2D090000 		.4byte	0x92d
 4148 0a0f 02       		.byte	0x2
 4149 0a10 23       		.byte	0x23
 4150 0a11 08       		.uleb128 0x8
 4151 0a12 17       		.uleb128 0x17
 4152 0a13 AE050000 		.4byte	.LASF179
 4153 0a17 0E       		.byte	0xe
 4154 0a18 8301     		.2byte	0x183
 4155 0a1a 7E040000 		.4byte	0x47e
 4156 0a1e 02       		.byte	0x2
 4157 0a1f 23       		.byte	0x23
 4158 0a20 0C       		.uleb128 0xc
 4159 0a21 17       		.uleb128 0x17
 4160 0a22 1C080000 		.4byte	.LASF180
 4161 0a26 0E       		.byte	0xe
 4162 0a27 8F01     		.2byte	0x18f
 4163 0a29 42020000 		.4byte	0x242
 4164 0a2d 02       		.byte	0x2
 4165 0a2e 23       		.byte	0x23
 4166 0a2f 1C       		.uleb128 0x1c
 4167 0a30 17       		.uleb128 0x17
 4168 0a31 E1050000 		.4byte	.LASF181
 4169 0a35 0E       		.byte	0xe
 4170 0a36 9301     		.2byte	0x193
 4171 0a38 21090000 		.4byte	0x921
 4172 0a3c 02       		.byte	0x2
 4173 0a3d 23       		.byte	0x23
 4174 0a3e 20       		.uleb128 0x20
 4175 0a3f 17       		.uleb128 0x17
 4176 0a40 C9050000 		.4byte	.LASF182
 4177 0a44 0E       		.byte	0xe
 4178 0a45 9701     		.2byte	0x197
 4179 0a47 86000000 		.4byte	0x86
 4180 0a4b 02       		.byte	0x2
 4181 0a4c 23       		.byte	0x23
 4182 0a4d 24       		.uleb128 0x24
 4183 0a4e 17       		.uleb128 0x17
 4184 0a4f 37050000 		.4byte	.LASF183
 4185 0a53 0E       		.byte	0xe
 4186 0a54 9B01     		.2byte	0x19b
 4187 0a56 DE080000 		.4byte	0x8de
 4188 0a5a 02       		.byte	0x2
 4189 0a5b 23       		.byte	0x23
 4190 0a5c 28       		.uleb128 0x28
 4191 0a5d 17       		.uleb128 0x17
 4192 0a5e E6050000 		.4byte	.LASF184
 4193 0a62 0E       		.byte	0xe
 4194 0a63 9F01     		.2byte	0x19f
 4195 0a65 DE080000 		.4byte	0x8de
 4196 0a69 02       		.byte	0x2
 4197 0a6a 23       		.byte	0x23
 4198 0a6b 2C       		.uleb128 0x2c
 4199 0a6c 0B       		.uleb128 0xb
 4200 0a6d 69326300 		.ascii	"i2c\000"
 4201 0a71 0E       		.byte	0xe
 4202 0a72 A301     		.2byte	0x1a3
ARM GAS  C:\Users\z80\AppData\Local\Temp\ccHBr3N4.s 			page 76


 4203 0a74 320B0000 		.4byte	0xb32
 4204 0a78 02       		.byte	0x2
 4205 0a79 23       		.byte	0x23
 4206 0a7a 30       		.uleb128 0x30
 4207 0a7b 17       		.uleb128 0x17
 4208 0a7c BD070000 		.4byte	.LASF185
 4209 0a80 0E       		.byte	0xe
 4210 0a81 A501     		.2byte	0x1a5
 4211 0a83 49000000 		.4byte	0x49
 4212 0a87 02       		.byte	0x2
 4213 0a88 23       		.byte	0x23
 4214 0a89 34       		.uleb128 0x34
 4215 0a8a 17       		.uleb128 0x17
 4216 0a8b 31050000 		.4byte	.LASF186
 4217 0a8f 0E       		.byte	0xe
 4218 0a90 A601     		.2byte	0x1a6
 4219 0a92 DC040000 		.4byte	0x4dc
 4220 0a96 02       		.byte	0x2
 4221 0a97 23       		.byte	0x23
 4222 0a98 38       		.uleb128 0x38
 4223 0a99 17       		.uleb128 0x17
 4224 0a9a 26060000 		.4byte	.LASF187
 4225 0a9e 0E       		.byte	0xe
 4226 0a9f A701     		.2byte	0x1a7
 4227 0aa1 30000000 		.4byte	0x30
 4228 0aa5 02       		.byte	0x2
 4229 0aa6 23       		.byte	0x23
 4230 0aa7 3C       		.uleb128 0x3c
 4231 0aa8 17       		.uleb128 0x17
 4232 0aa9 A3060000 		.4byte	.LASF188
 4233 0aad 0E       		.byte	0xe
 4234 0aae A801     		.2byte	0x1a8
 4235 0ab0 30000000 		.4byte	0x30
 4236 0ab4 02       		.byte	0x2
 4237 0ab5 23       		.byte	0x23
 4238 0ab6 40       		.uleb128 0x40
 4239 0ab7 17       		.uleb128 0x17
 4240 0ab8 D5040000 		.4byte	.LASF189
 4241 0abc 0E       		.byte	0xe
 4242 0abd A901     		.2byte	0x1a9
 4243 0abf 030B0000 		.4byte	0xb03
 4244 0ac3 02       		.byte	0x2
 4245 0ac4 23       		.byte	0x23
 4246 0ac5 44       		.uleb128 0x44
 4247 0ac6 17       		.uleb128 0x17
 4248 0ac7 83010000 		.4byte	.LASF190
 4249 0acb 0E       		.byte	0xe
 4250 0acc AB01     		.2byte	0x1ab
 4251 0ace DC040000 		.4byte	0x4dc
 4252 0ad2 02       		.byte	0x2
 4253 0ad3 23       		.byte	0x23
 4254 0ad4 48       		.uleb128 0x48
 4255 0ad5 17       		.uleb128 0x17
 4256 0ad6 FF060000 		.4byte	.LASF191
 4257 0ada 0E       		.byte	0xe
 4258 0adb AC01     		.2byte	0x1ac
 4259 0add 30000000 		.4byte	0x30
ARM GAS  C:\Users\z80\AppData\Local\Temp\ccHBr3N4.s 			page 77


 4260 0ae1 02       		.byte	0x2
 4261 0ae2 23       		.byte	0x23
 4262 0ae3 4C       		.uleb128 0x4c
 4263 0ae4 17       		.uleb128 0x17
 4264 0ae5 94030000 		.4byte	.LASF192
 4265 0ae9 0E       		.byte	0xe
 4266 0aea AD01     		.2byte	0x1ad
 4267 0aec 30000000 		.4byte	0x30
 4268 0af0 02       		.byte	0x2
 4269 0af1 23       		.byte	0x23
 4270 0af2 50       		.uleb128 0x50
 4271 0af3 17       		.uleb128 0x17
 4272 0af4 0C050000 		.4byte	.LASF193
 4273 0af8 0E       		.byte	0xe
 4274 0af9 AE01     		.2byte	0x1ae
 4275 0afb 030B0000 		.4byte	0xb03
 4276 0aff 02       		.byte	0x2
 4277 0b00 23       		.byte	0x23
 4278 0b01 54       		.uleb128 0x54
 4279 0b02 00       		.byte	0x0
 4280 0b03 18       		.uleb128 0x18
 4281 0b04 0E090000 		.4byte	.LASF194
 4282 0b08 0E       		.byte	0xe
 4283 0b09 6B01     		.2byte	0x16b
 4284 0b0b 0F0B0000 		.4byte	0xb0f
 4285 0b0f 09       		.uleb128 0x9
 4286 0b10 04       		.byte	0x4
 4287 0b11 150B0000 		.4byte	0xb15
 4288 0b15 0F       		.uleb128 0xf
 4289 0b16 01       		.byte	0x1
 4290 0b17 210B0000 		.4byte	0xb21
 4291 0b1b 10       		.uleb128 0x10
 4292 0b1c 210B0000 		.4byte	0xb21
 4293 0b20 00       		.byte	0x0
 4294 0b21 09       		.uleb128 0x9
 4295 0b22 04       		.byte	0x4
 4296 0b23 CC090000 		.4byte	0x9cc
 4297 0b27 09       		.uleb128 0x9
 4298 0b28 04       		.byte	0x4
 4299 0b29 2D0B0000 		.4byte	0xb2d
 4300 0b2d 13       		.uleb128 0x13
 4301 0b2e C0090000 		.4byte	0x9c0
 4302 0b32 09       		.uleb128 0x9
 4303 0b33 04       		.byte	0x4
 4304 0b34 9F070000 		.4byte	0x79f
 4305 0b38 1B       		.uleb128 0x1b
 4306 0b39 8B050000 		.4byte	.LASF195
 4307 0b3d 01       		.byte	0x1
 4308 0b3e 97       		.byte	0x97
 4309 0b3f 01       		.byte	0x1
 4310 0b40 00000000 		.4byte	.LFB62
 4311 0b44 82000000 		.4byte	.LFE62
 4312 0b48 00000000 		.4byte	.LLST0
 4313 0b4c 6C0B0000 		.4byte	0xb6c
 4314 0b50 1C       		.uleb128 0x1c
 4315 0b51 2C050000 		.4byte	.LASF197
 4316 0b55 01       		.byte	0x1
ARM GAS  C:\Users\z80\AppData\Local\Temp\ccHBr3N4.s 			page 78


 4317 0b56 97       		.byte	0x97
 4318 0b57 210B0000 		.4byte	0xb21
 4319 0b5b 02       		.byte	0x2
 4320 0b5c 91       		.byte	0x91
 4321 0b5d 74       		.sleb128 -12
 4322 0b5e 1D       		.uleb128 0x1d
 4323 0b5f 647000   		.ascii	"dp\000"
 4324 0b62 01       		.byte	0x1
 4325 0b63 98       		.byte	0x98
 4326 0b64 320B0000 		.4byte	0xb32
 4327 0b68 02       		.byte	0x2
 4328 0b69 91       		.byte	0x91
 4329 0b6a 7C       		.sleb128 -4
 4330 0b6b 00       		.byte	0x0
 4331 0b6c 1B       		.uleb128 0x1b
 4332 0b6d A2000000 		.4byte	.LASF196
 4333 0b71 01       		.byte	0x1
 4334 0b72 AC       		.byte	0xac
 4335 0b73 01       		.byte	0x1
 4336 0b74 00000000 		.4byte	.LFB63
 4337 0b78 38000000 		.4byte	.LFE63
 4338 0b7c 20000000 		.4byte	.LLST1
 4339 0b80 B60B0000 		.4byte	0xbb6
 4340 0b84 1E       		.uleb128 0x1e
 4341 0b85 7000     		.ascii	"p\000"
 4342 0b87 01       		.byte	0x1
 4343 0b88 AC       		.byte	0xac
 4344 0b89 80020000 		.4byte	0x280
 4345 0b8d 02       		.byte	0x2
 4346 0b8e 91       		.byte	0x91
 4347 0b8f 6C       		.sleb128 -20
 4348 0b90 1F       		.uleb128 0x1f
 4349 0b91 2C050000 		.4byte	.LASF197
 4350 0b95 01       		.byte	0x1
 4351 0b96 AD       		.byte	0xad
 4352 0b97 210B0000 		.4byte	0xb21
 4353 0b9b 02       		.byte	0x2
 4354 0b9c 91       		.byte	0x91
 4355 0b9d 74       		.sleb128 -12
 4356 0b9e 20       		.uleb128 0x20
 4357 0b9f 12000000 		.4byte	.LBB2
 4358 0ba3 34000000 		.4byte	.LBE2
 4359 0ba7 1D       		.uleb128 0x1d
 4360 0ba8 747000   		.ascii	"tp\000"
 4361 0bab 01       		.byte	0x1
 4362 0bac B0       		.byte	0xb0
 4363 0bad 42020000 		.4byte	0x242
 4364 0bb1 02       		.byte	0x2
 4365 0bb2 91       		.byte	0x91
 4366 0bb3 70       		.sleb128 -16
 4367 0bb4 00       		.byte	0x0
 4368 0bb5 00       		.byte	0x0
 4369 0bb6 1B       		.uleb128 0x1b
 4370 0bb7 60090000 		.4byte	.LASF198
 4371 0bbb 01       		.byte	0x1
 4372 0bbc BF       		.byte	0xbf
 4373 0bbd 01       		.byte	0x1
ARM GAS  C:\Users\z80\AppData\Local\Temp\ccHBr3N4.s 			page 79


 4374 0bbe 00000000 		.4byte	.LFB64
 4375 0bc2 5C020000 		.4byte	.LFE64
 4376 0bc6 4C000000 		.4byte	.LLST2
 4377 0bca 220C0000 		.4byte	0xc22
 4378 0bce 1C       		.uleb128 0x1c
 4379 0bcf 2C050000 		.4byte	.LASF197
 4380 0bd3 01       		.byte	0x1
 4381 0bd4 BF       		.byte	0xbf
 4382 0bd5 210B0000 		.4byte	0xb21
 4383 0bd9 02       		.byte	0x2
 4384 0bda 91       		.byte	0x91
 4385 0bdb 64       		.sleb128 -28
 4386 0bdc 1D       		.uleb128 0x1d
 4387 0bdd 647000   		.ascii	"dp\000"
 4388 0be0 01       		.byte	0x1
 4389 0be1 C0       		.byte	0xc0
 4390 0be2 320B0000 		.4byte	0xb32
 4391 0be6 02       		.byte	0x2
 4392 0be7 91       		.byte	0x91
 4393 0be8 70       		.sleb128 -16
 4394 0be9 1F       		.uleb128 0x1f
 4395 0bea 63060000 		.4byte	.LASF199
 4396 0bee 01       		.byte	0x1
 4397 0bef C1       		.byte	0xc1
 4398 0bf0 62000000 		.4byte	0x62
 4399 0bf4 02       		.byte	0x2
 4400 0bf5 91       		.byte	0x91
 4401 0bf6 76       		.sleb128 -10
 4402 0bf7 1F       		.uleb128 0x1f
 4403 0bf8 11000000 		.4byte	.LASF200
 4404 0bfc 01       		.byte	0x1
 4405 0bfd C1       		.byte	0xc1
 4406 0bfe 62000000 		.4byte	0x62
 4407 0c02 02       		.byte	0x2
 4408 0c03 91       		.byte	0x91
 4409 0c04 74       		.sleb128 -12
 4410 0c05 1F       		.uleb128 0x1f
 4411 0c06 AF090000 		.4byte	.LASF172
 4412 0c0a 01       		.byte	0x1
 4413 0c0b C2       		.byte	0xc2
 4414 0c0c 74000000 		.4byte	0x74
 4415 0c10 02       		.byte	0x2
 4416 0c11 91       		.byte	0x91
 4417 0c12 6C       		.sleb128 -20
 4418 0c13 1F       		.uleb128 0x1f
 4419 0c14 1B000000 		.4byte	.LASF201
 4420 0c18 01       		.byte	0x1
 4421 0c19 C3       		.byte	0xc3
 4422 0c1a 7D090000 		.4byte	0x97d
 4423 0c1e 02       		.byte	0x2
 4424 0c1f 91       		.byte	0x91
 4425 0c20 6B       		.sleb128 -21
 4426 0c21 00       		.byte	0x0
 4427 0c22 21       		.uleb128 0x21
 4428 0c23 61080000 		.4byte	.LASF202
 4429 0c27 01       		.byte	0x1
 4430 0c28 1001     		.2byte	0x110
ARM GAS  C:\Users\z80\AppData\Local\Temp\ccHBr3N4.s 			page 80


 4431 0c2a 01       		.byte	0x1
 4432 0c2b 00000000 		.4byte	.LFB65
 4433 0c2f 6E000000 		.4byte	.LFE65
 4434 0c33 78000000 		.4byte	.LLST3
 4435 0c37 770C0000 		.4byte	0xc77
 4436 0c3b 22       		.uleb128 0x22
 4437 0c3c 2C050000 		.4byte	.LASF197
 4438 0c40 01       		.byte	0x1
 4439 0c41 1001     		.2byte	0x110
 4440 0c43 210B0000 		.4byte	0xb21
 4441 0c47 02       		.byte	0x2
 4442 0c48 91       		.byte	0x91
 4443 0c49 6C       		.sleb128 -20
 4444 0c4a 23       		.uleb128 0x23
 4445 0c4b 647000   		.ascii	"dp\000"
 4446 0c4e 01       		.byte	0x1
 4447 0c4f 1101     		.2byte	0x111
 4448 0c51 320B0000 		.4byte	0xb32
 4449 0c55 02       		.byte	0x2
 4450 0c56 91       		.byte	0x91
 4451 0c57 78       		.sleb128 -8
 4452 0c58 24       		.uleb128 0x24
 4453 0c59 B6070000 		.4byte	.LASF203
 4454 0c5d 01       		.byte	0x1
 4455 0c5e 1201     		.2byte	0x112
 4456 0c60 55090000 		.4byte	0x955
 4457 0c64 02       		.byte	0x2
 4458 0c65 91       		.byte	0x91
 4459 0c66 77       		.sleb128 -9
 4460 0c67 24       		.uleb128 0x24
 4461 0c68 F6000000 		.4byte	.LASF204
 4462 0c6c 01       		.byte	0x1
 4463 0c6d 1301     		.2byte	0x113
 4464 0c6f 62000000 		.4byte	0x62
 4465 0c73 02       		.byte	0x2
 4466 0c74 91       		.byte	0x91
 4467 0c75 7E       		.sleb128 -2
 4468 0c76 00       		.byte	0x0
 4469 0c77 21       		.uleb128 0x21
 4470 0c78 A2030000 		.4byte	.LASF205
 4471 0c7c 01       		.byte	0x1
 4472 0c7d 2C01     		.2byte	0x12c
 4473 0c7f 01       		.byte	0x1
 4474 0c80 00000000 		.4byte	.LFB66
 4475 0c84 96020000 		.4byte	.LFE66
 4476 0c88 98000000 		.4byte	.LLST4
 4477 0c8c 1C0D0000 		.4byte	0xd1c
 4478 0c90 22       		.uleb128 0x22
 4479 0c91 2C050000 		.4byte	.LASF197
 4480 0c95 01       		.byte	0x1
 4481 0c96 2C01     		.2byte	0x12c
 4482 0c98 210B0000 		.4byte	0xb21
 4483 0c9c 02       		.byte	0x2
 4484 0c9d 91       		.byte	0x91
 4485 0c9e 64       		.sleb128 -28
 4486 0c9f 23       		.uleb128 0x23
 4487 0ca0 647000   		.ascii	"dp\000"
ARM GAS  C:\Users\z80\AppData\Local\Temp\ccHBr3N4.s 			page 81


 4488 0ca3 01       		.byte	0x1
 4489 0ca4 2E01     		.2byte	0x12e
 4490 0ca6 320B0000 		.4byte	0xb32
 4491 0caa 02       		.byte	0x2
 4492 0cab 91       		.byte	0x91
 4493 0cac 70       		.sleb128 -16
 4494 0cad 24       		.uleb128 0x24
 4495 0cae D9070000 		.4byte	.LASF206
 4496 0cb2 01       		.byte	0x1
 4497 0cb3 2F01     		.2byte	0x12f
 4498 0cb5 86000000 		.4byte	0x86
 4499 0cb9 02       		.byte	0x2
 4500 0cba 91       		.byte	0x91
 4501 0cbb 6C       		.sleb128 -20
 4502 0cbc 24       		.uleb128 0x24
 4503 0cbd DB050000 		.4byte	.LASF207
 4504 0cc1 01       		.byte	0x1
 4505 0cc2 3001     		.2byte	0x130
 4506 0cc4 86000000 		.4byte	0x86
 4507 0cc8 02       		.byte	0x2
 4508 0cc9 91       		.byte	0x91
 4509 0cca 74       		.sleb128 -12
 4510 0ccb 25       		.uleb128 0x25
 4511 0ccc 46010000 		.4byte	.LBB3
 4512 0cd0 4E010000 		.4byte	.LBE3
 4513 0cd4 E70C0000 		.4byte	0xce7
 4514 0cd8 23       		.uleb128 0x23
 4515 0cd9 746D7000 		.ascii	"tmp\000"
 4516 0cdd 01       		.byte	0x1
 4517 0cde 5201     		.2byte	0x152
 4518 0ce0 86000000 		.4byte	0x86
 4519 0ce4 01       		.byte	0x1
 4520 0ce5 53       		.byte	0x53
 4521 0ce6 00       		.byte	0x0
 4522 0ce7 25       		.uleb128 0x25
 4523 0ce8 5A010000 		.4byte	.LBB4
 4524 0cec 76010000 		.4byte	.LBE4
 4525 0cf0 030D0000 		.4byte	0xd03
 4526 0cf4 23       		.uleb128 0x23
 4527 0cf5 747000   		.ascii	"tp\000"
 4528 0cf8 01       		.byte	0x1
 4529 0cf9 5201     		.2byte	0x152
 4530 0cfb 42020000 		.4byte	0x242
 4531 0cff 02       		.byte	0x2
 4532 0d00 91       		.byte	0x91
 4533 0d01 68       		.sleb128 -24
 4534 0d02 00       		.byte	0x0
 4535 0d03 20       		.uleb128 0x20
 4536 0d04 7A010000 		.4byte	.LBB5
 4537 0d08 82010000 		.4byte	.LBE5
 4538 0d0c 23       		.uleb128 0x23
 4539 0d0d 746D7000 		.ascii	"tmp\000"
 4540 0d11 01       		.byte	0x1
 4541 0d12 5201     		.2byte	0x152
 4542 0d14 86000000 		.4byte	0x86
 4543 0d18 01       		.byte	0x1
 4544 0d19 53       		.byte	0x53
ARM GAS  C:\Users\z80\AppData\Local\Temp\ccHBr3N4.s 			page 82


 4545 0d1a 00       		.byte	0x0
 4546 0d1b 00       		.byte	0x0
 4547 0d1c 21       		.uleb128 0x21
 4548 0d1d 20030000 		.4byte	.LASF208
 4549 0d21 01       		.byte	0x1
 4550 0d22 9201     		.2byte	0x192
 4551 0d24 01       		.byte	0x1
 4552 0d25 00000000 		.4byte	.LFB67
 4553 0d29 C0000000 		.4byte	.LFE67
 4554 0d2d C4000000 		.4byte	.LLST5
 4555 0d31 B20D0000 		.4byte	0xdb2
 4556 0d35 22       		.uleb128 0x22
 4557 0d36 2C050000 		.4byte	.LASF197
 4558 0d3a 01       		.byte	0x1
 4559 0d3b 9201     		.2byte	0x192
 4560 0d3d 210B0000 		.4byte	0xb21
 4561 0d41 02       		.byte	0x2
 4562 0d42 91       		.byte	0x91
 4563 0d43 6C       		.sleb128 -20
 4564 0d44 22       		.uleb128 0x22
 4565 0d45 0F030000 		.4byte	.LASF209
 4566 0d49 01       		.byte	0x1
 4567 0d4a 9201     		.2byte	0x192
 4568 0d4c 86000000 		.4byte	0x86
 4569 0d50 02       		.byte	0x2
 4570 0d51 91       		.byte	0x91
 4571 0d52 68       		.sleb128 -24
 4572 0d53 23       		.uleb128 0x23
 4573 0d54 647000   		.ascii	"dp\000"
 4574 0d57 01       		.byte	0x1
 4575 0d58 9301     		.2byte	0x193
 4576 0d5a 320B0000 		.4byte	0xb32
 4577 0d5e 02       		.byte	0x2
 4578 0d5f 91       		.byte	0x91
 4579 0d60 74       		.sleb128 -12
 4580 0d61 25       		.uleb128 0x25
 4581 0d62 80000000 		.4byte	.LBB6
 4582 0d66 88000000 		.4byte	.LBE6
 4583 0d6a 7D0D0000 		.4byte	0xd7d
 4584 0d6e 23       		.uleb128 0x23
 4585 0d6f 746D7000 		.ascii	"tmp\000"
 4586 0d73 01       		.byte	0x1
 4587 0d74 A701     		.2byte	0x1a7
 4588 0d76 86000000 		.4byte	0x86
 4589 0d7a 01       		.byte	0x1
 4590 0d7b 53       		.byte	0x53
 4591 0d7c 00       		.byte	0x0
 4592 0d7d 25       		.uleb128 0x25
 4593 0d7e 94000000 		.4byte	.LBB7
 4594 0d82 B0000000 		.4byte	.LBE7
 4595 0d86 990D0000 		.4byte	0xd99
 4596 0d8a 23       		.uleb128 0x23
 4597 0d8b 747000   		.ascii	"tp\000"
 4598 0d8e 01       		.byte	0x1
 4599 0d8f A701     		.2byte	0x1a7
 4600 0d91 42020000 		.4byte	0x242
 4601 0d95 02       		.byte	0x2
ARM GAS  C:\Users\z80\AppData\Local\Temp\ccHBr3N4.s 			page 83


 4602 0d96 91       		.byte	0x91
 4603 0d97 70       		.sleb128 -16
 4604 0d98 00       		.byte	0x0
 4605 0d99 20       		.uleb128 0x20
 4606 0d9a B4000000 		.4byte	.LBB8
 4607 0d9e BC000000 		.4byte	.LBE8
 4608 0da2 23       		.uleb128 0x23
 4609 0da3 746D7000 		.ascii	"tmp\000"
 4610 0da7 01       		.byte	0x1
 4611 0da8 A701     		.2byte	0x1a7
 4612 0daa 86000000 		.4byte	0x86
 4613 0dae 01       		.byte	0x1
 4614 0daf 53       		.byte	0x53
 4615 0db0 00       		.byte	0x0
 4616 0db1 00       		.byte	0x0
 4617 0db2 21       		.uleb128 0x21
 4618 0db3 DD090000 		.4byte	.LASF210
 4619 0db7 01       		.byte	0x1
 4620 0db8 B401     		.2byte	0x1b4
 4621 0dba 01       		.byte	0x1
 4622 0dbb 00000000 		.4byte	.LFB68
 4623 0dbf 5A000000 		.4byte	.LFE68
 4624 0dc3 F0000000 		.4byte	.LLST6
 4625 0dc7 F80D0000 		.4byte	0xdf8
 4626 0dcb 22       		.uleb128 0x22
 4627 0dcc 2C050000 		.4byte	.LASF197
 4628 0dd0 01       		.byte	0x1
 4629 0dd1 B401     		.2byte	0x1b4
 4630 0dd3 210B0000 		.4byte	0xb21
 4631 0dd7 02       		.byte	0x2
 4632 0dd8 91       		.byte	0x91
 4633 0dd9 6C       		.sleb128 -20
 4634 0dda 22       		.uleb128 0x22
 4635 0ddb 0F030000 		.4byte	.LASF209
 4636 0ddf 01       		.byte	0x1
 4637 0de0 B401     		.2byte	0x1b4
 4638 0de2 86000000 		.4byte	0x86
 4639 0de6 02       		.byte	0x2
 4640 0de7 91       		.byte	0x91
 4641 0de8 68       		.sleb128 -24
 4642 0de9 23       		.uleb128 0x23
 4643 0dea 647000   		.ascii	"dp\000"
 4644 0ded 01       		.byte	0x1
 4645 0dee B501     		.2byte	0x1b5
 4646 0df0 320B0000 		.4byte	0xb32
 4647 0df4 02       		.byte	0x2
 4648 0df5 91       		.byte	0x91
 4649 0df6 74       		.sleb128 -12
 4650 0df7 00       		.byte	0x0
 4651 0df8 21       		.uleb128 0x21
 4652 0df9 9A010000 		.4byte	.LASF211
 4653 0dfd 01       		.byte	0x1
 4654 0dfe CE01     		.2byte	0x1ce
 4655 0e00 01       		.byte	0x1
 4656 0e01 00000000 		.4byte	.LFB69
 4657 0e05 28020000 		.4byte	.LFE69
 4658 0e09 1C010000 		.4byte	.LLST7
ARM GAS  C:\Users\z80\AppData\Local\Temp\ccHBr3N4.s 			page 84


 4659 0e0d C60E0000 		.4byte	0xec6
 4660 0e11 22       		.uleb128 0x22
 4661 0e12 2C050000 		.4byte	.LASF197
 4662 0e16 01       		.byte	0x1
 4663 0e17 CE01     		.2byte	0x1ce
 4664 0e19 210B0000 		.4byte	0xb21
 4665 0e1d 02       		.byte	0x2
 4666 0e1e 91       		.byte	0x91
 4667 0e1f 64       		.sleb128 -28
 4668 0e20 23       		.uleb128 0x23
 4669 0e21 647000   		.ascii	"dp\000"
 4670 0e24 01       		.byte	0x1
 4671 0e25 CF01     		.2byte	0x1cf
 4672 0e27 320B0000 		.4byte	0xb32
 4673 0e2b 02       		.byte	0x2
 4674 0e2c 91       		.byte	0x91
 4675 0e2d 70       		.sleb128 -16
 4676 0e2e 24       		.uleb128 0x24
 4677 0e2f 08030000 		.4byte	.LASF178
 4678 0e33 01       		.byte	0x1
 4679 0e34 D001     		.2byte	0x1d0
 4680 0e36 2D090000 		.4byte	0x92d
 4681 0e3a 02       		.byte	0x2
 4682 0e3b 91       		.byte	0x91
 4683 0e3c 74       		.sleb128 -12
 4684 0e3d 25       		.uleb128 0x25
 4685 0e3e 0C000000 		.4byte	.LBB9
 4686 0e42 14000000 		.4byte	.LBE9
 4687 0e46 590E0000 		.4byte	0xe59
 4688 0e4a 23       		.uleb128 0x23
 4689 0e4b 746D7000 		.ascii	"tmp\000"
 4690 0e4f 01       		.byte	0x1
 4691 0e50 D301     		.2byte	0x1d3
 4692 0e52 86000000 		.4byte	0x86
 4693 0e56 01       		.byte	0x1
 4694 0e57 53       		.byte	0x53
 4695 0e58 00       		.byte	0x0
 4696 0e59 25       		.uleb128 0x25
 4697 0e5a 70000000 		.4byte	.LBB10
 4698 0e5e 78000000 		.4byte	.LBE10
 4699 0e62 750E0000 		.4byte	0xe75
 4700 0e66 23       		.uleb128 0x23
 4701 0e67 746D7000 		.ascii	"tmp\000"
 4702 0e6b 01       		.byte	0x1
 4703 0e6c D601     		.2byte	0x1d6
 4704 0e6e 86000000 		.4byte	0x86
 4705 0e72 01       		.byte	0x1
 4706 0e73 53       		.byte	0x53
 4707 0e74 00       		.byte	0x0
 4708 0e75 25       		.uleb128 0x25
 4709 0e76 E8010000 		.4byte	.LBB11
 4710 0e7a F0010000 		.4byte	.LBE11
 4711 0e7e 910E0000 		.4byte	0xe91
 4712 0e82 23       		.uleb128 0x23
 4713 0e83 746D7000 		.ascii	"tmp\000"
 4714 0e87 01       		.byte	0x1
 4715 0e88 0D02     		.2byte	0x20d
ARM GAS  C:\Users\z80\AppData\Local\Temp\ccHBr3N4.s 			page 85


 4716 0e8a 86000000 		.4byte	0x86
 4717 0e8e 01       		.byte	0x1
 4718 0e8f 53       		.byte	0x53
 4719 0e90 00       		.byte	0x0
 4720 0e91 25       		.uleb128 0x25
 4721 0e92 FC010000 		.4byte	.LBB12
 4722 0e96 18020000 		.4byte	.LBE12
 4723 0e9a AD0E0000 		.4byte	0xead
 4724 0e9e 23       		.uleb128 0x23
 4725 0e9f 747000   		.ascii	"tp\000"
 4726 0ea2 01       		.byte	0x1
 4727 0ea3 0D02     		.2byte	0x20d
 4728 0ea5 42020000 		.4byte	0x242
 4729 0ea9 02       		.byte	0x2
 4730 0eaa 91       		.byte	0x91
 4731 0eab 6C       		.sleb128 -20
 4732 0eac 00       		.byte	0x0
 4733 0ead 20       		.uleb128 0x20
 4734 0eae 1C020000 		.4byte	.LBB13
 4735 0eb2 24020000 		.4byte	.LBE13
 4736 0eb6 23       		.uleb128 0x23
 4737 0eb7 746D7000 		.ascii	"tmp\000"
 4738 0ebb 01       		.byte	0x1
 4739 0ebc 0D02     		.2byte	0x20d
 4740 0ebe 86000000 		.4byte	0x86
 4741 0ec2 01       		.byte	0x1
 4742 0ec3 53       		.byte	0x53
 4743 0ec4 00       		.byte	0x0
 4744 0ec5 00       		.byte	0x0
 4745 0ec6 26       		.uleb128 0x26
 4746 0ec7 01       		.byte	0x1
 4747 0ec8 C2080000 		.4byte	.LASF212
 4748 0ecc 01       		.byte	0x1
 4749 0ecd 1B02     		.2byte	0x21b
 4750 0ecf 01       		.byte	0x1
 4751 0ed0 00000000 		.4byte	.LFB70
 4752 0ed4 1C000000 		.4byte	.LFE70
 4753 0ed8 48010000 		.4byte	.LLST8
 4754 0edc 26       		.uleb128 0x26
 4755 0edd 01       		.byte	0x1
 4756 0ede 05090000 		.4byte	.LASF213
 4757 0ee2 01       		.byte	0x1
 4758 0ee3 2702     		.2byte	0x227
 4759 0ee5 01       		.byte	0x1
 4760 0ee6 00000000 		.4byte	.LFB71
 4761 0eea 1C000000 		.4byte	.LFE71
 4762 0eee 68010000 		.4byte	.LLST9
 4763 0ef2 26       		.uleb128 0x26
 4764 0ef3 01       		.byte	0x1
 4765 0ef4 41070000 		.4byte	.LASF214
 4766 0ef8 01       		.byte	0x1
 4767 0ef9 7602     		.2byte	0x276
 4768 0efb 01       		.byte	0x1
 4769 0efc 00000000 		.4byte	.LFB72
 4770 0f00 50000000 		.4byte	.LFE72
 4771 0f04 88010000 		.4byte	.LLST10
 4772 0f08 27       		.uleb128 0x27
ARM GAS  C:\Users\z80\AppData\Local\Temp\ccHBr3N4.s 			page 86


 4773 0f09 01       		.byte	0x1
 4774 0f0a FB090000 		.4byte	.LASF215
 4775 0f0e 01       		.byte	0x1
 4776 0f0f 9802     		.2byte	0x298
 4777 0f11 01       		.byte	0x1
 4778 0f12 00000000 		.4byte	.LFB73
 4779 0f16 5C010000 		.4byte	.LFE73
 4780 0f1a A8010000 		.4byte	.LLST11
 4781 0f1e 570F0000 		.4byte	0xf57
 4782 0f22 22       		.uleb128 0x22
 4783 0f23 2C050000 		.4byte	.LASF197
 4784 0f27 01       		.byte	0x1
 4785 0f28 9802     		.2byte	0x298
 4786 0f2a 210B0000 		.4byte	0xb21
 4787 0f2e 02       		.byte	0x2
 4788 0f2f 91       		.byte	0x91
 4789 0f30 6C       		.sleb128 -20
 4790 0f31 23       		.uleb128 0x23
 4791 0f32 647000   		.ascii	"dp\000"
 4792 0f35 01       		.byte	0x1
 4793 0f36 9902     		.2byte	0x299
 4794 0f38 320B0000 		.4byte	0xb32
 4795 0f3c 02       		.byte	0x2
 4796 0f3d 91       		.byte	0x91
 4797 0f3e 74       		.sleb128 -12
 4798 0f3f 20       		.uleb128 0x20
 4799 0f40 2A000000 		.4byte	.LBB14
 4800 0f44 EC000000 		.4byte	.LBE14
 4801 0f48 23       		.uleb128 0x23
 4802 0f49 6200     		.ascii	"b\000"
 4803 0f4b 01       		.byte	0x1
 4804 0f4c A402     		.2byte	0x2a4
 4805 0f4e B1000000 		.4byte	0xb1
 4806 0f52 02       		.byte	0x2
 4807 0f53 91       		.byte	0x91
 4808 0f54 70       		.sleb128 -16
 4809 0f55 00       		.byte	0x0
 4810 0f56 00       		.byte	0x0
 4811 0f57 27       		.uleb128 0x27
 4812 0f58 01       		.byte	0x1
 4813 0f59 50010000 		.4byte	.LASF216
 4814 0f5d 01       		.byte	0x1
 4815 0f5e 0D03     		.2byte	0x30d
 4816 0f60 01       		.byte	0x1
 4817 0f61 00000000 		.4byte	.LFB74
 4818 0f65 62000000 		.4byte	.LFE74
 4819 0f69 D4010000 		.4byte	.LLST12
 4820 0f6d 810F0000 		.4byte	0xf81
 4821 0f71 22       		.uleb128 0x22
 4822 0f72 2C050000 		.4byte	.LASF197
 4823 0f76 01       		.byte	0x1
 4824 0f77 0D03     		.2byte	0x30d
 4825 0f79 210B0000 		.4byte	0xb21
 4826 0f7d 02       		.byte	0x2
 4827 0f7e 91       		.byte	0x91
 4828 0f7f 74       		.sleb128 -12
 4829 0f80 00       		.byte	0x0
ARM GAS  C:\Users\z80\AppData\Local\Temp\ccHBr3N4.s 			page 87


 4830 0f81 28       		.uleb128 0x28
 4831 0f82 01       		.byte	0x1
 4832 0f83 84060000 		.4byte	.LASF218
 4833 0f87 01       		.byte	0x1
 4834 0f88 4803     		.2byte	0x348
 4835 0f8a 01       		.byte	0x1
 4836 0f8b DD000000 		.4byte	0xdd
 4837 0f8f 00000000 		.4byte	.LFB75
 4838 0f93 54010000 		.4byte	.LFE75
 4839 0f97 00020000 		.4byte	.LLST13
 4840 0f9b 73100000 		.4byte	0x1073
 4841 0f9f 22       		.uleb128 0x22
 4842 0fa0 2C050000 		.4byte	.LASF197
 4843 0fa4 01       		.byte	0x1
 4844 0fa5 4803     		.2byte	0x348
 4845 0fa7 210B0000 		.4byte	0xb21
 4846 0fab 02       		.byte	0x2
 4847 0fac 91       		.byte	0x91
 4848 0fad 5C       		.sleb128 -36
 4849 0fae 22       		.uleb128 0x22
 4850 0faf E1050000 		.4byte	.LASF181
 4851 0fb3 01       		.byte	0x1
 4852 0fb4 4803     		.2byte	0x348
 4853 0fb6 21090000 		.4byte	0x921
 4854 0fba 02       		.byte	0x2
 4855 0fbb 91       		.byte	0x91
 4856 0fbc 5A       		.sleb128 -38
 4857 0fbd 22       		.uleb128 0x22
 4858 0fbe 31050000 		.4byte	.LASF186
 4859 0fc2 01       		.byte	0x1
 4860 0fc3 4903     		.2byte	0x349
 4861 0fc5 DC040000 		.4byte	0x4dc
 4862 0fc9 02       		.byte	0x2
 4863 0fca 91       		.byte	0x91
 4864 0fcb 54       		.sleb128 -44
 4865 0fcc 22       		.uleb128 0x22
 4866 0fcd 26060000 		.4byte	.LASF187
 4867 0fd1 01       		.byte	0x1
 4868 0fd2 4903     		.2byte	0x349
 4869 0fd4 30000000 		.4byte	0x30
 4870 0fd8 02       		.byte	0x2
 4871 0fd9 91       		.byte	0x91
 4872 0fda 50       		.sleb128 -48
 4873 0fdb 22       		.uleb128 0x22
 4874 0fdc C1050000 		.4byte	.LASF217
 4875 0fe0 01       		.byte	0x1
 4876 0fe1 4A03     		.2byte	0x34a
 4877 0fe3 F3000000 		.4byte	0xf3
 4878 0fe7 02       		.byte	0x2
 4879 0fe8 91       		.byte	0x91
 4880 0fe9 00       		.sleb128 0
 4881 0fea 23       		.uleb128 0x23
 4882 0feb 647000   		.ascii	"dp\000"
 4883 0fee 01       		.byte	0x1
 4884 0fef 4B03     		.2byte	0x34b
 4885 0ff1 320B0000 		.4byte	0xb32
 4886 0ff5 02       		.byte	0x2
ARM GAS  C:\Users\z80\AppData\Local\Temp\ccHBr3N4.s 			page 88


 4887 0ff6 91       		.byte	0x91
 4888 0ff7 74       		.sleb128 -12
 4889 0ff8 23       		.uleb128 0x23
 4890 0ff9 767400   		.ascii	"vt\000"
 4891 0ffc 01       		.byte	0x1
 4892 0ffd 4C03     		.2byte	0x34c
 4893 0fff 62030000 		.4byte	0x362
 4894 1003 02       		.byte	0x2
 4895 1004 91       		.byte	0x91
 4896 1005 60       		.sleb128 -32
 4897 1006 25       		.uleb128 0x25
 4898 1007 48000000 		.4byte	.LBB15
 4899 100b 50000000 		.4byte	.LBE15
 4900 100f 22100000 		.4byte	0x1022
 4901 1013 23       		.uleb128 0x23
 4902 1014 746D7000 		.ascii	"tmp\000"
 4903 1018 01       		.byte	0x1
 4904 1019 5703     		.2byte	0x357
 4905 101b 86000000 		.4byte	0x86
 4906 101f 01       		.byte	0x1
 4907 1020 53       		.byte	0x53
 4908 1021 00       		.byte	0x0
 4909 1022 25       		.uleb128 0x25
 4910 1023 84000000 		.4byte	.LBB16
 4911 1027 8C000000 		.4byte	.LBE16
 4912 102b 3E100000 		.4byte	0x103e
 4913 102f 23       		.uleb128 0x23
 4914 1030 746D7000 		.ascii	"tmp\000"
 4915 1034 01       		.byte	0x1
 4916 1035 6403     		.2byte	0x364
 4917 1037 86000000 		.4byte	0x86
 4918 103b 01       		.byte	0x1
 4919 103c 53       		.byte	0x53
 4920 103d 00       		.byte	0x0
 4921 103e 25       		.uleb128 0x25
 4922 103f A8000000 		.4byte	.LBB17
 4923 1043 B0000000 		.4byte	.LBE17
 4924 1047 5A100000 		.4byte	0x105a
 4925 104b 23       		.uleb128 0x23
 4926 104c 746D7000 		.ascii	"tmp\000"
 4927 1050 01       		.byte	0x1
 4928 1051 6703     		.2byte	0x367
 4929 1053 86000000 		.4byte	0x86
 4930 1057 01       		.byte	0x1
 4931 1058 53       		.byte	0x53
 4932 1059 00       		.byte	0x0
 4933 105a 20       		.uleb128 0x20
 4934 105b CC000000 		.4byte	.LBB18
 4935 105f D4000000 		.4byte	.LBE18
 4936 1063 23       		.uleb128 0x23
 4937 1064 746D7000 		.ascii	"tmp\000"
 4938 1068 01       		.byte	0x1
 4939 1069 6B03     		.2byte	0x36b
 4940 106b 86000000 		.4byte	0x86
 4941 106f 01       		.byte	0x1
 4942 1070 53       		.byte	0x53
 4943 1071 00       		.byte	0x0
ARM GAS  C:\Users\z80\AppData\Local\Temp\ccHBr3N4.s 			page 89


 4944 1072 00       		.byte	0x0
 4945 1073 28       		.uleb128 0x28
 4946 1074 01       		.byte	0x1
 4947 1075 E5080000 		.4byte	.LASF219
 4948 1079 01       		.byte	0x1
 4949 107a 9B03     		.2byte	0x39b
 4950 107c 01       		.byte	0x1
 4951 107d DD000000 		.4byte	0xdd
 4952 1081 00000000 		.4byte	.LFB76
 4953 1085 6C010000 		.4byte	.LFE76
 4954 1089 2C020000 		.4byte	.LLST14
 4955 108d 83110000 		.4byte	0x1183
 4956 1091 22       		.uleb128 0x22
 4957 1092 2C050000 		.4byte	.LASF197
 4958 1096 01       		.byte	0x1
 4959 1097 9B03     		.2byte	0x39b
 4960 1099 210B0000 		.4byte	0xb21
 4961 109d 02       		.byte	0x2
 4962 109e 91       		.byte	0x91
 4963 109f 5C       		.sleb128 -36
 4964 10a0 22       		.uleb128 0x22
 4965 10a1 E1050000 		.4byte	.LASF181
 4966 10a5 01       		.byte	0x1
 4967 10a6 9B03     		.2byte	0x39b
 4968 10a8 21090000 		.4byte	0x921
 4969 10ac 02       		.byte	0x2
 4970 10ad 91       		.byte	0x91
 4971 10ae 5A       		.sleb128 -38
 4972 10af 22       		.uleb128 0x22
 4973 10b0 83010000 		.4byte	.LASF190
 4974 10b4 01       		.byte	0x1
 4975 10b5 9C03     		.2byte	0x39c
 4976 10b7 E2040000 		.4byte	0x4e2
 4977 10bb 02       		.byte	0x2
 4978 10bc 91       		.byte	0x91
 4979 10bd 54       		.sleb128 -44
 4980 10be 22       		.uleb128 0x22
 4981 10bf FF060000 		.4byte	.LASF191
 4982 10c3 01       		.byte	0x1
 4983 10c4 9C03     		.2byte	0x39c
 4984 10c6 30000000 		.4byte	0x30
 4985 10ca 02       		.byte	0x2
 4986 10cb 91       		.byte	0x91
 4987 10cc 50       		.sleb128 -48
 4988 10cd 22       		.uleb128 0x22
 4989 10ce 31050000 		.4byte	.LASF186
 4990 10d2 01       		.byte	0x1
 4991 10d3 9D03     		.2byte	0x39d
 4992 10d5 DC040000 		.4byte	0x4dc
 4993 10d9 02       		.byte	0x2
 4994 10da 91       		.byte	0x91
 4995 10db 00       		.sleb128 0
 4996 10dc 22       		.uleb128 0x22
 4997 10dd 26060000 		.4byte	.LASF187
 4998 10e1 01       		.byte	0x1
 4999 10e2 9D03     		.2byte	0x39d
 5000 10e4 30000000 		.4byte	0x30
ARM GAS  C:\Users\z80\AppData\Local\Temp\ccHBr3N4.s 			page 90


 5001 10e8 02       		.byte	0x2
 5002 10e9 91       		.byte	0x91
 5003 10ea 04       		.sleb128 4
 5004 10eb 22       		.uleb128 0x22
 5005 10ec C1050000 		.4byte	.LASF217
 5006 10f0 01       		.byte	0x1
 5007 10f1 9E03     		.2byte	0x39e
 5008 10f3 F3000000 		.4byte	0xf3
 5009 10f7 02       		.byte	0x2
 5010 10f8 91       		.byte	0x91
 5011 10f9 08       		.sleb128 8
 5012 10fa 23       		.uleb128 0x23
 5013 10fb 647000   		.ascii	"dp\000"
 5014 10fe 01       		.byte	0x1
 5015 10ff 9F03     		.2byte	0x39f
 5016 1101 320B0000 		.4byte	0xb32
 5017 1105 02       		.byte	0x2
 5018 1106 91       		.byte	0x91
 5019 1107 74       		.sleb128 -12
 5020 1108 23       		.uleb128 0x23
 5021 1109 767400   		.ascii	"vt\000"
 5022 110c 01       		.byte	0x1
 5023 110d A003     		.2byte	0x3a0
 5024 110f 62030000 		.4byte	0x362
 5025 1113 02       		.byte	0x2
 5026 1114 91       		.byte	0x91
 5027 1115 60       		.sleb128 -32
 5028 1116 25       		.uleb128 0x25
 5029 1117 54000000 		.4byte	.LBB19
 5030 111b 5C000000 		.4byte	.LBE19
 5031 111f 32110000 		.4byte	0x1132
 5032 1123 23       		.uleb128 0x23
 5033 1124 746D7000 		.ascii	"tmp\000"
 5034 1128 01       		.byte	0x1
 5035 1129 AC03     		.2byte	0x3ac
 5036 112b 86000000 		.4byte	0x86
 5037 112f 01       		.byte	0x1
 5038 1130 53       		.byte	0x53
 5039 1131 00       		.byte	0x0
 5040 1132 25       		.uleb128 0x25
 5041 1133 9C000000 		.4byte	.LBB20
 5042 1137 A4000000 		.4byte	.LBE20
 5043 113b 4E110000 		.4byte	0x114e
 5044 113f 23       		.uleb128 0x23
 5045 1140 746D7000 		.ascii	"tmp\000"
 5046 1144 01       		.byte	0x1
 5047 1145 BD03     		.2byte	0x3bd
 5048 1147 86000000 		.4byte	0x86
 5049 114b 01       		.byte	0x1
 5050 114c 53       		.byte	0x53
 5051 114d 00       		.byte	0x0
 5052 114e 25       		.uleb128 0x25
 5053 114f C0000000 		.4byte	.LBB21
 5054 1153 C8000000 		.4byte	.LBE21
 5055 1157 6A110000 		.4byte	0x116a
 5056 115b 23       		.uleb128 0x23
 5057 115c 746D7000 		.ascii	"tmp\000"
ARM GAS  C:\Users\z80\AppData\Local\Temp\ccHBr3N4.s 			page 91


 5058 1160 01       		.byte	0x1
 5059 1161 C003     		.2byte	0x3c0
 5060 1163 86000000 		.4byte	0x86
 5061 1167 01       		.byte	0x1
 5062 1168 53       		.byte	0x53
 5063 1169 00       		.byte	0x0
 5064 116a 20       		.uleb128 0x20
 5065 116b E4000000 		.4byte	.LBB22
 5066 116f EC000000 		.4byte	.LBE22
 5067 1173 23       		.uleb128 0x23
 5068 1174 746D7000 		.ascii	"tmp\000"
 5069 1178 01       		.byte	0x1
 5070 1179 C403     		.2byte	0x3c4
 5071 117b 86000000 		.4byte	0x86
 5072 117f 01       		.byte	0x1
 5073 1180 53       		.byte	0x53
 5074 1181 00       		.byte	0x0
 5075 1182 00       		.byte	0x0
 5076 1183 28       		.uleb128 0x28
 5077 1184 01       		.byte	0x1
 5078 1185 2E000000 		.4byte	.LASF220
 5079 1189 01       		.byte	0x1
 5080 118a DD03     		.2byte	0x3dd
 5081 118c 01       		.byte	0x1
 5082 118d DD000000 		.4byte	0xdd
 5083 1191 00000000 		.4byte	.LFB77
 5084 1195 8C010000 		.4byte	.LFE77
 5085 1199 58020000 		.4byte	.LLST15
 5086 119d B1120000 		.4byte	0x12b1
 5087 11a1 22       		.uleb128 0x22
 5088 11a2 2C050000 		.4byte	.LASF197
 5089 11a6 01       		.byte	0x1
 5090 11a7 DD03     		.2byte	0x3dd
 5091 11a9 210B0000 		.4byte	0xb21
 5092 11ad 02       		.byte	0x2
 5093 11ae 91       		.byte	0x91
 5094 11af 5C       		.sleb128 -36
 5095 11b0 22       		.uleb128 0x22
 5096 11b1 E1050000 		.4byte	.LASF181
 5097 11b5 01       		.byte	0x1
 5098 11b6 DD03     		.2byte	0x3dd
 5099 11b8 21090000 		.4byte	0x921
 5100 11bc 02       		.byte	0x2
 5101 11bd 91       		.byte	0x91
 5102 11be 5A       		.sleb128 -38
 5103 11bf 22       		.uleb128 0x22
 5104 11c0 31050000 		.4byte	.LASF186
 5105 11c4 01       		.byte	0x1
 5106 11c5 DE03     		.2byte	0x3de
 5107 11c7 DC040000 		.4byte	0x4dc
 5108 11cb 02       		.byte	0x2
 5109 11cc 91       		.byte	0x91
 5110 11cd 54       		.sleb128 -44
 5111 11ce 22       		.uleb128 0x22
 5112 11cf 26060000 		.4byte	.LASF187
 5113 11d3 01       		.byte	0x1
 5114 11d4 DE03     		.2byte	0x3de
ARM GAS  C:\Users\z80\AppData\Local\Temp\ccHBr3N4.s 			page 92


 5115 11d6 30000000 		.4byte	0x30
 5116 11da 02       		.byte	0x2
 5117 11db 91       		.byte	0x91
 5118 11dc 50       		.sleb128 -48
 5119 11dd 22       		.uleb128 0x22
 5120 11de 83010000 		.4byte	.LASF190
 5121 11e2 01       		.byte	0x1
 5122 11e3 DF03     		.2byte	0x3df
 5123 11e5 DC040000 		.4byte	0x4dc
 5124 11e9 02       		.byte	0x2
 5125 11ea 91       		.byte	0x91
 5126 11eb 00       		.sleb128 0
 5127 11ec 22       		.uleb128 0x22
 5128 11ed FF060000 		.4byte	.LASF191
 5129 11f1 01       		.byte	0x1
 5130 11f2 DF03     		.2byte	0x3df
 5131 11f4 30000000 		.4byte	0x30
 5132 11f8 02       		.byte	0x2
 5133 11f9 91       		.byte	0x91
 5134 11fa 04       		.sleb128 4
 5135 11fb 22       		.uleb128 0x22
 5136 11fc D5040000 		.4byte	.LASF189
 5137 1200 01       		.byte	0x1
 5138 1201 E003     		.2byte	0x3e0
 5139 1203 030B0000 		.4byte	0xb03
 5140 1207 02       		.byte	0x2
 5141 1208 91       		.byte	0x91
 5142 1209 08       		.sleb128 8
 5143 120a 22       		.uleb128 0x22
 5144 120b 0C050000 		.4byte	.LASF193
 5145 120f 01       		.byte	0x1
 5146 1210 E103     		.2byte	0x3e1
 5147 1212 030B0000 		.4byte	0xb03
 5148 1216 02       		.byte	0x2
 5149 1217 91       		.byte	0x91
 5150 1218 0C       		.sleb128 12
 5151 1219 22       		.uleb128 0x22
 5152 121a C1050000 		.4byte	.LASF217
 5153 121e 01       		.byte	0x1
 5154 121f E203     		.2byte	0x3e2
 5155 1221 F3000000 		.4byte	0xf3
 5156 1225 02       		.byte	0x2
 5157 1226 91       		.byte	0x91
 5158 1227 10       		.sleb128 16
 5159 1228 23       		.uleb128 0x23
 5160 1229 647000   		.ascii	"dp\000"
 5161 122c 01       		.byte	0x1
 5162 122d E403     		.2byte	0x3e4
 5163 122f 320B0000 		.4byte	0xb32
 5164 1233 02       		.byte	0x2
 5165 1234 91       		.byte	0x91
 5166 1235 74       		.sleb128 -12
 5167 1236 23       		.uleb128 0x23
 5168 1237 767400   		.ascii	"vt\000"
 5169 123a 01       		.byte	0x1
 5170 123b E503     		.2byte	0x3e5
 5171 123d 62030000 		.4byte	0x362
ARM GAS  C:\Users\z80\AppData\Local\Temp\ccHBr3N4.s 			page 93


 5172 1241 02       		.byte	0x2
 5173 1242 91       		.byte	0x91
 5174 1243 60       		.sleb128 -32
 5175 1244 25       		.uleb128 0x25
 5176 1245 44000000 		.4byte	.LBB23
 5177 1249 4C000000 		.4byte	.LBE23
 5178 124d 60120000 		.4byte	0x1260
 5179 1251 23       		.uleb128 0x23
 5180 1252 746D7000 		.ascii	"tmp\000"
 5181 1256 01       		.byte	0x1
 5182 1257 EE03     		.2byte	0x3ee
 5183 1259 86000000 		.4byte	0x86
 5184 125d 01       		.byte	0x1
 5185 125e 53       		.byte	0x53
 5186 125f 00       		.byte	0x0
 5187 1260 25       		.uleb128 0x25
 5188 1261 4E000000 		.4byte	.LBB24
 5189 1265 56000000 		.4byte	.LBE24
 5190 1269 7C120000 		.4byte	0x127c
 5191 126d 23       		.uleb128 0x23
 5192 126e 746D7000 		.ascii	"tmp\000"
 5193 1272 01       		.byte	0x1
 5194 1273 F103     		.2byte	0x3f1
 5195 1275 86000000 		.4byte	0x86
 5196 1279 01       		.byte	0x1
 5197 127a 53       		.byte	0x53
 5198 127b 00       		.byte	0x0
 5199 127c 25       		.uleb128 0x25
 5200 127d 72000000 		.4byte	.LBB25
 5201 1281 7A000000 		.4byte	.LBE25
 5202 1285 98120000 		.4byte	0x1298
 5203 1289 23       		.uleb128 0x23
 5204 128a 746D7000 		.ascii	"tmp\000"
 5205 128e 01       		.byte	0x1
 5206 128f F403     		.2byte	0x3f4
 5207 1291 86000000 		.4byte	0x86
 5208 1295 01       		.byte	0x1
 5209 1296 53       		.byte	0x53
 5210 1297 00       		.byte	0x0
 5211 1298 20       		.uleb128 0x20
 5212 1299 96000000 		.4byte	.LBB26
 5213 129d 9E000000 		.4byte	.LBE26
 5214 12a1 23       		.uleb128 0x23
 5215 12a2 746D7000 		.ascii	"tmp\000"
 5216 12a6 01       		.byte	0x1
 5217 12a7 F803     		.2byte	0x3f8
 5218 12a9 86000000 		.4byte	0x86
 5219 12ad 01       		.byte	0x1
 5220 12ae 53       		.byte	0x53
 5221 12af 00       		.byte	0x0
 5222 12b0 00       		.byte	0x0
 5223 12b1 29       		.uleb128 0x29
 5224 12b2 EA070000 		.4byte	.LASF221
 5225 12b6 09       		.byte	0x9
 5226 12b7 72       		.byte	0x72
 5227 12b8 36040000 		.4byte	0x436
 5228 12bc 01       		.byte	0x1
ARM GAS  C:\Users\z80\AppData\Local\Temp\ccHBr3N4.s 			page 94


 5229 12bd 01       		.byte	0x1
 5230 12be 2A       		.uleb128 0x2a
 5231 12bf B4050000 		.4byte	.LASF222
 5232 12c3 0F       		.byte	0xf
 5233 12c4 9404     		.2byte	0x494
 5234 12c6 31060000 		.4byte	0x631
 5235 12ca 01       		.byte	0x1
 5236 12cb 01       		.byte	0x1
 5237 12cc 2B       		.uleb128 0x2b
 5238 12cd B1080000 		.4byte	0x8b1
 5239 12d1 DC120000 		.4byte	0x12dc
 5240 12d5 2C       		.uleb128 0x2c
 5241 12d6 42030000 		.4byte	0x342
 5242 12da 06       		.byte	0x6
 5243 12db 00       		.byte	0x0
 5244 12dc 2A       		.uleb128 0x2a
 5245 12dd A9040000 		.4byte	.LASF223
 5246 12e1 0C       		.byte	0xc
 5247 12e2 8201     		.2byte	0x182
 5248 12e4 EA120000 		.4byte	0x12ea
 5249 12e8 01       		.byte	0x1
 5250 12e9 01       		.byte	0x1
 5251 12ea 13       		.uleb128 0x13
 5252 12eb CC120000 		.4byte	0x12cc
 5253 12ef 2A       		.uleb128 0x2a
 5254 12f0 ED020000 		.4byte	.LASF224
 5255 12f4 0E       		.byte	0xe
 5256 12f5 C501     		.2byte	0x1c5
 5257 12f7 CC090000 		.4byte	0x9cc
 5258 12fb 01       		.byte	0x1
 5259 12fc 01       		.byte	0x1
 5260 12fd 1F       		.uleb128 0x1f
 5261 12fe F4050000 		.4byte	.LASF225
 5262 1302 01       		.byte	0x1
 5263 1303 73       		.byte	0x73
 5264 1304 2C060000 		.4byte	0x62c
 5265 1308 05       		.byte	0x5
 5266 1309 03       		.byte	0x3
 5267 130a 00000000 		.4byte	dbgSR1
 5268 130e 1F       		.uleb128 0x1f
 5269 130f FB050000 		.4byte	.LASF226
 5270 1313 01       		.byte	0x1
 5271 1314 74       		.byte	0x74
 5272 1315 2C060000 		.4byte	0x62c
 5273 1319 05       		.byte	0x5
 5274 131a 03       		.byte	0x3
 5275 131b 00000000 		.4byte	dbgSR2
 5276 131f 1F       		.uleb128 0x1f
 5277 1320 6E030000 		.4byte	.LASF227
 5278 1324 01       		.byte	0x1
 5279 1325 75       		.byte	0x75
 5280 1326 2C060000 		.4byte	0x62c
 5281 132a 05       		.byte	0x5
 5282 132b 03       		.byte	0x3
 5283 132c 00000000 		.4byte	dbgCR1
 5284 1330 1F       		.uleb128 0x1f
 5285 1331 75030000 		.4byte	.LASF228
ARM GAS  C:\Users\z80\AppData\Local\Temp\ccHBr3N4.s 			page 95


 5286 1335 01       		.byte	0x1
 5287 1336 76       		.byte	0x76
 5288 1337 2C060000 		.4byte	0x62c
 5289 133b 05       		.byte	0x5
 5290 133c 03       		.byte	0x3
 5291 133d 00000000 		.4byte	dbgCR2
 5292 1341 29       		.uleb128 0x29
 5293 1342 EA070000 		.4byte	.LASF221
 5294 1346 09       		.byte	0x9
 5295 1347 72       		.byte	0x72
 5296 1348 36040000 		.4byte	0x436
 5297 134c 01       		.byte	0x1
 5298 134d 01       		.byte	0x1
 5299 134e 2A       		.uleb128 0x2a
 5300 134f B4050000 		.4byte	.LASF222
 5301 1353 0F       		.byte	0xf
 5302 1354 9404     		.2byte	0x494
 5303 1356 31060000 		.4byte	0x631
 5304 135a 01       		.byte	0x1
 5305 135b 01       		.byte	0x1
 5306 135c 2A       		.uleb128 0x2a
 5307 135d A9040000 		.4byte	.LASF223
 5308 1361 0C       		.byte	0xc
 5309 1362 8201     		.2byte	0x182
 5310 1364 6A130000 		.4byte	0x136a
 5311 1368 01       		.byte	0x1
 5312 1369 01       		.byte	0x1
 5313 136a 13       		.uleb128 0x13
 5314 136b CC120000 		.4byte	0x12cc
 5315 136f 2D       		.uleb128 0x2d
 5316 1370 ED020000 		.4byte	.LASF224
 5317 1374 01       		.byte	0x1
 5318 1375 5F       		.byte	0x5f
 5319 1376 CC090000 		.4byte	0x9cc
 5320 137a 01       		.byte	0x1
 5321 137b 05       		.byte	0x5
 5322 137c 03       		.byte	0x3
 5323 137d 00000000 		.4byte	I2CD1
 5324 1381 00       		.byte	0x0
 5325              		.section	.debug_abbrev
 5326 0000 01       		.uleb128 0x1
 5327 0001 11       		.uleb128 0x11
 5328 0002 01       		.byte	0x1
 5329 0003 25       		.uleb128 0x25
 5330 0004 0E       		.uleb128 0xe
 5331 0005 13       		.uleb128 0x13
 5332 0006 0B       		.uleb128 0xb
 5333 0007 03       		.uleb128 0x3
 5334 0008 0E       		.uleb128 0xe
 5335 0009 1B       		.uleb128 0x1b
 5336 000a 0E       		.uleb128 0xe
 5337 000b 11       		.uleb128 0x11
 5338 000c 01       		.uleb128 0x1
 5339 000d 52       		.uleb128 0x52
 5340 000e 01       		.uleb128 0x1
 5341 000f 55       		.uleb128 0x55
 5342 0010 06       		.uleb128 0x6
ARM GAS  C:\Users\z80\AppData\Local\Temp\ccHBr3N4.s 			page 96


 5343 0011 10       		.uleb128 0x10
 5344 0012 06       		.uleb128 0x6
 5345 0013 00       		.byte	0x0
 5346 0014 00       		.byte	0x0
 5347 0015 02       		.uleb128 0x2
 5348 0016 24       		.uleb128 0x24
 5349 0017 00       		.byte	0x0
 5350 0018 0B       		.uleb128 0xb
 5351 0019 0B       		.uleb128 0xb
 5352 001a 3E       		.uleb128 0x3e
 5353 001b 0B       		.uleb128 0xb
 5354 001c 03       		.uleb128 0x3
 5355 001d 08       		.uleb128 0x8
 5356 001e 00       		.byte	0x0
 5357 001f 00       		.byte	0x0
 5358 0020 03       		.uleb128 0x3
 5359 0021 16       		.uleb128 0x16
 5360 0022 00       		.byte	0x0
 5361 0023 03       		.uleb128 0x3
 5362 0024 0E       		.uleb128 0xe
 5363 0025 3A       		.uleb128 0x3a
 5364 0026 0B       		.uleb128 0xb
 5365 0027 3B       		.uleb128 0x3b
 5366 0028 0B       		.uleb128 0xb
 5367 0029 49       		.uleb128 0x49
 5368 002a 13       		.uleb128 0x13
 5369 002b 00       		.byte	0x0
 5370 002c 00       		.byte	0x0
 5371 002d 04       		.uleb128 0x4
 5372 002e 24       		.uleb128 0x24
 5373 002f 00       		.byte	0x0
 5374 0030 0B       		.uleb128 0xb
 5375 0031 0B       		.uleb128 0xb
 5376 0032 3E       		.uleb128 0x3e
 5377 0033 0B       		.uleb128 0xb
 5378 0034 03       		.uleb128 0x3
 5379 0035 0E       		.uleb128 0xe
 5380 0036 00       		.byte	0x0
 5381 0037 00       		.byte	0x0
 5382 0038 05       		.uleb128 0x5
 5383 0039 13       		.uleb128 0x13
 5384 003a 01       		.byte	0x1
 5385 003b 03       		.uleb128 0x3
 5386 003c 0E       		.uleb128 0xe
 5387 003d 0B       		.uleb128 0xb
 5388 003e 0B       		.uleb128 0xb
 5389 003f 3A       		.uleb128 0x3a
 5390 0040 0B       		.uleb128 0xb
 5391 0041 3B       		.uleb128 0x3b
 5392 0042 0B       		.uleb128 0xb
 5393 0043 01       		.uleb128 0x1
 5394 0044 13       		.uleb128 0x13
 5395 0045 00       		.byte	0x0
 5396 0046 00       		.byte	0x0
 5397 0047 06       		.uleb128 0x6
 5398 0048 0D       		.uleb128 0xd
 5399 0049 00       		.byte	0x0
ARM GAS  C:\Users\z80\AppData\Local\Temp\ccHBr3N4.s 			page 97


 5400 004a 03       		.uleb128 0x3
 5401 004b 0E       		.uleb128 0xe
 5402 004c 3A       		.uleb128 0x3a
 5403 004d 0B       		.uleb128 0xb
 5404 004e 3B       		.uleb128 0x3b
 5405 004f 0B       		.uleb128 0xb
 5406 0050 49       		.uleb128 0x49
 5407 0051 13       		.uleb128 0x13
 5408 0052 38       		.uleb128 0x38
 5409 0053 0A       		.uleb128 0xa
 5410 0054 00       		.byte	0x0
 5411 0055 00       		.byte	0x0
 5412 0056 07       		.uleb128 0x7
 5413 0057 0D       		.uleb128 0xd
 5414 0058 00       		.byte	0x0
 5415 0059 03       		.uleb128 0x3
 5416 005a 08       		.uleb128 0x8
 5417 005b 3A       		.uleb128 0x3a
 5418 005c 0B       		.uleb128 0xb
 5419 005d 3B       		.uleb128 0x3b
 5420 005e 0B       		.uleb128 0xb
 5421 005f 49       		.uleb128 0x49
 5422 0060 13       		.uleb128 0x13
 5423 0061 38       		.uleb128 0x38
 5424 0062 0A       		.uleb128 0xa
 5425 0063 00       		.byte	0x0
 5426 0064 00       		.byte	0x0
 5427 0065 08       		.uleb128 0x8
 5428 0066 13       		.uleb128 0x13
 5429 0067 01       		.byte	0x1
 5430 0068 0B       		.uleb128 0xb
 5431 0069 0B       		.uleb128 0xb
 5432 006a 3A       		.uleb128 0x3a
 5433 006b 0B       		.uleb128 0xb
 5434 006c 3B       		.uleb128 0x3b
 5435 006d 0B       		.uleb128 0xb
 5436 006e 01       		.uleb128 0x1
 5437 006f 13       		.uleb128 0x13
 5438 0070 00       		.byte	0x0
 5439 0071 00       		.byte	0x0
 5440 0072 09       		.uleb128 0x9
 5441 0073 0F       		.uleb128 0xf
 5442 0074 00       		.byte	0x0
 5443 0075 0B       		.uleb128 0xb
 5444 0076 0B       		.uleb128 0xb
 5445 0077 49       		.uleb128 0x49
 5446 0078 13       		.uleb128 0x13
 5447 0079 00       		.byte	0x0
 5448 007a 00       		.byte	0x0
 5449 007b 0A       		.uleb128 0xa
 5450 007c 0F       		.uleb128 0xf
 5451 007d 00       		.byte	0x0
 5452 007e 0B       		.uleb128 0xb
 5453 007f 0B       		.uleb128 0xb
 5454 0080 00       		.byte	0x0
 5455 0081 00       		.byte	0x0
 5456 0082 0B       		.uleb128 0xb
ARM GAS  C:\Users\z80\AppData\Local\Temp\ccHBr3N4.s 			page 98


 5457 0083 0D       		.uleb128 0xd
 5458 0084 00       		.byte	0x0
 5459 0085 03       		.uleb128 0x3
 5460 0086 08       		.uleb128 0x8
 5461 0087 3A       		.uleb128 0x3a
 5462 0088 0B       		.uleb128 0xb
 5463 0089 3B       		.uleb128 0x3b
 5464 008a 05       		.uleb128 0x5
 5465 008b 49       		.uleb128 0x49
 5466 008c 13       		.uleb128 0x13
 5467 008d 38       		.uleb128 0x38
 5468 008e 0A       		.uleb128 0xa
 5469 008f 00       		.byte	0x0
 5470 0090 00       		.byte	0x0
 5471 0091 0C       		.uleb128 0xc
 5472 0092 13       		.uleb128 0x13
 5473 0093 01       		.byte	0x1
 5474 0094 03       		.uleb128 0x3
 5475 0095 0E       		.uleb128 0xe
 5476 0096 0B       		.uleb128 0xb
 5477 0097 0B       		.uleb128 0xb
 5478 0098 3A       		.uleb128 0x3a
 5479 0099 0B       		.uleb128 0xb
 5480 009a 3B       		.uleb128 0x3b
 5481 009b 05       		.uleb128 0x5
 5482 009c 01       		.uleb128 0x1
 5483 009d 13       		.uleb128 0x13
 5484 009e 00       		.byte	0x0
 5485 009f 00       		.byte	0x0
 5486 00a0 0D       		.uleb128 0xd
 5487 00a1 35       		.uleb128 0x35
 5488 00a2 00       		.byte	0x0
 5489 00a3 49       		.uleb128 0x49
 5490 00a4 13       		.uleb128 0x13
 5491 00a5 00       		.byte	0x0
 5492 00a6 00       		.byte	0x0
 5493 00a7 0E       		.uleb128 0xe
 5494 00a8 24       		.uleb128 0x24
 5495 00a9 00       		.byte	0x0
 5496 00aa 0B       		.uleb128 0xb
 5497 00ab 0B       		.uleb128 0xb
 5498 00ac 3E       		.uleb128 0x3e
 5499 00ad 0B       		.uleb128 0xb
 5500 00ae 00       		.byte	0x0
 5501 00af 00       		.byte	0x0
 5502 00b0 0F       		.uleb128 0xf
 5503 00b1 15       		.uleb128 0x15
 5504 00b2 01       		.byte	0x1
 5505 00b3 27       		.uleb128 0x27
 5506 00b4 0C       		.uleb128 0xc
 5507 00b5 01       		.uleb128 0x1
 5508 00b6 13       		.uleb128 0x13
 5509 00b7 00       		.byte	0x0
 5510 00b8 00       		.byte	0x0
 5511 00b9 10       		.uleb128 0x10
 5512 00ba 05       		.uleb128 0x5
 5513 00bb 00       		.byte	0x0
ARM GAS  C:\Users\z80\AppData\Local\Temp\ccHBr3N4.s 			page 99


 5514 00bc 49       		.uleb128 0x49
 5515 00bd 13       		.uleb128 0x13
 5516 00be 00       		.byte	0x0
 5517 00bf 00       		.byte	0x0
 5518 00c0 11       		.uleb128 0x11
 5519 00c1 17       		.uleb128 0x17
 5520 00c2 01       		.byte	0x1
 5521 00c3 0B       		.uleb128 0xb
 5522 00c4 0B       		.uleb128 0xb
 5523 00c5 3A       		.uleb128 0x3a
 5524 00c6 0B       		.uleb128 0xb
 5525 00c7 3B       		.uleb128 0x3b
 5526 00c8 0B       		.uleb128 0xb
 5527 00c9 01       		.uleb128 0x1
 5528 00ca 13       		.uleb128 0x13
 5529 00cb 00       		.byte	0x0
 5530 00cc 00       		.byte	0x0
 5531 00cd 12       		.uleb128 0x12
 5532 00ce 0D       		.uleb128 0xd
 5533 00cf 00       		.byte	0x0
 5534 00d0 03       		.uleb128 0x3
 5535 00d1 0E       		.uleb128 0xe
 5536 00d2 3A       		.uleb128 0x3a
 5537 00d3 0B       		.uleb128 0xb
 5538 00d4 3B       		.uleb128 0x3b
 5539 00d5 0B       		.uleb128 0xb
 5540 00d6 49       		.uleb128 0x49
 5541 00d7 13       		.uleb128 0x13
 5542 00d8 00       		.byte	0x0
 5543 00d9 00       		.byte	0x0
 5544 00da 13       		.uleb128 0x13
 5545 00db 26       		.uleb128 0x26
 5546 00dc 00       		.byte	0x0
 5547 00dd 49       		.uleb128 0x49
 5548 00de 13       		.uleb128 0x13
 5549 00df 00       		.byte	0x0
 5550 00e0 00       		.byte	0x0
 5551 00e1 14       		.uleb128 0x14
 5552 00e2 04       		.uleb128 0x4
 5553 00e3 01       		.byte	0x1
 5554 00e4 03       		.uleb128 0x3
 5555 00e5 0E       		.uleb128 0xe
 5556 00e6 0B       		.uleb128 0xb
 5557 00e7 0B       		.uleb128 0xb
 5558 00e8 3A       		.uleb128 0x3a
 5559 00e9 0B       		.uleb128 0xb
 5560 00ea 3B       		.uleb128 0x3b
 5561 00eb 0B       		.uleb128 0xb
 5562 00ec 01       		.uleb128 0x1
 5563 00ed 13       		.uleb128 0x13
 5564 00ee 00       		.byte	0x0
 5565 00ef 00       		.byte	0x0
 5566 00f0 15       		.uleb128 0x15
 5567 00f1 28       		.uleb128 0x28
 5568 00f2 00       		.byte	0x0
 5569 00f3 03       		.uleb128 0x3
 5570 00f4 0E       		.uleb128 0xe
ARM GAS  C:\Users\z80\AppData\Local\Temp\ccHBr3N4.s 			page 100


 5571 00f5 1C       		.uleb128 0x1c
 5572 00f6 0D       		.uleb128 0xd
 5573 00f7 00       		.byte	0x0
 5574 00f8 00       		.byte	0x0
 5575 00f9 16       		.uleb128 0x16
 5576 00fa 13       		.uleb128 0x13
 5577 00fb 01       		.byte	0x1
 5578 00fc 0B       		.uleb128 0xb
 5579 00fd 0B       		.uleb128 0xb
 5580 00fe 3A       		.uleb128 0x3a
 5581 00ff 0B       		.uleb128 0xb
 5582 0100 3B       		.uleb128 0x3b
 5583 0101 05       		.uleb128 0x5
 5584 0102 01       		.uleb128 0x1
 5585 0103 13       		.uleb128 0x13
 5586 0104 00       		.byte	0x0
 5587 0105 00       		.byte	0x0
 5588 0106 17       		.uleb128 0x17
 5589 0107 0D       		.uleb128 0xd
 5590 0108 00       		.byte	0x0
 5591 0109 03       		.uleb128 0x3
 5592 010a 0E       		.uleb128 0xe
 5593 010b 3A       		.uleb128 0x3a
 5594 010c 0B       		.uleb128 0xb
 5595 010d 3B       		.uleb128 0x3b
 5596 010e 05       		.uleb128 0x5
 5597 010f 49       		.uleb128 0x49
 5598 0110 13       		.uleb128 0x13
 5599 0111 38       		.uleb128 0x38
 5600 0112 0A       		.uleb128 0xa
 5601 0113 00       		.byte	0x0
 5602 0114 00       		.byte	0x0
 5603 0115 18       		.uleb128 0x18
 5604 0116 16       		.uleb128 0x16
 5605 0117 00       		.byte	0x0
 5606 0118 03       		.uleb128 0x3
 5607 0119 0E       		.uleb128 0xe
 5608 011a 3A       		.uleb128 0x3a
 5609 011b 0B       		.uleb128 0xb
 5610 011c 3B       		.uleb128 0x3b
 5611 011d 05       		.uleb128 0x5
 5612 011e 49       		.uleb128 0x49
 5613 011f 13       		.uleb128 0x13
 5614 0120 00       		.byte	0x0
 5615 0121 00       		.byte	0x0
 5616 0122 19       		.uleb128 0x19
 5617 0123 04       		.uleb128 0x4
 5618 0124 01       		.byte	0x1
 5619 0125 0B       		.uleb128 0xb
 5620 0126 0B       		.uleb128 0xb
 5621 0127 3A       		.uleb128 0x3a
 5622 0128 0B       		.uleb128 0xb
 5623 0129 3B       		.uleb128 0x3b
 5624 012a 0B       		.uleb128 0xb
 5625 012b 01       		.uleb128 0x1
 5626 012c 13       		.uleb128 0x13
 5627 012d 00       		.byte	0x0
ARM GAS  C:\Users\z80\AppData\Local\Temp\ccHBr3N4.s 			page 101


 5628 012e 00       		.byte	0x0
 5629 012f 1A       		.uleb128 0x1a
 5630 0130 04       		.uleb128 0x4
 5631 0131 01       		.byte	0x1
 5632 0132 0B       		.uleb128 0xb
 5633 0133 0B       		.uleb128 0xb
 5634 0134 3A       		.uleb128 0x3a
 5635 0135 0B       		.uleb128 0xb
 5636 0136 3B       		.uleb128 0x3b
 5637 0137 05       		.uleb128 0x5
 5638 0138 01       		.uleb128 0x1
 5639 0139 13       		.uleb128 0x13
 5640 013a 00       		.byte	0x0
 5641 013b 00       		.byte	0x0
 5642 013c 1B       		.uleb128 0x1b
 5643 013d 2E       		.uleb128 0x2e
 5644 013e 01       		.byte	0x1
 5645 013f 03       		.uleb128 0x3
 5646 0140 0E       		.uleb128 0xe
 5647 0141 3A       		.uleb128 0x3a
 5648 0142 0B       		.uleb128 0xb
 5649 0143 3B       		.uleb128 0x3b
 5650 0144 0B       		.uleb128 0xb
 5651 0145 27       		.uleb128 0x27
 5652 0146 0C       		.uleb128 0xc
 5653 0147 11       		.uleb128 0x11
 5654 0148 01       		.uleb128 0x1
 5655 0149 12       		.uleb128 0x12
 5656 014a 01       		.uleb128 0x1
 5657 014b 40       		.uleb128 0x40
 5658 014c 06       		.uleb128 0x6
 5659 014d 01       		.uleb128 0x1
 5660 014e 13       		.uleb128 0x13
 5661 014f 00       		.byte	0x0
 5662 0150 00       		.byte	0x0
 5663 0151 1C       		.uleb128 0x1c
 5664 0152 05       		.uleb128 0x5
 5665 0153 00       		.byte	0x0
 5666 0154 03       		.uleb128 0x3
 5667 0155 0E       		.uleb128 0xe
 5668 0156 3A       		.uleb128 0x3a
 5669 0157 0B       		.uleb128 0xb
 5670 0158 3B       		.uleb128 0x3b
 5671 0159 0B       		.uleb128 0xb
 5672 015a 49       		.uleb128 0x49
 5673 015b 13       		.uleb128 0x13
 5674 015c 02       		.uleb128 0x2
 5675 015d 0A       		.uleb128 0xa
 5676 015e 00       		.byte	0x0
 5677 015f 00       		.byte	0x0
 5678 0160 1D       		.uleb128 0x1d
 5679 0161 34       		.uleb128 0x34
 5680 0162 00       		.byte	0x0
 5681 0163 03       		.uleb128 0x3
 5682 0164 08       		.uleb128 0x8
 5683 0165 3A       		.uleb128 0x3a
 5684 0166 0B       		.uleb128 0xb
ARM GAS  C:\Users\z80\AppData\Local\Temp\ccHBr3N4.s 			page 102


 5685 0167 3B       		.uleb128 0x3b
 5686 0168 0B       		.uleb128 0xb
 5687 0169 49       		.uleb128 0x49
 5688 016a 13       		.uleb128 0x13
 5689 016b 02       		.uleb128 0x2
 5690 016c 0A       		.uleb128 0xa
 5691 016d 00       		.byte	0x0
 5692 016e 00       		.byte	0x0
 5693 016f 1E       		.uleb128 0x1e
 5694 0170 05       		.uleb128 0x5
 5695 0171 00       		.byte	0x0
 5696 0172 03       		.uleb128 0x3
 5697 0173 08       		.uleb128 0x8
 5698 0174 3A       		.uleb128 0x3a
 5699 0175 0B       		.uleb128 0xb
 5700 0176 3B       		.uleb128 0x3b
 5701 0177 0B       		.uleb128 0xb
 5702 0178 49       		.uleb128 0x49
 5703 0179 13       		.uleb128 0x13
 5704 017a 02       		.uleb128 0x2
 5705 017b 0A       		.uleb128 0xa
 5706 017c 00       		.byte	0x0
 5707 017d 00       		.byte	0x0
 5708 017e 1F       		.uleb128 0x1f
 5709 017f 34       		.uleb128 0x34
 5710 0180 00       		.byte	0x0
 5711 0181 03       		.uleb128 0x3
 5712 0182 0E       		.uleb128 0xe
 5713 0183 3A       		.uleb128 0x3a
 5714 0184 0B       		.uleb128 0xb
 5715 0185 3B       		.uleb128 0x3b
 5716 0186 0B       		.uleb128 0xb
 5717 0187 49       		.uleb128 0x49
 5718 0188 13       		.uleb128 0x13
 5719 0189 02       		.uleb128 0x2
 5720 018a 0A       		.uleb128 0xa
 5721 018b 00       		.byte	0x0
 5722 018c 00       		.byte	0x0
 5723 018d 20       		.uleb128 0x20
 5724 018e 0B       		.uleb128 0xb
 5725 018f 01       		.byte	0x1
 5726 0190 11       		.uleb128 0x11
 5727 0191 01       		.uleb128 0x1
 5728 0192 12       		.uleb128 0x12
 5729 0193 01       		.uleb128 0x1
 5730 0194 00       		.byte	0x0
 5731 0195 00       		.byte	0x0
 5732 0196 21       		.uleb128 0x21
 5733 0197 2E       		.uleb128 0x2e
 5734 0198 01       		.byte	0x1
 5735 0199 03       		.uleb128 0x3
 5736 019a 0E       		.uleb128 0xe
 5737 019b 3A       		.uleb128 0x3a
 5738 019c 0B       		.uleb128 0xb
 5739 019d 3B       		.uleb128 0x3b
 5740 019e 05       		.uleb128 0x5
 5741 019f 27       		.uleb128 0x27
ARM GAS  C:\Users\z80\AppData\Local\Temp\ccHBr3N4.s 			page 103


 5742 01a0 0C       		.uleb128 0xc
 5743 01a1 11       		.uleb128 0x11
 5744 01a2 01       		.uleb128 0x1
 5745 01a3 12       		.uleb128 0x12
 5746 01a4 01       		.uleb128 0x1
 5747 01a5 40       		.uleb128 0x40
 5748 01a6 06       		.uleb128 0x6
 5749 01a7 01       		.uleb128 0x1
 5750 01a8 13       		.uleb128 0x13
 5751 01a9 00       		.byte	0x0
 5752 01aa 00       		.byte	0x0
 5753 01ab 22       		.uleb128 0x22
 5754 01ac 05       		.uleb128 0x5
 5755 01ad 00       		.byte	0x0
 5756 01ae 03       		.uleb128 0x3
 5757 01af 0E       		.uleb128 0xe
 5758 01b0 3A       		.uleb128 0x3a
 5759 01b1 0B       		.uleb128 0xb
 5760 01b2 3B       		.uleb128 0x3b
 5761 01b3 05       		.uleb128 0x5
 5762 01b4 49       		.uleb128 0x49
 5763 01b5 13       		.uleb128 0x13
 5764 01b6 02       		.uleb128 0x2
 5765 01b7 0A       		.uleb128 0xa
 5766 01b8 00       		.byte	0x0
 5767 01b9 00       		.byte	0x0
 5768 01ba 23       		.uleb128 0x23
 5769 01bb 34       		.uleb128 0x34
 5770 01bc 00       		.byte	0x0
 5771 01bd 03       		.uleb128 0x3
 5772 01be 08       		.uleb128 0x8
 5773 01bf 3A       		.uleb128 0x3a
 5774 01c0 0B       		.uleb128 0xb
 5775 01c1 3B       		.uleb128 0x3b
 5776 01c2 05       		.uleb128 0x5
 5777 01c3 49       		.uleb128 0x49
 5778 01c4 13       		.uleb128 0x13
 5779 01c5 02       		.uleb128 0x2
 5780 01c6 0A       		.uleb128 0xa
 5781 01c7 00       		.byte	0x0
 5782 01c8 00       		.byte	0x0
 5783 01c9 24       		.uleb128 0x24
 5784 01ca 34       		.uleb128 0x34
 5785 01cb 00       		.byte	0x0
 5786 01cc 03       		.uleb128 0x3
 5787 01cd 0E       		.uleb128 0xe
 5788 01ce 3A       		.uleb128 0x3a
 5789 01cf 0B       		.uleb128 0xb
 5790 01d0 3B       		.uleb128 0x3b
 5791 01d1 05       		.uleb128 0x5
 5792 01d2 49       		.uleb128 0x49
 5793 01d3 13       		.uleb128 0x13
 5794 01d4 02       		.uleb128 0x2
 5795 01d5 0A       		.uleb128 0xa
 5796 01d6 00       		.byte	0x0
 5797 01d7 00       		.byte	0x0
 5798 01d8 25       		.uleb128 0x25
ARM GAS  C:\Users\z80\AppData\Local\Temp\ccHBr3N4.s 			page 104


 5799 01d9 0B       		.uleb128 0xb
 5800 01da 01       		.byte	0x1
 5801 01db 11       		.uleb128 0x11
 5802 01dc 01       		.uleb128 0x1
 5803 01dd 12       		.uleb128 0x12
 5804 01de 01       		.uleb128 0x1
 5805 01df 01       		.uleb128 0x1
 5806 01e0 13       		.uleb128 0x13
 5807 01e1 00       		.byte	0x0
 5808 01e2 00       		.byte	0x0
 5809 01e3 26       		.uleb128 0x26
 5810 01e4 2E       		.uleb128 0x2e
 5811 01e5 00       		.byte	0x0
 5812 01e6 3F       		.uleb128 0x3f
 5813 01e7 0C       		.uleb128 0xc
 5814 01e8 03       		.uleb128 0x3
 5815 01e9 0E       		.uleb128 0xe
 5816 01ea 3A       		.uleb128 0x3a
 5817 01eb 0B       		.uleb128 0xb
 5818 01ec 3B       		.uleb128 0x3b
 5819 01ed 05       		.uleb128 0x5
 5820 01ee 27       		.uleb128 0x27
 5821 01ef 0C       		.uleb128 0xc
 5822 01f0 11       		.uleb128 0x11
 5823 01f1 01       		.uleb128 0x1
 5824 01f2 12       		.uleb128 0x12
 5825 01f3 01       		.uleb128 0x1
 5826 01f4 40       		.uleb128 0x40
 5827 01f5 06       		.uleb128 0x6
 5828 01f6 00       		.byte	0x0
 5829 01f7 00       		.byte	0x0
 5830 01f8 27       		.uleb128 0x27
 5831 01f9 2E       		.uleb128 0x2e
 5832 01fa 01       		.byte	0x1
 5833 01fb 3F       		.uleb128 0x3f
 5834 01fc 0C       		.uleb128 0xc
 5835 01fd 03       		.uleb128 0x3
 5836 01fe 0E       		.uleb128 0xe
 5837 01ff 3A       		.uleb128 0x3a
 5838 0200 0B       		.uleb128 0xb
 5839 0201 3B       		.uleb128 0x3b
 5840 0202 05       		.uleb128 0x5
 5841 0203 27       		.uleb128 0x27
 5842 0204 0C       		.uleb128 0xc
 5843 0205 11       		.uleb128 0x11
 5844 0206 01       		.uleb128 0x1
 5845 0207 12       		.uleb128 0x12
 5846 0208 01       		.uleb128 0x1
 5847 0209 40       		.uleb128 0x40
 5848 020a 06       		.uleb128 0x6
 5849 020b 01       		.uleb128 0x1
 5850 020c 13       		.uleb128 0x13
 5851 020d 00       		.byte	0x0
 5852 020e 00       		.byte	0x0
 5853 020f 28       		.uleb128 0x28
 5854 0210 2E       		.uleb128 0x2e
 5855 0211 01       		.byte	0x1
ARM GAS  C:\Users\z80\AppData\Local\Temp\ccHBr3N4.s 			page 105


 5856 0212 3F       		.uleb128 0x3f
 5857 0213 0C       		.uleb128 0xc
 5858 0214 03       		.uleb128 0x3
 5859 0215 0E       		.uleb128 0xe
 5860 0216 3A       		.uleb128 0x3a
 5861 0217 0B       		.uleb128 0xb
 5862 0218 3B       		.uleb128 0x3b
 5863 0219 05       		.uleb128 0x5
 5864 021a 27       		.uleb128 0x27
 5865 021b 0C       		.uleb128 0xc
 5866 021c 49       		.uleb128 0x49
 5867 021d 13       		.uleb128 0x13
 5868 021e 11       		.uleb128 0x11
 5869 021f 01       		.uleb128 0x1
 5870 0220 12       		.uleb128 0x12
 5871 0221 01       		.uleb128 0x1
 5872 0222 40       		.uleb128 0x40
 5873 0223 06       		.uleb128 0x6
 5874 0224 01       		.uleb128 0x1
 5875 0225 13       		.uleb128 0x13
 5876 0226 00       		.byte	0x0
 5877 0227 00       		.byte	0x0
 5878 0228 29       		.uleb128 0x29
 5879 0229 34       		.uleb128 0x34
 5880 022a 00       		.byte	0x0
 5881 022b 03       		.uleb128 0x3
 5882 022c 0E       		.uleb128 0xe
 5883 022d 3A       		.uleb128 0x3a
 5884 022e 0B       		.uleb128 0xb
 5885 022f 3B       		.uleb128 0x3b
 5886 0230 0B       		.uleb128 0xb
 5887 0231 49       		.uleb128 0x49
 5888 0232 13       		.uleb128 0x13
 5889 0233 3F       		.uleb128 0x3f
 5890 0234 0C       		.uleb128 0xc
 5891 0235 3C       		.uleb128 0x3c
 5892 0236 0C       		.uleb128 0xc
 5893 0237 00       		.byte	0x0
 5894 0238 00       		.byte	0x0
 5895 0239 2A       		.uleb128 0x2a
 5896 023a 34       		.uleb128 0x34
 5897 023b 00       		.byte	0x0
 5898 023c 03       		.uleb128 0x3
 5899 023d 0E       		.uleb128 0xe
 5900 023e 3A       		.uleb128 0x3a
 5901 023f 0B       		.uleb128 0xb
 5902 0240 3B       		.uleb128 0x3b
 5903 0241 05       		.uleb128 0x5
 5904 0242 49       		.uleb128 0x49
 5905 0243 13       		.uleb128 0x13
 5906 0244 3F       		.uleb128 0x3f
 5907 0245 0C       		.uleb128 0xc
 5908 0246 3C       		.uleb128 0x3c
 5909 0247 0C       		.uleb128 0xc
 5910 0248 00       		.byte	0x0
 5911 0249 00       		.byte	0x0
 5912 024a 2B       		.uleb128 0x2b
ARM GAS  C:\Users\z80\AppData\Local\Temp\ccHBr3N4.s 			page 106


 5913 024b 01       		.uleb128 0x1
 5914 024c 01       		.byte	0x1
 5915 024d 49       		.uleb128 0x49
 5916 024e 13       		.uleb128 0x13
 5917 024f 01       		.uleb128 0x1
 5918 0250 13       		.uleb128 0x13
 5919 0251 00       		.byte	0x0
 5920 0252 00       		.byte	0x0
 5921 0253 2C       		.uleb128 0x2c
 5922 0254 21       		.uleb128 0x21
 5923 0255 00       		.byte	0x0
 5924 0256 49       		.uleb128 0x49
 5925 0257 13       		.uleb128 0x13
 5926 0258 2F       		.uleb128 0x2f
 5927 0259 0B       		.uleb128 0xb
 5928 025a 00       		.byte	0x0
 5929 025b 00       		.byte	0x0
 5930 025c 2D       		.uleb128 0x2d
 5931 025d 34       		.uleb128 0x34
 5932 025e 00       		.byte	0x0
 5933 025f 03       		.uleb128 0x3
 5934 0260 0E       		.uleb128 0xe
 5935 0261 3A       		.uleb128 0x3a
 5936 0262 0B       		.uleb128 0xb
 5937 0263 3B       		.uleb128 0x3b
 5938 0264 0B       		.uleb128 0xb
 5939 0265 49       		.uleb128 0x49
 5940 0266 13       		.uleb128 0x13
 5941 0267 3F       		.uleb128 0x3f
 5942 0268 0C       		.uleb128 0xc
 5943 0269 02       		.uleb128 0x2
 5944 026a 0A       		.uleb128 0xa
 5945 026b 00       		.byte	0x0
 5946 026c 00       		.byte	0x0
 5947 026d 00       		.byte	0x0
 5948              		.section	.debug_pubnames,"",%progbits
 5949 0000 CA000000 		.4byte	0xca
 5950 0004 0200     		.2byte	0x2
 5951 0006 00000000 		.4byte	.Ldebug_info0
 5952 000a 82130000 		.4byte	0x1382
 5953 000e C60E0000 		.4byte	0xec6
 5954 0012 56656374 		.ascii	"VectorBC\000"
 5954      6F724243 
 5954      00
 5955 001b DC0E0000 		.4byte	0xedc
 5956 001f 56656374 		.ascii	"VectorC0\000"
 5956      6F724330 
 5956      00
 5957 0028 F20E0000 		.4byte	0xef2
 5958 002c 6932635F 		.ascii	"i2c_lld_init\000"
 5958      6C6C645F 
 5958      696E6974 
 5958      00
 5959 0039 080F0000 		.4byte	0xf08
 5960 003d 6932635F 		.ascii	"i2c_lld_start\000"
 5960      6C6C645F 
 5960      73746172 
ARM GAS  C:\Users\z80\AppData\Local\Temp\ccHBr3N4.s 			page 107


 5960      7400
 5961 004b 570F0000 		.4byte	0xf57
 5962 004f 6932635F 		.ascii	"i2c_lld_stop\000"
 5962      6C6C645F 
 5962      73746F70 
 5962      00
 5963 005c 810F0000 		.4byte	0xf81
 5964 0060 6932635F 		.ascii	"i2c_lld_master_receive_timeout\000"
 5964      6C6C645F 
 5964      6D617374 
 5964      65725F72 
 5964      65636569 
 5965 007f 73100000 		.4byte	0x1073
 5966 0083 6932635F 		.ascii	"i2c_lld_master_transmit_timeout\000"
 5966      6C6C645F 
 5966      6D617374 
 5966      65725F74 
 5966      72616E73 
 5967 00a3 83110000 		.4byte	0x1183
 5968 00a7 6932635F 		.ascii	"i2c_lld_slave_io_timeout\000"
 5968      6C6C645F 
 5968      736C6176 
 5968      655F696F 
 5968      5F74696D 
 5969 00c0 6F130000 		.4byte	0x136f
 5970 00c4 49324344 		.ascii	"I2CD1\000"
 5970      3100
 5971 00ca 00000000 		.4byte	0x0
 5972              		.section	.debug_pubtypes,"",%progbits
 5973 0000 69020000 		.4byte	0x269
 5974 0004 0200     		.2byte	0x2
 5975 0006 00000000 		.4byte	.Ldebug_info0
 5976 000a 82130000 		.4byte	0x1382
 5977 000e 30000000 		.4byte	0x30
 5978 0012 73697A65 		.ascii	"size_t\000"
 5978      5F7400
 5979 0019 49000000 		.4byte	0x49
 5980 001d 75696E74 		.ascii	"uint8_t\000"
 5980      385F7400 
 5981 0025 62000000 		.4byte	0x62
 5982 0029 75696E74 		.ascii	"uint16_t\000"
 5982      31365F74 
 5982      00
 5983 0032 74000000 		.4byte	0x74
 5984 0036 696E7433 		.ascii	"int32_t\000"
 5984      325F7400 
 5985 003e 86000000 		.4byte	0x86
 5986 0042 75696E74 		.ascii	"uint32_t\000"
 5986      33325F74 
 5986      00
 5987 004b 9F000000 		.4byte	0x9f
 5988 004f 75696E74 		.ascii	"uint64_t\000"
 5988      36345F74 
 5988      00
 5989 0058 B1000000 		.4byte	0xb1
 5990 005c 626F6F6C 		.ascii	"bool_t\000"
 5990      5F7400
ARM GAS  C:\Users\z80\AppData\Local\Temp\ccHBr3N4.s 			page 108


 5991 0063 BC000000 		.4byte	0xbc
 5992 0067 746D6F64 		.ascii	"tmode_t\000"
 5992      655F7400 
 5993 006f C7000000 		.4byte	0xc7
 5994 0073 74737461 		.ascii	"tstate_t\000"
 5994      74655F74 
 5994      00
 5995 007c D2000000 		.4byte	0xd2
 5996 0080 74707269 		.ascii	"tprio_t\000"
 5996      6F5F7400 
 5997 0088 DD000000 		.4byte	0xdd
 5998 008c 6D73675F 		.ascii	"msg_t\000"
 5998      7400
 5999 0092 E8000000 		.4byte	0xe8
 6000 0096 6576656E 		.ascii	"eventmask_t\000"
 6000      746D6173 
 6000      6B5F7400 
 6001 00a2 F3000000 		.4byte	0xf3
 6002 00a6 73797374 		.ascii	"systime_t\000"
 6002      696D655F 
 6002      7400
 6003 00b0 FE000000 		.4byte	0xfe
 6004 00b4 636E745F 		.ascii	"cnt_t\000"
 6004      7400
 6005 00ba 09010000 		.4byte	0x109
 6006 00be 54687265 		.ascii	"Thread\000"
 6006      616400
 6007 00c5 48020000 		.4byte	0x248
 6008 00c9 54687265 		.ascii	"ThreadsQueue\000"
 6008      61647351 
 6008      75657565 
 6008      00
 6009 00d6 6A020000 		.4byte	0x26a
 6010 00da 54687265 		.ascii	"ThreadsList\000"
 6010      6164734C 
 6010      69737400 
 6011 00e6 75020000 		.4byte	0x275
 6012 00ea 72656761 		.ascii	"regarm_t\000"
 6012      726D5F74 
 6012      00
 6013 00f3 82020000 		.4byte	0x282
 6014 00f7 73746B61 		.ascii	"stkalign_t\000"
 6014      6C69676E 
 6014      5F7400
 6015 0102 8D020000 		.4byte	0x28d
 6016 0106 696E7463 		.ascii	"intctx\000"
 6016      747800
 6017 010d 1A030000 		.4byte	0x31a
 6018 0111 636F6E74 		.ascii	"context\000"
 6018      65787400 
 6019 0119 45030000 		.4byte	0x345
 6020 011d 76746675 		.ascii	"vtfunc_t\000"
 6020      6E635F74 
 6020      00
 6021 0126 62030000 		.4byte	0x362
 6022 012a 56697274 		.ascii	"VirtualTimer\000"
 6022      75616C54 
ARM GAS  C:\Users\z80\AppData\Local\Temp\ccHBr3N4.s 			page 109


 6022      696D6572 
 6022      00
 6023 0137 6D030000 		.4byte	0x36d
 6024 013b 56697274 		.ascii	"VirtualTimer\000"
 6024      75616C54 
 6024      696D6572 
 6024      00
 6025 0148 36040000 		.4byte	0x436
 6026 014c 52656164 		.ascii	"ReadyList\000"
 6026      794C6973 
 6026      7400
 6027 0156 41040000 		.4byte	0x441
 6028 015a 4D757465 		.ascii	"Mutex\000"
 6028      7800
 6029 0160 7E040000 		.4byte	0x47e
 6030 0164 4D757465 		.ascii	"Mutex\000"
 6030      7800
 6031 016a 14010000 		.4byte	0x114
 6032 016e 54687265 		.ascii	"Thread\000"
 6032      616400
 6033 0175 ED040000 		.4byte	0x4ed
 6034 0179 4952516E 		.ascii	"IRQn\000"
 6034      00
 6035 017e 7C060000 		.4byte	0x67c
 6036 0182 444D415F 		.ascii	"DMA_Channel_TypeDef\000"
 6036      4368616E 
 6036      6E656C5F 
 6036      54797065 
 6036      44656600 
 6037 0196 9F070000 		.4byte	0x79f
 6038 019a 4932435F 		.ascii	"I2C_TypeDef\000"
 6038      54797065 
 6038      44656600 
 6039 01a6 4A080000 		.4byte	0x84a
 6040 01aa 5243435F 		.ascii	"RCC_TypeDef\000"
 6040      54797065 
 6040      44656600 
 6041 01b6 B1080000 		.4byte	0x8b1
 6042 01ba 73746D33 		.ascii	"stm32_dma_stream_t\000"
 6042      325F646D 
 6042      615F7374 
 6042      7265616D 
 6042      5F7400
 6043 01cd BC080000 		.4byte	0x8bc
 6044 01d1 73746D33 		.ascii	"stm32_dmaisr_t\000"
 6044      325F646D 
 6044      61697372 
 6044      5F7400
 6045 01e0 16090000 		.4byte	0x916
 6046 01e4 69326373 		.ascii	"i2cstate_t\000"
 6046      74617465 
 6046      5F7400
 6047 01ef 21090000 		.4byte	0x921
 6048 01f3 69326361 		.ascii	"i2caddr_t\000"
 6048      6464725F 
 6048      7400
 6049 01fd 2D090000 		.4byte	0x92d
ARM GAS  C:\Users\z80\AppData\Local\Temp\ccHBr3N4.s 			page 110


 6050 0201 69326366 		.ascii	"i2cflags_t\000"
 6050      6C616773 
 6050      5F7400
 6051 020c 55090000 		.4byte	0x955
 6052 0210 6932636F 		.ascii	"i2copmode_t\000"
 6052      706D6F64 
 6052      655F7400 
 6053 021c 7D090000 		.4byte	0x97d
 6054 0220 69326364 		.ascii	"i2cdutycycle_t\000"
 6054      75747963 
 6054      79636C65 
 6054      5F7400
 6055 022f C0090000 		.4byte	0x9c0
 6056 0233 49324343 		.ascii	"I2CConfig\000"
 6056      6F6E6669 
 6056      6700
 6057 023d CC090000 		.4byte	0x9cc
 6058 0241 49324344 		.ascii	"I2CDriver\000"
 6058      72697665 
 6058      7200
 6059 024b 030B0000 		.4byte	0xb03
 6060 024f 54493263 		.ascii	"TI2cSlaveCb\000"
 6060      536C6176 
 6060      65436200 
 6061 025b D8090000 		.4byte	0x9d8
 6062 025f 49324344 		.ascii	"I2CDriver\000"
 6062      72697665 
 6062      7200
 6063 0269 00000000 		.4byte	0x0
 6064              		.section	.debug_aranges,"",%progbits
 6065 0000 94000000 		.4byte	0x94
 6066 0004 0200     		.2byte	0x2
 6067 0006 00000000 		.4byte	.Ldebug_info0
 6068 000a 04       		.byte	0x4
 6069 000b 00       		.byte	0x0
 6070 000c 0000     		.2byte	0x0
 6071 000e 0000     		.2byte	0x0
 6072 0010 00000000 		.4byte	.LFB62
 6073 0014 82000000 		.4byte	.LFE62-.LFB62
 6074 0018 00000000 		.4byte	.LFB63
 6075 001c 38000000 		.4byte	.LFE63-.LFB63
 6076 0020 00000000 		.4byte	.LFB64
 6077 0024 5C020000 		.4byte	.LFE64-.LFB64
 6078 0028 00000000 		.4byte	.LFB65
 6079 002c 6E000000 		.4byte	.LFE65-.LFB65
 6080 0030 00000000 		.4byte	.LFB66
 6081 0034 96020000 		.4byte	.LFE66-.LFB66
 6082 0038 00000000 		.4byte	.LFB67
 6083 003c C0000000 		.4byte	.LFE67-.LFB67
 6084 0040 00000000 		.4byte	.LFB68
 6085 0044 5A000000 		.4byte	.LFE68-.LFB68
 6086 0048 00000000 		.4byte	.LFB69
 6087 004c 28020000 		.4byte	.LFE69-.LFB69
 6088 0050 00000000 		.4byte	.LFB70
 6089 0054 1C000000 		.4byte	.LFE70-.LFB70
 6090 0058 00000000 		.4byte	.LFB71
 6091 005c 1C000000 		.4byte	.LFE71-.LFB71
ARM GAS  C:\Users\z80\AppData\Local\Temp\ccHBr3N4.s 			page 111


 6092 0060 00000000 		.4byte	.LFB72
 6093 0064 50000000 		.4byte	.LFE72-.LFB72
 6094 0068 00000000 		.4byte	.LFB73
 6095 006c 5C010000 		.4byte	.LFE73-.LFB73
 6096 0070 00000000 		.4byte	.LFB74
 6097 0074 62000000 		.4byte	.LFE74-.LFB74
 6098 0078 00000000 		.4byte	.LFB75
 6099 007c 54010000 		.4byte	.LFE75-.LFB75
 6100 0080 00000000 		.4byte	.LFB76
 6101 0084 6C010000 		.4byte	.LFE76-.LFB76
 6102 0088 00000000 		.4byte	.LFB77
 6103 008c 8C010000 		.4byte	.LFE77-.LFB77
 6104 0090 00000000 		.4byte	0x0
 6105 0094 00000000 		.4byte	0x0
 6106              		.section	.debug_ranges,"",%progbits
 6107              	.Ldebug_ranges0:
 6108 0000 00000000 		.4byte	.LFB62
 6109 0004 82000000 		.4byte	.LFE62
 6110 0008 00000000 		.4byte	.LFB63
 6111 000c 38000000 		.4byte	.LFE63
 6112 0010 00000000 		.4byte	.LFB64
 6113 0014 5C020000 		.4byte	.LFE64
 6114 0018 00000000 		.4byte	.LFB65
 6115 001c 6E000000 		.4byte	.LFE65
 6116 0020 00000000 		.4byte	.LFB66
 6117 0024 96020000 		.4byte	.LFE66
 6118 0028 00000000 		.4byte	.LFB67
 6119 002c C0000000 		.4byte	.LFE67
 6120 0030 00000000 		.4byte	.LFB68
 6121 0034 5A000000 		.4byte	.LFE68
 6122 0038 00000000 		.4byte	.LFB69
 6123 003c 28020000 		.4byte	.LFE69
 6124 0040 00000000 		.4byte	.LFB70
 6125 0044 1C000000 		.4byte	.LFE70
 6126 0048 00000000 		.4byte	.LFB71
 6127 004c 1C000000 		.4byte	.LFE71
 6128 0050 00000000 		.4byte	.LFB72
 6129 0054 50000000 		.4byte	.LFE72
 6130 0058 00000000 		.4byte	.LFB73
 6131 005c 5C010000 		.4byte	.LFE73
 6132 0060 00000000 		.4byte	.LFB74
 6133 0064 62000000 		.4byte	.LFE74
 6134 0068 00000000 		.4byte	.LFB75
 6135 006c 54010000 		.4byte	.LFE75
 6136 0070 00000000 		.4byte	.LFB76
 6137 0074 6C010000 		.4byte	.LFE76
 6138 0078 00000000 		.4byte	.LFB77
 6139 007c 8C010000 		.4byte	.LFE77
 6140 0080 00000000 		.4byte	0x0
 6141 0084 00000000 		.4byte	0x0
 6142              		.section	.debug_str,"MS",%progbits,1
 6143              	.LASF2:
 6144 0000 73697A65 		.ascii	"size_t\000"
 6144      5F7400
 6145              	.LASF21:
 6146 0007 73797374 		.ascii	"systime_t\000"
 6146      696D655F 
ARM GAS  C:\Users\z80\AppData\Local\Temp\ccHBr3N4.s 			page 112


 6146      7400
 6147              	.LASF200:
 6148 0011 636C6F63 		.ascii	"clock_div\000"
 6148      6B5F6469 
 6148      7600
 6149              	.LASF201:
 6150 001b 64757479 		.ascii	"duty\000"
 6150      00
 6151              	.LASF27:
 6152 0020 705F6374 		.ascii	"p_ctx\000"
 6152      7800
 6153              	.LASF18:
 6154 0026 74707269 		.ascii	"tprio_t\000"
 6154      6F5F7400 
 6155              	.LASF220:
 6156 002e 6932635F 		.ascii	"i2c_lld_slave_io_timeout\000"
 6156      6C6C645F 
 6156      736C6176 
 6156      655F696F 
 6156      5F74696D 
 6157              	.LASF164:
 6158 0047 4F504D4F 		.ascii	"OPMODE_SMBUS_DEVICE\000"
 6158      44455F53 
 6158      4D425553 
 6158      5F444556 
 6158      49434500 
 6159              	.LASF36:
 6160 005b 705F6D73 		.ascii	"p_msgqueue\000"
 6160      67717565 
 6160      756500
 6161              	.LASF56:
 6162 0066 725F6374 		.ascii	"r_ctx\000"
 6162      7800
 6163              	.LASF8:
 6164 006c 696E7433 		.ascii	"int32_t\000"
 6164      325F7400 
 6165              	.LASF94:
 6166 0074 444D4131 		.ascii	"DMA1_Channel5_IRQn\000"
 6166      5F436861 
 6166      6E6E656C 
 6166      355F4952 
 6166      516E00
 6167              	.LASF47:
 6168 0087 76746675 		.ascii	"vtfunc_t\000"
 6168      6E635F74 
 6168      00
 6169              	.LASF168:
 6170 0090 46415354 		.ascii	"FAST_DUTY_CYCLE_2\000"
 6170      5F445554 
 6170      595F4359 
 6170      434C455F 
 6170      3200
 6171              	.LASF196:
 6172 00a2 6932635F 		.ascii	"i2c_lld_safety_timeout\000"
 6172      6C6C645F 
 6172      73616665 
 6172      74795F74 
ARM GAS  C:\Users\z80\AppData\Local\Temp\ccHBr3N4.s 			page 113


 6172      696D656F 
 6173              	.LASF83:
 6174 00b9 464C4153 		.ascii	"FLASH_IRQn\000"
 6174      485F4952 
 6174      516E00
 6175              	.LASF177:
 6176 00c4 636F6E66 		.ascii	"config\000"
 6176      696700
 6177              	.LASF176:
 6178 00cb 73746174 		.ascii	"state\000"
 6178      6500
 6179              	.LASF122:
 6180 00d1 434E4454 		.ascii	"CNDTR\000"
 6180      5200
 6181              	.LASF107:
 6182 00d7 54494D32 		.ascii	"TIM2_IRQn\000"
 6182      5F495251 
 6182      6E00
 6183              	.LASF169:
 6184 00e1 46415354 		.ascii	"FAST_DUTY_CYCLE_16_9\000"
 6184      5F445554 
 6184      595F4359 
 6184      434C455F 
 6184      31365F39 
 6185              	.LASF204:
 6186 00f6 72656743 		.ascii	"regCR1\000"
 6186      523100
 6187              	.LASF64:
 6188 00fd 6D5F6F77 		.ascii	"m_owner\000"
 6188      6E657200 
 6189              	.LASF53:
 6190 0105 76745F70 		.ascii	"vt_par\000"
 6190      617200
 6191              	.LASF67:
 6192 010c 65786974 		.ascii	"exitcode\000"
 6192      636F6465 
 6192      00
 6193              	.LASF161:
 6194 0115 69326361 		.ascii	"i2caddr_t\000"
 6194      6464725F 
 6194      7400
 6195              	.LASF115:
 6196 011f 53504932 		.ascii	"SPI2_IRQn\000"
 6196      5F495251 
 6196      6E00
 6197              	.LASF170:
 6198 0129 69326364 		.ascii	"i2cdutycycle_t\000"
 6198      75747963 
 6198      79636C65 
 6198      5F7400
 6199              	.LASF28:
 6200 0138 705F6E65 		.ascii	"p_newer\000"
 6200      77657200 
 6201              	.LASF9:
 6202 0140 6C6F6E67 		.ascii	"long int\000"
 6202      20696E74 
 6202      00
ARM GAS  C:\Users\z80\AppData\Local\Temp\ccHBr3N4.s 			page 114


 6203              	.LASF24:
 6204 0149 705F6E65 		.ascii	"p_next\000"
 6204      787400
 6205              	.LASF216:
 6206 0150 6932635F 		.ascii	"i2c_lld_stop\000"
 6206      6C6C645F 
 6206      73746F70 
 6206      00
 6207              	.LASF25:
 6208 015d 705F7072 		.ascii	"p_prev\000"
 6208      657600
 6209              	.LASF81:
 6210 0164 54414D50 		.ascii	"TAMPER_IRQn\000"
 6210      45525F49 
 6210      52516E00 
 6211              	.LASF17:
 6212 0170 74737461 		.ascii	"tstate_t\000"
 6212      74655F74 
 6212      00
 6213              	.LASF39:
 6214 0179 705F6D74 		.ascii	"p_mtxlist\000"
 6214      786C6973 
 6214      7400
 6215              	.LASF190:
 6216 0183 74786275 		.ascii	"txbuf\000"
 6216      6600
 6217              	.LASF43:
 6218 0189 72656761 		.ascii	"regarm_t\000"
 6218      726D5F74 
 6218      00
 6219              	.LASF143:
 6220 0192 41504232 		.ascii	"APB2ENR\000"
 6220      454E5200 
 6221              	.LASF211:
 6222 019a 6932635F 		.ascii	"i2c_lld_serve_error_interrupt\000"
 6222      6C6C645F 
 6222      73657276 
 6222      655F6572 
 6222      726F725F 
 6223              	.LASF78:
 6224 01b8 53797354 		.ascii	"SysTick_IRQn\000"
 6224      69636B5F 
 6224      4952516E 
 6224      00
 6225              	.LASF118:
 6226 01c5 55534152 		.ascii	"USART3_IRQn\000"
 6226      54335F49 
 6226      52516E00 
 6227              	.LASF123:
 6228 01d1 43504152 		.ascii	"CPAR\000"
 6228      00
 6229              	.LASF1:
 6230 01d6 7369676E 		.ascii	"signed char\000"
 6230      65642063 
 6230      68617200 
 6231              	.LASF69:
 6232 01e2 65776D61 		.ascii	"ewmask\000"
ARM GAS  C:\Users\z80\AppData\Local\Temp\ccHBr3N4.s 			page 115


 6232      736B00
 6233              	.LASF3:
 6234 01e9 75696E74 		.ascii	"uint8_t\000"
 6234      385F7400 
 6235              	.LASF20:
 6236 01f1 6576656E 		.ascii	"eventmask_t\000"
 6236      746D6173 
 6236      6B5F7400 
 6237              	.LASF46:
 6238 01fd 636F6E74 		.ascii	"context\000"
 6238      65787400 
 6239              	.LASF126:
 6240 0205 52455345 		.ascii	"RESERVED0\000"
 6240      52564544 
 6240      3000
 6241              	.LASF127:
 6242 020f 52455345 		.ascii	"RESERVED1\000"
 6242      52564544 
 6242      3100
 6243              	.LASF4:
 6244 0219 756E7369 		.ascii	"unsigned char\000"
 6244      676E6564 
 6244      20636861 
 6244      7200
 6245              	.LASF131:
 6246 0227 52455345 		.ascii	"RESERVED3\000"
 6246      52564544 
 6246      3300
 6247              	.LASF132:
 6248 0231 52455345 		.ascii	"RESERVED4\000"
 6248      52564544 
 6248      3400
 6249              	.LASF133:
 6250 023b 52455345 		.ascii	"RESERVED5\000"
 6250      52564544 
 6250      3500
 6251              	.LASF134:
 6252 0245 52455345 		.ascii	"RESERVED6\000"
 6252      52564544 
 6252      3600
 6253              	.LASF135:
 6254 024f 52455345 		.ascii	"RESERVED7\000"
 6254      52564544 
 6254      3700
 6255              	.LASF137:
 6256 0259 52455345 		.ascii	"RESERVED8\000"
 6256      52564544 
 6256      3800
 6257              	.LASF50:
 6258 0263 76745F70 		.ascii	"vt_prev\000"
 6258      72657600 
 6259              	.LASF111:
 6260 026b 49324331 		.ascii	"I2C1_ER_IRQn\000"
 6260      5F45525F 
 6260      4952516E 
 6260      00
 6261              	.LASF57:
ARM GAS  C:\Users\z80\AppData\Local\Temp\ccHBr3N4.s 			page 116


 6262 0278 725F6E65 		.ascii	"r_newer\000"
 6262      77657200 
 6263              	.LASF90:
 6264 0280 444D4131 		.ascii	"DMA1_Channel1_IRQn\000"
 6264      5F436861 
 6264      6E6E656C 
 6264      315F4952 
 6264      516E00
 6265              	.LASF158:
 6266 0293 4932435F 		.ascii	"I2C_ACTIVE_RX\000"
 6266      41435449 
 6266      56455F52 
 6266      5800
 6267              	.LASF103:
 6268 02a1 54494D31 		.ascii	"TIM1_BRK_IRQn\000"
 6268      5F42524B 
 6268      5F495251 
 6268      6E00
 6269              	.LASF129:
 6270 02af 52455345 		.ascii	"RESERVED2\000"
 6270      52564544 
 6270      3200
 6271              	.LASF74:
 6272 02b9 55736167 		.ascii	"UsageFault_IRQn\000"
 6272      65466175 
 6272      6C745F49 
 6272      52516E00 
 6273              	.LASF98:
 6274 02c9 5553425F 		.ascii	"USB_HP_CAN1_TX_IRQn\000"
 6274      48505F43 
 6274      414E315F 
 6274      54585F49 
 6274      52516E00 
 6275              	.LASF163:
 6276 02dd 4F504D4F 		.ascii	"OPMODE_I2C\000"
 6276      44455F49 
 6276      324300
 6277              	.LASF70:
 6278 02e8 63686172 		.ascii	"char\000"
 6278      00
 6279              	.LASF224:
 6280 02ed 49324344 		.ascii	"I2CD1\000"
 6280      3100
 6281              	.LASF149:
 6282 02f3 69736869 		.ascii	"ishift\000"
 6282      667400
 6283              	.LASF26:
 6284 02fa 705F7072 		.ascii	"p_prio\000"
 6284      696F00
 6285              	.LASF68:
 6286 0301 77746F62 		.ascii	"wtobjp\000"
 6286      6A7000
 6287              	.LASF178:
 6288 0308 6572726F 		.ascii	"errors\000"
 6288      727300
 6289              	.LASF209:
 6290 030f 666C6167 		.ascii	"flags\000"
ARM GAS  C:\Users\z80\AppData\Local\Temp\ccHBr3N4.s 			page 117


 6290      7300
 6291              	.LASF44:
 6292 0315 73746B61 		.ascii	"stkalign_t\000"
 6292      6C69676E 
 6292      5F7400
 6293              	.LASF208:
 6294 0320 6932635F 		.ascii	"i2c_lld_serve_rx_end_irq\000"
 6294      6C6C645F 
 6294      73657276 
 6294      655F7278 
 6294      5F656E64 
 6295              	.LASF157:
 6296 0339 4932435F 		.ascii	"I2C_ACTIVE_TX\000"
 6296      41435449 
 6296      56455F54 
 6296      5800
 6297              	.LASF109:
 6298 0347 54494D34 		.ascii	"TIM4_IRQn\000"
 6298      5F495251 
 6298      6E00
 6299              	.LASF121:
 6300 0351 5553425F 		.ascii	"USB_FS_WKUP_IRQn\000"
 6300      46535F57 
 6300      4B55505F 
 6300      4952516E 
 6300      00
 6301              	.LASF117:
 6302 0362 55534152 		.ascii	"USART2_IRQn\000"
 6302      54325F49 
 6302      52516E00 
 6303              	.LASF227:
 6304 036e 64626743 		.ascii	"dbgCR1\000"
 6304      523100
 6305              	.LASF228:
 6306 0375 64626743 		.ascii	"dbgCR2\000"
 6306      523200
 6307              	.LASF145:
 6308 037c 42444352 		.ascii	"BDCR\000"
 6308      00
 6309              	.LASF22:
 6310 0381 636E745F 		.ascii	"cnt_t\000"
 6310      7400
 6311              	.LASF110:
 6312 0387 49324331 		.ascii	"I2C1_EV_IRQn\000"
 6312      5F45565F 
 6312      4952516E 
 6312      00
 6313              	.LASF192:
 6314 0394 7478696E 		.ascii	"txind\000"
 6314      6400
 6315              	.LASF52:
 6316 039a 76745F66 		.ascii	"vt_func\000"
 6316      756E6300 
 6317              	.LASF205:
 6318 03a2 6932635F 		.ascii	"i2c_lld_serve_event_interrupt\000"
 6318      6C6C645F 
 6318      73657276 
ARM GAS  C:\Users\z80\AppData\Local\Temp\ccHBr3N4.s 			page 118


 6318      655F6576 
 6318      656E745F 
 6319              	.LASF45:
 6320 03c0 696E7463 		.ascii	"intctx\000"
 6320      747800
 6321              	.LASF38:
 6322 03c7 705F6570 		.ascii	"p_epending\000"
 6322      656E6469 
 6322      6E6700
 6323              	.LASF159:
 6324 03d2 4932435F 		.ascii	"I2C_LOCKED\000"
 6324      4C4F434B 
 6324      454400
 6325              	.LASF173:
 6326 03dd 64757479 		.ascii	"duty_cycle\000"
 6326      5F637963 
 6326      6C6500
 6327              	.LASF139:
 6328 03e8 43464752 		.ascii	"CFGR\000"
 6328      00
 6329              	.LASF106:
 6330 03ed 54494D31 		.ascii	"TIM1_CC_IRQn\000"
 6330      5F43435F 
 6330      4952516E 
 6330      00
 6331              	.LASF86:
 6332 03fa 45585449 		.ascii	"EXTI1_IRQn\000"
 6332      315F4952 
 6332      516E00
 6333              	.LASF175:
 6334 0405 49324344 		.ascii	"I2CDriver\000"
 6334      72697665 
 6334      7200
 6335              	.LASF231:
 6336 040f 433A5C70 		.ascii	"C:\\projects\\voltamper.git\\firmware\\voltamp\000"
 6336      726F6A65 
 6336      6374735C 
 6336      766F6C74 
 6336      616D7065 
 6337              	.LASF71:
 6338 043a 4E6F6E4D 		.ascii	"NonMaskableInt_IRQn\000"
 6338      61736B61 
 6338      626C6549 
 6338      6E745F49 
 6338      52516E00 
 6339              	.LASF79:
 6340 044e 57574447 		.ascii	"WWDG_IRQn\000"
 6340      5F495251 
 6340      6E00
 6341              	.LASF11:
 6342 0458 6C6F6E67 		.ascii	"long unsigned int\000"
 6342      20756E73 
 6342      69676E65 
 6342      6420696E 
 6342      7400
 6343              	.LASF72:
 6344 046a 4D656D6F 		.ascii	"MemoryManagement_IRQn\000"
ARM GAS  C:\Users\z80\AppData\Local\Temp\ccHBr3N4.s 			page 119


 6344      72794D61 
 6344      6E616765 
 6344      6D656E74 
 6344      5F495251 
 6345              	.LASF93:
 6346 0480 444D4131 		.ascii	"DMA1_Channel4_IRQn\000"
 6346      5F436861 
 6346      6E6E656C 
 6346      345F4952 
 6346      516E00
 6347              	.LASF147:
 6348 0493 6368616E 		.ascii	"channel\000"
 6348      6E656C00 
 6349              	.LASF101:
 6350 049b 43414E31 		.ascii	"CAN1_SCE_IRQn\000"
 6350      5F534345 
 6350      5F495251 
 6350      6E00
 6351              	.LASF223:
 6352 04a9 5F73746D 		.ascii	"_stm32_dma_streams\000"
 6352      33325F64 
 6352      6D615F73 
 6352      74726561 
 6352      6D7300
 6353              	.LASF136:
 6354 04bc 54524953 		.ascii	"TRISE\000"
 6354      4500
 6355              	.LASF152:
 6356 04c2 73746D33 		.ascii	"stm32_dma_stream_t\000"
 6356      325F646D 
 6356      615F7374 
 6356      7265616D 
 6356      5F7400
 6357              	.LASF189:
 6358 04d5 72786362 		.ascii	"rxcb\000"
 6358      00
 6359              	.LASF230:
 6360 04da 2E2E2F63 		.ascii	"../chibios_2.4.x/os/hal/platforms/STM32/i2c_lld.c\000"
 6360      68696269 
 6360      6F735F32 
 6360      2E342E78 
 6360      2F6F732F 
 6361              	.LASF193:
 6362 050c 74786362 		.ascii	"txcb\000"
 6362      00
 6363              	.LASF113:
 6364 0511 49324332 		.ascii	"I2C2_ER_IRQn\000"
 6364      5F45525F 
 6364      4952516E 
 6364      00
 6365              	.LASF73:
 6366 051e 42757346 		.ascii	"BusFault_IRQn\000"
 6366      61756C74 
 6366      5F495251 
 6366      6E00
 6367              	.LASF197:
 6368 052c 69326370 		.ascii	"i2cp\000"
ARM GAS  C:\Users\z80\AppData\Local\Temp\ccHBr3N4.s 			page 120


 6368      00
 6369              	.LASF186:
 6370 0531 72786275 		.ascii	"rxbuf\000"
 6370      6600
 6371              	.LASF183:
 6372 0537 646D6172 		.ascii	"dmarx\000"
 6372      7800
 6373              	.LASF62:
 6374 053d 4D757465 		.ascii	"Mutex\000"
 6374      7800
 6375              	.LASF12:
 6376 0543 6C6F6E67 		.ascii	"long long int\000"
 6376      206C6F6E 
 6376      6720696E 
 6376      7400
 6377              	.LASF154:
 6378 0551 4932435F 		.ascii	"I2C_UNINIT\000"
 6378      554E494E 
 6378      495400
 6379              	.LASF63:
 6380 055c 6D5F7175 		.ascii	"m_queue\000"
 6380      65756500 
 6381              	.LASF49:
 6382 0564 76745F6E 		.ascii	"vt_next\000"
 6382      65787400 
 6383              	.LASF114:
 6384 056c 53504931 		.ascii	"SPI1_IRQn\000"
 6384      5F495251 
 6384      6E00
 6385              	.LASF75:
 6386 0576 53564361 		.ascii	"SVCall_IRQn\000"
 6386      6C6C5F49 
 6386      52516E00 
 6387              	.LASF140:
 6388 0582 41504232 		.ascii	"APB2RSTR\000"
 6388      52535452 
 6388      00
 6389              	.LASF195:
 6390 058b 6932635F 		.ascii	"i2c_lld_abort_operation\000"
 6390      6C6C645F 
 6390      61626F72 
 6390      745F6F70 
 6390      65726174 
 6391              	.LASF160:
 6392 05a3 69326373 		.ascii	"i2cstate_t\000"
 6392      74617465 
 6392      5F7400
 6393              	.LASF179:
 6394 05ae 6D757465 		.ascii	"mutex\000"
 6394      7800
 6395              	.LASF222:
 6396 05b4 49544D5F 		.ascii	"ITM_RxBuffer\000"
 6396      52784275 
 6396      66666572 
 6396      00
 6397              	.LASF217:
 6398 05c1 74696D65 		.ascii	"timeout\000"
ARM GAS  C:\Users\z80\AppData\Local\Temp\ccHBr3N4.s 			page 121


 6398      6F757400 
 6399              	.LASF182:
 6400 05c9 646D616D 		.ascii	"dmamode\000"
 6400      6F646500 
 6401              	.LASF35:
 6402 05d1 705F7761 		.ascii	"p_waiting\000"
 6402      6974696E 
 6402      6700
 6403              	.LASF207:
 6404 05db 6576656E 		.ascii	"event\000"
 6404      7400
 6405              	.LASF181:
 6406 05e1 61646472 		.ascii	"addr\000"
 6406      00
 6407              	.LASF184:
 6408 05e6 646D6174 		.ascii	"dmatx\000"
 6408      7800
 6409              	.LASF33:
 6410 05ec 705F666C 		.ascii	"p_flags\000"
 6410      61677300 
 6411              	.LASF225:
 6412 05f4 64626753 		.ascii	"dbgSR1\000"
 6412      523100
 6413              	.LASF226:
 6414 05fb 64626753 		.ascii	"dbgSR2\000"
 6414      523200
 6415              	.LASF150:
 6416 0602 73656C66 		.ascii	"selfindex\000"
 6416      696E6465 
 6416      7800
 6417              	.LASF0:
 6418 060c 756E7369 		.ascii	"unsigned int\000"
 6418      676E6564 
 6418      20696E74 
 6418      00
 6419              	.LASF112:
 6420 0619 49324332 		.ascii	"I2C2_EV_IRQn\000"
 6420      5F45565F 
 6420      4952516E 
 6420      00
 6421              	.LASF187:
 6422 0626 72786279 		.ascii	"rxbytes\000"
 6422      74657300 
 6423              	.LASF124:
 6424 062e 434D4152 		.ascii	"CMAR\000"
 6424      00
 6425              	.LASF96:
 6426 0633 444D4131 		.ascii	"DMA1_Channel7_IRQn\000"
 6426      5F436861 
 6426      6E6E656C 
 6426      375F4952 
 6426      516E00
 6427              	.LASF42:
 6428 0646 54687265 		.ascii	"ThreadsList\000"
 6428      6164734C 
 6428      69737400 
 6429              	.LASF156:
ARM GAS  C:\Users\z80\AppData\Local\Temp\ccHBr3N4.s 			page 122


 6430 0652 4932435F 		.ascii	"I2C_READY\000"
 6430      52454144 
 6430      5900
 6431              	.LASF34:
 6432 065c 705F7469 		.ascii	"p_time\000"
 6432      6D6500
 6433              	.LASF199:
 6434 0663 72656743 		.ascii	"regCCR\000"
 6434      435200
 6435              	.LASF232:
 6436 066a 4952516E 		.ascii	"IRQn\000"
 6436      00
 6437              	.LASF59:
 6438 066f 725F7072 		.ascii	"r_preempt\000"
 6438      65656D70 
 6438      7400
 6439              	.LASF40:
 6440 0679 705F7265 		.ascii	"p_realprio\000"
 6440      616C7072 
 6440      696F00
 6441              	.LASF218:
 6442 0684 6932635F 		.ascii	"i2c_lld_master_receive_timeout\000"
 6442      6C6C645F 
 6442      6D617374 
 6442      65725F72 
 6442      65636569 
 6443              	.LASF188:
 6444 06a3 7278696E 		.ascii	"rxind\000"
 6444      6400
 6445              	.LASF174:
 6446 06a9 49324343 		.ascii	"I2CConfig\000"
 6446      6F6E6669 
 6446      6700
 6447              	.LASF105:
 6448 06b3 54494D31 		.ascii	"TIM1_TRG_COM_IRQn\000"
 6448      5F545247 
 6448      5F434F4D 
 6448      5F495251 
 6448      6E00
 6449              	.LASF125:
 6450 06c5 444D415F 		.ascii	"DMA_Channel_TypeDef\000"
 6450      4368616E 
 6450      6E656C5F 
 6450      54797065 
 6450      44656600 
 6451              	.LASF153:
 6452 06d9 73746D33 		.ascii	"stm32_dmaisr_t\000"
 6452      325F646D 
 6452      61697372 
 6452      5F7400
 6453              	.LASF120:
 6454 06e8 5254435F 		.ascii	"RTC_Alarm_IRQn\000"
 6454      416C6172 
 6454      6D5F4952 
 6454      516E00
 6455              	.LASF144:
 6456 06f7 41504231 		.ascii	"APB1ENR\000"
ARM GAS  C:\Users\z80\AppData\Local\Temp\ccHBr3N4.s 			page 123


 6456      454E5200 
 6457              	.LASF191:
 6458 06ff 74786279 		.ascii	"txbytes\000"
 6458      74657300 
 6459              	.LASF229:
 6460 0707 474E5520 		.ascii	"GNU C 4.5.0\000"
 6460      4320342E 
 6460      352E3000 
 6461              	.LASF119:
 6462 0713 45585449 		.ascii	"EXTI15_10_IRQn\000"
 6462      31355F31 
 6462      305F4952 
 6462      516E00
 6463              	.LASF14:
 6464 0722 6C6F6E67 		.ascii	"long long unsigned int\000"
 6464      206C6F6E 
 6464      6720756E 
 6464      7369676E 
 6464      65642069 
 6465              	.LASF29:
 6466 0739 705F6F6C 		.ascii	"p_older\000"
 6466      64657200 
 6467              	.LASF214:
 6468 0741 6932635F 		.ascii	"i2c_lld_init\000"
 6468      6C6C645F 
 6468      696E6974 
 6468      00
 6469              	.LASF166:
 6470 074e 6932636F 		.ascii	"i2copmode_t\000"
 6470      706D6F64 
 6470      655F7400 
 6471              	.LASF6:
 6472 075a 75696E74 		.ascii	"uint16_t\000"
 6472      31365F74 
 6472      00
 6473              	.LASF19:
 6474 0763 6D73675F 		.ascii	"msg_t\000"
 6474      7400
 6475              	.LASF108:
 6476 0769 54494D33 		.ascii	"TIM3_IRQn\000"
 6476      5F495251 
 6476      6E00
 6477              	.LASF116:
 6478 0773 55534152 		.ascii	"USART1_IRQn\000"
 6478      54315F49 
 6478      52516E00 
 6479              	.LASF60:
 6480 077f 725F6375 		.ascii	"r_current\000"
 6480      7272656E 
 6480      7400
 6481              	.LASF87:
 6482 0789 45585449 		.ascii	"EXTI2_IRQn\000"
 6482      325F4952 
 6482      516E00
 6483              	.LASF151:
 6484 0794 76656374 		.ascii	"vector\000"
 6484      6F7200
ARM GAS  C:\Users\z80\AppData\Local\Temp\ccHBr3N4.s 			page 124


 6485              	.LASF138:
 6486 079b 4932435F 		.ascii	"I2C_TypeDef\000"
 6486      54797065 
 6486      44656600 
 6487              	.LASF167:
 6488 07a7 5354445F 		.ascii	"STD_DUTY_CYCLE\000"
 6488      44555459 
 6488      5F435943 
 6488      4C4500
 6489              	.LASF203:
 6490 07b6 6F706D6F 		.ascii	"opmode\000"
 6490      646500
 6491              	.LASF185:
 6492 07bd 736C6176 		.ascii	"slave_mode\000"
 6492      655F6D6F 
 6492      646500
 6493              	.LASF54:
 6494 07c8 725F7175 		.ascii	"r_queue\000"
 6494      65756500 
 6495              	.LASF80:
 6496 07d0 5056445F 		.ascii	"PVD_IRQn\000"
 6496      4952516E 
 6496      00
 6497              	.LASF206:
 6498 07d9 72656753 		.ascii	"regSR\000"
 6498      5200
 6499              	.LASF85:
 6500 07df 45585449 		.ascii	"EXTI0_IRQn\000"
 6500      305F4952 
 6500      516E00
 6501              	.LASF221:
 6502 07ea 726C6973 		.ascii	"rlist\000"
 6502      7400
 6503              	.LASF16:
 6504 07f0 746D6F64 		.ascii	"tmode_t\000"
 6504      655F7400 
 6505              	.LASF128:
 6506 07f8 4F415231 		.ascii	"OAR1\000"
 6506      00
 6507              	.LASF130:
 6508 07fd 4F415232 		.ascii	"OAR2\000"
 6508      00
 6509              	.LASF76:
 6510 0802 44656275 		.ascii	"DebugMonitor_IRQn\000"
 6510      674D6F6E 
 6510      69746F72 
 6510      5F495251 
 6510      6E00
 6511              	.LASF58:
 6512 0814 725F6F6C 		.ascii	"r_older\000"
 6512      64657200 
 6513              	.LASF180:
 6514 081c 74687265 		.ascii	"thread\000"
 6514      616400
 6515              	.LASF99:
 6516 0823 5553425F 		.ascii	"USB_LP_CAN1_RX0_IRQn\000"
 6516      4C505F43 
ARM GAS  C:\Users\z80\AppData\Local\Temp\ccHBr3N4.s 			page 125


 6516      414E315F 
 6516      5258305F 
 6516      4952516E 
 6517              	.LASF92:
 6518 0838 444D4131 		.ascii	"DMA1_Channel3_IRQn\000"
 6518      5F436861 
 6518      6E6E656C 
 6518      335F4952 
 6518      516E00
 6519              	.LASF146:
 6520 084b 5243435F 		.ascii	"RCC_TypeDef\000"
 6520      54797065 
 6520      44656600 
 6521              	.LASF5:
 6522 0857 73686F72 		.ascii	"short int\000"
 6522      7420696E 
 6522      7400
 6523              	.LASF202:
 6524 0861 6932635F 		.ascii	"i2c_lld_set_opmode\000"
 6524      6C6C645F 
 6524      7365745F 
 6524      6F706D6F 
 6524      646500
 6525              	.LASF13:
 6526 0874 75696E74 		.ascii	"uint64_t\000"
 6526      36345F74 
 6526      00
 6527              	.LASF84:
 6528 087d 5243435F 		.ascii	"RCC_IRQn\000"
 6528      4952516E 
 6528      00
 6529              	.LASF141:
 6530 0886 41504231 		.ascii	"APB1RSTR\000"
 6530      52535452 
 6530      00
 6531              	.LASF55:
 6532 088f 725F7072 		.ascii	"r_prio\000"
 6532      696F00
 6533              	.LASF165:
 6534 0896 4F504D4F 		.ascii	"OPMODE_SMBUS_HOST\000"
 6534      44455F53 
 6534      4D425553 
 6534      5F484F53 
 6534      5400
 6535              	.LASF97:
 6536 08a8 41444331 		.ascii	"ADC1_2_IRQn\000"
 6536      5F325F49 
 6536      52516E00 
 6537              	.LASF142:
 6538 08b4 41484245 		.ascii	"AHBENR\000"
 6538      4E5200
 6539              	.LASF15:
 6540 08bb 626F6F6C 		.ascii	"bool_t\000"
 6540      5F7400
 6541              	.LASF212:
 6542 08c2 56656374 		.ascii	"VectorBC\000"
 6542      6F724243 
ARM GAS  C:\Users\z80\AppData\Local\Temp\ccHBr3N4.s 			page 126


 6542      00
 6543              	.LASF23:
 6544 08cb 54687265 		.ascii	"Thread\000"
 6544      616400
 6545              	.LASF91:
 6546 08d2 444D4131 		.ascii	"DMA1_Channel2_IRQn\000"
 6546      5F436861 
 6546      6E6E656C 
 6546      325F4952 
 6546      516E00
 6547              	.LASF219:
 6548 08e5 6932635F 		.ascii	"i2c_lld_master_transmit_timeout\000"
 6548      6C6C645F 
 6548      6D617374 
 6548      65725F74 
 6548      72616E73 
 6549              	.LASF213:
 6550 0905 56656374 		.ascii	"VectorC0\000"
 6550      6F724330 
 6550      00
 6551              	.LASF194:
 6552 090e 54493263 		.ascii	"TI2cSlaveCb\000"
 6552      536C6176 
 6552      65436200 
 6553              	.LASF171:
 6554 091a 6F705F6D 		.ascii	"op_mode\000"
 6554      6F646500 
 6555              	.LASF10:
 6556 0922 75696E74 		.ascii	"uint32_t\000"
 6556      33325F74 
 6556      00
 6557              	.LASF48:
 6558 092b 56697274 		.ascii	"VirtualTimer\000"
 6558      75616C54 
 6558      696D6572 
 6558      00
 6559              	.LASF104:
 6560 0938 54494D31 		.ascii	"TIM1_UP_IRQn\000"
 6560      5F55505F 
 6560      4952516E 
 6560      00
 6561              	.LASF100:
 6562 0945 43414E31 		.ascii	"CAN1_RX1_IRQn\000"
 6562      5F525831 
 6562      5F495251 
 6562      6E00
 6563              	.LASF41:
 6564 0953 54687265 		.ascii	"ThreadsQueue\000"
 6564      61647351 
 6564      75657565 
 6564      00
 6565              	.LASF198:
 6566 0960 6932635F 		.ascii	"i2c_lld_set_clock\000"
 6566      6C6C645F 
 6566      7365745F 
 6566      636C6F63 
 6566      6B00
ARM GAS  C:\Users\z80\AppData\Local\Temp\ccHBr3N4.s 			page 127


 6567              	.LASF162:
 6568 0972 69326366 		.ascii	"i2cflags_t\000"
 6568      6C616773 
 6568      5F7400
 6569              	.LASF102:
 6570 097d 45585449 		.ascii	"EXTI9_5_IRQn\000"
 6570      395F355F 
 6570      4952516E 
 6570      00
 6571              	.LASF66:
 6572 098a 7264796D 		.ascii	"rdymsg\000"
 6572      736700
 6573              	.LASF89:
 6574 0991 45585449 		.ascii	"EXTI4_IRQn\000"
 6574      345F4952 
 6574      516E00
 6575              	.LASF7:
 6576 099c 73686F72 		.ascii	"short unsigned int\000"
 6576      7420756E 
 6576      7369676E 
 6576      65642069 
 6576      6E7400
 6577              	.LASF172:
 6578 09af 636C6F63 		.ascii	"clock_speed\000"
 6578      6B5F7370 
 6578      65656400 
 6579              	.LASF88:
 6580 09bb 45585449 		.ascii	"EXTI3_IRQn\000"
 6580      335F4952 
 6580      516E00
 6581              	.LASF77:
 6582 09c6 50656E64 		.ascii	"PendSV_IRQn\000"
 6582      53565F49 
 6582      52516E00 
 6583              	.LASF31:
 6584 09d2 705F7374 		.ascii	"p_stklimit\000"
 6584      6B6C696D 
 6584      697400
 6585              	.LASF210:
 6586 09dd 6932635F 		.ascii	"i2c_lld_serve_tx_end_irq\000"
 6586      6C6C645F 
 6586      73657276 
 6586      655F7478 
 6586      5F656E64 
 6587              	.LASF148:
 6588 09f6 69666372 		.ascii	"ifcr\000"
 6588      00
 6589              	.LASF215:
 6590 09fb 6932635F 		.ascii	"i2c_lld_start\000"
 6590      6C6C645F 
 6590      73746172 
 6590      7400
 6591              	.LASF61:
 6592 0a09 52656164 		.ascii	"ReadyList\000"
 6592      794C6973 
 6592      7400
 6593              	.LASF155:
ARM GAS  C:\Users\z80\AppData\Local\Temp\ccHBr3N4.s 			page 128


 6594 0a13 4932435F 		.ascii	"I2C_STOP\000"
 6594      53544F50 
 6594      00
 6595              	.LASF30:
 6596 0a1c 705F6E61 		.ascii	"p_name\000"
 6596      6D6500
 6597              	.LASF51:
 6598 0a23 76745F74 		.ascii	"vt_time\000"
 6598      696D6500 
 6599              	.LASF95:
 6600 0a2b 444D4131 		.ascii	"DMA1_Channel6_IRQn\000"
 6600      5F436861 
 6600      6E6E656C 
 6600      365F4952 
 6600      516E00
 6601              	.LASF65:
 6602 0a3e 6D5F6E65 		.ascii	"m_next\000"
 6602      787400
 6603              	.LASF82:
 6604 0a45 5254435F 		.ascii	"RTC_IRQn\000"
 6604      4952516E 
 6604      00
 6605              	.LASF37:
 6606 0a4e 705F6D73 		.ascii	"p_msg\000"
 6606      6700
 6607              	.LASF32:
 6608 0a54 705F7374 		.ascii	"p_state\000"
 6608      61746500 
 6609              		.ident	"GCC: (GNU) 4.5.0"
ARM GAS  C:\Users\z80\AppData\Local\Temp\ccHBr3N4.s 			page 129


DEFINED SYMBOLS
                            *ABS*:00000000 i2c_lld.c
C:\Users\z80\AppData\Local\Temp\ccHBr3N4.s:28     .bss.I2CD1:00000000 I2CD1
C:\Users\z80\AppData\Local\Temp\ccHBr3N4.s:25     .bss.I2CD1:00000000 $d
C:\Users\z80\AppData\Local\Temp\ccHBr3N4.s:31     .bss.dbgSR1:00000000 $d
C:\Users\z80\AppData\Local\Temp\ccHBr3N4.s:34     .bss.dbgSR1:00000000 dbgSR1
C:\Users\z80\AppData\Local\Temp\ccHBr3N4.s:37     .bss.dbgSR2:00000000 $d
C:\Users\z80\AppData\Local\Temp\ccHBr3N4.s:40     .bss.dbgSR2:00000000 dbgSR2
C:\Users\z80\AppData\Local\Temp\ccHBr3N4.s:43     .bss.dbgCR1:00000000 $d
C:\Users\z80\AppData\Local\Temp\ccHBr3N4.s:46     .bss.dbgCR1:00000000 dbgCR1
C:\Users\z80\AppData\Local\Temp\ccHBr3N4.s:49     .bss.dbgCR2:00000000 $d
C:\Users\z80\AppData\Local\Temp\ccHBr3N4.s:52     .bss.dbgCR2:00000000 dbgCR2
C:\Users\z80\AppData\Local\Temp\ccHBr3N4.s:55     .text.i2c_lld_abort_operation:00000000 $t
C:\Users\z80\AppData\Local\Temp\ccHBr3N4.s:60     .text.i2c_lld_abort_operation:00000000 i2c_lld_abort_operation
C:\Users\z80\AppData\Local\Temp\ccHBr3N4.s:137    .text.i2c_lld_safety_timeout:00000000 $t
C:\Users\z80\AppData\Local\Temp\ccHBr3N4.s:142    .text.i2c_lld_safety_timeout:00000000 i2c_lld_safety_timeout
C:\Users\z80\AppData\Local\Temp\ccHBr3N4.s:192    .rodata:00000000 $d
C:\Users\z80\AppData\Local\Temp\ccHBr3N4.s:193    .rodata:00000000 .LC0
C:\Users\z80\AppData\Local\Temp\ccHBr3N4.s:196    .rodata:00000018 .LC1
C:\Users\z80\AppData\Local\Temp\ccHBr3N4.s:199    .rodata:00000030 .LC2
C:\Users\z80\AppData\Local\Temp\ccHBr3N4.s:202    .rodata:00000048 .LC3
C:\Users\z80\AppData\Local\Temp\ccHBr3N4.s:205    .rodata:00000060 .LC4
C:\Users\z80\AppData\Local\Temp\ccHBr3N4.s:208    .rodata:00000078 .LC5
C:\Users\z80\AppData\Local\Temp\ccHBr3N4.s:211    .rodata:00000090 .LC6
C:\Users\z80\AppData\Local\Temp\ccHBr3N4.s:214    .rodata:000000a8 .LC7
C:\Users\z80\AppData\Local\Temp\ccHBr3N4.s:217    .rodata:000000c0 .LC8
C:\Users\z80\AppData\Local\Temp\ccHBr3N4.s:220    .text.i2c_lld_set_clock:00000000 $t
C:\Users\z80\AppData\Local\Temp\ccHBr3N4.s:225    .text.i2c_lld_set_clock:00000000 i2c_lld_set_clock
C:\Users\z80\AppData\Local\Temp\ccHBr3N4.s:493    .text.i2c_lld_set_opmode:00000000 $t
C:\Users\z80\AppData\Local\Temp\ccHBr3N4.s:498    .text.i2c_lld_set_opmode:00000000 i2c_lld_set_opmode
C:\Users\z80\AppData\Local\Temp\ccHBr3N4.s:567    .text.i2c_lld_serve_event_interrupt:00000000 $t
C:\Users\z80\AppData\Local\Temp\ccHBr3N4.s:572    .text.i2c_lld_serve_event_interrupt:00000000 i2c_lld_serve_event_interrupt
C:\Users\z80\AppData\Local\Temp\ccHBr3N4.s:954    .text.i2c_lld_serve_rx_end_irq:00000000 $t
C:\Users\z80\AppData\Local\Temp\ccHBr3N4.s:959    .text.i2c_lld_serve_rx_end_irq:00000000 i2c_lld_serve_rx_end_irq
C:\Users\z80\AppData\Local\Temp\ccHBr3N4.s:1079   .text.i2c_lld_serve_tx_end_irq:00000000 $t
C:\Users\z80\AppData\Local\Temp\ccHBr3N4.s:1084   .text.i2c_lld_serve_tx_end_irq:00000000 i2c_lld_serve_tx_end_irq
C:\Users\z80\AppData\Local\Temp\ccHBr3N4.s:1145   .text.i2c_lld_serve_error_interrupt:00000000 $t
C:\Users\z80\AppData\Local\Temp\ccHBr3N4.s:1150   .text.i2c_lld_serve_error_interrupt:00000000 i2c_lld_serve_error_interrupt
C:\Users\z80\AppData\Local\Temp\ccHBr3N4.s:1467   .text.VectorBC:00000000 $t
C:\Users\z80\AppData\Local\Temp\ccHBr3N4.s:1473   .text.VectorBC:00000000 VectorBC
C:\Users\z80\AppData\Local\Temp\ccHBr3N4.s:1499   .text.VectorC0:00000000 $t
C:\Users\z80\AppData\Local\Temp\ccHBr3N4.s:1505   .text.VectorC0:00000000 VectorC0
C:\Users\z80\AppData\Local\Temp\ccHBr3N4.s:1531   .text.i2c_lld_init:00000000 $t
C:\Users\z80\AppData\Local\Temp\ccHBr3N4.s:1537   .text.i2c_lld_init:00000000 i2c_lld_init
C:\Users\z80\AppData\Local\Temp\ccHBr3N4.s:1578   .text.i2c_lld_init:00000048 $d
C:\Users\z80\AppData\Local\Temp\ccHBr3N4.s:1585   .rodata:000000d8 .LC9
C:\Users\z80\AppData\Local\Temp\ccHBr3N4.s:1588   .rodata:000000ec .LC10
C:\Users\z80\AppData\Local\Temp\ccHBr3N4.s:1591   .text.i2c_lld_start:00000000 $t
C:\Users\z80\AppData\Local\Temp\ccHBr3N4.s:1597   .text.i2c_lld_start:00000000 i2c_lld_start
C:\Users\z80\AppData\Local\Temp\ccHBr3N4.s:1771   .text.i2c_lld_stop:00000000 $t
C:\Users\z80\AppData\Local\Temp\ccHBr3N4.s:1777   .text.i2c_lld_stop:00000000 i2c_lld_stop
C:\Users\z80\AppData\Local\Temp\ccHBr3N4.s:1838   .rodata:00000100 .LC11
C:\Users\z80\AppData\Local\Temp\ccHBr3N4.s:1841   .text.i2c_lld_master_receive_timeout:00000000 $t
C:\Users\z80\AppData\Local\Temp\ccHBr3N4.s:1847   .text.i2c_lld_master_receive_timeout:00000000 i2c_lld_master_receive_timeout
C:\Users\z80\AppData\Local\Temp\ccHBr3N4.s:2051   .rodata:00000124 .LC12
C:\Users\z80\AppData\Local\Temp\ccHBr3N4.s:2054   .text.i2c_lld_master_transmit_timeout:00000000 $t
C:\Users\z80\AppData\Local\Temp\ccHBr3N4.s:2060   .text.i2c_lld_master_transmit_timeout:00000000 i2c_lld_master_transmit_timeout
ARM GAS  C:\Users\z80\AppData\Local\Temp\ccHBr3N4.s 			page 130


C:\Users\z80\AppData\Local\Temp\ccHBr3N4.s:2281   .text.i2c_lld_slave_io_timeout:00000000 $t
C:\Users\z80\AppData\Local\Temp\ccHBr3N4.s:2287   .text.i2c_lld_slave_io_timeout:00000000 i2c_lld_slave_io_timeout
                     .debug_frame:00000010 $d

UNDEFINED SYMBOLS
chSchReadyI
chDbgPanic
dbg_check_lock_from_isr
dbg_check_unlock_from_isr
port_halt
dbg_check_enter_isr
dbg_check_leave_isr
_port_irq_epilogue
i2cObjectInit
_stm32_dma_streams
dmaStreamAllocate
nvicEnableVector
dmaStreamRelease
nvicDisableVector
chVTSetI
dbg_check_unlock
dbg_check_lock
rlist
chSchGoSleepS
chVTResetI
