ARM GAS  /tmp/ccObkdYW.s 			page 1


   1              		.syntax unified
   2              		.cpu cortex-m3
   3              		.fpu softvfp
   4              		.eabi_attribute 20, 1
   5              		.eabi_attribute 21, 1
   6              		.eabi_attribute 23, 3
   7              		.eabi_attribute 24, 1
   8              		.eabi_attribute 25, 1
   9              		.eabi_attribute 26, 1
  10              		.eabi_attribute 30, 6
  11              		.eabi_attribute 18, 4
  12              		.thumb
  13              		.file	"iwdg.c"
  20 0000 92010000 		.text
  20      02003C01 
  20      00000201 
  20      FB0E0D00 
  20      01010101 
  21              	.Ltext0:
  22              		.cfi_sections	.debug_frame
  23              		.section	.text.iwdgInit,"ax",%progbits
  24              		.align	2
  25              		.p2align 4,,15
  26              		.global	iwdgInit
  27              		.thumb
  28              		.thumb_func
  29              		.type	iwdgInit, %function
  30              	iwdgInit:
  31              	.LFB62:
  32              		.file 1 "./src/iwdg/iwdg.c"
  33              		.loc 1 70 0
  34              		.cfi_startproc
  35              		@ args = 0, pretend = 0, frame = 0
  36              		@ frame_needed = 0, uses_anonymous_args = 0
  37 0000 08B5     		push	{r3, lr}
  38              	.LCFI0:
  39              		.cfi_def_cfa_offset 8
  40              		.loc 1 71 0
  41              		.cfi_offset 14, -4
  42              		.cfi_offset 3, -8
  43 0002 FFF7FEFF 		bl	iwdg_lld_init
  44              		.loc 1 72 0
  45 0006 08BD     		pop	{r3, pc}
  46              		.cfi_endproc
  47              	.LFE62:
  48              		.size	iwdgInit, .-iwdgInit
  49 0008 AFF30080 		.section	.rodata
  49      AFF30080 
  50              		.align	2
  51              	.LC0:
  52 0000 22697764 		.ascii	"\"iwdgStart\"()\000"
ARM GAS  /tmp/ccObkdYW.s 			page 2


  52      67537461 
  52      72742228 
  52      2900
  53              		.section	.text.iwdgStart,"ax",%progbits
  54              		.align	2
  55              		.p2align 4,,15
  56              		.global	iwdgStart
  57              		.thumb
  58              		.thumb_func
  59              		.type	iwdgStart, %function
  60              	iwdgStart:
  61              	.LFB63:
  62              		.loc 1 84 0
  63              		.cfi_startproc
  64              		@ args = 0, pretend = 0, frame = 8
  65              		@ frame_needed = 0, uses_anonymous_args = 0
  66 0000 00B5     		push	{lr}
  67              	.LCFI1:
  68              		.cfi_def_cfa_offset 4
  69 0002 83B0     		sub	sp, sp, #12
  70              	.LCFI2:
  71              		.cfi_def_cfa_offset 16
  72 0004 0190     		str	r0, [sp, #4]
  73 0006 0091     		str	r1, [sp, #0]
  74              		.loc 1 85 0
  75 0008 019B     		ldr	r3, [sp, #4]
  76 000a 002B     		cmp	r3, #0
  77 000c 02D0     		beq	.L3
  78              		.cfi_offset 14, -4
  79              		.loc 1 85 0 is_stmt 0 discriminator 2
  80 000e 009B     		ldr	r3, [sp, #0]
  81 0010 002B     		cmp	r3, #0
  82 0012 02D1     		bne	.L4
  83              	.L3:
  84              		.loc 1 85 0 discriminator 1
  85 0014 0C48     		ldr	r0, .L5
  86 0016 FFF7FEFF 		bl	chDbgPanic
  87              	.L4:
  88              	.LBB2:
  89              		.loc 1 87 0 is_stmt 1
  90 001a 4FF02003 		mov	r3, #32
  91              	@ 87 "./src/iwdg/iwdg.c" 1
  92 001e 83F31188 		msr     BASEPRI, r3
  93              	@ 0 "" 2
  94              		.thumb
  95              	.LBE2:
  96 0022 FFF7FEFF 		bl	dbg_check_lock
  97              		.loc 1 88 0
  98 0026 0198     		ldr	r0, [sp, #4]
  99 0028 0099     		ldr	r1, [sp, #0]
 100 002a FFF7FEFF 		bl	iwdg_lld_start
 101              		.loc 1 89 0
 102 002e 019B     		ldr	r3, [sp, #4]
 103 0030 4FF00202 		mov	r2, #2
 104 0034 1A70     		strb	r2, [r3, #0]
 105              		.loc 1 90 0
 106 0036 FFF7FEFF 		bl	dbg_check_unlock
ARM GAS  /tmp/ccObkdYW.s 			page 3


 107              	.LBB3:
 108 003a 4FF00003 		mov	r3, #0
 109              	@ 90 "./src/iwdg/iwdg.c" 1
 110 003e 83F31188 		msr     BASEPRI, r3
 111              	@ 0 "" 2
 112              		.thumb
 113              	.LBE3:
 114              		.loc 1 91 0
 115 0042 03B0     		add	sp, sp, #12
 116 0044 00BD     		pop	{pc}
 117              	.L6:
 118 0046 00BF     		.align	2
 119              	.L5:
 120 0048 00000000 		.word	.LC0
 121              		.cfi_endproc
 122              	.LFE63:
 123              		.size	iwdgStart, .-iwdgStart
 124 004c AFF30080 		.section	.rodata
 125 000e 0000     		.align	2
 126              	.LC1:
 127 0010 22697764 		.ascii	"\"iwdgReset\"()\000"
 127      67526573 
 127      65742228 
 127      2900
 128 001e 0000     		.section	.text.iwdgReset,"ax",%progbits
 129              		.align	2
 130              		.p2align 4,,15
 131              		.global	iwdgReset
 132              		.thumb
 133              		.thumb_func
 134              		.type	iwdgReset, %function
 135              	iwdgReset:
 136              	.LFB64:
 137              		.loc 1 101 0
 138              		.cfi_startproc
 139              		@ args = 0, pretend = 0, frame = 8
 140              		@ frame_needed = 0, uses_anonymous_args = 0
 141 0000 00B5     		push	{lr}
 142              	.LCFI3:
 143              		.cfi_def_cfa_offset 4
 144 0002 83B0     		sub	sp, sp, #12
 145              	.LCFI4:
 146              		.cfi_def_cfa_offset 16
 147 0004 0190     		str	r0, [sp, #4]
 148              		.loc 1 102 0
 149 0006 019B     		ldr	r3, [sp, #4]
 150 0008 002B     		cmp	r3, #0
 151 000a 02D1     		bne	.L8
 152              		.cfi_offset 14, -4
 153              		.loc 1 102 0 is_stmt 0 discriminator 1
 154 000c 0948     		ldr	r0, .L9
 155 000e FFF7FEFF 		bl	chDbgPanic
 156              	.L8:
 157              	.LBB4:
 158              		.loc 1 104 0 is_stmt 1
 159 0012 4FF02003 		mov	r3, #32
 160              	@ 104 "./src/iwdg/iwdg.c" 1
ARM GAS  /tmp/ccObkdYW.s 			page 4


 161 0016 83F31188 		msr     BASEPRI, r3
 162              	@ 0 "" 2
 163              		.thumb
 164              	.LBE4:
 165 001a FFF7FEFF 		bl	dbg_check_lock
 166              		.loc 1 105 0
 167 001e 0198     		ldr	r0, [sp, #4]
 168 0020 FFF7FEFF 		bl	iwdg_lld_reset
 169              		.loc 1 106 0
 170 0024 FFF7FEFF 		bl	dbg_check_unlock
 171              	.LBB5:
 172 0028 4FF00003 		mov	r3, #0
 173              	@ 106 "./src/iwdg/iwdg.c" 1
 174 002c 83F31188 		msr     BASEPRI, r3
 175              	@ 0 "" 2
 176              		.thumb
 177              	.LBE5:
 178              		.loc 1 107 0
 179 0030 03B0     		add	sp, sp, #12
 180 0032 00BD     		pop	{pc}
 181              	.L10:
 182              		.align	2
 183              	.L9:
 184 0034 10000000 		.word	.LC1
 185              		.cfi_endproc
 186              	.LFE64:
 187              		.size	iwdgReset, .-iwdgReset
 188 0038 AFF30080 		.text
 188      AFF30080 
 189              	.Letext0: