ARM GAS  C:\Users\z80\AppData\Local\Temp\ccXtAmCp.s 			page 1


   1              		.syntax unified
   2              		.cpu cortex-m3
   3              		.fpu softvfp
   4              		.eabi_attribute 20, 1
   5              		.eabi_attribute 21, 1
   6              		.eabi_attribute 23, 3
   7              		.eabi_attribute 24, 1
   8              		.eabi_attribute 25, 1
   9              		.eabi_attribute 26, 1
  10              		.eabi_attribute 30, 6
  11              		.eabi_attribute 18, 4
  12              		.thumb
  13              		.file	"iwdg_lld.c"
  20 0000 6A010000 		.text
  20      02000B01 
  20      00000201 
  20      FB0E0D00 
  20      01010101 
  21              	.Ltext0:
  22              		.cfi_sections	.debug_frame
  23              		.global	IWDGD
  24              		.section	.bss.IWDGD,"aw",%nobits
  25              		.align	2
  26              		.type	IWDGD, %object
  27              		.size	IWDGD, 8
  28              	IWDGD:
  29 0000 00000000 		.space	8
  29      00000000 
  30              		.section	.text.iwdg_lld_init,"ax",%progbits
  31              		.align	2
  32              		.p2align 4,,15
  33              		.global	iwdg_lld_init
  34              		.thumb
  35              		.thumb_func
  36              		.type	iwdg_lld_init, %function
  37              	iwdg_lld_init:
  38              	.LFB62:
  39              		.file 1 "./src/iwdg/iwdg_lld.c"
  40              		.loc 1 76 0
  41              		.cfi_startproc
  42              		@ args = 0, pretend = 0, frame = 0
  43              		@ frame_needed = 0, uses_anonymous_args = 0
  44              		@ link register save eliminated.
  45              		.loc 1 77 0
  46 0000 40F20003 		movw	r3, #:lower16:IWDGD
  47 0004 C0F20003 		movt	r3, #:upper16:IWDGD
  48 0008 4FF00102 		mov	r2, #1
  49 000c 1A70     		strb	r2, [r3, #0]
  50              		.loc 1 78 0
  51 000e 40F20003 		movw	r3, #:lower16:IWDGD
  52 0012 C0F20003 		movt	r3, #:upper16:IWDGD
ARM GAS  C:\Users\z80\AppData\Local\Temp\ccXtAmCp.s 			page 2


  53 0016 4FF44052 		mov	r2, #12288
  54 001a C4F20002 		movt	r2, 16384
  55 001e 5A60     		str	r2, [r3, #4]
  56              		.loc 1 79 0
  57 0020 7047     		bx	lr
  58              		.cfi_endproc
  59              	.LFE62:
  60              		.size	iwdg_lld_init, .-iwdg_lld_init
  61 0022 00BFAFF3 		.section	.text.iwdg_lld_start,"ax",%progbits
  61      0080AFF3 
  61      0080AFF3 
  61      0080
  62              		.align	2
  63              		.p2align 4,,15
  64              		.global	iwdg_lld_start
  65              		.thumb
  66              		.thumb_func
  67              		.type	iwdg_lld_start, %function
  68              	iwdg_lld_start:
  69              	.LFB63:
  70              		.loc 1 90 0
  71              		.cfi_startproc
  72              		@ args = 0, pretend = 0, frame = 16
  73              		@ frame_needed = 0, uses_anonymous_args = 0
  74              		@ link register save eliminated.
  75 0000 84B0     		sub	sp, sp, #16
  76              	.LCFI0:
  77              		.cfi_def_cfa_offset 16
  78 0002 0190     		str	r0, [sp, #4]
  79 0004 0091     		str	r1, [sp, #0]
  80              		.loc 1 94 0
  81 0006 019B     		ldr	r3, [sp, #4]
  82 0008 5B68     		ldr	r3, [r3, #4]
  83 000a 0393     		str	r3, [sp, #12]
  84              		.loc 1 95 0
  85 000c 039B     		ldr	r3, [sp, #12]
  86 000e 45F25552 		movw	r2, #21845
  87 0012 1A60     		str	r2, [r3, #0]
  88              		.loc 1 96 0
  89 0014 009B     		ldr	r3, [sp, #0]
  90 0016 9B78     		ldrb	r3, [r3, #2]	@ zero_extendqisi2
  91 0018 1A46     		mov	r2, r3
  92 001a 039B     		ldr	r3, [sp, #12]
  93 001c 5A60     		str	r2, [r3, #4]
  94              		.loc 1 97 0
  95 001e 009B     		ldr	r3, [sp, #0]
  96 0020 1A88     		ldrh	r2, [r3, #0]
  97 0022 40F6FF73 		movw	r3, #4095
  98 0026 9A42     		cmp	r2, r3
  99 0028 02D8     		bhi	.L3
 100              		.loc 1 97 0 is_stmt 0 discriminator 1
 101 002a 009B     		ldr	r3, [sp, #0]
 102 002c 1B88     		ldrh	r3, [r3, #0]
 103 002e 01E0     		b	.L4
 104              	.L3:
 105              		.loc 1 97 0 discriminator 2
 106 0030 40F6FF73 		movw	r3, #4095
ARM GAS  C:\Users\z80\AppData\Local\Temp\ccXtAmCp.s 			page 3


 107              	.L4:
 108              		.loc 1 97 0 discriminator 3
 109 0034 039A     		ldr	r2, [sp, #12]
 110 0036 9360     		str	r3, [r2, #8]
 111              		.loc 1 98 0 is_stmt 1 discriminator 3
 112 0038 039B     		ldr	r3, [sp, #12]
 113 003a 4AF6AA22 		movw	r2, #43690
 114 003e 1A60     		str	r2, [r3, #0]
 115              		.loc 1 99 0 discriminator 3
 116 0040 039B     		ldr	r3, [sp, #12]
 117 0042 4CF6CC42 		movw	r2, #52428
 118 0046 1A60     		str	r2, [r3, #0]
 119              		.loc 1 100 0 discriminator 3
 120 0048 04B0     		add	sp, sp, #16
 121 004a 7047     		bx	lr
 122              		.cfi_endproc
 123              	.LFE63:
 124              		.size	iwdg_lld_start, .-iwdg_lld_start
 125 004c AFF30080 		.section	.text.iwdg_lld_reset,"ax",%progbits
 126              		.align	2
 127              		.p2align 4,,15
 128              		.global	iwdg_lld_reset
 129              		.thumb
 130              		.thumb_func
 131              		.type	iwdg_lld_reset, %function
 132              	iwdg_lld_reset:
 133              	.LFB64:
 134              		.loc 1 110 0
 135              		.cfi_startproc
 136              		@ args = 0, pretend = 0, frame = 8
 137              		@ frame_needed = 0, uses_anonymous_args = 0
 138              		@ link register save eliminated.
 139 0000 82B0     		sub	sp, sp, #8
 140              	.LCFI1:
 141              		.cfi_def_cfa_offset 8
 142 0002 0190     		str	r0, [sp, #4]
 143              		.loc 1 111 0
 144 0004 019B     		ldr	r3, [sp, #4]
 145 0006 5B68     		ldr	r3, [r3, #4]
 146 0008 4AF6AA22 		movw	r2, #43690
 147 000c 1A60     		str	r2, [r3, #0]
 148              		.loc 1 112 0
 149 000e 02B0     		add	sp, sp, #8
 150 0010 7047     		bx	lr
 151              		.cfi_endproc
 152              	.LFE64:
 153              		.size	iwdg_lld_reset, .-iwdg_lld_reset
 154 0012 00BFAFF3 		.text
 154      0080AFF3 
 154      0080AFF3 
 154      0080
 155              	.Letext0: