ARM GAS  /tmp/ccObkdYW.s 			page 1


   1              		.syntax unified
   2              		.cpu cortex-m3
   3              		.fpu softvfp
   4              		.eabi_attribute 20, 1
   5              		.eabi_attribute 21, 1
   6              		.eabi_attribute 23, 3
   7              		.eabi_attribute 24, 1
   8              		.eabi_attribute 25, 1
   9              		.eabi_attribute 26, 1
  10              		.eabi_attribute 30, 6
  11              		.eabi_attribute 18, 4
  12              		.thumb
  13              		.file	"iwdg.c"
  14              		.section	.debug_abbrev,"",%progbits
  15              	.Ldebug_abbrev0:
  16              		.section	.debug_info,"",%progbits
  17              	.Ldebug_info0:
  18              		.section	.debug_line,"",%progbits
  19              	.Ldebug_line0:
  20 0000 92010000 		.text
  20      02003C01 
  20      00000201 
  20      FB0E0D00 
  20      01010101 
  21              	.Ltext0:
  22              		.cfi_sections	.debug_frame
  23              		.section	.text.iwdgInit,"ax",%progbits
  24              		.align	2
  25              		.p2align 4,,15
  26              		.global	iwdgInit
  27              		.thumb
  28              		.thumb_func
  29              		.type	iwdgInit, %function
  30              	iwdgInit:
  31              	.LFB62:
  32              		.file 1 "./src/iwdg/iwdg.c"
  33              		.loc 1 70 0
  34              		.cfi_startproc
  35              		@ args = 0, pretend = 0, frame = 0
  36              		@ frame_needed = 0, uses_anonymous_args = 0
  37 0000 08B5     		push	{r3, lr}
  38              	.LCFI0:
  39              		.cfi_def_cfa_offset 8
  40              		.loc 1 71 0
  41              		.cfi_offset 14, -4
  42              		.cfi_offset 3, -8
  43 0002 FFF7FEFF 		bl	iwdg_lld_init
  44              		.loc 1 72 0
  45 0006 08BD     		pop	{r3, pc}
  46              		.cfi_endproc
  47              	.LFE62:
  48              		.size	iwdgInit, .-iwdgInit
  49 0008 AFF30080 		.section	.rodata
  49      AFF30080 
  50              		.align	2
  51              	.LC0:
  52 0000 22697764 		.ascii	"\"iwdgStart\"()\000"
ARM GAS  /tmp/ccObkdYW.s 			page 2


  52      67537461 
  52      72742228 
  52      2900
  53              		.section	.text.iwdgStart,"ax",%progbits
  54              		.align	2
  55              		.p2align 4,,15
  56              		.global	iwdgStart
  57              		.thumb
  58              		.thumb_func
  59              		.type	iwdgStart, %function
  60              	iwdgStart:
  61              	.LFB63:
  62              		.loc 1 84 0
  63              		.cfi_startproc
  64              		@ args = 0, pretend = 0, frame = 8
  65              		@ frame_needed = 0, uses_anonymous_args = 0
  66 0000 00B5     		push	{lr}
  67              	.LCFI1:
  68              		.cfi_def_cfa_offset 4
  69 0002 83B0     		sub	sp, sp, #12
  70              	.LCFI2:
  71              		.cfi_def_cfa_offset 16
  72 0004 0190     		str	r0, [sp, #4]
  73 0006 0091     		str	r1, [sp, #0]
  74              		.loc 1 85 0
  75 0008 019B     		ldr	r3, [sp, #4]
  76 000a 002B     		cmp	r3, #0
  77 000c 02D0     		beq	.L3
  78              		.cfi_offset 14, -4
  79              		.loc 1 85 0 is_stmt 0 discriminator 2
  80 000e 009B     		ldr	r3, [sp, #0]
  81 0010 002B     		cmp	r3, #0
  82 0012 02D1     		bne	.L4
  83              	.L3:
  84              		.loc 1 85 0 discriminator 1
  85 0014 0C48     		ldr	r0, .L5
  86 0016 FFF7FEFF 		bl	chDbgPanic
  87              	.L4:
  88              	.LBB2:
  89              		.loc 1 87 0 is_stmt 1
  90 001a 4FF02003 		mov	r3, #32
  91              	@ 87 "./src/iwdg/iwdg.c" 1
  92 001e 83F31188 		msr     BASEPRI, r3
  93              	@ 0 "" 2
  94              		.thumb
  95              	.LBE2:
  96 0022 FFF7FEFF 		bl	dbg_check_lock
  97              		.loc 1 88 0
  98 0026 0198     		ldr	r0, [sp, #4]
  99 0028 0099     		ldr	r1, [sp, #0]
 100 002a FFF7FEFF 		bl	iwdg_lld_start
 101              		.loc 1 89 0
 102 002e 019B     		ldr	r3, [sp, #4]
 103 0030 4FF00202 		mov	r2, #2
 104 0034 1A70     		strb	r2, [r3, #0]
 105              		.loc 1 90 0
 106 0036 FFF7FEFF 		bl	dbg_check_unlock
ARM GAS  /tmp/ccObkdYW.s 			page 3


 107              	.LBB3:
 108 003a 4FF00003 		mov	r3, #0
 109              	@ 90 "./src/iwdg/iwdg.c" 1
 110 003e 83F31188 		msr     BASEPRI, r3
 111              	@ 0 "" 2
 112              		.thumb
 113              	.LBE3:
 114              		.loc 1 91 0
 115 0042 03B0     		add	sp, sp, #12
 116 0044 00BD     		pop	{pc}
 117              	.L6:
 118 0046 00BF     		.align	2
 119              	.L5:
 120 0048 00000000 		.word	.LC0
 121              		.cfi_endproc
 122              	.LFE63:
 123              		.size	iwdgStart, .-iwdgStart
 124 004c AFF30080 		.section	.rodata
 125 000e 0000     		.align	2
 126              	.LC1:
 127 0010 22697764 		.ascii	"\"iwdgReset\"()\000"
 127      67526573 
 127      65742228 
 127      2900
 128 001e 0000     		.section	.text.iwdgReset,"ax",%progbits
 129              		.align	2
 130              		.p2align 4,,15
 131              		.global	iwdgReset
 132              		.thumb
 133              		.thumb_func
 134              		.type	iwdgReset, %function
 135              	iwdgReset:
 136              	.LFB64:
 137              		.loc 1 101 0
 138              		.cfi_startproc
 139              		@ args = 0, pretend = 0, frame = 8
 140              		@ frame_needed = 0, uses_anonymous_args = 0
 141 0000 00B5     		push	{lr}
 142              	.LCFI3:
 143              		.cfi_def_cfa_offset 4
 144 0002 83B0     		sub	sp, sp, #12
 145              	.LCFI4:
 146              		.cfi_def_cfa_offset 16
 147 0004 0190     		str	r0, [sp, #4]
 148              		.loc 1 102 0
 149 0006 019B     		ldr	r3, [sp, #4]
 150 0008 002B     		cmp	r3, #0
 151 000a 02D1     		bne	.L8
 152              		.cfi_offset 14, -4
 153              		.loc 1 102 0 is_stmt 0 discriminator 1
 154 000c 0948     		ldr	r0, .L9
 155 000e FFF7FEFF 		bl	chDbgPanic
 156              	.L8:
 157              	.LBB4:
 158              		.loc 1 104 0 is_stmt 1
 159 0012 4FF02003 		mov	r3, #32
 160              	@ 104 "./src/iwdg/iwdg.c" 1
ARM GAS  /tmp/ccObkdYW.s 			page 4


 161 0016 83F31188 		msr     BASEPRI, r3
 162              	@ 0 "" 2
 163              		.thumb
 164              	.LBE4:
 165 001a FFF7FEFF 		bl	dbg_check_lock
 166              		.loc 1 105 0
 167 001e 0198     		ldr	r0, [sp, #4]
 168 0020 FFF7FEFF 		bl	iwdg_lld_reset
 169              		.loc 1 106 0
 170 0024 FFF7FEFF 		bl	dbg_check_unlock
 171              	.LBB5:
 172 0028 4FF00003 		mov	r3, #0
 173              	@ 106 "./src/iwdg/iwdg.c" 1
 174 002c 83F31188 		msr     BASEPRI, r3
 175              	@ 0 "" 2
 176              		.thumb
 177              	.LBE5:
 178              		.loc 1 107 0
 179 0030 03B0     		add	sp, sp, #12
 180 0032 00BD     		pop	{pc}
 181              	.L10:
 182              		.align	2
 183              	.L9:
 184 0034 10000000 		.word	.LC1
 185              		.cfi_endproc
 186              	.LFE64:
 187              		.size	iwdgReset, .-iwdgReset
 188 0038 AFF30080 		.text
 188      AFF30080 
 189              	.Letext0:
 190              		.section	.debug_loc,"",%progbits
 191              	.Ldebug_loc0:
 192              	.LLST0:
 193 0000 00000000 		.4byte	.LFB62
 194 0004 02000000 		.4byte	.LCFI0
 195 0008 0200     		.2byte	0x2
 196 000a 7D       		.byte	0x7d
 197 000b 00       		.sleb128 0
 198 000c 02000000 		.4byte	.LCFI0
 199 0010 08000000 		.4byte	.LFE62
 200 0014 0200     		.2byte	0x2
 201 0016 7D       		.byte	0x7d
 202 0017 08       		.sleb128 8
 203 0018 00000000 		.4byte	0x0
 204 001c 00000000 		.4byte	0x0
 205              	.LLST1:
 206 0020 00000000 		.4byte	.LFB63
 207 0024 02000000 		.4byte	.LCFI1
 208 0028 0200     		.2byte	0x2
 209 002a 7D       		.byte	0x7d
 210 002b 00       		.sleb128 0
 211 002c 02000000 		.4byte	.LCFI1
 212 0030 04000000 		.4byte	.LCFI2
 213 0034 0200     		.2byte	0x2
 214 0036 7D       		.byte	0x7d
 215 0037 04       		.sleb128 4
 216 0038 04000000 		.4byte	.LCFI2
ARM GAS  /tmp/ccObkdYW.s 			page 5


 217 003c 4C000000 		.4byte	.LFE63
 218 0040 0200     		.2byte	0x2
 219 0042 7D       		.byte	0x7d
 220 0043 10       		.sleb128 16
 221 0044 00000000 		.4byte	0x0
 222 0048 00000000 		.4byte	0x0
 223              	.LLST2:
 224 004c 00000000 		.4byte	.LFB64
 225 0050 02000000 		.4byte	.LCFI3
 226 0054 0200     		.2byte	0x2
 227 0056 7D       		.byte	0x7d
 228 0057 00       		.sleb128 0
 229 0058 02000000 		.4byte	.LCFI3
 230 005c 04000000 		.4byte	.LCFI4
 231 0060 0200     		.2byte	0x2
 232 0062 7D       		.byte	0x7d
 233 0063 04       		.sleb128 4
 234 0064 04000000 		.4byte	.LCFI4
 235 0068 38000000 		.4byte	.LFE64
 236 006c 0200     		.2byte	0x2
 237 006e 7D       		.byte	0x7d
 238 006f 10       		.sleb128 16
 239 0070 00000000 		.4byte	0x0
 240 0074 00000000 		.4byte	0x0
 241              		.file 2 "/home/z80/programs/code-sourcery/2011.03-42/bin/../lib/gcc/arm-none-eabi/4.5.2/../../../.
 242              		.file 3 "../chibios_2.4.x/os/hal/platforms/STM32F1xx/stm32f10x.h"
 243              		.file 4 "./src/iwdg/iwdg.h"
 244              		.file 5 "./src/iwdg/iwdg_lld.h"
 245              		.file 6 "../chibios_2.4.x/os/ports/common/ARMCMx/CMSIS/include/core_cm3.h"
 246              		.section	.debug_info
 247 0000 8C020000 		.4byte	0x28c
 248 0004 0200     		.2byte	0x2
 249 0006 00000000 		.4byte	.Ldebug_abbrev0
 250 000a 04       		.byte	0x4
 251 000b 01       		.uleb128 0x1
 252 000c CE000000 		.4byte	.LASF29
 253 0010 01       		.byte	0x1
 254 0011 06000000 		.4byte	.LASF30
 255 0015 2C000000 		.4byte	.LASF31
 256 0019 00000000 		.4byte	0x0
 257 001d 00000000 		.4byte	0x0
 258 0021 00000000 		.4byte	.Ldebug_ranges0+0x0
 259 0025 00000000 		.4byte	.Ldebug_line0
 260 0029 02       		.uleb128 0x2
 261 002a 04       		.byte	0x4
 262 002b 05       		.byte	0x5
 263 002c 696E7400 		.ascii	"int\000"
 264 0030 03       		.uleb128 0x3
 265 0031 04       		.byte	0x4
 266 0032 07       		.byte	0x7
 267 0033 DF000000 		.4byte	.LASF0
 268 0037 03       		.uleb128 0x3
 269 0038 01       		.byte	0x1
 270 0039 06       		.byte	0x6
 271 003a 67010000 		.4byte	.LASF1
 272 003e 04       		.uleb128 0x4
 273 003f F1000000 		.4byte	.LASF4
ARM GAS  /tmp/ccObkdYW.s 			page 6


 274 0043 02       		.byte	0x2
 275 0044 2A       		.byte	0x2a
 276 0045 49000000 		.4byte	0x49
 277 0049 03       		.uleb128 0x3
 278 004a 01       		.byte	0x1
 279 004b 08       		.byte	0x8
 280 004c 7D000000 		.4byte	.LASF2
 281 0050 03       		.uleb128 0x3
 282 0051 02       		.byte	0x2
 283 0052 05       		.byte	0x5
 284 0053 33010000 		.4byte	.LASF3
 285 0057 04       		.uleb128 0x4
 286 0058 49010000 		.4byte	.LASF5
 287 005c 02       		.byte	0x2
 288 005d 36       		.byte	0x36
 289 005e 62000000 		.4byte	0x62
 290 0062 03       		.uleb128 0x3
 291 0063 02       		.byte	0x2
 292 0064 07       		.byte	0x7
 293 0065 9D000000 		.4byte	.LASF6
 294 0069 04       		.uleb128 0x4
 295 006a 0A010000 		.4byte	.LASF7
 296 006e 02       		.byte	0x2
 297 006f 4F       		.byte	0x4f
 298 0070 74000000 		.4byte	0x74
 299 0074 03       		.uleb128 0x3
 300 0075 04       		.byte	0x4
 301 0076 05       		.byte	0x5
 302 0077 18000000 		.4byte	.LASF8
 303 007b 04       		.uleb128 0x4
 304 007c 52010000 		.4byte	.LASF9
 305 0080 02       		.byte	0x2
 306 0081 50       		.byte	0x50
 307 0082 86000000 		.4byte	0x86
 308 0086 03       		.uleb128 0x3
 309 0087 04       		.byte	0x4
 310 0088 07       		.byte	0x7
 311 0089 8B000000 		.4byte	.LASF10
 312 008d 03       		.uleb128 0x3
 313 008e 08       		.byte	0x8
 314 008f 05       		.byte	0x5
 315 0090 12010000 		.4byte	.LASF11
 316 0094 03       		.uleb128 0x3
 317 0095 08       		.byte	0x8
 318 0096 07       		.byte	0x7
 319 0097 66000000 		.4byte	.LASF12
 320 009b 05       		.uleb128 0x5
 321 009c 7B000000 		.4byte	0x7b
 322 00a0 03       		.uleb128 0x3
 323 00a1 01       		.byte	0x1
 324 00a2 08       		.byte	0x8
 325 00a3 EC000000 		.4byte	.LASF13
 326 00a7 05       		.uleb128 0x5
 327 00a8 69000000 		.4byte	0x69
 328 00ac 06       		.uleb128 0x6
 329 00ad 10       		.byte	0x10
 330 00ae 03       		.byte	0x3
ARM GAS  /tmp/ccObkdYW.s 			page 7


 331 00af 2D04     		.2byte	0x42d
 332 00b1 EF000000 		.4byte	0xef
 333 00b5 07       		.uleb128 0x7
 334 00b6 4B5200   		.ascii	"KR\000"
 335 00b9 03       		.byte	0x3
 336 00ba 2F04     		.2byte	0x42f
 337 00bc 9B000000 		.4byte	0x9b
 338 00c0 02       		.byte	0x2
 339 00c1 23       		.byte	0x23
 340 00c2 00       		.uleb128 0x0
 341 00c3 07       		.uleb128 0x7
 342 00c4 505200   		.ascii	"PR\000"
 343 00c7 03       		.byte	0x3
 344 00c8 3004     		.2byte	0x430
 345 00ca 9B000000 		.4byte	0x9b
 346 00ce 02       		.byte	0x2
 347 00cf 23       		.byte	0x23
 348 00d0 04       		.uleb128 0x4
 349 00d1 07       		.uleb128 0x7
 350 00d2 524C5200 		.ascii	"RLR\000"
 351 00d6 03       		.byte	0x3
 352 00d7 3104     		.2byte	0x431
 353 00d9 9B000000 		.4byte	0x9b
 354 00dd 02       		.byte	0x2
 355 00de 23       		.byte	0x23
 356 00df 08       		.uleb128 0x8
 357 00e0 07       		.uleb128 0x7
 358 00e1 535200   		.ascii	"SR\000"
 359 00e4 03       		.byte	0x3
 360 00e5 3204     		.2byte	0x432
 361 00e7 9B000000 		.4byte	0x9b
 362 00eb 02       		.byte	0x2
 363 00ec 23       		.byte	0x23
 364 00ed 0C       		.uleb128 0xc
 365 00ee 00       		.byte	0x0
 366 00ef 08       		.uleb128 0x8
 367 00f0 88010000 		.4byte	.LASF14
 368 00f4 03       		.byte	0x3
 369 00f5 3304     		.2byte	0x433
 370 00f7 AC000000 		.4byte	0xac
 371 00fb 09       		.uleb128 0x9
 372 00fc 01       		.byte	0x1
 373 00fd 04       		.byte	0x4
 374 00fe 3C       		.byte	0x3c
 375 00ff 16010000 		.4byte	0x116
 376 0103 0A       		.uleb128 0xa
 377 0104 5B010000 		.4byte	.LASF15
 378 0108 00       		.sleb128 0
 379 0109 0A       		.uleb128 0xa
 380 010a C4000000 		.4byte	.LASF16
 381 010e 01       		.sleb128 1
 382 010f 0A       		.uleb128 0xa
 383 0110 7D010000 		.4byte	.LASF17
 384 0114 02       		.sleb128 2
 385 0115 00       		.byte	0x0
 386 0116 04       		.uleb128 0x4
 387 0117 3D010000 		.4byte	.LASF18
ARM GAS  /tmp/ccObkdYW.s 			page 8


 388 011b 04       		.byte	0x4
 389 011c 40       		.byte	0x40
 390 011d FB000000 		.4byte	0xfb
 391 0121 0B       		.uleb128 0xb
 392 0122 04       		.byte	0x4
 393 0123 05       		.byte	0x5
 394 0124 49       		.byte	0x49
 395 0125 46010000 		.4byte	0x146
 396 0129 0C       		.uleb128 0xc
 397 012a 5E000000 		.4byte	.LASF19
 398 012e 05       		.byte	0x5
 399 012f 4A       		.byte	0x4a
 400 0130 57000000 		.4byte	0x57
 401 0134 02       		.byte	0x2
 402 0135 23       		.byte	0x23
 403 0136 00       		.uleb128 0x0
 404 0137 0D       		.uleb128 0xd
 405 0138 64697600 		.ascii	"div\000"
 406 013c 05       		.byte	0x5
 407 013d 4B       		.byte	0x4b
 408 013e 3E000000 		.4byte	0x3e
 409 0142 02       		.byte	0x2
 410 0143 23       		.byte	0x23
 411 0144 02       		.uleb128 0x2
 412 0145 00       		.byte	0x0
 413 0146 04       		.uleb128 0x4
 414 0147 F9000000 		.4byte	.LASF20
 415 014b 05       		.byte	0x5
 416 014c 4C       		.byte	0x4c
 417 014d 21010000 		.4byte	0x121
 418 0151 0E       		.uleb128 0xe
 419 0152 21000000 		.4byte	.LASF23
 420 0156 08       		.byte	0x8
 421 0157 05       		.byte	0x5
 422 0158 51       		.byte	0x51
 423 0159 7A010000 		.4byte	0x17a
 424 015d 0C       		.uleb128 0xc
 425 015e 00000000 		.4byte	.LASF21
 426 0162 05       		.byte	0x5
 427 0163 55       		.byte	0x55
 428 0164 16010000 		.4byte	0x116
 429 0168 02       		.byte	0x2
 430 0169 23       		.byte	0x23
 431 016a 00       		.uleb128 0x0
 432 016b 0C       		.uleb128 0xc
 433 016c DA000000 		.4byte	.LASF22
 434 0170 05       		.byte	0x5
 435 0171 57       		.byte	0x57
 436 0172 7A010000 		.4byte	0x17a
 437 0176 02       		.byte	0x2
 438 0177 23       		.byte	0x23
 439 0178 04       		.uleb128 0x4
 440 0179 00       		.byte	0x0
 441 017a 0F       		.uleb128 0xf
 442 017b 04       		.byte	0x4
 443 017c EF000000 		.4byte	0xef
 444 0180 04       		.uleb128 0x4
ARM GAS  /tmp/ccObkdYW.s 			page 9


 445 0181 21000000 		.4byte	.LASF23
 446 0185 05       		.byte	0x5
 447 0186 5A       		.byte	0x5a
 448 0187 51010000 		.4byte	0x151
 449 018b 10       		.uleb128 0x10
 450 018c 01       		.byte	0x1
 451 018d 2A010000 		.4byte	.LASF32
 452 0191 01       		.byte	0x1
 453 0192 45       		.byte	0x45
 454 0193 01       		.byte	0x1
 455 0194 00000000 		.4byte	.LFB62
 456 0198 08000000 		.4byte	.LFE62
 457 019c 00000000 		.4byte	.LLST0
 458 01a0 11       		.uleb128 0x11
 459 01a1 01       		.byte	0x1
 460 01a2 73010000 		.4byte	.LASF26
 461 01a6 01       		.byte	0x1
 462 01a7 53       		.byte	0x53
 463 01a8 01       		.byte	0x1
 464 01a9 00000000 		.4byte	.LFB63
 465 01ad 4C000000 		.4byte	.LFE63
 466 01b1 20000000 		.4byte	.LLST1
 467 01b5 08020000 		.4byte	0x208
 468 01b9 12       		.uleb128 0x12
 469 01ba 04010000 		.4byte	.LASF24
 470 01be 01       		.byte	0x1
 471 01bf 53       		.byte	0x53
 472 01c0 08020000 		.4byte	0x208
 473 01c4 02       		.byte	0x2
 474 01c5 91       		.byte	0x91
 475 01c6 74       		.sleb128 -12
 476 01c7 12       		.uleb128 0x12
 477 01c8 BD000000 		.4byte	.LASF25
 478 01cc 01       		.byte	0x1
 479 01cd 53       		.byte	0x53
 480 01ce 0E020000 		.4byte	0x20e
 481 01d2 02       		.byte	0x2
 482 01d3 91       		.byte	0x91
 483 01d4 70       		.sleb128 -16
 484 01d5 13       		.uleb128 0x13
 485 01d6 1A000000 		.4byte	.LBB2
 486 01da 22000000 		.4byte	.LBE2
 487 01de F0010000 		.4byte	0x1f0
 488 01e2 14       		.uleb128 0x14
 489 01e3 746D7000 		.ascii	"tmp\000"
 490 01e7 01       		.byte	0x1
 491 01e8 57       		.byte	0x57
 492 01e9 7B000000 		.4byte	0x7b
 493 01ed 01       		.byte	0x1
 494 01ee 53       		.byte	0x53
 495 01ef 00       		.byte	0x0
 496 01f0 15       		.uleb128 0x15
 497 01f1 3A000000 		.4byte	.LBB3
 498 01f5 42000000 		.4byte	.LBE3
 499 01f9 14       		.uleb128 0x14
 500 01fa 746D7000 		.ascii	"tmp\000"
 501 01fe 01       		.byte	0x1
ARM GAS  /tmp/ccObkdYW.s 			page 10


 502 01ff 5A       		.byte	0x5a
 503 0200 7B000000 		.4byte	0x7b
 504 0204 01       		.byte	0x1
 505 0205 53       		.byte	0x53
 506 0206 00       		.byte	0x0
 507 0207 00       		.byte	0x0
 508 0208 0F       		.uleb128 0xf
 509 0209 04       		.byte	0x4
 510 020a 80010000 		.4byte	0x180
 511 020e 0F       		.uleb128 0xf
 512 020f 04       		.byte	0x4
 513 0210 14020000 		.4byte	0x214
 514 0214 16       		.uleb128 0x16
 515 0215 46010000 		.4byte	0x146
 516 0219 11       		.uleb128 0x11
 517 021a 01       		.byte	0x1
 518 021b 20010000 		.4byte	.LASF27
 519 021f 01       		.byte	0x1
 520 0220 64       		.byte	0x64
 521 0221 01       		.byte	0x1
 522 0222 00000000 		.4byte	.LFB64
 523 0226 38000000 		.4byte	.LFE64
 524 022a 4C000000 		.4byte	.LLST2
 525 022e 73020000 		.4byte	0x273
 526 0232 12       		.uleb128 0x12
 527 0233 04010000 		.4byte	.LASF24
 528 0237 01       		.byte	0x1
 529 0238 64       		.byte	0x64
 530 0239 08020000 		.4byte	0x208
 531 023d 02       		.byte	0x2
 532 023e 91       		.byte	0x91
 533 023f 74       		.sleb128 -12
 534 0240 13       		.uleb128 0x13
 535 0241 12000000 		.4byte	.LBB4
 536 0245 1A000000 		.4byte	.LBE4
 537 0249 5B020000 		.4byte	0x25b
 538 024d 14       		.uleb128 0x14
 539 024e 746D7000 		.ascii	"tmp\000"
 540 0252 01       		.byte	0x1
 541 0253 68       		.byte	0x68
 542 0254 7B000000 		.4byte	0x7b
 543 0258 01       		.byte	0x1
 544 0259 53       		.byte	0x53
 545 025a 00       		.byte	0x0
 546 025b 15       		.uleb128 0x15
 547 025c 28000000 		.4byte	.LBB5
 548 0260 30000000 		.4byte	.LBE5
 549 0264 14       		.uleb128 0x14
 550 0265 746D7000 		.ascii	"tmp\000"
 551 0269 01       		.byte	0x1
 552 026a 6A       		.byte	0x6a
 553 026b 7B000000 		.4byte	0x7b
 554 026f 01       		.byte	0x1
 555 0270 53       		.byte	0x53
 556 0271 00       		.byte	0x0
 557 0272 00       		.byte	0x0
 558 0273 17       		.uleb128 0x17
ARM GAS  /tmp/ccObkdYW.s 			page 11


 559 0274 B0000000 		.4byte	.LASF28
 560 0278 06       		.byte	0x6
 561 0279 9404     		.2byte	0x494
 562 027b A7000000 		.4byte	0xa7
 563 027f 01       		.byte	0x1
 564 0280 01       		.byte	0x1
 565 0281 17       		.uleb128 0x17
 566 0282 B0000000 		.4byte	.LASF28
 567 0286 06       		.byte	0x6
 568 0287 9404     		.2byte	0x494
 569 0289 A7000000 		.4byte	0xa7
 570 028d 01       		.byte	0x1
 571 028e 01       		.byte	0x1
 572 028f 00       		.byte	0x0
 573              		.section	.debug_abbrev
 574 0000 01       		.uleb128 0x1
 575 0001 11       		.uleb128 0x11
 576 0002 01       		.byte	0x1
 577 0003 25       		.uleb128 0x25
 578 0004 0E       		.uleb128 0xe
 579 0005 13       		.uleb128 0x13
 580 0006 0B       		.uleb128 0xb
 581 0007 03       		.uleb128 0x3
 582 0008 0E       		.uleb128 0xe
 583 0009 1B       		.uleb128 0x1b
 584 000a 0E       		.uleb128 0xe
 585 000b 11       		.uleb128 0x11
 586 000c 01       		.uleb128 0x1
 587 000d 52       		.uleb128 0x52
 588 000e 01       		.uleb128 0x1
 589 000f 55       		.uleb128 0x55
 590 0010 06       		.uleb128 0x6
 591 0011 10       		.uleb128 0x10
 592 0012 06       		.uleb128 0x6
 593 0013 00       		.byte	0x0
 594 0014 00       		.byte	0x0
 595 0015 02       		.uleb128 0x2
 596 0016 24       		.uleb128 0x24
 597 0017 00       		.byte	0x0
 598 0018 0B       		.uleb128 0xb
 599 0019 0B       		.uleb128 0xb
 600 001a 3E       		.uleb128 0x3e
 601 001b 0B       		.uleb128 0xb
 602 001c 03       		.uleb128 0x3
 603 001d 08       		.uleb128 0x8
 604 001e 00       		.byte	0x0
 605 001f 00       		.byte	0x0
 606 0020 03       		.uleb128 0x3
 607 0021 24       		.uleb128 0x24
 608 0022 00       		.byte	0x0
 609 0023 0B       		.uleb128 0xb
 610 0024 0B       		.uleb128 0xb
 611 0025 3E       		.uleb128 0x3e
 612 0026 0B       		.uleb128 0xb
 613 0027 03       		.uleb128 0x3
 614 0028 0E       		.uleb128 0xe
 615 0029 00       		.byte	0x0
ARM GAS  /tmp/ccObkdYW.s 			page 12


 616 002a 00       		.byte	0x0
 617 002b 04       		.uleb128 0x4
 618 002c 16       		.uleb128 0x16
 619 002d 00       		.byte	0x0
 620 002e 03       		.uleb128 0x3
 621 002f 0E       		.uleb128 0xe
 622 0030 3A       		.uleb128 0x3a
 623 0031 0B       		.uleb128 0xb
 624 0032 3B       		.uleb128 0x3b
 625 0033 0B       		.uleb128 0xb
 626 0034 49       		.uleb128 0x49
 627 0035 13       		.uleb128 0x13
 628 0036 00       		.byte	0x0
 629 0037 00       		.byte	0x0
 630 0038 05       		.uleb128 0x5
 631 0039 35       		.uleb128 0x35
 632 003a 00       		.byte	0x0
 633 003b 49       		.uleb128 0x49
 634 003c 13       		.uleb128 0x13
 635 003d 00       		.byte	0x0
 636 003e 00       		.byte	0x0
 637 003f 06       		.uleb128 0x6
 638 0040 13       		.uleb128 0x13
 639 0041 01       		.byte	0x1
 640 0042 0B       		.uleb128 0xb
 641 0043 0B       		.uleb128 0xb
 642 0044 3A       		.uleb128 0x3a
 643 0045 0B       		.uleb128 0xb
 644 0046 3B       		.uleb128 0x3b
 645 0047 05       		.uleb128 0x5
 646 0048 01       		.uleb128 0x1
 647 0049 13       		.uleb128 0x13
 648 004a 00       		.byte	0x0
 649 004b 00       		.byte	0x0
 650 004c 07       		.uleb128 0x7
 651 004d 0D       		.uleb128 0xd
 652 004e 00       		.byte	0x0
 653 004f 03       		.uleb128 0x3
 654 0050 08       		.uleb128 0x8
 655 0051 3A       		.uleb128 0x3a
 656 0052 0B       		.uleb128 0xb
 657 0053 3B       		.uleb128 0x3b
 658 0054 05       		.uleb128 0x5
 659 0055 49       		.uleb128 0x49
 660 0056 13       		.uleb128 0x13
 661 0057 38       		.uleb128 0x38
 662 0058 0A       		.uleb128 0xa
 663 0059 00       		.byte	0x0
 664 005a 00       		.byte	0x0
 665 005b 08       		.uleb128 0x8
 666 005c 16       		.uleb128 0x16
 667 005d 00       		.byte	0x0
 668 005e 03       		.uleb128 0x3
 669 005f 0E       		.uleb128 0xe
 670 0060 3A       		.uleb128 0x3a
 671 0061 0B       		.uleb128 0xb
 672 0062 3B       		.uleb128 0x3b
ARM GAS  /tmp/ccObkdYW.s 			page 13


 673 0063 05       		.uleb128 0x5
 674 0064 49       		.uleb128 0x49
 675 0065 13       		.uleb128 0x13
 676 0066 00       		.byte	0x0
 677 0067 00       		.byte	0x0
 678 0068 09       		.uleb128 0x9
 679 0069 04       		.uleb128 0x4
 680 006a 01       		.byte	0x1
 681 006b 0B       		.uleb128 0xb
 682 006c 0B       		.uleb128 0xb
 683 006d 3A       		.uleb128 0x3a
 684 006e 0B       		.uleb128 0xb
 685 006f 3B       		.uleb128 0x3b
 686 0070 0B       		.uleb128 0xb
 687 0071 01       		.uleb128 0x1
 688 0072 13       		.uleb128 0x13
 689 0073 00       		.byte	0x0
 690 0074 00       		.byte	0x0
 691 0075 0A       		.uleb128 0xa
 692 0076 28       		.uleb128 0x28
 693 0077 00       		.byte	0x0
 694 0078 03       		.uleb128 0x3
 695 0079 0E       		.uleb128 0xe
 696 007a 1C       		.uleb128 0x1c
 697 007b 0D       		.uleb128 0xd
 698 007c 00       		.byte	0x0
 699 007d 00       		.byte	0x0
 700 007e 0B       		.uleb128 0xb
 701 007f 13       		.uleb128 0x13
 702 0080 01       		.byte	0x1
 703 0081 0B       		.uleb128 0xb
 704 0082 0B       		.uleb128 0xb
 705 0083 3A       		.uleb128 0x3a
 706 0084 0B       		.uleb128 0xb
 707 0085 3B       		.uleb128 0x3b
 708 0086 0B       		.uleb128 0xb
 709 0087 01       		.uleb128 0x1
 710 0088 13       		.uleb128 0x13
 711 0089 00       		.byte	0x0
 712 008a 00       		.byte	0x0
 713 008b 0C       		.uleb128 0xc
 714 008c 0D       		.uleb128 0xd
 715 008d 00       		.byte	0x0
 716 008e 03       		.uleb128 0x3
 717 008f 0E       		.uleb128 0xe
 718 0090 3A       		.uleb128 0x3a
 719 0091 0B       		.uleb128 0xb
 720 0092 3B       		.uleb128 0x3b
 721 0093 0B       		.uleb128 0xb
 722 0094 49       		.uleb128 0x49
 723 0095 13       		.uleb128 0x13
 724 0096 38       		.uleb128 0x38
 725 0097 0A       		.uleb128 0xa
 726 0098 00       		.byte	0x0
 727 0099 00       		.byte	0x0
 728 009a 0D       		.uleb128 0xd
 729 009b 0D       		.uleb128 0xd
ARM GAS  /tmp/ccObkdYW.s 			page 14


 730 009c 00       		.byte	0x0
 731 009d 03       		.uleb128 0x3
 732 009e 08       		.uleb128 0x8
 733 009f 3A       		.uleb128 0x3a
 734 00a0 0B       		.uleb128 0xb
 735 00a1 3B       		.uleb128 0x3b
 736 00a2 0B       		.uleb128 0xb
 737 00a3 49       		.uleb128 0x49
 738 00a4 13       		.uleb128 0x13
 739 00a5 38       		.uleb128 0x38
 740 00a6 0A       		.uleb128 0xa
 741 00a7 00       		.byte	0x0
 742 00a8 00       		.byte	0x0
 743 00a9 0E       		.uleb128 0xe
 744 00aa 13       		.uleb128 0x13
 745 00ab 01       		.byte	0x1
 746 00ac 03       		.uleb128 0x3
 747 00ad 0E       		.uleb128 0xe
 748 00ae 0B       		.uleb128 0xb
 749 00af 0B       		.uleb128 0xb
 750 00b0 3A       		.uleb128 0x3a
 751 00b1 0B       		.uleb128 0xb
 752 00b2 3B       		.uleb128 0x3b
 753 00b3 0B       		.uleb128 0xb
 754 00b4 01       		.uleb128 0x1
 755 00b5 13       		.uleb128 0x13
 756 00b6 00       		.byte	0x0
 757 00b7 00       		.byte	0x0
 758 00b8 0F       		.uleb128 0xf
 759 00b9 0F       		.uleb128 0xf
 760 00ba 00       		.byte	0x0
 761 00bb 0B       		.uleb128 0xb
 762 00bc 0B       		.uleb128 0xb
 763 00bd 49       		.uleb128 0x49
 764 00be 13       		.uleb128 0x13
 765 00bf 00       		.byte	0x0
 766 00c0 00       		.byte	0x0
 767 00c1 10       		.uleb128 0x10
 768 00c2 2E       		.uleb128 0x2e
 769 00c3 00       		.byte	0x0
 770 00c4 3F       		.uleb128 0x3f
 771 00c5 0C       		.uleb128 0xc
 772 00c6 03       		.uleb128 0x3
 773 00c7 0E       		.uleb128 0xe
 774 00c8 3A       		.uleb128 0x3a
 775 00c9 0B       		.uleb128 0xb
 776 00ca 3B       		.uleb128 0x3b
 777 00cb 0B       		.uleb128 0xb
 778 00cc 27       		.uleb128 0x27
 779 00cd 0C       		.uleb128 0xc
 780 00ce 11       		.uleb128 0x11
 781 00cf 01       		.uleb128 0x1
 782 00d0 12       		.uleb128 0x12
 783 00d1 01       		.uleb128 0x1
 784 00d2 40       		.uleb128 0x40
 785 00d3 06       		.uleb128 0x6
 786 00d4 00       		.byte	0x0
ARM GAS  /tmp/ccObkdYW.s 			page 15


 787 00d5 00       		.byte	0x0
 788 00d6 11       		.uleb128 0x11
 789 00d7 2E       		.uleb128 0x2e
 790 00d8 01       		.byte	0x1
 791 00d9 3F       		.uleb128 0x3f
 792 00da 0C       		.uleb128 0xc
 793 00db 03       		.uleb128 0x3
 794 00dc 0E       		.uleb128 0xe
 795 00dd 3A       		.uleb128 0x3a
 796 00de 0B       		.uleb128 0xb
 797 00df 3B       		.uleb128 0x3b
 798 00e0 0B       		.uleb128 0xb
 799 00e1 27       		.uleb128 0x27
 800 00e2 0C       		.uleb128 0xc
 801 00e3 11       		.uleb128 0x11
 802 00e4 01       		.uleb128 0x1
 803 00e5 12       		.uleb128 0x12
 804 00e6 01       		.uleb128 0x1
 805 00e7 40       		.uleb128 0x40
 806 00e8 06       		.uleb128 0x6
 807 00e9 01       		.uleb128 0x1
 808 00ea 13       		.uleb128 0x13
 809 00eb 00       		.byte	0x0
 810 00ec 00       		.byte	0x0
 811 00ed 12       		.uleb128 0x12
 812 00ee 05       		.uleb128 0x5
 813 00ef 00       		.byte	0x0
 814 00f0 03       		.uleb128 0x3
 815 00f1 0E       		.uleb128 0xe
 816 00f2 3A       		.uleb128 0x3a
 817 00f3 0B       		.uleb128 0xb
 818 00f4 3B       		.uleb128 0x3b
 819 00f5 0B       		.uleb128 0xb
 820 00f6 49       		.uleb128 0x49
 821 00f7 13       		.uleb128 0x13
 822 00f8 02       		.uleb128 0x2
 823 00f9 0A       		.uleb128 0xa
 824 00fa 00       		.byte	0x0
 825 00fb 00       		.byte	0x0
 826 00fc 13       		.uleb128 0x13
 827 00fd 0B       		.uleb128 0xb
 828 00fe 01       		.byte	0x1
 829 00ff 11       		.uleb128 0x11
 830 0100 01       		.uleb128 0x1
 831 0101 12       		.uleb128 0x12
 832 0102 01       		.uleb128 0x1
 833 0103 01       		.uleb128 0x1
 834 0104 13       		.uleb128 0x13
 835 0105 00       		.byte	0x0
 836 0106 00       		.byte	0x0
 837 0107 14       		.uleb128 0x14
 838 0108 34       		.uleb128 0x34
 839 0109 00       		.byte	0x0
 840 010a 03       		.uleb128 0x3
 841 010b 08       		.uleb128 0x8
 842 010c 3A       		.uleb128 0x3a
 843 010d 0B       		.uleb128 0xb
ARM GAS  /tmp/ccObkdYW.s 			page 16


 844 010e 3B       		.uleb128 0x3b
 845 010f 0B       		.uleb128 0xb
 846 0110 49       		.uleb128 0x49
 847 0111 13       		.uleb128 0x13
 848 0112 02       		.uleb128 0x2
 849 0113 0A       		.uleb128 0xa
 850 0114 00       		.byte	0x0
 851 0115 00       		.byte	0x0
 852 0116 15       		.uleb128 0x15
 853 0117 0B       		.uleb128 0xb
 854 0118 01       		.byte	0x1
 855 0119 11       		.uleb128 0x11
 856 011a 01       		.uleb128 0x1
 857 011b 12       		.uleb128 0x12
 858 011c 01       		.uleb128 0x1
 859 011d 00       		.byte	0x0
 860 011e 00       		.byte	0x0
 861 011f 16       		.uleb128 0x16
 862 0120 26       		.uleb128 0x26
 863 0121 00       		.byte	0x0
 864 0122 49       		.uleb128 0x49
 865 0123 13       		.uleb128 0x13
 866 0124 00       		.byte	0x0
 867 0125 00       		.byte	0x0
 868 0126 17       		.uleb128 0x17
 869 0127 34       		.uleb128 0x34
 870 0128 00       		.byte	0x0
 871 0129 03       		.uleb128 0x3
 872 012a 0E       		.uleb128 0xe
 873 012b 3A       		.uleb128 0x3a
 874 012c 0B       		.uleb128 0xb
 875 012d 3B       		.uleb128 0x3b
 876 012e 05       		.uleb128 0x5
 877 012f 49       		.uleb128 0x49
 878 0130 13       		.uleb128 0x13
 879 0131 3F       		.uleb128 0x3f
 880 0132 0C       		.uleb128 0xc
 881 0133 3C       		.uleb128 0x3c
 882 0134 0C       		.uleb128 0xc
 883 0135 00       		.byte	0x0
 884 0136 00       		.byte	0x0
 885 0137 00       		.byte	0x0
 886              		.section	.debug_pubnames,"",%progbits
 887 0000 37000000 		.4byte	0x37
 888 0004 0200     		.2byte	0x2
 889 0006 00000000 		.4byte	.Ldebug_info0
 890 000a 90020000 		.4byte	0x290
 891 000e 8B010000 		.4byte	0x18b
 892 0012 69776467 		.ascii	"iwdgInit\000"
 892      496E6974 
 892      00
 893 001b A0010000 		.4byte	0x1a0
 894 001f 69776467 		.ascii	"iwdgStart\000"
 894      53746172 
 894      7400
 895 0029 19020000 		.4byte	0x219
 896 002d 69776467 		.ascii	"iwdgReset\000"
ARM GAS  /tmp/ccObkdYW.s 			page 17


 896      52657365 
 896      7400
 897 0037 00000000 		.4byte	0x0
 898              		.section	.debug_pubtypes,"",%progbits
 899 0000 8E000000 		.4byte	0x8e
 900 0004 0200     		.2byte	0x2
 901 0006 00000000 		.4byte	.Ldebug_info0
 902 000a 90020000 		.4byte	0x290
 903 000e 3E000000 		.4byte	0x3e
 904 0012 75696E74 		.ascii	"uint8_t\000"
 904      385F7400 
 905 001a 57000000 		.4byte	0x57
 906 001e 75696E74 		.ascii	"uint16_t\000"
 906      31365F74 
 906      00
 907 0027 69000000 		.4byte	0x69
 908 002b 696E7433 		.ascii	"int32_t\000"
 908      325F7400 
 909 0033 7B000000 		.4byte	0x7b
 910 0037 75696E74 		.ascii	"uint32_t\000"
 910      33325F74 
 910      00
 911 0040 EF000000 		.4byte	0xef
 912 0044 49574447 		.ascii	"IWDG_TypeDef\000"
 912      5F547970 
 912      65446566 
 912      00
 913 0051 16010000 		.4byte	0x116
 914 0055 69776467 		.ascii	"iwdgstate_t\000"
 914      73746174 
 914      655F7400 
 915 0061 46010000 		.4byte	0x146
 916 0065 49574447 		.ascii	"IWDGConfig\000"
 916      436F6E66 
 916      696700
 917 0070 51010000 		.4byte	0x151
 918 0074 49574447 		.ascii	"IWDGDriver\000"
 918      44726976 
 918      657200
 919 007f 80010000 		.4byte	0x180
 920 0083 49574447 		.ascii	"IWDGDriver\000"
 920      44726976 
 920      657200
 921 008e 00000000 		.4byte	0x0
 922              		.section	.debug_aranges,"",%progbits
 923 0000 2C000000 		.4byte	0x2c
 924 0004 0200     		.2byte	0x2
 925 0006 00000000 		.4byte	.Ldebug_info0
 926 000a 04       		.byte	0x4
 927 000b 00       		.byte	0x0
 928 000c 0000     		.2byte	0x0
 929 000e 0000     		.2byte	0x0
 930 0010 00000000 		.4byte	.LFB62
 931 0014 08000000 		.4byte	.LFE62-.LFB62
 932 0018 00000000 		.4byte	.LFB63
 933 001c 4C000000 		.4byte	.LFE63-.LFB63
 934 0020 00000000 		.4byte	.LFB64
ARM GAS  /tmp/ccObkdYW.s 			page 18


 935 0024 38000000 		.4byte	.LFE64-.LFB64
 936 0028 00000000 		.4byte	0x0
 937 002c 00000000 		.4byte	0x0
 938              		.section	.debug_ranges,"",%progbits
 939              	.Ldebug_ranges0:
 940 0000 00000000 		.4byte	.LFB62
 941 0004 08000000 		.4byte	.LFE62
 942 0008 00000000 		.4byte	.LFB63
 943 000c 4C000000 		.4byte	.LFE63
 944 0010 00000000 		.4byte	.LFB64
 945 0014 38000000 		.4byte	.LFE64
 946 0018 00000000 		.4byte	0x0
 947 001c 00000000 		.4byte	0x0
 948              		.section	.debug_str,"MS",%progbits,1
 949              	.LASF21:
 950 0000 73746174 		.ascii	"state\000"
 950      6500
 951              	.LASF30:
 952 0006 2E2F7372 		.ascii	"./src/iwdg/iwdg.c\000"
 952      632F6977 
 952      64672F69 
 952      7764672E 
 952      6300
 953              	.LASF8:
 954 0018 6C6F6E67 		.ascii	"long int\000"
 954      20696E74 
 954      00
 955              	.LASF23:
 956 0021 49574447 		.ascii	"IWDGDriver\000"
 956      44726976 
 956      657200
 957              	.LASF31:
 958 002c 2F686F6D 		.ascii	"/home/z80/projects/voltamper.git/firmware/voltamp\000"
 958      652F7A38 
 958      302F7072 
 958      6F6A6563 
 958      74732F76 
 959              	.LASF19:
 960 005e 636F756E 		.ascii	"counter\000"
 960      74657200 
 961              	.LASF12:
 962 0066 6C6F6E67 		.ascii	"long long unsigned int\000"
 962      206C6F6E 
 962      6720756E 
 962      7369676E 
 962      65642069 
 963              	.LASF2:
 964 007d 756E7369 		.ascii	"unsigned char\000"
 964      676E6564 
 964      20636861 
 964      7200
 965              	.LASF10:
 966 008b 6C6F6E67 		.ascii	"long unsigned int\000"
 966      20756E73 
 966      69676E65 
 966      6420696E 
 966      7400
ARM GAS  /tmp/ccObkdYW.s 			page 19


 967              	.LASF6:
 968 009d 73686F72 		.ascii	"short unsigned int\000"
 968      7420756E 
 968      7369676E 
 968      65642069 
 968      6E7400
 969              	.LASF28:
 970 00b0 49544D5F 		.ascii	"ITM_RxBuffer\000"
 970      52784275 
 970      66666572 
 970      00
 971              	.LASF25:
 972 00bd 636F6E66 		.ascii	"config\000"
 972      696700
 973              	.LASF16:
 974 00c4 49574447 		.ascii	"IWDG_STOP\000"
 974      5F53544F 
 974      5000
 975              	.LASF29:
 976 00ce 474E5520 		.ascii	"GNU C 4.5.2\000"
 976      4320342E 
 976      352E3200 
 977              	.LASF22:
 978 00da 69776467 		.ascii	"iwdg\000"
 978      00
 979              	.LASF0:
 980 00df 756E7369 		.ascii	"unsigned int\000"
 980      676E6564 
 980      20696E74 
 980      00
 981              	.LASF13:
 982 00ec 63686172 		.ascii	"char\000"
 982      00
 983              	.LASF4:
 984 00f1 75696E74 		.ascii	"uint8_t\000"
 984      385F7400 
 985              	.LASF20:
 986 00f9 49574447 		.ascii	"IWDGConfig\000"
 986      436F6E66 
 986      696700
 987              	.LASF24:
 988 0104 69776467 		.ascii	"iwdgp\000"
 988      7000
 989              	.LASF7:
 990 010a 696E7433 		.ascii	"int32_t\000"
 990      325F7400 
 991              	.LASF11:
 992 0112 6C6F6E67 		.ascii	"long long int\000"
 992      206C6F6E 
 992      6720696E 
 992      7400
 993              	.LASF27:
 994 0120 69776467 		.ascii	"iwdgReset\000"
 994      52657365 
 994      7400
 995              	.LASF32:
 996 012a 69776467 		.ascii	"iwdgInit\000"
ARM GAS  /tmp/ccObkdYW.s 			page 20


 996      496E6974 
 996      00
 997              	.LASF3:
 998 0133 73686F72 		.ascii	"short int\000"
 998      7420696E 
 998      7400
 999              	.LASF18:
 1000 013d 69776467 		.ascii	"iwdgstate_t\000"
 1000      73746174 
 1000      655F7400 
 1001              	.LASF5:
 1002 0149 75696E74 		.ascii	"uint16_t\000"
 1002      31365F74 
 1002      00
 1003              	.LASF9:
 1004 0152 75696E74 		.ascii	"uint32_t\000"
 1004      33325F74 
 1004      00
 1005              	.LASF15:
 1006 015b 49574447 		.ascii	"IWDG_UNINIT\000"
 1006      5F554E49 
 1006      4E495400 
 1007              	.LASF1:
 1008 0167 7369676E 		.ascii	"signed char\000"
 1008      65642063 
 1008      68617200 
 1009              	.LASF26:
 1010 0173 69776467 		.ascii	"iwdgStart\000"
 1010      53746172 
 1010      7400
 1011              	.LASF17:
 1012 017d 49574447 		.ascii	"IWDG_READY\000"
 1012      5F524541 
 1012      445900
 1013              	.LASF14:
 1014 0188 49574447 		.ascii	"IWDG_TypeDef\000"
 1014      5F547970 
 1014      65446566 
 1014      00
 1015              		.ident	"GCC: (Sourcery G++ Lite 2011.03-42) 4.5.2"
ARM GAS  /tmp/cctMrySW.s 			page 21


DEFINED SYMBOLS
                            *ABS*:00000000 iwdg.c
     /tmp/cctMrySW.s:24     .text.iwdgInit:00000000 $t
     /tmp/cctMrySW.s:30     .text.iwdgInit:00000000 iwdgInit
     /tmp/cctMrySW.s:50     .rodata:00000000 $d
     /tmp/cctMrySW.s:54     .text.iwdgStart:00000000 $t
     /tmp/cctMrySW.s:60     .text.iwdgStart:00000000 iwdgStart
     /tmp/cctMrySW.s:120    .text.iwdgStart:00000048 $d
     /tmp/cctMrySW.s:129    .text.iwdgReset:00000000 $t
     /tmp/cctMrySW.s:135    .text.iwdgReset:00000000 iwdgReset
     /tmp/cctMrySW.s:184    .text.iwdgReset:00000034 $d
                     .debug_frame:00000010 $d
     /tmp/cctMrySW.s:124    .text.iwdgStart:0000004c $t
     /tmp/cctMrySW.s:188    .text.iwdgReset:00000038 $t

UNDEFINED SYMBOLS
iwdg_lld_init
chDbgPanic
dbg_check_lock
iwdg_lld_start
dbg_check_unlock
iwdg_lld_reset
