ARM GAS  /tmp/cc0cjUk3.s 			page 1


   1              		.syntax unified
   2              		.cpu cortex-m3
   3              		.fpu softvfp
   4              		.eabi_attribute 20, 1
   5              		.eabi_attribute 21, 1
   6              		.eabi_attribute 23, 3
   7              		.eabi_attribute 24, 1
   8              		.eabi_attribute 25, 1
   9              		.eabi_attribute 26, 1
  10              		.eabi_attribute 30, 2
  11              		.eabi_attribute 18, 4
  12              		.thumb
  13              		.file	"led_ctrl.c"
  14              		.section	.debug_abbrev,"",%progbits
  15              	.Ldebug_abbrev0:
  16              		.section	.debug_info,"",%progbits
  17              	.Ldebug_info0:
  18              		.section	.debug_line,"",%progbits
  19              	.Ldebug_line0:
  20 0000 94020000 		.text
  20      0200F701 
  20      00000201 
  20      FB0E0D00 
  20      01010101 
  21              	.Ltext0:
  22              		.cfi_sections	.debug_frame
  23              		.section	.text.ledsThread,"ax",%progbits
  24              		.align	2
  25              		.p2align 4,,15
  26              		.thumb
  27              		.thumb_func
  28              		.type	ledsThread, %function
  29              	ledsThread:
  30              	.LFB62:
  31              		.file 1 "./src/led_ctrl.c"
  32              		.loc 1 14 0
  33              		.cfi_startproc
  34              		@ args = 0, pretend = 0, frame = 0
  35              		@ frame_needed = 0, uses_anonymous_args = 0
  36              	.LVL0:
  37              		.loc 1 16 0
  38 0000 1248     		ldr	r0, .L7
  39              	.LVL1:
  40              		.loc 1 14 0
  41 0002 38B5     		push	{r3, r4, r5, lr}
  42              	.LCFI0:
  43              		.cfi_def_cfa_offset 16
  44              		.loc 1 16 0
  45 0004 124A     		ldr	r2, .L7+4
  46 0006 C369     		ldr	r3, [r0, #28]
  47              		.cfi_offset 14, -4
  48              		.cfi_offset 5, -8
  49              		.cfi_offset 4, -12
  50              		.cfi_offset 3, -16
  51 0008 124D     		ldr	r5, .L7+8
  52              	.LBB2:
  53              		.loc 1 23 0
ARM GAS  /tmp/cc0cjUk3.s 			page 2


  54 000a 134C     		ldr	r4, .L7+12
  55              	.LBE2:
  56              		.loc 1 16 0
  57 000c 9A61     		str	r2, [r3, #24]
  58              	.L5:
  59              	.LBB3:
  60              		.loc 1 20 0
  61 000e 1348     		ldr	r0, .L7+16
  62 0010 FFF7FEFF 		bl	chMtxLock
  63              		.loc 1 21 0
  64 0014 2B68     		ldr	r3, [r5, #0]
  65              		.loc 1 22 0
  66 0016 13F0010F 		tst	r3, #1
  67 001a 03D0     		beq	.L2
  68              		.loc 1 23 0
  69 001c E268     		ldr	r2, [r4, #12]
  70 001e 82F48041 		eor	r1, r2, #16384
  71 0022 E160     		str	r1, [r4, #12]
  72              	.L2:
  73              		.loc 1 24 0
  74 0024 13F0020F 		tst	r3, #2
  75 0028 03D0     		beq	.L3
  76              		.loc 1 25 0
  77 002a E168     		ldr	r1, [r4, #12]
  78 002c 81F40050 		eor	r0, r1, #8192
  79 0030 E060     		str	r0, [r4, #12]
  80              	.L3:
  81              		.loc 1 26 0
  82 0032 13F0040F 		tst	r3, #4
  83 0036 03D0     		beq	.L4
  84              		.loc 1 27 0
  85 0038 E268     		ldr	r2, [r4, #12]
  86 003a 82F48053 		eor	r3, r2, #4096
  87 003e E360     		str	r3, [r4, #12]
  88              	.L4:
  89              		.loc 1 28 0
  90 0040 FFF7FEFF 		bl	chMtxUnlock
  91              		.loc 1 29 0
  92 0044 7D20     		movs	r0, #125
  93 0046 FFF7FEFF 		bl	chThdSleep
  94              	.LBE3:
  95              		.loc 1 30 0
  96 004a E0E7     		b	.L5
  97              	.L8:
  98              		.align	2
  99              	.L7:
 100 004c 00000000 		.word	rlist
 101 0050 00000000 		.word	.LC0
 102 0054 00000000 		.word	.LANCHOR1
 103 0058 000C0140 		.word	1073810432
 104 005c 00000000 		.word	.LANCHOR0
 105              		.cfi_endproc
 106              	.LFE62:
 107              		.size	ledsThread, .-ledsThread
 108              		.section	.text.initLed,"ax",%progbits
 109              		.align	2
 110              		.p2align 4,,15
ARM GAS  /tmp/cc0cjUk3.s 			page 3


 111              		.global	initLed
 112              		.thumb
 113              		.thumb_func
 114              		.type	initLed, %function
 115              	initLed:
 116              	.LFB63:
 117              		.loc 1 36 0
 118              		.cfi_startproc
 119              		@ args = 0, pretend = 0, frame = 0
 120              		@ frame_needed = 0, uses_anonymous_args = 0
 121 0000 70B5     		push	{r4, r5, r6, lr}
 122              	.LCFI1:
 123              		.cfi_def_cfa_offset 16
 124              		.loc 1 37 0
 125 0002 144C     		ldr	r4, .L10
 126              		.cfi_offset 14, -4
 127              		.cfi_offset 6, -8
 128              		.cfi_offset 5, -12
 129              		.cfi_offset 4, -16
 130 0004 4FF48043 		mov	r3, #16384
 131              		.loc 1 38 0
 132 0008 4FF40056 		mov	r6, #8192
 133              		.loc 1 39 0
 134 000c 4FF48055 		mov	r5, #4096
 135              		.loc 1 37 0
 136 0010 2361     		str	r3, [r4, #16]
 137              		.loc 1 36 0
 138 0012 82B0     		sub	sp, sp, #8
 139              	.LCFI2:
 140              		.cfi_def_cfa_offset 24
 141              		.loc 1 40 0
 142 0014 1946     		mov	r1, r3
 143              		.loc 1 38 0
 144 0016 2661     		str	r6, [r4, #16]
 145              		.loc 1 40 0
 146 0018 0622     		movs	r2, #6
 147 001a 2046     		mov	r0, r4
 148              		.loc 1 39 0
 149 001c 2561     		str	r5, [r4, #16]
 150              		.loc 1 40 0
 151 001e FFF7FEFF 		bl	_pal_lld_setgroupmode
 152              		.loc 1 41 0
 153 0022 2046     		mov	r0, r4
 154 0024 3146     		mov	r1, r6
 155 0026 0622     		movs	r2, #6
 156 0028 FFF7FEFF 		bl	_pal_lld_setgroupmode
 157              		.loc 1 42 0
 158 002c 2946     		mov	r1, r5
 159 002e 0622     		movs	r2, #6
 160 0030 2046     		mov	r0, r4
 161 0032 FFF7FEFF 		bl	_pal_lld_setgroupmode
 162              		.loc 1 45 0
 163 0036 0848     		ldr	r0, .L10+4
 164 0038 FFF7FEFF 		bl	chMtxInit
 165              		.loc 1 47 0
 166 003c 0024     		movs	r4, #0
 167 003e 4FF4D871 		mov	r1, #432
ARM GAS  /tmp/cc0cjUk3.s 			page 4


 168 0042 4022     		movs	r2, #64
 169 0044 054B     		ldr	r3, .L10+8
 170 0046 0648     		ldr	r0, .L10+12
 171 0048 0094     		str	r4, [sp, #0]
 172 004a FFF7FEFF 		bl	chThdCreateStatic
 173              		.loc 1 48 0
 174 004e 02B0     		add	sp, sp, #8
 175 0050 70BD     		pop	{r4, r5, r6, pc}
 176              	.L11:
 177 0052 00BF     		.align	2
 178              	.L10:
 179 0054 000C0140 		.word	1073810432
 180 0058 00000000 		.word	.LANCHOR0
 181 005c 00000000 		.word	ledsThread
 182 0060 00000000 		.word	.LANCHOR2
 183              		.cfi_endproc
 184              	.LFE63:
 185              		.size	initLed, .-initLed
 186 0064 AFF30080 		.section	.text.setLeds,"ax",%progbits
 186      AFF30080 
 186      AFF30080 
 187              		.align	2
 188              		.p2align 4,,15
 189              		.global	setLeds
 190              		.thumb
 191              		.thumb_func
 192              		.type	setLeds, %function
 193              	setLeds:
 194              	.LFB64:
 195              		.loc 1 51 0
 196              		.cfi_startproc
 197              		@ args = 0, pretend = 0, frame = 0
 198              		@ frame_needed = 0, uses_anonymous_args = 0
 199              	.LVL2:
 200 0000 10B5     		push	{r4, lr}
 201              	.LCFI3:
 202              		.cfi_def_cfa_offset 8
 203              		.loc 1 51 0
 204 0002 0446     		mov	r4, r0
 205              		.cfi_offset 14, -4
 206              		.cfi_offset 4, -8
 207              		.loc 1 52 0
 208 0004 0448     		ldr	r0, .L13
 209              	.LVL3:
 210 0006 FFF7FEFF 		bl	chMtxLock
 211              		.loc 1 53 0
 212 000a 044B     		ldr	r3, .L13+4
 213 000c 1C60     		str	r4, [r3, #0]
 214              		.loc 1 55 0
 215 000e BDE81040 		pop	{r4, lr}
 216              		.loc 1 54 0
 217 0012 FFF7FEBF 		b	chMtxUnlock
 218              	.L14:
 219 0016 00BF     		.align	2
 220              	.L13:
 221 0018 00000000 		.word	.LANCHOR0
 222 001c 00000000 		.word	.LANCHOR1
ARM GAS  /tmp/cc0cjUk3.s 			page 5


 223              		.cfi_endproc
 224              	.LFE64:
 225              		.size	setLeds, .-setLeds
 226              		.section	.text.toggleLeds,"ax",%progbits
 227              		.align	2
 228              		.p2align 4,,15
 229              		.global	toggleLeds
 230              		.thumb
 231              		.thumb_func
 232              		.type	toggleLeds, %function
 233              	toggleLeds:
 234              	.LFB65:
 235              		.loc 1 58 0
 236              		.cfi_startproc
 237              		@ args = 0, pretend = 0, frame = 0
 238              		@ frame_needed = 0, uses_anonymous_args = 0
 239              	.LVL4:
 240 0000 10B5     		push	{r4, lr}
 241              	.LCFI4:
 242              		.cfi_def_cfa_offset 8
 243              		.loc 1 58 0
 244 0002 0446     		mov	r4, r0
 245              		.cfi_offset 14, -4
 246              		.cfi_offset 4, -8
 247              		.loc 1 59 0
 248 0004 0948     		ldr	r0, .L16
 249              	.LVL5:
 250 0006 FFF7FEFF 		bl	chMtxLock
 251              		.loc 1 60 0
 252 000a 094B     		ldr	r3, .L16+4
 253 000c 1A68     		ldr	r2, [r3, #0]
 254              		.loc 1 61 0
 255 000e D043     		mvns	r0, r2
 256 0010 00F00701 		and	r1, r0, #7
 257              		.loc 1 60 0
 258 0014 22EA0400 		bic	r0, r2, r4
 259              		.loc 1 61 0
 260 0018 01EA0404 		and	r4, r1, r4
 261              	.LVL6:
 262              		.loc 1 60 0
 263 001c 40EA0402 		orr	r2, r0, r4
 264 0020 1A60     		str	r2, [r3, #0]
 265              		.loc 1 63 0
 266 0022 BDE81040 		pop	{r4, lr}
 267              		.loc 1 62 0
 268 0026 FFF7FEBF 		b	chMtxUnlock
 269              	.L17:
 270 002a 00BF     		.align	2
 271              	.L16:
 272 002c 00000000 		.word	.LANCHOR0
 273 0030 00000000 		.word	.LANCHOR1
 274              		.cfi_endproc
 275              	.LFE65:
 276              		.size	toggleLeds, .-toggleLeds
 277 0034 AFF30080 		.section	.text.toggleLedsImmediate,"ax",%progbits
 277      AFF30080 
 277      AFF30080 
ARM GAS  /tmp/cc0cjUk3.s 			page 6


 278              		.align	2
 279              		.p2align 4,,15
 280              		.global	toggleLedsImmediate
 281              		.thumb
 282              		.thumb_func
 283              		.type	toggleLedsImmediate, %function
 284              	toggleLedsImmediate:
 285              	.LFB66:
 286              		.loc 1 66 0
 287              		.cfi_startproc
 288              		@ args = 0, pretend = 0, frame = 0
 289              		@ frame_needed = 0, uses_anonymous_args = 0
 290              		@ link register save eliminated.
 291              	.LVL7:
 292              		.loc 1 67 0
 293 0000 10F0010F 		tst	r0, #1
 294 0004 04D0     		beq	.L19
 295              		.loc 1 68 0
 296 0006 0B4B     		ldr	r3, .L22
 297 0008 D968     		ldr	r1, [r3, #12]
 298 000a 81F48042 		eor	r2, r1, #16384
 299 000e DA60     		str	r2, [r3, #12]
 300              	.L19:
 301              		.loc 1 69 0
 302 0010 10F0020F 		tst	r0, #2
 303 0014 04D0     		beq	.L20
 304              		.loc 1 70 0
 305 0016 074B     		ldr	r3, .L22
 306 0018 D968     		ldr	r1, [r3, #12]
 307 001a 81F40052 		eor	r2, r1, #8192
 308 001e DA60     		str	r2, [r3, #12]
 309              	.L20:
 310              		.loc 1 71 0
 311 0020 10F0040F 		tst	r0, #4
 312 0024 04D0     		beq	.L18
 313              		.loc 1 72 0
 314 0026 034B     		ldr	r3, .L22
 315 0028 DA68     		ldr	r2, [r3, #12]
 316 002a 82F48050 		eor	r0, r2, #4096
 317              	.LVL8:
 318 002e D860     		str	r0, [r3, #12]
 319              	.L18:
 320 0030 7047     		bx	lr
 321              	.L23:
 322 0032 00BF     		.align	2
 323              	.L22:
 324 0034 000C0140 		.word	1073810432
 325              		.cfi_endproc
 326              	.LFE66:
 327              		.size	toggleLedsImmediate, .-toggleLedsImmediate
 328 0038 AFF30080 		.section	.text.toggleLedsI,"ax",%progbits
 328      AFF30080 
 329              		.align	2
 330              		.p2align 4,,15
 331              		.global	toggleLedsI
 332              		.thumb
 333              		.thumb_func
ARM GAS  /tmp/cc0cjUk3.s 			page 7


 334              		.type	toggleLedsI, %function
 335              	toggleLedsI:
 336              	.LFB67:
 337              		.loc 1 76 0
 338              		.cfi_startproc
 339              		@ args = 0, pretend = 0, frame = 0
 340              		@ frame_needed = 0, uses_anonymous_args = 0
 341              		@ link register save eliminated.
 342              	.LVL9:
 343              		.loc 1 77 0
 344 0000 10F0010F 		tst	r0, #1
 345 0004 04D0     		beq	.L25
 346              		.loc 1 78 0
 347 0006 0B4B     		ldr	r3, .L28
 348 0008 D968     		ldr	r1, [r3, #12]
 349 000a 81F48042 		eor	r2, r1, #16384
 350 000e DA60     		str	r2, [r3, #12]
 351              	.L25:
 352              		.loc 1 79 0
 353 0010 10F0020F 		tst	r0, #2
 354 0014 04D0     		beq	.L26
 355              		.loc 1 80 0
 356 0016 074B     		ldr	r3, .L28
 357 0018 D968     		ldr	r1, [r3, #12]
 358 001a 81F40052 		eor	r2, r1, #8192
 359 001e DA60     		str	r2, [r3, #12]
 360              	.L26:
 361              		.loc 1 81 0
 362 0020 10F0040F 		tst	r0, #4
 363 0024 04D0     		beq	.L24
 364              		.loc 1 82 0
 365 0026 034B     		ldr	r3, .L28
 366 0028 DA68     		ldr	r2, [r3, #12]
 367 002a 82F48050 		eor	r0, r2, #4096
 368              	.LVL10:
 369 002e D860     		str	r0, [r3, #12]
 370              	.L24:
 371 0030 7047     		bx	lr
 372              	.L29:
 373 0032 00BF     		.align	2
 374              	.L28:
 375 0034 000C0140 		.word	1073810432
 376              		.cfi_endproc
 377              	.LFE67:
 378              		.size	toggleLedsI, .-toggleLedsI
 379 0038 AFF30080 		.section	.bss.mutex,"aw",%nobits
 379      AFF30080 
 380              		.align	2
 381              		.set	.LANCHOR0,. + 0
 382              		.type	mutex, %object
 383              		.size	mutex, 16
 384              	mutex:
 385 0000 00000000 		.space	16
 385      00000000 
 385      00000000 
 385      00000000 
 386              		.section	.bss.value,"aw",%nobits
ARM GAS  /tmp/cc0cjUk3.s 			page 8


 387              		.align	2
 388              		.set	.LANCHOR1,. + 0
 389              		.type	value, %object
 390              		.size	value, 4
 391              	value:
 392 0000 00000000 		.space	4
 393              		.section	.bss.waLeds,"aw",%nobits
 394              		.align	3
 395              		.set	.LANCHOR2,. + 0
 396              		.type	waLeds, %object
 397              		.size	waLeds, 432
 398              	waLeds:
 399 0000 00000000 		.space	432
 399      00000000 
 399      00000000 
 399      00000000 
 399      00000000 
 400              		.section	.rodata.str1.4,"aMS",%progbits,1
 401              		.align	2
 402              	.LC0:
 403 0000 6C6400   		.ascii	"ld\000"
 404 0003 00       		.text
 405              	.Letext0:
 406              		.section	.debug_loc,"",%progbits
 407              	.Ldebug_loc0:
 408              	.LLST0:
 409 0000 00000000 		.4byte	.LFB62
 410 0004 04000000 		.4byte	.LCFI0
 411 0008 0200     		.2byte	0x2
 412 000a 7D       		.byte	0x7d
 413 000b 00       		.sleb128 0
 414 000c 04000000 		.4byte	.LCFI0
 415 0010 60000000 		.4byte	.LFE62
 416 0014 0200     		.2byte	0x2
 417 0016 7D       		.byte	0x7d
 418 0017 10       		.sleb128 16
 419 0018 00000000 		.4byte	0x0
 420 001c 00000000 		.4byte	0x0
 421              	.LLST1:
 422 0020 00000000 		.4byte	.LVL0
 423 0024 02000000 		.4byte	.LVL1
 424 0028 0100     		.2byte	0x1
 425 002a 50       		.byte	0x50
 426 002b 00000000 		.4byte	0x0
 427 002f 00000000 		.4byte	0x0
 428              	.LLST2:
 429 0033 00000000 		.4byte	.LFB63
 430 0037 02000000 		.4byte	.LCFI1
 431 003b 0200     		.2byte	0x2
 432 003d 7D       		.byte	0x7d
 433 003e 00       		.sleb128 0
 434 003f 02000000 		.4byte	.LCFI1
 435 0043 14000000 		.4byte	.LCFI2
 436 0047 0200     		.2byte	0x2
 437 0049 7D       		.byte	0x7d
 438 004a 10       		.sleb128 16
 439 004b 14000000 		.4byte	.LCFI2
ARM GAS  /tmp/cc0cjUk3.s 			page 9


 440 004f 64000000 		.4byte	.LFE63
 441 0053 0200     		.2byte	0x2
 442 0055 7D       		.byte	0x7d
 443 0056 18       		.sleb128 24
 444 0057 00000000 		.4byte	0x0
 445 005b 00000000 		.4byte	0x0
 446              	.LLST3:
 447 005f 00000000 		.4byte	.LFB64
 448 0063 02000000 		.4byte	.LCFI3
 449 0067 0200     		.2byte	0x2
 450 0069 7D       		.byte	0x7d
 451 006a 00       		.sleb128 0
 452 006b 02000000 		.4byte	.LCFI3
 453 006f 20000000 		.4byte	.LFE64
 454 0073 0200     		.2byte	0x2
 455 0075 7D       		.byte	0x7d
 456 0076 08       		.sleb128 8
 457 0077 00000000 		.4byte	0x0
 458 007b 00000000 		.4byte	0x0
 459              	.LLST4:
 460 007f 00000000 		.4byte	.LVL2
 461 0083 06000000 		.4byte	.LVL3
 462 0087 0100     		.2byte	0x1
 463 0089 50       		.byte	0x50
 464 008a 06000000 		.4byte	.LVL3
 465 008e 20000000 		.4byte	.LFE64
 466 0092 0100     		.2byte	0x1
 467 0094 54       		.byte	0x54
 468 0095 00000000 		.4byte	0x0
 469 0099 00000000 		.4byte	0x0
 470              	.LLST5:
 471 009d 00000000 		.4byte	.LFB65
 472 00a1 02000000 		.4byte	.LCFI4
 473 00a5 0200     		.2byte	0x2
 474 00a7 7D       		.byte	0x7d
 475 00a8 00       		.sleb128 0
 476 00a9 02000000 		.4byte	.LCFI4
 477 00ad 34000000 		.4byte	.LFE65
 478 00b1 0200     		.2byte	0x2
 479 00b3 7D       		.byte	0x7d
 480 00b4 08       		.sleb128 8
 481 00b5 00000000 		.4byte	0x0
 482 00b9 00000000 		.4byte	0x0
 483              	.LLST6:
 484 00bd 00000000 		.4byte	.LVL4
 485 00c1 06000000 		.4byte	.LVL5
 486 00c5 0100     		.2byte	0x1
 487 00c7 50       		.byte	0x50
 488 00c8 06000000 		.4byte	.LVL5
 489 00cc 1C000000 		.4byte	.LVL6
 490 00d0 0100     		.2byte	0x1
 491 00d2 54       		.byte	0x54
 492 00d3 00000000 		.4byte	0x0
 493 00d7 00000000 		.4byte	0x0
 494              	.LLST7:
 495 00db 00000000 		.4byte	.LVL7
 496 00df 2E000000 		.4byte	.LVL8
ARM GAS  /tmp/cc0cjUk3.s 			page 10


 497 00e3 0100     		.2byte	0x1
 498 00e5 50       		.byte	0x50
 499 00e6 00000000 		.4byte	0x0
 500 00ea 00000000 		.4byte	0x0
 501              	.LLST8:
 502 00ee 00000000 		.4byte	.LVL9
 503 00f2 2E000000 		.4byte	.LVL10
 504 00f6 0100     		.2byte	0x1
 505 00f8 50       		.byte	0x50
 506 00f9 00000000 		.4byte	0x0
 507 00fd 00000000 		.4byte	0x0
 508              		.file 2 "/home/z80/programs/code-sourcery/2011.03-42/bin/../lib/gcc/arm-none-eabi/4.5.2/../../../.
 509              		.file 3 "../chibios_2.4.x/os/ports/GCC/ARMCMx/chtypes.h"
 510              		.file 4 "../chibios_2.4.x/os/kernel/include/chlists.h"
 511              		.file 5 "../chibios_2.4.x/os/kernel/include/chthreads.h"
 512              		.file 6 "../chibios_2.4.x/os/ports/GCC/ARMCMx/chcore_v7m.h"
 513              		.file 7 "../chibios_2.4.x/os/kernel/include/chschd.h"
 514              		.file 8 "../chibios_2.4.x/os/kernel/include/chmtx.h"
 515              		.file 9 "../chibios_2.4.x/os/hal/platforms/STM32F1xx/stm32f10x.h"
 516              		.file 10 "../chibios_2.4.x/os/hal/platforms/STM32/GPIOv1/pal_lld.h"
 517              		.file 11 "../chibios_2.4.x/os/ports/common/ARMCMx/CMSIS/include/core_cm3.h"
 518              		.section	.debug_info
 519 0000 57060000 		.4byte	0x657
 520 0004 0200     		.2byte	0x2
 521 0006 00000000 		.4byte	.Ldebug_abbrev0
 522 000a 04       		.byte	0x4
 523 000b 01       		.uleb128 0x1
 524 000c 92020000 		.4byte	.LASF77
 525 0010 01       		.byte	0x1
 526 0011 C9020000 		.4byte	.LASF78
 527 0015 1E000000 		.4byte	.LASF79
 528 0019 00000000 		.4byte	0x0
 529 001d 00000000 		.4byte	0x0
 530 0021 18000000 		.4byte	.Ldebug_ranges0+0x18
 531 0025 00000000 		.4byte	.Ldebug_line0
 532 0029 02       		.uleb128 0x2
 533 002a 04       		.byte	0x4
 534 002b 05       		.byte	0x5
 535 002c 696E7400 		.ascii	"int\000"
 536 0030 03       		.uleb128 0x3
 537 0031 04       		.byte	0x4
 538 0032 07       		.byte	0x7
 539 0033 B0010000 		.4byte	.LASF0
 540 0037 03       		.uleb128 0x3
 541 0038 01       		.byte	0x1
 542 0039 06       		.byte	0x6
 543 003a 71010000 		.4byte	.LASF1
 544 003e 04       		.uleb128 0x4
 545 003f DA000000 		.4byte	.LASF5
 546 0043 02       		.byte	0x2
 547 0044 2A       		.byte	0x2a
 548 0045 49000000 		.4byte	0x49
 549 0049 03       		.uleb128 0x3
 550 004a 01       		.byte	0x1
 551 004b 08       		.byte	0x8
 552 004c 5C010000 		.4byte	.LASF2
 553 0050 03       		.uleb128 0x3
ARM GAS  /tmp/cc0cjUk3.s 			page 11


 554 0051 02       		.byte	0x2
 555 0052 05       		.byte	0x5
 556 0053 59000000 		.4byte	.LASF3
 557 0057 03       		.uleb128 0x3
 558 0058 02       		.byte	0x2
 559 0059 07       		.byte	0x7
 560 005a 27020000 		.4byte	.LASF4
 561 005e 04       		.uleb128 0x4
 562 005f 12020000 		.4byte	.LASF6
 563 0063 02       		.byte	0x2
 564 0064 4F       		.byte	0x4f
 565 0065 69000000 		.4byte	0x69
 566 0069 03       		.uleb128 0x3
 567 006a 04       		.byte	0x4
 568 006b 05       		.byte	0x5
 569 006c 1A010000 		.4byte	.LASF7
 570 0070 04       		.uleb128 0x4
 571 0071 A7010000 		.4byte	.LASF8
 572 0075 02       		.byte	0x2
 573 0076 50       		.byte	0x50
 574 0077 7B000000 		.4byte	0x7b
 575 007b 03       		.uleb128 0x3
 576 007c 04       		.byte	0x4
 577 007d 07       		.byte	0x7
 578 007e 74020000 		.4byte	.LASF9
 579 0082 03       		.uleb128 0x3
 580 0083 08       		.byte	0x8
 581 0084 05       		.byte	0x5
 582 0085 FE000000 		.4byte	.LASF10
 583 0089 04       		.uleb128 0x4
 584 008a 15000000 		.4byte	.LASF11
 585 008e 02       		.byte	0x2
 586 008f 78       		.byte	0x78
 587 0090 94000000 		.4byte	0x94
 588 0094 03       		.uleb128 0x3
 589 0095 08       		.byte	0x8
 590 0096 07       		.byte	0x7
 591 0097 85010000 		.4byte	.LASF12
 592 009b 04       		.uleb128 0x4
 593 009c F6000000 		.4byte	.LASF13
 594 00a0 03       		.byte	0x3
 595 00a1 2F       		.byte	0x2f
 596 00a2 3E000000 		.4byte	0x3e
 597 00a6 04       		.uleb128 0x4
 598 00a7 AC020000 		.4byte	.LASF14
 599 00ab 03       		.byte	0x3
 600 00ac 30       		.byte	0x30
 601 00ad 3E000000 		.4byte	0x3e
 602 00b1 04       		.uleb128 0x4
 603 00b2 0D000000 		.4byte	.LASF15
 604 00b6 03       		.byte	0x3
 605 00b7 31       		.byte	0x31
 606 00b8 3E000000 		.4byte	0x3e
 607 00bc 04       		.uleb128 0x4
 608 00bd 0C010000 		.4byte	.LASF16
 609 00c1 03       		.byte	0x3
 610 00c2 32       		.byte	0x32
ARM GAS  /tmp/cc0cjUk3.s 			page 12


 611 00c3 70000000 		.4byte	0x70
 612 00c7 04       		.uleb128 0x4
 613 00c8 1B030000 		.4byte	.LASF17
 614 00cc 03       		.byte	0x3
 615 00cd 33       		.byte	0x33
 616 00ce 5E000000 		.4byte	0x5e
 617 00d2 04       		.uleb128 0x4
 618 00d3 98000000 		.4byte	.LASF18
 619 00d7 03       		.byte	0x3
 620 00d8 35       		.byte	0x35
 621 00d9 70000000 		.4byte	0x70
 622 00dd 04       		.uleb128 0x4
 623 00de F6010000 		.4byte	.LASF19
 624 00e2 03       		.byte	0x3
 625 00e3 36       		.byte	0x36
 626 00e4 70000000 		.4byte	0x70
 627 00e8 04       		.uleb128 0x4
 628 00e9 21020000 		.4byte	.LASF20
 629 00ed 03       		.byte	0x3
 630 00ee 37       		.byte	0x37
 631 00ef 5E000000 		.4byte	0x5e
 632 00f3 04       		.uleb128 0x4
 633 00f4 9E020000 		.4byte	.LASF21
 634 00f8 04       		.byte	0x4
 635 00f9 2A       		.byte	0x2a
 636 00fa FE000000 		.4byte	0xfe
 637 00fe 05       		.uleb128 0x5
 638 00ff 9E020000 		.4byte	.LASF21
 639 0103 4C       		.byte	0x4c
 640 0104 05       		.byte	0x5
 641 0105 5E       		.byte	0x5e
 642 0106 23020000 		.4byte	0x223
 643 010a 06       		.uleb128 0x6
 644 010b B6000000 		.4byte	.LASF22
 645 010f 05       		.byte	0x5
 646 0110 5F       		.byte	0x5f
 647 0111 48020000 		.4byte	0x248
 648 0115 02       		.byte	0x2
 649 0116 23       		.byte	0x23
 650 0117 00       		.uleb128 0x0
 651 0118 06       		.uleb128 0x6
 652 0119 8B000000 		.4byte	.LASF23
 653 011d 05       		.byte	0x5
 654 011e 61       		.byte	0x61
 655 011f 48020000 		.4byte	0x248
 656 0123 02       		.byte	0x2
 657 0124 23       		.byte	0x23
 658 0125 04       		.uleb128 0x4
 659 0126 06       		.uleb128 0x6
 660 0127 AF000000 		.4byte	.LASF24
 661 012b 05       		.byte	0x5
 662 012c 63       		.byte	0x63
 663 012d BC000000 		.4byte	0xbc
 664 0131 02       		.byte	0x2
 665 0132 23       		.byte	0x23
 666 0133 08       		.uleb128 0x8
 667 0134 06       		.uleb128 0x6
ARM GAS  /tmp/cc0cjUk3.s 			page 13


 668 0135 E9020000 		.4byte	.LASF25
 669 0139 05       		.byte	0x5
 670 013a 64       		.byte	0x64
 671 013b 20030000 		.4byte	0x320
 672 013f 02       		.byte	0x2
 673 0140 23       		.byte	0x23
 674 0141 0C       		.uleb128 0xc
 675 0142 06       		.uleb128 0x6
 676 0143 7D010000 		.4byte	.LASF26
 677 0147 05       		.byte	0x5
 678 0148 66       		.byte	0x66
 679 0149 48020000 		.4byte	0x248
 680 014d 02       		.byte	0x2
 681 014e 23       		.byte	0x23
 682 014f 10       		.uleb128 0x10
 683 0150 06       		.uleb128 0x6
 684 0151 DA020000 		.4byte	.LASF27
 685 0155 05       		.byte	0x5
 686 0156 67       		.byte	0x67
 687 0157 48020000 		.4byte	0x248
 688 015b 02       		.byte	0x2
 689 015c 23       		.byte	0x23
 690 015d 14       		.uleb128 0x14
 691 015e 06       		.uleb128 0x6
 692 015f 0B020000 		.4byte	.LASF28
 693 0163 05       		.byte	0x5
 694 0164 6E       		.byte	0x6e
 695 0165 40040000 		.4byte	0x440
 696 0169 02       		.byte	0x2
 697 016a 23       		.byte	0x23
 698 016b 18       		.uleb128 0x18
 699 016c 06       		.uleb128 0x6
 700 016d 80000000 		.4byte	.LASF29
 701 0171 05       		.byte	0x5
 702 0172 74       		.byte	0x74
 703 0173 52040000 		.4byte	0x452
 704 0177 02       		.byte	0x2
 705 0178 23       		.byte	0x23
 706 0179 1C       		.uleb128 0x1c
 707 017a 06       		.uleb128 0x6
 708 017b 3A020000 		.4byte	.LASF30
 709 017f 05       		.byte	0x5
 710 0180 79       		.byte	0x79
 711 0181 A6000000 		.4byte	0xa6
 712 0185 02       		.byte	0x2
 713 0186 23       		.byte	0x23
 714 0187 20       		.uleb128 0x20
 715 0188 06       		.uleb128 0x6
 716 0189 E3010000 		.4byte	.LASF31
 717 018d 05       		.byte	0x5
 718 018e 7D       		.byte	0x7d
 719 018f 9B000000 		.4byte	0x9b
 720 0193 02       		.byte	0x2
 721 0194 23       		.byte	0x23
 722 0195 21       		.uleb128 0x21
 723 0196 06       		.uleb128 0x6
 724 0197 E2020000 		.4byte	.LASF32
ARM GAS  /tmp/cc0cjUk3.s 			page 14


 725 019b 05       		.byte	0x5
 726 019c 82       		.byte	0x82
 727 019d B1000000 		.4byte	0xb1
 728 01a1 02       		.byte	0x2
 729 01a2 23       		.byte	0x23
 730 01a3 22       		.uleb128 0x22
 731 01a4 06       		.uleb128 0x6
 732 01a5 EF000000 		.4byte	.LASF33
 733 01a9 05       		.byte	0x5
 734 01aa 89       		.byte	0x89
 735 01ab 48030000 		.4byte	0x348
 736 01af 02       		.byte	0x2
 737 01b0 23       		.byte	0x23
 738 01b1 24       		.uleb128 0x24
 739 01b2 07       		.uleb128 0x7
 740 01b3 705F7500 		.ascii	"p_u\000"
 741 01b7 05       		.byte	0x5
 742 01b8 AE       		.byte	0xae
 743 01b9 0B040000 		.4byte	0x40b
 744 01bd 02       		.byte	0x2
 745 01be 23       		.byte	0x23
 746 01bf 28       		.uleb128 0x28
 747 01c0 06       		.uleb128 0x6
 748 01c1 59020000 		.4byte	.LASF34
 749 01c5 05       		.byte	0x5
 750 01c6 B3       		.byte	0xb3
 751 01c7 70020000 		.4byte	0x270
 752 01cb 02       		.byte	0x2
 753 01cc 23       		.byte	0x23
 754 01cd 2C       		.uleb128 0x2c
 755 01ce 06       		.uleb128 0x6
 756 01cf A4000000 		.4byte	.LASF35
 757 01d3 05       		.byte	0x5
 758 01d4 B9       		.byte	0xb9
 759 01d5 4E020000 		.4byte	0x24e
 760 01d9 02       		.byte	0x2
 761 01da 23       		.byte	0x23
 762 01db 30       		.uleb128 0x30
 763 01dc 06       		.uleb128 0x6
 764 01dd 56010000 		.4byte	.LASF36
 765 01e1 05       		.byte	0x5
 766 01e2 BD       		.byte	0xbd
 767 01e3 C7000000 		.4byte	0xc7
 768 01e7 02       		.byte	0x2
 769 01e8 23       		.byte	0x23
 770 01e9 38       		.uleb128 0x38
 771 01ea 06       		.uleb128 0x6
 772 01eb 6B000000 		.4byte	.LASF37
 773 01ef 05       		.byte	0x5
 774 01f0 C3       		.byte	0xc3
 775 01f1 D2000000 		.4byte	0xd2
 776 01f5 02       		.byte	0x2
 777 01f6 23       		.byte	0x23
 778 01f7 3C       		.uleb128 0x3c
 779 01f8 06       		.uleb128 0x6
 780 01f9 63020000 		.4byte	.LASF38
 781 01fd 05       		.byte	0x5
ARM GAS  /tmp/cc0cjUk3.s 			page 15


 782 01fe CA       		.byte	0xca
 783 01ff 58040000 		.4byte	0x458
 784 0203 02       		.byte	0x2
 785 0204 23       		.byte	0x23
 786 0205 40       		.uleb128 0x40
 787 0206 06       		.uleb128 0x6
 788 0207 EB010000 		.4byte	.LASF39
 789 020b 05       		.byte	0x5
 790 020c CE       		.byte	0xce
 791 020d BC000000 		.4byte	0xbc
 792 0211 02       		.byte	0x2
 793 0212 23       		.byte	0x23
 794 0213 44       		.uleb128 0x44
 795 0214 06       		.uleb128 0x6
 796 0215 CD010000 		.4byte	.LASF40
 797 0219 05       		.byte	0x5
 798 021a D4       		.byte	0xd4
 799 021b 86020000 		.4byte	0x286
 800 021f 02       		.byte	0x2
 801 0220 23       		.byte	0x23
 802 0221 48       		.uleb128 0x48
 803 0222 00       		.byte	0x0
 804 0223 08       		.uleb128 0x8
 805 0224 08       		.byte	0x8
 806 0225 04       		.byte	0x4
 807 0226 61       		.byte	0x61
 808 0227 48020000 		.4byte	0x248
 809 022b 06       		.uleb128 0x6
 810 022c B6000000 		.4byte	.LASF22
 811 0230 04       		.byte	0x4
 812 0231 62       		.byte	0x62
 813 0232 48020000 		.4byte	0x248
 814 0236 02       		.byte	0x2
 815 0237 23       		.byte	0x23
 816 0238 00       		.uleb128 0x0
 817 0239 06       		.uleb128 0x6
 818 023a 8B000000 		.4byte	.LASF23
 819 023e 04       		.byte	0x4
 820 023f 64       		.byte	0x64
 821 0240 48020000 		.4byte	0x248
 822 0244 02       		.byte	0x2
 823 0245 23       		.byte	0x23
 824 0246 04       		.uleb128 0x4
 825 0247 00       		.byte	0x0
 826 0248 09       		.uleb128 0x9
 827 0249 04       		.byte	0x4
 828 024a F3000000 		.4byte	0xf3
 829 024e 04       		.uleb128 0x4
 830 024f 42020000 		.4byte	.LASF41
 831 0253 04       		.byte	0x4
 832 0254 66       		.byte	0x66
 833 0255 23020000 		.4byte	0x223
 834 0259 08       		.uleb128 0x8
 835 025a 04       		.byte	0x4
 836 025b 04       		.byte	0x4
 837 025c 6B       		.byte	0x6b
 838 025d 70020000 		.4byte	0x270
ARM GAS  /tmp/cc0cjUk3.s 			page 16


 839 0261 06       		.uleb128 0x6
 840 0262 B6000000 		.4byte	.LASF22
 841 0266 04       		.byte	0x4
 842 0267 6D       		.byte	0x6d
 843 0268 48020000 		.4byte	0x248
 844 026c 02       		.byte	0x2
 845 026d 23       		.byte	0x23
 846 026e 00       		.uleb128 0x0
 847 026f 00       		.byte	0x0
 848 0270 04       		.uleb128 0x4
 849 0271 4D000000 		.4byte	.LASF42
 850 0275 04       		.byte	0x4
 851 0276 70       		.byte	0x70
 852 0277 59020000 		.4byte	0x259
 853 027b 04       		.uleb128 0x4
 854 027c D1000000 		.4byte	.LASF43
 855 0280 06       		.byte	0x6
 856 0281 D7       		.byte	0xd7
 857 0282 86020000 		.4byte	0x286
 858 0286 0A       		.uleb128 0xa
 859 0287 04       		.byte	0x4
 860 0288 04       		.uleb128 0x4
 861 0289 B5020000 		.4byte	.LASF44
 862 028d 06       		.byte	0x6
 863 028e DD       		.byte	0xdd
 864 028f 89000000 		.4byte	0x89
 865 0293 05       		.uleb128 0x5
 866 0294 6D020000 		.4byte	.LASF45
 867 0298 24       		.byte	0x24
 868 0299 06       		.byte	0x6
 869 029a FE       		.byte	0xfe
 870 029b 20030000 		.4byte	0x320
 871 029f 0B       		.uleb128 0xb
 872 02a0 723400   		.ascii	"r4\000"
 873 02a3 06       		.byte	0x6
 874 02a4 1101     		.2byte	0x111
 875 02a6 7B020000 		.4byte	0x27b
 876 02aa 02       		.byte	0x2
 877 02ab 23       		.byte	0x23
 878 02ac 00       		.uleb128 0x0
 879 02ad 0B       		.uleb128 0xb
 880 02ae 723500   		.ascii	"r5\000"
 881 02b1 06       		.byte	0x6
 882 02b2 1201     		.2byte	0x112
 883 02b4 7B020000 		.4byte	0x27b
 884 02b8 02       		.byte	0x2
 885 02b9 23       		.byte	0x23
 886 02ba 04       		.uleb128 0x4
 887 02bb 0B       		.uleb128 0xb
 888 02bc 723600   		.ascii	"r6\000"
 889 02bf 06       		.byte	0x6
 890 02c0 1301     		.2byte	0x113
 891 02c2 7B020000 		.4byte	0x27b
 892 02c6 02       		.byte	0x2
 893 02c7 23       		.byte	0x23
 894 02c8 08       		.uleb128 0x8
 895 02c9 0B       		.uleb128 0xb
ARM GAS  /tmp/cc0cjUk3.s 			page 17


 896 02ca 723700   		.ascii	"r7\000"
 897 02cd 06       		.byte	0x6
 898 02ce 1401     		.2byte	0x114
 899 02d0 7B020000 		.4byte	0x27b
 900 02d4 02       		.byte	0x2
 901 02d5 23       		.byte	0x23
 902 02d6 0C       		.uleb128 0xc
 903 02d7 0B       		.uleb128 0xb
 904 02d8 723800   		.ascii	"r8\000"
 905 02db 06       		.byte	0x6
 906 02dc 1501     		.2byte	0x115
 907 02de 7B020000 		.4byte	0x27b
 908 02e2 02       		.byte	0x2
 909 02e3 23       		.byte	0x23
 910 02e4 10       		.uleb128 0x10
 911 02e5 0B       		.uleb128 0xb
 912 02e6 723900   		.ascii	"r9\000"
 913 02e9 06       		.byte	0x6
 914 02ea 1601     		.2byte	0x116
 915 02ec 7B020000 		.4byte	0x27b
 916 02f0 02       		.byte	0x2
 917 02f1 23       		.byte	0x23
 918 02f2 14       		.uleb128 0x14
 919 02f3 0B       		.uleb128 0xb
 920 02f4 72313000 		.ascii	"r10\000"
 921 02f8 06       		.byte	0x6
 922 02f9 1701     		.2byte	0x117
 923 02fb 7B020000 		.4byte	0x27b
 924 02ff 02       		.byte	0x2
 925 0300 23       		.byte	0x23
 926 0301 18       		.uleb128 0x18
 927 0302 0B       		.uleb128 0xb
 928 0303 72313100 		.ascii	"r11\000"
 929 0307 06       		.byte	0x6
 930 0308 1801     		.2byte	0x118
 931 030a 7B020000 		.4byte	0x27b
 932 030e 02       		.byte	0x2
 933 030f 23       		.byte	0x23
 934 0310 1C       		.uleb128 0x1c
 935 0311 0B       		.uleb128 0xb
 936 0312 6C7200   		.ascii	"lr\000"
 937 0315 06       		.byte	0x6
 938 0316 1901     		.2byte	0x119
 939 0318 7B020000 		.4byte	0x27b
 940 031c 02       		.byte	0x2
 941 031d 23       		.byte	0x23
 942 031e 20       		.uleb128 0x20
 943 031f 00       		.byte	0x0
 944 0320 0C       		.uleb128 0xc
 945 0321 30010000 		.4byte	.LASF46
 946 0325 04       		.byte	0x4
 947 0326 06       		.byte	0x6
 948 0327 2301     		.2byte	0x123
 949 0329 3D030000 		.4byte	0x33d
 950 032d 0B       		.uleb128 0xb
 951 032e 72313300 		.ascii	"r13\000"
 952 0332 06       		.byte	0x6
ARM GAS  /tmp/cc0cjUk3.s 			page 18


 953 0333 2401     		.2byte	0x124
 954 0335 3D030000 		.4byte	0x33d
 955 0339 02       		.byte	0x2
 956 033a 23       		.byte	0x23
 957 033b 00       		.uleb128 0x0
 958 033c 00       		.byte	0x0
 959 033d 09       		.uleb128 0x9
 960 033e 04       		.byte	0x4
 961 033f 93020000 		.4byte	0x293
 962 0343 0D       		.uleb128 0xd
 963 0344 70000000 		.4byte	0x70
 964 0348 0D       		.uleb128 0xd
 965 0349 DD000000 		.4byte	0xdd
 966 034d 08       		.uleb128 0x8
 967 034e 20       		.byte	0x20
 968 034f 07       		.byte	0x7
 969 0350 5E       		.byte	0x5e
 970 0351 B8030000 		.4byte	0x3b8
 971 0355 06       		.uleb128 0x6
 972 0356 63000000 		.4byte	.LASF47
 973 035a 07       		.byte	0x7
 974 035b 5F       		.byte	0x5f
 975 035c 4E020000 		.4byte	0x24e
 976 0360 02       		.byte	0x2
 977 0361 23       		.byte	0x23
 978 0362 00       		.uleb128 0x0
 979 0363 06       		.uleb128 0x6
 980 0364 1A020000 		.4byte	.LASF48
 981 0368 07       		.byte	0x7
 982 0369 60       		.byte	0x60
 983 036a BC000000 		.4byte	0xbc
 984 036e 02       		.byte	0x2
 985 036f 23       		.byte	0x23
 986 0370 08       		.uleb128 0x8
 987 0371 06       		.uleb128 0x6
 988 0372 92000000 		.4byte	.LASF49
 989 0376 07       		.byte	0x7
 990 0377 62       		.byte	0x62
 991 0378 20030000 		.4byte	0x320
 992 037c 02       		.byte	0x2
 993 037d 23       		.byte	0x23
 994 037e 0C       		.uleb128 0xc
 995 037f 06       		.uleb128 0x6
 996 0380 DB010000 		.4byte	.LASF50
 997 0384 07       		.byte	0x7
 998 0385 65       		.byte	0x65
 999 0386 48020000 		.4byte	0x248
 1000 038a 02       		.byte	0x2
 1001 038b 23       		.byte	0x23
 1002 038c 10       		.uleb128 0x10
 1003 038d 06       		.uleb128 0x6
 1004 038e 21030000 		.4byte	.LASF51
 1005 0392 07       		.byte	0x7
 1006 0393 66       		.byte	0x66
 1007 0394 48020000 		.4byte	0x248
 1008 0398 02       		.byte	0x2
 1009 0399 23       		.byte	0x23
ARM GAS  /tmp/cc0cjUk3.s 			page 19


 1010 039a 14       		.uleb128 0x14
 1011 039b 06       		.uleb128 0x6
 1012 039c 4F020000 		.4byte	.LASF52
 1013 03a0 07       		.byte	0x7
 1014 03a1 6A       		.byte	0x6a
 1015 03a2 E8000000 		.4byte	0xe8
 1016 03a6 02       		.byte	0x2
 1017 03a7 23       		.byte	0x23
 1018 03a8 18       		.uleb128 0x18
 1019 03a9 06       		.uleb128 0x6
 1020 03aa 4C010000 		.4byte	.LASF53
 1021 03ae 07       		.byte	0x7
 1022 03af 6C       		.byte	0x6c
 1023 03b0 48020000 		.4byte	0x248
 1024 03b4 02       		.byte	0x2
 1025 03b5 23       		.byte	0x23
 1026 03b6 1C       		.uleb128 0x1c
 1027 03b7 00       		.byte	0x0
 1028 03b8 04       		.uleb128 0x4
 1029 03b9 76000000 		.4byte	.LASF54
 1030 03bd 07       		.byte	0x7
 1031 03be 6E       		.byte	0x6e
 1032 03bf 4D030000 		.4byte	0x34d
 1033 03c3 05       		.uleb128 0x5
 1034 03c4 14010000 		.4byte	.LASF55
 1035 03c8 10       		.byte	0x10
 1036 03c9 08       		.byte	0x8
 1037 03ca 2C       		.byte	0x2c
 1038 03cb FA030000 		.4byte	0x3fa
 1039 03cf 06       		.uleb128 0x6
 1040 03d0 28010000 		.4byte	.LASF56
 1041 03d4 08       		.byte	0x8
 1042 03d5 2D       		.byte	0x2d
 1043 03d6 4E020000 		.4byte	0x24e
 1044 03da 02       		.byte	0x2
 1045 03db 23       		.byte	0x23
 1046 03dc 00       		.uleb128 0x0
 1047 03dd 06       		.uleb128 0x6
 1048 03de 07030000 		.4byte	.LASF57
 1049 03e2 08       		.byte	0x8
 1050 03e3 2F       		.byte	0x2f
 1051 03e4 48020000 		.4byte	0x248
 1052 03e8 02       		.byte	0x2
 1053 03e9 23       		.byte	0x23
 1054 03ea 08       		.uleb128 0x8
 1055 03eb 06       		.uleb128 0x6
 1056 03ec C4000000 		.4byte	.LASF58
 1057 03f0 08       		.byte	0x8
 1058 03f1 31       		.byte	0x31
 1059 03f2 FA030000 		.4byte	0x3fa
 1060 03f6 02       		.byte	0x2
 1061 03f7 23       		.byte	0x23
 1062 03f8 0C       		.uleb128 0xc
 1063 03f9 00       		.byte	0x0
 1064 03fa 09       		.uleb128 0x9
 1065 03fb 04       		.byte	0x4
 1066 03fc C3030000 		.4byte	0x3c3
ARM GAS  /tmp/cc0cjUk3.s 			page 20


 1067 0400 04       		.uleb128 0x4
 1068 0401 14010000 		.4byte	.LASF55
 1069 0405 08       		.byte	0x8
 1070 0406 33       		.byte	0x33
 1071 0407 C3030000 		.4byte	0x3c3
 1072 040b 0E       		.uleb128 0xe
 1073 040c 04       		.byte	0x4
 1074 040d 05       		.byte	0x5
 1075 040e 90       		.byte	0x90
 1076 040f 40040000 		.4byte	0x440
 1077 0413 0F       		.uleb128 0xf
 1078 0414 14030000 		.4byte	.LASF59
 1079 0418 05       		.byte	0x5
 1080 0419 97       		.byte	0x97
 1081 041a C7000000 		.4byte	0xc7
 1082 041e 0F       		.uleb128 0xf
 1083 041f C0020000 		.4byte	.LASF60
 1084 0423 05       		.byte	0x5
 1085 0424 9E       		.byte	0x9e
 1086 0425 C7000000 		.4byte	0xc7
 1087 0429 0F       		.uleb128 0xf
 1088 042a A5020000 		.4byte	.LASF61
 1089 042e 05       		.byte	0x5
 1090 042f A5       		.byte	0xa5
 1091 0430 86020000 		.4byte	0x286
 1092 0434 0F       		.uleb128 0xf
 1093 0435 6A010000 		.4byte	.LASF62
 1094 0439 05       		.byte	0x5
 1095 043a AC       		.byte	0xac
 1096 043b D2000000 		.4byte	0xd2
 1097 043f 00       		.byte	0x0
 1098 0440 09       		.uleb128 0x9
 1099 0441 04       		.byte	0x4
 1100 0442 46040000 		.4byte	0x446
 1101 0446 10       		.uleb128 0x10
 1102 0447 4B040000 		.4byte	0x44b
 1103 044b 03       		.uleb128 0x3
 1104 044c 01       		.byte	0x1
 1105 044d 08       		.byte	0x8
 1106 044e 06020000 		.4byte	.LASF63
 1107 0452 09       		.uleb128 0x9
 1108 0453 04       		.byte	0x4
 1109 0454 88020000 		.4byte	0x288
 1110 0458 09       		.uleb128 0x9
 1111 0459 04       		.byte	0x4
 1112 045a 00040000 		.4byte	0x400
 1113 045e 0D       		.uleb128 0xd
 1114 045f 5E000000 		.4byte	0x5e
 1115 0463 11       		.uleb128 0x11
 1116 0464 1C       		.byte	0x1c
 1117 0465 09       		.byte	0x9
 1118 0466 F803     		.2byte	0x3f8
 1119 0468 D6040000 		.4byte	0x4d6
 1120 046c 0B       		.uleb128 0xb
 1121 046d 43524C00 		.ascii	"CRL\000"
 1122 0471 09       		.byte	0x9
 1123 0472 FA03     		.2byte	0x3fa
ARM GAS  /tmp/cc0cjUk3.s 			page 21


 1124 0474 43030000 		.4byte	0x343
 1125 0478 02       		.byte	0x2
 1126 0479 23       		.byte	0x23
 1127 047a 00       		.uleb128 0x0
 1128 047b 0B       		.uleb128 0xb
 1129 047c 43524800 		.ascii	"CRH\000"
 1130 0480 09       		.byte	0x9
 1131 0481 FB03     		.2byte	0x3fb
 1132 0483 43030000 		.4byte	0x343
 1133 0487 02       		.byte	0x2
 1134 0488 23       		.byte	0x23
 1135 0489 04       		.uleb128 0x4
 1136 048a 0B       		.uleb128 0xb
 1137 048b 49445200 		.ascii	"IDR\000"
 1138 048f 09       		.byte	0x9
 1139 0490 FC03     		.2byte	0x3fc
 1140 0492 43030000 		.4byte	0x343
 1141 0496 02       		.byte	0x2
 1142 0497 23       		.byte	0x23
 1143 0498 08       		.uleb128 0x8
 1144 0499 0B       		.uleb128 0xb
 1145 049a 4F445200 		.ascii	"ODR\000"
 1146 049e 09       		.byte	0x9
 1147 049f FD03     		.2byte	0x3fd
 1148 04a1 43030000 		.4byte	0x343
 1149 04a5 02       		.byte	0x2
 1150 04a6 23       		.byte	0x23
 1151 04a7 0C       		.uleb128 0xc
 1152 04a8 12       		.uleb128 0x12
 1153 04a9 23010000 		.4byte	.LASF64
 1154 04ad 09       		.byte	0x9
 1155 04ae FE03     		.2byte	0x3fe
 1156 04b0 43030000 		.4byte	0x343
 1157 04b4 02       		.byte	0x2
 1158 04b5 23       		.byte	0x23
 1159 04b6 10       		.uleb128 0x10
 1160 04b7 0B       		.uleb128 0xb
 1161 04b8 42525200 		.ascii	"BRR\000"
 1162 04bc 09       		.byte	0x9
 1163 04bd FF03     		.2byte	0x3ff
 1164 04bf 43030000 		.4byte	0x343
 1165 04c3 02       		.byte	0x2
 1166 04c4 23       		.byte	0x23
 1167 04c5 14       		.uleb128 0x14
 1168 04c6 12       		.uleb128 0x12
 1169 04c7 0F030000 		.4byte	.LASF65
 1170 04cb 09       		.byte	0x9
 1171 04cc 0004     		.2byte	0x400
 1172 04ce 43030000 		.4byte	0x343
 1173 04d2 02       		.byte	0x2
 1174 04d3 23       		.byte	0x23
 1175 04d4 18       		.uleb128 0x18
 1176 04d5 00       		.byte	0x0
 1177 04d6 13       		.uleb128 0x13
 1178 04d7 00000000 		.4byte	.LASF66
 1179 04db 09       		.byte	0x9
 1180 04dc 0104     		.2byte	0x401
ARM GAS  /tmp/cc0cjUk3.s 			page 22


 1181 04de 63040000 		.4byte	0x463
 1182 04e2 04       		.uleb128 0x4
 1183 04e3 E2000000 		.4byte	.LASF67
 1184 04e7 0A       		.byte	0xa
 1185 04e8 78       		.byte	0x78
 1186 04e9 70000000 		.4byte	0x70
 1187 04ed 14       		.uleb128 0x14
 1188 04ee 9C010000 		.4byte	.LASF80
 1189 04f2 01       		.byte	0x1
 1190 04f3 0D       		.byte	0xd
 1191 04f4 01       		.byte	0x1
 1192 04f5 C7000000 		.4byte	0xc7
 1193 04f9 00000000 		.4byte	.LFB62
 1194 04fd 60000000 		.4byte	.LFE62
 1195 0501 00000000 		.4byte	.LLST0
 1196 0505 2A050000 		.4byte	0x52a
 1197 0509 15       		.uleb128 0x15
 1198 050a 61726700 		.ascii	"arg\000"
 1199 050e 01       		.byte	0x1
 1200 050f 0D       		.byte	0xd
 1201 0510 86020000 		.4byte	0x286
 1202 0514 20000000 		.4byte	.LLST1
 1203 0518 16       		.uleb128 0x16
 1204 0519 00000000 		.4byte	.Ldebug_ranges0+0x0
 1205 051d 17       		.uleb128 0x17
 1206 051e 61726700 		.ascii	"arg\000"
 1207 0522 01       		.byte	0x1
 1208 0523 13       		.byte	0x13
 1209 0524 70000000 		.4byte	0x70
 1210 0528 00       		.byte	0x0
 1211 0529 00       		.byte	0x0
 1212 052a 18       		.uleb128 0x18
 1213 052b 01       		.byte	0x1
 1214 052c C5010000 		.4byte	.LASF81
 1215 0530 01       		.byte	0x1
 1216 0531 23       		.byte	0x23
 1217 0532 01       		.byte	0x1
 1218 0533 00000000 		.4byte	.LFB63
 1219 0537 64000000 		.4byte	.LFE63
 1220 053b 33000000 		.4byte	.LLST2
 1221 053f 19       		.uleb128 0x19
 1222 0540 01       		.byte	0x1
 1223 0541 BD010000 		.4byte	.LASF68
 1224 0545 01       		.byte	0x1
 1225 0546 32       		.byte	0x32
 1226 0547 01       		.byte	0x1
 1227 0548 00000000 		.4byte	.LFB64
 1228 054c 20000000 		.4byte	.LFE64
 1229 0550 5F000000 		.4byte	.LLST3
 1230 0554 68050000 		.4byte	0x568
 1231 0558 15       		.uleb128 0x15
 1232 0559 61726700 		.ascii	"arg\000"
 1233 055d 01       		.byte	0x1
 1234 055e 32       		.byte	0x32
 1235 055f 70000000 		.4byte	0x70
 1236 0563 7F000000 		.4byte	.LLST4
 1237 0567 00       		.byte	0x0
ARM GAS  /tmp/cc0cjUk3.s 			page 23


 1238 0568 19       		.uleb128 0x19
 1239 0569 01       		.byte	0x1
 1240 056a FC020000 		.4byte	.LASF69
 1241 056e 01       		.byte	0x1
 1242 056f 39       		.byte	0x39
 1243 0570 01       		.byte	0x1
 1244 0571 00000000 		.4byte	.LFB65
 1245 0575 34000000 		.4byte	.LFE65
 1246 0579 9D000000 		.4byte	.LLST5
 1247 057d 91050000 		.4byte	0x591
 1248 0581 15       		.uleb128 0x15
 1249 0582 61726700 		.ascii	"arg\000"
 1250 0586 01       		.byte	0x1
 1251 0587 39       		.byte	0x39
 1252 0588 70000000 		.4byte	0x70
 1253 058c BD000000 		.4byte	.LLST6
 1254 0590 00       		.byte	0x0
 1255 0591 1A       		.uleb128 0x1a
 1256 0592 01       		.byte	0x1
 1257 0593 38010000 		.4byte	.LASF70
 1258 0597 01       		.byte	0x1
 1259 0598 41       		.byte	0x41
 1260 0599 01       		.byte	0x1
 1261 059a 00000000 		.4byte	.LFB66
 1262 059e 38000000 		.4byte	.LFE66
 1263 05a2 02       		.byte	0x2
 1264 05a3 7D       		.byte	0x7d
 1265 05a4 00       		.sleb128 0
 1266 05a5 B9050000 		.4byte	0x5b9
 1267 05a9 15       		.uleb128 0x15
 1268 05aa 76616C00 		.ascii	"val\000"
 1269 05ae 01       		.byte	0x1
 1270 05af 41       		.byte	0x41
 1271 05b0 70000000 		.4byte	0x70
 1272 05b4 DB000000 		.4byte	.LLST7
 1273 05b8 00       		.byte	0x0
 1274 05b9 1A       		.uleb128 0x1a
 1275 05ba 01       		.byte	0x1
 1276 05bb 86020000 		.4byte	.LASF71
 1277 05bf 01       		.byte	0x1
 1278 05c0 4B       		.byte	0x4b
 1279 05c1 01       		.byte	0x1
 1280 05c2 00000000 		.4byte	.LFB67
 1281 05c6 38000000 		.4byte	.LFE67
 1282 05ca 02       		.byte	0x2
 1283 05cb 7D       		.byte	0x7d
 1284 05cc 00       		.sleb128 0
 1285 05cd E1050000 		.4byte	0x5e1
 1286 05d1 15       		.uleb128 0x15
 1287 05d2 61726700 		.ascii	"arg\000"
 1288 05d6 01       		.byte	0x1
 1289 05d7 4B       		.byte	0x4b
 1290 05d8 70000000 		.4byte	0x70
 1291 05dc EE000000 		.4byte	.LLST8
 1292 05e0 00       		.byte	0x0
 1293 05e1 1B       		.uleb128 0x1b
 1294 05e2 00020000 		.4byte	.LASF72
ARM GAS  /tmp/cc0cjUk3.s 			page 24


 1295 05e6 07       		.byte	0x7
 1296 05e7 72       		.byte	0x72
 1297 05e8 B8030000 		.4byte	0x3b8
 1298 05ec 01       		.byte	0x1
 1299 05ed 01       		.byte	0x1
 1300 05ee 1C       		.uleb128 0x1c
 1301 05ef EF020000 		.4byte	.LASF73
 1302 05f3 0B       		.byte	0xb
 1303 05f4 9404     		.2byte	0x494
 1304 05f6 5E040000 		.4byte	0x45e
 1305 05fa 01       		.byte	0x1
 1306 05fb 01       		.byte	0x1
 1307 05fc 1D       		.uleb128 0x1d
 1308 05fd D5010000 		.4byte	.LASF74
 1309 0601 01       		.byte	0x1
 1310 0602 08       		.byte	0x8
 1311 0603 00040000 		.4byte	0x400
 1312 0607 05       		.byte	0x5
 1313 0608 03       		.byte	0x3
 1314 0609 00000000 		.4byte	mutex
 1315 060d 1D       		.uleb128 0x1d
 1316 060e CB000000 		.4byte	.LASF75
 1317 0612 01       		.byte	0x1
 1318 0613 09       		.byte	0x9
 1319 0614 70000000 		.4byte	0x70
 1320 0618 05       		.byte	0x5
 1321 0619 03       		.byte	0x3
 1322 061a 00000000 		.4byte	value
 1323 061e 1E       		.uleb128 0x1e
 1324 061f 88020000 		.4byte	0x288
 1325 0623 2E060000 		.4byte	0x62e
 1326 0627 1F       		.uleb128 0x1f
 1327 0628 30000000 		.4byte	0x30
 1328 062c 35       		.byte	0x35
 1329 062d 00       		.byte	0x0
 1330 062e 1D       		.uleb128 0x1d
 1331 062f BD000000 		.4byte	.LASF76
 1332 0633 01       		.byte	0x1
 1333 0634 0C       		.byte	0xc
 1334 0635 1E060000 		.4byte	0x61e
 1335 0639 05       		.byte	0x5
 1336 063a 03       		.byte	0x3
 1337 063b 00000000 		.4byte	waLeds
 1338 063f 1B       		.uleb128 0x1b
 1339 0640 00020000 		.4byte	.LASF72
 1340 0644 07       		.byte	0x7
 1341 0645 72       		.byte	0x72
 1342 0646 B8030000 		.4byte	0x3b8
 1343 064a 01       		.byte	0x1
 1344 064b 01       		.byte	0x1
 1345 064c 1C       		.uleb128 0x1c
 1346 064d EF020000 		.4byte	.LASF73
 1347 0651 0B       		.byte	0xb
 1348 0652 9404     		.2byte	0x494
 1349 0654 5E040000 		.4byte	0x45e
 1350 0658 01       		.byte	0x1
 1351 0659 01       		.byte	0x1
ARM GAS  /tmp/cc0cjUk3.s 			page 25


 1352 065a 00       		.byte	0x0
 1353              		.section	.debug_abbrev
 1354 0000 01       		.uleb128 0x1
 1355 0001 11       		.uleb128 0x11
 1356 0002 01       		.byte	0x1
 1357 0003 25       		.uleb128 0x25
 1358 0004 0E       		.uleb128 0xe
 1359 0005 13       		.uleb128 0x13
 1360 0006 0B       		.uleb128 0xb
 1361 0007 03       		.uleb128 0x3
 1362 0008 0E       		.uleb128 0xe
 1363 0009 1B       		.uleb128 0x1b
 1364 000a 0E       		.uleb128 0xe
 1365 000b 11       		.uleb128 0x11
 1366 000c 01       		.uleb128 0x1
 1367 000d 52       		.uleb128 0x52
 1368 000e 01       		.uleb128 0x1
 1369 000f 55       		.uleb128 0x55
 1370 0010 06       		.uleb128 0x6
 1371 0011 10       		.uleb128 0x10
 1372 0012 06       		.uleb128 0x6
 1373 0013 00       		.byte	0x0
 1374 0014 00       		.byte	0x0
 1375 0015 02       		.uleb128 0x2
 1376 0016 24       		.uleb128 0x24
 1377 0017 00       		.byte	0x0
 1378 0018 0B       		.uleb128 0xb
 1379 0019 0B       		.uleb128 0xb
 1380 001a 3E       		.uleb128 0x3e
 1381 001b 0B       		.uleb128 0xb
 1382 001c 03       		.uleb128 0x3
 1383 001d 08       		.uleb128 0x8
 1384 001e 00       		.byte	0x0
 1385 001f 00       		.byte	0x0
 1386 0020 03       		.uleb128 0x3
 1387 0021 24       		.uleb128 0x24
 1388 0022 00       		.byte	0x0
 1389 0023 0B       		.uleb128 0xb
 1390 0024 0B       		.uleb128 0xb
 1391 0025 3E       		.uleb128 0x3e
 1392 0026 0B       		.uleb128 0xb
 1393 0027 03       		.uleb128 0x3
 1394 0028 0E       		.uleb128 0xe
 1395 0029 00       		.byte	0x0
 1396 002a 00       		.byte	0x0
 1397 002b 04       		.uleb128 0x4
 1398 002c 16       		.uleb128 0x16
 1399 002d 00       		.byte	0x0
 1400 002e 03       		.uleb128 0x3
 1401 002f 0E       		.uleb128 0xe
 1402 0030 3A       		.uleb128 0x3a
 1403 0031 0B       		.uleb128 0xb
 1404 0032 3B       		.uleb128 0x3b
 1405 0033 0B       		.uleb128 0xb
 1406 0034 49       		.uleb128 0x49
 1407 0035 13       		.uleb128 0x13
 1408 0036 00       		.byte	0x0
ARM GAS  /tmp/cc0cjUk3.s 			page 26


 1409 0037 00       		.byte	0x0
 1410 0038 05       		.uleb128 0x5
 1411 0039 13       		.uleb128 0x13
 1412 003a 01       		.byte	0x1
 1413 003b 03       		.uleb128 0x3
 1414 003c 0E       		.uleb128 0xe
 1415 003d 0B       		.uleb128 0xb
 1416 003e 0B       		.uleb128 0xb
 1417 003f 3A       		.uleb128 0x3a
 1418 0040 0B       		.uleb128 0xb
 1419 0041 3B       		.uleb128 0x3b
 1420 0042 0B       		.uleb128 0xb
 1421 0043 01       		.uleb128 0x1
 1422 0044 13       		.uleb128 0x13
 1423 0045 00       		.byte	0x0
 1424 0046 00       		.byte	0x0
 1425 0047 06       		.uleb128 0x6
 1426 0048 0D       		.uleb128 0xd
 1427 0049 00       		.byte	0x0
 1428 004a 03       		.uleb128 0x3
 1429 004b 0E       		.uleb128 0xe
 1430 004c 3A       		.uleb128 0x3a
 1431 004d 0B       		.uleb128 0xb
 1432 004e 3B       		.uleb128 0x3b
 1433 004f 0B       		.uleb128 0xb
 1434 0050 49       		.uleb128 0x49
 1435 0051 13       		.uleb128 0x13
 1436 0052 38       		.uleb128 0x38
 1437 0053 0A       		.uleb128 0xa
 1438 0054 00       		.byte	0x0
 1439 0055 00       		.byte	0x0
 1440 0056 07       		.uleb128 0x7
 1441 0057 0D       		.uleb128 0xd
 1442 0058 00       		.byte	0x0
 1443 0059 03       		.uleb128 0x3
 1444 005a 08       		.uleb128 0x8
 1445 005b 3A       		.uleb128 0x3a
 1446 005c 0B       		.uleb128 0xb
 1447 005d 3B       		.uleb128 0x3b
 1448 005e 0B       		.uleb128 0xb
 1449 005f 49       		.uleb128 0x49
 1450 0060 13       		.uleb128 0x13
 1451 0061 38       		.uleb128 0x38
 1452 0062 0A       		.uleb128 0xa
 1453 0063 00       		.byte	0x0
 1454 0064 00       		.byte	0x0
 1455 0065 08       		.uleb128 0x8
 1456 0066 13       		.uleb128 0x13
 1457 0067 01       		.byte	0x1
 1458 0068 0B       		.uleb128 0xb
 1459 0069 0B       		.uleb128 0xb
 1460 006a 3A       		.uleb128 0x3a
 1461 006b 0B       		.uleb128 0xb
 1462 006c 3B       		.uleb128 0x3b
 1463 006d 0B       		.uleb128 0xb
 1464 006e 01       		.uleb128 0x1
 1465 006f 13       		.uleb128 0x13
ARM GAS  /tmp/cc0cjUk3.s 			page 27


 1466 0070 00       		.byte	0x0
 1467 0071 00       		.byte	0x0
 1468 0072 09       		.uleb128 0x9
 1469 0073 0F       		.uleb128 0xf
 1470 0074 00       		.byte	0x0
 1471 0075 0B       		.uleb128 0xb
 1472 0076 0B       		.uleb128 0xb
 1473 0077 49       		.uleb128 0x49
 1474 0078 13       		.uleb128 0x13
 1475 0079 00       		.byte	0x0
 1476 007a 00       		.byte	0x0
 1477 007b 0A       		.uleb128 0xa
 1478 007c 0F       		.uleb128 0xf
 1479 007d 00       		.byte	0x0
 1480 007e 0B       		.uleb128 0xb
 1481 007f 0B       		.uleb128 0xb
 1482 0080 00       		.byte	0x0
 1483 0081 00       		.byte	0x0
 1484 0082 0B       		.uleb128 0xb
 1485 0083 0D       		.uleb128 0xd
 1486 0084 00       		.byte	0x0
 1487 0085 03       		.uleb128 0x3
 1488 0086 08       		.uleb128 0x8
 1489 0087 3A       		.uleb128 0x3a
 1490 0088 0B       		.uleb128 0xb
 1491 0089 3B       		.uleb128 0x3b
 1492 008a 05       		.uleb128 0x5
 1493 008b 49       		.uleb128 0x49
 1494 008c 13       		.uleb128 0x13
 1495 008d 38       		.uleb128 0x38
 1496 008e 0A       		.uleb128 0xa
 1497 008f 00       		.byte	0x0
 1498 0090 00       		.byte	0x0
 1499 0091 0C       		.uleb128 0xc
 1500 0092 13       		.uleb128 0x13
 1501 0093 01       		.byte	0x1
 1502 0094 03       		.uleb128 0x3
 1503 0095 0E       		.uleb128 0xe
 1504 0096 0B       		.uleb128 0xb
 1505 0097 0B       		.uleb128 0xb
 1506 0098 3A       		.uleb128 0x3a
 1507 0099 0B       		.uleb128 0xb
 1508 009a 3B       		.uleb128 0x3b
 1509 009b 05       		.uleb128 0x5
 1510 009c 01       		.uleb128 0x1
 1511 009d 13       		.uleb128 0x13
 1512 009e 00       		.byte	0x0
 1513 009f 00       		.byte	0x0
 1514 00a0 0D       		.uleb128 0xd
 1515 00a1 35       		.uleb128 0x35
 1516 00a2 00       		.byte	0x0
 1517 00a3 49       		.uleb128 0x49
 1518 00a4 13       		.uleb128 0x13
 1519 00a5 00       		.byte	0x0
 1520 00a6 00       		.byte	0x0
 1521 00a7 0E       		.uleb128 0xe
 1522 00a8 17       		.uleb128 0x17
ARM GAS  /tmp/cc0cjUk3.s 			page 28


 1523 00a9 01       		.byte	0x1
 1524 00aa 0B       		.uleb128 0xb
 1525 00ab 0B       		.uleb128 0xb
 1526 00ac 3A       		.uleb128 0x3a
 1527 00ad 0B       		.uleb128 0xb
 1528 00ae 3B       		.uleb128 0x3b
 1529 00af 0B       		.uleb128 0xb
 1530 00b0 01       		.uleb128 0x1
 1531 00b1 13       		.uleb128 0x13
 1532 00b2 00       		.byte	0x0
 1533 00b3 00       		.byte	0x0
 1534 00b4 0F       		.uleb128 0xf
 1535 00b5 0D       		.uleb128 0xd
 1536 00b6 00       		.byte	0x0
 1537 00b7 03       		.uleb128 0x3
 1538 00b8 0E       		.uleb128 0xe
 1539 00b9 3A       		.uleb128 0x3a
 1540 00ba 0B       		.uleb128 0xb
 1541 00bb 3B       		.uleb128 0x3b
 1542 00bc 0B       		.uleb128 0xb
 1543 00bd 49       		.uleb128 0x49
 1544 00be 13       		.uleb128 0x13
 1545 00bf 00       		.byte	0x0
 1546 00c0 00       		.byte	0x0
 1547 00c1 10       		.uleb128 0x10
 1548 00c2 26       		.uleb128 0x26
 1549 00c3 00       		.byte	0x0
 1550 00c4 49       		.uleb128 0x49
 1551 00c5 13       		.uleb128 0x13
 1552 00c6 00       		.byte	0x0
 1553 00c7 00       		.byte	0x0
 1554 00c8 11       		.uleb128 0x11
 1555 00c9 13       		.uleb128 0x13
 1556 00ca 01       		.byte	0x1
 1557 00cb 0B       		.uleb128 0xb
 1558 00cc 0B       		.uleb128 0xb
 1559 00cd 3A       		.uleb128 0x3a
 1560 00ce 0B       		.uleb128 0xb
 1561 00cf 3B       		.uleb128 0x3b
 1562 00d0 05       		.uleb128 0x5
 1563 00d1 01       		.uleb128 0x1
 1564 00d2 13       		.uleb128 0x13
 1565 00d3 00       		.byte	0x0
 1566 00d4 00       		.byte	0x0
 1567 00d5 12       		.uleb128 0x12
 1568 00d6 0D       		.uleb128 0xd
 1569 00d7 00       		.byte	0x0
 1570 00d8 03       		.uleb128 0x3
 1571 00d9 0E       		.uleb128 0xe
 1572 00da 3A       		.uleb128 0x3a
 1573 00db 0B       		.uleb128 0xb
 1574 00dc 3B       		.uleb128 0x3b
 1575 00dd 05       		.uleb128 0x5
 1576 00de 49       		.uleb128 0x49
 1577 00df 13       		.uleb128 0x13
 1578 00e0 38       		.uleb128 0x38
 1579 00e1 0A       		.uleb128 0xa
ARM GAS  /tmp/cc0cjUk3.s 			page 29


 1580 00e2 00       		.byte	0x0
 1581 00e3 00       		.byte	0x0
 1582 00e4 13       		.uleb128 0x13
 1583 00e5 16       		.uleb128 0x16
 1584 00e6 00       		.byte	0x0
 1585 00e7 03       		.uleb128 0x3
 1586 00e8 0E       		.uleb128 0xe
 1587 00e9 3A       		.uleb128 0x3a
 1588 00ea 0B       		.uleb128 0xb
 1589 00eb 3B       		.uleb128 0x3b
 1590 00ec 05       		.uleb128 0x5
 1591 00ed 49       		.uleb128 0x49
 1592 00ee 13       		.uleb128 0x13
 1593 00ef 00       		.byte	0x0
 1594 00f0 00       		.byte	0x0
 1595 00f1 14       		.uleb128 0x14
 1596 00f2 2E       		.uleb128 0x2e
 1597 00f3 01       		.byte	0x1
 1598 00f4 03       		.uleb128 0x3
 1599 00f5 0E       		.uleb128 0xe
 1600 00f6 3A       		.uleb128 0x3a
 1601 00f7 0B       		.uleb128 0xb
 1602 00f8 3B       		.uleb128 0x3b
 1603 00f9 0B       		.uleb128 0xb
 1604 00fa 27       		.uleb128 0x27
 1605 00fb 0C       		.uleb128 0xc
 1606 00fc 49       		.uleb128 0x49
 1607 00fd 13       		.uleb128 0x13
 1608 00fe 11       		.uleb128 0x11
 1609 00ff 01       		.uleb128 0x1
 1610 0100 12       		.uleb128 0x12
 1611 0101 01       		.uleb128 0x1
 1612 0102 40       		.uleb128 0x40
 1613 0103 06       		.uleb128 0x6
 1614 0104 01       		.uleb128 0x1
 1615 0105 13       		.uleb128 0x13
 1616 0106 00       		.byte	0x0
 1617 0107 00       		.byte	0x0
 1618 0108 15       		.uleb128 0x15
 1619 0109 05       		.uleb128 0x5
 1620 010a 00       		.byte	0x0
 1621 010b 03       		.uleb128 0x3
 1622 010c 08       		.uleb128 0x8
 1623 010d 3A       		.uleb128 0x3a
 1624 010e 0B       		.uleb128 0xb
 1625 010f 3B       		.uleb128 0x3b
 1626 0110 0B       		.uleb128 0xb
 1627 0111 49       		.uleb128 0x49
 1628 0112 13       		.uleb128 0x13
 1629 0113 02       		.uleb128 0x2
 1630 0114 06       		.uleb128 0x6
 1631 0115 00       		.byte	0x0
 1632 0116 00       		.byte	0x0
 1633 0117 16       		.uleb128 0x16
 1634 0118 0B       		.uleb128 0xb
 1635 0119 01       		.byte	0x1
 1636 011a 55       		.uleb128 0x55
ARM GAS  /tmp/cc0cjUk3.s 			page 30


 1637 011b 06       		.uleb128 0x6
 1638 011c 00       		.byte	0x0
 1639 011d 00       		.byte	0x0
 1640 011e 17       		.uleb128 0x17
 1641 011f 34       		.uleb128 0x34
 1642 0120 00       		.byte	0x0
 1643 0121 03       		.uleb128 0x3
 1644 0122 08       		.uleb128 0x8
 1645 0123 3A       		.uleb128 0x3a
 1646 0124 0B       		.uleb128 0xb
 1647 0125 3B       		.uleb128 0x3b
 1648 0126 0B       		.uleb128 0xb
 1649 0127 49       		.uleb128 0x49
 1650 0128 13       		.uleb128 0x13
 1651 0129 00       		.byte	0x0
 1652 012a 00       		.byte	0x0
 1653 012b 18       		.uleb128 0x18
 1654 012c 2E       		.uleb128 0x2e
 1655 012d 00       		.byte	0x0
 1656 012e 3F       		.uleb128 0x3f
 1657 012f 0C       		.uleb128 0xc
 1658 0130 03       		.uleb128 0x3
 1659 0131 0E       		.uleb128 0xe
 1660 0132 3A       		.uleb128 0x3a
 1661 0133 0B       		.uleb128 0xb
 1662 0134 3B       		.uleb128 0x3b
 1663 0135 0B       		.uleb128 0xb
 1664 0136 27       		.uleb128 0x27
 1665 0137 0C       		.uleb128 0xc
 1666 0138 11       		.uleb128 0x11
 1667 0139 01       		.uleb128 0x1
 1668 013a 12       		.uleb128 0x12
 1669 013b 01       		.uleb128 0x1
 1670 013c 40       		.uleb128 0x40
 1671 013d 06       		.uleb128 0x6
 1672 013e 00       		.byte	0x0
 1673 013f 00       		.byte	0x0
 1674 0140 19       		.uleb128 0x19
 1675 0141 2E       		.uleb128 0x2e
 1676 0142 01       		.byte	0x1
 1677 0143 3F       		.uleb128 0x3f
 1678 0144 0C       		.uleb128 0xc
 1679 0145 03       		.uleb128 0x3
 1680 0146 0E       		.uleb128 0xe
 1681 0147 3A       		.uleb128 0x3a
 1682 0148 0B       		.uleb128 0xb
 1683 0149 3B       		.uleb128 0x3b
 1684 014a 0B       		.uleb128 0xb
 1685 014b 27       		.uleb128 0x27
 1686 014c 0C       		.uleb128 0xc
 1687 014d 11       		.uleb128 0x11
 1688 014e 01       		.uleb128 0x1
 1689 014f 12       		.uleb128 0x12
 1690 0150 01       		.uleb128 0x1
 1691 0151 40       		.uleb128 0x40
 1692 0152 06       		.uleb128 0x6
 1693 0153 01       		.uleb128 0x1
ARM GAS  /tmp/cc0cjUk3.s 			page 31


 1694 0154 13       		.uleb128 0x13
 1695 0155 00       		.byte	0x0
 1696 0156 00       		.byte	0x0
 1697 0157 1A       		.uleb128 0x1a
 1698 0158 2E       		.uleb128 0x2e
 1699 0159 01       		.byte	0x1
 1700 015a 3F       		.uleb128 0x3f
 1701 015b 0C       		.uleb128 0xc
 1702 015c 03       		.uleb128 0x3
 1703 015d 0E       		.uleb128 0xe
 1704 015e 3A       		.uleb128 0x3a
 1705 015f 0B       		.uleb128 0xb
 1706 0160 3B       		.uleb128 0x3b
 1707 0161 0B       		.uleb128 0xb
 1708 0162 27       		.uleb128 0x27
 1709 0163 0C       		.uleb128 0xc
 1710 0164 11       		.uleb128 0x11
 1711 0165 01       		.uleb128 0x1
 1712 0166 12       		.uleb128 0x12
 1713 0167 01       		.uleb128 0x1
 1714 0168 40       		.uleb128 0x40
 1715 0169 0A       		.uleb128 0xa
 1716 016a 01       		.uleb128 0x1
 1717 016b 13       		.uleb128 0x13
 1718 016c 00       		.byte	0x0
 1719 016d 00       		.byte	0x0
 1720 016e 1B       		.uleb128 0x1b
 1721 016f 34       		.uleb128 0x34
 1722 0170 00       		.byte	0x0
 1723 0171 03       		.uleb128 0x3
 1724 0172 0E       		.uleb128 0xe
 1725 0173 3A       		.uleb128 0x3a
 1726 0174 0B       		.uleb128 0xb
 1727 0175 3B       		.uleb128 0x3b
 1728 0176 0B       		.uleb128 0xb
 1729 0177 49       		.uleb128 0x49
 1730 0178 13       		.uleb128 0x13
 1731 0179 3F       		.uleb128 0x3f
 1732 017a 0C       		.uleb128 0xc
 1733 017b 3C       		.uleb128 0x3c
 1734 017c 0C       		.uleb128 0xc
 1735 017d 00       		.byte	0x0
 1736 017e 00       		.byte	0x0
 1737 017f 1C       		.uleb128 0x1c
 1738 0180 34       		.uleb128 0x34
 1739 0181 00       		.byte	0x0
 1740 0182 03       		.uleb128 0x3
 1741 0183 0E       		.uleb128 0xe
 1742 0184 3A       		.uleb128 0x3a
 1743 0185 0B       		.uleb128 0xb
 1744 0186 3B       		.uleb128 0x3b
 1745 0187 05       		.uleb128 0x5
 1746 0188 49       		.uleb128 0x49
 1747 0189 13       		.uleb128 0x13
 1748 018a 3F       		.uleb128 0x3f
 1749 018b 0C       		.uleb128 0xc
 1750 018c 3C       		.uleb128 0x3c
ARM GAS  /tmp/cc0cjUk3.s 			page 32


 1751 018d 0C       		.uleb128 0xc
 1752 018e 00       		.byte	0x0
 1753 018f 00       		.byte	0x0
 1754 0190 1D       		.uleb128 0x1d
 1755 0191 34       		.uleb128 0x34
 1756 0192 00       		.byte	0x0
 1757 0193 03       		.uleb128 0x3
 1758 0194 0E       		.uleb128 0xe
 1759 0195 3A       		.uleb128 0x3a
 1760 0196 0B       		.uleb128 0xb
 1761 0197 3B       		.uleb128 0x3b
 1762 0198 0B       		.uleb128 0xb
 1763 0199 49       		.uleb128 0x49
 1764 019a 13       		.uleb128 0x13
 1765 019b 02       		.uleb128 0x2
 1766 019c 0A       		.uleb128 0xa
 1767 019d 00       		.byte	0x0
 1768 019e 00       		.byte	0x0
 1769 019f 1E       		.uleb128 0x1e
 1770 01a0 01       		.uleb128 0x1
 1771 01a1 01       		.byte	0x1
 1772 01a2 49       		.uleb128 0x49
 1773 01a3 13       		.uleb128 0x13
 1774 01a4 01       		.uleb128 0x1
 1775 01a5 13       		.uleb128 0x13
 1776 01a6 00       		.byte	0x0
 1777 01a7 00       		.byte	0x0
 1778 01a8 1F       		.uleb128 0x1f
 1779 01a9 21       		.uleb128 0x21
 1780 01aa 00       		.byte	0x0
 1781 01ab 49       		.uleb128 0x49
 1782 01ac 13       		.uleb128 0x13
 1783 01ad 2F       		.uleb128 0x2f
 1784 01ae 0B       		.uleb128 0xb
 1785 01af 00       		.byte	0x0
 1786 01b0 00       		.byte	0x0
 1787 01b1 00       		.byte	0x0
 1788              		.section	.debug_pubnames,"",%progbits
 1789 0000 5D000000 		.4byte	0x5d
 1790 0004 0200     		.2byte	0x2
 1791 0006 00000000 		.4byte	.Ldebug_info0
 1792 000a 5B060000 		.4byte	0x65b
 1793 000e 2A050000 		.4byte	0x52a
 1794 0012 696E6974 		.ascii	"initLed\000"
 1794      4C656400 
 1795 001a 3F050000 		.4byte	0x53f
 1796 001e 7365744C 		.ascii	"setLeds\000"
 1796      65647300 
 1797 0026 68050000 		.4byte	0x568
 1798 002a 746F6767 		.ascii	"toggleLeds\000"
 1798      6C654C65 
 1798      647300
 1799 0035 91050000 		.4byte	0x591
 1800 0039 746F6767 		.ascii	"toggleLedsImmediate\000"
 1800      6C654C65 
 1800      6473496D 
 1800      6D656469 
ARM GAS  /tmp/cc0cjUk3.s 			page 33


 1800      61746500 
 1801 004d B9050000 		.4byte	0x5b9
 1802 0051 746F6767 		.ascii	"toggleLedsI\000"
 1802      6C654C65 
 1802      64734900 
 1803 005d 00000000 		.4byte	0x0
 1804              		.section	.debug_pubtypes,"",%progbits
 1805 0000 51010000 		.4byte	0x151
 1806 0004 0200     		.2byte	0x2
 1807 0006 00000000 		.4byte	.Ldebug_info0
 1808 000a 5B060000 		.4byte	0x65b
 1809 000e 3E000000 		.4byte	0x3e
 1810 0012 75696E74 		.ascii	"uint8_t\000"
 1810      385F7400 
 1811 001a 5E000000 		.4byte	0x5e
 1812 001e 696E7433 		.ascii	"int32_t\000"
 1812      325F7400 
 1813 0026 70000000 		.4byte	0x70
 1814 002a 75696E74 		.ascii	"uint32_t\000"
 1814      33325F74 
 1814      00
 1815 0033 89000000 		.4byte	0x89
 1816 0037 75696E74 		.ascii	"uint64_t\000"
 1816      36345F74 
 1816      00
 1817 0040 9B000000 		.4byte	0x9b
 1818 0044 746D6F64 		.ascii	"tmode_t\000"
 1818      655F7400 
 1819 004c A6000000 		.4byte	0xa6
 1820 0050 74737461 		.ascii	"tstate_t\000"
 1820      74655F74 
 1820      00
 1821 0059 B1000000 		.4byte	0xb1
 1822 005d 74726566 		.ascii	"trefs_t\000"
 1822      735F7400 
 1823 0065 BC000000 		.4byte	0xbc
 1824 0069 74707269 		.ascii	"tprio_t\000"
 1824      6F5F7400 
 1825 0071 C7000000 		.4byte	0xc7
 1826 0075 6D73675F 		.ascii	"msg_t\000"
 1826      7400
 1827 007b D2000000 		.4byte	0xd2
 1828 007f 6576656E 		.ascii	"eventmask_t\000"
 1828      746D6173 
 1828      6B5F7400 
 1829 008b DD000000 		.4byte	0xdd
 1830 008f 73797374 		.ascii	"systime_t\000"
 1830      696D655F 
 1830      7400
 1831 0099 E8000000 		.4byte	0xe8
 1832 009d 636E745F 		.ascii	"cnt_t\000"
 1832      7400
 1833 00a3 F3000000 		.4byte	0xf3
 1834 00a7 54687265 		.ascii	"Thread\000"
 1834      616400
 1835 00ae 4E020000 		.4byte	0x24e
 1836 00b2 54687265 		.ascii	"ThreadsQueue\000"
ARM GAS  /tmp/cc0cjUk3.s 			page 34


 1836      61647351 
 1836      75657565 
 1836      00
 1837 00bf 70020000 		.4byte	0x270
 1838 00c3 54687265 		.ascii	"ThreadsList\000"
 1838      6164734C 
 1838      69737400 
 1839 00cf 7B020000 		.4byte	0x27b
 1840 00d3 72656761 		.ascii	"regarm_t\000"
 1840      726D5F74 
 1840      00
 1841 00dc 88020000 		.4byte	0x288
 1842 00e0 73746B61 		.ascii	"stkalign_t\000"
 1842      6C69676E 
 1842      5F7400
 1843 00eb 93020000 		.4byte	0x293
 1844 00ef 696E7463 		.ascii	"intctx\000"
 1844      747800
 1845 00f6 20030000 		.4byte	0x320
 1846 00fa 636F6E74 		.ascii	"context\000"
 1846      65787400 
 1847 0102 B8030000 		.4byte	0x3b8
 1848 0106 52656164 		.ascii	"ReadyList\000"
 1848      794C6973 
 1848      7400
 1849 0110 C3030000 		.4byte	0x3c3
 1850 0114 4D757465 		.ascii	"Mutex\000"
 1850      7800
 1851 011a 00040000 		.4byte	0x400
 1852 011e 4D757465 		.ascii	"Mutex\000"
 1852      7800
 1853 0124 FE000000 		.4byte	0xfe
 1854 0128 54687265 		.ascii	"Thread\000"
 1854      616400
 1855 012f D6040000 		.4byte	0x4d6
 1856 0133 4750494F 		.ascii	"GPIO_TypeDef\000"
 1856      5F547970 
 1856      65446566 
 1856      00
 1857 0140 E2040000 		.4byte	0x4e2
 1858 0144 696F706F 		.ascii	"ioportmask_t\000"
 1858      72746D61 
 1858      736B5F74 
 1858      00
 1859 0151 00000000 		.4byte	0x0
 1860              		.section	.debug_aranges,"",%progbits
 1861 0000 44000000 		.4byte	0x44
 1862 0004 0200     		.2byte	0x2
 1863 0006 00000000 		.4byte	.Ldebug_info0
 1864 000a 04       		.byte	0x4
 1865 000b 00       		.byte	0x0
 1866 000c 0000     		.2byte	0x0
 1867 000e 0000     		.2byte	0x0
 1868 0010 00000000 		.4byte	.LFB62
 1869 0014 60000000 		.4byte	.LFE62-.LFB62
 1870 0018 00000000 		.4byte	.LFB63
 1871 001c 64000000 		.4byte	.LFE63-.LFB63
ARM GAS  /tmp/cc0cjUk3.s 			page 35


 1872 0020 00000000 		.4byte	.LFB64
 1873 0024 20000000 		.4byte	.LFE64-.LFB64
 1874 0028 00000000 		.4byte	.LFB65
 1875 002c 34000000 		.4byte	.LFE65-.LFB65
 1876 0030 00000000 		.4byte	.LFB66
 1877 0034 38000000 		.4byte	.LFE66-.LFB66
 1878 0038 00000000 		.4byte	.LFB67
 1879 003c 38000000 		.4byte	.LFE67-.LFB67
 1880 0040 00000000 		.4byte	0x0
 1881 0044 00000000 		.4byte	0x0
 1882              		.section	.debug_ranges,"",%progbits
 1883              	.Ldebug_ranges0:
 1884 0000 0A000000 		.4byte	.LBB2
 1885 0004 0C000000 		.4byte	.LBE2
 1886 0008 0E000000 		.4byte	.LBB3
 1887 000c 4A000000 		.4byte	.LBE3
 1888 0010 00000000 		.4byte	0x0
 1889 0014 00000000 		.4byte	0x0
 1890 0018 00000000 		.4byte	.LFB62
 1891 001c 60000000 		.4byte	.LFE62
 1892 0020 00000000 		.4byte	.LFB63
 1893 0024 64000000 		.4byte	.LFE63
 1894 0028 00000000 		.4byte	.LFB64
 1895 002c 20000000 		.4byte	.LFE64
 1896 0030 00000000 		.4byte	.LFB65
 1897 0034 34000000 		.4byte	.LFE65
 1898 0038 00000000 		.4byte	.LFB66
 1899 003c 38000000 		.4byte	.LFE66
 1900 0040 00000000 		.4byte	.LFB67
 1901 0044 38000000 		.4byte	.LFE67
 1902 0048 00000000 		.4byte	0x0
 1903 004c 00000000 		.4byte	0x0
 1904              		.section	.debug_str,"MS",%progbits,1
 1905              	.LASF66:
 1906 0000 4750494F 		.ascii	"GPIO_TypeDef\000"
 1906      5F547970 
 1906      65446566 
 1906      00
 1907              	.LASF15:
 1908 000d 74726566 		.ascii	"trefs_t\000"
 1908      735F7400 
 1909              	.LASF11:
 1910 0015 75696E74 		.ascii	"uint64_t\000"
 1910      36345F74 
 1910      00
 1911              	.LASF79:
 1912 001e 2F686F6D 		.ascii	"/home/z80/projects/ipm.git/soft/firmware/valve\000"
 1912      652F7A38 
 1912      302F7072 
 1912      6F6A6563 
 1912      74732F69 
 1913              	.LASF42:
 1914 004d 54687265 		.ascii	"ThreadsList\000"
 1914      6164734C 
 1914      69737400 
 1915              	.LASF3:
 1916 0059 73686F72 		.ascii	"short int\000"
ARM GAS  /tmp/cc0cjUk3.s 			page 36


 1916      7420696E 
 1916      7400
 1917              	.LASF47:
 1918 0063 725F7175 		.ascii	"r_queue\000"
 1918      65756500 
 1919              	.LASF37:
 1920 006b 705F6570 		.ascii	"p_epending\000"
 1920      656E6469 
 1920      6E6700
 1921              	.LASF54:
 1922 0076 52656164 		.ascii	"ReadyList\000"
 1922      794C6973 
 1922      7400
 1923              	.LASF29:
 1924 0080 705F7374 		.ascii	"p_stklimit\000"
 1924      6B6C696D 
 1924      697400
 1925              	.LASF23:
 1926 008b 705F7072 		.ascii	"p_prev\000"
 1926      657600
 1927              	.LASF49:
 1928 0092 725F6374 		.ascii	"r_ctx\000"
 1928      7800
 1929              	.LASF18:
 1930 0098 6576656E 		.ascii	"eventmask_t\000"
 1930      746D6173 
 1930      6B5F7400 
 1931              	.LASF35:
 1932 00a4 705F6D73 		.ascii	"p_msgqueue\000"
 1932      67717565 
 1932      756500
 1933              	.LASF24:
 1934 00af 705F7072 		.ascii	"p_prio\000"
 1934      696F00
 1935              	.LASF22:
 1936 00b6 705F6E65 		.ascii	"p_next\000"
 1936      787400
 1937              	.LASF76:
 1938 00bd 77614C65 		.ascii	"waLeds\000"
 1938      647300
 1939              	.LASF58:
 1940 00c4 6D5F6E65 		.ascii	"m_next\000"
 1940      787400
 1941              	.LASF75:
 1942 00cb 76616C75 		.ascii	"value\000"
 1942      6500
 1943              	.LASF43:
 1944 00d1 72656761 		.ascii	"regarm_t\000"
 1944      726D5F74 
 1944      00
 1945              	.LASF5:
 1946 00da 75696E74 		.ascii	"uint8_t\000"
 1946      385F7400 
 1947              	.LASF67:
 1948 00e2 696F706F 		.ascii	"ioportmask_t\000"
 1948      72746D61 
 1948      736B5F74 
ARM GAS  /tmp/cc0cjUk3.s 			page 37


 1948      00
 1949              	.LASF33:
 1950 00ef 705F7469 		.ascii	"p_time\000"
 1950      6D6500
 1951              	.LASF13:
 1952 00f6 746D6F64 		.ascii	"tmode_t\000"
 1952      655F7400 
 1953              	.LASF10:
 1954 00fe 6C6F6E67 		.ascii	"long long int\000"
 1954      206C6F6E 
 1954      6720696E 
 1954      7400
 1955              	.LASF16:
 1956 010c 74707269 		.ascii	"tprio_t\000"
 1956      6F5F7400 
 1957              	.LASF55:
 1958 0114 4D757465 		.ascii	"Mutex\000"
 1958      7800
 1959              	.LASF7:
 1960 011a 6C6F6E67 		.ascii	"long int\000"
 1960      20696E74 
 1960      00
 1961              	.LASF64:
 1962 0123 42535252 		.ascii	"BSRR\000"
 1962      00
 1963              	.LASF56:
 1964 0128 6D5F7175 		.ascii	"m_queue\000"
 1964      65756500 
 1965              	.LASF46:
 1966 0130 636F6E74 		.ascii	"context\000"
 1966      65787400 
 1967              	.LASF70:
 1968 0138 746F6767 		.ascii	"toggleLedsImmediate\000"
 1968      6C654C65 
 1968      6473496D 
 1968      6D656469 
 1968      61746500 
 1969              	.LASF53:
 1970 014c 725F6375 		.ascii	"r_current\000"
 1970      7272656E 
 1970      7400
 1971              	.LASF36:
 1972 0156 705F6D73 		.ascii	"p_msg\000"
 1972      6700
 1973              	.LASF2:
 1974 015c 756E7369 		.ascii	"unsigned char\000"
 1974      676E6564 
 1974      20636861 
 1974      7200
 1975              	.LASF62:
 1976 016a 65776D61 		.ascii	"ewmask\000"
 1976      736B00
 1977              	.LASF1:
 1978 0171 7369676E 		.ascii	"signed char\000"
 1978      65642063 
 1978      68617200 
 1979              	.LASF26:
ARM GAS  /tmp/cc0cjUk3.s 			page 38


 1980 017d 705F6E65 		.ascii	"p_newer\000"
 1980      77657200 
 1981              	.LASF12:
 1982 0185 6C6F6E67 		.ascii	"long long unsigned int\000"
 1982      206C6F6E 
 1982      6720756E 
 1982      7369676E 
 1982      65642069 
 1983              	.LASF80:
 1984 019c 6C656473 		.ascii	"ledsThread\000"
 1984      54687265 
 1984      616400
 1985              	.LASF8:
 1986 01a7 75696E74 		.ascii	"uint32_t\000"
 1986      33325F74 
 1986      00
 1987              	.LASF0:
 1988 01b0 756E7369 		.ascii	"unsigned int\000"
 1988      676E6564 
 1988      20696E74 
 1988      00
 1989              	.LASF68:
 1990 01bd 7365744C 		.ascii	"setLeds\000"
 1990      65647300 
 1991              	.LASF81:
 1992 01c5 696E6974 		.ascii	"initLed\000"
 1992      4C656400 
 1993              	.LASF40:
 1994 01cd 705F6D70 		.ascii	"p_mpool\000"
 1994      6F6F6C00 
 1995              	.LASF74:
 1996 01d5 6D757465 		.ascii	"mutex\000"
 1996      7800
 1997              	.LASF50:
 1998 01db 725F6E65 		.ascii	"r_newer\000"
 1998      77657200 
 1999              	.LASF31:
 2000 01e3 705F666C 		.ascii	"p_flags\000"
 2000      61677300 
 2001              	.LASF39:
 2002 01eb 705F7265 		.ascii	"p_realprio\000"
 2002      616C7072 
 2002      696F00
 2003              	.LASF19:
 2004 01f6 73797374 		.ascii	"systime_t\000"
 2004      696D655F 
 2004      7400
 2005              	.LASF72:
 2006 0200 726C6973 		.ascii	"rlist\000"
 2006      7400
 2007              	.LASF63:
 2008 0206 63686172 		.ascii	"char\000"
 2008      00
 2009              	.LASF28:
 2010 020b 705F6E61 		.ascii	"p_name\000"
 2010      6D6500
 2011              	.LASF6:
ARM GAS  /tmp/cc0cjUk3.s 			page 39


 2012 0212 696E7433 		.ascii	"int32_t\000"
 2012      325F7400 
 2013              	.LASF48:
 2014 021a 725F7072 		.ascii	"r_prio\000"
 2014      696F00
 2015              	.LASF20:
 2016 0221 636E745F 		.ascii	"cnt_t\000"
 2016      7400
 2017              	.LASF4:
 2018 0227 73686F72 		.ascii	"short unsigned int\000"
 2018      7420756E 
 2018      7369676E 
 2018      65642069 
 2018      6E7400
 2019              	.LASF30:
 2020 023a 705F7374 		.ascii	"p_state\000"
 2020      61746500 
 2021              	.LASF41:
 2022 0242 54687265 		.ascii	"ThreadsQueue\000"
 2022      61647351 
 2022      75657565 
 2022      00
 2023              	.LASF52:
 2024 024f 725F7072 		.ascii	"r_preempt\000"
 2024      65656D70 
 2024      7400
 2025              	.LASF34:
 2026 0259 705F7761 		.ascii	"p_waiting\000"
 2026      6974696E 
 2026      6700
 2027              	.LASF38:
 2028 0263 705F6D74 		.ascii	"p_mtxlist\000"
 2028      786C6973 
 2028      7400
 2029              	.LASF45:
 2030 026d 696E7463 		.ascii	"intctx\000"
 2030      747800
 2031              	.LASF9:
 2032 0274 6C6F6E67 		.ascii	"long unsigned int\000"
 2032      20756E73 
 2032      69676E65 
 2032      6420696E 
 2032      7400
 2033              	.LASF71:
 2034 0286 746F6767 		.ascii	"toggleLedsI\000"
 2034      6C654C65 
 2034      64734900 
 2035              	.LASF77:
 2036 0292 474E5520 		.ascii	"GNU C 4.5.2\000"
 2036      4320342E 
 2036      352E3200 
 2037              	.LASF21:
 2038 029e 54687265 		.ascii	"Thread\000"
 2038      616400
 2039              	.LASF61:
 2040 02a5 77746F62 		.ascii	"wtobjp\000"
 2040      6A7000
ARM GAS  /tmp/cc0cjUk3.s 			page 40


 2041              	.LASF14:
 2042 02ac 74737461 		.ascii	"tstate_t\000"
 2042      74655F74 
 2042      00
 2043              	.LASF44:
 2044 02b5 73746B61 		.ascii	"stkalign_t\000"
 2044      6C69676E 
 2044      5F7400
 2045              	.LASF60:
 2046 02c0 65786974 		.ascii	"exitcode\000"
 2046      636F6465 
 2046      00
 2047              	.LASF78:
 2048 02c9 2E2F7372 		.ascii	"./src/led_ctrl.c\000"
 2048      632F6C65 
 2048      645F6374 
 2048      726C2E63 
 2048      00
 2049              	.LASF27:
 2050 02da 705F6F6C 		.ascii	"p_older\000"
 2050      64657200 
 2051              	.LASF32:
 2052 02e2 705F7265 		.ascii	"p_refs\000"
 2052      667300
 2053              	.LASF25:
 2054 02e9 705F6374 		.ascii	"p_ctx\000"
 2054      7800
 2055              	.LASF73:
 2056 02ef 49544D5F 		.ascii	"ITM_RxBuffer\000"
 2056      52784275 
 2056      66666572 
 2056      00
 2057              	.LASF69:
 2058 02fc 746F6767 		.ascii	"toggleLeds\000"
 2058      6C654C65 
 2058      647300
 2059              	.LASF57:
 2060 0307 6D5F6F77 		.ascii	"m_owner\000"
 2060      6E657200 
 2061              	.LASF65:
 2062 030f 4C434B52 		.ascii	"LCKR\000"
 2062      00
 2063              	.LASF59:
 2064 0314 7264796D 		.ascii	"rdymsg\000"
 2064      736700
 2065              	.LASF17:
 2066 031b 6D73675F 		.ascii	"msg_t\000"
 2066      7400
 2067              	.LASF51:
 2068 0321 725F6F6C 		.ascii	"r_older\000"
 2068      64657200 
 2069              		.ident	"GCC: (Sourcery G++ Lite 2011.03-42) 4.5.2"
ARM GAS  /tmp/cc0cjUk3.s 			page 41


DEFINED SYMBOLS
                            *ABS*:00000000 led_ctrl.c
     /tmp/cc0cjUk3.s:24     .text.ledsThread:00000000 $t
     /tmp/cc0cjUk3.s:29     .text.ledsThread:00000000 ledsThread
     /tmp/cc0cjUk3.s:100    .text.ledsThread:0000004c $d
     /tmp/cc0cjUk3.s:109    .text.initLed:00000000 $t
     /tmp/cc0cjUk3.s:115    .text.initLed:00000000 initLed
     /tmp/cc0cjUk3.s:179    .text.initLed:00000054 $d
     /tmp/cc0cjUk3.s:187    .text.setLeds:00000000 $t
     /tmp/cc0cjUk3.s:193    .text.setLeds:00000000 setLeds
     /tmp/cc0cjUk3.s:221    .text.setLeds:00000018 $d
     /tmp/cc0cjUk3.s:227    .text.toggleLeds:00000000 $t
     /tmp/cc0cjUk3.s:233    .text.toggleLeds:00000000 toggleLeds
     /tmp/cc0cjUk3.s:272    .text.toggleLeds:0000002c $d
     /tmp/cc0cjUk3.s:278    .text.toggleLedsImmediate:00000000 $t
     /tmp/cc0cjUk3.s:284    .text.toggleLedsImmediate:00000000 toggleLedsImmediate
     /tmp/cc0cjUk3.s:324    .text.toggleLedsImmediate:00000034 $d
     /tmp/cc0cjUk3.s:329    .text.toggleLedsI:00000000 $t
     /tmp/cc0cjUk3.s:335    .text.toggleLedsI:00000000 toggleLedsI
     /tmp/cc0cjUk3.s:375    .text.toggleLedsI:00000034 $d
     /tmp/cc0cjUk3.s:380    .bss.mutex:00000000 $d
     /tmp/cc0cjUk3.s:384    .bss.mutex:00000000 mutex
     /tmp/cc0cjUk3.s:387    .bss.value:00000000 $d
     /tmp/cc0cjUk3.s:391    .bss.value:00000000 value
     /tmp/cc0cjUk3.s:394    .bss.waLeds:00000000 $d
     /tmp/cc0cjUk3.s:398    .bss.waLeds:00000000 waLeds
     /tmp/cc0cjUk3.s:401    .rodata.str1.4:00000000 $d
                     .debug_frame:00000010 $d
     /tmp/cc0cjUk3.s:186    .text.initLed:00000064 $t
     /tmp/cc0cjUk3.s:277    .text.toggleLeds:00000034 $t
     /tmp/cc0cjUk3.s:328    .text.toggleLedsImmediate:00000038 $t
     /tmp/cc0cjUk3.s:379    .text.toggleLedsI:00000038 $t

UNDEFINED SYMBOLS
chMtxLock
chMtxUnlock
chThdSleep
rlist
_pal_lld_setgroupmode
chMtxInit
chThdCreateStatic
