ARM GAS  /tmp/ccA6aYpp.s 			page 1


   1              		.syntax unified
   2              		.cpu cortex-m3
   3              		.fpu softvfp
   4              		.eabi_attribute 20, 1
   5              		.eabi_attribute 21, 1
   6              		.eabi_attribute 23, 3
   7              		.eabi_attribute 24, 1
   8              		.eabi_attribute 25, 1
   9              		.eabi_attribute 26, 1
  10              		.eabi_attribute 30, 2
  11              		.eabi_attribute 18, 4
  12              		.thumb
  13              		.file	"led_ctrl.c"
  20 0000 A7020000 		.text
  20      0200F701 
  20      00000201 
  20      FB0E0D00 
  20      01010101 
  21              	.Ltext0:
  22              		.cfi_sections	.debug_frame
  23              		.section	.text.ledsThread,"ax",%progbits
  24              		.align	2
  25              		.p2align 4,,15
  26              		.thumb
  27              		.thumb_func
  28              		.type	ledsThread, %function
  29              	ledsThread:
  30              	.LFB62:
  31              		.file 1 "./src/led_ctrl.c"
  32              		.loc 1 14 0
  33              		.cfi_startproc
  34              		@ args = 0, pretend = 0, frame = 0
  35              		@ frame_needed = 0, uses_anonymous_args = 0
  36              	.LVL0:
  37              		.loc 1 16 0
  38 0000 1848     		ldr	r0, .L12
  39              	.LVL1:
  40              		.loc 1 14 0
  41 0002 F8B5     		push	{r3, r4, r5, r6, r7, lr}
  42              	.LCFI0:
  43              		.cfi_def_cfa_offset 24
  44              		.loc 1 16 0
  45 0004 184A     		ldr	r2, .L12+4
  46 0006 C369     		ldr	r3, [r0, #28]
  47              		.cfi_offset 14, -4
  48              		.cfi_offset 7, -8
  49              		.cfi_offset 6, -12
  50              		.cfi_offset 5, -16
  51              		.cfi_offset 4, -20
  52              		.cfi_offset 3, -24
  53 0008 184E     		ldr	r6, .L12+8
ARM GAS  /tmp/ccA6aYpp.s 			page 2


  54              	.LBB2:
  55              		.loc 1 25 0
  56 000a 194D     		ldr	r5, .L12+12
  57              		.loc 1 30 0
  58 000c 194C     		ldr	r4, .L12+16
  59              	.LBE2:
  60              		.loc 1 16 0
  61 000e 9A61     		str	r2, [r3, #24]
  62              	.LBB3:
  63              		.loc 1 25 0
  64 0010 2027     		movs	r7, #32
  65 0012 0FE0     		b	.L8
  66              	.L10:
  67              		.loc 1 28 0
  68 0014 E068     		ldr	r0, [r4, #12]
  69              		.loc 1 32 0
  70 0016 13F0040F 		tst	r3, #4
  71              		.loc 1 28 0
  72 001a 80F00102 		eor	r2, r0, #1
  73 001e E260     		str	r2, [r4, #12]
  74              		.loc 1 32 0
  75 0020 1CD0     		beq	.L6
  76              	.L11:
  77              		.loc 1 33 0
  78 0022 E268     		ldr	r2, [r4, #12]
  79 0024 82F00203 		eor	r3, r2, #2
  80 0028 E360     		str	r3, [r4, #12]
  81              	.L7:
  82              		.loc 1 36 0
  83 002a FFF7FEFF 		bl	chMtxUnlock
  84              		.loc 1 37 0
  85 002e 7D20     		movs	r0, #125
  86 0030 FFF7FEFF 		bl	chThdSleep
  87              	.L8:
  88              		.loc 1 20 0
  89 0034 1048     		ldr	r0, .L12+20
  90 0036 FFF7FEFF 		bl	chMtxLock
  91              		.loc 1 21 0
  92 003a 3368     		ldr	r3, [r6, #0]
  93              		.loc 1 22 0
  94 003c 13F0010F 		tst	r3, #1
  95              		.loc 1 23 0
  96 0040 17BF     		itett	ne
  97 0042 E968     		ldrne	r1, [r5, #12]
  98              		.loc 1 25 0
  99 0044 6F61     		streq	r7, [r5, #20]
 100              		.loc 1 23 0
 101 0046 81F02001 		eorne	r1, r1, #32
 102 004a E960     		strne	r1, [r5, #12]
 103              		.loc 1 27 0
 104 004c 13F0020F 		tst	r3, #2
 105 0050 E0D1     		bne	.L10
 106              		.loc 1 30 0
 107 0052 0121     		movs	r1, #1
 108              		.loc 1 32 0
 109 0054 13F0040F 		tst	r3, #4
 110              		.loc 1 30 0
ARM GAS  /tmp/ccA6aYpp.s 			page 3


 111 0058 6161     		str	r1, [r4, #20]
 112              		.loc 1 32 0
 113 005a E2D1     		bne	.L11
 114              	.L6:
 115              		.loc 1 35 0
 116 005c 0220     		movs	r0, #2
 117 005e 6061     		str	r0, [r4, #20]
 118 0060 E3E7     		b	.L7
 119              	.L13:
 120 0062 00BF     		.align	2
 121              	.L12:
 122 0064 00000000 		.word	rlist
 123 0068 00000000 		.word	.LC0
 124 006c 00000000 		.word	.LANCHOR1
 125 0070 00100140 		.word	1073811456
 126 0074 000C0140 		.word	1073810432
 127 0078 00000000 		.word	.LANCHOR0
 128              	.LBE3:
 129              		.cfi_endproc
 130              	.LFE62:
 131              		.size	ledsThread, .-ledsThread
 132 007c AFF30080 		.section	.text.initLed,"ax",%progbits
 133              		.align	2
 134              		.p2align 4,,15
 135              		.global	initLed
 136              		.thumb
 137              		.thumb_func
 138              		.type	initLed, %function
 139              	initLed:
 140              	.LFB63:
 141              		.loc 1 44 0
 142              		.cfi_startproc
 143              		@ args = 0, pretend = 0, frame = 0
 144              		@ frame_needed = 0, uses_anonymous_args = 0
 145 0000 F0B5     		push	{r4, r5, r6, r7, lr}
 146              	.LCFI1:
 147              		.cfi_def_cfa_offset 20
 148              		.loc 1 45 0
 149 0002 134B     		ldr	r3, .L15
 150              		.loc 1 46 0
 151 0004 134C     		ldr	r4, .L15+4
 152              		.cfi_offset 14, -4
 153              		.cfi_offset 7, -8
 154              		.cfi_offset 6, -12
 155              		.cfi_offset 5, -16
 156              		.cfi_offset 4, -20
 157              		.loc 1 45 0
 158 0006 2027     		movs	r7, #32
 159              		.loc 1 46 0
 160 0008 0126     		movs	r6, #1
 161              		.loc 1 47 0
 162 000a 0225     		movs	r5, #2
 163              		.loc 1 45 0
 164 000c 5F61     		str	r7, [r3, #20]
 165              		.loc 1 44 0
 166 000e 83B0     		sub	sp, sp, #12
 167              	.LCFI2:
ARM GAS  /tmp/ccA6aYpp.s 			page 4


 168              		.cfi_def_cfa_offset 32
 169              		.loc 1 48 0
 170 0010 1846     		mov	r0, r3
 171              		.loc 1 46 0
 172 0012 6661     		str	r6, [r4, #20]
 173              		.loc 1 48 0
 174 0014 0622     		movs	r2, #6
 175 0016 3946     		mov	r1, r7
 176              		.loc 1 47 0
 177 0018 6561     		str	r5, [r4, #20]
 178              		.loc 1 48 0
 179 001a FFF7FEFF 		bl	_pal_lld_setgroupmode
 180              		.loc 1 49 0
 181 001e 2046     		mov	r0, r4
 182 0020 3146     		mov	r1, r6
 183 0022 0622     		movs	r2, #6
 184 0024 FFF7FEFF 		bl	_pal_lld_setgroupmode
 185              		.loc 1 50 0
 186 0028 2946     		mov	r1, r5
 187 002a 0622     		movs	r2, #6
 188 002c 2046     		mov	r0, r4
 189 002e FFF7FEFF 		bl	_pal_lld_setgroupmode
 190              		.loc 1 53 0
 191 0032 0948     		ldr	r0, .L15+8
 192 0034 FFF7FEFF 		bl	chMtxInit
 193              		.loc 1 55 0
 194 0038 0024     		movs	r4, #0
 195 003a 4FF4D871 		mov	r1, #432
 196 003e 4022     		movs	r2, #64
 197 0040 064B     		ldr	r3, .L15+12
 198 0042 0748     		ldr	r0, .L15+16
 199 0044 0094     		str	r4, [sp, #0]
 200 0046 FFF7FEFF 		bl	chThdCreateStatic
 201              		.loc 1 56 0
 202 004a 03B0     		add	sp, sp, #12
 203 004c F0BD     		pop	{r4, r5, r6, r7, pc}
 204              	.L16:
 205 004e 00BF     		.align	2
 206              	.L15:
 207 0050 00100140 		.word	1073811456
 208 0054 000C0140 		.word	1073810432
 209 0058 00000000 		.word	.LANCHOR0
 210 005c 00000000 		.word	ledsThread
 211 0060 00000000 		.word	.LANCHOR2
 212              		.cfi_endproc
 213              	.LFE63:
 214              		.size	initLed, .-initLed
 215 0064 AFF30080 		.section	.text.setLeds,"ax",%progbits
 215      AFF30080 
 215      AFF30080 
 216              		.align	2
 217              		.p2align 4,,15
 218              		.global	setLeds
 219              		.thumb
 220              		.thumb_func
 221              		.type	setLeds, %function
 222              	setLeds:
ARM GAS  /tmp/ccA6aYpp.s 			page 5


 223              	.LFB64:
 224              		.loc 1 59 0
 225              		.cfi_startproc
 226              		@ args = 0, pretend = 0, frame = 0
 227              		@ frame_needed = 0, uses_anonymous_args = 0
 228              	.LVL2:
 229 0000 10B5     		push	{r4, lr}
 230              	.LCFI3:
 231              		.cfi_def_cfa_offset 8
 232              		.loc 1 59 0
 233 0002 0446     		mov	r4, r0
 234              		.cfi_offset 14, -4
 235              		.cfi_offset 4, -8
 236              		.loc 1 60 0
 237 0004 0448     		ldr	r0, .L18
 238              	.LVL3:
 239 0006 FFF7FEFF 		bl	chMtxLock
 240              		.loc 1 61 0
 241 000a 044B     		ldr	r3, .L18+4
 242 000c 1C60     		str	r4, [r3, #0]
 243              		.loc 1 63 0
 244 000e BDE81040 		pop	{r4, lr}
 245              		.loc 1 62 0
 246 0012 FFF7FEBF 		b	chMtxUnlock
 247              	.L19:
 248 0016 00BF     		.align	2
 249              	.L18:
 250 0018 00000000 		.word	.LANCHOR0
 251 001c 00000000 		.word	.LANCHOR1
 252              		.cfi_endproc
 253              	.LFE64:
 254              		.size	setLeds, .-setLeds
 255              		.section	.text.toggleLeds,"ax",%progbits
 256              		.align	2
 257              		.p2align 4,,15
 258              		.global	toggleLeds
 259              		.thumb
 260              		.thumb_func
 261              		.type	toggleLeds, %function
 262              	toggleLeds:
 263              	.LFB65:
 264              		.loc 1 66 0
 265              		.cfi_startproc
 266              		@ args = 0, pretend = 0, frame = 0
 267              		@ frame_needed = 0, uses_anonymous_args = 0
 268              	.LVL4:
 269 0000 10B5     		push	{r4, lr}
 270              	.LCFI4:
 271              		.cfi_def_cfa_offset 8
 272              		.loc 1 66 0
 273 0002 0446     		mov	r4, r0
 274              		.cfi_offset 14, -4
 275              		.cfi_offset 4, -8
 276              		.loc 1 67 0
 277 0004 0948     		ldr	r0, .L21
 278              	.LVL5:
 279 0006 FFF7FEFF 		bl	chMtxLock
ARM GAS  /tmp/ccA6aYpp.s 			page 6


 280              		.loc 1 68 0
 281 000a 094B     		ldr	r3, .L21+4
 282 000c 1A68     		ldr	r2, [r3, #0]
 283              		.loc 1 69 0
 284 000e D043     		mvns	r0, r2
 285 0010 00F00701 		and	r1, r0, #7
 286              		.loc 1 68 0
 287 0014 22EA0400 		bic	r0, r2, r4
 288              		.loc 1 69 0
 289 0018 01EA0404 		and	r4, r1, r4
 290              	.LVL6:
 291              		.loc 1 68 0
 292 001c 40EA0402 		orr	r2, r0, r4
 293 0020 1A60     		str	r2, [r3, #0]
 294              		.loc 1 71 0
 295 0022 BDE81040 		pop	{r4, lr}
 296              		.loc 1 70 0
 297 0026 FFF7FEBF 		b	chMtxUnlock
 298              	.L22:
 299 002a 00BF     		.align	2
 300              	.L21:
 301 002c 00000000 		.word	.LANCHOR0
 302 0030 00000000 		.word	.LANCHOR1
 303              		.cfi_endproc
 304              	.LFE65:
 305              		.size	toggleLeds, .-toggleLeds
 306 0034 AFF30080 		.section	.text.toggleLedsImmediate,"ax",%progbits
 306      AFF30080 
 306      AFF30080 
 307              		.align	2
 308              		.p2align 4,,15
 309              		.global	toggleLedsImmediate
 310              		.thumb
 311              		.thumb_func
 312              		.type	toggleLedsImmediate, %function
 313              	toggleLedsImmediate:
 314              	.LFB66:
 315              		.loc 1 74 0
 316              		.cfi_startproc
 317              		@ args = 0, pretend = 0, frame = 0
 318              		@ frame_needed = 0, uses_anonymous_args = 0
 319              		@ link register save eliminated.
 320              	.LVL7:
 321              		.loc 1 75 0
 322 0000 10F0010F 		tst	r0, #1
 323 0004 04D0     		beq	.L24
 324              		.loc 1 76 0
 325 0006 0B4B     		ldr	r3, .L27
 326 0008 D968     		ldr	r1, [r3, #12]
 327 000a 81F02002 		eor	r2, r1, #32
 328 000e DA60     		str	r2, [r3, #12]
 329              	.L24:
 330              		.loc 1 77 0
 331 0010 10F0020F 		tst	r0, #2
 332 0014 04D0     		beq	.L25
 333              		.loc 1 78 0
 334 0016 084B     		ldr	r3, .L27+4
ARM GAS  /tmp/ccA6aYpp.s 			page 7


 335 0018 D968     		ldr	r1, [r3, #12]
 336 001a 81F00102 		eor	r2, r1, #1
 337 001e DA60     		str	r2, [r3, #12]
 338              	.L25:
 339              		.loc 1 79 0
 340 0020 10F0040F 		tst	r0, #4
 341 0024 04D0     		beq	.L23
 342              		.loc 1 80 0
 343 0026 044B     		ldr	r3, .L27+4
 344 0028 DA68     		ldr	r2, [r3, #12]
 345 002a 82F00200 		eor	r0, r2, #2
 346              	.LVL8:
 347 002e D860     		str	r0, [r3, #12]
 348              	.L23:
 349 0030 7047     		bx	lr
 350              	.L28:
 351 0032 00BF     		.align	2
 352              	.L27:
 353 0034 00100140 		.word	1073811456
 354 0038 000C0140 		.word	1073810432
 355              		.cfi_endproc
 356              	.LFE66:
 357              		.size	toggleLedsImmediate, .-toggleLedsImmediate
 358 003c AFF30080 		.section	.text.toggleLedsI,"ax",%progbits
 359              		.align	2
 360              		.p2align 4,,15
 361              		.global	toggleLedsI
 362              		.thumb
 363              		.thumb_func
 364              		.type	toggleLedsI, %function
 365              	toggleLedsI:
 366              	.LFB67:
 367              		.loc 1 84 0
 368              		.cfi_startproc
 369              		@ args = 0, pretend = 0, frame = 0
 370              		@ frame_needed = 0, uses_anonymous_args = 0
 371              		@ link register save eliminated.
 372              	.LVL9:
 373              		.loc 1 85 0
 374 0000 10F0010F 		tst	r0, #1
 375 0004 04D0     		beq	.L30
 376              		.loc 1 86 0
 377 0006 0B4B     		ldr	r3, .L33
 378 0008 D968     		ldr	r1, [r3, #12]
 379 000a 81F02002 		eor	r2, r1, #32
 380 000e DA60     		str	r2, [r3, #12]
 381              	.L30:
 382              		.loc 1 87 0
 383 0010 10F0020F 		tst	r0, #2
 384 0014 04D0     		beq	.L31
 385              		.loc 1 88 0
 386 0016 084B     		ldr	r3, .L33+4
 387 0018 D968     		ldr	r1, [r3, #12]
 388 001a 81F00102 		eor	r2, r1, #1
 389 001e DA60     		str	r2, [r3, #12]
 390              	.L31:
 391              		.loc 1 89 0
ARM GAS  /tmp/ccA6aYpp.s 			page 8


 392 0020 10F0040F 		tst	r0, #4
 393 0024 04D0     		beq	.L29
 394              		.loc 1 90 0
 395 0026 044B     		ldr	r3, .L33+4
 396 0028 DA68     		ldr	r2, [r3, #12]
 397 002a 82F00200 		eor	r0, r2, #2
 398              	.LVL10:
 399 002e D860     		str	r0, [r3, #12]
 400              	.L29:
 401 0030 7047     		bx	lr
 402              	.L34:
 403 0032 00BF     		.align	2
 404              	.L33:
 405 0034 00100140 		.word	1073811456
 406 0038 000C0140 		.word	1073810432
 407              		.cfi_endproc
 408              	.LFE67:
 409              		.size	toggleLedsI, .-toggleLedsI
 410 003c AFF30080 		.section	.bss.mutex,"aw",%nobits
 411              		.align	2
 412              		.set	.LANCHOR0,. + 0
 413              		.type	mutex, %object
 414              		.size	mutex, 16
 415              	mutex:
 416 0000 00000000 		.space	16
 416      00000000 
 416      00000000 
 416      00000000 
 417              		.section	.bss.value,"aw",%nobits
 418              		.align	2
 419              		.set	.LANCHOR1,. + 0
 420              		.type	value, %object
 421              		.size	value, 4
 422              	value:
 423 0000 00000000 		.space	4
 424              		.section	.bss.waLeds,"aw",%nobits
 425              		.align	3
 426              		.set	.LANCHOR2,. + 0
 427              		.type	waLeds, %object
 428              		.size	waLeds, 432
 429              	waLeds:
 430 0000 00000000 		.space	432
 430      00000000 
 430      00000000 
 430      00000000 
 430      00000000 
 431              		.section	.rodata.str1.4,"aMS",%progbits,1
 432              		.align	2
 433              	.LC0:
 434 0000 6C6400   		.ascii	"ld\000"
 435 0003 00       		.text
 436              	.Letext0: