ARM GAS  C:\Users\z80\AppData\Local\Temp\ccsJ5GhV.s 			page 1


   1              		.syntax unified
   2              		.cpu cortex-m3
   3              		.fpu softvfp
   4              		.eabi_attribute 20, 1
   5              		.eabi_attribute 21, 1
   6              		.eabi_attribute 23, 3
   7              		.eabi_attribute 24, 1
   8              		.eabi_attribute 25, 1
   9              		.eabi_attribute 26, 1
  10              		.eabi_attribute 30, 2
  11              		.eabi_attribute 18, 4
  12              		.thumb
  13              		.file	"nvic.c"
  20 0000 EC000000 		.text
  20      02009700 
  20      00000201 
  20      FB0E0D00 
  20      01010101 
  21              	.Ltext0:
  22              		.cfi_sections	.debug_frame
  23              		.section	.text.nvicEnableVector,"ax",%progbits
  24              		.align	2
  25              		.p2align 4,,15
  26              		.global	nvicEnableVector
  27              		.thumb
  28              		.thumb_func
  29              		.type	nvicEnableVector, %function
  30              	nvicEnableVector:
  31              	.LFB7:
  32              		.file 1 "../chibios_2.4.x/os/ports/common/ARMCMx/nvic.c"
  33              		.loc 1 46 0
  34              		.cfi_startproc
  35              		@ args = 0, pretend = 0, frame = 0
  36              		@ frame_needed = 0, uses_anonymous_args = 0
  37              		@ link register save eliminated.
  38              	.LVL0:
  39              		.loc 1 47 0
  40 0000 00F00303 		and	r3, r0, #3
  41              		.loc 1 46 0
  42 0004 30B4     		push	{r4, r5}
  43              	.LCFI0:
  44              		.cfi_def_cfa_offset 8
  45              		.loc 1 47 0
  46 0006 DB00     		lsls	r3, r3, #3
  47              		.loc 1 49 0
  48 0008 FF25     		movs	r5, #255
  49              		.cfi_offset 5, -4
  50              		.cfi_offset 4, -8
  51 000a 9D40     		lsls	r5, r5, r3
  52              		.loc 1 50 0
  53 000c 00F01F02 		and	r2, r0, #31
ARM GAS  C:\Users\z80\AppData\Local\Temp\ccsJ5GhV.s 			page 2


  54              		.loc 1 49 0
  55 0010 11FA03F3 		lsls	r3, r1, r3
  56              		.loc 1 50 0
  57 0014 4FF0010C 		mov	ip, #1
  58 0018 0CFA02FC 		lsl	ip, ip, r2
  59              		.loc 1 49 0
  60 001c 8408     		lsrs	r4, r0, #2
  61 001e 4FF46142 		mov	r2, #57600
  62 0022 CEF20002 		movt	r2, 57344
  63 0026 C034     		adds	r4, r4, #192
  64 0028 52F82410 		ldr	r1, [r2, r4, lsl #2]
  65              	.LVL1:
  66              		.loc 1 50 0
  67 002c 4009     		lsrs	r0, r0, #5
  68              	.LVL2:
  69              		.loc 1 49 0
  70 002e 21EA0501 		bic	r1, r1, r5
  71 0032 41EA0303 		orr	r3, r1, r3
  72              		.loc 1 50 0
  73 0036 00F16001 		add	r1, r0, #96
  74              		.loc 1 49 0
  75 003a 42F82430 		str	r3, [r2, r4, lsl #2]
  76              		.loc 1 50 0
  77 003e 42F821C0 		str	ip, [r2, r1, lsl #2]
  78              		.loc 1 51 0
  79 0042 42F820C0 		str	ip, [r2, r0, lsl #2]
  80              		.loc 1 52 0
  81 0046 30BC     		pop	{r4, r5}
  82 0048 7047     		bx	lr
  83              		.cfi_endproc
  84              	.LFE7:
  85              		.size	nvicEnableVector, .-nvicEnableVector
  86 004a 00BFAFF3 		.section	.text.nvicDisableVector,"ax",%progbits
  86      0080
  87              		.align	2
  88              		.p2align 4,,15
  89              		.global	nvicDisableVector
  90              		.thumb
  91              		.thumb_func
  92              		.type	nvicDisableVector, %function
  93              	nvicDisableVector:
  94              	.LFB8:
  95              		.loc 1 60 0
  96              		.cfi_startproc
  97              		@ args = 0, pretend = 0, frame = 0
  98              		@ frame_needed = 0, uses_anonymous_args = 0
  99              		@ link register save eliminated.
 100              	.LVL3:
 101              		.loc 1 63 0
 102 0000 00F01F03 		and	r3, r0, #31
 103 0004 4FF0010C 		mov	ip, #1
 104 0008 0CFA03FC 		lsl	ip, ip, r3
 105              		.loc 1 61 0
 106 000c 00F00302 		and	r2, r0, #3
 107              		.loc 1 64 0
 108 0010 FF23     		movs	r3, #255
 109              		.loc 1 61 0
ARM GAS  C:\Users\z80\AppData\Local\Temp\ccsJ5GhV.s 			page 3


 110 0012 D200     		lsls	r2, r2, #3
 111              		.loc 1 64 0
 112 0014 13FA02F2 		lsls	r2, r3, r2
 113              		.loc 1 63 0
 114 0018 4109     		lsrs	r1, r0, #5
 115 001a 4FF46143 		mov	r3, #57600
 116 001e CEF20003 		movt	r3, 57344
 117 0022 2031     		adds	r1, r1, #32
 118              		.loc 1 64 0
 119 0024 8008     		lsrs	r0, r0, #2
 120              	.LVL4:
 121              		.loc 1 63 0
 122 0026 43F821C0 		str	ip, [r3, r1, lsl #2]
 123              		.loc 1 64 0
 124 002a C030     		adds	r0, r0, #192
 125 002c 53F82010 		ldr	r1, [r3, r0, lsl #2]
 126 0030 21EA0202 		bic	r2, r1, r2
 127 0034 43F82020 		str	r2, [r3, r0, lsl #2]
 128              		.loc 1 65 0
 129 0038 7047     		bx	lr
 130              		.cfi_endproc
 131              	.LFE8:
 132              		.size	nvicDisableVector, .-nvicDisableVector
 133 003a 00BFAFF3 		.section	.text.nvicSetSystemHandlerPriority,"ax",%progbits
 133      0080
 134              		.align	2
 135              		.p2align 4,,15
 136              		.global	nvicSetSystemHandlerPriority
 137              		.thumb
 138              		.thumb_func
 139              		.type	nvicSetSystemHandlerPriority, %function
 140              	nvicSetSystemHandlerPriority:
 141              	.LFB9:
 142              		.loc 1 74 0
 143              		.cfi_startproc
 144              		@ args = 0, pretend = 0, frame = 0
 145              		@ frame_needed = 0, uses_anonymous_args = 0
 146              		@ link register save eliminated.
 147              	.LVL5:
 148              		.loc 1 75 0
 149 0000 00F00303 		and	r3, r0, #3
 150              		.loc 1 74 0
 151 0004 10B4     		push	{r4}
 152              	.LCFI1:
 153              		.cfi_def_cfa_offset 4
 154              		.loc 1 75 0
 155 0006 DB00     		lsls	r3, r3, #3
 156              		.loc 1 78 0
 157 0008 FF24     		movs	r4, #255
 158              		.cfi_offset 4, -4
 159 000a 9C40     		lsls	r4, r4, r3
 160 000c 11FA03F3 		lsls	r3, r1, r3
 161              		.loc 1 77 0
 162 0010 8008     		lsrs	r0, r0, #2
 163              	.LVL6:
 164 0012 4FF46D42 		mov	r2, #60672
 165 0016 CEF20002 		movt	r2, 57344
ARM GAS  C:\Users\z80\AppData\Local\Temp\ccsJ5GhV.s 			page 4


 166 001a 0630     		adds	r0, r0, #6
 167 001c 52F820C0 		ldr	ip, [r2, r0, lsl #2]
 168 0020 2CEA0401 		bic	r1, ip, r4
 169              	.LVL7:
 170              		.loc 1 78 0
 171 0024 41EA0303 		orr	r3, r1, r3
 172              		.loc 1 77 0
 173 0028 42F82030 		str	r3, [r2, r0, lsl #2]
 174              		.loc 1 79 0
 175 002c 10BC     		pop	{r4}
 176 002e 7047     		bx	lr
 177              		.cfi_endproc
 178              	.LFE9:
 179              		.size	nvicSetSystemHandlerPriority, .-nvicSetSystemHandlerPriority
 180              		.text
 181              	.Letext0: