ARM GAS  C:\Users\z80\AppData\Local\Temp\cc7PwUze.s 			page 1


   1              		.syntax unified
   2              		.cpu cortex-m3
   3              		.fpu softvfp
   4              		.eabi_attribute 20, 1
   5              		.eabi_attribute 21, 1
   6              		.eabi_attribute 23, 3
   7              		.eabi_attribute 24, 1
   8              		.eabi_attribute 25, 1
   9              		.eabi_attribute 26, 1
  10              		.eabi_attribute 30, 6
  11              		.eabi_attribute 18, 4
  12              		.thumb
  13              		.file	"pal.c"
  20 0000 C8010000 		.text
  20      02006401 
  20      00000201 
  20      FB0E0D00 
  20      01010101 
  21              	.Ltext0:
  22              		.cfi_sections	.debug_frame
  23              		.section	.rodata
  24              		.align	2
  25              	.LC0:
  26 0000 2270616C 		.ascii	"\"palReadBus\"()\000"
  26      52656164 
  26      42757322 
  26      282900
  27              		.section	.text.palReadBus,"ax",%progbits
  28              		.align	2
  29              		.p2align 4,,15
  30              		.global	palReadBus
  31              		.thumb
  32              		.thumb_func
  33              		.type	palReadBus, %function
  34              	palReadBus:
  35              	.LFB62:
  36              		.file 1 "../chibios_2.4.x/os/hal/src/pal.c"
  37              		.loc 1 76 0
  38              		.cfi_startproc
  39              		@ args = 0, pretend = 0, frame = 8
  40              		@ frame_needed = 0, uses_anonymous_args = 0
  41 0000 00B5     		push	{lr}
  42              	.LCFI0:
  43              		.cfi_def_cfa_offset 4
  44 0002 83B0     		sub	sp, sp, #12
  45              	.LCFI1:
  46              		.cfi_def_cfa_offset 16
  47 0004 0190     		str	r0, [sp, #4]
  48              		.loc 1 78 0
  49 0006 019B     		ldr	r3, [sp, #4]
  50 0008 002B     		cmp	r3, #0
ARM GAS  C:\Users\z80\AppData\Local\Temp\cc7PwUze.s 			page 2


  51 000a 03D0     		beq	.L2
  52              		.cfi_offset 14, -4
  53              		.loc 1 78 0 is_stmt 0 discriminator 2
  54 000c 019B     		ldr	r3, [sp, #4]
  55 000e 9B68     		ldr	r3, [r3, #8]
  56 0010 0F2B     		cmp	r3, #15
  57 0012 05D9     		bls	.L3
  58              	.L2:
  59              		.loc 1 78 0 discriminator 1
  60 0014 40F20000 		movw	r0, #:lower16:.LC0
  61 0018 C0F20000 		movt	r0, #:upper16:.LC0
  62 001c FFF7FEFF 		bl	chDbgPanic
  63              	.L3:
  64              		.loc 1 81 0 is_stmt 1
  65 0020 019B     		ldr	r3, [sp, #4]
  66 0022 1B68     		ldr	r3, [r3, #0]
  67 0024 9A68     		ldr	r2, [r3, #8]
  68 0026 019B     		ldr	r3, [sp, #4]
  69 0028 9B68     		ldr	r3, [r3, #8]
  70 002a 22FA03F2 		lsr	r2, r2, r3
  71 002e 019B     		ldr	r3, [sp, #4]
  72 0030 5B68     		ldr	r3, [r3, #4]
  73 0032 02EA0303 		and	r3, r2, r3
  74              		.loc 1 82 0
  75 0036 1846     		mov	r0, r3
  76 0038 03B0     		add	sp, sp, #12
  77 003a 00BD     		pop	{pc}
  78              		.cfi_endproc
  79              	.LFE62:
  80              		.size	palReadBus, .-palReadBus
  81 003c AFF30080 		.section	.rodata
  82 000f 00       		.align	2
  83              	.LC1:
  84 0010 2270616C 		.ascii	"\"palWriteBus\"()\000"
  84      57726974 
  84      65427573 
  84      22282900 
  85              		.section	.text.palWriteBus,"ax",%progbits
  86              		.align	2
  87              		.p2align 4,,15
  88              		.global	palWriteBus
  89              		.thumb
  90              		.thumb_func
  91              		.type	palWriteBus, %function
  92              	palWriteBus:
  93              	.LFB63:
  94              		.loc 1 101 0
  95              		.cfi_startproc
  96              		@ args = 0, pretend = 0, frame = 8
  97              		@ frame_needed = 0, uses_anonymous_args = 0
  98 0000 00B5     		push	{lr}
  99              	.LCFI2:
 100              		.cfi_def_cfa_offset 4
 101 0002 83B0     		sub	sp, sp, #12
 102              	.LCFI3:
 103              		.cfi_def_cfa_offset 16
 104 0004 0190     		str	r0, [sp, #4]
ARM GAS  C:\Users\z80\AppData\Local\Temp\cc7PwUze.s 			page 3


 105 0006 0091     		str	r1, [sp, #0]
 106              		.loc 1 103 0
 107 0008 019B     		ldr	r3, [sp, #4]
 108 000a 002B     		cmp	r3, #0
 109 000c 03D0     		beq	.L5
 110              		.cfi_offset 14, -4
 111              		.loc 1 103 0 is_stmt 0 discriminator 2
 112 000e 019B     		ldr	r3, [sp, #4]
 113 0010 9B68     		ldr	r3, [r3, #8]
 114 0012 0F2B     		cmp	r3, #15
 115 0014 05D9     		bls	.L6
 116              	.L5:
 117              		.loc 1 103 0 discriminator 1
 118 0016 40F20000 		movw	r0, #:lower16:.LC1
 119 001a C0F20000 		movt	r0, #:upper16:.LC1
 120 001e FFF7FEFF 		bl	chDbgPanic
 121              	.L6:
 122              		.loc 1 106 0 is_stmt 1
 123 0022 019B     		ldr	r3, [sp, #4]
 124 0024 1B68     		ldr	r3, [r3, #0]
 125 0026 009A     		ldr	r2, [sp, #0]
 126 0028 6FEA0201 		mvn	r1, r2
 127 002c 019A     		ldr	r2, [sp, #4]
 128 002e 5268     		ldr	r2, [r2, #4]
 129 0030 01EA0201 		and	r1, r1, r2
 130 0034 019A     		ldr	r2, [sp, #4]
 131 0036 9268     		ldr	r2, [r2, #8]
 132 0038 02F11002 		add	r2, r2, #16
 133 003c 01FA02F1 		lsl	r1, r1, r2
 134 0040 019A     		ldr	r2, [sp, #4]
 135 0042 5068     		ldr	r0, [r2, #4]
 136 0044 009A     		ldr	r2, [sp, #0]
 137 0046 00EA0200 		and	r0, r0, r2
 138 004a 019A     		ldr	r2, [sp, #4]
 139 004c 9268     		ldr	r2, [r2, #8]
 140 004e 00FA02F2 		lsl	r2, r0, r2
 141 0052 41EA0202 		orr	r2, r1, r2
 142 0056 1A61     		str	r2, [r3, #16]
 143              		.loc 1 107 0
 144 0058 03B0     		add	sp, sp, #12
 145 005a 00BD     		pop	{pc}
 146              		.cfi_endproc
 147              	.LFE63:
 148              		.size	palWriteBus, .-palWriteBus
 149 005c AFF30080 		.section	.rodata
 150              		.align	2
 151              	.LC2:
 152 0020 2270616C 		.ascii	"\"palSetBusMode\"()\000"
 152      53657442 
 152      75734D6F 
 152      64652228 
 152      2900
 153 0032 0000     		.section	.text.palSetBusMode,"ax",%progbits
 154              		.align	2
 155              		.p2align 4,,15
 156              		.global	palSetBusMode
 157              		.thumb
ARM GAS  C:\Users\z80\AppData\Local\Temp\cc7PwUze.s 			page 4


 158              		.thumb_func
 159              		.type	palSetBusMode, %function
 160              	palSetBusMode:
 161              	.LFB64:
 162              		.loc 1 124 0
 163              		.cfi_startproc
 164              		@ args = 0, pretend = 0, frame = 8
 165              		@ frame_needed = 0, uses_anonymous_args = 0
 166 0000 00B5     		push	{lr}
 167              	.LCFI4:
 168              		.cfi_def_cfa_offset 4
 169 0002 83B0     		sub	sp, sp, #12
 170              	.LCFI5:
 171              		.cfi_def_cfa_offset 16
 172 0004 0190     		str	r0, [sp, #4]
 173 0006 0091     		str	r1, [sp, #0]
 174              		.loc 1 126 0
 175 0008 019B     		ldr	r3, [sp, #4]
 176 000a 002B     		cmp	r3, #0
 177 000c 03D0     		beq	.L8
 178              		.cfi_offset 14, -4
 179              		.loc 1 126 0 is_stmt 0 discriminator 2
 180 000e 019B     		ldr	r3, [sp, #4]
 181 0010 9B68     		ldr	r3, [r3, #8]
 182 0012 0F2B     		cmp	r3, #15
 183 0014 05D9     		bls	.L9
 184              	.L8:
 185              		.loc 1 126 0 discriminator 1
 186 0016 40F20000 		movw	r0, #:lower16:.LC2
 187 001a C0F20000 		movt	r0, #:upper16:.LC2
 188 001e FFF7FEFF 		bl	chDbgPanic
 189              	.L9:
 190              		.loc 1 129 0 is_stmt 1
 191 0022 019B     		ldr	r3, [sp, #4]
 192 0024 1A68     		ldr	r2, [r3, #0]
 193 0026 019B     		ldr	r3, [sp, #4]
 194 0028 5968     		ldr	r1, [r3, #4]
 195 002a 019B     		ldr	r3, [sp, #4]
 196 002c 9B68     		ldr	r3, [r3, #8]
 197 002e 01FA03F3 		lsl	r3, r1, r3
 198 0032 1046     		mov	r0, r2
 199 0034 1946     		mov	r1, r3
 200 0036 009A     		ldr	r2, [sp, #0]
 201 0038 FFF7FEFF 		bl	_pal_lld_setgroupmode
 202              		.loc 1 130 0
 203 003c 03B0     		add	sp, sp, #12
 204 003e 00BD     		pop	{pc}
 205              		.cfi_endproc
 206              	.LFE64:
 207              		.size	palSetBusMode, .-palSetBusMode
 208              		.text
 209              	.Letext0: