ARM GAS  C:\Users\z80\AppData\Local\Temp\ccI74pZV.s 			page 1


   1              		.syntax unified
   2              		.cpu cortex-m3
   3              		.fpu softvfp
   4              		.eabi_attribute 20, 1
   5              		.eabi_attribute 21, 1
   6              		.eabi_attribute 23, 3
   7              		.eabi_attribute 24, 1
   8              		.eabi_attribute 25, 1
   9              		.eabi_attribute 26, 1
  10              		.eabi_attribute 30, 2
  11              		.eabi_attribute 18, 4
  12              		.thumb
  13              		.file	"pal_lld.c"
  14              		.section	.debug_abbrev,"",%progbits
  15              	.Ldebug_abbrev0:
  16              		.section	.debug_info,"",%progbits
  17              	.Ldebug_info0:
  18              		.section	.debug_line,"",%progbits
  19              	.Ldebug_line0:
  20 0000 95010000 		.text
  20      02002301 
  20      00000201 
  20      FB0E0D00 
  20      01010101 
  21              	.Ltext0:
  22              		.cfi_sections	.debug_frame
  23              		.section	.text._pal_lld_init,"ax",%progbits
  24              		.align	2
  25              		.p2align 4,,15
  26              		.global	_pal_lld_init
  27              		.thumb
  28              		.thumb_func
  29              		.type	_pal_lld_init, %function
  30              	_pal_lld_init:
  31              	.LFB62:
  32              		.file 1 "../chibios_2.4.x/os/hal/platforms/STM32/GPIOv1/pal_lld.c"
  33              		.loc 1 84 0
  34              		.cfi_startproc
  35              		@ args = 0, pretend = 0, frame = 0
  36              		@ frame_needed = 0, uses_anonymous_args = 0
  37              		@ link register save eliminated.
  38              	.LVL0:
  39              		.loc 1 89 0
  40 0000 4FF48053 		mov	r3, #4096
  41 0004 C4F20203 		movt	r3, 16386
  42 0008 9A69     		ldr	r2, [r3, #24]
  43 000a 42F07D02 		orr	r2, r2, #125
  44 000e 9A61     		str	r2, [r3, #24]
  45              		.loc 1 94 0
  46 0010 0368     		ldr	r3, [r0, #0]
  47 0012 4FF40062 		mov	r2, #2048
  48 0016 C4F20102 		movt	r2, 16385
  49 001a D360     		str	r3, [r2, #12]
  50              		.loc 1 95 0
  51 001c 8168     		ldr	r1, [r0, #8]
  52              		.loc 1 97 0
  53 001e 4FF44063 		mov	r3, #3072
ARM GAS  C:\Users\z80\AppData\Local\Temp\ccI74pZV.s 			page 2


  54              		.loc 1 95 0
  55 0022 5160     		str	r1, [r2, #4]
  56              		.loc 1 96 0
  57 0024 4168     		ldr	r1, [r0, #4]
  58              		.loc 1 97 0
  59 0026 C4F20103 		movt	r3, 16385
  60              		.loc 1 96 0
  61 002a 1160     		str	r1, [r2, #0]
  62              		.loc 1 97 0
  63 002c C268     		ldr	r2, [r0, #12]
  64              		.loc 1 100 0
  65 002e 4FF48051 		mov	r1, #4096
  66              		.loc 1 97 0
  67 0032 DA60     		str	r2, [r3, #12]
  68              		.loc 1 98 0
  69 0034 4269     		ldr	r2, [r0, #20]
  70              		.loc 1 100 0
  71 0036 C4F20101 		movt	r1, 16385
  72              		.loc 1 98 0
  73 003a 5A60     		str	r2, [r3, #4]
  74              		.loc 1 99 0
  75 003c D0F810C0 		ldr	ip, [r0, #16]
  76              		.loc 1 103 0
  77 0040 4FF4A052 		mov	r2, #5120
  78              		.loc 1 99 0
  79 0044 C3F800C0 		str	ip, [r3, #0]
  80              		.loc 1 100 0
  81 0048 8369     		ldr	r3, [r0, #24]
  82              		.loc 1 103 0
  83 004a C4F20102 		movt	r2, 16385
  84              		.loc 1 100 0
  85 004e CB60     		str	r3, [r1, #12]
  86              		.loc 1 101 0
  87 0050 D0F820C0 		ldr	ip, [r0, #32]
  88              		.loc 1 107 0
  89 0054 4FF4C053 		mov	r3, #6144
  90              		.loc 1 101 0
  91 0058 C1F804C0 		str	ip, [r1, #4]
  92              		.loc 1 102 0
  93 005c D0F81CC0 		ldr	ip, [r0, #28]
  94              		.loc 1 107 0
  95 0060 C4F20103 		movt	r3, 16385
  96              		.loc 1 102 0
  97 0064 C1F800C0 		str	ip, [r1, #0]
  98              		.loc 1 103 0
  99 0068 416A     		ldr	r1, [r0, #36]
 100 006a D160     		str	r1, [r2, #12]
 101              		.loc 1 104 0
 102 006c C16A     		ldr	r1, [r0, #44]
 103 006e 5160     		str	r1, [r2, #4]
 104              		.loc 1 105 0
 105 0070 816A     		ldr	r1, [r0, #40]
 106 0072 1160     		str	r1, [r2, #0]
 107              		.loc 1 107 0
 108 0074 026B     		ldr	r2, [r0, #48]
 109 0076 DA60     		str	r2, [r3, #12]
 110              		.loc 1 108 0
ARM GAS  C:\Users\z80\AppData\Local\Temp\ccI74pZV.s 			page 3


 111 0078 826B     		ldr	r2, [r0, #56]
 112 007a 5A60     		str	r2, [r3, #4]
 113              		.loc 1 109 0
 114 007c 426B     		ldr	r2, [r0, #52]
 115 007e 1A60     		str	r2, [r3, #0]
 116              		.loc 1 121 0
 117 0080 7047     		bx	lr
 118              		.cfi_endproc
 119              	.LFE62:
 120              		.size	_pal_lld_init, .-_pal_lld_init
 121              		.section	.text._pal_lld_setgroupmode,"ax",%progbits
 122              		.align	2
 123              		.p2align 4,,15
 124              		.global	_pal_lld_setgroupmode
 125              		.thumb
 126              		.thumb_func
 127              		.type	_pal_lld_setgroupmode, %function
 128              	_pal_lld_setgroupmode:
 129              	.LFB63:
 130              		.loc 1 140 0
 131              		.cfi_startproc
 132              		@ args = 0, pretend = 0, frame = 0
 133              		@ frame_needed = 0, uses_anonymous_args = 0
 134              		@ link register save eliminated.
 135              	.LVL1:
 136              		.loc 1 164 0
 137 0000 032A     		cmp	r2, #3
 138              		.loc 1 140 0
 139 0002 70B4     		push	{r4, r5, r6}
 140              	.LCFI0:
 141              		.cfi_def_cfa_offset 12
 142              		.loc 1 165 0
 143 0004 08BF     		it	eq
 144 0006 0161     		streq	r1, [r0, #16]
 145              		.loc 1 164 0
 146 0008 02D0     		beq	.L4
 147              		.cfi_offset 6, -4
 148              		.cfi_offset 5, -8
 149              		.cfi_offset 4, -12
 150              		.loc 1 166 0
 151 000a 042A     		cmp	r2, #4
 152              		.loc 1 167 0
 153 000c 08BF     		it	eq
 154 000e 4161     		streq	r1, [r0, #20]
 155              	.L4:
 156              		.loc 1 168 0
 157 0010 DFF858C0 		ldr	ip, .L13
 158              		.loc 1 169 0
 159 0014 0023     		movs	r3, #0
 160              		.loc 1 168 0
 161 0016 1CF80260 		ldrb	r6, [ip, r2]	@ zero_extendqisi2
 162              	.LVL2:
 163 001a 0825     		movs	r5, #8
 164              		.loc 1 169 0
 165 001c 9C46     		mov	ip, r3
 166 001e 1A46     		mov	r2, r3
 167              	.LVL3:
ARM GAS  C:\Users\z80\AppData\Local\Temp\ccI74pZV.s 			page 4


 168 0020 1C46     		mov	r4, r3
 169 0022 00E0     		b	.L10
 170              	.LVL4:
 171              	.L12:
 172              		.loc 1 183 0
 173 0024 4900     		lsls	r1, r1, #1
 174              	.LVL5:
 175              	.L10:
 176              		.loc 1 171 0
 177 0026 1201     		lsls	r2, r2, #4
 178              	.LVL6:
 179              		.loc 1 172 0
 180 0028 2401     		lsls	r4, r4, #4
 181              	.LVL7:
 182              		.loc 1 173 0
 183 002a 1B01     		lsls	r3, r3, #4
 184              	.LVL8:
 185              		.loc 1 175 0
 186 002c 11F0800F 		tst	r1, #128
 187              		.loc 1 176 0
 188 0030 08BF     		it	eq
 189 0032 42F00F02 		orreq	r2, r2, #15
 190              	.LVL9:
 191              		.loc 1 174 0
 192 0036 4FEA0C1C 		lsl	ip, ip, #4
 193              	.LVL10:
 194              		.loc 1 178 0
 195 003a 18BF     		it	ne
 196 003c 3343     		orrne	r3, r3, r6
 197              	.LVL11:
 198              		.loc 1 179 0
 199 003e 11F4004F 		tst	r1, #32768
 200              		.loc 1 180 0
 201 0042 0CBF     		ite	eq
 202 0044 44F00F04 		orreq	r4, r4, #15
 203              	.LVL12:
 204              		.loc 1 182 0
 205 0048 4CEA060C 		orrne	ip, ip, r6
 206              	.LVL13:
 207              		.loc 1 170 0
 208 004c 15F1FF35 		adds	r5, r5, #-1
 209 0050 E8D1     		bne	.L12
 210              		.loc 1 185 0
 211 0052 4168     		ldr	r1, [r0, #4]
 212              	.LVL14:
 213 0054 0C40     		ands	r4, r4, r1
 214              	.LVL15:
 215 0056 44EA0C0C 		orr	ip, r4, ip
 216              	.LVL16:
 217 005a C0F804C0 		str	ip, [r0, #4]
 218              		.loc 1 186 0
 219 005e 0168     		ldr	r1, [r0, #0]
 220 0060 0A40     		ands	r2, r2, r1
 221              	.LVL17:
 222 0062 42EA0303 		orr	r3, r2, r3
 223              	.LVL18:
 224 0066 0360     		str	r3, [r0, #0]
ARM GAS  C:\Users\z80\AppData\Local\Temp\ccI74pZV.s 			page 5


 225              		.loc 1 187 0
 226 0068 70BC     		pop	{r4, r5, r6}
 227 006a 7047     		bx	lr
 228              	.L14:
 229              		.align	2
 230              	.L13:
 231 006c 00000000 		.word	.LANCHOR0
 232              		.cfi_endproc
 233              	.LFE63:
 234              		.size	_pal_lld_setgroupmode, .-_pal_lld_setgroupmode
 235              		.section	.rodata.cfgtab.3307,"a",%progbits
 236              		.align	2
 237              		.set	.LANCHOR0,. + 0
 238              		.type	cfgtab.3307, %object
 239              		.size	cfgtab.3307, 18
 240              	cfgtab.3307:
 241 0000 04       		.byte	4
 242 0001 02       		.byte	2
 243 0002 04       		.byte	4
 244 0003 08       		.byte	8
 245 0004 08       		.byte	8
 246 0005 00       		.byte	0
 247 0006 03       		.byte	3
 248 0007 07       		.byte	7
 249 0008 08       		.byte	8
 250 0009 08       		.byte	8
 251 000a 08       		.byte	8
 252 000b 08       		.byte	8
 253 000c 08       		.byte	8
 254 000d 08       		.byte	8
 255 000e 08       		.byte	8
 256 000f 08       		.byte	8
 257 0010 0B       		.byte	11
 258 0011 0F       		.byte	15
 259 0012 0000     		.text
 260              	.Letext0:
 261              		.section	.debug_loc,"",%progbits
 262              	.Ldebug_loc0:
 263              	.LLST0:
 264 0000 00000000 		.4byte	.LFB63
 265 0004 04000000 		.4byte	.LCFI0
 266 0008 0200     		.2byte	0x2
 267 000a 7D       		.byte	0x7d
 268 000b 00       		.sleb128 0
 269 000c 04000000 		.4byte	.LCFI0
 270 0010 70000000 		.4byte	.LFE63
 271 0014 0200     		.2byte	0x2
 272 0016 7D       		.byte	0x7d
 273 0017 0C       		.sleb128 12
 274 0018 00000000 		.4byte	0x0
 275 001c 00000000 		.4byte	0x0
 276              	.LLST1:
 277 0020 00000000 		.4byte	.LVL1
 278 0024 24000000 		.4byte	.LVL4
 279 0028 0100     		.2byte	0x1
 280 002a 51       		.byte	0x51
 281 002b 24000000 		.4byte	.LVL4
ARM GAS  C:\Users\z80\AppData\Local\Temp\ccI74pZV.s 			page 6


 282 002f 26000000 		.4byte	.LVL5
 283 0033 0500     		.2byte	0x5
 284 0035 71       		.byte	0x71
 285 0036 00       		.sleb128 0
 286 0037 31       		.byte	0x31
 287 0038 24       		.byte	0x24
 288 0039 9F       		.byte	0x9f
 289 003a 4C000000 		.4byte	.LVL13
 290 003e 54000000 		.4byte	.LVL14
 291 0042 0500     		.2byte	0x5
 292 0044 71       		.byte	0x71
 293 0045 00       		.sleb128 0
 294 0046 31       		.byte	0x31
 295 0047 24       		.byte	0x24
 296 0048 9F       		.byte	0x9f
 297 0049 00000000 		.4byte	0x0
 298 004d 00000000 		.4byte	0x0
 299              	.LLST2:
 300 0051 00000000 		.4byte	.LVL1
 301 0055 20000000 		.4byte	.LVL3
 302 0059 0100     		.2byte	0x1
 303 005b 52       		.byte	0x52
 304 005c 00000000 		.4byte	0x0
 305 0060 00000000 		.4byte	0x0
 306              	.LLST3:
 307 0064 1A000000 		.4byte	.LVL2
 308 0068 24000000 		.4byte	.LVL4
 309 006c 0200     		.2byte	0x2
 310 006e 30       		.byte	0x30
 311 006f 9F       		.byte	0x9f
 312 0070 24000000 		.4byte	.LVL4
 313 0074 26000000 		.4byte	.LVL5
 314 0078 0100     		.2byte	0x1
 315 007a 54       		.byte	0x54
 316 007b 2A000000 		.4byte	.LVL7
 317 007f 48000000 		.4byte	.LVL12
 318 0083 0100     		.2byte	0x1
 319 0085 54       		.byte	0x54
 320 0086 48000000 		.4byte	.LVL12
 321 008a 56000000 		.4byte	.LVL15
 322 008e 0100     		.2byte	0x1
 323 0090 54       		.byte	0x54
 324 0091 00000000 		.4byte	0x0
 325 0095 00000000 		.4byte	0x0
 326              	.LLST4:
 327 0099 1A000000 		.4byte	.LVL2
 328 009d 24000000 		.4byte	.LVL4
 329 00a1 0200     		.2byte	0x2
 330 00a3 30       		.byte	0x30
 331 00a4 9F       		.byte	0x9f
 332 00a5 24000000 		.4byte	.LVL4
 333 00a9 26000000 		.4byte	.LVL5
 334 00ad 0100     		.2byte	0x1
 335 00af 52       		.byte	0x52
 336 00b0 28000000 		.4byte	.LVL6
 337 00b4 36000000 		.4byte	.LVL9
 338 00b8 0100     		.2byte	0x1
ARM GAS  C:\Users\z80\AppData\Local\Temp\ccI74pZV.s 			page 7


 339 00ba 52       		.byte	0x52
 340 00bb 3A000000 		.4byte	.LVL10
 341 00bf 62000000 		.4byte	.LVL17
 342 00c3 0100     		.2byte	0x1
 343 00c5 52       		.byte	0x52
 344 00c6 00000000 		.4byte	0x0
 345 00ca 00000000 		.4byte	0x0
 346              	.LLST5:
 347 00ce 1A000000 		.4byte	.LVL2
 348 00d2 24000000 		.4byte	.LVL4
 349 00d6 0200     		.2byte	0x2
 350 00d8 30       		.byte	0x30
 351 00d9 9F       		.byte	0x9f
 352 00da 24000000 		.4byte	.LVL4
 353 00de 26000000 		.4byte	.LVL5
 354 00e2 0100     		.2byte	0x1
 355 00e4 5C       		.byte	0x5c
 356 00e5 3A000000 		.4byte	.LVL10
 357 00e9 4C000000 		.4byte	.LVL13
 358 00ed 0100     		.2byte	0x1
 359 00ef 5C       		.byte	0x5c
 360 00f0 4C000000 		.4byte	.LVL13
 361 00f4 5A000000 		.4byte	.LVL16
 362 00f8 0100     		.2byte	0x1
 363 00fa 5C       		.byte	0x5c
 364 00fb 00000000 		.4byte	0x0
 365 00ff 00000000 		.4byte	0x0
 366              	.LLST6:
 367 0103 1A000000 		.4byte	.LVL2
 368 0107 24000000 		.4byte	.LVL4
 369 010b 0200     		.2byte	0x2
 370 010d 30       		.byte	0x30
 371 010e 9F       		.byte	0x9f
 372 010f 24000000 		.4byte	.LVL4
 373 0113 26000000 		.4byte	.LVL5
 374 0117 0100     		.2byte	0x1
 375 0119 53       		.byte	0x53
 376 011a 2C000000 		.4byte	.LVL8
 377 011e 3E000000 		.4byte	.LVL11
 378 0122 0100     		.2byte	0x1
 379 0124 53       		.byte	0x53
 380 0125 3E000000 		.4byte	.LVL11
 381 0129 66000000 		.4byte	.LVL18
 382 012d 0100     		.2byte	0x1
 383 012f 53       		.byte	0x53
 384 0130 00000000 		.4byte	0x0
 385 0134 00000000 		.4byte	0x0
 386              	.LLST7:
 387 0138 1A000000 		.4byte	.LVL2
 388 013c 24000000 		.4byte	.LVL4
 389 0140 0200     		.2byte	0x2
 390 0142 30       		.byte	0x30
 391 0143 9F       		.byte	0x9f
 392 0144 00000000 		.4byte	0x0
 393 0148 00000000 		.4byte	0x0
 394              		.file 2 "c:/programs/yagarto/lib/gcc/../../arm-none-eabi/sys-include/stdint.h"
 395              		.file 3 "../chibios_2.4.x/os/hal/platforms/STM32F1xx/stm32f10x.h"
ARM GAS  C:\Users\z80\AppData\Local\Temp\ccI74pZV.s 			page 8


 396              		.file 4 "../chibios_2.4.x/os/hal/platforms/STM32/GPIOv1/pal_lld.h"
 397              		.file 5 "../chibios_2.4.x/os/ports/common/ARMCMx/CMSIS/include/core_cm3.h"
 398              		.section	.debug_info
 399 0000 96030000 		.4byte	0x396
 400 0004 0200     		.2byte	0x2
 401 0006 00000000 		.4byte	.Ldebug_abbrev0
 402 000a 04       		.byte	0x4
 403 000b 01       		.uleb128 0x1
 404 000c F7000000 		.4byte	.LASF42
 405 0010 01       		.byte	0x1
 406 0011 65010000 		.4byte	.LASF43
 407 0015 BB000000 		.4byte	.LASF44
 408 0019 00000000 		.4byte	0x0
 409 001d 00000000 		.4byte	0x0
 410 0021 00000000 		.4byte	.Ldebug_ranges0+0x0
 411 0025 00000000 		.4byte	.Ldebug_line0
 412 0029 02       		.uleb128 0x2
 413 002a 04       		.byte	0x4
 414 002b 05       		.byte	0x5
 415 002c 696E7400 		.ascii	"int\000"
 416 0030 03       		.uleb128 0x3
 417 0031 04       		.byte	0x4
 418 0032 07       		.byte	0x7
 419 0033 34000000 		.4byte	.LASF0
 420 0037 03       		.uleb128 0x3
 421 0038 01       		.byte	0x1
 422 0039 06       		.byte	0x6
 423 003a EF010000 		.4byte	.LASF1
 424 003e 04       		.uleb128 0x4
 425 003f 36010000 		.4byte	.LASF5
 426 0043 02       		.byte	0x2
 427 0044 2A       		.byte	0x2a
 428 0045 49000000 		.4byte	0x49
 429 0049 03       		.uleb128 0x3
 430 004a 01       		.byte	0x1
 431 004b 08       		.byte	0x8
 432 004c 67000000 		.4byte	.LASF2
 433 0050 03       		.uleb128 0x3
 434 0051 02       		.byte	0x2
 435 0052 05       		.byte	0x5
 436 0053 A8010000 		.4byte	.LASF3
 437 0057 03       		.uleb128 0x3
 438 0058 02       		.byte	0x2
 439 0059 07       		.byte	0x7
 440 005a A8000000 		.4byte	.LASF4
 441 005e 04       		.uleb128 0x4
 442 005f 55010000 		.4byte	.LASF6
 443 0063 02       		.byte	0x2
 444 0064 4F       		.byte	0x4f
 445 0065 69000000 		.4byte	0x69
 446 0069 03       		.uleb128 0x3
 447 006a 04       		.byte	0x4
 448 006b 05       		.byte	0x5
 449 006c D9010000 		.4byte	.LASF7
 450 0070 04       		.uleb128 0x4
 451 0071 D0010000 		.4byte	.LASF8
 452 0075 02       		.byte	0x2
ARM GAS  C:\Users\z80\AppData\Local\Temp\ccI74pZV.s 			page 9


 453 0076 50       		.byte	0x50
 454 0077 7B000000 		.4byte	0x7b
 455 007b 03       		.uleb128 0x3
 456 007c 04       		.byte	0x4
 457 007d 07       		.byte	0x7
 458 007e 96000000 		.4byte	.LASF9
 459 0082 03       		.uleb128 0x3
 460 0083 08       		.byte	0x8
 461 0084 05       		.byte	0x5
 462 0085 00000000 		.4byte	.LASF10
 463 0089 03       		.uleb128 0x3
 464 008a 08       		.byte	0x8
 465 008b 07       		.byte	0x7
 466 008c FB010000 		.4byte	.LASF11
 467 0090 05       		.uleb128 0x5
 468 0091 70000000 		.4byte	0x70
 469 0095 06       		.uleb128 0x6
 470 0096 04       		.byte	0x4
 471 0097 07       		.byte	0x7
 472 0098 03       		.uleb128 0x3
 473 0099 01       		.byte	0x1
 474 009a 08       		.byte	0x8
 475 009b 31010000 		.4byte	.LASF12
 476 009f 05       		.uleb128 0x5
 477 00a0 5E000000 		.4byte	0x5e
 478 00a4 07       		.uleb128 0x7
 479 00a5 1C       		.byte	0x1c
 480 00a6 03       		.byte	0x3
 481 00a7 F803     		.2byte	0x3f8
 482 00a9 17010000 		.4byte	0x117
 483 00ad 08       		.uleb128 0x8
 484 00ae 43524C00 		.ascii	"CRL\000"
 485 00b2 03       		.byte	0x3
 486 00b3 FA03     		.2byte	0x3fa
 487 00b5 90000000 		.4byte	0x90
 488 00b9 02       		.byte	0x2
 489 00ba 23       		.byte	0x23
 490 00bb 00       		.uleb128 0x0
 491 00bc 08       		.uleb128 0x8
 492 00bd 43524800 		.ascii	"CRH\000"
 493 00c1 03       		.byte	0x3
 494 00c2 FB03     		.2byte	0x3fb
 495 00c4 90000000 		.4byte	0x90
 496 00c8 02       		.byte	0x2
 497 00c9 23       		.byte	0x23
 498 00ca 04       		.uleb128 0x4
 499 00cb 08       		.uleb128 0x8
 500 00cc 49445200 		.ascii	"IDR\000"
 501 00d0 03       		.byte	0x3
 502 00d1 FC03     		.2byte	0x3fc
 503 00d3 90000000 		.4byte	0x90
 504 00d7 02       		.byte	0x2
 505 00d8 23       		.byte	0x23
 506 00d9 08       		.uleb128 0x8
 507 00da 08       		.uleb128 0x8
 508 00db 4F445200 		.ascii	"ODR\000"
 509 00df 03       		.byte	0x3
ARM GAS  C:\Users\z80\AppData\Local\Temp\ccI74pZV.s 			page 10


 510 00e0 FD03     		.2byte	0x3fd
 511 00e2 90000000 		.4byte	0x90
 512 00e6 02       		.byte	0x2
 513 00e7 23       		.byte	0x23
 514 00e8 0C       		.uleb128 0xc
 515 00e9 09       		.uleb128 0x9
 516 00ea 28000000 		.4byte	.LASF13
 517 00ee 03       		.byte	0x3
 518 00ef FE03     		.2byte	0x3fe
 519 00f1 90000000 		.4byte	0x90
 520 00f5 02       		.byte	0x2
 521 00f6 23       		.byte	0x23
 522 00f7 10       		.uleb128 0x10
 523 00f8 08       		.uleb128 0x8
 524 00f9 42525200 		.ascii	"BRR\000"
 525 00fd 03       		.byte	0x3
 526 00fe FF03     		.2byte	0x3ff
 527 0100 90000000 		.4byte	0x90
 528 0104 02       		.byte	0x2
 529 0105 23       		.byte	0x23
 530 0106 14       		.uleb128 0x14
 531 0107 09       		.uleb128 0x9
 532 0108 12020000 		.4byte	.LASF14
 533 010c 03       		.byte	0x3
 534 010d 0004     		.2byte	0x400
 535 010f 90000000 		.4byte	0x90
 536 0113 02       		.byte	0x2
 537 0114 23       		.byte	0x23
 538 0115 18       		.uleb128 0x18
 539 0116 00       		.byte	0x0
 540 0117 0A       		.uleb128 0xa
 541 0118 E2010000 		.4byte	.LASF15
 542 011c 03       		.byte	0x3
 543 011d 0104     		.2byte	0x401
 544 011f A4000000 		.4byte	0xa4
 545 0123 07       		.uleb128 0x7
 546 0124 28       		.byte	0x28
 547 0125 03       		.byte	0x3
 548 0126 4304     		.2byte	0x443
 549 0128 C2010000 		.4byte	0x1c2
 550 012c 08       		.uleb128 0x8
 551 012d 435200   		.ascii	"CR\000"
 552 0130 03       		.byte	0x3
 553 0131 4504     		.2byte	0x445
 554 0133 90000000 		.4byte	0x90
 555 0137 02       		.byte	0x2
 556 0138 23       		.byte	0x23
 557 0139 00       		.uleb128 0x0
 558 013a 09       		.uleb128 0x9
 559 013b 43010000 		.4byte	.LASF16
 560 013f 03       		.byte	0x3
 561 0140 4604     		.2byte	0x446
 562 0142 90000000 		.4byte	0x90
 563 0146 02       		.byte	0x2
 564 0147 23       		.byte	0x23
 565 0148 04       		.uleb128 0x4
 566 0149 08       		.uleb128 0x8
ARM GAS  C:\Users\z80\AppData\Local\Temp\ccI74pZV.s 			page 11


 567 014a 43495200 		.ascii	"CIR\000"
 568 014e 03       		.byte	0x3
 569 014f 4704     		.2byte	0x447
 570 0151 90000000 		.4byte	0x90
 571 0155 02       		.byte	0x2
 572 0156 23       		.byte	0x23
 573 0157 08       		.uleb128 0x8
 574 0158 09       		.uleb128 0x9
 575 0159 0B010000 		.4byte	.LASF17
 576 015d 03       		.byte	0x3
 577 015e 4804     		.2byte	0x448
 578 0160 90000000 		.4byte	0x90
 579 0164 02       		.byte	0x2
 580 0165 23       		.byte	0x23
 581 0166 0C       		.uleb128 0xc
 582 0167 09       		.uleb128 0x9
 583 0168 57000000 		.4byte	.LASF18
 584 016c 03       		.byte	0x3
 585 016d 4904     		.2byte	0x449
 586 016f 90000000 		.4byte	0x90
 587 0173 02       		.byte	0x2
 588 0174 23       		.byte	0x23
 589 0175 10       		.uleb128 0x10
 590 0176 09       		.uleb128 0x9
 591 0177 2D000000 		.4byte	.LASF19
 592 017b 03       		.byte	0x3
 593 017c 4A04     		.2byte	0x44a
 594 017e 90000000 		.4byte	0x90
 595 0182 02       		.byte	0x2
 596 0183 23       		.byte	0x23
 597 0184 14       		.uleb128 0x14
 598 0185 09       		.uleb128 0x9
 599 0186 5D010000 		.4byte	.LASF20
 600 018a 03       		.byte	0x3
 601 018b 4B04     		.2byte	0x44b
 602 018d 90000000 		.4byte	0x90
 603 0191 02       		.byte	0x2
 604 0192 23       		.byte	0x23
 605 0193 18       		.uleb128 0x18
 606 0194 09       		.uleb128 0x9
 607 0195 03010000 		.4byte	.LASF21
 608 0199 03       		.byte	0x3
 609 019a 4C04     		.2byte	0x44c
 610 019c 90000000 		.4byte	0x90
 611 01a0 02       		.byte	0x2
 612 01a1 23       		.byte	0x23
 613 01a2 1C       		.uleb128 0x1c
 614 01a3 09       		.uleb128 0x9
 615 01a4 0E000000 		.4byte	.LASF22
 616 01a8 03       		.byte	0x3
 617 01a9 4D04     		.2byte	0x44d
 618 01ab 90000000 		.4byte	0x90
 619 01af 02       		.byte	0x2
 620 01b0 23       		.byte	0x23
 621 01b1 20       		.uleb128 0x20
 622 01b2 08       		.uleb128 0x8
 623 01b3 43535200 		.ascii	"CSR\000"
ARM GAS  C:\Users\z80\AppData\Local\Temp\ccI74pZV.s 			page 12


 624 01b7 03       		.byte	0x3
 625 01b8 4E04     		.2byte	0x44e
 626 01ba 90000000 		.4byte	0x90
 627 01be 02       		.byte	0x2
 628 01bf 23       		.byte	0x23
 629 01c0 24       		.uleb128 0x24
 630 01c1 00       		.byte	0x0
 631 01c2 0A       		.uleb128 0xa
 632 01c3 C4010000 		.4byte	.LASF23
 633 01c7 03       		.byte	0x3
 634 01c8 5904     		.2byte	0x459
 635 01ca 23010000 		.4byte	0x123
 636 01ce 0B       		.uleb128 0xb
 637 01cf 0C       		.byte	0xc
 638 01d0 04       		.byte	0x4
 639 01d1 43       		.byte	0x43
 640 01d2 01020000 		.4byte	0x201
 641 01d6 0C       		.uleb128 0xc
 642 01d7 6F647200 		.ascii	"odr\000"
 643 01db 04       		.byte	0x4
 644 01dc 45       		.byte	0x45
 645 01dd 70000000 		.4byte	0x70
 646 01e1 02       		.byte	0x2
 647 01e2 23       		.byte	0x23
 648 01e3 00       		.uleb128 0x0
 649 01e4 0C       		.uleb128 0xc
 650 01e5 63726C00 		.ascii	"crl\000"
 651 01e9 04       		.byte	0x4
 652 01ea 47       		.byte	0x47
 653 01eb 70000000 		.4byte	0x70
 654 01ef 02       		.byte	0x2
 655 01f0 23       		.byte	0x23
 656 01f1 04       		.uleb128 0x4
 657 01f2 0C       		.uleb128 0xc
 658 01f3 63726800 		.ascii	"crh\000"
 659 01f7 04       		.byte	0x4
 660 01f8 49       		.byte	0x49
 661 01f9 70000000 		.4byte	0x70
 662 01fd 02       		.byte	0x2
 663 01fe 23       		.byte	0x23
 664 01ff 08       		.uleb128 0x8
 665 0200 00       		.byte	0x0
 666 0201 04       		.uleb128 0x4
 667 0202 75000000 		.4byte	.LASF24
 668 0206 04       		.byte	0x4
 669 0207 4A       		.byte	0x4a
 670 0208 CE010000 		.4byte	0x1ce
 671 020c 0B       		.uleb128 0xb
 672 020d 3C       		.byte	0x3c
 673 020e 04       		.byte	0x4
 674 020f 53       		.byte	0x53
 675 0210 5B020000 		.4byte	0x25b
 676 0214 0D       		.uleb128 0xd
 677 0215 88000000 		.4byte	.LASF25
 678 0219 04       		.byte	0x4
 679 021a 55       		.byte	0x55
 680 021b 01020000 		.4byte	0x201
ARM GAS  C:\Users\z80\AppData\Local\Temp\ccI74pZV.s 			page 13


 681 021f 02       		.byte	0x2
 682 0220 23       		.byte	0x23
 683 0221 00       		.uleb128 0x0
 684 0222 0D       		.uleb128 0xd
 685 0223 2A010000 		.4byte	.LASF26
 686 0227 04       		.byte	0x4
 687 0228 57       		.byte	0x57
 688 0229 01020000 		.4byte	0x201
 689 022d 02       		.byte	0x2
 690 022e 23       		.byte	0x23
 691 022f 0C       		.uleb128 0xc
 692 0230 0D       		.uleb128 0xd
 693 0231 B2010000 		.4byte	.LASF27
 694 0235 04       		.byte	0x4
 695 0236 59       		.byte	0x59
 696 0237 01020000 		.4byte	0x201
 697 023b 02       		.byte	0x2
 698 023c 23       		.byte	0x23
 699 023d 18       		.uleb128 0x18
 700 023e 0D       		.uleb128 0xd
 701 023f 13000000 		.4byte	.LASF28
 702 0243 04       		.byte	0x4
 703 0244 5B       		.byte	0x5b
 704 0245 01020000 		.4byte	0x201
 705 0249 02       		.byte	0x2
 706 024a 23       		.byte	0x23
 707 024b 24       		.uleb128 0x24
 708 024c 0D       		.uleb128 0xd
 709 024d 60000000 		.4byte	.LASF29
 710 0251 04       		.byte	0x4
 711 0252 5E       		.byte	0x5e
 712 0253 01020000 		.4byte	0x201
 713 0257 02       		.byte	0x2
 714 0258 23       		.byte	0x23
 715 0259 30       		.uleb128 0x30
 716 025a 00       		.byte	0x0
 717 025b 04       		.uleb128 0x4
 718 025c ED000000 		.4byte	.LASF30
 719 0260 04       		.byte	0x4
 720 0261 68       		.byte	0x68
 721 0262 0C020000 		.4byte	0x20c
 722 0266 04       		.uleb128 0x4
 723 0267 41000000 		.4byte	.LASF31
 724 026b 04       		.byte	0x4
 725 026c 78       		.byte	0x78
 726 026d 70000000 		.4byte	0x70
 727 0271 04       		.uleb128 0x4
 728 0272 4E000000 		.4byte	.LASF32
 729 0276 04       		.byte	0x4
 730 0277 7D       		.byte	0x7d
 731 0278 70000000 		.4byte	0x70
 732 027c 04       		.uleb128 0x4
 733 027d B9010000 		.4byte	.LASF33
 734 0281 04       		.byte	0x4
 735 0282 85       		.byte	0x85
 736 0283 87020000 		.4byte	0x287
 737 0287 0E       		.uleb128 0xe
ARM GAS  C:\Users\z80\AppData\Local\Temp\ccI74pZV.s 			page 14


 738 0288 04       		.byte	0x4
 739 0289 17010000 		.4byte	0x117
 740 028d 0F       		.uleb128 0xf
 741 028e 01       		.byte	0x1
 742 028f 1A000000 		.4byte	.LASF34
 743 0293 01       		.byte	0x1
 744 0294 54       		.byte	0x54
 745 0295 01       		.byte	0x1
 746 0296 00000000 		.4byte	.LFB62
 747 029a 82000000 		.4byte	.LFE62
 748 029e 02       		.byte	0x2
 749 029f 7D       		.byte	0x7d
 750 02a0 00       		.sleb128 0
 751 02a1 B3020000 		.4byte	0x2b3
 752 02a5 10       		.uleb128 0x10
 753 02a6 E6000000 		.4byte	.LASF36
 754 02aa 01       		.byte	0x1
 755 02ab 54       		.byte	0x54
 756 02ac B3020000 		.4byte	0x2b3
 757 02b0 01       		.byte	0x1
 758 02b1 50       		.byte	0x50
 759 02b2 00       		.byte	0x0
 760 02b3 0E       		.uleb128 0xe
 761 02b4 04       		.byte	0x4
 762 02b5 B9020000 		.4byte	0x2b9
 763 02b9 11       		.uleb128 0x11
 764 02ba 5B020000 		.4byte	0x25b
 765 02be 12       		.uleb128 0x12
 766 02bf 01       		.byte	0x1
 767 02c0 14010000 		.4byte	.LASF35
 768 02c4 01       		.byte	0x1
 769 02c5 8A       		.byte	0x8a
 770 02c6 01       		.byte	0x1
 771 02c7 00000000 		.4byte	.LFB63
 772 02cb 70000000 		.4byte	.LFE63
 773 02cf 00000000 		.4byte	.LLST0
 774 02d3 68030000 		.4byte	0x368
 775 02d7 10       		.uleb128 0x10
 776 02d8 A3010000 		.4byte	.LASF37
 777 02dc 01       		.byte	0x1
 778 02dd 8A       		.byte	0x8a
 779 02de 7C020000 		.4byte	0x27c
 780 02e2 01       		.byte	0x1
 781 02e3 50       		.byte	0x50
 782 02e4 13       		.uleb128 0x13
 783 02e5 9E010000 		.4byte	.LASF38
 784 02e9 01       		.byte	0x1
 785 02ea 8B       		.byte	0x8b
 786 02eb 66020000 		.4byte	0x266
 787 02ef 20000000 		.4byte	.LLST1
 788 02f3 13       		.uleb128 0x13
 789 02f4 3E010000 		.4byte	.LASF39
 790 02f8 01       		.byte	0x1
 791 02f9 8C       		.byte	0x8c
 792 02fa 71020000 		.4byte	0x271
 793 02fe 51000000 		.4byte	.LLST2
 794 0302 14       		.uleb128 0x14
ARM GAS  C:\Users\z80\AppData\Local\Temp\ccI74pZV.s 			page 15


 795 0303 8F000000 		.4byte	.LASF40
 796 0307 01       		.byte	0x1
 797 0308 8D       		.byte	0x8d
 798 0309 78030000 		.4byte	0x378
 799 030d 05       		.byte	0x5
 800 030e 03       		.byte	0x3
 801 030f 00000000 		.4byte	cfgtab.3307
 802 0313 15       		.uleb128 0x15
 803 0314 6D6800   		.ascii	"mh\000"
 804 0317 01       		.byte	0x1
 805 0318 A1       		.byte	0xa1
 806 0319 70000000 		.4byte	0x70
 807 031d 64000000 		.4byte	.LLST3
 808 0321 15       		.uleb128 0x15
 809 0322 6D6C00   		.ascii	"ml\000"
 810 0325 01       		.byte	0x1
 811 0326 A1       		.byte	0xa1
 812 0327 70000000 		.4byte	0x70
 813 032b 99000000 		.4byte	.LLST4
 814 032f 15       		.uleb128 0x15
 815 0330 63726800 		.ascii	"crh\000"
 816 0334 01       		.byte	0x1
 817 0335 A1       		.byte	0xa1
 818 0336 70000000 		.4byte	0x70
 819 033a CE000000 		.4byte	.LLST5
 820 033e 15       		.uleb128 0x15
 821 033f 63726C00 		.ascii	"crl\000"
 822 0343 01       		.byte	0x1
 823 0344 A1       		.byte	0xa1
 824 0345 70000000 		.4byte	0x70
 825 0349 03010000 		.4byte	.LLST6
 826 034d 16       		.uleb128 0x16
 827 034e 63666700 		.ascii	"cfg\000"
 828 0352 01       		.byte	0x1
 829 0353 A1       		.byte	0xa1
 830 0354 70000000 		.4byte	0x70
 831 0358 01       		.byte	0x1
 832 0359 56       		.byte	0x56
 833 035a 15       		.uleb128 0x15
 834 035b 6900     		.ascii	"i\000"
 835 035d 01       		.byte	0x1
 836 035e A2       		.byte	0xa2
 837 035f 30000000 		.4byte	0x30
 838 0363 38010000 		.4byte	.LLST7
 839 0367 00       		.byte	0x0
 840 0368 17       		.uleb128 0x17
 841 0369 3E000000 		.4byte	0x3e
 842 036d 78030000 		.4byte	0x378
 843 0371 18       		.uleb128 0x18
 844 0372 95000000 		.4byte	0x95
 845 0376 11       		.byte	0x11
 846 0377 00       		.byte	0x0
 847 0378 11       		.uleb128 0x11
 848 0379 68030000 		.4byte	0x368
 849 037d 19       		.uleb128 0x19
 850 037e 48010000 		.4byte	.LASF41
 851 0382 05       		.byte	0x5
ARM GAS  C:\Users\z80\AppData\Local\Temp\ccI74pZV.s 			page 16


 852 0383 9404     		.2byte	0x494
 853 0385 9F000000 		.4byte	0x9f
 854 0389 01       		.byte	0x1
 855 038a 01       		.byte	0x1
 856 038b 19       		.uleb128 0x19
 857 038c 48010000 		.4byte	.LASF41
 858 0390 05       		.byte	0x5
 859 0391 9404     		.2byte	0x494
 860 0393 9F000000 		.4byte	0x9f
 861 0397 01       		.byte	0x1
 862 0398 01       		.byte	0x1
 863 0399 00       		.byte	0x0
 864              		.section	.debug_abbrev
 865 0000 01       		.uleb128 0x1
 866 0001 11       		.uleb128 0x11
 867 0002 01       		.byte	0x1
 868 0003 25       		.uleb128 0x25
 869 0004 0E       		.uleb128 0xe
 870 0005 13       		.uleb128 0x13
 871 0006 0B       		.uleb128 0xb
 872 0007 03       		.uleb128 0x3
 873 0008 0E       		.uleb128 0xe
 874 0009 1B       		.uleb128 0x1b
 875 000a 0E       		.uleb128 0xe
 876 000b 11       		.uleb128 0x11
 877 000c 01       		.uleb128 0x1
 878 000d 52       		.uleb128 0x52
 879 000e 01       		.uleb128 0x1
 880 000f 55       		.uleb128 0x55
 881 0010 06       		.uleb128 0x6
 882 0011 10       		.uleb128 0x10
 883 0012 06       		.uleb128 0x6
 884 0013 00       		.byte	0x0
 885 0014 00       		.byte	0x0
 886 0015 02       		.uleb128 0x2
 887 0016 24       		.uleb128 0x24
 888 0017 00       		.byte	0x0
 889 0018 0B       		.uleb128 0xb
 890 0019 0B       		.uleb128 0xb
 891 001a 3E       		.uleb128 0x3e
 892 001b 0B       		.uleb128 0xb
 893 001c 03       		.uleb128 0x3
 894 001d 08       		.uleb128 0x8
 895 001e 00       		.byte	0x0
 896 001f 00       		.byte	0x0
 897 0020 03       		.uleb128 0x3
 898 0021 24       		.uleb128 0x24
 899 0022 00       		.byte	0x0
 900 0023 0B       		.uleb128 0xb
 901 0024 0B       		.uleb128 0xb
 902 0025 3E       		.uleb128 0x3e
 903 0026 0B       		.uleb128 0xb
 904 0027 03       		.uleb128 0x3
 905 0028 0E       		.uleb128 0xe
 906 0029 00       		.byte	0x0
 907 002a 00       		.byte	0x0
 908 002b 04       		.uleb128 0x4
ARM GAS  C:\Users\z80\AppData\Local\Temp\ccI74pZV.s 			page 17


 909 002c 16       		.uleb128 0x16
 910 002d 00       		.byte	0x0
 911 002e 03       		.uleb128 0x3
 912 002f 0E       		.uleb128 0xe
 913 0030 3A       		.uleb128 0x3a
 914 0031 0B       		.uleb128 0xb
 915 0032 3B       		.uleb128 0x3b
 916 0033 0B       		.uleb128 0xb
 917 0034 49       		.uleb128 0x49
 918 0035 13       		.uleb128 0x13
 919 0036 00       		.byte	0x0
 920 0037 00       		.byte	0x0
 921 0038 05       		.uleb128 0x5
 922 0039 35       		.uleb128 0x35
 923 003a 00       		.byte	0x0
 924 003b 49       		.uleb128 0x49
 925 003c 13       		.uleb128 0x13
 926 003d 00       		.byte	0x0
 927 003e 00       		.byte	0x0
 928 003f 06       		.uleb128 0x6
 929 0040 24       		.uleb128 0x24
 930 0041 00       		.byte	0x0
 931 0042 0B       		.uleb128 0xb
 932 0043 0B       		.uleb128 0xb
 933 0044 3E       		.uleb128 0x3e
 934 0045 0B       		.uleb128 0xb
 935 0046 00       		.byte	0x0
 936 0047 00       		.byte	0x0
 937 0048 07       		.uleb128 0x7
 938 0049 13       		.uleb128 0x13
 939 004a 01       		.byte	0x1
 940 004b 0B       		.uleb128 0xb
 941 004c 0B       		.uleb128 0xb
 942 004d 3A       		.uleb128 0x3a
 943 004e 0B       		.uleb128 0xb
 944 004f 3B       		.uleb128 0x3b
 945 0050 05       		.uleb128 0x5
 946 0051 01       		.uleb128 0x1
 947 0052 13       		.uleb128 0x13
 948 0053 00       		.byte	0x0
 949 0054 00       		.byte	0x0
 950 0055 08       		.uleb128 0x8
 951 0056 0D       		.uleb128 0xd
 952 0057 00       		.byte	0x0
 953 0058 03       		.uleb128 0x3
 954 0059 08       		.uleb128 0x8
 955 005a 3A       		.uleb128 0x3a
 956 005b 0B       		.uleb128 0xb
 957 005c 3B       		.uleb128 0x3b
 958 005d 05       		.uleb128 0x5
 959 005e 49       		.uleb128 0x49
 960 005f 13       		.uleb128 0x13
 961 0060 38       		.uleb128 0x38
 962 0061 0A       		.uleb128 0xa
 963 0062 00       		.byte	0x0
 964 0063 00       		.byte	0x0
 965 0064 09       		.uleb128 0x9
ARM GAS  C:\Users\z80\AppData\Local\Temp\ccI74pZV.s 			page 18


 966 0065 0D       		.uleb128 0xd
 967 0066 00       		.byte	0x0
 968 0067 03       		.uleb128 0x3
 969 0068 0E       		.uleb128 0xe
 970 0069 3A       		.uleb128 0x3a
 971 006a 0B       		.uleb128 0xb
 972 006b 3B       		.uleb128 0x3b
 973 006c 05       		.uleb128 0x5
 974 006d 49       		.uleb128 0x49
 975 006e 13       		.uleb128 0x13
 976 006f 38       		.uleb128 0x38
 977 0070 0A       		.uleb128 0xa
 978 0071 00       		.byte	0x0
 979 0072 00       		.byte	0x0
 980 0073 0A       		.uleb128 0xa
 981 0074 16       		.uleb128 0x16
 982 0075 00       		.byte	0x0
 983 0076 03       		.uleb128 0x3
 984 0077 0E       		.uleb128 0xe
 985 0078 3A       		.uleb128 0x3a
 986 0079 0B       		.uleb128 0xb
 987 007a 3B       		.uleb128 0x3b
 988 007b 05       		.uleb128 0x5
 989 007c 49       		.uleb128 0x49
 990 007d 13       		.uleb128 0x13
 991 007e 00       		.byte	0x0
 992 007f 00       		.byte	0x0
 993 0080 0B       		.uleb128 0xb
 994 0081 13       		.uleb128 0x13
 995 0082 01       		.byte	0x1
 996 0083 0B       		.uleb128 0xb
 997 0084 0B       		.uleb128 0xb
 998 0085 3A       		.uleb128 0x3a
 999 0086 0B       		.uleb128 0xb
 1000 0087 3B       		.uleb128 0x3b
 1001 0088 0B       		.uleb128 0xb
 1002 0089 01       		.uleb128 0x1
 1003 008a 13       		.uleb128 0x13
 1004 008b 00       		.byte	0x0
 1005 008c 00       		.byte	0x0
 1006 008d 0C       		.uleb128 0xc
 1007 008e 0D       		.uleb128 0xd
 1008 008f 00       		.byte	0x0
 1009 0090 03       		.uleb128 0x3
 1010 0091 08       		.uleb128 0x8
 1011 0092 3A       		.uleb128 0x3a
 1012 0093 0B       		.uleb128 0xb
 1013 0094 3B       		.uleb128 0x3b
 1014 0095 0B       		.uleb128 0xb
 1015 0096 49       		.uleb128 0x49
 1016 0097 13       		.uleb128 0x13
 1017 0098 38       		.uleb128 0x38
 1018 0099 0A       		.uleb128 0xa
 1019 009a 00       		.byte	0x0
 1020 009b 00       		.byte	0x0
 1021 009c 0D       		.uleb128 0xd
 1022 009d 0D       		.uleb128 0xd
ARM GAS  C:\Users\z80\AppData\Local\Temp\ccI74pZV.s 			page 19


 1023 009e 00       		.byte	0x0
 1024 009f 03       		.uleb128 0x3
 1025 00a0 0E       		.uleb128 0xe
 1026 00a1 3A       		.uleb128 0x3a
 1027 00a2 0B       		.uleb128 0xb
 1028 00a3 3B       		.uleb128 0x3b
 1029 00a4 0B       		.uleb128 0xb
 1030 00a5 49       		.uleb128 0x49
 1031 00a6 13       		.uleb128 0x13
 1032 00a7 38       		.uleb128 0x38
 1033 00a8 0A       		.uleb128 0xa
 1034 00a9 00       		.byte	0x0
 1035 00aa 00       		.byte	0x0
 1036 00ab 0E       		.uleb128 0xe
 1037 00ac 0F       		.uleb128 0xf
 1038 00ad 00       		.byte	0x0
 1039 00ae 0B       		.uleb128 0xb
 1040 00af 0B       		.uleb128 0xb
 1041 00b0 49       		.uleb128 0x49
 1042 00b1 13       		.uleb128 0x13
 1043 00b2 00       		.byte	0x0
 1044 00b3 00       		.byte	0x0
 1045 00b4 0F       		.uleb128 0xf
 1046 00b5 2E       		.uleb128 0x2e
 1047 00b6 01       		.byte	0x1
 1048 00b7 3F       		.uleb128 0x3f
 1049 00b8 0C       		.uleb128 0xc
 1050 00b9 03       		.uleb128 0x3
 1051 00ba 0E       		.uleb128 0xe
 1052 00bb 3A       		.uleb128 0x3a
 1053 00bc 0B       		.uleb128 0xb
 1054 00bd 3B       		.uleb128 0x3b
 1055 00be 0B       		.uleb128 0xb
 1056 00bf 27       		.uleb128 0x27
 1057 00c0 0C       		.uleb128 0xc
 1058 00c1 11       		.uleb128 0x11
 1059 00c2 01       		.uleb128 0x1
 1060 00c3 12       		.uleb128 0x12
 1061 00c4 01       		.uleb128 0x1
 1062 00c5 40       		.uleb128 0x40
 1063 00c6 0A       		.uleb128 0xa
 1064 00c7 01       		.uleb128 0x1
 1065 00c8 13       		.uleb128 0x13
 1066 00c9 00       		.byte	0x0
 1067 00ca 00       		.byte	0x0
 1068 00cb 10       		.uleb128 0x10
 1069 00cc 05       		.uleb128 0x5
 1070 00cd 00       		.byte	0x0
 1071 00ce 03       		.uleb128 0x3
 1072 00cf 0E       		.uleb128 0xe
 1073 00d0 3A       		.uleb128 0x3a
 1074 00d1 0B       		.uleb128 0xb
 1075 00d2 3B       		.uleb128 0x3b
 1076 00d3 0B       		.uleb128 0xb
 1077 00d4 49       		.uleb128 0x49
 1078 00d5 13       		.uleb128 0x13
 1079 00d6 02       		.uleb128 0x2
ARM GAS  C:\Users\z80\AppData\Local\Temp\ccI74pZV.s 			page 20


 1080 00d7 0A       		.uleb128 0xa
 1081 00d8 00       		.byte	0x0
 1082 00d9 00       		.byte	0x0
 1083 00da 11       		.uleb128 0x11
 1084 00db 26       		.uleb128 0x26
 1085 00dc 00       		.byte	0x0
 1086 00dd 49       		.uleb128 0x49
 1087 00de 13       		.uleb128 0x13
 1088 00df 00       		.byte	0x0
 1089 00e0 00       		.byte	0x0
 1090 00e1 12       		.uleb128 0x12
 1091 00e2 2E       		.uleb128 0x2e
 1092 00e3 01       		.byte	0x1
 1093 00e4 3F       		.uleb128 0x3f
 1094 00e5 0C       		.uleb128 0xc
 1095 00e6 03       		.uleb128 0x3
 1096 00e7 0E       		.uleb128 0xe
 1097 00e8 3A       		.uleb128 0x3a
 1098 00e9 0B       		.uleb128 0xb
 1099 00ea 3B       		.uleb128 0x3b
 1100 00eb 0B       		.uleb128 0xb
 1101 00ec 27       		.uleb128 0x27
 1102 00ed 0C       		.uleb128 0xc
 1103 00ee 11       		.uleb128 0x11
 1104 00ef 01       		.uleb128 0x1
 1105 00f0 12       		.uleb128 0x12
 1106 00f1 01       		.uleb128 0x1
 1107 00f2 40       		.uleb128 0x40
 1108 00f3 06       		.uleb128 0x6
 1109 00f4 01       		.uleb128 0x1
 1110 00f5 13       		.uleb128 0x13
 1111 00f6 00       		.byte	0x0
 1112 00f7 00       		.byte	0x0
 1113 00f8 13       		.uleb128 0x13
 1114 00f9 05       		.uleb128 0x5
 1115 00fa 00       		.byte	0x0
 1116 00fb 03       		.uleb128 0x3
 1117 00fc 0E       		.uleb128 0xe
 1118 00fd 3A       		.uleb128 0x3a
 1119 00fe 0B       		.uleb128 0xb
 1120 00ff 3B       		.uleb128 0x3b
 1121 0100 0B       		.uleb128 0xb
 1122 0101 49       		.uleb128 0x49
 1123 0102 13       		.uleb128 0x13
 1124 0103 02       		.uleb128 0x2
 1125 0104 06       		.uleb128 0x6
 1126 0105 00       		.byte	0x0
 1127 0106 00       		.byte	0x0
 1128 0107 14       		.uleb128 0x14
 1129 0108 34       		.uleb128 0x34
 1130 0109 00       		.byte	0x0
 1131 010a 03       		.uleb128 0x3
 1132 010b 0E       		.uleb128 0xe
 1133 010c 3A       		.uleb128 0x3a
 1134 010d 0B       		.uleb128 0xb
 1135 010e 3B       		.uleb128 0x3b
 1136 010f 0B       		.uleb128 0xb
ARM GAS  C:\Users\z80\AppData\Local\Temp\ccI74pZV.s 			page 21


 1137 0110 49       		.uleb128 0x49
 1138 0111 13       		.uleb128 0x13
 1139 0112 02       		.uleb128 0x2
 1140 0113 0A       		.uleb128 0xa
 1141 0114 00       		.byte	0x0
 1142 0115 00       		.byte	0x0
 1143 0116 15       		.uleb128 0x15
 1144 0117 34       		.uleb128 0x34
 1145 0118 00       		.byte	0x0
 1146 0119 03       		.uleb128 0x3
 1147 011a 08       		.uleb128 0x8
 1148 011b 3A       		.uleb128 0x3a
 1149 011c 0B       		.uleb128 0xb
 1150 011d 3B       		.uleb128 0x3b
 1151 011e 0B       		.uleb128 0xb
 1152 011f 49       		.uleb128 0x49
 1153 0120 13       		.uleb128 0x13
 1154 0121 02       		.uleb128 0x2
 1155 0122 06       		.uleb128 0x6
 1156 0123 00       		.byte	0x0
 1157 0124 00       		.byte	0x0
 1158 0125 16       		.uleb128 0x16
 1159 0126 34       		.uleb128 0x34
 1160 0127 00       		.byte	0x0
 1161 0128 03       		.uleb128 0x3
 1162 0129 08       		.uleb128 0x8
 1163 012a 3A       		.uleb128 0x3a
 1164 012b 0B       		.uleb128 0xb
 1165 012c 3B       		.uleb128 0x3b
 1166 012d 0B       		.uleb128 0xb
 1167 012e 49       		.uleb128 0x49
 1168 012f 13       		.uleb128 0x13
 1169 0130 02       		.uleb128 0x2
 1170 0131 0A       		.uleb128 0xa
 1171 0132 00       		.byte	0x0
 1172 0133 00       		.byte	0x0
 1173 0134 17       		.uleb128 0x17
 1174 0135 01       		.uleb128 0x1
 1175 0136 01       		.byte	0x1
 1176 0137 49       		.uleb128 0x49
 1177 0138 13       		.uleb128 0x13
 1178 0139 01       		.uleb128 0x1
 1179 013a 13       		.uleb128 0x13
 1180 013b 00       		.byte	0x0
 1181 013c 00       		.byte	0x0
 1182 013d 18       		.uleb128 0x18
 1183 013e 21       		.uleb128 0x21
 1184 013f 00       		.byte	0x0
 1185 0140 49       		.uleb128 0x49
 1186 0141 13       		.uleb128 0x13
 1187 0142 2F       		.uleb128 0x2f
 1188 0143 0B       		.uleb128 0xb
 1189 0144 00       		.byte	0x0
 1190 0145 00       		.byte	0x0
 1191 0146 19       		.uleb128 0x19
 1192 0147 34       		.uleb128 0x34
 1193 0148 00       		.byte	0x0
ARM GAS  C:\Users\z80\AppData\Local\Temp\ccI74pZV.s 			page 22


 1194 0149 03       		.uleb128 0x3
 1195 014a 0E       		.uleb128 0xe
 1196 014b 3A       		.uleb128 0x3a
 1197 014c 0B       		.uleb128 0xb
 1198 014d 3B       		.uleb128 0x3b
 1199 014e 05       		.uleb128 0x5
 1200 014f 49       		.uleb128 0x49
 1201 0150 13       		.uleb128 0x13
 1202 0151 3F       		.uleb128 0x3f
 1203 0152 0C       		.uleb128 0xc
 1204 0153 3C       		.uleb128 0x3c
 1205 0154 0C       		.uleb128 0xc
 1206 0155 00       		.byte	0x0
 1207 0156 00       		.byte	0x0
 1208 0157 00       		.byte	0x0
 1209              		.section	.debug_pubnames,"",%progbits
 1210 0000 3A000000 		.4byte	0x3a
 1211 0004 0200     		.2byte	0x2
 1212 0006 00000000 		.4byte	.Ldebug_info0
 1213 000a 9A030000 		.4byte	0x39a
 1214 000e 8D020000 		.4byte	0x28d
 1215 0012 5F70616C 		.ascii	"_pal_lld_init\000"
 1215      5F6C6C64 
 1215      5F696E69 
 1215      7400
 1216 0020 BE020000 		.4byte	0x2be
 1217 0024 5F70616C 		.ascii	"_pal_lld_setgroupmode\000"
 1217      5F6C6C64 
 1217      5F736574 
 1217      67726F75 
 1217      706D6F64 
 1218 003a 00000000 		.4byte	0x0
 1219              		.section	.debug_pubtypes,"",%progbits
 1220 0000 A6000000 		.4byte	0xa6
 1221 0004 0200     		.2byte	0x2
 1222 0006 00000000 		.4byte	.Ldebug_info0
 1223 000a 9A030000 		.4byte	0x39a
 1224 000e 3E000000 		.4byte	0x3e
 1225 0012 75696E74 		.ascii	"uint8_t\000"
 1225      385F7400 
 1226 001a 5E000000 		.4byte	0x5e
 1227 001e 696E7433 		.ascii	"int32_t\000"
 1227      325F7400 
 1228 0026 70000000 		.4byte	0x70
 1229 002a 75696E74 		.ascii	"uint32_t\000"
 1229      33325F74 
 1229      00
 1230 0033 17010000 		.4byte	0x117
 1231 0037 4750494F 		.ascii	"GPIO_TypeDef\000"
 1231      5F547970 
 1231      65446566 
 1231      00
 1232 0044 C2010000 		.4byte	0x1c2
 1233 0048 5243435F 		.ascii	"RCC_TypeDef\000"
 1233      54797065 
 1233      44656600 
 1234 0054 01020000 		.4byte	0x201
ARM GAS  C:\Users\z80\AppData\Local\Temp\ccI74pZV.s 			page 23


 1235 0058 73746D33 		.ascii	"stm32_gpio_setup_t\000"
 1235      325F6770 
 1235      696F5F73 
 1235      65747570 
 1235      5F7400
 1236 006b 5B020000 		.4byte	0x25b
 1237 006f 50414C43 		.ascii	"PALConfig\000"
 1237      6F6E6669 
 1237      6700
 1238 0079 66020000 		.4byte	0x266
 1239 007d 696F706F 		.ascii	"ioportmask_t\000"
 1239      72746D61 
 1239      736B5F74 
 1239      00
 1240 008a 71020000 		.4byte	0x271
 1241 008e 696F6D6F 		.ascii	"iomode_t\000"
 1241      64655F74 
 1241      00
 1242 0097 7C020000 		.4byte	0x27c
 1243 009b 696F706F 		.ascii	"ioportid_t\000"
 1243      72746964 
 1243      5F7400
 1244 00a6 00000000 		.4byte	0x0
 1245              		.section	.debug_aranges,"",%progbits
 1246 0000 24000000 		.4byte	0x24
 1247 0004 0200     		.2byte	0x2
 1248 0006 00000000 		.4byte	.Ldebug_info0
 1249 000a 04       		.byte	0x4
 1250 000b 00       		.byte	0x0
 1251 000c 0000     		.2byte	0x0
 1252 000e 0000     		.2byte	0x0
 1253 0010 00000000 		.4byte	.LFB62
 1254 0014 82000000 		.4byte	.LFE62-.LFB62
 1255 0018 00000000 		.4byte	.LFB63
 1256 001c 70000000 		.4byte	.LFE63-.LFB63
 1257 0020 00000000 		.4byte	0x0
 1258 0024 00000000 		.4byte	0x0
 1259              		.section	.debug_ranges,"",%progbits
 1260              	.Ldebug_ranges0:
 1261 0000 00000000 		.4byte	.LFB62
 1262 0004 82000000 		.4byte	.LFE62
 1263 0008 00000000 		.4byte	.LFB63
 1264 000c 70000000 		.4byte	.LFE63
 1265 0010 00000000 		.4byte	0x0
 1266 0014 00000000 		.4byte	0x0
 1267              		.section	.debug_str,"MS",%progbits,1
 1268              	.LASF10:
 1269 0000 6C6F6E67 		.ascii	"long long int\000"
 1269      206C6F6E 
 1269      6720696E 
 1269      7400
 1270              	.LASF22:
 1271 000e 42444352 		.ascii	"BDCR\000"
 1271      00
 1272              	.LASF28:
 1273 0013 50444461 		.ascii	"PDData\000"
 1273      746100
ARM GAS  C:\Users\z80\AppData\Local\Temp\ccI74pZV.s 			page 24


 1274              	.LASF34:
 1275 001a 5F70616C 		.ascii	"_pal_lld_init\000"
 1275      5F6C6C64 
 1275      5F696E69 
 1275      7400
 1276              	.LASF13:
 1277 0028 42535252 		.ascii	"BSRR\000"
 1277      00
 1278              	.LASF19:
 1279 002d 41484245 		.ascii	"AHBENR\000"
 1279      4E5200
 1280              	.LASF0:
 1281 0034 756E7369 		.ascii	"unsigned int\000"
 1281      676E6564 
 1281      20696E74 
 1281      00
 1282              	.LASF31:
 1283 0041 696F706F 		.ascii	"ioportmask_t\000"
 1283      72746D61 
 1283      736B5F74 
 1283      00
 1284              	.LASF32:
 1285 004e 696F6D6F 		.ascii	"iomode_t\000"
 1285      64655F74 
 1285      00
 1286              	.LASF18:
 1287 0057 41504231 		.ascii	"APB1RSTR\000"
 1287      52535452 
 1287      00
 1288              	.LASF29:
 1289 0060 50454461 		.ascii	"PEData\000"
 1289      746100
 1290              	.LASF2:
 1291 0067 756E7369 		.ascii	"unsigned char\000"
 1291      676E6564 
 1291      20636861 
 1291      7200
 1292              	.LASF24:
 1293 0075 73746D33 		.ascii	"stm32_gpio_setup_t\000"
 1293      325F6770 
 1293      696F5F73 
 1293      65747570 
 1293      5F7400
 1294              	.LASF25:
 1295 0088 50414461 		.ascii	"PAData\000"
 1295      746100
 1296              	.LASF40:
 1297 008f 63666774 		.ascii	"cfgtab\000"
 1297      616200
 1298              	.LASF9:
 1299 0096 6C6F6E67 		.ascii	"long unsigned int\000"
 1299      20756E73 
 1299      69676E65 
 1299      6420696E 
 1299      7400
 1300              	.LASF4:
 1301 00a8 73686F72 		.ascii	"short unsigned int\000"
ARM GAS  C:\Users\z80\AppData\Local\Temp\ccI74pZV.s 			page 25


 1301      7420756E 
 1301      7369676E 
 1301      65642069 
 1301      6E7400
 1302              	.LASF44:
 1303 00bb 433A5C70 		.ascii	"C:\\projects\\voltamper.git\\firmware\\voltamp\000"
 1303      726F6A65 
 1303      6374735C 
 1303      766F6C74 
 1303      616D7065 
 1304              	.LASF36:
 1305 00e6 636F6E66 		.ascii	"config\000"
 1305      696700
 1306              	.LASF30:
 1307 00ed 50414C43 		.ascii	"PALConfig\000"
 1307      6F6E6669 
 1307      6700
 1308              	.LASF42:
 1309 00f7 474E5520 		.ascii	"GNU C 4.5.0\000"
 1309      4320342E 
 1309      352E3000 
 1310              	.LASF21:
 1311 0103 41504231 		.ascii	"APB1ENR\000"
 1311      454E5200 
 1312              	.LASF17:
 1313 010b 41504232 		.ascii	"APB2RSTR\000"
 1313      52535452 
 1313      00
 1314              	.LASF35:
 1315 0114 5F70616C 		.ascii	"_pal_lld_setgroupmode\000"
 1315      5F6C6C64 
 1315      5F736574 
 1315      67726F75 
 1315      706D6F64 
 1316              	.LASF26:
 1317 012a 50424461 		.ascii	"PBData\000"
 1317      746100
 1318              	.LASF12:
 1319 0131 63686172 		.ascii	"char\000"
 1319      00
 1320              	.LASF5:
 1321 0136 75696E74 		.ascii	"uint8_t\000"
 1321      385F7400 
 1322              	.LASF39:
 1323 013e 6D6F6465 		.ascii	"mode\000"
 1323      00
 1324              	.LASF16:
 1325 0143 43464752 		.ascii	"CFGR\000"
 1325      00
 1326              	.LASF41:
 1327 0148 49544D5F 		.ascii	"ITM_RxBuffer\000"
 1327      52784275 
 1327      66666572 
 1327      00
 1328              	.LASF6:
 1329 0155 696E7433 		.ascii	"int32_t\000"
 1329      325F7400 
ARM GAS  C:\Users\z80\AppData\Local\Temp\ccI74pZV.s 			page 26


 1330              	.LASF20:
 1331 015d 41504232 		.ascii	"APB2ENR\000"
 1331      454E5200 
 1332              	.LASF43:
 1333 0165 2E2E2F63 		.ascii	"../chibios_2.4.x/os/hal/platforms/STM32/GPIOv1/pal_"
 1333      68696269 
 1333      6F735F32 
 1333      2E342E78 
 1333      2F6F732F 
 1334 0198 6C6C642E 		.ascii	"lld.c\000"
 1334      6300
 1335              	.LASF38:
 1336 019e 6D61736B 		.ascii	"mask\000"
 1336      00
 1337              	.LASF37:
 1338 01a3 706F7274 		.ascii	"port\000"
 1338      00
 1339              	.LASF3:
 1340 01a8 73686F72 		.ascii	"short int\000"
 1340      7420696E 
 1340      7400
 1341              	.LASF27:
 1342 01b2 50434461 		.ascii	"PCData\000"
 1342      746100
 1343              	.LASF33:
 1344 01b9 696F706F 		.ascii	"ioportid_t\000"
 1344      72746964 
 1344      5F7400
 1345              	.LASF23:
 1346 01c4 5243435F 		.ascii	"RCC_TypeDef\000"
 1346      54797065 
 1346      44656600 
 1347              	.LASF8:
 1348 01d0 75696E74 		.ascii	"uint32_t\000"
 1348      33325F74 
 1348      00
 1349              	.LASF7:
 1350 01d9 6C6F6E67 		.ascii	"long int\000"
 1350      20696E74 
 1350      00
 1351              	.LASF15:
 1352 01e2 4750494F 		.ascii	"GPIO_TypeDef\000"
 1352      5F547970 
 1352      65446566 
 1352      00
 1353              	.LASF1:
 1354 01ef 7369676E 		.ascii	"signed char\000"
 1354      65642063 
 1354      68617200 
 1355              	.LASF11:
 1356 01fb 6C6F6E67 		.ascii	"long long unsigned int\000"
 1356      206C6F6E 
 1356      6720756E 
 1356      7369676E 
 1356      65642069 
 1357              	.LASF14:
 1358 0212 4C434B52 		.ascii	"LCKR\000"
ARM GAS  C:\Users\z80\AppData\Local\Temp\ccI74pZV.s 			page 27


 1358      00
 1359              		.ident	"GCC: (GNU) 4.5.0"
ARM GAS  C:\Users\z80\AppData\Local\Temp\ccI74pZV.s 			page 28


DEFINED SYMBOLS
                            *ABS*:00000000 pal_lld.c
C:\Users\z80\AppData\Local\Temp\ccI74pZV.s:24     .text._pal_lld_init:00000000 $t
C:\Users\z80\AppData\Local\Temp\ccI74pZV.s:30     .text._pal_lld_init:00000000 _pal_lld_init
C:\Users\z80\AppData\Local\Temp\ccI74pZV.s:122    .text._pal_lld_setgroupmode:00000000 $t
C:\Users\z80\AppData\Local\Temp\ccI74pZV.s:128    .text._pal_lld_setgroupmode:00000000 _pal_lld_setgroupmode
C:\Users\z80\AppData\Local\Temp\ccI74pZV.s:231    .text._pal_lld_setgroupmode:0000006c $d
C:\Users\z80\AppData\Local\Temp\ccI74pZV.s:236    .rodata.cfgtab.3307:00000000 $d
C:\Users\z80\AppData\Local\Temp\ccI74pZV.s:240    .rodata.cfgtab.3307:00000000 cfgtab.3307
                     .debug_frame:00000010 $d

NO UNDEFINED SYMBOLS
