ARM GAS  /tmp/ccCz8yGL.s 			page 1


   1              		.syntax unified
   2              		.cpu cortex-m3
   3              		.fpu softvfp
   4              		.eabi_attribute 20, 1
   5              		.eabi_attribute 21, 1
   6              		.eabi_attribute 23, 3
   7              		.eabi_attribute 24, 1
   8              		.eabi_attribute 25, 1
   9              		.eabi_attribute 26, 1
  10              		.eabi_attribute 30, 6
  11              		.eabi_attribute 18, 4
  12              		.thumb
  13              		.file	"relay_ctrl.c"
  20 0000 A1010000 		.text
  20      02006101 
  20      00000201 
  20      FB0E0D00 
  20      01010101 
  21              	.Ltext0:
  22              		.cfi_sections	.debug_frame
  23              		.section	.text.initRelay,"ax",%progbits
  24              		.align	2
  25              		.p2align 4,,15
  26              		.global	initRelay
  27              		.thumb
  28              		.thumb_func
  29              		.type	initRelay, %function
  30              	initRelay:
  31              	.LFB62:
  32              		.file 1 "./src/relay_ctrl.c"
  33              		.loc 1 10 0
  34              		.cfi_startproc
  35              		@ args = 0, pretend = 0, frame = 0
  36              		@ frame_needed = 0, uses_anonymous_args = 0
  37 0000 08B5     		push	{r3, lr}
  38              	.LCFI0:
  39              		.cfi_def_cfa_offset 8
  40              		.loc 1 11 0
  41 0002 0B4B     		ldr	r3, .L2
  42              		.cfi_offset 14, -4
  43              		.cfi_offset 3, -8
  44 0004 4FF40072 		mov	r2, #512
  45 0008 5A61     		str	r2, [r3, #20]
  46              		.loc 1 12 0
  47 000a 094B     		ldr	r3, .L2
  48 000c 4FF48072 		mov	r2, #256
  49 0010 5A61     		str	r2, [r3, #20]
  50              		.loc 1 13 0
  51 0012 0748     		ldr	r0, .L2
  52 0014 4FF40071 		mov	r1, #512
  53 0018 4FF00602 		mov	r2, #6
ARM GAS  /tmp/ccCz8yGL.s 			page 2


  54 001c FFF7FEFF 		bl	_pal_lld_setgroupmode
  55              		.loc 1 14 0
  56 0020 0348     		ldr	r0, .L2
  57 0022 4FF48071 		mov	r1, #256
  58 0026 4FF00602 		mov	r2, #6
  59 002a FFF7FEFF 		bl	_pal_lld_setgroupmode
  60              		.loc 1 15 0
  61 002e 08BD     		pop	{r3, pc}
  62              	.L3:
  63              		.align	2
  64              	.L2:
  65 0030 000C0140 		.word	1073810432
  66              		.cfi_endproc
  67              	.LFE62:
  68              		.size	initRelay, .-initRelay
  69 0034 AFF30080 		.section	.text.setOutRelay,"ax",%progbits
  69      AFF30080 
  69      AFF30080 
  70              		.align	2
  71              		.p2align 4,,15
  72              		.global	setOutRelay
  73              		.thumb
  74              		.thumb_func
  75              		.type	setOutRelay, %function
  76              	setOutRelay:
  77              	.LFB63:
  78              		.loc 1 18 0
  79              		.cfi_startproc
  80              		@ args = 0, pretend = 0, frame = 8
  81              		@ frame_needed = 0, uses_anonymous_args = 0
  82              		@ link register save eliminated.
  83 0000 82B0     		sub	sp, sp, #8
  84              	.LCFI1:
  85              		.cfi_def_cfa_offset 8
  86 0002 0346     		mov	r3, r0
  87 0004 8DF80730 		strb	r3, [sp, #7]
  88              		.loc 1 19 0
  89 0008 9DF80730 		ldrb	r3, [sp, #7]	@ zero_extendqisi2
  90 000c 002B     		cmp	r3, #0
  91 000e 04D0     		beq	.L5
  92              		.loc 1 20 0
  93 0010 054B     		ldr	r3, .L7
  94 0012 4FF40072 		mov	r2, #512
  95 0016 1A61     		str	r2, [r3, #16]
  96 0018 03E0     		b	.L4
  97              	.L5:
  98              		.loc 1 22 0
  99 001a 034B     		ldr	r3, .L7
 100 001c 4FF40072 		mov	r2, #512
 101 0020 5A61     		str	r2, [r3, #20]
 102              	.L4:
 103              		.loc 1 23 0
 104 0022 02B0     		add	sp, sp, #8
 105 0024 7047     		bx	lr
 106              	.L8:
 107 0026 00BF     		.align	2
 108              	.L7:
ARM GAS  /tmp/ccCz8yGL.s 			page 3


 109 0028 000C0140 		.word	1073810432
 110              		.cfi_endproc
 111              	.LFE63:
 112              		.size	setOutRelay, .-setOutRelay
 113 002c AFF30080 		.section	.text.setScRelay,"ax",%progbits
 114              		.align	2
 115              		.p2align 4,,15
 116              		.global	setScRelay
 117              		.thumb
 118              		.thumb_func
 119              		.type	setScRelay, %function
 120              	setScRelay:
 121              	.LFB64:
 122              		.loc 1 26 0
 123              		.cfi_startproc
 124              		@ args = 0, pretend = 0, frame = 8
 125              		@ frame_needed = 0, uses_anonymous_args = 0
 126              		@ link register save eliminated.
 127 0000 82B0     		sub	sp, sp, #8
 128              	.LCFI2:
 129              		.cfi_def_cfa_offset 8
 130 0002 0346     		mov	r3, r0
 131 0004 8DF80730 		strb	r3, [sp, #7]
 132              		.loc 1 27 0
 133 0008 9DF80730 		ldrb	r3, [sp, #7]	@ zero_extendqisi2
 134 000c 002B     		cmp	r3, #0
 135 000e 04D0     		beq	.L10
 136              		.loc 1 28 0
 137 0010 054B     		ldr	r3, .L12
 138 0012 4FF48072 		mov	r2, #256
 139 0016 1A61     		str	r2, [r3, #16]
 140 0018 03E0     		b	.L9
 141              	.L10:
 142              		.loc 1 30 0
 143 001a 034B     		ldr	r3, .L12
 144 001c 4FF48072 		mov	r2, #256
 145 0020 5A61     		str	r2, [r3, #20]
 146              	.L9:
 147              		.loc 1 31 0
 148 0022 02B0     		add	sp, sp, #8
 149 0024 7047     		bx	lr
 150              	.L13:
 151 0026 00BF     		.align	2
 152              	.L12:
 153 0028 000C0140 		.word	1073810432
 154              		.cfi_endproc
 155              	.LFE64:
 156              		.size	setScRelay, .-setScRelay
 157 002c AFF30080 		.text
 158              	.Letext0: