ARM GAS  C:\Users\z80\AppData\Local\Temp\ccRodHvf.s 			page 1


   1              		.syntax unified
   2              		.cpu cortex-m3
   3              		.fpu softvfp
   4              		.eabi_attribute 20, 1
   5              		.eabi_attribute 21, 1
   6              		.eabi_attribute 23, 3
   7              		.eabi_attribute 24, 1
   8              		.eabi_attribute 25, 1
   9              		.eabi_attribute 26, 1
  10              		.eabi_attribute 30, 6
  11              		.eabi_attribute 18, 4
  12              		.thumb
  13              		.file	"serial_lld.c"
  14              		.section	.debug_abbrev,"",%progbits
  15              	.Ldebug_abbrev0:
  16              		.section	.debug_info,"",%progbits
  17              	.Ldebug_info0:
  18              		.section	.debug_line,"",%progbits
  19              	.Ldebug_line0:
  20 0000 71030000 		.text
  20      02004D02 
  20      00000201 
  20      FB0E0D00 
  20      01010101 
  21              	.Ltext0:
  22              		.cfi_sections	.debug_frame
  23              		.global	SD1
  24              		.section	.bss.SD1,"aw",%nobits
  25              		.align	2
  26              		.type	SD1, %object
  27              		.size	SD1, 1108
  28              	SD1:
  29 0000 00000000 		.space	1108
  29      00000000 
  29      00000000 
  29      00000000 
  29      00000000 
  30              		.global	SD2
  31              		.section	.bss.SD2,"aw",%nobits
  32              		.align	2
  33              		.type	SD2, %object
  34              		.size	SD2, 1108
  35              	SD2:
  36 0000 00000000 		.space	1108
  36      00000000 
  36      00000000 
  36      00000000 
  36      00000000 
  37              		.section	.rodata.default_config,"a",%progbits
  38              		.align	2
  39              		.type	default_config, %object
  40              		.size	default_config, 12
  41              	default_config:
  42 0000 00C20100 		.word	115200
  43 0004 0000     		.short	0
  44 0006 0040     		.short	16384
  45 0008 0000     		.short	0
ARM GAS  C:\Users\z80\AppData\Local\Temp\ccRodHvf.s 			page 2


  46 000a 0000     		.space	2
  47              		.section	.text.usart_init,"ax",%progbits
  48              		.align	2
  49              		.p2align 4,,15
  50              		.thumb
  51              		.thumb_func
  52              		.type	usart_init, %function
  53              	usart_init:
  54              	.LFB62:
  55              		.file 1 "../chibios_2.4.x/os/hal/platforms/STM32/serial_lld.c"
  56              		.loc 1 99 0
  57              		.cfi_startproc
  58              		@ args = 0, pretend = 0, frame = 16
  59              		@ frame_needed = 0, uses_anonymous_args = 0
  60              		@ link register save eliminated.
  61 0000 84B0     		sub	sp, sp, #16
  62              	.LCFI0:
  63              		.cfi_def_cfa_offset 16
  64 0002 0190     		str	r0, [sp, #4]
  65 0004 0091     		str	r1, [sp, #0]
  66              		.loc 1 100 0
  67 0006 019B     		ldr	r3, [sp, #4]
  68 0008 D3F85034 		ldr	r3, [r3, #1104]
  69 000c 0393     		str	r3, [sp, #12]
  70              		.loc 1 108 0
  71 000e 019B     		ldr	r3, [sp, #4]
  72 0010 D3F85024 		ldr	r2, [r3, #1104]
  73 0014 4FF46053 		mov	r3, #14336
  74 0018 C4F20103 		movt	r3, 16385
  75 001c 9A42     		cmp	r2, r3
  76 001e 0BD1     		bne	.L2
  77              		.loc 1 110 0
  78 0020 009B     		ldr	r3, [sp, #0]
  79 0022 1A68     		ldr	r2, [r3, #0]
  80 0024 4FF4D853 		mov	r3, #6912
  81 0028 C0F2B703 		movt	r3, 183
  82 002c B3FBF2F3 		udiv	r3, r3, r2
  83 0030 9AB2     		uxth	r2, r3
  84 0032 039B     		ldr	r3, [sp, #12]
  85 0034 1A81     		strh	r2, [r3, #8]	@ movhi
  86 0036 0AE0     		b	.L3
  87              	.L2:
  88              		.loc 1 112 0
  89 0038 009B     		ldr	r3, [sp, #0]
  90 003a 1A68     		ldr	r2, [r3, #0]
  91 003c 4FF4D853 		mov	r3, #6912
  92 0040 C0F2B703 		movt	r3, 183
  93 0044 B3FBF2F3 		udiv	r3, r3, r2
  94 0048 9AB2     		uxth	r2, r3
  95 004a 039B     		ldr	r3, [sp, #12]
  96 004c 1A81     		strh	r2, [r3, #8]	@ movhi
  97              	.L3:
  98              		.loc 1 117 0
  99 004e 009B     		ldr	r3, [sp, #0]
 100 0050 9B88     		ldrh	r3, [r3, #4]
 101 0052 43F40453 		orr	r3, r3, #8448
 102 0056 43F02C03 		orr	r3, r3, #44
ARM GAS  C:\Users\z80\AppData\Local\Temp\ccRodHvf.s 			page 3


 103 005a 9AB2     		uxth	r2, r3
 104 005c 039B     		ldr	r3, [sp, #12]
 105 005e 9A81     		strh	r2, [r3, #12]	@ movhi
 106              		.loc 1 120 0
 107 0060 009B     		ldr	r3, [sp, #0]
 108 0062 DB88     		ldrh	r3, [r3, #6]
 109 0064 43F04003 		orr	r3, r3, #64
 110 0068 9AB2     		uxth	r2, r3
 111 006a 039B     		ldr	r3, [sp, #12]
 112 006c 1A82     		strh	r2, [r3, #16]	@ movhi
 113              		.loc 1 121 0
 114 006e 009B     		ldr	r3, [sp, #0]
 115 0070 1B89     		ldrh	r3, [r3, #8]
 116 0072 43F00103 		orr	r3, r3, #1
 117 0076 9AB2     		uxth	r2, r3
 118 0078 039B     		ldr	r3, [sp, #12]
 119 007a 9A82     		strh	r2, [r3, #20]	@ movhi
 120              		.loc 1 122 0
 121 007c 039B     		ldr	r3, [sp, #12]
 122 007e 4FF00002 		mov	r2, #0
 123 0082 1A80     		strh	r2, [r3, #0]	@ movhi
 124              		.loc 1 123 0
 125 0084 039B     		ldr	r3, [sp, #12]
 126 0086 1B88     		ldrh	r3, [r3, #0]	@ movhi
 127              		.loc 1 124 0
 128 0088 039B     		ldr	r3, [sp, #12]
 129 008a 9B88     		ldrh	r3, [r3, #4]	@ movhi
 130              		.loc 1 125 0
 131 008c 04B0     		add	sp, sp, #16
 132 008e 7047     		bx	lr
 133              		.cfi_endproc
 134              	.LFE62:
 135              		.size	usart_init, .-usart_init
 136              		.section	.text.usart_deinit,"ax",%progbits
 137              		.align	2
 138              		.p2align 4,,15
 139              		.thumb
 140              		.thumb_func
 141              		.type	usart_deinit, %function
 142              	usart_deinit:
 143              	.LFB63:
 144              		.loc 1 133 0
 145              		.cfi_startproc
 146              		@ args = 0, pretend = 0, frame = 8
 147              		@ frame_needed = 0, uses_anonymous_args = 0
 148              		@ link register save eliminated.
 149 0000 82B0     		sub	sp, sp, #8
 150              	.LCFI1:
 151              		.cfi_def_cfa_offset 8
 152 0002 0190     		str	r0, [sp, #4]
 153              		.loc 1 135 0
 154 0004 019B     		ldr	r3, [sp, #4]
 155 0006 4FF00002 		mov	r2, #0
 156 000a 9A81     		strh	r2, [r3, #12]	@ movhi
 157              		.loc 1 136 0
 158 000c 019B     		ldr	r3, [sp, #4]
 159 000e 4FF00002 		mov	r2, #0
ARM GAS  C:\Users\z80\AppData\Local\Temp\ccRodHvf.s 			page 4


 160 0012 1A82     		strh	r2, [r3, #16]	@ movhi
 161              		.loc 1 137 0
 162 0014 019B     		ldr	r3, [sp, #4]
 163 0016 4FF00002 		mov	r2, #0
 164 001a 9A82     		strh	r2, [r3, #20]	@ movhi
 165              		.loc 1 138 0
 166 001c 02B0     		add	sp, sp, #8
 167 001e 7047     		bx	lr
 168              		.cfi_endproc
 169              	.LFE63:
 170              		.size	usart_deinit, .-usart_deinit
 171              		.section	.text.set_error,"ax",%progbits
 172              		.align	2
 173              		.p2align 4,,15
 174              		.thumb
 175              		.thumb_func
 176              		.type	set_error, %function
 177              	set_error:
 178              	.LFB64:
 179              		.loc 1 149 0
 180              		.cfi_startproc
 181              		@ args = 0, pretend = 0, frame = 16
 182              		@ frame_needed = 0, uses_anonymous_args = 0
 183 0000 00B5     		push	{lr}
 184              	.LCFI2:
 185              		.cfi_def_cfa_offset 4
 186 0002 85B0     		sub	sp, sp, #20
 187              	.LCFI3:
 188              		.cfi_def_cfa_offset 24
 189 0004 0190     		str	r0, [sp, #4]
 190 0006 0B46     		mov	r3, r1
 191 0008 ADF80230 		strh	r3, [sp, #2]	@ movhi
 192              		.loc 1 150 0
 193 000c 4FF00003 		mov	r3, #0
 194 0010 0393     		str	r3, [sp, #12]
 195              		.loc 1 152 0
 196 0012 BDF80230 		ldrh	r3, [sp, #2]
 197 0016 03F00803 		and	r3, r3, #8
 198 001a 002B     		cmp	r3, #0
 199 001c 03D0     		beq	.L6
 200              		.cfi_offset 14, -4
 201              		.loc 1 153 0
 202 001e 039B     		ldr	r3, [sp, #12]
 203 0020 43F08003 		orr	r3, r3, #128
 204 0024 0393     		str	r3, [sp, #12]
 205              	.L6:
 206              		.loc 1 154 0
 207 0026 BDF80230 		ldrh	r3, [sp, #2]
 208 002a 03F00103 		and	r3, r3, #1
 209 002e DBB2     		uxtb	r3, r3
 210 0030 002B     		cmp	r3, #0
 211 0032 03D0     		beq	.L7
 212              		.loc 1 155 0
 213 0034 039B     		ldr	r3, [sp, #12]
 214 0036 43F02003 		orr	r3, r3, #32
 215 003a 0393     		str	r3, [sp, #12]
 216              	.L7:
ARM GAS  C:\Users\z80\AppData\Local\Temp\ccRodHvf.s 			page 5


 217              		.loc 1 156 0
 218 003c BDF80230 		ldrh	r3, [sp, #2]
 219 0040 03F00203 		and	r3, r3, #2
 220 0044 002B     		cmp	r3, #0
 221 0046 03D0     		beq	.L8
 222              		.loc 1 157 0
 223 0048 039B     		ldr	r3, [sp, #12]
 224 004a 43F04003 		orr	r3, r3, #64
 225 004e 0393     		str	r3, [sp, #12]
 226              	.L8:
 227              		.loc 1 158 0
 228 0050 BDF80230 		ldrh	r3, [sp, #2]
 229 0054 03F00403 		and	r3, r3, #4
 230 0058 002B     		cmp	r3, #0
 231 005a 03D0     		beq	.L9
 232              		.loc 1 159 0
 233 005c 039B     		ldr	r3, [sp, #12]
 234 005e 43F48073 		orr	r3, r3, #256
 235 0062 0393     		str	r3, [sp, #12]
 236              	.L9:
 237              	.LBB2:
 238              		.loc 1 160 0
 239 0064 4FF02003 		mov	r3, #32
 240              	@ 160 "../chibios_2.4.x/os/hal/platforms/STM32/serial_lld.c" 1
 241 0068 83F31188 		msr     BASEPRI, r3
 242              	@ 0 "" 2
 243              		.thumb
 244              	.LBE2:
 245 006c FFF7FEFF 		bl	dbg_check_lock_from_isr
 246              		.loc 1 161 0
 247 0070 019B     		ldr	r3, [sp, #4]
 248 0072 9A68     		ldr	r2, [r3, #8]
 249 0074 039B     		ldr	r3, [sp, #12]
 250 0076 42EA0302 		orr	r2, r2, r3
 251 007a 019B     		ldr	r3, [sp, #4]
 252 007c 9A60     		str	r2, [r3, #8]
 253 007e 019B     		ldr	r3, [sp, #4]
 254 0080 03F10403 		add	r3, r3, #4
 255 0084 1846     		mov	r0, r3
 256 0086 4FF00001 		mov	r1, #0
 257 008a FFF7FEFF 		bl	chEvtBroadcastFlagsI
 258              		.loc 1 162 0
 259 008e FFF7FEFF 		bl	dbg_check_unlock_from_isr
 260              	.LBB3:
 261 0092 4FF00003 		mov	r3, #0
 262              	@ 162 "../chibios_2.4.x/os/hal/platforms/STM32/serial_lld.c" 1
 263 0096 83F31188 		msr     BASEPRI, r3
 264              	@ 0 "" 2
 265              		.thumb
 266              	.LBE3:
 267              		.loc 1 163 0
 268 009a 05B0     		add	sp, sp, #20
 269 009c 00BD     		pop	{pc}
 270              		.cfi_endproc
 271              	.LFE64:
 272              		.size	set_error, .-set_error
 273 009e 00BF     		.section	.text.serve_interrupt,"ax",%progbits
ARM GAS  C:\Users\z80\AppData\Local\Temp\ccRodHvf.s 			page 6


 274              		.align	2
 275              		.p2align 4,,15
 276              		.thumb
 277              		.thumb_func
 278              		.type	serve_interrupt, %function
 279              	serve_interrupt:
 280              	.LFB65:
 281              		.loc 1 170 0
 282              		.cfi_startproc
 283              		@ args = 0, pretend = 0, frame = 24
 284              		@ frame_needed = 0, uses_anonymous_args = 0
 285 0000 00B5     		push	{lr}
 286              	.LCFI4:
 287              		.cfi_def_cfa_offset 4
 288 0002 87B0     		sub	sp, sp, #28
 289              	.LCFI5:
 290              		.cfi_def_cfa_offset 32
 291 0004 0190     		str	r0, [sp, #4]
 292              		.loc 1 171 0
 293 0006 019B     		ldr	r3, [sp, #4]
 294 0008 D3F85034 		ldr	r3, [r3, #1104]
 295 000c 0593     		str	r3, [sp, #20]
 296              		.loc 1 172 0
 297 000e 059B     		ldr	r3, [sp, #20]
 298 0010 9B89     		ldrh	r3, [r3, #12]	@ movhi
 299 0012 ADF81230 		strh	r3, [sp, #18]	@ movhi
 300              		.loc 1 173 0
 301 0016 059B     		ldr	r3, [sp, #20]
 302 0018 1B88     		ldrh	r3, [r3, #0]	@ movhi
 303 001a ADF81030 		strh	r3, [sp, #16]	@ movhi
 304              		.loc 1 174 0
 305 001e 059B     		ldr	r3, [sp, #20]
 306 0020 9B88     		ldrh	r3, [r3, #4]	@ movhi
 307 0022 ADF80E30 		strh	r3, [sp, #14]	@ movhi
 308              		.loc 1 177 0
 309 0026 BDF81030 		ldrh	r3, [sp, #16]
 310 002a 03F00F03 		and	r3, r3, #15
 311 002e 002B     		cmp	r3, #0
 312 0030 05D0     		beq	.L11
 313              		.cfi_offset 14, -4
 314              		.loc 1 178 0
 315 0032 BDF81030 		ldrh	r3, [sp, #16]
 316 0036 0198     		ldr	r0, [sp, #4]
 317 0038 1946     		mov	r1, r3
 318 003a FFF7FEFF 		bl	set_error
 319              	.L11:
 320              		.loc 1 180 0
 321 003e BDF81030 		ldrh	r3, [sp, #16]
 322 0042 03F48073 		and	r3, r3, #256
 323 0046 002B     		cmp	r3, #0
 324 0048 21D0     		beq	.L12
 325              	.LBB4:
 326              		.loc 1 181 0
 327 004a 4FF02003 		mov	r3, #32
 328              	@ 181 "../chibios_2.4.x/os/hal/platforms/STM32/serial_lld.c" 1
 329 004e 83F31188 		msr     BASEPRI, r3
 330              	@ 0 "" 2
ARM GAS  C:\Users\z80\AppData\Local\Temp\ccRodHvf.s 			page 7


 331              		.thumb
 332              	.LBE4:
 333 0052 FFF7FEFF 		bl	dbg_check_lock_from_isr
 334              		.loc 1 182 0
 335 0056 019B     		ldr	r3, [sp, #4]
 336 0058 9B68     		ldr	r3, [r3, #8]
 337 005a 43F40072 		orr	r2, r3, #512
 338 005e 019B     		ldr	r3, [sp, #4]
 339 0060 9A60     		str	r2, [r3, #8]
 340 0062 019B     		ldr	r3, [sp, #4]
 341 0064 03F10403 		add	r3, r3, #4
 342 0068 1846     		mov	r0, r3
 343 006a 4FF00001 		mov	r1, #0
 344 006e FFF7FEFF 		bl	chEvtBroadcastFlagsI
 345              		.loc 1 183 0
 346 0072 FFF7FEFF 		bl	dbg_check_unlock_from_isr
 347              	.LBB5:
 348 0076 4FF00003 		mov	r3, #0
 349              	@ 183 "../chibios_2.4.x/os/hal/platforms/STM32/serial_lld.c" 1
 350 007a 83F31188 		msr     BASEPRI, r3
 351              	@ 0 "" 2
 352              		.thumb
 353              	.LBE5:
 354              		.loc 1 184 0
 355 007e 059B     		ldr	r3, [sp, #20]
 356 0080 1B88     		ldrh	r3, [r3, #0]	@ movhi
 357 0082 9BB2     		uxth	r3, r3
 358 0084 23F48073 		bic	r3, r3, #256
 359 0088 9AB2     		uxth	r2, r3
 360 008a 059B     		ldr	r3, [sp, #20]
 361 008c 1A80     		strh	r2, [r3, #0]	@ movhi
 362              	.L12:
 363              		.loc 1 187 0
 364 008e BDF81030 		ldrh	r3, [sp, #16]
 365 0092 03F02003 		and	r3, r3, #32
 366 0096 002B     		cmp	r3, #0
 367 0098 12D0     		beq	.L13
 368              	.LBB6:
 369              		.loc 1 188 0
 370 009a 4FF02003 		mov	r3, #32
 371              	@ 188 "../chibios_2.4.x/os/hal/platforms/STM32/serial_lld.c" 1
 372 009e 83F31188 		msr     BASEPRI, r3
 373              	@ 0 "" 2
 374              		.thumb
 375              	.LBE6:
 376 00a2 FFF7FEFF 		bl	dbg_check_lock_from_isr
 377              		.loc 1 189 0
 378 00a6 BDF80E30 		ldrh	r3, [sp, #14]	@ movhi
 379 00aa DBB2     		uxtb	r3, r3
 380 00ac 0198     		ldr	r0, [sp, #4]
 381 00ae 1946     		mov	r1, r3
 382 00b0 FFF7FEFF 		bl	sdIncomingDataI
 383              		.loc 1 190 0
 384 00b4 FFF7FEFF 		bl	dbg_check_unlock_from_isr
 385              	.LBB7:
 386 00b8 4FF00003 		mov	r3, #0
 387              	@ 190 "../chibios_2.4.x/os/hal/platforms/STM32/serial_lld.c" 1
ARM GAS  C:\Users\z80\AppData\Local\Temp\ccRodHvf.s 			page 8


 388 00bc 83F31188 		msr     BASEPRI, r3
 389              	@ 0 "" 2
 390              		.thumb
 391              	.L13:
 392              	.LBE7:
 393              		.loc 1 193 0
 394 00c0 BDF81230 		ldrh	r3, [sp, #18]
 395 00c4 03F08003 		and	r3, r3, #128
 396 00c8 002B     		cmp	r3, #0
 397 00ca 3AD0     		beq	.L14
 398              		.loc 1 193 0 is_stmt 0 discriminator 1
 399 00cc BDF81030 		ldrh	r3, [sp, #16]
 400 00d0 03F08003 		and	r3, r3, #128
 401 00d4 002B     		cmp	r3, #0
 402 00d6 34D0     		beq	.L14
 403              	.LBB8:
 404              	.LBB9:
 405              		.loc 1 195 0 is_stmt 1
 406 00d8 4FF02003 		mov	r3, #32
 407              	@ 195 "../chibios_2.4.x/os/hal/platforms/STM32/serial_lld.c" 1
 408 00dc 83F31188 		msr     BASEPRI, r3
 409              	@ 0 "" 2
 410              		.thumb
 411              	.LBE9:
 412 00e0 FFF7FEFF 		bl	dbg_check_lock_from_isr
 413              		.loc 1 196 0
 414 00e4 019B     		ldr	r3, [sp, #4]
 415 00e6 03F13003 		add	r3, r3, #48
 416 00ea 1846     		mov	r0, r3
 417 00ec FFF7FEFF 		bl	chOQGetI
 418 00f0 0346     		mov	r3, r0
 419 00f2 0293     		str	r3, [sp, #8]
 420              		.loc 1 197 0
 421 00f4 029B     		ldr	r3, [sp, #8]
 422 00f6 002B     		cmp	r3, #0
 423 00f8 19DA     		bge	.L15
 424              		.loc 1 198 0
 425 00fa 019B     		ldr	r3, [sp, #4]
 426 00fc 9B68     		ldr	r3, [r3, #8]
 427 00fe 43F00802 		orr	r2, r3, #8
 428 0102 019B     		ldr	r3, [sp, #4]
 429 0104 9A60     		str	r2, [r3, #8]
 430 0106 019B     		ldr	r3, [sp, #4]
 431 0108 03F10403 		add	r3, r3, #4
 432 010c 1846     		mov	r0, r3
 433 010e 4FF00001 		mov	r1, #0
 434 0112 FFF7FEFF 		bl	chEvtBroadcastFlagsI
 435              		.loc 1 199 0
 436 0116 BDF81230 		ldrh	r3, [sp, #18]
 437 011a 23F0C003 		bic	r3, r3, #192
 438 011e 9BB2     		uxth	r3, r3
 439 0120 43F04003 		orr	r3, r3, #64
 440 0124 9BB2     		uxth	r3, r3
 441 0126 9AB2     		uxth	r2, r3
 442 0128 059B     		ldr	r3, [sp, #20]
 443 012a 9A81     		strh	r2, [r3, #12]	@ movhi
 444 012c 03E0     		b	.L16
ARM GAS  C:\Users\z80\AppData\Local\Temp\ccRodHvf.s 			page 9


 445              	.L15:
 446              		.loc 1 202 0
 447 012e 029B     		ldr	r3, [sp, #8]
 448 0130 9AB2     		uxth	r2, r3
 449 0132 059B     		ldr	r3, [sp, #20]
 450 0134 9A80     		strh	r2, [r3, #4]	@ movhi
 451              	.L16:
 452              		.loc 1 203 0
 453 0136 FFF7FEFF 		bl	dbg_check_unlock_from_isr
 454              	.LBB10:
 455 013a 4FF00003 		mov	r3, #0
 456              	@ 203 "../chibios_2.4.x/os/hal/platforms/STM32/serial_lld.c" 1
 457 013e 83F31188 		msr     BASEPRI, r3
 458              	@ 0 "" 2
 459              		.thumb
 460              	.L14:
 461              	.LBE10:
 462              	.LBE8:
 463              		.loc 1 206 0
 464 0142 BDF81030 		ldrh	r3, [sp, #16]
 465 0146 03F04003 		and	r3, r3, #64
 466 014a 002B     		cmp	r3, #0
 467 014c 28D0     		beq	.L10
 468              	.LBB11:
 469              		.loc 1 207 0
 470 014e 4FF02003 		mov	r3, #32
 471              	@ 207 "../chibios_2.4.x/os/hal/platforms/STM32/serial_lld.c" 1
 472 0152 83F31188 		msr     BASEPRI, r3
 473              	@ 0 "" 2
 474              		.thumb
 475              	.LBE11:
 476 0156 FFF7FEFF 		bl	dbg_check_lock_from_isr
 477              		.loc 1 208 0
 478 015a 019B     		ldr	r3, [sp, #4]
 479 015c 9B68     		ldr	r3, [r3, #8]
 480 015e 43F01002 		orr	r2, r3, #16
 481 0162 019B     		ldr	r3, [sp, #4]
 482 0164 9A60     		str	r2, [r3, #8]
 483 0166 019B     		ldr	r3, [sp, #4]
 484 0168 03F10403 		add	r3, r3, #4
 485 016c 1846     		mov	r0, r3
 486 016e 4FF00001 		mov	r1, #0
 487 0172 FFF7FEFF 		bl	chEvtBroadcastFlagsI
 488              		.loc 1 209 0
 489 0176 FFF7FEFF 		bl	dbg_check_unlock_from_isr
 490              	.LBB12:
 491 017a 4FF00003 		mov	r3, #0
 492              	@ 209 "../chibios_2.4.x/os/hal/platforms/STM32/serial_lld.c" 1
 493 017e 83F31188 		msr     BASEPRI, r3
 494              	@ 0 "" 2
 495              		.thumb
 496              	.LBE12:
 497              		.loc 1 210 0
 498 0182 BDF81230 		ldrh	r3, [sp, #18]	@ movhi
 499 0186 23F04003 		bic	r3, r3, #64
 500 018a 9AB2     		uxth	r2, r3
 501 018c 059B     		ldr	r3, [sp, #20]
ARM GAS  C:\Users\z80\AppData\Local\Temp\ccRodHvf.s 			page 10


 502 018e 9A81     		strh	r2, [r3, #12]	@ movhi
 503              		.loc 1 211 0
 504 0190 059B     		ldr	r3, [sp, #20]
 505 0192 1B88     		ldrh	r3, [r3, #0]	@ movhi
 506 0194 9BB2     		uxth	r3, r3
 507 0196 23F04003 		bic	r3, r3, #64
 508 019a 9AB2     		uxth	r2, r3
 509 019c 059B     		ldr	r3, [sp, #20]
 510 019e 1A80     		strh	r2, [r3, #0]	@ movhi
 511              	.L10:
 512              		.loc 1 213 0
 513 01a0 07B0     		add	sp, sp, #28
 514 01a2 00BD     		pop	{pc}
 515              		.cfi_endproc
 516              	.LFE65:
 517              		.size	serve_interrupt, .-serve_interrupt
 518 01a4 AFF30080 		.section	.text.notify1,"ax",%progbits
 518      AFF30080 
 518      AFF30080 
 519              		.align	2
 520              		.p2align 4,,15
 521              		.thumb
 522              		.thumb_func
 523              		.type	notify1, %function
 524              	notify1:
 525              	.LFB66:
 526              		.loc 1 217 0
 527              		.cfi_startproc
 528              		@ args = 0, pretend = 0, frame = 8
 529              		@ frame_needed = 0, uses_anonymous_args = 0
 530              		@ link register save eliminated.
 531 0000 82B0     		sub	sp, sp, #8
 532              	.LCFI6:
 533              		.cfi_def_cfa_offset 8
 534 0002 0190     		str	r0, [sp, #4]
 535              		.loc 1 220 0
 536 0004 4FF46053 		mov	r3, #14336
 537 0008 C4F20103 		movt	r3, 16385
 538 000c 4FF46052 		mov	r2, #14336
 539 0010 C4F20102 		movt	r2, 16385
 540 0014 9289     		ldrh	r2, [r2, #12]	@ movhi
 541 0016 92B2     		uxth	r2, r2
 542 0018 42F08002 		orr	r2, r2, #128
 543 001c 92B2     		uxth	r2, r2
 544 001e 9A81     		strh	r2, [r3, #12]	@ movhi
 545              		.loc 1 221 0
 546 0020 02B0     		add	sp, sp, #8
 547 0022 7047     		bx	lr
 548              		.cfi_endproc
 549              	.LFE66:
 550              		.size	notify1, .-notify1
 551 0024 AFF30080 		.section	.text.notify2,"ax",%progbits
 551      AFF30080 
 551      AFF30080 
 552              		.align	2
 553              		.p2align 4,,15
 554              		.thumb
ARM GAS  C:\Users\z80\AppData\Local\Temp\ccRodHvf.s 			page 11


 555              		.thumb_func
 556              		.type	notify2, %function
 557              	notify2:
 558              	.LFB67:
 559              		.loc 1 225 0
 560              		.cfi_startproc
 561              		@ args = 0, pretend = 0, frame = 8
 562              		@ frame_needed = 0, uses_anonymous_args = 0
 563              		@ link register save eliminated.
 564 0000 82B0     		sub	sp, sp, #8
 565              	.LCFI7:
 566              		.cfi_def_cfa_offset 8
 567 0002 0190     		str	r0, [sp, #4]
 568              		.loc 1 228 0
 569 0004 4FF48843 		mov	r3, #17408
 570 0008 C4F20003 		movt	r3, 16384
 571 000c 4FF48842 		mov	r2, #17408
 572 0010 C4F20002 		movt	r2, 16384
 573 0014 9289     		ldrh	r2, [r2, #12]	@ movhi
 574 0016 92B2     		uxth	r2, r2
 575 0018 42F08002 		orr	r2, r2, #128
 576 001c 92B2     		uxth	r2, r2
 577 001e 9A81     		strh	r2, [r3, #12]	@ movhi
 578              		.loc 1 229 0
 579 0020 02B0     		add	sp, sp, #8
 580 0022 7047     		bx	lr
 581              		.cfi_endproc
 582              	.LFE67:
 583              		.size	notify2, .-notify2
 584 0024 AFF30080 		.section	.text.VectorD4,"ax",%progbits
 584      AFF30080 
 584      AFF30080 
 585              		.align	2
 586              		.p2align 4,,15
 587              		.global	VectorD4
 588              		.thumb
 589              		.thumb_func
 590              		.type	VectorD4, %function
 591              	VectorD4:
 592              	.LFB68:
 593              		.loc 1 274 0
 594              		.cfi_startproc
 595              		@ args = 0, pretend = 0, frame = 0
 596              		@ frame_needed = 0, uses_anonymous_args = 0
 597 0000 08B5     		push	{r3, lr}
 598              	.LCFI8:
 599              		.cfi_def_cfa_offset 8
 600              		.loc 1 276 0
 601              		.cfi_offset 14, -4
 602              		.cfi_offset 3, -8
 603 0002 FFF7FEFF 		bl	dbg_check_enter_isr
 604              		.loc 1 278 0
 605 0006 40F20000 		movw	r0, #:lower16:SD1
 606 000a C0F20000 		movt	r0, #:upper16:SD1
 607 000e FFF7FEFF 		bl	serve_interrupt
 608              		.loc 1 280 0
 609 0012 FFF7FEFF 		bl	dbg_check_leave_isr
ARM GAS  C:\Users\z80\AppData\Local\Temp\ccRodHvf.s 			page 12


 610 0016 FFF7FEFF 		bl	_port_irq_epilogue
 611              		.loc 1 281 0
 612 001a 08BD     		pop	{r3, pc}
 613              		.cfi_endproc
 614              	.LFE68:
 615              		.size	VectorD4, .-VectorD4
 616 001c AFF30080 		.section	.text.VectorD8,"ax",%progbits
 617              		.align	2
 618              		.p2align 4,,15
 619              		.global	VectorD8
 620              		.thumb
 621              		.thumb_func
 622              		.type	VectorD8, %function
 623              	VectorD8:
 624              	.LFB69:
 625              		.loc 1 290 0
 626              		.cfi_startproc
 627              		@ args = 0, pretend = 0, frame = 0
 628              		@ frame_needed = 0, uses_anonymous_args = 0
 629 0000 08B5     		push	{r3, lr}
 630              	.LCFI9:
 631              		.cfi_def_cfa_offset 8
 632              		.loc 1 292 0
 633              		.cfi_offset 14, -4
 634              		.cfi_offset 3, -8
 635 0002 FFF7FEFF 		bl	dbg_check_enter_isr
 636              		.loc 1 294 0
 637 0006 40F20000 		movw	r0, #:lower16:SD2
 638 000a C0F20000 		movt	r0, #:upper16:SD2
 639 000e FFF7FEFF 		bl	serve_interrupt
 640              		.loc 1 296 0
 641 0012 FFF7FEFF 		bl	dbg_check_leave_isr
 642 0016 FFF7FEFF 		bl	_port_irq_epilogue
 643              		.loc 1 297 0
 644 001a 08BD     		pop	{r3, pc}
 645              		.cfi_endproc
 646              	.LFE69:
 647              		.size	VectorD8, .-VectorD8
 648 001c AFF30080 		.section	.text.sd_lld_init,"ax",%progbits
 649              		.align	2
 650              		.p2align 4,,15
 651              		.global	sd_lld_init
 652              		.thumb
 653              		.thumb_func
 654              		.type	sd_lld_init, %function
 655              	sd_lld_init:
 656              	.LFB70:
 657              		.loc 1 373 0
 658              		.cfi_startproc
 659              		@ args = 0, pretend = 0, frame = 0
 660              		@ frame_needed = 0, uses_anonymous_args = 0
 661 0000 08B5     		push	{r3, lr}
 662              	.LCFI10:
 663              		.cfi_def_cfa_offset 8
 664              		.loc 1 376 0
 665 0002 40F20000 		movw	r0, #:lower16:SD1
 666 0006 C0F20000 		movt	r0, #:upper16:SD1
ARM GAS  C:\Users\z80\AppData\Local\Temp\ccRodHvf.s 			page 13


 667 000a 4FF00001 		mov	r1, #0
 668 000e 40F20002 		movw	r2, #:lower16:notify1
 669 0012 C0F20002 		movt	r2, #:upper16:notify1
 670              		.cfi_offset 14, -4
 671              		.cfi_offset 3, -8
 672 0016 FFF7FEFF 		bl	sdObjectInit
 673              		.loc 1 377 0
 674 001a 40F20003 		movw	r3, #:lower16:SD1
 675 001e C0F20003 		movt	r3, #:upper16:SD1
 676 0022 4FF46052 		mov	r2, #14336
 677 0026 C4F20102 		movt	r2, 16385
 678 002a C3F85024 		str	r2, [r3, #1104]
 679              		.loc 1 381 0
 680 002e 40F20000 		movw	r0, #:lower16:SD2
 681 0032 C0F20000 		movt	r0, #:upper16:SD2
 682 0036 4FF00001 		mov	r1, #0
 683 003a 40F20002 		movw	r2, #:lower16:notify2
 684 003e C0F20002 		movt	r2, #:upper16:notify2
 685 0042 FFF7FEFF 		bl	sdObjectInit
 686              		.loc 1 382 0
 687 0046 40F20003 		movw	r3, #:lower16:SD2
 688 004a C0F20003 		movt	r3, #:upper16:SD2
 689 004e 4FF48842 		mov	r2, #17408
 690 0052 C4F20002 		movt	r2, 16384
 691 0056 C3F85024 		str	r2, [r3, #1104]
 692              		.loc 1 404 0
 693 005a 08BD     		pop	{r3, pc}
 694              		.cfi_endproc
 695              	.LFE70:
 696              		.size	sd_lld_init, .-sd_lld_init
 697              		.section	.text.sd_lld_start,"ax",%progbits
 698              		.align	2
 699              		.p2align 4,,15
 700              		.global	sd_lld_start
 701              		.thumb
 702              		.thumb_func
 703              		.type	sd_lld_start, %function
 704              	sd_lld_start:
 705              	.LFB71:
 706              		.loc 1 416 0
 707              		.cfi_startproc
 708              		@ args = 0, pretend = 0, frame = 8
 709              		@ frame_needed = 0, uses_anonymous_args = 0
 710 0000 00B5     		push	{lr}
 711              	.LCFI11:
 712              		.cfi_def_cfa_offset 4
 713 0002 83B0     		sub	sp, sp, #12
 714              	.LCFI12:
 715              		.cfi_def_cfa_offset 16
 716 0004 0190     		str	r0, [sp, #4]
 717 0006 0091     		str	r1, [sp, #0]
 718              		.loc 1 418 0
 719 0008 009B     		ldr	r3, [sp, #0]
 720 000a 002B     		cmp	r3, #0
 721 000c 04D1     		bne	.L24
 722              		.cfi_offset 14, -4
 723              		.loc 1 419 0
ARM GAS  C:\Users\z80\AppData\Local\Temp\ccRodHvf.s 			page 14


 724 000e 40F20003 		movw	r3, #:lower16:default_config
 725 0012 C0F20003 		movt	r3, #:upper16:default_config
 726 0016 0093     		str	r3, [sp, #0]
 727              	.L24:
 728              		.loc 1 421 0
 729 0018 019B     		ldr	r3, [sp, #4]
 730 001a 1B7B     		ldrb	r3, [r3, #12]	@ zero_extendqisi2
 731 001c 012B     		cmp	r3, #1
 732 001e 31D1     		bne	.L25
 733              		.loc 1 423 0
 734 0020 019A     		ldr	r2, [sp, #4]
 735 0022 40F20003 		movw	r3, #:lower16:SD1
 736 0026 C0F20003 		movt	r3, #:upper16:SD1
 737 002a 9A42     		cmp	r2, r3
 738 002c 11D1     		bne	.L26
 739              		.loc 1 424 0
 740 002e 4FF48053 		mov	r3, #4096
 741 0032 C4F20203 		movt	r3, 16386
 742 0036 4FF48052 		mov	r2, #4096
 743 003a C4F20202 		movt	r2, 16386
 744 003e 9269     		ldr	r2, [r2, #24]
 745 0040 42F48042 		orr	r2, r2, #16384
 746 0044 9A61     		str	r2, [r3, #24]
 747              		.loc 1 425 0
 748 0046 4FF02500 		mov	r0, #37
 749 004a 4FF0C001 		mov	r1, #192
 750 004e FFF7FEFF 		bl	nvicEnableVector
 751              	.L26:
 752              		.loc 1 430 0
 753 0052 019A     		ldr	r2, [sp, #4]
 754 0054 40F20003 		movw	r3, #:lower16:SD2
 755 0058 C0F20003 		movt	r3, #:upper16:SD2
 756 005c 9A42     		cmp	r2, r3
 757 005e 11D1     		bne	.L25
 758              		.loc 1 431 0
 759 0060 4FF48053 		mov	r3, #4096
 760 0064 C4F20203 		movt	r3, 16386
 761 0068 4FF48052 		mov	r2, #4096
 762 006c C4F20202 		movt	r2, 16386
 763 0070 D269     		ldr	r2, [r2, #28]
 764 0072 42F40032 		orr	r2, r2, #131072
 765 0076 DA61     		str	r2, [r3, #28]
 766              		.loc 1 432 0
 767 0078 4FF02600 		mov	r0, #38
 768 007c 4FF0C001 		mov	r1, #192
 769 0080 FFF7FEFF 		bl	nvicEnableVector
 770              	.L25:
 771              		.loc 1 465 0
 772 0084 0198     		ldr	r0, [sp, #4]
 773 0086 0099     		ldr	r1, [sp, #0]
 774 0088 FFF7FEFF 		bl	usart_init
 775              		.loc 1 466 0
 776 008c 03B0     		add	sp, sp, #12
 777 008e 00BD     		pop	{pc}
 778              		.cfi_endproc
 779              	.LFE71:
 780              		.size	sd_lld_start, .-sd_lld_start
ARM GAS  C:\Users\z80\AppData\Local\Temp\ccRodHvf.s 			page 15


 781              		.section	.text.sd_lld_stop,"ax",%progbits
 782              		.align	2
 783              		.p2align 4,,15
 784              		.global	sd_lld_stop
 785              		.thumb
 786              		.thumb_func
 787              		.type	sd_lld_stop, %function
 788              	sd_lld_stop:
 789              	.LFB72:
 790              		.loc 1 477 0
 791              		.cfi_startproc
 792              		@ args = 0, pretend = 0, frame = 8
 793              		@ frame_needed = 0, uses_anonymous_args = 0
 794 0000 00B5     		push	{lr}
 795              	.LCFI13:
 796              		.cfi_def_cfa_offset 4
 797 0002 83B0     		sub	sp, sp, #12
 798              	.LCFI14:
 799              		.cfi_def_cfa_offset 16
 800 0004 0190     		str	r0, [sp, #4]
 801              		.loc 1 479 0
 802 0006 019B     		ldr	r3, [sp, #4]
 803 0008 1B7B     		ldrb	r3, [r3, #12]	@ zero_extendqisi2
 804 000a 022B     		cmp	r3, #2
 805 000c 35D1     		bne	.L27
 806              		.cfi_offset 14, -4
 807              		.loc 1 480 0
 808 000e 019B     		ldr	r3, [sp, #4]
 809 0010 D3F85034 		ldr	r3, [r3, #1104]
 810 0014 1846     		mov	r0, r3
 811 0016 FFF7FEFF 		bl	usart_deinit
 812              		.loc 1 482 0
 813 001a 019A     		ldr	r2, [sp, #4]
 814 001c 40F20003 		movw	r3, #:lower16:SD1
 815 0020 C0F20003 		movt	r3, #:upper16:SD1
 816 0024 9A42     		cmp	r2, r3
 817 0026 10D1     		bne	.L29
 818              		.loc 1 483 0
 819 0028 4FF48053 		mov	r3, #4096
 820 002c C4F20203 		movt	r3, 16386
 821 0030 4FF48052 		mov	r2, #4096
 822 0034 C4F20202 		movt	r2, 16386
 823 0038 9269     		ldr	r2, [r2, #24]
 824 003a 22F48042 		bic	r2, r2, #16384
 825 003e 9A61     		str	r2, [r3, #24]
 826              		.loc 1 484 0
 827 0040 4FF02500 		mov	r0, #37
 828 0044 FFF7FEFF 		bl	nvicDisableVector
 829              		.loc 1 485 0
 830 0048 17E0     		b	.L27
 831              	.L29:
 832              		.loc 1 489 0
 833 004a 019A     		ldr	r2, [sp, #4]
 834 004c 40F20003 		movw	r3, #:lower16:SD2
 835 0050 C0F20003 		movt	r3, #:upper16:SD2
 836 0054 9A42     		cmp	r2, r3
 837 0056 10D1     		bne	.L27
ARM GAS  C:\Users\z80\AppData\Local\Temp\ccRodHvf.s 			page 16


 838              		.loc 1 490 0
 839 0058 4FF48053 		mov	r3, #4096
 840 005c C4F20203 		movt	r3, 16386
 841 0060 4FF48052 		mov	r2, #4096
 842 0064 C4F20202 		movt	r2, 16386
 843 0068 D269     		ldr	r2, [r2, #28]
 844 006a 22F40032 		bic	r2, r2, #131072
 845 006e DA61     		str	r2, [r3, #28]
 846              		.loc 1 491 0
 847 0070 4FF02600 		mov	r0, #38
 848 0074 FFF7FEFF 		bl	nvicDisableVector
 849              		.loc 1 492 0
 850 0078 00BF     		nop
 851              	.L27:
 852              		.loc 1 524 0
 853 007a 03B0     		add	sp, sp, #12
 854 007c 00BD     		pop	{pc}
 855              		.cfi_endproc
 856              	.LFE72:
 857              		.size	sd_lld_stop, .-sd_lld_stop
 858 007e 00BF     		.text
 859              	.Letext0:
 860              		.section	.debug_loc,"",%progbits
 861              	.Ldebug_loc0:
 862              	.LLST0:
 863 0000 00000000 		.4byte	.LFB62
 864 0004 02000000 		.4byte	.LCFI0
 865 0008 0200     		.2byte	0x2
 866 000a 7D       		.byte	0x7d
 867 000b 00       		.sleb128 0
 868 000c 02000000 		.4byte	.LCFI0
 869 0010 90000000 		.4byte	.LFE62
 870 0014 0200     		.2byte	0x2
 871 0016 7D       		.byte	0x7d
 872 0017 10       		.sleb128 16
 873 0018 00000000 		.4byte	0x0
 874 001c 00000000 		.4byte	0x0
 875              	.LLST1:
 876 0020 00000000 		.4byte	.LFB63
 877 0024 02000000 		.4byte	.LCFI1
 878 0028 0200     		.2byte	0x2
 879 002a 7D       		.byte	0x7d
 880 002b 00       		.sleb128 0
 881 002c 02000000 		.4byte	.LCFI1
 882 0030 20000000 		.4byte	.LFE63
 883 0034 0200     		.2byte	0x2
 884 0036 7D       		.byte	0x7d
 885 0037 08       		.sleb128 8
 886 0038 00000000 		.4byte	0x0
 887 003c 00000000 		.4byte	0x0
 888              	.LLST2:
 889 0040 00000000 		.4byte	.LFB64
 890 0044 02000000 		.4byte	.LCFI2
 891 0048 0200     		.2byte	0x2
 892 004a 7D       		.byte	0x7d
 893 004b 00       		.sleb128 0
 894 004c 02000000 		.4byte	.LCFI2
ARM GAS  C:\Users\z80\AppData\Local\Temp\ccRodHvf.s 			page 17


 895 0050 04000000 		.4byte	.LCFI3
 896 0054 0200     		.2byte	0x2
 897 0056 7D       		.byte	0x7d
 898 0057 04       		.sleb128 4
 899 0058 04000000 		.4byte	.LCFI3
 900 005c 9E000000 		.4byte	.LFE64
 901 0060 0200     		.2byte	0x2
 902 0062 7D       		.byte	0x7d
 903 0063 18       		.sleb128 24
 904 0064 00000000 		.4byte	0x0
 905 0068 00000000 		.4byte	0x0
 906              	.LLST3:
 907 006c 00000000 		.4byte	.LFB65
 908 0070 02000000 		.4byte	.LCFI4
 909 0074 0200     		.2byte	0x2
 910 0076 7D       		.byte	0x7d
 911 0077 00       		.sleb128 0
 912 0078 02000000 		.4byte	.LCFI4
 913 007c 04000000 		.4byte	.LCFI5
 914 0080 0200     		.2byte	0x2
 915 0082 7D       		.byte	0x7d
 916 0083 04       		.sleb128 4
 917 0084 04000000 		.4byte	.LCFI5
 918 0088 A4010000 		.4byte	.LFE65
 919 008c 0200     		.2byte	0x2
 920 008e 7D       		.byte	0x7d
 921 008f 20       		.sleb128 32
 922 0090 00000000 		.4byte	0x0
 923 0094 00000000 		.4byte	0x0
 924              	.LLST4:
 925 0098 00000000 		.4byte	.LFB66
 926 009c 02000000 		.4byte	.LCFI6
 927 00a0 0200     		.2byte	0x2
 928 00a2 7D       		.byte	0x7d
 929 00a3 00       		.sleb128 0
 930 00a4 02000000 		.4byte	.LCFI6
 931 00a8 24000000 		.4byte	.LFE66
 932 00ac 0200     		.2byte	0x2
 933 00ae 7D       		.byte	0x7d
 934 00af 08       		.sleb128 8
 935 00b0 00000000 		.4byte	0x0
 936 00b4 00000000 		.4byte	0x0
 937              	.LLST5:
 938 00b8 00000000 		.4byte	.LFB67
 939 00bc 02000000 		.4byte	.LCFI7
 940 00c0 0200     		.2byte	0x2
 941 00c2 7D       		.byte	0x7d
 942 00c3 00       		.sleb128 0
 943 00c4 02000000 		.4byte	.LCFI7
 944 00c8 24000000 		.4byte	.LFE67
 945 00cc 0200     		.2byte	0x2
 946 00ce 7D       		.byte	0x7d
 947 00cf 08       		.sleb128 8
 948 00d0 00000000 		.4byte	0x0
 949 00d4 00000000 		.4byte	0x0
 950              	.LLST6:
 951 00d8 00000000 		.4byte	.LFB68
ARM GAS  C:\Users\z80\AppData\Local\Temp\ccRodHvf.s 			page 18


 952 00dc 02000000 		.4byte	.LCFI8
 953 00e0 0200     		.2byte	0x2
 954 00e2 7D       		.byte	0x7d
 955 00e3 00       		.sleb128 0
 956 00e4 02000000 		.4byte	.LCFI8
 957 00e8 1C000000 		.4byte	.LFE68
 958 00ec 0200     		.2byte	0x2
 959 00ee 7D       		.byte	0x7d
 960 00ef 08       		.sleb128 8
 961 00f0 00000000 		.4byte	0x0
 962 00f4 00000000 		.4byte	0x0
 963              	.LLST7:
 964 00f8 00000000 		.4byte	.LFB69
 965 00fc 02000000 		.4byte	.LCFI9
 966 0100 0200     		.2byte	0x2
 967 0102 7D       		.byte	0x7d
 968 0103 00       		.sleb128 0
 969 0104 02000000 		.4byte	.LCFI9
 970 0108 1C000000 		.4byte	.LFE69
 971 010c 0200     		.2byte	0x2
 972 010e 7D       		.byte	0x7d
 973 010f 08       		.sleb128 8
 974 0110 00000000 		.4byte	0x0
 975 0114 00000000 		.4byte	0x0
 976              	.LLST8:
 977 0118 00000000 		.4byte	.LFB70
 978 011c 02000000 		.4byte	.LCFI10
 979 0120 0200     		.2byte	0x2
 980 0122 7D       		.byte	0x7d
 981 0123 00       		.sleb128 0
 982 0124 02000000 		.4byte	.LCFI10
 983 0128 5C000000 		.4byte	.LFE70
 984 012c 0200     		.2byte	0x2
 985 012e 7D       		.byte	0x7d
 986 012f 08       		.sleb128 8
 987 0130 00000000 		.4byte	0x0
 988 0134 00000000 		.4byte	0x0
 989              	.LLST9:
 990 0138 00000000 		.4byte	.LFB71
 991 013c 02000000 		.4byte	.LCFI11
 992 0140 0200     		.2byte	0x2
 993 0142 7D       		.byte	0x7d
 994 0143 00       		.sleb128 0
 995 0144 02000000 		.4byte	.LCFI11
 996 0148 04000000 		.4byte	.LCFI12
 997 014c 0200     		.2byte	0x2
 998 014e 7D       		.byte	0x7d
 999 014f 04       		.sleb128 4
 1000 0150 04000000 		.4byte	.LCFI12
 1001 0154 90000000 		.4byte	.LFE71
 1002 0158 0200     		.2byte	0x2
 1003 015a 7D       		.byte	0x7d
 1004 015b 10       		.sleb128 16
 1005 015c 00000000 		.4byte	0x0
 1006 0160 00000000 		.4byte	0x0
 1007              	.LLST10:
 1008 0164 00000000 		.4byte	.LFB72
ARM GAS  C:\Users\z80\AppData\Local\Temp\ccRodHvf.s 			page 19


 1009 0168 02000000 		.4byte	.LCFI13
 1010 016c 0200     		.2byte	0x2
 1011 016e 7D       		.byte	0x7d
 1012 016f 00       		.sleb128 0
 1013 0170 02000000 		.4byte	.LCFI13
 1014 0174 04000000 		.4byte	.LCFI14
 1015 0178 0200     		.2byte	0x2
 1016 017a 7D       		.byte	0x7d
 1017 017b 04       		.sleb128 4
 1018 017c 04000000 		.4byte	.LCFI14
 1019 0180 7E000000 		.4byte	.LFE72
 1020 0184 0200     		.2byte	0x2
 1021 0186 7D       		.byte	0x7d
 1022 0187 10       		.sleb128 16
 1023 0188 00000000 		.4byte	0x0
 1024 018c 00000000 		.4byte	0x0
 1025              		.file 2 "c:\\programs\\yagarto\\bin\\../lib/gcc/arm-none-eabi/4.5.0/include/stddef.h"
 1026              		.file 3 "c:/programs/yagarto/lib/gcc/../../arm-none-eabi/sys-include/stdint.h"
 1027              		.file 4 "../chibios_2.4.x/os/ports/GCC/ARMCMx/chtypes.h"
 1028              		.file 5 "../chibios_2.4.x/os/kernel/include/chlists.h"
 1029              		.file 6 "../chibios_2.4.x/os/kernel/include/chthreads.h"
 1030              		.file 7 "../chibios_2.4.x/os/ports/GCC/ARMCMx/chcore_v7m.h"
 1031              		.file 8 "../chibios_2.4.x/os/kernel/include/chmtx.h"
 1032              		.file 9 "../chibios_2.4.x/os/kernel/include/chevents.h"
 1033              		.file 10 "../chibios_2.4.x/os/kernel/include/chqueues.h"
 1034              		.file 11 "../chibios_2.4.x/os/kernel/include/chioch.h"
 1035              		.file 12 "../chibios_2.4.x/os/hal/platforms/STM32F1xx/stm32f10x.h"
 1036              		.file 13 "../chibios_2.4.x/os/hal/include/serial.h"
 1037              		.file 14 "../chibios_2.4.x/os/hal/platforms/STM32/serial_lld.h"
 1038              		.file 15 "../chibios_2.4.x/os/ports/common/ARMCMx/CMSIS/include/core_cm3.h"
 1039              		.section	.debug_info
 1040 0000 2D0E0000 		.4byte	0xe2d
 1041 0004 0200     		.2byte	0x2
 1042 0006 00000000 		.4byte	.Ldebug_abbrev0
 1043 000a 04       		.byte	0x4
 1044 000b 01       		.uleb128 0x1
 1045 000c 5B070000 		.4byte	.LASF180
 1046 0010 01       		.byte	0x1
 1047 0011 30050000 		.4byte	.LASF181
 1048 0015 CF030000 		.4byte	.LASF182
 1049 0019 00000000 		.4byte	0x0
 1050 001d 00000000 		.4byte	0x0
 1051 0021 00000000 		.4byte	.Ldebug_ranges0+0x0
 1052 0025 00000000 		.4byte	.Ldebug_line0
 1053 0029 02       		.uleb128 0x2
 1054 002a 04       		.byte	0x4
 1055 002b 05       		.byte	0x5
 1056 002c 696E7400 		.ascii	"int\000"
 1057 0030 03       		.uleb128 0x3
 1058 0031 12000000 		.4byte	.LASF2
 1059 0035 02       		.byte	0x2
 1060 0036 D3       		.byte	0xd3
 1061 0037 3B000000 		.4byte	0x3b
 1062 003b 04       		.uleb128 0x4
 1063 003c 04       		.byte	0x4
 1064 003d 07       		.byte	0x7
 1065 003e 11020000 		.4byte	.LASF0
ARM GAS  C:\Users\z80\AppData\Local\Temp\ccRodHvf.s 			page 20


 1066 0042 04       		.uleb128 0x4
 1067 0043 01       		.byte	0x1
 1068 0044 06       		.byte	0x6
 1069 0045 05010000 		.4byte	.LASF1
 1070 0049 03       		.uleb128 0x3
 1071 004a 34070000 		.4byte	.LASF3
 1072 004e 03       		.byte	0x3
 1073 004f 2A       		.byte	0x2a
 1074 0050 54000000 		.4byte	0x54
 1075 0054 04       		.uleb128 0x4
 1076 0055 01       		.byte	0x1
 1077 0056 08       		.byte	0x8
 1078 0057 C5040000 		.4byte	.LASF4
 1079 005b 04       		.uleb128 0x4
 1080 005c 02       		.byte	0x2
 1081 005d 05       		.byte	0x5
 1082 005e 1E050000 		.4byte	.LASF5
 1083 0062 03       		.uleb128 0x3
 1084 0063 1E020000 		.4byte	.LASF6
 1085 0067 03       		.byte	0x3
 1086 0068 36       		.byte	0x36
 1087 0069 6D000000 		.4byte	0x6d
 1088 006d 04       		.uleb128 0x4
 1089 006e 02       		.byte	0x2
 1090 006f 07       		.byte	0x7
 1091 0070 8B020000 		.4byte	.LASF7
 1092 0074 03       		.uleb128 0x3
 1093 0075 BD040000 		.4byte	.LASF8
 1094 0079 03       		.byte	0x3
 1095 007a 4F       		.byte	0x4f
 1096 007b 7F000000 		.4byte	0x7f
 1097 007f 04       		.uleb128 0x4
 1098 0080 04       		.byte	0x4
 1099 0081 05       		.byte	0x5
 1100 0082 4F010000 		.4byte	.LASF9
 1101 0086 03       		.uleb128 0x3
 1102 0087 D0050000 		.4byte	.LASF10
 1103 008b 03       		.byte	0x3
 1104 008c 50       		.byte	0x50
 1105 008d 91000000 		.4byte	0x91
 1106 0091 04       		.uleb128 0x4
 1107 0092 04       		.byte	0x4
 1108 0093 07       		.byte	0x7
 1109 0094 02060000 		.4byte	.LASF11
 1110 0098 04       		.uleb128 0x4
 1111 0099 08       		.byte	0x8
 1112 009a 05       		.byte	0x5
 1113 009b F7000000 		.4byte	.LASF12
 1114 009f 03       		.uleb128 0x3
 1115 00a0 20000000 		.4byte	.LASF13
 1116 00a4 03       		.byte	0x3
 1117 00a5 78       		.byte	0x78
 1118 00a6 AA000000 		.4byte	0xaa
 1119 00aa 04       		.uleb128 0x4
 1120 00ab 08       		.byte	0x8
 1121 00ac 07       		.byte	0x7
 1122 00ad 77000000 		.4byte	.LASF14
ARM GAS  C:\Users\z80\AppData\Local\Temp\ccRodHvf.s 			page 21


 1123 00b1 03       		.uleb128 0x3
 1124 00b2 69000000 		.4byte	.LASF15
 1125 00b6 03       		.byte	0x3
 1126 00b7 A6       		.byte	0xa6
 1127 00b8 3B000000 		.4byte	0x3b
 1128 00bc 03       		.uleb128 0x3
 1129 00bd D9000000 		.4byte	.LASF16
 1130 00c1 04       		.byte	0x4
 1131 00c2 2E       		.byte	0x2e
 1132 00c3 74000000 		.4byte	0x74
 1133 00c7 03       		.uleb128 0x3
 1134 00c8 EB020000 		.4byte	.LASF17
 1135 00cc 04       		.byte	0x4
 1136 00cd 2F       		.byte	0x2f
 1137 00ce 49000000 		.4byte	0x49
 1138 00d2 03       		.uleb128 0x3
 1139 00d3 6D010000 		.4byte	.LASF18
 1140 00d7 04       		.byte	0x4
 1141 00d8 30       		.byte	0x30
 1142 00d9 49000000 		.4byte	0x49
 1143 00dd 03       		.uleb128 0x3
 1144 00de 8F040000 		.4byte	.LASF19
 1145 00e2 04       		.byte	0x4
 1146 00e3 32       		.byte	0x32
 1147 00e4 86000000 		.4byte	0x86
 1148 00e8 03       		.uleb128 0x3
 1149 00e9 B0020000 		.4byte	.LASF20
 1150 00ed 04       		.byte	0x4
 1151 00ee 33       		.byte	0x33
 1152 00ef 74000000 		.4byte	0x74
 1153 00f3 03       		.uleb128 0x3
 1154 00f4 FF020000 		.4byte	.LASF21
 1155 00f8 04       		.byte	0x4
 1156 00f9 35       		.byte	0x35
 1157 00fa 86000000 		.4byte	0x86
 1158 00fe 03       		.uleb128 0x3
 1159 00ff 56060000 		.4byte	.LASF22
 1160 0103 04       		.byte	0x4
 1161 0104 36       		.byte	0x36
 1162 0105 86000000 		.4byte	0x86
 1163 0109 03       		.uleb128 0x3
 1164 010a 8F050000 		.4byte	.LASF23
 1165 010e 05       		.byte	0x5
 1166 010f 2A       		.byte	0x2a
 1167 0110 14010000 		.4byte	0x114
 1168 0114 05       		.uleb128 0x5
 1169 0115 8F050000 		.4byte	.LASF23
 1170 0119 48       		.byte	0x48
 1171 011a 06       		.byte	0x6
 1172 011b 5E       		.byte	0x5e
 1173 011c 1D020000 		.4byte	0x21d
 1174 0120 06       		.uleb128 0x6
 1175 0121 9C030000 		.4byte	.LASF24
 1176 0125 06       		.byte	0x6
 1177 0126 5F       		.byte	0x5f
 1178 0127 42020000 		.4byte	0x242
 1179 012b 02       		.byte	0x2
ARM GAS  C:\Users\z80\AppData\Local\Temp\ccRodHvf.s 			page 22


 1180 012c 23       		.byte	0x23
 1181 012d 00       		.uleb128 0x0
 1182 012e 06       		.uleb128 0x6
 1183 012f 7E040000 		.4byte	.LASF25
 1184 0133 06       		.byte	0x6
 1185 0134 61       		.byte	0x61
 1186 0135 42020000 		.4byte	0x242
 1187 0139 02       		.byte	0x2
 1188 013a 23       		.byte	0x23
 1189 013b 04       		.uleb128 0x4
 1190 013c 06       		.uleb128 0x6
 1191 013d E0000000 		.4byte	.LASF26
 1192 0141 06       		.byte	0x6
 1193 0142 63       		.byte	0x63
 1194 0143 DD000000 		.4byte	0xdd
 1195 0147 02       		.byte	0x2
 1196 0148 23       		.byte	0x23
 1197 0149 08       		.uleb128 0x8
 1198 014a 06       		.uleb128 0x6
 1199 014b DF070000 		.4byte	.LASF27
 1200 014f 06       		.byte	0x6
 1201 0150 64       		.byte	0x64
 1202 0151 1A030000 		.4byte	0x31a
 1203 0155 02       		.byte	0x2
 1204 0156 23       		.byte	0x23
 1205 0157 0C       		.uleb128 0xc
 1206 0158 06       		.uleb128 0x6
 1207 0159 B3010000 		.4byte	.LASF28
 1208 015d 06       		.byte	0x6
 1209 015e 66       		.byte	0x66
 1210 015f 42020000 		.4byte	0x242
 1211 0163 02       		.byte	0x2
 1212 0164 23       		.byte	0x23
 1213 0165 10       		.uleb128 0x10
 1214 0166 06       		.uleb128 0x6
 1215 0167 28050000 		.4byte	.LASF29
 1216 016b 06       		.byte	0x6
 1217 016c 67       		.byte	0x67
 1218 016d 42020000 		.4byte	0x242
 1219 0171 02       		.byte	0x2
 1220 0172 23       		.byte	0x23
 1221 0173 14       		.uleb128 0x14
 1222 0174 06       		.uleb128 0x6
 1223 0175 92060000 		.4byte	.LASF30
 1224 0179 06       		.byte	0x6
 1225 017a 6E       		.byte	0x6e
 1226 017b 35040000 		.4byte	0x435
 1227 017f 02       		.byte	0x2
 1228 0180 23       		.byte	0x23
 1229 0181 18       		.uleb128 0x18
 1230 0182 06       		.uleb128 0x6
 1231 0183 74060000 		.4byte	.LASF31
 1232 0187 06       		.byte	0x6
 1233 0188 74       		.byte	0x74
 1234 0189 47040000 		.4byte	0x447
 1235 018d 02       		.byte	0x2
 1236 018e 23       		.byte	0x23
ARM GAS  C:\Users\z80\AppData\Local\Temp\ccRodHvf.s 			page 23


 1237 018f 1C       		.uleb128 0x1c
 1238 0190 06       		.uleb128 0x6
 1239 0191 16010000 		.4byte	.LASF32
 1240 0195 06       		.byte	0x6
 1241 0196 79       		.byte	0x79
 1242 0197 D2000000 		.4byte	0xd2
 1243 019b 02       		.byte	0x2
 1244 019c 23       		.byte	0x23
 1245 019d 20       		.uleb128 0x20
 1246 019e 06       		.uleb128 0x6
 1247 019f 6C050000 		.4byte	.LASF33
 1248 01a3 06       		.byte	0x6
 1249 01a4 7D       		.byte	0x7d
 1250 01a5 C7000000 		.4byte	0xc7
 1251 01a9 02       		.byte	0x2
 1252 01aa 23       		.byte	0x23
 1253 01ab 21       		.uleb128 0x21
 1254 01ac 06       		.uleb128 0x6
 1255 01ad 37020000 		.4byte	.LASF34
 1256 01b1 06       		.byte	0x6
 1257 01b2 89       		.byte	0x89
 1258 01b3 45030000 		.4byte	0x345
 1259 01b7 02       		.byte	0x2
 1260 01b8 23       		.byte	0x23
 1261 01b9 24       		.uleb128 0x24
 1262 01ba 07       		.uleb128 0x7
 1263 01bb 705F7500 		.ascii	"p_u\000"
 1264 01bf 06       		.byte	0x6
 1265 01c0 AE       		.byte	0xae
 1266 01c1 00040000 		.4byte	0x400
 1267 01c5 02       		.byte	0x2
 1268 01c6 23       		.byte	0x23
 1269 01c7 28       		.uleb128 0x28
 1270 01c8 06       		.uleb128 0x6
 1271 01c9 E5070000 		.4byte	.LASF35
 1272 01cd 06       		.byte	0x6
 1273 01ce B3       		.byte	0xb3
 1274 01cf 6A020000 		.4byte	0x26a
 1275 01d3 02       		.byte	0x2
 1276 01d4 23       		.byte	0x23
 1277 01d5 2C       		.uleb128 0x2c
 1278 01d6 06       		.uleb128 0x6
 1279 01d7 5B020000 		.4byte	.LASF36
 1280 01db 06       		.byte	0x6
 1281 01dc B9       		.byte	0xb9
 1282 01dd 48020000 		.4byte	0x248
 1283 01e1 02       		.byte	0x2
 1284 01e2 23       		.byte	0x23
 1285 01e3 30       		.uleb128 0x30
 1286 01e4 06       		.uleb128 0x6
 1287 01e5 2E070000 		.4byte	.LASF37
 1288 01e9 06       		.byte	0x6
 1289 01ea BD       		.byte	0xbd
 1290 01eb E8000000 		.4byte	0xe8
 1291 01ef 02       		.byte	0x2
 1292 01f0 23       		.byte	0x23
 1293 01f1 38       		.uleb128 0x38
ARM GAS  C:\Users\z80\AppData\Local\Temp\ccRodHvf.s 			page 24


 1294 01f2 06       		.uleb128 0x6
 1295 01f3 B1050000 		.4byte	.LASF38
 1296 01f7 06       		.byte	0x6
 1297 01f8 C3       		.byte	0xc3
 1298 01f9 F3000000 		.4byte	0xf3
 1299 01fd 02       		.byte	0x2
 1300 01fe 23       		.byte	0x23
 1301 01ff 3C       		.uleb128 0x3c
 1302 0200 06       		.uleb128 0x6
 1303 0201 14050000 		.4byte	.LASF39
 1304 0205 06       		.byte	0x6
 1305 0206 CA       		.byte	0xca
 1306 0207 4D040000 		.4byte	0x44d
 1307 020b 02       		.byte	0x2
 1308 020c 23       		.byte	0x23
 1309 020d 40       		.uleb128 0x40
 1310 020e 06       		.uleb128 0x6
 1311 020f D4010000 		.4byte	.LASF40
 1312 0213 06       		.byte	0x6
 1313 0214 CE       		.byte	0xce
 1314 0215 DD000000 		.4byte	0xdd
 1315 0219 02       		.byte	0x2
 1316 021a 23       		.byte	0x23
 1317 021b 44       		.uleb128 0x44
 1318 021c 00       		.byte	0x0
 1319 021d 08       		.uleb128 0x8
 1320 021e 08       		.byte	0x8
 1321 021f 05       		.byte	0x5
 1322 0220 61       		.byte	0x61
 1323 0221 42020000 		.4byte	0x242
 1324 0225 06       		.uleb128 0x6
 1325 0226 9C030000 		.4byte	.LASF24
 1326 022a 05       		.byte	0x5
 1327 022b 62       		.byte	0x62
 1328 022c 42020000 		.4byte	0x242
 1329 0230 02       		.byte	0x2
 1330 0231 23       		.byte	0x23
 1331 0232 00       		.uleb128 0x0
 1332 0233 06       		.uleb128 0x6
 1333 0234 7E040000 		.4byte	.LASF25
 1334 0238 05       		.byte	0x5
 1335 0239 64       		.byte	0x64
 1336 023a 42020000 		.4byte	0x242
 1337 023e 02       		.byte	0x2
 1338 023f 23       		.byte	0x23
 1339 0240 04       		.uleb128 0x4
 1340 0241 00       		.byte	0x0
 1341 0242 09       		.uleb128 0x9
 1342 0243 04       		.byte	0x4
 1343 0244 09010000 		.4byte	0x109
 1344 0248 03       		.uleb128 0x3
 1345 0249 C2030000 		.4byte	.LASF41
 1346 024d 05       		.byte	0x5
 1347 024e 66       		.byte	0x66
 1348 024f 1D020000 		.4byte	0x21d
 1349 0253 08       		.uleb128 0x8
 1350 0254 04       		.byte	0x4
ARM GAS  C:\Users\z80\AppData\Local\Temp\ccRodHvf.s 			page 25


 1351 0255 05       		.byte	0x5
 1352 0256 6B       		.byte	0x6b
 1353 0257 6A020000 		.4byte	0x26a
 1354 025b 06       		.uleb128 0x6
 1355 025c 9C030000 		.4byte	.LASF24
 1356 0260 05       		.byte	0x5
 1357 0261 6D       		.byte	0x6d
 1358 0262 42020000 		.4byte	0x242
 1359 0266 02       		.byte	0x2
 1360 0267 23       		.byte	0x23
 1361 0268 00       		.uleb128 0x0
 1362 0269 00       		.byte	0x0
 1363 026a 03       		.uleb128 0x3
 1364 026b F3020000 		.4byte	.LASF42
 1365 026f 05       		.byte	0x5
 1366 0270 70       		.byte	0x70
 1367 0271 53020000 		.4byte	0x253
 1368 0275 03       		.uleb128 0x3
 1369 0276 DF010000 		.4byte	.LASF43
 1370 027a 07       		.byte	0x7
 1371 027b D7       		.byte	0xd7
 1372 027c 80020000 		.4byte	0x280
 1373 0280 0A       		.uleb128 0xa
 1374 0281 04       		.byte	0x4
 1375 0282 03       		.uleb128 0x3
 1376 0283 4A030000 		.4byte	.LASF44
 1377 0287 07       		.byte	0x7
 1378 0288 DD       		.byte	0xdd
 1379 0289 9F000000 		.4byte	0x9f
 1380 028d 05       		.uleb128 0x5
 1381 028e BE060000 		.4byte	.LASF45
 1382 0292 24       		.byte	0x24
 1383 0293 07       		.byte	0x7
 1384 0294 FE       		.byte	0xfe
 1385 0295 1A030000 		.4byte	0x31a
 1386 0299 0B       		.uleb128 0xb
 1387 029a 723400   		.ascii	"r4\000"
 1388 029d 07       		.byte	0x7
 1389 029e 1101     		.2byte	0x111
 1390 02a0 75020000 		.4byte	0x275
 1391 02a4 02       		.byte	0x2
 1392 02a5 23       		.byte	0x23
 1393 02a6 00       		.uleb128 0x0
 1394 02a7 0B       		.uleb128 0xb
 1395 02a8 723500   		.ascii	"r5\000"
 1396 02ab 07       		.byte	0x7
 1397 02ac 1201     		.2byte	0x112
 1398 02ae 75020000 		.4byte	0x275
 1399 02b2 02       		.byte	0x2
 1400 02b3 23       		.byte	0x23
 1401 02b4 04       		.uleb128 0x4
 1402 02b5 0B       		.uleb128 0xb
 1403 02b6 723600   		.ascii	"r6\000"
 1404 02b9 07       		.byte	0x7
 1405 02ba 1301     		.2byte	0x113
 1406 02bc 75020000 		.4byte	0x275
 1407 02c0 02       		.byte	0x2
ARM GAS  C:\Users\z80\AppData\Local\Temp\ccRodHvf.s 			page 26


 1408 02c1 23       		.byte	0x23
 1409 02c2 08       		.uleb128 0x8
 1410 02c3 0B       		.uleb128 0xb
 1411 02c4 723700   		.ascii	"r7\000"
 1412 02c7 07       		.byte	0x7
 1413 02c8 1401     		.2byte	0x114
 1414 02ca 75020000 		.4byte	0x275
 1415 02ce 02       		.byte	0x2
 1416 02cf 23       		.byte	0x23
 1417 02d0 0C       		.uleb128 0xc
 1418 02d1 0B       		.uleb128 0xb
 1419 02d2 723800   		.ascii	"r8\000"
 1420 02d5 07       		.byte	0x7
 1421 02d6 1501     		.2byte	0x115
 1422 02d8 75020000 		.4byte	0x275
 1423 02dc 02       		.byte	0x2
 1424 02dd 23       		.byte	0x23
 1425 02de 10       		.uleb128 0x10
 1426 02df 0B       		.uleb128 0xb
 1427 02e0 723900   		.ascii	"r9\000"
 1428 02e3 07       		.byte	0x7
 1429 02e4 1601     		.2byte	0x116
 1430 02e6 75020000 		.4byte	0x275
 1431 02ea 02       		.byte	0x2
 1432 02eb 23       		.byte	0x23
 1433 02ec 14       		.uleb128 0x14
 1434 02ed 0B       		.uleb128 0xb
 1435 02ee 72313000 		.ascii	"r10\000"
 1436 02f2 07       		.byte	0x7
 1437 02f3 1701     		.2byte	0x117
 1438 02f5 75020000 		.4byte	0x275
 1439 02f9 02       		.byte	0x2
 1440 02fa 23       		.byte	0x23
 1441 02fb 18       		.uleb128 0x18
 1442 02fc 0B       		.uleb128 0xb
 1443 02fd 72313100 		.ascii	"r11\000"
 1444 0301 07       		.byte	0x7
 1445 0302 1801     		.2byte	0x118
 1446 0304 75020000 		.4byte	0x275
 1447 0308 02       		.byte	0x2
 1448 0309 23       		.byte	0x23
 1449 030a 1C       		.uleb128 0x1c
 1450 030b 0B       		.uleb128 0xb
 1451 030c 6C7200   		.ascii	"lr\000"
 1452 030f 07       		.byte	0x7
 1453 0310 1901     		.2byte	0x119
 1454 0312 75020000 		.4byte	0x275
 1455 0316 02       		.byte	0x2
 1456 0317 23       		.byte	0x23
 1457 0318 20       		.uleb128 0x20
 1458 0319 00       		.byte	0x0
 1459 031a 0C       		.uleb128 0xc
 1460 031b B6060000 		.4byte	.LASF46
 1461 031f 04       		.byte	0x4
 1462 0320 07       		.byte	0x7
 1463 0321 2301     		.2byte	0x123
 1464 0323 37030000 		.4byte	0x337
ARM GAS  C:\Users\z80\AppData\Local\Temp\ccRodHvf.s 			page 27


 1465 0327 0B       		.uleb128 0xb
 1466 0328 72313300 		.ascii	"r13\000"
 1467 032c 07       		.byte	0x7
 1468 032d 2401     		.2byte	0x124
 1469 032f 37030000 		.4byte	0x337
 1470 0333 02       		.byte	0x2
 1471 0334 23       		.byte	0x23
 1472 0335 00       		.uleb128 0x0
 1473 0336 00       		.byte	0x0
 1474 0337 09       		.uleb128 0x9
 1475 0338 04       		.byte	0x4
 1476 0339 8D020000 		.4byte	0x28d
 1477 033d 0D       		.uleb128 0xd
 1478 033e 86000000 		.4byte	0x86
 1479 0342 0E       		.uleb128 0xe
 1480 0343 04       		.byte	0x4
 1481 0344 07       		.byte	0x7
 1482 0345 0D       		.uleb128 0xd
 1483 0346 FE000000 		.4byte	0xfe
 1484 034a 05       		.uleb128 0x5
 1485 034b 96030000 		.4byte	.LASF47
 1486 034f 10       		.byte	0x10
 1487 0350 08       		.byte	0x8
 1488 0351 2C       		.byte	0x2c
 1489 0352 81030000 		.4byte	0x381
 1490 0356 06       		.uleb128 0x6
 1491 0357 26010000 		.4byte	.LASF48
 1492 035b 08       		.byte	0x8
 1493 035c 2D       		.byte	0x2d
 1494 035d 48020000 		.4byte	0x248
 1495 0361 02       		.byte	0x2
 1496 0362 23       		.byte	0x23
 1497 0363 00       		.uleb128 0x0
 1498 0364 06       		.uleb128 0x6
 1499 0365 CE070000 		.4byte	.LASF49
 1500 0369 08       		.byte	0x8
 1501 036a 2F       		.byte	0x2f
 1502 036b 42020000 		.4byte	0x242
 1503 036f 02       		.byte	0x2
 1504 0370 23       		.byte	0x23
 1505 0371 08       		.uleb128 0x8
 1506 0372 06       		.uleb128 0x6
 1507 0373 4F060000 		.4byte	.LASF50
 1508 0377 08       		.byte	0x8
 1509 0378 31       		.byte	0x31
 1510 0379 81030000 		.4byte	0x381
 1511 037d 02       		.byte	0x2
 1512 037e 23       		.byte	0x23
 1513 037f 0C       		.uleb128 0xc
 1514 0380 00       		.byte	0x0
 1515 0381 09       		.uleb128 0x9
 1516 0382 04       		.byte	0x4
 1517 0383 4A030000 		.4byte	0x34a
 1518 0387 03       		.uleb128 0x3
 1519 0388 96030000 		.4byte	.LASF47
 1520 038c 08       		.byte	0x8
 1521 038d 33       		.byte	0x33
ARM GAS  C:\Users\z80\AppData\Local\Temp\ccRodHvf.s 			page 28


 1522 038e 4A030000 		.4byte	0x34a
 1523 0392 03       		.uleb128 0x3
 1524 0393 4D070000 		.4byte	.LASF51
 1525 0397 09       		.byte	0x9
 1526 0398 29       		.byte	0x29
 1527 0399 9D030000 		.4byte	0x39d
 1528 039d 05       		.uleb128 0x5
 1529 039e 4D070000 		.4byte	.LASF51
 1530 03a2 0C       		.byte	0xc
 1531 03a3 09       		.byte	0x9
 1532 03a4 2E       		.byte	0x2e
 1533 03a5 D4030000 		.4byte	0x3d4
 1534 03a9 06       		.uleb128 0x6
 1535 03aa 74050000 		.4byte	.LASF52
 1536 03ae 09       		.byte	0x9
 1537 03af 2F       		.byte	0x2f
 1538 03b0 D4030000 		.4byte	0x3d4
 1539 03b4 02       		.byte	0x2
 1540 03b5 23       		.byte	0x23
 1541 03b6 00       		.uleb128 0x0
 1542 03b7 06       		.uleb128 0x6
 1543 03b8 61010000 		.4byte	.LASF53
 1544 03bc 09       		.byte	0x9
 1545 03bd 32       		.byte	0x32
 1546 03be 42020000 		.4byte	0x242
 1547 03c2 02       		.byte	0x2
 1548 03c3 23       		.byte	0x23
 1549 03c4 04       		.uleb128 0x4
 1550 03c5 06       		.uleb128 0x6
 1551 03c6 14040000 		.4byte	.LASF54
 1552 03ca 09       		.byte	0x9
 1553 03cb 34       		.byte	0x34
 1554 03cc F3000000 		.4byte	0xf3
 1555 03d0 02       		.byte	0x2
 1556 03d1 23       		.byte	0x23
 1557 03d2 08       		.uleb128 0x8
 1558 03d3 00       		.byte	0x0
 1559 03d4 09       		.uleb128 0x9
 1560 03d5 04       		.byte	0x4
 1561 03d6 92030000 		.4byte	0x392
 1562 03da 05       		.uleb128 0x5
 1563 03db FF010000 		.4byte	.LASF55
 1564 03df 04       		.byte	0x4
 1565 03e0 09       		.byte	0x9
 1566 03e1 3C       		.byte	0x3c
 1567 03e2 F5030000 		.4byte	0x3f5
 1568 03e6 06       		.uleb128 0x6
 1569 03e7 0C070000 		.4byte	.LASF56
 1570 03eb 09       		.byte	0x9
 1571 03ec 3D       		.byte	0x3d
 1572 03ed D4030000 		.4byte	0x3d4
 1573 03f1 02       		.byte	0x2
 1574 03f2 23       		.byte	0x23
 1575 03f3 00       		.uleb128 0x0
 1576 03f4 00       		.byte	0x0
 1577 03f5 03       		.uleb128 0x3
 1578 03f6 FF010000 		.4byte	.LASF55
ARM GAS  C:\Users\z80\AppData\Local\Temp\ccRodHvf.s 			page 29


 1579 03fa 09       		.byte	0x9
 1580 03fb 40       		.byte	0x40
 1581 03fc DA030000 		.4byte	0x3da
 1582 0400 0F       		.uleb128 0xf
 1583 0401 04       		.byte	0x4
 1584 0402 06       		.byte	0x6
 1585 0403 90       		.byte	0x90
 1586 0404 35040000 		.4byte	0x435
 1587 0408 10       		.uleb128 0x10
 1588 0409 19000000 		.4byte	.LASF57
 1589 040d 06       		.byte	0x6
 1590 040e 97       		.byte	0x97
 1591 040f E8000000 		.4byte	0xe8
 1592 0413 10       		.uleb128 0x10
 1593 0414 8E000000 		.4byte	.LASF58
 1594 0418 06       		.byte	0x6
 1595 0419 9E       		.byte	0x9e
 1596 041a E8000000 		.4byte	0xe8
 1597 041e 10       		.uleb128 0x10
 1598 041f 67070000 		.4byte	.LASF59
 1599 0423 06       		.byte	0x6
 1600 0424 A5       		.byte	0xa5
 1601 0425 80020000 		.4byte	0x280
 1602 0429 10       		.uleb128 0x10
 1603 042a 65050000 		.4byte	.LASF60
 1604 042e 06       		.byte	0x6
 1605 042f AC       		.byte	0xac
 1606 0430 F3000000 		.4byte	0xf3
 1607 0434 00       		.byte	0x0
 1608 0435 09       		.uleb128 0x9
 1609 0436 04       		.byte	0x4
 1610 0437 3B040000 		.4byte	0x43b
 1611 043b 11       		.uleb128 0x11
 1612 043c 40040000 		.4byte	0x440
 1613 0440 04       		.uleb128 0x4
 1614 0441 01       		.byte	0x1
 1615 0442 08       		.byte	0x8
 1616 0443 19060000 		.4byte	.LASF61
 1617 0447 09       		.uleb128 0x9
 1618 0448 04       		.byte	0x4
 1619 0449 82020000 		.4byte	0x282
 1620 044d 09       		.uleb128 0x9
 1621 044e 04       		.byte	0x4
 1622 044f 87030000 		.4byte	0x387
 1623 0453 03       		.uleb128 0x3
 1624 0454 BB010000 		.4byte	.LASF62
 1625 0458 0A       		.byte	0xa
 1626 0459 37       		.byte	0x37
 1627 045a 5E040000 		.4byte	0x45e
 1628 045e 05       		.uleb128 0x5
 1629 045f BB010000 		.4byte	.LASF62
 1630 0463 20       		.byte	0x20
 1631 0464 0A       		.byte	0xa
 1632 0465 45       		.byte	0x45
 1633 0466 CD040000 		.4byte	0x4cd
 1634 046a 06       		.uleb128 0x6
 1635 046b ED000000 		.4byte	.LASF63
ARM GAS  C:\Users\z80\AppData\Local\Temp\ccRodHvf.s 			page 30


 1636 046f 0A       		.byte	0xa
 1637 0470 46       		.byte	0x46
 1638 0471 48020000 		.4byte	0x248
 1639 0475 02       		.byte	0x2
 1640 0476 23       		.byte	0x23
 1641 0477 00       		.uleb128 0x0
 1642 0478 06       		.uleb128 0x6
 1643 0479 8C030000 		.4byte	.LASF64
 1644 047d 0A       		.byte	0xa
 1645 047e 47       		.byte	0x47
 1646 047f 30000000 		.4byte	0x30
 1647 0483 02       		.byte	0x2
 1648 0484 23       		.byte	0x23
 1649 0485 08       		.uleb128 0x8
 1650 0486 06       		.uleb128 0x6
 1651 0487 96010000 		.4byte	.LASF65
 1652 048b 0A       		.byte	0xa
 1653 048c 48       		.byte	0x48
 1654 048d F0040000 		.4byte	0x4f0
 1655 0491 02       		.byte	0x2
 1656 0492 23       		.byte	0x23
 1657 0493 0C       		.uleb128 0xc
 1658 0494 06       		.uleb128 0x6
 1659 0495 FB060000 		.4byte	.LASF66
 1660 0499 0A       		.byte	0xa
 1661 049a 49       		.byte	0x49
 1662 049b F0040000 		.4byte	0x4f0
 1663 049f 02       		.byte	0x2
 1664 04a0 23       		.byte	0x23
 1665 04a1 10       		.uleb128 0x10
 1666 04a2 06       		.uleb128 0x6
 1667 04a3 9F010000 		.4byte	.LASF67
 1668 04a7 0A       		.byte	0xa
 1669 04a8 4B       		.byte	0x4b
 1670 04a9 F0040000 		.4byte	0x4f0
 1671 04ad 02       		.byte	0x2
 1672 04ae 23       		.byte	0x23
 1673 04af 14       		.uleb128 0x14
 1674 04b0 06       		.uleb128 0x6
 1675 04b1 97040000 		.4byte	.LASF68
 1676 04b5 0A       		.byte	0xa
 1677 04b6 4C       		.byte	0x4c
 1678 04b7 F0040000 		.4byte	0x4f0
 1679 04bb 02       		.byte	0x2
 1680 04bc 23       		.byte	0x23
 1681 04bd 18       		.uleb128 0x18
 1682 04be 06       		.uleb128 0x6
 1683 04bf 25070000 		.4byte	.LASF69
 1684 04c3 0A       		.byte	0xa
 1685 04c4 4D       		.byte	0x4d
 1686 04c5 CD040000 		.4byte	0x4cd
 1687 04c9 02       		.byte	0x2
 1688 04ca 23       		.byte	0x23
 1689 04cb 1C       		.uleb128 0x1c
 1690 04cc 00       		.byte	0x0
 1691 04cd 03       		.uleb128 0x3
 1692 04ce E8010000 		.4byte	.LASF70
ARM GAS  C:\Users\z80\AppData\Local\Temp\ccRodHvf.s 			page 31


 1693 04d2 0A       		.byte	0xa
 1694 04d3 3A       		.byte	0x3a
 1695 04d4 D8040000 		.4byte	0x4d8
 1696 04d8 09       		.uleb128 0x9
 1697 04d9 04       		.byte	0x4
 1698 04da DE040000 		.4byte	0x4de
 1699 04de 12       		.uleb128 0x12
 1700 04df 01       		.byte	0x1
 1701 04e0 EA040000 		.4byte	0x4ea
 1702 04e4 13       		.uleb128 0x13
 1703 04e5 EA040000 		.4byte	0x4ea
 1704 04e9 00       		.byte	0x0
 1705 04ea 09       		.uleb128 0x9
 1706 04eb 04       		.byte	0x4
 1707 04ec 53040000 		.4byte	0x453
 1708 04f0 09       		.uleb128 0x9
 1709 04f1 04       		.byte	0x4
 1710 04f2 49000000 		.4byte	0x49
 1711 04f6 03       		.uleb128 0x3
 1712 04f7 3C070000 		.4byte	.LASF71
 1713 04fb 0A       		.byte	0xa
 1714 04fc 76       		.byte	0x76
 1715 04fd 53040000 		.4byte	0x453
 1716 0501 03       		.uleb128 0x3
 1717 0502 29000000 		.4byte	.LASF72
 1718 0506 0A       		.byte	0xa
 1719 0507 E6       		.byte	0xe6
 1720 0508 53040000 		.4byte	0x453
 1721 050c 14       		.uleb128 0x14
 1722 050d 01       		.byte	0x1
 1723 050e 30000000 		.4byte	0x30
 1724 0512 26050000 		.4byte	0x526
 1725 0516 13       		.uleb128 0x13
 1726 0517 80020000 		.4byte	0x280
 1727 051b 13       		.uleb128 0x13
 1728 051c 26050000 		.4byte	0x526
 1729 0520 13       		.uleb128 0x13
 1730 0521 30000000 		.4byte	0x30
 1731 0525 00       		.byte	0x0
 1732 0526 09       		.uleb128 0x9
 1733 0527 04       		.byte	0x4
 1734 0528 2C050000 		.4byte	0x52c
 1735 052c 11       		.uleb128 0x11
 1736 052d 49000000 		.4byte	0x49
 1737 0531 09       		.uleb128 0x9
 1738 0532 04       		.byte	0x4
 1739 0533 0C050000 		.4byte	0x50c
 1740 0537 14       		.uleb128 0x14
 1741 0538 01       		.byte	0x1
 1742 0539 30000000 		.4byte	0x30
 1743 053d 51050000 		.4byte	0x551
 1744 0541 13       		.uleb128 0x13
 1745 0542 80020000 		.4byte	0x280
 1746 0546 13       		.uleb128 0x13
 1747 0547 F0040000 		.4byte	0x4f0
 1748 054b 13       		.uleb128 0x13
 1749 054c 30000000 		.4byte	0x30
ARM GAS  C:\Users\z80\AppData\Local\Temp\ccRodHvf.s 			page 32


 1750 0550 00       		.byte	0x0
 1751 0551 09       		.uleb128 0x9
 1752 0552 04       		.byte	0x4
 1753 0553 37050000 		.4byte	0x537
 1754 0557 14       		.uleb128 0x14
 1755 0558 01       		.byte	0x1
 1756 0559 BC000000 		.4byte	0xbc
 1757 055d 67050000 		.4byte	0x567
 1758 0561 13       		.uleb128 0x13
 1759 0562 80020000 		.4byte	0x280
 1760 0566 00       		.byte	0x0
 1761 0567 09       		.uleb128 0x9
 1762 0568 04       		.byte	0x4
 1763 0569 57050000 		.4byte	0x557
 1764 056d 14       		.uleb128 0x14
 1765 056e 01       		.byte	0x1
 1766 056f E8000000 		.4byte	0xe8
 1767 0573 87050000 		.4byte	0x587
 1768 0577 13       		.uleb128 0x13
 1769 0578 80020000 		.4byte	0x280
 1770 057c 13       		.uleb128 0x13
 1771 057d 49000000 		.4byte	0x49
 1772 0581 13       		.uleb128 0x13
 1773 0582 FE000000 		.4byte	0xfe
 1774 0586 00       		.byte	0x0
 1775 0587 09       		.uleb128 0x9
 1776 0588 04       		.byte	0x4
 1777 0589 6D050000 		.4byte	0x56d
 1778 058d 14       		.uleb128 0x14
 1779 058e 01       		.byte	0x1
 1780 058f E8000000 		.4byte	0xe8
 1781 0593 A2050000 		.4byte	0x5a2
 1782 0597 13       		.uleb128 0x13
 1783 0598 80020000 		.4byte	0x280
 1784 059c 13       		.uleb128 0x13
 1785 059d FE000000 		.4byte	0xfe
 1786 05a1 00       		.byte	0x0
 1787 05a2 09       		.uleb128 0x9
 1788 05a3 04       		.byte	0x4
 1789 05a4 8D050000 		.4byte	0x58d
 1790 05a8 14       		.uleb128 0x14
 1791 05a9 01       		.byte	0x1
 1792 05aa 30000000 		.4byte	0x30
 1793 05ae C7050000 		.4byte	0x5c7
 1794 05b2 13       		.uleb128 0x13
 1795 05b3 80020000 		.4byte	0x280
 1796 05b7 13       		.uleb128 0x13
 1797 05b8 26050000 		.4byte	0x526
 1798 05bc 13       		.uleb128 0x13
 1799 05bd 30000000 		.4byte	0x30
 1800 05c1 13       		.uleb128 0x13
 1801 05c2 FE000000 		.4byte	0xfe
 1802 05c6 00       		.byte	0x0
 1803 05c7 09       		.uleb128 0x9
 1804 05c8 04       		.byte	0x4
 1805 05c9 A8050000 		.4byte	0x5a8
 1806 05cd 14       		.uleb128 0x14
ARM GAS  C:\Users\z80\AppData\Local\Temp\ccRodHvf.s 			page 33


 1807 05ce 01       		.byte	0x1
 1808 05cf 30000000 		.4byte	0x30
 1809 05d3 EC050000 		.4byte	0x5ec
 1810 05d7 13       		.uleb128 0x13
 1811 05d8 80020000 		.4byte	0x280
 1812 05dc 13       		.uleb128 0x13
 1813 05dd F0040000 		.4byte	0x4f0
 1814 05e1 13       		.uleb128 0x13
 1815 05e2 30000000 		.4byte	0x30
 1816 05e6 13       		.uleb128 0x13
 1817 05e7 FE000000 		.4byte	0xfe
 1818 05eb 00       		.byte	0x0
 1819 05ec 09       		.uleb128 0x9
 1820 05ed 04       		.byte	0x4
 1821 05ee CD050000 		.4byte	0x5cd
 1822 05f2 15       		.uleb128 0x15
 1823 05f3 B8030000 		.4byte	.LASF73
 1824 05f7 0B       		.byte	0xb
 1825 05f8 0B01     		.2byte	0x10b
 1826 05fa B1000000 		.4byte	0xb1
 1827 05fe 14       		.uleb128 0x14
 1828 05ff 01       		.byte	0x1
 1829 0600 F2050000 		.4byte	0x5f2
 1830 0604 0E060000 		.4byte	0x60e
 1831 0608 13       		.uleb128 0x13
 1832 0609 80020000 		.4byte	0x280
 1833 060d 00       		.byte	0x0
 1834 060e 09       		.uleb128 0x9
 1835 060f 04       		.byte	0x4
 1836 0610 FE050000 		.4byte	0x5fe
 1837 0614 16       		.uleb128 0x16
 1838 0615 69030000 		.4byte	.LASF183
 1839 0619 01       		.byte	0x1
 1840 061a 0C       		.byte	0xc
 1841 061b A9       		.byte	0xa9
 1842 061c 53070000 		.4byte	0x753
 1843 0620 17       		.uleb128 0x17
 1844 0621 60060000 		.4byte	.LASF74
 1845 0625 72       		.sleb128 -14
 1846 0626 17       		.uleb128 0x17
 1847 0627 3E020000 		.4byte	.LASF75
 1848 062b 74       		.sleb128 -12
 1849 062c 17       		.uleb128 0x17
 1850 062d 1E060000 		.4byte	.LASF76
 1851 0631 75       		.sleb128 -11
 1852 0632 17       		.uleb128 0x17
 1853 0633 E5050000 		.4byte	.LASF77
 1854 0637 76       		.sleb128 -10
 1855 0638 17       		.uleb128 0x17
 1856 0639 9F040000 		.4byte	.LASF78
 1857 063d 7B       		.sleb128 -5
 1858 063e 17       		.uleb128 0x17
 1859 063f AB040000 		.4byte	.LASF79
 1860 0643 7C       		.sleb128 -4
 1861 0644 17       		.uleb128 0x17
 1862 0645 C8010000 		.4byte	.LASF80
 1863 0649 7E       		.sleb128 -2
ARM GAS  C:\Users\z80\AppData\Local\Temp\ccRodHvf.s 			page 34


 1864 064a 17       		.uleb128 0x17
 1865 064b 30030000 		.4byte	.LASF81
 1866 064f 7F       		.sleb128 -1
 1867 0650 17       		.uleb128 0x17
 1868 0651 C8000000 		.4byte	.LASF82
 1869 0655 00       		.sleb128 0
 1870 0656 17       		.uleb128 0x17
 1871 0657 00000000 		.4byte	.LASF83
 1872 065b 01       		.sleb128 1
 1873 065c 17       		.uleb128 0x17
 1874 065d A1060000 		.4byte	.LASF84
 1875 0661 02       		.sleb128 2
 1876 0662 17       		.uleb128 0x17
 1877 0663 BB070000 		.4byte	.LASF85
 1878 0667 03       		.sleb128 3
 1879 0668 17       		.uleb128 0x17
 1880 0669 A6050000 		.4byte	.LASF86
 1881 066d 04       		.sleb128 4
 1882 066e 17       		.uleb128 0x17
 1883 066f D6070000 		.4byte	.LASF87
 1884 0673 05       		.sleb128 5
 1885 0674 17       		.uleb128 0x17
 1886 0675 01070000 		.4byte	.LASF88
 1887 0679 06       		.sleb128 6
 1888 067a 17       		.uleb128 0x17
 1889 067b F6070000 		.4byte	.LASF89
 1890 067f 07       		.sleb128 7
 1891 0680 17       		.uleb128 0x17
 1892 0681 7C050000 		.4byte	.LASF90
 1893 0685 08       		.sleb128 8
 1894 0686 17       		.uleb128 0x17
 1895 0687 A3030000 		.4byte	.LASF91
 1896 068b 09       		.sleb128 9
 1897 068c 17       		.uleb128 0x17
 1898 068d 09050000 		.4byte	.LASF92
 1899 0691 0A       		.sleb128 10
 1900 0692 17       		.uleb128 0x17
 1901 0693 39040000 		.4byte	.LASF93
 1902 0697 0B       		.sleb128 11
 1903 0698 17       		.uleb128 0x17
 1904 0699 79030000 		.4byte	.LASF94
 1905 069d 0C       		.sleb128 12
 1906 069e 17       		.uleb128 0x17
 1907 069f 83010000 		.4byte	.LASF95
 1908 06a3 0D       		.sleb128 13
 1909 06a4 17       		.uleb128 0x17
 1910 06a5 1D030000 		.4byte	.LASF96
 1911 06a9 0E       		.sleb128 14
 1912 06aa 17       		.uleb128 0x17
 1913 06ab 78020000 		.4byte	.LASF97
 1914 06af 0F       		.sleb128 15
 1915 06b0 17       		.uleb128 0x17
 1916 06b1 7F060000 		.4byte	.LASF98
 1917 06b5 10       		.sleb128 16
 1918 06b6 17       		.uleb128 0x17
 1919 06b7 6E070000 		.4byte	.LASF99
 1920 06bb 11       		.sleb128 17
ARM GAS  C:\Users\z80\AppData\Local\Temp\ccRodHvf.s 			page 35


 1921 06bc 17       		.uleb128 0x17
 1922 06bd A7010000 		.4byte	.LASF100
 1923 06c1 12       		.sleb128 18
 1924 06c2 17       		.uleb128 0x17
 1925 06c3 F5040000 		.4byte	.LASF101
 1926 06c7 13       		.sleb128 19
 1927 06c8 17       		.uleb128 0x17
 1928 06c9 D3040000 		.4byte	.LASF102
 1929 06cd 14       		.sleb128 20
 1930 06ce 17       		.uleb128 0x17
 1931 06cf 5B000000 		.4byte	.LASF103
 1932 06d3 15       		.sleb128 21
 1933 06d4 17       		.uleb128 0x17
 1934 06d5 41060000 		.4byte	.LASF104
 1935 06d9 16       		.sleb128 22
 1936 06da 17       		.uleb128 0x17
 1937 06db 76010000 		.4byte	.LASF105
 1938 06df 17       		.sleb128 23
 1939 06e0 17       		.uleb128 0x17
 1940 06e1 33060000 		.4byte	.LASF106
 1941 06e5 18       		.sleb128 24
 1942 06e6 17       		.uleb128 0x17
 1943 06e7 BB000000 		.4byte	.LASF107
 1944 06eb 19       		.sleb128 25
 1945 06ec 17       		.uleb128 0x17
 1946 06ed 9E020000 		.4byte	.LASF108
 1947 06f1 1A       		.sleb128 26
 1948 06f2 17       		.uleb128 0x17
 1949 06f3 3D030000 		.4byte	.LASF109
 1950 06f7 1B       		.sleb128 27
 1951 06f8 17       		.uleb128 0x17
 1952 06f9 F1060000 		.4byte	.LASF110
 1953 06fd 1C       		.sleb128 28
 1954 06fe 17       		.uleb128 0x17
 1955 06ff C4070000 		.4byte	.LASF111
 1956 0703 1D       		.sleb128 29
 1957 0704 17       		.uleb128 0x17
 1958 0705 A4000000 		.4byte	.LASF112
 1959 0709 1E       		.sleb128 30
 1960 070a 17       		.uleb128 0x17
 1961 070b 35000000 		.4byte	.LASF113
 1962 070f 1F       		.sleb128 31
 1963 0710 17       		.uleb128 0x17
 1964 0711 A0070000 		.4byte	.LASF114
 1965 0715 20       		.sleb128 32
 1966 0716 17       		.uleb128 0x17
 1967 0717 CE060000 		.4byte	.LASF115
 1968 071b 21       		.sleb128 33
 1969 071c 17       		.uleb128 0x17
 1970 071d 97000000 		.4byte	.LASF116
 1971 0721 22       		.sleb128 34
 1972 0722 17       		.uleb128 0x17
 1973 0723 CC020000 		.4byte	.LASF117
 1974 0727 23       		.sleb128 35
 1975 0728 17       		.uleb128 0x17
 1976 0729 AE030000 		.4byte	.LASF118
 1977 072d 24       		.sleb128 36
ARM GAS  C:\Users\z80\AppData\Local\Temp\ccRodHvf.s 			page 36


 1978 072e 17       		.uleb128 0x17
 1979 072f 14070000 		.4byte	.LASF119
 1980 0733 25       		.sleb128 37
 1981 0734 17       		.uleb128 0x17
 1982 0735 D9050000 		.4byte	.LASF120
 1983 0739 26       		.sleb128 38
 1984 073a 17       		.uleb128 0x17
 1985 073b DB060000 		.4byte	.LASF121
 1986 073f 27       		.sleb128 39
 1987 0740 17       		.uleb128 0x17
 1988 0741 BD020000 		.4byte	.LASF122
 1989 0745 28       		.sleb128 40
 1990 0746 17       		.uleb128 0x17
 1991 0747 42000000 		.4byte	.LASF123
 1992 074b 29       		.sleb128 41
 1993 074c 17       		.uleb128 0x17
 1994 074d FA030000 		.4byte	.LASF124
 1995 0751 2A       		.sleb128 42
 1996 0752 00       		.byte	0x0
 1997 0753 0D       		.uleb128 0xd
 1998 0754 62000000 		.4byte	0x62
 1999 0758 0D       		.uleb128 0xd
 2000 0759 74000000 		.4byte	0x74
 2001 075d 18       		.uleb128 0x18
 2002 075e 28       		.byte	0x28
 2003 075f 0C       		.byte	0xc
 2004 0760 4304     		.2byte	0x443
 2005 0762 FC070000 		.4byte	0x7fc
 2006 0766 0B       		.uleb128 0xb
 2007 0767 435200   		.ascii	"CR\000"
 2008 076a 0C       		.byte	0xc
 2009 076b 4504     		.2byte	0x445
 2010 076d 3D030000 		.4byte	0x33d
 2011 0771 02       		.byte	0x2
 2012 0772 23       		.byte	0x23
 2013 0773 00       		.uleb128 0x0
 2014 0774 19       		.uleb128 0x19
 2015 0775 8D070000 		.4byte	.LASF125
 2016 0779 0C       		.byte	0xc
 2017 077a 4604     		.2byte	0x446
 2018 077c 3D030000 		.4byte	0x33d
 2019 0780 02       		.byte	0x2
 2020 0781 23       		.byte	0x23
 2021 0782 04       		.uleb128 0x4
 2022 0783 0B       		.uleb128 0xb
 2023 0784 43495200 		.ascii	"CIR\000"
 2024 0788 0C       		.byte	0xc
 2025 0789 4704     		.2byte	0x447
 2026 078b 3D030000 		.4byte	0x33d
 2027 078f 02       		.byte	0x2
 2028 0790 23       		.byte	0x23
 2029 0791 08       		.uleb128 0x8
 2030 0792 19       		.uleb128 0x19
 2031 0793 58010000 		.4byte	.LASF126
 2032 0797 0C       		.byte	0xc
 2033 0798 4804     		.2byte	0x448
 2034 079a 3D030000 		.4byte	0x33d
ARM GAS  C:\Users\z80\AppData\Local\Temp\ccRodHvf.s 			page 37


 2035 079e 02       		.byte	0x2
 2036 079f 23       		.byte	0x23
 2037 07a0 0C       		.uleb128 0xc
 2038 07a1 19       		.uleb128 0x19
 2039 07a2 0B040000 		.4byte	.LASF127
 2040 07a6 0C       		.byte	0xc
 2041 07a7 4904     		.2byte	0x449
 2042 07a9 3D030000 		.4byte	0x33d
 2043 07ad 02       		.byte	0x2
 2044 07ae 23       		.byte	0x23
 2045 07af 10       		.uleb128 0x10
 2046 07b0 19       		.uleb128 0x19
 2047 07b1 EF070000 		.4byte	.LASF128
 2048 07b5 0C       		.byte	0xc
 2049 07b6 4A04     		.2byte	0x44a
 2050 07b8 3D030000 		.4byte	0x33d
 2051 07bc 02       		.byte	0x2
 2052 07bd 23       		.byte	0x23
 2053 07be 14       		.uleb128 0x14
 2054 07bf 19       		.uleb128 0x19
 2055 07c0 87050000 		.4byte	.LASF129
 2056 07c4 0C       		.byte	0xc
 2057 07c5 4B04     		.2byte	0x44b
 2058 07c7 3D030000 		.4byte	0x33d
 2059 07cb 02       		.byte	0x2
 2060 07cc 23       		.byte	0x23
 2061 07cd 18       		.uleb128 0x18
 2062 07ce 19       		.uleb128 0x19
 2063 07cf 99060000 		.4byte	.LASF130
 2064 07d3 0C       		.byte	0xc
 2065 07d4 4C04     		.2byte	0x44c
 2066 07d6 3D030000 		.4byte	0x33d
 2067 07da 02       		.byte	0x2
 2068 07db 23       		.byte	0x23
 2069 07dc 1C       		.uleb128 0x1c
 2070 07dd 19       		.uleb128 0x19
 2071 07de 20070000 		.4byte	.LASF131
 2072 07e2 0C       		.byte	0xc
 2073 07e3 4D04     		.2byte	0x44d
 2074 07e5 3D030000 		.4byte	0x33d
 2075 07e9 02       		.byte	0x2
 2076 07ea 23       		.byte	0x23
 2077 07eb 20       		.uleb128 0x20
 2078 07ec 0B       		.uleb128 0xb
 2079 07ed 43535200 		.ascii	"CSR\000"
 2080 07f1 0C       		.byte	0xc
 2081 07f2 4E04     		.2byte	0x44e
 2082 07f4 3D030000 		.4byte	0x33d
 2083 07f8 02       		.byte	0x2
 2084 07f9 23       		.byte	0x23
 2085 07fa 24       		.uleb128 0x24
 2086 07fb 00       		.byte	0x0
 2087 07fc 15       		.uleb128 0x15
 2088 07fd 2E010000 		.4byte	.LASF132
 2089 0801 0C       		.byte	0xc
 2090 0802 5904     		.2byte	0x459
 2091 0804 5D070000 		.4byte	0x75d
ARM GAS  C:\Users\z80\AppData\Local\Temp\ccRodHvf.s 			page 38


 2092 0808 18       		.uleb128 0x18
 2093 0809 1C       		.byte	0x1c
 2094 080a 0C       		.byte	0xc
 2095 080b E104     		.2byte	0x4e1
 2096 080d E2080000 		.4byte	0x8e2
 2097 0811 0B       		.uleb128 0xb
 2098 0812 535200   		.ascii	"SR\000"
 2099 0815 0C       		.byte	0xc
 2100 0816 E304     		.2byte	0x4e3
 2101 0818 53070000 		.4byte	0x753
 2102 081c 02       		.byte	0x2
 2103 081d 23       		.byte	0x23
 2104 081e 00       		.uleb128 0x0
 2105 081f 19       		.uleb128 0x19
 2106 0820 4C040000 		.4byte	.LASF133
 2107 0824 0C       		.byte	0xc
 2108 0825 E404     		.2byte	0x4e4
 2109 0827 62000000 		.4byte	0x62
 2110 082b 02       		.byte	0x2
 2111 082c 23       		.byte	0x23
 2112 082d 02       		.uleb128 0x2
 2113 082e 0B       		.uleb128 0xb
 2114 082f 445200   		.ascii	"DR\000"
 2115 0832 0C       		.byte	0xc
 2116 0833 E504     		.2byte	0x4e5
 2117 0835 53070000 		.4byte	0x753
 2118 0839 02       		.byte	0x2
 2119 083a 23       		.byte	0x23
 2120 083b 04       		.uleb128 0x4
 2121 083c 19       		.uleb128 0x19
 2122 083d 56040000 		.4byte	.LASF134
 2123 0841 0C       		.byte	0xc
 2124 0842 E604     		.2byte	0x4e6
 2125 0844 62000000 		.4byte	0x62
 2126 0848 02       		.byte	0x2
 2127 0849 23       		.byte	0x23
 2128 084a 06       		.uleb128 0x6
 2129 084b 0B       		.uleb128 0xb
 2130 084c 42525200 		.ascii	"BRR\000"
 2131 0850 0C       		.byte	0xc
 2132 0851 E704     		.2byte	0x4e7
 2133 0853 53070000 		.4byte	0x753
 2134 0857 02       		.byte	0x2
 2135 0858 23       		.byte	0x23
 2136 0859 08       		.uleb128 0x8
 2137 085a 19       		.uleb128 0x19
 2138 085b 60040000 		.4byte	.LASF135
 2139 085f 0C       		.byte	0xc
 2140 0860 E804     		.2byte	0x4e8
 2141 0862 62000000 		.4byte	0x62
 2142 0866 02       		.byte	0x2
 2143 0867 23       		.byte	0x23
 2144 0868 0A       		.uleb128 0xa
 2145 0869 0B       		.uleb128 0xb
 2146 086a 43523100 		.ascii	"CR1\000"
 2147 086e 0C       		.byte	0xc
 2148 086f E904     		.2byte	0x4e9
ARM GAS  C:\Users\z80\AppData\Local\Temp\ccRodHvf.s 			page 39


 2149 0871 53070000 		.4byte	0x753
 2150 0875 02       		.byte	0x2
 2151 0876 23       		.byte	0x23
 2152 0877 0C       		.uleb128 0xc
 2153 0878 19       		.uleb128 0x19
 2154 0879 6A040000 		.4byte	.LASF136
 2155 087d 0C       		.byte	0xc
 2156 087e EA04     		.2byte	0x4ea
 2157 0880 62000000 		.4byte	0x62
 2158 0884 02       		.byte	0x2
 2159 0885 23       		.byte	0x23
 2160 0886 0E       		.uleb128 0xe
 2161 0887 0B       		.uleb128 0xb
 2162 0888 43523200 		.ascii	"CR2\000"
 2163 088c 0C       		.byte	0xc
 2164 088d EB04     		.2byte	0x4eb
 2165 088f 53070000 		.4byte	0x753
 2166 0893 02       		.byte	0x2
 2167 0894 23       		.byte	0x23
 2168 0895 10       		.uleb128 0x10
 2169 0896 19       		.uleb128 0x19
 2170 0897 74040000 		.4byte	.LASF137
 2171 089b 0C       		.byte	0xc
 2172 089c EC04     		.2byte	0x4ec
 2173 089e 62000000 		.4byte	0x62
 2174 08a2 02       		.byte	0x2
 2175 08a3 23       		.byte	0x23
 2176 08a4 12       		.uleb128 0x12
 2177 08a5 0B       		.uleb128 0xb
 2178 08a6 43523300 		.ascii	"CR3\000"
 2179 08aa 0C       		.byte	0xc
 2180 08ab ED04     		.2byte	0x4ed
 2181 08ad 53070000 		.4byte	0x753
 2182 08b1 02       		.byte	0x2
 2183 08b2 23       		.byte	0x23
 2184 08b3 14       		.uleb128 0x14
 2185 08b4 19       		.uleb128 0x19
 2186 08b5 C6050000 		.4byte	.LASF138
 2187 08b9 0C       		.byte	0xc
 2188 08ba EE04     		.2byte	0x4ee
 2189 08bc 62000000 		.4byte	0x62
 2190 08c0 02       		.byte	0x2
 2191 08c1 23       		.byte	0x23
 2192 08c2 16       		.uleb128 0x16
 2193 08c3 19       		.uleb128 0x19
 2194 08c4 11010000 		.4byte	.LASF139
 2195 08c8 0C       		.byte	0xc
 2196 08c9 EF04     		.2byte	0x4ef
 2197 08cb 53070000 		.4byte	0x753
 2198 08cf 02       		.byte	0x2
 2199 08d0 23       		.byte	0x23
 2200 08d1 18       		.uleb128 0x18
 2201 08d2 19       		.uleb128 0x19
 2202 08d3 85040000 		.4byte	.LASF140
 2203 08d7 0C       		.byte	0xc
 2204 08d8 F004     		.2byte	0x4f0
 2205 08da 62000000 		.4byte	0x62
ARM GAS  C:\Users\z80\AppData\Local\Temp\ccRodHvf.s 			page 40


 2206 08de 02       		.byte	0x2
 2207 08df 23       		.byte	0x23
 2208 08e0 1A       		.uleb128 0x1a
 2209 08e1 00       		.byte	0x0
 2210 08e2 15       		.uleb128 0x15
 2211 08e3 D6020000 		.4byte	.LASF141
 2212 08e7 0C       		.byte	0xc
 2213 08e8 F104     		.2byte	0x4f1
 2214 08ea 08080000 		.4byte	0x808
 2215 08ee 1A       		.uleb128 0x1a
 2216 08ef 01       		.byte	0x1
 2217 08f0 0D       		.byte	0xd
 2218 08f1 64       		.byte	0x64
 2219 08f2 09090000 		.4byte	0x909
 2220 08f6 17       		.uleb128 0x17
 2221 08f7 BC050000 		.4byte	.LASF142
 2222 08fb 00       		.sleb128 0
 2223 08fc 17       		.uleb128 0x17
 2224 08fd 1E010000 		.4byte	.LASF143
 2225 0901 01       		.sleb128 1
 2226 0902 17       		.uleb128 0x17
 2227 0903 C5060000 		.4byte	.LASF144
 2228 0907 02       		.sleb128 2
 2229 0908 00       		.byte	0x0
 2230 0909 03       		.uleb128 0x3
 2231 090a E7060000 		.4byte	.LASF145
 2232 090e 0D       		.byte	0xd
 2233 090f 68       		.byte	0x68
 2234 0910 EE080000 		.4byte	0x8ee
 2235 0914 03       		.uleb128 0x3
 2236 0915 F5050000 		.4byte	.LASF146
 2237 0919 0D       		.byte	0xd
 2238 091a 6D       		.byte	0x6d
 2239 091b 1F090000 		.4byte	0x91f
 2240 091f 1B       		.uleb128 0x1b
 2241 0920 F5050000 		.4byte	.LASF146
 2242 0924 5404     		.2byte	0x454
 2243 0926 0D       		.byte	0xd
 2244 0927 87       		.byte	0x87
 2245 0928 AB090000 		.4byte	0x9ab
 2246 092c 07       		.uleb128 0x7
 2247 092d 766D7400 		.ascii	"vmt\000"
 2248 0931 0D       		.byte	0xd
 2249 0932 89       		.byte	0x89
 2250 0933 820A0000 		.4byte	0xa82
 2251 0937 02       		.byte	0x2
 2252 0938 23       		.byte	0x23
 2253 0939 00       		.uleb128 0x0
 2254 093a 06       		.uleb128 0x6
 2255 093b 72020000 		.4byte	.LASF147
 2256 093f 0D       		.byte	0xd
 2257 0940 8A       		.byte	0x8a
 2258 0941 F5030000 		.4byte	0x3f5
 2259 0945 02       		.byte	0x2
 2260 0946 23       		.byte	0x23
 2261 0947 04       		.uleb128 0x4
 2262 0948 06       		.uleb128 0x6
ARM GAS  C:\Users\z80\AppData\Local\Temp\ccRodHvf.s 			page 41


 2263 0949 47070000 		.4byte	.LASF148
 2264 094d 0D       		.byte	0xd
 2265 094e 8A       		.byte	0x8a
 2266 094f F2050000 		.4byte	0x5f2
 2267 0953 02       		.byte	0x2
 2268 0954 23       		.byte	0x23
 2269 0955 08       		.uleb128 0x8
 2270 0956 06       		.uleb128 0x6
 2271 0957 49010000 		.4byte	.LASF149
 2272 095b 0D       		.byte	0xd
 2273 095c 8A       		.byte	0x8a
 2274 095d 09090000 		.4byte	0x909
 2275 0961 02       		.byte	0x2
 2276 0962 23       		.byte	0x23
 2277 0963 0C       		.uleb128 0xc
 2278 0964 06       		.uleb128 0x6
 2279 0965 54020000 		.4byte	.LASF150
 2280 0969 0D       		.byte	0xd
 2281 096a 8A       		.byte	0x8a
 2282 096b F6040000 		.4byte	0x4f6
 2283 096f 02       		.byte	0x2
 2284 0970 23       		.byte	0x23
 2285 0971 10       		.uleb128 0x10
 2286 0972 06       		.uleb128 0x6
 2287 0973 B6020000 		.4byte	.LASF151
 2288 0977 0D       		.byte	0xd
 2289 0978 8A       		.byte	0x8a
 2290 0979 01050000 		.4byte	0x501
 2291 097d 02       		.byte	0x2
 2292 097e 23       		.byte	0x23
 2293 097f 30       		.uleb128 0x30
 2294 0980 07       		.uleb128 0x7
 2295 0981 696200   		.ascii	"ib\000"
 2296 0984 0D       		.byte	0xd
 2297 0985 8A       		.byte	0x8a
 2298 0986 8D0A0000 		.4byte	0xa8d
 2299 098a 02       		.byte	0x2
 2300 098b 23       		.byte	0x23
 2301 098c 50       		.uleb128 0x50
 2302 098d 07       		.uleb128 0x7
 2303 098e 6F6200   		.ascii	"ob\000"
 2304 0991 0D       		.byte	0xd
 2305 0992 8A       		.byte	0x8a
 2306 0993 8D0A0000 		.4byte	0xa8d
 2307 0997 03       		.byte	0x3
 2308 0998 23       		.byte	0x23
 2309 0999 D004     		.uleb128 0x250
 2310 099b 06       		.uleb128 0x6
 2311 099c 0B020000 		.4byte	.LASF152
 2312 09a0 0D       		.byte	0xd
 2313 09a1 8A       		.byte	0x8a
 2314 09a2 9E0A0000 		.4byte	0xa9e
 2315 09a6 03       		.byte	0x3
 2316 09a7 23       		.byte	0x23
 2317 09a8 D008     		.uleb128 0x450
 2318 09aa 00       		.byte	0x0
 2319 09ab 08       		.uleb128 0x8
ARM GAS  C:\Users\z80\AppData\Local\Temp\ccRodHvf.s 			page 42


 2320 09ac 0C       		.byte	0xc
 2321 09ad 0E       		.byte	0xe
 2322 09ae C4       		.byte	0xc4
 2323 09af EC090000 		.4byte	0x9ec
 2324 09b3 06       		.uleb128 0x6
 2325 09b4 09000000 		.4byte	.LASF153
 2326 09b8 0E       		.byte	0xe
 2327 09b9 C8       		.byte	0xc8
 2328 09ba 86000000 		.4byte	0x86
 2329 09be 02       		.byte	0x2
 2330 09bf 23       		.byte	0x23
 2331 09c0 00       		.uleb128 0x0
 2332 09c1 06       		.uleb128 0x6
 2333 09c2 D2000000 		.4byte	.LASF154
 2334 09c6 0E       		.byte	0xe
 2335 09c7 CC       		.byte	0xcc
 2336 09c8 62000000 		.4byte	0x62
 2337 09cc 02       		.byte	0x2
 2338 09cd 23       		.byte	0x23
 2339 09ce 04       		.uleb128 0x4
 2340 09cf 06       		.uleb128 0x6
 2341 09d0 AD070000 		.4byte	.LASF155
 2342 09d4 0E       		.byte	0xe
 2343 09d5 D0       		.byte	0xd0
 2344 09d6 62000000 		.4byte	0x62
 2345 09da 02       		.byte	0x2
 2346 09db 23       		.byte	0x23
 2347 09dc 06       		.uleb128 0x6
 2348 09dd 06       		.uleb128 0x6
 2349 09de B4070000 		.4byte	.LASF156
 2350 09e2 0E       		.byte	0xe
 2351 09e3 D4       		.byte	0xd4
 2352 09e4 62000000 		.4byte	0x62
 2353 09e8 02       		.byte	0x2
 2354 09e9 23       		.byte	0x23
 2355 09ea 08       		.uleb128 0x8
 2356 09eb 00       		.byte	0x0
 2357 09ec 03       		.uleb128 0x3
 2358 09ed 1C040000 		.4byte	.LASF157
 2359 09f1 0E       		.byte	0xe
 2360 09f2 D5       		.byte	0xd5
 2361 09f3 AB090000 		.4byte	0x9ab
 2362 09f7 05       		.uleb128 0x5
 2363 09f8 27020000 		.4byte	.LASF158
 2364 09fc 24       		.byte	0x24
 2365 09fd 0D       		.byte	0xd
 2366 09fe 7C       		.byte	0x7c
 2367 09ff 820A0000 		.4byte	0xa82
 2368 0a03 06       		.uleb128 0x6
 2369 0a04 63030000 		.4byte	.LASF159
 2370 0a08 0D       		.byte	0xd
 2371 0a09 7D       		.byte	0x7d
 2372 0a0a 31050000 		.4byte	0x531
 2373 0a0e 02       		.byte	0x2
 2374 0a0f 23       		.byte	0x23
 2375 0a10 00       		.uleb128 0x0
 2376 0a11 06       		.uleb128 0x6
ARM GAS  C:\Users\z80\AppData\Local\Temp\ccRodHvf.s 			page 43


 2377 0a12 14060000 		.4byte	.LASF160
 2378 0a16 0D       		.byte	0xd
 2379 0a17 7D       		.byte	0x7d
 2380 0a18 51050000 		.4byte	0x551
 2381 0a1c 02       		.byte	0x2
 2382 0a1d 23       		.byte	0x23
 2383 0a1e 04       		.uleb128 0x4
 2384 0a1f 06       		.uleb128 0x6
 2385 0a20 55030000 		.4byte	.LASF161
 2386 0a24 0D       		.byte	0xd
 2387 0a25 7D       		.byte	0x7d
 2388 0a26 67050000 		.4byte	0x567
 2389 0a2a 02       		.byte	0x2
 2390 0a2b 23       		.byte	0x23
 2391 0a2c 08       		.uleb128 0x8
 2392 0a2d 06       		.uleb128 0x6
 2393 0a2e 92070000 		.4byte	.LASF162
 2394 0a32 0D       		.byte	0xd
 2395 0a33 7D       		.byte	0x7d
 2396 0a34 67050000 		.4byte	0x567
 2397 0a38 02       		.byte	0x2
 2398 0a39 23       		.byte	0x23
 2399 0a3a 0C       		.uleb128 0xc
 2400 0a3b 07       		.uleb128 0x7
 2401 0a3c 70757400 		.ascii	"put\000"
 2402 0a40 0D       		.byte	0xd
 2403 0a41 7D       		.byte	0x7d
 2404 0a42 87050000 		.4byte	0x587
 2405 0a46 02       		.byte	0x2
 2406 0a47 23       		.byte	0x23
 2407 0a48 10       		.uleb128 0x10
 2408 0a49 07       		.uleb128 0x7
 2409 0a4a 67657400 		.ascii	"get\000"
 2410 0a4e 0D       		.byte	0xd
 2411 0a4f 7D       		.byte	0x7d
 2412 0a50 A2050000 		.4byte	0x5a2
 2413 0a54 02       		.byte	0x2
 2414 0a55 23       		.byte	0x23
 2415 0a56 14       		.uleb128 0x14
 2416 0a57 06       		.uleb128 0x6
 2417 0a58 E4020000 		.4byte	.LASF163
 2418 0a5c 0D       		.byte	0xd
 2419 0a5d 7D       		.byte	0x7d
 2420 0a5e C7050000 		.4byte	0x5c7
 2421 0a62 02       		.byte	0x2
 2422 0a63 23       		.byte	0x23
 2423 0a64 18       		.uleb128 0x18
 2424 0a65 06       		.uleb128 0x6
 2425 0a66 E7000000 		.4byte	.LASF164
 2426 0a6a 0D       		.byte	0xd
 2427 0a6b 7D       		.byte	0x7d
 2428 0a6c EC050000 		.4byte	0x5ec
 2429 0a70 02       		.byte	0x2
 2430 0a71 23       		.byte	0x23
 2431 0a72 1C       		.uleb128 0x1c
 2432 0a73 06       		.uleb128 0x6
 2433 0a74 AD060000 		.4byte	.LASF165
ARM GAS  C:\Users\z80\AppData\Local\Temp\ccRodHvf.s 			page 44


 2434 0a78 0D       		.byte	0xd
 2435 0a79 7D       		.byte	0x7d
 2436 0a7a 0E060000 		.4byte	0x60e
 2437 0a7e 02       		.byte	0x2
 2438 0a7f 23       		.byte	0x23
 2439 0a80 20       		.uleb128 0x20
 2440 0a81 00       		.byte	0x0
 2441 0a82 09       		.uleb128 0x9
 2442 0a83 04       		.byte	0x4
 2443 0a84 880A0000 		.4byte	0xa88
 2444 0a88 11       		.uleb128 0x11
 2445 0a89 F7090000 		.4byte	0x9f7
 2446 0a8d 1C       		.uleb128 0x1c
 2447 0a8e 49000000 		.4byte	0x49
 2448 0a92 9E0A0000 		.4byte	0xa9e
 2449 0a96 1D       		.uleb128 0x1d
 2450 0a97 42030000 		.4byte	0x342
 2451 0a9b FF01     		.2byte	0x1ff
 2452 0a9d 00       		.byte	0x0
 2453 0a9e 09       		.uleb128 0x9
 2454 0a9f 04       		.byte	0x4
 2455 0aa0 E2080000 		.4byte	0x8e2
 2456 0aa4 1E       		.uleb128 0x1e
 2457 0aa5 6E030000 		.4byte	.LASF167
 2458 0aa9 01       		.byte	0x1
 2459 0aaa 63       		.byte	0x63
 2460 0aab 01       		.byte	0x1
 2461 0aac 00000000 		.4byte	.LFB62
 2462 0ab0 90000000 		.4byte	.LFE62
 2463 0ab4 00000000 		.4byte	.LLST0
 2464 0ab8 E50A0000 		.4byte	0xae5
 2465 0abc 1F       		.uleb128 0x1f
 2466 0abd 73647000 		.ascii	"sdp\000"
 2467 0ac1 01       		.byte	0x1
 2468 0ac2 63       		.byte	0x63
 2469 0ac3 E50A0000 		.4byte	0xae5
 2470 0ac7 02       		.byte	0x2
 2471 0ac8 91       		.byte	0x91
 2472 0ac9 74       		.sleb128 -12
 2473 0aca 20       		.uleb128 0x20
 2474 0acb 2C060000 		.4byte	.LASF166
 2475 0acf 01       		.byte	0x1
 2476 0ad0 63       		.byte	0x63
 2477 0ad1 EB0A0000 		.4byte	0xaeb
 2478 0ad5 02       		.byte	0x2
 2479 0ad6 91       		.byte	0x91
 2480 0ad7 70       		.sleb128 -16
 2481 0ad8 21       		.uleb128 0x21
 2482 0ad9 7500     		.ascii	"u\000"
 2483 0adb 01       		.byte	0x1
 2484 0adc 64       		.byte	0x64
 2485 0add 9E0A0000 		.4byte	0xa9e
 2486 0ae1 02       		.byte	0x2
 2487 0ae2 91       		.byte	0x91
 2488 0ae3 7C       		.sleb128 -4
 2489 0ae4 00       		.byte	0x0
 2490 0ae5 09       		.uleb128 0x9
ARM GAS  C:\Users\z80\AppData\Local\Temp\ccRodHvf.s 			page 45


 2491 0ae6 04       		.byte	0x4
 2492 0ae7 14090000 		.4byte	0x914
 2493 0aeb 09       		.uleb128 0x9
 2494 0aec 04       		.byte	0x4
 2495 0aed F10A0000 		.4byte	0xaf1
 2496 0af1 11       		.uleb128 0x11
 2497 0af2 EC090000 		.4byte	0x9ec
 2498 0af6 1E       		.uleb128 0x1e
 2499 0af7 F2010000 		.4byte	.LASF168
 2500 0afb 01       		.byte	0x1
 2501 0afc 85       		.byte	0x85
 2502 0afd 01       		.byte	0x1
 2503 0afe 00000000 		.4byte	.LFB63
 2504 0b02 20000000 		.4byte	.LFE63
 2505 0b06 20000000 		.4byte	.LLST1
 2506 0b0a 1B0B0000 		.4byte	0xb1b
 2507 0b0e 1F       		.uleb128 0x1f
 2508 0b0f 7500     		.ascii	"u\000"
 2509 0b11 01       		.byte	0x1
 2510 0b12 85       		.byte	0x85
 2511 0b13 9E0A0000 		.4byte	0xa9e
 2512 0b17 02       		.byte	0x2
 2513 0b18 91       		.byte	0x91
 2514 0b19 7C       		.sleb128 -4
 2515 0b1a 00       		.byte	0x0
 2516 0b1b 1E       		.uleb128 0x1e
 2517 0b1c 51000000 		.4byte	.LASF169
 2518 0b20 01       		.byte	0x1
 2519 0b21 95       		.byte	0x95
 2520 0b22 01       		.byte	0x1
 2521 0b23 00000000 		.4byte	.LFB64
 2522 0b27 9E000000 		.4byte	.LFE64
 2523 0b2b 40000000 		.4byte	.LLST2
 2524 0b2f 8F0B0000 		.4byte	0xb8f
 2525 0b33 1F       		.uleb128 0x1f
 2526 0b34 73647000 		.ascii	"sdp\000"
 2527 0b38 01       		.byte	0x1
 2528 0b39 95       		.byte	0x95
 2529 0b3a E50A0000 		.4byte	0xae5
 2530 0b3e 02       		.byte	0x2
 2531 0b3f 91       		.byte	0x91
 2532 0b40 6C       		.sleb128 -20
 2533 0b41 1F       		.uleb128 0x1f
 2534 0b42 737200   		.ascii	"sr\000"
 2535 0b45 01       		.byte	0x1
 2536 0b46 95       		.byte	0x95
 2537 0b47 62000000 		.4byte	0x62
 2538 0b4b 02       		.byte	0x2
 2539 0b4c 91       		.byte	0x91
 2540 0b4d 6A       		.sleb128 -22
 2541 0b4e 21       		.uleb128 0x21
 2542 0b4f 73747300 		.ascii	"sts\000"
 2543 0b53 01       		.byte	0x1
 2544 0b54 96       		.byte	0x96
 2545 0b55 F2050000 		.4byte	0x5f2
 2546 0b59 02       		.byte	0x2
 2547 0b5a 91       		.byte	0x91
ARM GAS  C:\Users\z80\AppData\Local\Temp\ccRodHvf.s 			page 46


 2548 0b5b 74       		.sleb128 -12
 2549 0b5c 22       		.uleb128 0x22
 2550 0b5d 64000000 		.4byte	.LBB2
 2551 0b61 6C000000 		.4byte	.LBE2
 2552 0b65 770B0000 		.4byte	0xb77
 2553 0b69 21       		.uleb128 0x21
 2554 0b6a 746D7000 		.ascii	"tmp\000"
 2555 0b6e 01       		.byte	0x1
 2556 0b6f A0       		.byte	0xa0
 2557 0b70 86000000 		.4byte	0x86
 2558 0b74 01       		.byte	0x1
 2559 0b75 53       		.byte	0x53
 2560 0b76 00       		.byte	0x0
 2561 0b77 23       		.uleb128 0x23
 2562 0b78 92000000 		.4byte	.LBB3
 2563 0b7c 9A000000 		.4byte	.LBE3
 2564 0b80 21       		.uleb128 0x21
 2565 0b81 746D7000 		.ascii	"tmp\000"
 2566 0b85 01       		.byte	0x1
 2567 0b86 A2       		.byte	0xa2
 2568 0b87 86000000 		.4byte	0x86
 2569 0b8b 01       		.byte	0x1
 2570 0b8c 53       		.byte	0x53
 2571 0b8d 00       		.byte	0x0
 2572 0b8e 00       		.byte	0x0
 2573 0b8f 1E       		.uleb128 0x1e
 2574 0b90 96050000 		.4byte	.LASF170
 2575 0b94 01       		.byte	0x1
 2576 0b95 AA       		.byte	0xaa
 2577 0b96 01       		.byte	0x1
 2578 0b97 00000000 		.4byte	.LFB65
 2579 0b9b A4010000 		.4byte	.LFE65
 2580 0b9f 6C000000 		.4byte	.LLST3
 2581 0ba3 D40C0000 		.4byte	0xcd4
 2582 0ba7 1F       		.uleb128 0x1f
 2583 0ba8 73647000 		.ascii	"sdp\000"
 2584 0bac 01       		.byte	0x1
 2585 0bad AA       		.byte	0xaa
 2586 0bae E50A0000 		.4byte	0xae5
 2587 0bb2 02       		.byte	0x2
 2588 0bb3 91       		.byte	0x91
 2589 0bb4 64       		.sleb128 -28
 2590 0bb5 21       		.uleb128 0x21
 2591 0bb6 7500     		.ascii	"u\000"
 2592 0bb8 01       		.byte	0x1
 2593 0bb9 AB       		.byte	0xab
 2594 0bba 9E0A0000 		.4byte	0xa9e
 2595 0bbe 02       		.byte	0x2
 2596 0bbf 91       		.byte	0x91
 2597 0bc0 74       		.sleb128 -12
 2598 0bc1 21       		.uleb128 0x21
 2599 0bc2 63723100 		.ascii	"cr1\000"
 2600 0bc6 01       		.byte	0x1
 2601 0bc7 AC       		.byte	0xac
 2602 0bc8 62000000 		.4byte	0x62
 2603 0bcc 02       		.byte	0x2
 2604 0bcd 91       		.byte	0x91
ARM GAS  C:\Users\z80\AppData\Local\Temp\ccRodHvf.s 			page 47


 2605 0bce 72       		.sleb128 -14
 2606 0bcf 21       		.uleb128 0x21
 2607 0bd0 737200   		.ascii	"sr\000"
 2608 0bd3 01       		.byte	0x1
 2609 0bd4 AD       		.byte	0xad
 2610 0bd5 62000000 		.4byte	0x62
 2611 0bd9 02       		.byte	0x2
 2612 0bda 91       		.byte	0x91
 2613 0bdb 70       		.sleb128 -16
 2614 0bdc 21       		.uleb128 0x21
 2615 0bdd 647200   		.ascii	"dr\000"
 2616 0be0 01       		.byte	0x1
 2617 0be1 AE       		.byte	0xae
 2618 0be2 62000000 		.4byte	0x62
 2619 0be6 02       		.byte	0x2
 2620 0be7 91       		.byte	0x91
 2621 0be8 6E       		.sleb128 -18
 2622 0be9 22       		.uleb128 0x22
 2623 0bea 4A000000 		.4byte	.LBB4
 2624 0bee 52000000 		.4byte	.LBE4
 2625 0bf2 040C0000 		.4byte	0xc04
 2626 0bf6 21       		.uleb128 0x21
 2627 0bf7 746D7000 		.ascii	"tmp\000"
 2628 0bfb 01       		.byte	0x1
 2629 0bfc B5       		.byte	0xb5
 2630 0bfd 86000000 		.4byte	0x86
 2631 0c01 01       		.byte	0x1
 2632 0c02 53       		.byte	0x53
 2633 0c03 00       		.byte	0x0
 2634 0c04 22       		.uleb128 0x22
 2635 0c05 76000000 		.4byte	.LBB5
 2636 0c09 7E000000 		.4byte	.LBE5
 2637 0c0d 1F0C0000 		.4byte	0xc1f
 2638 0c11 21       		.uleb128 0x21
 2639 0c12 746D7000 		.ascii	"tmp\000"
 2640 0c16 01       		.byte	0x1
 2641 0c17 B7       		.byte	0xb7
 2642 0c18 86000000 		.4byte	0x86
 2643 0c1c 01       		.byte	0x1
 2644 0c1d 53       		.byte	0x53
 2645 0c1e 00       		.byte	0x0
 2646 0c1f 22       		.uleb128 0x22
 2647 0c20 9A000000 		.4byte	.LBB6
 2648 0c24 A2000000 		.4byte	.LBE6
 2649 0c28 3A0C0000 		.4byte	0xc3a
 2650 0c2c 21       		.uleb128 0x21
 2651 0c2d 746D7000 		.ascii	"tmp\000"
 2652 0c31 01       		.byte	0x1
 2653 0c32 BC       		.byte	0xbc
 2654 0c33 86000000 		.4byte	0x86
 2655 0c37 01       		.byte	0x1
 2656 0c38 53       		.byte	0x53
 2657 0c39 00       		.byte	0x0
 2658 0c3a 22       		.uleb128 0x22
 2659 0c3b B8000000 		.4byte	.LBB7
 2660 0c3f C0000000 		.4byte	.LBE7
 2661 0c43 550C0000 		.4byte	0xc55
ARM GAS  C:\Users\z80\AppData\Local\Temp\ccRodHvf.s 			page 48


 2662 0c47 21       		.uleb128 0x21
 2663 0c48 746D7000 		.ascii	"tmp\000"
 2664 0c4c 01       		.byte	0x1
 2665 0c4d BE       		.byte	0xbe
 2666 0c4e 86000000 		.4byte	0x86
 2667 0c52 01       		.byte	0x1
 2668 0c53 53       		.byte	0x53
 2669 0c54 00       		.byte	0x0
 2670 0c55 22       		.uleb128 0x22
 2671 0c56 D8000000 		.4byte	.LBB8
 2672 0c5a 42010000 		.4byte	.LBE8
 2673 0c5e A10C0000 		.4byte	0xca1
 2674 0c62 21       		.uleb128 0x21
 2675 0c63 6200     		.ascii	"b\000"
 2676 0c65 01       		.byte	0x1
 2677 0c66 C2       		.byte	0xc2
 2678 0c67 E8000000 		.4byte	0xe8
 2679 0c6b 02       		.byte	0x2
 2680 0c6c 91       		.byte	0x91
 2681 0c6d 68       		.sleb128 -24
 2682 0c6e 22       		.uleb128 0x22
 2683 0c6f D8000000 		.4byte	.LBB9
 2684 0c73 E0000000 		.4byte	.LBE9
 2685 0c77 890C0000 		.4byte	0xc89
 2686 0c7b 21       		.uleb128 0x21
 2687 0c7c 746D7000 		.ascii	"tmp\000"
 2688 0c80 01       		.byte	0x1
 2689 0c81 C3       		.byte	0xc3
 2690 0c82 86000000 		.4byte	0x86
 2691 0c86 01       		.byte	0x1
 2692 0c87 53       		.byte	0x53
 2693 0c88 00       		.byte	0x0
 2694 0c89 23       		.uleb128 0x23
 2695 0c8a 3A010000 		.4byte	.LBB10
 2696 0c8e 42010000 		.4byte	.LBE10
 2697 0c92 21       		.uleb128 0x21
 2698 0c93 746D7000 		.ascii	"tmp\000"
 2699 0c97 01       		.byte	0x1
 2700 0c98 CB       		.byte	0xcb
 2701 0c99 86000000 		.4byte	0x86
 2702 0c9d 01       		.byte	0x1
 2703 0c9e 53       		.byte	0x53
 2704 0c9f 00       		.byte	0x0
 2705 0ca0 00       		.byte	0x0
 2706 0ca1 22       		.uleb128 0x22
 2707 0ca2 4E010000 		.4byte	.LBB11
 2708 0ca6 56010000 		.4byte	.LBE11
 2709 0caa BC0C0000 		.4byte	0xcbc
 2710 0cae 21       		.uleb128 0x21
 2711 0caf 746D7000 		.ascii	"tmp\000"
 2712 0cb3 01       		.byte	0x1
 2713 0cb4 CF       		.byte	0xcf
 2714 0cb5 86000000 		.4byte	0x86
 2715 0cb9 01       		.byte	0x1
 2716 0cba 53       		.byte	0x53
 2717 0cbb 00       		.byte	0x0
 2718 0cbc 23       		.uleb128 0x23
ARM GAS  C:\Users\z80\AppData\Local\Temp\ccRodHvf.s 			page 49


 2719 0cbd 7A010000 		.4byte	.LBB12
 2720 0cc1 82010000 		.4byte	.LBE12
 2721 0cc5 21       		.uleb128 0x21
 2722 0cc6 746D7000 		.ascii	"tmp\000"
 2723 0cca 01       		.byte	0x1
 2724 0ccb D1       		.byte	0xd1
 2725 0ccc 86000000 		.4byte	0x86
 2726 0cd0 01       		.byte	0x1
 2727 0cd1 53       		.byte	0x53
 2728 0cd2 00       		.byte	0x0
 2729 0cd3 00       		.byte	0x0
 2730 0cd4 1E       		.uleb128 0x1e
 2731 0cd5 29040000 		.4byte	.LASF171
 2732 0cd9 01       		.byte	0x1
 2733 0cda D9       		.byte	0xd9
 2734 0cdb 01       		.byte	0x1
 2735 0cdc 00000000 		.4byte	.LFB66
 2736 0ce0 24000000 		.4byte	.LFE66
 2737 0ce4 98000000 		.4byte	.LLST4
 2738 0ce8 FA0C0000 		.4byte	0xcfa
 2739 0cec 1F       		.uleb128 0x1f
 2740 0ced 717000   		.ascii	"qp\000"
 2741 0cf0 01       		.byte	0x1
 2742 0cf1 D9       		.byte	0xd9
 2743 0cf2 EA040000 		.4byte	0x4ea
 2744 0cf6 02       		.byte	0x2
 2745 0cf7 91       		.byte	0x91
 2746 0cf8 7C       		.sleb128 -4
 2747 0cf9 00       		.byte	0x0
 2748 0cfa 1E       		.uleb128 0x1e
 2749 0cfb 31040000 		.4byte	.LASF172
 2750 0cff 01       		.byte	0x1
 2751 0d00 E1       		.byte	0xe1
 2752 0d01 01       		.byte	0x1
 2753 0d02 00000000 		.4byte	.LFB67
 2754 0d06 24000000 		.4byte	.LFE67
 2755 0d0a B8000000 		.4byte	.LLST5
 2756 0d0e 200D0000 		.4byte	0xd20
 2757 0d12 1F       		.uleb128 0x1f
 2758 0d13 717000   		.ascii	"qp\000"
 2759 0d16 01       		.byte	0x1
 2760 0d17 E1       		.byte	0xe1
 2761 0d18 EA040000 		.4byte	0x4ea
 2762 0d1c 02       		.byte	0x2
 2763 0d1d 91       		.byte	0x91
 2764 0d1e 7C       		.sleb128 -4
 2765 0d1f 00       		.byte	0x0
 2766 0d20 24       		.uleb128 0x24
 2767 0d21 01       		.byte	0x1
 2768 0d22 0B030000 		.4byte	.LASF173
 2769 0d26 01       		.byte	0x1
 2770 0d27 1201     		.2byte	0x112
 2771 0d29 01       		.byte	0x1
 2772 0d2a 00000000 		.4byte	.LFB68
 2773 0d2e 1C000000 		.4byte	.LFE68
 2774 0d32 D8000000 		.4byte	.LLST6
 2775 0d36 24       		.uleb128 0x24
ARM GAS  C:\Users\z80\AppData\Local\Temp\ccRodHvf.s 			page 50


 2776 0d37 01       		.byte	0x1
 2777 0d38 14030000 		.4byte	.LASF174
 2778 0d3c 01       		.byte	0x1
 2779 0d3d 2201     		.2byte	0x122
 2780 0d3f 01       		.byte	0x1
 2781 0d40 00000000 		.4byte	.LFB69
 2782 0d44 1C000000 		.4byte	.LFE69
 2783 0d48 F8000000 		.4byte	.LLST7
 2784 0d4c 24       		.uleb128 0x24
 2785 0d4d 01       		.byte	0x1
 2786 0d4e 66020000 		.4byte	.LASF175
 2787 0d52 01       		.byte	0x1
 2788 0d53 7501     		.2byte	0x175
 2789 0d55 01       		.byte	0x1
 2790 0d56 00000000 		.4byte	.LFB70
 2791 0d5a 5C000000 		.4byte	.LFE70
 2792 0d5e 18010000 		.4byte	.LLST8
 2793 0d62 25       		.uleb128 0x25
 2794 0d63 01       		.byte	0x1
 2795 0d64 E8040000 		.4byte	.LASF176
 2796 0d68 01       		.byte	0x1
 2797 0d69 A001     		.2byte	0x1a0
 2798 0d6b 01       		.byte	0x1
 2799 0d6c 00000000 		.4byte	.LFB71
 2800 0d70 90000000 		.4byte	.LFE71
 2801 0d74 38010000 		.4byte	.LLST9
 2802 0d78 9B0D0000 		.4byte	0xd9b
 2803 0d7c 26       		.uleb128 0x26
 2804 0d7d 73647000 		.ascii	"sdp\000"
 2805 0d81 01       		.byte	0x1
 2806 0d82 A001     		.2byte	0x1a0
 2807 0d84 E50A0000 		.4byte	0xae5
 2808 0d88 02       		.byte	0x2
 2809 0d89 91       		.byte	0x91
 2810 0d8a 74       		.sleb128 -12
 2811 0d8b 27       		.uleb128 0x27
 2812 0d8c 2C060000 		.4byte	.LASF166
 2813 0d90 01       		.byte	0x1
 2814 0d91 A001     		.2byte	0x1a0
 2815 0d93 EB0A0000 		.4byte	0xaeb
 2816 0d97 02       		.byte	0x2
 2817 0d98 91       		.byte	0x91
 2818 0d99 70       		.sleb128 -16
 2819 0d9a 00       		.byte	0x0
 2820 0d9b 25       		.uleb128 0x25
 2821 0d9c 01       		.byte	0x1
 2822 0d9d 81070000 		.4byte	.LASF177
 2823 0da1 01       		.byte	0x1
 2824 0da2 DD01     		.2byte	0x1dd
 2825 0da4 01       		.byte	0x1
 2826 0da5 00000000 		.4byte	.LFB72
 2827 0da9 7E000000 		.4byte	.LFE72
 2828 0dad 64010000 		.4byte	.LLST10
 2829 0db1 C50D0000 		.4byte	0xdc5
 2830 0db5 26       		.uleb128 0x26
 2831 0db6 73647000 		.ascii	"sdp\000"
 2832 0dba 01       		.byte	0x1
ARM GAS  C:\Users\z80\AppData\Local\Temp\ccRodHvf.s 			page 51


 2833 0dbb DD01     		.2byte	0x1dd
 2834 0dbd E50A0000 		.4byte	0xae5
 2835 0dc1 02       		.byte	0x2
 2836 0dc2 91       		.byte	0x91
 2837 0dc3 74       		.sleb128 -12
 2838 0dc4 00       		.byte	0x0
 2839 0dc5 28       		.uleb128 0x28
 2840 0dc6 AE000000 		.4byte	.LASF178
 2841 0dca 0F       		.byte	0xf
 2842 0dcb 9404     		.2byte	0x494
 2843 0dcd 58070000 		.4byte	0x758
 2844 0dd1 01       		.byte	0x1
 2845 0dd2 01       		.byte	0x1
 2846 0dd3 29       		.uleb128 0x29
 2847 0dd4 53443100 		.ascii	"SD1\000"
 2848 0dd8 0E       		.byte	0xe
 2849 0dd9 FB       		.byte	0xfb
 2850 0dda 14090000 		.4byte	0x914
 2851 0dde 01       		.byte	0x1
 2852 0ddf 01       		.byte	0x1
 2853 0de0 29       		.uleb128 0x29
 2854 0de1 53443200 		.ascii	"SD2\000"
 2855 0de5 0E       		.byte	0xe
 2856 0de6 FE       		.byte	0xfe
 2857 0de7 14090000 		.4byte	0x914
 2858 0deb 01       		.byte	0x1
 2859 0dec 01       		.byte	0x1
 2860 0ded 2A       		.uleb128 0x2a
 2861 0dee 3A010000 		.4byte	.LASF179
 2862 0df2 01       		.byte	0x1
 2863 0df3 50       		.byte	0x50
 2864 0df4 F10A0000 		.4byte	0xaf1
 2865 0df8 05       		.byte	0x5
 2866 0df9 03       		.byte	0x3
 2867 0dfa 00000000 		.4byte	default_config
 2868 0dfe 28       		.uleb128 0x28
 2869 0dff AE000000 		.4byte	.LASF178
 2870 0e03 0F       		.byte	0xf
 2871 0e04 9404     		.2byte	0x494
 2872 0e06 58070000 		.4byte	0x758
 2873 0e0a 01       		.byte	0x1
 2874 0e0b 01       		.byte	0x1
 2875 0e0c 2B       		.uleb128 0x2b
 2876 0e0d 53443100 		.ascii	"SD1\000"
 2877 0e11 01       		.byte	0x1
 2878 0e12 2F       		.byte	0x2f
 2879 0e13 14090000 		.4byte	0x914
 2880 0e17 01       		.byte	0x1
 2881 0e18 05       		.byte	0x5
 2882 0e19 03       		.byte	0x3
 2883 0e1a 00000000 		.4byte	SD1
 2884 0e1e 2B       		.uleb128 0x2b
 2885 0e1f 53443200 		.ascii	"SD2\000"
 2886 0e23 01       		.byte	0x1
 2887 0e24 34       		.byte	0x34
 2888 0e25 14090000 		.4byte	0x914
 2889 0e29 01       		.byte	0x1
ARM GAS  C:\Users\z80\AppData\Local\Temp\ccRodHvf.s 			page 52


 2890 0e2a 05       		.byte	0x5
 2891 0e2b 03       		.byte	0x3
 2892 0e2c 00000000 		.4byte	SD2
 2893 0e30 00       		.byte	0x0
 2894              		.section	.debug_abbrev
 2895 0000 01       		.uleb128 0x1
 2896 0001 11       		.uleb128 0x11
 2897 0002 01       		.byte	0x1
 2898 0003 25       		.uleb128 0x25
 2899 0004 0E       		.uleb128 0xe
 2900 0005 13       		.uleb128 0x13
 2901 0006 0B       		.uleb128 0xb
 2902 0007 03       		.uleb128 0x3
 2903 0008 0E       		.uleb128 0xe
 2904 0009 1B       		.uleb128 0x1b
 2905 000a 0E       		.uleb128 0xe
 2906 000b 11       		.uleb128 0x11
 2907 000c 01       		.uleb128 0x1
 2908 000d 52       		.uleb128 0x52
 2909 000e 01       		.uleb128 0x1
 2910 000f 55       		.uleb128 0x55
 2911 0010 06       		.uleb128 0x6
 2912 0011 10       		.uleb128 0x10
 2913 0012 06       		.uleb128 0x6
 2914 0013 00       		.byte	0x0
 2915 0014 00       		.byte	0x0
 2916 0015 02       		.uleb128 0x2
 2917 0016 24       		.uleb128 0x24
 2918 0017 00       		.byte	0x0
 2919 0018 0B       		.uleb128 0xb
 2920 0019 0B       		.uleb128 0xb
 2921 001a 3E       		.uleb128 0x3e
 2922 001b 0B       		.uleb128 0xb
 2923 001c 03       		.uleb128 0x3
 2924 001d 08       		.uleb128 0x8
 2925 001e 00       		.byte	0x0
 2926 001f 00       		.byte	0x0
 2927 0020 03       		.uleb128 0x3
 2928 0021 16       		.uleb128 0x16
 2929 0022 00       		.byte	0x0
 2930 0023 03       		.uleb128 0x3
 2931 0024 0E       		.uleb128 0xe
 2932 0025 3A       		.uleb128 0x3a
 2933 0026 0B       		.uleb128 0xb
 2934 0027 3B       		.uleb128 0x3b
 2935 0028 0B       		.uleb128 0xb
 2936 0029 49       		.uleb128 0x49
 2937 002a 13       		.uleb128 0x13
 2938 002b 00       		.byte	0x0
 2939 002c 00       		.byte	0x0
 2940 002d 04       		.uleb128 0x4
 2941 002e 24       		.uleb128 0x24
 2942 002f 00       		.byte	0x0
 2943 0030 0B       		.uleb128 0xb
 2944 0031 0B       		.uleb128 0xb
 2945 0032 3E       		.uleb128 0x3e
 2946 0033 0B       		.uleb128 0xb
ARM GAS  C:\Users\z80\AppData\Local\Temp\ccRodHvf.s 			page 53


 2947 0034 03       		.uleb128 0x3
 2948 0035 0E       		.uleb128 0xe
 2949 0036 00       		.byte	0x0
 2950 0037 00       		.byte	0x0
 2951 0038 05       		.uleb128 0x5
 2952 0039 13       		.uleb128 0x13
 2953 003a 01       		.byte	0x1
 2954 003b 03       		.uleb128 0x3
 2955 003c 0E       		.uleb128 0xe
 2956 003d 0B       		.uleb128 0xb
 2957 003e 0B       		.uleb128 0xb
 2958 003f 3A       		.uleb128 0x3a
 2959 0040 0B       		.uleb128 0xb
 2960 0041 3B       		.uleb128 0x3b
 2961 0042 0B       		.uleb128 0xb
 2962 0043 01       		.uleb128 0x1
 2963 0044 13       		.uleb128 0x13
 2964 0045 00       		.byte	0x0
 2965 0046 00       		.byte	0x0
 2966 0047 06       		.uleb128 0x6
 2967 0048 0D       		.uleb128 0xd
 2968 0049 00       		.byte	0x0
 2969 004a 03       		.uleb128 0x3
 2970 004b 0E       		.uleb128 0xe
 2971 004c 3A       		.uleb128 0x3a
 2972 004d 0B       		.uleb128 0xb
 2973 004e 3B       		.uleb128 0x3b
 2974 004f 0B       		.uleb128 0xb
 2975 0050 49       		.uleb128 0x49
 2976 0051 13       		.uleb128 0x13
 2977 0052 38       		.uleb128 0x38
 2978 0053 0A       		.uleb128 0xa
 2979 0054 00       		.byte	0x0
 2980 0055 00       		.byte	0x0
 2981 0056 07       		.uleb128 0x7
 2982 0057 0D       		.uleb128 0xd
 2983 0058 00       		.byte	0x0
 2984 0059 03       		.uleb128 0x3
 2985 005a 08       		.uleb128 0x8
 2986 005b 3A       		.uleb128 0x3a
 2987 005c 0B       		.uleb128 0xb
 2988 005d 3B       		.uleb128 0x3b
 2989 005e 0B       		.uleb128 0xb
 2990 005f 49       		.uleb128 0x49
 2991 0060 13       		.uleb128 0x13
 2992 0061 38       		.uleb128 0x38
 2993 0062 0A       		.uleb128 0xa
 2994 0063 00       		.byte	0x0
 2995 0064 00       		.byte	0x0
 2996 0065 08       		.uleb128 0x8
 2997 0066 13       		.uleb128 0x13
 2998 0067 01       		.byte	0x1
 2999 0068 0B       		.uleb128 0xb
 3000 0069 0B       		.uleb128 0xb
 3001 006a 3A       		.uleb128 0x3a
 3002 006b 0B       		.uleb128 0xb
 3003 006c 3B       		.uleb128 0x3b
ARM GAS  C:\Users\z80\AppData\Local\Temp\ccRodHvf.s 			page 54


 3004 006d 0B       		.uleb128 0xb
 3005 006e 01       		.uleb128 0x1
 3006 006f 13       		.uleb128 0x13
 3007 0070 00       		.byte	0x0
 3008 0071 00       		.byte	0x0
 3009 0072 09       		.uleb128 0x9
 3010 0073 0F       		.uleb128 0xf
 3011 0074 00       		.byte	0x0
 3012 0075 0B       		.uleb128 0xb
 3013 0076 0B       		.uleb128 0xb
 3014 0077 49       		.uleb128 0x49
 3015 0078 13       		.uleb128 0x13
 3016 0079 00       		.byte	0x0
 3017 007a 00       		.byte	0x0
 3018 007b 0A       		.uleb128 0xa
 3019 007c 0F       		.uleb128 0xf
 3020 007d 00       		.byte	0x0
 3021 007e 0B       		.uleb128 0xb
 3022 007f 0B       		.uleb128 0xb
 3023 0080 00       		.byte	0x0
 3024 0081 00       		.byte	0x0
 3025 0082 0B       		.uleb128 0xb
 3026 0083 0D       		.uleb128 0xd
 3027 0084 00       		.byte	0x0
 3028 0085 03       		.uleb128 0x3
 3029 0086 08       		.uleb128 0x8
 3030 0087 3A       		.uleb128 0x3a
 3031 0088 0B       		.uleb128 0xb
 3032 0089 3B       		.uleb128 0x3b
 3033 008a 05       		.uleb128 0x5
 3034 008b 49       		.uleb128 0x49
 3035 008c 13       		.uleb128 0x13
 3036 008d 38       		.uleb128 0x38
 3037 008e 0A       		.uleb128 0xa
 3038 008f 00       		.byte	0x0
 3039 0090 00       		.byte	0x0
 3040 0091 0C       		.uleb128 0xc
 3041 0092 13       		.uleb128 0x13
 3042 0093 01       		.byte	0x1
 3043 0094 03       		.uleb128 0x3
 3044 0095 0E       		.uleb128 0xe
 3045 0096 0B       		.uleb128 0xb
 3046 0097 0B       		.uleb128 0xb
 3047 0098 3A       		.uleb128 0x3a
 3048 0099 0B       		.uleb128 0xb
 3049 009a 3B       		.uleb128 0x3b
 3050 009b 05       		.uleb128 0x5
 3051 009c 01       		.uleb128 0x1
 3052 009d 13       		.uleb128 0x13
 3053 009e 00       		.byte	0x0
 3054 009f 00       		.byte	0x0
 3055 00a0 0D       		.uleb128 0xd
 3056 00a1 35       		.uleb128 0x35
 3057 00a2 00       		.byte	0x0
 3058 00a3 49       		.uleb128 0x49
 3059 00a4 13       		.uleb128 0x13
 3060 00a5 00       		.byte	0x0
ARM GAS  C:\Users\z80\AppData\Local\Temp\ccRodHvf.s 			page 55


 3061 00a6 00       		.byte	0x0
 3062 00a7 0E       		.uleb128 0xe
 3063 00a8 24       		.uleb128 0x24
 3064 00a9 00       		.byte	0x0
 3065 00aa 0B       		.uleb128 0xb
 3066 00ab 0B       		.uleb128 0xb
 3067 00ac 3E       		.uleb128 0x3e
 3068 00ad 0B       		.uleb128 0xb
 3069 00ae 00       		.byte	0x0
 3070 00af 00       		.byte	0x0
 3071 00b0 0F       		.uleb128 0xf
 3072 00b1 17       		.uleb128 0x17
 3073 00b2 01       		.byte	0x1
 3074 00b3 0B       		.uleb128 0xb
 3075 00b4 0B       		.uleb128 0xb
 3076 00b5 3A       		.uleb128 0x3a
 3077 00b6 0B       		.uleb128 0xb
 3078 00b7 3B       		.uleb128 0x3b
 3079 00b8 0B       		.uleb128 0xb
 3080 00b9 01       		.uleb128 0x1
 3081 00ba 13       		.uleb128 0x13
 3082 00bb 00       		.byte	0x0
 3083 00bc 00       		.byte	0x0
 3084 00bd 10       		.uleb128 0x10
 3085 00be 0D       		.uleb128 0xd
 3086 00bf 00       		.byte	0x0
 3087 00c0 03       		.uleb128 0x3
 3088 00c1 0E       		.uleb128 0xe
 3089 00c2 3A       		.uleb128 0x3a
 3090 00c3 0B       		.uleb128 0xb
 3091 00c4 3B       		.uleb128 0x3b
 3092 00c5 0B       		.uleb128 0xb
 3093 00c6 49       		.uleb128 0x49
 3094 00c7 13       		.uleb128 0x13
 3095 00c8 00       		.byte	0x0
 3096 00c9 00       		.byte	0x0
 3097 00ca 11       		.uleb128 0x11
 3098 00cb 26       		.uleb128 0x26
 3099 00cc 00       		.byte	0x0
 3100 00cd 49       		.uleb128 0x49
 3101 00ce 13       		.uleb128 0x13
 3102 00cf 00       		.byte	0x0
 3103 00d0 00       		.byte	0x0
 3104 00d1 12       		.uleb128 0x12
 3105 00d2 15       		.uleb128 0x15
 3106 00d3 01       		.byte	0x1
 3107 00d4 27       		.uleb128 0x27
 3108 00d5 0C       		.uleb128 0xc
 3109 00d6 01       		.uleb128 0x1
 3110 00d7 13       		.uleb128 0x13
 3111 00d8 00       		.byte	0x0
 3112 00d9 00       		.byte	0x0
 3113 00da 13       		.uleb128 0x13
 3114 00db 05       		.uleb128 0x5
 3115 00dc 00       		.byte	0x0
 3116 00dd 49       		.uleb128 0x49
 3117 00de 13       		.uleb128 0x13
ARM GAS  C:\Users\z80\AppData\Local\Temp\ccRodHvf.s 			page 56


 3118 00df 00       		.byte	0x0
 3119 00e0 00       		.byte	0x0
 3120 00e1 14       		.uleb128 0x14
 3121 00e2 15       		.uleb128 0x15
 3122 00e3 01       		.byte	0x1
 3123 00e4 27       		.uleb128 0x27
 3124 00e5 0C       		.uleb128 0xc
 3125 00e6 49       		.uleb128 0x49
 3126 00e7 13       		.uleb128 0x13
 3127 00e8 01       		.uleb128 0x1
 3128 00e9 13       		.uleb128 0x13
 3129 00ea 00       		.byte	0x0
 3130 00eb 00       		.byte	0x0
 3131 00ec 15       		.uleb128 0x15
 3132 00ed 16       		.uleb128 0x16
 3133 00ee 00       		.byte	0x0
 3134 00ef 03       		.uleb128 0x3
 3135 00f0 0E       		.uleb128 0xe
 3136 00f1 3A       		.uleb128 0x3a
 3137 00f2 0B       		.uleb128 0xb
 3138 00f3 3B       		.uleb128 0x3b
 3139 00f4 05       		.uleb128 0x5
 3140 00f5 49       		.uleb128 0x49
 3141 00f6 13       		.uleb128 0x13
 3142 00f7 00       		.byte	0x0
 3143 00f8 00       		.byte	0x0
 3144 00f9 16       		.uleb128 0x16
 3145 00fa 04       		.uleb128 0x4
 3146 00fb 01       		.byte	0x1
 3147 00fc 03       		.uleb128 0x3
 3148 00fd 0E       		.uleb128 0xe
 3149 00fe 0B       		.uleb128 0xb
 3150 00ff 0B       		.uleb128 0xb
 3151 0100 3A       		.uleb128 0x3a
 3152 0101 0B       		.uleb128 0xb
 3153 0102 3B       		.uleb128 0x3b
 3154 0103 0B       		.uleb128 0xb
 3155 0104 01       		.uleb128 0x1
 3156 0105 13       		.uleb128 0x13
 3157 0106 00       		.byte	0x0
 3158 0107 00       		.byte	0x0
 3159 0108 17       		.uleb128 0x17
 3160 0109 28       		.uleb128 0x28
 3161 010a 00       		.byte	0x0
 3162 010b 03       		.uleb128 0x3
 3163 010c 0E       		.uleb128 0xe
 3164 010d 1C       		.uleb128 0x1c
 3165 010e 0D       		.uleb128 0xd
 3166 010f 00       		.byte	0x0
 3167 0110 00       		.byte	0x0
 3168 0111 18       		.uleb128 0x18
 3169 0112 13       		.uleb128 0x13
 3170 0113 01       		.byte	0x1
 3171 0114 0B       		.uleb128 0xb
 3172 0115 0B       		.uleb128 0xb
 3173 0116 3A       		.uleb128 0x3a
 3174 0117 0B       		.uleb128 0xb
ARM GAS  C:\Users\z80\AppData\Local\Temp\ccRodHvf.s 			page 57


 3175 0118 3B       		.uleb128 0x3b
 3176 0119 05       		.uleb128 0x5
 3177 011a 01       		.uleb128 0x1
 3178 011b 13       		.uleb128 0x13
 3179 011c 00       		.byte	0x0
 3180 011d 00       		.byte	0x0
 3181 011e 19       		.uleb128 0x19
 3182 011f 0D       		.uleb128 0xd
 3183 0120 00       		.byte	0x0
 3184 0121 03       		.uleb128 0x3
 3185 0122 0E       		.uleb128 0xe
 3186 0123 3A       		.uleb128 0x3a
 3187 0124 0B       		.uleb128 0xb
 3188 0125 3B       		.uleb128 0x3b
 3189 0126 05       		.uleb128 0x5
 3190 0127 49       		.uleb128 0x49
 3191 0128 13       		.uleb128 0x13
 3192 0129 38       		.uleb128 0x38
 3193 012a 0A       		.uleb128 0xa
 3194 012b 00       		.byte	0x0
 3195 012c 00       		.byte	0x0
 3196 012d 1A       		.uleb128 0x1a
 3197 012e 04       		.uleb128 0x4
 3198 012f 01       		.byte	0x1
 3199 0130 0B       		.uleb128 0xb
 3200 0131 0B       		.uleb128 0xb
 3201 0132 3A       		.uleb128 0x3a
 3202 0133 0B       		.uleb128 0xb
 3203 0134 3B       		.uleb128 0x3b
 3204 0135 0B       		.uleb128 0xb
 3205 0136 01       		.uleb128 0x1
 3206 0137 13       		.uleb128 0x13
 3207 0138 00       		.byte	0x0
 3208 0139 00       		.byte	0x0
 3209 013a 1B       		.uleb128 0x1b
 3210 013b 13       		.uleb128 0x13
 3211 013c 01       		.byte	0x1
 3212 013d 03       		.uleb128 0x3
 3213 013e 0E       		.uleb128 0xe
 3214 013f 0B       		.uleb128 0xb
 3215 0140 05       		.uleb128 0x5
 3216 0141 3A       		.uleb128 0x3a
 3217 0142 0B       		.uleb128 0xb
 3218 0143 3B       		.uleb128 0x3b
 3219 0144 0B       		.uleb128 0xb
 3220 0145 01       		.uleb128 0x1
 3221 0146 13       		.uleb128 0x13
 3222 0147 00       		.byte	0x0
 3223 0148 00       		.byte	0x0
 3224 0149 1C       		.uleb128 0x1c
 3225 014a 01       		.uleb128 0x1
 3226 014b 01       		.byte	0x1
 3227 014c 49       		.uleb128 0x49
 3228 014d 13       		.uleb128 0x13
 3229 014e 01       		.uleb128 0x1
 3230 014f 13       		.uleb128 0x13
 3231 0150 00       		.byte	0x0
ARM GAS  C:\Users\z80\AppData\Local\Temp\ccRodHvf.s 			page 58


 3232 0151 00       		.byte	0x0
 3233 0152 1D       		.uleb128 0x1d
 3234 0153 21       		.uleb128 0x21
 3235 0154 00       		.byte	0x0
 3236 0155 49       		.uleb128 0x49
 3237 0156 13       		.uleb128 0x13
 3238 0157 2F       		.uleb128 0x2f
 3239 0158 05       		.uleb128 0x5
 3240 0159 00       		.byte	0x0
 3241 015a 00       		.byte	0x0
 3242 015b 1E       		.uleb128 0x1e
 3243 015c 2E       		.uleb128 0x2e
 3244 015d 01       		.byte	0x1
 3245 015e 03       		.uleb128 0x3
 3246 015f 0E       		.uleb128 0xe
 3247 0160 3A       		.uleb128 0x3a
 3248 0161 0B       		.uleb128 0xb
 3249 0162 3B       		.uleb128 0x3b
 3250 0163 0B       		.uleb128 0xb
 3251 0164 27       		.uleb128 0x27
 3252 0165 0C       		.uleb128 0xc
 3253 0166 11       		.uleb128 0x11
 3254 0167 01       		.uleb128 0x1
 3255 0168 12       		.uleb128 0x12
 3256 0169 01       		.uleb128 0x1
 3257 016a 40       		.uleb128 0x40
 3258 016b 06       		.uleb128 0x6
 3259 016c 01       		.uleb128 0x1
 3260 016d 13       		.uleb128 0x13
 3261 016e 00       		.byte	0x0
 3262 016f 00       		.byte	0x0
 3263 0170 1F       		.uleb128 0x1f
 3264 0171 05       		.uleb128 0x5
 3265 0172 00       		.byte	0x0
 3266 0173 03       		.uleb128 0x3
 3267 0174 08       		.uleb128 0x8
 3268 0175 3A       		.uleb128 0x3a
 3269 0176 0B       		.uleb128 0xb
 3270 0177 3B       		.uleb128 0x3b
 3271 0178 0B       		.uleb128 0xb
 3272 0179 49       		.uleb128 0x49
 3273 017a 13       		.uleb128 0x13
 3274 017b 02       		.uleb128 0x2
 3275 017c 0A       		.uleb128 0xa
 3276 017d 00       		.byte	0x0
 3277 017e 00       		.byte	0x0
 3278 017f 20       		.uleb128 0x20
 3279 0180 05       		.uleb128 0x5
 3280 0181 00       		.byte	0x0
 3281 0182 03       		.uleb128 0x3
 3282 0183 0E       		.uleb128 0xe
 3283 0184 3A       		.uleb128 0x3a
 3284 0185 0B       		.uleb128 0xb
 3285 0186 3B       		.uleb128 0x3b
 3286 0187 0B       		.uleb128 0xb
 3287 0188 49       		.uleb128 0x49
 3288 0189 13       		.uleb128 0x13
ARM GAS  C:\Users\z80\AppData\Local\Temp\ccRodHvf.s 			page 59


 3289 018a 02       		.uleb128 0x2
 3290 018b 0A       		.uleb128 0xa
 3291 018c 00       		.byte	0x0
 3292 018d 00       		.byte	0x0
 3293 018e 21       		.uleb128 0x21
 3294 018f 34       		.uleb128 0x34
 3295 0190 00       		.byte	0x0
 3296 0191 03       		.uleb128 0x3
 3297 0192 08       		.uleb128 0x8
 3298 0193 3A       		.uleb128 0x3a
 3299 0194 0B       		.uleb128 0xb
 3300 0195 3B       		.uleb128 0x3b
 3301 0196 0B       		.uleb128 0xb
 3302 0197 49       		.uleb128 0x49
 3303 0198 13       		.uleb128 0x13
 3304 0199 02       		.uleb128 0x2
 3305 019a 0A       		.uleb128 0xa
 3306 019b 00       		.byte	0x0
 3307 019c 00       		.byte	0x0
 3308 019d 22       		.uleb128 0x22
 3309 019e 0B       		.uleb128 0xb
 3310 019f 01       		.byte	0x1
 3311 01a0 11       		.uleb128 0x11
 3312 01a1 01       		.uleb128 0x1
 3313 01a2 12       		.uleb128 0x12
 3314 01a3 01       		.uleb128 0x1
 3315 01a4 01       		.uleb128 0x1
 3316 01a5 13       		.uleb128 0x13
 3317 01a6 00       		.byte	0x0
 3318 01a7 00       		.byte	0x0
 3319 01a8 23       		.uleb128 0x23
 3320 01a9 0B       		.uleb128 0xb
 3321 01aa 01       		.byte	0x1
 3322 01ab 11       		.uleb128 0x11
 3323 01ac 01       		.uleb128 0x1
 3324 01ad 12       		.uleb128 0x12
 3325 01ae 01       		.uleb128 0x1
 3326 01af 00       		.byte	0x0
 3327 01b0 00       		.byte	0x0
 3328 01b1 24       		.uleb128 0x24
 3329 01b2 2E       		.uleb128 0x2e
 3330 01b3 00       		.byte	0x0
 3331 01b4 3F       		.uleb128 0x3f
 3332 01b5 0C       		.uleb128 0xc
 3333 01b6 03       		.uleb128 0x3
 3334 01b7 0E       		.uleb128 0xe
 3335 01b8 3A       		.uleb128 0x3a
 3336 01b9 0B       		.uleb128 0xb
 3337 01ba 3B       		.uleb128 0x3b
 3338 01bb 05       		.uleb128 0x5
 3339 01bc 27       		.uleb128 0x27
 3340 01bd 0C       		.uleb128 0xc
 3341 01be 11       		.uleb128 0x11
 3342 01bf 01       		.uleb128 0x1
 3343 01c0 12       		.uleb128 0x12
 3344 01c1 01       		.uleb128 0x1
 3345 01c2 40       		.uleb128 0x40
ARM GAS  C:\Users\z80\AppData\Local\Temp\ccRodHvf.s 			page 60


 3346 01c3 06       		.uleb128 0x6
 3347 01c4 00       		.byte	0x0
 3348 01c5 00       		.byte	0x0
 3349 01c6 25       		.uleb128 0x25
 3350 01c7 2E       		.uleb128 0x2e
 3351 01c8 01       		.byte	0x1
 3352 01c9 3F       		.uleb128 0x3f
 3353 01ca 0C       		.uleb128 0xc
 3354 01cb 03       		.uleb128 0x3
 3355 01cc 0E       		.uleb128 0xe
 3356 01cd 3A       		.uleb128 0x3a
 3357 01ce 0B       		.uleb128 0xb
 3358 01cf 3B       		.uleb128 0x3b
 3359 01d0 05       		.uleb128 0x5
 3360 01d1 27       		.uleb128 0x27
 3361 01d2 0C       		.uleb128 0xc
 3362 01d3 11       		.uleb128 0x11
 3363 01d4 01       		.uleb128 0x1
 3364 01d5 12       		.uleb128 0x12
 3365 01d6 01       		.uleb128 0x1
 3366 01d7 40       		.uleb128 0x40
 3367 01d8 06       		.uleb128 0x6
 3368 01d9 01       		.uleb128 0x1
 3369 01da 13       		.uleb128 0x13
 3370 01db 00       		.byte	0x0
 3371 01dc 00       		.byte	0x0
 3372 01dd 26       		.uleb128 0x26
 3373 01de 05       		.uleb128 0x5
 3374 01df 00       		.byte	0x0
 3375 01e0 03       		.uleb128 0x3
 3376 01e1 08       		.uleb128 0x8
 3377 01e2 3A       		.uleb128 0x3a
 3378 01e3 0B       		.uleb128 0xb
 3379 01e4 3B       		.uleb128 0x3b
 3380 01e5 05       		.uleb128 0x5
 3381 01e6 49       		.uleb128 0x49
 3382 01e7 13       		.uleb128 0x13
 3383 01e8 02       		.uleb128 0x2
 3384 01e9 0A       		.uleb128 0xa
 3385 01ea 00       		.byte	0x0
 3386 01eb 00       		.byte	0x0
 3387 01ec 27       		.uleb128 0x27
 3388 01ed 05       		.uleb128 0x5
 3389 01ee 00       		.byte	0x0
 3390 01ef 03       		.uleb128 0x3
 3391 01f0 0E       		.uleb128 0xe
 3392 01f1 3A       		.uleb128 0x3a
 3393 01f2 0B       		.uleb128 0xb
 3394 01f3 3B       		.uleb128 0x3b
 3395 01f4 05       		.uleb128 0x5
 3396 01f5 49       		.uleb128 0x49
 3397 01f6 13       		.uleb128 0x13
 3398 01f7 02       		.uleb128 0x2
 3399 01f8 0A       		.uleb128 0xa
 3400 01f9 00       		.byte	0x0
 3401 01fa 00       		.byte	0x0
 3402 01fb 28       		.uleb128 0x28
ARM GAS  C:\Users\z80\AppData\Local\Temp\ccRodHvf.s 			page 61


 3403 01fc 34       		.uleb128 0x34
 3404 01fd 00       		.byte	0x0
 3405 01fe 03       		.uleb128 0x3
 3406 01ff 0E       		.uleb128 0xe
 3407 0200 3A       		.uleb128 0x3a
 3408 0201 0B       		.uleb128 0xb
 3409 0202 3B       		.uleb128 0x3b
 3410 0203 05       		.uleb128 0x5
 3411 0204 49       		.uleb128 0x49
 3412 0205 13       		.uleb128 0x13
 3413 0206 3F       		.uleb128 0x3f
 3414 0207 0C       		.uleb128 0xc
 3415 0208 3C       		.uleb128 0x3c
 3416 0209 0C       		.uleb128 0xc
 3417 020a 00       		.byte	0x0
 3418 020b 00       		.byte	0x0
 3419 020c 29       		.uleb128 0x29
 3420 020d 34       		.uleb128 0x34
 3421 020e 00       		.byte	0x0
 3422 020f 03       		.uleb128 0x3
 3423 0210 08       		.uleb128 0x8
 3424 0211 3A       		.uleb128 0x3a
 3425 0212 0B       		.uleb128 0xb
 3426 0213 3B       		.uleb128 0x3b
 3427 0214 0B       		.uleb128 0xb
 3428 0215 49       		.uleb128 0x49
 3429 0216 13       		.uleb128 0x13
 3430 0217 3F       		.uleb128 0x3f
 3431 0218 0C       		.uleb128 0xc
 3432 0219 3C       		.uleb128 0x3c
 3433 021a 0C       		.uleb128 0xc
 3434 021b 00       		.byte	0x0
 3435 021c 00       		.byte	0x0
 3436 021d 2A       		.uleb128 0x2a
 3437 021e 34       		.uleb128 0x34
 3438 021f 00       		.byte	0x0
 3439 0220 03       		.uleb128 0x3
 3440 0221 0E       		.uleb128 0xe
 3441 0222 3A       		.uleb128 0x3a
 3442 0223 0B       		.uleb128 0xb
 3443 0224 3B       		.uleb128 0x3b
 3444 0225 0B       		.uleb128 0xb
 3445 0226 49       		.uleb128 0x49
 3446 0227 13       		.uleb128 0x13
 3447 0228 02       		.uleb128 0x2
 3448 0229 0A       		.uleb128 0xa
 3449 022a 00       		.byte	0x0
 3450 022b 00       		.byte	0x0
 3451 022c 2B       		.uleb128 0x2b
 3452 022d 34       		.uleb128 0x34
 3453 022e 00       		.byte	0x0
 3454 022f 03       		.uleb128 0x3
 3455 0230 08       		.uleb128 0x8
 3456 0231 3A       		.uleb128 0x3a
 3457 0232 0B       		.uleb128 0xb
 3458 0233 3B       		.uleb128 0x3b
 3459 0234 0B       		.uleb128 0xb
ARM GAS  C:\Users\z80\AppData\Local\Temp\ccRodHvf.s 			page 62


 3460 0235 49       		.uleb128 0x49
 3461 0236 13       		.uleb128 0x13
 3462 0237 3F       		.uleb128 0x3f
 3463 0238 0C       		.uleb128 0xc
 3464 0239 02       		.uleb128 0x2
 3465 023a 0A       		.uleb128 0xa
 3466 023b 00       		.byte	0x0
 3467 023c 00       		.byte	0x0
 3468 023d 00       		.byte	0x0
 3469              		.section	.debug_pubnames,"",%progbits
 3470 0000 69000000 		.4byte	0x69
 3471 0004 0200     		.2byte	0x2
 3472 0006 00000000 		.4byte	.Ldebug_info0
 3473 000a 310E0000 		.4byte	0xe31
 3474 000e 200D0000 		.4byte	0xd20
 3475 0012 56656374 		.ascii	"VectorD4\000"
 3475      6F724434 
 3475      00
 3476 001b 360D0000 		.4byte	0xd36
 3477 001f 56656374 		.ascii	"VectorD8\000"
 3477      6F724438 
 3477      00
 3478 0028 4C0D0000 		.4byte	0xd4c
 3479 002c 73645F6C 		.ascii	"sd_lld_init\000"
 3479      6C645F69 
 3479      6E697400 
 3480 0038 620D0000 		.4byte	0xd62
 3481 003c 73645F6C 		.ascii	"sd_lld_start\000"
 3481      6C645F73 
 3481      74617274 
 3481      00
 3482 0049 9B0D0000 		.4byte	0xd9b
 3483 004d 73645F6C 		.ascii	"sd_lld_stop\000"
 3483      6C645F73 
 3483      746F7000 
 3484 0059 0C0E0000 		.4byte	0xe0c
 3485 005d 53443100 		.ascii	"SD1\000"
 3486 0061 1E0E0000 		.4byte	0xe1e
 3487 0065 53443200 		.ascii	"SD2\000"
 3488 0069 00000000 		.4byte	0x0
 3489              		.section	.debug_pubtypes,"",%progbits
 3490 0000 61020000 		.4byte	0x261
 3491 0004 0200     		.2byte	0x2
 3492 0006 00000000 		.4byte	.Ldebug_info0
 3493 000a 310E0000 		.4byte	0xe31
 3494 000e 30000000 		.4byte	0x30
 3495 0012 73697A65 		.ascii	"size_t\000"
 3495      5F7400
 3496 0019 49000000 		.4byte	0x49
 3497 001d 75696E74 		.ascii	"uint8_t\000"
 3497      385F7400 
 3498 0025 62000000 		.4byte	0x62
 3499 0029 75696E74 		.ascii	"uint16_t\000"
 3499      31365F74 
 3499      00
 3500 0032 74000000 		.4byte	0x74
 3501 0036 696E7433 		.ascii	"int32_t\000"
ARM GAS  C:\Users\z80\AppData\Local\Temp\ccRodHvf.s 			page 63


 3501      325F7400 
 3502 003e 86000000 		.4byte	0x86
 3503 0042 75696E74 		.ascii	"uint32_t\000"
 3503      33325F74 
 3503      00
 3504 004b 9F000000 		.4byte	0x9f
 3505 004f 75696E74 		.ascii	"uint64_t\000"
 3505      36345F74 
 3505      00
 3506 0058 B1000000 		.4byte	0xb1
 3507 005c 75696E74 		.ascii	"uint_fast16_t\000"
 3507      5F666173 
 3507      7431365F 
 3507      7400
 3508 006a BC000000 		.4byte	0xbc
 3509 006e 626F6F6C 		.ascii	"bool_t\000"
 3509      5F7400
 3510 0075 C7000000 		.4byte	0xc7
 3511 0079 746D6F64 		.ascii	"tmode_t\000"
 3511      655F7400 
 3512 0081 D2000000 		.4byte	0xd2
 3513 0085 74737461 		.ascii	"tstate_t\000"
 3513      74655F74 
 3513      00
 3514 008e DD000000 		.4byte	0xdd
 3515 0092 74707269 		.ascii	"tprio_t\000"
 3515      6F5F7400 
 3516 009a E8000000 		.4byte	0xe8
 3517 009e 6D73675F 		.ascii	"msg_t\000"
 3517      7400
 3518 00a4 F3000000 		.4byte	0xf3
 3519 00a8 6576656E 		.ascii	"eventmask_t\000"
 3519      746D6173 
 3519      6B5F7400 
 3520 00b4 FE000000 		.4byte	0xfe
 3521 00b8 73797374 		.ascii	"systime_t\000"
 3521      696D655F 
 3521      7400
 3522 00c2 09010000 		.4byte	0x109
 3523 00c6 54687265 		.ascii	"Thread\000"
 3523      616400
 3524 00cd 48020000 		.4byte	0x248
 3525 00d1 54687265 		.ascii	"ThreadsQueue\000"
 3525      61647351 
 3525      75657565 
 3525      00
 3526 00de 6A020000 		.4byte	0x26a
 3527 00e2 54687265 		.ascii	"ThreadsList\000"
 3527      6164734C 
 3527      69737400 
 3528 00ee 75020000 		.4byte	0x275
 3529 00f2 72656761 		.ascii	"regarm_t\000"
 3529      726D5F74 
 3529      00
 3530 00fb 82020000 		.4byte	0x282
 3531 00ff 73746B61 		.ascii	"stkalign_t\000"
 3531      6C69676E 
ARM GAS  C:\Users\z80\AppData\Local\Temp\ccRodHvf.s 			page 64


 3531      5F7400
 3532 010a 8D020000 		.4byte	0x28d
 3533 010e 696E7463 		.ascii	"intctx\000"
 3533      747800
 3534 0115 1A030000 		.4byte	0x31a
 3535 0119 636F6E74 		.ascii	"context\000"
 3535      65787400 
 3536 0121 4A030000 		.4byte	0x34a
 3537 0125 4D757465 		.ascii	"Mutex\000"
 3537      7800
 3538 012b 87030000 		.4byte	0x387
 3539 012f 4D757465 		.ascii	"Mutex\000"
 3539      7800
 3540 0135 92030000 		.4byte	0x392
 3541 0139 4576656E 		.ascii	"EventListener\000"
 3541      744C6973 
 3541      74656E65 
 3541      7200
 3542 0147 9D030000 		.4byte	0x39d
 3543 014b 4576656E 		.ascii	"EventListener\000"
 3543      744C6973 
 3543      74656E65 
 3543      7200
 3544 0159 DA030000 		.4byte	0x3da
 3545 015d 4576656E 		.ascii	"EventSource\000"
 3545      74536F75 
 3545      72636500 
 3546 0169 F5030000 		.4byte	0x3f5
 3547 016d 4576656E 		.ascii	"EventSource\000"
 3547      74536F75 
 3547      72636500 
 3548 0179 14010000 		.4byte	0x114
 3549 017d 54687265 		.ascii	"Thread\000"
 3549      616400
 3550 0184 53040000 		.4byte	0x453
 3551 0188 47656E65 		.ascii	"GenericQueue\000"
 3551      72696351 
 3551      75657565 
 3551      00
 3552 0195 CD040000 		.4byte	0x4cd
 3553 0199 716E6F74 		.ascii	"qnotify_t\000"
 3553      6966795F 
 3553      7400
 3554 01a3 5E040000 		.4byte	0x45e
 3555 01a7 47656E65 		.ascii	"GenericQueue\000"
 3555      72696351 
 3555      75657565 
 3555      00
 3556 01b4 F6040000 		.4byte	0x4f6
 3557 01b8 496E7075 		.ascii	"InputQueue\000"
 3557      74517565 
 3557      756500
 3558 01c3 01050000 		.4byte	0x501
 3559 01c7 4F757470 		.ascii	"OutputQueue\000"
 3559      75745175 
 3559      65756500 
 3560 01d3 F2050000 		.4byte	0x5f2
ARM GAS  C:\Users\z80\AppData\Local\Temp\ccRodHvf.s 			page 65


 3561 01d7 696F666C 		.ascii	"ioflags_t\000"
 3561      6167735F 
 3561      7400
 3562 01e1 14060000 		.4byte	0x614
 3563 01e5 4952516E 		.ascii	"IRQn\000"
 3563      00
 3564 01ea FC070000 		.4byte	0x7fc
 3565 01ee 5243435F 		.ascii	"RCC_TypeDef\000"
 3565      54797065 
 3565      44656600 
 3566 01fa E2080000 		.4byte	0x8e2
 3567 01fe 55534152 		.ascii	"USART_TypeDef\000"
 3567      545F5479 
 3567      70654465 
 3567      6600
 3568 020c 09090000 		.4byte	0x909
 3569 0210 73647374 		.ascii	"sdstate_t\000"
 3569      6174655F 
 3569      7400
 3570 021a 14090000 		.4byte	0x914
 3571 021e 53657269 		.ascii	"SerialDriver\000"
 3571      616C4472 
 3571      69766572 
 3571      00
 3572 022b EC090000 		.4byte	0x9ec
 3573 022f 53657269 		.ascii	"SerialConfig\000"
 3573      616C436F 
 3573      6E666967 
 3573      00
 3574 023c F7090000 		.4byte	0x9f7
 3575 0240 53657269 		.ascii	"SerialDriverVMT\000"
 3575      616C4472 
 3575      69766572 
 3575      564D5400 
 3576 0250 1F090000 		.4byte	0x91f
 3577 0254 53657269 		.ascii	"SerialDriver\000"
 3577      616C4472 
 3577      69766572 
 3577      00
 3578 0261 00000000 		.4byte	0x0
 3579              		.section	.debug_aranges,"",%progbits
 3580 0000 6C000000 		.4byte	0x6c
 3581 0004 0200     		.2byte	0x2
 3582 0006 00000000 		.4byte	.Ldebug_info0
 3583 000a 04       		.byte	0x4
 3584 000b 00       		.byte	0x0
 3585 000c 0000     		.2byte	0x0
 3586 000e 0000     		.2byte	0x0
 3587 0010 00000000 		.4byte	.LFB62
 3588 0014 90000000 		.4byte	.LFE62-.LFB62
 3589 0018 00000000 		.4byte	.LFB63
 3590 001c 20000000 		.4byte	.LFE63-.LFB63
 3591 0020 00000000 		.4byte	.LFB64
 3592 0024 9E000000 		.4byte	.LFE64-.LFB64
 3593 0028 00000000 		.4byte	.LFB65
 3594 002c A4010000 		.4byte	.LFE65-.LFB65
 3595 0030 00000000 		.4byte	.LFB66
ARM GAS  C:\Users\z80\AppData\Local\Temp\ccRodHvf.s 			page 66


 3596 0034 24000000 		.4byte	.LFE66-.LFB66
 3597 0038 00000000 		.4byte	.LFB67
 3598 003c 24000000 		.4byte	.LFE67-.LFB67
 3599 0040 00000000 		.4byte	.LFB68
 3600 0044 1C000000 		.4byte	.LFE68-.LFB68
 3601 0048 00000000 		.4byte	.LFB69
 3602 004c 1C000000 		.4byte	.LFE69-.LFB69
 3603 0050 00000000 		.4byte	.LFB70
 3604 0054 5C000000 		.4byte	.LFE70-.LFB70
 3605 0058 00000000 		.4byte	.LFB71
 3606 005c 90000000 		.4byte	.LFE71-.LFB71
 3607 0060 00000000 		.4byte	.LFB72
 3608 0064 7E000000 		.4byte	.LFE72-.LFB72
 3609 0068 00000000 		.4byte	0x0
 3610 006c 00000000 		.4byte	0x0
 3611              		.section	.debug_ranges,"",%progbits
 3612              	.Ldebug_ranges0:
 3613 0000 00000000 		.4byte	.LFB62
 3614 0004 90000000 		.4byte	.LFE62
 3615 0008 00000000 		.4byte	.LFB63
 3616 000c 20000000 		.4byte	.LFE63
 3617 0010 00000000 		.4byte	.LFB64
 3618 0014 9E000000 		.4byte	.LFE64
 3619 0018 00000000 		.4byte	.LFB65
 3620 001c A4010000 		.4byte	.LFE65
 3621 0020 00000000 		.4byte	.LFB66
 3622 0024 24000000 		.4byte	.LFE66
 3623 0028 00000000 		.4byte	.LFB67
 3624 002c 24000000 		.4byte	.LFE67
 3625 0030 00000000 		.4byte	.LFB68
 3626 0034 1C000000 		.4byte	.LFE68
 3627 0038 00000000 		.4byte	.LFB69
 3628 003c 1C000000 		.4byte	.LFE69
 3629 0040 00000000 		.4byte	.LFB70
 3630 0044 5C000000 		.4byte	.LFE70
 3631 0048 00000000 		.4byte	.LFB71
 3632 004c 90000000 		.4byte	.LFE71
 3633 0050 00000000 		.4byte	.LFB72
 3634 0054 7E000000 		.4byte	.LFE72
 3635 0058 00000000 		.4byte	0x0
 3636 005c 00000000 		.4byte	0x0
 3637              		.section	.debug_str,"MS",%progbits,1
 3638              	.LASF83:
 3639 0000 5056445F 		.ascii	"PVD_IRQn\000"
 3639      4952516E 
 3639      00
 3640              	.LASF153:
 3641 0009 73635F73 		.ascii	"sc_speed\000"
 3641      70656564 
 3641      00
 3642              	.LASF2:
 3643 0012 73697A65 		.ascii	"size_t\000"
 3643      5F7400
 3644              	.LASF57:
 3645 0019 7264796D 		.ascii	"rdymsg\000"
 3645      736700
 3646              	.LASF13:
ARM GAS  C:\Users\z80\AppData\Local\Temp\ccRodHvf.s 			page 67


 3647 0020 75696E74 		.ascii	"uint64_t\000"
 3647      36345F74 
 3647      00
 3648              	.LASF72:
 3649 0029 4F757470 		.ascii	"OutputQueue\000"
 3649      75745175 
 3649      65756500 
 3650              	.LASF113:
 3651 0035 49324331 		.ascii	"I2C1_EV_IRQn\000"
 3651      5F45565F 
 3651      4952516E 
 3651      00
 3652              	.LASF123:
 3653 0042 5254435F 		.ascii	"RTC_Alarm_IRQn\000"
 3653      416C6172 
 3653      6D5F4952 
 3653      516E00
 3654              	.LASF169:
 3655 0051 7365745F 		.ascii	"set_error\000"
 3655      6572726F 
 3655      7200
 3656              	.LASF103:
 3657 005b 43414E31 		.ascii	"CAN1_RX1_IRQn\000"
 3657      5F525831 
 3657      5F495251 
 3657      6E00
 3658              	.LASF15:
 3659 0069 75696E74 		.ascii	"uint_fast16_t\000"
 3659      5F666173 
 3659      7431365F 
 3659      7400
 3660              	.LASF14:
 3661 0077 6C6F6E67 		.ascii	"long long unsigned int\000"
 3661      206C6F6E 
 3661      6720756E 
 3661      7369676E 
 3661      65642069 
 3662              	.LASF58:
 3663 008e 65786974 		.ascii	"exitcode\000"
 3663      636F6465 
 3663      00
 3664              	.LASF116:
 3665 0097 49324332 		.ascii	"I2C2_ER_IRQn\000"
 3665      5F45525F 
 3665      4952516E 
 3665      00
 3666              	.LASF112:
 3667 00a4 54494D34 		.ascii	"TIM4_IRQn\000"
 3667      5F495251 
 3667      6E00
 3668              	.LASF178:
 3669 00ae 49544D5F 		.ascii	"ITM_RxBuffer\000"
 3669      52784275 
 3669      66666572 
 3669      00
 3670              	.LASF107:
 3671 00bb 54494D31 		.ascii	"TIM1_UP_IRQn\000"
ARM GAS  C:\Users\z80\AppData\Local\Temp\ccRodHvf.s 			page 68


 3671      5F55505F 
 3671      4952516E 
 3671      00
 3672              	.LASF82:
 3673 00c8 57574447 		.ascii	"WWDG_IRQn\000"
 3673      5F495251 
 3673      6E00
 3674              	.LASF154:
 3675 00d2 73635F63 		.ascii	"sc_cr1\000"
 3675      723100
 3676              	.LASF16:
 3677 00d9 626F6F6C 		.ascii	"bool_t\000"
 3677      5F7400
 3678              	.LASF26:
 3679 00e0 705F7072 		.ascii	"p_prio\000"
 3679      696F00
 3680              	.LASF164:
 3681 00e7 72656164 		.ascii	"readt\000"
 3681      7400
 3682              	.LASF63:
 3683 00ed 715F7761 		.ascii	"q_waiting\000"
 3683      6974696E 
 3683      6700
 3684              	.LASF12:
 3685 00f7 6C6F6E67 		.ascii	"long long int\000"
 3685      206C6F6E 
 3685      6720696E 
 3685      7400
 3686              	.LASF1:
 3687 0105 7369676E 		.ascii	"signed char\000"
 3687      65642063 
 3687      68617200 
 3688              	.LASF139:
 3689 0111 47545052 		.ascii	"GTPR\000"
 3689      00
 3690              	.LASF32:
 3691 0116 705F7374 		.ascii	"p_state\000"
 3691      61746500 
 3692              	.LASF143:
 3693 011e 53445F53 		.ascii	"SD_STOP\000"
 3693      544F5000 
 3694              	.LASF48:
 3695 0126 6D5F7175 		.ascii	"m_queue\000"
 3695      65756500 
 3696              	.LASF132:
 3697 012e 5243435F 		.ascii	"RCC_TypeDef\000"
 3697      54797065 
 3697      44656600 
 3698              	.LASF179:
 3699 013a 64656661 		.ascii	"default_config\000"
 3699      756C745F 
 3699      636F6E66 
 3699      696700
 3700              	.LASF149:
 3701 0149 73746174 		.ascii	"state\000"
 3701      6500
 3702              	.LASF9:
ARM GAS  C:\Users\z80\AppData\Local\Temp\ccRodHvf.s 			page 69


 3703 014f 6C6F6E67 		.ascii	"long int\000"
 3703      20696E74 
 3703      00
 3704              	.LASF126:
 3705 0158 41504232 		.ascii	"APB2RSTR\000"
 3705      52535452 
 3705      00
 3706              	.LASF53:
 3707 0161 656C5F6C 		.ascii	"el_listener\000"
 3707      69737465 
 3707      6E657200 
 3708              	.LASF18:
 3709 016d 74737461 		.ascii	"tstate_t\000"
 3709      74655F74 
 3709      00
 3710              	.LASF105:
 3711 0176 45585449 		.ascii	"EXTI9_5_IRQn\000"
 3711      395F355F 
 3711      4952516E 
 3711      00
 3712              	.LASF95:
 3713 0183 444D4131 		.ascii	"DMA1_Channel3_IRQn\000"
 3713      5F436861 
 3713      6E6E656C 
 3713      335F4952 
 3713      516E00
 3714              	.LASF65:
 3715 0196 715F6275 		.ascii	"q_buffer\000"
 3715      66666572 
 3715      00
 3716              	.LASF67:
 3717 019f 715F7772 		.ascii	"q_wrptr\000"
 3717      70747200 
 3718              	.LASF100:
 3719 01a7 41444331 		.ascii	"ADC1_2_IRQn\000"
 3719      5F325F49 
 3719      52516E00 
 3720              	.LASF28:
 3721 01b3 705F6E65 		.ascii	"p_newer\000"
 3721      77657200 
 3722              	.LASF62:
 3723 01bb 47656E65 		.ascii	"GenericQueue\000"
 3723      72696351 
 3723      75657565 
 3723      00
 3724              	.LASF80:
 3725 01c8 50656E64 		.ascii	"PendSV_IRQn\000"
 3725      53565F49 
 3725      52516E00 
 3726              	.LASF40:
 3727 01d4 705F7265 		.ascii	"p_realprio\000"
 3727      616C7072 
 3727      696F00
 3728              	.LASF43:
 3729 01df 72656761 		.ascii	"regarm_t\000"
 3729      726D5F74 
 3729      00
ARM GAS  C:\Users\z80\AppData\Local\Temp\ccRodHvf.s 			page 70


 3730              	.LASF70:
 3731 01e8 716E6F74 		.ascii	"qnotify_t\000"
 3731      6966795F 
 3731      7400
 3732              	.LASF168:
 3733 01f2 75736172 		.ascii	"usart_deinit\000"
 3733      745F6465 
 3733      696E6974 
 3733      00
 3734              	.LASF55:
 3735 01ff 4576656E 		.ascii	"EventSource\000"
 3735      74536F75 
 3735      72636500 
 3736              	.LASF152:
 3737 020b 75736172 		.ascii	"usart\000"
 3737      7400
 3738              	.LASF0:
 3739 0211 756E7369 		.ascii	"unsigned int\000"
 3739      676E6564 
 3739      20696E74 
 3739      00
 3740              	.LASF6:
 3741 021e 75696E74 		.ascii	"uint16_t\000"
 3741      31365F74 
 3741      00
 3742              	.LASF158:
 3743 0227 53657269 		.ascii	"SerialDriverVMT\000"
 3743      616C4472 
 3743      69766572 
 3743      564D5400 
 3744              	.LASF34:
 3745 0237 705F7469 		.ascii	"p_time\000"
 3745      6D6500
 3746              	.LASF75:
 3747 023e 4D656D6F 		.ascii	"MemoryManagement_IRQn\000"
 3747      72794D61 
 3747      6E616765 
 3747      6D656E74 
 3747      5F495251 
 3748              	.LASF150:
 3749 0254 69717565 		.ascii	"iqueue\000"
 3749      756500
 3750              	.LASF36:
 3751 025b 705F6D73 		.ascii	"p_msgqueue\000"
 3751      67717565 
 3751      756500
 3752              	.LASF175:
 3753 0266 73645F6C 		.ascii	"sd_lld_init\000"
 3753      6C645F69 
 3753      6E697400 
 3754              	.LASF147:
 3755 0272 6576656E 		.ascii	"event\000"
 3755      7400
 3756              	.LASF97:
 3757 0278 444D4131 		.ascii	"DMA1_Channel5_IRQn\000"
 3757      5F436861 
 3757      6E6E656C 
ARM GAS  C:\Users\z80\AppData\Local\Temp\ccRodHvf.s 			page 71


 3757      355F4952 
 3757      516E00
 3758              	.LASF7:
 3759 028b 73686F72 		.ascii	"short unsigned int\000"
 3759      7420756E 
 3759      7369676E 
 3759      65642069 
 3759      6E7400
 3760              	.LASF108:
 3761 029e 54494D31 		.ascii	"TIM1_TRG_COM_IRQn\000"
 3761      5F545247 
 3761      5F434F4D 
 3761      5F495251 
 3761      6E00
 3762              	.LASF20:
 3763 02b0 6D73675F 		.ascii	"msg_t\000"
 3763      7400
 3764              	.LASF151:
 3765 02b6 6F717565 		.ascii	"oqueue\000"
 3765      756500
 3766              	.LASF122:
 3767 02bd 45585449 		.ascii	"EXTI15_10_IRQn\000"
 3767      31355F31 
 3767      305F4952 
 3767      516E00
 3768              	.LASF117:
 3769 02cc 53504931 		.ascii	"SPI1_IRQn\000"
 3769      5F495251 
 3769      6E00
 3770              	.LASF141:
 3771 02d6 55534152 		.ascii	"USART_TypeDef\000"
 3771      545F5479 
 3771      70654465 
 3771      6600
 3772              	.LASF163:
 3773 02e4 77726974 		.ascii	"writet\000"
 3773      657400
 3774              	.LASF17:
 3775 02eb 746D6F64 		.ascii	"tmode_t\000"
 3775      655F7400 
 3776              	.LASF42:
 3777 02f3 54687265 		.ascii	"ThreadsList\000"
 3777      6164734C 
 3777      69737400 
 3778              	.LASF21:
 3779 02ff 6576656E 		.ascii	"eventmask_t\000"
 3779      746D6173 
 3779      6B5F7400 
 3780              	.LASF173:
 3781 030b 56656374 		.ascii	"VectorD4\000"
 3781      6F724434 
 3781      00
 3782              	.LASF174:
 3783 0314 56656374 		.ascii	"VectorD8\000"
 3783      6F724438 
 3783      00
 3784              	.LASF96:
ARM GAS  C:\Users\z80\AppData\Local\Temp\ccRodHvf.s 			page 72


 3785 031d 444D4131 		.ascii	"DMA1_Channel4_IRQn\000"
 3785      5F436861 
 3785      6E6E656C 
 3785      345F4952 
 3785      516E00
 3786              	.LASF81:
 3787 0330 53797354 		.ascii	"SysTick_IRQn\000"
 3787      69636B5F 
 3787      4952516E 
 3787      00
 3788              	.LASF109:
 3789 033d 54494D31 		.ascii	"TIM1_CC_IRQn\000"
 3789      5F43435F 
 3789      4952516E 
 3789      00
 3790              	.LASF44:
 3791 034a 73746B61 		.ascii	"stkalign_t\000"
 3791      6C69676E 
 3791      5F7400
 3792              	.LASF161:
 3793 0355 70757477 		.ascii	"putwouldblock\000"
 3793      6F756C64 
 3793      626C6F63 
 3793      6B00
 3794              	.LASF159:
 3795 0363 77726974 		.ascii	"write\000"
 3795      6500
 3796              	.LASF183:
 3797 0369 4952516E 		.ascii	"IRQn\000"
 3797      00
 3798              	.LASF167:
 3799 036e 75736172 		.ascii	"usart_init\000"
 3799      745F696E 
 3799      697400
 3800              	.LASF94:
 3801 0379 444D4131 		.ascii	"DMA1_Channel2_IRQn\000"
 3801      5F436861 
 3801      6E6E656C 
 3801      325F4952 
 3801      516E00
 3802              	.LASF64:
 3803 038c 715F636F 		.ascii	"q_counter\000"
 3803      756E7465 
 3803      7200
 3804              	.LASF47:
 3805 0396 4D757465 		.ascii	"Mutex\000"
 3805      7800
 3806              	.LASF24:
 3807 039c 705F6E65 		.ascii	"p_next\000"
 3807      787400
 3808              	.LASF91:
 3809 03a3 45585449 		.ascii	"EXTI3_IRQn\000"
 3809      335F4952 
 3809      516E00
 3810              	.LASF118:
 3811 03ae 53504932 		.ascii	"SPI2_IRQn\000"
 3811      5F495251 
ARM GAS  C:\Users\z80\AppData\Local\Temp\ccRodHvf.s 			page 73


 3811      6E00
 3812              	.LASF73:
 3813 03b8 696F666C 		.ascii	"ioflags_t\000"
 3813      6167735F 
 3813      7400
 3814              	.LASF41:
 3815 03c2 54687265 		.ascii	"ThreadsQueue\000"
 3815      61647351 
 3815      75657565 
 3815      00
 3816              	.LASF182:
 3817 03cf 433A5C70 		.ascii	"C:\\projects\\voltamper.git\\firmware\\voltamp\000"
 3817      726F6A65 
 3817      6374735C 
 3817      766F6C74 
 3817      616D7065 
 3818              	.LASF124:
 3819 03fa 5553425F 		.ascii	"USB_FS_WKUP_IRQn\000"
 3819      46535F57 
 3819      4B55505F 
 3819      4952516E 
 3819      00
 3820              	.LASF127:
 3821 040b 41504231 		.ascii	"APB1RSTR\000"
 3821      52535452 
 3821      00
 3822              	.LASF54:
 3823 0414 656C5F6D 		.ascii	"el_mask\000"
 3823      61736B00 
 3824              	.LASF157:
 3825 041c 53657269 		.ascii	"SerialConfig\000"
 3825      616C436F 
 3825      6E666967 
 3825      00
 3826              	.LASF171:
 3827 0429 6E6F7469 		.ascii	"notify1\000"
 3827      66793100 
 3828              	.LASF172:
 3829 0431 6E6F7469 		.ascii	"notify2\000"
 3829      66793200 
 3830              	.LASF93:
 3831 0439 444D4131 		.ascii	"DMA1_Channel1_IRQn\000"
 3831      5F436861 
 3831      6E6E656C 
 3831      315F4952 
 3831      516E00
 3832              	.LASF133:
 3833 044c 52455345 		.ascii	"RESERVED0\000"
 3833      52564544 
 3833      3000
 3834              	.LASF134:
 3835 0456 52455345 		.ascii	"RESERVED1\000"
 3835      52564544 
 3835      3100
 3836              	.LASF135:
 3837 0460 52455345 		.ascii	"RESERVED2\000"
 3837      52564544 
ARM GAS  C:\Users\z80\AppData\Local\Temp\ccRodHvf.s 			page 74


 3837      3200
 3838              	.LASF136:
 3839 046a 52455345 		.ascii	"RESERVED3\000"
 3839      52564544 
 3839      3300
 3840              	.LASF137:
 3841 0474 52455345 		.ascii	"RESERVED4\000"
 3841      52564544 
 3841      3400
 3842              	.LASF25:
 3843 047e 705F7072 		.ascii	"p_prev\000"
 3843      657600
 3844              	.LASF140:
 3845 0485 52455345 		.ascii	"RESERVED6\000"
 3845      52564544 
 3845      3600
 3846              	.LASF19:
 3847 048f 74707269 		.ascii	"tprio_t\000"
 3847      6F5F7400 
 3848              	.LASF68:
 3849 0497 715F7264 		.ascii	"q_rdptr\000"
 3849      70747200 
 3850              	.LASF78:
 3851 049f 53564361 		.ascii	"SVCall_IRQn\000"
 3851      6C6C5F49 
 3851      52516E00 
 3852              	.LASF79:
 3853 04ab 44656275 		.ascii	"DebugMonitor_IRQn\000"
 3853      674D6F6E 
 3853      69746F72 
 3853      5F495251 
 3853      6E00
 3854              	.LASF8:
 3855 04bd 696E7433 		.ascii	"int32_t\000"
 3855      325F7400 
 3856              	.LASF4:
 3857 04c5 756E7369 		.ascii	"unsigned char\000"
 3857      676E6564 
 3857      20636861 
 3857      7200
 3858              	.LASF102:
 3859 04d3 5553425F 		.ascii	"USB_LP_CAN1_RX0_IRQn\000"
 3859      4C505F43 
 3859      414E315F 
 3859      5258305F 
 3859      4952516E 
 3860              	.LASF176:
 3861 04e8 73645F6C 		.ascii	"sd_lld_start\000"
 3861      6C645F73 
 3861      74617274 
 3861      00
 3862              	.LASF101:
 3863 04f5 5553425F 		.ascii	"USB_HP_CAN1_TX_IRQn\000"
 3863      48505F43 
 3863      414E315F 
 3863      54585F49 
 3863      52516E00 
ARM GAS  C:\Users\z80\AppData\Local\Temp\ccRodHvf.s 			page 75


 3864              	.LASF92:
 3865 0509 45585449 		.ascii	"EXTI4_IRQn\000"
 3865      345F4952 
 3865      516E00
 3866              	.LASF39:
 3867 0514 705F6D74 		.ascii	"p_mtxlist\000"
 3867      786C6973 
 3867      7400
 3868              	.LASF5:
 3869 051e 73686F72 		.ascii	"short int\000"
 3869      7420696E 
 3869      7400
 3870              	.LASF29:
 3871 0528 705F6F6C 		.ascii	"p_older\000"
 3871      64657200 
 3872              	.LASF181:
 3873 0530 2E2E2F63 		.ascii	"../chibios_2.4.x/os/hal/platforms/STM32/serial_lld."
 3873      68696269 
 3873      6F735F32 
 3873      2E342E78 
 3873      2F6F732F 
 3874 0563 6300     		.ascii	"c\000"
 3875              	.LASF60:
 3876 0565 65776D61 		.ascii	"ewmask\000"
 3876      736B00
 3877              	.LASF33:
 3878 056c 705F666C 		.ascii	"p_flags\000"
 3878      61677300 
 3879              	.LASF52:
 3880 0574 656C5F6E 		.ascii	"el_next\000"
 3880      65787400 
 3881              	.LASF90:
 3882 057c 45585449 		.ascii	"EXTI2_IRQn\000"
 3882      325F4952 
 3882      516E00
 3883              	.LASF129:
 3884 0587 41504232 		.ascii	"APB2ENR\000"
 3884      454E5200 
 3885              	.LASF23:
 3886 058f 54687265 		.ascii	"Thread\000"
 3886      616400
 3887              	.LASF170:
 3888 0596 73657276 		.ascii	"serve_interrupt\000"
 3888      655F696E 
 3888      74657272 
 3888      75707400 
 3889              	.LASF86:
 3890 05a6 464C4153 		.ascii	"FLASH_IRQn\000"
 3890      485F4952 
 3890      516E00
 3891              	.LASF38:
 3892 05b1 705F6570 		.ascii	"p_epending\000"
 3892      656E6469 
 3892      6E6700
 3893              	.LASF142:
 3894 05bc 53445F55 		.ascii	"SD_UNINIT\000"
 3894      4E494E49 
ARM GAS  C:\Users\z80\AppData\Local\Temp\ccRodHvf.s 			page 76


 3894      5400
 3895              	.LASF138:
 3896 05c6 52455345 		.ascii	"RESERVED5\000"
 3896      52564544 
 3896      3500
 3897              	.LASF10:
 3898 05d0 75696E74 		.ascii	"uint32_t\000"
 3898      33325F74 
 3898      00
 3899              	.LASF120:
 3900 05d9 55534152 		.ascii	"USART2_IRQn\000"
 3900      54325F49 
 3900      52516E00 
 3901              	.LASF77:
 3902 05e5 55736167 		.ascii	"UsageFault_IRQn\000"
 3902      65466175 
 3902      6C745F49 
 3902      52516E00 
 3903              	.LASF146:
 3904 05f5 53657269 		.ascii	"SerialDriver\000"
 3904      616C4472 
 3904      69766572 
 3904      00
 3905              	.LASF11:
 3906 0602 6C6F6E67 		.ascii	"long unsigned int\000"
 3906      20756E73 
 3906      69676E65 
 3906      6420696E 
 3906      7400
 3907              	.LASF160:
 3908 0614 72656164 		.ascii	"read\000"
 3908      00
 3909              	.LASF61:
 3910 0619 63686172 		.ascii	"char\000"
 3910      00
 3911              	.LASF76:
 3912 061e 42757346 		.ascii	"BusFault_IRQn\000"
 3912      61756C74 
 3912      5F495251 
 3912      6E00
 3913              	.LASF166:
 3914 062c 636F6E66 		.ascii	"config\000"
 3914      696700
 3915              	.LASF106:
 3916 0633 54494D31 		.ascii	"TIM1_BRK_IRQn\000"
 3916      5F42524B 
 3916      5F495251 
 3916      6E00
 3917              	.LASF104:
 3918 0641 43414E31 		.ascii	"CAN1_SCE_IRQn\000"
 3918      5F534345 
 3918      5F495251 
 3918      6E00
 3919              	.LASF50:
 3920 064f 6D5F6E65 		.ascii	"m_next\000"
 3920      787400
 3921              	.LASF22:
ARM GAS  C:\Users\z80\AppData\Local\Temp\ccRodHvf.s 			page 77


 3922 0656 73797374 		.ascii	"systime_t\000"
 3922      696D655F 
 3922      7400
 3923              	.LASF74:
 3924 0660 4E6F6E4D 		.ascii	"NonMaskableInt_IRQn\000"
 3924      61736B61 
 3924      626C6549 
 3924      6E745F49 
 3924      52516E00 
 3925              	.LASF31:
 3926 0674 705F7374 		.ascii	"p_stklimit\000"
 3926      6B6C696D 
 3926      697400
 3927              	.LASF98:
 3928 067f 444D4131 		.ascii	"DMA1_Channel6_IRQn\000"
 3928      5F436861 
 3928      6E6E656C 
 3928      365F4952 
 3928      516E00
 3929              	.LASF30:
 3930 0692 705F6E61 		.ascii	"p_name\000"
 3930      6D6500
 3931              	.LASF130:
 3932 0699 41504231 		.ascii	"APB1ENR\000"
 3932      454E5200 
 3933              	.LASF84:
 3934 06a1 54414D50 		.ascii	"TAMPER_IRQn\000"
 3934      45525F49 
 3934      52516E00 
 3935              	.LASF165:
 3936 06ad 67657466 		.ascii	"getflags\000"
 3936      6C616773 
 3936      00
 3937              	.LASF46:
 3938 06b6 636F6E74 		.ascii	"context\000"
 3938      65787400 
 3939              	.LASF45:
 3940 06be 696E7463 		.ascii	"intctx\000"
 3940      747800
 3941              	.LASF144:
 3942 06c5 53445F52 		.ascii	"SD_READY\000"
 3942      45414459 
 3942      00
 3943              	.LASF115:
 3944 06ce 49324332 		.ascii	"I2C2_EV_IRQn\000"
 3944      5F45565F 
 3944      4952516E 
 3944      00
 3945              	.LASF121:
 3946 06db 55534152 		.ascii	"USART3_IRQn\000"
 3946      54335F49 
 3946      52516E00 
 3947              	.LASF145:
 3948 06e7 73647374 		.ascii	"sdstate_t\000"
 3948      6174655F 
 3948      7400
 3949              	.LASF110:
ARM GAS  C:\Users\z80\AppData\Local\Temp\ccRodHvf.s 			page 78


 3950 06f1 54494D32 		.ascii	"TIM2_IRQn\000"
 3950      5F495251 
 3950      6E00
 3951              	.LASF66:
 3952 06fb 715F746F 		.ascii	"q_top\000"
 3952      7000
 3953              	.LASF88:
 3954 0701 45585449 		.ascii	"EXTI0_IRQn\000"
 3954      305F4952 
 3954      516E00
 3955              	.LASF56:
 3956 070c 65735F6E 		.ascii	"es_next\000"
 3956      65787400 
 3957              	.LASF119:
 3958 0714 55534152 		.ascii	"USART1_IRQn\000"
 3958      54315F49 
 3958      52516E00 
 3959              	.LASF131:
 3960 0720 42444352 		.ascii	"BDCR\000"
 3960      00
 3961              	.LASF69:
 3962 0725 715F6E6F 		.ascii	"q_notify\000"
 3962      74696679 
 3962      00
 3963              	.LASF37:
 3964 072e 705F6D73 		.ascii	"p_msg\000"
 3964      6700
 3965              	.LASF3:
 3966 0734 75696E74 		.ascii	"uint8_t\000"
 3966      385F7400 
 3967              	.LASF71:
 3968 073c 496E7075 		.ascii	"InputQueue\000"
 3968      74517565 
 3968      756500
 3969              	.LASF148:
 3970 0747 666C6167 		.ascii	"flags\000"
 3970      7300
 3971              	.LASF51:
 3972 074d 4576656E 		.ascii	"EventListener\000"
 3972      744C6973 
 3972      74656E65 
 3972      7200
 3973              	.LASF180:
 3974 075b 474E5520 		.ascii	"GNU C 4.5.0\000"
 3974      4320342E 
 3974      352E3000 
 3975              	.LASF59:
 3976 0767 77746F62 		.ascii	"wtobjp\000"
 3976      6A7000
 3977              	.LASF99:
 3978 076e 444D4131 		.ascii	"DMA1_Channel7_IRQn\000"
 3978      5F436861 
 3978      6E6E656C 
 3978      375F4952 
 3978      516E00
 3979              	.LASF177:
 3980 0781 73645F6C 		.ascii	"sd_lld_stop\000"
ARM GAS  C:\Users\z80\AppData\Local\Temp\ccRodHvf.s 			page 79


 3980      6C645F73 
 3980      746F7000 
 3981              	.LASF125:
 3982 078d 43464752 		.ascii	"CFGR\000"
 3982      00
 3983              	.LASF162:
 3984 0792 67657477 		.ascii	"getwouldblock\000"
 3984      6F756C64 
 3984      626C6F63 
 3984      6B00
 3985              	.LASF114:
 3986 07a0 49324331 		.ascii	"I2C1_ER_IRQn\000"
 3986      5F45525F 
 3986      4952516E 
 3986      00
 3987              	.LASF155:
 3988 07ad 73635F63 		.ascii	"sc_cr2\000"
 3988      723200
 3989              	.LASF156:
 3990 07b4 73635F63 		.ascii	"sc_cr3\000"
 3990      723300
 3991              	.LASF85:
 3992 07bb 5254435F 		.ascii	"RTC_IRQn\000"
 3992      4952516E 
 3992      00
 3993              	.LASF111:
 3994 07c4 54494D33 		.ascii	"TIM3_IRQn\000"
 3994      5F495251 
 3994      6E00
 3995              	.LASF49:
 3996 07ce 6D5F6F77 		.ascii	"m_owner\000"
 3996      6E657200 
 3997              	.LASF87:
 3998 07d6 5243435F 		.ascii	"RCC_IRQn\000"
 3998      4952516E 
 3998      00
 3999              	.LASF27:
 4000 07df 705F6374 		.ascii	"p_ctx\000"
 4000      7800
 4001              	.LASF35:
 4002 07e5 705F7761 		.ascii	"p_waiting\000"
 4002      6974696E 
 4002      6700
 4003              	.LASF128:
 4004 07ef 41484245 		.ascii	"AHBENR\000"
 4004      4E5200
 4005              	.LASF89:
 4006 07f6 45585449 		.ascii	"EXTI1_IRQn\000"
 4006      315F4952 
 4006      516E00
 4007              		.ident	"GCC: (GNU) 4.5.0"
ARM GAS  C:\Users\z80\AppData\Local\Temp\ccRodHvf.s 			page 80


DEFINED SYMBOLS
                            *ABS*:00000000 serial_lld.c
C:\Users\z80\AppData\Local\Temp\ccRodHvf.s:28     .bss.SD1:00000000 SD1
C:\Users\z80\AppData\Local\Temp\ccRodHvf.s:25     .bss.SD1:00000000 $d
C:\Users\z80\AppData\Local\Temp\ccRodHvf.s:35     .bss.SD2:00000000 SD2
C:\Users\z80\AppData\Local\Temp\ccRodHvf.s:32     .bss.SD2:00000000 $d
C:\Users\z80\AppData\Local\Temp\ccRodHvf.s:38     .rodata.default_config:00000000 $d
C:\Users\z80\AppData\Local\Temp\ccRodHvf.s:41     .rodata.default_config:00000000 default_config
C:\Users\z80\AppData\Local\Temp\ccRodHvf.s:48     .text.usart_init:00000000 $t
C:\Users\z80\AppData\Local\Temp\ccRodHvf.s:53     .text.usart_init:00000000 usart_init
C:\Users\z80\AppData\Local\Temp\ccRodHvf.s:137    .text.usart_deinit:00000000 $t
C:\Users\z80\AppData\Local\Temp\ccRodHvf.s:142    .text.usart_deinit:00000000 usart_deinit
C:\Users\z80\AppData\Local\Temp\ccRodHvf.s:172    .text.set_error:00000000 $t
C:\Users\z80\AppData\Local\Temp\ccRodHvf.s:177    .text.set_error:00000000 set_error
C:\Users\z80\AppData\Local\Temp\ccRodHvf.s:274    .text.serve_interrupt:00000000 $t
C:\Users\z80\AppData\Local\Temp\ccRodHvf.s:279    .text.serve_interrupt:00000000 serve_interrupt
C:\Users\z80\AppData\Local\Temp\ccRodHvf.s:519    .text.notify1:00000000 $t
C:\Users\z80\AppData\Local\Temp\ccRodHvf.s:524    .text.notify1:00000000 notify1
C:\Users\z80\AppData\Local\Temp\ccRodHvf.s:552    .text.notify2:00000000 $t
C:\Users\z80\AppData\Local\Temp\ccRodHvf.s:557    .text.notify2:00000000 notify2
C:\Users\z80\AppData\Local\Temp\ccRodHvf.s:585    .text.VectorD4:00000000 $t
C:\Users\z80\AppData\Local\Temp\ccRodHvf.s:591    .text.VectorD4:00000000 VectorD4
C:\Users\z80\AppData\Local\Temp\ccRodHvf.s:617    .text.VectorD8:00000000 $t
C:\Users\z80\AppData\Local\Temp\ccRodHvf.s:623    .text.VectorD8:00000000 VectorD8
C:\Users\z80\AppData\Local\Temp\ccRodHvf.s:649    .text.sd_lld_init:00000000 $t
C:\Users\z80\AppData\Local\Temp\ccRodHvf.s:655    .text.sd_lld_init:00000000 sd_lld_init
C:\Users\z80\AppData\Local\Temp\ccRodHvf.s:698    .text.sd_lld_start:00000000 $t
C:\Users\z80\AppData\Local\Temp\ccRodHvf.s:704    .text.sd_lld_start:00000000 sd_lld_start
C:\Users\z80\AppData\Local\Temp\ccRodHvf.s:782    .text.sd_lld_stop:00000000 $t
C:\Users\z80\AppData\Local\Temp\ccRodHvf.s:788    .text.sd_lld_stop:00000000 sd_lld_stop
                     .debug_frame:00000010 $d

UNDEFINED SYMBOLS
dbg_check_lock_from_isr
chEvtBroadcastFlagsI
dbg_check_unlock_from_isr
sdIncomingDataI
chOQGetI
dbg_check_enter_isr
dbg_check_leave_isr
_port_irq_epilogue
sdObjectInit
nvicEnableVector
nvicDisableVector
