ARM GAS  /tmp/ccBdh4qO.s 			page 1


   1              		.syntax unified
   2              		.cpu cortex-m3
   3              		.fpu softvfp
   4              		.eabi_attribute 20, 1
   5              		.eabi_attribute 21, 1
   6              		.eabi_attribute 23, 3
   7              		.eabi_attribute 24, 1
   8              		.eabi_attribute 25, 1
   9              		.eabi_attribute 26, 1
  10              		.eabi_attribute 30, 6
  11              		.eabi_attribute 18, 4
  12              		.thumb
  13              		.file	"serial_lld.c"
  20 0000 BE030000 		.text
  20      02009A02 
  20      00000201 
  20      FB0E0D00 
  20      01010101 
  21              	.Ltext0:
  22              		.cfi_sections	.debug_frame
  23              		.global	SD1
  24              		.section	.bss.SD1,"aw",%nobits
  25              		.align	2
  26              		.type	SD1, %object
  27              		.size	SD1, 1108
  28              	SD1:
  29 0000 00000000 		.space	1108
  29      00000000 
  29      00000000 
  29      00000000 
  29      00000000 
  30              		.global	SD2
  31              		.section	.bss.SD2,"aw",%nobits
  32              		.align	2
  33              		.type	SD2, %object
  34              		.size	SD2, 1108
  35              	SD2:
  36 0000 00000000 		.space	1108
  36      00000000 
  36      00000000 
  36      00000000 
  36      00000000 
  37              		.section	.rodata.default_config,"a",%progbits
  38              		.align	2
  39              		.type	default_config, %object
  40              		.size	default_config, 12
  41              	default_config:
  42 0000 00C20100 		.word	115200
  43 0004 0000     		.short	0
  44 0006 0040     		.short	16384
  45 0008 0000     		.short	0
ARM GAS  /tmp/ccBdh4qO.s 			page 2


  46 000a 0000     		.space	2
  47              		.section	.text.usart_init,"ax",%progbits
  48              		.align	2
  49              		.p2align 4,,15
  50              		.thumb
  51              		.thumb_func
  52              		.type	usart_init, %function
  53              	usart_init:
  54              	.LFB62:
  55              		.file 1 "../chibios_2.4.x/os/hal/platforms/STM32/serial_lld.c"
  56              		.loc 1 99 0
  57              		.cfi_startproc
  58              		@ args = 0, pretend = 0, frame = 16
  59              		@ frame_needed = 0, uses_anonymous_args = 0
  60              		@ link register save eliminated.
  61 0000 84B0     		sub	sp, sp, #16
  62              	.LCFI0:
  63              		.cfi_def_cfa_offset 16
  64 0002 0190     		str	r0, [sp, #4]
  65 0004 0091     		str	r1, [sp, #0]
  66              		.loc 1 100 0
  67 0006 019B     		ldr	r3, [sp, #4]
  68 0008 D3F85034 		ldr	r3, [r3, #1104]
  69 000c 0393     		str	r3, [sp, #12]
  70              		.loc 1 108 0
  71 000e 019B     		ldr	r3, [sp, #4]
  72 0010 D3F85024 		ldr	r2, [r3, #1104]
  73 0014 1A4B     		ldr	r3, .L4
  74 0016 9A42     		cmp	r2, r3
  75 0018 08D1     		bne	.L2
  76              		.loc 1 110 0
  77 001a 009B     		ldr	r3, [sp, #0]
  78 001c 1B68     		ldr	r3, [r3, #0]
  79 001e 194A     		ldr	r2, .L4+4
  80 0020 B2FBF3F3 		udiv	r3, r2, r3
  81 0024 9AB2     		uxth	r2, r3
  82 0026 039B     		ldr	r3, [sp, #12]
  83 0028 1A81     		strh	r2, [r3, #8]	@ movhi
  84 002a 07E0     		b	.L3
  85              	.L2:
  86              		.loc 1 112 0
  87 002c 009B     		ldr	r3, [sp, #0]
  88 002e 1B68     		ldr	r3, [r3, #0]
  89 0030 144A     		ldr	r2, .L4+4
  90 0032 B2FBF3F3 		udiv	r3, r2, r3
  91 0036 9AB2     		uxth	r2, r3
  92 0038 039B     		ldr	r3, [sp, #12]
  93 003a 1A81     		strh	r2, [r3, #8]	@ movhi
  94              	.L3:
  95              		.loc 1 117 0
  96 003c 009B     		ldr	r3, [sp, #0]
  97 003e 9B88     		ldrh	r3, [r3, #4]
  98 0040 43F40453 		orr	r3, r3, #8448
  99 0044 43F02C03 		orr	r3, r3, #44
 100 0048 9AB2     		uxth	r2, r3
 101 004a 039B     		ldr	r3, [sp, #12]
 102 004c 9A81     		strh	r2, [r3, #12]	@ movhi
ARM GAS  /tmp/ccBdh4qO.s 			page 3


 103              		.loc 1 120 0
 104 004e 009B     		ldr	r3, [sp, #0]
 105 0050 DB88     		ldrh	r3, [r3, #6]
 106 0052 43F04003 		orr	r3, r3, #64
 107 0056 9AB2     		uxth	r2, r3
 108 0058 039B     		ldr	r3, [sp, #12]
 109 005a 1A82     		strh	r2, [r3, #16]	@ movhi
 110              		.loc 1 121 0
 111 005c 009B     		ldr	r3, [sp, #0]
 112 005e 1B89     		ldrh	r3, [r3, #8]
 113 0060 43F00103 		orr	r3, r3, #1
 114 0064 9AB2     		uxth	r2, r3
 115 0066 039B     		ldr	r3, [sp, #12]
 116 0068 9A82     		strh	r2, [r3, #20]	@ movhi
 117              		.loc 1 122 0
 118 006a 039B     		ldr	r3, [sp, #12]
 119 006c 4FF00002 		mov	r2, #0
 120 0070 1A80     		strh	r2, [r3, #0]	@ movhi
 121              		.loc 1 123 0
 122 0072 039B     		ldr	r3, [sp, #12]
 123 0074 1B88     		ldrh	r3, [r3, #0]	@ movhi
 124              		.loc 1 124 0
 125 0076 039B     		ldr	r3, [sp, #12]
 126 0078 9B88     		ldrh	r3, [r3, #4]	@ movhi
 127              		.loc 1 125 0
 128 007a 04B0     		add	sp, sp, #16
 129 007c 7047     		bx	lr
 130              	.L5:
 131 007e 00BF     		.align	2
 132              	.L4:
 133 0080 00380140 		.word	1073821696
 134 0084 001BB700 		.word	12000000
 135              		.cfi_endproc
 136              	.LFE62:
 137              		.size	usart_init, .-usart_init
 138 0088 AFF30080 		.section	.text.usart_deinit,"ax",%progbits
 138      AFF30080 
 139              		.align	2
 140              		.p2align 4,,15
 141              		.thumb
 142              		.thumb_func
 143              		.type	usart_deinit, %function
 144              	usart_deinit:
 145              	.LFB63:
 146              		.loc 1 133 0
 147              		.cfi_startproc
 148              		@ args = 0, pretend = 0, frame = 8
 149              		@ frame_needed = 0, uses_anonymous_args = 0
 150              		@ link register save eliminated.
 151 0000 82B0     		sub	sp, sp, #8
 152              	.LCFI1:
 153              		.cfi_def_cfa_offset 8
 154 0002 0190     		str	r0, [sp, #4]
 155              		.loc 1 135 0
 156 0004 019B     		ldr	r3, [sp, #4]
 157 0006 4FF00002 		mov	r2, #0
 158 000a 9A81     		strh	r2, [r3, #12]	@ movhi
ARM GAS  /tmp/ccBdh4qO.s 			page 4


 159              		.loc 1 136 0
 160 000c 019B     		ldr	r3, [sp, #4]
 161 000e 4FF00002 		mov	r2, #0
 162 0012 1A82     		strh	r2, [r3, #16]	@ movhi
 163              		.loc 1 137 0
 164 0014 019B     		ldr	r3, [sp, #4]
 165 0016 4FF00002 		mov	r2, #0
 166 001a 9A82     		strh	r2, [r3, #20]	@ movhi
 167              		.loc 1 138 0
 168 001c 02B0     		add	sp, sp, #8
 169 001e 7047     		bx	lr
 170              		.cfi_endproc
 171              	.LFE63:
 172              		.size	usart_deinit, .-usart_deinit
 173              		.section	.text.set_error,"ax",%progbits
 174              		.align	2
 175              		.p2align 4,,15
 176              		.thumb
 177              		.thumb_func
 178              		.type	set_error, %function
 179              	set_error:
 180              	.LFB64:
 181              		.loc 1 149 0
 182              		.cfi_startproc
 183              		@ args = 0, pretend = 0, frame = 16
 184              		@ frame_needed = 0, uses_anonymous_args = 0
 185 0000 00B5     		push	{lr}
 186              	.LCFI2:
 187              		.cfi_def_cfa_offset 4
 188 0002 85B0     		sub	sp, sp, #20
 189              	.LCFI3:
 190              		.cfi_def_cfa_offset 24
 191 0004 0190     		str	r0, [sp, #4]
 192 0006 0B46     		mov	r3, r1
 193 0008 ADF80230 		strh	r3, [sp, #2]	@ movhi
 194              		.loc 1 150 0
 195 000c 4FF00003 		mov	r3, #0
 196 0010 0393     		str	r3, [sp, #12]
 197              		.loc 1 152 0
 198 0012 BDF80230 		ldrh	r3, [sp, #2]
 199 0016 03F00803 		and	r3, r3, #8
 200 001a 002B     		cmp	r3, #0
 201 001c 03D0     		beq	.L8
 202              		.cfi_offset 14, -4
 203              		.loc 1 153 0
 204 001e 039B     		ldr	r3, [sp, #12]
 205 0020 43F08003 		orr	r3, r3, #128
 206 0024 0393     		str	r3, [sp, #12]
 207              	.L8:
 208              		.loc 1 154 0
 209 0026 BDF80230 		ldrh	r3, [sp, #2]
 210 002a 03F00103 		and	r3, r3, #1
 211 002e DBB2     		uxtb	r3, r3
 212 0030 002B     		cmp	r3, #0
 213 0032 03D0     		beq	.L9
 214              		.loc 1 155 0
 215 0034 039B     		ldr	r3, [sp, #12]
ARM GAS  /tmp/ccBdh4qO.s 			page 5


 216 0036 43F02003 		orr	r3, r3, #32
 217 003a 0393     		str	r3, [sp, #12]
 218              	.L9:
 219              		.loc 1 156 0
 220 003c BDF80230 		ldrh	r3, [sp, #2]
 221 0040 03F00203 		and	r3, r3, #2
 222 0044 002B     		cmp	r3, #0
 223 0046 03D0     		beq	.L10
 224              		.loc 1 157 0
 225 0048 039B     		ldr	r3, [sp, #12]
 226 004a 43F04003 		orr	r3, r3, #64
 227 004e 0393     		str	r3, [sp, #12]
 228              	.L10:
 229              		.loc 1 158 0
 230 0050 BDF80230 		ldrh	r3, [sp, #2]
 231 0054 03F00403 		and	r3, r3, #4
 232 0058 002B     		cmp	r3, #0
 233 005a 03D0     		beq	.L11
 234              		.loc 1 159 0
 235 005c 039B     		ldr	r3, [sp, #12]
 236 005e 43F48073 		orr	r3, r3, #256
 237 0062 0393     		str	r3, [sp, #12]
 238              	.L11:
 239              	.LBB2:
 240              		.loc 1 160 0
 241 0064 4FF02003 		mov	r3, #32
 242              	@ 160 "../chibios_2.4.x/os/hal/platforms/STM32/serial_lld.c" 1
 243 0068 83F31188 		msr     BASEPRI, r3
 244              	@ 0 "" 2
 245              		.thumb
 246              	.LBE2:
 247 006c FFF7FEFF 		bl	dbg_check_lock_from_isr
 248              		.loc 1 161 0
 249 0070 019B     		ldr	r3, [sp, #4]
 250 0072 9A68     		ldr	r2, [r3, #8]
 251 0074 039B     		ldr	r3, [sp, #12]
 252 0076 1A43     		orrs	r2, r2, r3
 253 0078 019B     		ldr	r3, [sp, #4]
 254 007a 9A60     		str	r2, [r3, #8]
 255 007c 019B     		ldr	r3, [sp, #4]
 256 007e 03F10403 		add	r3, r3, #4
 257 0082 1846     		mov	r0, r3
 258 0084 4FF00001 		mov	r1, #0
 259 0088 FFF7FEFF 		bl	chEvtBroadcastFlagsI
 260              		.loc 1 162 0
 261 008c FFF7FEFF 		bl	dbg_check_unlock_from_isr
 262              	.LBB3:
 263 0090 4FF00003 		mov	r3, #0
 264              	@ 162 "../chibios_2.4.x/os/hal/platforms/STM32/serial_lld.c" 1
 265 0094 83F31188 		msr     BASEPRI, r3
 266              	@ 0 "" 2
 267              		.thumb
 268              	.LBE3:
 269              		.loc 1 163 0
 270 0098 05B0     		add	sp, sp, #20
 271 009a 00BD     		pop	{pc}
 272              		.cfi_endproc
ARM GAS  /tmp/ccBdh4qO.s 			page 6


 273              	.LFE64:
 274              		.size	set_error, .-set_error
 275 009c AFF30080 		.section	.text.serve_interrupt,"ax",%progbits
 276              		.align	2
 277              		.p2align 4,,15
 278              		.thumb
 279              		.thumb_func
 280              		.type	serve_interrupt, %function
 281              	serve_interrupt:
 282              	.LFB65:
 283              		.loc 1 170 0
 284              		.cfi_startproc
 285              		@ args = 0, pretend = 0, frame = 24
 286              		@ frame_needed = 0, uses_anonymous_args = 0
 287 0000 00B5     		push	{lr}
 288              	.LCFI4:
 289              		.cfi_def_cfa_offset 4
 290 0002 87B0     		sub	sp, sp, #28
 291              	.LCFI5:
 292              		.cfi_def_cfa_offset 32
 293 0004 0190     		str	r0, [sp, #4]
 294              		.loc 1 171 0
 295 0006 019B     		ldr	r3, [sp, #4]
 296 0008 D3F85034 		ldr	r3, [r3, #1104]
 297 000c 0593     		str	r3, [sp, #20]
 298              		.loc 1 172 0
 299 000e 059B     		ldr	r3, [sp, #20]
 300 0010 9B89     		ldrh	r3, [r3, #12]	@ movhi
 301 0012 ADF81230 		strh	r3, [sp, #18]	@ movhi
 302              		.loc 1 173 0
 303 0016 059B     		ldr	r3, [sp, #20]
 304 0018 1B88     		ldrh	r3, [r3, #0]	@ movhi
 305 001a ADF81030 		strh	r3, [sp, #16]	@ movhi
 306              		.loc 1 174 0
 307 001e 059B     		ldr	r3, [sp, #20]
 308 0020 9B88     		ldrh	r3, [r3, #4]	@ movhi
 309 0022 ADF80E30 		strh	r3, [sp, #14]	@ movhi
 310              		.loc 1 177 0
 311 0026 BDF81030 		ldrh	r3, [sp, #16]
 312 002a 03F00F03 		and	r3, r3, #15
 313 002e 002B     		cmp	r3, #0
 314 0030 05D0     		beq	.L13
 315              		.cfi_offset 14, -4
 316              		.loc 1 178 0
 317 0032 BDF81030 		ldrh	r3, [sp, #16]
 318 0036 0198     		ldr	r0, [sp, #4]
 319 0038 1946     		mov	r1, r3
 320 003a FFF7FEFF 		bl	set_error
 321              	.L13:
 322              		.loc 1 180 0
 323 003e BDF81030 		ldrh	r3, [sp, #16]
 324 0042 03F48073 		and	r3, r3, #256
 325 0046 002B     		cmp	r3, #0
 326 0048 21D0     		beq	.L14
 327              	.LBB4:
 328              		.loc 1 181 0
 329 004a 4FF02003 		mov	r3, #32
ARM GAS  /tmp/ccBdh4qO.s 			page 7


 330              	@ 181 "../chibios_2.4.x/os/hal/platforms/STM32/serial_lld.c" 1
 331 004e 83F31188 		msr     BASEPRI, r3
 332              	@ 0 "" 2
 333              		.thumb
 334              	.LBE4:
 335 0052 FFF7FEFF 		bl	dbg_check_lock_from_isr
 336              		.loc 1 182 0
 337 0056 019B     		ldr	r3, [sp, #4]
 338 0058 9B68     		ldr	r3, [r3, #8]
 339 005a 43F40072 		orr	r2, r3, #512
 340 005e 019B     		ldr	r3, [sp, #4]
 341 0060 9A60     		str	r2, [r3, #8]
 342 0062 019B     		ldr	r3, [sp, #4]
 343 0064 03F10403 		add	r3, r3, #4
 344 0068 1846     		mov	r0, r3
 345 006a 4FF00001 		mov	r1, #0
 346 006e FFF7FEFF 		bl	chEvtBroadcastFlagsI
 347              		.loc 1 183 0
 348 0072 FFF7FEFF 		bl	dbg_check_unlock_from_isr
 349              	.LBB5:
 350 0076 4FF00003 		mov	r3, #0
 351              	@ 183 "../chibios_2.4.x/os/hal/platforms/STM32/serial_lld.c" 1
 352 007a 83F31188 		msr     BASEPRI, r3
 353              	@ 0 "" 2
 354              		.thumb
 355              	.LBE5:
 356              		.loc 1 184 0
 357 007e 059B     		ldr	r3, [sp, #20]
 358 0080 1B88     		ldrh	r3, [r3, #0]	@ movhi
 359 0082 9BB2     		uxth	r3, r3
 360 0084 23F48073 		bic	r3, r3, #256
 361 0088 9AB2     		uxth	r2, r3
 362 008a 059B     		ldr	r3, [sp, #20]
 363 008c 1A80     		strh	r2, [r3, #0]	@ movhi
 364              	.L14:
 365              		.loc 1 187 0
 366 008e BDF81030 		ldrh	r3, [sp, #16]
 367 0092 03F02003 		and	r3, r3, #32
 368 0096 002B     		cmp	r3, #0
 369 0098 12D0     		beq	.L15
 370              	.LBB6:
 371              		.loc 1 188 0
 372 009a 4FF02003 		mov	r3, #32
 373              	@ 188 "../chibios_2.4.x/os/hal/platforms/STM32/serial_lld.c" 1
 374 009e 83F31188 		msr     BASEPRI, r3
 375              	@ 0 "" 2
 376              		.thumb
 377              	.LBE6:
 378 00a2 FFF7FEFF 		bl	dbg_check_lock_from_isr
 379              		.loc 1 189 0
 380 00a6 BDF80E30 		ldrh	r3, [sp, #14]	@ movhi
 381 00aa DBB2     		uxtb	r3, r3
 382 00ac 0198     		ldr	r0, [sp, #4]
 383 00ae 1946     		mov	r1, r3
 384 00b0 FFF7FEFF 		bl	sdIncomingDataI
 385              		.loc 1 190 0
 386 00b4 FFF7FEFF 		bl	dbg_check_unlock_from_isr
ARM GAS  /tmp/ccBdh4qO.s 			page 8


 387              	.LBB7:
 388 00b8 4FF00003 		mov	r3, #0
 389              	@ 190 "../chibios_2.4.x/os/hal/platforms/STM32/serial_lld.c" 1
 390 00bc 83F31188 		msr     BASEPRI, r3
 391              	@ 0 "" 2
 392              		.thumb
 393              	.L15:
 394              	.LBE7:
 395              		.loc 1 193 0
 396 00c0 BDF81230 		ldrh	r3, [sp, #18]
 397 00c4 03F08003 		and	r3, r3, #128
 398 00c8 002B     		cmp	r3, #0
 399 00ca 39D0     		beq	.L16
 400              		.loc 1 193 0 is_stmt 0 discriminator 1
 401 00cc BDF81030 		ldrh	r3, [sp, #16]
 402 00d0 03F08003 		and	r3, r3, #128
 403 00d4 002B     		cmp	r3, #0
 404 00d6 33D0     		beq	.L16
 405              	.LBB8:
 406              	.LBB9:
 407              		.loc 1 195 0 is_stmt 1
 408 00d8 4FF02003 		mov	r3, #32
 409              	@ 195 "../chibios_2.4.x/os/hal/platforms/STM32/serial_lld.c" 1
 410 00dc 83F31188 		msr     BASEPRI, r3
 411              	@ 0 "" 2
 412              		.thumb
 413              	.LBE9:
 414 00e0 FFF7FEFF 		bl	dbg_check_lock_from_isr
 415              		.loc 1 196 0
 416 00e4 019B     		ldr	r3, [sp, #4]
 417 00e6 03F13003 		add	r3, r3, #48
 418 00ea 1846     		mov	r0, r3
 419 00ec FFF7FEFF 		bl	chOQGetI
 420 00f0 0290     		str	r0, [sp, #8]
 421              		.loc 1 197 0
 422 00f2 029B     		ldr	r3, [sp, #8]
 423 00f4 002B     		cmp	r3, #0
 424 00f6 19DA     		bge	.L17
 425              		.loc 1 198 0
 426 00f8 019B     		ldr	r3, [sp, #4]
 427 00fa 9B68     		ldr	r3, [r3, #8]
 428 00fc 43F00802 		orr	r2, r3, #8
 429 0100 019B     		ldr	r3, [sp, #4]
 430 0102 9A60     		str	r2, [r3, #8]
 431 0104 019B     		ldr	r3, [sp, #4]
 432 0106 03F10403 		add	r3, r3, #4
 433 010a 1846     		mov	r0, r3
 434 010c 4FF00001 		mov	r1, #0
 435 0110 FFF7FEFF 		bl	chEvtBroadcastFlagsI
 436              		.loc 1 199 0
 437 0114 BDF81230 		ldrh	r3, [sp, #18]
 438 0118 23F0C003 		bic	r3, r3, #192
 439 011c 9BB2     		uxth	r3, r3
 440 011e 43F04003 		orr	r3, r3, #64
 441 0122 9BB2     		uxth	r3, r3
 442 0124 9AB2     		uxth	r2, r3
 443 0126 059B     		ldr	r3, [sp, #20]
ARM GAS  /tmp/ccBdh4qO.s 			page 9


 444 0128 9A81     		strh	r2, [r3, #12]	@ movhi
 445 012a 03E0     		b	.L18
 446              	.L17:
 447              		.loc 1 202 0
 448 012c 029B     		ldr	r3, [sp, #8]
 449 012e 9AB2     		uxth	r2, r3
 450 0130 059B     		ldr	r3, [sp, #20]
 451 0132 9A80     		strh	r2, [r3, #4]	@ movhi
 452              	.L18:
 453              		.loc 1 203 0
 454 0134 FFF7FEFF 		bl	dbg_check_unlock_from_isr
 455              	.LBB10:
 456 0138 4FF00003 		mov	r3, #0
 457              	@ 203 "../chibios_2.4.x/os/hal/platforms/STM32/serial_lld.c" 1
 458 013c 83F31188 		msr     BASEPRI, r3
 459              	@ 0 "" 2
 460              		.thumb
 461              	.L16:
 462              	.LBE10:
 463              	.LBE8:
 464              		.loc 1 206 0
 465 0140 BDF81030 		ldrh	r3, [sp, #16]
 466 0144 03F04003 		and	r3, r3, #64
 467 0148 002B     		cmp	r3, #0
 468 014a 28D0     		beq	.L12
 469              	.LBB11:
 470              		.loc 1 207 0
 471 014c 4FF02003 		mov	r3, #32
 472              	@ 207 "../chibios_2.4.x/os/hal/platforms/STM32/serial_lld.c" 1
 473 0150 83F31188 		msr     BASEPRI, r3
 474              	@ 0 "" 2
 475              		.thumb
 476              	.LBE11:
 477 0154 FFF7FEFF 		bl	dbg_check_lock_from_isr
 478              		.loc 1 208 0
 479 0158 019B     		ldr	r3, [sp, #4]
 480 015a 9B68     		ldr	r3, [r3, #8]
 481 015c 43F01002 		orr	r2, r3, #16
 482 0160 019B     		ldr	r3, [sp, #4]
 483 0162 9A60     		str	r2, [r3, #8]
 484 0164 019B     		ldr	r3, [sp, #4]
 485 0166 03F10403 		add	r3, r3, #4
 486 016a 1846     		mov	r0, r3
 487 016c 4FF00001 		mov	r1, #0
 488 0170 FFF7FEFF 		bl	chEvtBroadcastFlagsI
 489              		.loc 1 209 0
 490 0174 FFF7FEFF 		bl	dbg_check_unlock_from_isr
 491              	.LBB12:
 492 0178 4FF00003 		mov	r3, #0
 493              	@ 209 "../chibios_2.4.x/os/hal/platforms/STM32/serial_lld.c" 1
 494 017c 83F31188 		msr     BASEPRI, r3
 495              	@ 0 "" 2
 496              		.thumb
 497              	.LBE12:
 498              		.loc 1 210 0
 499 0180 BDF81230 		ldrh	r3, [sp, #18]	@ movhi
 500 0184 23F04003 		bic	r3, r3, #64
ARM GAS  /tmp/ccBdh4qO.s 			page 10


 501 0188 9AB2     		uxth	r2, r3
 502 018a 059B     		ldr	r3, [sp, #20]
 503 018c 9A81     		strh	r2, [r3, #12]	@ movhi
 504              		.loc 1 211 0
 505 018e 059B     		ldr	r3, [sp, #20]
 506 0190 1B88     		ldrh	r3, [r3, #0]	@ movhi
 507 0192 9BB2     		uxth	r3, r3
 508 0194 23F04003 		bic	r3, r3, #64
 509 0198 9AB2     		uxth	r2, r3
 510 019a 059B     		ldr	r3, [sp, #20]
 511 019c 1A80     		strh	r2, [r3, #0]	@ movhi
 512              	.L12:
 513              		.loc 1 213 0
 514 019e 07B0     		add	sp, sp, #28
 515 01a0 00BD     		pop	{pc}
 516              		.cfi_endproc
 517              	.LFE65:
 518              		.size	serve_interrupt, .-serve_interrupt
 519 01a2 00BFAFF3 		.section	.text.notify1,"ax",%progbits
 519      0080AFF3 
 519      0080AFF3 
 519      0080
 520              		.align	2
 521              		.p2align 4,,15
 522              		.thumb
 523              		.thumb_func
 524              		.type	notify1, %function
 525              	notify1:
 526              	.LFB66:
 527              		.loc 1 217 0
 528              		.cfi_startproc
 529              		@ args = 0, pretend = 0, frame = 8
 530              		@ frame_needed = 0, uses_anonymous_args = 0
 531              		@ link register save eliminated.
 532 0000 82B0     		sub	sp, sp, #8
 533              	.LCFI6:
 534              		.cfi_def_cfa_offset 8
 535 0002 0190     		str	r0, [sp, #4]
 536              		.loc 1 220 0
 537 0004 044B     		ldr	r3, .L21
 538 0006 044A     		ldr	r2, .L21
 539 0008 9289     		ldrh	r2, [r2, #12]	@ movhi
 540 000a 92B2     		uxth	r2, r2
 541 000c 42F08002 		orr	r2, r2, #128
 542 0010 92B2     		uxth	r2, r2
 543 0012 9A81     		strh	r2, [r3, #12]	@ movhi
 544              		.loc 1 221 0
 545 0014 02B0     		add	sp, sp, #8
 546 0016 7047     		bx	lr
 547              	.L22:
 548              		.align	2
 549              	.L21:
 550 0018 00380140 		.word	1073821696
 551              		.cfi_endproc
 552              	.LFE66:
 553              		.size	notify1, .-notify1
 554 001c AFF30080 		.section	.text.notify2,"ax",%progbits
ARM GAS  /tmp/ccBdh4qO.s 			page 11


 555              		.align	2
 556              		.p2align 4,,15
 557              		.thumb
 558              		.thumb_func
 559              		.type	notify2, %function
 560              	notify2:
 561              	.LFB67:
 562              		.loc 1 225 0
 563              		.cfi_startproc
 564              		@ args = 0, pretend = 0, frame = 8
 565              		@ frame_needed = 0, uses_anonymous_args = 0
 566              		@ link register save eliminated.
 567 0000 82B0     		sub	sp, sp, #8
 568              	.LCFI7:
 569              		.cfi_def_cfa_offset 8
 570 0002 0190     		str	r0, [sp, #4]
 571              		.loc 1 228 0
 572 0004 044B     		ldr	r3, .L24
 573 0006 044A     		ldr	r2, .L24
 574 0008 9289     		ldrh	r2, [r2, #12]	@ movhi
 575 000a 92B2     		uxth	r2, r2
 576 000c 42F08002 		orr	r2, r2, #128
 577 0010 92B2     		uxth	r2, r2
 578 0012 9A81     		strh	r2, [r3, #12]	@ movhi
 579              		.loc 1 229 0
 580 0014 02B0     		add	sp, sp, #8
 581 0016 7047     		bx	lr
 582              	.L25:
 583              		.align	2
 584              	.L24:
 585 0018 00440040 		.word	1073759232
 586              		.cfi_endproc
 587              	.LFE67:
 588              		.size	notify2, .-notify2
 589 001c AFF30080 		.section	.text.VectorD4,"ax",%progbits
 590              		.align	2
 591              		.p2align 4,,15
 592              		.global	VectorD4
 593              		.thumb
 594              		.thumb_func
 595              		.type	VectorD4, %function
 596              	VectorD4:
 597              	.LFB68:
 598              		.loc 1 274 0
 599              		.cfi_startproc
 600              		@ args = 0, pretend = 0, frame = 0
 601              		@ frame_needed = 0, uses_anonymous_args = 0
 602 0000 08B5     		push	{r3, lr}
 603              	.LCFI8:
 604              		.cfi_def_cfa_offset 8
 605              		.loc 1 276 0
 606              		.cfi_offset 14, -4
 607              		.cfi_offset 3, -8
 608 0002 FFF7FEFF 		bl	dbg_check_enter_isr
 609              		.loc 1 278 0
 610 0006 0448     		ldr	r0, .L27
 611 0008 FFF7FEFF 		bl	serve_interrupt
ARM GAS  /tmp/ccBdh4qO.s 			page 12


 612              		.loc 1 280 0
 613 000c FFF7FEFF 		bl	dbg_check_leave_isr
 614 0010 FFF7FEFF 		bl	_port_irq_epilogue
 615              		.loc 1 281 0
 616 0014 08BD     		pop	{r3, pc}
 617              	.L28:
 618 0016 00BF     		.align	2
 619              	.L27:
 620 0018 00000000 		.word	SD1
 621              		.cfi_endproc
 622              	.LFE68:
 623              		.size	VectorD4, .-VectorD4
 624 001c AFF30080 		.section	.text.VectorD8,"ax",%progbits
 625              		.align	2
 626              		.p2align 4,,15
 627              		.global	VectorD8
 628              		.thumb
 629              		.thumb_func
 630              		.type	VectorD8, %function
 631              	VectorD8:
 632              	.LFB69:
 633              		.loc 1 290 0
 634              		.cfi_startproc
 635              		@ args = 0, pretend = 0, frame = 0
 636              		@ frame_needed = 0, uses_anonymous_args = 0
 637 0000 08B5     		push	{r3, lr}
 638              	.LCFI9:
 639              		.cfi_def_cfa_offset 8
 640              		.loc 1 292 0
 641              		.cfi_offset 14, -4
 642              		.cfi_offset 3, -8
 643 0002 FFF7FEFF 		bl	dbg_check_enter_isr
 644              		.loc 1 294 0
 645 0006 0448     		ldr	r0, .L30
 646 0008 FFF7FEFF 		bl	serve_interrupt
 647              		.loc 1 296 0
 648 000c FFF7FEFF 		bl	dbg_check_leave_isr
 649 0010 FFF7FEFF 		bl	_port_irq_epilogue
 650              		.loc 1 297 0
 651 0014 08BD     		pop	{r3, pc}
 652              	.L31:
 653 0016 00BF     		.align	2
 654              	.L30:
 655 0018 00000000 		.word	SD2
 656              		.cfi_endproc
 657              	.LFE69:
 658              		.size	VectorD8, .-VectorD8
 659 001c AFF30080 		.section	.text.sd_lld_init,"ax",%progbits
 660              		.align	2
 661              		.p2align 4,,15
 662              		.global	sd_lld_init
 663              		.thumb
 664              		.thumb_func
 665              		.type	sd_lld_init, %function
 666              	sd_lld_init:
 667              	.LFB70:
 668              		.loc 1 373 0
ARM GAS  /tmp/ccBdh4qO.s 			page 13


 669              		.cfi_startproc
 670              		@ args = 0, pretend = 0, frame = 0
 671              		@ frame_needed = 0, uses_anonymous_args = 0
 672 0000 08B5     		push	{r3, lr}
 673              	.LCFI10:
 674              		.cfi_def_cfa_offset 8
 675              		.loc 1 376 0
 676 0002 0A48     		ldr	r0, .L33
 677 0004 4FF00001 		mov	r1, #0
 678 0008 094A     		ldr	r2, .L33+4
 679              		.cfi_offset 14, -4
 680              		.cfi_offset 3, -8
 681 000a FFF7FEFF 		bl	sdObjectInit
 682              		.loc 1 377 0
 683 000e 074B     		ldr	r3, .L33
 684 0010 084A     		ldr	r2, .L33+8
 685 0012 C3F85024 		str	r2, [r3, #1104]
 686              		.loc 1 381 0
 687 0016 0848     		ldr	r0, .L33+12
 688 0018 4FF00001 		mov	r1, #0
 689 001c 074A     		ldr	r2, .L33+16
 690 001e FFF7FEFF 		bl	sdObjectInit
 691              		.loc 1 382 0
 692 0022 054B     		ldr	r3, .L33+12
 693 0024 064A     		ldr	r2, .L33+20
 694 0026 C3F85024 		str	r2, [r3, #1104]
 695              		.loc 1 404 0
 696 002a 08BD     		pop	{r3, pc}
 697              	.L34:
 698              		.align	2
 699              	.L33:
 700 002c 00000000 		.word	SD1
 701 0030 00000000 		.word	notify1
 702 0034 00380140 		.word	1073821696
 703 0038 00000000 		.word	SD2
 704 003c 00000000 		.word	notify2
 705 0040 00440040 		.word	1073759232
 706              		.cfi_endproc
 707              	.LFE70:
 708              		.size	sd_lld_init, .-sd_lld_init
 709 0044 AFF30080 		.section	.text.sd_lld_start,"ax",%progbits
 709      AFF30080 
 709      AFF30080 
 710              		.align	2
 711              		.p2align 4,,15
 712              		.global	sd_lld_start
 713              		.thumb
 714              		.thumb_func
 715              		.type	sd_lld_start, %function
 716              	sd_lld_start:
 717              	.LFB71:
 718              		.loc 1 416 0
 719              		.cfi_startproc
 720              		@ args = 0, pretend = 0, frame = 8
 721              		@ frame_needed = 0, uses_anonymous_args = 0
 722 0000 00B5     		push	{lr}
 723              	.LCFI11:
ARM GAS  /tmp/ccBdh4qO.s 			page 14


 724              		.cfi_def_cfa_offset 4
 725 0002 83B0     		sub	sp, sp, #12
 726              	.LCFI12:
 727              		.cfi_def_cfa_offset 16
 728 0004 0190     		str	r0, [sp, #4]
 729 0006 0091     		str	r1, [sp, #0]
 730              		.loc 1 418 0
 731 0008 009B     		ldr	r3, [sp, #0]
 732 000a 002B     		cmp	r3, #0
 733 000c 01D1     		bne	.L36
 734              		.cfi_offset 14, -4
 735              		.loc 1 419 0
 736 000e 164B     		ldr	r3, .L39
 737 0010 0093     		str	r3, [sp, #0]
 738              	.L36:
 739              		.loc 1 421 0
 740 0012 019B     		ldr	r3, [sp, #4]
 741 0014 1B7B     		ldrb	r3, [r3, #12]	@ zero_extendqisi2
 742 0016 012B     		cmp	r3, #1
 743 0018 1FD1     		bne	.L37
 744              		.loc 1 423 0
 745 001a 019A     		ldr	r2, [sp, #4]
 746 001c 134B     		ldr	r3, .L39+4
 747 001e 9A42     		cmp	r2, r3
 748 0020 0BD1     		bne	.L38
 749              		.loc 1 424 0
 750 0022 134B     		ldr	r3, .L39+8
 751 0024 124A     		ldr	r2, .L39+8
 752 0026 9269     		ldr	r2, [r2, #24]
 753 0028 42F48042 		orr	r2, r2, #16384
 754 002c 9A61     		str	r2, [r3, #24]
 755              		.loc 1 425 0
 756 002e 4FF02500 		mov	r0, #37
 757 0032 4FF0C001 		mov	r1, #192
 758 0036 FFF7FEFF 		bl	nvicEnableVector
 759              	.L38:
 760              		.loc 1 430 0
 761 003a 019A     		ldr	r2, [sp, #4]
 762 003c 0D4B     		ldr	r3, .L39+12
 763 003e 9A42     		cmp	r2, r3
 764 0040 0BD1     		bne	.L37
 765              		.loc 1 431 0
 766 0042 0B4B     		ldr	r3, .L39+8
 767 0044 0A4A     		ldr	r2, .L39+8
 768 0046 D269     		ldr	r2, [r2, #28]
 769 0048 42F40032 		orr	r2, r2, #131072
 770 004c DA61     		str	r2, [r3, #28]
 771              		.loc 1 432 0
 772 004e 4FF02600 		mov	r0, #38
 773 0052 4FF0C001 		mov	r1, #192
 774 0056 FFF7FEFF 		bl	nvicEnableVector
 775              	.L37:
 776              		.loc 1 465 0
 777 005a 0198     		ldr	r0, [sp, #4]
 778 005c 0099     		ldr	r1, [sp, #0]
 779 005e FFF7FEFF 		bl	usart_init
 780              		.loc 1 466 0
ARM GAS  /tmp/ccBdh4qO.s 			page 15


 781 0062 03B0     		add	sp, sp, #12
 782 0064 00BD     		pop	{pc}
 783              	.L40:
 784 0066 00BF     		.align	2
 785              	.L39:
 786 0068 00000000 		.word	default_config
 787 006c 00000000 		.word	SD1
 788 0070 00100240 		.word	1073876992
 789 0074 00000000 		.word	SD2
 790              		.cfi_endproc
 791              	.LFE71:
 792              		.size	sd_lld_start, .-sd_lld_start
 793 0078 AFF30080 		.section	.text.sd_lld_stop,"ax",%progbits
 793      AFF30080 
 794              		.align	2
 795              		.p2align 4,,15
 796              		.global	sd_lld_stop
 797              		.thumb
 798              		.thumb_func
 799              		.type	sd_lld_stop, %function
 800              	sd_lld_stop:
 801              	.LFB72:
 802              		.loc 1 477 0
 803              		.cfi_startproc
 804              		@ args = 0, pretend = 0, frame = 8
 805              		@ frame_needed = 0, uses_anonymous_args = 0
 806 0000 00B5     		push	{lr}
 807              	.LCFI13:
 808              		.cfi_def_cfa_offset 4
 809 0002 83B0     		sub	sp, sp, #12
 810              	.LCFI14:
 811              		.cfi_def_cfa_offset 16
 812 0004 0190     		str	r0, [sp, #4]
 813              		.loc 1 479 0
 814 0006 019B     		ldr	r3, [sp, #4]
 815 0008 1B7B     		ldrb	r3, [r3, #12]	@ zero_extendqisi2
 816 000a 022B     		cmp	r3, #2
 817 000c 23D1     		bne	.L41
 818              		.cfi_offset 14, -4
 819              		.loc 1 480 0
 820 000e 019B     		ldr	r3, [sp, #4]
 821 0010 D3F85034 		ldr	r3, [r3, #1104]
 822 0014 1846     		mov	r0, r3
 823 0016 FFF7FEFF 		bl	usart_deinit
 824              		.loc 1 482 0
 825 001a 019A     		ldr	r2, [sp, #4]
 826 001c 0F4B     		ldr	r3, .L44
 827 001e 9A42     		cmp	r2, r3
 828 0020 0AD1     		bne	.L43
 829              		.loc 1 483 0
 830 0022 0F4B     		ldr	r3, .L44+4
 831 0024 0E4A     		ldr	r2, .L44+4
 832 0026 9269     		ldr	r2, [r2, #24]
 833 0028 22F48042 		bic	r2, r2, #16384
 834 002c 9A61     		str	r2, [r3, #24]
 835              		.loc 1 484 0
 836 002e 4FF02500 		mov	r0, #37
ARM GAS  /tmp/ccBdh4qO.s 			page 16


 837 0032 FFF7FEFF 		bl	nvicDisableVector
 838              		.loc 1 485 0
 839 0036 0EE0     		b	.L41
 840              	.L43:
 841              		.loc 1 489 0
 842 0038 019A     		ldr	r2, [sp, #4]
 843 003a 0A4B     		ldr	r3, .L44+8
 844 003c 9A42     		cmp	r2, r3
 845 003e 0AD1     		bne	.L41
 846              		.loc 1 490 0
 847 0040 074B     		ldr	r3, .L44+4
 848 0042 074A     		ldr	r2, .L44+4
 849 0044 D269     		ldr	r2, [r2, #28]
 850 0046 22F40032 		bic	r2, r2, #131072
 851 004a DA61     		str	r2, [r3, #28]
 852              		.loc 1 491 0
 853 004c 4FF02600 		mov	r0, #38
 854 0050 FFF7FEFF 		bl	nvicDisableVector
 855              		.loc 1 492 0
 856 0054 00BF     		nop
 857              	.L41:
 858              		.loc 1 524 0
 859 0056 03B0     		add	sp, sp, #12
 860 0058 00BD     		pop	{pc}
 861              	.L45:
 862 005a 00BF     		.align	2
 863              	.L44:
 864 005c 00000000 		.word	SD1
 865 0060 00100240 		.word	1073876992
 866 0064 00000000 		.word	SD2
 867              		.cfi_endproc
 868              	.LFE72:
 869              		.size	sd_lld_stop, .-sd_lld_stop
 870 0068 AFF30080 		.text
 870      AFF30080 
 871              	.Letext0: