ARM GAS  /tmp/ccG55p3J.s 			page 1


   1              		.syntax unified
   2              		.cpu cortex-m3
   3              		.fpu softvfp
   4              		.eabi_attribute 20, 1
   5              		.eabi_attribute 21, 1
   6              		.eabi_attribute 23, 3
   7              		.eabi_attribute 24, 1
   8              		.eabi_attribute 25, 1
   9              		.eabi_attribute 26, 1
  10              		.eabi_attribute 30, 2
  11              		.eabi_attribute 18, 4
  12              		.thumb
  13              		.file	"serial_lld.c"
  14              		.section	.debug_abbrev,"",%progbits
  15              	.Ldebug_abbrev0:
  16              		.section	.debug_info,"",%progbits
  17              	.Ldebug_info0:
  18              		.section	.debug_line,"",%progbits
  19              	.Ldebug_line0:
  20 0000 D5030000 		.text
  20      02009A02 
  20      00000201 
  20      FB0E0D00 
  20      01010101 
  21              	.Ltext0:
  22              		.cfi_sections	.debug_frame
  23              		.section	.text.notify1,"ax",%progbits
  24              		.align	2
  25              		.p2align 4,,15
  26              		.thumb
  27              		.thumb_func
  28              		.type	notify1, %function
  29              	notify1:
  30              	.LFB66:
  31              		.file 1 "../chibios_2.4.x/os/hal/platforms/STM32/serial_lld.c"
  32              		.loc 1 217 0
  33              		.cfi_startproc
  34              		@ args = 0, pretend = 0, frame = 0
  35              		@ frame_needed = 0, uses_anonymous_args = 0
  36              		@ link register save eliminated.
  37              	.LVL0:
  38              		.loc 1 220 0
  39 0000 034B     		ldr	r3, .L2
  40 0002 9989     		ldrh	r1, [r3, #12]
  41 0004 88B2     		uxth	r0, r1
  42              	.LVL1:
  43 0006 40F08002 		orr	r2, r0, #128
  44 000a 9A81     		strh	r2, [r3, #12]	@ movhi
  45              		.loc 1 221 0
  46 000c 7047     		bx	lr
  47              	.L3:
  48 000e 00BF     		.align	2
  49              	.L2:
  50 0010 00380140 		.word	1073821696
  51              		.cfi_endproc
  52              	.LFE66:
  53              		.size	notify1, .-notify1
ARM GAS  /tmp/ccG55p3J.s 			page 2


  54 0014 AFF30080 		.section	.text.notify2,"ax",%progbits
  54      AFF30080 
  54      AFF30080 
  55              		.align	2
  56              		.p2align 4,,15
  57              		.thumb
  58              		.thumb_func
  59              		.type	notify2, %function
  60              	notify2:
  61              	.LFB67:
  62              		.loc 1 225 0
  63              		.cfi_startproc
  64              		@ args = 0, pretend = 0, frame = 0
  65              		@ frame_needed = 0, uses_anonymous_args = 0
  66              		@ link register save eliminated.
  67              	.LVL2:
  68              		.loc 1 228 0
  69 0000 034B     		ldr	r3, .L5
  70 0002 9989     		ldrh	r1, [r3, #12]
  71 0004 88B2     		uxth	r0, r1
  72              	.LVL3:
  73 0006 40F08002 		orr	r2, r0, #128
  74 000a 9A81     		strh	r2, [r3, #12]	@ movhi
  75              		.loc 1 229 0
  76 000c 7047     		bx	lr
  77              	.L6:
  78 000e 00BF     		.align	2
  79              	.L5:
  80 0010 00440040 		.word	1073759232
  81              		.cfi_endproc
  82              	.LFE67:
  83              		.size	notify2, .-notify2
  84 0014 AFF30080 		.section	.text.serve_interrupt,"ax",%progbits
  84      AFF30080 
  84      AFF30080 
  85              		.align	2
  86              		.p2align 4,,15
  87              		.thumb
  88              		.thumb_func
  89              		.type	serve_interrupt, %function
  90              	serve_interrupt:
  91              	.LFB65:
  92              		.loc 1 170 0
  93              		.cfi_startproc
  94              		@ args = 0, pretend = 0, frame = 0
  95              		@ frame_needed = 0, uses_anonymous_args = 0
  96              	.LVL4:
  97 0000 2DE9F843 		push	{r3, r4, r5, r6, r7, r8, r9, lr}
  98              	.LCFI0:
  99              		.cfi_def_cfa_offset 32
 100              		.loc 1 171 0
 101 0004 066F     		ldr	r6, [r0, #112]
 102              		.cfi_offset 14, -4
 103              		.cfi_offset 9, -8
 104              		.cfi_offset 8, -12
 105              		.cfi_offset 7, -16
 106              		.cfi_offset 6, -20
ARM GAS  /tmp/ccG55p3J.s 			page 3


 107              		.cfi_offset 5, -24
 108              		.cfi_offset 4, -28
 109              		.cfi_offset 3, -32
 110              	.LVL5:
 111              		.loc 1 170 0
 112 0006 0546     		mov	r5, r0
 113              		.loc 1 172 0
 114 0008 B789     		ldrh	r7, [r6, #12]
 115              		.loc 1 173 0
 116 000a 3488     		ldrh	r4, [r6, #0]
 117              		.loc 1 172 0
 118 000c BFB2     		uxth	r7, r7
 119              	.LVL6:
 120              		.loc 1 173 0
 121 000e A4B2     		uxth	r4, r4
 122              	.LVL7:
 123              		.loc 1 177 0
 124 0010 14F00F0F 		tst	r4, #15
 125              		.loc 1 174 0
 126 0014 B6F80480 		ldrh	r8, [r6, #4]
 127              	.LVL8:
 128              		.loc 1 177 0
 129 0018 25D0     		beq	.L8
 130              	.LVL9:
 131              	.LBB19:
 132              	.LBB20:
 133              		.loc 1 152 0
 134 001a 14F00809 		ands	r9, r4, #8
 135              		.loc 1 153 0
 136 001e 18BF     		it	ne
 137 0020 4FF08009 		movne	r9, #128
 138              	.LVL10:
 139              		.loc 1 154 0
 140 0024 14F0010F 		tst	r4, #1
 141              		.loc 1 155 0
 142 0028 18BF     		it	ne
 143 002a 49F02009 		orrne	r9, r9, #32
 144              	.LVL11:
 145              		.loc 1 156 0
 146 002e 14F0020F 		tst	r4, #2
 147              		.loc 1 157 0
 148 0032 18BF     		it	ne
 149 0034 49F04009 		orrne	r9, r9, #64
 150              	.LVL12:
 151              		.loc 1 158 0
 152 0038 14F0040F 		tst	r4, #4
 153              		.loc 1 159 0
 154 003c 18BF     		it	ne
 155 003e 49F48079 		orrne	r9, r9, #256
 156              	.LVL13:
 157              	.LBB21:
 158              		.loc 1 160 0
 159 0042 2023     		movs	r3, #32
 160              	.LVL14:
 161              	@ 160 "../chibios_2.4.x/os/hal/platforms/STM32/serial_lld.c" 1
 162 0044 83F31188 		msr     BASEPRI, r3
 163              	@ 0 "" 2
ARM GAS  /tmp/ccG55p3J.s 			page 4


 164              	.LVL15:
 165              		.thumb
 166              	.LBE21:
 167 0048 FFF7FEFF 		bl	dbg_check_lock_from_isr
 168              	.LVL16:
 169              		.loc 1 161 0
 170 004c A968     		ldr	r1, [r5, #8]
 171 004e 281D     		adds	r0, r5, #4
 172 0050 41EA0903 		orr	r3, r1, r9
 173 0054 AB60     		str	r3, [r5, #8]
 174 0056 0021     		movs	r1, #0
 175 0058 FFF7FEFF 		bl	chEvtBroadcastFlagsI
 176              		.loc 1 162 0
 177 005c FFF7FEFF 		bl	dbg_check_unlock_from_isr
 178              	.LBB22:
 179 0060 0023     		movs	r3, #0
 180              	.LVL17:
 181              	@ 162 "../chibios_2.4.x/os/hal/platforms/STM32/serial_lld.c" 1
 182 0062 83F31188 		msr     BASEPRI, r3
 183              	@ 0 "" 2
 184              	.LVL18:
 185              		.thumb
 186              	.L8:
 187              	.LBE22:
 188              	.LBE20:
 189              	.LBE19:
 190              		.loc 1 180 0
 191 0066 14F4807F 		tst	r4, #256
 192 006a 3BD1     		bne	.L21
 193              	.L13:
 194              		.loc 1 187 0
 195 006c 14F0200F 		tst	r4, #32
 196 0070 28D1     		bne	.L22
 197              	.LVL19:
 198              	.L14:
 199              		.loc 1 193 0
 200 0072 17F0800F 		tst	r7, #128
 201 0076 02D0     		beq	.L15
 202              		.loc 1 193 0 is_stmt 0 discriminator 1
 203 0078 14F0800F 		tst	r4, #128
 204 007c 4CD1     		bne	.L23
 205              	.LVL20:
 206              	.L15:
 207              		.loc 1 206 0 is_stmt 1
 208 007e 14F0400F 		tst	r4, #64
 209 0082 1DD0     		beq	.L7
 210              	.LBB23:
 211              		.loc 1 207 0
 212 0084 2023     		movs	r3, #32
 213              	.LVL21:
 214              	@ 207 "../chibios_2.4.x/os/hal/platforms/STM32/serial_lld.c" 1
 215 0086 83F31188 		msr     BASEPRI, r3
 216              	@ 0 "" 2
 217              	.LVL22:
 218              		.thumb
 219              	.LBE23:
 220 008a FFF7FEFF 		bl	dbg_check_lock_from_isr
ARM GAS  /tmp/ccG55p3J.s 			page 5


 221              	.LVL23:
 222              		.loc 1 208 0
 223 008e AA68     		ldr	r2, [r5, #8]
 224 0090 281D     		adds	r0, r5, #4
 225 0092 42F01003 		orr	r3, r2, #16
 226 0096 AB60     		str	r3, [r5, #8]
 227 0098 0021     		movs	r1, #0
 228 009a FFF7FEFF 		bl	chEvtBroadcastFlagsI
 229              		.loc 1 209 0
 230 009e FFF7FEFF 		bl	dbg_check_unlock_from_isr
 231              	.LBB24:
 232 00a2 0023     		movs	r3, #0
 233              	.LVL24:
 234              	@ 209 "../chibios_2.4.x/os/hal/platforms/STM32/serial_lld.c" 1
 235 00a4 83F31188 		msr     BASEPRI, r3
 236              	@ 0 "" 2
 237              	.LVL25:
 238              		.thumb
 239              	.LBE24:
 240              		.loc 1 210 0
 241 00a8 4FF6BF70 		movw	r0, #65471
 242 00ac 07EA0001 		and	r1, r7, r0
 243 00b0 B181     		strh	r1, [r6, #12]	@ movhi
 244              		.loc 1 211 0
 245 00b2 B6F800C0 		ldrh	ip, [r6, #0]
 246 00b6 2CF04002 		bic	r2, ip, #64
 247 00ba 1304     		lsls	r3, r2, #16
 248              	.LVL26:
 249 00bc 180C     		lsrs	r0, r3, #16
 250 00be 3080     		strh	r0, [r6, #0]	@ movhi
 251              	.LVL27:
 252              	.L7:
 253 00c0 BDE8F883 		pop	{r3, r4, r5, r6, r7, r8, r9, pc}
 254              	.LVL28:
 255              	.L22:
 256              	.LBB25:
 257              		.loc 1 188 0
 258 00c4 2023     		movs	r3, #32
 259              	.LVL29:
 260              	@ 188 "../chibios_2.4.x/os/hal/platforms/STM32/serial_lld.c" 1
 261 00c6 83F31188 		msr     BASEPRI, r3
 262              	@ 0 "" 2
 263              	.LVL30:
 264              		.thumb
 265              	.LBE25:
 266 00ca FFF7FEFF 		bl	dbg_check_lock_from_isr
 267              	.LVL31:
 268              		.loc 1 189 0
 269 00ce 2846     		mov	r0, r5
 270 00d0 5FFA88F1 		uxtb	r1, r8
 271 00d4 FFF7FEFF 		bl	sdIncomingDataI
 272              		.loc 1 190 0
 273 00d8 FFF7FEFF 		bl	dbg_check_unlock_from_isr
 274              	.LBB26:
 275 00dc 0023     		movs	r3, #0
 276              	@ 190 "../chibios_2.4.x/os/hal/platforms/STM32/serial_lld.c" 1
 277 00de 83F31188 		msr     BASEPRI, r3
ARM GAS  /tmp/ccG55p3J.s 			page 6


 278              	@ 0 "" 2
 279              	.LVL32:
 280              		.thumb
 281 00e2 C6E7     		b	.L14
 282              	.LVL33:
 283              	.L21:
 284              	.LBE26:
 285              	.LBB27:
 286              		.loc 1 181 0
 287 00e4 2023     		movs	r3, #32
 288              	.LVL34:
 289              	@ 181 "../chibios_2.4.x/os/hal/platforms/STM32/serial_lld.c" 1
 290 00e6 83F31188 		msr     BASEPRI, r3
 291              	@ 0 "" 2
 292              	.LVL35:
 293              		.thumb
 294              	.LBE27:
 295 00ea FFF7FEFF 		bl	dbg_check_lock_from_isr
 296              	.LVL36:
 297              		.loc 1 182 0
 298 00ee A968     		ldr	r1, [r5, #8]
 299 00f0 281D     		adds	r0, r5, #4
 300 00f2 41F40072 		orr	r2, r1, #512
 301 00f6 AA60     		str	r2, [r5, #8]
 302 00f8 0021     		movs	r1, #0
 303 00fa FFF7FEFF 		bl	chEvtBroadcastFlagsI
 304              		.loc 1 183 0
 305 00fe FFF7FEFF 		bl	dbg_check_unlock_from_isr
 306              	.LBB28:
 307 0102 0023     		movs	r3, #0
 308              	.LVL37:
 309              	@ 183 "../chibios_2.4.x/os/hal/platforms/STM32/serial_lld.c" 1
 310 0104 83F31188 		msr     BASEPRI, r3
 311              	@ 0 "" 2
 312              	.LVL38:
 313              		.thumb
 314              	.LBE28:
 315              		.loc 1 184 0
 316 0108 B6F800C0 		ldrh	ip, [r6, #0]
 317 010c 2CF48073 		bic	r3, ip, #256
 318              	.LVL39:
 319 0110 1A04     		lsls	r2, r3, #16
 320 0112 100C     		lsrs	r0, r2, #16
 321 0114 3080     		strh	r0, [r6, #0]	@ movhi
 322 0116 A9E7     		b	.L13
 323              	.LVL40:
 324              	.L23:
 325              	.LBB29:
 326              	.LBB30:
 327              		.loc 1 195 0
 328 0118 2023     		movs	r3, #32
 329              	.LVL41:
 330              	@ 195 "../chibios_2.4.x/os/hal/platforms/STM32/serial_lld.c" 1
 331 011a 83F31188 		msr     BASEPRI, r3
 332              	@ 0 "" 2
 333              	.LVL42:
 334              		.thumb
ARM GAS  /tmp/ccG55p3J.s 			page 7


 335              	.LBE30:
 336 011e FFF7FEFF 		bl	dbg_check_lock_from_isr
 337              	.LVL43:
 338              		.loc 1 196 0
 339 0122 05F13000 		add	r0, r5, #48
 340 0126 FFF7FEFF 		bl	chOQGetI
 341              	.LVL44:
 342              		.loc 1 197 0
 343 012a 0028     		cmp	r0, #0
 344 012c 06DB     		blt	.L24
 345              		.loc 1 202 0
 346 012e B080     		strh	r0, [r6, #4]	@ movhi
 347              	.LVL45:
 348              	.L17:
 349              		.loc 1 203 0
 350 0130 FFF7FEFF 		bl	dbg_check_unlock_from_isr
 351              	.LBB31:
 352 0134 0023     		movs	r3, #0
 353              	@ 203 "../chibios_2.4.x/os/hal/platforms/STM32/serial_lld.c" 1
 354 0136 83F31188 		msr     BASEPRI, r3
 355              	@ 0 "" 2
 356              	.LVL46:
 357              		.thumb
 358 013a A0E7     		b	.L15
 359              	.LVL47:
 360              	.L24:
 361              	.LBE31:
 362              		.loc 1 198 0
 363 013c A968     		ldr	r1, [r5, #8]
 364 013e 281D     		adds	r0, r5, #4
 365              	.LVL48:
 366 0140 41F00802 		orr	r2, r1, #8
 367 0144 AA60     		str	r2, [r5, #8]
 368 0146 0021     		movs	r1, #0
 369 0148 FFF7FEFF 		bl	chEvtBroadcastFlagsI
 370              		.loc 1 199 0
 371 014c 27F0C003 		bic	r3, r7, #192
 372 0150 43F04000 		orr	r0, r3, #64
 373 0154 B081     		strh	r0, [r6, #12]	@ movhi
 374 0156 EBE7     		b	.L17
 375              	.LBE29:
 376              		.cfi_endproc
 377              	.LFE65:
 378              		.size	serve_interrupt, .-serve_interrupt
 379 0158 AFF30080 		.section	.text.VectorD4,"ax",%progbits
 379      AFF30080 
 380              		.align	2
 381              		.p2align 4,,15
 382              		.global	VectorD4
 383              		.thumb
 384              		.thumb_func
 385              		.type	VectorD4, %function
 386              	VectorD4:
 387              	.LFB68:
 388              		.loc 1 274 0
 389              		.cfi_startproc
 390              		@ args = 0, pretend = 0, frame = 0
ARM GAS  /tmp/ccG55p3J.s 			page 8


 391              		@ frame_needed = 0, uses_anonymous_args = 0
 392 0000 10B5     		push	{r4, lr}
 393              	.LCFI1:
 394              		.cfi_def_cfa_offset 8
 395              		.loc 1 276 0
 396              		.cfi_offset 14, -4
 397              		.cfi_offset 4, -8
 398 0002 FFF7FEFF 		bl	dbg_check_enter_isr
 399              		.loc 1 278 0
 400 0006 0448     		ldr	r0, .L26
 401 0008 FFF7FEFF 		bl	serve_interrupt
 402              		.loc 1 280 0
 403 000c FFF7FEFF 		bl	dbg_check_leave_isr
 404              		.loc 1 281 0
 405 0010 BDE81040 		pop	{r4, lr}
 406              		.loc 1 280 0
 407 0014 FFF7FEBF 		b	_port_irq_epilogue
 408              	.L27:
 409              		.align	2
 410              	.L26:
 411 0018 00000000 		.word	.LANCHOR0
 412              		.cfi_endproc
 413              	.LFE68:
 414              		.size	VectorD4, .-VectorD4
 415 001c AFF30080 		.section	.text.VectorD8,"ax",%progbits
 416              		.align	2
 417              		.p2align 4,,15
 418              		.global	VectorD8
 419              		.thumb
 420              		.thumb_func
 421              		.type	VectorD8, %function
 422              	VectorD8:
 423              	.LFB69:
 424              		.loc 1 290 0
 425              		.cfi_startproc
 426              		@ args = 0, pretend = 0, frame = 0
 427              		@ frame_needed = 0, uses_anonymous_args = 0
 428 0000 10B5     		push	{r4, lr}
 429              	.LCFI2:
 430              		.cfi_def_cfa_offset 8
 431              		.loc 1 292 0
 432              		.cfi_offset 14, -4
 433              		.cfi_offset 4, -8
 434 0002 FFF7FEFF 		bl	dbg_check_enter_isr
 435              		.loc 1 294 0
 436 0006 0448     		ldr	r0, .L29
 437 0008 FFF7FEFF 		bl	serve_interrupt
 438              		.loc 1 296 0
 439 000c FFF7FEFF 		bl	dbg_check_leave_isr
 440              		.loc 1 297 0
 441 0010 BDE81040 		pop	{r4, lr}
 442              		.loc 1 296 0
 443 0014 FFF7FEBF 		b	_port_irq_epilogue
 444              	.L30:
 445              		.align	2
 446              	.L29:
 447 0018 00000000 		.word	.LANCHOR1
ARM GAS  /tmp/ccG55p3J.s 			page 9


 448              		.cfi_endproc
 449              	.LFE69:
 450              		.size	VectorD8, .-VectorD8
 451 001c AFF30080 		.section	.text.sd_lld_init,"ax",%progbits
 452              		.align	2
 453              		.p2align 4,,15
 454              		.global	sd_lld_init
 455              		.thumb
 456              		.thumb_func
 457              		.type	sd_lld_init, %function
 458              	sd_lld_init:
 459              	.LFB70:
 460              		.loc 1 373 0
 461              		.cfi_startproc
 462              		@ args = 0, pretend = 0, frame = 0
 463              		@ frame_needed = 0, uses_anonymous_args = 0
 464 0000 38B5     		push	{r3, r4, r5, lr}
 465              	.LCFI3:
 466              		.cfi_def_cfa_offset 16
 467              		.loc 1 376 0
 468 0002 084D     		ldr	r5, .L32
 469              		.cfi_offset 14, -4
 470              		.cfi_offset 5, -8
 471              		.cfi_offset 4, -12
 472              		.cfi_offset 3, -16
 473 0004 0021     		movs	r1, #0
 474 0006 2846     		mov	r0, r5
 475 0008 074A     		ldr	r2, .L32+4
 476              		.loc 1 381 0
 477 000a 084C     		ldr	r4, .L32+8
 478              		.loc 1 376 0
 479 000c FFF7FEFF 		bl	sdObjectInit
 480              		.loc 1 377 0
 481 0010 074B     		ldr	r3, .L32+12
 482              		.loc 1 381 0
 483 0012 2046     		mov	r0, r4
 484 0014 0021     		movs	r1, #0
 485 0016 074A     		ldr	r2, .L32+16
 486              		.loc 1 377 0
 487 0018 2B67     		str	r3, [r5, #112]
 488              		.loc 1 381 0
 489 001a FFF7FEFF 		bl	sdObjectInit
 490              		.loc 1 382 0
 491 001e 064B     		ldr	r3, .L32+20
 492 0020 2367     		str	r3, [r4, #112]
 493              		.loc 1 404 0
 494 0022 38BD     		pop	{r3, r4, r5, pc}
 495              	.L33:
 496              		.align	2
 497              	.L32:
 498 0024 00000000 		.word	.LANCHOR0
 499 0028 00000000 		.word	notify1
 500 002c 00000000 		.word	.LANCHOR1
 501 0030 00380140 		.word	1073821696
 502 0034 00000000 		.word	notify2
 503 0038 00440040 		.word	1073759232
 504              		.cfi_endproc
ARM GAS  /tmp/ccG55p3J.s 			page 10


 505              	.LFE70:
 506              		.size	sd_lld_init, .-sd_lld_init
 507 003c AFF30080 		.section	.text.sd_lld_start,"ax",%progbits
 508              		.align	2
 509              		.p2align 4,,15
 510              		.global	sd_lld_start
 511              		.thumb
 512              		.thumb_func
 513              		.type	sd_lld_start, %function
 514              	sd_lld_start:
 515              	.LFB71:
 516              		.loc 1 416 0
 517              		.cfi_startproc
 518              		@ args = 0, pretend = 0, frame = 0
 519              		@ frame_needed = 0, uses_anonymous_args = 0
 520              	.LVL49:
 521 0000 38B5     		push	{r3, r4, r5, lr}
 522              	.LCFI4:
 523              		.cfi_def_cfa_offset 16
 524              		.loc 1 421 0
 525 0002 037B     		ldrb	r3, [r0, #12]	@ zero_extendqisi2
 526              		.cfi_offset 14, -4
 527              		.cfi_offset 5, -8
 528              		.cfi_offset 4, -12
 529              		.cfi_offset 3, -16
 530              		.loc 1 419 0
 531 0004 1D4C     		ldr	r4, .L43
 532              		.loc 1 416 0
 533 0006 0546     		mov	r5, r0
 534              		.loc 1 419 0
 535 0008 0029     		cmp	r1, #0
 536 000a 18BF     		it	ne
 537 000c 0C46     		movne	r4, r1
 538              	.LVL50:
 539              		.loc 1 421 0
 540 000e 012B     		cmp	r3, #1
 541 0010 1AD0     		beq	.L41
 542              	.LVL51:
 543              	.L36:
 544              	.LBB32:
 545              	.LBB33:
 546              		.loc 1 112 0
 547 0012 2068     		ldr	r0, [r4, #0]
 548 0014 1A4A     		ldr	r2, .L43+4
 549              	.LBE33:
 550              	.LBE32:
 551              		.loc 1 524 0
 552 0016 2B6F     		ldr	r3, [r5, #112]
 553              	.LVL52:
 554              	.LBB35:
 555              	.LBB34:
 556              		.loc 1 112 0
 557 0018 B2FBF0F1 		udiv	r1, r2, r0
 558 001c 1981     		strh	r1, [r3, #8]	@ movhi
 559              		.loc 1 117 0
 560 001e A288     		ldrh	r2, [r4, #4]
 561              		.loc 1 120 0
ARM GAS  /tmp/ccG55p3J.s 			page 11


 562 0020 B4F806C0 		ldrh	ip, [r4, #6]
 563              		.loc 1 121 0
 564 0024 2189     		ldrh	r1, [r4, #8]
 565              		.loc 1 117 0
 566 0026 42F40450 		orr	r0, r2, #8448
 567 002a 40F02C02 		orr	r2, r0, #44
 568              		.loc 1 120 0
 569 002e 4CF04000 		orr	r0, ip, #64
 570              		.loc 1 117 0
 571 0032 9A81     		strh	r2, [r3, #12]	@ movhi
 572              		.loc 1 121 0
 573 0034 41F0010C 		orr	ip, r1, #1
 574              		.loc 1 120 0
 575 0038 1882     		strh	r0, [r3, #16]	@ movhi
 576              		.loc 1 122 0
 577 003a 0020     		movs	r0, #0
 578              		.loc 1 121 0
 579 003c A3F814C0 		strh	ip, [r3, #20]	@ movhi
 580              		.loc 1 122 0
 581 0040 1880     		strh	r0, [r3, #0]	@ movhi
 582              		.loc 1 123 0
 583 0042 1A88     		ldrh	r2, [r3, #0]
 584              		.loc 1 124 0
 585 0044 9B88     		ldrh	r3, [r3, #4]
 586              	.LBE34:
 587              	.LBE35:
 588              		.loc 1 466 0
 589 0046 38BD     		pop	{r3, r4, r5, pc}
 590              	.LVL53:
 591              	.L41:
 592              		.loc 1 423 0
 593 0048 0E49     		ldr	r1, .L43+8
 594 004a 8842     		cmp	r0, r1
 595 004c 0CD0     		beq	.L42
 596              		.loc 1 430 0
 597 004e 0E49     		ldr	r1, .L43+12
 598 0050 8842     		cmp	r0, r1
 599 0052 DED1     		bne	.L36
 600              		.loc 1 431 0
 601 0054 0D4B     		ldr	r3, .L43+16
 602              		.loc 1 432 0
 603 0056 2620     		movs	r0, #38
 604              		.loc 1 431 0
 605 0058 DA69     		ldr	r2, [r3, #28]
 606              		.loc 1 432 0
 607 005a C021     		movs	r1, #192
 608              		.loc 1 431 0
 609 005c 42F40032 		orr	r2, r2, #131072
 610 0060 DA61     		str	r2, [r3, #28]
 611              		.loc 1 432 0
 612 0062 FFF7FEFF 		bl	nvicEnableVector
 613 0066 D4E7     		b	.L36
 614              	.L42:
 615              		.loc 1 424 0
 616 0068 084B     		ldr	r3, .L43+16
 617              		.loc 1 425 0
 618 006a 2520     		movs	r0, #37
ARM GAS  /tmp/ccG55p3J.s 			page 12


 619              		.loc 1 424 0
 620 006c 9A69     		ldr	r2, [r3, #24]
 621              		.loc 1 425 0
 622 006e C021     		movs	r1, #192
 623              		.loc 1 424 0
 624 0070 42F48042 		orr	r2, r2, #16384
 625 0074 9A61     		str	r2, [r3, #24]
 626              		.loc 1 425 0
 627 0076 FFF7FEFF 		bl	nvicEnableVector
 628 007a CAE7     		b	.L36
 629              	.L44:
 630              		.align	2
 631              	.L43:
 632 007c 00000000 		.word	.LANCHOR2
 633 0080 001BB700 		.word	12000000
 634 0084 00000000 		.word	.LANCHOR0
 635 0088 00000000 		.word	.LANCHOR1
 636 008c 00100240 		.word	1073876992
 637              		.cfi_endproc
 638              	.LFE71:
 639              		.size	sd_lld_start, .-sd_lld_start
 640              		.section	.text.sd_lld_stop,"ax",%progbits
 641              		.align	2
 642              		.p2align 4,,15
 643              		.global	sd_lld_stop
 644              		.thumb
 645              		.thumb_func
 646              		.type	sd_lld_stop, %function
 647              	sd_lld_stop:
 648              	.LFB72:
 649              		.loc 1 477 0
 650              		.cfi_startproc
 651              		@ args = 0, pretend = 0, frame = 0
 652              		@ frame_needed = 0, uses_anonymous_args = 0
 653              		@ link register save eliminated.
 654              	.LVL54:
 655              		.loc 1 479 0
 656 0000 037B     		ldrb	r3, [r0, #12]	@ zero_extendqisi2
 657 0002 022B     		cmp	r3, #2
 658 0004 00D0     		beq	.L48
 659              	.L45:
 660 0006 7047     		bx	lr
 661              	.LVL55:
 662              	.L48:
 663              		.loc 1 482 0
 664 0008 0D49     		ldr	r1, .L50
 665              	.LVL56:
 666              		.loc 1 480 0
 667 000a 036F     		ldr	r3, [r0, #112]
 668              	.LVL57:
 669              	.LBB36:
 670              	.LBB37:
 671              		.loc 1 135 0
 672 000c 0022     		movs	r2, #0
 673              	.LBE37:
 674              	.LBE36:
 675              		.loc 1 482 0
ARM GAS  /tmp/ccG55p3J.s 			page 13


 676 000e 8842     		cmp	r0, r1
 677              	.LBB39:
 678              	.LBB38:
 679              		.loc 1 135 0
 680 0010 9A81     		strh	r2, [r3, #12]	@ movhi
 681              		.loc 1 136 0
 682 0012 1A82     		strh	r2, [r3, #16]	@ movhi
 683              		.loc 1 137 0
 684 0014 9A82     		strh	r2, [r3, #20]	@ movhi
 685              	.LBE38:
 686              	.LBE39:
 687              		.loc 1 482 0
 688 0016 0AD0     		beq	.L49
 689              		.loc 1 489 0
 690 0018 0A49     		ldr	r1, .L50+4
 691 001a 8842     		cmp	r0, r1
 692 001c F3D1     		bne	.L45
 693              		.loc 1 490 0
 694 001e 0A4B     		ldr	r3, .L50+8
 695              		.loc 1 491 0
 696 0020 2620     		movs	r0, #38
 697              	.LVL58:
 698              		.loc 1 490 0
 699 0022 D969     		ldr	r1, [r3, #28]
 700 0024 21F40032 		bic	r2, r1, #131072
 701 0028 DA61     		str	r2, [r3, #28]
 702              		.loc 1 524 0
 703              		.loc 1 491 0
 704 002a FFF7FEBF 		b	nvicDisableVector
 705              	.LVL59:
 706              	.L49:
 707              		.loc 1 483 0
 708 002e 064B     		ldr	r3, .L50+8
 709              	.LVL60:
 710              		.loc 1 484 0
 711 0030 2520     		movs	r0, #37
 712              	.LVL61:
 713              		.loc 1 483 0
 714 0032 9A69     		ldr	r2, [r3, #24]
 715 0034 22F48041 		bic	r1, r2, #16384
 716 0038 9961     		str	r1, [r3, #24]
 717              		.loc 1 524 0
 718              		.loc 1 484 0
 719 003a FFF7FEBF 		b	nvicDisableVector
 720              	.L51:
 721 003e 00BF     		.align	2
 722              	.L50:
 723 0040 00000000 		.word	.LANCHOR0
 724 0044 00000000 		.word	.LANCHOR1
 725 0048 00100240 		.word	1073876992
 726              		.cfi_endproc
 727              	.LFE72:
 728              		.size	sd_lld_stop, .-sd_lld_stop
 729              		.global	SD1
 730              		.global	SD2
 731 004c AFF30080 		.section	.rodata.default_config,"a",%progbits
 732              		.align	2
ARM GAS  /tmp/ccG55p3J.s 			page 14


 733              		.set	.LANCHOR2,. + 0
 734              		.type	default_config, %object
 735              		.size	default_config, 12
 736              	default_config:
 737 0000 80250000 		.word	9600
 738 0004 0000     		.short	0
 739 0006 0040     		.short	16384
 740 0008 0000     		.short	0
 741 000a 0000     		.space	2
 742              		.section	.bss.SD1,"aw",%nobits
 743              		.align	2
 744              		.set	.LANCHOR0,. + 0
 745              		.type	SD1, %object
 746              		.size	SD1, 116
 747              	SD1:
 748 0000 00000000 		.space	116
 748      00000000 
 748      00000000 
 748      00000000 
 748      00000000 
 749              		.section	.bss.SD2,"aw",%nobits
 750              		.align	2
 751              		.set	.LANCHOR1,. + 0
 752              		.type	SD2, %object
 753              		.size	SD2, 116
 754              	SD2:
 755 0000 00000000 		.space	116
 755      00000000 
 755      00000000 
 755      00000000 
 755      00000000 
 756              		.text
 757              	.Letext0:
 758              		.section	.debug_loc,"",%progbits
 759              	.Ldebug_loc0:
 760              	.LLST0:
 761 0000 00000000 		.4byte	.LVL0
 762 0004 06000000 		.4byte	.LVL1
 763 0008 0100     		.2byte	0x1
 764 000a 50       		.byte	0x50
 765 000b 00000000 		.4byte	0x0
 766 000f 00000000 		.4byte	0x0
 767              	.LLST1:
 768 0013 00000000 		.4byte	.LVL2
 769 0017 06000000 		.4byte	.LVL3
 770 001b 0100     		.2byte	0x1
 771 001d 50       		.byte	0x50
 772 001e 00000000 		.4byte	0x0
 773 0022 00000000 		.4byte	0x0
 774              	.LLST2:
 775 0026 00000000 		.4byte	.LFB65
 776 002a 04000000 		.4byte	.LCFI0
 777 002e 0200     		.2byte	0x2
 778 0030 7D       		.byte	0x7d
 779 0031 00       		.sleb128 0
 780 0032 04000000 		.4byte	.LCFI0
 781 0036 58010000 		.4byte	.LFE65
ARM GAS  /tmp/ccG55p3J.s 			page 15


 782 003a 0200     		.2byte	0x2
 783 003c 7D       		.byte	0x7d
 784 003d 20       		.sleb128 32
 785 003e 00000000 		.4byte	0x0
 786 0042 00000000 		.4byte	0x0
 787              	.LLST3:
 788 0046 00000000 		.4byte	.LVL4
 789 004a 1A000000 		.4byte	.LVL9
 790 004e 0100     		.2byte	0x1
 791 0050 50       		.byte	0x50
 792 0051 4B000000 		.4byte	.LVL16-1
 793 0055 58010000 		.4byte	.LFE65
 794 0059 0100     		.2byte	0x1
 795 005b 55       		.byte	0x55
 796 005c 00000000 		.4byte	0x0
 797 0060 00000000 		.4byte	0x0
 798              	.LLST4:
 799 0064 06000000 		.4byte	.LVL5
 800 0068 4B000000 		.4byte	.LVL16-1
 801 006c 0300     		.2byte	0x3
 802 006e 70       		.byte	0x70
 803 006f F000     		.sleb128 112
 804 0071 4B000000 		.4byte	.LVL16-1
 805 0075 58010000 		.4byte	.LFE65
 806 0079 0100     		.2byte	0x1
 807 007b 56       		.byte	0x56
 808 007c 00000000 		.4byte	0x0
 809 0080 00000000 		.4byte	0x0
 810              	.LLST5:
 811 0084 1A000000 		.4byte	.LVL9
 812 0088 66000000 		.4byte	.LVL18
 813 008c 0100     		.2byte	0x1
 814 008e 54       		.byte	0x54
 815 008f 00000000 		.4byte	0x0
 816 0093 00000000 		.4byte	0x0
 817              	.LLST6:
 818 0097 1A000000 		.4byte	.LVL9
 819 009b 4B000000 		.4byte	.LVL16-1
 820 009f 0100     		.2byte	0x1
 821 00a1 50       		.byte	0x50
 822 00a2 4B000000 		.4byte	.LVL16-1
 823 00a6 66000000 		.4byte	.LVL18
 824 00aa 0100     		.2byte	0x1
 825 00ac 55       		.byte	0x55
 826 00ad 00000000 		.4byte	0x0
 827 00b1 00000000 		.4byte	0x0
 828              	.LLST7:
 829 00b5 1A000000 		.4byte	.LVL9
 830 00b9 24000000 		.4byte	.LVL10
 831 00bd 0200     		.2byte	0x2
 832 00bf 30       		.byte	0x30
 833 00c0 9F       		.byte	0x9f
 834 00c1 24000000 		.4byte	.LVL10
 835 00c5 2E000000 		.4byte	.LVL11
 836 00c9 0100     		.2byte	0x1
 837 00cb 59       		.byte	0x59
 838 00cc 2E000000 		.4byte	.LVL11
ARM GAS  /tmp/ccG55p3J.s 			page 16


 839 00d0 38000000 		.4byte	.LVL12
 840 00d4 0100     		.2byte	0x1
 841 00d6 59       		.byte	0x59
 842 00d7 38000000 		.4byte	.LVL12
 843 00db 42000000 		.4byte	.LVL13
 844 00df 0100     		.2byte	0x1
 845 00e1 59       		.byte	0x59
 846 00e2 42000000 		.4byte	.LVL13
 847 00e6 66000000 		.4byte	.LVL18
 848 00ea 0100     		.2byte	0x1
 849 00ec 59       		.byte	0x59
 850 00ed 00000000 		.4byte	0x0
 851 00f1 00000000 		.4byte	0x0
 852              	.LLST8:
 853 00f5 48000000 		.4byte	.LVL15
 854 00f9 4B000000 		.4byte	.LVL16-1
 855 00fd 0100     		.2byte	0x1
 856 00ff 53       		.byte	0x53
 857 0100 00000000 		.4byte	0x0
 858 0104 00000000 		.4byte	0x0
 859              	.LLST9:
 860 0108 66000000 		.4byte	.LVL18
 861 010c 86000000 		.4byte	.LVL21
 862 0110 0100     		.2byte	0x1
 863 0112 53       		.byte	0x53
 864 0113 C0000000 		.4byte	.LVL27
 865 0117 C6000000 		.4byte	.LVL29
 866 011b 0100     		.2byte	0x1
 867 011d 53       		.byte	0x53
 868 011e E4000000 		.4byte	.LVL33
 869 0122 E6000000 		.4byte	.LVL34
 870 0126 0100     		.2byte	0x1
 871 0128 53       		.byte	0x53
 872 0129 18010000 		.4byte	.LVL40
 873 012d 1A010000 		.4byte	.LVL41
 874 0131 0100     		.2byte	0x1
 875 0133 53       		.byte	0x53
 876 0134 00000000 		.4byte	0x0
 877 0138 00000000 		.4byte	0x0
 878              	.LLST10:
 879 013c 8A000000 		.4byte	.LVL22
 880 0140 8D000000 		.4byte	.LVL23-1
 881 0144 0100     		.2byte	0x1
 882 0146 53       		.byte	0x53
 883 0147 00000000 		.4byte	0x0
 884 014b 00000000 		.4byte	0x0
 885              	.LLST11:
 886 014f A8000000 		.4byte	.LVL25
 887 0153 BC000000 		.4byte	.LVL26
 888 0157 0100     		.2byte	0x1
 889 0159 53       		.byte	0x53
 890 015a 00000000 		.4byte	0x0
 891 015e 00000000 		.4byte	0x0
 892              	.LLST12:
 893 0162 CA000000 		.4byte	.LVL30
 894 0166 CD000000 		.4byte	.LVL31-1
 895 016a 0100     		.2byte	0x1
ARM GAS  /tmp/ccG55p3J.s 			page 17


 896 016c 53       		.byte	0x53
 897 016d 00000000 		.4byte	0x0
 898 0171 00000000 		.4byte	0x0
 899              	.LLST13:
 900 0175 72000000 		.4byte	.LVL19
 901 0179 86000000 		.4byte	.LVL21
 902 017d 0100     		.2byte	0x1
 903 017f 53       		.byte	0x53
 904 0180 C0000000 		.4byte	.LVL27
 905 0184 C4000000 		.4byte	.LVL28
 906 0188 0100     		.2byte	0x1
 907 018a 53       		.byte	0x53
 908 018b E2000000 		.4byte	.LVL32
 909 018f E4000000 		.4byte	.LVL33
 910 0193 0100     		.2byte	0x1
 911 0195 53       		.byte	0x53
 912 0196 18010000 		.4byte	.LVL40
 913 019a 1A010000 		.4byte	.LVL41
 914 019e 0100     		.2byte	0x1
 915 01a0 53       		.byte	0x53
 916 01a1 00000000 		.4byte	0x0
 917 01a5 00000000 		.4byte	0x0
 918              	.LLST14:
 919 01a9 EA000000 		.4byte	.LVL35
 920 01ad ED000000 		.4byte	.LVL36-1
 921 01b1 0100     		.2byte	0x1
 922 01b3 53       		.byte	0x53
 923 01b4 00000000 		.4byte	0x0
 924 01b8 00000000 		.4byte	0x0
 925              	.LLST15:
 926 01bc 08010000 		.4byte	.LVL38
 927 01c0 10010000 		.4byte	.LVL39
 928 01c4 0100     		.2byte	0x1
 929 01c6 53       		.byte	0x53
 930 01c7 00000000 		.4byte	0x0
 931 01cb 00000000 		.4byte	0x0
 932              	.LLST16:
 933 01cf 2A010000 		.4byte	.LVL44
 934 01d3 30010000 		.4byte	.LVL45
 935 01d7 0100     		.2byte	0x1
 936 01d9 50       		.byte	0x50
 937 01da 3C010000 		.4byte	.LVL47
 938 01de 40010000 		.4byte	.LVL48
 939 01e2 0100     		.2byte	0x1
 940 01e4 50       		.byte	0x50
 941 01e5 00000000 		.4byte	0x0
 942 01e9 00000000 		.4byte	0x0
 943              	.LLST17:
 944 01ed 1E010000 		.4byte	.LVL42
 945 01f1 21010000 		.4byte	.LVL43-1
 946 01f5 0100     		.2byte	0x1
 947 01f7 53       		.byte	0x53
 948 01f8 00000000 		.4byte	0x0
 949 01fc 00000000 		.4byte	0x0
 950              	.LLST18:
 951 0200 7E000000 		.4byte	.LVL20
 952 0204 86000000 		.4byte	.LVL21
ARM GAS  /tmp/ccG55p3J.s 			page 18


 953 0208 0100     		.2byte	0x1
 954 020a 53       		.byte	0x53
 955 020b C0000000 		.4byte	.LVL27
 956 020f C4000000 		.4byte	.LVL28
 957 0213 0100     		.2byte	0x1
 958 0215 53       		.byte	0x53
 959 0216 3A010000 		.4byte	.LVL46
 960 021a 3C010000 		.4byte	.LVL47
 961 021e 0100     		.2byte	0x1
 962 0220 53       		.byte	0x53
 963 0221 00000000 		.4byte	0x0
 964 0225 00000000 		.4byte	0x0
 965              	.LLST19:
 966 0229 00000000 		.4byte	.LFB68
 967 022d 02000000 		.4byte	.LCFI1
 968 0231 0200     		.2byte	0x2
 969 0233 7D       		.byte	0x7d
 970 0234 00       		.sleb128 0
 971 0235 02000000 		.4byte	.LCFI1
 972 0239 1C000000 		.4byte	.LFE68
 973 023d 0200     		.2byte	0x2
 974 023f 7D       		.byte	0x7d
 975 0240 08       		.sleb128 8
 976 0241 00000000 		.4byte	0x0
 977 0245 00000000 		.4byte	0x0
 978              	.LLST20:
 979 0249 00000000 		.4byte	.LFB69
 980 024d 02000000 		.4byte	.LCFI2
 981 0251 0200     		.2byte	0x2
 982 0253 7D       		.byte	0x7d
 983 0254 00       		.sleb128 0
 984 0255 02000000 		.4byte	.LCFI2
 985 0259 1C000000 		.4byte	.LFE69
 986 025d 0200     		.2byte	0x2
 987 025f 7D       		.byte	0x7d
 988 0260 08       		.sleb128 8
 989 0261 00000000 		.4byte	0x0
 990 0265 00000000 		.4byte	0x0
 991              	.LLST21:
 992 0269 00000000 		.4byte	.LFB70
 993 026d 02000000 		.4byte	.LCFI3
 994 0271 0200     		.2byte	0x2
 995 0273 7D       		.byte	0x7d
 996 0274 00       		.sleb128 0
 997 0275 02000000 		.4byte	.LCFI3
 998 0279 3C000000 		.4byte	.LFE70
 999 027d 0200     		.2byte	0x2
 1000 027f 7D       		.byte	0x7d
 1001 0280 10       		.sleb128 16
 1002 0281 00000000 		.4byte	0x0
 1003 0285 00000000 		.4byte	0x0
 1004              	.LLST22:
 1005 0289 00000000 		.4byte	.LFB71
 1006 028d 02000000 		.4byte	.LCFI4
 1007 0291 0200     		.2byte	0x2
 1008 0293 7D       		.byte	0x7d
 1009 0294 00       		.sleb128 0
ARM GAS  /tmp/ccG55p3J.s 			page 19


 1010 0295 02000000 		.4byte	.LCFI4
 1011 0299 90000000 		.4byte	.LFE71
 1012 029d 0200     		.2byte	0x2
 1013 029f 7D       		.byte	0x7d
 1014 02a0 10       		.sleb128 16
 1015 02a1 00000000 		.4byte	0x0
 1016 02a5 00000000 		.4byte	0x0
 1017              	.LLST23:
 1018 02a9 00000000 		.4byte	.LVL49
 1019 02ad 12000000 		.4byte	.LVL51
 1020 02b1 0100     		.2byte	0x1
 1021 02b3 50       		.byte	0x50
 1022 02b4 12000000 		.4byte	.LVL51
 1023 02b8 90000000 		.4byte	.LFE71
 1024 02bc 0100     		.2byte	0x1
 1025 02be 55       		.byte	0x55
 1026 02bf 00000000 		.4byte	0x0
 1027 02c3 00000000 		.4byte	0x0
 1028              	.LLST24:
 1029 02c7 00000000 		.4byte	.LVL49
 1030 02cb 0E000000 		.4byte	.LVL50
 1031 02cf 0100     		.2byte	0x1
 1032 02d1 51       		.byte	0x51
 1033 02d2 00000000 		.4byte	0x0
 1034 02d6 00000000 		.4byte	0x0
 1035              	.LLST25:
 1036 02da 18000000 		.4byte	.LVL52
 1037 02de 48000000 		.4byte	.LVL53
 1038 02e2 0300     		.2byte	0x3
 1039 02e4 75       		.byte	0x75
 1040 02e5 F000     		.sleb128 112
 1041 02e7 00000000 		.4byte	0x0
 1042 02eb 00000000 		.4byte	0x0
 1043              	.LLST26:
 1044 02ef 00000000 		.4byte	.LVL54
 1045 02f3 08000000 		.4byte	.LVL55
 1046 02f7 0100     		.2byte	0x1
 1047 02f9 50       		.byte	0x50
 1048 02fa 0A000000 		.4byte	.LVL56
 1049 02fe 22000000 		.4byte	.LVL58
 1050 0302 0100     		.2byte	0x1
 1051 0304 50       		.byte	0x50
 1052 0305 2E000000 		.4byte	.LVL59
 1053 0309 32000000 		.4byte	.LVL61
 1054 030d 0100     		.2byte	0x1
 1055 030f 50       		.byte	0x50
 1056 0310 00000000 		.4byte	0x0
 1057 0314 00000000 		.4byte	0x0
 1058              	.LLST27:
 1059 0318 0C000000 		.4byte	.LVL57
 1060 031c 22000000 		.4byte	.LVL58
 1061 0320 0300     		.2byte	0x3
 1062 0322 70       		.byte	0x70
 1063 0323 F000     		.sleb128 112
 1064 0325 2E000000 		.4byte	.LVL59
 1065 0329 30000000 		.4byte	.LVL60
 1066 032d 0100     		.2byte	0x1
ARM GAS  /tmp/ccG55p3J.s 			page 20


 1067 032f 53       		.byte	0x53
 1068 0330 30000000 		.4byte	.LVL60
 1069 0334 32000000 		.4byte	.LVL61
 1070 0338 0300     		.2byte	0x3
 1071 033a 70       		.byte	0x70
 1072 033b F000     		.sleb128 112
 1073 033d 00000000 		.4byte	0x0
 1074 0341 00000000 		.4byte	0x0
 1075              		.file 2 "/home/z80/programs/code-sourcery/2011.03-42/bin/../lib/gcc/arm-none-eabi/4.5.2/include/st
 1076              		.file 3 "/home/z80/programs/code-sourcery/2011.03-42/bin/../lib/gcc/arm-none-eabi/4.5.2/../../../.
 1077              		.file 4 "../chibios_2.4.x/os/ports/GCC/ARMCMx/chtypes.h"
 1078              		.file 5 "../chibios_2.4.x/os/kernel/include/chlists.h"
 1079              		.file 6 "../chibios_2.4.x/os/kernel/include/chthreads.h"
 1080              		.file 7 "../chibios_2.4.x/os/ports/GCC/ARMCMx/chcore_v7m.h"
 1081              		.file 8 "../chibios_2.4.x/os/kernel/include/chmtx.h"
 1082              		.file 9 "../chibios_2.4.x/os/kernel/include/chevents.h"
 1083              		.file 10 "../chibios_2.4.x/os/kernel/include/chqueues.h"
 1084              		.file 11 "../chibios_2.4.x/os/kernel/include/chioch.h"
 1085              		.file 12 "../chibios_2.4.x/os/hal/platforms/STM32F1xx/stm32f10x.h"
 1086              		.file 13 "../chibios_2.4.x/os/hal/include/serial.h"
 1087              		.file 14 "../chibios_2.4.x/os/hal/platforms/STM32/serial_lld.h"
 1088              		.file 15 "../chibios_2.4.x/os/ports/common/ARMCMx/CMSIS/include/core_cm3.h"
 1089              		.section	.debug_info
 1090 0000 900E0000 		.4byte	0xe90
 1091 0004 0200     		.2byte	0x2
 1092 0006 00000000 		.4byte	.Ldebug_abbrev0
 1093 000a 04       		.byte	0x4
 1094 000b 01       		.uleb128 0x1
 1095 000c 2E010000 		.4byte	.LASF180
 1096 0010 01       		.byte	0x1
 1097 0011 1C050000 		.4byte	.LASF181
 1098 0015 01070000 		.4byte	.LASF182
 1099 0019 00000000 		.4byte	0x0
 1100 001d 00000000 		.4byte	0x0
 1101 0021 48000000 		.4byte	.Ldebug_ranges0+0x48
 1102 0025 00000000 		.4byte	.Ldebug_line0
 1103 0029 02       		.uleb128 0x2
 1104 002a 04       		.byte	0x4
 1105 002b 05       		.byte	0x5
 1106 002c 696E7400 		.ascii	"int\000"
 1107 0030 03       		.uleb128 0x3
 1108 0031 12000000 		.4byte	.LASF2
 1109 0035 02       		.byte	0x2
 1110 0036 D3       		.byte	0xd3
 1111 0037 3B000000 		.4byte	0x3b
 1112 003b 04       		.uleb128 0x4
 1113 003c 04       		.byte	0x4
 1114 003d 07       		.byte	0x7
 1115 003e 1D020000 		.4byte	.LASF0
 1116 0042 04       		.uleb128 0x4
 1117 0043 01       		.byte	0x1
 1118 0044 06       		.byte	0x6
 1119 0045 05010000 		.4byte	.LASF1
 1120 0049 03       		.uleb128 0x3
 1121 004a 47070000 		.4byte	.LASF3
 1122 004e 03       		.byte	0x3
 1123 004f 2A       		.byte	0x2a
ARM GAS  /tmp/ccG55p3J.s 			page 21


 1124 0050 54000000 		.4byte	0x54
 1125 0054 04       		.uleb128 0x4
 1126 0055 01       		.byte	0x1
 1127 0056 08       		.byte	0x8
 1128 0057 B1040000 		.4byte	.LASF4
 1129 005b 04       		.uleb128 0x4
 1130 005c 02       		.byte	0x2
 1131 005d 05       		.byte	0x5
 1132 005e 0A050000 		.4byte	.LASF5
 1133 0062 03       		.uleb128 0x3
 1134 0063 2A020000 		.4byte	.LASF6
 1135 0067 03       		.byte	0x3
 1136 0068 36       		.byte	0x36
 1137 0069 6D000000 		.4byte	0x6d
 1138 006d 04       		.uleb128 0x4
 1139 006e 02       		.byte	0x2
 1140 006f 07       		.byte	0x7
 1141 0070 97020000 		.4byte	.LASF7
 1142 0074 03       		.uleb128 0x3
 1143 0075 A9040000 		.4byte	.LASF8
 1144 0079 03       		.byte	0x3
 1145 007a 4F       		.byte	0x4f
 1146 007b 7F000000 		.4byte	0x7f
 1147 007f 04       		.uleb128 0x4
 1148 0080 04       		.byte	0x4
 1149 0081 05       		.byte	0x5
 1150 0082 5B010000 		.4byte	.LASF9
 1151 0086 03       		.uleb128 0x3
 1152 0087 BC050000 		.4byte	.LASF10
 1153 008b 03       		.byte	0x3
 1154 008c 50       		.byte	0x50
 1155 008d 91000000 		.4byte	0x91
 1156 0091 04       		.uleb128 0x4
 1157 0092 04       		.byte	0x4
 1158 0093 07       		.byte	0x7
 1159 0094 EE050000 		.4byte	.LASF11
 1160 0098 04       		.uleb128 0x4
 1161 0099 08       		.byte	0x8
 1162 009a 05       		.byte	0x5
 1163 009b F7000000 		.4byte	.LASF12
 1164 009f 03       		.uleb128 0x3
 1165 00a0 20000000 		.4byte	.LASF13
 1166 00a4 03       		.byte	0x3
 1167 00a5 78       		.byte	0x78
 1168 00a6 AA000000 		.4byte	0xaa
 1169 00aa 04       		.uleb128 0x4
 1170 00ab 08       		.byte	0x8
 1171 00ac 07       		.byte	0x7
 1172 00ad 77000000 		.4byte	.LASF14
 1173 00b1 03       		.uleb128 0x3
 1174 00b2 69000000 		.4byte	.LASF15
 1175 00b6 03       		.byte	0x3
 1176 00b7 A6       		.byte	0xa6
 1177 00b8 3B000000 		.4byte	0x3b
 1178 00bc 03       		.uleb128 0x3
 1179 00bd D9000000 		.4byte	.LASF16
 1180 00c1 04       		.byte	0x4
ARM GAS  /tmp/ccG55p3J.s 			page 22


 1181 00c2 2E       		.byte	0x2e
 1182 00c3 74000000 		.4byte	0x74
 1183 00c7 03       		.uleb128 0x3
 1184 00c8 F7020000 		.4byte	.LASF17
 1185 00cc 04       		.byte	0x4
 1186 00cd 2F       		.byte	0x2f
 1187 00ce 49000000 		.4byte	0x49
 1188 00d2 03       		.uleb128 0x3
 1189 00d3 79010000 		.4byte	.LASF18
 1190 00d7 04       		.byte	0x4
 1191 00d8 30       		.byte	0x30
 1192 00d9 49000000 		.4byte	0x49
 1193 00dd 03       		.uleb128 0x3
 1194 00de 7B040000 		.4byte	.LASF19
 1195 00e2 04       		.byte	0x4
 1196 00e3 32       		.byte	0x32
 1197 00e4 86000000 		.4byte	0x86
 1198 00e8 03       		.uleb128 0x3
 1199 00e9 BC020000 		.4byte	.LASF20
 1200 00ed 04       		.byte	0x4
 1201 00ee 33       		.byte	0x33
 1202 00ef 74000000 		.4byte	0x74
 1203 00f3 03       		.uleb128 0x3
 1204 00f4 0B030000 		.4byte	.LASF21
 1205 00f8 04       		.byte	0x4
 1206 00f9 35       		.byte	0x35
 1207 00fa 86000000 		.4byte	0x86
 1208 00fe 03       		.uleb128 0x3
 1209 00ff 42060000 		.4byte	.LASF22
 1210 0103 04       		.byte	0x4
 1211 0104 36       		.byte	0x36
 1212 0105 86000000 		.4byte	0x86
 1213 0109 03       		.uleb128 0x3
 1214 010a 7B050000 		.4byte	.LASF23
 1215 010e 05       		.byte	0x5
 1216 010f 2A       		.byte	0x2a
 1217 0110 14010000 		.4byte	0x114
 1218 0114 05       		.uleb128 0x5
 1219 0115 7B050000 		.4byte	.LASF23
 1220 0119 48       		.byte	0x48
 1221 011a 06       		.byte	0x6
 1222 011b 5E       		.byte	0x5e
 1223 011c 1D020000 		.4byte	0x21d
 1224 0120 06       		.uleb128 0x6
 1225 0121 A8030000 		.4byte	.LASF24
 1226 0125 06       		.byte	0x6
 1227 0126 5F       		.byte	0x5f
 1228 0127 42020000 		.4byte	0x242
 1229 012b 02       		.byte	0x2
 1230 012c 23       		.byte	0x23
 1231 012d 00       		.uleb128 0x0
 1232 012e 06       		.uleb128 0x6
 1233 012f 6A040000 		.4byte	.LASF25
 1234 0133 06       		.byte	0x6
 1235 0134 61       		.byte	0x61
 1236 0135 42020000 		.4byte	0x242
 1237 0139 02       		.byte	0x2
ARM GAS  /tmp/ccG55p3J.s 			page 23


 1238 013a 23       		.byte	0x23
 1239 013b 04       		.uleb128 0x4
 1240 013c 06       		.uleb128 0x6
 1241 013d E0000000 		.4byte	.LASF26
 1242 0141 06       		.byte	0x6
 1243 0142 63       		.byte	0x63
 1244 0143 DD000000 		.4byte	0xdd
 1245 0147 02       		.byte	0x2
 1246 0148 23       		.byte	0x23
 1247 0149 08       		.uleb128 0x8
 1248 014a 06       		.uleb128 0x6
 1249 014b E6070000 		.4byte	.LASF27
 1250 014f 06       		.byte	0x6
 1251 0150 64       		.byte	0x64
 1252 0151 1A030000 		.4byte	0x31a
 1253 0155 02       		.byte	0x2
 1254 0156 23       		.byte	0x23
 1255 0157 0C       		.uleb128 0xc
 1256 0158 06       		.uleb128 0x6
 1257 0159 BF010000 		.4byte	.LASF28
 1258 015d 06       		.byte	0x6
 1259 015e 66       		.byte	0x66
 1260 015f 42020000 		.4byte	0x242
 1261 0163 02       		.byte	0x2
 1262 0164 23       		.byte	0x23
 1263 0165 10       		.uleb128 0x10
 1264 0166 06       		.uleb128 0x6
 1265 0167 14050000 		.4byte	.LASF29
 1266 016b 06       		.byte	0x6
 1267 016c 67       		.byte	0x67
 1268 016d 42020000 		.4byte	0x242
 1269 0171 02       		.byte	0x2
 1270 0172 23       		.byte	0x23
 1271 0173 14       		.uleb128 0x14
 1272 0174 06       		.uleb128 0x6
 1273 0175 73060000 		.4byte	.LASF30
 1274 0179 06       		.byte	0x6
 1275 017a 6E       		.byte	0x6e
 1276 017b 32040000 		.4byte	0x432
 1277 017f 02       		.byte	0x2
 1278 0180 23       		.byte	0x23
 1279 0181 18       		.uleb128 0x18
 1280 0182 06       		.uleb128 0x6
 1281 0183 DB030000 		.4byte	.LASF31
 1282 0187 06       		.byte	0x6
 1283 0188 74       		.byte	0x74
 1284 0189 44040000 		.4byte	0x444
 1285 018d 02       		.byte	0x2
 1286 018e 23       		.byte	0x23
 1287 018f 1C       		.uleb128 0x1c
 1288 0190 06       		.uleb128 0x6
 1289 0191 16010000 		.4byte	.LASF32
 1290 0195 06       		.byte	0x6
 1291 0196 79       		.byte	0x79
 1292 0197 D2000000 		.4byte	0xd2
 1293 019b 02       		.byte	0x2
 1294 019c 23       		.byte	0x23
ARM GAS  /tmp/ccG55p3J.s 			page 24


 1295 019d 20       		.uleb128 0x20
 1296 019e 06       		.uleb128 0x6
 1297 019f 58050000 		.4byte	.LASF33
 1298 01a3 06       		.byte	0x6
 1299 01a4 7D       		.byte	0x7d
 1300 01a5 C7000000 		.4byte	0xc7
 1301 01a9 02       		.byte	0x2
 1302 01aa 23       		.byte	0x23
 1303 01ab 21       		.uleb128 0x21
 1304 01ac 06       		.uleb128 0x6
 1305 01ad 43020000 		.4byte	.LASF34
 1306 01b1 06       		.byte	0x6
 1307 01b2 89       		.byte	0x89
 1308 01b3 42030000 		.4byte	0x342
 1309 01b7 02       		.byte	0x2
 1310 01b8 23       		.byte	0x23
 1311 01b9 24       		.uleb128 0x24
 1312 01ba 07       		.uleb128 0x7
 1313 01bb 705F7500 		.ascii	"p_u\000"
 1314 01bf 06       		.byte	0x6
 1315 01c0 AE       		.byte	0xae
 1316 01c1 FD030000 		.4byte	0x3fd
 1317 01c5 02       		.byte	0x2
 1318 01c6 23       		.byte	0x23
 1319 01c7 28       		.uleb128 0x28
 1320 01c8 06       		.uleb128 0x6
 1321 01c9 EC070000 		.4byte	.LASF35
 1322 01cd 06       		.byte	0x6
 1323 01ce B3       		.byte	0xb3
 1324 01cf 6A020000 		.4byte	0x26a
 1325 01d3 02       		.byte	0x2
 1326 01d4 23       		.byte	0x23
 1327 01d5 2C       		.uleb128 0x2c
 1328 01d6 06       		.uleb128 0x6
 1329 01d7 67020000 		.4byte	.LASF36
 1330 01db 06       		.byte	0x6
 1331 01dc B9       		.byte	0xb9
 1332 01dd 48020000 		.4byte	0x248
 1333 01e1 02       		.byte	0x2
 1334 01e2 23       		.byte	0x23
 1335 01e3 30       		.uleb128 0x30
 1336 01e4 06       		.uleb128 0x6
 1337 01e5 41070000 		.4byte	.LASF37
 1338 01e9 06       		.byte	0x6
 1339 01ea BD       		.byte	0xbd
 1340 01eb E8000000 		.4byte	0xe8
 1341 01ef 02       		.byte	0x2
 1342 01f0 23       		.byte	0x23
 1343 01f1 38       		.uleb128 0x38
 1344 01f2 06       		.uleb128 0x6
 1345 01f3 9D050000 		.4byte	.LASF38
 1346 01f7 06       		.byte	0x6
 1347 01f8 C3       		.byte	0xc3
 1348 01f9 F3000000 		.4byte	0xf3
 1349 01fd 02       		.byte	0x2
 1350 01fe 23       		.byte	0x23
 1351 01ff 3C       		.uleb128 0x3c
ARM GAS  /tmp/ccG55p3J.s 			page 25


 1352 0200 06       		.uleb128 0x6
 1353 0201 00050000 		.4byte	.LASF39
 1354 0205 06       		.byte	0x6
 1355 0206 CA       		.byte	0xca
 1356 0207 4A040000 		.4byte	0x44a
 1357 020b 02       		.byte	0x2
 1358 020c 23       		.byte	0x23
 1359 020d 40       		.uleb128 0x40
 1360 020e 06       		.uleb128 0x6
 1361 020f E0010000 		.4byte	.LASF40
 1362 0213 06       		.byte	0x6
 1363 0214 CE       		.byte	0xce
 1364 0215 DD000000 		.4byte	0xdd
 1365 0219 02       		.byte	0x2
 1366 021a 23       		.byte	0x23
 1367 021b 44       		.uleb128 0x44
 1368 021c 00       		.byte	0x0
 1369 021d 08       		.uleb128 0x8
 1370 021e 08       		.byte	0x8
 1371 021f 05       		.byte	0x5
 1372 0220 61       		.byte	0x61
 1373 0221 42020000 		.4byte	0x242
 1374 0225 06       		.uleb128 0x6
 1375 0226 A8030000 		.4byte	.LASF24
 1376 022a 05       		.byte	0x5
 1377 022b 62       		.byte	0x62
 1378 022c 42020000 		.4byte	0x242
 1379 0230 02       		.byte	0x2
 1380 0231 23       		.byte	0x23
 1381 0232 00       		.uleb128 0x0
 1382 0233 06       		.uleb128 0x6
 1383 0234 6A040000 		.4byte	.LASF25
 1384 0238 05       		.byte	0x5
 1385 0239 64       		.byte	0x64
 1386 023a 42020000 		.4byte	0x242
 1387 023e 02       		.byte	0x2
 1388 023f 23       		.byte	0x23
 1389 0240 04       		.uleb128 0x4
 1390 0241 00       		.byte	0x0
 1391 0242 09       		.uleb128 0x9
 1392 0243 04       		.byte	0x4
 1393 0244 09010000 		.4byte	0x109
 1394 0248 03       		.uleb128 0x3
 1395 0249 CE030000 		.4byte	.LASF41
 1396 024d 05       		.byte	0x5
 1397 024e 66       		.byte	0x66
 1398 024f 1D020000 		.4byte	0x21d
 1399 0253 08       		.uleb128 0x8
 1400 0254 04       		.byte	0x4
 1401 0255 05       		.byte	0x5
 1402 0256 6B       		.byte	0x6b
 1403 0257 6A020000 		.4byte	0x26a
 1404 025b 06       		.uleb128 0x6
 1405 025c A8030000 		.4byte	.LASF24
 1406 0260 05       		.byte	0x5
 1407 0261 6D       		.byte	0x6d
 1408 0262 42020000 		.4byte	0x242
ARM GAS  /tmp/ccG55p3J.s 			page 26


 1409 0266 02       		.byte	0x2
 1410 0267 23       		.byte	0x23
 1411 0268 00       		.uleb128 0x0
 1412 0269 00       		.byte	0x0
 1413 026a 03       		.uleb128 0x3
 1414 026b FF020000 		.4byte	.LASF42
 1415 026f 05       		.byte	0x5
 1416 0270 70       		.byte	0x70
 1417 0271 53020000 		.4byte	0x253
 1418 0275 03       		.uleb128 0x3
 1419 0276 EB010000 		.4byte	.LASF43
 1420 027a 07       		.byte	0x7
 1421 027b D7       		.byte	0xd7
 1422 027c 80020000 		.4byte	0x280
 1423 0280 0A       		.uleb128 0xa
 1424 0281 04       		.byte	0x4
 1425 0282 03       		.uleb128 0x3
 1426 0283 56030000 		.4byte	.LASF44
 1427 0287 07       		.byte	0x7
 1428 0288 DD       		.byte	0xdd
 1429 0289 9F000000 		.4byte	0x9f
 1430 028d 05       		.uleb128 0x5
 1431 028e 9F060000 		.4byte	.LASF45
 1432 0292 24       		.byte	0x24
 1433 0293 07       		.byte	0x7
 1434 0294 FE       		.byte	0xfe
 1435 0295 1A030000 		.4byte	0x31a
 1436 0299 0B       		.uleb128 0xb
 1437 029a 723400   		.ascii	"r4\000"
 1438 029d 07       		.byte	0x7
 1439 029e 1101     		.2byte	0x111
 1440 02a0 75020000 		.4byte	0x275
 1441 02a4 02       		.byte	0x2
 1442 02a5 23       		.byte	0x23
 1443 02a6 00       		.uleb128 0x0
 1444 02a7 0B       		.uleb128 0xb
 1445 02a8 723500   		.ascii	"r5\000"
 1446 02ab 07       		.byte	0x7
 1447 02ac 1201     		.2byte	0x112
 1448 02ae 75020000 		.4byte	0x275
 1449 02b2 02       		.byte	0x2
 1450 02b3 23       		.byte	0x23
 1451 02b4 04       		.uleb128 0x4
 1452 02b5 0B       		.uleb128 0xb
 1453 02b6 723600   		.ascii	"r6\000"
 1454 02b9 07       		.byte	0x7
 1455 02ba 1301     		.2byte	0x113
 1456 02bc 75020000 		.4byte	0x275
 1457 02c0 02       		.byte	0x2
 1458 02c1 23       		.byte	0x23
 1459 02c2 08       		.uleb128 0x8
 1460 02c3 0B       		.uleb128 0xb
 1461 02c4 723700   		.ascii	"r7\000"
 1462 02c7 07       		.byte	0x7
 1463 02c8 1401     		.2byte	0x114
 1464 02ca 75020000 		.4byte	0x275
 1465 02ce 02       		.byte	0x2
ARM GAS  /tmp/ccG55p3J.s 			page 27


 1466 02cf 23       		.byte	0x23
 1467 02d0 0C       		.uleb128 0xc
 1468 02d1 0B       		.uleb128 0xb
 1469 02d2 723800   		.ascii	"r8\000"
 1470 02d5 07       		.byte	0x7
 1471 02d6 1501     		.2byte	0x115
 1472 02d8 75020000 		.4byte	0x275
 1473 02dc 02       		.byte	0x2
 1474 02dd 23       		.byte	0x23
 1475 02de 10       		.uleb128 0x10
 1476 02df 0B       		.uleb128 0xb
 1477 02e0 723900   		.ascii	"r9\000"
 1478 02e3 07       		.byte	0x7
 1479 02e4 1601     		.2byte	0x116
 1480 02e6 75020000 		.4byte	0x275
 1481 02ea 02       		.byte	0x2
 1482 02eb 23       		.byte	0x23
 1483 02ec 14       		.uleb128 0x14
 1484 02ed 0B       		.uleb128 0xb
 1485 02ee 72313000 		.ascii	"r10\000"
 1486 02f2 07       		.byte	0x7
 1487 02f3 1701     		.2byte	0x117
 1488 02f5 75020000 		.4byte	0x275
 1489 02f9 02       		.byte	0x2
 1490 02fa 23       		.byte	0x23
 1491 02fb 18       		.uleb128 0x18
 1492 02fc 0B       		.uleb128 0xb
 1493 02fd 72313100 		.ascii	"r11\000"
 1494 0301 07       		.byte	0x7
 1495 0302 1801     		.2byte	0x118
 1496 0304 75020000 		.4byte	0x275
 1497 0308 02       		.byte	0x2
 1498 0309 23       		.byte	0x23
 1499 030a 1C       		.uleb128 0x1c
 1500 030b 0B       		.uleb128 0xb
 1501 030c 6C7200   		.ascii	"lr\000"
 1502 030f 07       		.byte	0x7
 1503 0310 1901     		.2byte	0x119
 1504 0312 75020000 		.4byte	0x275
 1505 0316 02       		.byte	0x2
 1506 0317 23       		.byte	0x23
 1507 0318 20       		.uleb128 0x20
 1508 0319 00       		.byte	0x0
 1509 031a 0C       		.uleb128 0xc
 1510 031b 97060000 		.4byte	.LASF46
 1511 031f 04       		.byte	0x4
 1512 0320 07       		.byte	0x7
 1513 0321 2301     		.2byte	0x123
 1514 0323 37030000 		.4byte	0x337
 1515 0327 0B       		.uleb128 0xb
 1516 0328 72313300 		.ascii	"r13\000"
 1517 032c 07       		.byte	0x7
 1518 032d 2401     		.2byte	0x124
 1519 032f 37030000 		.4byte	0x337
 1520 0333 02       		.byte	0x2
 1521 0334 23       		.byte	0x23
 1522 0335 00       		.uleb128 0x0
ARM GAS  /tmp/ccG55p3J.s 			page 28


 1523 0336 00       		.byte	0x0
 1524 0337 09       		.uleb128 0x9
 1525 0338 04       		.byte	0x4
 1526 0339 8D020000 		.4byte	0x28d
 1527 033d 0D       		.uleb128 0xd
 1528 033e 86000000 		.4byte	0x86
 1529 0342 0D       		.uleb128 0xd
 1530 0343 FE000000 		.4byte	0xfe
 1531 0347 05       		.uleb128 0x5
 1532 0348 A2030000 		.4byte	.LASF47
 1533 034c 10       		.byte	0x10
 1534 034d 08       		.byte	0x8
 1535 034e 2C       		.byte	0x2c
 1536 034f 7E030000 		.4byte	0x37e
 1537 0353 06       		.uleb128 0x6
 1538 0354 26010000 		.4byte	.LASF48
 1539 0358 08       		.byte	0x8
 1540 0359 2D       		.byte	0x2d
 1541 035a 48020000 		.4byte	0x248
 1542 035e 02       		.byte	0x2
 1543 035f 23       		.byte	0x23
 1544 0360 00       		.uleb128 0x0
 1545 0361 06       		.uleb128 0x6
 1546 0362 D5070000 		.4byte	.LASF49
 1547 0366 08       		.byte	0x8
 1548 0367 2F       		.byte	0x2f
 1549 0368 42020000 		.4byte	0x242
 1550 036c 02       		.byte	0x2
 1551 036d 23       		.byte	0x23
 1552 036e 08       		.uleb128 0x8
 1553 036f 06       		.uleb128 0x6
 1554 0370 3B060000 		.4byte	.LASF50
 1555 0374 08       		.byte	0x8
 1556 0375 31       		.byte	0x31
 1557 0376 7E030000 		.4byte	0x37e
 1558 037a 02       		.byte	0x2
 1559 037b 23       		.byte	0x23
 1560 037c 0C       		.uleb128 0xc
 1561 037d 00       		.byte	0x0
 1562 037e 09       		.uleb128 0x9
 1563 037f 04       		.byte	0x4
 1564 0380 47030000 		.4byte	0x347
 1565 0384 03       		.uleb128 0x3
 1566 0385 A2030000 		.4byte	.LASF47
 1567 0389 08       		.byte	0x8
 1568 038a 33       		.byte	0x33
 1569 038b 47030000 		.4byte	0x347
 1570 038f 03       		.uleb128 0x3
 1571 0390 60070000 		.4byte	.LASF51
 1572 0394 09       		.byte	0x9
 1573 0395 29       		.byte	0x29
 1574 0396 9A030000 		.4byte	0x39a
 1575 039a 05       		.uleb128 0x5
 1576 039b 60070000 		.4byte	.LASF51
 1577 039f 0C       		.byte	0xc
 1578 03a0 09       		.byte	0x9
 1579 03a1 2E       		.byte	0x2e
ARM GAS  /tmp/ccG55p3J.s 			page 29


 1580 03a2 D1030000 		.4byte	0x3d1
 1581 03a6 06       		.uleb128 0x6
 1582 03a7 60050000 		.4byte	.LASF52
 1583 03ab 09       		.byte	0x9
 1584 03ac 2F       		.byte	0x2f
 1585 03ad D1030000 		.4byte	0x3d1
 1586 03b1 02       		.byte	0x2
 1587 03b2 23       		.byte	0x23
 1588 03b3 00       		.uleb128 0x0
 1589 03b4 06       		.uleb128 0x6
 1590 03b5 6D010000 		.4byte	.LASF53
 1591 03b9 09       		.byte	0x9
 1592 03ba 32       		.byte	0x32
 1593 03bb 42020000 		.4byte	0x242
 1594 03bf 02       		.byte	0x2
 1595 03c0 23       		.byte	0x23
 1596 03c1 04       		.uleb128 0x4
 1597 03c2 06       		.uleb128 0x6
 1598 03c3 00040000 		.4byte	.LASF54
 1599 03c7 09       		.byte	0x9
 1600 03c8 34       		.byte	0x34
 1601 03c9 F3000000 		.4byte	0xf3
 1602 03cd 02       		.byte	0x2
 1603 03ce 23       		.byte	0x23
 1604 03cf 08       		.uleb128 0x8
 1605 03d0 00       		.byte	0x0
 1606 03d1 09       		.uleb128 0x9
 1607 03d2 04       		.byte	0x4
 1608 03d3 8F030000 		.4byte	0x38f
 1609 03d7 05       		.uleb128 0x5
 1610 03d8 0B020000 		.4byte	.LASF55
 1611 03dc 04       		.byte	0x4
 1612 03dd 09       		.byte	0x9
 1613 03de 3C       		.byte	0x3c
 1614 03df F2030000 		.4byte	0x3f2
 1615 03e3 06       		.uleb128 0x6
 1616 03e4 ED060000 		.4byte	.LASF56
 1617 03e8 09       		.byte	0x9
 1618 03e9 3D       		.byte	0x3d
 1619 03ea D1030000 		.4byte	0x3d1
 1620 03ee 02       		.byte	0x2
 1621 03ef 23       		.byte	0x23
 1622 03f0 00       		.uleb128 0x0
 1623 03f1 00       		.byte	0x0
 1624 03f2 03       		.uleb128 0x3
 1625 03f3 0B020000 		.4byte	.LASF55
 1626 03f7 09       		.byte	0x9
 1627 03f8 40       		.byte	0x40
 1628 03f9 D7030000 		.4byte	0x3d7
 1629 03fd 0E       		.uleb128 0xe
 1630 03fe 04       		.byte	0x4
 1631 03ff 06       		.byte	0x6
 1632 0400 90       		.byte	0x90
 1633 0401 32040000 		.4byte	0x432
 1634 0405 0F       		.uleb128 0xf
 1635 0406 19000000 		.4byte	.LASF57
 1636 040a 06       		.byte	0x6
ARM GAS  /tmp/ccG55p3J.s 			page 30


 1637 040b 97       		.byte	0x97
 1638 040c E8000000 		.4byte	0xe8
 1639 0410 0F       		.uleb128 0xf
 1640 0411 8E000000 		.4byte	.LASF58
 1641 0415 06       		.byte	0x6
 1642 0416 9E       		.byte	0x9e
 1643 0417 E8000000 		.4byte	0xe8
 1644 041b 0F       		.uleb128 0xf
 1645 041c 6E070000 		.4byte	.LASF59
 1646 0420 06       		.byte	0x6
 1647 0421 A5       		.byte	0xa5
 1648 0422 80020000 		.4byte	0x280
 1649 0426 0F       		.uleb128 0xf
 1650 0427 51050000 		.4byte	.LASF60
 1651 042b 06       		.byte	0x6
 1652 042c AC       		.byte	0xac
 1653 042d F3000000 		.4byte	0xf3
 1654 0431 00       		.byte	0x0
 1655 0432 09       		.uleb128 0x9
 1656 0433 04       		.byte	0x4
 1657 0434 38040000 		.4byte	0x438
 1658 0438 10       		.uleb128 0x10
 1659 0439 3D040000 		.4byte	0x43d
 1660 043d 04       		.uleb128 0x4
 1661 043e 01       		.byte	0x1
 1662 043f 08       		.byte	0x8
 1663 0440 05060000 		.4byte	.LASF61
 1664 0444 09       		.uleb128 0x9
 1665 0445 04       		.byte	0x4
 1666 0446 82020000 		.4byte	0x282
 1667 044a 09       		.uleb128 0x9
 1668 044b 04       		.byte	0x4
 1669 044c 84030000 		.4byte	0x384
 1670 0450 03       		.uleb128 0x3
 1671 0451 C7010000 		.4byte	.LASF62
 1672 0455 0A       		.byte	0xa
 1673 0456 37       		.byte	0x37
 1674 0457 5B040000 		.4byte	0x45b
 1675 045b 05       		.uleb128 0x5
 1676 045c C7010000 		.4byte	.LASF62
 1677 0460 20       		.byte	0x20
 1678 0461 0A       		.byte	0xa
 1679 0462 45       		.byte	0x45
 1680 0463 CA040000 		.4byte	0x4ca
 1681 0467 06       		.uleb128 0x6
 1682 0468 ED000000 		.4byte	.LASF63
 1683 046c 0A       		.byte	0xa
 1684 046d 46       		.byte	0x46
 1685 046e 48020000 		.4byte	0x248
 1686 0472 02       		.byte	0x2
 1687 0473 23       		.byte	0x23
 1688 0474 00       		.uleb128 0x0
 1689 0475 06       		.uleb128 0x6
 1690 0476 98030000 		.4byte	.LASF64
 1691 047a 0A       		.byte	0xa
 1692 047b 47       		.byte	0x47
 1693 047c 30000000 		.4byte	0x30
ARM GAS  /tmp/ccG55p3J.s 			page 31


 1694 0480 02       		.byte	0x2
 1695 0481 23       		.byte	0x23
 1696 0482 08       		.uleb128 0x8
 1697 0483 06       		.uleb128 0x6
 1698 0484 A2010000 		.4byte	.LASF65
 1699 0488 0A       		.byte	0xa
 1700 0489 48       		.byte	0x48
 1701 048a ED040000 		.4byte	0x4ed
 1702 048e 02       		.byte	0x2
 1703 048f 23       		.byte	0x23
 1704 0490 0C       		.uleb128 0xc
 1705 0491 06       		.uleb128 0x6
 1706 0492 DC060000 		.4byte	.LASF66
 1707 0496 0A       		.byte	0xa
 1708 0497 49       		.byte	0x49
 1709 0498 ED040000 		.4byte	0x4ed
 1710 049c 02       		.byte	0x2
 1711 049d 23       		.byte	0x23
 1712 049e 10       		.uleb128 0x10
 1713 049f 06       		.uleb128 0x6
 1714 04a0 AB010000 		.4byte	.LASF67
 1715 04a4 0A       		.byte	0xa
 1716 04a5 4B       		.byte	0x4b
 1717 04a6 ED040000 		.4byte	0x4ed
 1718 04aa 02       		.byte	0x2
 1719 04ab 23       		.byte	0x23
 1720 04ac 14       		.uleb128 0x14
 1721 04ad 06       		.uleb128 0x6
 1722 04ae 83040000 		.4byte	.LASF68
 1723 04b2 0A       		.byte	0xa
 1724 04b3 4C       		.byte	0x4c
 1725 04b4 ED040000 		.4byte	0x4ed
 1726 04b8 02       		.byte	0x2
 1727 04b9 23       		.byte	0x23
 1728 04ba 18       		.uleb128 0x18
 1729 04bb 06       		.uleb128 0x6
 1730 04bc 38070000 		.4byte	.LASF69
 1731 04c0 0A       		.byte	0xa
 1732 04c1 4D       		.byte	0x4d
 1733 04c2 CA040000 		.4byte	0x4ca
 1734 04c6 02       		.byte	0x2
 1735 04c7 23       		.byte	0x23
 1736 04c8 1C       		.uleb128 0x1c
 1737 04c9 00       		.byte	0x0
 1738 04ca 03       		.uleb128 0x3
 1739 04cb F4010000 		.4byte	.LASF70
 1740 04cf 0A       		.byte	0xa
 1741 04d0 3A       		.byte	0x3a
 1742 04d1 D5040000 		.4byte	0x4d5
 1743 04d5 09       		.uleb128 0x9
 1744 04d6 04       		.byte	0x4
 1745 04d7 DB040000 		.4byte	0x4db
 1746 04db 11       		.uleb128 0x11
 1747 04dc 01       		.byte	0x1
 1748 04dd E7040000 		.4byte	0x4e7
 1749 04e1 12       		.uleb128 0x12
 1750 04e2 E7040000 		.4byte	0x4e7
ARM GAS  /tmp/ccG55p3J.s 			page 32


 1751 04e6 00       		.byte	0x0
 1752 04e7 09       		.uleb128 0x9
 1753 04e8 04       		.byte	0x4
 1754 04e9 50040000 		.4byte	0x450
 1755 04ed 09       		.uleb128 0x9
 1756 04ee 04       		.byte	0x4
 1757 04ef 49000000 		.4byte	0x49
 1758 04f3 03       		.uleb128 0x3
 1759 04f4 4F070000 		.4byte	.LASF71
 1760 04f8 0A       		.byte	0xa
 1761 04f9 76       		.byte	0x76
 1762 04fa 50040000 		.4byte	0x450
 1763 04fe 03       		.uleb128 0x3
 1764 04ff 29000000 		.4byte	.LASF72
 1765 0503 0A       		.byte	0xa
 1766 0504 E6       		.byte	0xe6
 1767 0505 50040000 		.4byte	0x450
 1768 0509 13       		.uleb128 0x13
 1769 050a 01       		.byte	0x1
 1770 050b 30000000 		.4byte	0x30
 1771 050f 23050000 		.4byte	0x523
 1772 0513 12       		.uleb128 0x12
 1773 0514 80020000 		.4byte	0x280
 1774 0518 12       		.uleb128 0x12
 1775 0519 23050000 		.4byte	0x523
 1776 051d 12       		.uleb128 0x12
 1777 051e 30000000 		.4byte	0x30
 1778 0522 00       		.byte	0x0
 1779 0523 09       		.uleb128 0x9
 1780 0524 04       		.byte	0x4
 1781 0525 29050000 		.4byte	0x529
 1782 0529 10       		.uleb128 0x10
 1783 052a 49000000 		.4byte	0x49
 1784 052e 09       		.uleb128 0x9
 1785 052f 04       		.byte	0x4
 1786 0530 09050000 		.4byte	0x509
 1787 0534 13       		.uleb128 0x13
 1788 0535 01       		.byte	0x1
 1789 0536 30000000 		.4byte	0x30
 1790 053a 4E050000 		.4byte	0x54e
 1791 053e 12       		.uleb128 0x12
 1792 053f 80020000 		.4byte	0x280
 1793 0543 12       		.uleb128 0x12
 1794 0544 ED040000 		.4byte	0x4ed
 1795 0548 12       		.uleb128 0x12
 1796 0549 30000000 		.4byte	0x30
 1797 054d 00       		.byte	0x0
 1798 054e 09       		.uleb128 0x9
 1799 054f 04       		.byte	0x4
 1800 0550 34050000 		.4byte	0x534
 1801 0554 13       		.uleb128 0x13
 1802 0555 01       		.byte	0x1
 1803 0556 BC000000 		.4byte	0xbc
 1804 055a 64050000 		.4byte	0x564
 1805 055e 12       		.uleb128 0x12
 1806 055f 80020000 		.4byte	0x280
 1807 0563 00       		.byte	0x0
ARM GAS  /tmp/ccG55p3J.s 			page 33


 1808 0564 09       		.uleb128 0x9
 1809 0565 04       		.byte	0x4
 1810 0566 54050000 		.4byte	0x554
 1811 056a 13       		.uleb128 0x13
 1812 056b 01       		.byte	0x1
 1813 056c E8000000 		.4byte	0xe8
 1814 0570 84050000 		.4byte	0x584
 1815 0574 12       		.uleb128 0x12
 1816 0575 80020000 		.4byte	0x280
 1817 0579 12       		.uleb128 0x12
 1818 057a 49000000 		.4byte	0x49
 1819 057e 12       		.uleb128 0x12
 1820 057f FE000000 		.4byte	0xfe
 1821 0583 00       		.byte	0x0
 1822 0584 09       		.uleb128 0x9
 1823 0585 04       		.byte	0x4
 1824 0586 6A050000 		.4byte	0x56a
 1825 058a 13       		.uleb128 0x13
 1826 058b 01       		.byte	0x1
 1827 058c E8000000 		.4byte	0xe8
 1828 0590 9F050000 		.4byte	0x59f
 1829 0594 12       		.uleb128 0x12
 1830 0595 80020000 		.4byte	0x280
 1831 0599 12       		.uleb128 0x12
 1832 059a FE000000 		.4byte	0xfe
 1833 059e 00       		.byte	0x0
 1834 059f 09       		.uleb128 0x9
 1835 05a0 04       		.byte	0x4
 1836 05a1 8A050000 		.4byte	0x58a
 1837 05a5 13       		.uleb128 0x13
 1838 05a6 01       		.byte	0x1
 1839 05a7 30000000 		.4byte	0x30
 1840 05ab C4050000 		.4byte	0x5c4
 1841 05af 12       		.uleb128 0x12
 1842 05b0 80020000 		.4byte	0x280
 1843 05b4 12       		.uleb128 0x12
 1844 05b5 23050000 		.4byte	0x523
 1845 05b9 12       		.uleb128 0x12
 1846 05ba 30000000 		.4byte	0x30
 1847 05be 12       		.uleb128 0x12
 1848 05bf FE000000 		.4byte	0xfe
 1849 05c3 00       		.byte	0x0
 1850 05c4 09       		.uleb128 0x9
 1851 05c5 04       		.byte	0x4
 1852 05c6 A5050000 		.4byte	0x5a5
 1853 05ca 13       		.uleb128 0x13
 1854 05cb 01       		.byte	0x1
 1855 05cc 30000000 		.4byte	0x30
 1856 05d0 E9050000 		.4byte	0x5e9
 1857 05d4 12       		.uleb128 0x12
 1858 05d5 80020000 		.4byte	0x280
 1859 05d9 12       		.uleb128 0x12
 1860 05da ED040000 		.4byte	0x4ed
 1861 05de 12       		.uleb128 0x12
 1862 05df 30000000 		.4byte	0x30
 1863 05e3 12       		.uleb128 0x12
 1864 05e4 FE000000 		.4byte	0xfe
ARM GAS  /tmp/ccG55p3J.s 			page 34


 1865 05e8 00       		.byte	0x0
 1866 05e9 09       		.uleb128 0x9
 1867 05ea 04       		.byte	0x4
 1868 05eb CA050000 		.4byte	0x5ca
 1869 05ef 14       		.uleb128 0x14
 1870 05f0 C4030000 		.4byte	.LASF73
 1871 05f4 0B       		.byte	0xb
 1872 05f5 0B01     		.2byte	0x10b
 1873 05f7 B1000000 		.4byte	0xb1
 1874 05fb 13       		.uleb128 0x13
 1875 05fc 01       		.byte	0x1
 1876 05fd EF050000 		.4byte	0x5ef
 1877 0601 0B060000 		.4byte	0x60b
 1878 0605 12       		.uleb128 0x12
 1879 0606 80020000 		.4byte	0x280
 1880 060a 00       		.byte	0x0
 1881 060b 09       		.uleb128 0x9
 1882 060c 04       		.byte	0x4
 1883 060d FB050000 		.4byte	0x5fb
 1884 0611 15       		.uleb128 0x15
 1885 0612 75030000 		.4byte	.LASF183
 1886 0616 01       		.byte	0x1
 1887 0617 0C       		.byte	0xc
 1888 0618 A9       		.byte	0xa9
 1889 0619 50070000 		.4byte	0x750
 1890 061d 16       		.uleb128 0x16
 1891 061e 4C060000 		.4byte	.LASF74
 1892 0622 72       		.sleb128 -14
 1893 0623 16       		.uleb128 0x16
 1894 0624 4A020000 		.4byte	.LASF75
 1895 0628 74       		.sleb128 -12
 1896 0629 16       		.uleb128 0x16
 1897 062a 0A060000 		.4byte	.LASF76
 1898 062e 75       		.sleb128 -11
 1899 062f 16       		.uleb128 0x16
 1900 0630 D1050000 		.4byte	.LASF77
 1901 0634 76       		.sleb128 -10
 1902 0635 16       		.uleb128 0x16
 1903 0636 8B040000 		.4byte	.LASF78
 1904 063a 7B       		.sleb128 -5
 1905 063b 16       		.uleb128 0x16
 1906 063c 97040000 		.4byte	.LASF79
 1907 0640 7C       		.sleb128 -4
 1908 0641 16       		.uleb128 0x16
 1909 0642 D4010000 		.4byte	.LASF80
 1910 0646 7E       		.sleb128 -2
 1911 0647 16       		.uleb128 0x16
 1912 0648 3C030000 		.4byte	.LASF81
 1913 064c 7F       		.sleb128 -1
 1914 064d 16       		.uleb128 0x16
 1915 064e C8000000 		.4byte	.LASF82
 1916 0652 00       		.sleb128 0
 1917 0653 16       		.uleb128 0x16
 1918 0654 00000000 		.4byte	.LASF83
 1919 0658 01       		.sleb128 1
 1920 0659 16       		.uleb128 0x16
 1921 065a 82060000 		.4byte	.LASF84
ARM GAS  /tmp/ccG55p3J.s 			page 35


 1922 065e 02       		.sleb128 2
 1923 065f 16       		.uleb128 0x16
 1924 0660 C2070000 		.4byte	.LASF85
 1925 0664 03       		.sleb128 3
 1926 0665 16       		.uleb128 0x16
 1927 0666 92050000 		.4byte	.LASF86
 1928 066a 04       		.sleb128 4
 1929 066b 16       		.uleb128 0x16
 1930 066c DD070000 		.4byte	.LASF87
 1931 0670 05       		.sleb128 5
 1932 0671 16       		.uleb128 0x16
 1933 0672 E2060000 		.4byte	.LASF88
 1934 0676 06       		.sleb128 6
 1935 0677 16       		.uleb128 0x16
 1936 0678 FD070000 		.4byte	.LASF89
 1937 067c 07       		.sleb128 7
 1938 067d 16       		.uleb128 0x16
 1939 067e 68050000 		.4byte	.LASF90
 1940 0682 08       		.sleb128 8
 1941 0683 16       		.uleb128 0x16
 1942 0684 AF030000 		.4byte	.LASF91
 1943 0688 09       		.sleb128 9
 1944 0689 16       		.uleb128 0x16
 1945 068a F5040000 		.4byte	.LASF92
 1946 068e 0A       		.sleb128 10
 1947 068f 16       		.uleb128 0x16
 1948 0690 25040000 		.4byte	.LASF93
 1949 0694 0B       		.sleb128 11
 1950 0695 16       		.uleb128 0x16
 1951 0696 85030000 		.4byte	.LASF94
 1952 069a 0C       		.sleb128 12
 1953 069b 16       		.uleb128 0x16
 1954 069c 8F010000 		.4byte	.LASF95
 1955 06a0 0D       		.sleb128 13
 1956 06a1 16       		.uleb128 0x16
 1957 06a2 29030000 		.4byte	.LASF96
 1958 06a6 0E       		.sleb128 14
 1959 06a7 16       		.uleb128 0x16
 1960 06a8 84020000 		.4byte	.LASF97
 1961 06ac 0F       		.sleb128 15
 1962 06ad 16       		.uleb128 0x16
 1963 06ae 60060000 		.4byte	.LASF98
 1964 06b2 10       		.sleb128 16
 1965 06b3 16       		.uleb128 0x16
 1966 06b4 75070000 		.4byte	.LASF99
 1967 06b8 11       		.sleb128 17
 1968 06b9 16       		.uleb128 0x16
 1969 06ba B3010000 		.4byte	.LASF100
 1970 06be 12       		.sleb128 18
 1971 06bf 16       		.uleb128 0x16
 1972 06c0 E1040000 		.4byte	.LASF101
 1973 06c4 13       		.sleb128 19
 1974 06c5 16       		.uleb128 0x16
 1975 06c6 BF040000 		.4byte	.LASF102
 1976 06ca 14       		.sleb128 20
 1977 06cb 16       		.uleb128 0x16
 1978 06cc 5B000000 		.4byte	.LASF103
ARM GAS  /tmp/ccG55p3J.s 			page 36


 1979 06d0 15       		.sleb128 21
 1980 06d1 16       		.uleb128 0x16
 1981 06d2 2D060000 		.4byte	.LASF104
 1982 06d6 16       		.sleb128 22
 1983 06d7 16       		.uleb128 0x16
 1984 06d8 82010000 		.4byte	.LASF105
 1985 06dc 17       		.sleb128 23
 1986 06dd 16       		.uleb128 0x16
 1987 06de 1F060000 		.4byte	.LASF106
 1988 06e2 18       		.sleb128 24
 1989 06e3 16       		.uleb128 0x16
 1990 06e4 BB000000 		.4byte	.LASF107
 1991 06e8 19       		.sleb128 25
 1992 06e9 16       		.uleb128 0x16
 1993 06ea AA020000 		.4byte	.LASF108
 1994 06ee 1A       		.sleb128 26
 1995 06ef 16       		.uleb128 0x16
 1996 06f0 49030000 		.4byte	.LASF109
 1997 06f4 1B       		.sleb128 27
 1998 06f5 16       		.uleb128 0x16
 1999 06f6 D2060000 		.4byte	.LASF110
 2000 06fa 1C       		.sleb128 28
 2001 06fb 16       		.uleb128 0x16
 2002 06fc CB070000 		.4byte	.LASF111
 2003 0700 1D       		.sleb128 29
 2004 0701 16       		.uleb128 0x16
 2005 0702 A4000000 		.4byte	.LASF112
 2006 0706 1E       		.sleb128 30
 2007 0707 16       		.uleb128 0x16
 2008 0708 35000000 		.4byte	.LASF113
 2009 070c 1F       		.sleb128 31
 2010 070d 16       		.uleb128 0x16
 2011 070e A7070000 		.4byte	.LASF114
 2012 0712 20       		.sleb128 32
 2013 0713 16       		.uleb128 0x16
 2014 0714 AF060000 		.4byte	.LASF115
 2015 0718 21       		.sleb128 33
 2016 0719 16       		.uleb128 0x16
 2017 071a 97000000 		.4byte	.LASF116
 2018 071e 22       		.sleb128 34
 2019 071f 16       		.uleb128 0x16
 2020 0720 D8020000 		.4byte	.LASF117
 2021 0724 23       		.sleb128 35
 2022 0725 16       		.uleb128 0x16
 2023 0726 BA030000 		.4byte	.LASF118
 2024 072a 24       		.sleb128 36
 2025 072b 16       		.uleb128 0x16
 2026 072c F5060000 		.4byte	.LASF119
 2027 0730 25       		.sleb128 37
 2028 0731 16       		.uleb128 0x16
 2029 0732 C5050000 		.4byte	.LASF120
 2030 0736 26       		.sleb128 38
 2031 0737 16       		.uleb128 0x16
 2032 0738 BC060000 		.4byte	.LASF121
 2033 073c 27       		.sleb128 39
 2034 073d 16       		.uleb128 0x16
 2035 073e C9020000 		.4byte	.LASF122
ARM GAS  /tmp/ccG55p3J.s 			page 37


 2036 0742 28       		.sleb128 40
 2037 0743 16       		.uleb128 0x16
 2038 0744 42000000 		.4byte	.LASF123
 2039 0748 29       		.sleb128 41
 2040 0749 16       		.uleb128 0x16
 2041 074a E6030000 		.4byte	.LASF124
 2042 074e 2A       		.sleb128 42
 2043 074f 00       		.byte	0x0
 2044 0750 0D       		.uleb128 0xd
 2045 0751 62000000 		.4byte	0x62
 2046 0755 0D       		.uleb128 0xd
 2047 0756 74000000 		.4byte	0x74
 2048 075a 17       		.uleb128 0x17
 2049 075b 28       		.byte	0x28
 2050 075c 0C       		.byte	0xc
 2051 075d 4304     		.2byte	0x443
 2052 075f F9070000 		.4byte	0x7f9
 2053 0763 0B       		.uleb128 0xb
 2054 0764 435200   		.ascii	"CR\000"
 2055 0767 0C       		.byte	0xc
 2056 0768 4504     		.2byte	0x445
 2057 076a 3D030000 		.4byte	0x33d
 2058 076e 02       		.byte	0x2
 2059 076f 23       		.byte	0x23
 2060 0770 00       		.uleb128 0x0
 2061 0771 18       		.uleb128 0x18
 2062 0772 94070000 		.4byte	.LASF125
 2063 0776 0C       		.byte	0xc
 2064 0777 4604     		.2byte	0x446
 2065 0779 3D030000 		.4byte	0x33d
 2066 077d 02       		.byte	0x2
 2067 077e 23       		.byte	0x23
 2068 077f 04       		.uleb128 0x4
 2069 0780 0B       		.uleb128 0xb
 2070 0781 43495200 		.ascii	"CIR\000"
 2071 0785 0C       		.byte	0xc
 2072 0786 4704     		.2byte	0x447
 2073 0788 3D030000 		.4byte	0x33d
 2074 078c 02       		.byte	0x2
 2075 078d 23       		.byte	0x23
 2076 078e 08       		.uleb128 0x8
 2077 078f 18       		.uleb128 0x18
 2078 0790 64010000 		.4byte	.LASF126
 2079 0794 0C       		.byte	0xc
 2080 0795 4804     		.2byte	0x448
 2081 0797 3D030000 		.4byte	0x33d
 2082 079b 02       		.byte	0x2
 2083 079c 23       		.byte	0x23
 2084 079d 0C       		.uleb128 0xc
 2085 079e 18       		.uleb128 0x18
 2086 079f F7030000 		.4byte	.LASF127
 2087 07a3 0C       		.byte	0xc
 2088 07a4 4904     		.2byte	0x449
 2089 07a6 3D030000 		.4byte	0x33d
 2090 07aa 02       		.byte	0x2
 2091 07ab 23       		.byte	0x23
 2092 07ac 10       		.uleb128 0x10
ARM GAS  /tmp/ccG55p3J.s 			page 38


 2093 07ad 18       		.uleb128 0x18
 2094 07ae F6070000 		.4byte	.LASF128
 2095 07b2 0C       		.byte	0xc
 2096 07b3 4A04     		.2byte	0x44a
 2097 07b5 3D030000 		.4byte	0x33d
 2098 07b9 02       		.byte	0x2
 2099 07ba 23       		.byte	0x23
 2100 07bb 14       		.uleb128 0x14
 2101 07bc 18       		.uleb128 0x18
 2102 07bd 73050000 		.4byte	.LASF129
 2103 07c1 0C       		.byte	0xc
 2104 07c2 4B04     		.2byte	0x44b
 2105 07c4 3D030000 		.4byte	0x33d
 2106 07c8 02       		.byte	0x2
 2107 07c9 23       		.byte	0x23
 2108 07ca 18       		.uleb128 0x18
 2109 07cb 18       		.uleb128 0x18
 2110 07cc 7A060000 		.4byte	.LASF130
 2111 07d0 0C       		.byte	0xc
 2112 07d1 4C04     		.2byte	0x44c
 2113 07d3 3D030000 		.4byte	0x33d
 2114 07d7 02       		.byte	0x2
 2115 07d8 23       		.byte	0x23
 2116 07d9 1C       		.uleb128 0x1c
 2117 07da 18       		.uleb128 0x18
 2118 07db 33070000 		.4byte	.LASF131
 2119 07df 0C       		.byte	0xc
 2120 07e0 4D04     		.2byte	0x44d
 2121 07e2 3D030000 		.4byte	0x33d
 2122 07e6 02       		.byte	0x2
 2123 07e7 23       		.byte	0x23
 2124 07e8 20       		.uleb128 0x20
 2125 07e9 0B       		.uleb128 0xb
 2126 07ea 43535200 		.ascii	"CSR\000"
 2127 07ee 0C       		.byte	0xc
 2128 07ef 4E04     		.2byte	0x44e
 2129 07f1 3D030000 		.4byte	0x33d
 2130 07f5 02       		.byte	0x2
 2131 07f6 23       		.byte	0x23
 2132 07f7 24       		.uleb128 0x24
 2133 07f8 00       		.byte	0x0
 2134 07f9 14       		.uleb128 0x14
 2135 07fa 3A010000 		.4byte	.LASF132
 2136 07fe 0C       		.byte	0xc
 2137 07ff 5904     		.2byte	0x459
 2138 0801 5A070000 		.4byte	0x75a
 2139 0805 17       		.uleb128 0x17
 2140 0806 1C       		.byte	0x1c
 2141 0807 0C       		.byte	0xc
 2142 0808 E104     		.2byte	0x4e1
 2143 080a DF080000 		.4byte	0x8df
 2144 080e 0B       		.uleb128 0xb
 2145 080f 535200   		.ascii	"SR\000"
 2146 0812 0C       		.byte	0xc
 2147 0813 E304     		.2byte	0x4e3
 2148 0815 50070000 		.4byte	0x750
 2149 0819 02       		.byte	0x2
ARM GAS  /tmp/ccG55p3J.s 			page 39


 2150 081a 23       		.byte	0x23
 2151 081b 00       		.uleb128 0x0
 2152 081c 18       		.uleb128 0x18
 2153 081d 38040000 		.4byte	.LASF133
 2154 0821 0C       		.byte	0xc
 2155 0822 E404     		.2byte	0x4e4
 2156 0824 62000000 		.4byte	0x62
 2157 0828 02       		.byte	0x2
 2158 0829 23       		.byte	0x23
 2159 082a 02       		.uleb128 0x2
 2160 082b 0B       		.uleb128 0xb
 2161 082c 445200   		.ascii	"DR\000"
 2162 082f 0C       		.byte	0xc
 2163 0830 E504     		.2byte	0x4e5
 2164 0832 50070000 		.4byte	0x750
 2165 0836 02       		.byte	0x2
 2166 0837 23       		.byte	0x23
 2167 0838 04       		.uleb128 0x4
 2168 0839 18       		.uleb128 0x18
 2169 083a 42040000 		.4byte	.LASF134
 2170 083e 0C       		.byte	0xc
 2171 083f E604     		.2byte	0x4e6
 2172 0841 62000000 		.4byte	0x62
 2173 0845 02       		.byte	0x2
 2174 0846 23       		.byte	0x23
 2175 0847 06       		.uleb128 0x6
 2176 0848 0B       		.uleb128 0xb
 2177 0849 42525200 		.ascii	"BRR\000"
 2178 084d 0C       		.byte	0xc
 2179 084e E704     		.2byte	0x4e7
 2180 0850 50070000 		.4byte	0x750
 2181 0854 02       		.byte	0x2
 2182 0855 23       		.byte	0x23
 2183 0856 08       		.uleb128 0x8
 2184 0857 18       		.uleb128 0x18
 2185 0858 4C040000 		.4byte	.LASF135
 2186 085c 0C       		.byte	0xc
 2187 085d E804     		.2byte	0x4e8
 2188 085f 62000000 		.4byte	0x62
 2189 0863 02       		.byte	0x2
 2190 0864 23       		.byte	0x23
 2191 0865 0A       		.uleb128 0xa
 2192 0866 0B       		.uleb128 0xb
 2193 0867 43523100 		.ascii	"CR1\000"
 2194 086b 0C       		.byte	0xc
 2195 086c E904     		.2byte	0x4e9
 2196 086e 50070000 		.4byte	0x750
 2197 0872 02       		.byte	0x2
 2198 0873 23       		.byte	0x23
 2199 0874 0C       		.uleb128 0xc
 2200 0875 18       		.uleb128 0x18
 2201 0876 56040000 		.4byte	.LASF136
 2202 087a 0C       		.byte	0xc
 2203 087b EA04     		.2byte	0x4ea
 2204 087d 62000000 		.4byte	0x62
 2205 0881 02       		.byte	0x2
 2206 0882 23       		.byte	0x23
ARM GAS  /tmp/ccG55p3J.s 			page 40


 2207 0883 0E       		.uleb128 0xe
 2208 0884 0B       		.uleb128 0xb
 2209 0885 43523200 		.ascii	"CR2\000"
 2210 0889 0C       		.byte	0xc
 2211 088a EB04     		.2byte	0x4eb
 2212 088c 50070000 		.4byte	0x750
 2213 0890 02       		.byte	0x2
 2214 0891 23       		.byte	0x23
 2215 0892 10       		.uleb128 0x10
 2216 0893 18       		.uleb128 0x18
 2217 0894 60040000 		.4byte	.LASF137
 2218 0898 0C       		.byte	0xc
 2219 0899 EC04     		.2byte	0x4ec
 2220 089b 62000000 		.4byte	0x62
 2221 089f 02       		.byte	0x2
 2222 08a0 23       		.byte	0x23
 2223 08a1 12       		.uleb128 0x12
 2224 08a2 0B       		.uleb128 0xb
 2225 08a3 43523300 		.ascii	"CR3\000"
 2226 08a7 0C       		.byte	0xc
 2227 08a8 ED04     		.2byte	0x4ed
 2228 08aa 50070000 		.4byte	0x750
 2229 08ae 02       		.byte	0x2
 2230 08af 23       		.byte	0x23
 2231 08b0 14       		.uleb128 0x14
 2232 08b1 18       		.uleb128 0x18
 2233 08b2 B2050000 		.4byte	.LASF138
 2234 08b6 0C       		.byte	0xc
 2235 08b7 EE04     		.2byte	0x4ee
 2236 08b9 62000000 		.4byte	0x62
 2237 08bd 02       		.byte	0x2
 2238 08be 23       		.byte	0x23
 2239 08bf 16       		.uleb128 0x16
 2240 08c0 18       		.uleb128 0x18
 2241 08c1 11010000 		.4byte	.LASF139
 2242 08c5 0C       		.byte	0xc
 2243 08c6 EF04     		.2byte	0x4ef
 2244 08c8 50070000 		.4byte	0x750
 2245 08cc 02       		.byte	0x2
 2246 08cd 23       		.byte	0x23
 2247 08ce 18       		.uleb128 0x18
 2248 08cf 18       		.uleb128 0x18
 2249 08d0 71040000 		.4byte	.LASF140
 2250 08d4 0C       		.byte	0xc
 2251 08d5 F004     		.2byte	0x4f0
 2252 08d7 62000000 		.4byte	0x62
 2253 08db 02       		.byte	0x2
 2254 08dc 23       		.byte	0x23
 2255 08dd 1A       		.uleb128 0x1a
 2256 08de 00       		.byte	0x0
 2257 08df 14       		.uleb128 0x14
 2258 08e0 E2020000 		.4byte	.LASF141
 2259 08e4 0C       		.byte	0xc
 2260 08e5 F104     		.2byte	0x4f1
 2261 08e7 05080000 		.4byte	0x805
 2262 08eb 19       		.uleb128 0x19
 2263 08ec 01       		.byte	0x1
ARM GAS  /tmp/ccG55p3J.s 			page 41


 2264 08ed 0D       		.byte	0xd
 2265 08ee 64       		.byte	0x64
 2266 08ef 06090000 		.4byte	0x906
 2267 08f3 16       		.uleb128 0x16
 2268 08f4 A8050000 		.4byte	.LASF142
 2269 08f8 00       		.sleb128 0
 2270 08f9 16       		.uleb128 0x16
 2271 08fa 1E010000 		.4byte	.LASF143
 2272 08fe 01       		.sleb128 1
 2273 08ff 16       		.uleb128 0x16
 2274 0900 A6060000 		.4byte	.LASF144
 2275 0904 02       		.sleb128 2
 2276 0905 00       		.byte	0x0
 2277 0906 03       		.uleb128 0x3
 2278 0907 C8060000 		.4byte	.LASF145
 2279 090b 0D       		.byte	0xd
 2280 090c 68       		.byte	0x68
 2281 090d EB080000 		.4byte	0x8eb
 2282 0911 03       		.uleb128 0x3
 2283 0912 E1050000 		.4byte	.LASF146
 2284 0916 0D       		.byte	0xd
 2285 0917 6D       		.byte	0x6d
 2286 0918 1C090000 		.4byte	0x91c
 2287 091c 05       		.uleb128 0x5
 2288 091d E1050000 		.4byte	.LASF146
 2289 0921 74       		.byte	0x74
 2290 0922 0D       		.byte	0xd
 2291 0923 87       		.byte	0x87
 2292 0924 A5090000 		.4byte	0x9a5
 2293 0928 07       		.uleb128 0x7
 2294 0929 766D7400 		.ascii	"vmt\000"
 2295 092d 0D       		.byte	0xd
 2296 092e 89       		.byte	0x89
 2297 092f 7C0A0000 		.4byte	0xa7c
 2298 0933 02       		.byte	0x2
 2299 0934 23       		.byte	0x23
 2300 0935 00       		.uleb128 0x0
 2301 0936 06       		.uleb128 0x6
 2302 0937 7E020000 		.4byte	.LASF147
 2303 093b 0D       		.byte	0xd
 2304 093c 8A       		.byte	0x8a
 2305 093d F2030000 		.4byte	0x3f2
 2306 0941 02       		.byte	0x2
 2307 0942 23       		.byte	0x23
 2308 0943 04       		.uleb128 0x4
 2309 0944 06       		.uleb128 0x6
 2310 0945 5A070000 		.4byte	.LASF148
 2311 0949 0D       		.byte	0xd
 2312 094a 8A       		.byte	0x8a
 2313 094b EF050000 		.4byte	0x5ef
 2314 094f 02       		.byte	0x2
 2315 0950 23       		.byte	0x23
 2316 0951 08       		.uleb128 0x8
 2317 0952 06       		.uleb128 0x6
 2318 0953 55010000 		.4byte	.LASF149
 2319 0957 0D       		.byte	0xd
 2320 0958 8A       		.byte	0x8a
ARM GAS  /tmp/ccG55p3J.s 			page 42


 2321 0959 06090000 		.4byte	0x906
 2322 095d 02       		.byte	0x2
 2323 095e 23       		.byte	0x23
 2324 095f 0C       		.uleb128 0xc
 2325 0960 06       		.uleb128 0x6
 2326 0961 60020000 		.4byte	.LASF150
 2327 0965 0D       		.byte	0xd
 2328 0966 8A       		.byte	0x8a
 2329 0967 F3040000 		.4byte	0x4f3
 2330 096b 02       		.byte	0x2
 2331 096c 23       		.byte	0x23
 2332 096d 10       		.uleb128 0x10
 2333 096e 06       		.uleb128 0x6
 2334 096f C2020000 		.4byte	.LASF151
 2335 0973 0D       		.byte	0xd
 2336 0974 8A       		.byte	0x8a
 2337 0975 FE040000 		.4byte	0x4fe
 2338 0979 02       		.byte	0x2
 2339 097a 23       		.byte	0x23
 2340 097b 30       		.uleb128 0x30
 2341 097c 07       		.uleb128 0x7
 2342 097d 696200   		.ascii	"ib\000"
 2343 0980 0D       		.byte	0xd
 2344 0981 8A       		.byte	0x8a
 2345 0982 870A0000 		.4byte	0xa87
 2346 0986 02       		.byte	0x2
 2347 0987 23       		.byte	0x23
 2348 0988 50       		.uleb128 0x50
 2349 0989 07       		.uleb128 0x7
 2350 098a 6F6200   		.ascii	"ob\000"
 2351 098d 0D       		.byte	0xd
 2352 098e 8A       		.byte	0x8a
 2353 098f 870A0000 		.4byte	0xa87
 2354 0993 02       		.byte	0x2
 2355 0994 23       		.byte	0x23
 2356 0995 60       		.uleb128 0x60
 2357 0996 06       		.uleb128 0x6
 2358 0997 17020000 		.4byte	.LASF152
 2359 099b 0D       		.byte	0xd
 2360 099c 8A       		.byte	0x8a
 2361 099d 970A0000 		.4byte	0xa97
 2362 09a1 02       		.byte	0x2
 2363 09a2 23       		.byte	0x23
 2364 09a3 70       		.uleb128 0x70
 2365 09a4 00       		.byte	0x0
 2366 09a5 08       		.uleb128 0x8
 2367 09a6 0C       		.byte	0xc
 2368 09a7 0E       		.byte	0xe
 2369 09a8 C4       		.byte	0xc4
 2370 09a9 E6090000 		.4byte	0x9e6
 2371 09ad 06       		.uleb128 0x6
 2372 09ae 09000000 		.4byte	.LASF153
 2373 09b2 0E       		.byte	0xe
 2374 09b3 C8       		.byte	0xc8
 2375 09b4 86000000 		.4byte	0x86
 2376 09b8 02       		.byte	0x2
 2377 09b9 23       		.byte	0x23
ARM GAS  /tmp/ccG55p3J.s 			page 43


 2378 09ba 00       		.uleb128 0x0
 2379 09bb 06       		.uleb128 0x6
 2380 09bc D2000000 		.4byte	.LASF154
 2381 09c0 0E       		.byte	0xe
 2382 09c1 CC       		.byte	0xcc
 2383 09c2 62000000 		.4byte	0x62
 2384 09c6 02       		.byte	0x2
 2385 09c7 23       		.byte	0x23
 2386 09c8 04       		.uleb128 0x4
 2387 09c9 06       		.uleb128 0x6
 2388 09ca B4070000 		.4byte	.LASF155
 2389 09ce 0E       		.byte	0xe
 2390 09cf D0       		.byte	0xd0
 2391 09d0 62000000 		.4byte	0x62
 2392 09d4 02       		.byte	0x2
 2393 09d5 23       		.byte	0x23
 2394 09d6 06       		.uleb128 0x6
 2395 09d7 06       		.uleb128 0x6
 2396 09d8 BB070000 		.4byte	.LASF156
 2397 09dc 0E       		.byte	0xe
 2398 09dd D4       		.byte	0xd4
 2399 09de 62000000 		.4byte	0x62
 2400 09e2 02       		.byte	0x2
 2401 09e3 23       		.byte	0x23
 2402 09e4 08       		.uleb128 0x8
 2403 09e5 00       		.byte	0x0
 2404 09e6 03       		.uleb128 0x3
 2405 09e7 08040000 		.4byte	.LASF157
 2406 09eb 0E       		.byte	0xe
 2407 09ec D5       		.byte	0xd5
 2408 09ed A5090000 		.4byte	0x9a5
 2409 09f1 05       		.uleb128 0x5
 2410 09f2 33020000 		.4byte	.LASF158
 2411 09f6 24       		.byte	0x24
 2412 09f7 0D       		.byte	0xd
 2413 09f8 7C       		.byte	0x7c
 2414 09f9 7C0A0000 		.4byte	0xa7c
 2415 09fd 06       		.uleb128 0x6
 2416 09fe 6F030000 		.4byte	.LASF159
 2417 0a02 0D       		.byte	0xd
 2418 0a03 7D       		.byte	0x7d
 2419 0a04 2E050000 		.4byte	0x52e
 2420 0a08 02       		.byte	0x2
 2421 0a09 23       		.byte	0x23
 2422 0a0a 00       		.uleb128 0x0
 2423 0a0b 06       		.uleb128 0x6
 2424 0a0c 00060000 		.4byte	.LASF160
 2425 0a10 0D       		.byte	0xd
 2426 0a11 7D       		.byte	0x7d
 2427 0a12 4E050000 		.4byte	0x54e
 2428 0a16 02       		.byte	0x2
 2429 0a17 23       		.byte	0x23
 2430 0a18 04       		.uleb128 0x4
 2431 0a19 06       		.uleb128 0x6
 2432 0a1a 61030000 		.4byte	.LASF161
 2433 0a1e 0D       		.byte	0xd
 2434 0a1f 7D       		.byte	0x7d
ARM GAS  /tmp/ccG55p3J.s 			page 44


 2435 0a20 64050000 		.4byte	0x564
 2436 0a24 02       		.byte	0x2
 2437 0a25 23       		.byte	0x23
 2438 0a26 08       		.uleb128 0x8
 2439 0a27 06       		.uleb128 0x6
 2440 0a28 99070000 		.4byte	.LASF162
 2441 0a2c 0D       		.byte	0xd
 2442 0a2d 7D       		.byte	0x7d
 2443 0a2e 64050000 		.4byte	0x564
 2444 0a32 02       		.byte	0x2
 2445 0a33 23       		.byte	0x23
 2446 0a34 0C       		.uleb128 0xc
 2447 0a35 07       		.uleb128 0x7
 2448 0a36 70757400 		.ascii	"put\000"
 2449 0a3a 0D       		.byte	0xd
 2450 0a3b 7D       		.byte	0x7d
 2451 0a3c 84050000 		.4byte	0x584
 2452 0a40 02       		.byte	0x2
 2453 0a41 23       		.byte	0x23
 2454 0a42 10       		.uleb128 0x10
 2455 0a43 07       		.uleb128 0x7
 2456 0a44 67657400 		.ascii	"get\000"
 2457 0a48 0D       		.byte	0xd
 2458 0a49 7D       		.byte	0x7d
 2459 0a4a 9F050000 		.4byte	0x59f
 2460 0a4e 02       		.byte	0x2
 2461 0a4f 23       		.byte	0x23
 2462 0a50 14       		.uleb128 0x14
 2463 0a51 06       		.uleb128 0x6
 2464 0a52 F0020000 		.4byte	.LASF163
 2465 0a56 0D       		.byte	0xd
 2466 0a57 7D       		.byte	0x7d
 2467 0a58 C4050000 		.4byte	0x5c4
 2468 0a5c 02       		.byte	0x2
 2469 0a5d 23       		.byte	0x23
 2470 0a5e 18       		.uleb128 0x18
 2471 0a5f 06       		.uleb128 0x6
 2472 0a60 E7000000 		.4byte	.LASF164
 2473 0a64 0D       		.byte	0xd
 2474 0a65 7D       		.byte	0x7d
 2475 0a66 E9050000 		.4byte	0x5e9
 2476 0a6a 02       		.byte	0x2
 2477 0a6b 23       		.byte	0x23
 2478 0a6c 1C       		.uleb128 0x1c
 2479 0a6d 06       		.uleb128 0x6
 2480 0a6e 8E060000 		.4byte	.LASF165
 2481 0a72 0D       		.byte	0xd
 2482 0a73 7D       		.byte	0x7d
 2483 0a74 0B060000 		.4byte	0x60b
 2484 0a78 02       		.byte	0x2
 2485 0a79 23       		.byte	0x23
 2486 0a7a 20       		.uleb128 0x20
 2487 0a7b 00       		.byte	0x0
 2488 0a7c 09       		.uleb128 0x9
 2489 0a7d 04       		.byte	0x4
 2490 0a7e 820A0000 		.4byte	0xa82
 2491 0a82 10       		.uleb128 0x10
ARM GAS  /tmp/ccG55p3J.s 			page 45


 2492 0a83 F1090000 		.4byte	0x9f1
 2493 0a87 1A       		.uleb128 0x1a
 2494 0a88 49000000 		.4byte	0x49
 2495 0a8c 970A0000 		.4byte	0xa97
 2496 0a90 1B       		.uleb128 0x1b
 2497 0a91 3B000000 		.4byte	0x3b
 2498 0a95 0F       		.byte	0xf
 2499 0a96 00       		.byte	0x0
 2500 0a97 09       		.uleb128 0x9
 2501 0a98 04       		.byte	0x4
 2502 0a99 DF080000 		.4byte	0x8df
 2503 0a9d 1C       		.uleb128 0x1c
 2504 0a9e 7A030000 		.4byte	.LASF167
 2505 0aa2 01       		.byte	0x1
 2506 0aa3 63       		.byte	0x63
 2507 0aa4 01       		.byte	0x1
 2508 0aa5 01       		.byte	0x1
 2509 0aa6 CA0A0000 		.4byte	0xaca
 2510 0aaa 1D       		.uleb128 0x1d
 2511 0aab 73647000 		.ascii	"sdp\000"
 2512 0aaf 01       		.byte	0x1
 2513 0ab0 63       		.byte	0x63
 2514 0ab1 CA0A0000 		.4byte	0xaca
 2515 0ab5 1E       		.uleb128 0x1e
 2516 0ab6 18060000 		.4byte	.LASF166
 2517 0aba 01       		.byte	0x1
 2518 0abb 63       		.byte	0x63
 2519 0abc D00A0000 		.4byte	0xad0
 2520 0ac0 1F       		.uleb128 0x1f
 2521 0ac1 7500     		.ascii	"u\000"
 2522 0ac3 01       		.byte	0x1
 2523 0ac4 64       		.byte	0x64
 2524 0ac5 970A0000 		.4byte	0xa97
 2525 0ac9 00       		.byte	0x0
 2526 0aca 09       		.uleb128 0x9
 2527 0acb 04       		.byte	0x4
 2528 0acc 11090000 		.4byte	0x911
 2529 0ad0 09       		.uleb128 0x9
 2530 0ad1 04       		.byte	0x4
 2531 0ad2 D60A0000 		.4byte	0xad6
 2532 0ad6 10       		.uleb128 0x10
 2533 0ad7 E6090000 		.4byte	0x9e6
 2534 0adb 1C       		.uleb128 0x1c
 2535 0adc 51000000 		.4byte	.LASF168
 2536 0ae0 01       		.byte	0x1
 2537 0ae1 95       		.byte	0x95
 2538 0ae2 01       		.byte	0x1
 2539 0ae3 01       		.byte	0x1
 2540 0ae4 270B0000 		.4byte	0xb27
 2541 0ae8 1D       		.uleb128 0x1d
 2542 0ae9 73647000 		.ascii	"sdp\000"
 2543 0aed 01       		.byte	0x1
 2544 0aee 95       		.byte	0x95
 2545 0aef CA0A0000 		.4byte	0xaca
 2546 0af3 1D       		.uleb128 0x1d
 2547 0af4 737200   		.ascii	"sr\000"
 2548 0af7 01       		.byte	0x1
ARM GAS  /tmp/ccG55p3J.s 			page 46


 2549 0af8 95       		.byte	0x95
 2550 0af9 62000000 		.4byte	0x62
 2551 0afd 1F       		.uleb128 0x1f
 2552 0afe 73747300 		.ascii	"sts\000"
 2553 0b02 01       		.byte	0x1
 2554 0b03 96       		.byte	0x96
 2555 0b04 EF050000 		.4byte	0x5ef
 2556 0b08 20       		.uleb128 0x20
 2557 0b09 190B0000 		.4byte	0xb19
 2558 0b0d 1F       		.uleb128 0x1f
 2559 0b0e 746D7000 		.ascii	"tmp\000"
 2560 0b12 01       		.byte	0x1
 2561 0b13 A0       		.byte	0xa0
 2562 0b14 86000000 		.4byte	0x86
 2563 0b18 00       		.byte	0x0
 2564 0b19 21       		.uleb128 0x21
 2565 0b1a 1F       		.uleb128 0x1f
 2566 0b1b 746D7000 		.ascii	"tmp\000"
 2567 0b1f 01       		.byte	0x1
 2568 0b20 A2       		.byte	0xa2
 2569 0b21 86000000 		.4byte	0x86
 2570 0b25 00       		.byte	0x0
 2571 0b26 00       		.byte	0x0
 2572 0b27 1C       		.uleb128 0x1c
 2573 0b28 FE010000 		.4byte	.LASF169
 2574 0b2c 01       		.byte	0x1
 2575 0b2d 85       		.byte	0x85
 2576 0b2e 01       		.byte	0x1
 2577 0b2f 01       		.byte	0x1
 2578 0b30 3E0B0000 		.4byte	0xb3e
 2579 0b34 1D       		.uleb128 0x1d
 2580 0b35 7500     		.ascii	"u\000"
 2581 0b37 01       		.byte	0x1
 2582 0b38 85       		.byte	0x85
 2583 0b39 970A0000 		.4byte	0xa97
 2584 0b3d 00       		.byte	0x0
 2585 0b3e 22       		.uleb128 0x22
 2586 0b3f 15040000 		.4byte	.LASF170
 2587 0b43 01       		.byte	0x1
 2588 0b44 D9       		.byte	0xd9
 2589 0b45 01       		.byte	0x1
 2590 0b46 00000000 		.4byte	.LFB66
 2591 0b4a 14000000 		.4byte	.LFE66
 2592 0b4e 02       		.byte	0x2
 2593 0b4f 7D       		.byte	0x7d
 2594 0b50 00       		.sleb128 0
 2595 0b51 640B0000 		.4byte	0xb64
 2596 0b55 23       		.uleb128 0x23
 2597 0b56 717000   		.ascii	"qp\000"
 2598 0b59 01       		.byte	0x1
 2599 0b5a D9       		.byte	0xd9
 2600 0b5b E7040000 		.4byte	0x4e7
 2601 0b5f 00000000 		.4byte	.LLST0
 2602 0b63 00       		.byte	0x0
 2603 0b64 22       		.uleb128 0x22
 2604 0b65 1D040000 		.4byte	.LASF171
 2605 0b69 01       		.byte	0x1
ARM GAS  /tmp/ccG55p3J.s 			page 47


 2606 0b6a E1       		.byte	0xe1
 2607 0b6b 01       		.byte	0x1
 2608 0b6c 00000000 		.4byte	.LFB67
 2609 0b70 14000000 		.4byte	.LFE67
 2610 0b74 02       		.byte	0x2
 2611 0b75 7D       		.byte	0x7d
 2612 0b76 00       		.sleb128 0
 2613 0b77 8A0B0000 		.4byte	0xb8a
 2614 0b7b 23       		.uleb128 0x23
 2615 0b7c 717000   		.ascii	"qp\000"
 2616 0b7f 01       		.byte	0x1
 2617 0b80 E1       		.byte	0xe1
 2618 0b81 E7040000 		.4byte	0x4e7
 2619 0b85 13000000 		.4byte	.LLST1
 2620 0b89 00       		.byte	0x0
 2621 0b8a 24       		.uleb128 0x24
 2622 0b8b 82050000 		.4byte	.LASF172
 2623 0b8f 01       		.byte	0x1
 2624 0b90 AA       		.byte	0xaa
 2625 0b91 01       		.byte	0x1
 2626 0b92 00000000 		.4byte	.LFB65
 2627 0b96 58010000 		.4byte	.LFE65
 2628 0b9a 26000000 		.4byte	.LLST2
 2629 0b9e 420D0000 		.4byte	0xd42
 2630 0ba2 23       		.uleb128 0x23
 2631 0ba3 73647000 		.ascii	"sdp\000"
 2632 0ba7 01       		.byte	0x1
 2633 0ba8 AA       		.byte	0xaa
 2634 0ba9 CA0A0000 		.4byte	0xaca
 2635 0bad 46000000 		.4byte	.LLST3
 2636 0bb1 25       		.uleb128 0x25
 2637 0bb2 7500     		.ascii	"u\000"
 2638 0bb4 01       		.byte	0x1
 2639 0bb5 AB       		.byte	0xab
 2640 0bb6 970A0000 		.4byte	0xa97
 2641 0bba 64000000 		.4byte	.LLST4
 2642 0bbe 26       		.uleb128 0x26
 2643 0bbf 63723100 		.ascii	"cr1\000"
 2644 0bc3 01       		.byte	0x1
 2645 0bc4 AC       		.byte	0xac
 2646 0bc5 62000000 		.4byte	0x62
 2647 0bc9 01       		.byte	0x1
 2648 0bca 57       		.byte	0x57
 2649 0bcb 26       		.uleb128 0x26
 2650 0bcc 737200   		.ascii	"sr\000"
 2651 0bcf 01       		.byte	0x1
 2652 0bd0 AD       		.byte	0xad
 2653 0bd1 62000000 		.4byte	0x62
 2654 0bd5 01       		.byte	0x1
 2655 0bd6 54       		.byte	0x54
 2656 0bd7 26       		.uleb128 0x26
 2657 0bd8 647200   		.ascii	"dr\000"
 2658 0bdb 01       		.byte	0x1
 2659 0bdc AE       		.byte	0xae
 2660 0bdd 62000000 		.4byte	0x62
 2661 0be1 01       		.byte	0x1
 2662 0be2 58       		.byte	0x58
ARM GAS  /tmp/ccG55p3J.s 			page 48


 2663 0be3 27       		.uleb128 0x27
 2664 0be4 DB0A0000 		.4byte	0xadb
 2665 0be8 1A000000 		.4byte	.LBB19
 2666 0bec 66000000 		.4byte	.LBE19
 2667 0bf0 01       		.byte	0x1
 2668 0bf1 B2       		.byte	0xb2
 2669 0bf2 460C0000 		.4byte	0xc46
 2670 0bf6 28       		.uleb128 0x28
 2671 0bf7 F30A0000 		.4byte	0xaf3
 2672 0bfb 84000000 		.4byte	.LLST5
 2673 0bff 28       		.uleb128 0x28
 2674 0c00 E80A0000 		.4byte	0xae8
 2675 0c04 97000000 		.4byte	.LLST6
 2676 0c08 29       		.uleb128 0x29
 2677 0c09 1A000000 		.4byte	.LBB20
 2678 0c0d 66000000 		.4byte	.LBE20
 2679 0c11 2A       		.uleb128 0x2a
 2680 0c12 FD0A0000 		.4byte	0xafd
 2681 0c16 B5000000 		.4byte	.LLST7
 2682 0c1a 2B       		.uleb128 0x2b
 2683 0c1b 42000000 		.4byte	.LBB21
 2684 0c1f 48000000 		.4byte	.LBE21
 2685 0c23 310C0000 		.4byte	0xc31
 2686 0c27 2A       		.uleb128 0x2a
 2687 0c28 0D0B0000 		.4byte	0xb0d
 2688 0c2c F5000000 		.4byte	.LLST8
 2689 0c30 00       		.byte	0x0
 2690 0c31 29       		.uleb128 0x29
 2691 0c32 60000000 		.4byte	.LBB22
 2692 0c36 66000000 		.4byte	.LBE22
 2693 0c3a 2A       		.uleb128 0x2a
 2694 0c3b 1A0B0000 		.4byte	0xb1a
 2695 0c3f 08010000 		.4byte	.LLST9
 2696 0c43 00       		.byte	0x0
 2697 0c44 00       		.byte	0x0
 2698 0c45 00       		.byte	0x0
 2699 0c46 2B       		.uleb128 0x2b
 2700 0c47 84000000 		.4byte	.LBB23
 2701 0c4b 8A000000 		.4byte	.LBE23
 2702 0c4f 630C0000 		.4byte	0xc63
 2703 0c53 25       		.uleb128 0x25
 2704 0c54 746D7000 		.ascii	"tmp\000"
 2705 0c58 01       		.byte	0x1
 2706 0c59 CF       		.byte	0xcf
 2707 0c5a 86000000 		.4byte	0x86
 2708 0c5e 3C010000 		.4byte	.LLST10
 2709 0c62 00       		.byte	0x0
 2710 0c63 2B       		.uleb128 0x2b
 2711 0c64 A2000000 		.4byte	.LBB24
 2712 0c68 A8000000 		.4byte	.LBE24
 2713 0c6c 800C0000 		.4byte	0xc80
 2714 0c70 25       		.uleb128 0x25
 2715 0c71 746D7000 		.ascii	"tmp\000"
 2716 0c75 01       		.byte	0x1
 2717 0c76 D1       		.byte	0xd1
 2718 0c77 86000000 		.4byte	0x86
 2719 0c7b 4F010000 		.4byte	.LLST11
ARM GAS  /tmp/ccG55p3J.s 			page 49


 2720 0c7f 00       		.byte	0x0
 2721 0c80 2B       		.uleb128 0x2b
 2722 0c81 C4000000 		.4byte	.LBB25
 2723 0c85 CA000000 		.4byte	.LBE25
 2724 0c89 9D0C0000 		.4byte	0xc9d
 2725 0c8d 25       		.uleb128 0x25
 2726 0c8e 746D7000 		.ascii	"tmp\000"
 2727 0c92 01       		.byte	0x1
 2728 0c93 BC       		.byte	0xbc
 2729 0c94 86000000 		.4byte	0x86
 2730 0c98 62010000 		.4byte	.LLST12
 2731 0c9c 00       		.byte	0x0
 2732 0c9d 2B       		.uleb128 0x2b
 2733 0c9e DC000000 		.4byte	.LBB26
 2734 0ca2 E4000000 		.4byte	.LBE26
 2735 0ca6 BA0C0000 		.4byte	0xcba
 2736 0caa 25       		.uleb128 0x25
 2737 0cab 746D7000 		.ascii	"tmp\000"
 2738 0caf 01       		.byte	0x1
 2739 0cb0 BE       		.byte	0xbe
 2740 0cb1 86000000 		.4byte	0x86
 2741 0cb5 75010000 		.4byte	.LLST13
 2742 0cb9 00       		.byte	0x0
 2743 0cba 2B       		.uleb128 0x2b
 2744 0cbb E4000000 		.4byte	.LBB27
 2745 0cbf EA000000 		.4byte	.LBE27
 2746 0cc3 D70C0000 		.4byte	0xcd7
 2747 0cc7 25       		.uleb128 0x25
 2748 0cc8 746D7000 		.ascii	"tmp\000"
 2749 0ccc 01       		.byte	0x1
 2750 0ccd B5       		.byte	0xb5
 2751 0cce 86000000 		.4byte	0x86
 2752 0cd2 A9010000 		.4byte	.LLST14
 2753 0cd6 00       		.byte	0x0
 2754 0cd7 2B       		.uleb128 0x2b
 2755 0cd8 02010000 		.4byte	.LBB28
 2756 0cdc 08010000 		.4byte	.LBE28
 2757 0ce0 F40C0000 		.4byte	0xcf4
 2758 0ce4 25       		.uleb128 0x25
 2759 0ce5 746D7000 		.ascii	"tmp\000"
 2760 0ce9 01       		.byte	0x1
 2761 0cea B7       		.byte	0xb7
 2762 0ceb 86000000 		.4byte	0x86
 2763 0cef BC010000 		.4byte	.LLST15
 2764 0cf3 00       		.byte	0x0
 2765 0cf4 29       		.uleb128 0x29
 2766 0cf5 18010000 		.4byte	.LBB29
 2767 0cf9 58010000 		.4byte	.LBE29
 2768 0cfd 25       		.uleb128 0x25
 2769 0cfe 6200     		.ascii	"b\000"
 2770 0d00 01       		.byte	0x1
 2771 0d01 C2       		.byte	0xc2
 2772 0d02 E8000000 		.4byte	0xe8
 2773 0d06 CF010000 		.4byte	.LLST16
 2774 0d0a 2B       		.uleb128 0x2b
 2775 0d0b 18010000 		.4byte	.LBB30
 2776 0d0f 1E010000 		.4byte	.LBE30
ARM GAS  /tmp/ccG55p3J.s 			page 50


 2777 0d13 270D0000 		.4byte	0xd27
 2778 0d17 25       		.uleb128 0x25
 2779 0d18 746D7000 		.ascii	"tmp\000"
 2780 0d1c 01       		.byte	0x1
 2781 0d1d C3       		.byte	0xc3
 2782 0d1e 86000000 		.4byte	0x86
 2783 0d22 ED010000 		.4byte	.LLST17
 2784 0d26 00       		.byte	0x0
 2785 0d27 29       		.uleb128 0x29
 2786 0d28 34010000 		.4byte	.LBB31
 2787 0d2c 3C010000 		.4byte	.LBE31
 2788 0d30 25       		.uleb128 0x25
 2789 0d31 746D7000 		.ascii	"tmp\000"
 2790 0d35 01       		.byte	0x1
 2791 0d36 CB       		.byte	0xcb
 2792 0d37 86000000 		.4byte	0x86
 2793 0d3b 00020000 		.4byte	.LLST18
 2794 0d3f 00       		.byte	0x0
 2795 0d40 00       		.byte	0x0
 2796 0d41 00       		.byte	0x0
 2797 0d42 2C       		.uleb128 0x2c
 2798 0d43 01       		.byte	0x1
 2799 0d44 17030000 		.4byte	.LASF173
 2800 0d48 01       		.byte	0x1
 2801 0d49 1201     		.2byte	0x112
 2802 0d4b 01       		.byte	0x1
 2803 0d4c 00000000 		.4byte	.LFB68
 2804 0d50 1C000000 		.4byte	.LFE68
 2805 0d54 29020000 		.4byte	.LLST19
 2806 0d58 2C       		.uleb128 0x2c
 2807 0d59 01       		.byte	0x1
 2808 0d5a 20030000 		.4byte	.LASF174
 2809 0d5e 01       		.byte	0x1
 2810 0d5f 2201     		.2byte	0x122
 2811 0d61 01       		.byte	0x1
 2812 0d62 00000000 		.4byte	.LFB69
 2813 0d66 1C000000 		.4byte	.LFE69
 2814 0d6a 49020000 		.4byte	.LLST20
 2815 0d6e 2C       		.uleb128 0x2c
 2816 0d6f 01       		.byte	0x1
 2817 0d70 72020000 		.4byte	.LASF175
 2818 0d74 01       		.byte	0x1
 2819 0d75 7501     		.2byte	0x175
 2820 0d77 01       		.byte	0x1
 2821 0d78 00000000 		.4byte	.LFB70
 2822 0d7c 3C000000 		.4byte	.LFE70
 2823 0d80 69020000 		.4byte	.LLST21
 2824 0d84 2D       		.uleb128 0x2d
 2825 0d85 01       		.byte	0x1
 2826 0d86 D4040000 		.4byte	.LASF176
 2827 0d8a 01       		.byte	0x1
 2828 0d8b A001     		.2byte	0x1a0
 2829 0d8d 01       		.byte	0x1
 2830 0d8e 00000000 		.4byte	.LFB71
 2831 0d92 90000000 		.4byte	.LFE71
 2832 0d96 89020000 		.4byte	.LLST22
 2833 0d9a E40D0000 		.4byte	0xde4
ARM GAS  /tmp/ccG55p3J.s 			page 51


 2834 0d9e 2E       		.uleb128 0x2e
 2835 0d9f 73647000 		.ascii	"sdp\000"
 2836 0da3 01       		.byte	0x1
 2837 0da4 A001     		.2byte	0x1a0
 2838 0da6 CA0A0000 		.4byte	0xaca
 2839 0daa A9020000 		.4byte	.LLST23
 2840 0dae 2F       		.uleb128 0x2f
 2841 0daf 18060000 		.4byte	.LASF166
 2842 0db3 01       		.byte	0x1
 2843 0db4 A001     		.2byte	0x1a0
 2844 0db6 D00A0000 		.4byte	0xad0
 2845 0dba C7020000 		.4byte	.LLST24
 2846 0dbe 30       		.uleb128 0x30
 2847 0dbf 9D0A0000 		.4byte	0xa9d
 2848 0dc3 12000000 		.4byte	.LBB32
 2849 0dc7 00000000 		.4byte	.Ldebug_ranges0+0x0
 2850 0dcb 01       		.byte	0x1
 2851 0dcc D101     		.2byte	0x1d1
 2852 0dce 31       		.uleb128 0x31
 2853 0dcf B50A0000 		.4byte	0xab5
 2854 0dd3 32       		.uleb128 0x32
 2855 0dd4 18000000 		.4byte	.Ldebug_ranges0+0x18
 2856 0dd8 2A       		.uleb128 0x2a
 2857 0dd9 C00A0000 		.4byte	0xac0
 2858 0ddd DA020000 		.4byte	.LLST25
 2859 0de1 00       		.byte	0x0
 2860 0de2 00       		.byte	0x0
 2861 0de3 00       		.byte	0x0
 2862 0de4 33       		.uleb128 0x33
 2863 0de5 01       		.byte	0x1
 2864 0de6 88070000 		.4byte	.LASF177
 2865 0dea 01       		.byte	0x1
 2866 0deb DD01     		.2byte	0x1dd
 2867 0ded 01       		.byte	0x1
 2868 0dee 00000000 		.4byte	.LFB72
 2869 0df2 4C000000 		.4byte	.LFE72
 2870 0df6 02       		.byte	0x2
 2871 0df7 7D       		.byte	0x7d
 2872 0df8 00       		.sleb128 0
 2873 0df9 280E0000 		.4byte	0xe28
 2874 0dfd 2E       		.uleb128 0x2e
 2875 0dfe 73647000 		.ascii	"sdp\000"
 2876 0e02 01       		.byte	0x1
 2877 0e03 DD01     		.2byte	0x1dd
 2878 0e05 CA0A0000 		.4byte	0xaca
 2879 0e09 EF020000 		.4byte	.LLST26
 2880 0e0d 30       		.uleb128 0x30
 2881 0e0e 270B0000 		.4byte	0xb27
 2882 0e12 0C000000 		.4byte	.LBB36
 2883 0e16 30000000 		.4byte	.Ldebug_ranges0+0x30
 2884 0e1a 01       		.byte	0x1
 2885 0e1b E001     		.2byte	0x1e0
 2886 0e1d 28       		.uleb128 0x28
 2887 0e1e 340B0000 		.4byte	0xb34
 2888 0e22 18030000 		.4byte	.LLST27
 2889 0e26 00       		.byte	0x0
 2890 0e27 00       		.byte	0x0
ARM GAS  /tmp/ccG55p3J.s 			page 52


 2891 0e28 34       		.uleb128 0x34
 2892 0e29 AE000000 		.4byte	.LASF178
 2893 0e2d 0F       		.byte	0xf
 2894 0e2e 9404     		.2byte	0x494
 2895 0e30 55070000 		.4byte	0x755
 2896 0e34 01       		.byte	0x1
 2897 0e35 01       		.byte	0x1
 2898 0e36 35       		.uleb128 0x35
 2899 0e37 53443100 		.ascii	"SD1\000"
 2900 0e3b 0E       		.byte	0xe
 2901 0e3c FB       		.byte	0xfb
 2902 0e3d 11090000 		.4byte	0x911
 2903 0e41 01       		.byte	0x1
 2904 0e42 01       		.byte	0x1
 2905 0e43 35       		.uleb128 0x35
 2906 0e44 53443200 		.ascii	"SD2\000"
 2907 0e48 0E       		.byte	0xe
 2908 0e49 FE       		.byte	0xfe
 2909 0e4a 11090000 		.4byte	0x911
 2910 0e4e 01       		.byte	0x1
 2911 0e4f 01       		.byte	0x1
 2912 0e50 36       		.uleb128 0x36
 2913 0e51 46010000 		.4byte	.LASF179
 2914 0e55 01       		.byte	0x1
 2915 0e56 50       		.byte	0x50
 2916 0e57 D60A0000 		.4byte	0xad6
 2917 0e5b 05       		.byte	0x5
 2918 0e5c 03       		.byte	0x3
 2919 0e5d 00000000 		.4byte	default_config
 2920 0e61 34       		.uleb128 0x34
 2921 0e62 AE000000 		.4byte	.LASF178
 2922 0e66 0F       		.byte	0xf
 2923 0e67 9404     		.2byte	0x494
 2924 0e69 55070000 		.4byte	0x755
 2925 0e6d 01       		.byte	0x1
 2926 0e6e 01       		.byte	0x1
 2927 0e6f 37       		.uleb128 0x37
 2928 0e70 53443100 		.ascii	"SD1\000"
 2929 0e74 01       		.byte	0x1
 2930 0e75 2F       		.byte	0x2f
 2931 0e76 11090000 		.4byte	0x911
 2932 0e7a 01       		.byte	0x1
 2933 0e7b 05       		.byte	0x5
 2934 0e7c 03       		.byte	0x3
 2935 0e7d 00000000 		.4byte	SD1
 2936 0e81 37       		.uleb128 0x37
 2937 0e82 53443200 		.ascii	"SD2\000"
 2938 0e86 01       		.byte	0x1
 2939 0e87 34       		.byte	0x34
 2940 0e88 11090000 		.4byte	0x911
 2941 0e8c 01       		.byte	0x1
 2942 0e8d 05       		.byte	0x5
 2943 0e8e 03       		.byte	0x3
 2944 0e8f 00000000 		.4byte	SD2
 2945 0e93 00       		.byte	0x0
 2946              		.section	.debug_abbrev
 2947 0000 01       		.uleb128 0x1
ARM GAS  /tmp/ccG55p3J.s 			page 53


 2948 0001 11       		.uleb128 0x11
 2949 0002 01       		.byte	0x1
 2950 0003 25       		.uleb128 0x25
 2951 0004 0E       		.uleb128 0xe
 2952 0005 13       		.uleb128 0x13
 2953 0006 0B       		.uleb128 0xb
 2954 0007 03       		.uleb128 0x3
 2955 0008 0E       		.uleb128 0xe
 2956 0009 1B       		.uleb128 0x1b
 2957 000a 0E       		.uleb128 0xe
 2958 000b 11       		.uleb128 0x11
 2959 000c 01       		.uleb128 0x1
 2960 000d 52       		.uleb128 0x52
 2961 000e 01       		.uleb128 0x1
 2962 000f 55       		.uleb128 0x55
 2963 0010 06       		.uleb128 0x6
 2964 0011 10       		.uleb128 0x10
 2965 0012 06       		.uleb128 0x6
 2966 0013 00       		.byte	0x0
 2967 0014 00       		.byte	0x0
 2968 0015 02       		.uleb128 0x2
 2969 0016 24       		.uleb128 0x24
 2970 0017 00       		.byte	0x0
 2971 0018 0B       		.uleb128 0xb
 2972 0019 0B       		.uleb128 0xb
 2973 001a 3E       		.uleb128 0x3e
 2974 001b 0B       		.uleb128 0xb
 2975 001c 03       		.uleb128 0x3
 2976 001d 08       		.uleb128 0x8
 2977 001e 00       		.byte	0x0
 2978 001f 00       		.byte	0x0
 2979 0020 03       		.uleb128 0x3
 2980 0021 16       		.uleb128 0x16
 2981 0022 00       		.byte	0x0
 2982 0023 03       		.uleb128 0x3
 2983 0024 0E       		.uleb128 0xe
 2984 0025 3A       		.uleb128 0x3a
 2985 0026 0B       		.uleb128 0xb
 2986 0027 3B       		.uleb128 0x3b
 2987 0028 0B       		.uleb128 0xb
 2988 0029 49       		.uleb128 0x49
 2989 002a 13       		.uleb128 0x13
 2990 002b 00       		.byte	0x0
 2991 002c 00       		.byte	0x0
 2992 002d 04       		.uleb128 0x4
 2993 002e 24       		.uleb128 0x24
 2994 002f 00       		.byte	0x0
 2995 0030 0B       		.uleb128 0xb
 2996 0031 0B       		.uleb128 0xb
 2997 0032 3E       		.uleb128 0x3e
 2998 0033 0B       		.uleb128 0xb
 2999 0034 03       		.uleb128 0x3
 3000 0035 0E       		.uleb128 0xe
 3001 0036 00       		.byte	0x0
 3002 0037 00       		.byte	0x0
 3003 0038 05       		.uleb128 0x5
 3004 0039 13       		.uleb128 0x13
ARM GAS  /tmp/ccG55p3J.s 			page 54


 3005 003a 01       		.byte	0x1
 3006 003b 03       		.uleb128 0x3
 3007 003c 0E       		.uleb128 0xe
 3008 003d 0B       		.uleb128 0xb
 3009 003e 0B       		.uleb128 0xb
 3010 003f 3A       		.uleb128 0x3a
 3011 0040 0B       		.uleb128 0xb
 3012 0041 3B       		.uleb128 0x3b
 3013 0042 0B       		.uleb128 0xb
 3014 0043 01       		.uleb128 0x1
 3015 0044 13       		.uleb128 0x13
 3016 0045 00       		.byte	0x0
 3017 0046 00       		.byte	0x0
 3018 0047 06       		.uleb128 0x6
 3019 0048 0D       		.uleb128 0xd
 3020 0049 00       		.byte	0x0
 3021 004a 03       		.uleb128 0x3
 3022 004b 0E       		.uleb128 0xe
 3023 004c 3A       		.uleb128 0x3a
 3024 004d 0B       		.uleb128 0xb
 3025 004e 3B       		.uleb128 0x3b
 3026 004f 0B       		.uleb128 0xb
 3027 0050 49       		.uleb128 0x49
 3028 0051 13       		.uleb128 0x13
 3029 0052 38       		.uleb128 0x38
 3030 0053 0A       		.uleb128 0xa
 3031 0054 00       		.byte	0x0
 3032 0055 00       		.byte	0x0
 3033 0056 07       		.uleb128 0x7
 3034 0057 0D       		.uleb128 0xd
 3035 0058 00       		.byte	0x0
 3036 0059 03       		.uleb128 0x3
 3037 005a 08       		.uleb128 0x8
 3038 005b 3A       		.uleb128 0x3a
 3039 005c 0B       		.uleb128 0xb
 3040 005d 3B       		.uleb128 0x3b
 3041 005e 0B       		.uleb128 0xb
 3042 005f 49       		.uleb128 0x49
 3043 0060 13       		.uleb128 0x13
 3044 0061 38       		.uleb128 0x38
 3045 0062 0A       		.uleb128 0xa
 3046 0063 00       		.byte	0x0
 3047 0064 00       		.byte	0x0
 3048 0065 08       		.uleb128 0x8
 3049 0066 13       		.uleb128 0x13
 3050 0067 01       		.byte	0x1
 3051 0068 0B       		.uleb128 0xb
 3052 0069 0B       		.uleb128 0xb
 3053 006a 3A       		.uleb128 0x3a
 3054 006b 0B       		.uleb128 0xb
 3055 006c 3B       		.uleb128 0x3b
 3056 006d 0B       		.uleb128 0xb
 3057 006e 01       		.uleb128 0x1
 3058 006f 13       		.uleb128 0x13
 3059 0070 00       		.byte	0x0
 3060 0071 00       		.byte	0x0
 3061 0072 09       		.uleb128 0x9
ARM GAS  /tmp/ccG55p3J.s 			page 55


 3062 0073 0F       		.uleb128 0xf
 3063 0074 00       		.byte	0x0
 3064 0075 0B       		.uleb128 0xb
 3065 0076 0B       		.uleb128 0xb
 3066 0077 49       		.uleb128 0x49
 3067 0078 13       		.uleb128 0x13
 3068 0079 00       		.byte	0x0
 3069 007a 00       		.byte	0x0
 3070 007b 0A       		.uleb128 0xa
 3071 007c 0F       		.uleb128 0xf
 3072 007d 00       		.byte	0x0
 3073 007e 0B       		.uleb128 0xb
 3074 007f 0B       		.uleb128 0xb
 3075 0080 00       		.byte	0x0
 3076 0081 00       		.byte	0x0
 3077 0082 0B       		.uleb128 0xb
 3078 0083 0D       		.uleb128 0xd
 3079 0084 00       		.byte	0x0
 3080 0085 03       		.uleb128 0x3
 3081 0086 08       		.uleb128 0x8
 3082 0087 3A       		.uleb128 0x3a
 3083 0088 0B       		.uleb128 0xb
 3084 0089 3B       		.uleb128 0x3b
 3085 008a 05       		.uleb128 0x5
 3086 008b 49       		.uleb128 0x49
 3087 008c 13       		.uleb128 0x13
 3088 008d 38       		.uleb128 0x38
 3089 008e 0A       		.uleb128 0xa
 3090 008f 00       		.byte	0x0
 3091 0090 00       		.byte	0x0
 3092 0091 0C       		.uleb128 0xc
 3093 0092 13       		.uleb128 0x13
 3094 0093 01       		.byte	0x1
 3095 0094 03       		.uleb128 0x3
 3096 0095 0E       		.uleb128 0xe
 3097 0096 0B       		.uleb128 0xb
 3098 0097 0B       		.uleb128 0xb
 3099 0098 3A       		.uleb128 0x3a
 3100 0099 0B       		.uleb128 0xb
 3101 009a 3B       		.uleb128 0x3b
 3102 009b 05       		.uleb128 0x5
 3103 009c 01       		.uleb128 0x1
 3104 009d 13       		.uleb128 0x13
 3105 009e 00       		.byte	0x0
 3106 009f 00       		.byte	0x0
 3107 00a0 0D       		.uleb128 0xd
 3108 00a1 35       		.uleb128 0x35
 3109 00a2 00       		.byte	0x0
 3110 00a3 49       		.uleb128 0x49
 3111 00a4 13       		.uleb128 0x13
 3112 00a5 00       		.byte	0x0
 3113 00a6 00       		.byte	0x0
 3114 00a7 0E       		.uleb128 0xe
 3115 00a8 17       		.uleb128 0x17
 3116 00a9 01       		.byte	0x1
 3117 00aa 0B       		.uleb128 0xb
 3118 00ab 0B       		.uleb128 0xb
ARM GAS  /tmp/ccG55p3J.s 			page 56


 3119 00ac 3A       		.uleb128 0x3a
 3120 00ad 0B       		.uleb128 0xb
 3121 00ae 3B       		.uleb128 0x3b
 3122 00af 0B       		.uleb128 0xb
 3123 00b0 01       		.uleb128 0x1
 3124 00b1 13       		.uleb128 0x13
 3125 00b2 00       		.byte	0x0
 3126 00b3 00       		.byte	0x0
 3127 00b4 0F       		.uleb128 0xf
 3128 00b5 0D       		.uleb128 0xd
 3129 00b6 00       		.byte	0x0
 3130 00b7 03       		.uleb128 0x3
 3131 00b8 0E       		.uleb128 0xe
 3132 00b9 3A       		.uleb128 0x3a
 3133 00ba 0B       		.uleb128 0xb
 3134 00bb 3B       		.uleb128 0x3b
 3135 00bc 0B       		.uleb128 0xb
 3136 00bd 49       		.uleb128 0x49
 3137 00be 13       		.uleb128 0x13
 3138 00bf 00       		.byte	0x0
 3139 00c0 00       		.byte	0x0
 3140 00c1 10       		.uleb128 0x10
 3141 00c2 26       		.uleb128 0x26
 3142 00c3 00       		.byte	0x0
 3143 00c4 49       		.uleb128 0x49
 3144 00c5 13       		.uleb128 0x13
 3145 00c6 00       		.byte	0x0
 3146 00c7 00       		.byte	0x0
 3147 00c8 11       		.uleb128 0x11
 3148 00c9 15       		.uleb128 0x15
 3149 00ca 01       		.byte	0x1
 3150 00cb 27       		.uleb128 0x27
 3151 00cc 0C       		.uleb128 0xc
 3152 00cd 01       		.uleb128 0x1
 3153 00ce 13       		.uleb128 0x13
 3154 00cf 00       		.byte	0x0
 3155 00d0 00       		.byte	0x0
 3156 00d1 12       		.uleb128 0x12
 3157 00d2 05       		.uleb128 0x5
 3158 00d3 00       		.byte	0x0
 3159 00d4 49       		.uleb128 0x49
 3160 00d5 13       		.uleb128 0x13
 3161 00d6 00       		.byte	0x0
 3162 00d7 00       		.byte	0x0
 3163 00d8 13       		.uleb128 0x13
 3164 00d9 15       		.uleb128 0x15
 3165 00da 01       		.byte	0x1
 3166 00db 27       		.uleb128 0x27
 3167 00dc 0C       		.uleb128 0xc
 3168 00dd 49       		.uleb128 0x49
 3169 00de 13       		.uleb128 0x13
 3170 00df 01       		.uleb128 0x1
 3171 00e0 13       		.uleb128 0x13
 3172 00e1 00       		.byte	0x0
 3173 00e2 00       		.byte	0x0
 3174 00e3 14       		.uleb128 0x14
 3175 00e4 16       		.uleb128 0x16
ARM GAS  /tmp/ccG55p3J.s 			page 57


 3176 00e5 00       		.byte	0x0
 3177 00e6 03       		.uleb128 0x3
 3178 00e7 0E       		.uleb128 0xe
 3179 00e8 3A       		.uleb128 0x3a
 3180 00e9 0B       		.uleb128 0xb
 3181 00ea 3B       		.uleb128 0x3b
 3182 00eb 05       		.uleb128 0x5
 3183 00ec 49       		.uleb128 0x49
 3184 00ed 13       		.uleb128 0x13
 3185 00ee 00       		.byte	0x0
 3186 00ef 00       		.byte	0x0
 3187 00f0 15       		.uleb128 0x15
 3188 00f1 04       		.uleb128 0x4
 3189 00f2 01       		.byte	0x1
 3190 00f3 03       		.uleb128 0x3
 3191 00f4 0E       		.uleb128 0xe
 3192 00f5 0B       		.uleb128 0xb
 3193 00f6 0B       		.uleb128 0xb
 3194 00f7 3A       		.uleb128 0x3a
 3195 00f8 0B       		.uleb128 0xb
 3196 00f9 3B       		.uleb128 0x3b
 3197 00fa 0B       		.uleb128 0xb
 3198 00fb 01       		.uleb128 0x1
 3199 00fc 13       		.uleb128 0x13
 3200 00fd 00       		.byte	0x0
 3201 00fe 00       		.byte	0x0
 3202 00ff 16       		.uleb128 0x16
 3203 0100 28       		.uleb128 0x28
 3204 0101 00       		.byte	0x0
 3205 0102 03       		.uleb128 0x3
 3206 0103 0E       		.uleb128 0xe
 3207 0104 1C       		.uleb128 0x1c
 3208 0105 0D       		.uleb128 0xd
 3209 0106 00       		.byte	0x0
 3210 0107 00       		.byte	0x0
 3211 0108 17       		.uleb128 0x17
 3212 0109 13       		.uleb128 0x13
 3213 010a 01       		.byte	0x1
 3214 010b 0B       		.uleb128 0xb
 3215 010c 0B       		.uleb128 0xb
 3216 010d 3A       		.uleb128 0x3a
 3217 010e 0B       		.uleb128 0xb
 3218 010f 3B       		.uleb128 0x3b
 3219 0110 05       		.uleb128 0x5
 3220 0111 01       		.uleb128 0x1
 3221 0112 13       		.uleb128 0x13
 3222 0113 00       		.byte	0x0
 3223 0114 00       		.byte	0x0
 3224 0115 18       		.uleb128 0x18
 3225 0116 0D       		.uleb128 0xd
 3226 0117 00       		.byte	0x0
 3227 0118 03       		.uleb128 0x3
 3228 0119 0E       		.uleb128 0xe
 3229 011a 3A       		.uleb128 0x3a
 3230 011b 0B       		.uleb128 0xb
 3231 011c 3B       		.uleb128 0x3b
 3232 011d 05       		.uleb128 0x5
ARM GAS  /tmp/ccG55p3J.s 			page 58


 3233 011e 49       		.uleb128 0x49
 3234 011f 13       		.uleb128 0x13
 3235 0120 38       		.uleb128 0x38
 3236 0121 0A       		.uleb128 0xa
 3237 0122 00       		.byte	0x0
 3238 0123 00       		.byte	0x0
 3239 0124 19       		.uleb128 0x19
 3240 0125 04       		.uleb128 0x4
 3241 0126 01       		.byte	0x1
 3242 0127 0B       		.uleb128 0xb
 3243 0128 0B       		.uleb128 0xb
 3244 0129 3A       		.uleb128 0x3a
 3245 012a 0B       		.uleb128 0xb
 3246 012b 3B       		.uleb128 0x3b
 3247 012c 0B       		.uleb128 0xb
 3248 012d 01       		.uleb128 0x1
 3249 012e 13       		.uleb128 0x13
 3250 012f 00       		.byte	0x0
 3251 0130 00       		.byte	0x0
 3252 0131 1A       		.uleb128 0x1a
 3253 0132 01       		.uleb128 0x1
 3254 0133 01       		.byte	0x1
 3255 0134 49       		.uleb128 0x49
 3256 0135 13       		.uleb128 0x13
 3257 0136 01       		.uleb128 0x1
 3258 0137 13       		.uleb128 0x13
 3259 0138 00       		.byte	0x0
 3260 0139 00       		.byte	0x0
 3261 013a 1B       		.uleb128 0x1b
 3262 013b 21       		.uleb128 0x21
 3263 013c 00       		.byte	0x0
 3264 013d 49       		.uleb128 0x49
 3265 013e 13       		.uleb128 0x13
 3266 013f 2F       		.uleb128 0x2f
 3267 0140 0B       		.uleb128 0xb
 3268 0141 00       		.byte	0x0
 3269 0142 00       		.byte	0x0
 3270 0143 1C       		.uleb128 0x1c
 3271 0144 2E       		.uleb128 0x2e
 3272 0145 01       		.byte	0x1
 3273 0146 03       		.uleb128 0x3
 3274 0147 0E       		.uleb128 0xe
 3275 0148 3A       		.uleb128 0x3a
 3276 0149 0B       		.uleb128 0xb
 3277 014a 3B       		.uleb128 0x3b
 3278 014b 0B       		.uleb128 0xb
 3279 014c 27       		.uleb128 0x27
 3280 014d 0C       		.uleb128 0xc
 3281 014e 20       		.uleb128 0x20
 3282 014f 0B       		.uleb128 0xb
 3283 0150 01       		.uleb128 0x1
 3284 0151 13       		.uleb128 0x13
 3285 0152 00       		.byte	0x0
 3286 0153 00       		.byte	0x0
 3287 0154 1D       		.uleb128 0x1d
 3288 0155 05       		.uleb128 0x5
 3289 0156 00       		.byte	0x0
ARM GAS  /tmp/ccG55p3J.s 			page 59


 3290 0157 03       		.uleb128 0x3
 3291 0158 08       		.uleb128 0x8
 3292 0159 3A       		.uleb128 0x3a
 3293 015a 0B       		.uleb128 0xb
 3294 015b 3B       		.uleb128 0x3b
 3295 015c 0B       		.uleb128 0xb
 3296 015d 49       		.uleb128 0x49
 3297 015e 13       		.uleb128 0x13
 3298 015f 00       		.byte	0x0
 3299 0160 00       		.byte	0x0
 3300 0161 1E       		.uleb128 0x1e
 3301 0162 05       		.uleb128 0x5
 3302 0163 00       		.byte	0x0
 3303 0164 03       		.uleb128 0x3
 3304 0165 0E       		.uleb128 0xe
 3305 0166 3A       		.uleb128 0x3a
 3306 0167 0B       		.uleb128 0xb
 3307 0168 3B       		.uleb128 0x3b
 3308 0169 0B       		.uleb128 0xb
 3309 016a 49       		.uleb128 0x49
 3310 016b 13       		.uleb128 0x13
 3311 016c 00       		.byte	0x0
 3312 016d 00       		.byte	0x0
 3313 016e 1F       		.uleb128 0x1f
 3314 016f 34       		.uleb128 0x34
 3315 0170 00       		.byte	0x0
 3316 0171 03       		.uleb128 0x3
 3317 0172 08       		.uleb128 0x8
 3318 0173 3A       		.uleb128 0x3a
 3319 0174 0B       		.uleb128 0xb
 3320 0175 3B       		.uleb128 0x3b
 3321 0176 0B       		.uleb128 0xb
 3322 0177 49       		.uleb128 0x49
 3323 0178 13       		.uleb128 0x13
 3324 0179 00       		.byte	0x0
 3325 017a 00       		.byte	0x0
 3326 017b 20       		.uleb128 0x20
 3327 017c 0B       		.uleb128 0xb
 3328 017d 01       		.byte	0x1
 3329 017e 01       		.uleb128 0x1
 3330 017f 13       		.uleb128 0x13
 3331 0180 00       		.byte	0x0
 3332 0181 00       		.byte	0x0
 3333 0182 21       		.uleb128 0x21
 3334 0183 0B       		.uleb128 0xb
 3335 0184 01       		.byte	0x1
 3336 0185 00       		.byte	0x0
 3337 0186 00       		.byte	0x0
 3338 0187 22       		.uleb128 0x22
 3339 0188 2E       		.uleb128 0x2e
 3340 0189 01       		.byte	0x1
 3341 018a 03       		.uleb128 0x3
 3342 018b 0E       		.uleb128 0xe
 3343 018c 3A       		.uleb128 0x3a
 3344 018d 0B       		.uleb128 0xb
 3345 018e 3B       		.uleb128 0x3b
 3346 018f 0B       		.uleb128 0xb
ARM GAS  /tmp/ccG55p3J.s 			page 60


 3347 0190 27       		.uleb128 0x27
 3348 0191 0C       		.uleb128 0xc
 3349 0192 11       		.uleb128 0x11
 3350 0193 01       		.uleb128 0x1
 3351 0194 12       		.uleb128 0x12
 3352 0195 01       		.uleb128 0x1
 3353 0196 40       		.uleb128 0x40
 3354 0197 0A       		.uleb128 0xa
 3355 0198 01       		.uleb128 0x1
 3356 0199 13       		.uleb128 0x13
 3357 019a 00       		.byte	0x0
 3358 019b 00       		.byte	0x0
 3359 019c 23       		.uleb128 0x23
 3360 019d 05       		.uleb128 0x5
 3361 019e 00       		.byte	0x0
 3362 019f 03       		.uleb128 0x3
 3363 01a0 08       		.uleb128 0x8
 3364 01a1 3A       		.uleb128 0x3a
 3365 01a2 0B       		.uleb128 0xb
 3366 01a3 3B       		.uleb128 0x3b
 3367 01a4 0B       		.uleb128 0xb
 3368 01a5 49       		.uleb128 0x49
 3369 01a6 13       		.uleb128 0x13
 3370 01a7 02       		.uleb128 0x2
 3371 01a8 06       		.uleb128 0x6
 3372 01a9 00       		.byte	0x0
 3373 01aa 00       		.byte	0x0
 3374 01ab 24       		.uleb128 0x24
 3375 01ac 2E       		.uleb128 0x2e
 3376 01ad 01       		.byte	0x1
 3377 01ae 03       		.uleb128 0x3
 3378 01af 0E       		.uleb128 0xe
 3379 01b0 3A       		.uleb128 0x3a
 3380 01b1 0B       		.uleb128 0xb
 3381 01b2 3B       		.uleb128 0x3b
 3382 01b3 0B       		.uleb128 0xb
 3383 01b4 27       		.uleb128 0x27
 3384 01b5 0C       		.uleb128 0xc
 3385 01b6 11       		.uleb128 0x11
 3386 01b7 01       		.uleb128 0x1
 3387 01b8 12       		.uleb128 0x12
 3388 01b9 01       		.uleb128 0x1
 3389 01ba 40       		.uleb128 0x40
 3390 01bb 06       		.uleb128 0x6
 3391 01bc 01       		.uleb128 0x1
 3392 01bd 13       		.uleb128 0x13
 3393 01be 00       		.byte	0x0
 3394 01bf 00       		.byte	0x0
 3395 01c0 25       		.uleb128 0x25
 3396 01c1 34       		.uleb128 0x34
 3397 01c2 00       		.byte	0x0
 3398 01c3 03       		.uleb128 0x3
 3399 01c4 08       		.uleb128 0x8
 3400 01c5 3A       		.uleb128 0x3a
 3401 01c6 0B       		.uleb128 0xb
 3402 01c7 3B       		.uleb128 0x3b
 3403 01c8 0B       		.uleb128 0xb
ARM GAS  /tmp/ccG55p3J.s 			page 61


 3404 01c9 49       		.uleb128 0x49
 3405 01ca 13       		.uleb128 0x13
 3406 01cb 02       		.uleb128 0x2
 3407 01cc 06       		.uleb128 0x6
 3408 01cd 00       		.byte	0x0
 3409 01ce 00       		.byte	0x0
 3410 01cf 26       		.uleb128 0x26
 3411 01d0 34       		.uleb128 0x34
 3412 01d1 00       		.byte	0x0
 3413 01d2 03       		.uleb128 0x3
 3414 01d3 08       		.uleb128 0x8
 3415 01d4 3A       		.uleb128 0x3a
 3416 01d5 0B       		.uleb128 0xb
 3417 01d6 3B       		.uleb128 0x3b
 3418 01d7 0B       		.uleb128 0xb
 3419 01d8 49       		.uleb128 0x49
 3420 01d9 13       		.uleb128 0x13
 3421 01da 02       		.uleb128 0x2
 3422 01db 0A       		.uleb128 0xa
 3423 01dc 00       		.byte	0x0
 3424 01dd 00       		.byte	0x0
 3425 01de 27       		.uleb128 0x27
 3426 01df 1D       		.uleb128 0x1d
 3427 01e0 01       		.byte	0x1
 3428 01e1 31       		.uleb128 0x31
 3429 01e2 13       		.uleb128 0x13
 3430 01e3 11       		.uleb128 0x11
 3431 01e4 01       		.uleb128 0x1
 3432 01e5 12       		.uleb128 0x12
 3433 01e6 01       		.uleb128 0x1
 3434 01e7 58       		.uleb128 0x58
 3435 01e8 0B       		.uleb128 0xb
 3436 01e9 59       		.uleb128 0x59
 3437 01ea 0B       		.uleb128 0xb
 3438 01eb 01       		.uleb128 0x1
 3439 01ec 13       		.uleb128 0x13
 3440 01ed 00       		.byte	0x0
 3441 01ee 00       		.byte	0x0
 3442 01ef 28       		.uleb128 0x28
 3443 01f0 05       		.uleb128 0x5
 3444 01f1 00       		.byte	0x0
 3445 01f2 31       		.uleb128 0x31
 3446 01f3 13       		.uleb128 0x13
 3447 01f4 02       		.uleb128 0x2
 3448 01f5 06       		.uleb128 0x6
 3449 01f6 00       		.byte	0x0
 3450 01f7 00       		.byte	0x0
 3451 01f8 29       		.uleb128 0x29
 3452 01f9 0B       		.uleb128 0xb
 3453 01fa 01       		.byte	0x1
 3454 01fb 11       		.uleb128 0x11
 3455 01fc 01       		.uleb128 0x1
 3456 01fd 12       		.uleb128 0x12
 3457 01fe 01       		.uleb128 0x1
 3458 01ff 00       		.byte	0x0
 3459 0200 00       		.byte	0x0
 3460 0201 2A       		.uleb128 0x2a
ARM GAS  /tmp/ccG55p3J.s 			page 62


 3461 0202 34       		.uleb128 0x34
 3462 0203 00       		.byte	0x0
 3463 0204 31       		.uleb128 0x31
 3464 0205 13       		.uleb128 0x13
 3465 0206 02       		.uleb128 0x2
 3466 0207 06       		.uleb128 0x6
 3467 0208 00       		.byte	0x0
 3468 0209 00       		.byte	0x0
 3469 020a 2B       		.uleb128 0x2b
 3470 020b 0B       		.uleb128 0xb
 3471 020c 01       		.byte	0x1
 3472 020d 11       		.uleb128 0x11
 3473 020e 01       		.uleb128 0x1
 3474 020f 12       		.uleb128 0x12
 3475 0210 01       		.uleb128 0x1
 3476 0211 01       		.uleb128 0x1
 3477 0212 13       		.uleb128 0x13
 3478 0213 00       		.byte	0x0
 3479 0214 00       		.byte	0x0
 3480 0215 2C       		.uleb128 0x2c
 3481 0216 2E       		.uleb128 0x2e
 3482 0217 00       		.byte	0x0
 3483 0218 3F       		.uleb128 0x3f
 3484 0219 0C       		.uleb128 0xc
 3485 021a 03       		.uleb128 0x3
 3486 021b 0E       		.uleb128 0xe
 3487 021c 3A       		.uleb128 0x3a
 3488 021d 0B       		.uleb128 0xb
 3489 021e 3B       		.uleb128 0x3b
 3490 021f 05       		.uleb128 0x5
 3491 0220 27       		.uleb128 0x27
 3492 0221 0C       		.uleb128 0xc
 3493 0222 11       		.uleb128 0x11
 3494 0223 01       		.uleb128 0x1
 3495 0224 12       		.uleb128 0x12
 3496 0225 01       		.uleb128 0x1
 3497 0226 40       		.uleb128 0x40
 3498 0227 06       		.uleb128 0x6
 3499 0228 00       		.byte	0x0
 3500 0229 00       		.byte	0x0
 3501 022a 2D       		.uleb128 0x2d
 3502 022b 2E       		.uleb128 0x2e
 3503 022c 01       		.byte	0x1
 3504 022d 3F       		.uleb128 0x3f
 3505 022e 0C       		.uleb128 0xc
 3506 022f 03       		.uleb128 0x3
 3507 0230 0E       		.uleb128 0xe
 3508 0231 3A       		.uleb128 0x3a
 3509 0232 0B       		.uleb128 0xb
 3510 0233 3B       		.uleb128 0x3b
 3511 0234 05       		.uleb128 0x5
 3512 0235 27       		.uleb128 0x27
 3513 0236 0C       		.uleb128 0xc
 3514 0237 11       		.uleb128 0x11
 3515 0238 01       		.uleb128 0x1
 3516 0239 12       		.uleb128 0x12
 3517 023a 01       		.uleb128 0x1
ARM GAS  /tmp/ccG55p3J.s 			page 63


 3518 023b 40       		.uleb128 0x40
 3519 023c 06       		.uleb128 0x6
 3520 023d 01       		.uleb128 0x1
 3521 023e 13       		.uleb128 0x13
 3522 023f 00       		.byte	0x0
 3523 0240 00       		.byte	0x0
 3524 0241 2E       		.uleb128 0x2e
 3525 0242 05       		.uleb128 0x5
 3526 0243 00       		.byte	0x0
 3527 0244 03       		.uleb128 0x3
 3528 0245 08       		.uleb128 0x8
 3529 0246 3A       		.uleb128 0x3a
 3530 0247 0B       		.uleb128 0xb
 3531 0248 3B       		.uleb128 0x3b
 3532 0249 05       		.uleb128 0x5
 3533 024a 49       		.uleb128 0x49
 3534 024b 13       		.uleb128 0x13
 3535 024c 02       		.uleb128 0x2
 3536 024d 06       		.uleb128 0x6
 3537 024e 00       		.byte	0x0
 3538 024f 00       		.byte	0x0
 3539 0250 2F       		.uleb128 0x2f
 3540 0251 05       		.uleb128 0x5
 3541 0252 00       		.byte	0x0
 3542 0253 03       		.uleb128 0x3
 3543 0254 0E       		.uleb128 0xe
 3544 0255 3A       		.uleb128 0x3a
 3545 0256 0B       		.uleb128 0xb
 3546 0257 3B       		.uleb128 0x3b
 3547 0258 05       		.uleb128 0x5
 3548 0259 49       		.uleb128 0x49
 3549 025a 13       		.uleb128 0x13
 3550 025b 02       		.uleb128 0x2
 3551 025c 06       		.uleb128 0x6
 3552 025d 00       		.byte	0x0
 3553 025e 00       		.byte	0x0
 3554 025f 30       		.uleb128 0x30
 3555 0260 1D       		.uleb128 0x1d
 3556 0261 01       		.byte	0x1
 3557 0262 31       		.uleb128 0x31
 3558 0263 13       		.uleb128 0x13
 3559 0264 52       		.uleb128 0x52
 3560 0265 01       		.uleb128 0x1
 3561 0266 55       		.uleb128 0x55
 3562 0267 06       		.uleb128 0x6
 3563 0268 58       		.uleb128 0x58
 3564 0269 0B       		.uleb128 0xb
 3565 026a 59       		.uleb128 0x59
 3566 026b 05       		.uleb128 0x5
 3567 026c 00       		.byte	0x0
 3568 026d 00       		.byte	0x0
 3569 026e 31       		.uleb128 0x31
 3570 026f 05       		.uleb128 0x5
 3571 0270 00       		.byte	0x0
 3572 0271 31       		.uleb128 0x31
 3573 0272 13       		.uleb128 0x13
 3574 0273 00       		.byte	0x0
ARM GAS  /tmp/ccG55p3J.s 			page 64


 3575 0274 00       		.byte	0x0
 3576 0275 32       		.uleb128 0x32
 3577 0276 0B       		.uleb128 0xb
 3578 0277 01       		.byte	0x1
 3579 0278 55       		.uleb128 0x55
 3580 0279 06       		.uleb128 0x6
 3581 027a 00       		.byte	0x0
 3582 027b 00       		.byte	0x0
 3583 027c 33       		.uleb128 0x33
 3584 027d 2E       		.uleb128 0x2e
 3585 027e 01       		.byte	0x1
 3586 027f 3F       		.uleb128 0x3f
 3587 0280 0C       		.uleb128 0xc
 3588 0281 03       		.uleb128 0x3
 3589 0282 0E       		.uleb128 0xe
 3590 0283 3A       		.uleb128 0x3a
 3591 0284 0B       		.uleb128 0xb
 3592 0285 3B       		.uleb128 0x3b
 3593 0286 05       		.uleb128 0x5
 3594 0287 27       		.uleb128 0x27
 3595 0288 0C       		.uleb128 0xc
 3596 0289 11       		.uleb128 0x11
 3597 028a 01       		.uleb128 0x1
 3598 028b 12       		.uleb128 0x12
 3599 028c 01       		.uleb128 0x1
 3600 028d 40       		.uleb128 0x40
 3601 028e 0A       		.uleb128 0xa
 3602 028f 01       		.uleb128 0x1
 3603 0290 13       		.uleb128 0x13
 3604 0291 00       		.byte	0x0
 3605 0292 00       		.byte	0x0
 3606 0293 34       		.uleb128 0x34
 3607 0294 34       		.uleb128 0x34
 3608 0295 00       		.byte	0x0
 3609 0296 03       		.uleb128 0x3
 3610 0297 0E       		.uleb128 0xe
 3611 0298 3A       		.uleb128 0x3a
 3612 0299 0B       		.uleb128 0xb
 3613 029a 3B       		.uleb128 0x3b
 3614 029b 05       		.uleb128 0x5
 3615 029c 49       		.uleb128 0x49
 3616 029d 13       		.uleb128 0x13
 3617 029e 3F       		.uleb128 0x3f
 3618 029f 0C       		.uleb128 0xc
 3619 02a0 3C       		.uleb128 0x3c
 3620 02a1 0C       		.uleb128 0xc
 3621 02a2 00       		.byte	0x0
 3622 02a3 00       		.byte	0x0
 3623 02a4 35       		.uleb128 0x35
 3624 02a5 34       		.uleb128 0x34
 3625 02a6 00       		.byte	0x0
 3626 02a7 03       		.uleb128 0x3
 3627 02a8 08       		.uleb128 0x8
 3628 02a9 3A       		.uleb128 0x3a
 3629 02aa 0B       		.uleb128 0xb
 3630 02ab 3B       		.uleb128 0x3b
 3631 02ac 0B       		.uleb128 0xb
ARM GAS  /tmp/ccG55p3J.s 			page 65


 3632 02ad 49       		.uleb128 0x49
 3633 02ae 13       		.uleb128 0x13
 3634 02af 3F       		.uleb128 0x3f
 3635 02b0 0C       		.uleb128 0xc
 3636 02b1 3C       		.uleb128 0x3c
 3637 02b2 0C       		.uleb128 0xc
 3638 02b3 00       		.byte	0x0
 3639 02b4 00       		.byte	0x0
 3640 02b5 36       		.uleb128 0x36
 3641 02b6 34       		.uleb128 0x34
 3642 02b7 00       		.byte	0x0
 3643 02b8 03       		.uleb128 0x3
 3644 02b9 0E       		.uleb128 0xe
 3645 02ba 3A       		.uleb128 0x3a
 3646 02bb 0B       		.uleb128 0xb
 3647 02bc 3B       		.uleb128 0x3b
 3648 02bd 0B       		.uleb128 0xb
 3649 02be 49       		.uleb128 0x49
 3650 02bf 13       		.uleb128 0x13
 3651 02c0 02       		.uleb128 0x2
 3652 02c1 0A       		.uleb128 0xa
 3653 02c2 00       		.byte	0x0
 3654 02c3 00       		.byte	0x0
 3655 02c4 37       		.uleb128 0x37
 3656 02c5 34       		.uleb128 0x34
 3657 02c6 00       		.byte	0x0
 3658 02c7 03       		.uleb128 0x3
 3659 02c8 08       		.uleb128 0x8
 3660 02c9 3A       		.uleb128 0x3a
 3661 02ca 0B       		.uleb128 0xb
 3662 02cb 3B       		.uleb128 0x3b
 3663 02cc 0B       		.uleb128 0xb
 3664 02cd 49       		.uleb128 0x49
 3665 02ce 13       		.uleb128 0x13
 3666 02cf 3F       		.uleb128 0x3f
 3667 02d0 0C       		.uleb128 0xc
 3668 02d1 02       		.uleb128 0x2
 3669 02d2 0A       		.uleb128 0xa
 3670 02d3 00       		.byte	0x0
 3671 02d4 00       		.byte	0x0
 3672 02d5 00       		.byte	0x0
 3673              		.section	.debug_pubnames,"",%progbits
 3674 0000 69000000 		.4byte	0x69
 3675 0004 0200     		.2byte	0x2
 3676 0006 00000000 		.4byte	.Ldebug_info0
 3677 000a 940E0000 		.4byte	0xe94
 3678 000e 420D0000 		.4byte	0xd42
 3679 0012 56656374 		.ascii	"VectorD4\000"
 3679      6F724434 
 3679      00
 3680 001b 580D0000 		.4byte	0xd58
 3681 001f 56656374 		.ascii	"VectorD8\000"
 3681      6F724438 
 3681      00
 3682 0028 6E0D0000 		.4byte	0xd6e
 3683 002c 73645F6C 		.ascii	"sd_lld_init\000"
 3683      6C645F69 
ARM GAS  /tmp/ccG55p3J.s 			page 66


 3683      6E697400 
 3684 0038 840D0000 		.4byte	0xd84
 3685 003c 73645F6C 		.ascii	"sd_lld_start\000"
 3685      6C645F73 
 3685      74617274 
 3685      00
 3686 0049 E40D0000 		.4byte	0xde4
 3687 004d 73645F6C 		.ascii	"sd_lld_stop\000"
 3687      6C645F73 
 3687      746F7000 
 3688 0059 6F0E0000 		.4byte	0xe6f
 3689 005d 53443100 		.ascii	"SD1\000"
 3690 0061 810E0000 		.4byte	0xe81
 3691 0065 53443200 		.ascii	"SD2\000"
 3692 0069 00000000 		.4byte	0x0
 3693              		.section	.debug_pubtypes,"",%progbits
 3694 0000 61020000 		.4byte	0x261
 3695 0004 0200     		.2byte	0x2
 3696 0006 00000000 		.4byte	.Ldebug_info0
 3697 000a 940E0000 		.4byte	0xe94
 3698 000e 30000000 		.4byte	0x30
 3699 0012 73697A65 		.ascii	"size_t\000"
 3699      5F7400
 3700 0019 49000000 		.4byte	0x49
 3701 001d 75696E74 		.ascii	"uint8_t\000"
 3701      385F7400 
 3702 0025 62000000 		.4byte	0x62
 3703 0029 75696E74 		.ascii	"uint16_t\000"
 3703      31365F74 
 3703      00
 3704 0032 74000000 		.4byte	0x74
 3705 0036 696E7433 		.ascii	"int32_t\000"
 3705      325F7400 
 3706 003e 86000000 		.4byte	0x86
 3707 0042 75696E74 		.ascii	"uint32_t\000"
 3707      33325F74 
 3707      00
 3708 004b 9F000000 		.4byte	0x9f
 3709 004f 75696E74 		.ascii	"uint64_t\000"
 3709      36345F74 
 3709      00
 3710 0058 B1000000 		.4byte	0xb1
 3711 005c 75696E74 		.ascii	"uint_fast16_t\000"
 3711      5F666173 
 3711      7431365F 
 3711      7400
 3712 006a BC000000 		.4byte	0xbc
 3713 006e 626F6F6C 		.ascii	"bool_t\000"
 3713      5F7400
 3714 0075 C7000000 		.4byte	0xc7
 3715 0079 746D6F64 		.ascii	"tmode_t\000"
 3715      655F7400 
 3716 0081 D2000000 		.4byte	0xd2
 3717 0085 74737461 		.ascii	"tstate_t\000"
 3717      74655F74 
 3717      00
 3718 008e DD000000 		.4byte	0xdd
ARM GAS  /tmp/ccG55p3J.s 			page 67


 3719 0092 74707269 		.ascii	"tprio_t\000"
 3719      6F5F7400 
 3720 009a E8000000 		.4byte	0xe8
 3721 009e 6D73675F 		.ascii	"msg_t\000"
 3721      7400
 3722 00a4 F3000000 		.4byte	0xf3
 3723 00a8 6576656E 		.ascii	"eventmask_t\000"
 3723      746D6173 
 3723      6B5F7400 
 3724 00b4 FE000000 		.4byte	0xfe
 3725 00b8 73797374 		.ascii	"systime_t\000"
 3725      696D655F 
 3725      7400
 3726 00c2 09010000 		.4byte	0x109
 3727 00c6 54687265 		.ascii	"Thread\000"
 3727      616400
 3728 00cd 48020000 		.4byte	0x248
 3729 00d1 54687265 		.ascii	"ThreadsQueue\000"
 3729      61647351 
 3729      75657565 
 3729      00
 3730 00de 6A020000 		.4byte	0x26a
 3731 00e2 54687265 		.ascii	"ThreadsList\000"
 3731      6164734C 
 3731      69737400 
 3732 00ee 75020000 		.4byte	0x275
 3733 00f2 72656761 		.ascii	"regarm_t\000"
 3733      726D5F74 
 3733      00
 3734 00fb 82020000 		.4byte	0x282
 3735 00ff 73746B61 		.ascii	"stkalign_t\000"
 3735      6C69676E 
 3735      5F7400
 3736 010a 8D020000 		.4byte	0x28d
 3737 010e 696E7463 		.ascii	"intctx\000"
 3737      747800
 3738 0115 1A030000 		.4byte	0x31a
 3739 0119 636F6E74 		.ascii	"context\000"
 3739      65787400 
 3740 0121 47030000 		.4byte	0x347
 3741 0125 4D757465 		.ascii	"Mutex\000"
 3741      7800
 3742 012b 84030000 		.4byte	0x384
 3743 012f 4D757465 		.ascii	"Mutex\000"
 3743      7800
 3744 0135 8F030000 		.4byte	0x38f
 3745 0139 4576656E 		.ascii	"EventListener\000"
 3745      744C6973 
 3745      74656E65 
 3745      7200
 3746 0147 9A030000 		.4byte	0x39a
 3747 014b 4576656E 		.ascii	"EventListener\000"
 3747      744C6973 
 3747      74656E65 
 3747      7200
 3748 0159 D7030000 		.4byte	0x3d7
 3749 015d 4576656E 		.ascii	"EventSource\000"
ARM GAS  /tmp/ccG55p3J.s 			page 68


 3749      74536F75 
 3749      72636500 
 3750 0169 F2030000 		.4byte	0x3f2
 3751 016d 4576656E 		.ascii	"EventSource\000"
 3751      74536F75 
 3751      72636500 
 3752 0179 14010000 		.4byte	0x114
 3753 017d 54687265 		.ascii	"Thread\000"
 3753      616400
 3754 0184 50040000 		.4byte	0x450
 3755 0188 47656E65 		.ascii	"GenericQueue\000"
 3755      72696351 
 3755      75657565 
 3755      00
 3756 0195 CA040000 		.4byte	0x4ca
 3757 0199 716E6F74 		.ascii	"qnotify_t\000"
 3757      6966795F 
 3757      7400
 3758 01a3 5B040000 		.4byte	0x45b
 3759 01a7 47656E65 		.ascii	"GenericQueue\000"
 3759      72696351 
 3759      75657565 
 3759      00
 3760 01b4 F3040000 		.4byte	0x4f3
 3761 01b8 496E7075 		.ascii	"InputQueue\000"
 3761      74517565 
 3761      756500
 3762 01c3 FE040000 		.4byte	0x4fe
 3763 01c7 4F757470 		.ascii	"OutputQueue\000"
 3763      75745175 
 3763      65756500 
 3764 01d3 EF050000 		.4byte	0x5ef
 3765 01d7 696F666C 		.ascii	"ioflags_t\000"
 3765      6167735F 
 3765      7400
 3766 01e1 11060000 		.4byte	0x611
 3767 01e5 4952516E 		.ascii	"IRQn\000"
 3767      00
 3768 01ea F9070000 		.4byte	0x7f9
 3769 01ee 5243435F 		.ascii	"RCC_TypeDef\000"
 3769      54797065 
 3769      44656600 
 3770 01fa DF080000 		.4byte	0x8df
 3771 01fe 55534152 		.ascii	"USART_TypeDef\000"
 3771      545F5479 
 3771      70654465 
 3771      6600
 3772 020c 06090000 		.4byte	0x906
 3773 0210 73647374 		.ascii	"sdstate_t\000"
 3773      6174655F 
 3773      7400
 3774 021a 11090000 		.4byte	0x911
 3775 021e 53657269 		.ascii	"SerialDriver\000"
 3775      616C4472 
 3775      69766572 
 3775      00
 3776 022b E6090000 		.4byte	0x9e6
ARM GAS  /tmp/ccG55p3J.s 			page 69


 3777 022f 53657269 		.ascii	"SerialConfig\000"
 3777      616C436F 
 3777      6E666967 
 3777      00
 3778 023c F1090000 		.4byte	0x9f1
 3779 0240 53657269 		.ascii	"SerialDriverVMT\000"
 3779      616C4472 
 3779      69766572 
 3779      564D5400 
 3780 0250 1C090000 		.4byte	0x91c
 3781 0254 53657269 		.ascii	"SerialDriver\000"
 3781      616C4472 
 3781      69766572 
 3781      00
 3782 0261 00000000 		.4byte	0x0
 3783              		.section	.debug_aranges,"",%progbits
 3784 0000 54000000 		.4byte	0x54
 3785 0004 0200     		.2byte	0x2
 3786 0006 00000000 		.4byte	.Ldebug_info0
 3787 000a 04       		.byte	0x4
 3788 000b 00       		.byte	0x0
 3789 000c 0000     		.2byte	0x0
 3790 000e 0000     		.2byte	0x0
 3791 0010 00000000 		.4byte	.LFB66
 3792 0014 14000000 		.4byte	.LFE66-.LFB66
 3793 0018 00000000 		.4byte	.LFB67
 3794 001c 14000000 		.4byte	.LFE67-.LFB67
 3795 0020 00000000 		.4byte	.LFB65
 3796 0024 58010000 		.4byte	.LFE65-.LFB65
 3797 0028 00000000 		.4byte	.LFB68
 3798 002c 1C000000 		.4byte	.LFE68-.LFB68
 3799 0030 00000000 		.4byte	.LFB69
 3800 0034 1C000000 		.4byte	.LFE69-.LFB69
 3801 0038 00000000 		.4byte	.LFB70
 3802 003c 3C000000 		.4byte	.LFE70-.LFB70
 3803 0040 00000000 		.4byte	.LFB71
 3804 0044 90000000 		.4byte	.LFE71-.LFB71
 3805 0048 00000000 		.4byte	.LFB72
 3806 004c 4C000000 		.4byte	.LFE72-.LFB72
 3807 0050 00000000 		.4byte	0x0
 3808 0054 00000000 		.4byte	0x0
 3809              		.section	.debug_ranges,"",%progbits
 3810              	.Ldebug_ranges0:
 3811 0000 12000000 		.4byte	.LBB32
 3812 0004 16000000 		.4byte	.LBE32
 3813 0008 18000000 		.4byte	.LBB35
 3814 000c 46000000 		.4byte	.LBE35
 3815 0010 00000000 		.4byte	0x0
 3816 0014 00000000 		.4byte	0x0
 3817 0018 12000000 		.4byte	.LBB33
 3818 001c 16000000 		.4byte	.LBE33
 3819 0020 18000000 		.4byte	.LBB34
 3820 0024 46000000 		.4byte	.LBE34
 3821 0028 00000000 		.4byte	0x0
 3822 002c 00000000 		.4byte	0x0
 3823 0030 0C000000 		.4byte	.LBB36
 3824 0034 0E000000 		.4byte	.LBE36
ARM GAS  /tmp/ccG55p3J.s 			page 70


 3825 0038 10000000 		.4byte	.LBB39
 3826 003c 16000000 		.4byte	.LBE39
 3827 0040 00000000 		.4byte	0x0
 3828 0044 00000000 		.4byte	0x0
 3829 0048 00000000 		.4byte	.LFB66
 3830 004c 14000000 		.4byte	.LFE66
 3831 0050 00000000 		.4byte	.LFB67
 3832 0054 14000000 		.4byte	.LFE67
 3833 0058 00000000 		.4byte	.LFB65
 3834 005c 58010000 		.4byte	.LFE65
 3835 0060 00000000 		.4byte	.LFB68
 3836 0064 1C000000 		.4byte	.LFE68
 3837 0068 00000000 		.4byte	.LFB69
 3838 006c 1C000000 		.4byte	.LFE69
 3839 0070 00000000 		.4byte	.LFB70
 3840 0074 3C000000 		.4byte	.LFE70
 3841 0078 00000000 		.4byte	.LFB71
 3842 007c 90000000 		.4byte	.LFE71
 3843 0080 00000000 		.4byte	.LFB72
 3844 0084 4C000000 		.4byte	.LFE72
 3845 0088 00000000 		.4byte	0x0
 3846 008c 00000000 		.4byte	0x0
 3847              		.section	.debug_str,"MS",%progbits,1
 3848              	.LASF83:
 3849 0000 5056445F 		.ascii	"PVD_IRQn\000"
 3849      4952516E 
 3849      00
 3850              	.LASF153:
 3851 0009 73635F73 		.ascii	"sc_speed\000"
 3851      70656564 
 3851      00
 3852              	.LASF2:
 3853 0012 73697A65 		.ascii	"size_t\000"
 3853      5F7400
 3854              	.LASF57:
 3855 0019 7264796D 		.ascii	"rdymsg\000"
 3855      736700
 3856              	.LASF13:
 3857 0020 75696E74 		.ascii	"uint64_t\000"
 3857      36345F74 
 3857      00
 3858              	.LASF72:
 3859 0029 4F757470 		.ascii	"OutputQueue\000"
 3859      75745175 
 3859      65756500 
 3860              	.LASF113:
 3861 0035 49324331 		.ascii	"I2C1_EV_IRQn\000"
 3861      5F45565F 
 3861      4952516E 
 3861      00
 3862              	.LASF123:
 3863 0042 5254435F 		.ascii	"RTC_Alarm_IRQn\000"
 3863      416C6172 
 3863      6D5F4952 
 3863      516E00
 3864              	.LASF168:
 3865 0051 7365745F 		.ascii	"set_error\000"
ARM GAS  /tmp/ccG55p3J.s 			page 71


 3865      6572726F 
 3865      7200
 3866              	.LASF103:
 3867 005b 43414E31 		.ascii	"CAN1_RX1_IRQn\000"
 3867      5F525831 
 3867      5F495251 
 3867      6E00
 3868              	.LASF15:
 3869 0069 75696E74 		.ascii	"uint_fast16_t\000"
 3869      5F666173 
 3869      7431365F 
 3869      7400
 3870              	.LASF14:
 3871 0077 6C6F6E67 		.ascii	"long long unsigned int\000"
 3871      206C6F6E 
 3871      6720756E 
 3871      7369676E 
 3871      65642069 
 3872              	.LASF58:
 3873 008e 65786974 		.ascii	"exitcode\000"
 3873      636F6465 
 3873      00
 3874              	.LASF116:
 3875 0097 49324332 		.ascii	"I2C2_ER_IRQn\000"
 3875      5F45525F 
 3875      4952516E 
 3875      00
 3876              	.LASF112:
 3877 00a4 54494D34 		.ascii	"TIM4_IRQn\000"
 3877      5F495251 
 3877      6E00
 3878              	.LASF178:
 3879 00ae 49544D5F 		.ascii	"ITM_RxBuffer\000"
 3879      52784275 
 3879      66666572 
 3879      00
 3880              	.LASF107:
 3881 00bb 54494D31 		.ascii	"TIM1_UP_IRQn\000"
 3881      5F55505F 
 3881      4952516E 
 3881      00
 3882              	.LASF82:
 3883 00c8 57574447 		.ascii	"WWDG_IRQn\000"
 3883      5F495251 
 3883      6E00
 3884              	.LASF154:
 3885 00d2 73635F63 		.ascii	"sc_cr1\000"
 3885      723100
 3886              	.LASF16:
 3887 00d9 626F6F6C 		.ascii	"bool_t\000"
 3887      5F7400
 3888              	.LASF26:
 3889 00e0 705F7072 		.ascii	"p_prio\000"
 3889      696F00
 3890              	.LASF164:
 3891 00e7 72656164 		.ascii	"readt\000"
 3891      7400
ARM GAS  /tmp/ccG55p3J.s 			page 72


 3892              	.LASF63:
 3893 00ed 715F7761 		.ascii	"q_waiting\000"
 3893      6974696E 
 3893      6700
 3894              	.LASF12:
 3895 00f7 6C6F6E67 		.ascii	"long long int\000"
 3895      206C6F6E 
 3895      6720696E 
 3895      7400
 3896              	.LASF1:
 3897 0105 7369676E 		.ascii	"signed char\000"
 3897      65642063 
 3897      68617200 
 3898              	.LASF139:
 3899 0111 47545052 		.ascii	"GTPR\000"
 3899      00
 3900              	.LASF32:
 3901 0116 705F7374 		.ascii	"p_state\000"
 3901      61746500 
 3902              	.LASF143:
 3903 011e 53445F53 		.ascii	"SD_STOP\000"
 3903      544F5000 
 3904              	.LASF48:
 3905 0126 6D5F7175 		.ascii	"m_queue\000"
 3905      65756500 
 3906              	.LASF180:
 3907 012e 474E5520 		.ascii	"GNU C 4.5.2\000"
 3907      4320342E 
 3907      352E3200 
 3908              	.LASF132:
 3909 013a 5243435F 		.ascii	"RCC_TypeDef\000"
 3909      54797065 
 3909      44656600 
 3910              	.LASF179:
 3911 0146 64656661 		.ascii	"default_config\000"
 3911      756C745F 
 3911      636F6E66 
 3911      696700
 3912              	.LASF149:
 3913 0155 73746174 		.ascii	"state\000"
 3913      6500
 3914              	.LASF9:
 3915 015b 6C6F6E67 		.ascii	"long int\000"
 3915      20696E74 
 3915      00
 3916              	.LASF126:
 3917 0164 41504232 		.ascii	"APB2RSTR\000"
 3917      52535452 
 3917      00
 3918              	.LASF53:
 3919 016d 656C5F6C 		.ascii	"el_listener\000"
 3919      69737465 
 3919      6E657200 
 3920              	.LASF18:
 3921 0179 74737461 		.ascii	"tstate_t\000"
 3921      74655F74 
 3921      00
ARM GAS  /tmp/ccG55p3J.s 			page 73


 3922              	.LASF105:
 3923 0182 45585449 		.ascii	"EXTI9_5_IRQn\000"
 3923      395F355F 
 3923      4952516E 
 3923      00
 3924              	.LASF95:
 3925 018f 444D4131 		.ascii	"DMA1_Channel3_IRQn\000"
 3925      5F436861 
 3925      6E6E656C 
 3925      335F4952 
 3925      516E00
 3926              	.LASF65:
 3927 01a2 715F6275 		.ascii	"q_buffer\000"
 3927      66666572 
 3927      00
 3928              	.LASF67:
 3929 01ab 715F7772 		.ascii	"q_wrptr\000"
 3929      70747200 
 3930              	.LASF100:
 3931 01b3 41444331 		.ascii	"ADC1_2_IRQn\000"
 3931      5F325F49 
 3931      52516E00 
 3932              	.LASF28:
 3933 01bf 705F6E65 		.ascii	"p_newer\000"
 3933      77657200 
 3934              	.LASF62:
 3935 01c7 47656E65 		.ascii	"GenericQueue\000"
 3935      72696351 
 3935      75657565 
 3935      00
 3936              	.LASF80:
 3937 01d4 50656E64 		.ascii	"PendSV_IRQn\000"
 3937      53565F49 
 3937      52516E00 
 3938              	.LASF40:
 3939 01e0 705F7265 		.ascii	"p_realprio\000"
 3939      616C7072 
 3939      696F00
 3940              	.LASF43:
 3941 01eb 72656761 		.ascii	"regarm_t\000"
 3941      726D5F74 
 3941      00
 3942              	.LASF70:
 3943 01f4 716E6F74 		.ascii	"qnotify_t\000"
 3943      6966795F 
 3943      7400
 3944              	.LASF169:
 3945 01fe 75736172 		.ascii	"usart_deinit\000"
 3945      745F6465 
 3945      696E6974 
 3945      00
 3946              	.LASF55:
 3947 020b 4576656E 		.ascii	"EventSource\000"
 3947      74536F75 
 3947      72636500 
 3948              	.LASF152:
 3949 0217 75736172 		.ascii	"usart\000"
ARM GAS  /tmp/ccG55p3J.s 			page 74


 3949      7400
 3950              	.LASF0:
 3951 021d 756E7369 		.ascii	"unsigned int\000"
 3951      676E6564 
 3951      20696E74 
 3951      00
 3952              	.LASF6:
 3953 022a 75696E74 		.ascii	"uint16_t\000"
 3953      31365F74 
 3953      00
 3954              	.LASF158:
 3955 0233 53657269 		.ascii	"SerialDriverVMT\000"
 3955      616C4472 
 3955      69766572 
 3955      564D5400 
 3956              	.LASF34:
 3957 0243 705F7469 		.ascii	"p_time\000"
 3957      6D6500
 3958              	.LASF75:
 3959 024a 4D656D6F 		.ascii	"MemoryManagement_IRQn\000"
 3959      72794D61 
 3959      6E616765 
 3959      6D656E74 
 3959      5F495251 
 3960              	.LASF150:
 3961 0260 69717565 		.ascii	"iqueue\000"
 3961      756500
 3962              	.LASF36:
 3963 0267 705F6D73 		.ascii	"p_msgqueue\000"
 3963      67717565 
 3963      756500
 3964              	.LASF175:
 3965 0272 73645F6C 		.ascii	"sd_lld_init\000"
 3965      6C645F69 
 3965      6E697400 
 3966              	.LASF147:
 3967 027e 6576656E 		.ascii	"event\000"
 3967      7400
 3968              	.LASF97:
 3969 0284 444D4131 		.ascii	"DMA1_Channel5_IRQn\000"
 3969      5F436861 
 3969      6E6E656C 
 3969      355F4952 
 3969      516E00
 3970              	.LASF7:
 3971 0297 73686F72 		.ascii	"short unsigned int\000"
 3971      7420756E 
 3971      7369676E 
 3971      65642069 
 3971      6E7400
 3972              	.LASF108:
 3973 02aa 54494D31 		.ascii	"TIM1_TRG_COM_IRQn\000"
 3973      5F545247 
 3973      5F434F4D 
 3973      5F495251 
 3973      6E00
 3974              	.LASF20:
ARM GAS  /tmp/ccG55p3J.s 			page 75


 3975 02bc 6D73675F 		.ascii	"msg_t\000"
 3975      7400
 3976              	.LASF151:
 3977 02c2 6F717565 		.ascii	"oqueue\000"
 3977      756500
 3978              	.LASF122:
 3979 02c9 45585449 		.ascii	"EXTI15_10_IRQn\000"
 3979      31355F31 
 3979      305F4952 
 3979      516E00
 3980              	.LASF117:
 3981 02d8 53504931 		.ascii	"SPI1_IRQn\000"
 3981      5F495251 
 3981      6E00
 3982              	.LASF141:
 3983 02e2 55534152 		.ascii	"USART_TypeDef\000"
 3983      545F5479 
 3983      70654465 
 3983      6600
 3984              	.LASF163:
 3985 02f0 77726974 		.ascii	"writet\000"
 3985      657400
 3986              	.LASF17:
 3987 02f7 746D6F64 		.ascii	"tmode_t\000"
 3987      655F7400 
 3988              	.LASF42:
 3989 02ff 54687265 		.ascii	"ThreadsList\000"
 3989      6164734C 
 3989      69737400 
 3990              	.LASF21:
 3991 030b 6576656E 		.ascii	"eventmask_t\000"
 3991      746D6173 
 3991      6B5F7400 
 3992              	.LASF173:
 3993 0317 56656374 		.ascii	"VectorD4\000"
 3993      6F724434 
 3993      00
 3994              	.LASF174:
 3995 0320 56656374 		.ascii	"VectorD8\000"
 3995      6F724438 
 3995      00
 3996              	.LASF96:
 3997 0329 444D4131 		.ascii	"DMA1_Channel4_IRQn\000"
 3997      5F436861 
 3997      6E6E656C 
 3997      345F4952 
 3997      516E00
 3998              	.LASF81:
 3999 033c 53797354 		.ascii	"SysTick_IRQn\000"
 3999      69636B5F 
 3999      4952516E 
 3999      00
 4000              	.LASF109:
 4001 0349 54494D31 		.ascii	"TIM1_CC_IRQn\000"
 4001      5F43435F 
 4001      4952516E 
 4001      00
ARM GAS  /tmp/ccG55p3J.s 			page 76


 4002              	.LASF44:
 4003 0356 73746B61 		.ascii	"stkalign_t\000"
 4003      6C69676E 
 4003      5F7400
 4004              	.LASF161:
 4005 0361 70757477 		.ascii	"putwouldblock\000"
 4005      6F756C64 
 4005      626C6F63 
 4005      6B00
 4006              	.LASF159:
 4007 036f 77726974 		.ascii	"write\000"
 4007      6500
 4008              	.LASF183:
 4009 0375 4952516E 		.ascii	"IRQn\000"
 4009      00
 4010              	.LASF167:
 4011 037a 75736172 		.ascii	"usart_init\000"
 4011      745F696E 
 4011      697400
 4012              	.LASF94:
 4013 0385 444D4131 		.ascii	"DMA1_Channel2_IRQn\000"
 4013      5F436861 
 4013      6E6E656C 
 4013      325F4952 
 4013      516E00
 4014              	.LASF64:
 4015 0398 715F636F 		.ascii	"q_counter\000"
 4015      756E7465 
 4015      7200
 4016              	.LASF47:
 4017 03a2 4D757465 		.ascii	"Mutex\000"
 4017      7800
 4018              	.LASF24:
 4019 03a8 705F6E65 		.ascii	"p_next\000"
 4019      787400
 4020              	.LASF91:
 4021 03af 45585449 		.ascii	"EXTI3_IRQn\000"
 4021      335F4952 
 4021      516E00
 4022              	.LASF118:
 4023 03ba 53504932 		.ascii	"SPI2_IRQn\000"
 4023      5F495251 
 4023      6E00
 4024              	.LASF73:
 4025 03c4 696F666C 		.ascii	"ioflags_t\000"
 4025      6167735F 
 4025      7400
 4026              	.LASF41:
 4027 03ce 54687265 		.ascii	"ThreadsQueue\000"
 4027      61647351 
 4027      75657565 
 4027      00
 4028              	.LASF31:
 4029 03db 705F7374 		.ascii	"p_stklimit\000"
 4029      6B6C696D 
 4029      697400
 4030              	.LASF124:
ARM GAS  /tmp/ccG55p3J.s 			page 77


 4031 03e6 5553425F 		.ascii	"USB_FS_WKUP_IRQn\000"
 4031      46535F57 
 4031      4B55505F 
 4031      4952516E 
 4031      00
 4032              	.LASF127:
 4033 03f7 41504231 		.ascii	"APB1RSTR\000"
 4033      52535452 
 4033      00
 4034              	.LASF54:
 4035 0400 656C5F6D 		.ascii	"el_mask\000"
 4035      61736B00 
 4036              	.LASF157:
 4037 0408 53657269 		.ascii	"SerialConfig\000"
 4037      616C436F 
 4037      6E666967 
 4037      00
 4038              	.LASF170:
 4039 0415 6E6F7469 		.ascii	"notify1\000"
 4039      66793100 
 4040              	.LASF171:
 4041 041d 6E6F7469 		.ascii	"notify2\000"
 4041      66793200 
 4042              	.LASF93:
 4043 0425 444D4131 		.ascii	"DMA1_Channel1_IRQn\000"
 4043      5F436861 
 4043      6E6E656C 
 4043      315F4952 
 4043      516E00
 4044              	.LASF133:
 4045 0438 52455345 		.ascii	"RESERVED0\000"
 4045      52564544 
 4045      3000
 4046              	.LASF134:
 4047 0442 52455345 		.ascii	"RESERVED1\000"
 4047      52564544 
 4047      3100
 4048              	.LASF135:
 4049 044c 52455345 		.ascii	"RESERVED2\000"
 4049      52564544 
 4049      3200
 4050              	.LASF136:
 4051 0456 52455345 		.ascii	"RESERVED3\000"
 4051      52564544 
 4051      3300
 4052              	.LASF137:
 4053 0460 52455345 		.ascii	"RESERVED4\000"
 4053      52564544 
 4053      3400
 4054              	.LASF25:
 4055 046a 705F7072 		.ascii	"p_prev\000"
 4055      657600
 4056              	.LASF140:
 4057 0471 52455345 		.ascii	"RESERVED6\000"
 4057      52564544 
 4057      3600
 4058              	.LASF19:
ARM GAS  /tmp/ccG55p3J.s 			page 78


 4059 047b 74707269 		.ascii	"tprio_t\000"
 4059      6F5F7400 
 4060              	.LASF68:
 4061 0483 715F7264 		.ascii	"q_rdptr\000"
 4061      70747200 
 4062              	.LASF78:
 4063 048b 53564361 		.ascii	"SVCall_IRQn\000"
 4063      6C6C5F49 
 4063      52516E00 
 4064              	.LASF79:
 4065 0497 44656275 		.ascii	"DebugMonitor_IRQn\000"
 4065      674D6F6E 
 4065      69746F72 
 4065      5F495251 
 4065      6E00
 4066              	.LASF8:
 4067 04a9 696E7433 		.ascii	"int32_t\000"
 4067      325F7400 
 4068              	.LASF4:
 4069 04b1 756E7369 		.ascii	"unsigned char\000"
 4069      676E6564 
 4069      20636861 
 4069      7200
 4070              	.LASF102:
 4071 04bf 5553425F 		.ascii	"USB_LP_CAN1_RX0_IRQn\000"
 4071      4C505F43 
 4071      414E315F 
 4071      5258305F 
 4071      4952516E 
 4072              	.LASF176:
 4073 04d4 73645F6C 		.ascii	"sd_lld_start\000"
 4073      6C645F73 
 4073      74617274 
 4073      00
 4074              	.LASF101:
 4075 04e1 5553425F 		.ascii	"USB_HP_CAN1_TX_IRQn\000"
 4075      48505F43 
 4075      414E315F 
 4075      54585F49 
 4075      52516E00 
 4076              	.LASF92:
 4077 04f5 45585449 		.ascii	"EXTI4_IRQn\000"
 4077      345F4952 
 4077      516E00
 4078              	.LASF39:
 4079 0500 705F6D74 		.ascii	"p_mtxlist\000"
 4079      786C6973 
 4079      7400
 4080              	.LASF5:
 4081 050a 73686F72 		.ascii	"short int\000"
 4081      7420696E 
 4081      7400
 4082              	.LASF29:
 4083 0514 705F6F6C 		.ascii	"p_older\000"
 4083      64657200 
 4084              	.LASF181:
 4085 051c 2E2E2F63 		.ascii	"../chibios_2.4.x/os/hal/platforms/STM32/serial_lld."
ARM GAS  /tmp/ccG55p3J.s 			page 79


 4085      68696269 
 4085      6F735F32 
 4085      2E342E78 
 4085      2F6F732F 
 4086 054f 6300     		.ascii	"c\000"
 4087              	.LASF60:
 4088 0551 65776D61 		.ascii	"ewmask\000"
 4088      736B00
 4089              	.LASF33:
 4090 0558 705F666C 		.ascii	"p_flags\000"
 4090      61677300 
 4091              	.LASF52:
 4092 0560 656C5F6E 		.ascii	"el_next\000"
 4092      65787400 
 4093              	.LASF90:
 4094 0568 45585449 		.ascii	"EXTI2_IRQn\000"
 4094      325F4952 
 4094      516E00
 4095              	.LASF129:
 4096 0573 41504232 		.ascii	"APB2ENR\000"
 4096      454E5200 
 4097              	.LASF23:
 4098 057b 54687265 		.ascii	"Thread\000"
 4098      616400
 4099              	.LASF172:
 4100 0582 73657276 		.ascii	"serve_interrupt\000"
 4100      655F696E 
 4100      74657272 
 4100      75707400 
 4101              	.LASF86:
 4102 0592 464C4153 		.ascii	"FLASH_IRQn\000"
 4102      485F4952 
 4102      516E00
 4103              	.LASF38:
 4104 059d 705F6570 		.ascii	"p_epending\000"
 4104      656E6469 
 4104      6E6700
 4105              	.LASF142:
 4106 05a8 53445F55 		.ascii	"SD_UNINIT\000"
 4106      4E494E49 
 4106      5400
 4107              	.LASF138:
 4108 05b2 52455345 		.ascii	"RESERVED5\000"
 4108      52564544 
 4108      3500
 4109              	.LASF10:
 4110 05bc 75696E74 		.ascii	"uint32_t\000"
 4110      33325F74 
 4110      00
 4111              	.LASF120:
 4112 05c5 55534152 		.ascii	"USART2_IRQn\000"
 4112      54325F49 
 4112      52516E00 
 4113              	.LASF77:
 4114 05d1 55736167 		.ascii	"UsageFault_IRQn\000"
 4114      65466175 
 4114      6C745F49 
ARM GAS  /tmp/ccG55p3J.s 			page 80


 4114      52516E00 
 4115              	.LASF146:
 4116 05e1 53657269 		.ascii	"SerialDriver\000"
 4116      616C4472 
 4116      69766572 
 4116      00
 4117              	.LASF11:
 4118 05ee 6C6F6E67 		.ascii	"long unsigned int\000"
 4118      20756E73 
 4118      69676E65 
 4118      6420696E 
 4118      7400
 4119              	.LASF160:
 4120 0600 72656164 		.ascii	"read\000"
 4120      00
 4121              	.LASF61:
 4122 0605 63686172 		.ascii	"char\000"
 4122      00
 4123              	.LASF76:
 4124 060a 42757346 		.ascii	"BusFault_IRQn\000"
 4124      61756C74 
 4124      5F495251 
 4124      6E00
 4125              	.LASF166:
 4126 0618 636F6E66 		.ascii	"config\000"
 4126      696700
 4127              	.LASF106:
 4128 061f 54494D31 		.ascii	"TIM1_BRK_IRQn\000"
 4128      5F42524B 
 4128      5F495251 
 4128      6E00
 4129              	.LASF104:
 4130 062d 43414E31 		.ascii	"CAN1_SCE_IRQn\000"
 4130      5F534345 
 4130      5F495251 
 4130      6E00
 4131              	.LASF50:
 4132 063b 6D5F6E65 		.ascii	"m_next\000"
 4132      787400
 4133              	.LASF22:
 4134 0642 73797374 		.ascii	"systime_t\000"
 4134      696D655F 
 4134      7400
 4135              	.LASF74:
 4136 064c 4E6F6E4D 		.ascii	"NonMaskableInt_IRQn\000"
 4136      61736B61 
 4136      626C6549 
 4136      6E745F49 
 4136      52516E00 
 4137              	.LASF98:
 4138 0660 444D4131 		.ascii	"DMA1_Channel6_IRQn\000"
 4138      5F436861 
 4138      6E6E656C 
 4138      365F4952 
 4138      516E00
 4139              	.LASF30:
 4140 0673 705F6E61 		.ascii	"p_name\000"
ARM GAS  /tmp/ccG55p3J.s 			page 81


 4140      6D6500
 4141              	.LASF130:
 4142 067a 41504231 		.ascii	"APB1ENR\000"
 4142      454E5200 
 4143              	.LASF84:
 4144 0682 54414D50 		.ascii	"TAMPER_IRQn\000"
 4144      45525F49 
 4144      52516E00 
 4145              	.LASF165:
 4146 068e 67657466 		.ascii	"getflags\000"
 4146      6C616773 
 4146      00
 4147              	.LASF46:
 4148 0697 636F6E74 		.ascii	"context\000"
 4148      65787400 
 4149              	.LASF45:
 4150 069f 696E7463 		.ascii	"intctx\000"
 4150      747800
 4151              	.LASF144:
 4152 06a6 53445F52 		.ascii	"SD_READY\000"
 4152      45414459 
 4152      00
 4153              	.LASF115:
 4154 06af 49324332 		.ascii	"I2C2_EV_IRQn\000"
 4154      5F45565F 
 4154      4952516E 
 4154      00
 4155              	.LASF121:
 4156 06bc 55534152 		.ascii	"USART3_IRQn\000"
 4156      54335F49 
 4156      52516E00 
 4157              	.LASF145:
 4158 06c8 73647374 		.ascii	"sdstate_t\000"
 4158      6174655F 
 4158      7400
 4159              	.LASF110:
 4160 06d2 54494D32 		.ascii	"TIM2_IRQn\000"
 4160      5F495251 
 4160      6E00
 4161              	.LASF66:
 4162 06dc 715F746F 		.ascii	"q_top\000"
 4162      7000
 4163              	.LASF88:
 4164 06e2 45585449 		.ascii	"EXTI0_IRQn\000"
 4164      305F4952 
 4164      516E00
 4165              	.LASF56:
 4166 06ed 65735F6E 		.ascii	"es_next\000"
 4166      65787400 
 4167              	.LASF119:
 4168 06f5 55534152 		.ascii	"USART1_IRQn\000"
 4168      54315F49 
 4168      52516E00 
 4169              	.LASF182:
 4170 0701 2F686F6D 		.ascii	"/home/z80/projects/voltamper.git/firmware/voltamp\000"
 4170      652F7A38 
 4170      302F7072 
ARM GAS  /tmp/ccG55p3J.s 			page 82


 4170      6F6A6563 
 4170      74732F76 
 4171              	.LASF131:
 4172 0733 42444352 		.ascii	"BDCR\000"
 4172      00
 4173              	.LASF69:
 4174 0738 715F6E6F 		.ascii	"q_notify\000"
 4174      74696679 
 4174      00
 4175              	.LASF37:
 4176 0741 705F6D73 		.ascii	"p_msg\000"
 4176      6700
 4177              	.LASF3:
 4178 0747 75696E74 		.ascii	"uint8_t\000"
 4178      385F7400 
 4179              	.LASF71:
 4180 074f 496E7075 		.ascii	"InputQueue\000"
 4180      74517565 
 4180      756500
 4181              	.LASF148:
 4182 075a 666C6167 		.ascii	"flags\000"
 4182      7300
 4183              	.LASF51:
 4184 0760 4576656E 		.ascii	"EventListener\000"
 4184      744C6973 
 4184      74656E65 
 4184      7200
 4185              	.LASF59:
 4186 076e 77746F62 		.ascii	"wtobjp\000"
 4186      6A7000
 4187              	.LASF99:
 4188 0775 444D4131 		.ascii	"DMA1_Channel7_IRQn\000"
 4188      5F436861 
 4188      6E6E656C 
 4188      375F4952 
 4188      516E00
 4189              	.LASF177:
 4190 0788 73645F6C 		.ascii	"sd_lld_stop\000"
 4190      6C645F73 
 4190      746F7000 
 4191              	.LASF125:
 4192 0794 43464752 		.ascii	"CFGR\000"
 4192      00
 4193              	.LASF162:
 4194 0799 67657477 		.ascii	"getwouldblock\000"
 4194      6F756C64 
 4194      626C6F63 
 4194      6B00
 4195              	.LASF114:
 4196 07a7 49324331 		.ascii	"I2C1_ER_IRQn\000"
 4196      5F45525F 
 4196      4952516E 
 4196      00
 4197              	.LASF155:
 4198 07b4 73635F63 		.ascii	"sc_cr2\000"
 4198      723200
 4199              	.LASF156:
ARM GAS  /tmp/ccG55p3J.s 			page 83


 4200 07bb 73635F63 		.ascii	"sc_cr3\000"
 4200      723300
 4201              	.LASF85:
 4202 07c2 5254435F 		.ascii	"RTC_IRQn\000"
 4202      4952516E 
 4202      00
 4203              	.LASF111:
 4204 07cb 54494D33 		.ascii	"TIM3_IRQn\000"
 4204      5F495251 
 4204      6E00
 4205              	.LASF49:
 4206 07d5 6D5F6F77 		.ascii	"m_owner\000"
 4206      6E657200 
 4207              	.LASF87:
 4208 07dd 5243435F 		.ascii	"RCC_IRQn\000"
 4208      4952516E 
 4208      00
 4209              	.LASF27:
 4210 07e6 705F6374 		.ascii	"p_ctx\000"
 4210      7800
 4211              	.LASF35:
 4212 07ec 705F7761 		.ascii	"p_waiting\000"
 4212      6974696E 
 4212      6700
 4213              	.LASF128:
 4214 07f6 41484245 		.ascii	"AHBENR\000"
 4214      4E5200
 4215              	.LASF89:
 4216 07fd 45585449 		.ascii	"EXTI1_IRQn\000"
 4216      315F4952 
 4216      516E00
 4217              		.ident	"GCC: (Sourcery G++ Lite 2011.03-42) 4.5.2"
ARM GAS  /tmp/ccG55p3J.s 			page 84


DEFINED SYMBOLS
                            *ABS*:00000000 serial_lld.c
     /tmp/ccG55p3J.s:24     .text.notify1:00000000 $t
     /tmp/ccG55p3J.s:29     .text.notify1:00000000 notify1
     /tmp/ccG55p3J.s:50     .text.notify1:00000010 $d
     /tmp/ccG55p3J.s:55     .text.notify2:00000000 $t
     /tmp/ccG55p3J.s:60     .text.notify2:00000000 notify2
     /tmp/ccG55p3J.s:80     .text.notify2:00000010 $d
     /tmp/ccG55p3J.s:85     .text.serve_interrupt:00000000 $t
     /tmp/ccG55p3J.s:90     .text.serve_interrupt:00000000 serve_interrupt
     /tmp/ccG55p3J.s:380    .text.VectorD4:00000000 $t
     /tmp/ccG55p3J.s:386    .text.VectorD4:00000000 VectorD4
     /tmp/ccG55p3J.s:411    .text.VectorD4:00000018 $d
     /tmp/ccG55p3J.s:416    .text.VectorD8:00000000 $t
     /tmp/ccG55p3J.s:422    .text.VectorD8:00000000 VectorD8
     /tmp/ccG55p3J.s:447    .text.VectorD8:00000018 $d
     /tmp/ccG55p3J.s:452    .text.sd_lld_init:00000000 $t
     /tmp/ccG55p3J.s:458    .text.sd_lld_init:00000000 sd_lld_init
     /tmp/ccG55p3J.s:498    .text.sd_lld_init:00000024 $d
     /tmp/ccG55p3J.s:508    .text.sd_lld_start:00000000 $t
     /tmp/ccG55p3J.s:514    .text.sd_lld_start:00000000 sd_lld_start
     /tmp/ccG55p3J.s:632    .text.sd_lld_start:0000007c $d
     /tmp/ccG55p3J.s:641    .text.sd_lld_stop:00000000 $t
     /tmp/ccG55p3J.s:647    .text.sd_lld_stop:00000000 sd_lld_stop
     /tmp/ccG55p3J.s:723    .text.sd_lld_stop:00000040 $d
     /tmp/ccG55p3J.s:747    .bss.SD1:00000000 SD1
     /tmp/ccG55p3J.s:754    .bss.SD2:00000000 SD2
     /tmp/ccG55p3J.s:732    .rodata.default_config:00000000 $d
     /tmp/ccG55p3J.s:736    .rodata.default_config:00000000 default_config
     /tmp/ccG55p3J.s:743    .bss.SD1:00000000 $d
     /tmp/ccG55p3J.s:750    .bss.SD2:00000000 $d
                     .debug_frame:00000010 $d
     /tmp/ccG55p3J.s:54     .text.notify1:00000014 $t
     /tmp/ccG55p3J.s:84     .text.notify2:00000014 $t
     /tmp/ccG55p3J.s:415    .text.VectorD4:0000001c $t
     /tmp/ccG55p3J.s:451    .text.VectorD8:0000001c $t
     /tmp/ccG55p3J.s:507    .text.sd_lld_init:0000003c $t
     /tmp/ccG55p3J.s:731    .text.sd_lld_stop:0000004c $t

UNDEFINED SYMBOLS
dbg_check_lock_from_isr
chEvtBroadcastFlagsI
dbg_check_unlock_from_isr
sdIncomingDataI
chOQGetI
dbg_check_enter_isr
dbg_check_leave_isr
_port_irq_epilogue
sdObjectInit
nvicEnableVector
nvicDisableVector
