ARM GAS  C:\Users\z80\AppData\Local\Temp\cckEhmmh.s 			page 1


   1              		.syntax unified
   2              		.cpu cortex-m3
   3              		.fpu softvfp
   4              		.eabi_attribute 20, 1
   5              		.eabi_attribute 21, 1
   6              		.eabi_attribute 23, 3
   7              		.eabi_attribute 24, 1
   8              		.eabi_attribute 25, 1
   9              		.eabi_attribute 26, 1
  10              		.eabi_attribute 30, 2
  11              		.eabi_attribute 18, 4
  12              		.thumb
  13              		.file	"serial_lld.c"
  14              		.section	.debug_abbrev,"",%progbits
  15              	.Ldebug_abbrev0:
  16              		.section	.debug_info,"",%progbits
  17              	.Ldebug_info0:
  18              		.section	.debug_line,"",%progbits
  19              	.Ldebug_line0:
  20 0000 7D030000 		.text
  20      02004D02 
  20      00000201 
  20      FB0E0D00 
  20      01010101 
  21              	.Ltext0:
  22              		.cfi_sections	.debug_frame
  23              		.section	.text.notify1,"ax",%progbits
  24              		.align	2
  25              		.p2align 4,,15
  26              		.thumb
  27              		.thumb_func
  28              		.type	notify1, %function
  29              	notify1:
  30              	.LFB66:
  31              		.file 1 "../chibios_2.4.x/os/hal/platforms/STM32/serial_lld.c"
  32              		.loc 1 217 0
  33              		.cfi_startproc
  34              		@ args = 0, pretend = 0, frame = 0
  35              		@ frame_needed = 0, uses_anonymous_args = 0
  36              		@ link register save eliminated.
  37              	.LVL0:
  38              		.loc 1 220 0
  39 0000 4FF46053 		mov	r3, #14336
  40 0004 C4F20103 		movt	r3, 16385
  41 0008 9A89     		ldrh	r2, [r3, #12]
  42 000a 92B2     		uxth	r2, r2
  43 000c 42F08002 		orr	r2, r2, #128
  44 0010 9A81     		strh	r2, [r3, #12]	@ movhi
  45              		.loc 1 221 0
  46 0012 7047     		bx	lr
  47              		.cfi_endproc
  48              	.LFE66:
  49              		.size	notify1, .-notify1
  50 0014 AFF30080 		.section	.text.notify2,"ax",%progbits
  50      AFF30080 
  50      AFF30080 
  51              		.align	2
ARM GAS  C:\Users\z80\AppData\Local\Temp\cckEhmmh.s 			page 2


  52              		.p2align 4,,15
  53              		.thumb
  54              		.thumb_func
  55              		.type	notify2, %function
  56              	notify2:
  57              	.LFB67:
  58              		.loc 1 225 0
  59              		.cfi_startproc
  60              		@ args = 0, pretend = 0, frame = 0
  61              		@ frame_needed = 0, uses_anonymous_args = 0
  62              		@ link register save eliminated.
  63              	.LVL1:
  64              		.loc 1 228 0
  65 0000 4FF48843 		mov	r3, #17408
  66 0004 C4F20003 		movt	r3, 16384
  67 0008 9A89     		ldrh	r2, [r3, #12]
  68 000a 92B2     		uxth	r2, r2
  69 000c 42F08002 		orr	r2, r2, #128
  70 0010 9A81     		strh	r2, [r3, #12]	@ movhi
  71              		.loc 1 229 0
  72 0012 7047     		bx	lr
  73              		.cfi_endproc
  74              	.LFE67:
  75              		.size	notify2, .-notify2
  76 0014 AFF30080 		.section	.text.serve_interrupt,"ax",%progbits
  76      AFF30080 
  76      AFF30080 
  77              		.align	2
  78              		.p2align 4,,15
  79              		.thumb
  80              		.thumb_func
  81              		.type	serve_interrupt, %function
  82              	serve_interrupt:
  83              	.LFB65:
  84              		.loc 1 170 0
  85              		.cfi_startproc
  86              		@ args = 0, pretend = 0, frame = 0
  87              		@ frame_needed = 0, uses_anonymous_args = 0
  88              	.LVL2:
  89 0000 2DE9F845 		push	{r3, r4, r5, r6, r7, r8, sl, lr}
  90              	.LCFI0:
  91              		.cfi_def_cfa_offset 32
  92              		.loc 1 171 0
  93 0004 D0F85064 		ldr	r6, [r0, #1104]
  94              		.cfi_offset 14, -4
  95              		.cfi_offset 10, -8
  96              		.cfi_offset 8, -12
  97              		.cfi_offset 7, -16
  98              		.cfi_offset 6, -20
  99              		.cfi_offset 5, -24
 100              		.cfi_offset 4, -28
 101              		.cfi_offset 3, -32
 102              	.LVL3:
 103              		.loc 1 170 0
 104 0008 0546     		mov	r5, r0
 105              		.loc 1 172 0
 106 000a B789     		ldrh	r7, [r6, #12]
ARM GAS  C:\Users\z80\AppData\Local\Temp\cckEhmmh.s 			page 3


 107              		.loc 1 173 0
 108 000c 3488     		ldrh	r4, [r6, #0]
 109              		.loc 1 174 0
 110 000e B6F80480 		ldrh	r8, [r6, #4]
 111              		.loc 1 173 0
 112 0012 A4B2     		uxth	r4, r4
 113              		.loc 1 177 0
 114 0014 14F00F0F 		tst	r4, #15
 115              		.loc 1 172 0
 116 0018 BFB2     		uxth	r7, r7
 117              	.LVL4:
 118              		.loc 1 174 0
 119 001a 1FFA88F8 		uxth	r8, r8
 120              	.LVL5:
 121              		.loc 1 177 0
 122 001e 26D0     		beq	.L4
 123              	.LVL6:
 124              	.LBB19:
 125              	.LBB20:
 126              		.loc 1 152 0
 127 0020 14F0080A 		ands	sl, r4, #8
 128              		.loc 1 153 0
 129 0024 18BF     		it	ne
 130 0026 4FF0800A 		movne	sl, #128
 131              	.LVL7:
 132              		.loc 1 154 0
 133 002a 14F0010F 		tst	r4, #1
 134              		.loc 1 155 0
 135 002e 18BF     		it	ne
 136 0030 4AF0200A 		orrne	sl, sl, #32
 137              	.LVL8:
 138              		.loc 1 156 0
 139 0034 14F0020F 		tst	r4, #2
 140              		.loc 1 157 0
 141 0038 18BF     		it	ne
 142 003a 4AF0400A 		orrne	sl, sl, #64
 143              	.LVL9:
 144              		.loc 1 158 0
 145 003e 14F0040F 		tst	r4, #4
 146              		.loc 1 159 0
 147 0042 18BF     		it	ne
 148 0044 4AF4807A 		orrne	sl, sl, #256
 149              	.LVL10:
 150              	.LBB21:
 151              		.loc 1 160 0
 152 0048 2023     		movs	r3, #32
 153              	.LVL11:
 154              	@ 160 "../chibios_2.4.x/os/hal/platforms/STM32/serial_lld.c" 1
 155 004a 83F31188 		msr     BASEPRI, r3
 156              	@ 0 "" 2
 157              	.LVL12:
 158              		.thumb
 159              	.LBE21:
 160 004e FFF7FEFF 		bl	dbg_check_lock_from_isr
 161              	.LVL13:
 162              		.loc 1 161 0
 163 0052 AB68     		ldr	r3, [r5, #8]
ARM GAS  C:\Users\z80\AppData\Local\Temp\cckEhmmh.s 			page 4


 164 0054 281D     		adds	r0, r5, #4
 165 0056 43EA0A0A 		orr	sl, r3, sl
 166              	.LVL14:
 167 005a 0021     		movs	r1, #0
 168 005c C5F808A0 		str	sl, [r5, #8]
 169 0060 FFF7FEFF 		bl	chEvtBroadcastFlagsI
 170              		.loc 1 162 0
 171 0064 FFF7FEFF 		bl	dbg_check_unlock_from_isr
 172              	.LBB22:
 173 0068 0023     		movs	r3, #0
 174              	.LVL15:
 175              	@ 162 "../chibios_2.4.x/os/hal/platforms/STM32/serial_lld.c" 1
 176 006a 83F31188 		msr     BASEPRI, r3
 177              	@ 0 "" 2
 178              	.LVL16:
 179              		.thumb
 180              	.L4:
 181              	.LBE22:
 182              	.LBE20:
 183              	.LBE19:
 184              		.loc 1 180 0
 185 006e 14F4807F 		tst	r4, #256
 186 0072 3AD1     		bne	.L17
 187              	.L9:
 188              		.loc 1 187 0
 189 0074 14F0200F 		tst	r4, #32
 190 0078 27D1     		bne	.L18
 191              	.LVL17:
 192              	.L10:
 193              		.loc 1 193 0
 194 007a 17F0800F 		tst	r7, #128
 195 007e 02D0     		beq	.L11
 196              		.loc 1 193 0 is_stmt 0 discriminator 1
 197 0080 14F0800F 		tst	r4, #128
 198 0084 4AD1     		bne	.L19
 199              	.LVL18:
 200              	.L11:
 201              		.loc 1 206 0 is_stmt 1
 202 0086 14F0400F 		tst	r4, #64
 203 008a 1CD0     		beq	.L3
 204              	.LBB23:
 205              		.loc 1 207 0
 206 008c 2023     		movs	r3, #32
 207              	.LVL19:
 208              	@ 207 "../chibios_2.4.x/os/hal/platforms/STM32/serial_lld.c" 1
 209 008e 83F31188 		msr     BASEPRI, r3
 210              	@ 0 "" 2
 211              	.LVL20:
 212              		.thumb
 213              	.LBE23:
 214 0092 FFF7FEFF 		bl	dbg_check_lock_from_isr
 215              	.LVL21:
 216              		.loc 1 208 0
 217 0096 AB68     		ldr	r3, [r5, #8]
 218 0098 281D     		adds	r0, r5, #4
 219 009a 43F01003 		orr	r3, r3, #16
 220 009e AB60     		str	r3, [r5, #8]
ARM GAS  C:\Users\z80\AppData\Local\Temp\cckEhmmh.s 			page 5


 221 00a0 0021     		movs	r1, #0
 222 00a2 FFF7FEFF 		bl	chEvtBroadcastFlagsI
 223              		.loc 1 209 0
 224 00a6 FFF7FEFF 		bl	dbg_check_unlock_from_isr
 225              	.LBB24:
 226 00aa 0023     		movs	r3, #0
 227              	.LVL22:
 228              	@ 209 "../chibios_2.4.x/os/hal/platforms/STM32/serial_lld.c" 1
 229 00ac 83F31188 		msr     BASEPRI, r3
 230              	@ 0 "" 2
 231              	.LVL23:
 232              		.thumb
 233              	.LBE24:
 234              		.loc 1 210 0
 235 00b0 4FF6BF73 		movw	r3, #65471
 236              	.LVL24:
 237 00b4 07EA0303 		and	r3, r7, r3
 238 00b8 B381     		strh	r3, [r6, #12]	@ movhi
 239              		.loc 1 211 0
 240 00ba 3388     		ldrh	r3, [r6, #0]
 241 00bc 23F04003 		bic	r3, r3, #64
 242 00c0 1B04     		lsls	r3, r3, #16
 243 00c2 1B0C     		lsrs	r3, r3, #16
 244 00c4 3380     		strh	r3, [r6, #0]	@ movhi
 245              	.LVL25:
 246              	.L3:
 247              		.loc 1 213 0
 248 00c6 BDE8F885 		pop	{r3, r4, r5, r6, r7, r8, sl, pc}
 249              	.LVL26:
 250              	.L18:
 251              	.LBB25:
 252              		.loc 1 188 0
 253 00ca 2023     		movs	r3, #32
 254              	.LVL27:
 255              	@ 188 "../chibios_2.4.x/os/hal/platforms/STM32/serial_lld.c" 1
 256 00cc 83F31188 		msr     BASEPRI, r3
 257              	@ 0 "" 2
 258              	.LVL28:
 259              		.thumb
 260              	.LBE25:
 261 00d0 FFF7FEFF 		bl	dbg_check_lock_from_isr
 262              	.LVL29:
 263              		.loc 1 189 0
 264 00d4 5FFA88F1 		uxtb	r1, r8
 265 00d8 2846     		mov	r0, r5
 266 00da FFF7FEFF 		bl	sdIncomingDataI
 267              		.loc 1 190 0
 268 00de FFF7FEFF 		bl	dbg_check_unlock_from_isr
 269              	.LBB26:
 270 00e2 0023     		movs	r3, #0
 271              	@ 190 "../chibios_2.4.x/os/hal/platforms/STM32/serial_lld.c" 1
 272 00e4 83F31188 		msr     BASEPRI, r3
 273              	@ 0 "" 2
 274              	.LVL30:
 275              		.thumb
 276 00e8 C7E7     		b	.L10
 277              	.LVL31:
ARM GAS  C:\Users\z80\AppData\Local\Temp\cckEhmmh.s 			page 6


 278              	.L17:
 279              	.LBE26:
 280              	.LBB27:
 281              		.loc 1 181 0
 282 00ea 2023     		movs	r3, #32
 283              	.LVL32:
 284              	@ 181 "../chibios_2.4.x/os/hal/platforms/STM32/serial_lld.c" 1
 285 00ec 83F31188 		msr     BASEPRI, r3
 286              	@ 0 "" 2
 287              	.LVL33:
 288              		.thumb
 289              	.LBE27:
 290 00f0 FFF7FEFF 		bl	dbg_check_lock_from_isr
 291              	.LVL34:
 292              		.loc 1 182 0
 293 00f4 AB68     		ldr	r3, [r5, #8]
 294 00f6 281D     		adds	r0, r5, #4
 295 00f8 43F40073 		orr	r3, r3, #512
 296 00fc AB60     		str	r3, [r5, #8]
 297 00fe 0021     		movs	r1, #0
 298 0100 FFF7FEFF 		bl	chEvtBroadcastFlagsI
 299              		.loc 1 183 0
 300 0104 FFF7FEFF 		bl	dbg_check_unlock_from_isr
 301              	.LBB28:
 302 0108 0023     		movs	r3, #0
 303              	.LVL35:
 304              	@ 183 "../chibios_2.4.x/os/hal/platforms/STM32/serial_lld.c" 1
 305 010a 83F31188 		msr     BASEPRI, r3
 306              	@ 0 "" 2
 307              	.LVL36:
 308              		.thumb
 309              	.LBE28:
 310              		.loc 1 184 0
 311 010e 3388     		ldrh	r3, [r6, #0]
 312              	.LVL37:
 313 0110 23F48073 		bic	r3, r3, #256
 314 0114 1B04     		lsls	r3, r3, #16
 315 0116 1B0C     		lsrs	r3, r3, #16
 316 0118 3380     		strh	r3, [r6, #0]	@ movhi
 317 011a ABE7     		b	.L9
 318              	.LVL38:
 319              	.L19:
 320              	.LBB29:
 321              	.LBB30:
 322              		.loc 1 195 0
 323 011c 2023     		movs	r3, #32
 324              	.LVL39:
 325              	@ 195 "../chibios_2.4.x/os/hal/platforms/STM32/serial_lld.c" 1
 326 011e 83F31188 		msr     BASEPRI, r3
 327              	@ 0 "" 2
 328              	.LVL40:
 329              		.thumb
 330              	.LBE30:
 331 0122 FFF7FEFF 		bl	dbg_check_lock_from_isr
 332              	.LVL41:
 333              		.loc 1 196 0
 334 0126 05F13000 		add	r0, r5, #48
ARM GAS  C:\Users\z80\AppData\Local\Temp\cckEhmmh.s 			page 7


 335 012a FFF7FEFF 		bl	chOQGetI
 336              	.LVL42:
 337              		.loc 1 197 0
 338 012e 0028     		cmp	r0, #0
 339              		.loc 1 202 0
 340 0130 A4BF     		itt	ge
 341 0132 80B2     		uxthge	r0, r0
 342              	.LVL43:
 343 0134 B080     		strhge	r0, [r6, #4]	@ movhi
 344              		.loc 1 197 0
 345 0136 05DB     		blt	.L20
 346              	.L13:
 347              		.loc 1 203 0
 348 0138 FFF7FEFF 		bl	dbg_check_unlock_from_isr
 349              	.LBB31:
 350 013c 0023     		movs	r3, #0
 351              	@ 203 "../chibios_2.4.x/os/hal/platforms/STM32/serial_lld.c" 1
 352 013e 83F31188 		msr     BASEPRI, r3
 353              	@ 0 "" 2
 354              	.LVL44:
 355              		.thumb
 356 0142 A0E7     		b	.L11
 357              	.LVL45:
 358              	.L20:
 359              	.LBE31:
 360              		.loc 1 198 0
 361 0144 AB68     		ldr	r3, [r5, #8]
 362 0146 281D     		adds	r0, r5, #4
 363 0148 43F00803 		orr	r3, r3, #8
 364 014c AB60     		str	r3, [r5, #8]
 365 014e 0021     		movs	r1, #0
 366 0150 FFF7FEFF 		bl	chEvtBroadcastFlagsI
 367              		.loc 1 199 0
 368 0154 27F0C003 		bic	r3, r7, #192
 369 0158 43F04003 		orr	r3, r3, #64
 370 015c B381     		strh	r3, [r6, #12]	@ movhi
 371 015e EBE7     		b	.L13
 372              	.LBE29:
 373              		.cfi_endproc
 374              	.LFE65:
 375              		.size	serve_interrupt, .-serve_interrupt
 376              		.section	.text.VectorD4,"ax",%progbits
 377              		.align	2
 378              		.p2align 4,,15
 379              		.global	VectorD4
 380              		.thumb
 381              		.thumb_func
 382              		.type	VectorD4, %function
 383              	VectorD4:
 384              	.LFB68:
 385              		.loc 1 274 0
 386              		.cfi_startproc
 387              		@ args = 0, pretend = 0, frame = 0
 388              		@ frame_needed = 0, uses_anonymous_args = 0
 389 0000 08B5     		push	{r3, lr}
 390              	.LCFI1:
 391              		.cfi_def_cfa_offset 8
ARM GAS  C:\Users\z80\AppData\Local\Temp\cckEhmmh.s 			page 8


 392              		.loc 1 276 0
 393              		.cfi_offset 14, -4
 394              		.cfi_offset 3, -8
 395 0002 FFF7FEFF 		bl	dbg_check_enter_isr
 396              		.loc 1 278 0
 397 0006 40F20000 		movw	r0, #:lower16:.LANCHOR0
 398 000a C0F20000 		movt	r0, #:upper16:.LANCHOR0
 399 000e FFF7FEFF 		bl	serve_interrupt
 400              		.loc 1 280 0
 401 0012 FFF7FEFF 		bl	dbg_check_leave_isr
 402 0016 FFF7FEFF 		bl	_port_irq_epilogue
 403              		.loc 1 281 0
 404 001a 08BD     		pop	{r3, pc}
 405              		.cfi_endproc
 406              	.LFE68:
 407              		.size	VectorD4, .-VectorD4
 408 001c AFF30080 		.section	.text.VectorD8,"ax",%progbits
 409              		.align	2
 410              		.p2align 4,,15
 411              		.global	VectorD8
 412              		.thumb
 413              		.thumb_func
 414              		.type	VectorD8, %function
 415              	VectorD8:
 416              	.LFB69:
 417              		.loc 1 290 0
 418              		.cfi_startproc
 419              		@ args = 0, pretend = 0, frame = 0
 420              		@ frame_needed = 0, uses_anonymous_args = 0
 421 0000 08B5     		push	{r3, lr}
 422              	.LCFI2:
 423              		.cfi_def_cfa_offset 8
 424              		.loc 1 292 0
 425              		.cfi_offset 14, -4
 426              		.cfi_offset 3, -8
 427 0002 FFF7FEFF 		bl	dbg_check_enter_isr
 428              		.loc 1 294 0
 429 0006 40F20000 		movw	r0, #:lower16:.LANCHOR1
 430 000a C0F20000 		movt	r0, #:upper16:.LANCHOR1
 431 000e FFF7FEFF 		bl	serve_interrupt
 432              		.loc 1 296 0
 433 0012 FFF7FEFF 		bl	dbg_check_leave_isr
 434 0016 FFF7FEFF 		bl	_port_irq_epilogue
 435              		.loc 1 297 0
 436 001a 08BD     		pop	{r3, pc}
 437              		.cfi_endproc
 438              	.LFE69:
 439              		.size	VectorD8, .-VectorD8
 440 001c AFF30080 		.section	.text.sd_lld_init,"ax",%progbits
 441              		.align	2
 442              		.p2align 4,,15
 443              		.global	sd_lld_init
 444              		.thumb
 445              		.thumb_func
 446              		.type	sd_lld_init, %function
 447              	sd_lld_init:
 448              	.LFB70:
ARM GAS  C:\Users\z80\AppData\Local\Temp\cckEhmmh.s 			page 9


 449              		.loc 1 373 0
 450              		.cfi_startproc
 451              		@ args = 0, pretend = 0, frame = 0
 452              		@ frame_needed = 0, uses_anonymous_args = 0
 453 0000 38B5     		push	{r3, r4, r5, lr}
 454              	.LCFI3:
 455              		.cfi_def_cfa_offset 16
 456              		.loc 1 376 0
 457 0002 40F20005 		movw	r5, #:lower16:.LANCHOR0
 458              		.cfi_offset 14, -4
 459              		.cfi_offset 5, -8
 460              		.cfi_offset 4, -12
 461              		.cfi_offset 3, -16
 462 0006 C0F20005 		movt	r5, #:upper16:.LANCHOR0
 463 000a 40F20002 		movw	r2, #:lower16:notify1
 464 000e C0F20002 		movt	r2, #:upper16:notify1
 465 0012 2846     		mov	r0, r5
 466 0014 0021     		movs	r1, #0
 467              		.loc 1 381 0
 468 0016 40F20004 		movw	r4, #:lower16:.LANCHOR1
 469              		.loc 1 376 0
 470 001a FFF7FEFF 		bl	sdObjectInit
 471              		.loc 1 381 0
 472 001e C0F20004 		movt	r4, #:upper16:.LANCHOR1
 473 0022 40F20002 		movw	r2, #:lower16:notify2
 474              		.loc 1 377 0
 475 0026 4FF46053 		mov	r3, #14336
 476 002a C4F20103 		movt	r3, 16385
 477              		.loc 1 381 0
 478 002e C0F20002 		movt	r2, #:upper16:notify2
 479 0032 2046     		mov	r0, r4
 480 0034 0021     		movs	r1, #0
 481              		.loc 1 377 0
 482 0036 C5F85034 		str	r3, [r5, #1104]
 483              		.loc 1 381 0
 484 003a FFF7FEFF 		bl	sdObjectInit
 485              		.loc 1 382 0
 486 003e 4FF48843 		mov	r3, #17408
 487 0042 C4F20003 		movt	r3, 16384
 488 0046 C4F85034 		str	r3, [r4, #1104]
 489              		.loc 1 404 0
 490 004a 38BD     		pop	{r3, r4, r5, pc}
 491              		.cfi_endproc
 492              	.LFE70:
 493              		.size	sd_lld_init, .-sd_lld_init
 494 004c AFF30080 		.section	.text.sd_lld_start,"ax",%progbits
 495              		.align	2
 496              		.p2align 4,,15
 497              		.global	sd_lld_start
 498              		.thumb
 499              		.thumb_func
 500              		.type	sd_lld_start, %function
 501              	sd_lld_start:
 502              	.LFB71:
 503              		.loc 1 416 0
 504              		.cfi_startproc
 505              		@ args = 0, pretend = 0, frame = 0
ARM GAS  C:\Users\z80\AppData\Local\Temp\cckEhmmh.s 			page 10


 506              		@ frame_needed = 0, uses_anonymous_args = 0
 507              	.LVL46:
 508 0000 38B5     		push	{r3, r4, r5, lr}
 509              	.LCFI4:
 510              		.cfi_def_cfa_offset 16
 511              		.loc 1 419 0
 512 0002 254A     		ldr	r2, .L33
 513              		.loc 1 421 0
 514 0004 037B     		ldrb	r3, [r0, #12]	@ zero_extendqisi2
 515              		.cfi_offset 14, -4
 516              		.cfi_offset 5, -8
 517              		.cfi_offset 4, -12
 518              		.cfi_offset 3, -16
 519              		.loc 1 416 0
 520 0006 0C46     		mov	r4, r1
 521              		.loc 1 419 0
 522 0008 0029     		cmp	r1, #0
 523 000a 08BF     		it	eq
 524 000c 1446     		moveq	r4, r2
 525              	.LVL47:
 526              		.loc 1 421 0
 527 000e 012B     		cmp	r3, #1
 528              		.loc 1 416 0
 529 0010 0546     		mov	r5, r0
 530              		.loc 1 421 0
 531 0012 20D0     		beq	.L31
 532              	.LVL48:
 533              	.L26:
 534              	.LBB32:
 535              	.LBB33:
 536              		.loc 1 112 0
 537 0014 2168     		ldr	r1, [r4, #0]
 538 0016 4FF4D852 		mov	r2, #6912
 539 001a C0F2B702 		movt	r2, 183
 540              	.LBE33:
 541              	.LBE32:
 542              		.loc 1 524 0
 543 001e D5F85034 		ldr	r3, [r5, #1104]
 544              	.LVL49:
 545              	.LBB35:
 546              	.LBB34:
 547              		.loc 1 112 0
 548 0022 B2FBF1F2 		udiv	r2, r2, r1
 549 0026 92B2     		uxth	r2, r2
 550 0028 1A81     		strh	r2, [r3, #8]	@ movhi
 551              		.loc 1 117 0
 552 002a A288     		ldrh	r2, [r4, #4]
 553              		.loc 1 120 0
 554 002c E088     		ldrh	r0, [r4, #6]
 555              		.loc 1 121 0
 556 002e 2189     		ldrh	r1, [r4, #8]
 557              		.loc 1 117 0
 558 0030 42F40452 		orr	r2, r2, #8448
 559 0034 42F02C02 		orr	r2, r2, #44
 560 0038 92B2     		uxth	r2, r2
 561              		.loc 1 120 0
 562 003a 40F04000 		orr	r0, r0, #64
ARM GAS  C:\Users\z80\AppData\Local\Temp\cckEhmmh.s 			page 11


 563              		.loc 1 121 0
 564 003e 41F00101 		orr	r1, r1, #1
 565              		.loc 1 117 0
 566 0042 9A81     		strh	r2, [r3, #12]	@ movhi
 567              		.loc 1 120 0
 568 0044 80B2     		uxth	r0, r0
 569              		.loc 1 122 0
 570 0046 0022     		movs	r2, #0
 571              		.loc 1 121 0
 572 0048 89B2     		uxth	r1, r1
 573              		.loc 1 120 0
 574 004a 1882     		strh	r0, [r3, #16]	@ movhi
 575              		.loc 1 121 0
 576 004c 9982     		strh	r1, [r3, #20]	@ movhi
 577              		.loc 1 122 0
 578 004e 1A80     		strh	r2, [r3, #0]	@ movhi
 579              		.loc 1 123 0
 580 0050 1A88     		ldrh	r2, [r3, #0]
 581              		.loc 1 124 0
 582 0052 9B88     		ldrh	r3, [r3, #4]
 583              	.LBE34:
 584              	.LBE35:
 585              		.loc 1 466 0
 586 0054 38BD     		pop	{r3, r4, r5, pc}
 587              	.LVL50:
 588              	.L31:
 589              		.loc 1 423 0
 590 0056 114B     		ldr	r3, .L33+4
 591 0058 9842     		cmp	r0, r3
 592 005a 0FD0     		beq	.L32
 593              		.loc 1 430 0
 594 005c 104B     		ldr	r3, .L33+8
 595 005e 9842     		cmp	r0, r3
 596 0060 D8D1     		bne	.L26
 597              		.loc 1 431 0
 598 0062 4FF48053 		mov	r3, #4096
 599 0066 C4F20203 		movt	r3, 16386
 600 006a DA69     		ldr	r2, [r3, #28]
 601              		.loc 1 432 0
 602 006c 2620     		movs	r0, #38
 603              		.loc 1 431 0
 604 006e 42F40032 		orr	r2, r2, #131072
 605 0072 DA61     		str	r2, [r3, #28]
 606              		.loc 1 432 0
 607 0074 C021     		movs	r1, #192
 608 0076 FFF7FEFF 		bl	nvicEnableVector
 609 007a CBE7     		b	.L26
 610              	.L32:
 611              		.loc 1 424 0
 612 007c 4FF48053 		mov	r3, #4096
 613 0080 C4F20203 		movt	r3, 16386
 614 0084 9A69     		ldr	r2, [r3, #24]
 615              		.loc 1 425 0
 616 0086 2520     		movs	r0, #37
 617              		.loc 1 424 0
 618 0088 42F48042 		orr	r2, r2, #16384
 619 008c 9A61     		str	r2, [r3, #24]
ARM GAS  C:\Users\z80\AppData\Local\Temp\cckEhmmh.s 			page 12


 620              		.loc 1 425 0
 621 008e C021     		movs	r1, #192
 622 0090 FFF7FEFF 		bl	nvicEnableVector
 623 0094 BEE7     		b	.L26
 624              	.L34:
 625 0096 00BF     		.align	2
 626              	.L33:
 627 0098 00000000 		.word	.LANCHOR2
 628 009c 00000000 		.word	.LANCHOR0
 629 00a0 00000000 		.word	.LANCHOR1
 630              		.cfi_endproc
 631              	.LFE71:
 632              		.size	sd_lld_start, .-sd_lld_start
 633 00a4 AFF30080 		.section	.text.sd_lld_stop,"ax",%progbits
 633      AFF30080 
 633      AFF30080 
 634              		.align	2
 635              		.p2align 4,,15
 636              		.global	sd_lld_stop
 637              		.thumb
 638              		.thumb_func
 639              		.type	sd_lld_stop, %function
 640              	sd_lld_stop:
 641              	.LFB72:
 642              		.loc 1 477 0
 643              		.cfi_startproc
 644              		@ args = 0, pretend = 0, frame = 0
 645              		@ frame_needed = 0, uses_anonymous_args = 0
 646              	.LVL51:
 647 0000 08B5     		push	{r3, lr}
 648              	.LCFI5:
 649              		.cfi_def_cfa_offset 8
 650              		.loc 1 479 0
 651 0002 037B     		ldrb	r3, [r0, #12]	@ zero_extendqisi2
 652              		.cfi_offset 14, -4
 653              		.cfi_offset 3, -8
 654 0004 022B     		cmp	r3, #2
 655 0006 00D0     		beq	.L38
 656              	.LVL52:
 657              	.L35:
 658              		.loc 1 524 0
 659 0008 08BD     		pop	{r3, pc}
 660              	.LVL53:
 661              	.L38:
 662              		.loc 1 480 0
 663 000a D0F85034 		ldr	r3, [r0, #1104]
 664              	.LVL54:
 665              	.LBB36:
 666              	.LBB37:
 667              		.loc 1 135 0
 668 000e 0022     		movs	r2, #0
 669 0010 9A81     		strh	r2, [r3, #12]	@ movhi
 670              		.loc 1 136 0
 671 0012 1A82     		strh	r2, [r3, #16]	@ movhi
 672              		.loc 1 137 0
 673 0014 9A82     		strh	r2, [r3, #20]	@ movhi
 674              	.LBE37:
ARM GAS  C:\Users\z80\AppData\Local\Temp\cckEhmmh.s 			page 13


 675              	.LBE36:
 676              		.loc 1 482 0
 677 0016 0F4B     		ldr	r3, .L40
 678 0018 9842     		cmp	r0, r3
 679 001a 0ED0     		beq	.L39
 680              		.loc 1 489 0
 681 001c 0E4B     		ldr	r3, .L40+4
 682 001e 9842     		cmp	r0, r3
 683 0020 F2D1     		bne	.L35
 684              		.loc 1 490 0
 685 0022 4FF48053 		mov	r3, #4096
 686 0026 C4F20203 		movt	r3, 16386
 687 002a DA69     		ldr	r2, [r3, #28]
 688              		.loc 1 491 0
 689 002c 2620     		movs	r0, #38
 690              	.LVL55:
 691              		.loc 1 490 0
 692 002e 22F40032 		bic	r2, r2, #131072
 693 0032 DA61     		str	r2, [r3, #28]
 694              		.loc 1 491 0
 695 0034 FFF7FEFF 		bl	nvicDisableVector
 696 0038 E6E7     		b	.L35
 697              	.LVL56:
 698              	.L39:
 699              		.loc 1 483 0
 700 003a 4FF48053 		mov	r3, #4096
 701 003e C4F20203 		movt	r3, 16386
 702 0042 9A69     		ldr	r2, [r3, #24]
 703              		.loc 1 484 0
 704 0044 2520     		movs	r0, #37
 705              	.LVL57:
 706              		.loc 1 483 0
 707 0046 22F48042 		bic	r2, r2, #16384
 708 004a 9A61     		str	r2, [r3, #24]
 709              		.loc 1 484 0
 710 004c FFF7FEFF 		bl	nvicDisableVector
 711              		.loc 1 485 0
 712 0050 DAE7     		b	.L35
 713              	.L41:
 714 0052 00BF     		.align	2
 715              	.L40:
 716 0054 00000000 		.word	.LANCHOR0
 717 0058 00000000 		.word	.LANCHOR1
 718              		.cfi_endproc
 719              	.LFE72:
 720              		.size	sd_lld_stop, .-sd_lld_stop
 721              		.global	SD1
 722              		.global	SD2
 723 005c AFF30080 		.section	.rodata.default_config,"a",%progbits
 724              		.align	2
 725              		.set	.LANCHOR2,. + 0
 726              		.type	default_config, %object
 727              		.size	default_config, 12
 728              	default_config:
 729 0000 00C20100 		.word	115200
 730 0004 0000     		.short	0
 731 0006 0040     		.short	16384
ARM GAS  C:\Users\z80\AppData\Local\Temp\cckEhmmh.s 			page 14


 732 0008 0000     		.short	0
 733 000a 0000     		.space	2
 734              		.section	.bss.SD1,"aw",%nobits
 735              		.align	2
 736              		.set	.LANCHOR0,. + 0
 737              		.type	SD1, %object
 738              		.size	SD1, 1108
 739              	SD1:
 740 0000 00000000 		.space	1108
 740      00000000 
 740      00000000 
 740      00000000 
 740      00000000 
 741              		.section	.bss.SD2,"aw",%nobits
 742              		.align	2
 743              		.set	.LANCHOR1,. + 0
 744              		.type	SD2, %object
 745              		.size	SD2, 1108
 746              	SD2:
 747 0000 00000000 		.space	1108
 747      00000000 
 747      00000000 
 747      00000000 
 747      00000000 
 748              		.text
 749              	.Letext0:
 750              		.section	.debug_loc,"",%progbits
 751              	.Ldebug_loc0:
 752              	.LLST0:
 753 0000 00000000 		.4byte	.LFB65
 754 0004 04000000 		.4byte	.LCFI0
 755 0008 0200     		.2byte	0x2
 756 000a 7D       		.byte	0x7d
 757 000b 00       		.sleb128 0
 758 000c 04000000 		.4byte	.LCFI0
 759 0010 60010000 		.4byte	.LFE65
 760 0014 0200     		.2byte	0x2
 761 0016 7D       		.byte	0x7d
 762 0017 20       		.sleb128 32
 763 0018 00000000 		.4byte	0x0
 764 001c 00000000 		.4byte	0x0
 765              	.LLST1:
 766 0020 00000000 		.4byte	.LVL2
 767 0024 51000000 		.4byte	.LVL13-1
 768 0028 0100     		.2byte	0x1
 769 002a 50       		.byte	0x50
 770 002b 51000000 		.4byte	.LVL13-1
 771 002f 60010000 		.4byte	.LFE65
 772 0033 0100     		.2byte	0x1
 773 0035 55       		.byte	0x55
 774 0036 00000000 		.4byte	0x0
 775 003a 00000000 		.4byte	0x0
 776              	.LLST2:
 777 003e 08000000 		.4byte	.LVL3
 778 0042 51000000 		.4byte	.LVL13-1
 779 0046 0300     		.2byte	0x3
 780 0048 70       		.byte	0x70
ARM GAS  C:\Users\z80\AppData\Local\Temp\cckEhmmh.s 			page 15


 781 0049 D008     		.sleb128 1104
 782 004b 51000000 		.4byte	.LVL13-1
 783 004f 60010000 		.4byte	.LFE65
 784 0053 0100     		.2byte	0x1
 785 0055 56       		.byte	0x56
 786 0056 00000000 		.4byte	0x0
 787 005a 00000000 		.4byte	0x0
 788              	.LLST3:
 789 005e 20000000 		.4byte	.LVL6
 790 0062 6E000000 		.4byte	.LVL16
 791 0066 0100     		.2byte	0x1
 792 0068 54       		.byte	0x54
 793 0069 00000000 		.4byte	0x0
 794 006d 00000000 		.4byte	0x0
 795              	.LLST4:
 796 0071 20000000 		.4byte	.LVL6
 797 0075 51000000 		.4byte	.LVL13-1
 798 0079 0100     		.2byte	0x1
 799 007b 50       		.byte	0x50
 800 007c 51000000 		.4byte	.LVL13-1
 801 0080 6E000000 		.4byte	.LVL16
 802 0084 0100     		.2byte	0x1
 803 0086 55       		.byte	0x55
 804 0087 00000000 		.4byte	0x0
 805 008b 00000000 		.4byte	0x0
 806              	.LLST5:
 807 008f 20000000 		.4byte	.LVL6
 808 0093 2A000000 		.4byte	.LVL7
 809 0097 0200     		.2byte	0x2
 810 0099 30       		.byte	0x30
 811 009a 9F       		.byte	0x9f
 812 009b 2A000000 		.4byte	.LVL7
 813 009f 34000000 		.4byte	.LVL8
 814 00a3 0100     		.2byte	0x1
 815 00a5 5A       		.byte	0x5a
 816 00a6 34000000 		.4byte	.LVL8
 817 00aa 3E000000 		.4byte	.LVL9
 818 00ae 0100     		.2byte	0x1
 819 00b0 5A       		.byte	0x5a
 820 00b1 3E000000 		.4byte	.LVL9
 821 00b5 48000000 		.4byte	.LVL10
 822 00b9 0100     		.2byte	0x1
 823 00bb 5A       		.byte	0x5a
 824 00bc 48000000 		.4byte	.LVL10
 825 00c0 5A000000 		.4byte	.LVL14
 826 00c4 0100     		.2byte	0x1
 827 00c6 5A       		.byte	0x5a
 828 00c7 00000000 		.4byte	0x0
 829 00cb 00000000 		.4byte	0x0
 830              	.LLST6:
 831 00cf 4E000000 		.4byte	.LVL12
 832 00d3 51000000 		.4byte	.LVL13-1
 833 00d7 0100     		.2byte	0x1
 834 00d9 53       		.byte	0x53
 835 00da 00000000 		.4byte	0x0
 836 00de 00000000 		.4byte	0x0
 837              	.LLST7:
ARM GAS  C:\Users\z80\AppData\Local\Temp\cckEhmmh.s 			page 16


 838 00e2 6E000000 		.4byte	.LVL16
 839 00e6 8E000000 		.4byte	.LVL19
 840 00ea 0100     		.2byte	0x1
 841 00ec 53       		.byte	0x53
 842 00ed C6000000 		.4byte	.LVL25
 843 00f1 CC000000 		.4byte	.LVL27
 844 00f5 0100     		.2byte	0x1
 845 00f7 53       		.byte	0x53
 846 00f8 EA000000 		.4byte	.LVL31
 847 00fc EC000000 		.4byte	.LVL32
 848 0100 0100     		.2byte	0x1
 849 0102 53       		.byte	0x53
 850 0103 1C010000 		.4byte	.LVL38
 851 0107 1E010000 		.4byte	.LVL39
 852 010b 0100     		.2byte	0x1
 853 010d 53       		.byte	0x53
 854 010e 00000000 		.4byte	0x0
 855 0112 00000000 		.4byte	0x0
 856              	.LLST8:
 857 0116 92000000 		.4byte	.LVL20
 858 011a 95000000 		.4byte	.LVL21-1
 859 011e 0100     		.2byte	0x1
 860 0120 53       		.byte	0x53
 861 0121 00000000 		.4byte	0x0
 862 0125 00000000 		.4byte	0x0
 863              	.LLST9:
 864 0129 B0000000 		.4byte	.LVL23
 865 012d B4000000 		.4byte	.LVL24
 866 0131 0100     		.2byte	0x1
 867 0133 53       		.byte	0x53
 868 0134 00000000 		.4byte	0x0
 869 0138 00000000 		.4byte	0x0
 870              	.LLST10:
 871 013c D0000000 		.4byte	.LVL28
 872 0140 D3000000 		.4byte	.LVL29-1
 873 0144 0100     		.2byte	0x1
 874 0146 53       		.byte	0x53
 875 0147 00000000 		.4byte	0x0
 876 014b 00000000 		.4byte	0x0
 877              	.LLST11:
 878 014f 7A000000 		.4byte	.LVL17
 879 0153 8E000000 		.4byte	.LVL19
 880 0157 0100     		.2byte	0x1
 881 0159 53       		.byte	0x53
 882 015a C6000000 		.4byte	.LVL25
 883 015e CA000000 		.4byte	.LVL26
 884 0162 0100     		.2byte	0x1
 885 0164 53       		.byte	0x53
 886 0165 E8000000 		.4byte	.LVL30
 887 0169 EA000000 		.4byte	.LVL31
 888 016d 0100     		.2byte	0x1
 889 016f 53       		.byte	0x53
 890 0170 1C010000 		.4byte	.LVL38
 891 0174 1E010000 		.4byte	.LVL39
 892 0178 0100     		.2byte	0x1
 893 017a 53       		.byte	0x53
 894 017b 00000000 		.4byte	0x0
ARM GAS  C:\Users\z80\AppData\Local\Temp\cckEhmmh.s 			page 17


 895 017f 00000000 		.4byte	0x0
 896              	.LLST12:
 897 0183 F0000000 		.4byte	.LVL33
 898 0187 F3000000 		.4byte	.LVL34-1
 899 018b 0100     		.2byte	0x1
 900 018d 53       		.byte	0x53
 901 018e 00000000 		.4byte	0x0
 902 0192 00000000 		.4byte	0x0
 903              	.LLST13:
 904 0196 0E010000 		.4byte	.LVL36
 905 019a 10010000 		.4byte	.LVL37
 906 019e 0100     		.2byte	0x1
 907 01a0 53       		.byte	0x53
 908 01a1 00000000 		.4byte	0x0
 909 01a5 00000000 		.4byte	0x0
 910              	.LLST14:
 911 01a9 2E010000 		.4byte	.LVL42
 912 01ad 34010000 		.4byte	.LVL43
 913 01b1 0100     		.2byte	0x1
 914 01b3 50       		.byte	0x50
 915 01b4 00000000 		.4byte	0x0
 916 01b8 00000000 		.4byte	0x0
 917              	.LLST15:
 918 01bc 22010000 		.4byte	.LVL40
 919 01c0 25010000 		.4byte	.LVL41-1
 920 01c4 0100     		.2byte	0x1
 921 01c6 53       		.byte	0x53
 922 01c7 00000000 		.4byte	0x0
 923 01cb 00000000 		.4byte	0x0
 924              	.LLST16:
 925 01cf 86000000 		.4byte	.LVL18
 926 01d3 8E000000 		.4byte	.LVL19
 927 01d7 0100     		.2byte	0x1
 928 01d9 53       		.byte	0x53
 929 01da C6000000 		.4byte	.LVL25
 930 01de CA000000 		.4byte	.LVL26
 931 01e2 0100     		.2byte	0x1
 932 01e4 53       		.byte	0x53
 933 01e5 42010000 		.4byte	.LVL44
 934 01e9 44010000 		.4byte	.LVL45
 935 01ed 0100     		.2byte	0x1
 936 01ef 53       		.byte	0x53
 937 01f0 00000000 		.4byte	0x0
 938 01f4 00000000 		.4byte	0x0
 939              	.LLST17:
 940 01f8 00000000 		.4byte	.LFB68
 941 01fc 02000000 		.4byte	.LCFI1
 942 0200 0200     		.2byte	0x2
 943 0202 7D       		.byte	0x7d
 944 0203 00       		.sleb128 0
 945 0204 02000000 		.4byte	.LCFI1
 946 0208 1C000000 		.4byte	.LFE68
 947 020c 0200     		.2byte	0x2
 948 020e 7D       		.byte	0x7d
 949 020f 08       		.sleb128 8
 950 0210 00000000 		.4byte	0x0
 951 0214 00000000 		.4byte	0x0
ARM GAS  C:\Users\z80\AppData\Local\Temp\cckEhmmh.s 			page 18


 952              	.LLST18:
 953 0218 00000000 		.4byte	.LFB69
 954 021c 02000000 		.4byte	.LCFI2
 955 0220 0200     		.2byte	0x2
 956 0222 7D       		.byte	0x7d
 957 0223 00       		.sleb128 0
 958 0224 02000000 		.4byte	.LCFI2
 959 0228 1C000000 		.4byte	.LFE69
 960 022c 0200     		.2byte	0x2
 961 022e 7D       		.byte	0x7d
 962 022f 08       		.sleb128 8
 963 0230 00000000 		.4byte	0x0
 964 0234 00000000 		.4byte	0x0
 965              	.LLST19:
 966 0238 00000000 		.4byte	.LFB70
 967 023c 02000000 		.4byte	.LCFI3
 968 0240 0200     		.2byte	0x2
 969 0242 7D       		.byte	0x7d
 970 0243 00       		.sleb128 0
 971 0244 02000000 		.4byte	.LCFI3
 972 0248 4C000000 		.4byte	.LFE70
 973 024c 0200     		.2byte	0x2
 974 024e 7D       		.byte	0x7d
 975 024f 10       		.sleb128 16
 976 0250 00000000 		.4byte	0x0
 977 0254 00000000 		.4byte	0x0
 978              	.LLST20:
 979 0258 00000000 		.4byte	.LFB71
 980 025c 02000000 		.4byte	.LCFI4
 981 0260 0200     		.2byte	0x2
 982 0262 7D       		.byte	0x7d
 983 0263 00       		.sleb128 0
 984 0264 02000000 		.4byte	.LCFI4
 985 0268 A4000000 		.4byte	.LFE71
 986 026c 0200     		.2byte	0x2
 987 026e 7D       		.byte	0x7d
 988 026f 10       		.sleb128 16
 989 0270 00000000 		.4byte	0x0
 990 0274 00000000 		.4byte	0x0
 991              	.LLST21:
 992 0278 00000000 		.4byte	.LVL46
 993 027c 14000000 		.4byte	.LVL48
 994 0280 0100     		.2byte	0x1
 995 0282 50       		.byte	0x50
 996 0283 14000000 		.4byte	.LVL48
 997 0287 A4000000 		.4byte	.LFE71
 998 028b 0100     		.2byte	0x1
 999 028d 55       		.byte	0x55
 1000 028e 00000000 		.4byte	0x0
 1001 0292 00000000 		.4byte	0x0
 1002              	.LLST22:
 1003 0296 00000000 		.4byte	.LVL46
 1004 029a 0E000000 		.4byte	.LVL47
 1005 029e 0100     		.2byte	0x1
 1006 02a0 51       		.byte	0x51
 1007 02a1 0E000000 		.4byte	.LVL47
 1008 02a5 A4000000 		.4byte	.LFE71
ARM GAS  C:\Users\z80\AppData\Local\Temp\cckEhmmh.s 			page 19


 1009 02a9 0100     		.2byte	0x1
 1010 02ab 54       		.byte	0x54
 1011 02ac 00000000 		.4byte	0x0
 1012 02b0 00000000 		.4byte	0x0
 1013              	.LLST23:
 1014 02b4 22000000 		.4byte	.LVL49
 1015 02b8 56000000 		.4byte	.LVL50
 1016 02bc 0100     		.2byte	0x1
 1017 02be 54       		.byte	0x54
 1018 02bf 00000000 		.4byte	0x0
 1019 02c3 00000000 		.4byte	0x0
 1020              	.LLST24:
 1021 02c7 22000000 		.4byte	.LVL49
 1022 02cb 56000000 		.4byte	.LVL50
 1023 02cf 0300     		.2byte	0x3
 1024 02d1 75       		.byte	0x75
 1025 02d2 D008     		.sleb128 1104
 1026 02d4 00000000 		.4byte	0x0
 1027 02d8 00000000 		.4byte	0x0
 1028              	.LLST25:
 1029 02dc 00000000 		.4byte	.LFB72
 1030 02e0 02000000 		.4byte	.LCFI5
 1031 02e4 0200     		.2byte	0x2
 1032 02e6 7D       		.byte	0x7d
 1033 02e7 00       		.sleb128 0
 1034 02e8 02000000 		.4byte	.LCFI5
 1035 02ec 5C000000 		.4byte	.LFE72
 1036 02f0 0200     		.2byte	0x2
 1037 02f2 7D       		.byte	0x7d
 1038 02f3 08       		.sleb128 8
 1039 02f4 00000000 		.4byte	0x0
 1040 02f8 00000000 		.4byte	0x0
 1041              	.LLST26:
 1042 02fc 00000000 		.4byte	.LVL51
 1043 0300 08000000 		.4byte	.LVL52
 1044 0304 0100     		.2byte	0x1
 1045 0306 50       		.byte	0x50
 1046 0307 0A000000 		.4byte	.LVL53
 1047 030b 2E000000 		.4byte	.LVL55
 1048 030f 0100     		.2byte	0x1
 1049 0311 50       		.byte	0x50
 1050 0312 3A000000 		.4byte	.LVL56
 1051 0316 46000000 		.4byte	.LVL57
 1052 031a 0100     		.2byte	0x1
 1053 031c 50       		.byte	0x50
 1054 031d 00000000 		.4byte	0x0
 1055 0321 00000000 		.4byte	0x0
 1056              	.LLST27:
 1057 0325 0E000000 		.4byte	.LVL54
 1058 0329 2E000000 		.4byte	.LVL55
 1059 032d 0300     		.2byte	0x3
 1060 032f 70       		.byte	0x70
 1061 0330 D008     		.sleb128 1104
 1062 0332 3A000000 		.4byte	.LVL56
 1063 0336 46000000 		.4byte	.LVL57
 1064 033a 0300     		.2byte	0x3
 1065 033c 70       		.byte	0x70
ARM GAS  C:\Users\z80\AppData\Local\Temp\cckEhmmh.s 			page 20


 1066 033d D008     		.sleb128 1104
 1067 033f 00000000 		.4byte	0x0
 1068 0343 00000000 		.4byte	0x0
 1069              		.file 2 "c:\\programs\\yagarto\\bin\\../lib/gcc/arm-none-eabi/4.5.0/include/stddef.h"
 1070              		.file 3 "c:/programs/yagarto/lib/gcc/../../arm-none-eabi/sys-include/stdint.h"
 1071              		.file 4 "../chibios_2.4.x/os/ports/GCC/ARMCMx/chtypes.h"
 1072              		.file 5 "../chibios_2.4.x/os/kernel/include/chlists.h"
 1073              		.file 6 "../chibios_2.4.x/os/kernel/include/chthreads.h"
 1074              		.file 7 "../chibios_2.4.x/os/ports/GCC/ARMCMx/chcore_v7m.h"
 1075              		.file 8 "../chibios_2.4.x/os/kernel/include/chmtx.h"
 1076              		.file 9 "../chibios_2.4.x/os/kernel/include/chevents.h"
 1077              		.file 10 "../chibios_2.4.x/os/kernel/include/chqueues.h"
 1078              		.file 11 "../chibios_2.4.x/os/kernel/include/chioch.h"
 1079              		.file 12 "../chibios_2.4.x/os/hal/platforms/STM32F1xx/stm32f10x.h"
 1080              		.file 13 "../chibios_2.4.x/os/hal/include/serial.h"
 1081              		.file 14 "../chibios_2.4.x/os/hal/platforms/STM32/serial_lld.h"
 1082              		.file 15 "../chibios_2.4.x/os/ports/common/ARMCMx/CMSIS/include/core_cm3.h"
 1083              		.section	.debug_info
 1084 0000 980E0000 		.4byte	0xe98
 1085 0004 0200     		.2byte	0x2
 1086 0006 00000000 		.4byte	.Ldebug_abbrev0
 1087 000a 04       		.byte	0x4
 1088 000b 01       		.uleb128 0x1
 1089 000c 5B070000 		.4byte	.LASF180
 1090 0010 01       		.byte	0x1
 1091 0011 30050000 		.4byte	.LASF181
 1092 0015 CF030000 		.4byte	.LASF182
 1093 0019 00000000 		.4byte	0x0
 1094 001d 00000000 		.4byte	0x0
 1095 0021 30000000 		.4byte	.Ldebug_ranges0+0x30
 1096 0025 00000000 		.4byte	.Ldebug_line0
 1097 0029 02       		.uleb128 0x2
 1098 002a 04       		.byte	0x4
 1099 002b 05       		.byte	0x5
 1100 002c 696E7400 		.ascii	"int\000"
 1101 0030 03       		.uleb128 0x3
 1102 0031 12000000 		.4byte	.LASF2
 1103 0035 02       		.byte	0x2
 1104 0036 D3       		.byte	0xd3
 1105 0037 3B000000 		.4byte	0x3b
 1106 003b 04       		.uleb128 0x4
 1107 003c 04       		.byte	0x4
 1108 003d 07       		.byte	0x7
 1109 003e 11020000 		.4byte	.LASF0
 1110 0042 04       		.uleb128 0x4
 1111 0043 01       		.byte	0x1
 1112 0044 06       		.byte	0x6
 1113 0045 05010000 		.4byte	.LASF1
 1114 0049 03       		.uleb128 0x3
 1115 004a 34070000 		.4byte	.LASF3
 1116 004e 03       		.byte	0x3
 1117 004f 2A       		.byte	0x2a
 1118 0050 54000000 		.4byte	0x54
 1119 0054 04       		.uleb128 0x4
 1120 0055 01       		.byte	0x1
 1121 0056 08       		.byte	0x8
 1122 0057 C5040000 		.4byte	.LASF4
ARM GAS  C:\Users\z80\AppData\Local\Temp\cckEhmmh.s 			page 21


 1123 005b 04       		.uleb128 0x4
 1124 005c 02       		.byte	0x2
 1125 005d 05       		.byte	0x5
 1126 005e 1E050000 		.4byte	.LASF5
 1127 0062 03       		.uleb128 0x3
 1128 0063 1E020000 		.4byte	.LASF6
 1129 0067 03       		.byte	0x3
 1130 0068 36       		.byte	0x36
 1131 0069 6D000000 		.4byte	0x6d
 1132 006d 04       		.uleb128 0x4
 1133 006e 02       		.byte	0x2
 1134 006f 07       		.byte	0x7
 1135 0070 8B020000 		.4byte	.LASF7
 1136 0074 03       		.uleb128 0x3
 1137 0075 BD040000 		.4byte	.LASF8
 1138 0079 03       		.byte	0x3
 1139 007a 4F       		.byte	0x4f
 1140 007b 7F000000 		.4byte	0x7f
 1141 007f 04       		.uleb128 0x4
 1142 0080 04       		.byte	0x4
 1143 0081 05       		.byte	0x5
 1144 0082 4F010000 		.4byte	.LASF9
 1145 0086 03       		.uleb128 0x3
 1146 0087 D0050000 		.4byte	.LASF10
 1147 008b 03       		.byte	0x3
 1148 008c 50       		.byte	0x50
 1149 008d 91000000 		.4byte	0x91
 1150 0091 04       		.uleb128 0x4
 1151 0092 04       		.byte	0x4
 1152 0093 07       		.byte	0x7
 1153 0094 02060000 		.4byte	.LASF11
 1154 0098 04       		.uleb128 0x4
 1155 0099 08       		.byte	0x8
 1156 009a 05       		.byte	0x5
 1157 009b F7000000 		.4byte	.LASF12
 1158 009f 03       		.uleb128 0x3
 1159 00a0 20000000 		.4byte	.LASF13
 1160 00a4 03       		.byte	0x3
 1161 00a5 78       		.byte	0x78
 1162 00a6 AA000000 		.4byte	0xaa
 1163 00aa 04       		.uleb128 0x4
 1164 00ab 08       		.byte	0x8
 1165 00ac 07       		.byte	0x7
 1166 00ad 77000000 		.4byte	.LASF14
 1167 00b1 03       		.uleb128 0x3
 1168 00b2 69000000 		.4byte	.LASF15
 1169 00b6 03       		.byte	0x3
 1170 00b7 A6       		.byte	0xa6
 1171 00b8 3B000000 		.4byte	0x3b
 1172 00bc 03       		.uleb128 0x3
 1173 00bd D9000000 		.4byte	.LASF16
 1174 00c1 04       		.byte	0x4
 1175 00c2 2E       		.byte	0x2e
 1176 00c3 74000000 		.4byte	0x74
 1177 00c7 03       		.uleb128 0x3
 1178 00c8 EB020000 		.4byte	.LASF17
 1179 00cc 04       		.byte	0x4
ARM GAS  C:\Users\z80\AppData\Local\Temp\cckEhmmh.s 			page 22


 1180 00cd 2F       		.byte	0x2f
 1181 00ce 49000000 		.4byte	0x49
 1182 00d2 03       		.uleb128 0x3
 1183 00d3 6D010000 		.4byte	.LASF18
 1184 00d7 04       		.byte	0x4
 1185 00d8 30       		.byte	0x30
 1186 00d9 49000000 		.4byte	0x49
 1187 00dd 03       		.uleb128 0x3
 1188 00de 8F040000 		.4byte	.LASF19
 1189 00e2 04       		.byte	0x4
 1190 00e3 32       		.byte	0x32
 1191 00e4 86000000 		.4byte	0x86
 1192 00e8 03       		.uleb128 0x3
 1193 00e9 B0020000 		.4byte	.LASF20
 1194 00ed 04       		.byte	0x4
 1195 00ee 33       		.byte	0x33
 1196 00ef 74000000 		.4byte	0x74
 1197 00f3 03       		.uleb128 0x3
 1198 00f4 FF020000 		.4byte	.LASF21
 1199 00f8 04       		.byte	0x4
 1200 00f9 35       		.byte	0x35
 1201 00fa 86000000 		.4byte	0x86
 1202 00fe 03       		.uleb128 0x3
 1203 00ff 56060000 		.4byte	.LASF22
 1204 0103 04       		.byte	0x4
 1205 0104 36       		.byte	0x36
 1206 0105 86000000 		.4byte	0x86
 1207 0109 03       		.uleb128 0x3
 1208 010a 8F050000 		.4byte	.LASF23
 1209 010e 05       		.byte	0x5
 1210 010f 2A       		.byte	0x2a
 1211 0110 14010000 		.4byte	0x114
 1212 0114 05       		.uleb128 0x5
 1213 0115 8F050000 		.4byte	.LASF23
 1214 0119 48       		.byte	0x48
 1215 011a 06       		.byte	0x6
 1216 011b 5E       		.byte	0x5e
 1217 011c 1D020000 		.4byte	0x21d
 1218 0120 06       		.uleb128 0x6
 1219 0121 9C030000 		.4byte	.LASF24
 1220 0125 06       		.byte	0x6
 1221 0126 5F       		.byte	0x5f
 1222 0127 42020000 		.4byte	0x242
 1223 012b 02       		.byte	0x2
 1224 012c 23       		.byte	0x23
 1225 012d 00       		.uleb128 0x0
 1226 012e 06       		.uleb128 0x6
 1227 012f 7E040000 		.4byte	.LASF25
 1228 0133 06       		.byte	0x6
 1229 0134 61       		.byte	0x61
 1230 0135 42020000 		.4byte	0x242
 1231 0139 02       		.byte	0x2
 1232 013a 23       		.byte	0x23
 1233 013b 04       		.uleb128 0x4
 1234 013c 06       		.uleb128 0x6
 1235 013d E0000000 		.4byte	.LASF26
 1236 0141 06       		.byte	0x6
ARM GAS  C:\Users\z80\AppData\Local\Temp\cckEhmmh.s 			page 23


 1237 0142 63       		.byte	0x63
 1238 0143 DD000000 		.4byte	0xdd
 1239 0147 02       		.byte	0x2
 1240 0148 23       		.byte	0x23
 1241 0149 08       		.uleb128 0x8
 1242 014a 06       		.uleb128 0x6
 1243 014b DF070000 		.4byte	.LASF27
 1244 014f 06       		.byte	0x6
 1245 0150 64       		.byte	0x64
 1246 0151 1A030000 		.4byte	0x31a
 1247 0155 02       		.byte	0x2
 1248 0156 23       		.byte	0x23
 1249 0157 0C       		.uleb128 0xc
 1250 0158 06       		.uleb128 0x6
 1251 0159 B3010000 		.4byte	.LASF28
 1252 015d 06       		.byte	0x6
 1253 015e 66       		.byte	0x66
 1254 015f 42020000 		.4byte	0x242
 1255 0163 02       		.byte	0x2
 1256 0164 23       		.byte	0x23
 1257 0165 10       		.uleb128 0x10
 1258 0166 06       		.uleb128 0x6
 1259 0167 28050000 		.4byte	.LASF29
 1260 016b 06       		.byte	0x6
 1261 016c 67       		.byte	0x67
 1262 016d 42020000 		.4byte	0x242
 1263 0171 02       		.byte	0x2
 1264 0172 23       		.byte	0x23
 1265 0173 14       		.uleb128 0x14
 1266 0174 06       		.uleb128 0x6
 1267 0175 92060000 		.4byte	.LASF30
 1268 0179 06       		.byte	0x6
 1269 017a 6E       		.byte	0x6e
 1270 017b 35040000 		.4byte	0x435
 1271 017f 02       		.byte	0x2
 1272 0180 23       		.byte	0x23
 1273 0181 18       		.uleb128 0x18
 1274 0182 06       		.uleb128 0x6
 1275 0183 74060000 		.4byte	.LASF31
 1276 0187 06       		.byte	0x6
 1277 0188 74       		.byte	0x74
 1278 0189 47040000 		.4byte	0x447
 1279 018d 02       		.byte	0x2
 1280 018e 23       		.byte	0x23
 1281 018f 1C       		.uleb128 0x1c
 1282 0190 06       		.uleb128 0x6
 1283 0191 16010000 		.4byte	.LASF32
 1284 0195 06       		.byte	0x6
 1285 0196 79       		.byte	0x79
 1286 0197 D2000000 		.4byte	0xd2
 1287 019b 02       		.byte	0x2
 1288 019c 23       		.byte	0x23
 1289 019d 20       		.uleb128 0x20
 1290 019e 06       		.uleb128 0x6
 1291 019f 6C050000 		.4byte	.LASF33
 1292 01a3 06       		.byte	0x6
 1293 01a4 7D       		.byte	0x7d
ARM GAS  C:\Users\z80\AppData\Local\Temp\cckEhmmh.s 			page 24


 1294 01a5 C7000000 		.4byte	0xc7
 1295 01a9 02       		.byte	0x2
 1296 01aa 23       		.byte	0x23
 1297 01ab 21       		.uleb128 0x21
 1298 01ac 06       		.uleb128 0x6
 1299 01ad 37020000 		.4byte	.LASF34
 1300 01b1 06       		.byte	0x6
 1301 01b2 89       		.byte	0x89
 1302 01b3 45030000 		.4byte	0x345
 1303 01b7 02       		.byte	0x2
 1304 01b8 23       		.byte	0x23
 1305 01b9 24       		.uleb128 0x24
 1306 01ba 07       		.uleb128 0x7
 1307 01bb 705F7500 		.ascii	"p_u\000"
 1308 01bf 06       		.byte	0x6
 1309 01c0 AE       		.byte	0xae
 1310 01c1 00040000 		.4byte	0x400
 1311 01c5 02       		.byte	0x2
 1312 01c6 23       		.byte	0x23
 1313 01c7 28       		.uleb128 0x28
 1314 01c8 06       		.uleb128 0x6
 1315 01c9 E5070000 		.4byte	.LASF35
 1316 01cd 06       		.byte	0x6
 1317 01ce B3       		.byte	0xb3
 1318 01cf 6A020000 		.4byte	0x26a
 1319 01d3 02       		.byte	0x2
 1320 01d4 23       		.byte	0x23
 1321 01d5 2C       		.uleb128 0x2c
 1322 01d6 06       		.uleb128 0x6
 1323 01d7 5B020000 		.4byte	.LASF36
 1324 01db 06       		.byte	0x6
 1325 01dc B9       		.byte	0xb9
 1326 01dd 48020000 		.4byte	0x248
 1327 01e1 02       		.byte	0x2
 1328 01e2 23       		.byte	0x23
 1329 01e3 30       		.uleb128 0x30
 1330 01e4 06       		.uleb128 0x6
 1331 01e5 2E070000 		.4byte	.LASF37
 1332 01e9 06       		.byte	0x6
 1333 01ea BD       		.byte	0xbd
 1334 01eb E8000000 		.4byte	0xe8
 1335 01ef 02       		.byte	0x2
 1336 01f0 23       		.byte	0x23
 1337 01f1 38       		.uleb128 0x38
 1338 01f2 06       		.uleb128 0x6
 1339 01f3 B1050000 		.4byte	.LASF38
 1340 01f7 06       		.byte	0x6
 1341 01f8 C3       		.byte	0xc3
 1342 01f9 F3000000 		.4byte	0xf3
 1343 01fd 02       		.byte	0x2
 1344 01fe 23       		.byte	0x23
 1345 01ff 3C       		.uleb128 0x3c
 1346 0200 06       		.uleb128 0x6
 1347 0201 14050000 		.4byte	.LASF39
 1348 0205 06       		.byte	0x6
 1349 0206 CA       		.byte	0xca
 1350 0207 4D040000 		.4byte	0x44d
ARM GAS  C:\Users\z80\AppData\Local\Temp\cckEhmmh.s 			page 25


 1351 020b 02       		.byte	0x2
 1352 020c 23       		.byte	0x23
 1353 020d 40       		.uleb128 0x40
 1354 020e 06       		.uleb128 0x6
 1355 020f D4010000 		.4byte	.LASF40
 1356 0213 06       		.byte	0x6
 1357 0214 CE       		.byte	0xce
 1358 0215 DD000000 		.4byte	0xdd
 1359 0219 02       		.byte	0x2
 1360 021a 23       		.byte	0x23
 1361 021b 44       		.uleb128 0x44
 1362 021c 00       		.byte	0x0
 1363 021d 08       		.uleb128 0x8
 1364 021e 08       		.byte	0x8
 1365 021f 05       		.byte	0x5
 1366 0220 61       		.byte	0x61
 1367 0221 42020000 		.4byte	0x242
 1368 0225 06       		.uleb128 0x6
 1369 0226 9C030000 		.4byte	.LASF24
 1370 022a 05       		.byte	0x5
 1371 022b 62       		.byte	0x62
 1372 022c 42020000 		.4byte	0x242
 1373 0230 02       		.byte	0x2
 1374 0231 23       		.byte	0x23
 1375 0232 00       		.uleb128 0x0
 1376 0233 06       		.uleb128 0x6
 1377 0234 7E040000 		.4byte	.LASF25
 1378 0238 05       		.byte	0x5
 1379 0239 64       		.byte	0x64
 1380 023a 42020000 		.4byte	0x242
 1381 023e 02       		.byte	0x2
 1382 023f 23       		.byte	0x23
 1383 0240 04       		.uleb128 0x4
 1384 0241 00       		.byte	0x0
 1385 0242 09       		.uleb128 0x9
 1386 0243 04       		.byte	0x4
 1387 0244 09010000 		.4byte	0x109
 1388 0248 03       		.uleb128 0x3
 1389 0249 C2030000 		.4byte	.LASF41
 1390 024d 05       		.byte	0x5
 1391 024e 66       		.byte	0x66
 1392 024f 1D020000 		.4byte	0x21d
 1393 0253 08       		.uleb128 0x8
 1394 0254 04       		.byte	0x4
 1395 0255 05       		.byte	0x5
 1396 0256 6B       		.byte	0x6b
 1397 0257 6A020000 		.4byte	0x26a
 1398 025b 06       		.uleb128 0x6
 1399 025c 9C030000 		.4byte	.LASF24
 1400 0260 05       		.byte	0x5
 1401 0261 6D       		.byte	0x6d
 1402 0262 42020000 		.4byte	0x242
 1403 0266 02       		.byte	0x2
 1404 0267 23       		.byte	0x23
 1405 0268 00       		.uleb128 0x0
 1406 0269 00       		.byte	0x0
 1407 026a 03       		.uleb128 0x3
ARM GAS  C:\Users\z80\AppData\Local\Temp\cckEhmmh.s 			page 26


 1408 026b F3020000 		.4byte	.LASF42
 1409 026f 05       		.byte	0x5
 1410 0270 70       		.byte	0x70
 1411 0271 53020000 		.4byte	0x253
 1412 0275 03       		.uleb128 0x3
 1413 0276 DF010000 		.4byte	.LASF43
 1414 027a 07       		.byte	0x7
 1415 027b D7       		.byte	0xd7
 1416 027c 80020000 		.4byte	0x280
 1417 0280 0A       		.uleb128 0xa
 1418 0281 04       		.byte	0x4
 1419 0282 03       		.uleb128 0x3
 1420 0283 4A030000 		.4byte	.LASF44
 1421 0287 07       		.byte	0x7
 1422 0288 DD       		.byte	0xdd
 1423 0289 9F000000 		.4byte	0x9f
 1424 028d 05       		.uleb128 0x5
 1425 028e BE060000 		.4byte	.LASF45
 1426 0292 24       		.byte	0x24
 1427 0293 07       		.byte	0x7
 1428 0294 FE       		.byte	0xfe
 1429 0295 1A030000 		.4byte	0x31a
 1430 0299 0B       		.uleb128 0xb
 1431 029a 723400   		.ascii	"r4\000"
 1432 029d 07       		.byte	0x7
 1433 029e 1101     		.2byte	0x111
 1434 02a0 75020000 		.4byte	0x275
 1435 02a4 02       		.byte	0x2
 1436 02a5 23       		.byte	0x23
 1437 02a6 00       		.uleb128 0x0
 1438 02a7 0B       		.uleb128 0xb
 1439 02a8 723500   		.ascii	"r5\000"
 1440 02ab 07       		.byte	0x7
 1441 02ac 1201     		.2byte	0x112
 1442 02ae 75020000 		.4byte	0x275
 1443 02b2 02       		.byte	0x2
 1444 02b3 23       		.byte	0x23
 1445 02b4 04       		.uleb128 0x4
 1446 02b5 0B       		.uleb128 0xb
 1447 02b6 723600   		.ascii	"r6\000"
 1448 02b9 07       		.byte	0x7
 1449 02ba 1301     		.2byte	0x113
 1450 02bc 75020000 		.4byte	0x275
 1451 02c0 02       		.byte	0x2
 1452 02c1 23       		.byte	0x23
 1453 02c2 08       		.uleb128 0x8
 1454 02c3 0B       		.uleb128 0xb
 1455 02c4 723700   		.ascii	"r7\000"
 1456 02c7 07       		.byte	0x7
 1457 02c8 1401     		.2byte	0x114
 1458 02ca 75020000 		.4byte	0x275
 1459 02ce 02       		.byte	0x2
 1460 02cf 23       		.byte	0x23
 1461 02d0 0C       		.uleb128 0xc
 1462 02d1 0B       		.uleb128 0xb
 1463 02d2 723800   		.ascii	"r8\000"
 1464 02d5 07       		.byte	0x7
ARM GAS  C:\Users\z80\AppData\Local\Temp\cckEhmmh.s 			page 27


 1465 02d6 1501     		.2byte	0x115
 1466 02d8 75020000 		.4byte	0x275
 1467 02dc 02       		.byte	0x2
 1468 02dd 23       		.byte	0x23
 1469 02de 10       		.uleb128 0x10
 1470 02df 0B       		.uleb128 0xb
 1471 02e0 723900   		.ascii	"r9\000"
 1472 02e3 07       		.byte	0x7
 1473 02e4 1601     		.2byte	0x116
 1474 02e6 75020000 		.4byte	0x275
 1475 02ea 02       		.byte	0x2
 1476 02eb 23       		.byte	0x23
 1477 02ec 14       		.uleb128 0x14
 1478 02ed 0B       		.uleb128 0xb
 1479 02ee 72313000 		.ascii	"r10\000"
 1480 02f2 07       		.byte	0x7
 1481 02f3 1701     		.2byte	0x117
 1482 02f5 75020000 		.4byte	0x275
 1483 02f9 02       		.byte	0x2
 1484 02fa 23       		.byte	0x23
 1485 02fb 18       		.uleb128 0x18
 1486 02fc 0B       		.uleb128 0xb
 1487 02fd 72313100 		.ascii	"r11\000"
 1488 0301 07       		.byte	0x7
 1489 0302 1801     		.2byte	0x118
 1490 0304 75020000 		.4byte	0x275
 1491 0308 02       		.byte	0x2
 1492 0309 23       		.byte	0x23
 1493 030a 1C       		.uleb128 0x1c
 1494 030b 0B       		.uleb128 0xb
 1495 030c 6C7200   		.ascii	"lr\000"
 1496 030f 07       		.byte	0x7
 1497 0310 1901     		.2byte	0x119
 1498 0312 75020000 		.4byte	0x275
 1499 0316 02       		.byte	0x2
 1500 0317 23       		.byte	0x23
 1501 0318 20       		.uleb128 0x20
 1502 0319 00       		.byte	0x0
 1503 031a 0C       		.uleb128 0xc
 1504 031b B6060000 		.4byte	.LASF46
 1505 031f 04       		.byte	0x4
 1506 0320 07       		.byte	0x7
 1507 0321 2301     		.2byte	0x123
 1508 0323 37030000 		.4byte	0x337
 1509 0327 0B       		.uleb128 0xb
 1510 0328 72313300 		.ascii	"r13\000"
 1511 032c 07       		.byte	0x7
 1512 032d 2401     		.2byte	0x124
 1513 032f 37030000 		.4byte	0x337
 1514 0333 02       		.byte	0x2
 1515 0334 23       		.byte	0x23
 1516 0335 00       		.uleb128 0x0
 1517 0336 00       		.byte	0x0
 1518 0337 09       		.uleb128 0x9
 1519 0338 04       		.byte	0x4
 1520 0339 8D020000 		.4byte	0x28d
 1521 033d 0D       		.uleb128 0xd
ARM GAS  C:\Users\z80\AppData\Local\Temp\cckEhmmh.s 			page 28


 1522 033e 86000000 		.4byte	0x86
 1523 0342 0E       		.uleb128 0xe
 1524 0343 04       		.byte	0x4
 1525 0344 07       		.byte	0x7
 1526 0345 0D       		.uleb128 0xd
 1527 0346 FE000000 		.4byte	0xfe
 1528 034a 05       		.uleb128 0x5
 1529 034b 96030000 		.4byte	.LASF47
 1530 034f 10       		.byte	0x10
 1531 0350 08       		.byte	0x8
 1532 0351 2C       		.byte	0x2c
 1533 0352 81030000 		.4byte	0x381
 1534 0356 06       		.uleb128 0x6
 1535 0357 26010000 		.4byte	.LASF48
 1536 035b 08       		.byte	0x8
 1537 035c 2D       		.byte	0x2d
 1538 035d 48020000 		.4byte	0x248
 1539 0361 02       		.byte	0x2
 1540 0362 23       		.byte	0x23
 1541 0363 00       		.uleb128 0x0
 1542 0364 06       		.uleb128 0x6
 1543 0365 CE070000 		.4byte	.LASF49
 1544 0369 08       		.byte	0x8
 1545 036a 2F       		.byte	0x2f
 1546 036b 42020000 		.4byte	0x242
 1547 036f 02       		.byte	0x2
 1548 0370 23       		.byte	0x23
 1549 0371 08       		.uleb128 0x8
 1550 0372 06       		.uleb128 0x6
 1551 0373 4F060000 		.4byte	.LASF50
 1552 0377 08       		.byte	0x8
 1553 0378 31       		.byte	0x31
 1554 0379 81030000 		.4byte	0x381
 1555 037d 02       		.byte	0x2
 1556 037e 23       		.byte	0x23
 1557 037f 0C       		.uleb128 0xc
 1558 0380 00       		.byte	0x0
 1559 0381 09       		.uleb128 0x9
 1560 0382 04       		.byte	0x4
 1561 0383 4A030000 		.4byte	0x34a
 1562 0387 03       		.uleb128 0x3
 1563 0388 96030000 		.4byte	.LASF47
 1564 038c 08       		.byte	0x8
 1565 038d 33       		.byte	0x33
 1566 038e 4A030000 		.4byte	0x34a
 1567 0392 03       		.uleb128 0x3
 1568 0393 4D070000 		.4byte	.LASF51
 1569 0397 09       		.byte	0x9
 1570 0398 29       		.byte	0x29
 1571 0399 9D030000 		.4byte	0x39d
 1572 039d 05       		.uleb128 0x5
 1573 039e 4D070000 		.4byte	.LASF51
 1574 03a2 0C       		.byte	0xc
 1575 03a3 09       		.byte	0x9
 1576 03a4 2E       		.byte	0x2e
 1577 03a5 D4030000 		.4byte	0x3d4
 1578 03a9 06       		.uleb128 0x6
ARM GAS  C:\Users\z80\AppData\Local\Temp\cckEhmmh.s 			page 29


 1579 03aa 74050000 		.4byte	.LASF52
 1580 03ae 09       		.byte	0x9
 1581 03af 2F       		.byte	0x2f
 1582 03b0 D4030000 		.4byte	0x3d4
 1583 03b4 02       		.byte	0x2
 1584 03b5 23       		.byte	0x23
 1585 03b6 00       		.uleb128 0x0
 1586 03b7 06       		.uleb128 0x6
 1587 03b8 61010000 		.4byte	.LASF53
 1588 03bc 09       		.byte	0x9
 1589 03bd 32       		.byte	0x32
 1590 03be 42020000 		.4byte	0x242
 1591 03c2 02       		.byte	0x2
 1592 03c3 23       		.byte	0x23
 1593 03c4 04       		.uleb128 0x4
 1594 03c5 06       		.uleb128 0x6
 1595 03c6 14040000 		.4byte	.LASF54
 1596 03ca 09       		.byte	0x9
 1597 03cb 34       		.byte	0x34
 1598 03cc F3000000 		.4byte	0xf3
 1599 03d0 02       		.byte	0x2
 1600 03d1 23       		.byte	0x23
 1601 03d2 08       		.uleb128 0x8
 1602 03d3 00       		.byte	0x0
 1603 03d4 09       		.uleb128 0x9
 1604 03d5 04       		.byte	0x4
 1605 03d6 92030000 		.4byte	0x392
 1606 03da 05       		.uleb128 0x5
 1607 03db FF010000 		.4byte	.LASF55
 1608 03df 04       		.byte	0x4
 1609 03e0 09       		.byte	0x9
 1610 03e1 3C       		.byte	0x3c
 1611 03e2 F5030000 		.4byte	0x3f5
 1612 03e6 06       		.uleb128 0x6
 1613 03e7 0C070000 		.4byte	.LASF56
 1614 03eb 09       		.byte	0x9
 1615 03ec 3D       		.byte	0x3d
 1616 03ed D4030000 		.4byte	0x3d4
 1617 03f1 02       		.byte	0x2
 1618 03f2 23       		.byte	0x23
 1619 03f3 00       		.uleb128 0x0
 1620 03f4 00       		.byte	0x0
 1621 03f5 03       		.uleb128 0x3
 1622 03f6 FF010000 		.4byte	.LASF55
 1623 03fa 09       		.byte	0x9
 1624 03fb 40       		.byte	0x40
 1625 03fc DA030000 		.4byte	0x3da
 1626 0400 0F       		.uleb128 0xf
 1627 0401 04       		.byte	0x4
 1628 0402 06       		.byte	0x6
 1629 0403 90       		.byte	0x90
 1630 0404 35040000 		.4byte	0x435
 1631 0408 10       		.uleb128 0x10
 1632 0409 19000000 		.4byte	.LASF57
 1633 040d 06       		.byte	0x6
 1634 040e 97       		.byte	0x97
 1635 040f E8000000 		.4byte	0xe8
ARM GAS  C:\Users\z80\AppData\Local\Temp\cckEhmmh.s 			page 30


 1636 0413 10       		.uleb128 0x10
 1637 0414 8E000000 		.4byte	.LASF58
 1638 0418 06       		.byte	0x6
 1639 0419 9E       		.byte	0x9e
 1640 041a E8000000 		.4byte	0xe8
 1641 041e 10       		.uleb128 0x10
 1642 041f 67070000 		.4byte	.LASF59
 1643 0423 06       		.byte	0x6
 1644 0424 A5       		.byte	0xa5
 1645 0425 80020000 		.4byte	0x280
 1646 0429 10       		.uleb128 0x10
 1647 042a 65050000 		.4byte	.LASF60
 1648 042e 06       		.byte	0x6
 1649 042f AC       		.byte	0xac
 1650 0430 F3000000 		.4byte	0xf3
 1651 0434 00       		.byte	0x0
 1652 0435 09       		.uleb128 0x9
 1653 0436 04       		.byte	0x4
 1654 0437 3B040000 		.4byte	0x43b
 1655 043b 11       		.uleb128 0x11
 1656 043c 40040000 		.4byte	0x440
 1657 0440 04       		.uleb128 0x4
 1658 0441 01       		.byte	0x1
 1659 0442 08       		.byte	0x8
 1660 0443 19060000 		.4byte	.LASF61
 1661 0447 09       		.uleb128 0x9
 1662 0448 04       		.byte	0x4
 1663 0449 82020000 		.4byte	0x282
 1664 044d 09       		.uleb128 0x9
 1665 044e 04       		.byte	0x4
 1666 044f 87030000 		.4byte	0x387
 1667 0453 03       		.uleb128 0x3
 1668 0454 BB010000 		.4byte	.LASF62
 1669 0458 0A       		.byte	0xa
 1670 0459 37       		.byte	0x37
 1671 045a 5E040000 		.4byte	0x45e
 1672 045e 05       		.uleb128 0x5
 1673 045f BB010000 		.4byte	.LASF62
 1674 0463 20       		.byte	0x20
 1675 0464 0A       		.byte	0xa
 1676 0465 45       		.byte	0x45
 1677 0466 CD040000 		.4byte	0x4cd
 1678 046a 06       		.uleb128 0x6
 1679 046b ED000000 		.4byte	.LASF63
 1680 046f 0A       		.byte	0xa
 1681 0470 46       		.byte	0x46
 1682 0471 48020000 		.4byte	0x248
 1683 0475 02       		.byte	0x2
 1684 0476 23       		.byte	0x23
 1685 0477 00       		.uleb128 0x0
 1686 0478 06       		.uleb128 0x6
 1687 0479 8C030000 		.4byte	.LASF64
 1688 047d 0A       		.byte	0xa
 1689 047e 47       		.byte	0x47
 1690 047f 30000000 		.4byte	0x30
 1691 0483 02       		.byte	0x2
 1692 0484 23       		.byte	0x23
ARM GAS  C:\Users\z80\AppData\Local\Temp\cckEhmmh.s 			page 31


 1693 0485 08       		.uleb128 0x8
 1694 0486 06       		.uleb128 0x6
 1695 0487 96010000 		.4byte	.LASF65
 1696 048b 0A       		.byte	0xa
 1697 048c 48       		.byte	0x48
 1698 048d F0040000 		.4byte	0x4f0
 1699 0491 02       		.byte	0x2
 1700 0492 23       		.byte	0x23
 1701 0493 0C       		.uleb128 0xc
 1702 0494 06       		.uleb128 0x6
 1703 0495 FB060000 		.4byte	.LASF66
 1704 0499 0A       		.byte	0xa
 1705 049a 49       		.byte	0x49
 1706 049b F0040000 		.4byte	0x4f0
 1707 049f 02       		.byte	0x2
 1708 04a0 23       		.byte	0x23
 1709 04a1 10       		.uleb128 0x10
 1710 04a2 06       		.uleb128 0x6
 1711 04a3 9F010000 		.4byte	.LASF67
 1712 04a7 0A       		.byte	0xa
 1713 04a8 4B       		.byte	0x4b
 1714 04a9 F0040000 		.4byte	0x4f0
 1715 04ad 02       		.byte	0x2
 1716 04ae 23       		.byte	0x23
 1717 04af 14       		.uleb128 0x14
 1718 04b0 06       		.uleb128 0x6
 1719 04b1 97040000 		.4byte	.LASF68
 1720 04b5 0A       		.byte	0xa
 1721 04b6 4C       		.byte	0x4c
 1722 04b7 F0040000 		.4byte	0x4f0
 1723 04bb 02       		.byte	0x2
 1724 04bc 23       		.byte	0x23
 1725 04bd 18       		.uleb128 0x18
 1726 04be 06       		.uleb128 0x6
 1727 04bf 25070000 		.4byte	.LASF69
 1728 04c3 0A       		.byte	0xa
 1729 04c4 4D       		.byte	0x4d
 1730 04c5 CD040000 		.4byte	0x4cd
 1731 04c9 02       		.byte	0x2
 1732 04ca 23       		.byte	0x23
 1733 04cb 1C       		.uleb128 0x1c
 1734 04cc 00       		.byte	0x0
 1735 04cd 03       		.uleb128 0x3
 1736 04ce E8010000 		.4byte	.LASF70
 1737 04d2 0A       		.byte	0xa
 1738 04d3 3A       		.byte	0x3a
 1739 04d4 D8040000 		.4byte	0x4d8
 1740 04d8 09       		.uleb128 0x9
 1741 04d9 04       		.byte	0x4
 1742 04da DE040000 		.4byte	0x4de
 1743 04de 12       		.uleb128 0x12
 1744 04df 01       		.byte	0x1
 1745 04e0 EA040000 		.4byte	0x4ea
 1746 04e4 13       		.uleb128 0x13
 1747 04e5 EA040000 		.4byte	0x4ea
 1748 04e9 00       		.byte	0x0
 1749 04ea 09       		.uleb128 0x9
ARM GAS  C:\Users\z80\AppData\Local\Temp\cckEhmmh.s 			page 32


 1750 04eb 04       		.byte	0x4
 1751 04ec 53040000 		.4byte	0x453
 1752 04f0 09       		.uleb128 0x9
 1753 04f1 04       		.byte	0x4
 1754 04f2 49000000 		.4byte	0x49
 1755 04f6 03       		.uleb128 0x3
 1756 04f7 3C070000 		.4byte	.LASF71
 1757 04fb 0A       		.byte	0xa
 1758 04fc 76       		.byte	0x76
 1759 04fd 53040000 		.4byte	0x453
 1760 0501 03       		.uleb128 0x3
 1761 0502 29000000 		.4byte	.LASF72
 1762 0506 0A       		.byte	0xa
 1763 0507 E6       		.byte	0xe6
 1764 0508 53040000 		.4byte	0x453
 1765 050c 14       		.uleb128 0x14
 1766 050d 01       		.byte	0x1
 1767 050e 30000000 		.4byte	0x30
 1768 0512 26050000 		.4byte	0x526
 1769 0516 13       		.uleb128 0x13
 1770 0517 80020000 		.4byte	0x280
 1771 051b 13       		.uleb128 0x13
 1772 051c 26050000 		.4byte	0x526
 1773 0520 13       		.uleb128 0x13
 1774 0521 30000000 		.4byte	0x30
 1775 0525 00       		.byte	0x0
 1776 0526 09       		.uleb128 0x9
 1777 0527 04       		.byte	0x4
 1778 0528 2C050000 		.4byte	0x52c
 1779 052c 11       		.uleb128 0x11
 1780 052d 49000000 		.4byte	0x49
 1781 0531 09       		.uleb128 0x9
 1782 0532 04       		.byte	0x4
 1783 0533 0C050000 		.4byte	0x50c
 1784 0537 14       		.uleb128 0x14
 1785 0538 01       		.byte	0x1
 1786 0539 30000000 		.4byte	0x30
 1787 053d 51050000 		.4byte	0x551
 1788 0541 13       		.uleb128 0x13
 1789 0542 80020000 		.4byte	0x280
 1790 0546 13       		.uleb128 0x13
 1791 0547 F0040000 		.4byte	0x4f0
 1792 054b 13       		.uleb128 0x13
 1793 054c 30000000 		.4byte	0x30
 1794 0550 00       		.byte	0x0
 1795 0551 09       		.uleb128 0x9
 1796 0552 04       		.byte	0x4
 1797 0553 37050000 		.4byte	0x537
 1798 0557 14       		.uleb128 0x14
 1799 0558 01       		.byte	0x1
 1800 0559 BC000000 		.4byte	0xbc
 1801 055d 67050000 		.4byte	0x567
 1802 0561 13       		.uleb128 0x13
 1803 0562 80020000 		.4byte	0x280
 1804 0566 00       		.byte	0x0
 1805 0567 09       		.uleb128 0x9
 1806 0568 04       		.byte	0x4
ARM GAS  C:\Users\z80\AppData\Local\Temp\cckEhmmh.s 			page 33


 1807 0569 57050000 		.4byte	0x557
 1808 056d 14       		.uleb128 0x14
 1809 056e 01       		.byte	0x1
 1810 056f E8000000 		.4byte	0xe8
 1811 0573 87050000 		.4byte	0x587
 1812 0577 13       		.uleb128 0x13
 1813 0578 80020000 		.4byte	0x280
 1814 057c 13       		.uleb128 0x13
 1815 057d 49000000 		.4byte	0x49
 1816 0581 13       		.uleb128 0x13
 1817 0582 FE000000 		.4byte	0xfe
 1818 0586 00       		.byte	0x0
 1819 0587 09       		.uleb128 0x9
 1820 0588 04       		.byte	0x4
 1821 0589 6D050000 		.4byte	0x56d
 1822 058d 14       		.uleb128 0x14
 1823 058e 01       		.byte	0x1
 1824 058f E8000000 		.4byte	0xe8
 1825 0593 A2050000 		.4byte	0x5a2
 1826 0597 13       		.uleb128 0x13
 1827 0598 80020000 		.4byte	0x280
 1828 059c 13       		.uleb128 0x13
 1829 059d FE000000 		.4byte	0xfe
 1830 05a1 00       		.byte	0x0
 1831 05a2 09       		.uleb128 0x9
 1832 05a3 04       		.byte	0x4
 1833 05a4 8D050000 		.4byte	0x58d
 1834 05a8 14       		.uleb128 0x14
 1835 05a9 01       		.byte	0x1
 1836 05aa 30000000 		.4byte	0x30
 1837 05ae C7050000 		.4byte	0x5c7
 1838 05b2 13       		.uleb128 0x13
 1839 05b3 80020000 		.4byte	0x280
 1840 05b7 13       		.uleb128 0x13
 1841 05b8 26050000 		.4byte	0x526
 1842 05bc 13       		.uleb128 0x13
 1843 05bd 30000000 		.4byte	0x30
 1844 05c1 13       		.uleb128 0x13
 1845 05c2 FE000000 		.4byte	0xfe
 1846 05c6 00       		.byte	0x0
 1847 05c7 09       		.uleb128 0x9
 1848 05c8 04       		.byte	0x4
 1849 05c9 A8050000 		.4byte	0x5a8
 1850 05cd 14       		.uleb128 0x14
 1851 05ce 01       		.byte	0x1
 1852 05cf 30000000 		.4byte	0x30
 1853 05d3 EC050000 		.4byte	0x5ec
 1854 05d7 13       		.uleb128 0x13
 1855 05d8 80020000 		.4byte	0x280
 1856 05dc 13       		.uleb128 0x13
 1857 05dd F0040000 		.4byte	0x4f0
 1858 05e1 13       		.uleb128 0x13
 1859 05e2 30000000 		.4byte	0x30
 1860 05e6 13       		.uleb128 0x13
 1861 05e7 FE000000 		.4byte	0xfe
 1862 05eb 00       		.byte	0x0
 1863 05ec 09       		.uleb128 0x9
ARM GAS  C:\Users\z80\AppData\Local\Temp\cckEhmmh.s 			page 34


 1864 05ed 04       		.byte	0x4
 1865 05ee CD050000 		.4byte	0x5cd
 1866 05f2 15       		.uleb128 0x15
 1867 05f3 B8030000 		.4byte	.LASF73
 1868 05f7 0B       		.byte	0xb
 1869 05f8 0B01     		.2byte	0x10b
 1870 05fa B1000000 		.4byte	0xb1
 1871 05fe 14       		.uleb128 0x14
 1872 05ff 01       		.byte	0x1
 1873 0600 F2050000 		.4byte	0x5f2
 1874 0604 0E060000 		.4byte	0x60e
 1875 0608 13       		.uleb128 0x13
 1876 0609 80020000 		.4byte	0x280
 1877 060d 00       		.byte	0x0
 1878 060e 09       		.uleb128 0x9
 1879 060f 04       		.byte	0x4
 1880 0610 FE050000 		.4byte	0x5fe
 1881 0614 16       		.uleb128 0x16
 1882 0615 69030000 		.4byte	.LASF183
 1883 0619 01       		.byte	0x1
 1884 061a 0C       		.byte	0xc
 1885 061b A9       		.byte	0xa9
 1886 061c 53070000 		.4byte	0x753
 1887 0620 17       		.uleb128 0x17
 1888 0621 60060000 		.4byte	.LASF74
 1889 0625 72       		.sleb128 -14
 1890 0626 17       		.uleb128 0x17
 1891 0627 3E020000 		.4byte	.LASF75
 1892 062b 74       		.sleb128 -12
 1893 062c 17       		.uleb128 0x17
 1894 062d 1E060000 		.4byte	.LASF76
 1895 0631 75       		.sleb128 -11
 1896 0632 17       		.uleb128 0x17
 1897 0633 E5050000 		.4byte	.LASF77
 1898 0637 76       		.sleb128 -10
 1899 0638 17       		.uleb128 0x17
 1900 0639 9F040000 		.4byte	.LASF78
 1901 063d 7B       		.sleb128 -5
 1902 063e 17       		.uleb128 0x17
 1903 063f AB040000 		.4byte	.LASF79
 1904 0643 7C       		.sleb128 -4
 1905 0644 17       		.uleb128 0x17
 1906 0645 C8010000 		.4byte	.LASF80
 1907 0649 7E       		.sleb128 -2
 1908 064a 17       		.uleb128 0x17
 1909 064b 30030000 		.4byte	.LASF81
 1910 064f 7F       		.sleb128 -1
 1911 0650 17       		.uleb128 0x17
 1912 0651 C8000000 		.4byte	.LASF82
 1913 0655 00       		.sleb128 0
 1914 0656 17       		.uleb128 0x17
 1915 0657 00000000 		.4byte	.LASF83
 1916 065b 01       		.sleb128 1
 1917 065c 17       		.uleb128 0x17
 1918 065d A1060000 		.4byte	.LASF84
 1919 0661 02       		.sleb128 2
 1920 0662 17       		.uleb128 0x17
ARM GAS  C:\Users\z80\AppData\Local\Temp\cckEhmmh.s 			page 35


 1921 0663 BB070000 		.4byte	.LASF85
 1922 0667 03       		.sleb128 3
 1923 0668 17       		.uleb128 0x17
 1924 0669 A6050000 		.4byte	.LASF86
 1925 066d 04       		.sleb128 4
 1926 066e 17       		.uleb128 0x17
 1927 066f D6070000 		.4byte	.LASF87
 1928 0673 05       		.sleb128 5
 1929 0674 17       		.uleb128 0x17
 1930 0675 01070000 		.4byte	.LASF88
 1931 0679 06       		.sleb128 6
 1932 067a 17       		.uleb128 0x17
 1933 067b F6070000 		.4byte	.LASF89
 1934 067f 07       		.sleb128 7
 1935 0680 17       		.uleb128 0x17
 1936 0681 7C050000 		.4byte	.LASF90
 1937 0685 08       		.sleb128 8
 1938 0686 17       		.uleb128 0x17
 1939 0687 A3030000 		.4byte	.LASF91
 1940 068b 09       		.sleb128 9
 1941 068c 17       		.uleb128 0x17
 1942 068d 09050000 		.4byte	.LASF92
 1943 0691 0A       		.sleb128 10
 1944 0692 17       		.uleb128 0x17
 1945 0693 39040000 		.4byte	.LASF93
 1946 0697 0B       		.sleb128 11
 1947 0698 17       		.uleb128 0x17
 1948 0699 79030000 		.4byte	.LASF94
 1949 069d 0C       		.sleb128 12
 1950 069e 17       		.uleb128 0x17
 1951 069f 83010000 		.4byte	.LASF95
 1952 06a3 0D       		.sleb128 13
 1953 06a4 17       		.uleb128 0x17
 1954 06a5 1D030000 		.4byte	.LASF96
 1955 06a9 0E       		.sleb128 14
 1956 06aa 17       		.uleb128 0x17
 1957 06ab 78020000 		.4byte	.LASF97
 1958 06af 0F       		.sleb128 15
 1959 06b0 17       		.uleb128 0x17
 1960 06b1 7F060000 		.4byte	.LASF98
 1961 06b5 10       		.sleb128 16
 1962 06b6 17       		.uleb128 0x17
 1963 06b7 6E070000 		.4byte	.LASF99
 1964 06bb 11       		.sleb128 17
 1965 06bc 17       		.uleb128 0x17
 1966 06bd A7010000 		.4byte	.LASF100
 1967 06c1 12       		.sleb128 18
 1968 06c2 17       		.uleb128 0x17
 1969 06c3 F5040000 		.4byte	.LASF101
 1970 06c7 13       		.sleb128 19
 1971 06c8 17       		.uleb128 0x17
 1972 06c9 D3040000 		.4byte	.LASF102
 1973 06cd 14       		.sleb128 20
 1974 06ce 17       		.uleb128 0x17
 1975 06cf 5B000000 		.4byte	.LASF103
 1976 06d3 15       		.sleb128 21
 1977 06d4 17       		.uleb128 0x17
ARM GAS  C:\Users\z80\AppData\Local\Temp\cckEhmmh.s 			page 36


 1978 06d5 41060000 		.4byte	.LASF104
 1979 06d9 16       		.sleb128 22
 1980 06da 17       		.uleb128 0x17
 1981 06db 76010000 		.4byte	.LASF105
 1982 06df 17       		.sleb128 23
 1983 06e0 17       		.uleb128 0x17
 1984 06e1 33060000 		.4byte	.LASF106
 1985 06e5 18       		.sleb128 24
 1986 06e6 17       		.uleb128 0x17
 1987 06e7 BB000000 		.4byte	.LASF107
 1988 06eb 19       		.sleb128 25
 1989 06ec 17       		.uleb128 0x17
 1990 06ed 9E020000 		.4byte	.LASF108
 1991 06f1 1A       		.sleb128 26
 1992 06f2 17       		.uleb128 0x17
 1993 06f3 3D030000 		.4byte	.LASF109
 1994 06f7 1B       		.sleb128 27
 1995 06f8 17       		.uleb128 0x17
 1996 06f9 F1060000 		.4byte	.LASF110
 1997 06fd 1C       		.sleb128 28
 1998 06fe 17       		.uleb128 0x17
 1999 06ff C4070000 		.4byte	.LASF111
 2000 0703 1D       		.sleb128 29
 2001 0704 17       		.uleb128 0x17
 2002 0705 A4000000 		.4byte	.LASF112
 2003 0709 1E       		.sleb128 30
 2004 070a 17       		.uleb128 0x17
 2005 070b 35000000 		.4byte	.LASF113
 2006 070f 1F       		.sleb128 31
 2007 0710 17       		.uleb128 0x17
 2008 0711 A0070000 		.4byte	.LASF114
 2009 0715 20       		.sleb128 32
 2010 0716 17       		.uleb128 0x17
 2011 0717 CE060000 		.4byte	.LASF115
 2012 071b 21       		.sleb128 33
 2013 071c 17       		.uleb128 0x17
 2014 071d 97000000 		.4byte	.LASF116
 2015 0721 22       		.sleb128 34
 2016 0722 17       		.uleb128 0x17
 2017 0723 CC020000 		.4byte	.LASF117
 2018 0727 23       		.sleb128 35
 2019 0728 17       		.uleb128 0x17
 2020 0729 AE030000 		.4byte	.LASF118
 2021 072d 24       		.sleb128 36
 2022 072e 17       		.uleb128 0x17
 2023 072f 14070000 		.4byte	.LASF119
 2024 0733 25       		.sleb128 37
 2025 0734 17       		.uleb128 0x17
 2026 0735 D9050000 		.4byte	.LASF120
 2027 0739 26       		.sleb128 38
 2028 073a 17       		.uleb128 0x17
 2029 073b DB060000 		.4byte	.LASF121
 2030 073f 27       		.sleb128 39
 2031 0740 17       		.uleb128 0x17
 2032 0741 BD020000 		.4byte	.LASF122
 2033 0745 28       		.sleb128 40
 2034 0746 17       		.uleb128 0x17
ARM GAS  C:\Users\z80\AppData\Local\Temp\cckEhmmh.s 			page 37


 2035 0747 42000000 		.4byte	.LASF123
 2036 074b 29       		.sleb128 41
 2037 074c 17       		.uleb128 0x17
 2038 074d FA030000 		.4byte	.LASF124
 2039 0751 2A       		.sleb128 42
 2040 0752 00       		.byte	0x0
 2041 0753 0D       		.uleb128 0xd
 2042 0754 62000000 		.4byte	0x62
 2043 0758 0D       		.uleb128 0xd
 2044 0759 74000000 		.4byte	0x74
 2045 075d 18       		.uleb128 0x18
 2046 075e 28       		.byte	0x28
 2047 075f 0C       		.byte	0xc
 2048 0760 4304     		.2byte	0x443
 2049 0762 FC070000 		.4byte	0x7fc
 2050 0766 0B       		.uleb128 0xb
 2051 0767 435200   		.ascii	"CR\000"
 2052 076a 0C       		.byte	0xc
 2053 076b 4504     		.2byte	0x445
 2054 076d 3D030000 		.4byte	0x33d
 2055 0771 02       		.byte	0x2
 2056 0772 23       		.byte	0x23
 2057 0773 00       		.uleb128 0x0
 2058 0774 19       		.uleb128 0x19
 2059 0775 8D070000 		.4byte	.LASF125
 2060 0779 0C       		.byte	0xc
 2061 077a 4604     		.2byte	0x446
 2062 077c 3D030000 		.4byte	0x33d
 2063 0780 02       		.byte	0x2
 2064 0781 23       		.byte	0x23
 2065 0782 04       		.uleb128 0x4
 2066 0783 0B       		.uleb128 0xb
 2067 0784 43495200 		.ascii	"CIR\000"
 2068 0788 0C       		.byte	0xc
 2069 0789 4704     		.2byte	0x447
 2070 078b 3D030000 		.4byte	0x33d
 2071 078f 02       		.byte	0x2
 2072 0790 23       		.byte	0x23
 2073 0791 08       		.uleb128 0x8
 2074 0792 19       		.uleb128 0x19
 2075 0793 58010000 		.4byte	.LASF126
 2076 0797 0C       		.byte	0xc
 2077 0798 4804     		.2byte	0x448
 2078 079a 3D030000 		.4byte	0x33d
 2079 079e 02       		.byte	0x2
 2080 079f 23       		.byte	0x23
 2081 07a0 0C       		.uleb128 0xc
 2082 07a1 19       		.uleb128 0x19
 2083 07a2 0B040000 		.4byte	.LASF127
 2084 07a6 0C       		.byte	0xc
 2085 07a7 4904     		.2byte	0x449
 2086 07a9 3D030000 		.4byte	0x33d
 2087 07ad 02       		.byte	0x2
 2088 07ae 23       		.byte	0x23
 2089 07af 10       		.uleb128 0x10
 2090 07b0 19       		.uleb128 0x19
 2091 07b1 EF070000 		.4byte	.LASF128
ARM GAS  C:\Users\z80\AppData\Local\Temp\cckEhmmh.s 			page 38


 2092 07b5 0C       		.byte	0xc
 2093 07b6 4A04     		.2byte	0x44a
 2094 07b8 3D030000 		.4byte	0x33d
 2095 07bc 02       		.byte	0x2
 2096 07bd 23       		.byte	0x23
 2097 07be 14       		.uleb128 0x14
 2098 07bf 19       		.uleb128 0x19
 2099 07c0 87050000 		.4byte	.LASF129
 2100 07c4 0C       		.byte	0xc
 2101 07c5 4B04     		.2byte	0x44b
 2102 07c7 3D030000 		.4byte	0x33d
 2103 07cb 02       		.byte	0x2
 2104 07cc 23       		.byte	0x23
 2105 07cd 18       		.uleb128 0x18
 2106 07ce 19       		.uleb128 0x19
 2107 07cf 99060000 		.4byte	.LASF130
 2108 07d3 0C       		.byte	0xc
 2109 07d4 4C04     		.2byte	0x44c
 2110 07d6 3D030000 		.4byte	0x33d
 2111 07da 02       		.byte	0x2
 2112 07db 23       		.byte	0x23
 2113 07dc 1C       		.uleb128 0x1c
 2114 07dd 19       		.uleb128 0x19
 2115 07de 20070000 		.4byte	.LASF131
 2116 07e2 0C       		.byte	0xc
 2117 07e3 4D04     		.2byte	0x44d
 2118 07e5 3D030000 		.4byte	0x33d
 2119 07e9 02       		.byte	0x2
 2120 07ea 23       		.byte	0x23
 2121 07eb 20       		.uleb128 0x20
 2122 07ec 0B       		.uleb128 0xb
 2123 07ed 43535200 		.ascii	"CSR\000"
 2124 07f1 0C       		.byte	0xc
 2125 07f2 4E04     		.2byte	0x44e
 2126 07f4 3D030000 		.4byte	0x33d
 2127 07f8 02       		.byte	0x2
 2128 07f9 23       		.byte	0x23
 2129 07fa 24       		.uleb128 0x24
 2130 07fb 00       		.byte	0x0
 2131 07fc 15       		.uleb128 0x15
 2132 07fd 2E010000 		.4byte	.LASF132
 2133 0801 0C       		.byte	0xc
 2134 0802 5904     		.2byte	0x459
 2135 0804 5D070000 		.4byte	0x75d
 2136 0808 18       		.uleb128 0x18
 2137 0809 1C       		.byte	0x1c
 2138 080a 0C       		.byte	0xc
 2139 080b E104     		.2byte	0x4e1
 2140 080d E2080000 		.4byte	0x8e2
 2141 0811 0B       		.uleb128 0xb
 2142 0812 535200   		.ascii	"SR\000"
 2143 0815 0C       		.byte	0xc
 2144 0816 E304     		.2byte	0x4e3
 2145 0818 53070000 		.4byte	0x753
 2146 081c 02       		.byte	0x2
 2147 081d 23       		.byte	0x23
 2148 081e 00       		.uleb128 0x0
ARM GAS  C:\Users\z80\AppData\Local\Temp\cckEhmmh.s 			page 39


 2149 081f 19       		.uleb128 0x19
 2150 0820 4C040000 		.4byte	.LASF133
 2151 0824 0C       		.byte	0xc
 2152 0825 E404     		.2byte	0x4e4
 2153 0827 62000000 		.4byte	0x62
 2154 082b 02       		.byte	0x2
 2155 082c 23       		.byte	0x23
 2156 082d 02       		.uleb128 0x2
 2157 082e 0B       		.uleb128 0xb
 2158 082f 445200   		.ascii	"DR\000"
 2159 0832 0C       		.byte	0xc
 2160 0833 E504     		.2byte	0x4e5
 2161 0835 53070000 		.4byte	0x753
 2162 0839 02       		.byte	0x2
 2163 083a 23       		.byte	0x23
 2164 083b 04       		.uleb128 0x4
 2165 083c 19       		.uleb128 0x19
 2166 083d 56040000 		.4byte	.LASF134
 2167 0841 0C       		.byte	0xc
 2168 0842 E604     		.2byte	0x4e6
 2169 0844 62000000 		.4byte	0x62
 2170 0848 02       		.byte	0x2
 2171 0849 23       		.byte	0x23
 2172 084a 06       		.uleb128 0x6
 2173 084b 0B       		.uleb128 0xb
 2174 084c 42525200 		.ascii	"BRR\000"
 2175 0850 0C       		.byte	0xc
 2176 0851 E704     		.2byte	0x4e7
 2177 0853 53070000 		.4byte	0x753
 2178 0857 02       		.byte	0x2
 2179 0858 23       		.byte	0x23
 2180 0859 08       		.uleb128 0x8
 2181 085a 19       		.uleb128 0x19
 2182 085b 60040000 		.4byte	.LASF135
 2183 085f 0C       		.byte	0xc
 2184 0860 E804     		.2byte	0x4e8
 2185 0862 62000000 		.4byte	0x62
 2186 0866 02       		.byte	0x2
 2187 0867 23       		.byte	0x23
 2188 0868 0A       		.uleb128 0xa
 2189 0869 0B       		.uleb128 0xb
 2190 086a 43523100 		.ascii	"CR1\000"
 2191 086e 0C       		.byte	0xc
 2192 086f E904     		.2byte	0x4e9
 2193 0871 53070000 		.4byte	0x753
 2194 0875 02       		.byte	0x2
 2195 0876 23       		.byte	0x23
 2196 0877 0C       		.uleb128 0xc
 2197 0878 19       		.uleb128 0x19
 2198 0879 6A040000 		.4byte	.LASF136
 2199 087d 0C       		.byte	0xc
 2200 087e EA04     		.2byte	0x4ea
 2201 0880 62000000 		.4byte	0x62
 2202 0884 02       		.byte	0x2
 2203 0885 23       		.byte	0x23
 2204 0886 0E       		.uleb128 0xe
 2205 0887 0B       		.uleb128 0xb
ARM GAS  C:\Users\z80\AppData\Local\Temp\cckEhmmh.s 			page 40


 2206 0888 43523200 		.ascii	"CR2\000"
 2207 088c 0C       		.byte	0xc
 2208 088d EB04     		.2byte	0x4eb
 2209 088f 53070000 		.4byte	0x753
 2210 0893 02       		.byte	0x2
 2211 0894 23       		.byte	0x23
 2212 0895 10       		.uleb128 0x10
 2213 0896 19       		.uleb128 0x19
 2214 0897 74040000 		.4byte	.LASF137
 2215 089b 0C       		.byte	0xc
 2216 089c EC04     		.2byte	0x4ec
 2217 089e 62000000 		.4byte	0x62
 2218 08a2 02       		.byte	0x2
 2219 08a3 23       		.byte	0x23
 2220 08a4 12       		.uleb128 0x12
 2221 08a5 0B       		.uleb128 0xb
 2222 08a6 43523300 		.ascii	"CR3\000"
 2223 08aa 0C       		.byte	0xc
 2224 08ab ED04     		.2byte	0x4ed
 2225 08ad 53070000 		.4byte	0x753
 2226 08b1 02       		.byte	0x2
 2227 08b2 23       		.byte	0x23
 2228 08b3 14       		.uleb128 0x14
 2229 08b4 19       		.uleb128 0x19
 2230 08b5 C6050000 		.4byte	.LASF138
 2231 08b9 0C       		.byte	0xc
 2232 08ba EE04     		.2byte	0x4ee
 2233 08bc 62000000 		.4byte	0x62
 2234 08c0 02       		.byte	0x2
 2235 08c1 23       		.byte	0x23
 2236 08c2 16       		.uleb128 0x16
 2237 08c3 19       		.uleb128 0x19
 2238 08c4 11010000 		.4byte	.LASF139
 2239 08c8 0C       		.byte	0xc
 2240 08c9 EF04     		.2byte	0x4ef
 2241 08cb 53070000 		.4byte	0x753
 2242 08cf 02       		.byte	0x2
 2243 08d0 23       		.byte	0x23
 2244 08d1 18       		.uleb128 0x18
 2245 08d2 19       		.uleb128 0x19
 2246 08d3 85040000 		.4byte	.LASF140
 2247 08d7 0C       		.byte	0xc
 2248 08d8 F004     		.2byte	0x4f0
 2249 08da 62000000 		.4byte	0x62
 2250 08de 02       		.byte	0x2
 2251 08df 23       		.byte	0x23
 2252 08e0 1A       		.uleb128 0x1a
 2253 08e1 00       		.byte	0x0
 2254 08e2 15       		.uleb128 0x15
 2255 08e3 D6020000 		.4byte	.LASF141
 2256 08e7 0C       		.byte	0xc
 2257 08e8 F104     		.2byte	0x4f1
 2258 08ea 08080000 		.4byte	0x808
 2259 08ee 1A       		.uleb128 0x1a
 2260 08ef 01       		.byte	0x1
 2261 08f0 0D       		.byte	0xd
 2262 08f1 64       		.byte	0x64
ARM GAS  C:\Users\z80\AppData\Local\Temp\cckEhmmh.s 			page 41


 2263 08f2 09090000 		.4byte	0x909
 2264 08f6 17       		.uleb128 0x17
 2265 08f7 BC050000 		.4byte	.LASF142
 2266 08fb 00       		.sleb128 0
 2267 08fc 17       		.uleb128 0x17
 2268 08fd 1E010000 		.4byte	.LASF143
 2269 0901 01       		.sleb128 1
 2270 0902 17       		.uleb128 0x17
 2271 0903 C5060000 		.4byte	.LASF144
 2272 0907 02       		.sleb128 2
 2273 0908 00       		.byte	0x0
 2274 0909 03       		.uleb128 0x3
 2275 090a E7060000 		.4byte	.LASF145
 2276 090e 0D       		.byte	0xd
 2277 090f 68       		.byte	0x68
 2278 0910 EE080000 		.4byte	0x8ee
 2279 0914 03       		.uleb128 0x3
 2280 0915 F5050000 		.4byte	.LASF146
 2281 0919 0D       		.byte	0xd
 2282 091a 6D       		.byte	0x6d
 2283 091b 1F090000 		.4byte	0x91f
 2284 091f 1B       		.uleb128 0x1b
 2285 0920 F5050000 		.4byte	.LASF146
 2286 0924 5404     		.2byte	0x454
 2287 0926 0D       		.byte	0xd
 2288 0927 87       		.byte	0x87
 2289 0928 AB090000 		.4byte	0x9ab
 2290 092c 07       		.uleb128 0x7
 2291 092d 766D7400 		.ascii	"vmt\000"
 2292 0931 0D       		.byte	0xd
 2293 0932 89       		.byte	0x89
 2294 0933 820A0000 		.4byte	0xa82
 2295 0937 02       		.byte	0x2
 2296 0938 23       		.byte	0x23
 2297 0939 00       		.uleb128 0x0
 2298 093a 06       		.uleb128 0x6
 2299 093b 72020000 		.4byte	.LASF147
 2300 093f 0D       		.byte	0xd
 2301 0940 8A       		.byte	0x8a
 2302 0941 F5030000 		.4byte	0x3f5
 2303 0945 02       		.byte	0x2
 2304 0946 23       		.byte	0x23
 2305 0947 04       		.uleb128 0x4
 2306 0948 06       		.uleb128 0x6
 2307 0949 47070000 		.4byte	.LASF148
 2308 094d 0D       		.byte	0xd
 2309 094e 8A       		.byte	0x8a
 2310 094f F2050000 		.4byte	0x5f2
 2311 0953 02       		.byte	0x2
 2312 0954 23       		.byte	0x23
 2313 0955 08       		.uleb128 0x8
 2314 0956 06       		.uleb128 0x6
 2315 0957 49010000 		.4byte	.LASF149
 2316 095b 0D       		.byte	0xd
 2317 095c 8A       		.byte	0x8a
 2318 095d 09090000 		.4byte	0x909
 2319 0961 02       		.byte	0x2
ARM GAS  C:\Users\z80\AppData\Local\Temp\cckEhmmh.s 			page 42


 2320 0962 23       		.byte	0x23
 2321 0963 0C       		.uleb128 0xc
 2322 0964 06       		.uleb128 0x6
 2323 0965 54020000 		.4byte	.LASF150
 2324 0969 0D       		.byte	0xd
 2325 096a 8A       		.byte	0x8a
 2326 096b F6040000 		.4byte	0x4f6
 2327 096f 02       		.byte	0x2
 2328 0970 23       		.byte	0x23
 2329 0971 10       		.uleb128 0x10
 2330 0972 06       		.uleb128 0x6
 2331 0973 B6020000 		.4byte	.LASF151
 2332 0977 0D       		.byte	0xd
 2333 0978 8A       		.byte	0x8a
 2334 0979 01050000 		.4byte	0x501
 2335 097d 02       		.byte	0x2
 2336 097e 23       		.byte	0x23
 2337 097f 30       		.uleb128 0x30
 2338 0980 07       		.uleb128 0x7
 2339 0981 696200   		.ascii	"ib\000"
 2340 0984 0D       		.byte	0xd
 2341 0985 8A       		.byte	0x8a
 2342 0986 8D0A0000 		.4byte	0xa8d
 2343 098a 02       		.byte	0x2
 2344 098b 23       		.byte	0x23
 2345 098c 50       		.uleb128 0x50
 2346 098d 07       		.uleb128 0x7
 2347 098e 6F6200   		.ascii	"ob\000"
 2348 0991 0D       		.byte	0xd
 2349 0992 8A       		.byte	0x8a
 2350 0993 8D0A0000 		.4byte	0xa8d
 2351 0997 03       		.byte	0x3
 2352 0998 23       		.byte	0x23
 2353 0999 D004     		.uleb128 0x250
 2354 099b 06       		.uleb128 0x6
 2355 099c 0B020000 		.4byte	.LASF152
 2356 09a0 0D       		.byte	0xd
 2357 09a1 8A       		.byte	0x8a
 2358 09a2 9E0A0000 		.4byte	0xa9e
 2359 09a6 03       		.byte	0x3
 2360 09a7 23       		.byte	0x23
 2361 09a8 D008     		.uleb128 0x450
 2362 09aa 00       		.byte	0x0
 2363 09ab 08       		.uleb128 0x8
 2364 09ac 0C       		.byte	0xc
 2365 09ad 0E       		.byte	0xe
 2366 09ae C4       		.byte	0xc4
 2367 09af EC090000 		.4byte	0x9ec
 2368 09b3 06       		.uleb128 0x6
 2369 09b4 09000000 		.4byte	.LASF153
 2370 09b8 0E       		.byte	0xe
 2371 09b9 C8       		.byte	0xc8
 2372 09ba 86000000 		.4byte	0x86
 2373 09be 02       		.byte	0x2
 2374 09bf 23       		.byte	0x23
 2375 09c0 00       		.uleb128 0x0
 2376 09c1 06       		.uleb128 0x6
ARM GAS  C:\Users\z80\AppData\Local\Temp\cckEhmmh.s 			page 43


 2377 09c2 D2000000 		.4byte	.LASF154
 2378 09c6 0E       		.byte	0xe
 2379 09c7 CC       		.byte	0xcc
 2380 09c8 62000000 		.4byte	0x62
 2381 09cc 02       		.byte	0x2
 2382 09cd 23       		.byte	0x23
 2383 09ce 04       		.uleb128 0x4
 2384 09cf 06       		.uleb128 0x6
 2385 09d0 AD070000 		.4byte	.LASF155
 2386 09d4 0E       		.byte	0xe
 2387 09d5 D0       		.byte	0xd0
 2388 09d6 62000000 		.4byte	0x62
 2389 09da 02       		.byte	0x2
 2390 09db 23       		.byte	0x23
 2391 09dc 06       		.uleb128 0x6
 2392 09dd 06       		.uleb128 0x6
 2393 09de B4070000 		.4byte	.LASF156
 2394 09e2 0E       		.byte	0xe
 2395 09e3 D4       		.byte	0xd4
 2396 09e4 62000000 		.4byte	0x62
 2397 09e8 02       		.byte	0x2
 2398 09e9 23       		.byte	0x23
 2399 09ea 08       		.uleb128 0x8
 2400 09eb 00       		.byte	0x0
 2401 09ec 03       		.uleb128 0x3
 2402 09ed 1C040000 		.4byte	.LASF157
 2403 09f1 0E       		.byte	0xe
 2404 09f2 D5       		.byte	0xd5
 2405 09f3 AB090000 		.4byte	0x9ab
 2406 09f7 05       		.uleb128 0x5
 2407 09f8 27020000 		.4byte	.LASF158
 2408 09fc 24       		.byte	0x24
 2409 09fd 0D       		.byte	0xd
 2410 09fe 7C       		.byte	0x7c
 2411 09ff 820A0000 		.4byte	0xa82
 2412 0a03 06       		.uleb128 0x6
 2413 0a04 63030000 		.4byte	.LASF159
 2414 0a08 0D       		.byte	0xd
 2415 0a09 7D       		.byte	0x7d
 2416 0a0a 31050000 		.4byte	0x531
 2417 0a0e 02       		.byte	0x2
 2418 0a0f 23       		.byte	0x23
 2419 0a10 00       		.uleb128 0x0
 2420 0a11 06       		.uleb128 0x6
 2421 0a12 14060000 		.4byte	.LASF160
 2422 0a16 0D       		.byte	0xd
 2423 0a17 7D       		.byte	0x7d
 2424 0a18 51050000 		.4byte	0x551
 2425 0a1c 02       		.byte	0x2
 2426 0a1d 23       		.byte	0x23
 2427 0a1e 04       		.uleb128 0x4
 2428 0a1f 06       		.uleb128 0x6
 2429 0a20 55030000 		.4byte	.LASF161
 2430 0a24 0D       		.byte	0xd
 2431 0a25 7D       		.byte	0x7d
 2432 0a26 67050000 		.4byte	0x567
 2433 0a2a 02       		.byte	0x2
ARM GAS  C:\Users\z80\AppData\Local\Temp\cckEhmmh.s 			page 44


 2434 0a2b 23       		.byte	0x23
 2435 0a2c 08       		.uleb128 0x8
 2436 0a2d 06       		.uleb128 0x6
 2437 0a2e 92070000 		.4byte	.LASF162
 2438 0a32 0D       		.byte	0xd
 2439 0a33 7D       		.byte	0x7d
 2440 0a34 67050000 		.4byte	0x567
 2441 0a38 02       		.byte	0x2
 2442 0a39 23       		.byte	0x23
 2443 0a3a 0C       		.uleb128 0xc
 2444 0a3b 07       		.uleb128 0x7
 2445 0a3c 70757400 		.ascii	"put\000"
 2446 0a40 0D       		.byte	0xd
 2447 0a41 7D       		.byte	0x7d
 2448 0a42 87050000 		.4byte	0x587
 2449 0a46 02       		.byte	0x2
 2450 0a47 23       		.byte	0x23
 2451 0a48 10       		.uleb128 0x10
 2452 0a49 07       		.uleb128 0x7
 2453 0a4a 67657400 		.ascii	"get\000"
 2454 0a4e 0D       		.byte	0xd
 2455 0a4f 7D       		.byte	0x7d
 2456 0a50 A2050000 		.4byte	0x5a2
 2457 0a54 02       		.byte	0x2
 2458 0a55 23       		.byte	0x23
 2459 0a56 14       		.uleb128 0x14
 2460 0a57 06       		.uleb128 0x6
 2461 0a58 E4020000 		.4byte	.LASF163
 2462 0a5c 0D       		.byte	0xd
 2463 0a5d 7D       		.byte	0x7d
 2464 0a5e C7050000 		.4byte	0x5c7
 2465 0a62 02       		.byte	0x2
 2466 0a63 23       		.byte	0x23
 2467 0a64 18       		.uleb128 0x18
 2468 0a65 06       		.uleb128 0x6
 2469 0a66 E7000000 		.4byte	.LASF164
 2470 0a6a 0D       		.byte	0xd
 2471 0a6b 7D       		.byte	0x7d
 2472 0a6c EC050000 		.4byte	0x5ec
 2473 0a70 02       		.byte	0x2
 2474 0a71 23       		.byte	0x23
 2475 0a72 1C       		.uleb128 0x1c
 2476 0a73 06       		.uleb128 0x6
 2477 0a74 AD060000 		.4byte	.LASF165
 2478 0a78 0D       		.byte	0xd
 2479 0a79 7D       		.byte	0x7d
 2480 0a7a 0E060000 		.4byte	0x60e
 2481 0a7e 02       		.byte	0x2
 2482 0a7f 23       		.byte	0x23
 2483 0a80 20       		.uleb128 0x20
 2484 0a81 00       		.byte	0x0
 2485 0a82 09       		.uleb128 0x9
 2486 0a83 04       		.byte	0x4
 2487 0a84 880A0000 		.4byte	0xa88
 2488 0a88 11       		.uleb128 0x11
 2489 0a89 F7090000 		.4byte	0x9f7
 2490 0a8d 1C       		.uleb128 0x1c
ARM GAS  C:\Users\z80\AppData\Local\Temp\cckEhmmh.s 			page 45


 2491 0a8e 49000000 		.4byte	0x49
 2492 0a92 9E0A0000 		.4byte	0xa9e
 2493 0a96 1D       		.uleb128 0x1d
 2494 0a97 42030000 		.4byte	0x342
 2495 0a9b FF01     		.2byte	0x1ff
 2496 0a9d 00       		.byte	0x0
 2497 0a9e 09       		.uleb128 0x9
 2498 0a9f 04       		.byte	0x4
 2499 0aa0 E2080000 		.4byte	0x8e2
 2500 0aa4 1E       		.uleb128 0x1e
 2501 0aa5 51000000 		.4byte	.LASF166
 2502 0aa9 01       		.byte	0x1
 2503 0aaa 95       		.byte	0x95
 2504 0aab 01       		.byte	0x1
 2505 0aac 01       		.byte	0x1
 2506 0aad F00A0000 		.4byte	0xaf0
 2507 0ab1 1F       		.uleb128 0x1f
 2508 0ab2 73647000 		.ascii	"sdp\000"
 2509 0ab6 01       		.byte	0x1
 2510 0ab7 95       		.byte	0x95
 2511 0ab8 F00A0000 		.4byte	0xaf0
 2512 0abc 1F       		.uleb128 0x1f
 2513 0abd 737200   		.ascii	"sr\000"
 2514 0ac0 01       		.byte	0x1
 2515 0ac1 95       		.byte	0x95
 2516 0ac2 62000000 		.4byte	0x62
 2517 0ac6 20       		.uleb128 0x20
 2518 0ac7 73747300 		.ascii	"sts\000"
 2519 0acb 01       		.byte	0x1
 2520 0acc 96       		.byte	0x96
 2521 0acd F2050000 		.4byte	0x5f2
 2522 0ad1 21       		.uleb128 0x21
 2523 0ad2 E20A0000 		.4byte	0xae2
 2524 0ad6 20       		.uleb128 0x20
 2525 0ad7 746D7000 		.ascii	"tmp\000"
 2526 0adb 01       		.byte	0x1
 2527 0adc A0       		.byte	0xa0
 2528 0add 86000000 		.4byte	0x86
 2529 0ae1 00       		.byte	0x0
 2530 0ae2 22       		.uleb128 0x22
 2531 0ae3 20       		.uleb128 0x20
 2532 0ae4 746D7000 		.ascii	"tmp\000"
 2533 0ae8 01       		.byte	0x1
 2534 0ae9 A2       		.byte	0xa2
 2535 0aea 86000000 		.4byte	0x86
 2536 0aee 00       		.byte	0x0
 2537 0aef 00       		.byte	0x0
 2538 0af0 09       		.uleb128 0x9
 2539 0af1 04       		.byte	0x4
 2540 0af2 14090000 		.4byte	0x914
 2541 0af6 1E       		.uleb128 0x1e
 2542 0af7 6E030000 		.4byte	.LASF167
 2543 0afb 01       		.byte	0x1
 2544 0afc 63       		.byte	0x63
 2545 0afd 01       		.byte	0x1
 2546 0afe 01       		.byte	0x1
 2547 0aff 230B0000 		.4byte	0xb23
ARM GAS  C:\Users\z80\AppData\Local\Temp\cckEhmmh.s 			page 46


 2548 0b03 1F       		.uleb128 0x1f
 2549 0b04 73647000 		.ascii	"sdp\000"
 2550 0b08 01       		.byte	0x1
 2551 0b09 63       		.byte	0x63
 2552 0b0a F00A0000 		.4byte	0xaf0
 2553 0b0e 23       		.uleb128 0x23
 2554 0b0f 2C060000 		.4byte	.LASF168
 2555 0b13 01       		.byte	0x1
 2556 0b14 63       		.byte	0x63
 2557 0b15 230B0000 		.4byte	0xb23
 2558 0b19 20       		.uleb128 0x20
 2559 0b1a 7500     		.ascii	"u\000"
 2560 0b1c 01       		.byte	0x1
 2561 0b1d 64       		.byte	0x64
 2562 0b1e 9E0A0000 		.4byte	0xa9e
 2563 0b22 00       		.byte	0x0
 2564 0b23 09       		.uleb128 0x9
 2565 0b24 04       		.byte	0x4
 2566 0b25 290B0000 		.4byte	0xb29
 2567 0b29 11       		.uleb128 0x11
 2568 0b2a EC090000 		.4byte	0x9ec
 2569 0b2e 1E       		.uleb128 0x1e
 2570 0b2f F2010000 		.4byte	.LASF169
 2571 0b33 01       		.byte	0x1
 2572 0b34 85       		.byte	0x85
 2573 0b35 01       		.byte	0x1
 2574 0b36 01       		.byte	0x1
 2575 0b37 450B0000 		.4byte	0xb45
 2576 0b3b 1F       		.uleb128 0x1f
 2577 0b3c 7500     		.ascii	"u\000"
 2578 0b3e 01       		.byte	0x1
 2579 0b3f 85       		.byte	0x85
 2580 0b40 9E0A0000 		.4byte	0xa9e
 2581 0b44 00       		.byte	0x0
 2582 0b45 24       		.uleb128 0x24
 2583 0b46 29040000 		.4byte	.LASF170
 2584 0b4a 01       		.byte	0x1
 2585 0b4b D9       		.byte	0xd9
 2586 0b4c 01       		.byte	0x1
 2587 0b4d 00000000 		.4byte	.LFB66
 2588 0b51 14000000 		.4byte	.LFE66
 2589 0b55 02       		.byte	0x2
 2590 0b56 7D       		.byte	0x7d
 2591 0b57 00       		.sleb128 0
 2592 0b58 690B0000 		.4byte	0xb69
 2593 0b5c 25       		.uleb128 0x25
 2594 0b5d 717000   		.ascii	"qp\000"
 2595 0b60 01       		.byte	0x1
 2596 0b61 D9       		.byte	0xd9
 2597 0b62 EA040000 		.4byte	0x4ea
 2598 0b66 01       		.byte	0x1
 2599 0b67 50       		.byte	0x50
 2600 0b68 00       		.byte	0x0
 2601 0b69 24       		.uleb128 0x24
 2602 0b6a 31040000 		.4byte	.LASF171
 2603 0b6e 01       		.byte	0x1
 2604 0b6f E1       		.byte	0xe1
ARM GAS  C:\Users\z80\AppData\Local\Temp\cckEhmmh.s 			page 47


 2605 0b70 01       		.byte	0x1
 2606 0b71 00000000 		.4byte	.LFB67
 2607 0b75 14000000 		.4byte	.LFE67
 2608 0b79 02       		.byte	0x2
 2609 0b7a 7D       		.byte	0x7d
 2610 0b7b 00       		.sleb128 0
 2611 0b7c 8D0B0000 		.4byte	0xb8d
 2612 0b80 25       		.uleb128 0x25
 2613 0b81 717000   		.ascii	"qp\000"
 2614 0b84 01       		.byte	0x1
 2615 0b85 E1       		.byte	0xe1
 2616 0b86 EA040000 		.4byte	0x4ea
 2617 0b8a 01       		.byte	0x1
 2618 0b8b 50       		.byte	0x50
 2619 0b8c 00       		.byte	0x0
 2620 0b8d 26       		.uleb128 0x26
 2621 0b8e 96050000 		.4byte	.LASF172
 2622 0b92 01       		.byte	0x1
 2623 0b93 AA       		.byte	0xaa
 2624 0b94 01       		.byte	0x1
 2625 0b95 00000000 		.4byte	.LFB65
 2626 0b99 60010000 		.4byte	.LFE65
 2627 0b9d 00000000 		.4byte	.LLST0
 2628 0ba1 450D0000 		.4byte	0xd45
 2629 0ba5 27       		.uleb128 0x27
 2630 0ba6 73647000 		.ascii	"sdp\000"
 2631 0baa 01       		.byte	0x1
 2632 0bab AA       		.byte	0xaa
 2633 0bac F00A0000 		.4byte	0xaf0
 2634 0bb0 20000000 		.4byte	.LLST1
 2635 0bb4 28       		.uleb128 0x28
 2636 0bb5 7500     		.ascii	"u\000"
 2637 0bb7 01       		.byte	0x1
 2638 0bb8 AB       		.byte	0xab
 2639 0bb9 9E0A0000 		.4byte	0xa9e
 2640 0bbd 3E000000 		.4byte	.LLST2
 2641 0bc1 29       		.uleb128 0x29
 2642 0bc2 63723100 		.ascii	"cr1\000"
 2643 0bc6 01       		.byte	0x1
 2644 0bc7 AC       		.byte	0xac
 2645 0bc8 62000000 		.4byte	0x62
 2646 0bcc 01       		.byte	0x1
 2647 0bcd 57       		.byte	0x57
 2648 0bce 29       		.uleb128 0x29
 2649 0bcf 737200   		.ascii	"sr\000"
 2650 0bd2 01       		.byte	0x1
 2651 0bd3 AD       		.byte	0xad
 2652 0bd4 62000000 		.4byte	0x62
 2653 0bd8 01       		.byte	0x1
 2654 0bd9 54       		.byte	0x54
 2655 0bda 29       		.uleb128 0x29
 2656 0bdb 647200   		.ascii	"dr\000"
 2657 0bde 01       		.byte	0x1
 2658 0bdf AE       		.byte	0xae
 2659 0be0 62000000 		.4byte	0x62
 2660 0be4 01       		.byte	0x1
 2661 0be5 58       		.byte	0x58
ARM GAS  C:\Users\z80\AppData\Local\Temp\cckEhmmh.s 			page 48


 2662 0be6 2A       		.uleb128 0x2a
 2663 0be7 A40A0000 		.4byte	0xaa4
 2664 0beb 20000000 		.4byte	.LBB19
 2665 0bef 6E000000 		.4byte	.LBE19
 2666 0bf3 01       		.byte	0x1
 2667 0bf4 B2       		.byte	0xb2
 2668 0bf5 490C0000 		.4byte	0xc49
 2669 0bf9 2B       		.uleb128 0x2b
 2670 0bfa BC0A0000 		.4byte	0xabc
 2671 0bfe 5E000000 		.4byte	.LLST3
 2672 0c02 2B       		.uleb128 0x2b
 2673 0c03 B10A0000 		.4byte	0xab1
 2674 0c07 71000000 		.4byte	.LLST4
 2675 0c0b 2C       		.uleb128 0x2c
 2676 0c0c 20000000 		.4byte	.LBB20
 2677 0c10 6E000000 		.4byte	.LBE20
 2678 0c14 2D       		.uleb128 0x2d
 2679 0c15 C60A0000 		.4byte	0xac6
 2680 0c19 8F000000 		.4byte	.LLST5
 2681 0c1d 2E       		.uleb128 0x2e
 2682 0c1e 48000000 		.4byte	.LBB21
 2683 0c22 4E000000 		.4byte	.LBE21
 2684 0c26 340C0000 		.4byte	0xc34
 2685 0c2a 2D       		.uleb128 0x2d
 2686 0c2b D60A0000 		.4byte	0xad6
 2687 0c2f CF000000 		.4byte	.LLST6
 2688 0c33 00       		.byte	0x0
 2689 0c34 2C       		.uleb128 0x2c
 2690 0c35 68000000 		.4byte	.LBB22
 2691 0c39 6E000000 		.4byte	.LBE22
 2692 0c3d 2D       		.uleb128 0x2d
 2693 0c3e E30A0000 		.4byte	0xae3
 2694 0c42 E2000000 		.4byte	.LLST7
 2695 0c46 00       		.byte	0x0
 2696 0c47 00       		.byte	0x0
 2697 0c48 00       		.byte	0x0
 2698 0c49 2E       		.uleb128 0x2e
 2699 0c4a 8C000000 		.4byte	.LBB23
 2700 0c4e 92000000 		.4byte	.LBE23
 2701 0c52 660C0000 		.4byte	0xc66
 2702 0c56 28       		.uleb128 0x28
 2703 0c57 746D7000 		.ascii	"tmp\000"
 2704 0c5b 01       		.byte	0x1
 2705 0c5c CF       		.byte	0xcf
 2706 0c5d 86000000 		.4byte	0x86
 2707 0c61 16010000 		.4byte	.LLST8
 2708 0c65 00       		.byte	0x0
 2709 0c66 2E       		.uleb128 0x2e
 2710 0c67 AA000000 		.4byte	.LBB24
 2711 0c6b B0000000 		.4byte	.LBE24
 2712 0c6f 830C0000 		.4byte	0xc83
 2713 0c73 28       		.uleb128 0x28
 2714 0c74 746D7000 		.ascii	"tmp\000"
 2715 0c78 01       		.byte	0x1
 2716 0c79 D1       		.byte	0xd1
 2717 0c7a 86000000 		.4byte	0x86
 2718 0c7e 29010000 		.4byte	.LLST9
ARM GAS  C:\Users\z80\AppData\Local\Temp\cckEhmmh.s 			page 49


 2719 0c82 00       		.byte	0x0
 2720 0c83 2E       		.uleb128 0x2e
 2721 0c84 CA000000 		.4byte	.LBB25
 2722 0c88 D0000000 		.4byte	.LBE25
 2723 0c8c A00C0000 		.4byte	0xca0
 2724 0c90 28       		.uleb128 0x28
 2725 0c91 746D7000 		.ascii	"tmp\000"
 2726 0c95 01       		.byte	0x1
 2727 0c96 BC       		.byte	0xbc
 2728 0c97 86000000 		.4byte	0x86
 2729 0c9b 3C010000 		.4byte	.LLST10
 2730 0c9f 00       		.byte	0x0
 2731 0ca0 2E       		.uleb128 0x2e
 2732 0ca1 E2000000 		.4byte	.LBB26
 2733 0ca5 EA000000 		.4byte	.LBE26
 2734 0ca9 BD0C0000 		.4byte	0xcbd
 2735 0cad 28       		.uleb128 0x28
 2736 0cae 746D7000 		.ascii	"tmp\000"
 2737 0cb2 01       		.byte	0x1
 2738 0cb3 BE       		.byte	0xbe
 2739 0cb4 86000000 		.4byte	0x86
 2740 0cb8 4F010000 		.4byte	.LLST11
 2741 0cbc 00       		.byte	0x0
 2742 0cbd 2E       		.uleb128 0x2e
 2743 0cbe EA000000 		.4byte	.LBB27
 2744 0cc2 F0000000 		.4byte	.LBE27
 2745 0cc6 DA0C0000 		.4byte	0xcda
 2746 0cca 28       		.uleb128 0x28
 2747 0ccb 746D7000 		.ascii	"tmp\000"
 2748 0ccf 01       		.byte	0x1
 2749 0cd0 B5       		.byte	0xb5
 2750 0cd1 86000000 		.4byte	0x86
 2751 0cd5 83010000 		.4byte	.LLST12
 2752 0cd9 00       		.byte	0x0
 2753 0cda 2E       		.uleb128 0x2e
 2754 0cdb 08010000 		.4byte	.LBB28
 2755 0cdf 0E010000 		.4byte	.LBE28
 2756 0ce3 F70C0000 		.4byte	0xcf7
 2757 0ce7 28       		.uleb128 0x28
 2758 0ce8 746D7000 		.ascii	"tmp\000"
 2759 0cec 01       		.byte	0x1
 2760 0ced B7       		.byte	0xb7
 2761 0cee 86000000 		.4byte	0x86
 2762 0cf2 96010000 		.4byte	.LLST13
 2763 0cf6 00       		.byte	0x0
 2764 0cf7 2C       		.uleb128 0x2c
 2765 0cf8 1C010000 		.4byte	.LBB29
 2766 0cfc 60010000 		.4byte	.LBE29
 2767 0d00 28       		.uleb128 0x28
 2768 0d01 6200     		.ascii	"b\000"
 2769 0d03 01       		.byte	0x1
 2770 0d04 C2       		.byte	0xc2
 2771 0d05 E8000000 		.4byte	0xe8
 2772 0d09 A9010000 		.4byte	.LLST14
 2773 0d0d 2E       		.uleb128 0x2e
 2774 0d0e 1C010000 		.4byte	.LBB30
 2775 0d12 22010000 		.4byte	.LBE30
ARM GAS  C:\Users\z80\AppData\Local\Temp\cckEhmmh.s 			page 50


 2776 0d16 2A0D0000 		.4byte	0xd2a
 2777 0d1a 28       		.uleb128 0x28
 2778 0d1b 746D7000 		.ascii	"tmp\000"
 2779 0d1f 01       		.byte	0x1
 2780 0d20 C3       		.byte	0xc3
 2781 0d21 86000000 		.4byte	0x86
 2782 0d25 BC010000 		.4byte	.LLST15
 2783 0d29 00       		.byte	0x0
 2784 0d2a 2C       		.uleb128 0x2c
 2785 0d2b 3C010000 		.4byte	.LBB31
 2786 0d2f 44010000 		.4byte	.LBE31
 2787 0d33 28       		.uleb128 0x28
 2788 0d34 746D7000 		.ascii	"tmp\000"
 2789 0d38 01       		.byte	0x1
 2790 0d39 CB       		.byte	0xcb
 2791 0d3a 86000000 		.4byte	0x86
 2792 0d3e CF010000 		.4byte	.LLST16
 2793 0d42 00       		.byte	0x0
 2794 0d43 00       		.byte	0x0
 2795 0d44 00       		.byte	0x0
 2796 0d45 2F       		.uleb128 0x2f
 2797 0d46 01       		.byte	0x1
 2798 0d47 0B030000 		.4byte	.LASF173
 2799 0d4b 01       		.byte	0x1
 2800 0d4c 1201     		.2byte	0x112
 2801 0d4e 01       		.byte	0x1
 2802 0d4f 00000000 		.4byte	.LFB68
 2803 0d53 1C000000 		.4byte	.LFE68
 2804 0d57 F8010000 		.4byte	.LLST17
 2805 0d5b 2F       		.uleb128 0x2f
 2806 0d5c 01       		.byte	0x1
 2807 0d5d 14030000 		.4byte	.LASF174
 2808 0d61 01       		.byte	0x1
 2809 0d62 2201     		.2byte	0x122
 2810 0d64 01       		.byte	0x1
 2811 0d65 00000000 		.4byte	.LFB69
 2812 0d69 1C000000 		.4byte	.LFE69
 2813 0d6d 18020000 		.4byte	.LLST18
 2814 0d71 2F       		.uleb128 0x2f
 2815 0d72 01       		.byte	0x1
 2816 0d73 66020000 		.4byte	.LASF175
 2817 0d77 01       		.byte	0x1
 2818 0d78 7501     		.2byte	0x175
 2819 0d7a 01       		.byte	0x1
 2820 0d7b 00000000 		.4byte	.LFB70
 2821 0d7f 4C000000 		.4byte	.LFE70
 2822 0d83 38020000 		.4byte	.LLST19
 2823 0d87 30       		.uleb128 0x30
 2824 0d88 01       		.byte	0x1
 2825 0d89 E8040000 		.4byte	.LASF176
 2826 0d8d 01       		.byte	0x1
 2827 0d8e A001     		.2byte	0x1a0
 2828 0d90 01       		.byte	0x1
 2829 0d91 00000000 		.4byte	.LFB71
 2830 0d95 A4000000 		.4byte	.LFE71
 2831 0d99 58020000 		.4byte	.LLST20
 2832 0d9d EB0D0000 		.4byte	0xdeb
ARM GAS  C:\Users\z80\AppData\Local\Temp\cckEhmmh.s 			page 51


 2833 0da1 31       		.uleb128 0x31
 2834 0da2 73647000 		.ascii	"sdp\000"
 2835 0da6 01       		.byte	0x1
 2836 0da7 A001     		.2byte	0x1a0
 2837 0da9 F00A0000 		.4byte	0xaf0
 2838 0dad 78020000 		.4byte	.LLST21
 2839 0db1 32       		.uleb128 0x32
 2840 0db2 2C060000 		.4byte	.LASF168
 2841 0db6 01       		.byte	0x1
 2842 0db7 A001     		.2byte	0x1a0
 2843 0db9 230B0000 		.4byte	0xb23
 2844 0dbd 96020000 		.4byte	.LLST22
 2845 0dc1 33       		.uleb128 0x33
 2846 0dc2 F60A0000 		.4byte	0xaf6
 2847 0dc6 14000000 		.4byte	.LBB32
 2848 0dca 00000000 		.4byte	.Ldebug_ranges0+0x0
 2849 0dce 01       		.byte	0x1
 2850 0dcf D101     		.2byte	0x1d1
 2851 0dd1 2B       		.uleb128 0x2b
 2852 0dd2 0E0B0000 		.4byte	0xb0e
 2853 0dd6 B4020000 		.4byte	.LLST23
 2854 0dda 34       		.uleb128 0x34
 2855 0ddb 18000000 		.4byte	.Ldebug_ranges0+0x18
 2856 0ddf 2D       		.uleb128 0x2d
 2857 0de0 190B0000 		.4byte	0xb19
 2858 0de4 C7020000 		.4byte	.LLST24
 2859 0de8 00       		.byte	0x0
 2860 0de9 00       		.byte	0x0
 2861 0dea 00       		.byte	0x0
 2862 0deb 30       		.uleb128 0x30
 2863 0dec 01       		.byte	0x1
 2864 0ded 81070000 		.4byte	.LASF177
 2865 0df1 01       		.byte	0x1
 2866 0df2 DD01     		.2byte	0x1dd
 2867 0df4 01       		.byte	0x1
 2868 0df5 00000000 		.4byte	.LFB72
 2869 0df9 5C000000 		.4byte	.LFE72
 2870 0dfd DC020000 		.4byte	.LLST25
 2871 0e01 300E0000 		.4byte	0xe30
 2872 0e05 31       		.uleb128 0x31
 2873 0e06 73647000 		.ascii	"sdp\000"
 2874 0e0a 01       		.byte	0x1
 2875 0e0b DD01     		.2byte	0x1dd
 2876 0e0d F00A0000 		.4byte	0xaf0
 2877 0e11 FC020000 		.4byte	.LLST26
 2878 0e15 35       		.uleb128 0x35
 2879 0e16 2E0B0000 		.4byte	0xb2e
 2880 0e1a 0E000000 		.4byte	.LBB36
 2881 0e1e 16000000 		.4byte	.LBE36
 2882 0e22 01       		.byte	0x1
 2883 0e23 E001     		.2byte	0x1e0
 2884 0e25 2B       		.uleb128 0x2b
 2885 0e26 3B0B0000 		.4byte	0xb3b
 2886 0e2a 25030000 		.4byte	.LLST27
 2887 0e2e 00       		.byte	0x0
 2888 0e2f 00       		.byte	0x0
 2889 0e30 36       		.uleb128 0x36
ARM GAS  C:\Users\z80\AppData\Local\Temp\cckEhmmh.s 			page 52


 2890 0e31 AE000000 		.4byte	.LASF178
 2891 0e35 0F       		.byte	0xf
 2892 0e36 9404     		.2byte	0x494
 2893 0e38 58070000 		.4byte	0x758
 2894 0e3c 01       		.byte	0x1
 2895 0e3d 01       		.byte	0x1
 2896 0e3e 37       		.uleb128 0x37
 2897 0e3f 53443100 		.ascii	"SD1\000"
 2898 0e43 0E       		.byte	0xe
 2899 0e44 FB       		.byte	0xfb
 2900 0e45 14090000 		.4byte	0x914
 2901 0e49 01       		.byte	0x1
 2902 0e4a 01       		.byte	0x1
 2903 0e4b 37       		.uleb128 0x37
 2904 0e4c 53443200 		.ascii	"SD2\000"
 2905 0e50 0E       		.byte	0xe
 2906 0e51 FE       		.byte	0xfe
 2907 0e52 14090000 		.4byte	0x914
 2908 0e56 01       		.byte	0x1
 2909 0e57 01       		.byte	0x1
 2910 0e58 38       		.uleb128 0x38
 2911 0e59 3A010000 		.4byte	.LASF179
 2912 0e5d 01       		.byte	0x1
 2913 0e5e 50       		.byte	0x50
 2914 0e5f 290B0000 		.4byte	0xb29
 2915 0e63 05       		.byte	0x5
 2916 0e64 03       		.byte	0x3
 2917 0e65 00000000 		.4byte	default_config
 2918 0e69 36       		.uleb128 0x36
 2919 0e6a AE000000 		.4byte	.LASF178
 2920 0e6e 0F       		.byte	0xf
 2921 0e6f 9404     		.2byte	0x494
 2922 0e71 58070000 		.4byte	0x758
 2923 0e75 01       		.byte	0x1
 2924 0e76 01       		.byte	0x1
 2925 0e77 39       		.uleb128 0x39
 2926 0e78 53443100 		.ascii	"SD1\000"
 2927 0e7c 01       		.byte	0x1
 2928 0e7d 2F       		.byte	0x2f
 2929 0e7e 14090000 		.4byte	0x914
 2930 0e82 01       		.byte	0x1
 2931 0e83 05       		.byte	0x5
 2932 0e84 03       		.byte	0x3
 2933 0e85 00000000 		.4byte	SD1
 2934 0e89 39       		.uleb128 0x39
 2935 0e8a 53443200 		.ascii	"SD2\000"
 2936 0e8e 01       		.byte	0x1
 2937 0e8f 34       		.byte	0x34
 2938 0e90 14090000 		.4byte	0x914
 2939 0e94 01       		.byte	0x1
 2940 0e95 05       		.byte	0x5
 2941 0e96 03       		.byte	0x3
 2942 0e97 00000000 		.4byte	SD2
 2943 0e9b 00       		.byte	0x0
 2944              		.section	.debug_abbrev
 2945 0000 01       		.uleb128 0x1
 2946 0001 11       		.uleb128 0x11
ARM GAS  C:\Users\z80\AppData\Local\Temp\cckEhmmh.s 			page 53


 2947 0002 01       		.byte	0x1
 2948 0003 25       		.uleb128 0x25
 2949 0004 0E       		.uleb128 0xe
 2950 0005 13       		.uleb128 0x13
 2951 0006 0B       		.uleb128 0xb
 2952 0007 03       		.uleb128 0x3
 2953 0008 0E       		.uleb128 0xe
 2954 0009 1B       		.uleb128 0x1b
 2955 000a 0E       		.uleb128 0xe
 2956 000b 11       		.uleb128 0x11
 2957 000c 01       		.uleb128 0x1
 2958 000d 52       		.uleb128 0x52
 2959 000e 01       		.uleb128 0x1
 2960 000f 55       		.uleb128 0x55
 2961 0010 06       		.uleb128 0x6
 2962 0011 10       		.uleb128 0x10
 2963 0012 06       		.uleb128 0x6
 2964 0013 00       		.byte	0x0
 2965 0014 00       		.byte	0x0
 2966 0015 02       		.uleb128 0x2
 2967 0016 24       		.uleb128 0x24
 2968 0017 00       		.byte	0x0
 2969 0018 0B       		.uleb128 0xb
 2970 0019 0B       		.uleb128 0xb
 2971 001a 3E       		.uleb128 0x3e
 2972 001b 0B       		.uleb128 0xb
 2973 001c 03       		.uleb128 0x3
 2974 001d 08       		.uleb128 0x8
 2975 001e 00       		.byte	0x0
 2976 001f 00       		.byte	0x0
 2977 0020 03       		.uleb128 0x3
 2978 0021 16       		.uleb128 0x16
 2979 0022 00       		.byte	0x0
 2980 0023 03       		.uleb128 0x3
 2981 0024 0E       		.uleb128 0xe
 2982 0025 3A       		.uleb128 0x3a
 2983 0026 0B       		.uleb128 0xb
 2984 0027 3B       		.uleb128 0x3b
 2985 0028 0B       		.uleb128 0xb
 2986 0029 49       		.uleb128 0x49
 2987 002a 13       		.uleb128 0x13
 2988 002b 00       		.byte	0x0
 2989 002c 00       		.byte	0x0
 2990 002d 04       		.uleb128 0x4
 2991 002e 24       		.uleb128 0x24
 2992 002f 00       		.byte	0x0
 2993 0030 0B       		.uleb128 0xb
 2994 0031 0B       		.uleb128 0xb
 2995 0032 3E       		.uleb128 0x3e
 2996 0033 0B       		.uleb128 0xb
 2997 0034 03       		.uleb128 0x3
 2998 0035 0E       		.uleb128 0xe
 2999 0036 00       		.byte	0x0
 3000 0037 00       		.byte	0x0
 3001 0038 05       		.uleb128 0x5
 3002 0039 13       		.uleb128 0x13
 3003 003a 01       		.byte	0x1
ARM GAS  C:\Users\z80\AppData\Local\Temp\cckEhmmh.s 			page 54


 3004 003b 03       		.uleb128 0x3
 3005 003c 0E       		.uleb128 0xe
 3006 003d 0B       		.uleb128 0xb
 3007 003e 0B       		.uleb128 0xb
 3008 003f 3A       		.uleb128 0x3a
 3009 0040 0B       		.uleb128 0xb
 3010 0041 3B       		.uleb128 0x3b
 3011 0042 0B       		.uleb128 0xb
 3012 0043 01       		.uleb128 0x1
 3013 0044 13       		.uleb128 0x13
 3014 0045 00       		.byte	0x0
 3015 0046 00       		.byte	0x0
 3016 0047 06       		.uleb128 0x6
 3017 0048 0D       		.uleb128 0xd
 3018 0049 00       		.byte	0x0
 3019 004a 03       		.uleb128 0x3
 3020 004b 0E       		.uleb128 0xe
 3021 004c 3A       		.uleb128 0x3a
 3022 004d 0B       		.uleb128 0xb
 3023 004e 3B       		.uleb128 0x3b
 3024 004f 0B       		.uleb128 0xb
 3025 0050 49       		.uleb128 0x49
 3026 0051 13       		.uleb128 0x13
 3027 0052 38       		.uleb128 0x38
 3028 0053 0A       		.uleb128 0xa
 3029 0054 00       		.byte	0x0
 3030 0055 00       		.byte	0x0
 3031 0056 07       		.uleb128 0x7
 3032 0057 0D       		.uleb128 0xd
 3033 0058 00       		.byte	0x0
 3034 0059 03       		.uleb128 0x3
 3035 005a 08       		.uleb128 0x8
 3036 005b 3A       		.uleb128 0x3a
 3037 005c 0B       		.uleb128 0xb
 3038 005d 3B       		.uleb128 0x3b
 3039 005e 0B       		.uleb128 0xb
 3040 005f 49       		.uleb128 0x49
 3041 0060 13       		.uleb128 0x13
 3042 0061 38       		.uleb128 0x38
 3043 0062 0A       		.uleb128 0xa
 3044 0063 00       		.byte	0x0
 3045 0064 00       		.byte	0x0
 3046 0065 08       		.uleb128 0x8
 3047 0066 13       		.uleb128 0x13
 3048 0067 01       		.byte	0x1
 3049 0068 0B       		.uleb128 0xb
 3050 0069 0B       		.uleb128 0xb
 3051 006a 3A       		.uleb128 0x3a
 3052 006b 0B       		.uleb128 0xb
 3053 006c 3B       		.uleb128 0x3b
 3054 006d 0B       		.uleb128 0xb
 3055 006e 01       		.uleb128 0x1
 3056 006f 13       		.uleb128 0x13
 3057 0070 00       		.byte	0x0
 3058 0071 00       		.byte	0x0
 3059 0072 09       		.uleb128 0x9
 3060 0073 0F       		.uleb128 0xf
ARM GAS  C:\Users\z80\AppData\Local\Temp\cckEhmmh.s 			page 55


 3061 0074 00       		.byte	0x0
 3062 0075 0B       		.uleb128 0xb
 3063 0076 0B       		.uleb128 0xb
 3064 0077 49       		.uleb128 0x49
 3065 0078 13       		.uleb128 0x13
 3066 0079 00       		.byte	0x0
 3067 007a 00       		.byte	0x0
 3068 007b 0A       		.uleb128 0xa
 3069 007c 0F       		.uleb128 0xf
 3070 007d 00       		.byte	0x0
 3071 007e 0B       		.uleb128 0xb
 3072 007f 0B       		.uleb128 0xb
 3073 0080 00       		.byte	0x0
 3074 0081 00       		.byte	0x0
 3075 0082 0B       		.uleb128 0xb
 3076 0083 0D       		.uleb128 0xd
 3077 0084 00       		.byte	0x0
 3078 0085 03       		.uleb128 0x3
 3079 0086 08       		.uleb128 0x8
 3080 0087 3A       		.uleb128 0x3a
 3081 0088 0B       		.uleb128 0xb
 3082 0089 3B       		.uleb128 0x3b
 3083 008a 05       		.uleb128 0x5
 3084 008b 49       		.uleb128 0x49
 3085 008c 13       		.uleb128 0x13
 3086 008d 38       		.uleb128 0x38
 3087 008e 0A       		.uleb128 0xa
 3088 008f 00       		.byte	0x0
 3089 0090 00       		.byte	0x0
 3090 0091 0C       		.uleb128 0xc
 3091 0092 13       		.uleb128 0x13
 3092 0093 01       		.byte	0x1
 3093 0094 03       		.uleb128 0x3
 3094 0095 0E       		.uleb128 0xe
 3095 0096 0B       		.uleb128 0xb
 3096 0097 0B       		.uleb128 0xb
 3097 0098 3A       		.uleb128 0x3a
 3098 0099 0B       		.uleb128 0xb
 3099 009a 3B       		.uleb128 0x3b
 3100 009b 05       		.uleb128 0x5
 3101 009c 01       		.uleb128 0x1
 3102 009d 13       		.uleb128 0x13
 3103 009e 00       		.byte	0x0
 3104 009f 00       		.byte	0x0
 3105 00a0 0D       		.uleb128 0xd
 3106 00a1 35       		.uleb128 0x35
 3107 00a2 00       		.byte	0x0
 3108 00a3 49       		.uleb128 0x49
 3109 00a4 13       		.uleb128 0x13
 3110 00a5 00       		.byte	0x0
 3111 00a6 00       		.byte	0x0
 3112 00a7 0E       		.uleb128 0xe
 3113 00a8 24       		.uleb128 0x24
 3114 00a9 00       		.byte	0x0
 3115 00aa 0B       		.uleb128 0xb
 3116 00ab 0B       		.uleb128 0xb
 3117 00ac 3E       		.uleb128 0x3e
ARM GAS  C:\Users\z80\AppData\Local\Temp\cckEhmmh.s 			page 56


 3118 00ad 0B       		.uleb128 0xb
 3119 00ae 00       		.byte	0x0
 3120 00af 00       		.byte	0x0
 3121 00b0 0F       		.uleb128 0xf
 3122 00b1 17       		.uleb128 0x17
 3123 00b2 01       		.byte	0x1
 3124 00b3 0B       		.uleb128 0xb
 3125 00b4 0B       		.uleb128 0xb
 3126 00b5 3A       		.uleb128 0x3a
 3127 00b6 0B       		.uleb128 0xb
 3128 00b7 3B       		.uleb128 0x3b
 3129 00b8 0B       		.uleb128 0xb
 3130 00b9 01       		.uleb128 0x1
 3131 00ba 13       		.uleb128 0x13
 3132 00bb 00       		.byte	0x0
 3133 00bc 00       		.byte	0x0
 3134 00bd 10       		.uleb128 0x10
 3135 00be 0D       		.uleb128 0xd
 3136 00bf 00       		.byte	0x0
 3137 00c0 03       		.uleb128 0x3
 3138 00c1 0E       		.uleb128 0xe
 3139 00c2 3A       		.uleb128 0x3a
 3140 00c3 0B       		.uleb128 0xb
 3141 00c4 3B       		.uleb128 0x3b
 3142 00c5 0B       		.uleb128 0xb
 3143 00c6 49       		.uleb128 0x49
 3144 00c7 13       		.uleb128 0x13
 3145 00c8 00       		.byte	0x0
 3146 00c9 00       		.byte	0x0
 3147 00ca 11       		.uleb128 0x11
 3148 00cb 26       		.uleb128 0x26
 3149 00cc 00       		.byte	0x0
 3150 00cd 49       		.uleb128 0x49
 3151 00ce 13       		.uleb128 0x13
 3152 00cf 00       		.byte	0x0
 3153 00d0 00       		.byte	0x0
 3154 00d1 12       		.uleb128 0x12
 3155 00d2 15       		.uleb128 0x15
 3156 00d3 01       		.byte	0x1
 3157 00d4 27       		.uleb128 0x27
 3158 00d5 0C       		.uleb128 0xc
 3159 00d6 01       		.uleb128 0x1
 3160 00d7 13       		.uleb128 0x13
 3161 00d8 00       		.byte	0x0
 3162 00d9 00       		.byte	0x0
 3163 00da 13       		.uleb128 0x13
 3164 00db 05       		.uleb128 0x5
 3165 00dc 00       		.byte	0x0
 3166 00dd 49       		.uleb128 0x49
 3167 00de 13       		.uleb128 0x13
 3168 00df 00       		.byte	0x0
 3169 00e0 00       		.byte	0x0
 3170 00e1 14       		.uleb128 0x14
 3171 00e2 15       		.uleb128 0x15
 3172 00e3 01       		.byte	0x1
 3173 00e4 27       		.uleb128 0x27
 3174 00e5 0C       		.uleb128 0xc
ARM GAS  C:\Users\z80\AppData\Local\Temp\cckEhmmh.s 			page 57


 3175 00e6 49       		.uleb128 0x49
 3176 00e7 13       		.uleb128 0x13
 3177 00e8 01       		.uleb128 0x1
 3178 00e9 13       		.uleb128 0x13
 3179 00ea 00       		.byte	0x0
 3180 00eb 00       		.byte	0x0
 3181 00ec 15       		.uleb128 0x15
 3182 00ed 16       		.uleb128 0x16
 3183 00ee 00       		.byte	0x0
 3184 00ef 03       		.uleb128 0x3
 3185 00f0 0E       		.uleb128 0xe
 3186 00f1 3A       		.uleb128 0x3a
 3187 00f2 0B       		.uleb128 0xb
 3188 00f3 3B       		.uleb128 0x3b
 3189 00f4 05       		.uleb128 0x5
 3190 00f5 49       		.uleb128 0x49
 3191 00f6 13       		.uleb128 0x13
 3192 00f7 00       		.byte	0x0
 3193 00f8 00       		.byte	0x0
 3194 00f9 16       		.uleb128 0x16
 3195 00fa 04       		.uleb128 0x4
 3196 00fb 01       		.byte	0x1
 3197 00fc 03       		.uleb128 0x3
 3198 00fd 0E       		.uleb128 0xe
 3199 00fe 0B       		.uleb128 0xb
 3200 00ff 0B       		.uleb128 0xb
 3201 0100 3A       		.uleb128 0x3a
 3202 0101 0B       		.uleb128 0xb
 3203 0102 3B       		.uleb128 0x3b
 3204 0103 0B       		.uleb128 0xb
 3205 0104 01       		.uleb128 0x1
 3206 0105 13       		.uleb128 0x13
 3207 0106 00       		.byte	0x0
 3208 0107 00       		.byte	0x0
 3209 0108 17       		.uleb128 0x17
 3210 0109 28       		.uleb128 0x28
 3211 010a 00       		.byte	0x0
 3212 010b 03       		.uleb128 0x3
 3213 010c 0E       		.uleb128 0xe
 3214 010d 1C       		.uleb128 0x1c
 3215 010e 0D       		.uleb128 0xd
 3216 010f 00       		.byte	0x0
 3217 0110 00       		.byte	0x0
 3218 0111 18       		.uleb128 0x18
 3219 0112 13       		.uleb128 0x13
 3220 0113 01       		.byte	0x1
 3221 0114 0B       		.uleb128 0xb
 3222 0115 0B       		.uleb128 0xb
 3223 0116 3A       		.uleb128 0x3a
 3224 0117 0B       		.uleb128 0xb
 3225 0118 3B       		.uleb128 0x3b
 3226 0119 05       		.uleb128 0x5
 3227 011a 01       		.uleb128 0x1
 3228 011b 13       		.uleb128 0x13
 3229 011c 00       		.byte	0x0
 3230 011d 00       		.byte	0x0
 3231 011e 19       		.uleb128 0x19
ARM GAS  C:\Users\z80\AppData\Local\Temp\cckEhmmh.s 			page 58


 3232 011f 0D       		.uleb128 0xd
 3233 0120 00       		.byte	0x0
 3234 0121 03       		.uleb128 0x3
 3235 0122 0E       		.uleb128 0xe
 3236 0123 3A       		.uleb128 0x3a
 3237 0124 0B       		.uleb128 0xb
 3238 0125 3B       		.uleb128 0x3b
 3239 0126 05       		.uleb128 0x5
 3240 0127 49       		.uleb128 0x49
 3241 0128 13       		.uleb128 0x13
 3242 0129 38       		.uleb128 0x38
 3243 012a 0A       		.uleb128 0xa
 3244 012b 00       		.byte	0x0
 3245 012c 00       		.byte	0x0
 3246 012d 1A       		.uleb128 0x1a
 3247 012e 04       		.uleb128 0x4
 3248 012f 01       		.byte	0x1
 3249 0130 0B       		.uleb128 0xb
 3250 0131 0B       		.uleb128 0xb
 3251 0132 3A       		.uleb128 0x3a
 3252 0133 0B       		.uleb128 0xb
 3253 0134 3B       		.uleb128 0x3b
 3254 0135 0B       		.uleb128 0xb
 3255 0136 01       		.uleb128 0x1
 3256 0137 13       		.uleb128 0x13
 3257 0138 00       		.byte	0x0
 3258 0139 00       		.byte	0x0
 3259 013a 1B       		.uleb128 0x1b
 3260 013b 13       		.uleb128 0x13
 3261 013c 01       		.byte	0x1
 3262 013d 03       		.uleb128 0x3
 3263 013e 0E       		.uleb128 0xe
 3264 013f 0B       		.uleb128 0xb
 3265 0140 05       		.uleb128 0x5
 3266 0141 3A       		.uleb128 0x3a
 3267 0142 0B       		.uleb128 0xb
 3268 0143 3B       		.uleb128 0x3b
 3269 0144 0B       		.uleb128 0xb
 3270 0145 01       		.uleb128 0x1
 3271 0146 13       		.uleb128 0x13
 3272 0147 00       		.byte	0x0
 3273 0148 00       		.byte	0x0
 3274 0149 1C       		.uleb128 0x1c
 3275 014a 01       		.uleb128 0x1
 3276 014b 01       		.byte	0x1
 3277 014c 49       		.uleb128 0x49
 3278 014d 13       		.uleb128 0x13
 3279 014e 01       		.uleb128 0x1
 3280 014f 13       		.uleb128 0x13
 3281 0150 00       		.byte	0x0
 3282 0151 00       		.byte	0x0
 3283 0152 1D       		.uleb128 0x1d
 3284 0153 21       		.uleb128 0x21
 3285 0154 00       		.byte	0x0
 3286 0155 49       		.uleb128 0x49
 3287 0156 13       		.uleb128 0x13
 3288 0157 2F       		.uleb128 0x2f
ARM GAS  C:\Users\z80\AppData\Local\Temp\cckEhmmh.s 			page 59


 3289 0158 05       		.uleb128 0x5
 3290 0159 00       		.byte	0x0
 3291 015a 00       		.byte	0x0
 3292 015b 1E       		.uleb128 0x1e
 3293 015c 2E       		.uleb128 0x2e
 3294 015d 01       		.byte	0x1
 3295 015e 03       		.uleb128 0x3
 3296 015f 0E       		.uleb128 0xe
 3297 0160 3A       		.uleb128 0x3a
 3298 0161 0B       		.uleb128 0xb
 3299 0162 3B       		.uleb128 0x3b
 3300 0163 0B       		.uleb128 0xb
 3301 0164 27       		.uleb128 0x27
 3302 0165 0C       		.uleb128 0xc
 3303 0166 20       		.uleb128 0x20
 3304 0167 0B       		.uleb128 0xb
 3305 0168 01       		.uleb128 0x1
 3306 0169 13       		.uleb128 0x13
 3307 016a 00       		.byte	0x0
 3308 016b 00       		.byte	0x0
 3309 016c 1F       		.uleb128 0x1f
 3310 016d 05       		.uleb128 0x5
 3311 016e 00       		.byte	0x0
 3312 016f 03       		.uleb128 0x3
 3313 0170 08       		.uleb128 0x8
 3314 0171 3A       		.uleb128 0x3a
 3315 0172 0B       		.uleb128 0xb
 3316 0173 3B       		.uleb128 0x3b
 3317 0174 0B       		.uleb128 0xb
 3318 0175 49       		.uleb128 0x49
 3319 0176 13       		.uleb128 0x13
 3320 0177 00       		.byte	0x0
 3321 0178 00       		.byte	0x0
 3322 0179 20       		.uleb128 0x20
 3323 017a 34       		.uleb128 0x34
 3324 017b 00       		.byte	0x0
 3325 017c 03       		.uleb128 0x3
 3326 017d 08       		.uleb128 0x8
 3327 017e 3A       		.uleb128 0x3a
 3328 017f 0B       		.uleb128 0xb
 3329 0180 3B       		.uleb128 0x3b
 3330 0181 0B       		.uleb128 0xb
 3331 0182 49       		.uleb128 0x49
 3332 0183 13       		.uleb128 0x13
 3333 0184 00       		.byte	0x0
 3334 0185 00       		.byte	0x0
 3335 0186 21       		.uleb128 0x21
 3336 0187 0B       		.uleb128 0xb
 3337 0188 01       		.byte	0x1
 3338 0189 01       		.uleb128 0x1
 3339 018a 13       		.uleb128 0x13
 3340 018b 00       		.byte	0x0
 3341 018c 00       		.byte	0x0
 3342 018d 22       		.uleb128 0x22
 3343 018e 0B       		.uleb128 0xb
 3344 018f 01       		.byte	0x1
 3345 0190 00       		.byte	0x0
ARM GAS  C:\Users\z80\AppData\Local\Temp\cckEhmmh.s 			page 60


 3346 0191 00       		.byte	0x0
 3347 0192 23       		.uleb128 0x23
 3348 0193 05       		.uleb128 0x5
 3349 0194 00       		.byte	0x0
 3350 0195 03       		.uleb128 0x3
 3351 0196 0E       		.uleb128 0xe
 3352 0197 3A       		.uleb128 0x3a
 3353 0198 0B       		.uleb128 0xb
 3354 0199 3B       		.uleb128 0x3b
 3355 019a 0B       		.uleb128 0xb
 3356 019b 49       		.uleb128 0x49
 3357 019c 13       		.uleb128 0x13
 3358 019d 00       		.byte	0x0
 3359 019e 00       		.byte	0x0
 3360 019f 24       		.uleb128 0x24
 3361 01a0 2E       		.uleb128 0x2e
 3362 01a1 01       		.byte	0x1
 3363 01a2 03       		.uleb128 0x3
 3364 01a3 0E       		.uleb128 0xe
 3365 01a4 3A       		.uleb128 0x3a
 3366 01a5 0B       		.uleb128 0xb
 3367 01a6 3B       		.uleb128 0x3b
 3368 01a7 0B       		.uleb128 0xb
 3369 01a8 27       		.uleb128 0x27
 3370 01a9 0C       		.uleb128 0xc
 3371 01aa 11       		.uleb128 0x11
 3372 01ab 01       		.uleb128 0x1
 3373 01ac 12       		.uleb128 0x12
 3374 01ad 01       		.uleb128 0x1
 3375 01ae 40       		.uleb128 0x40
 3376 01af 0A       		.uleb128 0xa
 3377 01b0 01       		.uleb128 0x1
 3378 01b1 13       		.uleb128 0x13
 3379 01b2 00       		.byte	0x0
 3380 01b3 00       		.byte	0x0
 3381 01b4 25       		.uleb128 0x25
 3382 01b5 05       		.uleb128 0x5
 3383 01b6 00       		.byte	0x0
 3384 01b7 03       		.uleb128 0x3
 3385 01b8 08       		.uleb128 0x8
 3386 01b9 3A       		.uleb128 0x3a
 3387 01ba 0B       		.uleb128 0xb
 3388 01bb 3B       		.uleb128 0x3b
 3389 01bc 0B       		.uleb128 0xb
 3390 01bd 49       		.uleb128 0x49
 3391 01be 13       		.uleb128 0x13
 3392 01bf 02       		.uleb128 0x2
 3393 01c0 0A       		.uleb128 0xa
 3394 01c1 00       		.byte	0x0
 3395 01c2 00       		.byte	0x0
 3396 01c3 26       		.uleb128 0x26
 3397 01c4 2E       		.uleb128 0x2e
 3398 01c5 01       		.byte	0x1
 3399 01c6 03       		.uleb128 0x3
 3400 01c7 0E       		.uleb128 0xe
 3401 01c8 3A       		.uleb128 0x3a
 3402 01c9 0B       		.uleb128 0xb
ARM GAS  C:\Users\z80\AppData\Local\Temp\cckEhmmh.s 			page 61


 3403 01ca 3B       		.uleb128 0x3b
 3404 01cb 0B       		.uleb128 0xb
 3405 01cc 27       		.uleb128 0x27
 3406 01cd 0C       		.uleb128 0xc
 3407 01ce 11       		.uleb128 0x11
 3408 01cf 01       		.uleb128 0x1
 3409 01d0 12       		.uleb128 0x12
 3410 01d1 01       		.uleb128 0x1
 3411 01d2 40       		.uleb128 0x40
 3412 01d3 06       		.uleb128 0x6
 3413 01d4 01       		.uleb128 0x1
 3414 01d5 13       		.uleb128 0x13
 3415 01d6 00       		.byte	0x0
 3416 01d7 00       		.byte	0x0
 3417 01d8 27       		.uleb128 0x27
 3418 01d9 05       		.uleb128 0x5
 3419 01da 00       		.byte	0x0
 3420 01db 03       		.uleb128 0x3
 3421 01dc 08       		.uleb128 0x8
 3422 01dd 3A       		.uleb128 0x3a
 3423 01de 0B       		.uleb128 0xb
 3424 01df 3B       		.uleb128 0x3b
 3425 01e0 0B       		.uleb128 0xb
 3426 01e1 49       		.uleb128 0x49
 3427 01e2 13       		.uleb128 0x13
 3428 01e3 02       		.uleb128 0x2
 3429 01e4 06       		.uleb128 0x6
 3430 01e5 00       		.byte	0x0
 3431 01e6 00       		.byte	0x0
 3432 01e7 28       		.uleb128 0x28
 3433 01e8 34       		.uleb128 0x34
 3434 01e9 00       		.byte	0x0
 3435 01ea 03       		.uleb128 0x3
 3436 01eb 08       		.uleb128 0x8
 3437 01ec 3A       		.uleb128 0x3a
 3438 01ed 0B       		.uleb128 0xb
 3439 01ee 3B       		.uleb128 0x3b
 3440 01ef 0B       		.uleb128 0xb
 3441 01f0 49       		.uleb128 0x49
 3442 01f1 13       		.uleb128 0x13
 3443 01f2 02       		.uleb128 0x2
 3444 01f3 06       		.uleb128 0x6
 3445 01f4 00       		.byte	0x0
 3446 01f5 00       		.byte	0x0
 3447 01f6 29       		.uleb128 0x29
 3448 01f7 34       		.uleb128 0x34
 3449 01f8 00       		.byte	0x0
 3450 01f9 03       		.uleb128 0x3
 3451 01fa 08       		.uleb128 0x8
 3452 01fb 3A       		.uleb128 0x3a
 3453 01fc 0B       		.uleb128 0xb
 3454 01fd 3B       		.uleb128 0x3b
 3455 01fe 0B       		.uleb128 0xb
 3456 01ff 49       		.uleb128 0x49
 3457 0200 13       		.uleb128 0x13
 3458 0201 02       		.uleb128 0x2
 3459 0202 0A       		.uleb128 0xa
ARM GAS  C:\Users\z80\AppData\Local\Temp\cckEhmmh.s 			page 62


 3460 0203 00       		.byte	0x0
 3461 0204 00       		.byte	0x0
 3462 0205 2A       		.uleb128 0x2a
 3463 0206 1D       		.uleb128 0x1d
 3464 0207 01       		.byte	0x1
 3465 0208 31       		.uleb128 0x31
 3466 0209 13       		.uleb128 0x13
 3467 020a 11       		.uleb128 0x11
 3468 020b 01       		.uleb128 0x1
 3469 020c 12       		.uleb128 0x12
 3470 020d 01       		.uleb128 0x1
 3471 020e 58       		.uleb128 0x58
 3472 020f 0B       		.uleb128 0xb
 3473 0210 59       		.uleb128 0x59
 3474 0211 0B       		.uleb128 0xb
 3475 0212 01       		.uleb128 0x1
 3476 0213 13       		.uleb128 0x13
 3477 0214 00       		.byte	0x0
 3478 0215 00       		.byte	0x0
 3479 0216 2B       		.uleb128 0x2b
 3480 0217 05       		.uleb128 0x5
 3481 0218 00       		.byte	0x0
 3482 0219 31       		.uleb128 0x31
 3483 021a 13       		.uleb128 0x13
 3484 021b 02       		.uleb128 0x2
 3485 021c 06       		.uleb128 0x6
 3486 021d 00       		.byte	0x0
 3487 021e 00       		.byte	0x0
 3488 021f 2C       		.uleb128 0x2c
 3489 0220 0B       		.uleb128 0xb
 3490 0221 01       		.byte	0x1
 3491 0222 11       		.uleb128 0x11
 3492 0223 01       		.uleb128 0x1
 3493 0224 12       		.uleb128 0x12
 3494 0225 01       		.uleb128 0x1
 3495 0226 00       		.byte	0x0
 3496 0227 00       		.byte	0x0
 3497 0228 2D       		.uleb128 0x2d
 3498 0229 34       		.uleb128 0x34
 3499 022a 00       		.byte	0x0
 3500 022b 31       		.uleb128 0x31
 3501 022c 13       		.uleb128 0x13
 3502 022d 02       		.uleb128 0x2
 3503 022e 06       		.uleb128 0x6
 3504 022f 00       		.byte	0x0
 3505 0230 00       		.byte	0x0
 3506 0231 2E       		.uleb128 0x2e
 3507 0232 0B       		.uleb128 0xb
 3508 0233 01       		.byte	0x1
 3509 0234 11       		.uleb128 0x11
 3510 0235 01       		.uleb128 0x1
 3511 0236 12       		.uleb128 0x12
 3512 0237 01       		.uleb128 0x1
 3513 0238 01       		.uleb128 0x1
 3514 0239 13       		.uleb128 0x13
 3515 023a 00       		.byte	0x0
 3516 023b 00       		.byte	0x0
ARM GAS  C:\Users\z80\AppData\Local\Temp\cckEhmmh.s 			page 63


 3517 023c 2F       		.uleb128 0x2f
 3518 023d 2E       		.uleb128 0x2e
 3519 023e 00       		.byte	0x0
 3520 023f 3F       		.uleb128 0x3f
 3521 0240 0C       		.uleb128 0xc
 3522 0241 03       		.uleb128 0x3
 3523 0242 0E       		.uleb128 0xe
 3524 0243 3A       		.uleb128 0x3a
 3525 0244 0B       		.uleb128 0xb
 3526 0245 3B       		.uleb128 0x3b
 3527 0246 05       		.uleb128 0x5
 3528 0247 27       		.uleb128 0x27
 3529 0248 0C       		.uleb128 0xc
 3530 0249 11       		.uleb128 0x11
 3531 024a 01       		.uleb128 0x1
 3532 024b 12       		.uleb128 0x12
 3533 024c 01       		.uleb128 0x1
 3534 024d 40       		.uleb128 0x40
 3535 024e 06       		.uleb128 0x6
 3536 024f 00       		.byte	0x0
 3537 0250 00       		.byte	0x0
 3538 0251 30       		.uleb128 0x30
 3539 0252 2E       		.uleb128 0x2e
 3540 0253 01       		.byte	0x1
 3541 0254 3F       		.uleb128 0x3f
 3542 0255 0C       		.uleb128 0xc
 3543 0256 03       		.uleb128 0x3
 3544 0257 0E       		.uleb128 0xe
 3545 0258 3A       		.uleb128 0x3a
 3546 0259 0B       		.uleb128 0xb
 3547 025a 3B       		.uleb128 0x3b
 3548 025b 05       		.uleb128 0x5
 3549 025c 27       		.uleb128 0x27
 3550 025d 0C       		.uleb128 0xc
 3551 025e 11       		.uleb128 0x11
 3552 025f 01       		.uleb128 0x1
 3553 0260 12       		.uleb128 0x12
 3554 0261 01       		.uleb128 0x1
 3555 0262 40       		.uleb128 0x40
 3556 0263 06       		.uleb128 0x6
 3557 0264 01       		.uleb128 0x1
 3558 0265 13       		.uleb128 0x13
 3559 0266 00       		.byte	0x0
 3560 0267 00       		.byte	0x0
 3561 0268 31       		.uleb128 0x31
 3562 0269 05       		.uleb128 0x5
 3563 026a 00       		.byte	0x0
 3564 026b 03       		.uleb128 0x3
 3565 026c 08       		.uleb128 0x8
 3566 026d 3A       		.uleb128 0x3a
 3567 026e 0B       		.uleb128 0xb
 3568 026f 3B       		.uleb128 0x3b
 3569 0270 05       		.uleb128 0x5
 3570 0271 49       		.uleb128 0x49
 3571 0272 13       		.uleb128 0x13
 3572 0273 02       		.uleb128 0x2
 3573 0274 06       		.uleb128 0x6
ARM GAS  C:\Users\z80\AppData\Local\Temp\cckEhmmh.s 			page 64


 3574 0275 00       		.byte	0x0
 3575 0276 00       		.byte	0x0
 3576 0277 32       		.uleb128 0x32
 3577 0278 05       		.uleb128 0x5
 3578 0279 00       		.byte	0x0
 3579 027a 03       		.uleb128 0x3
 3580 027b 0E       		.uleb128 0xe
 3581 027c 3A       		.uleb128 0x3a
 3582 027d 0B       		.uleb128 0xb
 3583 027e 3B       		.uleb128 0x3b
 3584 027f 05       		.uleb128 0x5
 3585 0280 49       		.uleb128 0x49
 3586 0281 13       		.uleb128 0x13
 3587 0282 02       		.uleb128 0x2
 3588 0283 06       		.uleb128 0x6
 3589 0284 00       		.byte	0x0
 3590 0285 00       		.byte	0x0
 3591 0286 33       		.uleb128 0x33
 3592 0287 1D       		.uleb128 0x1d
 3593 0288 01       		.byte	0x1
 3594 0289 31       		.uleb128 0x31
 3595 028a 13       		.uleb128 0x13
 3596 028b 52       		.uleb128 0x52
 3597 028c 01       		.uleb128 0x1
 3598 028d 55       		.uleb128 0x55
 3599 028e 06       		.uleb128 0x6
 3600 028f 58       		.uleb128 0x58
 3601 0290 0B       		.uleb128 0xb
 3602 0291 59       		.uleb128 0x59
 3603 0292 05       		.uleb128 0x5
 3604 0293 00       		.byte	0x0
 3605 0294 00       		.byte	0x0
 3606 0295 34       		.uleb128 0x34
 3607 0296 0B       		.uleb128 0xb
 3608 0297 01       		.byte	0x1
 3609 0298 55       		.uleb128 0x55
 3610 0299 06       		.uleb128 0x6
 3611 029a 00       		.byte	0x0
 3612 029b 00       		.byte	0x0
 3613 029c 35       		.uleb128 0x35
 3614 029d 1D       		.uleb128 0x1d
 3615 029e 01       		.byte	0x1
 3616 029f 31       		.uleb128 0x31
 3617 02a0 13       		.uleb128 0x13
 3618 02a1 11       		.uleb128 0x11
 3619 02a2 01       		.uleb128 0x1
 3620 02a3 12       		.uleb128 0x12
 3621 02a4 01       		.uleb128 0x1
 3622 02a5 58       		.uleb128 0x58
 3623 02a6 0B       		.uleb128 0xb
 3624 02a7 59       		.uleb128 0x59
 3625 02a8 05       		.uleb128 0x5
 3626 02a9 00       		.byte	0x0
 3627 02aa 00       		.byte	0x0
 3628 02ab 36       		.uleb128 0x36
 3629 02ac 34       		.uleb128 0x34
 3630 02ad 00       		.byte	0x0
ARM GAS  C:\Users\z80\AppData\Local\Temp\cckEhmmh.s 			page 65


 3631 02ae 03       		.uleb128 0x3
 3632 02af 0E       		.uleb128 0xe
 3633 02b0 3A       		.uleb128 0x3a
 3634 02b1 0B       		.uleb128 0xb
 3635 02b2 3B       		.uleb128 0x3b
 3636 02b3 05       		.uleb128 0x5
 3637 02b4 49       		.uleb128 0x49
 3638 02b5 13       		.uleb128 0x13
 3639 02b6 3F       		.uleb128 0x3f
 3640 02b7 0C       		.uleb128 0xc
 3641 02b8 3C       		.uleb128 0x3c
 3642 02b9 0C       		.uleb128 0xc
 3643 02ba 00       		.byte	0x0
 3644 02bb 00       		.byte	0x0
 3645 02bc 37       		.uleb128 0x37
 3646 02bd 34       		.uleb128 0x34
 3647 02be 00       		.byte	0x0
 3648 02bf 03       		.uleb128 0x3
 3649 02c0 08       		.uleb128 0x8
 3650 02c1 3A       		.uleb128 0x3a
 3651 02c2 0B       		.uleb128 0xb
 3652 02c3 3B       		.uleb128 0x3b
 3653 02c4 0B       		.uleb128 0xb
 3654 02c5 49       		.uleb128 0x49
 3655 02c6 13       		.uleb128 0x13
 3656 02c7 3F       		.uleb128 0x3f
 3657 02c8 0C       		.uleb128 0xc
 3658 02c9 3C       		.uleb128 0x3c
 3659 02ca 0C       		.uleb128 0xc
 3660 02cb 00       		.byte	0x0
 3661 02cc 00       		.byte	0x0
 3662 02cd 38       		.uleb128 0x38
 3663 02ce 34       		.uleb128 0x34
 3664 02cf 00       		.byte	0x0
 3665 02d0 03       		.uleb128 0x3
 3666 02d1 0E       		.uleb128 0xe
 3667 02d2 3A       		.uleb128 0x3a
 3668 02d3 0B       		.uleb128 0xb
 3669 02d4 3B       		.uleb128 0x3b
 3670 02d5 0B       		.uleb128 0xb
 3671 02d6 49       		.uleb128 0x49
 3672 02d7 13       		.uleb128 0x13
 3673 02d8 02       		.uleb128 0x2
 3674 02d9 0A       		.uleb128 0xa
 3675 02da 00       		.byte	0x0
 3676 02db 00       		.byte	0x0
 3677 02dc 39       		.uleb128 0x39
 3678 02dd 34       		.uleb128 0x34
 3679 02de 00       		.byte	0x0
 3680 02df 03       		.uleb128 0x3
 3681 02e0 08       		.uleb128 0x8
 3682 02e1 3A       		.uleb128 0x3a
 3683 02e2 0B       		.uleb128 0xb
 3684 02e3 3B       		.uleb128 0x3b
 3685 02e4 0B       		.uleb128 0xb
 3686 02e5 49       		.uleb128 0x49
 3687 02e6 13       		.uleb128 0x13
ARM GAS  C:\Users\z80\AppData\Local\Temp\cckEhmmh.s 			page 66


 3688 02e7 3F       		.uleb128 0x3f
 3689 02e8 0C       		.uleb128 0xc
 3690 02e9 02       		.uleb128 0x2
 3691 02ea 0A       		.uleb128 0xa
 3692 02eb 00       		.byte	0x0
 3693 02ec 00       		.byte	0x0
 3694 02ed 00       		.byte	0x0
 3695              		.section	.debug_pubnames,"",%progbits
 3696 0000 69000000 		.4byte	0x69
 3697 0004 0200     		.2byte	0x2
 3698 0006 00000000 		.4byte	.Ldebug_info0
 3699 000a 9C0E0000 		.4byte	0xe9c
 3700 000e 450D0000 		.4byte	0xd45
 3701 0012 56656374 		.ascii	"VectorD4\000"
 3701      6F724434 
 3701      00
 3702 001b 5B0D0000 		.4byte	0xd5b
 3703 001f 56656374 		.ascii	"VectorD8\000"
 3703      6F724438 
 3703      00
 3704 0028 710D0000 		.4byte	0xd71
 3705 002c 73645F6C 		.ascii	"sd_lld_init\000"
 3705      6C645F69 
 3705      6E697400 
 3706 0038 870D0000 		.4byte	0xd87
 3707 003c 73645F6C 		.ascii	"sd_lld_start\000"
 3707      6C645F73 
 3707      74617274 
 3707      00
 3708 0049 EB0D0000 		.4byte	0xdeb
 3709 004d 73645F6C 		.ascii	"sd_lld_stop\000"
 3709      6C645F73 
 3709      746F7000 
 3710 0059 770E0000 		.4byte	0xe77
 3711 005d 53443100 		.ascii	"SD1\000"
 3712 0061 890E0000 		.4byte	0xe89
 3713 0065 53443200 		.ascii	"SD2\000"
 3714 0069 00000000 		.4byte	0x0
 3715              		.section	.debug_pubtypes,"",%progbits
 3716 0000 61020000 		.4byte	0x261
 3717 0004 0200     		.2byte	0x2
 3718 0006 00000000 		.4byte	.Ldebug_info0
 3719 000a 9C0E0000 		.4byte	0xe9c
 3720 000e 30000000 		.4byte	0x30
 3721 0012 73697A65 		.ascii	"size_t\000"
 3721      5F7400
 3722 0019 49000000 		.4byte	0x49
 3723 001d 75696E74 		.ascii	"uint8_t\000"
 3723      385F7400 
 3724 0025 62000000 		.4byte	0x62
 3725 0029 75696E74 		.ascii	"uint16_t\000"
 3725      31365F74 
 3725      00
 3726 0032 74000000 		.4byte	0x74
 3727 0036 696E7433 		.ascii	"int32_t\000"
 3727      325F7400 
 3728 003e 86000000 		.4byte	0x86
ARM GAS  C:\Users\z80\AppData\Local\Temp\cckEhmmh.s 			page 67


 3729 0042 75696E74 		.ascii	"uint32_t\000"
 3729      33325F74 
 3729      00
 3730 004b 9F000000 		.4byte	0x9f
 3731 004f 75696E74 		.ascii	"uint64_t\000"
 3731      36345F74 
 3731      00
 3732 0058 B1000000 		.4byte	0xb1
 3733 005c 75696E74 		.ascii	"uint_fast16_t\000"
 3733      5F666173 
 3733      7431365F 
 3733      7400
 3734 006a BC000000 		.4byte	0xbc
 3735 006e 626F6F6C 		.ascii	"bool_t\000"
 3735      5F7400
 3736 0075 C7000000 		.4byte	0xc7
 3737 0079 746D6F64 		.ascii	"tmode_t\000"
 3737      655F7400 
 3738 0081 D2000000 		.4byte	0xd2
 3739 0085 74737461 		.ascii	"tstate_t\000"
 3739      74655F74 
 3739      00
 3740 008e DD000000 		.4byte	0xdd
 3741 0092 74707269 		.ascii	"tprio_t\000"
 3741      6F5F7400 
 3742 009a E8000000 		.4byte	0xe8
 3743 009e 6D73675F 		.ascii	"msg_t\000"
 3743      7400
 3744 00a4 F3000000 		.4byte	0xf3
 3745 00a8 6576656E 		.ascii	"eventmask_t\000"
 3745      746D6173 
 3745      6B5F7400 
 3746 00b4 FE000000 		.4byte	0xfe
 3747 00b8 73797374 		.ascii	"systime_t\000"
 3747      696D655F 
 3747      7400
 3748 00c2 09010000 		.4byte	0x109
 3749 00c6 54687265 		.ascii	"Thread\000"
 3749      616400
 3750 00cd 48020000 		.4byte	0x248
 3751 00d1 54687265 		.ascii	"ThreadsQueue\000"
 3751      61647351 
 3751      75657565 
 3751      00
 3752 00de 6A020000 		.4byte	0x26a
 3753 00e2 54687265 		.ascii	"ThreadsList\000"
 3753      6164734C 
 3753      69737400 
 3754 00ee 75020000 		.4byte	0x275
 3755 00f2 72656761 		.ascii	"regarm_t\000"
 3755      726D5F74 
 3755      00
 3756 00fb 82020000 		.4byte	0x282
 3757 00ff 73746B61 		.ascii	"stkalign_t\000"
 3757      6C69676E 
 3757      5F7400
 3758 010a 8D020000 		.4byte	0x28d
ARM GAS  C:\Users\z80\AppData\Local\Temp\cckEhmmh.s 			page 68


 3759 010e 696E7463 		.ascii	"intctx\000"
 3759      747800
 3760 0115 1A030000 		.4byte	0x31a
 3761 0119 636F6E74 		.ascii	"context\000"
 3761      65787400 
 3762 0121 4A030000 		.4byte	0x34a
 3763 0125 4D757465 		.ascii	"Mutex\000"
 3763      7800
 3764 012b 87030000 		.4byte	0x387
 3765 012f 4D757465 		.ascii	"Mutex\000"
 3765      7800
 3766 0135 92030000 		.4byte	0x392
 3767 0139 4576656E 		.ascii	"EventListener\000"
 3767      744C6973 
 3767      74656E65 
 3767      7200
 3768 0147 9D030000 		.4byte	0x39d
 3769 014b 4576656E 		.ascii	"EventListener\000"
 3769      744C6973 
 3769      74656E65 
 3769      7200
 3770 0159 DA030000 		.4byte	0x3da
 3771 015d 4576656E 		.ascii	"EventSource\000"
 3771      74536F75 
 3771      72636500 
 3772 0169 F5030000 		.4byte	0x3f5
 3773 016d 4576656E 		.ascii	"EventSource\000"
 3773      74536F75 
 3773      72636500 
 3774 0179 14010000 		.4byte	0x114
 3775 017d 54687265 		.ascii	"Thread\000"
 3775      616400
 3776 0184 53040000 		.4byte	0x453
 3777 0188 47656E65 		.ascii	"GenericQueue\000"
 3777      72696351 
 3777      75657565 
 3777      00
 3778 0195 CD040000 		.4byte	0x4cd
 3779 0199 716E6F74 		.ascii	"qnotify_t\000"
 3779      6966795F 
 3779      7400
 3780 01a3 5E040000 		.4byte	0x45e
 3781 01a7 47656E65 		.ascii	"GenericQueue\000"
 3781      72696351 
 3781      75657565 
 3781      00
 3782 01b4 F6040000 		.4byte	0x4f6
 3783 01b8 496E7075 		.ascii	"InputQueue\000"
 3783      74517565 
 3783      756500
 3784 01c3 01050000 		.4byte	0x501
 3785 01c7 4F757470 		.ascii	"OutputQueue\000"
 3785      75745175 
 3785      65756500 
 3786 01d3 F2050000 		.4byte	0x5f2
 3787 01d7 696F666C 		.ascii	"ioflags_t\000"
 3787      6167735F 
ARM GAS  C:\Users\z80\AppData\Local\Temp\cckEhmmh.s 			page 69


 3787      7400
 3788 01e1 14060000 		.4byte	0x614
 3789 01e5 4952516E 		.ascii	"IRQn\000"
 3789      00
 3790 01ea FC070000 		.4byte	0x7fc
 3791 01ee 5243435F 		.ascii	"RCC_TypeDef\000"
 3791      54797065 
 3791      44656600 
 3792 01fa E2080000 		.4byte	0x8e2
 3793 01fe 55534152 		.ascii	"USART_TypeDef\000"
 3793      545F5479 
 3793      70654465 
 3793      6600
 3794 020c 09090000 		.4byte	0x909
 3795 0210 73647374 		.ascii	"sdstate_t\000"
 3795      6174655F 
 3795      7400
 3796 021a 14090000 		.4byte	0x914
 3797 021e 53657269 		.ascii	"SerialDriver\000"
 3797      616C4472 
 3797      69766572 
 3797      00
 3798 022b EC090000 		.4byte	0x9ec
 3799 022f 53657269 		.ascii	"SerialConfig\000"
 3799      616C436F 
 3799      6E666967 
 3799      00
 3800 023c F7090000 		.4byte	0x9f7
 3801 0240 53657269 		.ascii	"SerialDriverVMT\000"
 3801      616C4472 
 3801      69766572 
 3801      564D5400 
 3802 0250 1F090000 		.4byte	0x91f
 3803 0254 53657269 		.ascii	"SerialDriver\000"
 3803      616C4472 
 3803      69766572 
 3803      00
 3804 0261 00000000 		.4byte	0x0
 3805              		.section	.debug_aranges,"",%progbits
 3806 0000 54000000 		.4byte	0x54
 3807 0004 0200     		.2byte	0x2
 3808 0006 00000000 		.4byte	.Ldebug_info0
 3809 000a 04       		.byte	0x4
 3810 000b 00       		.byte	0x0
 3811 000c 0000     		.2byte	0x0
 3812 000e 0000     		.2byte	0x0
 3813 0010 00000000 		.4byte	.LFB66
 3814 0014 14000000 		.4byte	.LFE66-.LFB66
 3815 0018 00000000 		.4byte	.LFB67
 3816 001c 14000000 		.4byte	.LFE67-.LFB67
 3817 0020 00000000 		.4byte	.LFB65
 3818 0024 60010000 		.4byte	.LFE65-.LFB65
 3819 0028 00000000 		.4byte	.LFB68
 3820 002c 1C000000 		.4byte	.LFE68-.LFB68
 3821 0030 00000000 		.4byte	.LFB69
 3822 0034 1C000000 		.4byte	.LFE69-.LFB69
 3823 0038 00000000 		.4byte	.LFB70
ARM GAS  C:\Users\z80\AppData\Local\Temp\cckEhmmh.s 			page 70


 3824 003c 4C000000 		.4byte	.LFE70-.LFB70
 3825 0040 00000000 		.4byte	.LFB71
 3826 0044 A4000000 		.4byte	.LFE71-.LFB71
 3827 0048 00000000 		.4byte	.LFB72
 3828 004c 5C000000 		.4byte	.LFE72-.LFB72
 3829 0050 00000000 		.4byte	0x0
 3830 0054 00000000 		.4byte	0x0
 3831              		.section	.debug_ranges,"",%progbits
 3832              	.Ldebug_ranges0:
 3833 0000 14000000 		.4byte	.LBB32
 3834 0004 1E000000 		.4byte	.LBE32
 3835 0008 22000000 		.4byte	.LBB35
 3836 000c 54000000 		.4byte	.LBE35
 3837 0010 00000000 		.4byte	0x0
 3838 0014 00000000 		.4byte	0x0
 3839 0018 14000000 		.4byte	.LBB33
 3840 001c 1E000000 		.4byte	.LBE33
 3841 0020 22000000 		.4byte	.LBB34
 3842 0024 54000000 		.4byte	.LBE34
 3843 0028 00000000 		.4byte	0x0
 3844 002c 00000000 		.4byte	0x0
 3845 0030 00000000 		.4byte	.LFB66
 3846 0034 14000000 		.4byte	.LFE66
 3847 0038 00000000 		.4byte	.LFB67
 3848 003c 14000000 		.4byte	.LFE67
 3849 0040 00000000 		.4byte	.LFB65
 3850 0044 60010000 		.4byte	.LFE65
 3851 0048 00000000 		.4byte	.LFB68
 3852 004c 1C000000 		.4byte	.LFE68
 3853 0050 00000000 		.4byte	.LFB69
 3854 0054 1C000000 		.4byte	.LFE69
 3855 0058 00000000 		.4byte	.LFB70
 3856 005c 4C000000 		.4byte	.LFE70
 3857 0060 00000000 		.4byte	.LFB71
 3858 0064 A4000000 		.4byte	.LFE71
 3859 0068 00000000 		.4byte	.LFB72
 3860 006c 5C000000 		.4byte	.LFE72
 3861 0070 00000000 		.4byte	0x0
 3862 0074 00000000 		.4byte	0x0
 3863              		.section	.debug_str,"MS",%progbits,1
 3864              	.LASF83:
 3865 0000 5056445F 		.ascii	"PVD_IRQn\000"
 3865      4952516E 
 3865      00
 3866              	.LASF153:
 3867 0009 73635F73 		.ascii	"sc_speed\000"
 3867      70656564 
 3867      00
 3868              	.LASF2:
 3869 0012 73697A65 		.ascii	"size_t\000"
 3869      5F7400
 3870              	.LASF57:
 3871 0019 7264796D 		.ascii	"rdymsg\000"
 3871      736700
 3872              	.LASF13:
 3873 0020 75696E74 		.ascii	"uint64_t\000"
 3873      36345F74 
ARM GAS  C:\Users\z80\AppData\Local\Temp\cckEhmmh.s 			page 71


 3873      00
 3874              	.LASF72:
 3875 0029 4F757470 		.ascii	"OutputQueue\000"
 3875      75745175 
 3875      65756500 
 3876              	.LASF113:
 3877 0035 49324331 		.ascii	"I2C1_EV_IRQn\000"
 3877      5F45565F 
 3877      4952516E 
 3877      00
 3878              	.LASF123:
 3879 0042 5254435F 		.ascii	"RTC_Alarm_IRQn\000"
 3879      416C6172 
 3879      6D5F4952 
 3879      516E00
 3880              	.LASF166:
 3881 0051 7365745F 		.ascii	"set_error\000"
 3881      6572726F 
 3881      7200
 3882              	.LASF103:
 3883 005b 43414E31 		.ascii	"CAN1_RX1_IRQn\000"
 3883      5F525831 
 3883      5F495251 
 3883      6E00
 3884              	.LASF15:
 3885 0069 75696E74 		.ascii	"uint_fast16_t\000"
 3885      5F666173 
 3885      7431365F 
 3885      7400
 3886              	.LASF14:
 3887 0077 6C6F6E67 		.ascii	"long long unsigned int\000"
 3887      206C6F6E 
 3887      6720756E 
 3887      7369676E 
 3887      65642069 
 3888              	.LASF58:
 3889 008e 65786974 		.ascii	"exitcode\000"
 3889      636F6465 
 3889      00
 3890              	.LASF116:
 3891 0097 49324332 		.ascii	"I2C2_ER_IRQn\000"
 3891      5F45525F 
 3891      4952516E 
 3891      00
 3892              	.LASF112:
 3893 00a4 54494D34 		.ascii	"TIM4_IRQn\000"
 3893      5F495251 
 3893      6E00
 3894              	.LASF178:
 3895 00ae 49544D5F 		.ascii	"ITM_RxBuffer\000"
 3895      52784275 
 3895      66666572 
 3895      00
 3896              	.LASF107:
 3897 00bb 54494D31 		.ascii	"TIM1_UP_IRQn\000"
 3897      5F55505F 
 3897      4952516E 
ARM GAS  C:\Users\z80\AppData\Local\Temp\cckEhmmh.s 			page 72


 3897      00
 3898              	.LASF82:
 3899 00c8 57574447 		.ascii	"WWDG_IRQn\000"
 3899      5F495251 
 3899      6E00
 3900              	.LASF154:
 3901 00d2 73635F63 		.ascii	"sc_cr1\000"
 3901      723100
 3902              	.LASF16:
 3903 00d9 626F6F6C 		.ascii	"bool_t\000"
 3903      5F7400
 3904              	.LASF26:
 3905 00e0 705F7072 		.ascii	"p_prio\000"
 3905      696F00
 3906              	.LASF164:
 3907 00e7 72656164 		.ascii	"readt\000"
 3907      7400
 3908              	.LASF63:
 3909 00ed 715F7761 		.ascii	"q_waiting\000"
 3909      6974696E 
 3909      6700
 3910              	.LASF12:
 3911 00f7 6C6F6E67 		.ascii	"long long int\000"
 3911      206C6F6E 
 3911      6720696E 
 3911      7400
 3912              	.LASF1:
 3913 0105 7369676E 		.ascii	"signed char\000"
 3913      65642063 
 3913      68617200 
 3914              	.LASF139:
 3915 0111 47545052 		.ascii	"GTPR\000"
 3915      00
 3916              	.LASF32:
 3917 0116 705F7374 		.ascii	"p_state\000"
 3917      61746500 
 3918              	.LASF143:
 3919 011e 53445F53 		.ascii	"SD_STOP\000"
 3919      544F5000 
 3920              	.LASF48:
 3921 0126 6D5F7175 		.ascii	"m_queue\000"
 3921      65756500 
 3922              	.LASF132:
 3923 012e 5243435F 		.ascii	"RCC_TypeDef\000"
 3923      54797065 
 3923      44656600 
 3924              	.LASF179:
 3925 013a 64656661 		.ascii	"default_config\000"
 3925      756C745F 
 3925      636F6E66 
 3925      696700
 3926              	.LASF149:
 3927 0149 73746174 		.ascii	"state\000"
 3927      6500
 3928              	.LASF9:
 3929 014f 6C6F6E67 		.ascii	"long int\000"
 3929      20696E74 
ARM GAS  C:\Users\z80\AppData\Local\Temp\cckEhmmh.s 			page 73


 3929      00
 3930              	.LASF126:
 3931 0158 41504232 		.ascii	"APB2RSTR\000"
 3931      52535452 
 3931      00
 3932              	.LASF53:
 3933 0161 656C5F6C 		.ascii	"el_listener\000"
 3933      69737465 
 3933      6E657200 
 3934              	.LASF18:
 3935 016d 74737461 		.ascii	"tstate_t\000"
 3935      74655F74 
 3935      00
 3936              	.LASF105:
 3937 0176 45585449 		.ascii	"EXTI9_5_IRQn\000"
 3937      395F355F 
 3937      4952516E 
 3937      00
 3938              	.LASF95:
 3939 0183 444D4131 		.ascii	"DMA1_Channel3_IRQn\000"
 3939      5F436861 
 3939      6E6E656C 
 3939      335F4952 
 3939      516E00
 3940              	.LASF65:
 3941 0196 715F6275 		.ascii	"q_buffer\000"
 3941      66666572 
 3941      00
 3942              	.LASF67:
 3943 019f 715F7772 		.ascii	"q_wrptr\000"
 3943      70747200 
 3944              	.LASF100:
 3945 01a7 41444331 		.ascii	"ADC1_2_IRQn\000"
 3945      5F325F49 
 3945      52516E00 
 3946              	.LASF28:
 3947 01b3 705F6E65 		.ascii	"p_newer\000"
 3947      77657200 
 3948              	.LASF62:
 3949 01bb 47656E65 		.ascii	"GenericQueue\000"
 3949      72696351 
 3949      75657565 
 3949      00
 3950              	.LASF80:
 3951 01c8 50656E64 		.ascii	"PendSV_IRQn\000"
 3951      53565F49 
 3951      52516E00 
 3952              	.LASF40:
 3953 01d4 705F7265 		.ascii	"p_realprio\000"
 3953      616C7072 
 3953      696F00
 3954              	.LASF43:
 3955 01df 72656761 		.ascii	"regarm_t\000"
 3955      726D5F74 
 3955      00
 3956              	.LASF70:
 3957 01e8 716E6F74 		.ascii	"qnotify_t\000"
ARM GAS  C:\Users\z80\AppData\Local\Temp\cckEhmmh.s 			page 74


 3957      6966795F 
 3957      7400
 3958              	.LASF169:
 3959 01f2 75736172 		.ascii	"usart_deinit\000"
 3959      745F6465 
 3959      696E6974 
 3959      00
 3960              	.LASF55:
 3961 01ff 4576656E 		.ascii	"EventSource\000"
 3961      74536F75 
 3961      72636500 
 3962              	.LASF152:
 3963 020b 75736172 		.ascii	"usart\000"
 3963      7400
 3964              	.LASF0:
 3965 0211 756E7369 		.ascii	"unsigned int\000"
 3965      676E6564 
 3965      20696E74 
 3965      00
 3966              	.LASF6:
 3967 021e 75696E74 		.ascii	"uint16_t\000"
 3967      31365F74 
 3967      00
 3968              	.LASF158:
 3969 0227 53657269 		.ascii	"SerialDriverVMT\000"
 3969      616C4472 
 3969      69766572 
 3969      564D5400 
 3970              	.LASF34:
 3971 0237 705F7469 		.ascii	"p_time\000"
 3971      6D6500
 3972              	.LASF75:
 3973 023e 4D656D6F 		.ascii	"MemoryManagement_IRQn\000"
 3973      72794D61 
 3973      6E616765 
 3973      6D656E74 
 3973      5F495251 
 3974              	.LASF150:
 3975 0254 69717565 		.ascii	"iqueue\000"
 3975      756500
 3976              	.LASF36:
 3977 025b 705F6D73 		.ascii	"p_msgqueue\000"
 3977      67717565 
 3977      756500
 3978              	.LASF175:
 3979 0266 73645F6C 		.ascii	"sd_lld_init\000"
 3979      6C645F69 
 3979      6E697400 
 3980              	.LASF147:
 3981 0272 6576656E 		.ascii	"event\000"
 3981      7400
 3982              	.LASF97:
 3983 0278 444D4131 		.ascii	"DMA1_Channel5_IRQn\000"
 3983      5F436861 
 3983      6E6E656C 
 3983      355F4952 
 3983      516E00
ARM GAS  C:\Users\z80\AppData\Local\Temp\cckEhmmh.s 			page 75


 3984              	.LASF7:
 3985 028b 73686F72 		.ascii	"short unsigned int\000"
 3985      7420756E 
 3985      7369676E 
 3985      65642069 
 3985      6E7400
 3986              	.LASF108:
 3987 029e 54494D31 		.ascii	"TIM1_TRG_COM_IRQn\000"
 3987      5F545247 
 3987      5F434F4D 
 3987      5F495251 
 3987      6E00
 3988              	.LASF20:
 3989 02b0 6D73675F 		.ascii	"msg_t\000"
 3989      7400
 3990              	.LASF151:
 3991 02b6 6F717565 		.ascii	"oqueue\000"
 3991      756500
 3992              	.LASF122:
 3993 02bd 45585449 		.ascii	"EXTI15_10_IRQn\000"
 3993      31355F31 
 3993      305F4952 
 3993      516E00
 3994              	.LASF117:
 3995 02cc 53504931 		.ascii	"SPI1_IRQn\000"
 3995      5F495251 
 3995      6E00
 3996              	.LASF141:
 3997 02d6 55534152 		.ascii	"USART_TypeDef\000"
 3997      545F5479 
 3997      70654465 
 3997      6600
 3998              	.LASF163:
 3999 02e4 77726974 		.ascii	"writet\000"
 3999      657400
 4000              	.LASF17:
 4001 02eb 746D6F64 		.ascii	"tmode_t\000"
 4001      655F7400 
 4002              	.LASF42:
 4003 02f3 54687265 		.ascii	"ThreadsList\000"
 4003      6164734C 
 4003      69737400 
 4004              	.LASF21:
 4005 02ff 6576656E 		.ascii	"eventmask_t\000"
 4005      746D6173 
 4005      6B5F7400 
 4006              	.LASF173:
 4007 030b 56656374 		.ascii	"VectorD4\000"
 4007      6F724434 
 4007      00
 4008              	.LASF174:
 4009 0314 56656374 		.ascii	"VectorD8\000"
 4009      6F724438 
 4009      00
 4010              	.LASF96:
 4011 031d 444D4131 		.ascii	"DMA1_Channel4_IRQn\000"
 4011      5F436861 
ARM GAS  C:\Users\z80\AppData\Local\Temp\cckEhmmh.s 			page 76


 4011      6E6E656C 
 4011      345F4952 
 4011      516E00
 4012              	.LASF81:
 4013 0330 53797354 		.ascii	"SysTick_IRQn\000"
 4013      69636B5F 
 4013      4952516E 
 4013      00
 4014              	.LASF109:
 4015 033d 54494D31 		.ascii	"TIM1_CC_IRQn\000"
 4015      5F43435F 
 4015      4952516E 
 4015      00
 4016              	.LASF44:
 4017 034a 73746B61 		.ascii	"stkalign_t\000"
 4017      6C69676E 
 4017      5F7400
 4018              	.LASF161:
 4019 0355 70757477 		.ascii	"putwouldblock\000"
 4019      6F756C64 
 4019      626C6F63 
 4019      6B00
 4020              	.LASF159:
 4021 0363 77726974 		.ascii	"write\000"
 4021      6500
 4022              	.LASF183:
 4023 0369 4952516E 		.ascii	"IRQn\000"
 4023      00
 4024              	.LASF167:
 4025 036e 75736172 		.ascii	"usart_init\000"
 4025      745F696E 
 4025      697400
 4026              	.LASF94:
 4027 0379 444D4131 		.ascii	"DMA1_Channel2_IRQn\000"
 4027      5F436861 
 4027      6E6E656C 
 4027      325F4952 
 4027      516E00
 4028              	.LASF64:
 4029 038c 715F636F 		.ascii	"q_counter\000"
 4029      756E7465 
 4029      7200
 4030              	.LASF47:
 4031 0396 4D757465 		.ascii	"Mutex\000"
 4031      7800
 4032              	.LASF24:
 4033 039c 705F6E65 		.ascii	"p_next\000"
 4033      787400
 4034              	.LASF91:
 4035 03a3 45585449 		.ascii	"EXTI3_IRQn\000"
 4035      335F4952 
 4035      516E00
 4036              	.LASF118:
 4037 03ae 53504932 		.ascii	"SPI2_IRQn\000"
 4037      5F495251 
 4037      6E00
 4038              	.LASF73:
ARM GAS  C:\Users\z80\AppData\Local\Temp\cckEhmmh.s 			page 77


 4039 03b8 696F666C 		.ascii	"ioflags_t\000"
 4039      6167735F 
 4039      7400
 4040              	.LASF41:
 4041 03c2 54687265 		.ascii	"ThreadsQueue\000"
 4041      61647351 
 4041      75657565 
 4041      00
 4042              	.LASF182:
 4043 03cf 433A5C70 		.ascii	"C:\\projects\\voltamper.git\\firmware\\voltamp\000"
 4043      726F6A65 
 4043      6374735C 
 4043      766F6C74 
 4043      616D7065 
 4044              	.LASF124:
 4045 03fa 5553425F 		.ascii	"USB_FS_WKUP_IRQn\000"
 4045      46535F57 
 4045      4B55505F 
 4045      4952516E 
 4045      00
 4046              	.LASF127:
 4047 040b 41504231 		.ascii	"APB1RSTR\000"
 4047      52535452 
 4047      00
 4048              	.LASF54:
 4049 0414 656C5F6D 		.ascii	"el_mask\000"
 4049      61736B00 
 4050              	.LASF157:
 4051 041c 53657269 		.ascii	"SerialConfig\000"
 4051      616C436F 
 4051      6E666967 
 4051      00
 4052              	.LASF170:
 4053 0429 6E6F7469 		.ascii	"notify1\000"
 4053      66793100 
 4054              	.LASF171:
 4055 0431 6E6F7469 		.ascii	"notify2\000"
 4055      66793200 
 4056              	.LASF93:
 4057 0439 444D4131 		.ascii	"DMA1_Channel1_IRQn\000"
 4057      5F436861 
 4057      6E6E656C 
 4057      315F4952 
 4057      516E00
 4058              	.LASF133:
 4059 044c 52455345 		.ascii	"RESERVED0\000"
 4059      52564544 
 4059      3000
 4060              	.LASF134:
 4061 0456 52455345 		.ascii	"RESERVED1\000"
 4061      52564544 
 4061      3100
 4062              	.LASF135:
 4063 0460 52455345 		.ascii	"RESERVED2\000"
 4063      52564544 
 4063      3200
 4064              	.LASF136:
ARM GAS  C:\Users\z80\AppData\Local\Temp\cckEhmmh.s 			page 78


 4065 046a 52455345 		.ascii	"RESERVED3\000"
 4065      52564544 
 4065      3300
 4066              	.LASF137:
 4067 0474 52455345 		.ascii	"RESERVED4\000"
 4067      52564544 
 4067      3400
 4068              	.LASF25:
 4069 047e 705F7072 		.ascii	"p_prev\000"
 4069      657600
 4070              	.LASF140:
 4071 0485 52455345 		.ascii	"RESERVED6\000"
 4071      52564544 
 4071      3600
 4072              	.LASF19:
 4073 048f 74707269 		.ascii	"tprio_t\000"
 4073      6F5F7400 
 4074              	.LASF68:
 4075 0497 715F7264 		.ascii	"q_rdptr\000"
 4075      70747200 
 4076              	.LASF78:
 4077 049f 53564361 		.ascii	"SVCall_IRQn\000"
 4077      6C6C5F49 
 4077      52516E00 
 4078              	.LASF79:
 4079 04ab 44656275 		.ascii	"DebugMonitor_IRQn\000"
 4079      674D6F6E 
 4079      69746F72 
 4079      5F495251 
 4079      6E00
 4080              	.LASF8:
 4081 04bd 696E7433 		.ascii	"int32_t\000"
 4081      325F7400 
 4082              	.LASF4:
 4083 04c5 756E7369 		.ascii	"unsigned char\000"
 4083      676E6564 
 4083      20636861 
 4083      7200
 4084              	.LASF102:
 4085 04d3 5553425F 		.ascii	"USB_LP_CAN1_RX0_IRQn\000"
 4085      4C505F43 
 4085      414E315F 
 4085      5258305F 
 4085      4952516E 
 4086              	.LASF176:
 4087 04e8 73645F6C 		.ascii	"sd_lld_start\000"
 4087      6C645F73 
 4087      74617274 
 4087      00
 4088              	.LASF101:
 4089 04f5 5553425F 		.ascii	"USB_HP_CAN1_TX_IRQn\000"
 4089      48505F43 
 4089      414E315F 
 4089      54585F49 
 4089      52516E00 
 4090              	.LASF92:
 4091 0509 45585449 		.ascii	"EXTI4_IRQn\000"
ARM GAS  C:\Users\z80\AppData\Local\Temp\cckEhmmh.s 			page 79


 4091      345F4952 
 4091      516E00
 4092              	.LASF39:
 4093 0514 705F6D74 		.ascii	"p_mtxlist\000"
 4093      786C6973 
 4093      7400
 4094              	.LASF5:
 4095 051e 73686F72 		.ascii	"short int\000"
 4095      7420696E 
 4095      7400
 4096              	.LASF29:
 4097 0528 705F6F6C 		.ascii	"p_older\000"
 4097      64657200 
 4098              	.LASF181:
 4099 0530 2E2E2F63 		.ascii	"../chibios_2.4.x/os/hal/platforms/STM32/serial_lld."
 4099      68696269 
 4099      6F735F32 
 4099      2E342E78 
 4099      2F6F732F 
 4100 0563 6300     		.ascii	"c\000"
 4101              	.LASF60:
 4102 0565 65776D61 		.ascii	"ewmask\000"
 4102      736B00
 4103              	.LASF33:
 4104 056c 705F666C 		.ascii	"p_flags\000"
 4104      61677300 
 4105              	.LASF52:
 4106 0574 656C5F6E 		.ascii	"el_next\000"
 4106      65787400 
 4107              	.LASF90:
 4108 057c 45585449 		.ascii	"EXTI2_IRQn\000"
 4108      325F4952 
 4108      516E00
 4109              	.LASF129:
 4110 0587 41504232 		.ascii	"APB2ENR\000"
 4110      454E5200 
 4111              	.LASF23:
 4112 058f 54687265 		.ascii	"Thread\000"
 4112      616400
 4113              	.LASF172:
 4114 0596 73657276 		.ascii	"serve_interrupt\000"
 4114      655F696E 
 4114      74657272 
 4114      75707400 
 4115              	.LASF86:
 4116 05a6 464C4153 		.ascii	"FLASH_IRQn\000"
 4116      485F4952 
 4116      516E00
 4117              	.LASF38:
 4118 05b1 705F6570 		.ascii	"p_epending\000"
 4118      656E6469 
 4118      6E6700
 4119              	.LASF142:
 4120 05bc 53445F55 		.ascii	"SD_UNINIT\000"
 4120      4E494E49 
 4120      5400
 4121              	.LASF138:
ARM GAS  C:\Users\z80\AppData\Local\Temp\cckEhmmh.s 			page 80


 4122 05c6 52455345 		.ascii	"RESERVED5\000"
 4122      52564544 
 4122      3500
 4123              	.LASF10:
 4124 05d0 75696E74 		.ascii	"uint32_t\000"
 4124      33325F74 
 4124      00
 4125              	.LASF120:
 4126 05d9 55534152 		.ascii	"USART2_IRQn\000"
 4126      54325F49 
 4126      52516E00 
 4127              	.LASF77:
 4128 05e5 55736167 		.ascii	"UsageFault_IRQn\000"
 4128      65466175 
 4128      6C745F49 
 4128      52516E00 
 4129              	.LASF146:
 4130 05f5 53657269 		.ascii	"SerialDriver\000"
 4130      616C4472 
 4130      69766572 
 4130      00
 4131              	.LASF11:
 4132 0602 6C6F6E67 		.ascii	"long unsigned int\000"
 4132      20756E73 
 4132      69676E65 
 4132      6420696E 
 4132      7400
 4133              	.LASF160:
 4134 0614 72656164 		.ascii	"read\000"
 4134      00
 4135              	.LASF61:
 4136 0619 63686172 		.ascii	"char\000"
 4136      00
 4137              	.LASF76:
 4138 061e 42757346 		.ascii	"BusFault_IRQn\000"
 4138      61756C74 
 4138      5F495251 
 4138      6E00
 4139              	.LASF168:
 4140 062c 636F6E66 		.ascii	"config\000"
 4140      696700
 4141              	.LASF106:
 4142 0633 54494D31 		.ascii	"TIM1_BRK_IRQn\000"
 4142      5F42524B 
 4142      5F495251 
 4142      6E00
 4143              	.LASF104:
 4144 0641 43414E31 		.ascii	"CAN1_SCE_IRQn\000"
 4144      5F534345 
 4144      5F495251 
 4144      6E00
 4145              	.LASF50:
 4146 064f 6D5F6E65 		.ascii	"m_next\000"
 4146      787400
 4147              	.LASF22:
 4148 0656 73797374 		.ascii	"systime_t\000"
 4148      696D655F 
ARM GAS  C:\Users\z80\AppData\Local\Temp\cckEhmmh.s 			page 81


 4148      7400
 4149              	.LASF74:
 4150 0660 4E6F6E4D 		.ascii	"NonMaskableInt_IRQn\000"
 4150      61736B61 
 4150      626C6549 
 4150      6E745F49 
 4150      52516E00 
 4151              	.LASF31:
 4152 0674 705F7374 		.ascii	"p_stklimit\000"
 4152      6B6C696D 
 4152      697400
 4153              	.LASF98:
 4154 067f 444D4131 		.ascii	"DMA1_Channel6_IRQn\000"
 4154      5F436861 
 4154      6E6E656C 
 4154      365F4952 
 4154      516E00
 4155              	.LASF30:
 4156 0692 705F6E61 		.ascii	"p_name\000"
 4156      6D6500
 4157              	.LASF130:
 4158 0699 41504231 		.ascii	"APB1ENR\000"
 4158      454E5200 
 4159              	.LASF84:
 4160 06a1 54414D50 		.ascii	"TAMPER_IRQn\000"
 4160      45525F49 
 4160      52516E00 
 4161              	.LASF165:
 4162 06ad 67657466 		.ascii	"getflags\000"
 4162      6C616773 
 4162      00
 4163              	.LASF46:
 4164 06b6 636F6E74 		.ascii	"context\000"
 4164      65787400 
 4165              	.LASF45:
 4166 06be 696E7463 		.ascii	"intctx\000"
 4166      747800
 4167              	.LASF144:
 4168 06c5 53445F52 		.ascii	"SD_READY\000"
 4168      45414459 
 4168      00
 4169              	.LASF115:
 4170 06ce 49324332 		.ascii	"I2C2_EV_IRQn\000"
 4170      5F45565F 
 4170      4952516E 
 4170      00
 4171              	.LASF121:
 4172 06db 55534152 		.ascii	"USART3_IRQn\000"
 4172      54335F49 
 4172      52516E00 
 4173              	.LASF145:
 4174 06e7 73647374 		.ascii	"sdstate_t\000"
 4174      6174655F 
 4174      7400
 4175              	.LASF110:
 4176 06f1 54494D32 		.ascii	"TIM2_IRQn\000"
 4176      5F495251 
ARM GAS  C:\Users\z80\AppData\Local\Temp\cckEhmmh.s 			page 82


 4176      6E00
 4177              	.LASF66:
 4178 06fb 715F746F 		.ascii	"q_top\000"
 4178      7000
 4179              	.LASF88:
 4180 0701 45585449 		.ascii	"EXTI0_IRQn\000"
 4180      305F4952 
 4180      516E00
 4181              	.LASF56:
 4182 070c 65735F6E 		.ascii	"es_next\000"
 4182      65787400 
 4183              	.LASF119:
 4184 0714 55534152 		.ascii	"USART1_IRQn\000"
 4184      54315F49 
 4184      52516E00 
 4185              	.LASF131:
 4186 0720 42444352 		.ascii	"BDCR\000"
 4186      00
 4187              	.LASF69:
 4188 0725 715F6E6F 		.ascii	"q_notify\000"
 4188      74696679 
 4188      00
 4189              	.LASF37:
 4190 072e 705F6D73 		.ascii	"p_msg\000"
 4190      6700
 4191              	.LASF3:
 4192 0734 75696E74 		.ascii	"uint8_t\000"
 4192      385F7400 
 4193              	.LASF71:
 4194 073c 496E7075 		.ascii	"InputQueue\000"
 4194      74517565 
 4194      756500
 4195              	.LASF148:
 4196 0747 666C6167 		.ascii	"flags\000"
 4196      7300
 4197              	.LASF51:
 4198 074d 4576656E 		.ascii	"EventListener\000"
 4198      744C6973 
 4198      74656E65 
 4198      7200
 4199              	.LASF180:
 4200 075b 474E5520 		.ascii	"GNU C 4.5.0\000"
 4200      4320342E 
 4200      352E3000 
 4201              	.LASF59:
 4202 0767 77746F62 		.ascii	"wtobjp\000"
 4202      6A7000
 4203              	.LASF99:
 4204 076e 444D4131 		.ascii	"DMA1_Channel7_IRQn\000"
 4204      5F436861 
 4204      6E6E656C 
 4204      375F4952 
 4204      516E00
 4205              	.LASF177:
 4206 0781 73645F6C 		.ascii	"sd_lld_stop\000"
 4206      6C645F73 
 4206      746F7000 
ARM GAS  C:\Users\z80\AppData\Local\Temp\cckEhmmh.s 			page 83


 4207              	.LASF125:
 4208 078d 43464752 		.ascii	"CFGR\000"
 4208      00
 4209              	.LASF162:
 4210 0792 67657477 		.ascii	"getwouldblock\000"
 4210      6F756C64 
 4210      626C6F63 
 4210      6B00
 4211              	.LASF114:
 4212 07a0 49324331 		.ascii	"I2C1_ER_IRQn\000"
 4212      5F45525F 
 4212      4952516E 
 4212      00
 4213              	.LASF155:
 4214 07ad 73635F63 		.ascii	"sc_cr2\000"
 4214      723200
 4215              	.LASF156:
 4216 07b4 73635F63 		.ascii	"sc_cr3\000"
 4216      723300
 4217              	.LASF85:
 4218 07bb 5254435F 		.ascii	"RTC_IRQn\000"
 4218      4952516E 
 4218      00
 4219              	.LASF111:
 4220 07c4 54494D33 		.ascii	"TIM3_IRQn\000"
 4220      5F495251 
 4220      6E00
 4221              	.LASF49:
 4222 07ce 6D5F6F77 		.ascii	"m_owner\000"
 4222      6E657200 
 4223              	.LASF87:
 4224 07d6 5243435F 		.ascii	"RCC_IRQn\000"
 4224      4952516E 
 4224      00
 4225              	.LASF27:
 4226 07df 705F6374 		.ascii	"p_ctx\000"
 4226      7800
 4227              	.LASF35:
 4228 07e5 705F7761 		.ascii	"p_waiting\000"
 4228      6974696E 
 4228      6700
 4229              	.LASF128:
 4230 07ef 41484245 		.ascii	"AHBENR\000"
 4230      4E5200
 4231              	.LASF89:
 4232 07f6 45585449 		.ascii	"EXTI1_IRQn\000"
 4232      315F4952 
 4232      516E00
 4233              		.ident	"GCC: (GNU) 4.5.0"
ARM GAS  C:\Users\z80\AppData\Local\Temp\cckEhmmh.s 			page 84


DEFINED SYMBOLS
                            *ABS*:00000000 serial_lld.c
C:\Users\z80\AppData\Local\Temp\cckEhmmh.s:24     .text.notify1:00000000 $t
C:\Users\z80\AppData\Local\Temp\cckEhmmh.s:29     .text.notify1:00000000 notify1
C:\Users\z80\AppData\Local\Temp\cckEhmmh.s:51     .text.notify2:00000000 $t
C:\Users\z80\AppData\Local\Temp\cckEhmmh.s:56     .text.notify2:00000000 notify2
C:\Users\z80\AppData\Local\Temp\cckEhmmh.s:77     .text.serve_interrupt:00000000 $t
C:\Users\z80\AppData\Local\Temp\cckEhmmh.s:82     .text.serve_interrupt:00000000 serve_interrupt
C:\Users\z80\AppData\Local\Temp\cckEhmmh.s:377    .text.VectorD4:00000000 $t
C:\Users\z80\AppData\Local\Temp\cckEhmmh.s:383    .text.VectorD4:00000000 VectorD4
C:\Users\z80\AppData\Local\Temp\cckEhmmh.s:736    .bss.SD1:00000000 .LANCHOR0
C:\Users\z80\AppData\Local\Temp\cckEhmmh.s:409    .text.VectorD8:00000000 $t
C:\Users\z80\AppData\Local\Temp\cckEhmmh.s:415    .text.VectorD8:00000000 VectorD8
C:\Users\z80\AppData\Local\Temp\cckEhmmh.s:743    .bss.SD2:00000000 .LANCHOR1
C:\Users\z80\AppData\Local\Temp\cckEhmmh.s:441    .text.sd_lld_init:00000000 $t
C:\Users\z80\AppData\Local\Temp\cckEhmmh.s:447    .text.sd_lld_init:00000000 sd_lld_init
C:\Users\z80\AppData\Local\Temp\cckEhmmh.s:495    .text.sd_lld_start:00000000 $t
C:\Users\z80\AppData\Local\Temp\cckEhmmh.s:501    .text.sd_lld_start:00000000 sd_lld_start
C:\Users\z80\AppData\Local\Temp\cckEhmmh.s:627    .text.sd_lld_start:00000098 $d
C:\Users\z80\AppData\Local\Temp\cckEhmmh.s:634    .text.sd_lld_stop:00000000 $t
C:\Users\z80\AppData\Local\Temp\cckEhmmh.s:640    .text.sd_lld_stop:00000000 sd_lld_stop
C:\Users\z80\AppData\Local\Temp\cckEhmmh.s:716    .text.sd_lld_stop:00000054 $d
C:\Users\z80\AppData\Local\Temp\cckEhmmh.s:739    .bss.SD1:00000000 SD1
C:\Users\z80\AppData\Local\Temp\cckEhmmh.s:746    .bss.SD2:00000000 SD2
C:\Users\z80\AppData\Local\Temp\cckEhmmh.s:724    .rodata.default_config:00000000 $d
C:\Users\z80\AppData\Local\Temp\cckEhmmh.s:728    .rodata.default_config:00000000 default_config
C:\Users\z80\AppData\Local\Temp\cckEhmmh.s:735    .bss.SD1:00000000 $d
C:\Users\z80\AppData\Local\Temp\cckEhmmh.s:742    .bss.SD2:00000000 $d
                     .debug_frame:00000010 $d
C:\Users\z80\AppData\Local\Temp\cckEhmmh.s:633    .text.sd_lld_start:000000a4 $t
C:\Users\z80\AppData\Local\Temp\cckEhmmh.s:723    .text.sd_lld_stop:0000005c $t

UNDEFINED SYMBOLS
dbg_check_lock_from_isr
chEvtBroadcastFlagsI
dbg_check_unlock_from_isr
sdIncomingDataI
chOQGetI
dbg_check_enter_isr
dbg_check_leave_isr
_port_irq_epilogue
sdObjectInit
nvicEnableVector
nvicDisableVector
