ARM GAS  C:\Users\z80\AppData\Local\Temp\ccBUDbvc.s 			page 1


   1              		.syntax unified
   2              		.cpu cortex-m3
   3              		.fpu softvfp
   4              		.eabi_attribute 20, 1
   5              		.eabi_attribute 21, 1
   6              		.eabi_attribute 23, 3
   7              		.eabi_attribute 24, 1
   8              		.eabi_attribute 25, 1
   9              		.eabi_attribute 26, 1
  10              		.eabi_attribute 30, 2
  11              		.eabi_attribute 18, 4
  12              		.thumb
  13              		.file	"serial.c"
  14              		.section	.debug_abbrev,"",%progbits
  15              	.Ldebug_abbrev0:
  16              		.section	.debug_info,"",%progbits
  17              	.Ldebug_info0:
  18              		.section	.debug_line,"",%progbits
  19              	.Ldebug_line0:
  20 0000 CB030000 		.text
  20      02006502 
  20      00000201 
  20      FB0E0D00 
  20      01010101 
  21              	.Ltext0:
  22              		.cfi_sections	.debug_frame
  23              		.section	.text.putwouldblock,"ax",%progbits
  24              		.align	2
  25              		.p2align 4,,15
  26              		.thumb
  27              		.thumb_func
  28              		.type	putwouldblock, %function
  29              	putwouldblock:
  30              	.LFB64:
  31              		.file 1 "../chibios_2.4.x/os/hal/src/serial.c"
  32              		.loc 1 74 0
  33              		.cfi_startproc
  34              		@ args = 0, pretend = 0, frame = 0
  35              		@ frame_needed = 0, uses_anonymous_args = 0
  36              		@ link register save eliminated.
  37              	.LVL0:
  38              		.loc 1 76 0
  39 0000 806B     		ldr	r0, [r0, #56]
  40              	.LVL1:
  41 0002 D0F10100 		rsbs	r0, r0, #1
  42 0006 38BF     		it	cc
  43 0008 0020     		movcc	r0, #0
  44              		.loc 1 77 0
  45 000a 7047     		bx	lr
  46              		.cfi_endproc
  47              	.LFE64:
  48              		.size	putwouldblock, .-putwouldblock
  49 000c AFF30080 		.section	.text.getwouldblock,"ax",%progbits
  50              		.align	2
  51              		.p2align 4,,15
  52              		.thumb
  53              		.thumb_func
ARM GAS  C:\Users\z80\AppData\Local\Temp\ccBUDbvc.s 			page 2


  54              		.type	getwouldblock, %function
  55              	getwouldblock:
  56              	.LFB65:
  57              		.loc 1 79 0
  58              		.cfi_startproc
  59              		@ args = 0, pretend = 0, frame = 0
  60              		@ frame_needed = 0, uses_anonymous_args = 0
  61              		@ link register save eliminated.
  62              	.LVL2:
  63              		.loc 1 81 0
  64 0000 8069     		ldr	r0, [r0, #24]
  65              	.LVL3:
  66 0002 D0F10100 		rsbs	r0, r0, #1
  67 0006 38BF     		it	cc
  68 0008 0020     		movcc	r0, #0
  69              		.loc 1 82 0
  70 000a 7047     		bx	lr
  71              		.cfi_endproc
  72              	.LFE65:
  73              		.size	getwouldblock, .-getwouldblock
  74 000c AFF30080 		.section	.text.getflags,"ax",%progbits
  75              		.align	2
  76              		.p2align 4,,15
  77              		.thumb
  78              		.thumb_func
  79              		.type	getflags, %function
  80              	getflags:
  81              	.LFB70:
  82              		.loc 1 104 0
  83              		.cfi_startproc
  84              		@ args = 0, pretend = 0, frame = 0
  85              		@ frame_needed = 0, uses_anonymous_args = 0
  86              	.LVL4:
  87 0000 70B5     		push	{r4, r5, r6, lr}
  88              	.LCFI0:
  89              		.cfi_def_cfa_offset 16
  90              	.LBB2:
  91              		.loc 1 105 0
  92 0002 2023     		movs	r3, #32
  93              	.LVL5:
  94              	.LBE2:
  95              		.loc 1 104 0
  96 0004 0446     		mov	r4, r0
  97              		.cfi_offset 14, -4
  98              		.cfi_offset 6, -8
  99              		.cfi_offset 5, -12
 100              		.cfi_offset 4, -16
 101              	.LBB3:
 102              		.loc 1 105 0
 103              	@ 105 "../chibios_2.4.x/os/hal/src/serial.c" 1
 104 0006 83F31188 		msr     BASEPRI, r3
 105              	@ 0 "" 2
 106              	.LVL6:
 107              		.thumb
 108              	.LBE3:
 109 000a 0026     		movs	r6, #0
 110 000c FFF7FEFF 		bl	dbg_check_lock
ARM GAS  C:\Users\z80\AppData\Local\Temp\ccBUDbvc.s 			page 3


 111              	.LVL7:
 112 0010 A568     		ldr	r5, [r4, #8]
 113              	.LVL8:
 114 0012 A660     		str	r6, [r4, #8]
 115 0014 FFF7FEFF 		bl	dbg_check_unlock
 116              	.LVL9:
 117              	.LBB4:
 118 0018 3346     		mov	r3, r6
 119              	.LVL10:
 120              	@ 105 "../chibios_2.4.x/os/hal/src/serial.c" 1
 121 001a 83F31188 		msr     BASEPRI, r3
 122              	@ 0 "" 2
 123              	.LVL11:
 124              		.thumb
 125              	.LBE4:
 126              		.loc 1 106 0
 127 001e 2846     		mov	r0, r5
 128 0020 70BD     		pop	{r4, r5, r6, pc}
 129              		.cfi_endproc
 130              	.LFE70:
 131              		.size	getflags, .-getflags
 132 0022 00BFAFF3 		.section	.text.readt,"ax",%progbits
 132      0080AFF3 
 132      0080AFF3 
 132      0080
 133              		.align	2
 134              		.p2align 4,,15
 135              		.thumb
 136              		.thumb_func
 137              		.type	readt, %function
 138              	readt:
 139              	.LFB69:
 140              		.loc 1 99 0
 141              		.cfi_startproc
 142              		@ args = 0, pretend = 0, frame = 0
 143              		@ frame_needed = 0, uses_anonymous_args = 0
 144              	.LVL12:
 145 0000 08B5     		push	{r3, lr}
 146              	.LCFI1:
 147              		.cfi_def_cfa_offset 8
 148              		.loc 1 101 0
 149 0002 1030     		adds	r0, r0, #16
 150              	.LVL13:
 151              		.cfi_offset 14, -4
 152              		.cfi_offset 3, -8
 153 0004 FFF7FEFF 		bl	chIQReadTimeout
 154              	.LVL14:
 155              		.loc 1 102 0
 156 0008 08BD     		pop	{r3, pc}
 157              		.cfi_endproc
 158              	.LFE69:
 159              		.size	readt, .-readt
 160 000a 00BFAFF3 		.section	.text.reads,"ax",%progbits
 160      0080
 161              		.align	2
 162              		.p2align 4,,15
 163              		.thumb
ARM GAS  C:\Users\z80\AppData\Local\Temp\ccBUDbvc.s 			page 4


 164              		.thumb_func
 165              		.type	reads, %function
 166              	reads:
 167              	.LFB63:
 168              		.loc 1 68 0
 169              		.cfi_startproc
 170              		@ args = 0, pretend = 0, frame = 0
 171              		@ frame_needed = 0, uses_anonymous_args = 0
 172              	.LVL15:
 173 0000 08B5     		push	{r3, lr}
 174              	.LCFI2:
 175              		.cfi_def_cfa_offset 8
 176              		.loc 1 70 0
 177 0002 1030     		adds	r0, r0, #16
 178              	.LVL16:
 179 0004 4FF0FF33 		mov	r3, #-1
 180              		.cfi_offset 14, -4
 181              		.cfi_offset 3, -8
 182 0008 FFF7FEFF 		bl	chIQReadTimeout
 183              	.LVL17:
 184              		.loc 1 72 0
 185 000c 08BD     		pop	{r3, pc}
 186              		.cfi_endproc
 187              	.LFE63:
 188              		.size	reads, .-reads
 189 000e 00BF     		.section	.text.writet,"ax",%progbits
 190              		.align	2
 191              		.p2align 4,,15
 192              		.thumb
 193              		.thumb_func
 194              		.type	writet, %function
 195              	writet:
 196              	.LFB68:
 197              		.loc 1 94 0
 198              		.cfi_startproc
 199              		@ args = 0, pretend = 0, frame = 0
 200              		@ frame_needed = 0, uses_anonymous_args = 0
 201              	.LVL18:
 202 0000 08B5     		push	{r3, lr}
 203              	.LCFI3:
 204              		.cfi_def_cfa_offset 8
 205              		.loc 1 96 0
 206 0002 3030     		adds	r0, r0, #48
 207              	.LVL19:
 208              		.cfi_offset 14, -4
 209              		.cfi_offset 3, -8
 210 0004 FFF7FEFF 		bl	chOQWriteTimeout
 211              	.LVL20:
 212              		.loc 1 97 0
 213 0008 08BD     		pop	{r3, pc}
 214              		.cfi_endproc
 215              	.LFE68:
 216              		.size	writet, .-writet
 217 000a 00BFAFF3 		.section	.text.writes,"ax",%progbits
 217      0080
 218              		.align	2
 219              		.p2align 4,,15
ARM GAS  C:\Users\z80\AppData\Local\Temp\ccBUDbvc.s 			page 5


 220              		.thumb
 221              		.thumb_func
 222              		.type	writes, %function
 223              	writes:
 224              	.LFB62:
 225              		.loc 1 62 0
 226              		.cfi_startproc
 227              		@ args = 0, pretend = 0, frame = 0
 228              		@ frame_needed = 0, uses_anonymous_args = 0
 229              	.LVL21:
 230 0000 08B5     		push	{r3, lr}
 231              	.LCFI4:
 232              		.cfi_def_cfa_offset 8
 233              		.loc 1 64 0
 234 0002 3030     		adds	r0, r0, #48
 235              	.LVL22:
 236 0004 4FF0FF33 		mov	r3, #-1
 237              		.cfi_offset 14, -4
 238              		.cfi_offset 3, -8
 239 0008 FFF7FEFF 		bl	chOQWriteTimeout
 240              	.LVL23:
 241              		.loc 1 66 0
 242 000c 08BD     		pop	{r3, pc}
 243              		.cfi_endproc
 244              	.LFE62:
 245              		.size	writes, .-writes
 246 000e 00BF     		.section	.text.gett,"ax",%progbits
 247              		.align	2
 248              		.p2align 4,,15
 249              		.thumb
 250              		.thumb_func
 251              		.type	gett, %function
 252              	gett:
 253              	.LFB67:
 254              		.loc 1 89 0
 255              		.cfi_startproc
 256              		@ args = 0, pretend = 0, frame = 0
 257              		@ frame_needed = 0, uses_anonymous_args = 0
 258              	.LVL24:
 259 0000 08B5     		push	{r3, lr}
 260              	.LCFI5:
 261              		.cfi_def_cfa_offset 8
 262              		.loc 1 91 0
 263 0002 1030     		adds	r0, r0, #16
 264              	.LVL25:
 265              		.cfi_offset 14, -4
 266              		.cfi_offset 3, -8
 267 0004 FFF7FEFF 		bl	chIQGetTimeout
 268              	.LVL26:
 269              		.loc 1 92 0
 270 0008 08BD     		pop	{r3, pc}
 271              		.cfi_endproc
 272              	.LFE67:
 273              		.size	gett, .-gett
 274 000a 00BFAFF3 		.section	.text.putt,"ax",%progbits
 274      0080
 275              		.align	2
ARM GAS  C:\Users\z80\AppData\Local\Temp\ccBUDbvc.s 			page 6


 276              		.p2align 4,,15
 277              		.thumb
 278              		.thumb_func
 279              		.type	putt, %function
 280              	putt:
 281              	.LFB66:
 282              		.loc 1 84 0
 283              		.cfi_startproc
 284              		@ args = 0, pretend = 0, frame = 0
 285              		@ frame_needed = 0, uses_anonymous_args = 0
 286              	.LVL27:
 287 0000 08B5     		push	{r3, lr}
 288              	.LCFI6:
 289              		.cfi_def_cfa_offset 8
 290              		.loc 1 86 0
 291 0002 3030     		adds	r0, r0, #48
 292              	.LVL28:
 293              		.cfi_offset 14, -4
 294              		.cfi_offset 3, -8
 295 0004 FFF7FEFF 		bl	chOQPutTimeout
 296              	.LVL29:
 297              		.loc 1 87 0
 298 0008 08BD     		pop	{r3, pc}
 299              		.cfi_endproc
 300              	.LFE66:
 301              		.size	putt, .-putt
 302 000a 00BFAFF3 		.section	.text.sdInit,"ax",%progbits
 302      0080
 303              		.align	2
 304              		.p2align 4,,15
 305              		.global	sdInit
 306              		.thumb
 307              		.thumb_func
 308              		.type	sdInit, %function
 309              	sdInit:
 310              	.LFB71:
 311              		.loc 1 125 0
 312              		.cfi_startproc
 313              		@ args = 0, pretend = 0, frame = 0
 314              		@ frame_needed = 0, uses_anonymous_args = 0
 315 0000 08B5     		push	{r3, lr}
 316              	.LCFI7:
 317              		.cfi_def_cfa_offset 8
 318              		.loc 1 127 0
 319              		.cfi_offset 14, -4
 320              		.cfi_offset 3, -8
 321 0002 FFF7FEFF 		bl	sd_lld_init
 322              		.loc 1 128 0
 323 0006 08BD     		pop	{r3, pc}
 324              		.cfi_endproc
 325              	.LFE71:
 326              		.size	sdInit, .-sdInit
 327 0008 AFF30080 		.section	.text.sdObjectInit,"ax",%progbits
 327      AFF30080 
 328              		.align	2
 329              		.p2align 4,,15
 330              		.global	sdObjectInit
ARM GAS  C:\Users\z80\AppData\Local\Temp\ccBUDbvc.s 			page 7


 331              		.thumb
 332              		.thumb_func
 333              		.type	sdObjectInit, %function
 334              	sdObjectInit:
 335              	.LFB72:
 336              		.loc 1 145 0
 337              		.cfi_startproc
 338              		@ args = 0, pretend = 0, frame = 0
 339              		@ frame_needed = 0, uses_anonymous_args = 0
 340              	.LVL30:
 341 0000 38B5     		push	{r3, r4, r5, lr}
 342              	.LCFI8:
 343              		.cfi_def_cfa_offset 16
 344              		.loc 1 145 0
 345 0002 0B46     		mov	r3, r1
 346              		.cfi_offset 14, -4
 347              		.cfi_offset 5, -8
 348              		.cfi_offset 4, -12
 349              		.cfi_offset 3, -16
 350              		.loc 1 147 0
 351 0004 40F20001 		movw	r1, #:lower16:.LANCHOR0
 352              	.LVL31:
 353 0008 8446     		mov	ip, r0
 354 000a C0F20001 		movt	r1, #:upper16:.LANCHOR0
 355              		.loc 1 145 0
 356 000e 0446     		mov	r4, r0
 357              		.loc 1 147 0
 358 0010 4CF8041B 		str	r1, [ip], #4
 359              		.loc 1 148 0
 360 0014 C4F804C0 		str	ip, [r4, #4]
 361              		.loc 1 149 0
 362 0018 4FF0000C 		mov	ip, #0
 363 001c C4F808C0 		str	ip, [r4, #8]
 364              		.loc 1 150 0
 365 0020 4FF0010C 		mov	ip, #1
 366              		.loc 1 151 0
 367 0024 04F15001 		add	r1, r4, #80
 368              		.loc 1 145 0
 369 0028 1546     		mov	r5, r2
 370              		.loc 1 151 0
 371 002a 00F11000 		add	r0, r0, #16
 372              	.LVL32:
 373 002e 1022     		movs	r2, #16
 374              	.LVL33:
 375              		.loc 1 150 0
 376 0030 84F80CC0 		strb	ip, [r4, #12]
 377              		.loc 1 151 0
 378 0034 FFF7FEFF 		bl	chIQInit
 379              	.LVL34:
 380              		.loc 1 152 0
 381 0038 04F16001 		add	r1, r4, #96
 382 003c 04F13000 		add	r0, r4, #48
 383 0040 1022     		movs	r2, #16
 384 0042 2B46     		mov	r3, r5
 385 0044 FFF7FEFF 		bl	chOQInit
 386              		.loc 1 153 0
 387 0048 38BD     		pop	{r3, r4, r5, pc}
ARM GAS  C:\Users\z80\AppData\Local\Temp\ccBUDbvc.s 			page 8


 388              		.cfi_endproc
 389              	.LFE72:
 390              		.size	sdObjectInit, .-sdObjectInit
 391 004a 00BFAFF3 		.section	.text.sdStart,"ax",%progbits
 391      0080
 392              		.align	2
 393              		.p2align 4,,15
 394              		.global	sdStart
 395              		.thumb
 396              		.thumb_func
 397              		.type	sdStart, %function
 398              	sdStart:
 399              	.LFB73:
 400              		.loc 1 165 0
 401              		.cfi_startproc
 402              		@ args = 0, pretend = 0, frame = 0
 403              		@ frame_needed = 0, uses_anonymous_args = 0
 404              	.LVL35:
 405 0000 38B5     		push	{r3, r4, r5, lr}
 406              	.LCFI9:
 407              		.cfi_def_cfa_offset 16
 408              		.loc 1 165 0
 409 0002 0446     		mov	r4, r0
 410              		.cfi_offset 14, -4
 411              		.cfi_offset 5, -8
 412              		.cfi_offset 4, -12
 413              		.cfi_offset 3, -16
 414 0004 0D46     		mov	r5, r1
 415              		.loc 1 167 0
 416 0006 C0B1     		cbz	r0, .L16
 417              	.LVL36:
 418              	.L13:
 419              	.LBB5:
 420              		.loc 1 169 0
 421 0008 2023     		movs	r3, #32
 422              	.LVL37:
 423              	@ 169 "../chibios_2.4.x/os/hal/src/serial.c" 1
 424 000a 83F31188 		msr     BASEPRI, r3
 425              	@ 0 "" 2
 426              	.LVL38:
 427              		.thumb
 428              	.LBE5:
 429 000e FFF7FEFF 		bl	dbg_check_lock
 430              	.LVL39:
 431              		.loc 1 170 0
 432 0012 237B     		ldrb	r3, [r4, #12]	@ zero_extendqisi2
 433 0014 013B     		subs	r3, r3, #1
 434 0016 DBB2     		uxtb	r3, r3
 435 0018 012B     		cmp	r3, #1
 436 001a 02D9     		bls	.L14
 437              		.loc 1 170 0 is_stmt 0 discriminator 1
 438 001c 0948     		ldr	r0, .L17
 439 001e FFF7FEFF 		bl	chDbgPanic
 440              	.L14:
 441              		.loc 1 173 0 is_stmt 1
 442 0022 2046     		mov	r0, r4
 443 0024 2946     		mov	r1, r5
ARM GAS  C:\Users\z80\AppData\Local\Temp\ccBUDbvc.s 			page 9


 444 0026 FFF7FEFF 		bl	sd_lld_start
 445              		.loc 1 174 0
 446 002a 0223     		movs	r3, #2
 447 002c 2373     		strb	r3, [r4, #12]
 448              		.loc 1 175 0
 449 002e FFF7FEFF 		bl	dbg_check_unlock
 450              	.LBB6:
 451 0032 0023     		movs	r3, #0
 452              	.LVL40:
 453              	@ 175 "../chibios_2.4.x/os/hal/src/serial.c" 1
 454 0034 83F31188 		msr     BASEPRI, r3
 455              	@ 0 "" 2
 456              	.LVL41:
 457              		.thumb
 458              	.LBE6:
 459              		.loc 1 176 0
 460 0038 38BD     		pop	{r3, r4, r5, pc}
 461              	.LVL42:
 462              	.L16:
 463              		.loc 1 167 0 discriminator 1
 464 003a 0348     		ldr	r0, .L17+4
 465 003c FFF7FEFF 		bl	chDbgPanic
 466 0040 E2E7     		b	.L13
 467              	.L18:
 468 0042 00BF     		.align	2
 469              	.L17:
 470 0044 0C000000 		.word	.LC1
 471 0048 00000000 		.word	.LC0
 472              		.cfi_endproc
 473              	.LFE73:
 474              		.size	sdStart, .-sdStart
 475 004c AFF30080 		.section	.text.sdStop,"ax",%progbits
 476              		.align	2
 477              		.p2align 4,,15
 478              		.global	sdStop
 479              		.thumb
 480              		.thumb_func
 481              		.type	sdStop, %function
 482              	sdStop:
 483              	.LFB74:
 484              		.loc 1 187 0
 485              		.cfi_startproc
 486              		@ args = 0, pretend = 0, frame = 0
 487              		@ frame_needed = 0, uses_anonymous_args = 0
 488              	.LVL43:
 489 0000 10B5     		push	{r4, lr}
 490              	.LCFI10:
 491              		.cfi_def_cfa_offset 8
 492              		.loc 1 187 0
 493 0002 0446     		mov	r4, r0
 494              		.cfi_offset 14, -4
 495              		.cfi_offset 4, -8
 496              		.loc 1 189 0
 497 0004 08B3     		cbz	r0, .L22
 498              	.LVL44:
 499              	.L20:
 500              	.LBB7:
ARM GAS  C:\Users\z80\AppData\Local\Temp\ccBUDbvc.s 			page 10


 501              		.loc 1 191 0
 502 0006 2023     		movs	r3, #32
 503              	.LVL45:
 504              	@ 191 "../chibios_2.4.x/os/hal/src/serial.c" 1
 505 0008 83F31188 		msr     BASEPRI, r3
 506              	@ 0 "" 2
 507              	.LVL46:
 508              		.thumb
 509              	.LBE7:
 510 000c FFF7FEFF 		bl	dbg_check_lock
 511              	.LVL47:
 512              		.loc 1 192 0
 513 0010 237B     		ldrb	r3, [r4, #12]	@ zero_extendqisi2
 514 0012 013B     		subs	r3, r3, #1
 515 0014 DBB2     		uxtb	r3, r3
 516 0016 012B     		cmp	r3, #1
 517 0018 02D9     		bls	.L21
 518              		.loc 1 192 0 is_stmt 0 discriminator 1
 519 001a 0E48     		ldr	r0, .L23
 520 001c FFF7FEFF 		bl	chDbgPanic
 521              	.L21:
 522              		.loc 1 195 0 is_stmt 1
 523 0020 2046     		mov	r0, r4
 524 0022 FFF7FEFF 		bl	sd_lld_stop
 525              		.loc 1 196 0
 526 0026 0123     		movs	r3, #1
 527 0028 2373     		strb	r3, [r4, #12]
 528              		.loc 1 197 0
 529 002a 04F13000 		add	r0, r4, #48
 530 002e FFF7FEFF 		bl	chOQResetI
 531              		.loc 1 198 0
 532 0032 04F11000 		add	r0, r4, #16
 533 0036 FFF7FEFF 		bl	chIQResetI
 534              		.loc 1 199 0
 535 003a FFF7FEFF 		bl	chSchRescheduleS
 536              		.loc 1 200 0
 537 003e FFF7FEFF 		bl	dbg_check_unlock
 538              	.LBB8:
 539 0042 0023     		movs	r3, #0
 540              	.LVL48:
 541              	@ 200 "../chibios_2.4.x/os/hal/src/serial.c" 1
 542 0044 83F31188 		msr     BASEPRI, r3
 543              	@ 0 "" 2
 544              	.LVL49:
 545              		.thumb
 546              	.LBE8:
 547              		.loc 1 201 0
 548 0048 10BD     		pop	{r4, pc}
 549              	.LVL50:
 550              	.L22:
 551              		.loc 1 189 0 discriminator 1
 552 004a 0348     		ldr	r0, .L23+4
 553 004c FFF7FEFF 		bl	chDbgPanic
 554 0050 D9E7     		b	.L20
 555              	.L24:
 556 0052 00BF     		.align	2
 557              	.L23:
ARM GAS  C:\Users\z80\AppData\Local\Temp\ccBUDbvc.s 			page 11


 558 0054 28000000 		.word	.LC3
 559 0058 1C000000 		.word	.LC2
 560              		.cfi_endproc
 561              	.LFE74:
 562              		.size	sdStop, .-sdStop
 563 005c AFF30080 		.section	.text.sdIncomingDataI,"ax",%progbits
 564              		.align	2
 565              		.p2align 4,,15
 566              		.global	sdIncomingDataI
 567              		.thumb
 568              		.thumb_func
 569              		.type	sdIncomingDataI, %function
 570              	sdIncomingDataI:
 571              	.LFB75:
 572              		.loc 1 219 0
 573              		.cfi_startproc
 574              		@ args = 0, pretend = 0, frame = 0
 575              		@ frame_needed = 0, uses_anonymous_args = 0
 576              	.LVL51:
 577 0000 38B5     		push	{r3, r4, r5, lr}
 578              	.LCFI11:
 579              		.cfi_def_cfa_offset 16
 580              		.loc 1 219 0
 581 0002 0446     		mov	r4, r0
 582              		.cfi_offset 14, -4
 583              		.cfi_offset 5, -8
 584              		.cfi_offset 4, -12
 585              		.cfi_offset 3, -16
 586 0004 0D46     		mov	r5, r1
 587              		.loc 1 221 0
 588 0006 FFF7FEFF 		bl	chDbgCheckClassI
 589              	.LVL52:
 590              		.loc 1 222 0
 591 000a 002C     		cmp	r4, #0
 592 000c 20D0     		beq	.L29
 593              	.L26:
 594              		.loc 1 224 0
 595 000e A169     		ldr	r1, [r4, #24]
 596 0010 39B1     		cbz	r1, .L30
 597              		.loc 1 226 0
 598 0012 04F11000 		add	r0, r4, #16
 599 0016 2946     		mov	r1, r5
 600 0018 FFF7FEFF 		bl	chIQPutI
 601 001c 0028     		cmp	r0, #0
 602 001e 0EDB     		blt	.L31
 603              	.L25:
 604              		.loc 1 228 0
 605 0020 38BD     		pop	{r3, r4, r5, pc}
 606              	.L30:
 607              		.loc 1 225 0
 608 0022 A368     		ldr	r3, [r4, #8]
 609 0024 201D     		adds	r0, r4, #4
 610 0026 43F00403 		orr	r3, r3, #4
 611 002a A360     		str	r3, [r4, #8]
 612 002c FFF7FEFF 		bl	chEvtBroadcastFlagsI
 613              		.loc 1 226 0
 614 0030 04F11000 		add	r0, r4, #16
ARM GAS  C:\Users\z80\AppData\Local\Temp\ccBUDbvc.s 			page 12


 615 0034 2946     		mov	r1, r5
 616 0036 FFF7FEFF 		bl	chIQPutI
 617 003a 0028     		cmp	r0, #0
 618 003c F0DA     		bge	.L25
 619              	.L31:
 620              		.loc 1 227 0
 621 003e A368     		ldr	r3, [r4, #8]
 622 0040 201D     		adds	r0, r4, #4
 623 0042 43F08003 		orr	r3, r3, #128
 624 0046 A360     		str	r3, [r4, #8]
 625 0048 0021     		movs	r1, #0
 626 004a FFF7FEFF 		bl	chEvtBroadcastFlagsI
 627 004e E7E7     		b	.L25
 628              	.L29:
 629              		.loc 1 222 0 discriminator 1
 630 0050 0148     		ldr	r0, .L32
 631 0052 FFF7FEFF 		bl	chDbgPanic
 632 0056 DAE7     		b	.L26
 633              	.L33:
 634              		.align	2
 635              	.L32:
 636 0058 38000000 		.word	.LC4
 637              		.cfi_endproc
 638              	.LFE75:
 639              		.size	sdIncomingDataI, .-sdIncomingDataI
 640 005c AFF30080 		.section	.text.sdRequestDataI,"ax",%progbits
 641              		.align	2
 642              		.p2align 4,,15
 643              		.global	sdRequestDataI
 644              		.thumb
 645              		.thumb_func
 646              		.type	sdRequestDataI, %function
 647              	sdRequestDataI:
 648              	.LFB76:
 649              		.loc 1 245 0
 650              		.cfi_startproc
 651              		@ args = 0, pretend = 0, frame = 0
 652              		@ frame_needed = 0, uses_anonymous_args = 0
 653              	.LVL53:
 654 0000 38B5     		push	{r3, r4, r5, lr}
 655              	.LCFI12:
 656              		.cfi_def_cfa_offset 16
 657              		.loc 1 245 0
 658 0002 0546     		mov	r5, r0
 659              		.cfi_offset 14, -4
 660              		.cfi_offset 5, -8
 661              		.cfi_offset 4, -12
 662              		.cfi_offset 3, -16
 663              		.loc 1 248 0
 664 0004 FFF7FEFF 		bl	chDbgCheckClassI
 665              	.LVL54:
 666              		.loc 1 249 0
 667 0008 8DB1     		cbz	r5, .L37
 668              	.L35:
 669              		.loc 1 251 0
 670 000a 05F13000 		add	r0, r5, #48
 671 000e FFF7FEFF 		bl	chOQGetI
ARM GAS  C:\Users\z80\AppData\Local\Temp\ccBUDbvc.s 			page 13


 672              		.loc 1 252 0
 673 0012 0028     		cmp	r0, #0
 674              		.loc 1 251 0
 675 0014 0446     		mov	r4, r0
 676              	.LVL55:
 677              		.loc 1 252 0
 678 0016 01DB     		blt	.L38
 679              	.LVL56:
 680              	.L36:
 681              		.loc 1 255 0
 682 0018 2046     		mov	r0, r4
 683 001a 38BD     		pop	{r3, r4, r5, pc}
 684              	.L38:
 685              		.loc 1 253 0
 686 001c AB68     		ldr	r3, [r5, #8]
 687 001e 281D     		adds	r0, r5, #4
 688 0020 43F00803 		orr	r3, r3, #8
 689 0024 AB60     		str	r3, [r5, #8]
 690 0026 0021     		movs	r1, #0
 691 0028 FFF7FEFF 		bl	chEvtBroadcastFlagsI
 692 002c F4E7     		b	.L36
 693              	.LVL57:
 694              	.L37:
 695              		.loc 1 249 0 discriminator 1
 696 002e 0248     		ldr	r0, .L39
 697 0030 FFF7FEFF 		bl	chDbgPanic
 698 0034 E9E7     		b	.L35
 699              	.L40:
 700 0036 00BF     		.align	2
 701              	.L39:
 702 0038 4C000000 		.word	.LC5
 703              		.cfi_endproc
 704              	.LFE76:
 705              		.size	sdRequestDataI, .-sdRequestDataI
 706 003c AFF30080 		.section	.rodata.str1.4,"aMS",%progbits,1
 707              		.align	2
 708              	.LC0:
 709 0000 22736453 		.ascii	"\"sdStart\"()\000"
 709      74617274 
 709      22282900 
 710              	.LC1:
 711 000c 73645374 		.ascii	"sdStart(), #1\000"
 711      61727428 
 711      292C2023 
 711      3100
 712 001a 0000     		.space	2
 713              	.LC2:
 714 001c 22736453 		.ascii	"\"sdStop\"()\000"
 714      746F7022 
 714      282900
 715 0027 00       		.space	1
 716              	.LC3:
 717 0028 73645374 		.ascii	"sdStop(), #1\000"
 717      6F702829 
 717      2C202331 
 717      00
 718 0035 000000   		.space	3
ARM GAS  C:\Users\z80\AppData\Local\Temp\ccBUDbvc.s 			page 14


 719              	.LC4:
 720 0038 22736449 		.ascii	"\"sdIncomingDataI\"()\000"
 720      6E636F6D 
 720      696E6744 
 720      61746149 
 720      22282900 
 721              	.LC5:
 722 004c 22736452 		.ascii	"\"sdRequestDataI\"()\000"
 722      65717565 
 722      73744461 
 722      74614922 
 722      282900
 723 005f 00       		.section	.rodata.vmt,"a",%progbits
 724              		.align	2
 725              		.set	.LANCHOR0,. + 0
 726              		.type	vmt, %object
 727              		.size	vmt, 36
 728              	vmt:
 729 0000 00000000 		.word	writes
 730 0004 00000000 		.word	reads
 731 0008 00000000 		.word	putwouldblock
 732 000c 00000000 		.word	getwouldblock
 733 0010 00000000 		.word	putt
 734 0014 00000000 		.word	gett
 735 0018 00000000 		.word	writet
 736 001c 00000000 		.word	readt
 737 0020 00000000 		.word	getflags
 738              		.text
 739              	.Letext0:
 740              		.section	.debug_loc,"",%progbits
 741              	.Ldebug_loc0:
 742              	.LLST0:
 743 0000 00000000 		.4byte	.LVL0
 744 0004 02000000 		.4byte	.LVL1
 745 0008 0100     		.2byte	0x1
 746 000a 50       		.byte	0x50
 747 000b 00000000 		.4byte	0x0
 748 000f 00000000 		.4byte	0x0
 749              	.LLST1:
 750 0013 00000000 		.4byte	.LVL2
 751 0017 02000000 		.4byte	.LVL3
 752 001b 0100     		.2byte	0x1
 753 001d 50       		.byte	0x50
 754 001e 00000000 		.4byte	0x0
 755 0022 00000000 		.4byte	0x0
 756              	.LLST2:
 757 0026 00000000 		.4byte	.LFB70
 758 002a 02000000 		.4byte	.LCFI0
 759 002e 0200     		.2byte	0x2
 760 0030 7D       		.byte	0x7d
 761 0031 00       		.sleb128 0
 762 0032 02000000 		.4byte	.LCFI0
 763 0036 22000000 		.4byte	.LFE70
 764 003a 0200     		.2byte	0x2
 765 003c 7D       		.byte	0x7d
 766 003d 10       		.sleb128 16
 767 003e 00000000 		.4byte	0x0
ARM GAS  C:\Users\z80\AppData\Local\Temp\ccBUDbvc.s 			page 15


 768 0042 00000000 		.4byte	0x0
 769              	.LLST3:
 770 0046 00000000 		.4byte	.LVL4
 771 004a 0F000000 		.4byte	.LVL7-1
 772 004e 0100     		.2byte	0x1
 773 0050 50       		.byte	0x50
 774 0051 0F000000 		.4byte	.LVL7-1
 775 0055 22000000 		.4byte	.LFE70
 776 0059 0100     		.2byte	0x1
 777 005b 54       		.byte	0x54
 778 005c 00000000 		.4byte	0x0
 779 0060 00000000 		.4byte	0x0
 780              	.LLST4:
 781 0064 12000000 		.4byte	.LVL8
 782 0068 17000000 		.4byte	.LVL9-1
 783 006c 0200     		.2byte	0x2
 784 006e 74       		.byte	0x74
 785 006f 08       		.sleb128 8
 786 0070 17000000 		.4byte	.LVL9-1
 787 0074 22000000 		.4byte	.LFE70
 788 0078 0100     		.2byte	0x1
 789 007a 55       		.byte	0x55
 790 007b 00000000 		.4byte	0x0
 791 007f 00000000 		.4byte	0x0
 792              	.LLST5:
 793 0083 0A000000 		.4byte	.LVL6
 794 0087 0F000000 		.4byte	.LVL7-1
 795 008b 0100     		.2byte	0x1
 796 008d 53       		.byte	0x53
 797 008e 00000000 		.4byte	0x0
 798 0092 00000000 		.4byte	0x0
 799              	.LLST6:
 800 0096 1E000000 		.4byte	.LVL11
 801 009a 22000000 		.4byte	.LFE70
 802 009e 0100     		.2byte	0x1
 803 00a0 53       		.byte	0x53
 804 00a1 00000000 		.4byte	0x0
 805 00a5 00000000 		.4byte	0x0
 806              	.LLST7:
 807 00a9 00000000 		.4byte	.LFB69
 808 00ad 02000000 		.4byte	.LCFI1
 809 00b1 0200     		.2byte	0x2
 810 00b3 7D       		.byte	0x7d
 811 00b4 00       		.sleb128 0
 812 00b5 02000000 		.4byte	.LCFI1
 813 00b9 0A000000 		.4byte	.LFE69
 814 00bd 0200     		.2byte	0x2
 815 00bf 7D       		.byte	0x7d
 816 00c0 08       		.sleb128 8
 817 00c1 00000000 		.4byte	0x0
 818 00c5 00000000 		.4byte	0x0
 819              	.LLST8:
 820 00c9 00000000 		.4byte	.LVL12
 821 00cd 04000000 		.4byte	.LVL13
 822 00d1 0100     		.2byte	0x1
 823 00d3 50       		.byte	0x50
 824 00d4 04000000 		.4byte	.LVL13
ARM GAS  C:\Users\z80\AppData\Local\Temp\ccBUDbvc.s 			page 16


 825 00d8 07000000 		.4byte	.LVL14-1
 826 00dc 0300     		.2byte	0x3
 827 00de 70       		.byte	0x70
 828 00df 70       		.sleb128 -16
 829 00e0 9F       		.byte	0x9f
 830 00e1 00000000 		.4byte	0x0
 831 00e5 00000000 		.4byte	0x0
 832              	.LLST9:
 833 00e9 00000000 		.4byte	.LVL12
 834 00ed 07000000 		.4byte	.LVL14-1
 835 00f1 0100     		.2byte	0x1
 836 00f3 51       		.byte	0x51
 837 00f4 00000000 		.4byte	0x0
 838 00f8 00000000 		.4byte	0x0
 839              	.LLST10:
 840 00fc 00000000 		.4byte	.LVL12
 841 0100 07000000 		.4byte	.LVL14-1
 842 0104 0100     		.2byte	0x1
 843 0106 52       		.byte	0x52
 844 0107 00000000 		.4byte	0x0
 845 010b 00000000 		.4byte	0x0
 846              	.LLST11:
 847 010f 00000000 		.4byte	.LVL12
 848 0113 07000000 		.4byte	.LVL14-1
 849 0117 0100     		.2byte	0x1
 850 0119 53       		.byte	0x53
 851 011a 00000000 		.4byte	0x0
 852 011e 00000000 		.4byte	0x0
 853              	.LLST12:
 854 0122 00000000 		.4byte	.LFB63
 855 0126 02000000 		.4byte	.LCFI2
 856 012a 0200     		.2byte	0x2
 857 012c 7D       		.byte	0x7d
 858 012d 00       		.sleb128 0
 859 012e 02000000 		.4byte	.LCFI2
 860 0132 0E000000 		.4byte	.LFE63
 861 0136 0200     		.2byte	0x2
 862 0138 7D       		.byte	0x7d
 863 0139 08       		.sleb128 8
 864 013a 00000000 		.4byte	0x0
 865 013e 00000000 		.4byte	0x0
 866              	.LLST13:
 867 0142 00000000 		.4byte	.LVL15
 868 0146 04000000 		.4byte	.LVL16
 869 014a 0100     		.2byte	0x1
 870 014c 50       		.byte	0x50
 871 014d 04000000 		.4byte	.LVL16
 872 0151 0B000000 		.4byte	.LVL17-1
 873 0155 0300     		.2byte	0x3
 874 0157 70       		.byte	0x70
 875 0158 70       		.sleb128 -16
 876 0159 9F       		.byte	0x9f
 877 015a 00000000 		.4byte	0x0
 878 015e 00000000 		.4byte	0x0
 879              	.LLST14:
 880 0162 00000000 		.4byte	.LVL15
 881 0166 0B000000 		.4byte	.LVL17-1
ARM GAS  C:\Users\z80\AppData\Local\Temp\ccBUDbvc.s 			page 17


 882 016a 0100     		.2byte	0x1
 883 016c 51       		.byte	0x51
 884 016d 00000000 		.4byte	0x0
 885 0171 00000000 		.4byte	0x0
 886              	.LLST15:
 887 0175 00000000 		.4byte	.LVL15
 888 0179 0B000000 		.4byte	.LVL17-1
 889 017d 0100     		.2byte	0x1
 890 017f 52       		.byte	0x52
 891 0180 00000000 		.4byte	0x0
 892 0184 00000000 		.4byte	0x0
 893              	.LLST16:
 894 0188 00000000 		.4byte	.LFB68
 895 018c 02000000 		.4byte	.LCFI3
 896 0190 0200     		.2byte	0x2
 897 0192 7D       		.byte	0x7d
 898 0193 00       		.sleb128 0
 899 0194 02000000 		.4byte	.LCFI3
 900 0198 0A000000 		.4byte	.LFE68
 901 019c 0200     		.2byte	0x2
 902 019e 7D       		.byte	0x7d
 903 019f 08       		.sleb128 8
 904 01a0 00000000 		.4byte	0x0
 905 01a4 00000000 		.4byte	0x0
 906              	.LLST17:
 907 01a8 00000000 		.4byte	.LVL18
 908 01ac 04000000 		.4byte	.LVL19
 909 01b0 0100     		.2byte	0x1
 910 01b2 50       		.byte	0x50
 911 01b3 04000000 		.4byte	.LVL19
 912 01b7 07000000 		.4byte	.LVL20-1
 913 01bb 0300     		.2byte	0x3
 914 01bd 70       		.byte	0x70
 915 01be 50       		.sleb128 -48
 916 01bf 9F       		.byte	0x9f
 917 01c0 00000000 		.4byte	0x0
 918 01c4 00000000 		.4byte	0x0
 919              	.LLST18:
 920 01c8 00000000 		.4byte	.LVL18
 921 01cc 07000000 		.4byte	.LVL20-1
 922 01d0 0100     		.2byte	0x1
 923 01d2 51       		.byte	0x51
 924 01d3 00000000 		.4byte	0x0
 925 01d7 00000000 		.4byte	0x0
 926              	.LLST19:
 927 01db 00000000 		.4byte	.LVL18
 928 01df 07000000 		.4byte	.LVL20-1
 929 01e3 0100     		.2byte	0x1
 930 01e5 52       		.byte	0x52
 931 01e6 00000000 		.4byte	0x0
 932 01ea 00000000 		.4byte	0x0
 933              	.LLST20:
 934 01ee 00000000 		.4byte	.LVL18
 935 01f2 07000000 		.4byte	.LVL20-1
 936 01f6 0100     		.2byte	0x1
 937 01f8 53       		.byte	0x53
 938 01f9 00000000 		.4byte	0x0
ARM GAS  C:\Users\z80\AppData\Local\Temp\ccBUDbvc.s 			page 18


 939 01fd 00000000 		.4byte	0x0
 940              	.LLST21:
 941 0201 00000000 		.4byte	.LFB62
 942 0205 02000000 		.4byte	.LCFI4
 943 0209 0200     		.2byte	0x2
 944 020b 7D       		.byte	0x7d
 945 020c 00       		.sleb128 0
 946 020d 02000000 		.4byte	.LCFI4
 947 0211 0E000000 		.4byte	.LFE62
 948 0215 0200     		.2byte	0x2
 949 0217 7D       		.byte	0x7d
 950 0218 08       		.sleb128 8
 951 0219 00000000 		.4byte	0x0
 952 021d 00000000 		.4byte	0x0
 953              	.LLST22:
 954 0221 00000000 		.4byte	.LVL21
 955 0225 04000000 		.4byte	.LVL22
 956 0229 0100     		.2byte	0x1
 957 022b 50       		.byte	0x50
 958 022c 04000000 		.4byte	.LVL22
 959 0230 0B000000 		.4byte	.LVL23-1
 960 0234 0300     		.2byte	0x3
 961 0236 70       		.byte	0x70
 962 0237 50       		.sleb128 -48
 963 0238 9F       		.byte	0x9f
 964 0239 00000000 		.4byte	0x0
 965 023d 00000000 		.4byte	0x0
 966              	.LLST23:
 967 0241 00000000 		.4byte	.LVL21
 968 0245 0B000000 		.4byte	.LVL23-1
 969 0249 0100     		.2byte	0x1
 970 024b 51       		.byte	0x51
 971 024c 00000000 		.4byte	0x0
 972 0250 00000000 		.4byte	0x0
 973              	.LLST24:
 974 0254 00000000 		.4byte	.LVL21
 975 0258 0B000000 		.4byte	.LVL23-1
 976 025c 0100     		.2byte	0x1
 977 025e 52       		.byte	0x52
 978 025f 00000000 		.4byte	0x0
 979 0263 00000000 		.4byte	0x0
 980              	.LLST25:
 981 0267 00000000 		.4byte	.LFB67
 982 026b 02000000 		.4byte	.LCFI5
 983 026f 0200     		.2byte	0x2
 984 0271 7D       		.byte	0x7d
 985 0272 00       		.sleb128 0
 986 0273 02000000 		.4byte	.LCFI5
 987 0277 0A000000 		.4byte	.LFE67
 988 027b 0200     		.2byte	0x2
 989 027d 7D       		.byte	0x7d
 990 027e 08       		.sleb128 8
 991 027f 00000000 		.4byte	0x0
 992 0283 00000000 		.4byte	0x0
 993              	.LLST26:
 994 0287 00000000 		.4byte	.LVL24
 995 028b 04000000 		.4byte	.LVL25
ARM GAS  C:\Users\z80\AppData\Local\Temp\ccBUDbvc.s 			page 19


 996 028f 0100     		.2byte	0x1
 997 0291 50       		.byte	0x50
 998 0292 04000000 		.4byte	.LVL25
 999 0296 07000000 		.4byte	.LVL26-1
 1000 029a 0300     		.2byte	0x3
 1001 029c 70       		.byte	0x70
 1002 029d 70       		.sleb128 -16
 1003 029e 9F       		.byte	0x9f
 1004 029f 00000000 		.4byte	0x0
 1005 02a3 00000000 		.4byte	0x0
 1006              	.LLST27:
 1007 02a7 00000000 		.4byte	.LVL24
 1008 02ab 07000000 		.4byte	.LVL26-1
 1009 02af 0100     		.2byte	0x1
 1010 02b1 51       		.byte	0x51
 1011 02b2 00000000 		.4byte	0x0
 1012 02b6 00000000 		.4byte	0x0
 1013              	.LLST28:
 1014 02ba 00000000 		.4byte	.LFB66
 1015 02be 02000000 		.4byte	.LCFI6
 1016 02c2 0200     		.2byte	0x2
 1017 02c4 7D       		.byte	0x7d
 1018 02c5 00       		.sleb128 0
 1019 02c6 02000000 		.4byte	.LCFI6
 1020 02ca 0A000000 		.4byte	.LFE66
 1021 02ce 0200     		.2byte	0x2
 1022 02d0 7D       		.byte	0x7d
 1023 02d1 08       		.sleb128 8
 1024 02d2 00000000 		.4byte	0x0
 1025 02d6 00000000 		.4byte	0x0
 1026              	.LLST29:
 1027 02da 00000000 		.4byte	.LVL27
 1028 02de 04000000 		.4byte	.LVL28
 1029 02e2 0100     		.2byte	0x1
 1030 02e4 50       		.byte	0x50
 1031 02e5 04000000 		.4byte	.LVL28
 1032 02e9 07000000 		.4byte	.LVL29-1
 1033 02ed 0300     		.2byte	0x3
 1034 02ef 70       		.byte	0x70
 1035 02f0 50       		.sleb128 -48
 1036 02f1 9F       		.byte	0x9f
 1037 02f2 00000000 		.4byte	0x0
 1038 02f6 00000000 		.4byte	0x0
 1039              	.LLST30:
 1040 02fa 00000000 		.4byte	.LVL27
 1041 02fe 07000000 		.4byte	.LVL29-1
 1042 0302 0100     		.2byte	0x1
 1043 0304 51       		.byte	0x51
 1044 0305 00000000 		.4byte	0x0
 1045 0309 00000000 		.4byte	0x0
 1046              	.LLST31:
 1047 030d 00000000 		.4byte	.LVL27
 1048 0311 07000000 		.4byte	.LVL29-1
 1049 0315 0100     		.2byte	0x1
 1050 0317 52       		.byte	0x52
 1051 0318 00000000 		.4byte	0x0
 1052 031c 00000000 		.4byte	0x0
ARM GAS  C:\Users\z80\AppData\Local\Temp\ccBUDbvc.s 			page 20


 1053              	.LLST32:
 1054 0320 00000000 		.4byte	.LFB71
 1055 0324 02000000 		.4byte	.LCFI7
 1056 0328 0200     		.2byte	0x2
 1057 032a 7D       		.byte	0x7d
 1058 032b 00       		.sleb128 0
 1059 032c 02000000 		.4byte	.LCFI7
 1060 0330 08000000 		.4byte	.LFE71
 1061 0334 0200     		.2byte	0x2
 1062 0336 7D       		.byte	0x7d
 1063 0337 08       		.sleb128 8
 1064 0338 00000000 		.4byte	0x0
 1065 033c 00000000 		.4byte	0x0
 1066              	.LLST33:
 1067 0340 00000000 		.4byte	.LFB72
 1068 0344 02000000 		.4byte	.LCFI8
 1069 0348 0200     		.2byte	0x2
 1070 034a 7D       		.byte	0x7d
 1071 034b 00       		.sleb128 0
 1072 034c 02000000 		.4byte	.LCFI8
 1073 0350 4A000000 		.4byte	.LFE72
 1074 0354 0200     		.2byte	0x2
 1075 0356 7D       		.byte	0x7d
 1076 0357 10       		.sleb128 16
 1077 0358 00000000 		.4byte	0x0
 1078 035c 00000000 		.4byte	0x0
 1079              	.LLST34:
 1080 0360 00000000 		.4byte	.LVL30
 1081 0364 2E000000 		.4byte	.LVL32
 1082 0368 0100     		.2byte	0x1
 1083 036a 50       		.byte	0x50
 1084 036b 2E000000 		.4byte	.LVL32
 1085 036f 4A000000 		.4byte	.LFE72
 1086 0373 0100     		.2byte	0x1
 1087 0375 54       		.byte	0x54
 1088 0376 00000000 		.4byte	0x0
 1089 037a 00000000 		.4byte	0x0
 1090              	.LLST35:
 1091 037e 00000000 		.4byte	.LVL30
 1092 0382 08000000 		.4byte	.LVL31
 1093 0386 0100     		.2byte	0x1
 1094 0388 51       		.byte	0x51
 1095 0389 08000000 		.4byte	.LVL31
 1096 038d 37000000 		.4byte	.LVL34-1
 1097 0391 0100     		.2byte	0x1
 1098 0393 53       		.byte	0x53
 1099 0394 00000000 		.4byte	0x0
 1100 0398 00000000 		.4byte	0x0
 1101              	.LLST36:
 1102 039c 00000000 		.4byte	.LVL30
 1103 03a0 30000000 		.4byte	.LVL33
 1104 03a4 0100     		.2byte	0x1
 1105 03a6 52       		.byte	0x52
 1106 03a7 30000000 		.4byte	.LVL33
 1107 03ab 4A000000 		.4byte	.LFE72
 1108 03af 0100     		.2byte	0x1
 1109 03b1 55       		.byte	0x55
ARM GAS  C:\Users\z80\AppData\Local\Temp\ccBUDbvc.s 			page 21


 1110 03b2 00000000 		.4byte	0x0
 1111 03b6 00000000 		.4byte	0x0
 1112              	.LLST37:
 1113 03ba 00000000 		.4byte	.LFB73
 1114 03be 02000000 		.4byte	.LCFI9
 1115 03c2 0200     		.2byte	0x2
 1116 03c4 7D       		.byte	0x7d
 1117 03c5 00       		.sleb128 0
 1118 03c6 02000000 		.4byte	.LCFI9
 1119 03ca 4C000000 		.4byte	.LFE73
 1120 03ce 0200     		.2byte	0x2
 1121 03d0 7D       		.byte	0x7d
 1122 03d1 10       		.sleb128 16
 1123 03d2 00000000 		.4byte	0x0
 1124 03d6 00000000 		.4byte	0x0
 1125              	.LLST38:
 1126 03da 00000000 		.4byte	.LVL35
 1127 03de 08000000 		.4byte	.LVL36
 1128 03e2 0100     		.2byte	0x1
 1129 03e4 50       		.byte	0x50
 1130 03e5 08000000 		.4byte	.LVL36
 1131 03e9 4C000000 		.4byte	.LFE73
 1132 03ed 0100     		.2byte	0x1
 1133 03ef 54       		.byte	0x54
 1134 03f0 00000000 		.4byte	0x0
 1135 03f4 00000000 		.4byte	0x0
 1136              	.LLST39:
 1137 03f8 00000000 		.4byte	.LVL35
 1138 03fc 08000000 		.4byte	.LVL36
 1139 0400 0100     		.2byte	0x1
 1140 0402 51       		.byte	0x51
 1141 0403 08000000 		.4byte	.LVL36
 1142 0407 4C000000 		.4byte	.LFE73
 1143 040b 0100     		.2byte	0x1
 1144 040d 55       		.byte	0x55
 1145 040e 00000000 		.4byte	0x0
 1146 0412 00000000 		.4byte	0x0
 1147              	.LLST40:
 1148 0416 0E000000 		.4byte	.LVL38
 1149 041a 11000000 		.4byte	.LVL39-1
 1150 041e 0100     		.2byte	0x1
 1151 0420 53       		.byte	0x53
 1152 0421 00000000 		.4byte	0x0
 1153 0425 00000000 		.4byte	0x0
 1154              	.LLST41:
 1155 0429 38000000 		.4byte	.LVL41
 1156 042d 3A000000 		.4byte	.LVL42
 1157 0431 0100     		.2byte	0x1
 1158 0433 53       		.byte	0x53
 1159 0434 00000000 		.4byte	0x0
 1160 0438 00000000 		.4byte	0x0
 1161              	.LLST42:
 1162 043c 00000000 		.4byte	.LFB74
 1163 0440 02000000 		.4byte	.LCFI10
 1164 0444 0200     		.2byte	0x2
 1165 0446 7D       		.byte	0x7d
 1166 0447 00       		.sleb128 0
ARM GAS  C:\Users\z80\AppData\Local\Temp\ccBUDbvc.s 			page 22


 1167 0448 02000000 		.4byte	.LCFI10
 1168 044c 5C000000 		.4byte	.LFE74
 1169 0450 0200     		.2byte	0x2
 1170 0452 7D       		.byte	0x7d
 1171 0453 08       		.sleb128 8
 1172 0454 00000000 		.4byte	0x0
 1173 0458 00000000 		.4byte	0x0
 1174              	.LLST43:
 1175 045c 00000000 		.4byte	.LVL43
 1176 0460 06000000 		.4byte	.LVL44
 1177 0464 0100     		.2byte	0x1
 1178 0466 50       		.byte	0x50
 1179 0467 06000000 		.4byte	.LVL44
 1180 046b 5C000000 		.4byte	.LFE74
 1181 046f 0100     		.2byte	0x1
 1182 0471 54       		.byte	0x54
 1183 0472 00000000 		.4byte	0x0
 1184 0476 00000000 		.4byte	0x0
 1185              	.LLST44:
 1186 047a 0C000000 		.4byte	.LVL46
 1187 047e 0F000000 		.4byte	.LVL47-1
 1188 0482 0100     		.2byte	0x1
 1189 0484 53       		.byte	0x53
 1190 0485 00000000 		.4byte	0x0
 1191 0489 00000000 		.4byte	0x0
 1192              	.LLST45:
 1193 048d 48000000 		.4byte	.LVL49
 1194 0491 4A000000 		.4byte	.LVL50
 1195 0495 0100     		.2byte	0x1
 1196 0497 53       		.byte	0x53
 1197 0498 00000000 		.4byte	0x0
 1198 049c 00000000 		.4byte	0x0
 1199              	.LLST46:
 1200 04a0 00000000 		.4byte	.LFB75
 1201 04a4 02000000 		.4byte	.LCFI11
 1202 04a8 0200     		.2byte	0x2
 1203 04aa 7D       		.byte	0x7d
 1204 04ab 00       		.sleb128 0
 1205 04ac 02000000 		.4byte	.LCFI11
 1206 04b0 5C000000 		.4byte	.LFE75
 1207 04b4 0200     		.2byte	0x2
 1208 04b6 7D       		.byte	0x7d
 1209 04b7 10       		.sleb128 16
 1210 04b8 00000000 		.4byte	0x0
 1211 04bc 00000000 		.4byte	0x0
 1212              	.LLST47:
 1213 04c0 00000000 		.4byte	.LVL51
 1214 04c4 09000000 		.4byte	.LVL52-1
 1215 04c8 0100     		.2byte	0x1
 1216 04ca 50       		.byte	0x50
 1217 04cb 09000000 		.4byte	.LVL52-1
 1218 04cf 5C000000 		.4byte	.LFE75
 1219 04d3 0100     		.2byte	0x1
 1220 04d5 54       		.byte	0x54
 1221 04d6 00000000 		.4byte	0x0
 1222 04da 00000000 		.4byte	0x0
 1223              	.LLST48:
ARM GAS  C:\Users\z80\AppData\Local\Temp\ccBUDbvc.s 			page 23


 1224 04de 00000000 		.4byte	.LVL51
 1225 04e2 09000000 		.4byte	.LVL52-1
 1226 04e6 0100     		.2byte	0x1
 1227 04e8 51       		.byte	0x51
 1228 04e9 00000000 		.4byte	0x0
 1229 04ed 00000000 		.4byte	0x0
 1230              	.LLST49:
 1231 04f1 00000000 		.4byte	.LFB76
 1232 04f5 02000000 		.4byte	.LCFI12
 1233 04f9 0200     		.2byte	0x2
 1234 04fb 7D       		.byte	0x7d
 1235 04fc 00       		.sleb128 0
 1236 04fd 02000000 		.4byte	.LCFI12
 1237 0501 3C000000 		.4byte	.LFE76
 1238 0505 0200     		.2byte	0x2
 1239 0507 7D       		.byte	0x7d
 1240 0508 10       		.sleb128 16
 1241 0509 00000000 		.4byte	0x0
 1242 050d 00000000 		.4byte	0x0
 1243              	.LLST50:
 1244 0511 00000000 		.4byte	.LVL53
 1245 0515 07000000 		.4byte	.LVL54-1
 1246 0519 0100     		.2byte	0x1
 1247 051b 50       		.byte	0x50
 1248 051c 07000000 		.4byte	.LVL54-1
 1249 0520 3C000000 		.4byte	.LFE76
 1250 0524 0100     		.2byte	0x1
 1251 0526 55       		.byte	0x55
 1252 0527 00000000 		.4byte	0x0
 1253 052b 00000000 		.4byte	0x0
 1254              	.LLST51:
 1255 052f 16000000 		.4byte	.LVL55
 1256 0533 18000000 		.4byte	.LVL56
 1257 0537 0100     		.2byte	0x1
 1258 0539 50       		.byte	0x50
 1259 053a 18000000 		.4byte	.LVL56
 1260 053e 2E000000 		.4byte	.LVL57
 1261 0542 0100     		.2byte	0x1
 1262 0544 54       		.byte	0x54
 1263 0545 00000000 		.4byte	0x0
 1264 0549 00000000 		.4byte	0x0
 1265              		.file 2 "c:\\programs\\yagarto\\bin\\../lib/gcc/arm-none-eabi/4.5.0/include/stddef.h"
 1266              		.file 3 "c:/programs/yagarto/lib/gcc/../../arm-none-eabi/sys-include/stdint.h"
 1267              		.file 4 "../chibios_2.4.x/os/ports/GCC/ARMCMx/chtypes.h"
 1268              		.file 5 "../chibios_2.4.x/os/kernel/include/chlists.h"
 1269              		.file 6 "../chibios_2.4.x/os/kernel/include/chthreads.h"
 1270              		.file 7 "../chibios_2.4.x/os/ports/GCC/ARMCMx/chcore_v7m.h"
 1271              		.file 8 "../chibios_2.4.x/os/kernel/include/chmtx.h"
 1272              		.file 9 "../chibios_2.4.x/os/kernel/include/chevents.h"
 1273              		.file 10 "../chibios_2.4.x/os/kernel/include/chqueues.h"
 1274              		.file 11 "../chibios_2.4.x/os/kernel/include/chioch.h"
 1275              		.file 12 "../chibios_2.4.x/os/hal/platforms/STM32F1xx/stm32f10x.h"
 1276              		.file 13 "../chibios_2.4.x/os/hal/include/serial.h"
 1277              		.file 14 "../chibios_2.4.x/os/hal/platforms/STM32/serial_lld.h"
 1278              		.file 15 "../chibios_2.4.x/os/ports/common/ARMCMx/CMSIS/include/core_cm3.h"
 1279              		.section	.debug_info
 1280 0000 DF0D0000 		.4byte	0xddf
ARM GAS  C:\Users\z80\AppData\Local\Temp\ccBUDbvc.s 			page 24


 1281 0004 0200     		.2byte	0x2
 1282 0006 00000000 		.4byte	.Ldebug_abbrev0
 1283 000a 04       		.byte	0x4
 1284 000b 01       		.uleb128 0x1
 1285 000c B6040000 		.4byte	.LASF124
 1286 0010 01       		.byte	0x1
 1287 0011 00000000 		.4byte	.LASF125
 1288 0015 86020000 		.4byte	.LASF126
 1289 0019 00000000 		.4byte	0x0
 1290 001d 00000000 		.4byte	0x0
 1291 0021 18000000 		.4byte	.Ldebug_ranges0+0x18
 1292 0025 00000000 		.4byte	.Ldebug_line0
 1293 0029 02       		.uleb128 0x2
 1294 002a 04       		.byte	0x4
 1295 002b 05       		.byte	0x5
 1296 002c 696E7400 		.ascii	"int\000"
 1297 0030 03       		.uleb128 0x3
 1298 0031 2E000000 		.4byte	.LASF2
 1299 0035 02       		.byte	0x2
 1300 0036 D3       		.byte	0xd3
 1301 0037 3B000000 		.4byte	0x3b
 1302 003b 04       		.uleb128 0x4
 1303 003c 04       		.byte	0x4
 1304 003d 07       		.byte	0x7
 1305 003e 65010000 		.4byte	.LASF0
 1306 0042 04       		.uleb128 0x4
 1307 0043 01       		.byte	0x1
 1308 0044 06       		.byte	0x6
 1309 0045 C9000000 		.4byte	.LASF1
 1310 0049 03       		.uleb128 0x3
 1311 004a 92040000 		.4byte	.LASF3
 1312 004e 03       		.byte	0x3
 1313 004f 2A       		.byte	0x2a
 1314 0050 54000000 		.4byte	0x54
 1315 0054 04       		.uleb128 0x4
 1316 0055 01       		.byte	0x1
 1317 0056 08       		.byte	0x8
 1318 0057 25030000 		.4byte	.LASF4
 1319 005b 04       		.uleb128 0x4
 1320 005c 02       		.byte	0x2
 1321 005d 05       		.byte	0x5
 1322 005e 5F030000 		.4byte	.LASF5
 1323 0062 03       		.uleb128 0x3
 1324 0063 72010000 		.4byte	.LASF6
 1325 0067 03       		.byte	0x3
 1326 0068 36       		.byte	0x36
 1327 0069 6D000000 		.4byte	0x6d
 1328 006d 04       		.uleb128 0x4
 1329 006e 02       		.byte	0x2
 1330 006f 07       		.byte	0x7
 1331 0070 BF010000 		.4byte	.LASF7
 1332 0074 03       		.uleb128 0x3
 1333 0075 1D030000 		.4byte	.LASF8
 1334 0079 03       		.byte	0x3
 1335 007a 4F       		.byte	0x4f
 1336 007b 7F000000 		.4byte	0x7f
 1337 007f 04       		.uleb128 0x4
ARM GAS  C:\Users\z80\AppData\Local\Temp\ccBUDbvc.s 			page 25


 1338 0080 04       		.byte	0x4
 1339 0081 05       		.byte	0x5
 1340 0082 F7000000 		.4byte	.LASF9
 1341 0086 03       		.uleb128 0x3
 1342 0087 AD030000 		.4byte	.LASF10
 1343 008b 03       		.byte	0x3
 1344 008c 50       		.byte	0x50
 1345 008d 91000000 		.4byte	0x91
 1346 0091 04       		.uleb128 0x4
 1347 0092 04       		.byte	0x4
 1348 0093 07       		.byte	0x7
 1349 0094 CD030000 		.4byte	.LASF11
 1350 0098 04       		.uleb128 0x4
 1351 0099 08       		.byte	0x8
 1352 009a 05       		.byte	0x5
 1353 009b BB000000 		.4byte	.LASF12
 1354 009f 03       		.uleb128 0x3
 1355 00a0 3C000000 		.4byte	.LASF13
 1356 00a4 03       		.byte	0x3
 1357 00a5 78       		.byte	0x78
 1358 00a6 AA000000 		.4byte	0xaa
 1359 00aa 04       		.uleb128 0x4
 1360 00ab 08       		.byte	0x8
 1361 00ac 07       		.byte	0x7
 1362 00ad 6B000000 		.4byte	.LASF14
 1363 00b1 03       		.uleb128 0x3
 1364 00b2 5D000000 		.4byte	.LASF15
 1365 00b6 03       		.byte	0x3
 1366 00b7 A6       		.byte	0xa6
 1367 00b8 3B000000 		.4byte	0x3b
 1368 00bc 03       		.uleb128 0x3
 1369 00bd E2000000 		.4byte	.LASF16
 1370 00c1 04       		.byte	0x4
 1371 00c2 2E       		.byte	0x2e
 1372 00c3 74000000 		.4byte	0x74
 1373 00c7 03       		.uleb128 0x3
 1374 00c8 ED010000 		.4byte	.LASF17
 1375 00cc 04       		.byte	0x4
 1376 00cd 2F       		.byte	0x2f
 1377 00ce 49000000 		.4byte	0x49
 1378 00d2 03       		.uleb128 0x3
 1379 00d3 00010000 		.4byte	.LASF18
 1380 00d7 04       		.byte	0x4
 1381 00d8 30       		.byte	0x30
 1382 00d9 49000000 		.4byte	0x49
 1383 00dd 03       		.uleb128 0x3
 1384 00de 0D030000 		.4byte	.LASF19
 1385 00e2 04       		.byte	0x4
 1386 00e3 32       		.byte	0x32
 1387 00e4 86000000 		.4byte	0x86
 1388 00e8 03       		.uleb128 0x3
 1389 00e9 D2010000 		.4byte	.LASF20
 1390 00ed 04       		.byte	0x4
 1391 00ee 33       		.byte	0x33
 1392 00ef 74000000 		.4byte	0x74
 1393 00f3 03       		.uleb128 0x3
 1394 00f4 51000000 		.4byte	.LASF21
ARM GAS  C:\Users\z80\AppData\Local\Temp\ccBUDbvc.s 			page 26


 1395 00f8 04       		.byte	0x4
 1396 00f9 35       		.byte	0x35
 1397 00fa 86000000 		.4byte	0x86
 1398 00fe 03       		.uleb128 0x3
 1399 00ff 0F040000 		.4byte	.LASF22
 1400 0103 04       		.byte	0x4
 1401 0104 36       		.byte	0x36
 1402 0105 86000000 		.4byte	0x86
 1403 0109 03       		.uleb128 0x3
 1404 010a 87030000 		.4byte	.LASF23
 1405 010e 05       		.byte	0x5
 1406 010f 2A       		.byte	0x2a
 1407 0110 14010000 		.4byte	0x114
 1408 0114 05       		.uleb128 0x5
 1409 0115 87030000 		.4byte	.LASF23
 1410 0119 48       		.byte	0x48
 1411 011a 06       		.byte	0x6
 1412 011b 5E       		.byte	0x5e
 1413 011c 1D020000 		.4byte	0x21d
 1414 0120 06       		.uleb128 0x6
 1415 0121 70030000 		.4byte	.LASF24
 1416 0125 06       		.byte	0x6
 1417 0126 5F       		.byte	0x5f
 1418 0127 42020000 		.4byte	0x242
 1419 012b 02       		.byte	0x2
 1420 012c 23       		.byte	0x23
 1421 012d 00       		.uleb128 0x0
 1422 012e 06       		.uleb128 0x6
 1423 012f FC020000 		.4byte	.LASF25
 1424 0133 06       		.byte	0x6
 1425 0134 61       		.byte	0x61
 1426 0135 42020000 		.4byte	0x242
 1427 0139 02       		.byte	0x2
 1428 013a 23       		.byte	0x23
 1429 013b 04       		.uleb128 0x4
 1430 013c 06       		.uleb128 0x6
 1431 013d 4F020000 		.4byte	.LASF26
 1432 0141 06       		.byte	0x6
 1433 0142 63       		.byte	0x63
 1434 0143 DD000000 		.4byte	0xdd
 1435 0147 02       		.byte	0x2
 1436 0148 23       		.byte	0x23
 1437 0149 08       		.uleb128 0x8
 1438 014a 06       		.uleb128 0x6
 1439 014b FB040000 		.4byte	.LASF27
 1440 014f 06       		.byte	0x6
 1441 0150 64       		.byte	0x64
 1442 0151 1A030000 		.4byte	0x31a
 1443 0155 02       		.byte	0x2
 1444 0156 23       		.byte	0x23
 1445 0157 0C       		.uleb128 0xc
 1446 0158 06       		.uleb128 0x6
 1447 0159 1A010000 		.4byte	.LASF28
 1448 015d 06       		.byte	0x6
 1449 015e 66       		.byte	0x66
 1450 015f 42020000 		.4byte	0x242
 1451 0163 02       		.byte	0x2
ARM GAS  C:\Users\z80\AppData\Local\Temp\ccBUDbvc.s 			page 27


 1452 0164 23       		.byte	0x23
 1453 0165 10       		.uleb128 0x10
 1454 0166 06       		.uleb128 0x6
 1455 0167 5E020000 		.4byte	.LASF29
 1456 016b 06       		.byte	0x6
 1457 016c 67       		.byte	0x67
 1458 016d 42020000 		.4byte	0x242
 1459 0171 02       		.byte	0x2
 1460 0172 23       		.byte	0x23
 1461 0173 14       		.uleb128 0x14
 1462 0174 06       		.uleb128 0x6
 1463 0175 65040000 		.4byte	.LASF30
 1464 0179 06       		.byte	0x6
 1465 017a 6E       		.byte	0x6e
 1466 017b 30040000 		.4byte	0x430
 1467 017f 02       		.byte	0x2
 1468 0180 23       		.byte	0x23
 1469 0181 18       		.uleb128 0x18
 1470 0182 06       		.uleb128 0x6
 1471 0183 24040000 		.4byte	.LASF31
 1472 0187 06       		.byte	0x6
 1473 0188 74       		.byte	0x74
 1474 0189 42040000 		.4byte	0x442
 1475 018d 02       		.byte	0x2
 1476 018e 23       		.byte	0x23
 1477 018f 1C       		.uleb128 0x1c
 1478 0190 06       		.uleb128 0x6
 1479 0191 4D030000 		.4byte	.LASF32
 1480 0195 06       		.byte	0x6
 1481 0196 79       		.byte	0x79
 1482 0197 D2000000 		.4byte	0xd2
 1483 019b 02       		.byte	0x2
 1484 019c 23       		.byte	0x23
 1485 019d 20       		.uleb128 0x20
 1486 019e 06       		.uleb128 0x6
 1487 019f 77030000 		.4byte	.LASF33
 1488 01a3 06       		.byte	0x6
 1489 01a4 7D       		.byte	0x7d
 1490 01a5 C7000000 		.4byte	0xc7
 1491 01a9 02       		.byte	0x2
 1492 01aa 23       		.byte	0x23
 1493 01ab 21       		.uleb128 0x21
 1494 01ac 06       		.uleb128 0x6
 1495 01ad 8B010000 		.4byte	.LASF34
 1496 01b1 06       		.byte	0x6
 1497 01b2 89       		.byte	0x89
 1498 01b3 40030000 		.4byte	0x340
 1499 01b7 02       		.byte	0x2
 1500 01b8 23       		.byte	0x23
 1501 01b9 24       		.uleb128 0x24
 1502 01ba 07       		.uleb128 0x7
 1503 01bb 705F7500 		.ascii	"p_u\000"
 1504 01bf 06       		.byte	0x6
 1505 01c0 AE       		.byte	0xae
 1506 01c1 FB030000 		.4byte	0x3fb
 1507 01c5 02       		.byte	0x2
 1508 01c6 23       		.byte	0x23
ARM GAS  C:\Users\z80\AppData\Local\Temp\ccBUDbvc.s 			page 28


 1509 01c7 28       		.uleb128 0x28
 1510 01c8 06       		.uleb128 0x6
 1511 01c9 01050000 		.4byte	.LASF35
 1512 01cd 06       		.byte	0x6
 1513 01ce B3       		.byte	0xb3
 1514 01cf 6A020000 		.4byte	0x26a
 1515 01d3 02       		.byte	0x2
 1516 01d4 23       		.byte	0x23
 1517 01d5 2C       		.uleb128 0x2c
 1518 01d6 06       		.uleb128 0x6
 1519 01d7 A1010000 		.4byte	.LASF36
 1520 01db 06       		.byte	0x6
 1521 01dc B9       		.byte	0xb9
 1522 01dd 48020000 		.4byte	0x248
 1523 01e1 02       		.byte	0x2
 1524 01e2 23       		.byte	0x23
 1525 01e3 30       		.uleb128 0x30
 1526 01e4 06       		.uleb128 0x6
 1527 01e5 7D040000 		.4byte	.LASF37
 1528 01e9 06       		.byte	0x6
 1529 01ea BD       		.byte	0xbd
 1530 01eb E8000000 		.4byte	0xe8
 1531 01ef 02       		.byte	0x2
 1532 01f0 23       		.byte	0x23
 1533 01f1 38       		.uleb128 0x38
 1534 01f2 06       		.uleb128 0x6
 1535 01f3 8E030000 		.4byte	.LASF38
 1536 01f7 06       		.byte	0x6
 1537 01f8 C3       		.byte	0xc3
 1538 01f9 F3000000 		.4byte	0xf3
 1539 01fd 02       		.byte	0x2
 1540 01fe 23       		.byte	0x23
 1541 01ff 3C       		.uleb128 0x3c
 1542 0200 06       		.uleb128 0x6
 1543 0201 55030000 		.4byte	.LASF39
 1544 0205 06       		.byte	0x6
 1545 0206 CA       		.byte	0xca
 1546 0207 48040000 		.4byte	0x448
 1547 020b 02       		.byte	0x2
 1548 020c 23       		.byte	0x23
 1549 020d 40       		.uleb128 0x40
 1550 020e 06       		.uleb128 0x6
 1551 020f 19040000 		.4byte	.LASF40
 1552 0213 06       		.byte	0x6
 1553 0214 CE       		.byte	0xce
 1554 0215 DD000000 		.4byte	0xdd
 1555 0219 02       		.byte	0x2
 1556 021a 23       		.byte	0x23
 1557 021b 44       		.uleb128 0x44
 1558 021c 00       		.byte	0x0
 1559 021d 08       		.uleb128 0x8
 1560 021e 08       		.byte	0x8
 1561 021f 05       		.byte	0x5
 1562 0220 61       		.byte	0x61
 1563 0221 42020000 		.4byte	0x242
 1564 0225 06       		.uleb128 0x6
 1565 0226 70030000 		.4byte	.LASF24
ARM GAS  C:\Users\z80\AppData\Local\Temp\ccBUDbvc.s 			page 29


 1566 022a 05       		.byte	0x5
 1567 022b 62       		.byte	0x62
 1568 022c 42020000 		.4byte	0x242
 1569 0230 02       		.byte	0x2
 1570 0231 23       		.byte	0x23
 1571 0232 00       		.uleb128 0x0
 1572 0233 06       		.uleb128 0x6
 1573 0234 FC020000 		.4byte	.LASF25
 1574 0238 05       		.byte	0x5
 1575 0239 64       		.byte	0x64
 1576 023a 42020000 		.4byte	0x242
 1577 023e 02       		.byte	0x2
 1578 023f 23       		.byte	0x23
 1579 0240 04       		.uleb128 0x4
 1580 0241 00       		.byte	0x0
 1581 0242 09       		.uleb128 0x9
 1582 0243 04       		.byte	0x4
 1583 0244 09010000 		.4byte	0x109
 1584 0248 03       		.uleb128 0x3
 1585 0249 79020000 		.4byte	.LASF41
 1586 024d 05       		.byte	0x5
 1587 024e 66       		.byte	0x66
 1588 024f 1D020000 		.4byte	0x21d
 1589 0253 08       		.uleb128 0x8
 1590 0254 04       		.byte	0x4
 1591 0255 05       		.byte	0x5
 1592 0256 6B       		.byte	0x6b
 1593 0257 6A020000 		.4byte	0x26a
 1594 025b 06       		.uleb128 0x6
 1595 025c 70030000 		.4byte	.LASF24
 1596 0260 05       		.byte	0x5
 1597 0261 6D       		.byte	0x6d
 1598 0262 42020000 		.4byte	0x242
 1599 0266 02       		.byte	0x2
 1600 0267 23       		.byte	0x23
 1601 0268 00       		.uleb128 0x0
 1602 0269 00       		.byte	0x0
 1603 026a 03       		.uleb128 0x3
 1604 026b F5010000 		.4byte	.LASF42
 1605 026f 05       		.byte	0x5
 1606 0270 70       		.byte	0x70
 1607 0271 53020000 		.4byte	0x253
 1608 0275 03       		.uleb128 0x3
 1609 0276 35010000 		.4byte	.LASF43
 1610 027a 07       		.byte	0x7
 1611 027b D7       		.byte	0xd7
 1612 027c 80020000 		.4byte	0x280
 1613 0280 0A       		.uleb128 0xa
 1614 0281 04       		.byte	0x4
 1615 0282 03       		.uleb128 0x3
 1616 0283 29020000 		.4byte	.LASF44
 1617 0287 07       		.byte	0x7
 1618 0288 DD       		.byte	0xdd
 1619 0289 9F000000 		.4byte	0x9f
 1620 028d 05       		.uleb128 0x5
 1621 028e 4F040000 		.4byte	.LASF45
 1622 0292 24       		.byte	0x24
ARM GAS  C:\Users\z80\AppData\Local\Temp\ccBUDbvc.s 			page 30


 1623 0293 07       		.byte	0x7
 1624 0294 FE       		.byte	0xfe
 1625 0295 1A030000 		.4byte	0x31a
 1626 0299 0B       		.uleb128 0xb
 1627 029a 723400   		.ascii	"r4\000"
 1628 029d 07       		.byte	0x7
 1629 029e 1101     		.2byte	0x111
 1630 02a0 75020000 		.4byte	0x275
 1631 02a4 02       		.byte	0x2
 1632 02a5 23       		.byte	0x23
 1633 02a6 00       		.uleb128 0x0
 1634 02a7 0B       		.uleb128 0xb
 1635 02a8 723500   		.ascii	"r5\000"
 1636 02ab 07       		.byte	0x7
 1637 02ac 1201     		.2byte	0x112
 1638 02ae 75020000 		.4byte	0x275
 1639 02b2 02       		.byte	0x2
 1640 02b3 23       		.byte	0x23
 1641 02b4 04       		.uleb128 0x4
 1642 02b5 0B       		.uleb128 0xb
 1643 02b6 723600   		.ascii	"r6\000"
 1644 02b9 07       		.byte	0x7
 1645 02ba 1301     		.2byte	0x113
 1646 02bc 75020000 		.4byte	0x275
 1647 02c0 02       		.byte	0x2
 1648 02c1 23       		.byte	0x23
 1649 02c2 08       		.uleb128 0x8
 1650 02c3 0B       		.uleb128 0xb
 1651 02c4 723700   		.ascii	"r7\000"
 1652 02c7 07       		.byte	0x7
 1653 02c8 1401     		.2byte	0x114
 1654 02ca 75020000 		.4byte	0x275
 1655 02ce 02       		.byte	0x2
 1656 02cf 23       		.byte	0x23
 1657 02d0 0C       		.uleb128 0xc
 1658 02d1 0B       		.uleb128 0xb
 1659 02d2 723800   		.ascii	"r8\000"
 1660 02d5 07       		.byte	0x7
 1661 02d6 1501     		.2byte	0x115
 1662 02d8 75020000 		.4byte	0x275
 1663 02dc 02       		.byte	0x2
 1664 02dd 23       		.byte	0x23
 1665 02de 10       		.uleb128 0x10
 1666 02df 0B       		.uleb128 0xb
 1667 02e0 723900   		.ascii	"r9\000"
 1668 02e3 07       		.byte	0x7
 1669 02e4 1601     		.2byte	0x116
 1670 02e6 75020000 		.4byte	0x275
 1671 02ea 02       		.byte	0x2
 1672 02eb 23       		.byte	0x23
 1673 02ec 14       		.uleb128 0x14
 1674 02ed 0B       		.uleb128 0xb
 1675 02ee 72313000 		.ascii	"r10\000"
 1676 02f2 07       		.byte	0x7
 1677 02f3 1701     		.2byte	0x117
 1678 02f5 75020000 		.4byte	0x275
 1679 02f9 02       		.byte	0x2
ARM GAS  C:\Users\z80\AppData\Local\Temp\ccBUDbvc.s 			page 31


 1680 02fa 23       		.byte	0x23
 1681 02fb 18       		.uleb128 0x18
 1682 02fc 0B       		.uleb128 0xb
 1683 02fd 72313100 		.ascii	"r11\000"
 1684 0301 07       		.byte	0x7
 1685 0302 1801     		.2byte	0x118
 1686 0304 75020000 		.4byte	0x275
 1687 0308 02       		.byte	0x2
 1688 0309 23       		.byte	0x23
 1689 030a 1C       		.uleb128 0x1c
 1690 030b 0B       		.uleb128 0xb
 1691 030c 6C7200   		.ascii	"lr\000"
 1692 030f 07       		.byte	0x7
 1693 0310 1901     		.2byte	0x119
 1694 0312 75020000 		.4byte	0x275
 1695 0316 02       		.byte	0x2
 1696 0317 23       		.byte	0x23
 1697 0318 20       		.uleb128 0x20
 1698 0319 00       		.byte	0x0
 1699 031a 0C       		.uleb128 0xc
 1700 031b 47040000 		.4byte	.LASF46
 1701 031f 04       		.byte	0x4
 1702 0320 07       		.byte	0x7
 1703 0321 2301     		.2byte	0x123
 1704 0323 37030000 		.4byte	0x337
 1705 0327 0B       		.uleb128 0xb
 1706 0328 72313300 		.ascii	"r13\000"
 1707 032c 07       		.byte	0x7
 1708 032d 2401     		.2byte	0x124
 1709 032f 37030000 		.4byte	0x337
 1710 0333 02       		.byte	0x2
 1711 0334 23       		.byte	0x23
 1712 0335 00       		.uleb128 0x0
 1713 0336 00       		.byte	0x0
 1714 0337 09       		.uleb128 0x9
 1715 0338 04       		.byte	0x4
 1716 0339 8D020000 		.4byte	0x28d
 1717 033d 0D       		.uleb128 0xd
 1718 033e 04       		.byte	0x4
 1719 033f 07       		.byte	0x7
 1720 0340 0E       		.uleb128 0xe
 1721 0341 FE000000 		.4byte	0xfe
 1722 0345 05       		.uleb128 0x5
 1723 0346 49020000 		.4byte	.LASF47
 1724 034a 10       		.byte	0x10
 1725 034b 08       		.byte	0x8
 1726 034c 2C       		.byte	0x2c
 1727 034d 7C030000 		.4byte	0x37c
 1728 0351 06       		.uleb128 0x6
 1729 0352 E9000000 		.4byte	.LASF48
 1730 0356 08       		.byte	0x8
 1731 0357 2D       		.byte	0x2d
 1732 0358 48020000 		.4byte	0x248
 1733 035c 02       		.byte	0x2
 1734 035d 23       		.byte	0x23
 1735 035e 00       		.uleb128 0x0
 1736 035f 06       		.uleb128 0x6
ARM GAS  C:\Users\z80\AppData\Local\Temp\ccBUDbvc.s 			page 32


 1737 0360 F3040000 		.4byte	.LASF49
 1738 0364 08       		.byte	0x8
 1739 0365 2F       		.byte	0x2f
 1740 0366 42020000 		.4byte	0x242
 1741 036a 02       		.byte	0x2
 1742 036b 23       		.byte	0x23
 1743 036c 08       		.uleb128 0x8
 1744 036d 06       		.uleb128 0x6
 1745 036e 08040000 		.4byte	.LASF50
 1746 0372 08       		.byte	0x8
 1747 0373 31       		.byte	0x31
 1748 0374 7C030000 		.4byte	0x37c
 1749 0378 02       		.byte	0x2
 1750 0379 23       		.byte	0x23
 1751 037a 0C       		.uleb128 0xc
 1752 037b 00       		.byte	0x0
 1753 037c 09       		.uleb128 0x9
 1754 037d 04       		.byte	0x4
 1755 037e 45030000 		.4byte	0x345
 1756 0382 03       		.uleb128 0x3
 1757 0383 49020000 		.4byte	.LASF47
 1758 0387 08       		.byte	0x8
 1759 0388 33       		.byte	0x33
 1760 0389 45030000 		.4byte	0x345
 1761 038d 03       		.uleb128 0x3
 1762 038e A8040000 		.4byte	.LASF51
 1763 0392 09       		.byte	0x9
 1764 0393 29       		.byte	0x29
 1765 0394 98030000 		.4byte	0x398
 1766 0398 05       		.uleb128 0x5
 1767 0399 A8040000 		.4byte	.LASF51
 1768 039d 0C       		.byte	0xc
 1769 039e 09       		.byte	0x9
 1770 039f 2E       		.byte	0x2e
 1771 03a0 CF030000 		.4byte	0x3cf
 1772 03a4 06       		.uleb128 0x6
 1773 03a5 7F030000 		.4byte	.LASF52
 1774 03a9 09       		.byte	0x9
 1775 03aa 2F       		.byte	0x2f
 1776 03ab CF030000 		.4byte	0x3cf
 1777 03af 02       		.byte	0x2
 1778 03b0 23       		.byte	0x23
 1779 03b1 00       		.uleb128 0x0
 1780 03b2 06       		.uleb128 0x6
 1781 03b3 41030000 		.4byte	.LASF53
 1782 03b7 09       		.byte	0x9
 1783 03b8 32       		.byte	0x32
 1784 03b9 42020000 		.4byte	0x242
 1785 03bd 02       		.byte	0x2
 1786 03be 23       		.byte	0x23
 1787 03bf 04       		.uleb128 0x4
 1788 03c0 06       		.uleb128 0x6
 1789 03c1 56020000 		.4byte	.LASF54
 1790 03c5 09       		.byte	0x9
 1791 03c6 34       		.byte	0x34
 1792 03c7 F3000000 		.4byte	0xf3
 1793 03cb 02       		.byte	0x2
ARM GAS  C:\Users\z80\AppData\Local\Temp\ccBUDbvc.s 			page 33


 1794 03cc 23       		.byte	0x23
 1795 03cd 08       		.uleb128 0x8
 1796 03ce 00       		.byte	0x0
 1797 03cf 09       		.uleb128 0x9
 1798 03d0 04       		.byte	0x4
 1799 03d1 8D030000 		.4byte	0x38d
 1800 03d5 05       		.uleb128 0x5
 1801 03d6 3E010000 		.4byte	.LASF55
 1802 03da 04       		.byte	0x4
 1803 03db 09       		.byte	0x9
 1804 03dc 3C       		.byte	0x3c
 1805 03dd F0030000 		.4byte	0x3f0
 1806 03e1 06       		.uleb128 0x6
 1807 03e2 6C040000 		.4byte	.LASF56
 1808 03e6 09       		.byte	0x9
 1809 03e7 3D       		.byte	0x3d
 1810 03e8 CF030000 		.4byte	0x3cf
 1811 03ec 02       		.byte	0x2
 1812 03ed 23       		.byte	0x23
 1813 03ee 00       		.uleb128 0x0
 1814 03ef 00       		.byte	0x0
 1815 03f0 03       		.uleb128 0x3
 1816 03f1 3E010000 		.4byte	.LASF55
 1817 03f5 09       		.byte	0x9
 1818 03f6 40       		.byte	0x40
 1819 03f7 D5030000 		.4byte	0x3d5
 1820 03fb 0F       		.uleb128 0xf
 1821 03fc 04       		.byte	0x4
 1822 03fd 06       		.byte	0x6
 1823 03fe 90       		.byte	0x90
 1824 03ff 30040000 		.4byte	0x430
 1825 0403 10       		.uleb128 0x10
 1826 0404 35000000 		.4byte	.LASF57
 1827 0408 06       		.byte	0x6
 1828 0409 97       		.byte	0x97
 1829 040a E8000000 		.4byte	0xe8
 1830 040e 10       		.uleb128 0x10
 1831 040f 82000000 		.4byte	.LASF58
 1832 0413 06       		.byte	0x6
 1833 0414 9E       		.byte	0x9e
 1834 0415 E8000000 		.4byte	0xe8
 1835 0419 10       		.uleb128 0x10
 1836 041a C2040000 		.4byte	.LASF59
 1837 041e 06       		.byte	0x6
 1838 041f A5       		.byte	0xa5
 1839 0420 80020000 		.4byte	0x280
 1840 0424 10       		.uleb128 0x10
 1841 0425 69030000 		.4byte	.LASF60
 1842 0429 06       		.byte	0x6
 1843 042a AC       		.byte	0xac
 1844 042b F3000000 		.4byte	0xf3
 1845 042f 00       		.byte	0x0
 1846 0430 09       		.uleb128 0x9
 1847 0431 04       		.byte	0x4
 1848 0432 36040000 		.4byte	0x436
 1849 0436 11       		.uleb128 0x11
 1850 0437 3B040000 		.4byte	0x43b
ARM GAS  C:\Users\z80\AppData\Local\Temp\ccBUDbvc.s 			page 34


 1851 043b 04       		.uleb128 0x4
 1852 043c 01       		.byte	0x1
 1853 043d 08       		.byte	0x8
 1854 043e E4030000 		.4byte	.LASF61
 1855 0442 09       		.uleb128 0x9
 1856 0443 04       		.byte	0x4
 1857 0444 82020000 		.4byte	0x282
 1858 0448 09       		.uleb128 0x9
 1859 0449 04       		.byte	0x4
 1860 044a 82030000 		.4byte	0x382
 1861 044e 03       		.uleb128 0x3
 1862 044f 1C020000 		.4byte	.LASF62
 1863 0453 0A       		.byte	0xa
 1864 0454 37       		.byte	0x37
 1865 0455 59040000 		.4byte	0x459
 1866 0459 05       		.uleb128 0x5
 1867 045a 1C020000 		.4byte	.LASF62
 1868 045e 20       		.byte	0x20
 1869 045f 0A       		.byte	0xa
 1870 0460 45       		.byte	0x45
 1871 0461 C8040000 		.4byte	0x4c8
 1872 0465 06       		.uleb128 0x6
 1873 0466 B1000000 		.4byte	.LASF63
 1874 046a 0A       		.byte	0xa
 1875 046b 46       		.byte	0x46
 1876 046c 48020000 		.4byte	0x248
 1877 0470 02       		.byte	0x2
 1878 0471 23       		.byte	0x23
 1879 0472 00       		.uleb128 0x0
 1880 0473 06       		.uleb128 0x6
 1881 0474 3F020000 		.4byte	.LASF64
 1882 0478 0A       		.byte	0xa
 1883 0479 47       		.byte	0x47
 1884 047a 30000000 		.4byte	0x30
 1885 047e 02       		.byte	0x2
 1886 047f 23       		.byte	0x23
 1887 0480 08       		.uleb128 0x8
 1888 0481 06       		.uleb128 0x6
 1889 0482 09010000 		.4byte	.LASF65
 1890 0486 0A       		.byte	0xa
 1891 0487 48       		.byte	0x48
 1892 0488 EB040000 		.4byte	0x4eb
 1893 048c 02       		.byte	0x2
 1894 048d 23       		.byte	0x23
 1895 048e 0C       		.uleb128 0xc
 1896 048f 06       		.uleb128 0x6
 1897 0490 5F040000 		.4byte	.LASF66
 1898 0494 0A       		.byte	0xa
 1899 0495 49       		.byte	0x49
 1900 0496 EB040000 		.4byte	0x4eb
 1901 049a 02       		.byte	0x2
 1902 049b 23       		.byte	0x23
 1903 049c 10       		.uleb128 0x10
 1904 049d 06       		.uleb128 0x6
 1905 049e 12010000 		.4byte	.LASF67
 1906 04a2 0A       		.byte	0xa
 1907 04a3 4B       		.byte	0x4b
ARM GAS  C:\Users\z80\AppData\Local\Temp\ccBUDbvc.s 			page 35


 1908 04a4 EB040000 		.4byte	0x4eb
 1909 04a8 02       		.byte	0x2
 1910 04a9 23       		.byte	0x23
 1911 04aa 14       		.uleb128 0x14
 1912 04ab 06       		.uleb128 0x6
 1913 04ac 15030000 		.4byte	.LASF68
 1914 04b0 0A       		.byte	0xa
 1915 04b1 4C       		.byte	0x4c
 1916 04b2 EB040000 		.4byte	0x4eb
 1917 04b6 02       		.byte	0x2
 1918 04b7 23       		.byte	0x23
 1919 04b8 18       		.uleb128 0x18
 1920 04b9 06       		.uleb128 0x6
 1921 04ba 74040000 		.4byte	.LASF69
 1922 04be 0A       		.byte	0xa
 1923 04bf 4D       		.byte	0x4d
 1924 04c0 C8040000 		.4byte	0x4c8
 1925 04c4 02       		.byte	0x2
 1926 04c5 23       		.byte	0x23
 1927 04c6 1C       		.uleb128 0x1c
 1928 04c7 00       		.byte	0x0
 1929 04c8 03       		.uleb128 0x3
 1930 04c9 12020000 		.4byte	.LASF70
 1931 04cd 0A       		.byte	0xa
 1932 04ce 3A       		.byte	0x3a
 1933 04cf D3040000 		.4byte	0x4d3
 1934 04d3 09       		.uleb128 0x9
 1935 04d4 04       		.byte	0x4
 1936 04d5 D9040000 		.4byte	0x4d9
 1937 04d9 12       		.uleb128 0x12
 1938 04da 01       		.byte	0x1
 1939 04db E5040000 		.4byte	0x4e5
 1940 04df 13       		.uleb128 0x13
 1941 04e0 E5040000 		.4byte	0x4e5
 1942 04e4 00       		.byte	0x0
 1943 04e5 09       		.uleb128 0x9
 1944 04e6 04       		.byte	0x4
 1945 04e7 4E040000 		.4byte	0x44e
 1946 04eb 09       		.uleb128 0x9
 1947 04ec 04       		.byte	0x4
 1948 04ed 49000000 		.4byte	0x49
 1949 04f1 03       		.uleb128 0x3
 1950 04f2 07020000 		.4byte	.LASF71
 1951 04f6 0A       		.byte	0xa
 1952 04f7 76       		.byte	0x76
 1953 04f8 4E040000 		.4byte	0x44e
 1954 04fc 03       		.uleb128 0x3
 1955 04fd 45000000 		.4byte	.LASF72
 1956 0501 0A       		.byte	0xa
 1957 0502 E6       		.byte	0xe6
 1958 0503 4E040000 		.4byte	0x44e
 1959 0507 14       		.uleb128 0x14
 1960 0508 01       		.byte	0x1
 1961 0509 30000000 		.4byte	0x30
 1962 050d 21050000 		.4byte	0x521
 1963 0511 13       		.uleb128 0x13
 1964 0512 80020000 		.4byte	0x280
ARM GAS  C:\Users\z80\AppData\Local\Temp\ccBUDbvc.s 			page 36


 1965 0516 13       		.uleb128 0x13
 1966 0517 21050000 		.4byte	0x521
 1967 051b 13       		.uleb128 0x13
 1968 051c 30000000 		.4byte	0x30
 1969 0520 00       		.byte	0x0
 1970 0521 09       		.uleb128 0x9
 1971 0522 04       		.byte	0x4
 1972 0523 27050000 		.4byte	0x527
 1973 0527 11       		.uleb128 0x11
 1974 0528 49000000 		.4byte	0x49
 1975 052c 09       		.uleb128 0x9
 1976 052d 04       		.byte	0x4
 1977 052e 07050000 		.4byte	0x507
 1978 0532 14       		.uleb128 0x14
 1979 0533 01       		.byte	0x1
 1980 0534 30000000 		.4byte	0x30
 1981 0538 4C050000 		.4byte	0x54c
 1982 053c 13       		.uleb128 0x13
 1983 053d 80020000 		.4byte	0x280
 1984 0541 13       		.uleb128 0x13
 1985 0542 EB040000 		.4byte	0x4eb
 1986 0546 13       		.uleb128 0x13
 1987 0547 30000000 		.4byte	0x30
 1988 054b 00       		.byte	0x0
 1989 054c 09       		.uleb128 0x9
 1990 054d 04       		.byte	0x4
 1991 054e 32050000 		.4byte	0x532
 1992 0552 14       		.uleb128 0x14
 1993 0553 01       		.byte	0x1
 1994 0554 BC000000 		.4byte	0xbc
 1995 0558 62050000 		.4byte	0x562
 1996 055c 13       		.uleb128 0x13
 1997 055d 80020000 		.4byte	0x280
 1998 0561 00       		.byte	0x0
 1999 0562 09       		.uleb128 0x9
 2000 0563 04       		.byte	0x4
 2001 0564 52050000 		.4byte	0x552
 2002 0568 14       		.uleb128 0x14
 2003 0569 01       		.byte	0x1
 2004 056a E8000000 		.4byte	0xe8
 2005 056e 82050000 		.4byte	0x582
 2006 0572 13       		.uleb128 0x13
 2007 0573 80020000 		.4byte	0x280
 2008 0577 13       		.uleb128 0x13
 2009 0578 49000000 		.4byte	0x49
 2010 057c 13       		.uleb128 0x13
 2011 057d FE000000 		.4byte	0xfe
 2012 0581 00       		.byte	0x0
 2013 0582 09       		.uleb128 0x9
 2014 0583 04       		.byte	0x4
 2015 0584 68050000 		.4byte	0x568
 2016 0588 14       		.uleb128 0x14
 2017 0589 01       		.byte	0x1
 2018 058a E8000000 		.4byte	0xe8
 2019 058e 9D050000 		.4byte	0x59d
 2020 0592 13       		.uleb128 0x13
 2021 0593 80020000 		.4byte	0x280
ARM GAS  C:\Users\z80\AppData\Local\Temp\ccBUDbvc.s 			page 37


 2022 0597 13       		.uleb128 0x13
 2023 0598 FE000000 		.4byte	0xfe
 2024 059c 00       		.byte	0x0
 2025 059d 09       		.uleb128 0x9
 2026 059e 04       		.byte	0x4
 2027 059f 88050000 		.4byte	0x588
 2028 05a3 14       		.uleb128 0x14
 2029 05a4 01       		.byte	0x1
 2030 05a5 30000000 		.4byte	0x30
 2031 05a9 C2050000 		.4byte	0x5c2
 2032 05ad 13       		.uleb128 0x13
 2033 05ae 80020000 		.4byte	0x280
 2034 05b2 13       		.uleb128 0x13
 2035 05b3 21050000 		.4byte	0x521
 2036 05b7 13       		.uleb128 0x13
 2037 05b8 30000000 		.4byte	0x30
 2038 05bc 13       		.uleb128 0x13
 2039 05bd FE000000 		.4byte	0xfe
 2040 05c1 00       		.byte	0x0
 2041 05c2 09       		.uleb128 0x9
 2042 05c3 04       		.byte	0x4
 2043 05c4 A3050000 		.4byte	0x5a3
 2044 05c8 14       		.uleb128 0x14
 2045 05c9 01       		.byte	0x1
 2046 05ca 30000000 		.4byte	0x30
 2047 05ce E7050000 		.4byte	0x5e7
 2048 05d2 13       		.uleb128 0x13
 2049 05d3 80020000 		.4byte	0x280
 2050 05d7 13       		.uleb128 0x13
 2051 05d8 EB040000 		.4byte	0x4eb
 2052 05dc 13       		.uleb128 0x13
 2053 05dd 30000000 		.4byte	0x30
 2054 05e1 13       		.uleb128 0x13
 2055 05e2 FE000000 		.4byte	0xfe
 2056 05e6 00       		.byte	0x0
 2057 05e7 09       		.uleb128 0x9
 2058 05e8 04       		.byte	0x4
 2059 05e9 C8050000 		.4byte	0x5c8
 2060 05ed 15       		.uleb128 0x15
 2061 05ee 6F020000 		.4byte	.LASF73
 2062 05f2 0B       		.byte	0xb
 2063 05f3 0B01     		.2byte	0x10b
 2064 05f5 B1000000 		.4byte	0xb1
 2065 05f9 0C       		.uleb128 0xc
 2066 05fa 4A010000 		.4byte	.LASF74
 2067 05fe 24       		.byte	0x24
 2068 05ff 0B       		.byte	0xb
 2069 0600 2401     		.2byte	0x124
 2070 0602 8E060000 		.4byte	0x68e
 2071 0606 16       		.uleb128 0x16
 2072 0607 34020000 		.4byte	.LASF75
 2073 060b 0B       		.byte	0xb
 2074 060c 2501     		.2byte	0x125
 2075 060e 2C050000 		.4byte	0x52c
 2076 0612 02       		.byte	0x2
 2077 0613 23       		.byte	0x23
 2078 0614 00       		.uleb128 0x0
ARM GAS  C:\Users\z80\AppData\Local\Temp\ccBUDbvc.s 			page 38


 2079 0615 16       		.uleb128 0x16
 2080 0616 DF030000 		.4byte	.LASF76
 2081 061a 0B       		.byte	0xb
 2082 061b 2501     		.2byte	0x125
 2083 061d 4C050000 		.4byte	0x54c
 2084 0621 02       		.byte	0x2
 2085 0622 23       		.byte	0x23
 2086 0623 04       		.uleb128 0x4
 2087 0624 16       		.uleb128 0x16
 2088 0625 22010000 		.4byte	.LASF77
 2089 0629 0B       		.byte	0xb
 2090 062a 2501     		.2byte	0x125
 2091 062c 62050000 		.4byte	0x562
 2092 0630 02       		.byte	0x2
 2093 0631 23       		.byte	0x23
 2094 0632 08       		.uleb128 0x8
 2095 0633 16       		.uleb128 0x16
 2096 0634 C9040000 		.4byte	.LASF78
 2097 0638 0B       		.byte	0xb
 2098 0639 2501     		.2byte	0x125
 2099 063b 62050000 		.4byte	0x562
 2100 063f 02       		.byte	0x2
 2101 0640 23       		.byte	0x23
 2102 0641 0C       		.uleb128 0xc
 2103 0642 0B       		.uleb128 0xb
 2104 0643 70757400 		.ascii	"put\000"
 2105 0647 0B       		.byte	0xb
 2106 0648 2501     		.2byte	0x125
 2107 064a 82050000 		.4byte	0x582
 2108 064e 02       		.byte	0x2
 2109 064f 23       		.byte	0x23
 2110 0650 10       		.uleb128 0x10
 2111 0651 0B       		.uleb128 0xb
 2112 0652 67657400 		.ascii	"get\000"
 2113 0656 0B       		.byte	0xb
 2114 0657 2501     		.2byte	0x125
 2115 0659 9D050000 		.4byte	0x59d
 2116 065d 02       		.byte	0x2
 2117 065e 23       		.byte	0x23
 2118 065f 14       		.uleb128 0x14
 2119 0660 16       		.uleb128 0x16
 2120 0661 E6010000 		.4byte	.LASF79
 2121 0665 0B       		.byte	0xb
 2122 0666 2501     		.2byte	0x125
 2123 0668 C2050000 		.4byte	0x5c2
 2124 066c 02       		.byte	0x2
 2125 066d 23       		.byte	0x23
 2126 066e 18       		.uleb128 0x18
 2127 066f 16       		.uleb128 0x16
 2128 0670 AB000000 		.4byte	.LASF80
 2129 0674 0B       		.byte	0xb
 2130 0675 2501     		.2byte	0x125
 2131 0677 E7050000 		.4byte	0x5e7
 2132 067b 02       		.byte	0x2
 2133 067c 23       		.byte	0x23
 2134 067d 1C       		.uleb128 0x1c
 2135 067e 16       		.uleb128 0x16
ARM GAS  C:\Users\z80\AppData\Local\Temp\ccBUDbvc.s 			page 39


 2136 067f 66020000 		.4byte	.LASF81
 2137 0683 0B       		.byte	0xb
 2138 0684 2501     		.2byte	0x125
 2139 0686 9E060000 		.4byte	0x69e
 2140 068a 02       		.byte	0x2
 2141 068b 23       		.byte	0x23
 2142 068c 20       		.uleb128 0x20
 2143 068d 00       		.byte	0x0
 2144 068e 14       		.uleb128 0x14
 2145 068f 01       		.byte	0x1
 2146 0690 ED050000 		.4byte	0x5ed
 2147 0694 9E060000 		.4byte	0x69e
 2148 0698 13       		.uleb128 0x13
 2149 0699 80020000 		.4byte	0x280
 2150 069d 00       		.byte	0x0
 2151 069e 09       		.uleb128 0x9
 2152 069f 04       		.byte	0x4
 2153 06a0 8E060000 		.4byte	0x68e
 2154 06a4 17       		.uleb128 0x17
 2155 06a5 0C       		.byte	0xc
 2156 06a6 0B       		.byte	0xb
 2157 06a7 2F01     		.2byte	0x12f
 2158 06a9 DB060000 		.4byte	0x6db
 2159 06ad 0B       		.uleb128 0xb
 2160 06ae 766D7400 		.ascii	"vmt\000"
 2161 06b2 0B       		.byte	0xb
 2162 06b3 3101     		.2byte	0x131
 2163 06b5 DB060000 		.4byte	0x6db
 2164 06b9 02       		.byte	0x2
 2165 06ba 23       		.byte	0x23
 2166 06bb 00       		.uleb128 0x0
 2167 06bc 16       		.uleb128 0x16
 2168 06bd B9010000 		.4byte	.LASF82
 2169 06c1 0B       		.byte	0xb
 2170 06c2 3201     		.2byte	0x132
 2171 06c4 F0030000 		.4byte	0x3f0
 2172 06c8 02       		.byte	0x2
 2173 06c9 23       		.byte	0x23
 2174 06ca 04       		.uleb128 0x4
 2175 06cb 16       		.uleb128 0x16
 2176 06cc 9A040000 		.4byte	.LASF83
 2177 06d0 0B       		.byte	0xb
 2178 06d1 3201     		.2byte	0x132
 2179 06d3 ED050000 		.4byte	0x5ed
 2180 06d7 02       		.byte	0x2
 2181 06d8 23       		.byte	0x23
 2182 06d9 08       		.uleb128 0x8
 2183 06da 00       		.byte	0x0
 2184 06db 09       		.uleb128 0x9
 2185 06dc 04       		.byte	0x4
 2186 06dd E1060000 		.4byte	0x6e1
 2187 06e1 11       		.uleb128 0x11
 2188 06e2 F9050000 		.4byte	0x5f9
 2189 06e6 15       		.uleb128 0x15
 2190 06e7 2F040000 		.4byte	.LASF84
 2191 06eb 0B       		.byte	0xb
 2192 06ec 3301     		.2byte	0x133
ARM GAS  C:\Users\z80\AppData\Local\Temp\ccBUDbvc.s 			page 40


 2193 06ee A4060000 		.4byte	0x6a4
 2194 06f2 0E       		.uleb128 0xe
 2195 06f3 62000000 		.4byte	0x62
 2196 06f7 0E       		.uleb128 0xe
 2197 06f8 74000000 		.4byte	0x74
 2198 06fc 17       		.uleb128 0x17
 2199 06fd 1C       		.byte	0x1c
 2200 06fe 0C       		.byte	0xc
 2201 06ff E104     		.2byte	0x4e1
 2202 0701 D6070000 		.4byte	0x7d6
 2203 0705 0B       		.uleb128 0xb
 2204 0706 535200   		.ascii	"SR\000"
 2205 0709 0C       		.byte	0xc
 2206 070a E304     		.2byte	0x4e3
 2207 070c F2060000 		.4byte	0x6f2
 2208 0710 02       		.byte	0x2
 2209 0711 23       		.byte	0x23
 2210 0712 00       		.uleb128 0x0
 2211 0713 16       		.uleb128 0x16
 2212 0714 CA020000 		.4byte	.LASF85
 2213 0718 0C       		.byte	0xc
 2214 0719 E404     		.2byte	0x4e4
 2215 071b 62000000 		.4byte	0x62
 2216 071f 02       		.byte	0x2
 2217 0720 23       		.byte	0x23
 2218 0721 02       		.uleb128 0x2
 2219 0722 0B       		.uleb128 0xb
 2220 0723 445200   		.ascii	"DR\000"
 2221 0726 0C       		.byte	0xc
 2222 0727 E504     		.2byte	0x4e5
 2223 0729 F2060000 		.4byte	0x6f2
 2224 072d 02       		.byte	0x2
 2225 072e 23       		.byte	0x23
 2226 072f 04       		.uleb128 0x4
 2227 0730 16       		.uleb128 0x16
 2228 0731 D4020000 		.4byte	.LASF86
 2229 0735 0C       		.byte	0xc
 2230 0736 E604     		.2byte	0x4e6
 2231 0738 62000000 		.4byte	0x62
 2232 073c 02       		.byte	0x2
 2233 073d 23       		.byte	0x23
 2234 073e 06       		.uleb128 0x6
 2235 073f 0B       		.uleb128 0xb
 2236 0740 42525200 		.ascii	"BRR\000"
 2237 0744 0C       		.byte	0xc
 2238 0745 E704     		.2byte	0x4e7
 2239 0747 F2060000 		.4byte	0x6f2
 2240 074b 02       		.byte	0x2
 2241 074c 23       		.byte	0x23
 2242 074d 08       		.uleb128 0x8
 2243 074e 16       		.uleb128 0x16
 2244 074f DE020000 		.4byte	.LASF87
 2245 0753 0C       		.byte	0xc
 2246 0754 E804     		.2byte	0x4e8
 2247 0756 62000000 		.4byte	0x62
 2248 075a 02       		.byte	0x2
 2249 075b 23       		.byte	0x23
ARM GAS  C:\Users\z80\AppData\Local\Temp\ccBUDbvc.s 			page 41


 2250 075c 0A       		.uleb128 0xa
 2251 075d 0B       		.uleb128 0xb
 2252 075e 43523100 		.ascii	"CR1\000"
 2253 0762 0C       		.byte	0xc
 2254 0763 E904     		.2byte	0x4e9
 2255 0765 F2060000 		.4byte	0x6f2
 2256 0769 02       		.byte	0x2
 2257 076a 23       		.byte	0x23
 2258 076b 0C       		.uleb128 0xc
 2259 076c 16       		.uleb128 0x16
 2260 076d E8020000 		.4byte	.LASF88
 2261 0771 0C       		.byte	0xc
 2262 0772 EA04     		.2byte	0x4ea
 2263 0774 62000000 		.4byte	0x62
 2264 0778 02       		.byte	0x2
 2265 0779 23       		.byte	0x23
 2266 077a 0E       		.uleb128 0xe
 2267 077b 0B       		.uleb128 0xb
 2268 077c 43523200 		.ascii	"CR2\000"
 2269 0780 0C       		.byte	0xc
 2270 0781 EB04     		.2byte	0x4eb
 2271 0783 F2060000 		.4byte	0x6f2
 2272 0787 02       		.byte	0x2
 2273 0788 23       		.byte	0x23
 2274 0789 10       		.uleb128 0x10
 2275 078a 16       		.uleb128 0x16
 2276 078b F2020000 		.4byte	.LASF89
 2277 078f 0C       		.byte	0xc
 2278 0790 EC04     		.2byte	0x4ec
 2279 0792 62000000 		.4byte	0x62
 2280 0796 02       		.byte	0x2
 2281 0797 23       		.byte	0x23
 2282 0798 12       		.uleb128 0x12
 2283 0799 0B       		.uleb128 0xb
 2284 079a 43523300 		.ascii	"CR3\000"
 2285 079e 0C       		.byte	0xc
 2286 079f ED04     		.2byte	0x4ed
 2287 07a1 F2060000 		.4byte	0x6f2
 2288 07a5 02       		.byte	0x2
 2289 07a6 23       		.byte	0x23
 2290 07a7 14       		.uleb128 0x14
 2291 07a8 16       		.uleb128 0x16
 2292 07a9 A3030000 		.4byte	.LASF90
 2293 07ad 0C       		.byte	0xc
 2294 07ae EE04     		.2byte	0x4ee
 2295 07b0 62000000 		.4byte	0x62
 2296 07b4 02       		.byte	0x2
 2297 07b5 23       		.byte	0x23
 2298 07b6 16       		.uleb128 0x16
 2299 07b7 16       		.uleb128 0x16
 2300 07b8 D5000000 		.4byte	.LASF91
 2301 07bc 0C       		.byte	0xc
 2302 07bd EF04     		.2byte	0x4ef
 2303 07bf F2060000 		.4byte	0x6f2
 2304 07c3 02       		.byte	0x2
 2305 07c4 23       		.byte	0x23
 2306 07c5 18       		.uleb128 0x18
ARM GAS  C:\Users\z80\AppData\Local\Temp\ccBUDbvc.s 			page 42


 2307 07c6 16       		.uleb128 0x16
 2308 07c7 03030000 		.4byte	.LASF92
 2309 07cb 0C       		.byte	0xc
 2310 07cc F004     		.2byte	0x4f0
 2311 07ce 62000000 		.4byte	0x62
 2312 07d2 02       		.byte	0x2
 2313 07d3 23       		.byte	0x23
 2314 07d4 1A       		.uleb128 0x1a
 2315 07d5 00       		.byte	0x0
 2316 07d6 15       		.uleb128 0x15
 2317 07d7 33030000 		.4byte	.LASF93
 2318 07db 0C       		.byte	0xc
 2319 07dc F104     		.2byte	0x4f1
 2320 07de FC060000 		.4byte	0x6fc
 2321 07e2 18       		.uleb128 0x18
 2322 07e3 01       		.byte	0x1
 2323 07e4 0D       		.byte	0xd
 2324 07e5 64       		.byte	0x64
 2325 07e6 FD070000 		.4byte	0x7fd
 2326 07ea 19       		.uleb128 0x19
 2327 07eb 99030000 		.4byte	.LASF94
 2328 07ef 00       		.sleb128 0
 2329 07f0 19       		.uleb128 0x19
 2330 07f1 DA000000 		.4byte	.LASF95
 2331 07f5 01       		.sleb128 1
 2332 07f6 19       		.uleb128 0x19
 2333 07f7 56040000 		.4byte	.LASF96
 2334 07fb 02       		.sleb128 2
 2335 07fc 00       		.byte	0x0
 2336 07fd 03       		.uleb128 0x3
 2337 07fe B6030000 		.4byte	.LASF97
 2338 0802 0D       		.byte	0xd
 2339 0803 68       		.byte	0x68
 2340 0804 E2070000 		.4byte	0x7e2
 2341 0808 03       		.uleb128 0x3
 2342 0809 C0030000 		.4byte	.LASF98
 2343 080d 0D       		.byte	0xd
 2344 080e 6D       		.byte	0x6d
 2345 080f 13080000 		.4byte	0x813
 2346 0813 05       		.uleb128 0x5
 2347 0814 C0030000 		.4byte	.LASF98
 2348 0818 74       		.byte	0x74
 2349 0819 0D       		.byte	0xd
 2350 081a 87       		.byte	0x87
 2351 081b 9C080000 		.4byte	0x89c
 2352 081f 07       		.uleb128 0x7
 2353 0820 766D7400 		.ascii	"vmt\000"
 2354 0824 0D       		.byte	0xd
 2355 0825 89       		.byte	0x89
 2356 0826 73090000 		.4byte	0x973
 2357 082a 02       		.byte	0x2
 2358 082b 23       		.byte	0x23
 2359 082c 00       		.uleb128 0x0
 2360 082d 06       		.uleb128 0x6
 2361 082e B9010000 		.4byte	.LASF82
 2362 0832 0D       		.byte	0xd
 2363 0833 8A       		.byte	0x8a
ARM GAS  C:\Users\z80\AppData\Local\Temp\ccBUDbvc.s 			page 43


 2364 0834 F0030000 		.4byte	0x3f0
 2365 0838 02       		.byte	0x2
 2366 0839 23       		.byte	0x23
 2367 083a 04       		.uleb128 0x4
 2368 083b 06       		.uleb128 0x6
 2369 083c 9A040000 		.4byte	.LASF83
 2370 0840 0D       		.byte	0xd
 2371 0841 8A       		.byte	0x8a
 2372 0842 ED050000 		.4byte	0x5ed
 2373 0846 02       		.byte	0x2
 2374 0847 23       		.byte	0x23
 2375 0848 08       		.uleb128 0x8
 2376 0849 06       		.uleb128 0x6
 2377 084a F1000000 		.4byte	.LASF99
 2378 084e 0D       		.byte	0xd
 2379 084f 8A       		.byte	0x8a
 2380 0850 FD070000 		.4byte	0x7fd
 2381 0854 02       		.byte	0x2
 2382 0855 23       		.byte	0x23
 2383 0856 0C       		.uleb128 0xc
 2384 0857 06       		.uleb128 0x6
 2385 0858 9A010000 		.4byte	.LASF100
 2386 085c 0D       		.byte	0xd
 2387 085d 8A       		.byte	0x8a
 2388 085e F1040000 		.4byte	0x4f1
 2389 0862 02       		.byte	0x2
 2390 0863 23       		.byte	0x23
 2391 0864 10       		.uleb128 0x10
 2392 0865 06       		.uleb128 0x6
 2393 0866 D8010000 		.4byte	.LASF101
 2394 086a 0D       		.byte	0xd
 2395 086b 8A       		.byte	0x8a
 2396 086c FC040000 		.4byte	0x4fc
 2397 0870 02       		.byte	0x2
 2398 0871 23       		.byte	0x23
 2399 0872 30       		.uleb128 0x30
 2400 0873 07       		.uleb128 0x7
 2401 0874 696200   		.ascii	"ib\000"
 2402 0877 0D       		.byte	0xd
 2403 0878 8A       		.byte	0x8a
 2404 0879 7E090000 		.4byte	0x97e
 2405 087d 02       		.byte	0x2
 2406 087e 23       		.byte	0x23
 2407 087f 50       		.uleb128 0x50
 2408 0880 07       		.uleb128 0x7
 2409 0881 6F6200   		.ascii	"ob\000"
 2410 0884 0D       		.byte	0xd
 2411 0885 8A       		.byte	0x8a
 2412 0886 7E090000 		.4byte	0x97e
 2413 088a 02       		.byte	0x2
 2414 088b 23       		.byte	0x23
 2415 088c 60       		.uleb128 0x60
 2416 088d 06       		.uleb128 0x6
 2417 088e 01020000 		.4byte	.LASF102
 2418 0892 0D       		.byte	0xd
 2419 0893 8A       		.byte	0x8a
 2420 0894 8E090000 		.4byte	0x98e
ARM GAS  C:\Users\z80\AppData\Local\Temp\ccBUDbvc.s 			page 44


 2421 0898 02       		.byte	0x2
 2422 0899 23       		.byte	0x23
 2423 089a 70       		.uleb128 0x70
 2424 089b 00       		.byte	0x0
 2425 089c 08       		.uleb128 0x8
 2426 089d 0C       		.byte	0xc
 2427 089e 0E       		.byte	0xe
 2428 089f C4       		.byte	0xc4
 2429 08a0 DD080000 		.4byte	0x8dd
 2430 08a4 06       		.uleb128 0x6
 2431 08a5 25000000 		.4byte	.LASF103
 2432 08a9 0E       		.byte	0xe
 2433 08aa C8       		.byte	0xc8
 2434 08ab 86000000 		.4byte	0x86
 2435 08af 02       		.byte	0x2
 2436 08b0 23       		.byte	0x23
 2437 08b1 00       		.uleb128 0x0
 2438 08b2 06       		.uleb128 0x6
 2439 08b3 D7040000 		.4byte	.LASF104
 2440 08b7 0E       		.byte	0xe
 2441 08b8 CC       		.byte	0xcc
 2442 08b9 62000000 		.4byte	0x62
 2443 08bd 02       		.byte	0x2
 2444 08be 23       		.byte	0x23
 2445 08bf 04       		.uleb128 0x4
 2446 08c0 06       		.uleb128 0x6
 2447 08c1 DE040000 		.4byte	.LASF105
 2448 08c5 0E       		.byte	0xe
 2449 08c6 D0       		.byte	0xd0
 2450 08c7 62000000 		.4byte	0x62
 2451 08cb 02       		.byte	0x2
 2452 08cc 23       		.byte	0x23
 2453 08cd 06       		.uleb128 0x6
 2454 08ce 06       		.uleb128 0x6
 2455 08cf E5040000 		.4byte	.LASF106
 2456 08d3 0E       		.byte	0xe
 2457 08d4 D4       		.byte	0xd4
 2458 08d5 62000000 		.4byte	0x62
 2459 08d9 02       		.byte	0x2
 2460 08da 23       		.byte	0x23
 2461 08db 08       		.uleb128 0x8
 2462 08dc 00       		.byte	0x0
 2463 08dd 03       		.uleb128 0x3
 2464 08de BD020000 		.4byte	.LASF107
 2465 08e2 0E       		.byte	0xe
 2466 08e3 D5       		.byte	0xd5
 2467 08e4 9C080000 		.4byte	0x89c
 2468 08e8 05       		.uleb128 0x5
 2469 08e9 7B010000 		.4byte	.LASF108
 2470 08ed 24       		.byte	0x24
 2471 08ee 0D       		.byte	0xd
 2472 08ef 7C       		.byte	0x7c
 2473 08f0 73090000 		.4byte	0x973
 2474 08f4 06       		.uleb128 0x6
 2475 08f5 34020000 		.4byte	.LASF75
 2476 08f9 0D       		.byte	0xd
 2477 08fa 7D       		.byte	0x7d
ARM GAS  C:\Users\z80\AppData\Local\Temp\ccBUDbvc.s 			page 45


 2478 08fb 2C050000 		.4byte	0x52c
 2479 08ff 02       		.byte	0x2
 2480 0900 23       		.byte	0x23
 2481 0901 00       		.uleb128 0x0
 2482 0902 06       		.uleb128 0x6
 2483 0903 DF030000 		.4byte	.LASF76
 2484 0907 0D       		.byte	0xd
 2485 0908 7D       		.byte	0x7d
 2486 0909 4C050000 		.4byte	0x54c
 2487 090d 02       		.byte	0x2
 2488 090e 23       		.byte	0x23
 2489 090f 04       		.uleb128 0x4
 2490 0910 06       		.uleb128 0x6
 2491 0911 22010000 		.4byte	.LASF77
 2492 0915 0D       		.byte	0xd
 2493 0916 7D       		.byte	0x7d
 2494 0917 62050000 		.4byte	0x562
 2495 091b 02       		.byte	0x2
 2496 091c 23       		.byte	0x23
 2497 091d 08       		.uleb128 0x8
 2498 091e 06       		.uleb128 0x6
 2499 091f C9040000 		.4byte	.LASF78
 2500 0923 0D       		.byte	0xd
 2501 0924 7D       		.byte	0x7d
 2502 0925 62050000 		.4byte	0x562
 2503 0929 02       		.byte	0x2
 2504 092a 23       		.byte	0x23
 2505 092b 0C       		.uleb128 0xc
 2506 092c 07       		.uleb128 0x7
 2507 092d 70757400 		.ascii	"put\000"
 2508 0931 0D       		.byte	0xd
 2509 0932 7D       		.byte	0x7d
 2510 0933 82050000 		.4byte	0x582
 2511 0937 02       		.byte	0x2
 2512 0938 23       		.byte	0x23
 2513 0939 10       		.uleb128 0x10
 2514 093a 07       		.uleb128 0x7
 2515 093b 67657400 		.ascii	"get\000"
 2516 093f 0D       		.byte	0xd
 2517 0940 7D       		.byte	0x7d
 2518 0941 9D050000 		.4byte	0x59d
 2519 0945 02       		.byte	0x2
 2520 0946 23       		.byte	0x23
 2521 0947 14       		.uleb128 0x14
 2522 0948 06       		.uleb128 0x6
 2523 0949 E6010000 		.4byte	.LASF79
 2524 094d 0D       		.byte	0xd
 2525 094e 7D       		.byte	0x7d
 2526 094f C2050000 		.4byte	0x5c2
 2527 0953 02       		.byte	0x2
 2528 0954 23       		.byte	0x23
 2529 0955 18       		.uleb128 0x18
 2530 0956 06       		.uleb128 0x6
 2531 0957 AB000000 		.4byte	.LASF80
 2532 095b 0D       		.byte	0xd
 2533 095c 7D       		.byte	0x7d
 2534 095d E7050000 		.4byte	0x5e7
ARM GAS  C:\Users\z80\AppData\Local\Temp\ccBUDbvc.s 			page 46


 2535 0961 02       		.byte	0x2
 2536 0962 23       		.byte	0x23
 2537 0963 1C       		.uleb128 0x1c
 2538 0964 06       		.uleb128 0x6
 2539 0965 66020000 		.4byte	.LASF81
 2540 0969 0D       		.byte	0xd
 2541 096a 7D       		.byte	0x7d
 2542 096b 9E060000 		.4byte	0x69e
 2543 096f 02       		.byte	0x2
 2544 0970 23       		.byte	0x23
 2545 0971 20       		.uleb128 0x20
 2546 0972 00       		.byte	0x0
 2547 0973 09       		.uleb128 0x9
 2548 0974 04       		.byte	0x4
 2549 0975 79090000 		.4byte	0x979
 2550 0979 11       		.uleb128 0x11
 2551 097a E8080000 		.4byte	0x8e8
 2552 097e 1A       		.uleb128 0x1a
 2553 097f 49000000 		.4byte	0x49
 2554 0983 8E090000 		.4byte	0x98e
 2555 0987 1B       		.uleb128 0x1b
 2556 0988 3D030000 		.4byte	0x33d
 2557 098c 0F       		.byte	0xf
 2558 098d 00       		.byte	0x0
 2559 098e 09       		.uleb128 0x9
 2560 098f 04       		.byte	0x4
 2561 0990 D6070000 		.4byte	0x7d6
 2562 0994 1C       		.uleb128 0x1c
 2563 0995 22010000 		.4byte	.LASF77
 2564 0999 01       		.byte	0x1
 2565 099a 4A       		.byte	0x4a
 2566 099b 01       		.byte	0x1
 2567 099c BC000000 		.4byte	0xbc
 2568 09a0 00000000 		.4byte	.LFB64
 2569 09a4 0C000000 		.4byte	.LFE64
 2570 09a8 02       		.byte	0x2
 2571 09a9 7D       		.byte	0x7d
 2572 09aa 00       		.sleb128 0
 2573 09ab BE090000 		.4byte	0x9be
 2574 09af 1D       		.uleb128 0x1d
 2575 09b0 697000   		.ascii	"ip\000"
 2576 09b3 01       		.byte	0x1
 2577 09b4 4A       		.byte	0x4a
 2578 09b5 80020000 		.4byte	0x280
 2579 09b9 00000000 		.4byte	.LLST0
 2580 09bd 00       		.byte	0x0
 2581 09be 1C       		.uleb128 0x1c
 2582 09bf C9040000 		.4byte	.LASF78
 2583 09c3 01       		.byte	0x1
 2584 09c4 4F       		.byte	0x4f
 2585 09c5 01       		.byte	0x1
 2586 09c6 BC000000 		.4byte	0xbc
 2587 09ca 00000000 		.4byte	.LFB65
 2588 09ce 0C000000 		.4byte	.LFE65
 2589 09d2 02       		.byte	0x2
 2590 09d3 7D       		.byte	0x7d
 2591 09d4 00       		.sleb128 0
ARM GAS  C:\Users\z80\AppData\Local\Temp\ccBUDbvc.s 			page 47


 2592 09d5 E8090000 		.4byte	0x9e8
 2593 09d9 1D       		.uleb128 0x1d
 2594 09da 697000   		.ascii	"ip\000"
 2595 09dd 01       		.byte	0x1
 2596 09de 4F       		.byte	0x4f
 2597 09df 80020000 		.4byte	0x280
 2598 09e3 13000000 		.4byte	.LLST1
 2599 09e7 00       		.byte	0x0
 2600 09e8 1E       		.uleb128 0x1e
 2601 09e9 66020000 		.4byte	.LASF81
 2602 09ed 01       		.byte	0x1
 2603 09ee 68       		.byte	0x68
 2604 09ef 01       		.byte	0x1
 2605 09f0 ED050000 		.4byte	0x5ed
 2606 09f4 00000000 		.4byte	.LFB70
 2607 09f8 22000000 		.4byte	.LFE70
 2608 09fc 26000000 		.4byte	.LLST2
 2609 0a00 540A0000 		.4byte	0xa54
 2610 0a04 1D       		.uleb128 0x1d
 2611 0a05 697000   		.ascii	"ip\000"
 2612 0a08 01       		.byte	0x1
 2613 0a09 68       		.byte	0x68
 2614 0a0a 80020000 		.4byte	0x280
 2615 0a0e 46000000 		.4byte	.LLST3
 2616 0a12 1F       		.uleb128 0x1f
 2617 0a13 30010000 		.4byte	.LASF109
 2618 0a17 01       		.byte	0x1
 2619 0a18 69       		.byte	0x69
 2620 0a19 ED050000 		.4byte	0x5ed
 2621 0a1d 64000000 		.4byte	.LLST4
 2622 0a21 20       		.uleb128 0x20
 2623 0a22 00000000 		.4byte	.Ldebug_ranges0+0x0
 2624 0a26 3A0A0000 		.4byte	0xa3a
 2625 0a2a 21       		.uleb128 0x21
 2626 0a2b 746D7000 		.ascii	"tmp\000"
 2627 0a2f 01       		.byte	0x1
 2628 0a30 69       		.byte	0x69
 2629 0a31 86000000 		.4byte	0x86
 2630 0a35 83000000 		.4byte	.LLST5
 2631 0a39 00       		.byte	0x0
 2632 0a3a 22       		.uleb128 0x22
 2633 0a3b 18000000 		.4byte	.LBB4
 2634 0a3f 1E000000 		.4byte	.LBE4
 2635 0a43 21       		.uleb128 0x21
 2636 0a44 746D7000 		.ascii	"tmp\000"
 2637 0a48 01       		.byte	0x1
 2638 0a49 69       		.byte	0x69
 2639 0a4a 86000000 		.4byte	0x86
 2640 0a4e 96000000 		.4byte	.LLST6
 2641 0a52 00       		.byte	0x0
 2642 0a53 00       		.byte	0x0
 2643 0a54 1E       		.uleb128 0x1e
 2644 0a55 AB000000 		.4byte	.LASF80
 2645 0a59 01       		.byte	0x1
 2646 0a5a 63       		.byte	0x63
 2647 0a5b 01       		.byte	0x1
 2648 0a5c 30000000 		.4byte	0x30
ARM GAS  C:\Users\z80\AppData\Local\Temp\ccBUDbvc.s 			page 48


 2649 0a60 00000000 		.4byte	.LFB69
 2650 0a64 0A000000 		.4byte	.LFE69
 2651 0a68 A9000000 		.4byte	.LLST7
 2652 0a6c A90A0000 		.4byte	0xaa9
 2653 0a70 1D       		.uleb128 0x1d
 2654 0a71 697000   		.ascii	"ip\000"
 2655 0a74 01       		.byte	0x1
 2656 0a75 63       		.byte	0x63
 2657 0a76 80020000 		.4byte	0x280
 2658 0a7a C9000000 		.4byte	.LLST8
 2659 0a7e 1D       		.uleb128 0x1d
 2660 0a7f 627000   		.ascii	"bp\000"
 2661 0a82 01       		.byte	0x1
 2662 0a83 63       		.byte	0x63
 2663 0a84 EB040000 		.4byte	0x4eb
 2664 0a88 E9000000 		.4byte	.LLST9
 2665 0a8c 1D       		.uleb128 0x1d
 2666 0a8d 6E00     		.ascii	"n\000"
 2667 0a8f 01       		.byte	0x1
 2668 0a90 63       		.byte	0x63
 2669 0a91 30000000 		.4byte	0x30
 2670 0a95 FC000000 		.4byte	.LLST10
 2671 0a99 23       		.uleb128 0x23
 2672 0a9a B8020000 		.4byte	.LASF110
 2673 0a9e 01       		.byte	0x1
 2674 0a9f 63       		.byte	0x63
 2675 0aa0 FE000000 		.4byte	0xfe
 2676 0aa4 0F010000 		.4byte	.LLST11
 2677 0aa8 00       		.byte	0x0
 2678 0aa9 1E       		.uleb128 0x1e
 2679 0aaa A5000000 		.4byte	.LASF111
 2680 0aae 01       		.byte	0x1
 2681 0aaf 44       		.byte	0x44
 2682 0ab0 01       		.byte	0x1
 2683 0ab1 30000000 		.4byte	0x30
 2684 0ab5 00000000 		.4byte	.LFB63
 2685 0ab9 0E000000 		.4byte	.LFE63
 2686 0abd 22010000 		.4byte	.LLST12
 2687 0ac1 EF0A0000 		.4byte	0xaef
 2688 0ac5 1D       		.uleb128 0x1d
 2689 0ac6 697000   		.ascii	"ip\000"
 2690 0ac9 01       		.byte	0x1
 2691 0aca 44       		.byte	0x44
 2692 0acb 80020000 		.4byte	0x280
 2693 0acf 42010000 		.4byte	.LLST13
 2694 0ad3 1D       		.uleb128 0x1d
 2695 0ad4 627000   		.ascii	"bp\000"
 2696 0ad7 01       		.byte	0x1
 2697 0ad8 44       		.byte	0x44
 2698 0ad9 EB040000 		.4byte	0x4eb
 2699 0add 62010000 		.4byte	.LLST14
 2700 0ae1 1D       		.uleb128 0x1d
 2701 0ae2 6E00     		.ascii	"n\000"
 2702 0ae4 01       		.byte	0x1
 2703 0ae5 44       		.byte	0x44
 2704 0ae6 30000000 		.4byte	0x30
 2705 0aea 75010000 		.4byte	.LLST15
ARM GAS  C:\Users\z80\AppData\Local\Temp\ccBUDbvc.s 			page 49


 2706 0aee 00       		.byte	0x0
 2707 0aef 1E       		.uleb128 0x1e
 2708 0af0 E6010000 		.4byte	.LASF79
 2709 0af4 01       		.byte	0x1
 2710 0af5 5E       		.byte	0x5e
 2711 0af6 01       		.byte	0x1
 2712 0af7 30000000 		.4byte	0x30
 2713 0afb 00000000 		.4byte	.LFB68
 2714 0aff 0A000000 		.4byte	.LFE68
 2715 0b03 88010000 		.4byte	.LLST16
 2716 0b07 440B0000 		.4byte	0xb44
 2717 0b0b 1D       		.uleb128 0x1d
 2718 0b0c 697000   		.ascii	"ip\000"
 2719 0b0f 01       		.byte	0x1
 2720 0b10 5E       		.byte	0x5e
 2721 0b11 80020000 		.4byte	0x280
 2722 0b15 A8010000 		.4byte	.LLST17
 2723 0b19 1D       		.uleb128 0x1d
 2724 0b1a 627000   		.ascii	"bp\000"
 2725 0b1d 01       		.byte	0x1
 2726 0b1e 5E       		.byte	0x5e
 2727 0b1f 21050000 		.4byte	0x521
 2728 0b23 C8010000 		.4byte	.LLST18
 2729 0b27 1D       		.uleb128 0x1d
 2730 0b28 6E00     		.ascii	"n\000"
 2731 0b2a 01       		.byte	0x1
 2732 0b2b 5E       		.byte	0x5e
 2733 0b2c 30000000 		.4byte	0x30
 2734 0b30 DB010000 		.4byte	.LLST19
 2735 0b34 23       		.uleb128 0x23
 2736 0b35 B8020000 		.4byte	.LASF110
 2737 0b39 01       		.byte	0x1
 2738 0b3a 5E       		.byte	0x5e
 2739 0b3b FE000000 		.4byte	0xfe
 2740 0b3f EE010000 		.4byte	.LLST20
 2741 0b43 00       		.byte	0x0
 2742 0b44 1E       		.uleb128 0x1e
 2743 0b45 DF010000 		.4byte	.LASF112
 2744 0b49 01       		.byte	0x1
 2745 0b4a 3E       		.byte	0x3e
 2746 0b4b 01       		.byte	0x1
 2747 0b4c 30000000 		.4byte	0x30
 2748 0b50 00000000 		.4byte	.LFB62
 2749 0b54 0E000000 		.4byte	.LFE62
 2750 0b58 01020000 		.4byte	.LLST21
 2751 0b5c 8A0B0000 		.4byte	0xb8a
 2752 0b60 1D       		.uleb128 0x1d
 2753 0b61 697000   		.ascii	"ip\000"
 2754 0b64 01       		.byte	0x1
 2755 0b65 3E       		.byte	0x3e
 2756 0b66 80020000 		.4byte	0x280
 2757 0b6a 21020000 		.4byte	.LLST22
 2758 0b6e 1D       		.uleb128 0x1d
 2759 0b6f 627000   		.ascii	"bp\000"
 2760 0b72 01       		.byte	0x1
 2761 0b73 3E       		.byte	0x3e
 2762 0b74 21050000 		.4byte	0x521
ARM GAS  C:\Users\z80\AppData\Local\Temp\ccBUDbvc.s 			page 50


 2763 0b78 41020000 		.4byte	.LLST23
 2764 0b7c 1D       		.uleb128 0x1d
 2765 0b7d 6E00     		.ascii	"n\000"
 2766 0b7f 01       		.byte	0x1
 2767 0b80 3E       		.byte	0x3e
 2768 0b81 30000000 		.4byte	0x30
 2769 0b85 54020000 		.4byte	.LLST24
 2770 0b89 00       		.byte	0x0
 2771 0b8a 1E       		.uleb128 0x1e
 2772 0b8b B4010000 		.4byte	.LASF113
 2773 0b8f 01       		.byte	0x1
 2774 0b90 59       		.byte	0x59
 2775 0b91 01       		.byte	0x1
 2776 0b92 E8000000 		.4byte	0xe8
 2777 0b96 00000000 		.4byte	.LFB67
 2778 0b9a 0A000000 		.4byte	.LFE67
 2779 0b9e 67020000 		.4byte	.LLST25
 2780 0ba2 C40B0000 		.4byte	0xbc4
 2781 0ba6 1D       		.uleb128 0x1d
 2782 0ba7 697000   		.ascii	"ip\000"
 2783 0baa 01       		.byte	0x1
 2784 0bab 59       		.byte	0x59
 2785 0bac 80020000 		.4byte	0x280
 2786 0bb0 87020000 		.4byte	.LLST26
 2787 0bb4 23       		.uleb128 0x23
 2788 0bb5 AC010000 		.4byte	.LASF114
 2789 0bb9 01       		.byte	0x1
 2790 0bba 59       		.byte	0x59
 2791 0bbb FE000000 		.4byte	0xfe
 2792 0bbf A7020000 		.4byte	.LLST27
 2793 0bc3 00       		.byte	0x0
 2794 0bc4 1E       		.uleb128 0x1e
 2795 0bc5 3A020000 		.4byte	.LASF115
 2796 0bc9 01       		.byte	0x1
 2797 0bca 54       		.byte	0x54
 2798 0bcb 01       		.byte	0x1
 2799 0bcc E8000000 		.4byte	0xe8
 2800 0bd0 00000000 		.4byte	.LFB66
 2801 0bd4 0A000000 		.4byte	.LFE66
 2802 0bd8 BA020000 		.4byte	.LLST28
 2803 0bdc 0B0C0000 		.4byte	0xc0b
 2804 0be0 1D       		.uleb128 0x1d
 2805 0be1 697000   		.ascii	"ip\000"
 2806 0be4 01       		.byte	0x1
 2807 0be5 54       		.byte	0x54
 2808 0be6 80020000 		.4byte	0x280
 2809 0bea DA020000 		.4byte	.LLST29
 2810 0bee 1D       		.uleb128 0x1d
 2811 0bef 6200     		.ascii	"b\000"
 2812 0bf1 01       		.byte	0x1
 2813 0bf2 54       		.byte	0x54
 2814 0bf3 49000000 		.4byte	0x49
 2815 0bf7 FA020000 		.4byte	.LLST30
 2816 0bfb 23       		.uleb128 0x23
 2817 0bfc AC010000 		.4byte	.LASF114
 2818 0c00 01       		.byte	0x1
 2819 0c01 54       		.byte	0x54
ARM GAS  C:\Users\z80\AppData\Local\Temp\ccBUDbvc.s 			page 51


 2820 0c02 FE000000 		.4byte	0xfe
 2821 0c06 0D030000 		.4byte	.LLST31
 2822 0c0a 00       		.byte	0x0
 2823 0c0b 24       		.uleb128 0x24
 2824 0c0c 01       		.byte	0x1
 2825 0c0d EC040000 		.4byte	.LASF127
 2826 0c11 01       		.byte	0x1
 2827 0c12 7D       		.byte	0x7d
 2828 0c13 01       		.byte	0x1
 2829 0c14 00000000 		.4byte	.LFB71
 2830 0c18 08000000 		.4byte	.LFE71
 2831 0c1c 20030000 		.4byte	.LLST32
 2832 0c20 25       		.uleb128 0x25
 2833 0c21 01       		.byte	0x1
 2834 0c22 98000000 		.4byte	.LASF118
 2835 0c26 01       		.byte	0x1
 2836 0c27 91       		.byte	0x91
 2837 0c28 01       		.byte	0x1
 2838 0c29 00000000 		.4byte	.LFB72
 2839 0c2d 4A000000 		.4byte	.LFE72
 2840 0c31 40030000 		.4byte	.LLST33
 2841 0c35 670C0000 		.4byte	0xc67
 2842 0c39 1D       		.uleb128 0x1d
 2843 0c3a 73647000 		.ascii	"sdp\000"
 2844 0c3e 01       		.byte	0x1
 2845 0c3f 91       		.byte	0x91
 2846 0c40 670C0000 		.4byte	0xc67
 2847 0c44 60030000 		.4byte	.LLST34
 2848 0c48 23       		.uleb128 0x23
 2849 0c49 92010000 		.4byte	.LASF116
 2850 0c4d 01       		.byte	0x1
 2851 0c4e 91       		.byte	0x91
 2852 0c4f C8040000 		.4byte	0x4c8
 2853 0c53 7E030000 		.4byte	.LLST35
 2854 0c57 23       		.uleb128 0x23
 2855 0c58 A0040000 		.4byte	.LASF117
 2856 0c5c 01       		.byte	0x1
 2857 0c5d 91       		.byte	0x91
 2858 0c5e C8040000 		.4byte	0x4c8
 2859 0c62 9C030000 		.4byte	.LLST36
 2860 0c66 00       		.byte	0x0
 2861 0c67 09       		.uleb128 0x9
 2862 0c68 04       		.byte	0x4
 2863 0c69 08080000 		.4byte	0x808
 2864 0c6d 25       		.uleb128 0x25
 2865 0c6e 01       		.byte	0x1
 2866 0c6f 00040000 		.4byte	.LASF119
 2867 0c73 01       		.byte	0x1
 2868 0c74 A5       		.byte	0xa5
 2869 0c75 01       		.byte	0x1
 2870 0c76 00000000 		.4byte	.LFB73
 2871 0c7a 4C000000 		.4byte	.LFE73
 2872 0c7e BA030000 		.4byte	.LLST37
 2873 0c82 DB0C0000 		.4byte	0xcdb
 2874 0c86 1D       		.uleb128 0x1d
 2875 0c87 73647000 		.ascii	"sdp\000"
 2876 0c8b 01       		.byte	0x1
ARM GAS  C:\Users\z80\AppData\Local\Temp\ccBUDbvc.s 			page 52


 2877 0c8c A5       		.byte	0xa5
 2878 0c8d 670C0000 		.4byte	0xc67
 2879 0c91 DA030000 		.4byte	.LLST38
 2880 0c95 23       		.uleb128 0x23
 2881 0c96 F9030000 		.4byte	.LASF120
 2882 0c9a 01       		.byte	0x1
 2883 0c9b A5       		.byte	0xa5
 2884 0c9c DB0C0000 		.4byte	0xcdb
 2885 0ca0 F8030000 		.4byte	.LLST39
 2886 0ca4 26       		.uleb128 0x26
 2887 0ca5 08000000 		.4byte	.LBB5
 2888 0ca9 0E000000 		.4byte	.LBE5
 2889 0cad C10C0000 		.4byte	0xcc1
 2890 0cb1 21       		.uleb128 0x21
 2891 0cb2 746D7000 		.ascii	"tmp\000"
 2892 0cb6 01       		.byte	0x1
 2893 0cb7 A9       		.byte	0xa9
 2894 0cb8 86000000 		.4byte	0x86
 2895 0cbc 16040000 		.4byte	.LLST40
 2896 0cc0 00       		.byte	0x0
 2897 0cc1 22       		.uleb128 0x22
 2898 0cc2 32000000 		.4byte	.LBB6
 2899 0cc6 38000000 		.4byte	.LBE6
 2900 0cca 21       		.uleb128 0x21
 2901 0ccb 746D7000 		.ascii	"tmp\000"
 2902 0ccf 01       		.byte	0x1
 2903 0cd0 AF       		.byte	0xaf
 2904 0cd1 86000000 		.4byte	0x86
 2905 0cd5 29040000 		.4byte	.LLST41
 2906 0cd9 00       		.byte	0x0
 2907 0cda 00       		.byte	0x0
 2908 0cdb 09       		.uleb128 0x9
 2909 0cdc 04       		.byte	0x4
 2910 0cdd E10C0000 		.4byte	0xce1
 2911 0ce1 11       		.uleb128 0x11
 2912 0ce2 DD080000 		.4byte	0x8dd
 2913 0ce6 25       		.uleb128 0x25
 2914 0ce7 01       		.byte	0x1
 2915 0ce8 B1020000 		.4byte	.LASF121
 2916 0cec 01       		.byte	0x1
 2917 0ced BB       		.byte	0xbb
 2918 0cee 01       		.byte	0x1
 2919 0cef 00000000 		.4byte	.LFB74
 2920 0cf3 5C000000 		.4byte	.LFE74
 2921 0cf7 3C040000 		.4byte	.LLST42
 2922 0cfb 450D0000 		.4byte	0xd45
 2923 0cff 1D       		.uleb128 0x1d
 2924 0d00 73647000 		.ascii	"sdp\000"
 2925 0d04 01       		.byte	0x1
 2926 0d05 BB       		.byte	0xbb
 2927 0d06 670C0000 		.4byte	0xc67
 2928 0d0a 5C040000 		.4byte	.LLST43
 2929 0d0e 26       		.uleb128 0x26
 2930 0d0f 06000000 		.4byte	.LBB7
 2931 0d13 0C000000 		.4byte	.LBE7
 2932 0d17 2B0D0000 		.4byte	0xd2b
 2933 0d1b 21       		.uleb128 0x21
ARM GAS  C:\Users\z80\AppData\Local\Temp\ccBUDbvc.s 			page 53


 2934 0d1c 746D7000 		.ascii	"tmp\000"
 2935 0d20 01       		.byte	0x1
 2936 0d21 BF       		.byte	0xbf
 2937 0d22 86000000 		.4byte	0x86
 2938 0d26 7A040000 		.4byte	.LLST44
 2939 0d2a 00       		.byte	0x0
 2940 0d2b 22       		.uleb128 0x22
 2941 0d2c 42000000 		.4byte	.LBB8
 2942 0d30 48000000 		.4byte	.LBE8
 2943 0d34 21       		.uleb128 0x21
 2944 0d35 746D7000 		.ascii	"tmp\000"
 2945 0d39 01       		.byte	0x1
 2946 0d3a C8       		.byte	0xc8
 2947 0d3b 86000000 		.4byte	0x86
 2948 0d3f 8D040000 		.4byte	.LLST45
 2949 0d43 00       		.byte	0x0
 2950 0d44 00       		.byte	0x0
 2951 0d45 25       		.uleb128 0x25
 2952 0d46 01       		.byte	0x1
 2953 0d47 E9030000 		.4byte	.LASF122
 2954 0d4b 01       		.byte	0x1
 2955 0d4c DB       		.byte	0xdb
 2956 0d4d 01       		.byte	0x1
 2957 0d4e 00000000 		.4byte	.LFB75
 2958 0d52 5C000000 		.4byte	.LFE75
 2959 0d56 A0040000 		.4byte	.LLST46
 2960 0d5a 7B0D0000 		.4byte	0xd7b
 2961 0d5e 1D       		.uleb128 0x1d
 2962 0d5f 73647000 		.ascii	"sdp\000"
 2963 0d63 01       		.byte	0x1
 2964 0d64 DB       		.byte	0xdb
 2965 0d65 670C0000 		.4byte	0xc67
 2966 0d69 C0040000 		.4byte	.LLST47
 2967 0d6d 1D       		.uleb128 0x1d
 2968 0d6e 6200     		.ascii	"b\000"
 2969 0d70 01       		.byte	0x1
 2970 0d71 DB       		.byte	0xdb
 2971 0d72 49000000 		.4byte	0x49
 2972 0d76 DE040000 		.4byte	.LLST48
 2973 0d7a 00       		.byte	0x0
 2974 0d7b 27       		.uleb128 0x27
 2975 0d7c 01       		.byte	0x1
 2976 0d7d 83040000 		.4byte	.LASF128
 2977 0d81 01       		.byte	0x1
 2978 0d82 F5       		.byte	0xf5
 2979 0d83 01       		.byte	0x1
 2980 0d84 E8000000 		.4byte	0xe8
 2981 0d88 00000000 		.4byte	.LFB76
 2982 0d8c 3C000000 		.4byte	.LFE76
 2983 0d90 F1040000 		.4byte	.LLST49
 2984 0d94 B50D0000 		.4byte	0xdb5
 2985 0d98 1D       		.uleb128 0x1d
 2986 0d99 73647000 		.ascii	"sdp\000"
 2987 0d9d 01       		.byte	0x1
 2988 0d9e F5       		.byte	0xf5
 2989 0d9f 670C0000 		.4byte	0xc67
 2990 0da3 11050000 		.4byte	.LLST50
ARM GAS  C:\Users\z80\AppData\Local\Temp\ccBUDbvc.s 			page 54


 2991 0da7 21       		.uleb128 0x21
 2992 0da8 6200     		.ascii	"b\000"
 2993 0daa 01       		.byte	0x1
 2994 0dab F6       		.byte	0xf6
 2995 0dac E8000000 		.4byte	0xe8
 2996 0db0 2F050000 		.4byte	.LLST51
 2997 0db4 00       		.byte	0x0
 2998 0db5 28       		.uleb128 0x28
 2999 0db6 8B000000 		.4byte	.LASF123
 3000 0dba 0F       		.byte	0xf
 3001 0dbb 9404     		.2byte	0x494
 3002 0dbd F7060000 		.4byte	0x6f7
 3003 0dc1 01       		.byte	0x1
 3004 0dc2 01       		.byte	0x1
 3005 0dc3 29       		.uleb128 0x29
 3006 0dc4 766D7400 		.ascii	"vmt\000"
 3007 0dc8 01       		.byte	0x1
 3008 0dc9 6C       		.byte	0x6c
 3009 0dca 79090000 		.4byte	0x979
 3010 0dce 05       		.byte	0x5
 3011 0dcf 03       		.byte	0x3
 3012 0dd0 00000000 		.4byte	vmt
 3013 0dd4 28       		.uleb128 0x28
 3014 0dd5 8B000000 		.4byte	.LASF123
 3015 0dd9 0F       		.byte	0xf
 3016 0dda 9404     		.2byte	0x494
 3017 0ddc F7060000 		.4byte	0x6f7
 3018 0de0 01       		.byte	0x1
 3019 0de1 01       		.byte	0x1
 3020 0de2 00       		.byte	0x0
 3021              		.section	.debug_abbrev
 3022 0000 01       		.uleb128 0x1
 3023 0001 11       		.uleb128 0x11
 3024 0002 01       		.byte	0x1
 3025 0003 25       		.uleb128 0x25
 3026 0004 0E       		.uleb128 0xe
 3027 0005 13       		.uleb128 0x13
 3028 0006 0B       		.uleb128 0xb
 3029 0007 03       		.uleb128 0x3
 3030 0008 0E       		.uleb128 0xe
 3031 0009 1B       		.uleb128 0x1b
 3032 000a 0E       		.uleb128 0xe
 3033 000b 11       		.uleb128 0x11
 3034 000c 01       		.uleb128 0x1
 3035 000d 52       		.uleb128 0x52
 3036 000e 01       		.uleb128 0x1
 3037 000f 55       		.uleb128 0x55
 3038 0010 06       		.uleb128 0x6
 3039 0011 10       		.uleb128 0x10
 3040 0012 06       		.uleb128 0x6
 3041 0013 00       		.byte	0x0
 3042 0014 00       		.byte	0x0
 3043 0015 02       		.uleb128 0x2
 3044 0016 24       		.uleb128 0x24
 3045 0017 00       		.byte	0x0
 3046 0018 0B       		.uleb128 0xb
 3047 0019 0B       		.uleb128 0xb
ARM GAS  C:\Users\z80\AppData\Local\Temp\ccBUDbvc.s 			page 55


 3048 001a 3E       		.uleb128 0x3e
 3049 001b 0B       		.uleb128 0xb
 3050 001c 03       		.uleb128 0x3
 3051 001d 08       		.uleb128 0x8
 3052 001e 00       		.byte	0x0
 3053 001f 00       		.byte	0x0
 3054 0020 03       		.uleb128 0x3
 3055 0021 16       		.uleb128 0x16
 3056 0022 00       		.byte	0x0
 3057 0023 03       		.uleb128 0x3
 3058 0024 0E       		.uleb128 0xe
 3059 0025 3A       		.uleb128 0x3a
 3060 0026 0B       		.uleb128 0xb
 3061 0027 3B       		.uleb128 0x3b
 3062 0028 0B       		.uleb128 0xb
 3063 0029 49       		.uleb128 0x49
 3064 002a 13       		.uleb128 0x13
 3065 002b 00       		.byte	0x0
 3066 002c 00       		.byte	0x0
 3067 002d 04       		.uleb128 0x4
 3068 002e 24       		.uleb128 0x24
 3069 002f 00       		.byte	0x0
 3070 0030 0B       		.uleb128 0xb
 3071 0031 0B       		.uleb128 0xb
 3072 0032 3E       		.uleb128 0x3e
 3073 0033 0B       		.uleb128 0xb
 3074 0034 03       		.uleb128 0x3
 3075 0035 0E       		.uleb128 0xe
 3076 0036 00       		.byte	0x0
 3077 0037 00       		.byte	0x0
 3078 0038 05       		.uleb128 0x5
 3079 0039 13       		.uleb128 0x13
 3080 003a 01       		.byte	0x1
 3081 003b 03       		.uleb128 0x3
 3082 003c 0E       		.uleb128 0xe
 3083 003d 0B       		.uleb128 0xb
 3084 003e 0B       		.uleb128 0xb
 3085 003f 3A       		.uleb128 0x3a
 3086 0040 0B       		.uleb128 0xb
 3087 0041 3B       		.uleb128 0x3b
 3088 0042 0B       		.uleb128 0xb
 3089 0043 01       		.uleb128 0x1
 3090 0044 13       		.uleb128 0x13
 3091 0045 00       		.byte	0x0
 3092 0046 00       		.byte	0x0
 3093 0047 06       		.uleb128 0x6
 3094 0048 0D       		.uleb128 0xd
 3095 0049 00       		.byte	0x0
 3096 004a 03       		.uleb128 0x3
 3097 004b 0E       		.uleb128 0xe
 3098 004c 3A       		.uleb128 0x3a
 3099 004d 0B       		.uleb128 0xb
 3100 004e 3B       		.uleb128 0x3b
 3101 004f 0B       		.uleb128 0xb
 3102 0050 49       		.uleb128 0x49
 3103 0051 13       		.uleb128 0x13
 3104 0052 38       		.uleb128 0x38
ARM GAS  C:\Users\z80\AppData\Local\Temp\ccBUDbvc.s 			page 56


 3105 0053 0A       		.uleb128 0xa
 3106 0054 00       		.byte	0x0
 3107 0055 00       		.byte	0x0
 3108 0056 07       		.uleb128 0x7
 3109 0057 0D       		.uleb128 0xd
 3110 0058 00       		.byte	0x0
 3111 0059 03       		.uleb128 0x3
 3112 005a 08       		.uleb128 0x8
 3113 005b 3A       		.uleb128 0x3a
 3114 005c 0B       		.uleb128 0xb
 3115 005d 3B       		.uleb128 0x3b
 3116 005e 0B       		.uleb128 0xb
 3117 005f 49       		.uleb128 0x49
 3118 0060 13       		.uleb128 0x13
 3119 0061 38       		.uleb128 0x38
 3120 0062 0A       		.uleb128 0xa
 3121 0063 00       		.byte	0x0
 3122 0064 00       		.byte	0x0
 3123 0065 08       		.uleb128 0x8
 3124 0066 13       		.uleb128 0x13
 3125 0067 01       		.byte	0x1
 3126 0068 0B       		.uleb128 0xb
 3127 0069 0B       		.uleb128 0xb
 3128 006a 3A       		.uleb128 0x3a
 3129 006b 0B       		.uleb128 0xb
 3130 006c 3B       		.uleb128 0x3b
 3131 006d 0B       		.uleb128 0xb
 3132 006e 01       		.uleb128 0x1
 3133 006f 13       		.uleb128 0x13
 3134 0070 00       		.byte	0x0
 3135 0071 00       		.byte	0x0
 3136 0072 09       		.uleb128 0x9
 3137 0073 0F       		.uleb128 0xf
 3138 0074 00       		.byte	0x0
 3139 0075 0B       		.uleb128 0xb
 3140 0076 0B       		.uleb128 0xb
 3141 0077 49       		.uleb128 0x49
 3142 0078 13       		.uleb128 0x13
 3143 0079 00       		.byte	0x0
 3144 007a 00       		.byte	0x0
 3145 007b 0A       		.uleb128 0xa
 3146 007c 0F       		.uleb128 0xf
 3147 007d 00       		.byte	0x0
 3148 007e 0B       		.uleb128 0xb
 3149 007f 0B       		.uleb128 0xb
 3150 0080 00       		.byte	0x0
 3151 0081 00       		.byte	0x0
 3152 0082 0B       		.uleb128 0xb
 3153 0083 0D       		.uleb128 0xd
 3154 0084 00       		.byte	0x0
 3155 0085 03       		.uleb128 0x3
 3156 0086 08       		.uleb128 0x8
 3157 0087 3A       		.uleb128 0x3a
 3158 0088 0B       		.uleb128 0xb
 3159 0089 3B       		.uleb128 0x3b
 3160 008a 05       		.uleb128 0x5
 3161 008b 49       		.uleb128 0x49
ARM GAS  C:\Users\z80\AppData\Local\Temp\ccBUDbvc.s 			page 57


 3162 008c 13       		.uleb128 0x13
 3163 008d 38       		.uleb128 0x38
 3164 008e 0A       		.uleb128 0xa
 3165 008f 00       		.byte	0x0
 3166 0090 00       		.byte	0x0
 3167 0091 0C       		.uleb128 0xc
 3168 0092 13       		.uleb128 0x13
 3169 0093 01       		.byte	0x1
 3170 0094 03       		.uleb128 0x3
 3171 0095 0E       		.uleb128 0xe
 3172 0096 0B       		.uleb128 0xb
 3173 0097 0B       		.uleb128 0xb
 3174 0098 3A       		.uleb128 0x3a
 3175 0099 0B       		.uleb128 0xb
 3176 009a 3B       		.uleb128 0x3b
 3177 009b 05       		.uleb128 0x5
 3178 009c 01       		.uleb128 0x1
 3179 009d 13       		.uleb128 0x13
 3180 009e 00       		.byte	0x0
 3181 009f 00       		.byte	0x0
 3182 00a0 0D       		.uleb128 0xd
 3183 00a1 24       		.uleb128 0x24
 3184 00a2 00       		.byte	0x0
 3185 00a3 0B       		.uleb128 0xb
 3186 00a4 0B       		.uleb128 0xb
 3187 00a5 3E       		.uleb128 0x3e
 3188 00a6 0B       		.uleb128 0xb
 3189 00a7 00       		.byte	0x0
 3190 00a8 00       		.byte	0x0
 3191 00a9 0E       		.uleb128 0xe
 3192 00aa 35       		.uleb128 0x35
 3193 00ab 00       		.byte	0x0
 3194 00ac 49       		.uleb128 0x49
 3195 00ad 13       		.uleb128 0x13
 3196 00ae 00       		.byte	0x0
 3197 00af 00       		.byte	0x0
 3198 00b0 0F       		.uleb128 0xf
 3199 00b1 17       		.uleb128 0x17
 3200 00b2 01       		.byte	0x1
 3201 00b3 0B       		.uleb128 0xb
 3202 00b4 0B       		.uleb128 0xb
 3203 00b5 3A       		.uleb128 0x3a
 3204 00b6 0B       		.uleb128 0xb
 3205 00b7 3B       		.uleb128 0x3b
 3206 00b8 0B       		.uleb128 0xb
 3207 00b9 01       		.uleb128 0x1
 3208 00ba 13       		.uleb128 0x13
 3209 00bb 00       		.byte	0x0
 3210 00bc 00       		.byte	0x0
 3211 00bd 10       		.uleb128 0x10
 3212 00be 0D       		.uleb128 0xd
 3213 00bf 00       		.byte	0x0
 3214 00c0 03       		.uleb128 0x3
 3215 00c1 0E       		.uleb128 0xe
 3216 00c2 3A       		.uleb128 0x3a
 3217 00c3 0B       		.uleb128 0xb
 3218 00c4 3B       		.uleb128 0x3b
ARM GAS  C:\Users\z80\AppData\Local\Temp\ccBUDbvc.s 			page 58


 3219 00c5 0B       		.uleb128 0xb
 3220 00c6 49       		.uleb128 0x49
 3221 00c7 13       		.uleb128 0x13
 3222 00c8 00       		.byte	0x0
 3223 00c9 00       		.byte	0x0
 3224 00ca 11       		.uleb128 0x11
 3225 00cb 26       		.uleb128 0x26
 3226 00cc 00       		.byte	0x0
 3227 00cd 49       		.uleb128 0x49
 3228 00ce 13       		.uleb128 0x13
 3229 00cf 00       		.byte	0x0
 3230 00d0 00       		.byte	0x0
 3231 00d1 12       		.uleb128 0x12
 3232 00d2 15       		.uleb128 0x15
 3233 00d3 01       		.byte	0x1
 3234 00d4 27       		.uleb128 0x27
 3235 00d5 0C       		.uleb128 0xc
 3236 00d6 01       		.uleb128 0x1
 3237 00d7 13       		.uleb128 0x13
 3238 00d8 00       		.byte	0x0
 3239 00d9 00       		.byte	0x0
 3240 00da 13       		.uleb128 0x13
 3241 00db 05       		.uleb128 0x5
 3242 00dc 00       		.byte	0x0
 3243 00dd 49       		.uleb128 0x49
 3244 00de 13       		.uleb128 0x13
 3245 00df 00       		.byte	0x0
 3246 00e0 00       		.byte	0x0
 3247 00e1 14       		.uleb128 0x14
 3248 00e2 15       		.uleb128 0x15
 3249 00e3 01       		.byte	0x1
 3250 00e4 27       		.uleb128 0x27
 3251 00e5 0C       		.uleb128 0xc
 3252 00e6 49       		.uleb128 0x49
 3253 00e7 13       		.uleb128 0x13
 3254 00e8 01       		.uleb128 0x1
 3255 00e9 13       		.uleb128 0x13
 3256 00ea 00       		.byte	0x0
 3257 00eb 00       		.byte	0x0
 3258 00ec 15       		.uleb128 0x15
 3259 00ed 16       		.uleb128 0x16
 3260 00ee 00       		.byte	0x0
 3261 00ef 03       		.uleb128 0x3
 3262 00f0 0E       		.uleb128 0xe
 3263 00f1 3A       		.uleb128 0x3a
 3264 00f2 0B       		.uleb128 0xb
 3265 00f3 3B       		.uleb128 0x3b
 3266 00f4 05       		.uleb128 0x5
 3267 00f5 49       		.uleb128 0x49
 3268 00f6 13       		.uleb128 0x13
 3269 00f7 00       		.byte	0x0
 3270 00f8 00       		.byte	0x0
 3271 00f9 16       		.uleb128 0x16
 3272 00fa 0D       		.uleb128 0xd
 3273 00fb 00       		.byte	0x0
 3274 00fc 03       		.uleb128 0x3
 3275 00fd 0E       		.uleb128 0xe
ARM GAS  C:\Users\z80\AppData\Local\Temp\ccBUDbvc.s 			page 59


 3276 00fe 3A       		.uleb128 0x3a
 3277 00ff 0B       		.uleb128 0xb
 3278 0100 3B       		.uleb128 0x3b
 3279 0101 05       		.uleb128 0x5
 3280 0102 49       		.uleb128 0x49
 3281 0103 13       		.uleb128 0x13
 3282 0104 38       		.uleb128 0x38
 3283 0105 0A       		.uleb128 0xa
 3284 0106 00       		.byte	0x0
 3285 0107 00       		.byte	0x0
 3286 0108 17       		.uleb128 0x17
 3287 0109 13       		.uleb128 0x13
 3288 010a 01       		.byte	0x1
 3289 010b 0B       		.uleb128 0xb
 3290 010c 0B       		.uleb128 0xb
 3291 010d 3A       		.uleb128 0x3a
 3292 010e 0B       		.uleb128 0xb
 3293 010f 3B       		.uleb128 0x3b
 3294 0110 05       		.uleb128 0x5
 3295 0111 01       		.uleb128 0x1
 3296 0112 13       		.uleb128 0x13
 3297 0113 00       		.byte	0x0
 3298 0114 00       		.byte	0x0
 3299 0115 18       		.uleb128 0x18
 3300 0116 04       		.uleb128 0x4
 3301 0117 01       		.byte	0x1
 3302 0118 0B       		.uleb128 0xb
 3303 0119 0B       		.uleb128 0xb
 3304 011a 3A       		.uleb128 0x3a
 3305 011b 0B       		.uleb128 0xb
 3306 011c 3B       		.uleb128 0x3b
 3307 011d 0B       		.uleb128 0xb
 3308 011e 01       		.uleb128 0x1
 3309 011f 13       		.uleb128 0x13
 3310 0120 00       		.byte	0x0
 3311 0121 00       		.byte	0x0
 3312 0122 19       		.uleb128 0x19
 3313 0123 28       		.uleb128 0x28
 3314 0124 00       		.byte	0x0
 3315 0125 03       		.uleb128 0x3
 3316 0126 0E       		.uleb128 0xe
 3317 0127 1C       		.uleb128 0x1c
 3318 0128 0D       		.uleb128 0xd
 3319 0129 00       		.byte	0x0
 3320 012a 00       		.byte	0x0
 3321 012b 1A       		.uleb128 0x1a
 3322 012c 01       		.uleb128 0x1
 3323 012d 01       		.byte	0x1
 3324 012e 49       		.uleb128 0x49
 3325 012f 13       		.uleb128 0x13
 3326 0130 01       		.uleb128 0x1
 3327 0131 13       		.uleb128 0x13
 3328 0132 00       		.byte	0x0
 3329 0133 00       		.byte	0x0
 3330 0134 1B       		.uleb128 0x1b
 3331 0135 21       		.uleb128 0x21
 3332 0136 00       		.byte	0x0
ARM GAS  C:\Users\z80\AppData\Local\Temp\ccBUDbvc.s 			page 60


 3333 0137 49       		.uleb128 0x49
 3334 0138 13       		.uleb128 0x13
 3335 0139 2F       		.uleb128 0x2f
 3336 013a 0B       		.uleb128 0xb
 3337 013b 00       		.byte	0x0
 3338 013c 00       		.byte	0x0
 3339 013d 1C       		.uleb128 0x1c
 3340 013e 2E       		.uleb128 0x2e
 3341 013f 01       		.byte	0x1
 3342 0140 03       		.uleb128 0x3
 3343 0141 0E       		.uleb128 0xe
 3344 0142 3A       		.uleb128 0x3a
 3345 0143 0B       		.uleb128 0xb
 3346 0144 3B       		.uleb128 0x3b
 3347 0145 0B       		.uleb128 0xb
 3348 0146 27       		.uleb128 0x27
 3349 0147 0C       		.uleb128 0xc
 3350 0148 49       		.uleb128 0x49
 3351 0149 13       		.uleb128 0x13
 3352 014a 11       		.uleb128 0x11
 3353 014b 01       		.uleb128 0x1
 3354 014c 12       		.uleb128 0x12
 3355 014d 01       		.uleb128 0x1
 3356 014e 40       		.uleb128 0x40
 3357 014f 0A       		.uleb128 0xa
 3358 0150 01       		.uleb128 0x1
 3359 0151 13       		.uleb128 0x13
 3360 0152 00       		.byte	0x0
 3361 0153 00       		.byte	0x0
 3362 0154 1D       		.uleb128 0x1d
 3363 0155 05       		.uleb128 0x5
 3364 0156 00       		.byte	0x0
 3365 0157 03       		.uleb128 0x3
 3366 0158 08       		.uleb128 0x8
 3367 0159 3A       		.uleb128 0x3a
 3368 015a 0B       		.uleb128 0xb
 3369 015b 3B       		.uleb128 0x3b
 3370 015c 0B       		.uleb128 0xb
 3371 015d 49       		.uleb128 0x49
 3372 015e 13       		.uleb128 0x13
 3373 015f 02       		.uleb128 0x2
 3374 0160 06       		.uleb128 0x6
 3375 0161 00       		.byte	0x0
 3376 0162 00       		.byte	0x0
 3377 0163 1E       		.uleb128 0x1e
 3378 0164 2E       		.uleb128 0x2e
 3379 0165 01       		.byte	0x1
 3380 0166 03       		.uleb128 0x3
 3381 0167 0E       		.uleb128 0xe
 3382 0168 3A       		.uleb128 0x3a
 3383 0169 0B       		.uleb128 0xb
 3384 016a 3B       		.uleb128 0x3b
 3385 016b 0B       		.uleb128 0xb
 3386 016c 27       		.uleb128 0x27
 3387 016d 0C       		.uleb128 0xc
 3388 016e 49       		.uleb128 0x49
 3389 016f 13       		.uleb128 0x13
ARM GAS  C:\Users\z80\AppData\Local\Temp\ccBUDbvc.s 			page 61


 3390 0170 11       		.uleb128 0x11
 3391 0171 01       		.uleb128 0x1
 3392 0172 12       		.uleb128 0x12
 3393 0173 01       		.uleb128 0x1
 3394 0174 40       		.uleb128 0x40
 3395 0175 06       		.uleb128 0x6
 3396 0176 01       		.uleb128 0x1
 3397 0177 13       		.uleb128 0x13
 3398 0178 00       		.byte	0x0
 3399 0179 00       		.byte	0x0
 3400 017a 1F       		.uleb128 0x1f
 3401 017b 34       		.uleb128 0x34
 3402 017c 00       		.byte	0x0
 3403 017d 03       		.uleb128 0x3
 3404 017e 0E       		.uleb128 0xe
 3405 017f 3A       		.uleb128 0x3a
 3406 0180 0B       		.uleb128 0xb
 3407 0181 3B       		.uleb128 0x3b
 3408 0182 0B       		.uleb128 0xb
 3409 0183 49       		.uleb128 0x49
 3410 0184 13       		.uleb128 0x13
 3411 0185 02       		.uleb128 0x2
 3412 0186 06       		.uleb128 0x6
 3413 0187 00       		.byte	0x0
 3414 0188 00       		.byte	0x0
 3415 0189 20       		.uleb128 0x20
 3416 018a 0B       		.uleb128 0xb
 3417 018b 01       		.byte	0x1
 3418 018c 55       		.uleb128 0x55
 3419 018d 06       		.uleb128 0x6
 3420 018e 01       		.uleb128 0x1
 3421 018f 13       		.uleb128 0x13
 3422 0190 00       		.byte	0x0
 3423 0191 00       		.byte	0x0
 3424 0192 21       		.uleb128 0x21
 3425 0193 34       		.uleb128 0x34
 3426 0194 00       		.byte	0x0
 3427 0195 03       		.uleb128 0x3
 3428 0196 08       		.uleb128 0x8
 3429 0197 3A       		.uleb128 0x3a
 3430 0198 0B       		.uleb128 0xb
 3431 0199 3B       		.uleb128 0x3b
 3432 019a 0B       		.uleb128 0xb
 3433 019b 49       		.uleb128 0x49
 3434 019c 13       		.uleb128 0x13
 3435 019d 02       		.uleb128 0x2
 3436 019e 06       		.uleb128 0x6
 3437 019f 00       		.byte	0x0
 3438 01a0 00       		.byte	0x0
 3439 01a1 22       		.uleb128 0x22
 3440 01a2 0B       		.uleb128 0xb
 3441 01a3 01       		.byte	0x1
 3442 01a4 11       		.uleb128 0x11
 3443 01a5 01       		.uleb128 0x1
 3444 01a6 12       		.uleb128 0x12
 3445 01a7 01       		.uleb128 0x1
 3446 01a8 00       		.byte	0x0
ARM GAS  C:\Users\z80\AppData\Local\Temp\ccBUDbvc.s 			page 62


 3447 01a9 00       		.byte	0x0
 3448 01aa 23       		.uleb128 0x23
 3449 01ab 05       		.uleb128 0x5
 3450 01ac 00       		.byte	0x0
 3451 01ad 03       		.uleb128 0x3
 3452 01ae 0E       		.uleb128 0xe
 3453 01af 3A       		.uleb128 0x3a
 3454 01b0 0B       		.uleb128 0xb
 3455 01b1 3B       		.uleb128 0x3b
 3456 01b2 0B       		.uleb128 0xb
 3457 01b3 49       		.uleb128 0x49
 3458 01b4 13       		.uleb128 0x13
 3459 01b5 02       		.uleb128 0x2
 3460 01b6 06       		.uleb128 0x6
 3461 01b7 00       		.byte	0x0
 3462 01b8 00       		.byte	0x0
 3463 01b9 24       		.uleb128 0x24
 3464 01ba 2E       		.uleb128 0x2e
 3465 01bb 00       		.byte	0x0
 3466 01bc 3F       		.uleb128 0x3f
 3467 01bd 0C       		.uleb128 0xc
 3468 01be 03       		.uleb128 0x3
 3469 01bf 0E       		.uleb128 0xe
 3470 01c0 3A       		.uleb128 0x3a
 3471 01c1 0B       		.uleb128 0xb
 3472 01c2 3B       		.uleb128 0x3b
 3473 01c3 0B       		.uleb128 0xb
 3474 01c4 27       		.uleb128 0x27
 3475 01c5 0C       		.uleb128 0xc
 3476 01c6 11       		.uleb128 0x11
 3477 01c7 01       		.uleb128 0x1
 3478 01c8 12       		.uleb128 0x12
 3479 01c9 01       		.uleb128 0x1
 3480 01ca 40       		.uleb128 0x40
 3481 01cb 06       		.uleb128 0x6
 3482 01cc 00       		.byte	0x0
 3483 01cd 00       		.byte	0x0
 3484 01ce 25       		.uleb128 0x25
 3485 01cf 2E       		.uleb128 0x2e
 3486 01d0 01       		.byte	0x1
 3487 01d1 3F       		.uleb128 0x3f
 3488 01d2 0C       		.uleb128 0xc
 3489 01d3 03       		.uleb128 0x3
 3490 01d4 0E       		.uleb128 0xe
 3491 01d5 3A       		.uleb128 0x3a
 3492 01d6 0B       		.uleb128 0xb
 3493 01d7 3B       		.uleb128 0x3b
 3494 01d8 0B       		.uleb128 0xb
 3495 01d9 27       		.uleb128 0x27
 3496 01da 0C       		.uleb128 0xc
 3497 01db 11       		.uleb128 0x11
 3498 01dc 01       		.uleb128 0x1
 3499 01dd 12       		.uleb128 0x12
 3500 01de 01       		.uleb128 0x1
 3501 01df 40       		.uleb128 0x40
 3502 01e0 06       		.uleb128 0x6
 3503 01e1 01       		.uleb128 0x1
ARM GAS  C:\Users\z80\AppData\Local\Temp\ccBUDbvc.s 			page 63


 3504 01e2 13       		.uleb128 0x13
 3505 01e3 00       		.byte	0x0
 3506 01e4 00       		.byte	0x0
 3507 01e5 26       		.uleb128 0x26
 3508 01e6 0B       		.uleb128 0xb
 3509 01e7 01       		.byte	0x1
 3510 01e8 11       		.uleb128 0x11
 3511 01e9 01       		.uleb128 0x1
 3512 01ea 12       		.uleb128 0x12
 3513 01eb 01       		.uleb128 0x1
 3514 01ec 01       		.uleb128 0x1
 3515 01ed 13       		.uleb128 0x13
 3516 01ee 00       		.byte	0x0
 3517 01ef 00       		.byte	0x0
 3518 01f0 27       		.uleb128 0x27
 3519 01f1 2E       		.uleb128 0x2e
 3520 01f2 01       		.byte	0x1
 3521 01f3 3F       		.uleb128 0x3f
 3522 01f4 0C       		.uleb128 0xc
 3523 01f5 03       		.uleb128 0x3
 3524 01f6 0E       		.uleb128 0xe
 3525 01f7 3A       		.uleb128 0x3a
 3526 01f8 0B       		.uleb128 0xb
 3527 01f9 3B       		.uleb128 0x3b
 3528 01fa 0B       		.uleb128 0xb
 3529 01fb 27       		.uleb128 0x27
 3530 01fc 0C       		.uleb128 0xc
 3531 01fd 49       		.uleb128 0x49
 3532 01fe 13       		.uleb128 0x13
 3533 01ff 11       		.uleb128 0x11
 3534 0200 01       		.uleb128 0x1
 3535 0201 12       		.uleb128 0x12
 3536 0202 01       		.uleb128 0x1
 3537 0203 40       		.uleb128 0x40
 3538 0204 06       		.uleb128 0x6
 3539 0205 01       		.uleb128 0x1
 3540 0206 13       		.uleb128 0x13
 3541 0207 00       		.byte	0x0
 3542 0208 00       		.byte	0x0
 3543 0209 28       		.uleb128 0x28
 3544 020a 34       		.uleb128 0x34
 3545 020b 00       		.byte	0x0
 3546 020c 03       		.uleb128 0x3
 3547 020d 0E       		.uleb128 0xe
 3548 020e 3A       		.uleb128 0x3a
 3549 020f 0B       		.uleb128 0xb
 3550 0210 3B       		.uleb128 0x3b
 3551 0211 05       		.uleb128 0x5
 3552 0212 49       		.uleb128 0x49
 3553 0213 13       		.uleb128 0x13
 3554 0214 3F       		.uleb128 0x3f
 3555 0215 0C       		.uleb128 0xc
 3556 0216 3C       		.uleb128 0x3c
 3557 0217 0C       		.uleb128 0xc
 3558 0218 00       		.byte	0x0
 3559 0219 00       		.byte	0x0
 3560 021a 29       		.uleb128 0x29
ARM GAS  C:\Users\z80\AppData\Local\Temp\ccBUDbvc.s 			page 64


 3561 021b 34       		.uleb128 0x34
 3562 021c 00       		.byte	0x0
 3563 021d 03       		.uleb128 0x3
 3564 021e 08       		.uleb128 0x8
 3565 021f 3A       		.uleb128 0x3a
 3566 0220 0B       		.uleb128 0xb
 3567 0221 3B       		.uleb128 0x3b
 3568 0222 0B       		.uleb128 0xb
 3569 0223 49       		.uleb128 0x49
 3570 0224 13       		.uleb128 0x13
 3571 0225 02       		.uleb128 0x2
 3572 0226 0A       		.uleb128 0xa
 3573 0227 00       		.byte	0x0
 3574 0228 00       		.byte	0x0
 3575 0229 00       		.byte	0x0
 3576              		.section	.debug_pubnames,"",%progbits
 3577 0000 68000000 		.4byte	0x68
 3578 0004 0200     		.2byte	0x2
 3579 0006 00000000 		.4byte	.Ldebug_info0
 3580 000a E30D0000 		.4byte	0xde3
 3581 000e 0B0C0000 		.4byte	0xc0b
 3582 0012 7364496E 		.ascii	"sdInit\000"
 3582      697400
 3583 0019 200C0000 		.4byte	0xc20
 3584 001d 73644F62 		.ascii	"sdObjectInit\000"
 3584      6A656374 
 3584      496E6974 
 3584      00
 3585 002a 6D0C0000 		.4byte	0xc6d
 3586 002e 73645374 		.ascii	"sdStart\000"
 3586      61727400 
 3587 0036 E60C0000 		.4byte	0xce6
 3588 003a 73645374 		.ascii	"sdStop\000"
 3588      6F7000
 3589 0041 450D0000 		.4byte	0xd45
 3590 0045 7364496E 		.ascii	"sdIncomingDataI\000"
 3590      636F6D69 
 3590      6E674461 
 3590      74614900 
 3591 0055 7B0D0000 		.4byte	0xd7b
 3592 0059 73645265 		.ascii	"sdRequestDataI\000"
 3592      71756573 
 3592      74446174 
 3592      614900
 3593 0068 00000000 		.4byte	0x0
 3594              		.section	.debug_pubtypes,"",%progbits
 3595 0000 83020000 		.4byte	0x283
 3596 0004 0200     		.2byte	0x2
 3597 0006 00000000 		.4byte	.Ldebug_info0
 3598 000a E30D0000 		.4byte	0xde3
 3599 000e 30000000 		.4byte	0x30
 3600 0012 73697A65 		.ascii	"size_t\000"
 3600      5F7400
 3601 0019 49000000 		.4byte	0x49
 3602 001d 75696E74 		.ascii	"uint8_t\000"
 3602      385F7400 
 3603 0025 62000000 		.4byte	0x62
ARM GAS  C:\Users\z80\AppData\Local\Temp\ccBUDbvc.s 			page 65


 3604 0029 75696E74 		.ascii	"uint16_t\000"
 3604      31365F74 
 3604      00
 3605 0032 74000000 		.4byte	0x74
 3606 0036 696E7433 		.ascii	"int32_t\000"
 3606      325F7400 
 3607 003e 86000000 		.4byte	0x86
 3608 0042 75696E74 		.ascii	"uint32_t\000"
 3608      33325F74 
 3608      00
 3609 004b 9F000000 		.4byte	0x9f
 3610 004f 75696E74 		.ascii	"uint64_t\000"
 3610      36345F74 
 3610      00
 3611 0058 B1000000 		.4byte	0xb1
 3612 005c 75696E74 		.ascii	"uint_fast16_t\000"
 3612      5F666173 
 3612      7431365F 
 3612      7400
 3613 006a BC000000 		.4byte	0xbc
 3614 006e 626F6F6C 		.ascii	"bool_t\000"
 3614      5F7400
 3615 0075 C7000000 		.4byte	0xc7
 3616 0079 746D6F64 		.ascii	"tmode_t\000"
 3616      655F7400 
 3617 0081 D2000000 		.4byte	0xd2
 3618 0085 74737461 		.ascii	"tstate_t\000"
 3618      74655F74 
 3618      00
 3619 008e DD000000 		.4byte	0xdd
 3620 0092 74707269 		.ascii	"tprio_t\000"
 3620      6F5F7400 
 3621 009a E8000000 		.4byte	0xe8
 3622 009e 6D73675F 		.ascii	"msg_t\000"
 3622      7400
 3623 00a4 F3000000 		.4byte	0xf3
 3624 00a8 6576656E 		.ascii	"eventmask_t\000"
 3624      746D6173 
 3624      6B5F7400 
 3625 00b4 FE000000 		.4byte	0xfe
 3626 00b8 73797374 		.ascii	"systime_t\000"
 3626      696D655F 
 3626      7400
 3627 00c2 09010000 		.4byte	0x109
 3628 00c6 54687265 		.ascii	"Thread\000"
 3628      616400
 3629 00cd 48020000 		.4byte	0x248
 3630 00d1 54687265 		.ascii	"ThreadsQueue\000"
 3630      61647351 
 3630      75657565 
 3630      00
 3631 00de 6A020000 		.4byte	0x26a
 3632 00e2 54687265 		.ascii	"ThreadsList\000"
 3632      6164734C 
 3632      69737400 
 3633 00ee 75020000 		.4byte	0x275
 3634 00f2 72656761 		.ascii	"regarm_t\000"
ARM GAS  C:\Users\z80\AppData\Local\Temp\ccBUDbvc.s 			page 66


 3634      726D5F74 
 3634      00
 3635 00fb 82020000 		.4byte	0x282
 3636 00ff 73746B61 		.ascii	"stkalign_t\000"
 3636      6C69676E 
 3636      5F7400
 3637 010a 8D020000 		.4byte	0x28d
 3638 010e 696E7463 		.ascii	"intctx\000"
 3638      747800
 3639 0115 1A030000 		.4byte	0x31a
 3640 0119 636F6E74 		.ascii	"context\000"
 3640      65787400 
 3641 0121 45030000 		.4byte	0x345
 3642 0125 4D757465 		.ascii	"Mutex\000"
 3642      7800
 3643 012b 82030000 		.4byte	0x382
 3644 012f 4D757465 		.ascii	"Mutex\000"
 3644      7800
 3645 0135 8D030000 		.4byte	0x38d
 3646 0139 4576656E 		.ascii	"EventListener\000"
 3646      744C6973 
 3646      74656E65 
 3646      7200
 3647 0147 98030000 		.4byte	0x398
 3648 014b 4576656E 		.ascii	"EventListener\000"
 3648      744C6973 
 3648      74656E65 
 3648      7200
 3649 0159 D5030000 		.4byte	0x3d5
 3650 015d 4576656E 		.ascii	"EventSource\000"
 3650      74536F75 
 3650      72636500 
 3651 0169 F0030000 		.4byte	0x3f0
 3652 016d 4576656E 		.ascii	"EventSource\000"
 3652      74536F75 
 3652      72636500 
 3653 0179 14010000 		.4byte	0x114
 3654 017d 54687265 		.ascii	"Thread\000"
 3654      616400
 3655 0184 4E040000 		.4byte	0x44e
 3656 0188 47656E65 		.ascii	"GenericQueue\000"
 3656      72696351 
 3656      75657565 
 3656      00
 3657 0195 C8040000 		.4byte	0x4c8
 3658 0199 716E6F74 		.ascii	"qnotify_t\000"
 3658      6966795F 
 3658      7400
 3659 01a3 59040000 		.4byte	0x459
 3660 01a7 47656E65 		.ascii	"GenericQueue\000"
 3660      72696351 
 3660      75657565 
 3660      00
 3661 01b4 F1040000 		.4byte	0x4f1
 3662 01b8 496E7075 		.ascii	"InputQueue\000"
 3662      74517565 
 3662      756500
ARM GAS  C:\Users\z80\AppData\Local\Temp\ccBUDbvc.s 			page 67


 3663 01c3 FC040000 		.4byte	0x4fc
 3664 01c7 4F757470 		.ascii	"OutputQueue\000"
 3664      75745175 
 3664      65756500 
 3665 01d3 ED050000 		.4byte	0x5ed
 3666 01d7 696F666C 		.ascii	"ioflags_t\000"
 3666      6167735F 
 3666      7400
 3667 01e1 F9050000 		.4byte	0x5f9
 3668 01e5 42617365 		.ascii	"BaseAsynchronousChannelVMT\000"
 3668      4173796E 
 3668      6368726F 
 3668      6E6F7573 
 3668      4368616E 
 3669 0200 E6060000 		.4byte	0x6e6
 3670 0204 42617365 		.ascii	"BaseAsynchronousChannel\000"
 3670      4173796E 
 3670      6368726F 
 3670      6E6F7573 
 3670      4368616E 
 3671 021c D6070000 		.4byte	0x7d6
 3672 0220 55534152 		.ascii	"USART_TypeDef\000"
 3672      545F5479 
 3672      70654465 
 3672      6600
 3673 022e FD070000 		.4byte	0x7fd
 3674 0232 73647374 		.ascii	"sdstate_t\000"
 3674      6174655F 
 3674      7400
 3675 023c 08080000 		.4byte	0x808
 3676 0240 53657269 		.ascii	"SerialDriver\000"
 3676      616C4472 
 3676      69766572 
 3676      00
 3677 024d DD080000 		.4byte	0x8dd
 3678 0251 53657269 		.ascii	"SerialConfig\000"
 3678      616C436F 
 3678      6E666967 
 3678      00
 3679 025e E8080000 		.4byte	0x8e8
 3680 0262 53657269 		.ascii	"SerialDriverVMT\000"
 3680      616C4472 
 3680      69766572 
 3680      564D5400 
 3681 0272 13080000 		.4byte	0x813
 3682 0276 53657269 		.ascii	"SerialDriver\000"
 3682      616C4472 
 3682      69766572 
 3682      00
 3683 0283 00000000 		.4byte	0x0
 3684              		.section	.debug_aranges,"",%progbits
 3685 0000 8C000000 		.4byte	0x8c
 3686 0004 0200     		.2byte	0x2
 3687 0006 00000000 		.4byte	.Ldebug_info0
 3688 000a 04       		.byte	0x4
 3689 000b 00       		.byte	0x0
 3690 000c 0000     		.2byte	0x0
ARM GAS  C:\Users\z80\AppData\Local\Temp\ccBUDbvc.s 			page 68


 3691 000e 0000     		.2byte	0x0
 3692 0010 00000000 		.4byte	.LFB64
 3693 0014 0C000000 		.4byte	.LFE64-.LFB64
 3694 0018 00000000 		.4byte	.LFB65
 3695 001c 0C000000 		.4byte	.LFE65-.LFB65
 3696 0020 00000000 		.4byte	.LFB70
 3697 0024 22000000 		.4byte	.LFE70-.LFB70
 3698 0028 00000000 		.4byte	.LFB69
 3699 002c 0A000000 		.4byte	.LFE69-.LFB69
 3700 0030 00000000 		.4byte	.LFB63
 3701 0034 0E000000 		.4byte	.LFE63-.LFB63
 3702 0038 00000000 		.4byte	.LFB68
 3703 003c 0A000000 		.4byte	.LFE68-.LFB68
 3704 0040 00000000 		.4byte	.LFB62
 3705 0044 0E000000 		.4byte	.LFE62-.LFB62
 3706 0048 00000000 		.4byte	.LFB67
 3707 004c 0A000000 		.4byte	.LFE67-.LFB67
 3708 0050 00000000 		.4byte	.LFB66
 3709 0054 0A000000 		.4byte	.LFE66-.LFB66
 3710 0058 00000000 		.4byte	.LFB71
 3711 005c 08000000 		.4byte	.LFE71-.LFB71
 3712 0060 00000000 		.4byte	.LFB72
 3713 0064 4A000000 		.4byte	.LFE72-.LFB72
 3714 0068 00000000 		.4byte	.LFB73
 3715 006c 4C000000 		.4byte	.LFE73-.LFB73
 3716 0070 00000000 		.4byte	.LFB74
 3717 0074 5C000000 		.4byte	.LFE74-.LFB74
 3718 0078 00000000 		.4byte	.LFB75
 3719 007c 5C000000 		.4byte	.LFE75-.LFB75
 3720 0080 00000000 		.4byte	.LFB76
 3721 0084 3C000000 		.4byte	.LFE76-.LFB76
 3722 0088 00000000 		.4byte	0x0
 3723 008c 00000000 		.4byte	0x0
 3724              		.section	.debug_ranges,"",%progbits
 3725              	.Ldebug_ranges0:
 3726 0000 02000000 		.4byte	.LBB2
 3727 0004 04000000 		.4byte	.LBE2
 3728 0008 06000000 		.4byte	.LBB3
 3729 000c 0A000000 		.4byte	.LBE3
 3730 0010 00000000 		.4byte	0x0
 3731 0014 00000000 		.4byte	0x0
 3732 0018 00000000 		.4byte	.LFB64
 3733 001c 0C000000 		.4byte	.LFE64
 3734 0020 00000000 		.4byte	.LFB65
 3735 0024 0C000000 		.4byte	.LFE65
 3736 0028 00000000 		.4byte	.LFB70
 3737 002c 22000000 		.4byte	.LFE70
 3738 0030 00000000 		.4byte	.LFB69
 3739 0034 0A000000 		.4byte	.LFE69
 3740 0038 00000000 		.4byte	.LFB63
 3741 003c 0E000000 		.4byte	.LFE63
 3742 0040 00000000 		.4byte	.LFB68
 3743 0044 0A000000 		.4byte	.LFE68
 3744 0048 00000000 		.4byte	.LFB62
 3745 004c 0E000000 		.4byte	.LFE62
 3746 0050 00000000 		.4byte	.LFB67
 3747 0054 0A000000 		.4byte	.LFE67
ARM GAS  C:\Users\z80\AppData\Local\Temp\ccBUDbvc.s 			page 69


 3748 0058 00000000 		.4byte	.LFB66
 3749 005c 0A000000 		.4byte	.LFE66
 3750 0060 00000000 		.4byte	.LFB71
 3751 0064 08000000 		.4byte	.LFE71
 3752 0068 00000000 		.4byte	.LFB72
 3753 006c 4A000000 		.4byte	.LFE72
 3754 0070 00000000 		.4byte	.LFB73
 3755 0074 4C000000 		.4byte	.LFE73
 3756 0078 00000000 		.4byte	.LFB74
 3757 007c 5C000000 		.4byte	.LFE74
 3758 0080 00000000 		.4byte	.LFB75
 3759 0084 5C000000 		.4byte	.LFE75
 3760 0088 00000000 		.4byte	.LFB76
 3761 008c 3C000000 		.4byte	.LFE76
 3762 0090 00000000 		.4byte	0x0
 3763 0094 00000000 		.4byte	0x0
 3764              		.section	.debug_str,"MS",%progbits,1
 3765              	.LASF125:
 3766 0000 2E2E2F63 		.ascii	"../chibios_2.4.x/os/hal/src/serial.c\000"
 3766      68696269 
 3766      6F735F32 
 3766      2E342E78 
 3766      2F6F732F 
 3767              	.LASF103:
 3768 0025 73635F73 		.ascii	"sc_speed\000"
 3768      70656564 
 3768      00
 3769              	.LASF2:
 3770 002e 73697A65 		.ascii	"size_t\000"
 3770      5F7400
 3771              	.LASF57:
 3772 0035 7264796D 		.ascii	"rdymsg\000"
 3772      736700
 3773              	.LASF13:
 3774 003c 75696E74 		.ascii	"uint64_t\000"
 3774      36345F74 
 3774      00
 3775              	.LASF72:
 3776 0045 4F757470 		.ascii	"OutputQueue\000"
 3776      75745175 
 3776      65756500 
 3777              	.LASF21:
 3778 0051 6576656E 		.ascii	"eventmask_t\000"
 3778      746D6173 
 3778      6B5F7400 
 3779              	.LASF15:
 3780 005d 75696E74 		.ascii	"uint_fast16_t\000"
 3780      5F666173 
 3780      7431365F 
 3780      7400
 3781              	.LASF14:
 3782 006b 6C6F6E67 		.ascii	"long long unsigned int\000"
 3782      206C6F6E 
 3782      6720756E 
 3782      7369676E 
 3782      65642069 
 3783              	.LASF58:
ARM GAS  C:\Users\z80\AppData\Local\Temp\ccBUDbvc.s 			page 70


 3784 0082 65786974 		.ascii	"exitcode\000"
 3784      636F6465 
 3784      00
 3785              	.LASF123:
 3786 008b 49544D5F 		.ascii	"ITM_RxBuffer\000"
 3786      52784275 
 3786      66666572 
 3786      00
 3787              	.LASF118:
 3788 0098 73644F62 		.ascii	"sdObjectInit\000"
 3788      6A656374 
 3788      496E6974 
 3788      00
 3789              	.LASF111:
 3790 00a5 72656164 		.ascii	"reads\000"
 3790      7300
 3791              	.LASF80:
 3792 00ab 72656164 		.ascii	"readt\000"
 3792      7400
 3793              	.LASF63:
 3794 00b1 715F7761 		.ascii	"q_waiting\000"
 3794      6974696E 
 3794      6700
 3795              	.LASF12:
 3796 00bb 6C6F6E67 		.ascii	"long long int\000"
 3796      206C6F6E 
 3796      6720696E 
 3796      7400
 3797              	.LASF1:
 3798 00c9 7369676E 		.ascii	"signed char\000"
 3798      65642063 
 3798      68617200 
 3799              	.LASF91:
 3800 00d5 47545052 		.ascii	"GTPR\000"
 3800      00
 3801              	.LASF95:
 3802 00da 53445F53 		.ascii	"SD_STOP\000"
 3802      544F5000 
 3803              	.LASF16:
 3804 00e2 626F6F6C 		.ascii	"bool_t\000"
 3804      5F7400
 3805              	.LASF48:
 3806 00e9 6D5F7175 		.ascii	"m_queue\000"
 3806      65756500 
 3807              	.LASF99:
 3808 00f1 73746174 		.ascii	"state\000"
 3808      6500
 3809              	.LASF9:
 3810 00f7 6C6F6E67 		.ascii	"long int\000"
 3810      20696E74 
 3810      00
 3811              	.LASF18:
 3812 0100 74737461 		.ascii	"tstate_t\000"
 3812      74655F74 
 3812      00
 3813              	.LASF65:
 3814 0109 715F6275 		.ascii	"q_buffer\000"
ARM GAS  C:\Users\z80\AppData\Local\Temp\ccBUDbvc.s 			page 71


 3814      66666572 
 3814      00
 3815              	.LASF67:
 3816 0112 715F7772 		.ascii	"q_wrptr\000"
 3816      70747200 
 3817              	.LASF28:
 3818 011a 705F6E65 		.ascii	"p_newer\000"
 3818      77657200 
 3819              	.LASF77:
 3820 0122 70757477 		.ascii	"putwouldblock\000"
 3820      6F756C64 
 3820      626C6F63 
 3820      6B00
 3821              	.LASF109:
 3822 0130 6D61736B 		.ascii	"mask\000"
 3822      00
 3823              	.LASF43:
 3824 0135 72656761 		.ascii	"regarm_t\000"
 3824      726D5F74 
 3824      00
 3825              	.LASF55:
 3826 013e 4576656E 		.ascii	"EventSource\000"
 3826      74536F75 
 3826      72636500 
 3827              	.LASF74:
 3828 014a 42617365 		.ascii	"BaseAsynchronousChannelVMT\000"
 3828      4173796E 
 3828      6368726F 
 3828      6E6F7573 
 3828      4368616E 
 3829              	.LASF0:
 3830 0165 756E7369 		.ascii	"unsigned int\000"
 3830      676E6564 
 3830      20696E74 
 3830      00
 3831              	.LASF6:
 3832 0172 75696E74 		.ascii	"uint16_t\000"
 3832      31365F74 
 3832      00
 3833              	.LASF108:
 3834 017b 53657269 		.ascii	"SerialDriverVMT\000"
 3834      616C4472 
 3834      69766572 
 3834      564D5400 
 3835              	.LASF34:
 3836 018b 705F7469 		.ascii	"p_time\000"
 3836      6D6500
 3837              	.LASF116:
 3838 0192 696E6F74 		.ascii	"inotify\000"
 3838      69667900 
 3839              	.LASF100:
 3840 019a 69717565 		.ascii	"iqueue\000"
 3840      756500
 3841              	.LASF36:
 3842 01a1 705F6D73 		.ascii	"p_msgqueue\000"
 3842      67717565 
 3842      756500
ARM GAS  C:\Users\z80\AppData\Local\Temp\ccBUDbvc.s 			page 72


 3843              	.LASF114:
 3844 01ac 74696D65 		.ascii	"timeout\000"
 3844      6F757400 
 3845              	.LASF113:
 3846 01b4 67657474 		.ascii	"gett\000"
 3846      00
 3847              	.LASF82:
 3848 01b9 6576656E 		.ascii	"event\000"
 3848      7400
 3849              	.LASF7:
 3850 01bf 73686F72 		.ascii	"short unsigned int\000"
 3850      7420756E 
 3850      7369676E 
 3850      65642069 
 3850      6E7400
 3851              	.LASF20:
 3852 01d2 6D73675F 		.ascii	"msg_t\000"
 3852      7400
 3853              	.LASF101:
 3854 01d8 6F717565 		.ascii	"oqueue\000"
 3854      756500
 3855              	.LASF112:
 3856 01df 77726974 		.ascii	"writes\000"
 3856      657300
 3857              	.LASF79:
 3858 01e6 77726974 		.ascii	"writet\000"
 3858      657400
 3859              	.LASF17:
 3860 01ed 746D6F64 		.ascii	"tmode_t\000"
 3860      655F7400 
 3861              	.LASF42:
 3862 01f5 54687265 		.ascii	"ThreadsList\000"
 3862      6164734C 
 3862      69737400 
 3863              	.LASF102:
 3864 0201 75736172 		.ascii	"usart\000"
 3864      7400
 3865              	.LASF71:
 3866 0207 496E7075 		.ascii	"InputQueue\000"
 3866      74517565 
 3866      756500
 3867              	.LASF70:
 3868 0212 716E6F74 		.ascii	"qnotify_t\000"
 3868      6966795F 
 3868      7400
 3869              	.LASF62:
 3870 021c 47656E65 		.ascii	"GenericQueue\000"
 3870      72696351 
 3870      75657565 
 3870      00
 3871              	.LASF44:
 3872 0229 73746B61 		.ascii	"stkalign_t\000"
 3872      6C69676E 
 3872      5F7400
 3873              	.LASF75:
 3874 0234 77726974 		.ascii	"write\000"
 3874      6500
ARM GAS  C:\Users\z80\AppData\Local\Temp\ccBUDbvc.s 			page 73


 3875              	.LASF115:
 3876 023a 70757474 		.ascii	"putt\000"
 3876      00
 3877              	.LASF64:
 3878 023f 715F636F 		.ascii	"q_counter\000"
 3878      756E7465 
 3878      7200
 3879              	.LASF47:
 3880 0249 4D757465 		.ascii	"Mutex\000"
 3880      7800
 3881              	.LASF26:
 3882 024f 705F7072 		.ascii	"p_prio\000"
 3882      696F00
 3883              	.LASF54:
 3884 0256 656C5F6D 		.ascii	"el_mask\000"
 3884      61736B00 
 3885              	.LASF29:
 3886 025e 705F6F6C 		.ascii	"p_older\000"
 3886      64657200 
 3887              	.LASF81:
 3888 0266 67657466 		.ascii	"getflags\000"
 3888      6C616773 
 3888      00
 3889              	.LASF73:
 3890 026f 696F666C 		.ascii	"ioflags_t\000"
 3890      6167735F 
 3890      7400
 3891              	.LASF41:
 3892 0279 54687265 		.ascii	"ThreadsQueue\000"
 3892      61647351 
 3892      75657565 
 3892      00
 3893              	.LASF126:
 3894 0286 433A5C70 		.ascii	"C:\\projects\\voltamper.git\\firmware\\voltamp\000"
 3894      726F6A65 
 3894      6374735C 
 3894      766F6C74 
 3894      616D7065 
 3895              	.LASF121:
 3896 02b1 73645374 		.ascii	"sdStop\000"
 3896      6F7000
 3897              	.LASF110:
 3898 02b8 74696D65 		.ascii	"time\000"
 3898      00
 3899              	.LASF107:
 3900 02bd 53657269 		.ascii	"SerialConfig\000"
 3900      616C436F 
 3900      6E666967 
 3900      00
 3901              	.LASF85:
 3902 02ca 52455345 		.ascii	"RESERVED0\000"
 3902      52564544 
 3902      3000
 3903              	.LASF86:
 3904 02d4 52455345 		.ascii	"RESERVED1\000"
 3904      52564544 
 3904      3100
ARM GAS  C:\Users\z80\AppData\Local\Temp\ccBUDbvc.s 			page 74


 3905              	.LASF87:
 3906 02de 52455345 		.ascii	"RESERVED2\000"
 3906      52564544 
 3906      3200
 3907              	.LASF88:
 3908 02e8 52455345 		.ascii	"RESERVED3\000"
 3908      52564544 
 3908      3300
 3909              	.LASF89:
 3910 02f2 52455345 		.ascii	"RESERVED4\000"
 3910      52564544 
 3910      3400
 3911              	.LASF25:
 3912 02fc 705F7072 		.ascii	"p_prev\000"
 3912      657600
 3913              	.LASF92:
 3914 0303 52455345 		.ascii	"RESERVED6\000"
 3914      52564544 
 3914      3600
 3915              	.LASF19:
 3916 030d 74707269 		.ascii	"tprio_t\000"
 3916      6F5F7400 
 3917              	.LASF68:
 3918 0315 715F7264 		.ascii	"q_rdptr\000"
 3918      70747200 
 3919              	.LASF8:
 3920 031d 696E7433 		.ascii	"int32_t\000"
 3920      325F7400 
 3921              	.LASF4:
 3922 0325 756E7369 		.ascii	"unsigned char\000"
 3922      676E6564 
 3922      20636861 
 3922      7200
 3923              	.LASF93:
 3924 0333 55534152 		.ascii	"USART_TypeDef\000"
 3924      545F5479 
 3924      70654465 
 3924      6600
 3925              	.LASF53:
 3926 0341 656C5F6C 		.ascii	"el_listener\000"
 3926      69737465 
 3926      6E657200 
 3927              	.LASF32:
 3928 034d 705F7374 		.ascii	"p_state\000"
 3928      61746500 
 3929              	.LASF39:
 3930 0355 705F6D74 		.ascii	"p_mtxlist\000"
 3930      786C6973 
 3930      7400
 3931              	.LASF5:
 3932 035f 73686F72 		.ascii	"short int\000"
 3932      7420696E 
 3932      7400
 3933              	.LASF60:
 3934 0369 65776D61 		.ascii	"ewmask\000"
 3934      736B00
 3935              	.LASF24:
ARM GAS  C:\Users\z80\AppData\Local\Temp\ccBUDbvc.s 			page 75


 3936 0370 705F6E65 		.ascii	"p_next\000"
 3936      787400
 3937              	.LASF33:
 3938 0377 705F666C 		.ascii	"p_flags\000"
 3938      61677300 
 3939              	.LASF52:
 3940 037f 656C5F6E 		.ascii	"el_next\000"
 3940      65787400 
 3941              	.LASF23:
 3942 0387 54687265 		.ascii	"Thread\000"
 3942      616400
 3943              	.LASF38:
 3944 038e 705F6570 		.ascii	"p_epending\000"
 3944      656E6469 
 3944      6E6700
 3945              	.LASF94:
 3946 0399 53445F55 		.ascii	"SD_UNINIT\000"
 3946      4E494E49 
 3946      5400
 3947              	.LASF90:
 3948 03a3 52455345 		.ascii	"RESERVED5\000"
 3948      52564544 
 3948      3500
 3949              	.LASF10:
 3950 03ad 75696E74 		.ascii	"uint32_t\000"
 3950      33325F74 
 3950      00
 3951              	.LASF97:
 3952 03b6 73647374 		.ascii	"sdstate_t\000"
 3952      6174655F 
 3952      7400
 3953              	.LASF98:
 3954 03c0 53657269 		.ascii	"SerialDriver\000"
 3954      616C4472 
 3954      69766572 
 3954      00
 3955              	.LASF11:
 3956 03cd 6C6F6E67 		.ascii	"long unsigned int\000"
 3956      20756E73 
 3956      69676E65 
 3956      6420696E 
 3956      7400
 3957              	.LASF76:
 3958 03df 72656164 		.ascii	"read\000"
 3958      00
 3959              	.LASF61:
 3960 03e4 63686172 		.ascii	"char\000"
 3960      00
 3961              	.LASF122:
 3962 03e9 7364496E 		.ascii	"sdIncomingDataI\000"
 3962      636F6D69 
 3962      6E674461 
 3962      74614900 
 3963              	.LASF120:
 3964 03f9 636F6E66 		.ascii	"config\000"
 3964      696700
 3965              	.LASF119:
ARM GAS  C:\Users\z80\AppData\Local\Temp\ccBUDbvc.s 			page 76


 3966 0400 73645374 		.ascii	"sdStart\000"
 3966      61727400 
 3967              	.LASF50:
 3968 0408 6D5F6E65 		.ascii	"m_next\000"
 3968      787400
 3969              	.LASF22:
 3970 040f 73797374 		.ascii	"systime_t\000"
 3970      696D655F 
 3970      7400
 3971              	.LASF40:
 3972 0419 705F7265 		.ascii	"p_realprio\000"
 3972      616C7072 
 3972      696F00
 3973              	.LASF31:
 3974 0424 705F7374 		.ascii	"p_stklimit\000"
 3974      6B6C696D 
 3974      697400
 3975              	.LASF84:
 3976 042f 42617365 		.ascii	"BaseAsynchronousChannel\000"
 3976      4173796E 
 3976      6368726F 
 3976      6E6F7573 
 3976      4368616E 
 3977              	.LASF46:
 3978 0447 636F6E74 		.ascii	"context\000"
 3978      65787400 
 3979              	.LASF45:
 3980 044f 696E7463 		.ascii	"intctx\000"
 3980      747800
 3981              	.LASF96:
 3982 0456 53445F52 		.ascii	"SD_READY\000"
 3982      45414459 
 3982      00
 3983              	.LASF66:
 3984 045f 715F746F 		.ascii	"q_top\000"
 3984      7000
 3985              	.LASF30:
 3986 0465 705F6E61 		.ascii	"p_name\000"
 3986      6D6500
 3987              	.LASF56:
 3988 046c 65735F6E 		.ascii	"es_next\000"
 3988      65787400 
 3989              	.LASF69:
 3990 0474 715F6E6F 		.ascii	"q_notify\000"
 3990      74696679 
 3990      00
 3991              	.LASF37:
 3992 047d 705F6D73 		.ascii	"p_msg\000"
 3992      6700
 3993              	.LASF128:
 3994 0483 73645265 		.ascii	"sdRequestDataI\000"
 3994      71756573 
 3994      74446174 
 3994      614900
 3995              	.LASF3:
 3996 0492 75696E74 		.ascii	"uint8_t\000"
 3996      385F7400 
ARM GAS  C:\Users\z80\AppData\Local\Temp\ccBUDbvc.s 			page 77


 3997              	.LASF83:
 3998 049a 666C6167 		.ascii	"flags\000"
 3998      7300
 3999              	.LASF117:
 4000 04a0 6F6E6F74 		.ascii	"onotify\000"
 4000      69667900 
 4001              	.LASF51:
 4002 04a8 4576656E 		.ascii	"EventListener\000"
 4002      744C6973 
 4002      74656E65 
 4002      7200
 4003              	.LASF124:
 4004 04b6 474E5520 		.ascii	"GNU C 4.5.0\000"
 4004      4320342E 
 4004      352E3000 
 4005              	.LASF59:
 4006 04c2 77746F62 		.ascii	"wtobjp\000"
 4006      6A7000
 4007              	.LASF78:
 4008 04c9 67657477 		.ascii	"getwouldblock\000"
 4008      6F756C64 
 4008      626C6F63 
 4008      6B00
 4009              	.LASF104:
 4010 04d7 73635F63 		.ascii	"sc_cr1\000"
 4010      723100
 4011              	.LASF105:
 4012 04de 73635F63 		.ascii	"sc_cr2\000"
 4012      723200
 4013              	.LASF106:
 4014 04e5 73635F63 		.ascii	"sc_cr3\000"
 4014      723300
 4015              	.LASF127:
 4016 04ec 7364496E 		.ascii	"sdInit\000"
 4016      697400
 4017              	.LASF49:
 4018 04f3 6D5F6F77 		.ascii	"m_owner\000"
 4018      6E657200 
 4019              	.LASF27:
 4020 04fb 705F6374 		.ascii	"p_ctx\000"
 4020      7800
 4021              	.LASF35:
 4022 0501 705F7761 		.ascii	"p_waiting\000"
 4022      6974696E 
 4022      6700
 4023              		.ident	"GCC: (GNU) 4.5.0"
ARM GAS  C:\Users\z80\AppData\Local\Temp\ccBUDbvc.s 			page 78


DEFINED SYMBOLS
                            *ABS*:00000000 serial.c
C:\Users\z80\AppData\Local\Temp\ccBUDbvc.s:24     .text.putwouldblock:00000000 $t
C:\Users\z80\AppData\Local\Temp\ccBUDbvc.s:29     .text.putwouldblock:00000000 putwouldblock
C:\Users\z80\AppData\Local\Temp\ccBUDbvc.s:50     .text.getwouldblock:00000000 $t
C:\Users\z80\AppData\Local\Temp\ccBUDbvc.s:55     .text.getwouldblock:00000000 getwouldblock
C:\Users\z80\AppData\Local\Temp\ccBUDbvc.s:75     .text.getflags:00000000 $t
C:\Users\z80\AppData\Local\Temp\ccBUDbvc.s:80     .text.getflags:00000000 getflags
C:\Users\z80\AppData\Local\Temp\ccBUDbvc.s:133    .text.readt:00000000 $t
C:\Users\z80\AppData\Local\Temp\ccBUDbvc.s:138    .text.readt:00000000 readt
C:\Users\z80\AppData\Local\Temp\ccBUDbvc.s:161    .text.reads:00000000 $t
C:\Users\z80\AppData\Local\Temp\ccBUDbvc.s:166    .text.reads:00000000 reads
C:\Users\z80\AppData\Local\Temp\ccBUDbvc.s:190    .text.writet:00000000 $t
C:\Users\z80\AppData\Local\Temp\ccBUDbvc.s:195    .text.writet:00000000 writet
C:\Users\z80\AppData\Local\Temp\ccBUDbvc.s:218    .text.writes:00000000 $t
C:\Users\z80\AppData\Local\Temp\ccBUDbvc.s:223    .text.writes:00000000 writes
C:\Users\z80\AppData\Local\Temp\ccBUDbvc.s:247    .text.gett:00000000 $t
C:\Users\z80\AppData\Local\Temp\ccBUDbvc.s:252    .text.gett:00000000 gett
C:\Users\z80\AppData\Local\Temp\ccBUDbvc.s:275    .text.putt:00000000 $t
C:\Users\z80\AppData\Local\Temp\ccBUDbvc.s:280    .text.putt:00000000 putt
C:\Users\z80\AppData\Local\Temp\ccBUDbvc.s:303    .text.sdInit:00000000 $t
C:\Users\z80\AppData\Local\Temp\ccBUDbvc.s:309    .text.sdInit:00000000 sdInit
C:\Users\z80\AppData\Local\Temp\ccBUDbvc.s:328    .text.sdObjectInit:00000000 $t
C:\Users\z80\AppData\Local\Temp\ccBUDbvc.s:334    .text.sdObjectInit:00000000 sdObjectInit
C:\Users\z80\AppData\Local\Temp\ccBUDbvc.s:725    .rodata.vmt:00000000 .LANCHOR0
C:\Users\z80\AppData\Local\Temp\ccBUDbvc.s:392    .text.sdStart:00000000 $t
C:\Users\z80\AppData\Local\Temp\ccBUDbvc.s:398    .text.sdStart:00000000 sdStart
C:\Users\z80\AppData\Local\Temp\ccBUDbvc.s:470    .text.sdStart:00000044 $d
C:\Users\z80\AppData\Local\Temp\ccBUDbvc.s:476    .text.sdStop:00000000 $t
C:\Users\z80\AppData\Local\Temp\ccBUDbvc.s:482    .text.sdStop:00000000 sdStop
C:\Users\z80\AppData\Local\Temp\ccBUDbvc.s:558    .text.sdStop:00000054 $d
C:\Users\z80\AppData\Local\Temp\ccBUDbvc.s:564    .text.sdIncomingDataI:00000000 $t
C:\Users\z80\AppData\Local\Temp\ccBUDbvc.s:570    .text.sdIncomingDataI:00000000 sdIncomingDataI
C:\Users\z80\AppData\Local\Temp\ccBUDbvc.s:636    .text.sdIncomingDataI:00000058 $d
C:\Users\z80\AppData\Local\Temp\ccBUDbvc.s:641    .text.sdRequestDataI:00000000 $t
C:\Users\z80\AppData\Local\Temp\ccBUDbvc.s:647    .text.sdRequestDataI:00000000 sdRequestDataI
C:\Users\z80\AppData\Local\Temp\ccBUDbvc.s:702    .text.sdRequestDataI:00000038 $d
C:\Users\z80\AppData\Local\Temp\ccBUDbvc.s:707    .rodata.str1.4:00000000 $d
C:\Users\z80\AppData\Local\Temp\ccBUDbvc.s:724    .rodata.vmt:00000000 $d
C:\Users\z80\AppData\Local\Temp\ccBUDbvc.s:728    .rodata.vmt:00000000 vmt
                     .debug_frame:00000010 $d
C:\Users\z80\AppData\Local\Temp\ccBUDbvc.s:475    .text.sdStart:0000004c $t
C:\Users\z80\AppData\Local\Temp\ccBUDbvc.s:563    .text.sdStop:0000005c $t
C:\Users\z80\AppData\Local\Temp\ccBUDbvc.s:640    .text.sdIncomingDataI:0000005c $t
C:\Users\z80\AppData\Local\Temp\ccBUDbvc.s:706    .text.sdRequestDataI:0000003c $t

UNDEFINED SYMBOLS
dbg_check_lock
dbg_check_unlock
chIQReadTimeout
chOQWriteTimeout
chIQGetTimeout
chOQPutTimeout
sd_lld_init
chIQInit
chOQInit
chDbgPanic
ARM GAS  C:\Users\z80\AppData\Local\Temp\ccBUDbvc.s 			page 79


sd_lld_start
sd_lld_stop
chOQResetI
chIQResetI
chSchRescheduleS
chDbgCheckClassI
chIQPutI
chEvtBroadcastFlagsI
chOQGetI
