ARM GAS  C:\Users\z80\AppData\Local\Temp\ccxb23Xc.s 			page 1


   1              		.syntax unified
   2              		.cpu cortex-m3
   3              		.fpu softvfp
   4              		.eabi_attribute 20, 1
   5              		.eabi_attribute 21, 1
   6              		.eabi_attribute 23, 3
   7              		.eabi_attribute 24, 1
   8              		.eabi_attribute 25, 1
   9              		.eabi_attribute 26, 1
  10              		.eabi_attribute 30, 6
  11              		.eabi_attribute 18, 4
  12              		.thumb
  13              		.file	"serial.c"
  20 0000 C9030000 		.text
  20      02006502 
  20      00000201 
  20      FB0E0D00 
  20      01010101 
  21              	.Ltext0:
  22              		.cfi_sections	.debug_frame
  23              		.section	.text.writes,"ax",%progbits
  24              		.align	2
  25              		.p2align 4,,15
  26              		.thumb
  27              		.thumb_func
  28              		.type	writes, %function
  29              	writes:
  30              	.LFB62:
  31              		.file 1 "../chibios_2.4.x/os/hal/src/serial.c"
  32              		.loc 1 62 0
  33              		.cfi_startproc
  34              		@ args = 0, pretend = 0, frame = 16
  35              		@ frame_needed = 0, uses_anonymous_args = 0
  36 0000 00B5     		push	{lr}
  37              	.LCFI0:
  38              		.cfi_def_cfa_offset 4
  39 0002 85B0     		sub	sp, sp, #20
  40              	.LCFI1:
  41              		.cfi_def_cfa_offset 24
  42 0004 0390     		str	r0, [sp, #12]
  43 0006 0291     		str	r1, [sp, #8]
  44 0008 0192     		str	r2, [sp, #4]
  45              		.loc 1 64 0
  46 000a 039B     		ldr	r3, [sp, #12]
  47 000c 03F13003 		add	r3, r3, #48
  48 0010 1846     		mov	r0, r3
  49 0012 0299     		ldr	r1, [sp, #8]
  50 0014 019A     		ldr	r2, [sp, #4]
  51 0016 4FF0FF33 		mov	r3, #-1
  52              		.cfi_offset 14, -4
  53 001a FFF7FEFF 		bl	chOQWriteTimeout
ARM GAS  C:\Users\z80\AppData\Local\Temp\ccxb23Xc.s 			page 2


  54 001e 0346     		mov	r3, r0
  55              		.loc 1 66 0
  56 0020 1846     		mov	r0, r3
  57 0022 05B0     		add	sp, sp, #20
  58 0024 00BD     		pop	{pc}
  59              		.cfi_endproc
  60              	.LFE62:
  61              		.size	writes, .-writes
  62 0026 00BFAFF3 		.section	.text.reads,"ax",%progbits
  62      0080AFF3 
  62      0080
  63              		.align	2
  64              		.p2align 4,,15
  65              		.thumb
  66              		.thumb_func
  67              		.type	reads, %function
  68              	reads:
  69              	.LFB63:
  70              		.loc 1 68 0
  71              		.cfi_startproc
  72              		@ args = 0, pretend = 0, frame = 16
  73              		@ frame_needed = 0, uses_anonymous_args = 0
  74 0000 00B5     		push	{lr}
  75              	.LCFI2:
  76              		.cfi_def_cfa_offset 4
  77 0002 85B0     		sub	sp, sp, #20
  78              	.LCFI3:
  79              		.cfi_def_cfa_offset 24
  80 0004 0390     		str	r0, [sp, #12]
  81 0006 0291     		str	r1, [sp, #8]
  82 0008 0192     		str	r2, [sp, #4]
  83              		.loc 1 70 0
  84 000a 039B     		ldr	r3, [sp, #12]
  85 000c 03F11003 		add	r3, r3, #16
  86 0010 1846     		mov	r0, r3
  87 0012 0299     		ldr	r1, [sp, #8]
  88 0014 019A     		ldr	r2, [sp, #4]
  89 0016 4FF0FF33 		mov	r3, #-1
  90              		.cfi_offset 14, -4
  91 001a FFF7FEFF 		bl	chIQReadTimeout
  92 001e 0346     		mov	r3, r0
  93              		.loc 1 72 0
  94 0020 1846     		mov	r0, r3
  95 0022 05B0     		add	sp, sp, #20
  96 0024 00BD     		pop	{pc}
  97              		.cfi_endproc
  98              	.LFE63:
  99              		.size	reads, .-reads
 100 0026 00BFAFF3 		.section	.text.putwouldblock,"ax",%progbits
 100      0080AFF3 
 100      0080
 101              		.align	2
 102              		.p2align 4,,15
 103              		.thumb
 104              		.thumb_func
 105              		.type	putwouldblock, %function
 106              	putwouldblock:
ARM GAS  C:\Users\z80\AppData\Local\Temp\ccxb23Xc.s 			page 3


 107              	.LFB64:
 108              		.loc 1 74 0
 109              		.cfi_startproc
 110              		@ args = 0, pretend = 0, frame = 8
 111              		@ frame_needed = 0, uses_anonymous_args = 0
 112              		@ link register save eliminated.
 113 0000 82B0     		sub	sp, sp, #8
 114              	.LCFI4:
 115              		.cfi_def_cfa_offset 8
 116 0002 0190     		str	r0, [sp, #4]
 117              		.loc 1 76 0
 118 0004 019B     		ldr	r3, [sp, #4]
 119 0006 9B6B     		ldr	r3, [r3, #56]
 120 0008 002B     		cmp	r3, #0
 121 000a 14BF     		ite	ne
 122 000c 0023     		movne	r3, #0
 123 000e 0123     		moveq	r3, #1
 124              		.loc 1 77 0
 125 0010 1846     		mov	r0, r3
 126 0012 02B0     		add	sp, sp, #8
 127 0014 7047     		bx	lr
 128              		.cfi_endproc
 129              	.LFE64:
 130              		.size	putwouldblock, .-putwouldblock
 131 0016 00BFAFF3 		.section	.text.getwouldblock,"ax",%progbits
 131      0080AFF3 
 131      0080
 132              		.align	2
 133              		.p2align 4,,15
 134              		.thumb
 135              		.thumb_func
 136              		.type	getwouldblock, %function
 137              	getwouldblock:
 138              	.LFB65:
 139              		.loc 1 79 0
 140              		.cfi_startproc
 141              		@ args = 0, pretend = 0, frame = 8
 142              		@ frame_needed = 0, uses_anonymous_args = 0
 143              		@ link register save eliminated.
 144 0000 82B0     		sub	sp, sp, #8
 145              	.LCFI5:
 146              		.cfi_def_cfa_offset 8
 147 0002 0190     		str	r0, [sp, #4]
 148              		.loc 1 81 0
 149 0004 019B     		ldr	r3, [sp, #4]
 150 0006 9B69     		ldr	r3, [r3, #24]
 151 0008 002B     		cmp	r3, #0
 152 000a 14BF     		ite	ne
 153 000c 0023     		movne	r3, #0
 154 000e 0123     		moveq	r3, #1
 155              		.loc 1 82 0
 156 0010 1846     		mov	r0, r3
 157 0012 02B0     		add	sp, sp, #8
 158 0014 7047     		bx	lr
 159              		.cfi_endproc
 160              	.LFE65:
 161              		.size	getwouldblock, .-getwouldblock
ARM GAS  C:\Users\z80\AppData\Local\Temp\ccxb23Xc.s 			page 4


 162 0016 00BFAFF3 		.section	.text.putt,"ax",%progbits
 162      0080AFF3 
 162      0080
 163              		.align	2
 164              		.p2align 4,,15
 165              		.thumb
 166              		.thumb_func
 167              		.type	putt, %function
 168              	putt:
 169              	.LFB66:
 170              		.loc 1 84 0
 171              		.cfi_startproc
 172              		@ args = 0, pretend = 0, frame = 16
 173              		@ frame_needed = 0, uses_anonymous_args = 0
 174 0000 00B5     		push	{lr}
 175              	.LCFI6:
 176              		.cfi_def_cfa_offset 4
 177 0002 85B0     		sub	sp, sp, #20
 178              	.LCFI7:
 179              		.cfi_def_cfa_offset 24
 180 0004 0390     		str	r0, [sp, #12]
 181 0006 0B46     		mov	r3, r1
 182 0008 0192     		str	r2, [sp, #4]
 183 000a 8DF80B30 		strb	r3, [sp, #11]
 184              		.loc 1 86 0
 185 000e 039B     		ldr	r3, [sp, #12]
 186 0010 03F13002 		add	r2, r3, #48
 187 0014 9DF80B30 		ldrb	r3, [sp, #11]	@ zero_extendqisi2
 188 0018 1046     		mov	r0, r2
 189 001a 1946     		mov	r1, r3
 190 001c 019A     		ldr	r2, [sp, #4]
 191              		.cfi_offset 14, -4
 192 001e FFF7FEFF 		bl	chOQPutTimeout
 193 0022 0346     		mov	r3, r0
 194              		.loc 1 87 0
 195 0024 1846     		mov	r0, r3
 196 0026 05B0     		add	sp, sp, #20
 197 0028 00BD     		pop	{pc}
 198              		.cfi_endproc
 199              	.LFE66:
 200              		.size	putt, .-putt
 201 002a 00BFAFF3 		.section	.text.gett,"ax",%progbits
 201      0080
 202              		.align	2
 203              		.p2align 4,,15
 204              		.thumb
 205              		.thumb_func
 206              		.type	gett, %function
 207              	gett:
 208              	.LFB67:
 209              		.loc 1 89 0
 210              		.cfi_startproc
 211              		@ args = 0, pretend = 0, frame = 8
 212              		@ frame_needed = 0, uses_anonymous_args = 0
 213 0000 00B5     		push	{lr}
 214              	.LCFI8:
 215              		.cfi_def_cfa_offset 4
ARM GAS  C:\Users\z80\AppData\Local\Temp\ccxb23Xc.s 			page 5


 216 0002 83B0     		sub	sp, sp, #12
 217              	.LCFI9:
 218              		.cfi_def_cfa_offset 16
 219 0004 0190     		str	r0, [sp, #4]
 220 0006 0091     		str	r1, [sp, #0]
 221              		.loc 1 91 0
 222 0008 019B     		ldr	r3, [sp, #4]
 223 000a 03F11003 		add	r3, r3, #16
 224 000e 1846     		mov	r0, r3
 225 0010 0099     		ldr	r1, [sp, #0]
 226              		.cfi_offset 14, -4
 227 0012 FFF7FEFF 		bl	chIQGetTimeout
 228 0016 0346     		mov	r3, r0
 229              		.loc 1 92 0
 230 0018 1846     		mov	r0, r3
 231 001a 03B0     		add	sp, sp, #12
 232 001c 00BD     		pop	{pc}
 233              		.cfi_endproc
 234              	.LFE67:
 235              		.size	gett, .-gett
 236 001e 00BF     		.section	.text.writet,"ax",%progbits
 237              		.align	2
 238              		.p2align 4,,15
 239              		.thumb
 240              		.thumb_func
 241              		.type	writet, %function
 242              	writet:
 243              	.LFB68:
 244              		.loc 1 94 0
 245              		.cfi_startproc
 246              		@ args = 0, pretend = 0, frame = 16
 247              		@ frame_needed = 0, uses_anonymous_args = 0
 248 0000 00B5     		push	{lr}
 249              	.LCFI10:
 250              		.cfi_def_cfa_offset 4
 251 0002 85B0     		sub	sp, sp, #20
 252              	.LCFI11:
 253              		.cfi_def_cfa_offset 24
 254 0004 0390     		str	r0, [sp, #12]
 255 0006 0291     		str	r1, [sp, #8]
 256 0008 0192     		str	r2, [sp, #4]
 257 000a 0093     		str	r3, [sp, #0]
 258              		.loc 1 96 0
 259 000c 039B     		ldr	r3, [sp, #12]
 260 000e 03F13003 		add	r3, r3, #48
 261 0012 1846     		mov	r0, r3
 262 0014 0299     		ldr	r1, [sp, #8]
 263 0016 019A     		ldr	r2, [sp, #4]
 264 0018 009B     		ldr	r3, [sp, #0]
 265              		.cfi_offset 14, -4
 266 001a FFF7FEFF 		bl	chOQWriteTimeout
 267 001e 0346     		mov	r3, r0
 268              		.loc 1 97 0
 269 0020 1846     		mov	r0, r3
 270 0022 05B0     		add	sp, sp, #20
 271 0024 00BD     		pop	{pc}
 272              		.cfi_endproc
ARM GAS  C:\Users\z80\AppData\Local\Temp\ccxb23Xc.s 			page 6


 273              	.LFE68:
 274              		.size	writet, .-writet
 275 0026 00BFAFF3 		.section	.text.readt,"ax",%progbits
 275      0080AFF3 
 275      0080
 276              		.align	2
 277              		.p2align 4,,15
 278              		.thumb
 279              		.thumb_func
 280              		.type	readt, %function
 281              	readt:
 282              	.LFB69:
 283              		.loc 1 99 0
 284              		.cfi_startproc
 285              		@ args = 0, pretend = 0, frame = 16
 286              		@ frame_needed = 0, uses_anonymous_args = 0
 287 0000 00B5     		push	{lr}
 288              	.LCFI12:
 289              		.cfi_def_cfa_offset 4
 290 0002 85B0     		sub	sp, sp, #20
 291              	.LCFI13:
 292              		.cfi_def_cfa_offset 24
 293 0004 0390     		str	r0, [sp, #12]
 294 0006 0291     		str	r1, [sp, #8]
 295 0008 0192     		str	r2, [sp, #4]
 296 000a 0093     		str	r3, [sp, #0]
 297              		.loc 1 101 0
 298 000c 039B     		ldr	r3, [sp, #12]
 299 000e 03F11003 		add	r3, r3, #16
 300 0012 1846     		mov	r0, r3
 301 0014 0299     		ldr	r1, [sp, #8]
 302 0016 019A     		ldr	r2, [sp, #4]
 303 0018 009B     		ldr	r3, [sp, #0]
 304              		.cfi_offset 14, -4
 305 001a FFF7FEFF 		bl	chIQReadTimeout
 306 001e 0346     		mov	r3, r0
 307              		.loc 1 102 0
 308 0020 1846     		mov	r0, r3
 309 0022 05B0     		add	sp, sp, #20
 310 0024 00BD     		pop	{pc}
 311              		.cfi_endproc
 312              	.LFE69:
 313              		.size	readt, .-readt
 314 0026 00BFAFF3 		.section	.text.getflags,"ax",%progbits
 314      0080AFF3 
 314      0080
 315              		.align	2
 316              		.p2align 4,,15
 317              		.thumb
 318              		.thumb_func
 319              		.type	getflags, %function
 320              	getflags:
 321              	.LFB70:
 322              		.loc 1 104 0
 323              		.cfi_startproc
 324              		@ args = 0, pretend = 0, frame = 16
 325              		@ frame_needed = 0, uses_anonymous_args = 0
ARM GAS  C:\Users\z80\AppData\Local\Temp\ccxb23Xc.s 			page 7


 326 0000 00B5     		push	{lr}
 327              	.LCFI14:
 328              		.cfi_def_cfa_offset 4
 329 0002 85B0     		sub	sp, sp, #20
 330              	.LCFI15:
 331              		.cfi_def_cfa_offset 24
 332 0004 0190     		str	r0, [sp, #4]
 333              	.LBB2:
 334              		.loc 1 105 0
 335 0006 4FF02003 		mov	r3, #32
 336              	@ 105 "../chibios_2.4.x/os/hal/src/serial.c" 1
 337 000a 83F31188 		msr     BASEPRI, r3
 338              	@ 0 "" 2
 339              		.thumb
 340              	.LBE2:
 341              		.cfi_offset 14, -4
 342 000e FFF7FEFF 		bl	dbg_check_lock
 343 0012 019B     		ldr	r3, [sp, #4]
 344 0014 9B68     		ldr	r3, [r3, #8]
 345 0016 0393     		str	r3, [sp, #12]
 346 0018 019B     		ldr	r3, [sp, #4]
 347 001a 4FF00002 		mov	r2, #0
 348 001e 9A60     		str	r2, [r3, #8]
 349 0020 FFF7FEFF 		bl	dbg_check_unlock
 350              	.LBB3:
 351 0024 4FF00003 		mov	r3, #0
 352              	@ 105 "../chibios_2.4.x/os/hal/src/serial.c" 1
 353 0028 83F31188 		msr     BASEPRI, r3
 354              	@ 0 "" 2
 355              		.thumb
 356              	.LBE3:
 357 002c 039B     		ldr	r3, [sp, #12]
 358              		.loc 1 106 0
 359 002e 1846     		mov	r0, r3
 360 0030 05B0     		add	sp, sp, #20
 361 0032 00BD     		pop	{pc}
 362              		.cfi_endproc
 363              	.LFE70:
 364              		.size	getflags, .-getflags
 365 0034 AFF30080 		.section	.rodata.vmt,"a",%progbits
 365      AFF30080 
 365      AFF30080 
 366              		.align	2
 367              		.type	vmt, %object
 368              		.size	vmt, 36
 369              	vmt:
 370 0000 00000000 		.word	writes
 371 0004 00000000 		.word	reads
 372 0008 00000000 		.word	putwouldblock
 373 000c 00000000 		.word	getwouldblock
 374 0010 00000000 		.word	putt
 375 0014 00000000 		.word	gett
 376 0018 00000000 		.word	writet
 377 001c 00000000 		.word	readt
 378 0020 00000000 		.word	getflags
 379              		.section	.text.sdInit,"ax",%progbits
 380              		.align	2
ARM GAS  C:\Users\z80\AppData\Local\Temp\ccxb23Xc.s 			page 8


 381              		.p2align 4,,15
 382              		.global	sdInit
 383              		.thumb
 384              		.thumb_func
 385              		.type	sdInit, %function
 386              	sdInit:
 387              	.LFB71:
 388              		.loc 1 125 0
 389              		.cfi_startproc
 390              		@ args = 0, pretend = 0, frame = 0
 391              		@ frame_needed = 0, uses_anonymous_args = 0
 392 0000 08B5     		push	{r3, lr}
 393              	.LCFI16:
 394              		.cfi_def_cfa_offset 8
 395              		.loc 1 127 0
 396              		.cfi_offset 14, -4
 397              		.cfi_offset 3, -8
 398 0002 FFF7FEFF 		bl	sd_lld_init
 399              		.loc 1 128 0
 400 0006 08BD     		pop	{r3, pc}
 401              		.cfi_endproc
 402              	.LFE71:
 403              		.size	sdInit, .-sdInit
 404 0008 AFF30080 		.section	.text.sdObjectInit,"ax",%progbits
 404      AFF30080 
 405              		.align	2
 406              		.p2align 4,,15
 407              		.global	sdObjectInit
 408              		.thumb
 409              		.thumb_func
 410              		.type	sdObjectInit, %function
 411              	sdObjectInit:
 412              	.LFB72:
 413              		.loc 1 145 0
 414              		.cfi_startproc
 415              		@ args = 0, pretend = 0, frame = 16
 416              		@ frame_needed = 0, uses_anonymous_args = 0
 417 0000 00B5     		push	{lr}
 418              	.LCFI17:
 419              		.cfi_def_cfa_offset 4
 420 0002 85B0     		sub	sp, sp, #20
 421              	.LCFI18:
 422              		.cfi_def_cfa_offset 24
 423 0004 0390     		str	r0, [sp, #12]
 424 0006 0291     		str	r1, [sp, #8]
 425 0008 0192     		str	r2, [sp, #4]
 426              		.loc 1 147 0
 427 000a 039A     		ldr	r2, [sp, #12]
 428 000c 40F20003 		movw	r3, #:lower16:vmt
 429 0010 C0F20003 		movt	r3, #:upper16:vmt
 430 0014 1360     		str	r3, [r2, #0]
 431              		.loc 1 148 0
 432 0016 039B     		ldr	r3, [sp, #12]
 433 0018 03F10403 		add	r3, r3, #4
 434 001c 1A46     		mov	r2, r3
 435 001e 039B     		ldr	r3, [sp, #12]
 436 0020 5A60     		str	r2, [r3, #4]
ARM GAS  C:\Users\z80\AppData\Local\Temp\ccxb23Xc.s 			page 9


 437              		.loc 1 149 0
 438 0022 039B     		ldr	r3, [sp, #12]
 439 0024 4FF00002 		mov	r2, #0
 440 0028 9A60     		str	r2, [r3, #8]
 441              		.loc 1 150 0
 442 002a 039B     		ldr	r3, [sp, #12]
 443 002c 4FF00102 		mov	r2, #1
 444 0030 1A73     		strb	r2, [r3, #12]
 445              		.loc 1 151 0
 446 0032 039B     		ldr	r3, [sp, #12]
 447 0034 03F11002 		add	r2, r3, #16
 448 0038 039B     		ldr	r3, [sp, #12]
 449 003a 03F15003 		add	r3, r3, #80
 450 003e 1046     		mov	r0, r2
 451 0040 1946     		mov	r1, r3
 452 0042 4FF04002 		mov	r2, #64
 453 0046 029B     		ldr	r3, [sp, #8]
 454              		.cfi_offset 14, -4
 455 0048 FFF7FEFF 		bl	chIQInit
 456              		.loc 1 152 0
 457 004c 039B     		ldr	r3, [sp, #12]
 458 004e 03F13002 		add	r2, r3, #48
 459 0052 039B     		ldr	r3, [sp, #12]
 460 0054 03F19003 		add	r3, r3, #144
 461 0058 1046     		mov	r0, r2
 462 005a 1946     		mov	r1, r3
 463 005c 4FF04002 		mov	r2, #64
 464 0060 019B     		ldr	r3, [sp, #4]
 465 0062 FFF7FEFF 		bl	chOQInit
 466              		.loc 1 153 0
 467 0066 05B0     		add	sp, sp, #20
 468 0068 00BD     		pop	{pc}
 469              		.cfi_endproc
 470              	.LFE72:
 471              		.size	sdObjectInit, .-sdObjectInit
 472 006a 00BFAFF3 		.section	.rodata
 472      0080
 473              		.align	2
 474              	.LC0:
 475 0000 22736453 		.ascii	"\"sdStart\"()\000"
 475      74617274 
 475      22282900 
 476              		.align	2
 477              	.LC1:
 478 000c 73645374 		.ascii	"sdStart(), #1\000"
 478      61727428 
 478      292C2023 
 478      3100
 479              		.section	.text.sdStart,"ax",%progbits
 480              		.align	2
 481              		.p2align 4,,15
 482              		.global	sdStart
 483              		.thumb
 484              		.thumb_func
 485              		.type	sdStart, %function
 486              	sdStart:
 487              	.LFB73:
ARM GAS  C:\Users\z80\AppData\Local\Temp\ccxb23Xc.s 			page 10


 488              		.loc 1 165 0
 489              		.cfi_startproc
 490              		@ args = 0, pretend = 0, frame = 8
 491              		@ frame_needed = 0, uses_anonymous_args = 0
 492 0000 00B5     		push	{lr}
 493              	.LCFI19:
 494              		.cfi_def_cfa_offset 4
 495 0002 83B0     		sub	sp, sp, #12
 496              	.LCFI20:
 497              		.cfi_def_cfa_offset 16
 498 0004 0190     		str	r0, [sp, #4]
 499 0006 0091     		str	r1, [sp, #0]
 500              		.loc 1 167 0
 501 0008 019B     		ldr	r3, [sp, #4]
 502 000a 002B     		cmp	r3, #0
 503 000c 05D1     		bne	.L13
 504              		.cfi_offset 14, -4
 505              		.loc 1 167 0 is_stmt 0 discriminator 1
 506 000e 40F20000 		movw	r0, #:lower16:.LC0
 507 0012 C0F20000 		movt	r0, #:upper16:.LC0
 508 0016 FFF7FEFF 		bl	chDbgPanic
 509              	.L13:
 510              	.LBB4:
 511              		.loc 1 169 0 is_stmt 1
 512 001a 4FF02003 		mov	r3, #32
 513              	@ 169 "../chibios_2.4.x/os/hal/src/serial.c" 1
 514 001e 83F31188 		msr     BASEPRI, r3
 515              	@ 0 "" 2
 516              		.thumb
 517              	.LBE4:
 518 0022 FFF7FEFF 		bl	dbg_check_lock
 519              		.loc 1 170 0
 520 0026 019B     		ldr	r3, [sp, #4]
 521 0028 1B7B     		ldrb	r3, [r3, #12]	@ zero_extendqisi2
 522 002a 012B     		cmp	r3, #1
 523 002c 09D0     		beq	.L14
 524              		.loc 1 170 0 is_stmt 0 discriminator 1
 525 002e 019B     		ldr	r3, [sp, #4]
 526 0030 1B7B     		ldrb	r3, [r3, #12]	@ zero_extendqisi2
 527 0032 022B     		cmp	r3, #2
 528 0034 05D0     		beq	.L14
 529              		.loc 1 170 0 discriminator 2
 530 0036 40F20000 		movw	r0, #:lower16:.LC1
 531 003a C0F20000 		movt	r0, #:upper16:.LC1
 532 003e FFF7FEFF 		bl	chDbgPanic
 533              	.L14:
 534              		.loc 1 173 0 is_stmt 1
 535 0042 0198     		ldr	r0, [sp, #4]
 536 0044 0099     		ldr	r1, [sp, #0]
 537 0046 FFF7FEFF 		bl	sd_lld_start
 538              		.loc 1 174 0
 539 004a 019B     		ldr	r3, [sp, #4]
 540 004c 4FF00202 		mov	r2, #2
 541 0050 1A73     		strb	r2, [r3, #12]
 542              		.loc 1 175 0
 543 0052 FFF7FEFF 		bl	dbg_check_unlock
 544              	.LBB5:
ARM GAS  C:\Users\z80\AppData\Local\Temp\ccxb23Xc.s 			page 11


 545 0056 4FF00003 		mov	r3, #0
 546              	@ 175 "../chibios_2.4.x/os/hal/src/serial.c" 1
 547 005a 83F31188 		msr     BASEPRI, r3
 548              	@ 0 "" 2
 549              		.thumb
 550              	.LBE5:
 551              		.loc 1 176 0
 552 005e 03B0     		add	sp, sp, #12
 553 0060 00BD     		pop	{pc}
 554              		.cfi_endproc
 555              	.LFE73:
 556              		.size	sdStart, .-sdStart
 557 0062 00BFAFF3 		.section	.rodata
 557      0080AFF3 
 557      0080AFF3 
 557      0080
 558 001a 0000     		.align	2
 559              	.LC2:
 560 001c 22736453 		.ascii	"\"sdStop\"()\000"
 560      746F7022 
 560      282900
 561 0027 00       		.align	2
 562              	.LC3:
 563 0028 73645374 		.ascii	"sdStop(), #1\000"
 563      6F702829 
 563      2C202331 
 563      00
 564              		.section	.text.sdStop,"ax",%progbits
 565              		.align	2
 566              		.p2align 4,,15
 567              		.global	sdStop
 568              		.thumb
 569              		.thumb_func
 570              		.type	sdStop, %function
 571              	sdStop:
 572              	.LFB74:
 573              		.loc 1 187 0
 574              		.cfi_startproc
 575              		@ args = 0, pretend = 0, frame = 8
 576              		@ frame_needed = 0, uses_anonymous_args = 0
 577 0000 00B5     		push	{lr}
 578              	.LCFI21:
 579              		.cfi_def_cfa_offset 4
 580 0002 83B0     		sub	sp, sp, #12
 581              	.LCFI22:
 582              		.cfi_def_cfa_offset 16
 583 0004 0190     		str	r0, [sp, #4]
 584              		.loc 1 189 0
 585 0006 019B     		ldr	r3, [sp, #4]
 586 0008 002B     		cmp	r3, #0
 587 000a 05D1     		bne	.L16
 588              		.cfi_offset 14, -4
 589              		.loc 1 189 0 is_stmt 0 discriminator 1
 590 000c 40F20000 		movw	r0, #:lower16:.LC2
 591 0010 C0F20000 		movt	r0, #:upper16:.LC2
 592 0014 FFF7FEFF 		bl	chDbgPanic
 593              	.L16:
ARM GAS  C:\Users\z80\AppData\Local\Temp\ccxb23Xc.s 			page 12


 594              	.LBB6:
 595              		.loc 1 191 0 is_stmt 1
 596 0018 4FF02003 		mov	r3, #32
 597              	@ 191 "../chibios_2.4.x/os/hal/src/serial.c" 1
 598 001c 83F31188 		msr     BASEPRI, r3
 599              	@ 0 "" 2
 600              		.thumb
 601              	.LBE6:
 602 0020 FFF7FEFF 		bl	dbg_check_lock
 603              		.loc 1 192 0
 604 0024 019B     		ldr	r3, [sp, #4]
 605 0026 1B7B     		ldrb	r3, [r3, #12]	@ zero_extendqisi2
 606 0028 012B     		cmp	r3, #1
 607 002a 09D0     		beq	.L17
 608              		.loc 1 192 0 is_stmt 0 discriminator 1
 609 002c 019B     		ldr	r3, [sp, #4]
 610 002e 1B7B     		ldrb	r3, [r3, #12]	@ zero_extendqisi2
 611 0030 022B     		cmp	r3, #2
 612 0032 05D0     		beq	.L17
 613              		.loc 1 192 0 discriminator 2
 614 0034 40F20000 		movw	r0, #:lower16:.LC3
 615 0038 C0F20000 		movt	r0, #:upper16:.LC3
 616 003c FFF7FEFF 		bl	chDbgPanic
 617              	.L17:
 618              		.loc 1 195 0 is_stmt 1
 619 0040 0198     		ldr	r0, [sp, #4]
 620 0042 FFF7FEFF 		bl	sd_lld_stop
 621              		.loc 1 196 0
 622 0046 019B     		ldr	r3, [sp, #4]
 623 0048 4FF00102 		mov	r2, #1
 624 004c 1A73     		strb	r2, [r3, #12]
 625              		.loc 1 197 0
 626 004e 019B     		ldr	r3, [sp, #4]
 627 0050 03F13003 		add	r3, r3, #48
 628 0054 1846     		mov	r0, r3
 629 0056 FFF7FEFF 		bl	chOQResetI
 630              		.loc 1 198 0
 631 005a 019B     		ldr	r3, [sp, #4]
 632 005c 03F11003 		add	r3, r3, #16
 633 0060 1846     		mov	r0, r3
 634 0062 FFF7FEFF 		bl	chIQResetI
 635              		.loc 1 199 0
 636 0066 FFF7FEFF 		bl	chSchRescheduleS
 637              		.loc 1 200 0
 638 006a FFF7FEFF 		bl	dbg_check_unlock
 639              	.LBB7:
 640 006e 4FF00003 		mov	r3, #0
 641              	@ 200 "../chibios_2.4.x/os/hal/src/serial.c" 1
 642 0072 83F31188 		msr     BASEPRI, r3
 643              	@ 0 "" 2
 644              		.thumb
 645              	.LBE7:
 646              		.loc 1 201 0
 647 0076 03B0     		add	sp, sp, #12
 648 0078 00BD     		pop	{pc}
 649              		.cfi_endproc
 650              	.LFE74:
ARM GAS  C:\Users\z80\AppData\Local\Temp\ccxb23Xc.s 			page 13


 651              		.size	sdStop, .-sdStop
 652 007a 00BFAFF3 		.section	.rodata
 652      0080
 653 0035 000000   		.align	2
 654              	.LC4:
 655 0038 22736449 		.ascii	"\"sdIncomingDataI\"()\000"
 655      6E636F6D 
 655      696E6744 
 655      61746149 
 655      22282900 
 656              		.section	.text.sdIncomingDataI,"ax",%progbits
 657              		.align	2
 658              		.p2align 4,,15
 659              		.global	sdIncomingDataI
 660              		.thumb
 661              		.thumb_func
 662              		.type	sdIncomingDataI, %function
 663              	sdIncomingDataI:
 664              	.LFB75:
 665              		.loc 1 219 0
 666              		.cfi_startproc
 667              		@ args = 0, pretend = 0, frame = 8
 668              		@ frame_needed = 0, uses_anonymous_args = 0
 669 0000 00B5     		push	{lr}
 670              	.LCFI23:
 671              		.cfi_def_cfa_offset 4
 672 0002 83B0     		sub	sp, sp, #12
 673              	.LCFI24:
 674              		.cfi_def_cfa_offset 16
 675 0004 0190     		str	r0, [sp, #4]
 676 0006 0B46     		mov	r3, r1
 677 0008 8DF80330 		strb	r3, [sp, #3]
 678              		.loc 1 221 0
 679              		.cfi_offset 14, -4
 680 000c FFF7FEFF 		bl	chDbgCheckClassI
 681              		.loc 1 222 0
 682 0010 019B     		ldr	r3, [sp, #4]
 683 0012 002B     		cmp	r3, #0
 684 0014 05D1     		bne	.L19
 685              		.loc 1 222 0 is_stmt 0 discriminator 1
 686 0016 40F20000 		movw	r0, #:lower16:.LC4
 687 001a C0F20000 		movt	r0, #:upper16:.LC4
 688 001e FFF7FEFF 		bl	chDbgPanic
 689              	.L19:
 690              		.loc 1 224 0 is_stmt 1
 691 0022 019B     		ldr	r3, [sp, #4]
 692 0024 9B69     		ldr	r3, [r3, #24]
 693 0026 002B     		cmp	r3, #0
 694 0028 0DD1     		bne	.L20
 695              		.loc 1 225 0
 696 002a 019B     		ldr	r3, [sp, #4]
 697 002c 9B68     		ldr	r3, [r3, #8]
 698 002e 43F00402 		orr	r2, r3, #4
 699 0032 019B     		ldr	r3, [sp, #4]
 700 0034 9A60     		str	r2, [r3, #8]
 701 0036 019B     		ldr	r3, [sp, #4]
 702 0038 03F10403 		add	r3, r3, #4
ARM GAS  C:\Users\z80\AppData\Local\Temp\ccxb23Xc.s 			page 14


 703 003c 1846     		mov	r0, r3
 704 003e 4FF00001 		mov	r1, #0
 705 0042 FFF7FEFF 		bl	chEvtBroadcastFlagsI
 706              	.L20:
 707              		.loc 1 226 0
 708 0046 019B     		ldr	r3, [sp, #4]
 709 0048 03F11002 		add	r2, r3, #16
 710 004c 9DF80330 		ldrb	r3, [sp, #3]	@ zero_extendqisi2
 711 0050 1046     		mov	r0, r2
 712 0052 1946     		mov	r1, r3
 713 0054 FFF7FEFF 		bl	chIQPutI
 714 0058 0346     		mov	r3, r0
 715 005a 002B     		cmp	r3, #0
 716 005c 0DDA     		bge	.L18
 717              		.loc 1 227 0
 718 005e 019B     		ldr	r3, [sp, #4]
 719 0060 9B68     		ldr	r3, [r3, #8]
 720 0062 43F08002 		orr	r2, r3, #128
 721 0066 019B     		ldr	r3, [sp, #4]
 722 0068 9A60     		str	r2, [r3, #8]
 723 006a 019B     		ldr	r3, [sp, #4]
 724 006c 03F10403 		add	r3, r3, #4
 725 0070 1846     		mov	r0, r3
 726 0072 4FF00001 		mov	r1, #0
 727 0076 FFF7FEFF 		bl	chEvtBroadcastFlagsI
 728              	.L18:
 729              		.loc 1 228 0
 730 007a 03B0     		add	sp, sp, #12
 731 007c 00BD     		pop	{pc}
 732              		.cfi_endproc
 733              	.LFE75:
 734              		.size	sdIncomingDataI, .-sdIncomingDataI
 735 007e 00BF     		.section	.rodata
 736              		.align	2
 737              	.LC5:
 738 004c 22736452 		.ascii	"\"sdRequestDataI\"()\000"
 738      65717565 
 738      73744461 
 738      74614922 
 738      282900
 739 005f 00       		.section	.text.sdRequestDataI,"ax",%progbits
 740              		.align	2
 741              		.p2align 4,,15
 742              		.global	sdRequestDataI
 743              		.thumb
 744              		.thumb_func
 745              		.type	sdRequestDataI, %function
 746              	sdRequestDataI:
 747              	.LFB76:
 748              		.loc 1 245 0
 749              		.cfi_startproc
 750              		@ args = 0, pretend = 0, frame = 16
 751              		@ frame_needed = 0, uses_anonymous_args = 0
 752 0000 00B5     		push	{lr}
 753              	.LCFI25:
 754              		.cfi_def_cfa_offset 4
 755 0002 85B0     		sub	sp, sp, #20
ARM GAS  C:\Users\z80\AppData\Local\Temp\ccxb23Xc.s 			page 15


 756              	.LCFI26:
 757              		.cfi_def_cfa_offset 24
 758 0004 0190     		str	r0, [sp, #4]
 759              		.loc 1 248 0
 760              		.cfi_offset 14, -4
 761 0006 FFF7FEFF 		bl	chDbgCheckClassI
 762              		.loc 1 249 0
 763 000a 019B     		ldr	r3, [sp, #4]
 764 000c 002B     		cmp	r3, #0
 765 000e 05D1     		bne	.L23
 766              		.loc 1 249 0 is_stmt 0 discriminator 1
 767 0010 40F20000 		movw	r0, #:lower16:.LC5
 768 0014 C0F20000 		movt	r0, #:upper16:.LC5
 769 0018 FFF7FEFF 		bl	chDbgPanic
 770              	.L23:
 771              		.loc 1 251 0 is_stmt 1
 772 001c 019B     		ldr	r3, [sp, #4]
 773 001e 03F13003 		add	r3, r3, #48
 774 0022 1846     		mov	r0, r3
 775 0024 FFF7FEFF 		bl	chOQGetI
 776 0028 0346     		mov	r3, r0
 777 002a 0393     		str	r3, [sp, #12]
 778              		.loc 1 252 0
 779 002c 039B     		ldr	r3, [sp, #12]
 780 002e 002B     		cmp	r3, #0
 781 0030 0DDA     		bge	.L24
 782              		.loc 1 253 0
 783 0032 019B     		ldr	r3, [sp, #4]
 784 0034 9B68     		ldr	r3, [r3, #8]
 785 0036 43F00802 		orr	r2, r3, #8
 786 003a 019B     		ldr	r3, [sp, #4]
 787 003c 9A60     		str	r2, [r3, #8]
 788 003e 019B     		ldr	r3, [sp, #4]
 789 0040 03F10403 		add	r3, r3, #4
 790 0044 1846     		mov	r0, r3
 791 0046 4FF00001 		mov	r1, #0
 792 004a FFF7FEFF 		bl	chEvtBroadcastFlagsI
 793              	.L24:
 794              		.loc 1 254 0
 795 004e 039B     		ldr	r3, [sp, #12]
 796              		.loc 1 255 0
 797 0050 1846     		mov	r0, r3
 798 0052 05B0     		add	sp, sp, #20
 799 0054 00BD     		pop	{pc}
 800              		.cfi_endproc
 801              	.LFE76:
 802              		.size	sdRequestDataI, .-sdRequestDataI
 803 0056 00BFAFF3 		.text
 803      0080AFF3 
 803      0080
 804              	.Letext0: