ARM GAS  C:\Users\z80\AppData\Local\Temp\ccWBSCEe.s 			page 1


   1              		.syntax unified
   2              		.cpu cortex-m3
   3              		.fpu softvfp
   4              		.eabi_attribute 20, 1
   5              		.eabi_attribute 21, 1
   6              		.eabi_attribute 23, 3
   7              		.eabi_attribute 24, 1
   8              		.eabi_attribute 25, 1
   9              		.eabi_attribute 26, 1
  10              		.eabi_attribute 30, 2
  11              		.eabi_attribute 18, 4
  12              		.thumb
  13              		.file	"serial_usb.c"
  20 0000 CD040000 		.text
  20      02005902 
  20      00000201 
  20      FB0E0D00 
  20      01010101 
  21              	.Ltext0:
  22              		.cfi_sections	.debug_frame
  23              		.section	.text.putwouldblock,"ax",%progbits
  24              		.align	2
  25              		.p2align 4,,15
  26              		.thumb
  27              		.thumb_func
  28              		.type	putwouldblock, %function
  29              	putwouldblock:
  30              	.LFB64:
  31              		.file 1 "../chibios_2.4.x/os/hal/src/serial_usb.c"
  32              		.loc 1 83 0
  33              		.cfi_startproc
  34              		@ args = 0, pretend = 0, frame = 0
  35              		@ frame_needed = 0, uses_anonymous_args = 0
  36              		@ link register save eliminated.
  37              	.LVL0:
  38              		.loc 1 85 0
  39 0000 806B     		ldr	r0, [r0, #56]
  40              	.LVL1:
  41 0002 D0F10100 		rsbs	r0, r0, #1
  42 0006 38BF     		it	cc
  43 0008 0020     		movcc	r0, #0
  44              		.loc 1 86 0
  45 000a 7047     		bx	lr
  46              		.cfi_endproc
  47              	.LFE64:
  48              		.size	putwouldblock, .-putwouldblock
  49 000c AFF30080 		.section	.text.getwouldblock,"ax",%progbits
  50              		.align	2
  51              		.p2align 4,,15
  52              		.thumb
  53              		.thumb_func
ARM GAS  C:\Users\z80\AppData\Local\Temp\ccWBSCEe.s 			page 2


  54              		.type	getwouldblock, %function
  55              	getwouldblock:
  56              	.LFB65:
  57              		.loc 1 88 0
  58              		.cfi_startproc
  59              		@ args = 0, pretend = 0, frame = 0
  60              		@ frame_needed = 0, uses_anonymous_args = 0
  61              		@ link register save eliminated.
  62              	.LVL2:
  63              		.loc 1 90 0
  64 0000 8069     		ldr	r0, [r0, #24]
  65              	.LVL3:
  66 0002 D0F10100 		rsbs	r0, r0, #1
  67 0006 38BF     		it	cc
  68 0008 0020     		movcc	r0, #0
  69              		.loc 1 91 0
  70 000a 7047     		bx	lr
  71              		.cfi_endproc
  72              	.LFE65:
  73              		.size	getwouldblock, .-getwouldblock
  74 000c AFF30080 		.section	.text.getflags,"ax",%progbits
  75              		.align	2
  76              		.p2align 4,,15
  77              		.thumb
  78              		.thumb_func
  79              		.type	getflags, %function
  80              	getflags:
  81              	.LFB70:
  82              		.loc 1 113 0
  83              		.cfi_startproc
  84              		@ args = 0, pretend = 0, frame = 0
  85              		@ frame_needed = 0, uses_anonymous_args = 0
  86              	.LVL4:
  87 0000 70B5     		push	{r4, r5, r6, lr}
  88              	.LCFI0:
  89              		.cfi_def_cfa_offset 16
  90              	.LBB24:
  91              		.loc 1 114 0
  92 0002 2023     		movs	r3, #32
  93              	.LVL5:
  94              	.LBE24:
  95              		.loc 1 113 0
  96 0004 0446     		mov	r4, r0
  97              		.cfi_offset 14, -4
  98              		.cfi_offset 6, -8
  99              		.cfi_offset 5, -12
 100              		.cfi_offset 4, -16
 101              	.LBB25:
 102              		.loc 1 114 0
 103              	@ 114 "../chibios_2.4.x/os/hal/src/serial_usb.c" 1
 104 0006 83F31188 		msr     BASEPRI, r3
 105              	@ 0 "" 2
 106              	.LVL6:
 107              		.thumb
 108              	.LBE25:
 109 000a 0026     		movs	r6, #0
 110 000c FFF7FEFF 		bl	dbg_check_lock
ARM GAS  C:\Users\z80\AppData\Local\Temp\ccWBSCEe.s 			page 3


 111              	.LVL7:
 112 0010 A568     		ldr	r5, [r4, #8]
 113              	.LVL8:
 114 0012 A660     		str	r6, [r4, #8]
 115 0014 FFF7FEFF 		bl	dbg_check_unlock
 116              	.LVL9:
 117              	.LBB26:
 118 0018 3346     		mov	r3, r6
 119              	.LVL10:
 120              	@ 114 "../chibios_2.4.x/os/hal/src/serial_usb.c" 1
 121 001a 83F31188 		msr     BASEPRI, r3
 122              	@ 0 "" 2
 123              	.LVL11:
 124              		.thumb
 125              	.LBE26:
 126              		.loc 1 115 0
 127 001e 2846     		mov	r0, r5
 128 0020 70BD     		pop	{r4, r5, r6, pc}
 129              		.cfi_endproc
 130              	.LFE70:
 131              		.size	getflags, .-getflags
 132 0022 00BFAFF3 		.section	.text.onotify,"ax",%progbits
 132      0080AFF3 
 132      0080AFF3 
 132      0080
 133              		.align	2
 134              		.p2align 4,,15
 135              		.thumb
 136              		.thumb_func
 137              		.type	onotify, %function
 138              	onotify:
 139              	.LFB72:
 140              		.loc 1 154 0
 141              		.cfi_startproc
 142              		@ args = 0, pretend = 0, frame = 0
 143              		@ frame_needed = 0, uses_anonymous_args = 0
 144              	.LVL12:
 145 0000 2DE9F041 		push	{r4, r5, r6, r7, r8, lr}
 146              	.LCFI1:
 147              		.cfi_def_cfa_offset 24
 148              		.loc 1 155 0
 149 0004 8469     		ldr	r4, [r0, #24]
 150              		.cfi_offset 14, -4
 151              		.cfi_offset 8, -8
 152              		.cfi_offset 7, -12
 153              		.cfi_offset 6, -16
 154              		.cfi_offset 5, -20
 155              		.cfi_offset 4, -24
 156              	.LVL13:
 157              		.loc 1 161 0
 158 0006 D4F8D030 		ldr	r3, [r4, #208]
 159              		.loc 1 160 0
 160 000a D4F84080 		ldr	r8, [r4, #64]
 161              		.loc 1 161 0
 162 000e 1B68     		ldr	r3, [r3, #0]
 163              		.loc 1 160 0
 164 0010 E76B     		ldr	r7, [r4, #60]
ARM GAS  C:\Users\z80\AppData\Local\Temp\ccWBSCEe.s 			page 4


 165              		.loc 1 161 0
 166 0012 9D89     		ldrh	r5, [r3, #12]
 167              		.loc 1 160 0
 168 0014 A66B     		ldr	r6, [r4, #56]
 169              		.loc 1 161 0
 170 0016 15F00205 		ands	r5, r5, #2
 171 001a 01D0     		beq	.L10
 172              	.LVL14:
 173              	.L4:
 174              		.loc 1 176 0
 175 001c BDE8F081 		pop	{r4, r5, r6, r7, r8, pc}
 176              	.LVL15:
 177              	.L10:
 178              		.loc 1 162 0
 179 0020 FFF7FEFF 		bl	dbg_check_unlock
 180              	.LVL16:
 181              	.LBB27:
 182 0024 2B46     		mov	r3, r5
 183              	.LVL17:
 184              	@ 162 "../chibios_2.4.x/os/hal/src/serial_usb.c" 1
 185 0026 83F31188 		msr     BASEPRI, r3
 186              	@ 0 "" 2
 187              	.LVL18:
 188              		.thumb
 189              	.LBE27:
 190              		.loc 1 165 0
 191 002a D4F8D030 		ldr	r3, [r4, #208]
 192              	.LVL19:
 193              		.loc 1 160 0
 194 002e C7EB0807 		rsb	r7, r7, r8
 195              	.LVL20:
 196              		.loc 1 165 0
 197 0032 1868     		ldr	r0, [r3, #0]
 198 0034 E26B     		ldr	r2, [r4, #60]
 199              		.loc 1 160 0
 200 0036 BB1B     		subs	r3, r7, r6
 201              		.loc 1 165 0
 202 0038 0121     		movs	r1, #1
 203 003a FFF7FEFF 		bl	usb_lld_write_packet_buffer
 204              	.LBB28:
 205              		.loc 1 168 0
 206 003e 2023     		movs	r3, #32
 207              	.LVL21:
 208              	@ 168 "../chibios_2.4.x/os/hal/src/serial_usb.c" 1
 209 0040 83F31188 		msr     BASEPRI, r3
 210              	@ 0 "" 2
 211              	.LVL22:
 212              		.thumb
 213              	.LBE28:
 214 0044 FFF7FEFF 		bl	dbg_check_lock
 215              	.LVL23:
 216              		.loc 1 169 0
 217 0048 D4F8D030 		ldr	r3, [r4, #208]
 218 004c 0121     		movs	r1, #1
 219 004e 1868     		ldr	r0, [r3, #0]
 220 0050 FFF7FEFF 		bl	usbStartTransmitI
 221              		.loc 1 170 0
ARM GAS  C:\Users\z80\AppData\Local\Temp\ccWBSCEe.s 			page 5


 222 0054 A368     		ldr	r3, [r4, #8]
 223              		.loc 1 173 0
 224 0056 2646     		mov	r6, r4
 225              		.loc 1 170 0
 226 0058 43F00803 		orr	r3, r3, #8
 227 005c 201D     		adds	r0, r4, #4
 228 005e A360     		str	r3, [r4, #8]
 229 0060 2946     		mov	r1, r5
 230 0062 FFF7FEFF 		bl	chEvtBroadcastFlagsI
 231              		.loc 1 171 0
 232 0066 E26B     		ldr	r2, [r4, #60]
 233              		.loc 1 172 0
 234 0068 216C     		ldr	r1, [r4, #64]
 235              		.loc 1 173 0
 236 006a 56F8303F 		ldr	r3, [r6, #48]!
 237              		.loc 1 172 0
 238 006e 891A     		subs	r1, r1, r2
 239              		.loc 1 173 0
 240 0070 B342     		cmp	r3, r6
 241              		.loc 1 171 0
 242 0072 6264     		str	r2, [r4, #68]
 243              		.loc 1 172 0
 244 0074 A163     		str	r1, [r4, #56]
 245              		.loc 1 173 0
 246 0076 D1D0     		beq	.L4
 247              	.L7:
 248              	.LVL24:
 249              	.LBB29:
 250              	.LBB30:
 251              		.file 2 "../chibios_2.4.x/os/kernel/include/chinline.h"
 252              		.loc 2 62 0
 253 0078 1A68     		ldr	r2, [r3, #0]
 254              	.LBE30:
 255              	.LBE29:
 256              		.loc 1 174 0
 257 007a 1846     		mov	r0, r3
 258              	.LBB32:
 259              	.LBB31:
 260              		.loc 2 62 0
 261 007c 2263     		str	r2, [r4, #48]
 262 007e 5660     		str	r6, [r2, #4]
 263              	.LBE31:
 264              	.LBE32:
 265              		.loc 1 174 0
 266 0080 FFF7FEFF 		bl	chSchReadyI
 267              	.LVL25:
 268              		.loc 1 173 0
 269 0084 236B     		ldr	r3, [r4, #48]
 270              		.loc 1 174 0
 271 0086 8562     		str	r5, [r0, #40]
 272              		.loc 1 173 0
 273 0088 B342     		cmp	r3, r6
 274 008a F5D1     		bne	.L7
 275 008c C6E7     		b	.L4
 276              		.cfi_endproc
 277              	.LFE72:
 278              		.size	onotify, .-onotify
ARM GAS  C:\Users\z80\AppData\Local\Temp\ccWBSCEe.s 			page 6


 279 008e 00BF     		.section	.text.inotify,"ax",%progbits
 280              		.align	2
 281              		.p2align 4,,15
 282              		.thumb
 283              		.thumb_func
 284              		.type	inotify, %function
 285              	inotify:
 286              	.LFB71:
 287              		.loc 1 126 0
 288              		.cfi_startproc
 289              		@ args = 0, pretend = 0, frame = 0
 290              		@ frame_needed = 0, uses_anonymous_args = 0
 291              	.LVL26:
 292 0000 F8B5     		push	{r3, r4, r5, r6, r7, lr}
 293              	.LCFI2:
 294              		.cfi_def_cfa_offset 24
 295              		.loc 1 127 0
 296 0002 4469     		ldr	r4, [r0, #20]
 297              		.cfi_offset 14, -4
 298              		.cfi_offset 7, -8
 299              		.cfi_offset 6, -12
 300              		.cfi_offset 5, -16
 301              		.cfi_offset 4, -20
 302              		.cfi_offset 3, -24
 303              	.LVL27:
 304              		.loc 1 131 0
 305 0004 D4F8D030 		ldr	r3, [r4, #208]
 306 0008 1B68     		ldr	r3, [r3, #0]
 307 000a DB89     		ldrh	r3, [r3, #14]
 308 000c 13F0080F 		tst	r3, #8
 309 0010 01D1     		bne	.L11
 310              	.LVL28:
 311              		.loc 1 131 0 is_stmt 0 discriminator 1
 312 0012 A569     		ldr	r5, [r4, #24]
 313 0014 05B1     		cbz	r5, .L16
 314              	.LVL29:
 315              	.L11:
 316              		.loc 1 149 0 is_stmt 1
 317 0016 F8BD     		pop	{r3, r4, r5, r6, r7, pc}
 318              	.LVL30:
 319              	.L16:
 320              	.LBB33:
 321              		.loc 1 133 0
 322 0018 FFF7FEFF 		bl	dbg_check_unlock
 323              	.LVL31:
 324              	.LBB34:
 325 001c 2B46     		mov	r3, r5
 326              	.LVL32:
 327              	@ 133 "../chibios_2.4.x/os/hal/src/serial_usb.c" 1
 328 001e 83F31188 		msr     BASEPRI, r3
 329              	@ 0 "" 2
 330              	.LVL33:
 331              		.thumb
 332              	.LBE34:
 333              		.loc 1 136 0
 334 0022 D4F8D030 		ldr	r3, [r4, #208]
 335              	.LVL34:
ARM GAS  C:\Users\z80\AppData\Local\Temp\ccWBSCEe.s 			page 7


 336 0026 E269     		ldr	r2, [r4, #28]
 337 0028 1868     		ldr	r0, [r3, #0]
 338 002a 0321     		movs	r1, #3
 339 002c 4023     		movs	r3, #64
 340 002e FFF7FEFF 		bl	usb_lld_read_packet_buffer
 341              	.LBB35:
 342              		.loc 1 141 0
 343 0032 2023     		movs	r3, #32
 344              	.LVL35:
 345              	.LBE35:
 346              		.loc 1 136 0
 347 0034 0646     		mov	r6, r0
 348              	.LVL36:
 349              	.LBB36:
 350              		.loc 1 141 0
 351              	@ 141 "../chibios_2.4.x/os/hal/src/serial_usb.c" 1
 352 0036 83F31188 		msr     BASEPRI, r3
 353              	@ 0 "" 2
 354              	.LVL37:
 355              		.thumb
 356              	.LBE36:
 357 003a FFF7FEFF 		bl	dbg_check_lock
 358              	.LVL38:
 359              		.loc 1 142 0
 360 003e D4F8D030 		ldr	r3, [r4, #208]
 361 0042 0321     		movs	r1, #3
 362 0044 1868     		ldr	r0, [r3, #0]
 363 0046 FFF7FEFF 		bl	usbStartReceiveI
 364              		.loc 1 143 0
 365 004a A368     		ldr	r3, [r4, #8]
 366              		.loc 1 146 0
 367 004c 2746     		mov	r7, r4
 368              		.loc 1 143 0
 369 004e 43F00403 		orr	r3, r3, #4
 370 0052 201D     		adds	r0, r4, #4
 371 0054 A360     		str	r3, [r4, #8]
 372 0056 2946     		mov	r1, r5
 373 0058 FFF7FEFF 		bl	chEvtBroadcastFlagsI
 374              		.loc 1 146 0
 375 005c 57F8103F 		ldr	r3, [r7, #16]!
 376              		.loc 1 144 0
 377 0060 E269     		ldr	r2, [r4, #28]
 378              		.loc 1 146 0
 379 0062 BB42     		cmp	r3, r7
 380              		.loc 1 144 0
 381 0064 A262     		str	r2, [r4, #40]
 382              		.loc 1 145 0
 383 0066 A661     		str	r6, [r4, #24]
 384              		.loc 1 146 0
 385 0068 D5D0     		beq	.L11
 386              	.L14:
 387              	.LVL39:
 388              	.LBB37:
 389              	.LBB38:
 390              		.loc 2 62 0
 391 006a 1A68     		ldr	r2, [r3, #0]
 392              	.LBE38:
ARM GAS  C:\Users\z80\AppData\Local\Temp\ccWBSCEe.s 			page 8


 393              	.LBE37:
 394              		.loc 1 147 0
 395 006c 1846     		mov	r0, r3
 396              	.LBB40:
 397              	.LBB39:
 398              		.loc 2 62 0
 399 006e 2261     		str	r2, [r4, #16]
 400 0070 5760     		str	r7, [r2, #4]
 401              	.LBE39:
 402              	.LBE40:
 403              		.loc 1 147 0
 404 0072 FFF7FEFF 		bl	chSchReadyI
 405              	.LVL40:
 406              		.loc 1 146 0
 407 0076 2369     		ldr	r3, [r4, #16]
 408              		.loc 1 147 0
 409 0078 8562     		str	r5, [r0, #40]
 410              		.loc 1 146 0
 411 007a BB42     		cmp	r3, r7
 412 007c F5D1     		bne	.L14
 413 007e CAE7     		b	.L11
 414              	.LBE33:
 415              		.cfi_endproc
 416              	.LFE71:
 417              		.size	inotify, .-inotify
 418              		.section	.text.readt,"ax",%progbits
 419              		.align	2
 420              		.p2align 4,,15
 421              		.thumb
 422              		.thumb_func
 423              		.type	readt, %function
 424              	readt:
 425              	.LFB69:
 426              		.loc 1 108 0
 427              		.cfi_startproc
 428              		@ args = 0, pretend = 0, frame = 0
 429              		@ frame_needed = 0, uses_anonymous_args = 0
 430              	.LVL41:
 431 0000 08B5     		push	{r3, lr}
 432              	.LCFI3:
 433              		.cfi_def_cfa_offset 8
 434              		.loc 1 110 0
 435 0002 1030     		adds	r0, r0, #16
 436              	.LVL42:
 437              		.cfi_offset 14, -4
 438              		.cfi_offset 3, -8
 439 0004 FFF7FEFF 		bl	chIQReadTimeout
 440              	.LVL43:
 441              		.loc 1 111 0
 442 0008 08BD     		pop	{r3, pc}
 443              		.cfi_endproc
 444              	.LFE69:
 445              		.size	readt, .-readt
 446 000a 00BFAFF3 		.section	.text.reads,"ax",%progbits
 446      0080
 447              		.align	2
 448              		.p2align 4,,15
ARM GAS  C:\Users\z80\AppData\Local\Temp\ccWBSCEe.s 			page 9


 449              		.thumb
 450              		.thumb_func
 451              		.type	reads, %function
 452              	reads:
 453              	.LFB63:
 454              		.loc 1 77 0
 455              		.cfi_startproc
 456              		@ args = 0, pretend = 0, frame = 0
 457              		@ frame_needed = 0, uses_anonymous_args = 0
 458              	.LVL44:
 459 0000 08B5     		push	{r3, lr}
 460              	.LCFI4:
 461              		.cfi_def_cfa_offset 8
 462              		.loc 1 79 0
 463 0002 1030     		adds	r0, r0, #16
 464              	.LVL45:
 465 0004 4FF0FF33 		mov	r3, #-1
 466              		.cfi_offset 14, -4
 467              		.cfi_offset 3, -8
 468 0008 FFF7FEFF 		bl	chIQReadTimeout
 469              	.LVL46:
 470              		.loc 1 81 0
 471 000c 08BD     		pop	{r3, pc}
 472              		.cfi_endproc
 473              	.LFE63:
 474              		.size	reads, .-reads
 475 000e 00BF     		.section	.text.writet,"ax",%progbits
 476              		.align	2
 477              		.p2align 4,,15
 478              		.thumb
 479              		.thumb_func
 480              		.type	writet, %function
 481              	writet:
 482              	.LFB68:
 483              		.loc 1 103 0
 484              		.cfi_startproc
 485              		@ args = 0, pretend = 0, frame = 0
 486              		@ frame_needed = 0, uses_anonymous_args = 0
 487              	.LVL47:
 488 0000 08B5     		push	{r3, lr}
 489              	.LCFI5:
 490              		.cfi_def_cfa_offset 8
 491              		.loc 1 105 0
 492 0002 3030     		adds	r0, r0, #48
 493              	.LVL48:
 494              		.cfi_offset 14, -4
 495              		.cfi_offset 3, -8
 496 0004 FFF7FEFF 		bl	chOQWriteTimeout
 497              	.LVL49:
 498              		.loc 1 106 0
 499 0008 08BD     		pop	{r3, pc}
 500              		.cfi_endproc
 501              	.LFE68:
 502              		.size	writet, .-writet
 503 000a 00BFAFF3 		.section	.text.writes,"ax",%progbits
 503      0080
 504              		.align	2
ARM GAS  C:\Users\z80\AppData\Local\Temp\ccWBSCEe.s 			page 10


 505              		.p2align 4,,15
 506              		.thumb
 507              		.thumb_func
 508              		.type	writes, %function
 509              	writes:
 510              	.LFB62:
 511              		.loc 1 71 0
 512              		.cfi_startproc
 513              		@ args = 0, pretend = 0, frame = 0
 514              		@ frame_needed = 0, uses_anonymous_args = 0
 515              	.LVL50:
 516 0000 08B5     		push	{r3, lr}
 517              	.LCFI6:
 518              		.cfi_def_cfa_offset 8
 519              		.loc 1 73 0
 520 0002 3030     		adds	r0, r0, #48
 521              	.LVL51:
 522 0004 4FF0FF33 		mov	r3, #-1
 523              		.cfi_offset 14, -4
 524              		.cfi_offset 3, -8
 525 0008 FFF7FEFF 		bl	chOQWriteTimeout
 526              	.LVL52:
 527              		.loc 1 75 0
 528 000c 08BD     		pop	{r3, pc}
 529              		.cfi_endproc
 530              	.LFE62:
 531              		.size	writes, .-writes
 532 000e 00BF     		.section	.text.gett,"ax",%progbits
 533              		.align	2
 534              		.p2align 4,,15
 535              		.thumb
 536              		.thumb_func
 537              		.type	gett, %function
 538              	gett:
 539              	.LFB67:
 540              		.loc 1 98 0
 541              		.cfi_startproc
 542              		@ args = 0, pretend = 0, frame = 0
 543              		@ frame_needed = 0, uses_anonymous_args = 0
 544              	.LVL53:
 545 0000 08B5     		push	{r3, lr}
 546              	.LCFI7:
 547              		.cfi_def_cfa_offset 8
 548              		.loc 1 100 0
 549 0002 1030     		adds	r0, r0, #16
 550              	.LVL54:
 551              		.cfi_offset 14, -4
 552              		.cfi_offset 3, -8
 553 0004 FFF7FEFF 		bl	chIQGetTimeout
 554              	.LVL55:
 555              		.loc 1 101 0
 556 0008 08BD     		pop	{r3, pc}
 557              		.cfi_endproc
 558              	.LFE67:
 559              		.size	gett, .-gett
 560 000a 00BFAFF3 		.section	.text.putt,"ax",%progbits
 560      0080
ARM GAS  C:\Users\z80\AppData\Local\Temp\ccWBSCEe.s 			page 11


 561              		.align	2
 562              		.p2align 4,,15
 563              		.thumb
 564              		.thumb_func
 565              		.type	putt, %function
 566              	putt:
 567              	.LFB66:
 568              		.loc 1 93 0
 569              		.cfi_startproc
 570              		@ args = 0, pretend = 0, frame = 0
 571              		@ frame_needed = 0, uses_anonymous_args = 0
 572              	.LVL56:
 573 0000 08B5     		push	{r3, lr}
 574              	.LCFI8:
 575              		.cfi_def_cfa_offset 8
 576              		.loc 1 95 0
 577 0002 3030     		adds	r0, r0, #48
 578              	.LVL57:
 579              		.cfi_offset 14, -4
 580              		.cfi_offset 3, -8
 581 0004 FFF7FEFF 		bl	chOQPutTimeout
 582              	.LVL58:
 583              		.loc 1 96 0
 584 0008 08BD     		pop	{r3, pc}
 585              		.cfi_endproc
 586              	.LFE66:
 587              		.size	putt, .-putt
 588 000a 00BFAFF3 		.section	.text.sduInit,"ax",%progbits
 588      0080
 589              		.align	2
 590              		.p2align 4,,15
 591              		.global	sduInit
 592              		.thumb
 593              		.thumb_func
 594              		.type	sduInit, %function
 595              	sduInit:
 596              	.LFB73:
 597              		.loc 1 189 0
 598              		.cfi_startproc
 599              		@ args = 0, pretend = 0, frame = 0
 600              		@ frame_needed = 0, uses_anonymous_args = 0
 601              		@ link register save eliminated.
 602              		.loc 1 190 0
 603 0000 7047     		bx	lr
 604              		.cfi_endproc
 605              	.LFE73:
 606              		.size	sduInit, .-sduInit
 607 0002 00BFAFF3 		.section	.text.sduObjectInit,"ax",%progbits
 607      0080AFF3 
 607      0080AFF3 
 607      0080
 608              		.align	2
 609              		.p2align 4,,15
 610              		.global	sduObjectInit
 611              		.thumb
 612              		.thumb_func
 613              		.type	sduObjectInit, %function
ARM GAS  C:\Users\z80\AppData\Local\Temp\ccWBSCEe.s 			page 12


 614              	sduObjectInit:
 615              	.LFB74:
 616              		.loc 1 201 0
 617              		.cfi_startproc
 618              		@ args = 0, pretend = 0, frame = 0
 619              		@ frame_needed = 0, uses_anonymous_args = 0
 620              	.LVL59:
 621              		.loc 1 203 0
 622 0000 40F20002 		movw	r2, #:lower16:.LANCHOR0
 623 0004 8446     		mov	ip, r0
 624 0006 C0F20002 		movt	r2, #:upper16:.LANCHOR0
 625              		.loc 1 201 0
 626 000a 10B5     		push	{r4, lr}
 627              	.LCFI9:
 628              		.cfi_def_cfa_offset 8
 629              		.loc 1 201 0
 630 000c 0446     		mov	r4, r0
 631              		.cfi_offset 14, -4
 632              		.cfi_offset 4, -8
 633              		.loc 1 203 0
 634 000e 4CF8042B 		str	r2, [ip], #4
 635              		.loc 1 204 0
 636 0012 C4F804C0 		str	ip, [r4, #4]
 637              		.loc 1 205 0
 638 0016 4FF0000C 		mov	ip, #0
 639 001a C4F808C0 		str	ip, [r4, #8]
 640              		.loc 1 207 0
 641 001e 40F20003 		movw	r3, #:lower16:inotify
 642              		.loc 1 206 0
 643 0022 4FF0010C 		mov	ip, #1
 644              		.loc 1 207 0
 645 0026 C0F20003 		movt	r3, #:upper16:inotify
 646 002a 00F11000 		add	r0, r0, #16
 647              	.LVL60:
 648 002e 04F15001 		add	r1, r4, #80
 649 0032 4022     		movs	r2, #64
 650              		.loc 1 206 0
 651 0034 84F80CC0 		strb	ip, [r4, #12]
 652              		.loc 1 207 0
 653 0038 FFF7FEFF 		bl	chIQInit
 654              		.loc 1 208 0
 655 003c 40F20003 		movw	r3, #:lower16:onotify
 656 0040 C0F20003 		movt	r3, #:upper16:onotify
 657 0044 04F13000 		add	r0, r4, #48
 658 0048 04F19001 		add	r1, r4, #144
 659 004c 4022     		movs	r2, #64
 660 004e FFF7FEFF 		bl	chOQInit
 661              		.loc 1 211 0
 662 0052 6462     		str	r4, [r4, #36]
 663              		.loc 1 212 0
 664 0054 A464     		str	r4, [r4, #72]
 665              		.loc 1 213 0
 666 0056 10BD     		pop	{r4, pc}
 667              		.cfi_endproc
 668              	.LFE74:
 669              		.size	sduObjectInit, .-sduObjectInit
 670 0058 AFF30080 		.section	.text.sduStart,"ax",%progbits
ARM GAS  C:\Users\z80\AppData\Local\Temp\ccWBSCEe.s 			page 13


 670      AFF30080 
 671              		.align	2
 672              		.p2align 4,,15
 673              		.global	sduStart
 674              		.thumb
 675              		.thumb_func
 676              		.type	sduStart, %function
 677              	sduStart:
 678              	.LFB75:
 679              		.loc 1 223 0
 680              		.cfi_startproc
 681              		@ args = 0, pretend = 0, frame = 0
 682              		@ frame_needed = 0, uses_anonymous_args = 0
 683              	.LVL61:
 684 0000 38B5     		push	{r3, r4, r5, lr}
 685              	.LCFI10:
 686              		.cfi_def_cfa_offset 16
 687              		.loc 1 223 0
 688 0002 0446     		mov	r4, r0
 689              		.cfi_offset 14, -4
 690              		.cfi_offset 5, -8
 691              		.cfi_offset 4, -12
 692              		.cfi_offset 3, -16
 693 0004 0D46     		mov	r5, r1
 694              		.loc 1 225 0
 695 0006 E8B1     		cbz	r0, .L28
 696              	.LVL62:
 697              	.L26:
 698              	.LBB41:
 699              		.loc 1 227 0
 700 0008 2023     		movs	r3, #32
 701              	.LVL63:
 702              	@ 227 "../chibios_2.4.x/os/hal/src/serial_usb.c" 1
 703 000a 83F31188 		msr     BASEPRI, r3
 704              	@ 0 "" 2
 705              	.LVL64:
 706              		.thumb
 707              	.LBE41:
 708 000e FFF7FEFF 		bl	dbg_check_lock
 709              	.LVL65:
 710              		.loc 1 228 0
 711 0012 237B     		ldrb	r3, [r4, #12]	@ zero_extendqisi2
 712 0014 013B     		subs	r3, r3, #1
 713 0016 DBB2     		uxtb	r3, r3
 714 0018 012B     		cmp	r3, #1
 715 001a 02D9     		bls	.L27
 716              		.loc 1 228 0 is_stmt 0 discriminator 1
 717 001c 0B48     		ldr	r0, .L29
 718 001e FFF7FEFF 		bl	chDbgPanic
 719              	.L27:
 720              		.loc 1 232 0 is_stmt 1
 721 0022 2B68     		ldr	r3, [r5, #0]
 722              		.loc 1 231 0
 723 0024 C4F8D050 		str	r5, [r4, #208]
 724              		.loc 1 232 0
 725 0028 9C60     		str	r4, [r3, #8]
 726              		.loc 1 233 0
ARM GAS  C:\Users\z80\AppData\Local\Temp\ccWBSCEe.s 			page 14


 727 002a 0223     		movs	r3, #2
 728 002c 2373     		strb	r3, [r4, #12]
 729              		.loc 1 234 0
 730 002e FFF7FEFF 		bl	dbg_check_unlock
 731              	.LBB42:
 732 0032 0023     		movs	r3, #0
 733              	.LVL66:
 734              	@ 234 "../chibios_2.4.x/os/hal/src/serial_usb.c" 1
 735 0034 83F31188 		msr     BASEPRI, r3
 736              	@ 0 "" 2
 737              	.LVL67:
 738              		.thumb
 739              	.LBE42:
 740              		.loc 1 235 0
 741 0038 2946     		mov	r1, r5
 742 003a 51F8040B 		ldr	r0, [r1], #4
 743 003e FFF7FEFF 		bl	usbStart
 744              	.LVL68:
 745              		.loc 1 236 0
 746 0042 38BD     		pop	{r3, r4, r5, pc}
 747              	.L28:
 748              		.loc 1 225 0 discriminator 1
 749 0044 0248     		ldr	r0, .L29+4
 750 0046 FFF7FEFF 		bl	chDbgPanic
 751 004a DDE7     		b	.L26
 752              	.L30:
 753              		.align	2
 754              	.L29:
 755 004c 10000000 		.word	.LC1
 756 0050 00000000 		.word	.LC0
 757              		.cfi_endproc
 758              	.LFE75:
 759              		.size	sduStart, .-sduStart
 760 0054 AFF30080 		.section	.text.sduStop,"ax",%progbits
 760      AFF30080 
 760      AFF30080 
 761              		.align	2
 762              		.p2align 4,,15
 763              		.global	sduStop
 764              		.thumb
 765              		.thumb_func
 766              		.type	sduStop, %function
 767              	sduStop:
 768              	.LFB76:
 769              		.loc 1 247 0
 770              		.cfi_startproc
 771              		@ args = 0, pretend = 0, frame = 0
 772              		@ frame_needed = 0, uses_anonymous_args = 0
 773              	.LVL69:
 774 0000 10B5     		push	{r4, lr}
 775              	.LCFI11:
 776              		.cfi_def_cfa_offset 8
 777              		.loc 1 247 0
 778 0002 0446     		mov	r4, r0
 779              		.cfi_offset 14, -4
 780              		.cfi_offset 4, -8
 781              		.loc 1 249 0
ARM GAS  C:\Users\z80\AppData\Local\Temp\ccWBSCEe.s 			page 15


 782 0004 C8B1     		cbz	r0, .L34
 783              	.LVL70:
 784              	.L32:
 785              	.LBB43:
 786              		.loc 1 251 0
 787 0006 2023     		movs	r3, #32
 788              	.LVL71:
 789              	@ 251 "../chibios_2.4.x/os/hal/src/serial_usb.c" 1
 790 0008 83F31188 		msr     BASEPRI, r3
 791              	@ 0 "" 2
 792              	.LVL72:
 793              		.thumb
 794              	.LBE43:
 795 000c FFF7FEFF 		bl	dbg_check_lock
 796              	.LVL73:
 797              		.loc 1 252 0
 798 0010 237B     		ldrb	r3, [r4, #12]	@ zero_extendqisi2
 799 0012 013B     		subs	r3, r3, #1
 800 0014 DBB2     		uxtb	r3, r3
 801 0016 012B     		cmp	r3, #1
 802 0018 02D9     		bls	.L33
 803              		.loc 1 252 0 is_stmt 0 discriminator 1
 804 001a 0A48     		ldr	r0, .L35
 805 001c FFF7FEFF 		bl	chDbgPanic
 806              	.L33:
 807              		.loc 1 255 0 is_stmt 1
 808 0020 0123     		movs	r3, #1
 809 0022 2373     		strb	r3, [r4, #12]
 810              		.loc 1 256 0
 811 0024 FFF7FEFF 		bl	dbg_check_unlock
 812              	.LBB44:
 813 0028 0023     		movs	r3, #0
 814              	.LVL74:
 815              	@ 256 "../chibios_2.4.x/os/hal/src/serial_usb.c" 1
 816 002a 83F31188 		msr     BASEPRI, r3
 817              	@ 0 "" 2
 818              	.LVL75:
 819              		.thumb
 820              	.LBE44:
 821              		.loc 1 257 0
 822 002e D4F8D030 		ldr	r3, [r4, #208]
 823              	.LVL76:
 824 0032 1868     		ldr	r0, [r3, #0]
 825 0034 FFF7FEFF 		bl	usbStop
 826              		.loc 1 258 0
 827 0038 10BD     		pop	{r4, pc}
 828              	.L34:
 829              		.loc 1 249 0 discriminator 1
 830 003a 0348     		ldr	r0, .L35+4
 831 003c FFF7FEFF 		bl	chDbgPanic
 832 0040 E1E7     		b	.L32
 833              	.L36:
 834 0042 00BF     		.align	2
 835              	.L35:
 836 0044 2C000000 		.word	.LC3
 837 0048 20000000 		.word	.LC2
 838              		.cfi_endproc
ARM GAS  C:\Users\z80\AppData\Local\Temp\ccWBSCEe.s 			page 16


 839              	.LFE76:
 840              		.size	sduStop, .-sduStop
 841 004c AFF30080 		.section	.text.sduRequestsHook,"ax",%progbits
 842              		.align	2
 843              		.p2align 4,,15
 844              		.global	sduRequestsHook
 845              		.thumb
 846              		.thumb_func
 847              		.type	sduRequestsHook, %function
 848              	sduRequestsHook:
 849              	.LFB77:
 850              		.loc 1 275 0
 851              		.cfi_startproc
 852              		@ args = 0, pretend = 0, frame = 0
 853              		@ frame_needed = 0, uses_anonymous_args = 0
 854              		@ link register save eliminated.
 855              	.LVL77:
 856              		.loc 1 277 0
 857 0000 90F84030 		ldrb	r3, [r0, #64]	@ zero_extendqisi2
 858 0004 03F06003 		and	r3, r3, #96
 859 0008 202B     		cmp	r3, #32
 860 000a 01D0     		beq	.L45
 861              	.L44:
 862              		.loc 1 290 0
 863 000c 0020     		movs	r0, #0
 864              	.LVL78:
 865              	.L38:
 866              		.loc 1 294 0
 867 000e 7047     		bx	lr
 868              	.LVL79:
 869              	.L45:
 870              		.loc 1 278 0
 871 0010 90F84130 		ldrb	r3, [r0, #65]	@ zero_extendqisi2
 872 0014 212B     		cmp	r3, #33
 873 0016 03D0     		beq	.L39
 874 0018 222B     		cmp	r3, #34
 875 001a 09D0     		beq	.L41
 876 001c 202B     		cmp	r3, #32
 877 001e F5D1     		bne	.L44
 878              	.L39:
 879              		.loc 1 283 0
 880 0020 064B     		ldr	r3, .L46
 881 0022 4363     		str	r3, [r0, #52]
 882 0024 0723     		movs	r3, #7
 883 0026 8363     		str	r3, [r0, #56]
 884 0028 0023     		movs	r3, #0
 885 002a C363     		str	r3, [r0, #60]
 886              		.loc 1 284 0
 887 002c 0120     		movs	r0, #1
 888              	.LVL80:
 889 002e EEE7     		b	.L38
 890              	.LVL81:
 891              	.L41:
 892              		.loc 1 287 0
 893 0030 0023     		movs	r3, #0
 894 0032 4363     		str	r3, [r0, #52]
 895 0034 8363     		str	r3, [r0, #56]
ARM GAS  C:\Users\z80\AppData\Local\Temp\ccWBSCEe.s 			page 17


 896 0036 C363     		str	r3, [r0, #60]
 897              		.loc 1 288 0
 898 0038 0120     		movs	r0, #1
 899              	.LVL82:
 900 003a E8E7     		b	.L38
 901              	.L47:
 902              		.align	2
 903              	.L46:
 904 003c 00000000 		.word	.LANCHOR1
 905              		.cfi_endproc
 906              	.LFE77:
 907              		.size	sduRequestsHook, .-sduRequestsHook
 908              		.section	.text.sduDataTransmitted,"ax",%progbits
 909              		.align	2
 910              		.p2align 4,,15
 911              		.global	sduDataTransmitted
 912              		.thumb
 913              		.thumb_func
 914              		.type	sduDataTransmitted, %function
 915              	sduDataTransmitted:
 916              	.LFB78:
 917              		.loc 1 304 0
 918              		.cfi_startproc
 919              		@ args = 0, pretend = 0, frame = 0
 920              		@ frame_needed = 0, uses_anonymous_args = 0
 921              	.LVL83:
 922 0000 F8B5     		push	{r3, r4, r5, r6, r7, lr}
 923              	.LCFI12:
 924              		.cfi_def_cfa_offset 24
 925              		.loc 1 305 0
 926 0002 8468     		ldr	r4, [r0, #8]
 927              		.cfi_offset 14, -4
 928              		.cfi_offset 7, -8
 929              		.cfi_offset 6, -12
 930              		.cfi_offset 5, -16
 931              		.cfi_offset 4, -20
 932              		.cfi_offset 3, -24
 933              	.LVL84:
 934              		.loc 1 304 0
 935 0004 0546     		mov	r5, r0
 936 0006 0E46     		mov	r6, r1
 937              	.LBB45:
 938              		.loc 1 308 0
 939 0008 2023     		movs	r3, #32
 940              	.LVL85:
 941              	@ 308 "../chibios_2.4.x/os/hal/src/serial_usb.c" 1
 942 000a 83F31188 		msr     BASEPRI, r3
 943              	@ 0 "" 2
 944              	.LVL86:
 945              		.thumb
 946              	.LBE45:
 947 000e FFF7FEFF 		bl	dbg_check_lock_from_isr
 948              	.LVL87:
 949              		.loc 1 311 0
 950 0012 276C     		ldr	r7, [r4, #64]
 951 0014 E26B     		ldr	r2, [r4, #60]
 952 0016 A36B     		ldr	r3, [r4, #56]
ARM GAS  C:\Users\z80\AppData\Local\Temp\ccWBSCEe.s 			page 18


 953 0018 BF1A     		subs	r7, r7, r2
 954              	.LVL88:
 955              		.loc 1 312 0
 956 001a FF1A     		subs	r7, r7, r3
 957              	.LVL89:
 958 001c 05D1     		bne	.L53
 959              	.LVL90:
 960              	.L49:
 961              		.loc 1 328 0
 962 001e FFF7FEFF 		bl	dbg_check_unlock_from_isr
 963              	.LBB46:
 964 0022 0023     		movs	r3, #0
 965              	.LVL91:
 966              	@ 328 "../chibios_2.4.x/os/hal/src/serial_usb.c" 1
 967 0024 83F31188 		msr     BASEPRI, r3
 968              	@ 0 "" 2
 969              	.LVL92:
 970              		.thumb
 971              	.LBE46:
 972              		.loc 1 329 0
 973 0028 F8BD     		pop	{r3, r4, r5, r6, r7, pc}
 974              	.LVL93:
 975              	.L53:
 976              		.loc 1 315 0
 977 002a FFF7FEFF 		bl	dbg_check_unlock_from_isr
 978              	.LBB47:
 979 002e 0023     		movs	r3, #0
 980              	.LVL94:
 981              	@ 315 "../chibios_2.4.x/os/hal/src/serial_usb.c" 1
 982 0030 83F31188 		msr     BASEPRI, r3
 983              	@ 0 "" 2
 984              	.LVL95:
 985              		.thumb
 986              	.LBE47:
 987              		.loc 1 318 0
 988 0034 3B46     		mov	r3, r7
 989              	.LVL96:
 990 0036 E26B     		ldr	r2, [r4, #60]
 991 0038 2846     		mov	r0, r5
 992 003a 3146     		mov	r1, r6
 993 003c FFF7FEFF 		bl	usb_lld_write_packet_buffer
 994              	.LBB48:
 995              		.loc 1 320 0
 996 0040 2023     		movs	r3, #32
 997              	.LVL97:
 998              	@ 320 "../chibios_2.4.x/os/hal/src/serial_usb.c" 1
 999 0042 83F31188 		msr     BASEPRI, r3
 1000              	@ 0 "" 2
 1001              	.LVL98:
 1002              		.thumb
 1003              	.LBE48:
 1004 0046 FFF7FEFF 		bl	dbg_check_lock_from_isr
 1005              	.LVL99:
 1006              		.loc 1 321 0
 1007 004a 2846     		mov	r0, r5
 1008 004c 3146     		mov	r1, r6
 1009 004e FFF7FEFF 		bl	usbStartTransmitI
ARM GAS  C:\Users\z80\AppData\Local\Temp\ccWBSCEe.s 			page 19


 1010              		.loc 1 322 0
 1011 0052 A368     		ldr	r3, [r4, #8]
 1012 0054 0021     		movs	r1, #0
 1013 0056 43F00803 		orr	r3, r3, #8
 1014 005a 201D     		adds	r0, r4, #4
 1015 005c A360     		str	r3, [r4, #8]
 1016              		.loc 1 325 0
 1017 005e 2546     		mov	r5, r4
 1018              	.LVL100:
 1019              		.loc 1 322 0
 1020 0060 FFF7FEFF 		bl	chEvtBroadcastFlagsI
 1021              		.loc 1 323 0
 1022 0064 E36B     		ldr	r3, [r4, #60]
 1023              		.loc 1 324 0
 1024 0066 216C     		ldr	r1, [r4, #64]
 1025              		.loc 1 325 0
 1026 0068 55F8302F 		ldr	r2, [r5, #48]!
 1027              		.loc 1 324 0
 1028 006c C91A     		subs	r1, r1, r3
 1029              		.loc 1 325 0
 1030 006e AA42     		cmp	r2, r5
 1031              		.loc 1 323 0
 1032 0070 6364     		str	r3, [r4, #68]
 1033              		.loc 1 324 0
 1034 0072 A163     		str	r1, [r4, #56]
 1035              		.loc 1 325 0
 1036 0074 D3D0     		beq	.L49
 1037              		.loc 1 326 0
 1038 0076 0026     		movs	r6, #0
 1039              	.L51:
 1040              	.LVL101:
 1041              	.LBB49:
 1042              	.LBB50:
 1043              		.loc 2 62 0
 1044 0078 1368     		ldr	r3, [r2, #0]
 1045              	.LBE50:
 1046              	.LBE49:
 1047              		.loc 1 326 0
 1048 007a 1046     		mov	r0, r2
 1049              	.LBB52:
 1050              	.LBB51:
 1051              		.loc 2 62 0
 1052 007c 2363     		str	r3, [r4, #48]
 1053 007e 5D60     		str	r5, [r3, #4]
 1054              	.LBE51:
 1055              	.LBE52:
 1056              		.loc 1 326 0
 1057 0080 FFF7FEFF 		bl	chSchReadyI
 1058              	.LVL102:
 1059              		.loc 1 325 0
 1060 0084 226B     		ldr	r2, [r4, #48]
 1061              		.loc 1 326 0
 1062 0086 8662     		str	r6, [r0, #40]
 1063              		.loc 1 325 0
 1064 0088 9542     		cmp	r5, r2
 1065 008a F5D1     		bne	.L51
 1066 008c C7E7     		b	.L49
ARM GAS  C:\Users\z80\AppData\Local\Temp\ccWBSCEe.s 			page 20


 1067              		.cfi_endproc
 1068              	.LFE78:
 1069              		.size	sduDataTransmitted, .-sduDataTransmitted
 1070 008e 00BF     		.section	.text.sduDataReceived,"ax",%progbits
 1071              		.align	2
 1072              		.p2align 4,,15
 1073              		.global	sduDataReceived
 1074              		.thumb
 1075              		.thumb_func
 1076              		.type	sduDataReceived, %function
 1077              	sduDataReceived:
 1078              	.LFB79:
 1079              		.loc 1 339 0
 1080              		.cfi_startproc
 1081              		@ args = 0, pretend = 0, frame = 0
 1082              		@ frame_needed = 0, uses_anonymous_args = 0
 1083              	.LVL103:
 1084 0000 2DE9F041 		push	{r4, r5, r6, r7, r8, lr}
 1085              	.LCFI13:
 1086              		.cfi_def_cfa_offset 24
 1087              	.LBB53:
 1088              		.loc 1 342 0
 1089 0004 2023     		movs	r3, #32
 1090              	.LVL104:
 1091              	.LBE53:
 1092              		.loc 1 340 0
 1093 0006 8468     		ldr	r4, [r0, #8]
 1094              		.cfi_offset 14, -4
 1095              		.cfi_offset 8, -8
 1096              		.cfi_offset 7, -12
 1097              		.cfi_offset 6, -16
 1098              		.cfi_offset 5, -20
 1099              		.cfi_offset 4, -24
 1100              	.LVL105:
 1101              		.loc 1 339 0
 1102 0008 0646     		mov	r6, r0
 1103 000a 0F46     		mov	r7, r1
 1104              	.LBB54:
 1105              		.loc 1 342 0
 1106              	@ 342 "../chibios_2.4.x/os/hal/src/serial_usb.c" 1
 1107 000c 83F31188 		msr     BASEPRI, r3
 1108              	@ 0 "" 2
 1109              	.LVL106:
 1110              		.thumb
 1111              	.LBE54:
 1112 0010 FFF7FEFF 		bl	dbg_check_lock_from_isr
 1113              	.LVL107:
 1114              		.loc 1 345 0
 1115 0014 A569     		ldr	r5, [r4, #24]
 1116 0016 35B1     		cbz	r5, .L59
 1117              	.LVL108:
 1118              	.L55:
 1119              		.loc 1 364 0
 1120 0018 FFF7FEFF 		bl	dbg_check_unlock_from_isr
 1121              	.LBB55:
 1122 001c 0023     		movs	r3, #0
 1123              	.LVL109:
ARM GAS  C:\Users\z80\AppData\Local\Temp\ccWBSCEe.s 			page 21


 1124              	@ 364 "../chibios_2.4.x/os/hal/src/serial_usb.c" 1
 1125 001e 83F31188 		msr     BASEPRI, r3
 1126              	@ 0 "" 2
 1127              	.LVL110:
 1128              		.thumb
 1129              	.LBE55:
 1130              		.loc 1 365 0
 1131 0022 BDE8F081 		pop	{r4, r5, r6, r7, r8, pc}
 1132              	.LVL111:
 1133              	.L59:
 1134              	.LBB56:
 1135              		.loc 1 350 0
 1136 0026 FFF7FEFF 		bl	dbg_check_unlock_from_isr
 1137              	.LBB57:
 1138 002a 2B46     		mov	r3, r5
 1139              	.LVL112:
 1140              	@ 350 "../chibios_2.4.x/os/hal/src/serial_usb.c" 1
 1141 002c 83F31188 		msr     BASEPRI, r3
 1142              	@ 0 "" 2
 1143              	.LVL113:
 1144              		.thumb
 1145              	.LBE57:
 1146              		.loc 1 353 0
 1147 0030 4023     		movs	r3, #64
 1148              	.LVL114:
 1149 0032 E269     		ldr	r2, [r4, #28]
 1150 0034 3046     		mov	r0, r6
 1151 0036 3946     		mov	r1, r7
 1152 0038 FFF7FEFF 		bl	usb_lld_read_packet_buffer
 1153              	.LBB58:
 1154              		.loc 1 356 0
 1155 003c 2023     		movs	r3, #32
 1156              	.LVL115:
 1157              	.LBE58:
 1158              		.loc 1 353 0
 1159 003e 8046     		mov	r8, r0
 1160              	.LVL116:
 1161              	.LBB59:
 1162              		.loc 1 356 0
 1163              	@ 356 "../chibios_2.4.x/os/hal/src/serial_usb.c" 1
 1164 0040 83F31188 		msr     BASEPRI, r3
 1165              	@ 0 "" 2
 1166              	.LVL117:
 1167              		.thumb
 1168              	.LBE59:
 1169 0044 FFF7FEFF 		bl	dbg_check_lock_from_isr
 1170              	.LVL118:
 1171              		.loc 1 357 0
 1172 0048 3046     		mov	r0, r6
 1173 004a 3946     		mov	r1, r7
 1174 004c FFF7FEFF 		bl	usbStartReceiveI
 1175              		.loc 1 358 0
 1176 0050 A368     		ldr	r3, [r4, #8]
 1177 0052 201D     		adds	r0, r4, #4
 1178 0054 43F00403 		orr	r3, r3, #4
 1179 0058 A360     		str	r3, [r4, #8]
 1180              		.loc 1 361 0
ARM GAS  C:\Users\z80\AppData\Local\Temp\ccWBSCEe.s 			page 22


 1181 005a 2646     		mov	r6, r4
 1182              	.LVL119:
 1183              		.loc 1 358 0
 1184 005c 2946     		mov	r1, r5
 1185 005e FFF7FEFF 		bl	chEvtBroadcastFlagsI
 1186              		.loc 1 361 0
 1187 0062 56F8102F 		ldr	r2, [r6, #16]!
 1188              		.loc 1 359 0
 1189 0066 E369     		ldr	r3, [r4, #28]
 1190              		.loc 1 361 0
 1191 0068 B242     		cmp	r2, r6
 1192              		.loc 1 359 0
 1193 006a A362     		str	r3, [r4, #40]
 1194              		.loc 1 360 0
 1195 006c C4F81880 		str	r8, [r4, #24]
 1196              		.loc 1 361 0
 1197 0070 D2D0     		beq	.L55
 1198              	.L57:
 1199              	.LVL120:
 1200              	.LBB60:
 1201              	.LBB61:
 1202              		.loc 2 62 0
 1203 0072 1368     		ldr	r3, [r2, #0]
 1204              	.LBE61:
 1205              	.LBE60:
 1206              		.loc 1 362 0
 1207 0074 1046     		mov	r0, r2
 1208              	.LBB63:
 1209              	.LBB62:
 1210              		.loc 2 62 0
 1211 0076 2361     		str	r3, [r4, #16]
 1212 0078 5E60     		str	r6, [r3, #4]
 1213              	.LBE62:
 1214              	.LBE63:
 1215              		.loc 1 362 0
 1216 007a FFF7FEFF 		bl	chSchReadyI
 1217              	.LVL121:
 1218              		.loc 1 361 0
 1219 007e 2269     		ldr	r2, [r4, #16]
 1220              		.loc 1 362 0
 1221 0080 8562     		str	r5, [r0, #40]
 1222              		.loc 1 361 0
 1223 0082 B242     		cmp	r2, r6
 1224 0084 F5D1     		bne	.L57
 1225 0086 C7E7     		b	.L55
 1226              	.LBE56:
 1227              		.cfi_endproc
 1228              	.LFE79:
 1229              		.size	sduDataReceived, .-sduDataReceived
 1230 0088 AFF30080 		.section	.text.sduInterruptTransmitted,"ax",%progbits
 1230      AFF30080 
 1231              		.align	2
 1232              		.p2align 4,,15
 1233              		.global	sduInterruptTransmitted
 1234              		.thumb
 1235              		.thumb_func
 1236              		.type	sduInterruptTransmitted, %function
ARM GAS  C:\Users\z80\AppData\Local\Temp\ccWBSCEe.s 			page 23


 1237              	sduInterruptTransmitted:
 1238              	.LFB80:
 1239              		.loc 1 375 0
 1240              		.cfi_startproc
 1241              		@ args = 0, pretend = 0, frame = 0
 1242              		@ frame_needed = 0, uses_anonymous_args = 0
 1243              		@ link register save eliminated.
 1244              	.LVL122:
 1245              		.loc 1 379 0
 1246 0000 7047     		bx	lr
 1247              		.cfi_endproc
 1248              	.LFE80:
 1249              		.size	sduInterruptTransmitted, .-sduInterruptTransmitted
 1250 0002 00BFAFF3 		.section	.rodata.str1.4,"aMS",%progbits,1
 1250      0080AFF3 
 1250      0080AFF3 
 1250      0080
 1251              		.align	2
 1252              	.LC0:
 1253 0000 22736475 		.ascii	"\"sduStart\"()\000"
 1253      53746172 
 1253      74222829 
 1253      00
 1254 000d 000000   		.space	3
 1255              	.LC1:
 1256 0010 73647553 		.ascii	"sduStart(), #1\000"
 1256      74617274 
 1256      28292C20 
 1256      233100
 1257 001f 00       		.space	1
 1258              	.LC2:
 1259 0020 22736453 		.ascii	"\"sdStop\"()\000"
 1259      746F7022 
 1259      282900
 1260 002b 00       		.space	1
 1261              	.LC3:
 1262 002c 73647553 		.ascii	"sduStop(), #1\000"
 1262      746F7028 
 1262      292C2023 
 1262      3100
 1263 003a 0000     		.section	.rodata.vmt,"a",%progbits
 1264              		.align	2
 1265              		.set	.LANCHOR0,. + 0
 1266              		.type	vmt, %object
 1267              		.size	vmt, 36
 1268              	vmt:
 1269 0000 00000000 		.word	writes
 1270 0004 00000000 		.word	reads
 1271 0008 00000000 		.word	putwouldblock
 1272 000c 00000000 		.word	getwouldblock
 1273 0010 00000000 		.word	putt
 1274 0014 00000000 		.word	gett
 1275 0018 00000000 		.word	writet
 1276 001c 00000000 		.word	readt
 1277 0020 00000000 		.word	getflags
 1278              		.section	.data.linecoding,"aw",%progbits
 1279              		.align	2
ARM GAS  C:\Users\z80\AppData\Local\Temp\ccWBSCEe.s 			page 24


 1280              		.set	.LANCHOR1,. + 0
 1281              		.type	linecoding, %object
 1282              		.size	linecoding, 7
 1283              	linecoding:
 1284 0000 00       		.byte	0
 1285 0001 96       		.byte	-106
 1286 0002 00       		.byte	0
 1287 0003 00       		.byte	0
 1288 0004 00       		.byte	0
 1289 0005 00       		.byte	0
 1290 0006 08       		.byte	8
 1291 0007 00       		.text
 1292              	.Letext0: