ARM GAS  /tmp/ccumSmPE.s 			page 1


   1              		.syntax unified
   2              		.cpu cortex-m3
   3              		.fpu softvfp
   4              		.eabi_attribute 20, 1
   5              		.eabi_attribute 21, 1
   6              		.eabi_attribute 23, 3
   7              		.eabi_attribute 24, 1
   8              		.eabi_attribute 25, 1
   9              		.eabi_attribute 26, 1
  10              		.eabi_attribute 30, 2
  11              		.eabi_attribute 18, 4
  12              		.thumb
  13              		.file	"serial_pipe.c"
  14              		.section	.debug_abbrev,"",%progbits
  15              	.Ldebug_abbrev0:
  16              		.section	.debug_info,"",%progbits
  17              	.Ldebug_info0:
  18              		.section	.debug_line,"",%progbits
  19              	.Ldebug_line0:
  20 0000 E5000000 		.text
  20      0200A700 
  20      00000201 
  20      FB0E0D00 
  20      01010101 
  21              	.Ltext0:
  22              		.cfi_sections	.debug_frame
  23              		.section	.text.serial_pipe_init,"ax",%progbits
  24              		.align	2
  25              		.p2align 4,,15
  26              		.global	serial_pipe_init
  27              		.thumb
  28              		.thumb_func
  29              		.type	serial_pipe_init, %function
  30              	serial_pipe_init:
  31              	.LFB7:
  32              		.file 1 "./src/serial_pipe.c"
  33              		.loc 1 7 0
  34              		.cfi_startproc
  35              		@ args = 0, pretend = 0, frame = 0
  36              		@ frame_needed = 0, uses_anonymous_args = 0
  37              		@ link register save eliminated.
  38              		.loc 1 8 0
  39 0000 014B     		ldr	r3, .L2
  40 0002 0022     		movs	r2, #0
  41 0004 1A70     		strb	r2, [r3, #0]
  42              		.loc 1 9 0
  43 0006 7047     		bx	lr
  44              	.L3:
  45              		.align	2
  46              	.L2:
  47 0008 00000000 		.word	.LANCHOR0
  48              		.cfi_endproc
  49              	.LFE7:
  50              		.size	serial_pipe_init, .-serial_pipe_init
  51 000c AFF30080 		.section	.text.serial_decode_byte,"ax",%progbits
  52              		.align	2
  53              		.p2align 4,,15
ARM GAS  /tmp/ccumSmPE.s 			page 2


  54              		.global	serial_decode_byte
  55              		.thumb
  56              		.thumb_func
  57              		.type	serial_decode_byte, %function
  58              	serial_decode_byte:
  59              	.LFB8:
  60              		.loc 1 12 0
  61              		.cfi_startproc
  62              		@ args = 0, pretend = 0, frame = 0
  63              		@ frame_needed = 0, uses_anonymous_args = 0
  64              		@ link register save eliminated.
  65              	.LVL0:
  66 0000 10B4     		push	{r4}
  67              	.LCFI0:
  68              		.cfi_def_cfa_offset 4
  69              		.loc 1 13 0
  70 0002 0D4B     		ldr	r3, .L10
  71 0004 1C78     		ldrb	r4, [r3, #0]	@ zero_extendqisi2
  72              		.cfi_offset 4, -4
  73 0006 34B1     		cbz	r4, .L5
  74              		.loc 1 15 0
  75 0008 0024     		movs	r4, #0
  76 000a 1C70     		strb	r4, [r3, #0]
  77              		.loc 1 16 0
  78 000c 58B9     		cbnz	r0, .L6
  79              		.loc 1 18 0
  80 000e 0123     		movs	r3, #1
  81 0010 1370     		strb	r3, [r2, #0]
  82              		.loc 1 19 0
  83 0012 0346     		mov	r3, r0
  84 0014 04E0     		b	.L7
  85              	.L5:
  86              		.loc 1 30 0
  87 0016 5C28     		cmp	r0, #92
  88 0018 09D0     		beq	.L8
  89              		.loc 1 32 0
  90 001a 0870     		strb	r0, [r1, #0]
  91              		.loc 1 34 0
  92 001c 0123     		movs	r3, #1
  93              		.loc 1 33 0
  94 001e 1470     		strb	r4, [r2, #0]
  95              	.LVL1:
  96              	.L7:
  97              		.loc 1 43 0
  98 0020 1846     		mov	r0, r3
  99              	.LVL2:
 100 0022 10BC     		pop	{r4}
 101 0024 7047     		bx	lr
 102              	.LVL3:
 103              	.L6:
 104              		.loc 1 23 0
 105 0026 1470     		strb	r4, [r2, #0]
 106              		.loc 1 25 0
 107 0028 0123     		movs	r3, #1
 108              		.loc 1 24 0
 109 002a 0870     		strb	r0, [r1, #0]
 110              		.loc 1 25 0
ARM GAS  /tmp/ccumSmPE.s 			page 3


 111 002c F8E7     		b	.L7
 112              	.L8:
 113              		.loc 1 38 0
 114 002e 0121     		movs	r1, #1
 115              	.LVL4:
 116 0030 1970     		strb	r1, [r3, #0]
 117              		.loc 1 40 0
 118 0032 2346     		mov	r3, r4
 119              		.loc 1 39 0
 120 0034 1470     		strb	r4, [r2, #0]
 121              		.loc 1 40 0
 122 0036 F3E7     		b	.L7
 123              	.L11:
 124              		.align	2
 125              	.L10:
 126 0038 00000000 		.word	.LANCHOR0
 127              		.cfi_endproc
 128              	.LFE8:
 129              		.size	serial_decode_byte, .-serial_decode_byte
 130              		.global	slash
 131 003c AFF30080 		.section	.bss.slash,"aw",%nobits
 132              		.set	.LANCHOR0,. + 0
 133              		.type	slash, %object
 134              		.size	slash, 1
 135              	slash:
 136 0000 00       		.space	1
 137              		.text
 138              	.Letext0:
 139              		.section	.debug_loc,"",%progbits
 140              	.Ldebug_loc0:
 141              	.LLST0:
 142 0000 00000000 		.4byte	.LFB8
 143 0004 02000000 		.4byte	.LCFI0
 144 0008 0200     		.2byte	0x2
 145 000a 7D       		.byte	0x7d
 146 000b 00       		.sleb128 0
 147 000c 02000000 		.4byte	.LCFI0
 148 0010 3C000000 		.4byte	.LFE8
 149 0014 0200     		.2byte	0x2
 150 0016 7D       		.byte	0x7d
 151 0017 04       		.sleb128 4
 152 0018 00000000 		.4byte	0x0
 153 001c 00000000 		.4byte	0x0
 154              	.LLST1:
 155 0020 00000000 		.4byte	.LVL0
 156 0024 22000000 		.4byte	.LVL2
 157 0028 0100     		.2byte	0x1
 158 002a 50       		.byte	0x50
 159 002b 26000000 		.4byte	.LVL3
 160 002f 3C000000 		.4byte	.LFE8
 161 0033 0100     		.2byte	0x1
 162 0035 50       		.byte	0x50
 163 0036 00000000 		.4byte	0x0
 164 003a 00000000 		.4byte	0x0
 165              	.LLST2:
 166 003e 00000000 		.4byte	.LVL0
 167 0042 20000000 		.4byte	.LVL1
ARM GAS  /tmp/ccumSmPE.s 			page 4


 168 0046 0100     		.2byte	0x1
 169 0048 51       		.byte	0x51
 170 0049 26000000 		.4byte	.LVL3
 171 004d 30000000 		.4byte	.LVL4
 172 0051 0100     		.2byte	0x1
 173 0053 51       		.byte	0x51
 174 0054 00000000 		.4byte	0x0
 175 0058 00000000 		.4byte	0x0
 176              		.file 2 "/home/z80/programs/code-sourcery/2011.03-42/bin/../lib/gcc/arm-none-eabi/4.5.2/../../../.
 177              		.section	.debug_info
 178 0000 FF000000 		.4byte	0xff
 179 0004 0200     		.2byte	0x2
 180 0006 00000000 		.4byte	.Ldebug_abbrev0
 181 000a 04       		.byte	0x4
 182 000b 01       		.uleb128 0x1
 183 000c 0E000000 		.4byte	.LASF11
 184 0010 01       		.byte	0x1
 185 0011 74000000 		.4byte	.LASF12
 186 0015 D1000000 		.4byte	.LASF13
 187 0019 00000000 		.4byte	0x0
 188 001d 00000000 		.4byte	0x0
 189 0021 00000000 		.4byte	.Ldebug_ranges0+0x0
 190 0025 00000000 		.4byte	.Ldebug_line0
 191 0029 02       		.uleb128 0x2
 192 002a 04       		.byte	0x4
 193 002b 05       		.byte	0x5
 194 002c 696E7400 		.ascii	"int\000"
 195 0030 03       		.uleb128 0x3
 196 0031 04       		.byte	0x4
 197 0032 07       		.byte	0x7
 198 0033 1A000000 		.4byte	.LASF0
 199 0037 03       		.uleb128 0x3
 200 0038 01       		.byte	0x1
 201 0039 06       		.byte	0x6
 202 003a C5000000 		.4byte	.LASF1
 203 003e 04       		.uleb128 0x4
 204 003f 8E000000 		.4byte	.LASF14
 205 0043 02       		.byte	0x2
 206 0044 2A       		.byte	0x2a
 207 0045 49000000 		.4byte	0x49
 208 0049 03       		.uleb128 0x3
 209 004a 01       		.byte	0x1
 210 004b 08       		.byte	0x8
 211 004c 96000000 		.4byte	.LASF2
 212 0050 03       		.uleb128 0x3
 213 0051 02       		.byte	0x2
 214 0052 05       		.byte	0x5
 215 0053 03010000 		.4byte	.LASF3
 216 0057 03       		.uleb128 0x3
 217 0058 02       		.byte	0x2
 218 0059 07       		.byte	0x7
 219 005a B2000000 		.4byte	.LASF4
 220 005e 03       		.uleb128 0x3
 221 005f 04       		.byte	0x4
 222 0060 05       		.byte	0x5
 223 0061 A9000000 		.4byte	.LASF5
 224 0065 03       		.uleb128 0x3
ARM GAS  /tmp/ccumSmPE.s 			page 5


 225 0066 04       		.byte	0x4
 226 0067 07       		.byte	0x7
 227 0068 4B000000 		.4byte	.LASF6
 228 006c 03       		.uleb128 0x3
 229 006d 08       		.byte	0x8
 230 006e 05       		.byte	0x5
 231 006f 00000000 		.4byte	.LASF7
 232 0073 03       		.uleb128 0x3
 233 0074 08       		.byte	0x8
 234 0075 07       		.byte	0x7
 235 0076 5D000000 		.4byte	.LASF8
 236 007a 03       		.uleb128 0x3
 237 007b 01       		.byte	0x1
 238 007c 08       		.byte	0x8
 239 007d A4000000 		.4byte	.LASF9
 240 0081 05       		.uleb128 0x5
 241 0082 04       		.byte	0x4
 242 0083 3E000000 		.4byte	0x3e
 243 0087 06       		.uleb128 0x6
 244 0088 01       		.byte	0x1
 245 0089 27000000 		.4byte	.LASF15
 246 008d 01       		.byte	0x1
 247 008e 06       		.byte	0x6
 248 008f 01       		.byte	0x1
 249 0090 00000000 		.4byte	.LFB7
 250 0094 0C000000 		.4byte	.LFE7
 251 0098 02       		.byte	0x2
 252 0099 7D       		.byte	0x7d
 253 009a 00       		.sleb128 0
 254 009b 07       		.uleb128 0x7
 255 009c 01       		.byte	0x1
 256 009d 38000000 		.4byte	.LASF16
 257 00a1 01       		.byte	0x1
 258 00a2 0B       		.byte	0xb
 259 00a3 01       		.byte	0x1
 260 00a4 3E000000 		.4byte	0x3e
 261 00a8 00000000 		.4byte	.LFB8
 262 00ac 3C000000 		.4byte	.LFE8
 263 00b0 00000000 		.4byte	.LLST0
 264 00b4 E3000000 		.4byte	0xe3
 265 00b8 08       		.uleb128 0x8
 266 00b9 696E00   		.ascii	"in\000"
 267 00bc 01       		.byte	0x1
 268 00bd 0B       		.byte	0xb
 269 00be 3E000000 		.4byte	0x3e
 270 00c2 20000000 		.4byte	.LLST1
 271 00c6 08       		.uleb128 0x8
 272 00c7 6F757400 		.ascii	"out\000"
 273 00cb 01       		.byte	0x1
 274 00cc 0B       		.byte	0xb
 275 00cd 81000000 		.4byte	0x81
 276 00d1 3E000000 		.4byte	.LLST2
 277 00d5 09       		.uleb128 0x9
 278 00d6 656F6D00 		.ascii	"eom\000"
 279 00da 01       		.byte	0x1
 280 00db 0B       		.byte	0xb
 281 00dc 81000000 		.4byte	0x81
ARM GAS  /tmp/ccumSmPE.s 			page 6


 282 00e0 01       		.byte	0x1
 283 00e1 52       		.byte	0x52
 284 00e2 00       		.byte	0x0
 285 00e3 0A       		.uleb128 0xa
 286 00e4 88000000 		.4byte	.LASF10
 287 00e8 01       		.byte	0x1
 288 00e9 04       		.byte	0x4
 289 00ea 7A000000 		.4byte	0x7a
 290 00ee 01       		.byte	0x1
 291 00ef 01       		.byte	0x1
 292 00f0 0B       		.uleb128 0xb
 293 00f1 88000000 		.4byte	.LASF10
 294 00f5 01       		.byte	0x1
 295 00f6 04       		.byte	0x4
 296 00f7 7A000000 		.4byte	0x7a
 297 00fb 01       		.byte	0x1
 298 00fc 05       		.byte	0x5
 299 00fd 03       		.byte	0x3
 300 00fe 00000000 		.4byte	slash
 301 0102 00       		.byte	0x0
 302              		.section	.debug_abbrev
 303 0000 01       		.uleb128 0x1
 304 0001 11       		.uleb128 0x11
 305 0002 01       		.byte	0x1
 306 0003 25       		.uleb128 0x25
 307 0004 0E       		.uleb128 0xe
 308 0005 13       		.uleb128 0x13
 309 0006 0B       		.uleb128 0xb
 310 0007 03       		.uleb128 0x3
 311 0008 0E       		.uleb128 0xe
 312 0009 1B       		.uleb128 0x1b
 313 000a 0E       		.uleb128 0xe
 314 000b 11       		.uleb128 0x11
 315 000c 01       		.uleb128 0x1
 316 000d 52       		.uleb128 0x52
 317 000e 01       		.uleb128 0x1
 318 000f 55       		.uleb128 0x55
 319 0010 06       		.uleb128 0x6
 320 0011 10       		.uleb128 0x10
 321 0012 06       		.uleb128 0x6
 322 0013 00       		.byte	0x0
 323 0014 00       		.byte	0x0
 324 0015 02       		.uleb128 0x2
 325 0016 24       		.uleb128 0x24
 326 0017 00       		.byte	0x0
 327 0018 0B       		.uleb128 0xb
 328 0019 0B       		.uleb128 0xb
 329 001a 3E       		.uleb128 0x3e
 330 001b 0B       		.uleb128 0xb
 331 001c 03       		.uleb128 0x3
 332 001d 08       		.uleb128 0x8
 333 001e 00       		.byte	0x0
 334 001f 00       		.byte	0x0
 335 0020 03       		.uleb128 0x3
 336 0021 24       		.uleb128 0x24
 337 0022 00       		.byte	0x0
 338 0023 0B       		.uleb128 0xb
ARM GAS  /tmp/ccumSmPE.s 			page 7


 339 0024 0B       		.uleb128 0xb
 340 0025 3E       		.uleb128 0x3e
 341 0026 0B       		.uleb128 0xb
 342 0027 03       		.uleb128 0x3
 343 0028 0E       		.uleb128 0xe
 344 0029 00       		.byte	0x0
 345 002a 00       		.byte	0x0
 346 002b 04       		.uleb128 0x4
 347 002c 16       		.uleb128 0x16
 348 002d 00       		.byte	0x0
 349 002e 03       		.uleb128 0x3
 350 002f 0E       		.uleb128 0xe
 351 0030 3A       		.uleb128 0x3a
 352 0031 0B       		.uleb128 0xb
 353 0032 3B       		.uleb128 0x3b
 354 0033 0B       		.uleb128 0xb
 355 0034 49       		.uleb128 0x49
 356 0035 13       		.uleb128 0x13
 357 0036 00       		.byte	0x0
 358 0037 00       		.byte	0x0
 359 0038 05       		.uleb128 0x5
 360 0039 0F       		.uleb128 0xf
 361 003a 00       		.byte	0x0
 362 003b 0B       		.uleb128 0xb
 363 003c 0B       		.uleb128 0xb
 364 003d 49       		.uleb128 0x49
 365 003e 13       		.uleb128 0x13
 366 003f 00       		.byte	0x0
 367 0040 00       		.byte	0x0
 368 0041 06       		.uleb128 0x6
 369 0042 2E       		.uleb128 0x2e
 370 0043 00       		.byte	0x0
 371 0044 3F       		.uleb128 0x3f
 372 0045 0C       		.uleb128 0xc
 373 0046 03       		.uleb128 0x3
 374 0047 0E       		.uleb128 0xe
 375 0048 3A       		.uleb128 0x3a
 376 0049 0B       		.uleb128 0xb
 377 004a 3B       		.uleb128 0x3b
 378 004b 0B       		.uleb128 0xb
 379 004c 27       		.uleb128 0x27
 380 004d 0C       		.uleb128 0xc
 381 004e 11       		.uleb128 0x11
 382 004f 01       		.uleb128 0x1
 383 0050 12       		.uleb128 0x12
 384 0051 01       		.uleb128 0x1
 385 0052 40       		.uleb128 0x40
 386 0053 0A       		.uleb128 0xa
 387 0054 00       		.byte	0x0
 388 0055 00       		.byte	0x0
 389 0056 07       		.uleb128 0x7
 390 0057 2E       		.uleb128 0x2e
 391 0058 01       		.byte	0x1
 392 0059 3F       		.uleb128 0x3f
 393 005a 0C       		.uleb128 0xc
 394 005b 03       		.uleb128 0x3
 395 005c 0E       		.uleb128 0xe
ARM GAS  /tmp/ccumSmPE.s 			page 8


 396 005d 3A       		.uleb128 0x3a
 397 005e 0B       		.uleb128 0xb
 398 005f 3B       		.uleb128 0x3b
 399 0060 0B       		.uleb128 0xb
 400 0061 27       		.uleb128 0x27
 401 0062 0C       		.uleb128 0xc
 402 0063 49       		.uleb128 0x49
 403 0064 13       		.uleb128 0x13
 404 0065 11       		.uleb128 0x11
 405 0066 01       		.uleb128 0x1
 406 0067 12       		.uleb128 0x12
 407 0068 01       		.uleb128 0x1
 408 0069 40       		.uleb128 0x40
 409 006a 06       		.uleb128 0x6
 410 006b 01       		.uleb128 0x1
 411 006c 13       		.uleb128 0x13
 412 006d 00       		.byte	0x0
 413 006e 00       		.byte	0x0
 414 006f 08       		.uleb128 0x8
 415 0070 05       		.uleb128 0x5
 416 0071 00       		.byte	0x0
 417 0072 03       		.uleb128 0x3
 418 0073 08       		.uleb128 0x8
 419 0074 3A       		.uleb128 0x3a
 420 0075 0B       		.uleb128 0xb
 421 0076 3B       		.uleb128 0x3b
 422 0077 0B       		.uleb128 0xb
 423 0078 49       		.uleb128 0x49
 424 0079 13       		.uleb128 0x13
 425 007a 02       		.uleb128 0x2
 426 007b 06       		.uleb128 0x6
 427 007c 00       		.byte	0x0
 428 007d 00       		.byte	0x0
 429 007e 09       		.uleb128 0x9
 430 007f 05       		.uleb128 0x5
 431 0080 00       		.byte	0x0
 432 0081 03       		.uleb128 0x3
 433 0082 08       		.uleb128 0x8
 434 0083 3A       		.uleb128 0x3a
 435 0084 0B       		.uleb128 0xb
 436 0085 3B       		.uleb128 0x3b
 437 0086 0B       		.uleb128 0xb
 438 0087 49       		.uleb128 0x49
 439 0088 13       		.uleb128 0x13
 440 0089 02       		.uleb128 0x2
 441 008a 0A       		.uleb128 0xa
 442 008b 00       		.byte	0x0
 443 008c 00       		.byte	0x0
 444 008d 0A       		.uleb128 0xa
 445 008e 34       		.uleb128 0x34
 446 008f 00       		.byte	0x0
 447 0090 03       		.uleb128 0x3
 448 0091 0E       		.uleb128 0xe
 449 0092 3A       		.uleb128 0x3a
 450 0093 0B       		.uleb128 0xb
 451 0094 3B       		.uleb128 0x3b
 452 0095 0B       		.uleb128 0xb
ARM GAS  /tmp/ccumSmPE.s 			page 9


 453 0096 49       		.uleb128 0x49
 454 0097 13       		.uleb128 0x13
 455 0098 3F       		.uleb128 0x3f
 456 0099 0C       		.uleb128 0xc
 457 009a 3C       		.uleb128 0x3c
 458 009b 0C       		.uleb128 0xc
 459 009c 00       		.byte	0x0
 460 009d 00       		.byte	0x0
 461 009e 0B       		.uleb128 0xb
 462 009f 34       		.uleb128 0x34
 463 00a0 00       		.byte	0x0
 464 00a1 03       		.uleb128 0x3
 465 00a2 0E       		.uleb128 0xe
 466 00a3 3A       		.uleb128 0x3a
 467 00a4 0B       		.uleb128 0xb
 468 00a5 3B       		.uleb128 0x3b
 469 00a6 0B       		.uleb128 0xb
 470 00a7 49       		.uleb128 0x49
 471 00a8 13       		.uleb128 0x13
 472 00a9 3F       		.uleb128 0x3f
 473 00aa 0C       		.uleb128 0xc
 474 00ab 02       		.uleb128 0x2
 475 00ac 0A       		.uleb128 0xa
 476 00ad 00       		.byte	0x0
 477 00ae 00       		.byte	0x0
 478 00af 00       		.byte	0x0
 479              		.section	.debug_pubnames,"",%progbits
 480 0000 44000000 		.4byte	0x44
 481 0004 0200     		.2byte	0x2
 482 0006 00000000 		.4byte	.Ldebug_info0
 483 000a 03010000 		.4byte	0x103
 484 000e 87000000 		.4byte	0x87
 485 0012 73657269 		.ascii	"serial_pipe_init\000"
 485      616C5F70 
 485      6970655F 
 485      696E6974 
 485      00
 486 0023 9B000000 		.4byte	0x9b
 487 0027 73657269 		.ascii	"serial_decode_byte\000"
 487      616C5F64 
 487      65636F64 
 487      655F6279 
 487      746500
 488 003a F0000000 		.4byte	0xf0
 489 003e 736C6173 		.ascii	"slash\000"
 489      6800
 490 0044 00000000 		.4byte	0x0
 491              		.section	.debug_pubtypes,"",%progbits
 492 0000 1A000000 		.4byte	0x1a
 493 0004 0200     		.2byte	0x2
 494 0006 00000000 		.4byte	.Ldebug_info0
 495 000a 03010000 		.4byte	0x103
 496 000e 3E000000 		.4byte	0x3e
 497 0012 75696E74 		.ascii	"uint8_t\000"
 497      385F7400 
 498 001a 00000000 		.4byte	0x0
 499              		.section	.debug_aranges,"",%progbits
ARM GAS  /tmp/ccumSmPE.s 			page 10


 500 0000 24000000 		.4byte	0x24
 501 0004 0200     		.2byte	0x2
 502 0006 00000000 		.4byte	.Ldebug_info0
 503 000a 04       		.byte	0x4
 504 000b 00       		.byte	0x0
 505 000c 0000     		.2byte	0x0
 506 000e 0000     		.2byte	0x0
 507 0010 00000000 		.4byte	.LFB7
 508 0014 0C000000 		.4byte	.LFE7-.LFB7
 509 0018 00000000 		.4byte	.LFB8
 510 001c 3C000000 		.4byte	.LFE8-.LFB8
 511 0020 00000000 		.4byte	0x0
 512 0024 00000000 		.4byte	0x0
 513              		.section	.debug_ranges,"",%progbits
 514              	.Ldebug_ranges0:
 515 0000 00000000 		.4byte	.LFB7
 516 0004 0C000000 		.4byte	.LFE7
 517 0008 00000000 		.4byte	.LFB8
 518 000c 3C000000 		.4byte	.LFE8
 519 0010 00000000 		.4byte	0x0
 520 0014 00000000 		.4byte	0x0
 521              		.section	.debug_str,"MS",%progbits,1
 522              	.LASF7:
 523 0000 6C6F6E67 		.ascii	"long long int\000"
 523      206C6F6E 
 523      6720696E 
 523      7400
 524              	.LASF11:
 525 000e 474E5520 		.ascii	"GNU C 4.5.2\000"
 525      4320342E 
 525      352E3200 
 526              	.LASF0:
 527 001a 756E7369 		.ascii	"unsigned int\000"
 527      676E6564 
 527      20696E74 
 527      00
 528              	.LASF15:
 529 0027 73657269 		.ascii	"serial_pipe_init\000"
 529      616C5F70 
 529      6970655F 
 529      696E6974 
 529      00
 530              	.LASF16:
 531 0038 73657269 		.ascii	"serial_decode_byte\000"
 531      616C5F64 
 531      65636F64 
 531      655F6279 
 531      746500
 532              	.LASF6:
 533 004b 6C6F6E67 		.ascii	"long unsigned int\000"
 533      20756E73 
 533      69676E65 
 533      6420696E 
 533      7400
 534              	.LASF8:
 535 005d 6C6F6E67 		.ascii	"long long unsigned int\000"
 535      206C6F6E 
ARM GAS  /tmp/ccumSmPE.s 			page 11


 535      6720756E 
 535      7369676E 
 535      65642069 
 536              	.LASF12:
 537 0074 2E2F7372 		.ascii	"./src/serial_pipe.c\000"
 537      632F7365 
 537      7269616C 
 537      5F706970 
 537      652E6300 
 538              	.LASF10:
 539 0088 736C6173 		.ascii	"slash\000"
 539      6800
 540              	.LASF14:
 541 008e 75696E74 		.ascii	"uint8_t\000"
 541      385F7400 
 542              	.LASF2:
 543 0096 756E7369 		.ascii	"unsigned char\000"
 543      676E6564 
 543      20636861 
 543      7200
 544              	.LASF9:
 545 00a4 63686172 		.ascii	"char\000"
 545      00
 546              	.LASF5:
 547 00a9 6C6F6E67 		.ascii	"long int\000"
 547      20696E74 
 547      00
 548              	.LASF4:
 549 00b2 73686F72 		.ascii	"short unsigned int\000"
 549      7420756E 
 549      7369676E 
 549      65642069 
 549      6E7400
 550              	.LASF1:
 551 00c5 7369676E 		.ascii	"signed char\000"
 551      65642063 
 551      68617200 
 552              	.LASF13:
 553 00d1 2F686F6D 		.ascii	"/home/z80/projects/voltamper.git/firmware/voltamp\000"
 553      652F7A38 
 553      302F7072 
 553      6F6A6563 
 553      74732F76 
 554              	.LASF3:
 555 0103 73686F72 		.ascii	"short int\000"
 555      7420696E 
 555      7400
 556              		.ident	"GCC: (Sourcery G++ Lite 2011.03-42) 4.5.2"
ARM GAS  /tmp/ccumSmPE.s 			page 12


DEFINED SYMBOLS
                            *ABS*:00000000 serial_pipe.c
     /tmp/ccumSmPE.s:24     .text.serial_pipe_init:00000000 $t
     /tmp/ccumSmPE.s:30     .text.serial_pipe_init:00000000 serial_pipe_init
     /tmp/ccumSmPE.s:47     .text.serial_pipe_init:00000008 $d
     /tmp/ccumSmPE.s:52     .text.serial_decode_byte:00000000 $t
     /tmp/ccumSmPE.s:58     .text.serial_decode_byte:00000000 serial_decode_byte
     /tmp/ccumSmPE.s:126    .text.serial_decode_byte:00000038 $d
     /tmp/ccumSmPE.s:135    .bss.slash:00000000 slash
     /tmp/ccumSmPE.s:136    .bss.slash:00000000 $d
                     .debug_frame:00000010 $d
     /tmp/ccumSmPE.s:51     .text.serial_pipe_init:0000000c $t
     /tmp/ccumSmPE.s:131    .text.serial_decode_byte:0000003c $t

NO UNDEFINED SYMBOLS
