ARM GAS  C:\Users\z80\AppData\Local\Temp\ccxb23Xc.s 			page 1


   1              		.syntax unified
   2              		.cpu cortex-m3
   3              		.fpu softvfp
   4              		.eabi_attribute 20, 1
   5              		.eabi_attribute 21, 1
   6              		.eabi_attribute 23, 3
   7              		.eabi_attribute 24, 1
   8              		.eabi_attribute 25, 1
   9              		.eabi_attribute 26, 1
  10              		.eabi_attribute 30, 6
  11              		.eabi_attribute 18, 4
  12              		.thumb
  13              		.file	"serial.c"
  14              		.section	.debug_abbrev,"",%progbits
  15              	.Ldebug_abbrev0:
  16              		.section	.debug_info,"",%progbits
  17              	.Ldebug_info0:
  18              		.section	.debug_line,"",%progbits
  19              	.Ldebug_line0:
  20 0000 C9030000 		.text
  20      02006502 
  20      00000201 
  20      FB0E0D00 
  20      01010101 
  21              	.Ltext0:
  22              		.cfi_sections	.debug_frame
  23              		.section	.text.writes,"ax",%progbits
  24              		.align	2
  25              		.p2align 4,,15
  26              		.thumb
  27              		.thumb_func
  28              		.type	writes, %function
  29              	writes:
  30              	.LFB62:
  31              		.file 1 "../chibios_2.4.x/os/hal/src/serial.c"
  32              		.loc 1 62 0
  33              		.cfi_startproc
  34              		@ args = 0, pretend = 0, frame = 16
  35              		@ frame_needed = 0, uses_anonymous_args = 0
  36 0000 00B5     		push	{lr}
  37              	.LCFI0:
  38              		.cfi_def_cfa_offset 4
  39 0002 85B0     		sub	sp, sp, #20
  40              	.LCFI1:
  41              		.cfi_def_cfa_offset 24
  42 0004 0390     		str	r0, [sp, #12]
  43 0006 0291     		str	r1, [sp, #8]
  44 0008 0192     		str	r2, [sp, #4]
  45              		.loc 1 64 0
  46 000a 039B     		ldr	r3, [sp, #12]
  47 000c 03F13003 		add	r3, r3, #48
  48 0010 1846     		mov	r0, r3
  49 0012 0299     		ldr	r1, [sp, #8]
  50 0014 019A     		ldr	r2, [sp, #4]
  51 0016 4FF0FF33 		mov	r3, #-1
  52              		.cfi_offset 14, -4
  53 001a FFF7FEFF 		bl	chOQWriteTimeout
ARM GAS  C:\Users\z80\AppData\Local\Temp\ccxb23Xc.s 			page 2


  54 001e 0346     		mov	r3, r0
  55              		.loc 1 66 0
  56 0020 1846     		mov	r0, r3
  57 0022 05B0     		add	sp, sp, #20
  58 0024 00BD     		pop	{pc}
  59              		.cfi_endproc
  60              	.LFE62:
  61              		.size	writes, .-writes
  62 0026 00BFAFF3 		.section	.text.reads,"ax",%progbits
  62      0080AFF3 
  62      0080
  63              		.align	2
  64              		.p2align 4,,15
  65              		.thumb
  66              		.thumb_func
  67              		.type	reads, %function
  68              	reads:
  69              	.LFB63:
  70              		.loc 1 68 0
  71              		.cfi_startproc
  72              		@ args = 0, pretend = 0, frame = 16
  73              		@ frame_needed = 0, uses_anonymous_args = 0
  74 0000 00B5     		push	{lr}
  75              	.LCFI2:
  76              		.cfi_def_cfa_offset 4
  77 0002 85B0     		sub	sp, sp, #20
  78              	.LCFI3:
  79              		.cfi_def_cfa_offset 24
  80 0004 0390     		str	r0, [sp, #12]
  81 0006 0291     		str	r1, [sp, #8]
  82 0008 0192     		str	r2, [sp, #4]
  83              		.loc 1 70 0
  84 000a 039B     		ldr	r3, [sp, #12]
  85 000c 03F11003 		add	r3, r3, #16
  86 0010 1846     		mov	r0, r3
  87 0012 0299     		ldr	r1, [sp, #8]
  88 0014 019A     		ldr	r2, [sp, #4]
  89 0016 4FF0FF33 		mov	r3, #-1
  90              		.cfi_offset 14, -4
  91 001a FFF7FEFF 		bl	chIQReadTimeout
  92 001e 0346     		mov	r3, r0
  93              		.loc 1 72 0
  94 0020 1846     		mov	r0, r3
  95 0022 05B0     		add	sp, sp, #20
  96 0024 00BD     		pop	{pc}
  97              		.cfi_endproc
  98              	.LFE63:
  99              		.size	reads, .-reads
 100 0026 00BFAFF3 		.section	.text.putwouldblock,"ax",%progbits
 100      0080AFF3 
 100      0080
 101              		.align	2
 102              		.p2align 4,,15
 103              		.thumb
 104              		.thumb_func
 105              		.type	putwouldblock, %function
 106              	putwouldblock:
ARM GAS  C:\Users\z80\AppData\Local\Temp\ccxb23Xc.s 			page 3


 107              	.LFB64:
 108              		.loc 1 74 0
 109              		.cfi_startproc
 110              		@ args = 0, pretend = 0, frame = 8
 111              		@ frame_needed = 0, uses_anonymous_args = 0
 112              		@ link register save eliminated.
 113 0000 82B0     		sub	sp, sp, #8
 114              	.LCFI4:
 115              		.cfi_def_cfa_offset 8
 116 0002 0190     		str	r0, [sp, #4]
 117              		.loc 1 76 0
 118 0004 019B     		ldr	r3, [sp, #4]
 119 0006 9B6B     		ldr	r3, [r3, #56]
 120 0008 002B     		cmp	r3, #0
 121 000a 14BF     		ite	ne
 122 000c 0023     		movne	r3, #0
 123 000e 0123     		moveq	r3, #1
 124              		.loc 1 77 0
 125 0010 1846     		mov	r0, r3
 126 0012 02B0     		add	sp, sp, #8
 127 0014 7047     		bx	lr
 128              		.cfi_endproc
 129              	.LFE64:
 130              		.size	putwouldblock, .-putwouldblock
 131 0016 00BFAFF3 		.section	.text.getwouldblock,"ax",%progbits
 131      0080AFF3 
 131      0080
 132              		.align	2
 133              		.p2align 4,,15
 134              		.thumb
 135              		.thumb_func
 136              		.type	getwouldblock, %function
 137              	getwouldblock:
 138              	.LFB65:
 139              		.loc 1 79 0
 140              		.cfi_startproc
 141              		@ args = 0, pretend = 0, frame = 8
 142              		@ frame_needed = 0, uses_anonymous_args = 0
 143              		@ link register save eliminated.
 144 0000 82B0     		sub	sp, sp, #8
 145              	.LCFI5:
 146              		.cfi_def_cfa_offset 8
 147 0002 0190     		str	r0, [sp, #4]
 148              		.loc 1 81 0
 149 0004 019B     		ldr	r3, [sp, #4]
 150 0006 9B69     		ldr	r3, [r3, #24]
 151 0008 002B     		cmp	r3, #0
 152 000a 14BF     		ite	ne
 153 000c 0023     		movne	r3, #0
 154 000e 0123     		moveq	r3, #1
 155              		.loc 1 82 0
 156 0010 1846     		mov	r0, r3
 157 0012 02B0     		add	sp, sp, #8
 158 0014 7047     		bx	lr
 159              		.cfi_endproc
 160              	.LFE65:
 161              		.size	getwouldblock, .-getwouldblock
ARM GAS  C:\Users\z80\AppData\Local\Temp\ccxb23Xc.s 			page 4


 162 0016 00BFAFF3 		.section	.text.putt,"ax",%progbits
 162      0080AFF3 
 162      0080
 163              		.align	2
 164              		.p2align 4,,15
 165              		.thumb
 166              		.thumb_func
 167              		.type	putt, %function
 168              	putt:
 169              	.LFB66:
 170              		.loc 1 84 0
 171              		.cfi_startproc
 172              		@ args = 0, pretend = 0, frame = 16
 173              		@ frame_needed = 0, uses_anonymous_args = 0
 174 0000 00B5     		push	{lr}
 175              	.LCFI6:
 176              		.cfi_def_cfa_offset 4
 177 0002 85B0     		sub	sp, sp, #20
 178              	.LCFI7:
 179              		.cfi_def_cfa_offset 24
 180 0004 0390     		str	r0, [sp, #12]
 181 0006 0B46     		mov	r3, r1
 182 0008 0192     		str	r2, [sp, #4]
 183 000a 8DF80B30 		strb	r3, [sp, #11]
 184              		.loc 1 86 0
 185 000e 039B     		ldr	r3, [sp, #12]
 186 0010 03F13002 		add	r2, r3, #48
 187 0014 9DF80B30 		ldrb	r3, [sp, #11]	@ zero_extendqisi2
 188 0018 1046     		mov	r0, r2
 189 001a 1946     		mov	r1, r3
 190 001c 019A     		ldr	r2, [sp, #4]
 191              		.cfi_offset 14, -4
 192 001e FFF7FEFF 		bl	chOQPutTimeout
 193 0022 0346     		mov	r3, r0
 194              		.loc 1 87 0
 195 0024 1846     		mov	r0, r3
 196 0026 05B0     		add	sp, sp, #20
 197 0028 00BD     		pop	{pc}
 198              		.cfi_endproc
 199              	.LFE66:
 200              		.size	putt, .-putt
 201 002a 00BFAFF3 		.section	.text.gett,"ax",%progbits
 201      0080
 202              		.align	2
 203              		.p2align 4,,15
 204              		.thumb
 205              		.thumb_func
 206              		.type	gett, %function
 207              	gett:
 208              	.LFB67:
 209              		.loc 1 89 0
 210              		.cfi_startproc
 211              		@ args = 0, pretend = 0, frame = 8
 212              		@ frame_needed = 0, uses_anonymous_args = 0
 213 0000 00B5     		push	{lr}
 214              	.LCFI8:
 215              		.cfi_def_cfa_offset 4
ARM GAS  C:\Users\z80\AppData\Local\Temp\ccxb23Xc.s 			page 5


 216 0002 83B0     		sub	sp, sp, #12
 217              	.LCFI9:
 218              		.cfi_def_cfa_offset 16
 219 0004 0190     		str	r0, [sp, #4]
 220 0006 0091     		str	r1, [sp, #0]
 221              		.loc 1 91 0
 222 0008 019B     		ldr	r3, [sp, #4]
 223 000a 03F11003 		add	r3, r3, #16
 224 000e 1846     		mov	r0, r3
 225 0010 0099     		ldr	r1, [sp, #0]
 226              		.cfi_offset 14, -4
 227 0012 FFF7FEFF 		bl	chIQGetTimeout
 228 0016 0346     		mov	r3, r0
 229              		.loc 1 92 0
 230 0018 1846     		mov	r0, r3
 231 001a 03B0     		add	sp, sp, #12
 232 001c 00BD     		pop	{pc}
 233              		.cfi_endproc
 234              	.LFE67:
 235              		.size	gett, .-gett
 236 001e 00BF     		.section	.text.writet,"ax",%progbits
 237              		.align	2
 238              		.p2align 4,,15
 239              		.thumb
 240              		.thumb_func
 241              		.type	writet, %function
 242              	writet:
 243              	.LFB68:
 244              		.loc 1 94 0
 245              		.cfi_startproc
 246              		@ args = 0, pretend = 0, frame = 16
 247              		@ frame_needed = 0, uses_anonymous_args = 0
 248 0000 00B5     		push	{lr}
 249              	.LCFI10:
 250              		.cfi_def_cfa_offset 4
 251 0002 85B0     		sub	sp, sp, #20
 252              	.LCFI11:
 253              		.cfi_def_cfa_offset 24
 254 0004 0390     		str	r0, [sp, #12]
 255 0006 0291     		str	r1, [sp, #8]
 256 0008 0192     		str	r2, [sp, #4]
 257 000a 0093     		str	r3, [sp, #0]
 258              		.loc 1 96 0
 259 000c 039B     		ldr	r3, [sp, #12]
 260 000e 03F13003 		add	r3, r3, #48
 261 0012 1846     		mov	r0, r3
 262 0014 0299     		ldr	r1, [sp, #8]
 263 0016 019A     		ldr	r2, [sp, #4]
 264 0018 009B     		ldr	r3, [sp, #0]
 265              		.cfi_offset 14, -4
 266 001a FFF7FEFF 		bl	chOQWriteTimeout
 267 001e 0346     		mov	r3, r0
 268              		.loc 1 97 0
 269 0020 1846     		mov	r0, r3
 270 0022 05B0     		add	sp, sp, #20
 271 0024 00BD     		pop	{pc}
 272              		.cfi_endproc
ARM GAS  C:\Users\z80\AppData\Local\Temp\ccxb23Xc.s 			page 6


 273              	.LFE68:
 274              		.size	writet, .-writet
 275 0026 00BFAFF3 		.section	.text.readt,"ax",%progbits
 275      0080AFF3 
 275      0080
 276              		.align	2
 277              		.p2align 4,,15
 278              		.thumb
 279              		.thumb_func
 280              		.type	readt, %function
 281              	readt:
 282              	.LFB69:
 283              		.loc 1 99 0
 284              		.cfi_startproc
 285              		@ args = 0, pretend = 0, frame = 16
 286              		@ frame_needed = 0, uses_anonymous_args = 0
 287 0000 00B5     		push	{lr}
 288              	.LCFI12:
 289              		.cfi_def_cfa_offset 4
 290 0002 85B0     		sub	sp, sp, #20
 291              	.LCFI13:
 292              		.cfi_def_cfa_offset 24
 293 0004 0390     		str	r0, [sp, #12]
 294 0006 0291     		str	r1, [sp, #8]
 295 0008 0192     		str	r2, [sp, #4]
 296 000a 0093     		str	r3, [sp, #0]
 297              		.loc 1 101 0
 298 000c 039B     		ldr	r3, [sp, #12]
 299 000e 03F11003 		add	r3, r3, #16
 300 0012 1846     		mov	r0, r3
 301 0014 0299     		ldr	r1, [sp, #8]
 302 0016 019A     		ldr	r2, [sp, #4]
 303 0018 009B     		ldr	r3, [sp, #0]
 304              		.cfi_offset 14, -4
 305 001a FFF7FEFF 		bl	chIQReadTimeout
 306 001e 0346     		mov	r3, r0
 307              		.loc 1 102 0
 308 0020 1846     		mov	r0, r3
 309 0022 05B0     		add	sp, sp, #20
 310 0024 00BD     		pop	{pc}
 311              		.cfi_endproc
 312              	.LFE69:
 313              		.size	readt, .-readt
 314 0026 00BFAFF3 		.section	.text.getflags,"ax",%progbits
 314      0080AFF3 
 314      0080
 315              		.align	2
 316              		.p2align 4,,15
 317              		.thumb
 318              		.thumb_func
 319              		.type	getflags, %function
 320              	getflags:
 321              	.LFB70:
 322              		.loc 1 104 0
 323              		.cfi_startproc
 324              		@ args = 0, pretend = 0, frame = 16
 325              		@ frame_needed = 0, uses_anonymous_args = 0
ARM GAS  C:\Users\z80\AppData\Local\Temp\ccxb23Xc.s 			page 7


 326 0000 00B5     		push	{lr}
 327              	.LCFI14:
 328              		.cfi_def_cfa_offset 4
 329 0002 85B0     		sub	sp, sp, #20
 330              	.LCFI15:
 331              		.cfi_def_cfa_offset 24
 332 0004 0190     		str	r0, [sp, #4]
 333              	.LBB2:
 334              		.loc 1 105 0
 335 0006 4FF02003 		mov	r3, #32
 336              	@ 105 "../chibios_2.4.x/os/hal/src/serial.c" 1
 337 000a 83F31188 		msr     BASEPRI, r3
 338              	@ 0 "" 2
 339              		.thumb
 340              	.LBE2:
 341              		.cfi_offset 14, -4
 342 000e FFF7FEFF 		bl	dbg_check_lock
 343 0012 019B     		ldr	r3, [sp, #4]
 344 0014 9B68     		ldr	r3, [r3, #8]
 345 0016 0393     		str	r3, [sp, #12]
 346 0018 019B     		ldr	r3, [sp, #4]
 347 001a 4FF00002 		mov	r2, #0
 348 001e 9A60     		str	r2, [r3, #8]
 349 0020 FFF7FEFF 		bl	dbg_check_unlock
 350              	.LBB3:
 351 0024 4FF00003 		mov	r3, #0
 352              	@ 105 "../chibios_2.4.x/os/hal/src/serial.c" 1
 353 0028 83F31188 		msr     BASEPRI, r3
 354              	@ 0 "" 2
 355              		.thumb
 356              	.LBE3:
 357 002c 039B     		ldr	r3, [sp, #12]
 358              		.loc 1 106 0
 359 002e 1846     		mov	r0, r3
 360 0030 05B0     		add	sp, sp, #20
 361 0032 00BD     		pop	{pc}
 362              		.cfi_endproc
 363              	.LFE70:
 364              		.size	getflags, .-getflags
 365 0034 AFF30080 		.section	.rodata.vmt,"a",%progbits
 365      AFF30080 
 365      AFF30080 
 366              		.align	2
 367              		.type	vmt, %object
 368              		.size	vmt, 36
 369              	vmt:
 370 0000 00000000 		.word	writes
 371 0004 00000000 		.word	reads
 372 0008 00000000 		.word	putwouldblock
 373 000c 00000000 		.word	getwouldblock
 374 0010 00000000 		.word	putt
 375 0014 00000000 		.word	gett
 376 0018 00000000 		.word	writet
 377 001c 00000000 		.word	readt
 378 0020 00000000 		.word	getflags
 379              		.section	.text.sdInit,"ax",%progbits
 380              		.align	2
ARM GAS  C:\Users\z80\AppData\Local\Temp\ccxb23Xc.s 			page 8


 381              		.p2align 4,,15
 382              		.global	sdInit
 383              		.thumb
 384              		.thumb_func
 385              		.type	sdInit, %function
 386              	sdInit:
 387              	.LFB71:
 388              		.loc 1 125 0
 389              		.cfi_startproc
 390              		@ args = 0, pretend = 0, frame = 0
 391              		@ frame_needed = 0, uses_anonymous_args = 0
 392 0000 08B5     		push	{r3, lr}
 393              	.LCFI16:
 394              		.cfi_def_cfa_offset 8
 395              		.loc 1 127 0
 396              		.cfi_offset 14, -4
 397              		.cfi_offset 3, -8
 398 0002 FFF7FEFF 		bl	sd_lld_init
 399              		.loc 1 128 0
 400 0006 08BD     		pop	{r3, pc}
 401              		.cfi_endproc
 402              	.LFE71:
 403              		.size	sdInit, .-sdInit
 404 0008 AFF30080 		.section	.text.sdObjectInit,"ax",%progbits
 404      AFF30080 
 405              		.align	2
 406              		.p2align 4,,15
 407              		.global	sdObjectInit
 408              		.thumb
 409              		.thumb_func
 410              		.type	sdObjectInit, %function
 411              	sdObjectInit:
 412              	.LFB72:
 413              		.loc 1 145 0
 414              		.cfi_startproc
 415              		@ args = 0, pretend = 0, frame = 16
 416              		@ frame_needed = 0, uses_anonymous_args = 0
 417 0000 00B5     		push	{lr}
 418              	.LCFI17:
 419              		.cfi_def_cfa_offset 4
 420 0002 85B0     		sub	sp, sp, #20
 421              	.LCFI18:
 422              		.cfi_def_cfa_offset 24
 423 0004 0390     		str	r0, [sp, #12]
 424 0006 0291     		str	r1, [sp, #8]
 425 0008 0192     		str	r2, [sp, #4]
 426              		.loc 1 147 0
 427 000a 039A     		ldr	r2, [sp, #12]
 428 000c 40F20003 		movw	r3, #:lower16:vmt
 429 0010 C0F20003 		movt	r3, #:upper16:vmt
 430 0014 1360     		str	r3, [r2, #0]
 431              		.loc 1 148 0
 432 0016 039B     		ldr	r3, [sp, #12]
 433 0018 03F10403 		add	r3, r3, #4
 434 001c 1A46     		mov	r2, r3
 435 001e 039B     		ldr	r3, [sp, #12]
 436 0020 5A60     		str	r2, [r3, #4]
ARM GAS  C:\Users\z80\AppData\Local\Temp\ccxb23Xc.s 			page 9


 437              		.loc 1 149 0
 438 0022 039B     		ldr	r3, [sp, #12]
 439 0024 4FF00002 		mov	r2, #0
 440 0028 9A60     		str	r2, [r3, #8]
 441              		.loc 1 150 0
 442 002a 039B     		ldr	r3, [sp, #12]
 443 002c 4FF00102 		mov	r2, #1
 444 0030 1A73     		strb	r2, [r3, #12]
 445              		.loc 1 151 0
 446 0032 039B     		ldr	r3, [sp, #12]
 447 0034 03F11002 		add	r2, r3, #16
 448 0038 039B     		ldr	r3, [sp, #12]
 449 003a 03F15003 		add	r3, r3, #80
 450 003e 1046     		mov	r0, r2
 451 0040 1946     		mov	r1, r3
 452 0042 4FF04002 		mov	r2, #64
 453 0046 029B     		ldr	r3, [sp, #8]
 454              		.cfi_offset 14, -4
 455 0048 FFF7FEFF 		bl	chIQInit
 456              		.loc 1 152 0
 457 004c 039B     		ldr	r3, [sp, #12]
 458 004e 03F13002 		add	r2, r3, #48
 459 0052 039B     		ldr	r3, [sp, #12]
 460 0054 03F19003 		add	r3, r3, #144
 461 0058 1046     		mov	r0, r2
 462 005a 1946     		mov	r1, r3
 463 005c 4FF04002 		mov	r2, #64
 464 0060 019B     		ldr	r3, [sp, #4]
 465 0062 FFF7FEFF 		bl	chOQInit
 466              		.loc 1 153 0
 467 0066 05B0     		add	sp, sp, #20
 468 0068 00BD     		pop	{pc}
 469              		.cfi_endproc
 470              	.LFE72:
 471              		.size	sdObjectInit, .-sdObjectInit
 472 006a 00BFAFF3 		.section	.rodata
 472      0080
 473              		.align	2
 474              	.LC0:
 475 0000 22736453 		.ascii	"\"sdStart\"()\000"
 475      74617274 
 475      22282900 
 476              		.align	2
 477              	.LC1:
 478 000c 73645374 		.ascii	"sdStart(), #1\000"
 478      61727428 
 478      292C2023 
 478      3100
 479              		.section	.text.sdStart,"ax",%progbits
 480              		.align	2
 481              		.p2align 4,,15
 482              		.global	sdStart
 483              		.thumb
 484              		.thumb_func
 485              		.type	sdStart, %function
 486              	sdStart:
 487              	.LFB73:
ARM GAS  C:\Users\z80\AppData\Local\Temp\ccxb23Xc.s 			page 10


 488              		.loc 1 165 0
 489              		.cfi_startproc
 490              		@ args = 0, pretend = 0, frame = 8
 491              		@ frame_needed = 0, uses_anonymous_args = 0
 492 0000 00B5     		push	{lr}
 493              	.LCFI19:
 494              		.cfi_def_cfa_offset 4
 495 0002 83B0     		sub	sp, sp, #12
 496              	.LCFI20:
 497              		.cfi_def_cfa_offset 16
 498 0004 0190     		str	r0, [sp, #4]
 499 0006 0091     		str	r1, [sp, #0]
 500              		.loc 1 167 0
 501 0008 019B     		ldr	r3, [sp, #4]
 502 000a 002B     		cmp	r3, #0
 503 000c 05D1     		bne	.L13
 504              		.cfi_offset 14, -4
 505              		.loc 1 167 0 is_stmt 0 discriminator 1
 506 000e 40F20000 		movw	r0, #:lower16:.LC0
 507 0012 C0F20000 		movt	r0, #:upper16:.LC0
 508 0016 FFF7FEFF 		bl	chDbgPanic
 509              	.L13:
 510              	.LBB4:
 511              		.loc 1 169 0 is_stmt 1
 512 001a 4FF02003 		mov	r3, #32
 513              	@ 169 "../chibios_2.4.x/os/hal/src/serial.c" 1
 514 001e 83F31188 		msr     BASEPRI, r3
 515              	@ 0 "" 2
 516              		.thumb
 517              	.LBE4:
 518 0022 FFF7FEFF 		bl	dbg_check_lock
 519              		.loc 1 170 0
 520 0026 019B     		ldr	r3, [sp, #4]
 521 0028 1B7B     		ldrb	r3, [r3, #12]	@ zero_extendqisi2
 522 002a 012B     		cmp	r3, #1
 523 002c 09D0     		beq	.L14
 524              		.loc 1 170 0 is_stmt 0 discriminator 1
 525 002e 019B     		ldr	r3, [sp, #4]
 526 0030 1B7B     		ldrb	r3, [r3, #12]	@ zero_extendqisi2
 527 0032 022B     		cmp	r3, #2
 528 0034 05D0     		beq	.L14
 529              		.loc 1 170 0 discriminator 2
 530 0036 40F20000 		movw	r0, #:lower16:.LC1
 531 003a C0F20000 		movt	r0, #:upper16:.LC1
 532 003e FFF7FEFF 		bl	chDbgPanic
 533              	.L14:
 534              		.loc 1 173 0 is_stmt 1
 535 0042 0198     		ldr	r0, [sp, #4]
 536 0044 0099     		ldr	r1, [sp, #0]
 537 0046 FFF7FEFF 		bl	sd_lld_start
 538              		.loc 1 174 0
 539 004a 019B     		ldr	r3, [sp, #4]
 540 004c 4FF00202 		mov	r2, #2
 541 0050 1A73     		strb	r2, [r3, #12]
 542              		.loc 1 175 0
 543 0052 FFF7FEFF 		bl	dbg_check_unlock
 544              	.LBB5:
ARM GAS  C:\Users\z80\AppData\Local\Temp\ccxb23Xc.s 			page 11


 545 0056 4FF00003 		mov	r3, #0
 546              	@ 175 "../chibios_2.4.x/os/hal/src/serial.c" 1
 547 005a 83F31188 		msr     BASEPRI, r3
 548              	@ 0 "" 2
 549              		.thumb
 550              	.LBE5:
 551              		.loc 1 176 0
 552 005e 03B0     		add	sp, sp, #12
 553 0060 00BD     		pop	{pc}
 554              		.cfi_endproc
 555              	.LFE73:
 556              		.size	sdStart, .-sdStart
 557 0062 00BFAFF3 		.section	.rodata
 557      0080AFF3 
 557      0080AFF3 
 557      0080
 558 001a 0000     		.align	2
 559              	.LC2:
 560 001c 22736453 		.ascii	"\"sdStop\"()\000"
 560      746F7022 
 560      282900
 561 0027 00       		.align	2
 562              	.LC3:
 563 0028 73645374 		.ascii	"sdStop(), #1\000"
 563      6F702829 
 563      2C202331 
 563      00
 564              		.section	.text.sdStop,"ax",%progbits
 565              		.align	2
 566              		.p2align 4,,15
 567              		.global	sdStop
 568              		.thumb
 569              		.thumb_func
 570              		.type	sdStop, %function
 571              	sdStop:
 572              	.LFB74:
 573              		.loc 1 187 0
 574              		.cfi_startproc
 575              		@ args = 0, pretend = 0, frame = 8
 576              		@ frame_needed = 0, uses_anonymous_args = 0
 577 0000 00B5     		push	{lr}
 578              	.LCFI21:
 579              		.cfi_def_cfa_offset 4
 580 0002 83B0     		sub	sp, sp, #12
 581              	.LCFI22:
 582              		.cfi_def_cfa_offset 16
 583 0004 0190     		str	r0, [sp, #4]
 584              		.loc 1 189 0
 585 0006 019B     		ldr	r3, [sp, #4]
 586 0008 002B     		cmp	r3, #0
 587 000a 05D1     		bne	.L16
 588              		.cfi_offset 14, -4
 589              		.loc 1 189 0 is_stmt 0 discriminator 1
 590 000c 40F20000 		movw	r0, #:lower16:.LC2
 591 0010 C0F20000 		movt	r0, #:upper16:.LC2
 592 0014 FFF7FEFF 		bl	chDbgPanic
 593              	.L16:
ARM GAS  C:\Users\z80\AppData\Local\Temp\ccxb23Xc.s 			page 12


 594              	.LBB6:
 595              		.loc 1 191 0 is_stmt 1
 596 0018 4FF02003 		mov	r3, #32
 597              	@ 191 "../chibios_2.4.x/os/hal/src/serial.c" 1
 598 001c 83F31188 		msr     BASEPRI, r3
 599              	@ 0 "" 2
 600              		.thumb
 601              	.LBE6:
 602 0020 FFF7FEFF 		bl	dbg_check_lock
 603              		.loc 1 192 0
 604 0024 019B     		ldr	r3, [sp, #4]
 605 0026 1B7B     		ldrb	r3, [r3, #12]	@ zero_extendqisi2
 606 0028 012B     		cmp	r3, #1
 607 002a 09D0     		beq	.L17
 608              		.loc 1 192 0 is_stmt 0 discriminator 1
 609 002c 019B     		ldr	r3, [sp, #4]
 610 002e 1B7B     		ldrb	r3, [r3, #12]	@ zero_extendqisi2
 611 0030 022B     		cmp	r3, #2
 612 0032 05D0     		beq	.L17
 613              		.loc 1 192 0 discriminator 2
 614 0034 40F20000 		movw	r0, #:lower16:.LC3
 615 0038 C0F20000 		movt	r0, #:upper16:.LC3
 616 003c FFF7FEFF 		bl	chDbgPanic
 617              	.L17:
 618              		.loc 1 195 0 is_stmt 1
 619 0040 0198     		ldr	r0, [sp, #4]
 620 0042 FFF7FEFF 		bl	sd_lld_stop
 621              		.loc 1 196 0
 622 0046 019B     		ldr	r3, [sp, #4]
 623 0048 4FF00102 		mov	r2, #1
 624 004c 1A73     		strb	r2, [r3, #12]
 625              		.loc 1 197 0
 626 004e 019B     		ldr	r3, [sp, #4]
 627 0050 03F13003 		add	r3, r3, #48
 628 0054 1846     		mov	r0, r3
 629 0056 FFF7FEFF 		bl	chOQResetI
 630              		.loc 1 198 0
 631 005a 019B     		ldr	r3, [sp, #4]
 632 005c 03F11003 		add	r3, r3, #16
 633 0060 1846     		mov	r0, r3
 634 0062 FFF7FEFF 		bl	chIQResetI
 635              		.loc 1 199 0
 636 0066 FFF7FEFF 		bl	chSchRescheduleS
 637              		.loc 1 200 0
 638 006a FFF7FEFF 		bl	dbg_check_unlock
 639              	.LBB7:
 640 006e 4FF00003 		mov	r3, #0
 641              	@ 200 "../chibios_2.4.x/os/hal/src/serial.c" 1
 642 0072 83F31188 		msr     BASEPRI, r3
 643              	@ 0 "" 2
 644              		.thumb
 645              	.LBE7:
 646              		.loc 1 201 0
 647 0076 03B0     		add	sp, sp, #12
 648 0078 00BD     		pop	{pc}
 649              		.cfi_endproc
 650              	.LFE74:
ARM GAS  C:\Users\z80\AppData\Local\Temp\ccxb23Xc.s 			page 13


 651              		.size	sdStop, .-sdStop
 652 007a 00BFAFF3 		.section	.rodata
 652      0080
 653 0035 000000   		.align	2
 654              	.LC4:
 655 0038 22736449 		.ascii	"\"sdIncomingDataI\"()\000"
 655      6E636F6D 
 655      696E6744 
 655      61746149 
 655      22282900 
 656              		.section	.text.sdIncomingDataI,"ax",%progbits
 657              		.align	2
 658              		.p2align 4,,15
 659              		.global	sdIncomingDataI
 660              		.thumb
 661              		.thumb_func
 662              		.type	sdIncomingDataI, %function
 663              	sdIncomingDataI:
 664              	.LFB75:
 665              		.loc 1 219 0
 666              		.cfi_startproc
 667              		@ args = 0, pretend = 0, frame = 8
 668              		@ frame_needed = 0, uses_anonymous_args = 0
 669 0000 00B5     		push	{lr}
 670              	.LCFI23:
 671              		.cfi_def_cfa_offset 4
 672 0002 83B0     		sub	sp, sp, #12
 673              	.LCFI24:
 674              		.cfi_def_cfa_offset 16
 675 0004 0190     		str	r0, [sp, #4]
 676 0006 0B46     		mov	r3, r1
 677 0008 8DF80330 		strb	r3, [sp, #3]
 678              		.loc 1 221 0
 679              		.cfi_offset 14, -4
 680 000c FFF7FEFF 		bl	chDbgCheckClassI
 681              		.loc 1 222 0
 682 0010 019B     		ldr	r3, [sp, #4]
 683 0012 002B     		cmp	r3, #0
 684 0014 05D1     		bne	.L19
 685              		.loc 1 222 0 is_stmt 0 discriminator 1
 686 0016 40F20000 		movw	r0, #:lower16:.LC4
 687 001a C0F20000 		movt	r0, #:upper16:.LC4
 688 001e FFF7FEFF 		bl	chDbgPanic
 689              	.L19:
 690              		.loc 1 224 0 is_stmt 1
 691 0022 019B     		ldr	r3, [sp, #4]
 692 0024 9B69     		ldr	r3, [r3, #24]
 693 0026 002B     		cmp	r3, #0
 694 0028 0DD1     		bne	.L20
 695              		.loc 1 225 0
 696 002a 019B     		ldr	r3, [sp, #4]
 697 002c 9B68     		ldr	r3, [r3, #8]
 698 002e 43F00402 		orr	r2, r3, #4
 699 0032 019B     		ldr	r3, [sp, #4]
 700 0034 9A60     		str	r2, [r3, #8]
 701 0036 019B     		ldr	r3, [sp, #4]
 702 0038 03F10403 		add	r3, r3, #4
ARM GAS  C:\Users\z80\AppData\Local\Temp\ccxb23Xc.s 			page 14


 703 003c 1846     		mov	r0, r3
 704 003e 4FF00001 		mov	r1, #0
 705 0042 FFF7FEFF 		bl	chEvtBroadcastFlagsI
 706              	.L20:
 707              		.loc 1 226 0
 708 0046 019B     		ldr	r3, [sp, #4]
 709 0048 03F11002 		add	r2, r3, #16
 710 004c 9DF80330 		ldrb	r3, [sp, #3]	@ zero_extendqisi2
 711 0050 1046     		mov	r0, r2
 712 0052 1946     		mov	r1, r3
 713 0054 FFF7FEFF 		bl	chIQPutI
 714 0058 0346     		mov	r3, r0
 715 005a 002B     		cmp	r3, #0
 716 005c 0DDA     		bge	.L18
 717              		.loc 1 227 0
 718 005e 019B     		ldr	r3, [sp, #4]
 719 0060 9B68     		ldr	r3, [r3, #8]
 720 0062 43F08002 		orr	r2, r3, #128
 721 0066 019B     		ldr	r3, [sp, #4]
 722 0068 9A60     		str	r2, [r3, #8]
 723 006a 019B     		ldr	r3, [sp, #4]
 724 006c 03F10403 		add	r3, r3, #4
 725 0070 1846     		mov	r0, r3
 726 0072 4FF00001 		mov	r1, #0
 727 0076 FFF7FEFF 		bl	chEvtBroadcastFlagsI
 728              	.L18:
 729              		.loc 1 228 0
 730 007a 03B0     		add	sp, sp, #12
 731 007c 00BD     		pop	{pc}
 732              		.cfi_endproc
 733              	.LFE75:
 734              		.size	sdIncomingDataI, .-sdIncomingDataI
 735 007e 00BF     		.section	.rodata
 736              		.align	2
 737              	.LC5:
 738 004c 22736452 		.ascii	"\"sdRequestDataI\"()\000"
 738      65717565 
 738      73744461 
 738      74614922 
 738      282900
 739 005f 00       		.section	.text.sdRequestDataI,"ax",%progbits
 740              		.align	2
 741              		.p2align 4,,15
 742              		.global	sdRequestDataI
 743              		.thumb
 744              		.thumb_func
 745              		.type	sdRequestDataI, %function
 746              	sdRequestDataI:
 747              	.LFB76:
 748              		.loc 1 245 0
 749              		.cfi_startproc
 750              		@ args = 0, pretend = 0, frame = 16
 751              		@ frame_needed = 0, uses_anonymous_args = 0
 752 0000 00B5     		push	{lr}
 753              	.LCFI25:
 754              		.cfi_def_cfa_offset 4
 755 0002 85B0     		sub	sp, sp, #20
ARM GAS  C:\Users\z80\AppData\Local\Temp\ccxb23Xc.s 			page 15


 756              	.LCFI26:
 757              		.cfi_def_cfa_offset 24
 758 0004 0190     		str	r0, [sp, #4]
 759              		.loc 1 248 0
 760              		.cfi_offset 14, -4
 761 0006 FFF7FEFF 		bl	chDbgCheckClassI
 762              		.loc 1 249 0
 763 000a 019B     		ldr	r3, [sp, #4]
 764 000c 002B     		cmp	r3, #0
 765 000e 05D1     		bne	.L23
 766              		.loc 1 249 0 is_stmt 0 discriminator 1
 767 0010 40F20000 		movw	r0, #:lower16:.LC5
 768 0014 C0F20000 		movt	r0, #:upper16:.LC5
 769 0018 FFF7FEFF 		bl	chDbgPanic
 770              	.L23:
 771              		.loc 1 251 0 is_stmt 1
 772 001c 019B     		ldr	r3, [sp, #4]
 773 001e 03F13003 		add	r3, r3, #48
 774 0022 1846     		mov	r0, r3
 775 0024 FFF7FEFF 		bl	chOQGetI
 776 0028 0346     		mov	r3, r0
 777 002a 0393     		str	r3, [sp, #12]
 778              		.loc 1 252 0
 779 002c 039B     		ldr	r3, [sp, #12]
 780 002e 002B     		cmp	r3, #0
 781 0030 0DDA     		bge	.L24
 782              		.loc 1 253 0
 783 0032 019B     		ldr	r3, [sp, #4]
 784 0034 9B68     		ldr	r3, [r3, #8]
 785 0036 43F00802 		orr	r2, r3, #8
 786 003a 019B     		ldr	r3, [sp, #4]
 787 003c 9A60     		str	r2, [r3, #8]
 788 003e 019B     		ldr	r3, [sp, #4]
 789 0040 03F10403 		add	r3, r3, #4
 790 0044 1846     		mov	r0, r3
 791 0046 4FF00001 		mov	r1, #0
 792 004a FFF7FEFF 		bl	chEvtBroadcastFlagsI
 793              	.L24:
 794              		.loc 1 254 0
 795 004e 039B     		ldr	r3, [sp, #12]
 796              		.loc 1 255 0
 797 0050 1846     		mov	r0, r3
 798 0052 05B0     		add	sp, sp, #20
 799 0054 00BD     		pop	{pc}
 800              		.cfi_endproc
 801              	.LFE76:
 802              		.size	sdRequestDataI, .-sdRequestDataI
 803 0056 00BFAFF3 		.text
 803      0080AFF3 
 803      0080
 804              	.Letext0:
 805              		.section	.debug_loc,"",%progbits
 806              	.Ldebug_loc0:
 807              	.LLST0:
 808 0000 00000000 		.4byte	.LFB62
 809 0004 02000000 		.4byte	.LCFI0
 810 0008 0200     		.2byte	0x2
ARM GAS  C:\Users\z80\AppData\Local\Temp\ccxb23Xc.s 			page 16


 811 000a 7D       		.byte	0x7d
 812 000b 00       		.sleb128 0
 813 000c 02000000 		.4byte	.LCFI0
 814 0010 04000000 		.4byte	.LCFI1
 815 0014 0200     		.2byte	0x2
 816 0016 7D       		.byte	0x7d
 817 0017 04       		.sleb128 4
 818 0018 04000000 		.4byte	.LCFI1
 819 001c 26000000 		.4byte	.LFE62
 820 0020 0200     		.2byte	0x2
 821 0022 7D       		.byte	0x7d
 822 0023 18       		.sleb128 24
 823 0024 00000000 		.4byte	0x0
 824 0028 00000000 		.4byte	0x0
 825              	.LLST1:
 826 002c 00000000 		.4byte	.LFB63
 827 0030 02000000 		.4byte	.LCFI2
 828 0034 0200     		.2byte	0x2
 829 0036 7D       		.byte	0x7d
 830 0037 00       		.sleb128 0
 831 0038 02000000 		.4byte	.LCFI2
 832 003c 04000000 		.4byte	.LCFI3
 833 0040 0200     		.2byte	0x2
 834 0042 7D       		.byte	0x7d
 835 0043 04       		.sleb128 4
 836 0044 04000000 		.4byte	.LCFI3
 837 0048 26000000 		.4byte	.LFE63
 838 004c 0200     		.2byte	0x2
 839 004e 7D       		.byte	0x7d
 840 004f 18       		.sleb128 24
 841 0050 00000000 		.4byte	0x0
 842 0054 00000000 		.4byte	0x0
 843              	.LLST2:
 844 0058 00000000 		.4byte	.LFB64
 845 005c 02000000 		.4byte	.LCFI4
 846 0060 0200     		.2byte	0x2
 847 0062 7D       		.byte	0x7d
 848 0063 00       		.sleb128 0
 849 0064 02000000 		.4byte	.LCFI4
 850 0068 16000000 		.4byte	.LFE64
 851 006c 0200     		.2byte	0x2
 852 006e 7D       		.byte	0x7d
 853 006f 08       		.sleb128 8
 854 0070 00000000 		.4byte	0x0
 855 0074 00000000 		.4byte	0x0
 856              	.LLST3:
 857 0078 00000000 		.4byte	.LFB65
 858 007c 02000000 		.4byte	.LCFI5
 859 0080 0200     		.2byte	0x2
 860 0082 7D       		.byte	0x7d
 861 0083 00       		.sleb128 0
 862 0084 02000000 		.4byte	.LCFI5
 863 0088 16000000 		.4byte	.LFE65
 864 008c 0200     		.2byte	0x2
 865 008e 7D       		.byte	0x7d
 866 008f 08       		.sleb128 8
 867 0090 00000000 		.4byte	0x0
ARM GAS  C:\Users\z80\AppData\Local\Temp\ccxb23Xc.s 			page 17


 868 0094 00000000 		.4byte	0x0
 869              	.LLST4:
 870 0098 00000000 		.4byte	.LFB66
 871 009c 02000000 		.4byte	.LCFI6
 872 00a0 0200     		.2byte	0x2
 873 00a2 7D       		.byte	0x7d
 874 00a3 00       		.sleb128 0
 875 00a4 02000000 		.4byte	.LCFI6
 876 00a8 04000000 		.4byte	.LCFI7
 877 00ac 0200     		.2byte	0x2
 878 00ae 7D       		.byte	0x7d
 879 00af 04       		.sleb128 4
 880 00b0 04000000 		.4byte	.LCFI7
 881 00b4 2A000000 		.4byte	.LFE66
 882 00b8 0200     		.2byte	0x2
 883 00ba 7D       		.byte	0x7d
 884 00bb 18       		.sleb128 24
 885 00bc 00000000 		.4byte	0x0
 886 00c0 00000000 		.4byte	0x0
 887              	.LLST5:
 888 00c4 00000000 		.4byte	.LFB67
 889 00c8 02000000 		.4byte	.LCFI8
 890 00cc 0200     		.2byte	0x2
 891 00ce 7D       		.byte	0x7d
 892 00cf 00       		.sleb128 0
 893 00d0 02000000 		.4byte	.LCFI8
 894 00d4 04000000 		.4byte	.LCFI9
 895 00d8 0200     		.2byte	0x2
 896 00da 7D       		.byte	0x7d
 897 00db 04       		.sleb128 4
 898 00dc 04000000 		.4byte	.LCFI9
 899 00e0 1E000000 		.4byte	.LFE67
 900 00e4 0200     		.2byte	0x2
 901 00e6 7D       		.byte	0x7d
 902 00e7 10       		.sleb128 16
 903 00e8 00000000 		.4byte	0x0
 904 00ec 00000000 		.4byte	0x0
 905              	.LLST6:
 906 00f0 00000000 		.4byte	.LFB68
 907 00f4 02000000 		.4byte	.LCFI10
 908 00f8 0200     		.2byte	0x2
 909 00fa 7D       		.byte	0x7d
 910 00fb 00       		.sleb128 0
 911 00fc 02000000 		.4byte	.LCFI10
 912 0100 04000000 		.4byte	.LCFI11
 913 0104 0200     		.2byte	0x2
 914 0106 7D       		.byte	0x7d
 915 0107 04       		.sleb128 4
 916 0108 04000000 		.4byte	.LCFI11
 917 010c 26000000 		.4byte	.LFE68
 918 0110 0200     		.2byte	0x2
 919 0112 7D       		.byte	0x7d
 920 0113 18       		.sleb128 24
 921 0114 00000000 		.4byte	0x0
 922 0118 00000000 		.4byte	0x0
 923              	.LLST7:
 924 011c 00000000 		.4byte	.LFB69
ARM GAS  C:\Users\z80\AppData\Local\Temp\ccxb23Xc.s 			page 18


 925 0120 02000000 		.4byte	.LCFI12
 926 0124 0200     		.2byte	0x2
 927 0126 7D       		.byte	0x7d
 928 0127 00       		.sleb128 0
 929 0128 02000000 		.4byte	.LCFI12
 930 012c 04000000 		.4byte	.LCFI13
 931 0130 0200     		.2byte	0x2
 932 0132 7D       		.byte	0x7d
 933 0133 04       		.sleb128 4
 934 0134 04000000 		.4byte	.LCFI13
 935 0138 26000000 		.4byte	.LFE69
 936 013c 0200     		.2byte	0x2
 937 013e 7D       		.byte	0x7d
 938 013f 18       		.sleb128 24
 939 0140 00000000 		.4byte	0x0
 940 0144 00000000 		.4byte	0x0
 941              	.LLST8:
 942 0148 00000000 		.4byte	.LFB70
 943 014c 02000000 		.4byte	.LCFI14
 944 0150 0200     		.2byte	0x2
 945 0152 7D       		.byte	0x7d
 946 0153 00       		.sleb128 0
 947 0154 02000000 		.4byte	.LCFI14
 948 0158 04000000 		.4byte	.LCFI15
 949 015c 0200     		.2byte	0x2
 950 015e 7D       		.byte	0x7d
 951 015f 04       		.sleb128 4
 952 0160 04000000 		.4byte	.LCFI15
 953 0164 34000000 		.4byte	.LFE70
 954 0168 0200     		.2byte	0x2
 955 016a 7D       		.byte	0x7d
 956 016b 18       		.sleb128 24
 957 016c 00000000 		.4byte	0x0
 958 0170 00000000 		.4byte	0x0
 959              	.LLST9:
 960 0174 00000000 		.4byte	.LFB71
 961 0178 02000000 		.4byte	.LCFI16
 962 017c 0200     		.2byte	0x2
 963 017e 7D       		.byte	0x7d
 964 017f 00       		.sleb128 0
 965 0180 02000000 		.4byte	.LCFI16
 966 0184 08000000 		.4byte	.LFE71
 967 0188 0200     		.2byte	0x2
 968 018a 7D       		.byte	0x7d
 969 018b 08       		.sleb128 8
 970 018c 00000000 		.4byte	0x0
 971 0190 00000000 		.4byte	0x0
 972              	.LLST10:
 973 0194 00000000 		.4byte	.LFB72
 974 0198 02000000 		.4byte	.LCFI17
 975 019c 0200     		.2byte	0x2
 976 019e 7D       		.byte	0x7d
 977 019f 00       		.sleb128 0
 978 01a0 02000000 		.4byte	.LCFI17
 979 01a4 04000000 		.4byte	.LCFI18
 980 01a8 0200     		.2byte	0x2
 981 01aa 7D       		.byte	0x7d
ARM GAS  C:\Users\z80\AppData\Local\Temp\ccxb23Xc.s 			page 19


 982 01ab 04       		.sleb128 4
 983 01ac 04000000 		.4byte	.LCFI18
 984 01b0 6A000000 		.4byte	.LFE72
 985 01b4 0200     		.2byte	0x2
 986 01b6 7D       		.byte	0x7d
 987 01b7 18       		.sleb128 24
 988 01b8 00000000 		.4byte	0x0
 989 01bc 00000000 		.4byte	0x0
 990              	.LLST11:
 991 01c0 00000000 		.4byte	.LFB73
 992 01c4 02000000 		.4byte	.LCFI19
 993 01c8 0200     		.2byte	0x2
 994 01ca 7D       		.byte	0x7d
 995 01cb 00       		.sleb128 0
 996 01cc 02000000 		.4byte	.LCFI19
 997 01d0 04000000 		.4byte	.LCFI20
 998 01d4 0200     		.2byte	0x2
 999 01d6 7D       		.byte	0x7d
 1000 01d7 04       		.sleb128 4
 1001 01d8 04000000 		.4byte	.LCFI20
 1002 01dc 62000000 		.4byte	.LFE73
 1003 01e0 0200     		.2byte	0x2
 1004 01e2 7D       		.byte	0x7d
 1005 01e3 10       		.sleb128 16
 1006 01e4 00000000 		.4byte	0x0
 1007 01e8 00000000 		.4byte	0x0
 1008              	.LLST12:
 1009 01ec 00000000 		.4byte	.LFB74
 1010 01f0 02000000 		.4byte	.LCFI21
 1011 01f4 0200     		.2byte	0x2
 1012 01f6 7D       		.byte	0x7d
 1013 01f7 00       		.sleb128 0
 1014 01f8 02000000 		.4byte	.LCFI21
 1015 01fc 04000000 		.4byte	.LCFI22
 1016 0200 0200     		.2byte	0x2
 1017 0202 7D       		.byte	0x7d
 1018 0203 04       		.sleb128 4
 1019 0204 04000000 		.4byte	.LCFI22
 1020 0208 7A000000 		.4byte	.LFE74
 1021 020c 0200     		.2byte	0x2
 1022 020e 7D       		.byte	0x7d
 1023 020f 10       		.sleb128 16
 1024 0210 00000000 		.4byte	0x0
 1025 0214 00000000 		.4byte	0x0
 1026              	.LLST13:
 1027 0218 00000000 		.4byte	.LFB75
 1028 021c 02000000 		.4byte	.LCFI23
 1029 0220 0200     		.2byte	0x2
 1030 0222 7D       		.byte	0x7d
 1031 0223 00       		.sleb128 0
 1032 0224 02000000 		.4byte	.LCFI23
 1033 0228 04000000 		.4byte	.LCFI24
 1034 022c 0200     		.2byte	0x2
 1035 022e 7D       		.byte	0x7d
 1036 022f 04       		.sleb128 4
 1037 0230 04000000 		.4byte	.LCFI24
 1038 0234 7E000000 		.4byte	.LFE75
ARM GAS  C:\Users\z80\AppData\Local\Temp\ccxb23Xc.s 			page 20


 1039 0238 0200     		.2byte	0x2
 1040 023a 7D       		.byte	0x7d
 1041 023b 10       		.sleb128 16
 1042 023c 00000000 		.4byte	0x0
 1043 0240 00000000 		.4byte	0x0
 1044              	.LLST14:
 1045 0244 00000000 		.4byte	.LFB76
 1046 0248 02000000 		.4byte	.LCFI25
 1047 024c 0200     		.2byte	0x2
 1048 024e 7D       		.byte	0x7d
 1049 024f 00       		.sleb128 0
 1050 0250 02000000 		.4byte	.LCFI25
 1051 0254 04000000 		.4byte	.LCFI26
 1052 0258 0200     		.2byte	0x2
 1053 025a 7D       		.byte	0x7d
 1054 025b 04       		.sleb128 4
 1055 025c 04000000 		.4byte	.LCFI26
 1056 0260 56000000 		.4byte	.LFE76
 1057 0264 0200     		.2byte	0x2
 1058 0266 7D       		.byte	0x7d
 1059 0267 18       		.sleb128 24
 1060 0268 00000000 		.4byte	0x0
 1061 026c 00000000 		.4byte	0x0
 1062              		.file 2 "c:\\programs\\yagarto\\bin\\../lib/gcc/arm-none-eabi/4.5.0/include/stddef.h"
 1063              		.file 3 "c:/programs/yagarto/lib/gcc/../../arm-none-eabi/sys-include/stdint.h"
 1064              		.file 4 "../chibios_2.4.x/os/ports/GCC/ARMCMx/chtypes.h"
 1065              		.file 5 "../chibios_2.4.x/os/kernel/include/chlists.h"
 1066              		.file 6 "../chibios_2.4.x/os/kernel/include/chthreads.h"
 1067              		.file 7 "../chibios_2.4.x/os/ports/GCC/ARMCMx/chcore_v7m.h"
 1068              		.file 8 "../chibios_2.4.x/os/kernel/include/chmtx.h"
 1069              		.file 9 "../chibios_2.4.x/os/kernel/include/chevents.h"
 1070              		.file 10 "../chibios_2.4.x/os/kernel/include/chqueues.h"
 1071              		.file 11 "../chibios_2.4.x/os/kernel/include/chioch.h"
 1072              		.file 12 "../chibios_2.4.x/os/hal/platforms/STM32F1xx/stm32f10x.h"
 1073              		.file 13 "../chibios_2.4.x/os/hal/include/serial.h"
 1074              		.file 14 "../chibios_2.4.x/os/hal/platforms/STM32/serial_lld.h"
 1075              		.file 15 "../chibios_2.4.x/os/ports/common/ARMCMx/CMSIS/include/core_cm3.h"
 1076              		.section	.debug_info
 1077 0000 BA0D0000 		.4byte	0xdba
 1078 0004 0200     		.2byte	0x2
 1079 0006 00000000 		.4byte	.Ldebug_abbrev0
 1080 000a 04       		.byte	0x4
 1081 000b 01       		.uleb128 0x1
 1082 000c B6040000 		.4byte	.LASF124
 1083 0010 01       		.byte	0x1
 1084 0011 00000000 		.4byte	.LASF125
 1085 0015 86020000 		.4byte	.LASF126
 1086 0019 00000000 		.4byte	0x0
 1087 001d 00000000 		.4byte	0x0
 1088 0021 00000000 		.4byte	.Ldebug_ranges0+0x0
 1089 0025 00000000 		.4byte	.Ldebug_line0
 1090 0029 02       		.uleb128 0x2
 1091 002a 04       		.byte	0x4
 1092 002b 05       		.byte	0x5
 1093 002c 696E7400 		.ascii	"int\000"
 1094 0030 03       		.uleb128 0x3
 1095 0031 2E000000 		.4byte	.LASF2
ARM GAS  C:\Users\z80\AppData\Local\Temp\ccxb23Xc.s 			page 21


 1096 0035 02       		.byte	0x2
 1097 0036 D3       		.byte	0xd3
 1098 0037 3B000000 		.4byte	0x3b
 1099 003b 04       		.uleb128 0x4
 1100 003c 04       		.byte	0x4
 1101 003d 07       		.byte	0x7
 1102 003e 65010000 		.4byte	.LASF0
 1103 0042 04       		.uleb128 0x4
 1104 0043 01       		.byte	0x1
 1105 0044 06       		.byte	0x6
 1106 0045 C9000000 		.4byte	.LASF1
 1107 0049 03       		.uleb128 0x3
 1108 004a 92040000 		.4byte	.LASF3
 1109 004e 03       		.byte	0x3
 1110 004f 2A       		.byte	0x2a
 1111 0050 54000000 		.4byte	0x54
 1112 0054 04       		.uleb128 0x4
 1113 0055 01       		.byte	0x1
 1114 0056 08       		.byte	0x8
 1115 0057 25030000 		.4byte	.LASF4
 1116 005b 04       		.uleb128 0x4
 1117 005c 02       		.byte	0x2
 1118 005d 05       		.byte	0x5
 1119 005e 5F030000 		.4byte	.LASF5
 1120 0062 03       		.uleb128 0x3
 1121 0063 72010000 		.4byte	.LASF6
 1122 0067 03       		.byte	0x3
 1123 0068 36       		.byte	0x36
 1124 0069 6D000000 		.4byte	0x6d
 1125 006d 04       		.uleb128 0x4
 1126 006e 02       		.byte	0x2
 1127 006f 07       		.byte	0x7
 1128 0070 BF010000 		.4byte	.LASF7
 1129 0074 03       		.uleb128 0x3
 1130 0075 1D030000 		.4byte	.LASF8
 1131 0079 03       		.byte	0x3
 1132 007a 4F       		.byte	0x4f
 1133 007b 7F000000 		.4byte	0x7f
 1134 007f 04       		.uleb128 0x4
 1135 0080 04       		.byte	0x4
 1136 0081 05       		.byte	0x5
 1137 0082 F7000000 		.4byte	.LASF9
 1138 0086 03       		.uleb128 0x3
 1139 0087 AD030000 		.4byte	.LASF10
 1140 008b 03       		.byte	0x3
 1141 008c 50       		.byte	0x50
 1142 008d 91000000 		.4byte	0x91
 1143 0091 04       		.uleb128 0x4
 1144 0092 04       		.byte	0x4
 1145 0093 07       		.byte	0x7
 1146 0094 CD030000 		.4byte	.LASF11
 1147 0098 04       		.uleb128 0x4
 1148 0099 08       		.byte	0x8
 1149 009a 05       		.byte	0x5
 1150 009b BB000000 		.4byte	.LASF12
 1151 009f 03       		.uleb128 0x3
 1152 00a0 3C000000 		.4byte	.LASF13
ARM GAS  C:\Users\z80\AppData\Local\Temp\ccxb23Xc.s 			page 22


 1153 00a4 03       		.byte	0x3
 1154 00a5 78       		.byte	0x78
 1155 00a6 AA000000 		.4byte	0xaa
 1156 00aa 04       		.uleb128 0x4
 1157 00ab 08       		.byte	0x8
 1158 00ac 07       		.byte	0x7
 1159 00ad 6B000000 		.4byte	.LASF14
 1160 00b1 03       		.uleb128 0x3
 1161 00b2 5D000000 		.4byte	.LASF15
 1162 00b6 03       		.byte	0x3
 1163 00b7 A6       		.byte	0xa6
 1164 00b8 3B000000 		.4byte	0x3b
 1165 00bc 03       		.uleb128 0x3
 1166 00bd E2000000 		.4byte	.LASF16
 1167 00c1 04       		.byte	0x4
 1168 00c2 2E       		.byte	0x2e
 1169 00c3 74000000 		.4byte	0x74
 1170 00c7 03       		.uleb128 0x3
 1171 00c8 ED010000 		.4byte	.LASF17
 1172 00cc 04       		.byte	0x4
 1173 00cd 2F       		.byte	0x2f
 1174 00ce 49000000 		.4byte	0x49
 1175 00d2 03       		.uleb128 0x3
 1176 00d3 00010000 		.4byte	.LASF18
 1177 00d7 04       		.byte	0x4
 1178 00d8 30       		.byte	0x30
 1179 00d9 49000000 		.4byte	0x49
 1180 00dd 03       		.uleb128 0x3
 1181 00de 0D030000 		.4byte	.LASF19
 1182 00e2 04       		.byte	0x4
 1183 00e3 32       		.byte	0x32
 1184 00e4 86000000 		.4byte	0x86
 1185 00e8 03       		.uleb128 0x3
 1186 00e9 D2010000 		.4byte	.LASF20
 1187 00ed 04       		.byte	0x4
 1188 00ee 33       		.byte	0x33
 1189 00ef 74000000 		.4byte	0x74
 1190 00f3 03       		.uleb128 0x3
 1191 00f4 51000000 		.4byte	.LASF21
 1192 00f8 04       		.byte	0x4
 1193 00f9 35       		.byte	0x35
 1194 00fa 86000000 		.4byte	0x86
 1195 00fe 03       		.uleb128 0x3
 1196 00ff 0F040000 		.4byte	.LASF22
 1197 0103 04       		.byte	0x4
 1198 0104 36       		.byte	0x36
 1199 0105 86000000 		.4byte	0x86
 1200 0109 03       		.uleb128 0x3
 1201 010a 87030000 		.4byte	.LASF23
 1202 010e 05       		.byte	0x5
 1203 010f 2A       		.byte	0x2a
 1204 0110 14010000 		.4byte	0x114
 1205 0114 05       		.uleb128 0x5
 1206 0115 87030000 		.4byte	.LASF23
 1207 0119 48       		.byte	0x48
 1208 011a 06       		.byte	0x6
 1209 011b 5E       		.byte	0x5e
ARM GAS  C:\Users\z80\AppData\Local\Temp\ccxb23Xc.s 			page 23


 1210 011c 1D020000 		.4byte	0x21d
 1211 0120 06       		.uleb128 0x6
 1212 0121 70030000 		.4byte	.LASF24
 1213 0125 06       		.byte	0x6
 1214 0126 5F       		.byte	0x5f
 1215 0127 42020000 		.4byte	0x242
 1216 012b 02       		.byte	0x2
 1217 012c 23       		.byte	0x23
 1218 012d 00       		.uleb128 0x0
 1219 012e 06       		.uleb128 0x6
 1220 012f FC020000 		.4byte	.LASF25
 1221 0133 06       		.byte	0x6
 1222 0134 61       		.byte	0x61
 1223 0135 42020000 		.4byte	0x242
 1224 0139 02       		.byte	0x2
 1225 013a 23       		.byte	0x23
 1226 013b 04       		.uleb128 0x4
 1227 013c 06       		.uleb128 0x6
 1228 013d 4F020000 		.4byte	.LASF26
 1229 0141 06       		.byte	0x6
 1230 0142 63       		.byte	0x63
 1231 0143 DD000000 		.4byte	0xdd
 1232 0147 02       		.byte	0x2
 1233 0148 23       		.byte	0x23
 1234 0149 08       		.uleb128 0x8
 1235 014a 06       		.uleb128 0x6
 1236 014b FB040000 		.4byte	.LASF27
 1237 014f 06       		.byte	0x6
 1238 0150 64       		.byte	0x64
 1239 0151 1A030000 		.4byte	0x31a
 1240 0155 02       		.byte	0x2
 1241 0156 23       		.byte	0x23
 1242 0157 0C       		.uleb128 0xc
 1243 0158 06       		.uleb128 0x6
 1244 0159 1A010000 		.4byte	.LASF28
 1245 015d 06       		.byte	0x6
 1246 015e 66       		.byte	0x66
 1247 015f 42020000 		.4byte	0x242
 1248 0163 02       		.byte	0x2
 1249 0164 23       		.byte	0x23
 1250 0165 10       		.uleb128 0x10
 1251 0166 06       		.uleb128 0x6
 1252 0167 5E020000 		.4byte	.LASF29
 1253 016b 06       		.byte	0x6
 1254 016c 67       		.byte	0x67
 1255 016d 42020000 		.4byte	0x242
 1256 0171 02       		.byte	0x2
 1257 0172 23       		.byte	0x23
 1258 0173 14       		.uleb128 0x14
 1259 0174 06       		.uleb128 0x6
 1260 0175 65040000 		.4byte	.LASF30
 1261 0179 06       		.byte	0x6
 1262 017a 6E       		.byte	0x6e
 1263 017b 30040000 		.4byte	0x430
 1264 017f 02       		.byte	0x2
 1265 0180 23       		.byte	0x23
 1266 0181 18       		.uleb128 0x18
ARM GAS  C:\Users\z80\AppData\Local\Temp\ccxb23Xc.s 			page 24


 1267 0182 06       		.uleb128 0x6
 1268 0183 24040000 		.4byte	.LASF31
 1269 0187 06       		.byte	0x6
 1270 0188 74       		.byte	0x74
 1271 0189 42040000 		.4byte	0x442
 1272 018d 02       		.byte	0x2
 1273 018e 23       		.byte	0x23
 1274 018f 1C       		.uleb128 0x1c
 1275 0190 06       		.uleb128 0x6
 1276 0191 4D030000 		.4byte	.LASF32
 1277 0195 06       		.byte	0x6
 1278 0196 79       		.byte	0x79
 1279 0197 D2000000 		.4byte	0xd2
 1280 019b 02       		.byte	0x2
 1281 019c 23       		.byte	0x23
 1282 019d 20       		.uleb128 0x20
 1283 019e 06       		.uleb128 0x6
 1284 019f 77030000 		.4byte	.LASF33
 1285 01a3 06       		.byte	0x6
 1286 01a4 7D       		.byte	0x7d
 1287 01a5 C7000000 		.4byte	0xc7
 1288 01a9 02       		.byte	0x2
 1289 01aa 23       		.byte	0x23
 1290 01ab 21       		.uleb128 0x21
 1291 01ac 06       		.uleb128 0x6
 1292 01ad 8B010000 		.4byte	.LASF34
 1293 01b1 06       		.byte	0x6
 1294 01b2 89       		.byte	0x89
 1295 01b3 40030000 		.4byte	0x340
 1296 01b7 02       		.byte	0x2
 1297 01b8 23       		.byte	0x23
 1298 01b9 24       		.uleb128 0x24
 1299 01ba 07       		.uleb128 0x7
 1300 01bb 705F7500 		.ascii	"p_u\000"
 1301 01bf 06       		.byte	0x6
 1302 01c0 AE       		.byte	0xae
 1303 01c1 FB030000 		.4byte	0x3fb
 1304 01c5 02       		.byte	0x2
 1305 01c6 23       		.byte	0x23
 1306 01c7 28       		.uleb128 0x28
 1307 01c8 06       		.uleb128 0x6
 1308 01c9 01050000 		.4byte	.LASF35
 1309 01cd 06       		.byte	0x6
 1310 01ce B3       		.byte	0xb3
 1311 01cf 6A020000 		.4byte	0x26a
 1312 01d3 02       		.byte	0x2
 1313 01d4 23       		.byte	0x23
 1314 01d5 2C       		.uleb128 0x2c
 1315 01d6 06       		.uleb128 0x6
 1316 01d7 A1010000 		.4byte	.LASF36
 1317 01db 06       		.byte	0x6
 1318 01dc B9       		.byte	0xb9
 1319 01dd 48020000 		.4byte	0x248
 1320 01e1 02       		.byte	0x2
 1321 01e2 23       		.byte	0x23
 1322 01e3 30       		.uleb128 0x30
 1323 01e4 06       		.uleb128 0x6
ARM GAS  C:\Users\z80\AppData\Local\Temp\ccxb23Xc.s 			page 25


 1324 01e5 7D040000 		.4byte	.LASF37
 1325 01e9 06       		.byte	0x6
 1326 01ea BD       		.byte	0xbd
 1327 01eb E8000000 		.4byte	0xe8
 1328 01ef 02       		.byte	0x2
 1329 01f0 23       		.byte	0x23
 1330 01f1 38       		.uleb128 0x38
 1331 01f2 06       		.uleb128 0x6
 1332 01f3 8E030000 		.4byte	.LASF38
 1333 01f7 06       		.byte	0x6
 1334 01f8 C3       		.byte	0xc3
 1335 01f9 F3000000 		.4byte	0xf3
 1336 01fd 02       		.byte	0x2
 1337 01fe 23       		.byte	0x23
 1338 01ff 3C       		.uleb128 0x3c
 1339 0200 06       		.uleb128 0x6
 1340 0201 55030000 		.4byte	.LASF39
 1341 0205 06       		.byte	0x6
 1342 0206 CA       		.byte	0xca
 1343 0207 48040000 		.4byte	0x448
 1344 020b 02       		.byte	0x2
 1345 020c 23       		.byte	0x23
 1346 020d 40       		.uleb128 0x40
 1347 020e 06       		.uleb128 0x6
 1348 020f 19040000 		.4byte	.LASF40
 1349 0213 06       		.byte	0x6
 1350 0214 CE       		.byte	0xce
 1351 0215 DD000000 		.4byte	0xdd
 1352 0219 02       		.byte	0x2
 1353 021a 23       		.byte	0x23
 1354 021b 44       		.uleb128 0x44
 1355 021c 00       		.byte	0x0
 1356 021d 08       		.uleb128 0x8
 1357 021e 08       		.byte	0x8
 1358 021f 05       		.byte	0x5
 1359 0220 61       		.byte	0x61
 1360 0221 42020000 		.4byte	0x242
 1361 0225 06       		.uleb128 0x6
 1362 0226 70030000 		.4byte	.LASF24
 1363 022a 05       		.byte	0x5
 1364 022b 62       		.byte	0x62
 1365 022c 42020000 		.4byte	0x242
 1366 0230 02       		.byte	0x2
 1367 0231 23       		.byte	0x23
 1368 0232 00       		.uleb128 0x0
 1369 0233 06       		.uleb128 0x6
 1370 0234 FC020000 		.4byte	.LASF25
 1371 0238 05       		.byte	0x5
 1372 0239 64       		.byte	0x64
 1373 023a 42020000 		.4byte	0x242
 1374 023e 02       		.byte	0x2
 1375 023f 23       		.byte	0x23
 1376 0240 04       		.uleb128 0x4
 1377 0241 00       		.byte	0x0
 1378 0242 09       		.uleb128 0x9
 1379 0243 04       		.byte	0x4
 1380 0244 09010000 		.4byte	0x109
ARM GAS  C:\Users\z80\AppData\Local\Temp\ccxb23Xc.s 			page 26


 1381 0248 03       		.uleb128 0x3
 1382 0249 79020000 		.4byte	.LASF41
 1383 024d 05       		.byte	0x5
 1384 024e 66       		.byte	0x66
 1385 024f 1D020000 		.4byte	0x21d
 1386 0253 08       		.uleb128 0x8
 1387 0254 04       		.byte	0x4
 1388 0255 05       		.byte	0x5
 1389 0256 6B       		.byte	0x6b
 1390 0257 6A020000 		.4byte	0x26a
 1391 025b 06       		.uleb128 0x6
 1392 025c 70030000 		.4byte	.LASF24
 1393 0260 05       		.byte	0x5
 1394 0261 6D       		.byte	0x6d
 1395 0262 42020000 		.4byte	0x242
 1396 0266 02       		.byte	0x2
 1397 0267 23       		.byte	0x23
 1398 0268 00       		.uleb128 0x0
 1399 0269 00       		.byte	0x0
 1400 026a 03       		.uleb128 0x3
 1401 026b F5010000 		.4byte	.LASF42
 1402 026f 05       		.byte	0x5
 1403 0270 70       		.byte	0x70
 1404 0271 53020000 		.4byte	0x253
 1405 0275 03       		.uleb128 0x3
 1406 0276 35010000 		.4byte	.LASF43
 1407 027a 07       		.byte	0x7
 1408 027b D7       		.byte	0xd7
 1409 027c 80020000 		.4byte	0x280
 1410 0280 0A       		.uleb128 0xa
 1411 0281 04       		.byte	0x4
 1412 0282 03       		.uleb128 0x3
 1413 0283 29020000 		.4byte	.LASF44
 1414 0287 07       		.byte	0x7
 1415 0288 DD       		.byte	0xdd
 1416 0289 9F000000 		.4byte	0x9f
 1417 028d 05       		.uleb128 0x5
 1418 028e 4F040000 		.4byte	.LASF45
 1419 0292 24       		.byte	0x24
 1420 0293 07       		.byte	0x7
 1421 0294 FE       		.byte	0xfe
 1422 0295 1A030000 		.4byte	0x31a
 1423 0299 0B       		.uleb128 0xb
 1424 029a 723400   		.ascii	"r4\000"
 1425 029d 07       		.byte	0x7
 1426 029e 1101     		.2byte	0x111
 1427 02a0 75020000 		.4byte	0x275
 1428 02a4 02       		.byte	0x2
 1429 02a5 23       		.byte	0x23
 1430 02a6 00       		.uleb128 0x0
 1431 02a7 0B       		.uleb128 0xb
 1432 02a8 723500   		.ascii	"r5\000"
 1433 02ab 07       		.byte	0x7
 1434 02ac 1201     		.2byte	0x112
 1435 02ae 75020000 		.4byte	0x275
 1436 02b2 02       		.byte	0x2
 1437 02b3 23       		.byte	0x23
ARM GAS  C:\Users\z80\AppData\Local\Temp\ccxb23Xc.s 			page 27


 1438 02b4 04       		.uleb128 0x4
 1439 02b5 0B       		.uleb128 0xb
 1440 02b6 723600   		.ascii	"r6\000"
 1441 02b9 07       		.byte	0x7
 1442 02ba 1301     		.2byte	0x113
 1443 02bc 75020000 		.4byte	0x275
 1444 02c0 02       		.byte	0x2
 1445 02c1 23       		.byte	0x23
 1446 02c2 08       		.uleb128 0x8
 1447 02c3 0B       		.uleb128 0xb
 1448 02c4 723700   		.ascii	"r7\000"
 1449 02c7 07       		.byte	0x7
 1450 02c8 1401     		.2byte	0x114
 1451 02ca 75020000 		.4byte	0x275
 1452 02ce 02       		.byte	0x2
 1453 02cf 23       		.byte	0x23
 1454 02d0 0C       		.uleb128 0xc
 1455 02d1 0B       		.uleb128 0xb
 1456 02d2 723800   		.ascii	"r8\000"
 1457 02d5 07       		.byte	0x7
 1458 02d6 1501     		.2byte	0x115
 1459 02d8 75020000 		.4byte	0x275
 1460 02dc 02       		.byte	0x2
 1461 02dd 23       		.byte	0x23
 1462 02de 10       		.uleb128 0x10
 1463 02df 0B       		.uleb128 0xb
 1464 02e0 723900   		.ascii	"r9\000"
 1465 02e3 07       		.byte	0x7
 1466 02e4 1601     		.2byte	0x116
 1467 02e6 75020000 		.4byte	0x275
 1468 02ea 02       		.byte	0x2
 1469 02eb 23       		.byte	0x23
 1470 02ec 14       		.uleb128 0x14
 1471 02ed 0B       		.uleb128 0xb
 1472 02ee 72313000 		.ascii	"r10\000"
 1473 02f2 07       		.byte	0x7
 1474 02f3 1701     		.2byte	0x117
 1475 02f5 75020000 		.4byte	0x275
 1476 02f9 02       		.byte	0x2
 1477 02fa 23       		.byte	0x23
 1478 02fb 18       		.uleb128 0x18
 1479 02fc 0B       		.uleb128 0xb
 1480 02fd 72313100 		.ascii	"r11\000"
 1481 0301 07       		.byte	0x7
 1482 0302 1801     		.2byte	0x118
 1483 0304 75020000 		.4byte	0x275
 1484 0308 02       		.byte	0x2
 1485 0309 23       		.byte	0x23
 1486 030a 1C       		.uleb128 0x1c
 1487 030b 0B       		.uleb128 0xb
 1488 030c 6C7200   		.ascii	"lr\000"
 1489 030f 07       		.byte	0x7
 1490 0310 1901     		.2byte	0x119
 1491 0312 75020000 		.4byte	0x275
 1492 0316 02       		.byte	0x2
 1493 0317 23       		.byte	0x23
 1494 0318 20       		.uleb128 0x20
ARM GAS  C:\Users\z80\AppData\Local\Temp\ccxb23Xc.s 			page 28


 1495 0319 00       		.byte	0x0
 1496 031a 0C       		.uleb128 0xc
 1497 031b 47040000 		.4byte	.LASF46
 1498 031f 04       		.byte	0x4
 1499 0320 07       		.byte	0x7
 1500 0321 2301     		.2byte	0x123
 1501 0323 37030000 		.4byte	0x337
 1502 0327 0B       		.uleb128 0xb
 1503 0328 72313300 		.ascii	"r13\000"
 1504 032c 07       		.byte	0x7
 1505 032d 2401     		.2byte	0x124
 1506 032f 37030000 		.4byte	0x337
 1507 0333 02       		.byte	0x2
 1508 0334 23       		.byte	0x23
 1509 0335 00       		.uleb128 0x0
 1510 0336 00       		.byte	0x0
 1511 0337 09       		.uleb128 0x9
 1512 0338 04       		.byte	0x4
 1513 0339 8D020000 		.4byte	0x28d
 1514 033d 0D       		.uleb128 0xd
 1515 033e 04       		.byte	0x4
 1516 033f 07       		.byte	0x7
 1517 0340 0E       		.uleb128 0xe
 1518 0341 FE000000 		.4byte	0xfe
 1519 0345 05       		.uleb128 0x5
 1520 0346 49020000 		.4byte	.LASF47
 1521 034a 10       		.byte	0x10
 1522 034b 08       		.byte	0x8
 1523 034c 2C       		.byte	0x2c
 1524 034d 7C030000 		.4byte	0x37c
 1525 0351 06       		.uleb128 0x6
 1526 0352 E9000000 		.4byte	.LASF48
 1527 0356 08       		.byte	0x8
 1528 0357 2D       		.byte	0x2d
 1529 0358 48020000 		.4byte	0x248
 1530 035c 02       		.byte	0x2
 1531 035d 23       		.byte	0x23
 1532 035e 00       		.uleb128 0x0
 1533 035f 06       		.uleb128 0x6
 1534 0360 F3040000 		.4byte	.LASF49
 1535 0364 08       		.byte	0x8
 1536 0365 2F       		.byte	0x2f
 1537 0366 42020000 		.4byte	0x242
 1538 036a 02       		.byte	0x2
 1539 036b 23       		.byte	0x23
 1540 036c 08       		.uleb128 0x8
 1541 036d 06       		.uleb128 0x6
 1542 036e 08040000 		.4byte	.LASF50
 1543 0372 08       		.byte	0x8
 1544 0373 31       		.byte	0x31
 1545 0374 7C030000 		.4byte	0x37c
 1546 0378 02       		.byte	0x2
 1547 0379 23       		.byte	0x23
 1548 037a 0C       		.uleb128 0xc
 1549 037b 00       		.byte	0x0
 1550 037c 09       		.uleb128 0x9
 1551 037d 04       		.byte	0x4
ARM GAS  C:\Users\z80\AppData\Local\Temp\ccxb23Xc.s 			page 29


 1552 037e 45030000 		.4byte	0x345
 1553 0382 03       		.uleb128 0x3
 1554 0383 49020000 		.4byte	.LASF47
 1555 0387 08       		.byte	0x8
 1556 0388 33       		.byte	0x33
 1557 0389 45030000 		.4byte	0x345
 1558 038d 03       		.uleb128 0x3
 1559 038e A8040000 		.4byte	.LASF51
 1560 0392 09       		.byte	0x9
 1561 0393 29       		.byte	0x29
 1562 0394 98030000 		.4byte	0x398
 1563 0398 05       		.uleb128 0x5
 1564 0399 A8040000 		.4byte	.LASF51
 1565 039d 0C       		.byte	0xc
 1566 039e 09       		.byte	0x9
 1567 039f 2E       		.byte	0x2e
 1568 03a0 CF030000 		.4byte	0x3cf
 1569 03a4 06       		.uleb128 0x6
 1570 03a5 7F030000 		.4byte	.LASF52
 1571 03a9 09       		.byte	0x9
 1572 03aa 2F       		.byte	0x2f
 1573 03ab CF030000 		.4byte	0x3cf
 1574 03af 02       		.byte	0x2
 1575 03b0 23       		.byte	0x23
 1576 03b1 00       		.uleb128 0x0
 1577 03b2 06       		.uleb128 0x6
 1578 03b3 41030000 		.4byte	.LASF53
 1579 03b7 09       		.byte	0x9
 1580 03b8 32       		.byte	0x32
 1581 03b9 42020000 		.4byte	0x242
 1582 03bd 02       		.byte	0x2
 1583 03be 23       		.byte	0x23
 1584 03bf 04       		.uleb128 0x4
 1585 03c0 06       		.uleb128 0x6
 1586 03c1 56020000 		.4byte	.LASF54
 1587 03c5 09       		.byte	0x9
 1588 03c6 34       		.byte	0x34
 1589 03c7 F3000000 		.4byte	0xf3
 1590 03cb 02       		.byte	0x2
 1591 03cc 23       		.byte	0x23
 1592 03cd 08       		.uleb128 0x8
 1593 03ce 00       		.byte	0x0
 1594 03cf 09       		.uleb128 0x9
 1595 03d0 04       		.byte	0x4
 1596 03d1 8D030000 		.4byte	0x38d
 1597 03d5 05       		.uleb128 0x5
 1598 03d6 3E010000 		.4byte	.LASF55
 1599 03da 04       		.byte	0x4
 1600 03db 09       		.byte	0x9
 1601 03dc 3C       		.byte	0x3c
 1602 03dd F0030000 		.4byte	0x3f0
 1603 03e1 06       		.uleb128 0x6
 1604 03e2 6C040000 		.4byte	.LASF56
 1605 03e6 09       		.byte	0x9
 1606 03e7 3D       		.byte	0x3d
 1607 03e8 CF030000 		.4byte	0x3cf
 1608 03ec 02       		.byte	0x2
ARM GAS  C:\Users\z80\AppData\Local\Temp\ccxb23Xc.s 			page 30


 1609 03ed 23       		.byte	0x23
 1610 03ee 00       		.uleb128 0x0
 1611 03ef 00       		.byte	0x0
 1612 03f0 03       		.uleb128 0x3
 1613 03f1 3E010000 		.4byte	.LASF55
 1614 03f5 09       		.byte	0x9
 1615 03f6 40       		.byte	0x40
 1616 03f7 D5030000 		.4byte	0x3d5
 1617 03fb 0F       		.uleb128 0xf
 1618 03fc 04       		.byte	0x4
 1619 03fd 06       		.byte	0x6
 1620 03fe 90       		.byte	0x90
 1621 03ff 30040000 		.4byte	0x430
 1622 0403 10       		.uleb128 0x10
 1623 0404 35000000 		.4byte	.LASF57
 1624 0408 06       		.byte	0x6
 1625 0409 97       		.byte	0x97
 1626 040a E8000000 		.4byte	0xe8
 1627 040e 10       		.uleb128 0x10
 1628 040f 82000000 		.4byte	.LASF58
 1629 0413 06       		.byte	0x6
 1630 0414 9E       		.byte	0x9e
 1631 0415 E8000000 		.4byte	0xe8
 1632 0419 10       		.uleb128 0x10
 1633 041a C2040000 		.4byte	.LASF59
 1634 041e 06       		.byte	0x6
 1635 041f A5       		.byte	0xa5
 1636 0420 80020000 		.4byte	0x280
 1637 0424 10       		.uleb128 0x10
 1638 0425 69030000 		.4byte	.LASF60
 1639 0429 06       		.byte	0x6
 1640 042a AC       		.byte	0xac
 1641 042b F3000000 		.4byte	0xf3
 1642 042f 00       		.byte	0x0
 1643 0430 09       		.uleb128 0x9
 1644 0431 04       		.byte	0x4
 1645 0432 36040000 		.4byte	0x436
 1646 0436 11       		.uleb128 0x11
 1647 0437 3B040000 		.4byte	0x43b
 1648 043b 04       		.uleb128 0x4
 1649 043c 01       		.byte	0x1
 1650 043d 08       		.byte	0x8
 1651 043e E4030000 		.4byte	.LASF61
 1652 0442 09       		.uleb128 0x9
 1653 0443 04       		.byte	0x4
 1654 0444 82020000 		.4byte	0x282
 1655 0448 09       		.uleb128 0x9
 1656 0449 04       		.byte	0x4
 1657 044a 82030000 		.4byte	0x382
 1658 044e 03       		.uleb128 0x3
 1659 044f 1C020000 		.4byte	.LASF62
 1660 0453 0A       		.byte	0xa
 1661 0454 37       		.byte	0x37
 1662 0455 59040000 		.4byte	0x459
 1663 0459 05       		.uleb128 0x5
 1664 045a 1C020000 		.4byte	.LASF62
 1665 045e 20       		.byte	0x20
ARM GAS  C:\Users\z80\AppData\Local\Temp\ccxb23Xc.s 			page 31


 1666 045f 0A       		.byte	0xa
 1667 0460 45       		.byte	0x45
 1668 0461 C8040000 		.4byte	0x4c8
 1669 0465 06       		.uleb128 0x6
 1670 0466 B1000000 		.4byte	.LASF63
 1671 046a 0A       		.byte	0xa
 1672 046b 46       		.byte	0x46
 1673 046c 48020000 		.4byte	0x248
 1674 0470 02       		.byte	0x2
 1675 0471 23       		.byte	0x23
 1676 0472 00       		.uleb128 0x0
 1677 0473 06       		.uleb128 0x6
 1678 0474 3F020000 		.4byte	.LASF64
 1679 0478 0A       		.byte	0xa
 1680 0479 47       		.byte	0x47
 1681 047a 30000000 		.4byte	0x30
 1682 047e 02       		.byte	0x2
 1683 047f 23       		.byte	0x23
 1684 0480 08       		.uleb128 0x8
 1685 0481 06       		.uleb128 0x6
 1686 0482 09010000 		.4byte	.LASF65
 1687 0486 0A       		.byte	0xa
 1688 0487 48       		.byte	0x48
 1689 0488 EB040000 		.4byte	0x4eb
 1690 048c 02       		.byte	0x2
 1691 048d 23       		.byte	0x23
 1692 048e 0C       		.uleb128 0xc
 1693 048f 06       		.uleb128 0x6
 1694 0490 5F040000 		.4byte	.LASF66
 1695 0494 0A       		.byte	0xa
 1696 0495 49       		.byte	0x49
 1697 0496 EB040000 		.4byte	0x4eb
 1698 049a 02       		.byte	0x2
 1699 049b 23       		.byte	0x23
 1700 049c 10       		.uleb128 0x10
 1701 049d 06       		.uleb128 0x6
 1702 049e 12010000 		.4byte	.LASF67
 1703 04a2 0A       		.byte	0xa
 1704 04a3 4B       		.byte	0x4b
 1705 04a4 EB040000 		.4byte	0x4eb
 1706 04a8 02       		.byte	0x2
 1707 04a9 23       		.byte	0x23
 1708 04aa 14       		.uleb128 0x14
 1709 04ab 06       		.uleb128 0x6
 1710 04ac 15030000 		.4byte	.LASF68
 1711 04b0 0A       		.byte	0xa
 1712 04b1 4C       		.byte	0x4c
 1713 04b2 EB040000 		.4byte	0x4eb
 1714 04b6 02       		.byte	0x2
 1715 04b7 23       		.byte	0x23
 1716 04b8 18       		.uleb128 0x18
 1717 04b9 06       		.uleb128 0x6
 1718 04ba 74040000 		.4byte	.LASF69
 1719 04be 0A       		.byte	0xa
 1720 04bf 4D       		.byte	0x4d
 1721 04c0 C8040000 		.4byte	0x4c8
 1722 04c4 02       		.byte	0x2
ARM GAS  C:\Users\z80\AppData\Local\Temp\ccxb23Xc.s 			page 32


 1723 04c5 23       		.byte	0x23
 1724 04c6 1C       		.uleb128 0x1c
 1725 04c7 00       		.byte	0x0
 1726 04c8 03       		.uleb128 0x3
 1727 04c9 12020000 		.4byte	.LASF70
 1728 04cd 0A       		.byte	0xa
 1729 04ce 3A       		.byte	0x3a
 1730 04cf D3040000 		.4byte	0x4d3
 1731 04d3 09       		.uleb128 0x9
 1732 04d4 04       		.byte	0x4
 1733 04d5 D9040000 		.4byte	0x4d9
 1734 04d9 12       		.uleb128 0x12
 1735 04da 01       		.byte	0x1
 1736 04db E5040000 		.4byte	0x4e5
 1737 04df 13       		.uleb128 0x13
 1738 04e0 E5040000 		.4byte	0x4e5
 1739 04e4 00       		.byte	0x0
 1740 04e5 09       		.uleb128 0x9
 1741 04e6 04       		.byte	0x4
 1742 04e7 4E040000 		.4byte	0x44e
 1743 04eb 09       		.uleb128 0x9
 1744 04ec 04       		.byte	0x4
 1745 04ed 49000000 		.4byte	0x49
 1746 04f1 03       		.uleb128 0x3
 1747 04f2 07020000 		.4byte	.LASF71
 1748 04f6 0A       		.byte	0xa
 1749 04f7 76       		.byte	0x76
 1750 04f8 4E040000 		.4byte	0x44e
 1751 04fc 03       		.uleb128 0x3
 1752 04fd 45000000 		.4byte	.LASF72
 1753 0501 0A       		.byte	0xa
 1754 0502 E6       		.byte	0xe6
 1755 0503 4E040000 		.4byte	0x44e
 1756 0507 14       		.uleb128 0x14
 1757 0508 01       		.byte	0x1
 1758 0509 30000000 		.4byte	0x30
 1759 050d 21050000 		.4byte	0x521
 1760 0511 13       		.uleb128 0x13
 1761 0512 80020000 		.4byte	0x280
 1762 0516 13       		.uleb128 0x13
 1763 0517 21050000 		.4byte	0x521
 1764 051b 13       		.uleb128 0x13
 1765 051c 30000000 		.4byte	0x30
 1766 0520 00       		.byte	0x0
 1767 0521 09       		.uleb128 0x9
 1768 0522 04       		.byte	0x4
 1769 0523 27050000 		.4byte	0x527
 1770 0527 11       		.uleb128 0x11
 1771 0528 49000000 		.4byte	0x49
 1772 052c 09       		.uleb128 0x9
 1773 052d 04       		.byte	0x4
 1774 052e 07050000 		.4byte	0x507
 1775 0532 14       		.uleb128 0x14
 1776 0533 01       		.byte	0x1
 1777 0534 30000000 		.4byte	0x30
 1778 0538 4C050000 		.4byte	0x54c
 1779 053c 13       		.uleb128 0x13
ARM GAS  C:\Users\z80\AppData\Local\Temp\ccxb23Xc.s 			page 33


 1780 053d 80020000 		.4byte	0x280
 1781 0541 13       		.uleb128 0x13
 1782 0542 EB040000 		.4byte	0x4eb
 1783 0546 13       		.uleb128 0x13
 1784 0547 30000000 		.4byte	0x30
 1785 054b 00       		.byte	0x0
 1786 054c 09       		.uleb128 0x9
 1787 054d 04       		.byte	0x4
 1788 054e 32050000 		.4byte	0x532
 1789 0552 14       		.uleb128 0x14
 1790 0553 01       		.byte	0x1
 1791 0554 BC000000 		.4byte	0xbc
 1792 0558 62050000 		.4byte	0x562
 1793 055c 13       		.uleb128 0x13
 1794 055d 80020000 		.4byte	0x280
 1795 0561 00       		.byte	0x0
 1796 0562 09       		.uleb128 0x9
 1797 0563 04       		.byte	0x4
 1798 0564 52050000 		.4byte	0x552
 1799 0568 14       		.uleb128 0x14
 1800 0569 01       		.byte	0x1
 1801 056a E8000000 		.4byte	0xe8
 1802 056e 82050000 		.4byte	0x582
 1803 0572 13       		.uleb128 0x13
 1804 0573 80020000 		.4byte	0x280
 1805 0577 13       		.uleb128 0x13
 1806 0578 49000000 		.4byte	0x49
 1807 057c 13       		.uleb128 0x13
 1808 057d FE000000 		.4byte	0xfe
 1809 0581 00       		.byte	0x0
 1810 0582 09       		.uleb128 0x9
 1811 0583 04       		.byte	0x4
 1812 0584 68050000 		.4byte	0x568
 1813 0588 14       		.uleb128 0x14
 1814 0589 01       		.byte	0x1
 1815 058a E8000000 		.4byte	0xe8
 1816 058e 9D050000 		.4byte	0x59d
 1817 0592 13       		.uleb128 0x13
 1818 0593 80020000 		.4byte	0x280
 1819 0597 13       		.uleb128 0x13
 1820 0598 FE000000 		.4byte	0xfe
 1821 059c 00       		.byte	0x0
 1822 059d 09       		.uleb128 0x9
 1823 059e 04       		.byte	0x4
 1824 059f 88050000 		.4byte	0x588
 1825 05a3 14       		.uleb128 0x14
 1826 05a4 01       		.byte	0x1
 1827 05a5 30000000 		.4byte	0x30
 1828 05a9 C2050000 		.4byte	0x5c2
 1829 05ad 13       		.uleb128 0x13
 1830 05ae 80020000 		.4byte	0x280
 1831 05b2 13       		.uleb128 0x13
 1832 05b3 21050000 		.4byte	0x521
 1833 05b7 13       		.uleb128 0x13
 1834 05b8 30000000 		.4byte	0x30
 1835 05bc 13       		.uleb128 0x13
 1836 05bd FE000000 		.4byte	0xfe
ARM GAS  C:\Users\z80\AppData\Local\Temp\ccxb23Xc.s 			page 34


 1837 05c1 00       		.byte	0x0
 1838 05c2 09       		.uleb128 0x9
 1839 05c3 04       		.byte	0x4
 1840 05c4 A3050000 		.4byte	0x5a3
 1841 05c8 14       		.uleb128 0x14
 1842 05c9 01       		.byte	0x1
 1843 05ca 30000000 		.4byte	0x30
 1844 05ce E7050000 		.4byte	0x5e7
 1845 05d2 13       		.uleb128 0x13
 1846 05d3 80020000 		.4byte	0x280
 1847 05d7 13       		.uleb128 0x13
 1848 05d8 EB040000 		.4byte	0x4eb
 1849 05dc 13       		.uleb128 0x13
 1850 05dd 30000000 		.4byte	0x30
 1851 05e1 13       		.uleb128 0x13
 1852 05e2 FE000000 		.4byte	0xfe
 1853 05e6 00       		.byte	0x0
 1854 05e7 09       		.uleb128 0x9
 1855 05e8 04       		.byte	0x4
 1856 05e9 C8050000 		.4byte	0x5c8
 1857 05ed 15       		.uleb128 0x15
 1858 05ee 6F020000 		.4byte	.LASF73
 1859 05f2 0B       		.byte	0xb
 1860 05f3 0B01     		.2byte	0x10b
 1861 05f5 B1000000 		.4byte	0xb1
 1862 05f9 0C       		.uleb128 0xc
 1863 05fa 4A010000 		.4byte	.LASF74
 1864 05fe 24       		.byte	0x24
 1865 05ff 0B       		.byte	0xb
 1866 0600 2401     		.2byte	0x124
 1867 0602 8E060000 		.4byte	0x68e
 1868 0606 16       		.uleb128 0x16
 1869 0607 34020000 		.4byte	.LASF75
 1870 060b 0B       		.byte	0xb
 1871 060c 2501     		.2byte	0x125
 1872 060e 2C050000 		.4byte	0x52c
 1873 0612 02       		.byte	0x2
 1874 0613 23       		.byte	0x23
 1875 0614 00       		.uleb128 0x0
 1876 0615 16       		.uleb128 0x16
 1877 0616 DF030000 		.4byte	.LASF76
 1878 061a 0B       		.byte	0xb
 1879 061b 2501     		.2byte	0x125
 1880 061d 4C050000 		.4byte	0x54c
 1881 0621 02       		.byte	0x2
 1882 0622 23       		.byte	0x23
 1883 0623 04       		.uleb128 0x4
 1884 0624 16       		.uleb128 0x16
 1885 0625 22010000 		.4byte	.LASF77
 1886 0629 0B       		.byte	0xb
 1887 062a 2501     		.2byte	0x125
 1888 062c 62050000 		.4byte	0x562
 1889 0630 02       		.byte	0x2
 1890 0631 23       		.byte	0x23
 1891 0632 08       		.uleb128 0x8
 1892 0633 16       		.uleb128 0x16
 1893 0634 C9040000 		.4byte	.LASF78
ARM GAS  C:\Users\z80\AppData\Local\Temp\ccxb23Xc.s 			page 35


 1894 0638 0B       		.byte	0xb
 1895 0639 2501     		.2byte	0x125
 1896 063b 62050000 		.4byte	0x562
 1897 063f 02       		.byte	0x2
 1898 0640 23       		.byte	0x23
 1899 0641 0C       		.uleb128 0xc
 1900 0642 0B       		.uleb128 0xb
 1901 0643 70757400 		.ascii	"put\000"
 1902 0647 0B       		.byte	0xb
 1903 0648 2501     		.2byte	0x125
 1904 064a 82050000 		.4byte	0x582
 1905 064e 02       		.byte	0x2
 1906 064f 23       		.byte	0x23
 1907 0650 10       		.uleb128 0x10
 1908 0651 0B       		.uleb128 0xb
 1909 0652 67657400 		.ascii	"get\000"
 1910 0656 0B       		.byte	0xb
 1911 0657 2501     		.2byte	0x125
 1912 0659 9D050000 		.4byte	0x59d
 1913 065d 02       		.byte	0x2
 1914 065e 23       		.byte	0x23
 1915 065f 14       		.uleb128 0x14
 1916 0660 16       		.uleb128 0x16
 1917 0661 E6010000 		.4byte	.LASF79
 1918 0665 0B       		.byte	0xb
 1919 0666 2501     		.2byte	0x125
 1920 0668 C2050000 		.4byte	0x5c2
 1921 066c 02       		.byte	0x2
 1922 066d 23       		.byte	0x23
 1923 066e 18       		.uleb128 0x18
 1924 066f 16       		.uleb128 0x16
 1925 0670 AB000000 		.4byte	.LASF80
 1926 0674 0B       		.byte	0xb
 1927 0675 2501     		.2byte	0x125
 1928 0677 E7050000 		.4byte	0x5e7
 1929 067b 02       		.byte	0x2
 1930 067c 23       		.byte	0x23
 1931 067d 1C       		.uleb128 0x1c
 1932 067e 16       		.uleb128 0x16
 1933 067f 66020000 		.4byte	.LASF81
 1934 0683 0B       		.byte	0xb
 1935 0684 2501     		.2byte	0x125
 1936 0686 9E060000 		.4byte	0x69e
 1937 068a 02       		.byte	0x2
 1938 068b 23       		.byte	0x23
 1939 068c 20       		.uleb128 0x20
 1940 068d 00       		.byte	0x0
 1941 068e 14       		.uleb128 0x14
 1942 068f 01       		.byte	0x1
 1943 0690 ED050000 		.4byte	0x5ed
 1944 0694 9E060000 		.4byte	0x69e
 1945 0698 13       		.uleb128 0x13
 1946 0699 80020000 		.4byte	0x280
 1947 069d 00       		.byte	0x0
 1948 069e 09       		.uleb128 0x9
 1949 069f 04       		.byte	0x4
 1950 06a0 8E060000 		.4byte	0x68e
ARM GAS  C:\Users\z80\AppData\Local\Temp\ccxb23Xc.s 			page 36


 1951 06a4 17       		.uleb128 0x17
 1952 06a5 0C       		.byte	0xc
 1953 06a6 0B       		.byte	0xb
 1954 06a7 2F01     		.2byte	0x12f
 1955 06a9 DB060000 		.4byte	0x6db
 1956 06ad 0B       		.uleb128 0xb
 1957 06ae 766D7400 		.ascii	"vmt\000"
 1958 06b2 0B       		.byte	0xb
 1959 06b3 3101     		.2byte	0x131
 1960 06b5 DB060000 		.4byte	0x6db
 1961 06b9 02       		.byte	0x2
 1962 06ba 23       		.byte	0x23
 1963 06bb 00       		.uleb128 0x0
 1964 06bc 16       		.uleb128 0x16
 1965 06bd B9010000 		.4byte	.LASF82
 1966 06c1 0B       		.byte	0xb
 1967 06c2 3201     		.2byte	0x132
 1968 06c4 F0030000 		.4byte	0x3f0
 1969 06c8 02       		.byte	0x2
 1970 06c9 23       		.byte	0x23
 1971 06ca 04       		.uleb128 0x4
 1972 06cb 16       		.uleb128 0x16
 1973 06cc 9A040000 		.4byte	.LASF83
 1974 06d0 0B       		.byte	0xb
 1975 06d1 3201     		.2byte	0x132
 1976 06d3 ED050000 		.4byte	0x5ed
 1977 06d7 02       		.byte	0x2
 1978 06d8 23       		.byte	0x23
 1979 06d9 08       		.uleb128 0x8
 1980 06da 00       		.byte	0x0
 1981 06db 09       		.uleb128 0x9
 1982 06dc 04       		.byte	0x4
 1983 06dd E1060000 		.4byte	0x6e1
 1984 06e1 11       		.uleb128 0x11
 1985 06e2 F9050000 		.4byte	0x5f9
 1986 06e6 15       		.uleb128 0x15
 1987 06e7 2F040000 		.4byte	.LASF84
 1988 06eb 0B       		.byte	0xb
 1989 06ec 3301     		.2byte	0x133
 1990 06ee A4060000 		.4byte	0x6a4
 1991 06f2 0E       		.uleb128 0xe
 1992 06f3 62000000 		.4byte	0x62
 1993 06f7 0E       		.uleb128 0xe
 1994 06f8 74000000 		.4byte	0x74
 1995 06fc 17       		.uleb128 0x17
 1996 06fd 1C       		.byte	0x1c
 1997 06fe 0C       		.byte	0xc
 1998 06ff E104     		.2byte	0x4e1
 1999 0701 D6070000 		.4byte	0x7d6
 2000 0705 0B       		.uleb128 0xb
 2001 0706 535200   		.ascii	"SR\000"
 2002 0709 0C       		.byte	0xc
 2003 070a E304     		.2byte	0x4e3
 2004 070c F2060000 		.4byte	0x6f2
 2005 0710 02       		.byte	0x2
 2006 0711 23       		.byte	0x23
 2007 0712 00       		.uleb128 0x0
ARM GAS  C:\Users\z80\AppData\Local\Temp\ccxb23Xc.s 			page 37


 2008 0713 16       		.uleb128 0x16
 2009 0714 CA020000 		.4byte	.LASF85
 2010 0718 0C       		.byte	0xc
 2011 0719 E404     		.2byte	0x4e4
 2012 071b 62000000 		.4byte	0x62
 2013 071f 02       		.byte	0x2
 2014 0720 23       		.byte	0x23
 2015 0721 02       		.uleb128 0x2
 2016 0722 0B       		.uleb128 0xb
 2017 0723 445200   		.ascii	"DR\000"
 2018 0726 0C       		.byte	0xc
 2019 0727 E504     		.2byte	0x4e5
 2020 0729 F2060000 		.4byte	0x6f2
 2021 072d 02       		.byte	0x2
 2022 072e 23       		.byte	0x23
 2023 072f 04       		.uleb128 0x4
 2024 0730 16       		.uleb128 0x16
 2025 0731 D4020000 		.4byte	.LASF86
 2026 0735 0C       		.byte	0xc
 2027 0736 E604     		.2byte	0x4e6
 2028 0738 62000000 		.4byte	0x62
 2029 073c 02       		.byte	0x2
 2030 073d 23       		.byte	0x23
 2031 073e 06       		.uleb128 0x6
 2032 073f 0B       		.uleb128 0xb
 2033 0740 42525200 		.ascii	"BRR\000"
 2034 0744 0C       		.byte	0xc
 2035 0745 E704     		.2byte	0x4e7
 2036 0747 F2060000 		.4byte	0x6f2
 2037 074b 02       		.byte	0x2
 2038 074c 23       		.byte	0x23
 2039 074d 08       		.uleb128 0x8
 2040 074e 16       		.uleb128 0x16
 2041 074f DE020000 		.4byte	.LASF87
 2042 0753 0C       		.byte	0xc
 2043 0754 E804     		.2byte	0x4e8
 2044 0756 62000000 		.4byte	0x62
 2045 075a 02       		.byte	0x2
 2046 075b 23       		.byte	0x23
 2047 075c 0A       		.uleb128 0xa
 2048 075d 0B       		.uleb128 0xb
 2049 075e 43523100 		.ascii	"CR1\000"
 2050 0762 0C       		.byte	0xc
 2051 0763 E904     		.2byte	0x4e9
 2052 0765 F2060000 		.4byte	0x6f2
 2053 0769 02       		.byte	0x2
 2054 076a 23       		.byte	0x23
 2055 076b 0C       		.uleb128 0xc
 2056 076c 16       		.uleb128 0x16
 2057 076d E8020000 		.4byte	.LASF88
 2058 0771 0C       		.byte	0xc
 2059 0772 EA04     		.2byte	0x4ea
 2060 0774 62000000 		.4byte	0x62
 2061 0778 02       		.byte	0x2
 2062 0779 23       		.byte	0x23
 2063 077a 0E       		.uleb128 0xe
 2064 077b 0B       		.uleb128 0xb
ARM GAS  C:\Users\z80\AppData\Local\Temp\ccxb23Xc.s 			page 38


 2065 077c 43523200 		.ascii	"CR2\000"
 2066 0780 0C       		.byte	0xc
 2067 0781 EB04     		.2byte	0x4eb
 2068 0783 F2060000 		.4byte	0x6f2
 2069 0787 02       		.byte	0x2
 2070 0788 23       		.byte	0x23
 2071 0789 10       		.uleb128 0x10
 2072 078a 16       		.uleb128 0x16
 2073 078b F2020000 		.4byte	.LASF89
 2074 078f 0C       		.byte	0xc
 2075 0790 EC04     		.2byte	0x4ec
 2076 0792 62000000 		.4byte	0x62
 2077 0796 02       		.byte	0x2
 2078 0797 23       		.byte	0x23
 2079 0798 12       		.uleb128 0x12
 2080 0799 0B       		.uleb128 0xb
 2081 079a 43523300 		.ascii	"CR3\000"
 2082 079e 0C       		.byte	0xc
 2083 079f ED04     		.2byte	0x4ed
 2084 07a1 F2060000 		.4byte	0x6f2
 2085 07a5 02       		.byte	0x2
 2086 07a6 23       		.byte	0x23
 2087 07a7 14       		.uleb128 0x14
 2088 07a8 16       		.uleb128 0x16
 2089 07a9 A3030000 		.4byte	.LASF90
 2090 07ad 0C       		.byte	0xc
 2091 07ae EE04     		.2byte	0x4ee
 2092 07b0 62000000 		.4byte	0x62
 2093 07b4 02       		.byte	0x2
 2094 07b5 23       		.byte	0x23
 2095 07b6 16       		.uleb128 0x16
 2096 07b7 16       		.uleb128 0x16
 2097 07b8 D5000000 		.4byte	.LASF91
 2098 07bc 0C       		.byte	0xc
 2099 07bd EF04     		.2byte	0x4ef
 2100 07bf F2060000 		.4byte	0x6f2
 2101 07c3 02       		.byte	0x2
 2102 07c4 23       		.byte	0x23
 2103 07c5 18       		.uleb128 0x18
 2104 07c6 16       		.uleb128 0x16
 2105 07c7 03030000 		.4byte	.LASF92
 2106 07cb 0C       		.byte	0xc
 2107 07cc F004     		.2byte	0x4f0
 2108 07ce 62000000 		.4byte	0x62
 2109 07d2 02       		.byte	0x2
 2110 07d3 23       		.byte	0x23
 2111 07d4 1A       		.uleb128 0x1a
 2112 07d5 00       		.byte	0x0
 2113 07d6 15       		.uleb128 0x15
 2114 07d7 33030000 		.4byte	.LASF93
 2115 07db 0C       		.byte	0xc
 2116 07dc F104     		.2byte	0x4f1
 2117 07de FC060000 		.4byte	0x6fc
 2118 07e2 18       		.uleb128 0x18
 2119 07e3 01       		.byte	0x1
 2120 07e4 0D       		.byte	0xd
 2121 07e5 64       		.byte	0x64
ARM GAS  C:\Users\z80\AppData\Local\Temp\ccxb23Xc.s 			page 39


 2122 07e6 FD070000 		.4byte	0x7fd
 2123 07ea 19       		.uleb128 0x19
 2124 07eb 99030000 		.4byte	.LASF94
 2125 07ef 00       		.sleb128 0
 2126 07f0 19       		.uleb128 0x19
 2127 07f1 DA000000 		.4byte	.LASF95
 2128 07f5 01       		.sleb128 1
 2129 07f6 19       		.uleb128 0x19
 2130 07f7 56040000 		.4byte	.LASF96
 2131 07fb 02       		.sleb128 2
 2132 07fc 00       		.byte	0x0
 2133 07fd 03       		.uleb128 0x3
 2134 07fe B6030000 		.4byte	.LASF97
 2135 0802 0D       		.byte	0xd
 2136 0803 68       		.byte	0x68
 2137 0804 E2070000 		.4byte	0x7e2
 2138 0808 03       		.uleb128 0x3
 2139 0809 C0030000 		.4byte	.LASF98
 2140 080d 0D       		.byte	0xd
 2141 080e 6D       		.byte	0x6d
 2142 080f 13080000 		.4byte	0x813
 2143 0813 05       		.uleb128 0x5
 2144 0814 C0030000 		.4byte	.LASF98
 2145 0818 D4       		.byte	0xd4
 2146 0819 0D       		.byte	0xd
 2147 081a 87       		.byte	0x87
 2148 081b 9E080000 		.4byte	0x89e
 2149 081f 07       		.uleb128 0x7
 2150 0820 766D7400 		.ascii	"vmt\000"
 2151 0824 0D       		.byte	0xd
 2152 0825 89       		.byte	0x89
 2153 0826 75090000 		.4byte	0x975
 2154 082a 02       		.byte	0x2
 2155 082b 23       		.byte	0x23
 2156 082c 00       		.uleb128 0x0
 2157 082d 06       		.uleb128 0x6
 2158 082e B9010000 		.4byte	.LASF82
 2159 0832 0D       		.byte	0xd
 2160 0833 8A       		.byte	0x8a
 2161 0834 F0030000 		.4byte	0x3f0
 2162 0838 02       		.byte	0x2
 2163 0839 23       		.byte	0x23
 2164 083a 04       		.uleb128 0x4
 2165 083b 06       		.uleb128 0x6
 2166 083c 9A040000 		.4byte	.LASF83
 2167 0840 0D       		.byte	0xd
 2168 0841 8A       		.byte	0x8a
 2169 0842 ED050000 		.4byte	0x5ed
 2170 0846 02       		.byte	0x2
 2171 0847 23       		.byte	0x23
 2172 0848 08       		.uleb128 0x8
 2173 0849 06       		.uleb128 0x6
 2174 084a F1000000 		.4byte	.LASF99
 2175 084e 0D       		.byte	0xd
 2176 084f 8A       		.byte	0x8a
 2177 0850 FD070000 		.4byte	0x7fd
 2178 0854 02       		.byte	0x2
ARM GAS  C:\Users\z80\AppData\Local\Temp\ccxb23Xc.s 			page 40


 2179 0855 23       		.byte	0x23
 2180 0856 0C       		.uleb128 0xc
 2181 0857 06       		.uleb128 0x6
 2182 0858 9A010000 		.4byte	.LASF100
 2183 085c 0D       		.byte	0xd
 2184 085d 8A       		.byte	0x8a
 2185 085e F1040000 		.4byte	0x4f1
 2186 0862 02       		.byte	0x2
 2187 0863 23       		.byte	0x23
 2188 0864 10       		.uleb128 0x10
 2189 0865 06       		.uleb128 0x6
 2190 0866 D8010000 		.4byte	.LASF101
 2191 086a 0D       		.byte	0xd
 2192 086b 8A       		.byte	0x8a
 2193 086c FC040000 		.4byte	0x4fc
 2194 0870 02       		.byte	0x2
 2195 0871 23       		.byte	0x23
 2196 0872 30       		.uleb128 0x30
 2197 0873 07       		.uleb128 0x7
 2198 0874 696200   		.ascii	"ib\000"
 2199 0877 0D       		.byte	0xd
 2200 0878 8A       		.byte	0x8a
 2201 0879 80090000 		.4byte	0x980
 2202 087d 02       		.byte	0x2
 2203 087e 23       		.byte	0x23
 2204 087f 50       		.uleb128 0x50
 2205 0880 07       		.uleb128 0x7
 2206 0881 6F6200   		.ascii	"ob\000"
 2207 0884 0D       		.byte	0xd
 2208 0885 8A       		.byte	0x8a
 2209 0886 80090000 		.4byte	0x980
 2210 088a 03       		.byte	0x3
 2211 088b 23       		.byte	0x23
 2212 088c 9001     		.uleb128 0x90
 2213 088e 06       		.uleb128 0x6
 2214 088f 01020000 		.4byte	.LASF102
 2215 0893 0D       		.byte	0xd
 2216 0894 8A       		.byte	0x8a
 2217 0895 90090000 		.4byte	0x990
 2218 0899 03       		.byte	0x3
 2219 089a 23       		.byte	0x23
 2220 089b D001     		.uleb128 0xd0
 2221 089d 00       		.byte	0x0
 2222 089e 08       		.uleb128 0x8
 2223 089f 0C       		.byte	0xc
 2224 08a0 0E       		.byte	0xe
 2225 08a1 C4       		.byte	0xc4
 2226 08a2 DF080000 		.4byte	0x8df
 2227 08a6 06       		.uleb128 0x6
 2228 08a7 25000000 		.4byte	.LASF103
 2229 08ab 0E       		.byte	0xe
 2230 08ac C8       		.byte	0xc8
 2231 08ad 86000000 		.4byte	0x86
 2232 08b1 02       		.byte	0x2
 2233 08b2 23       		.byte	0x23
 2234 08b3 00       		.uleb128 0x0
 2235 08b4 06       		.uleb128 0x6
ARM GAS  C:\Users\z80\AppData\Local\Temp\ccxb23Xc.s 			page 41


 2236 08b5 D7040000 		.4byte	.LASF104
 2237 08b9 0E       		.byte	0xe
 2238 08ba CC       		.byte	0xcc
 2239 08bb 62000000 		.4byte	0x62
 2240 08bf 02       		.byte	0x2
 2241 08c0 23       		.byte	0x23
 2242 08c1 04       		.uleb128 0x4
 2243 08c2 06       		.uleb128 0x6
 2244 08c3 DE040000 		.4byte	.LASF105
 2245 08c7 0E       		.byte	0xe
 2246 08c8 D0       		.byte	0xd0
 2247 08c9 62000000 		.4byte	0x62
 2248 08cd 02       		.byte	0x2
 2249 08ce 23       		.byte	0x23
 2250 08cf 06       		.uleb128 0x6
 2251 08d0 06       		.uleb128 0x6
 2252 08d1 E5040000 		.4byte	.LASF106
 2253 08d5 0E       		.byte	0xe
 2254 08d6 D4       		.byte	0xd4
 2255 08d7 62000000 		.4byte	0x62
 2256 08db 02       		.byte	0x2
 2257 08dc 23       		.byte	0x23
 2258 08dd 08       		.uleb128 0x8
 2259 08de 00       		.byte	0x0
 2260 08df 03       		.uleb128 0x3
 2261 08e0 BD020000 		.4byte	.LASF107
 2262 08e4 0E       		.byte	0xe
 2263 08e5 D5       		.byte	0xd5
 2264 08e6 9E080000 		.4byte	0x89e
 2265 08ea 05       		.uleb128 0x5
 2266 08eb 7B010000 		.4byte	.LASF108
 2267 08ef 24       		.byte	0x24
 2268 08f0 0D       		.byte	0xd
 2269 08f1 7C       		.byte	0x7c
 2270 08f2 75090000 		.4byte	0x975
 2271 08f6 06       		.uleb128 0x6
 2272 08f7 34020000 		.4byte	.LASF75
 2273 08fb 0D       		.byte	0xd
 2274 08fc 7D       		.byte	0x7d
 2275 08fd 2C050000 		.4byte	0x52c
 2276 0901 02       		.byte	0x2
 2277 0902 23       		.byte	0x23
 2278 0903 00       		.uleb128 0x0
 2279 0904 06       		.uleb128 0x6
 2280 0905 DF030000 		.4byte	.LASF76
 2281 0909 0D       		.byte	0xd
 2282 090a 7D       		.byte	0x7d
 2283 090b 4C050000 		.4byte	0x54c
 2284 090f 02       		.byte	0x2
 2285 0910 23       		.byte	0x23
 2286 0911 04       		.uleb128 0x4
 2287 0912 06       		.uleb128 0x6
 2288 0913 22010000 		.4byte	.LASF77
 2289 0917 0D       		.byte	0xd
 2290 0918 7D       		.byte	0x7d
 2291 0919 62050000 		.4byte	0x562
 2292 091d 02       		.byte	0x2
ARM GAS  C:\Users\z80\AppData\Local\Temp\ccxb23Xc.s 			page 42


 2293 091e 23       		.byte	0x23
 2294 091f 08       		.uleb128 0x8
 2295 0920 06       		.uleb128 0x6
 2296 0921 C9040000 		.4byte	.LASF78
 2297 0925 0D       		.byte	0xd
 2298 0926 7D       		.byte	0x7d
 2299 0927 62050000 		.4byte	0x562
 2300 092b 02       		.byte	0x2
 2301 092c 23       		.byte	0x23
 2302 092d 0C       		.uleb128 0xc
 2303 092e 07       		.uleb128 0x7
 2304 092f 70757400 		.ascii	"put\000"
 2305 0933 0D       		.byte	0xd
 2306 0934 7D       		.byte	0x7d
 2307 0935 82050000 		.4byte	0x582
 2308 0939 02       		.byte	0x2
 2309 093a 23       		.byte	0x23
 2310 093b 10       		.uleb128 0x10
 2311 093c 07       		.uleb128 0x7
 2312 093d 67657400 		.ascii	"get\000"
 2313 0941 0D       		.byte	0xd
 2314 0942 7D       		.byte	0x7d
 2315 0943 9D050000 		.4byte	0x59d
 2316 0947 02       		.byte	0x2
 2317 0948 23       		.byte	0x23
 2318 0949 14       		.uleb128 0x14
 2319 094a 06       		.uleb128 0x6
 2320 094b E6010000 		.4byte	.LASF79
 2321 094f 0D       		.byte	0xd
 2322 0950 7D       		.byte	0x7d
 2323 0951 C2050000 		.4byte	0x5c2
 2324 0955 02       		.byte	0x2
 2325 0956 23       		.byte	0x23
 2326 0957 18       		.uleb128 0x18
 2327 0958 06       		.uleb128 0x6
 2328 0959 AB000000 		.4byte	.LASF80
 2329 095d 0D       		.byte	0xd
 2330 095e 7D       		.byte	0x7d
 2331 095f E7050000 		.4byte	0x5e7
 2332 0963 02       		.byte	0x2
 2333 0964 23       		.byte	0x23
 2334 0965 1C       		.uleb128 0x1c
 2335 0966 06       		.uleb128 0x6
 2336 0967 66020000 		.4byte	.LASF81
 2337 096b 0D       		.byte	0xd
 2338 096c 7D       		.byte	0x7d
 2339 096d 9E060000 		.4byte	0x69e
 2340 0971 02       		.byte	0x2
 2341 0972 23       		.byte	0x23
 2342 0973 20       		.uleb128 0x20
 2343 0974 00       		.byte	0x0
 2344 0975 09       		.uleb128 0x9
 2345 0976 04       		.byte	0x4
 2346 0977 7B090000 		.4byte	0x97b
 2347 097b 11       		.uleb128 0x11
 2348 097c EA080000 		.4byte	0x8ea
 2349 0980 1A       		.uleb128 0x1a
ARM GAS  C:\Users\z80\AppData\Local\Temp\ccxb23Xc.s 			page 43


 2350 0981 49000000 		.4byte	0x49
 2351 0985 90090000 		.4byte	0x990
 2352 0989 1B       		.uleb128 0x1b
 2353 098a 3D030000 		.4byte	0x33d
 2354 098e 3F       		.byte	0x3f
 2355 098f 00       		.byte	0x0
 2356 0990 09       		.uleb128 0x9
 2357 0991 04       		.byte	0x4
 2358 0992 D6070000 		.4byte	0x7d6
 2359 0996 1C       		.uleb128 0x1c
 2360 0997 DF010000 		.4byte	.LASF109
 2361 099b 01       		.byte	0x1
 2362 099c 3E       		.byte	0x3e
 2363 099d 01       		.byte	0x1
 2364 099e 30000000 		.4byte	0x30
 2365 09a2 00000000 		.4byte	.LFB62
 2366 09a6 26000000 		.4byte	.LFE62
 2367 09aa 00000000 		.4byte	.LLST0
 2368 09ae D9090000 		.4byte	0x9d9
 2369 09b2 1D       		.uleb128 0x1d
 2370 09b3 697000   		.ascii	"ip\000"
 2371 09b6 01       		.byte	0x1
 2372 09b7 3E       		.byte	0x3e
 2373 09b8 80020000 		.4byte	0x280
 2374 09bc 02       		.byte	0x2
 2375 09bd 91       		.byte	0x91
 2376 09be 74       		.sleb128 -12
 2377 09bf 1D       		.uleb128 0x1d
 2378 09c0 627000   		.ascii	"bp\000"
 2379 09c3 01       		.byte	0x1
 2380 09c4 3E       		.byte	0x3e
 2381 09c5 21050000 		.4byte	0x521
 2382 09c9 02       		.byte	0x2
 2383 09ca 91       		.byte	0x91
 2384 09cb 70       		.sleb128 -16
 2385 09cc 1D       		.uleb128 0x1d
 2386 09cd 6E00     		.ascii	"n\000"
 2387 09cf 01       		.byte	0x1
 2388 09d0 3E       		.byte	0x3e
 2389 09d1 30000000 		.4byte	0x30
 2390 09d5 02       		.byte	0x2
 2391 09d6 91       		.byte	0x91
 2392 09d7 6C       		.sleb128 -20
 2393 09d8 00       		.byte	0x0
 2394 09d9 1C       		.uleb128 0x1c
 2395 09da A5000000 		.4byte	.LASF110
 2396 09de 01       		.byte	0x1
 2397 09df 44       		.byte	0x44
 2398 09e0 01       		.byte	0x1
 2399 09e1 30000000 		.4byte	0x30
 2400 09e5 00000000 		.4byte	.LFB63
 2401 09e9 26000000 		.4byte	.LFE63
 2402 09ed 2C000000 		.4byte	.LLST1
 2403 09f1 1C0A0000 		.4byte	0xa1c
 2404 09f5 1D       		.uleb128 0x1d
 2405 09f6 697000   		.ascii	"ip\000"
 2406 09f9 01       		.byte	0x1
ARM GAS  C:\Users\z80\AppData\Local\Temp\ccxb23Xc.s 			page 44


 2407 09fa 44       		.byte	0x44
 2408 09fb 80020000 		.4byte	0x280
 2409 09ff 02       		.byte	0x2
 2410 0a00 91       		.byte	0x91
 2411 0a01 74       		.sleb128 -12
 2412 0a02 1D       		.uleb128 0x1d
 2413 0a03 627000   		.ascii	"bp\000"
 2414 0a06 01       		.byte	0x1
 2415 0a07 44       		.byte	0x44
 2416 0a08 EB040000 		.4byte	0x4eb
 2417 0a0c 02       		.byte	0x2
 2418 0a0d 91       		.byte	0x91
 2419 0a0e 70       		.sleb128 -16
 2420 0a0f 1D       		.uleb128 0x1d
 2421 0a10 6E00     		.ascii	"n\000"
 2422 0a12 01       		.byte	0x1
 2423 0a13 44       		.byte	0x44
 2424 0a14 30000000 		.4byte	0x30
 2425 0a18 02       		.byte	0x2
 2426 0a19 91       		.byte	0x91
 2427 0a1a 6C       		.sleb128 -20
 2428 0a1b 00       		.byte	0x0
 2429 0a1c 1C       		.uleb128 0x1c
 2430 0a1d 22010000 		.4byte	.LASF77
 2431 0a21 01       		.byte	0x1
 2432 0a22 4A       		.byte	0x4a
 2433 0a23 01       		.byte	0x1
 2434 0a24 BC000000 		.4byte	0xbc
 2435 0a28 00000000 		.4byte	.LFB64
 2436 0a2c 16000000 		.4byte	.LFE64
 2437 0a30 58000000 		.4byte	.LLST2
 2438 0a34 460A0000 		.4byte	0xa46
 2439 0a38 1D       		.uleb128 0x1d
 2440 0a39 697000   		.ascii	"ip\000"
 2441 0a3c 01       		.byte	0x1
 2442 0a3d 4A       		.byte	0x4a
 2443 0a3e 80020000 		.4byte	0x280
 2444 0a42 02       		.byte	0x2
 2445 0a43 91       		.byte	0x91
 2446 0a44 7C       		.sleb128 -4
 2447 0a45 00       		.byte	0x0
 2448 0a46 1C       		.uleb128 0x1c
 2449 0a47 C9040000 		.4byte	.LASF78
 2450 0a4b 01       		.byte	0x1
 2451 0a4c 4F       		.byte	0x4f
 2452 0a4d 01       		.byte	0x1
 2453 0a4e BC000000 		.4byte	0xbc
 2454 0a52 00000000 		.4byte	.LFB65
 2455 0a56 16000000 		.4byte	.LFE65
 2456 0a5a 78000000 		.4byte	.LLST3
 2457 0a5e 700A0000 		.4byte	0xa70
 2458 0a62 1D       		.uleb128 0x1d
 2459 0a63 697000   		.ascii	"ip\000"
 2460 0a66 01       		.byte	0x1
 2461 0a67 4F       		.byte	0x4f
 2462 0a68 80020000 		.4byte	0x280
 2463 0a6c 02       		.byte	0x2
ARM GAS  C:\Users\z80\AppData\Local\Temp\ccxb23Xc.s 			page 45


 2464 0a6d 91       		.byte	0x91
 2465 0a6e 7C       		.sleb128 -4
 2466 0a6f 00       		.byte	0x0
 2467 0a70 1C       		.uleb128 0x1c
 2468 0a71 3A020000 		.4byte	.LASF111
 2469 0a75 01       		.byte	0x1
 2470 0a76 54       		.byte	0x54
 2471 0a77 01       		.byte	0x1
 2472 0a78 E8000000 		.4byte	0xe8
 2473 0a7c 00000000 		.4byte	.LFB66
 2474 0a80 2A000000 		.4byte	.LFE66
 2475 0a84 98000000 		.4byte	.LLST4
 2476 0a88 B40A0000 		.4byte	0xab4
 2477 0a8c 1D       		.uleb128 0x1d
 2478 0a8d 697000   		.ascii	"ip\000"
 2479 0a90 01       		.byte	0x1
 2480 0a91 54       		.byte	0x54
 2481 0a92 80020000 		.4byte	0x280
 2482 0a96 02       		.byte	0x2
 2483 0a97 91       		.byte	0x91
 2484 0a98 74       		.sleb128 -12
 2485 0a99 1D       		.uleb128 0x1d
 2486 0a9a 6200     		.ascii	"b\000"
 2487 0a9c 01       		.byte	0x1
 2488 0a9d 54       		.byte	0x54
 2489 0a9e 49000000 		.4byte	0x49
 2490 0aa2 02       		.byte	0x2
 2491 0aa3 91       		.byte	0x91
 2492 0aa4 73       		.sleb128 -13
 2493 0aa5 1E       		.uleb128 0x1e
 2494 0aa6 AC010000 		.4byte	.LASF112
 2495 0aaa 01       		.byte	0x1
 2496 0aab 54       		.byte	0x54
 2497 0aac FE000000 		.4byte	0xfe
 2498 0ab0 02       		.byte	0x2
 2499 0ab1 91       		.byte	0x91
 2500 0ab2 6C       		.sleb128 -20
 2501 0ab3 00       		.byte	0x0
 2502 0ab4 1C       		.uleb128 0x1c
 2503 0ab5 B4010000 		.4byte	.LASF113
 2504 0ab9 01       		.byte	0x1
 2505 0aba 59       		.byte	0x59
 2506 0abb 01       		.byte	0x1
 2507 0abc E8000000 		.4byte	0xe8
 2508 0ac0 00000000 		.4byte	.LFB67
 2509 0ac4 1E000000 		.4byte	.LFE67
 2510 0ac8 C4000000 		.4byte	.LLST5
 2511 0acc EC0A0000 		.4byte	0xaec
 2512 0ad0 1D       		.uleb128 0x1d
 2513 0ad1 697000   		.ascii	"ip\000"
 2514 0ad4 01       		.byte	0x1
 2515 0ad5 59       		.byte	0x59
 2516 0ad6 80020000 		.4byte	0x280
 2517 0ada 02       		.byte	0x2
 2518 0adb 91       		.byte	0x91
 2519 0adc 74       		.sleb128 -12
 2520 0add 1E       		.uleb128 0x1e
ARM GAS  C:\Users\z80\AppData\Local\Temp\ccxb23Xc.s 			page 46


 2521 0ade AC010000 		.4byte	.LASF112
 2522 0ae2 01       		.byte	0x1
 2523 0ae3 59       		.byte	0x59
 2524 0ae4 FE000000 		.4byte	0xfe
 2525 0ae8 02       		.byte	0x2
 2526 0ae9 91       		.byte	0x91
 2527 0aea 70       		.sleb128 -16
 2528 0aeb 00       		.byte	0x0
 2529 0aec 1C       		.uleb128 0x1c
 2530 0aed E6010000 		.4byte	.LASF79
 2531 0af1 01       		.byte	0x1
 2532 0af2 5E       		.byte	0x5e
 2533 0af3 01       		.byte	0x1
 2534 0af4 30000000 		.4byte	0x30
 2535 0af8 00000000 		.4byte	.LFB68
 2536 0afc 26000000 		.4byte	.LFE68
 2537 0b00 F0000000 		.4byte	.LLST6
 2538 0b04 3D0B0000 		.4byte	0xb3d
 2539 0b08 1D       		.uleb128 0x1d
 2540 0b09 697000   		.ascii	"ip\000"
 2541 0b0c 01       		.byte	0x1
 2542 0b0d 5E       		.byte	0x5e
 2543 0b0e 80020000 		.4byte	0x280
 2544 0b12 02       		.byte	0x2
 2545 0b13 91       		.byte	0x91
 2546 0b14 74       		.sleb128 -12
 2547 0b15 1D       		.uleb128 0x1d
 2548 0b16 627000   		.ascii	"bp\000"
 2549 0b19 01       		.byte	0x1
 2550 0b1a 5E       		.byte	0x5e
 2551 0b1b 21050000 		.4byte	0x521
 2552 0b1f 02       		.byte	0x2
 2553 0b20 91       		.byte	0x91
 2554 0b21 70       		.sleb128 -16
 2555 0b22 1D       		.uleb128 0x1d
 2556 0b23 6E00     		.ascii	"n\000"
 2557 0b25 01       		.byte	0x1
 2558 0b26 5E       		.byte	0x5e
 2559 0b27 30000000 		.4byte	0x30
 2560 0b2b 02       		.byte	0x2
 2561 0b2c 91       		.byte	0x91
 2562 0b2d 6C       		.sleb128 -20
 2563 0b2e 1E       		.uleb128 0x1e
 2564 0b2f B8020000 		.4byte	.LASF114
 2565 0b33 01       		.byte	0x1
 2566 0b34 5E       		.byte	0x5e
 2567 0b35 FE000000 		.4byte	0xfe
 2568 0b39 02       		.byte	0x2
 2569 0b3a 91       		.byte	0x91
 2570 0b3b 68       		.sleb128 -24
 2571 0b3c 00       		.byte	0x0
 2572 0b3d 1C       		.uleb128 0x1c
 2573 0b3e AB000000 		.4byte	.LASF80
 2574 0b42 01       		.byte	0x1
 2575 0b43 63       		.byte	0x63
 2576 0b44 01       		.byte	0x1
 2577 0b45 30000000 		.4byte	0x30
ARM GAS  C:\Users\z80\AppData\Local\Temp\ccxb23Xc.s 			page 47


 2578 0b49 00000000 		.4byte	.LFB69
 2579 0b4d 26000000 		.4byte	.LFE69
 2580 0b51 1C010000 		.4byte	.LLST7
 2581 0b55 8E0B0000 		.4byte	0xb8e
 2582 0b59 1D       		.uleb128 0x1d
 2583 0b5a 697000   		.ascii	"ip\000"
 2584 0b5d 01       		.byte	0x1
 2585 0b5e 63       		.byte	0x63
 2586 0b5f 80020000 		.4byte	0x280
 2587 0b63 02       		.byte	0x2
 2588 0b64 91       		.byte	0x91
 2589 0b65 74       		.sleb128 -12
 2590 0b66 1D       		.uleb128 0x1d
 2591 0b67 627000   		.ascii	"bp\000"
 2592 0b6a 01       		.byte	0x1
 2593 0b6b 63       		.byte	0x63
 2594 0b6c EB040000 		.4byte	0x4eb
 2595 0b70 02       		.byte	0x2
 2596 0b71 91       		.byte	0x91
 2597 0b72 70       		.sleb128 -16
 2598 0b73 1D       		.uleb128 0x1d
 2599 0b74 6E00     		.ascii	"n\000"
 2600 0b76 01       		.byte	0x1
 2601 0b77 63       		.byte	0x63
 2602 0b78 30000000 		.4byte	0x30
 2603 0b7c 02       		.byte	0x2
 2604 0b7d 91       		.byte	0x91
 2605 0b7e 6C       		.sleb128 -20
 2606 0b7f 1E       		.uleb128 0x1e
 2607 0b80 B8020000 		.4byte	.LASF114
 2608 0b84 01       		.byte	0x1
 2609 0b85 63       		.byte	0x63
 2610 0b86 FE000000 		.4byte	0xfe
 2611 0b8a 02       		.byte	0x2
 2612 0b8b 91       		.byte	0x91
 2613 0b8c 68       		.sleb128 -24
 2614 0b8d 00       		.byte	0x0
 2615 0b8e 1C       		.uleb128 0x1c
 2616 0b8f 66020000 		.4byte	.LASF81
 2617 0b93 01       		.byte	0x1
 2618 0b94 68       		.byte	0x68
 2619 0b95 01       		.byte	0x1
 2620 0b96 ED050000 		.4byte	0x5ed
 2621 0b9a 00000000 		.4byte	.LFB70
 2622 0b9e 34000000 		.4byte	.LFE70
 2623 0ba2 48010000 		.4byte	.LLST8
 2624 0ba6 F80B0000 		.4byte	0xbf8
 2625 0baa 1D       		.uleb128 0x1d
 2626 0bab 697000   		.ascii	"ip\000"
 2627 0bae 01       		.byte	0x1
 2628 0baf 68       		.byte	0x68
 2629 0bb0 80020000 		.4byte	0x280
 2630 0bb4 02       		.byte	0x2
 2631 0bb5 91       		.byte	0x91
 2632 0bb6 6C       		.sleb128 -20
 2633 0bb7 1F       		.uleb128 0x1f
 2634 0bb8 30010000 		.4byte	.LASF115
ARM GAS  C:\Users\z80\AppData\Local\Temp\ccxb23Xc.s 			page 48


 2635 0bbc 01       		.byte	0x1
 2636 0bbd 69       		.byte	0x69
 2637 0bbe ED050000 		.4byte	0x5ed
 2638 0bc2 02       		.byte	0x2
 2639 0bc3 91       		.byte	0x91
 2640 0bc4 74       		.sleb128 -12
 2641 0bc5 20       		.uleb128 0x20
 2642 0bc6 06000000 		.4byte	.LBB2
 2643 0bca 0E000000 		.4byte	.LBE2
 2644 0bce E00B0000 		.4byte	0xbe0
 2645 0bd2 21       		.uleb128 0x21
 2646 0bd3 746D7000 		.ascii	"tmp\000"
 2647 0bd7 01       		.byte	0x1
 2648 0bd8 69       		.byte	0x69
 2649 0bd9 86000000 		.4byte	0x86
 2650 0bdd 01       		.byte	0x1
 2651 0bde 53       		.byte	0x53
 2652 0bdf 00       		.byte	0x0
 2653 0be0 22       		.uleb128 0x22
 2654 0be1 24000000 		.4byte	.LBB3
 2655 0be5 2C000000 		.4byte	.LBE3
 2656 0be9 21       		.uleb128 0x21
 2657 0bea 746D7000 		.ascii	"tmp\000"
 2658 0bee 01       		.byte	0x1
 2659 0bef 69       		.byte	0x69
 2660 0bf0 86000000 		.4byte	0x86
 2661 0bf4 01       		.byte	0x1
 2662 0bf5 53       		.byte	0x53
 2663 0bf6 00       		.byte	0x0
 2664 0bf7 00       		.byte	0x0
 2665 0bf8 23       		.uleb128 0x23
 2666 0bf9 01       		.byte	0x1
 2667 0bfa EC040000 		.4byte	.LASF127
 2668 0bfe 01       		.byte	0x1
 2669 0bff 7D       		.byte	0x7d
 2670 0c00 01       		.byte	0x1
 2671 0c01 00000000 		.4byte	.LFB71
 2672 0c05 08000000 		.4byte	.LFE71
 2673 0c09 74010000 		.4byte	.LLST9
 2674 0c0d 24       		.uleb128 0x24
 2675 0c0e 01       		.byte	0x1
 2676 0c0f 98000000 		.4byte	.LASF118
 2677 0c13 01       		.byte	0x1
 2678 0c14 91       		.byte	0x91
 2679 0c15 01       		.byte	0x1
 2680 0c16 00000000 		.4byte	.LFB72
 2681 0c1a 6A000000 		.4byte	.LFE72
 2682 0c1e 94010000 		.4byte	.LLST10
 2683 0c22 510C0000 		.4byte	0xc51
 2684 0c26 1D       		.uleb128 0x1d
 2685 0c27 73647000 		.ascii	"sdp\000"
 2686 0c2b 01       		.byte	0x1
 2687 0c2c 91       		.byte	0x91
 2688 0c2d 510C0000 		.4byte	0xc51
 2689 0c31 02       		.byte	0x2
 2690 0c32 91       		.byte	0x91
 2691 0c33 74       		.sleb128 -12
ARM GAS  C:\Users\z80\AppData\Local\Temp\ccxb23Xc.s 			page 49


 2692 0c34 1E       		.uleb128 0x1e
 2693 0c35 92010000 		.4byte	.LASF116
 2694 0c39 01       		.byte	0x1
 2695 0c3a 91       		.byte	0x91
 2696 0c3b C8040000 		.4byte	0x4c8
 2697 0c3f 02       		.byte	0x2
 2698 0c40 91       		.byte	0x91
 2699 0c41 70       		.sleb128 -16
 2700 0c42 1E       		.uleb128 0x1e
 2701 0c43 A0040000 		.4byte	.LASF117
 2702 0c47 01       		.byte	0x1
 2703 0c48 91       		.byte	0x91
 2704 0c49 C8040000 		.4byte	0x4c8
 2705 0c4d 02       		.byte	0x2
 2706 0c4e 91       		.byte	0x91
 2707 0c4f 6C       		.sleb128 -20
 2708 0c50 00       		.byte	0x0
 2709 0c51 09       		.uleb128 0x9
 2710 0c52 04       		.byte	0x4
 2711 0c53 08080000 		.4byte	0x808
 2712 0c57 24       		.uleb128 0x24
 2713 0c58 01       		.byte	0x1
 2714 0c59 00040000 		.4byte	.LASF119
 2715 0c5d 01       		.byte	0x1
 2716 0c5e A5       		.byte	0xa5
 2717 0c5f 01       		.byte	0x1
 2718 0c60 00000000 		.4byte	.LFB73
 2719 0c64 62000000 		.4byte	.LFE73
 2720 0c68 C0010000 		.4byte	.LLST11
 2721 0c6c BF0C0000 		.4byte	0xcbf
 2722 0c70 1D       		.uleb128 0x1d
 2723 0c71 73647000 		.ascii	"sdp\000"
 2724 0c75 01       		.byte	0x1
 2725 0c76 A5       		.byte	0xa5
 2726 0c77 510C0000 		.4byte	0xc51
 2727 0c7b 02       		.byte	0x2
 2728 0c7c 91       		.byte	0x91
 2729 0c7d 74       		.sleb128 -12
 2730 0c7e 1E       		.uleb128 0x1e
 2731 0c7f F9030000 		.4byte	.LASF120
 2732 0c83 01       		.byte	0x1
 2733 0c84 A5       		.byte	0xa5
 2734 0c85 BF0C0000 		.4byte	0xcbf
 2735 0c89 02       		.byte	0x2
 2736 0c8a 91       		.byte	0x91
 2737 0c8b 70       		.sleb128 -16
 2738 0c8c 20       		.uleb128 0x20
 2739 0c8d 1A000000 		.4byte	.LBB4
 2740 0c91 22000000 		.4byte	.LBE4
 2741 0c95 A70C0000 		.4byte	0xca7
 2742 0c99 21       		.uleb128 0x21
 2743 0c9a 746D7000 		.ascii	"tmp\000"
 2744 0c9e 01       		.byte	0x1
 2745 0c9f A9       		.byte	0xa9
 2746 0ca0 86000000 		.4byte	0x86
 2747 0ca4 01       		.byte	0x1
 2748 0ca5 53       		.byte	0x53
ARM GAS  C:\Users\z80\AppData\Local\Temp\ccxb23Xc.s 			page 50


 2749 0ca6 00       		.byte	0x0
 2750 0ca7 22       		.uleb128 0x22
 2751 0ca8 56000000 		.4byte	.LBB5
 2752 0cac 5E000000 		.4byte	.LBE5
 2753 0cb0 21       		.uleb128 0x21
 2754 0cb1 746D7000 		.ascii	"tmp\000"
 2755 0cb5 01       		.byte	0x1
 2756 0cb6 AF       		.byte	0xaf
 2757 0cb7 86000000 		.4byte	0x86
 2758 0cbb 01       		.byte	0x1
 2759 0cbc 53       		.byte	0x53
 2760 0cbd 00       		.byte	0x0
 2761 0cbe 00       		.byte	0x0
 2762 0cbf 09       		.uleb128 0x9
 2763 0cc0 04       		.byte	0x4
 2764 0cc1 C50C0000 		.4byte	0xcc5
 2765 0cc5 11       		.uleb128 0x11
 2766 0cc6 DF080000 		.4byte	0x8df
 2767 0cca 24       		.uleb128 0x24
 2768 0ccb 01       		.byte	0x1
 2769 0ccc B1020000 		.4byte	.LASF121
 2770 0cd0 01       		.byte	0x1
 2771 0cd1 BB       		.byte	0xbb
 2772 0cd2 01       		.byte	0x1
 2773 0cd3 00000000 		.4byte	.LFB74
 2774 0cd7 7A000000 		.4byte	.LFE74
 2775 0cdb EC010000 		.4byte	.LLST12
 2776 0cdf 240D0000 		.4byte	0xd24
 2777 0ce3 1D       		.uleb128 0x1d
 2778 0ce4 73647000 		.ascii	"sdp\000"
 2779 0ce8 01       		.byte	0x1
 2780 0ce9 BB       		.byte	0xbb
 2781 0cea 510C0000 		.4byte	0xc51
 2782 0cee 02       		.byte	0x2
 2783 0cef 91       		.byte	0x91
 2784 0cf0 74       		.sleb128 -12
 2785 0cf1 20       		.uleb128 0x20
 2786 0cf2 18000000 		.4byte	.LBB6
 2787 0cf6 20000000 		.4byte	.LBE6
 2788 0cfa 0C0D0000 		.4byte	0xd0c
 2789 0cfe 21       		.uleb128 0x21
 2790 0cff 746D7000 		.ascii	"tmp\000"
 2791 0d03 01       		.byte	0x1
 2792 0d04 BF       		.byte	0xbf
 2793 0d05 86000000 		.4byte	0x86
 2794 0d09 01       		.byte	0x1
 2795 0d0a 53       		.byte	0x53
 2796 0d0b 00       		.byte	0x0
 2797 0d0c 22       		.uleb128 0x22
 2798 0d0d 6E000000 		.4byte	.LBB7
 2799 0d11 76000000 		.4byte	.LBE7
 2800 0d15 21       		.uleb128 0x21
 2801 0d16 746D7000 		.ascii	"tmp\000"
 2802 0d1a 01       		.byte	0x1
 2803 0d1b C8       		.byte	0xc8
 2804 0d1c 86000000 		.4byte	0x86
 2805 0d20 01       		.byte	0x1
ARM GAS  C:\Users\z80\AppData\Local\Temp\ccxb23Xc.s 			page 51


 2806 0d21 53       		.byte	0x53
 2807 0d22 00       		.byte	0x0
 2808 0d23 00       		.byte	0x0
 2809 0d24 24       		.uleb128 0x24
 2810 0d25 01       		.byte	0x1
 2811 0d26 E9030000 		.4byte	.LASF122
 2812 0d2a 01       		.byte	0x1
 2813 0d2b DB       		.byte	0xdb
 2814 0d2c 01       		.byte	0x1
 2815 0d2d 00000000 		.4byte	.LFB75
 2816 0d31 7E000000 		.4byte	.LFE75
 2817 0d35 18020000 		.4byte	.LLST13
 2818 0d39 580D0000 		.4byte	0xd58
 2819 0d3d 1D       		.uleb128 0x1d
 2820 0d3e 73647000 		.ascii	"sdp\000"
 2821 0d42 01       		.byte	0x1
 2822 0d43 DB       		.byte	0xdb
 2823 0d44 510C0000 		.4byte	0xc51
 2824 0d48 02       		.byte	0x2
 2825 0d49 91       		.byte	0x91
 2826 0d4a 74       		.sleb128 -12
 2827 0d4b 1D       		.uleb128 0x1d
 2828 0d4c 6200     		.ascii	"b\000"
 2829 0d4e 01       		.byte	0x1
 2830 0d4f DB       		.byte	0xdb
 2831 0d50 49000000 		.4byte	0x49
 2832 0d54 02       		.byte	0x2
 2833 0d55 91       		.byte	0x91
 2834 0d56 73       		.sleb128 -13
 2835 0d57 00       		.byte	0x0
 2836 0d58 25       		.uleb128 0x25
 2837 0d59 01       		.byte	0x1
 2838 0d5a 83040000 		.4byte	.LASF128
 2839 0d5e 01       		.byte	0x1
 2840 0d5f F5       		.byte	0xf5
 2841 0d60 01       		.byte	0x1
 2842 0d61 E8000000 		.4byte	0xe8
 2843 0d65 00000000 		.4byte	.LFB76
 2844 0d69 56000000 		.4byte	.LFE76
 2845 0d6d 44020000 		.4byte	.LLST14
 2846 0d71 900D0000 		.4byte	0xd90
 2847 0d75 1D       		.uleb128 0x1d
 2848 0d76 73647000 		.ascii	"sdp\000"
 2849 0d7a 01       		.byte	0x1
 2850 0d7b F5       		.byte	0xf5
 2851 0d7c 510C0000 		.4byte	0xc51
 2852 0d80 02       		.byte	0x2
 2853 0d81 91       		.byte	0x91
 2854 0d82 6C       		.sleb128 -20
 2855 0d83 21       		.uleb128 0x21
 2856 0d84 6200     		.ascii	"b\000"
 2857 0d86 01       		.byte	0x1
 2858 0d87 F6       		.byte	0xf6
 2859 0d88 E8000000 		.4byte	0xe8
 2860 0d8c 02       		.byte	0x2
 2861 0d8d 91       		.byte	0x91
 2862 0d8e 74       		.sleb128 -12
ARM GAS  C:\Users\z80\AppData\Local\Temp\ccxb23Xc.s 			page 52


 2863 0d8f 00       		.byte	0x0
 2864 0d90 26       		.uleb128 0x26
 2865 0d91 8B000000 		.4byte	.LASF123
 2866 0d95 0F       		.byte	0xf
 2867 0d96 9404     		.2byte	0x494
 2868 0d98 F7060000 		.4byte	0x6f7
 2869 0d9c 01       		.byte	0x1
 2870 0d9d 01       		.byte	0x1
 2871 0d9e 21       		.uleb128 0x21
 2872 0d9f 766D7400 		.ascii	"vmt\000"
 2873 0da3 01       		.byte	0x1
 2874 0da4 6C       		.byte	0x6c
 2875 0da5 7B090000 		.4byte	0x97b
 2876 0da9 05       		.byte	0x5
 2877 0daa 03       		.byte	0x3
 2878 0dab 00000000 		.4byte	vmt
 2879 0daf 26       		.uleb128 0x26
 2880 0db0 8B000000 		.4byte	.LASF123
 2881 0db4 0F       		.byte	0xf
 2882 0db5 9404     		.2byte	0x494
 2883 0db7 F7060000 		.4byte	0x6f7
 2884 0dbb 01       		.byte	0x1
 2885 0dbc 01       		.byte	0x1
 2886 0dbd 00       		.byte	0x0
 2887              		.section	.debug_abbrev
 2888 0000 01       		.uleb128 0x1
 2889 0001 11       		.uleb128 0x11
 2890 0002 01       		.byte	0x1
 2891 0003 25       		.uleb128 0x25
 2892 0004 0E       		.uleb128 0xe
 2893 0005 13       		.uleb128 0x13
 2894 0006 0B       		.uleb128 0xb
 2895 0007 03       		.uleb128 0x3
 2896 0008 0E       		.uleb128 0xe
 2897 0009 1B       		.uleb128 0x1b
 2898 000a 0E       		.uleb128 0xe
 2899 000b 11       		.uleb128 0x11
 2900 000c 01       		.uleb128 0x1
 2901 000d 52       		.uleb128 0x52
 2902 000e 01       		.uleb128 0x1
 2903 000f 55       		.uleb128 0x55
 2904 0010 06       		.uleb128 0x6
 2905 0011 10       		.uleb128 0x10
 2906 0012 06       		.uleb128 0x6
 2907 0013 00       		.byte	0x0
 2908 0014 00       		.byte	0x0
 2909 0015 02       		.uleb128 0x2
 2910 0016 24       		.uleb128 0x24
 2911 0017 00       		.byte	0x0
 2912 0018 0B       		.uleb128 0xb
 2913 0019 0B       		.uleb128 0xb
 2914 001a 3E       		.uleb128 0x3e
 2915 001b 0B       		.uleb128 0xb
 2916 001c 03       		.uleb128 0x3
 2917 001d 08       		.uleb128 0x8
 2918 001e 00       		.byte	0x0
 2919 001f 00       		.byte	0x0
ARM GAS  C:\Users\z80\AppData\Local\Temp\ccxb23Xc.s 			page 53


 2920 0020 03       		.uleb128 0x3
 2921 0021 16       		.uleb128 0x16
 2922 0022 00       		.byte	0x0
 2923 0023 03       		.uleb128 0x3
 2924 0024 0E       		.uleb128 0xe
 2925 0025 3A       		.uleb128 0x3a
 2926 0026 0B       		.uleb128 0xb
 2927 0027 3B       		.uleb128 0x3b
 2928 0028 0B       		.uleb128 0xb
 2929 0029 49       		.uleb128 0x49
 2930 002a 13       		.uleb128 0x13
 2931 002b 00       		.byte	0x0
 2932 002c 00       		.byte	0x0
 2933 002d 04       		.uleb128 0x4
 2934 002e 24       		.uleb128 0x24
 2935 002f 00       		.byte	0x0
 2936 0030 0B       		.uleb128 0xb
 2937 0031 0B       		.uleb128 0xb
 2938 0032 3E       		.uleb128 0x3e
 2939 0033 0B       		.uleb128 0xb
 2940 0034 03       		.uleb128 0x3
 2941 0035 0E       		.uleb128 0xe
 2942 0036 00       		.byte	0x0
 2943 0037 00       		.byte	0x0
 2944 0038 05       		.uleb128 0x5
 2945 0039 13       		.uleb128 0x13
 2946 003a 01       		.byte	0x1
 2947 003b 03       		.uleb128 0x3
 2948 003c 0E       		.uleb128 0xe
 2949 003d 0B       		.uleb128 0xb
 2950 003e 0B       		.uleb128 0xb
 2951 003f 3A       		.uleb128 0x3a
 2952 0040 0B       		.uleb128 0xb
 2953 0041 3B       		.uleb128 0x3b
 2954 0042 0B       		.uleb128 0xb
 2955 0043 01       		.uleb128 0x1
 2956 0044 13       		.uleb128 0x13
 2957 0045 00       		.byte	0x0
 2958 0046 00       		.byte	0x0
 2959 0047 06       		.uleb128 0x6
 2960 0048 0D       		.uleb128 0xd
 2961 0049 00       		.byte	0x0
 2962 004a 03       		.uleb128 0x3
 2963 004b 0E       		.uleb128 0xe
 2964 004c 3A       		.uleb128 0x3a
 2965 004d 0B       		.uleb128 0xb
 2966 004e 3B       		.uleb128 0x3b
 2967 004f 0B       		.uleb128 0xb
 2968 0050 49       		.uleb128 0x49
 2969 0051 13       		.uleb128 0x13
 2970 0052 38       		.uleb128 0x38
 2971 0053 0A       		.uleb128 0xa
 2972 0054 00       		.byte	0x0
 2973 0055 00       		.byte	0x0
 2974 0056 07       		.uleb128 0x7
 2975 0057 0D       		.uleb128 0xd
 2976 0058 00       		.byte	0x0
ARM GAS  C:\Users\z80\AppData\Local\Temp\ccxb23Xc.s 			page 54


 2977 0059 03       		.uleb128 0x3
 2978 005a 08       		.uleb128 0x8
 2979 005b 3A       		.uleb128 0x3a
 2980 005c 0B       		.uleb128 0xb
 2981 005d 3B       		.uleb128 0x3b
 2982 005e 0B       		.uleb128 0xb
 2983 005f 49       		.uleb128 0x49
 2984 0060 13       		.uleb128 0x13
 2985 0061 38       		.uleb128 0x38
 2986 0062 0A       		.uleb128 0xa
 2987 0063 00       		.byte	0x0
 2988 0064 00       		.byte	0x0
 2989 0065 08       		.uleb128 0x8
 2990 0066 13       		.uleb128 0x13
 2991 0067 01       		.byte	0x1
 2992 0068 0B       		.uleb128 0xb
 2993 0069 0B       		.uleb128 0xb
 2994 006a 3A       		.uleb128 0x3a
 2995 006b 0B       		.uleb128 0xb
 2996 006c 3B       		.uleb128 0x3b
 2997 006d 0B       		.uleb128 0xb
 2998 006e 01       		.uleb128 0x1
 2999 006f 13       		.uleb128 0x13
 3000 0070 00       		.byte	0x0
 3001 0071 00       		.byte	0x0
 3002 0072 09       		.uleb128 0x9
 3003 0073 0F       		.uleb128 0xf
 3004 0074 00       		.byte	0x0
 3005 0075 0B       		.uleb128 0xb
 3006 0076 0B       		.uleb128 0xb
 3007 0077 49       		.uleb128 0x49
 3008 0078 13       		.uleb128 0x13
 3009 0079 00       		.byte	0x0
 3010 007a 00       		.byte	0x0
 3011 007b 0A       		.uleb128 0xa
 3012 007c 0F       		.uleb128 0xf
 3013 007d 00       		.byte	0x0
 3014 007e 0B       		.uleb128 0xb
 3015 007f 0B       		.uleb128 0xb
 3016 0080 00       		.byte	0x0
 3017 0081 00       		.byte	0x0
 3018 0082 0B       		.uleb128 0xb
 3019 0083 0D       		.uleb128 0xd
 3020 0084 00       		.byte	0x0
 3021 0085 03       		.uleb128 0x3
 3022 0086 08       		.uleb128 0x8
 3023 0087 3A       		.uleb128 0x3a
 3024 0088 0B       		.uleb128 0xb
 3025 0089 3B       		.uleb128 0x3b
 3026 008a 05       		.uleb128 0x5
 3027 008b 49       		.uleb128 0x49
 3028 008c 13       		.uleb128 0x13
 3029 008d 38       		.uleb128 0x38
 3030 008e 0A       		.uleb128 0xa
 3031 008f 00       		.byte	0x0
 3032 0090 00       		.byte	0x0
 3033 0091 0C       		.uleb128 0xc
ARM GAS  C:\Users\z80\AppData\Local\Temp\ccxb23Xc.s 			page 55


 3034 0092 13       		.uleb128 0x13
 3035 0093 01       		.byte	0x1
 3036 0094 03       		.uleb128 0x3
 3037 0095 0E       		.uleb128 0xe
 3038 0096 0B       		.uleb128 0xb
 3039 0097 0B       		.uleb128 0xb
 3040 0098 3A       		.uleb128 0x3a
 3041 0099 0B       		.uleb128 0xb
 3042 009a 3B       		.uleb128 0x3b
 3043 009b 05       		.uleb128 0x5
 3044 009c 01       		.uleb128 0x1
 3045 009d 13       		.uleb128 0x13
 3046 009e 00       		.byte	0x0
 3047 009f 00       		.byte	0x0
 3048 00a0 0D       		.uleb128 0xd
 3049 00a1 24       		.uleb128 0x24
 3050 00a2 00       		.byte	0x0
 3051 00a3 0B       		.uleb128 0xb
 3052 00a4 0B       		.uleb128 0xb
 3053 00a5 3E       		.uleb128 0x3e
 3054 00a6 0B       		.uleb128 0xb
 3055 00a7 00       		.byte	0x0
 3056 00a8 00       		.byte	0x0
 3057 00a9 0E       		.uleb128 0xe
 3058 00aa 35       		.uleb128 0x35
 3059 00ab 00       		.byte	0x0
 3060 00ac 49       		.uleb128 0x49
 3061 00ad 13       		.uleb128 0x13
 3062 00ae 00       		.byte	0x0
 3063 00af 00       		.byte	0x0
 3064 00b0 0F       		.uleb128 0xf
 3065 00b1 17       		.uleb128 0x17
 3066 00b2 01       		.byte	0x1
 3067 00b3 0B       		.uleb128 0xb
 3068 00b4 0B       		.uleb128 0xb
 3069 00b5 3A       		.uleb128 0x3a
 3070 00b6 0B       		.uleb128 0xb
 3071 00b7 3B       		.uleb128 0x3b
 3072 00b8 0B       		.uleb128 0xb
 3073 00b9 01       		.uleb128 0x1
 3074 00ba 13       		.uleb128 0x13
 3075 00bb 00       		.byte	0x0
 3076 00bc 00       		.byte	0x0
 3077 00bd 10       		.uleb128 0x10
 3078 00be 0D       		.uleb128 0xd
 3079 00bf 00       		.byte	0x0
 3080 00c0 03       		.uleb128 0x3
 3081 00c1 0E       		.uleb128 0xe
 3082 00c2 3A       		.uleb128 0x3a
 3083 00c3 0B       		.uleb128 0xb
 3084 00c4 3B       		.uleb128 0x3b
 3085 00c5 0B       		.uleb128 0xb
 3086 00c6 49       		.uleb128 0x49
 3087 00c7 13       		.uleb128 0x13
 3088 00c8 00       		.byte	0x0
 3089 00c9 00       		.byte	0x0
 3090 00ca 11       		.uleb128 0x11
ARM GAS  C:\Users\z80\AppData\Local\Temp\ccxb23Xc.s 			page 56


 3091 00cb 26       		.uleb128 0x26
 3092 00cc 00       		.byte	0x0
 3093 00cd 49       		.uleb128 0x49
 3094 00ce 13       		.uleb128 0x13
 3095 00cf 00       		.byte	0x0
 3096 00d0 00       		.byte	0x0
 3097 00d1 12       		.uleb128 0x12
 3098 00d2 15       		.uleb128 0x15
 3099 00d3 01       		.byte	0x1
 3100 00d4 27       		.uleb128 0x27
 3101 00d5 0C       		.uleb128 0xc
 3102 00d6 01       		.uleb128 0x1
 3103 00d7 13       		.uleb128 0x13
 3104 00d8 00       		.byte	0x0
 3105 00d9 00       		.byte	0x0
 3106 00da 13       		.uleb128 0x13
 3107 00db 05       		.uleb128 0x5
 3108 00dc 00       		.byte	0x0
 3109 00dd 49       		.uleb128 0x49
 3110 00de 13       		.uleb128 0x13
 3111 00df 00       		.byte	0x0
 3112 00e0 00       		.byte	0x0
 3113 00e1 14       		.uleb128 0x14
 3114 00e2 15       		.uleb128 0x15
 3115 00e3 01       		.byte	0x1
 3116 00e4 27       		.uleb128 0x27
 3117 00e5 0C       		.uleb128 0xc
 3118 00e6 49       		.uleb128 0x49
 3119 00e7 13       		.uleb128 0x13
 3120 00e8 01       		.uleb128 0x1
 3121 00e9 13       		.uleb128 0x13
 3122 00ea 00       		.byte	0x0
 3123 00eb 00       		.byte	0x0
 3124 00ec 15       		.uleb128 0x15
 3125 00ed 16       		.uleb128 0x16
 3126 00ee 00       		.byte	0x0
 3127 00ef 03       		.uleb128 0x3
 3128 00f0 0E       		.uleb128 0xe
 3129 00f1 3A       		.uleb128 0x3a
 3130 00f2 0B       		.uleb128 0xb
 3131 00f3 3B       		.uleb128 0x3b
 3132 00f4 05       		.uleb128 0x5
 3133 00f5 49       		.uleb128 0x49
 3134 00f6 13       		.uleb128 0x13
 3135 00f7 00       		.byte	0x0
 3136 00f8 00       		.byte	0x0
 3137 00f9 16       		.uleb128 0x16
 3138 00fa 0D       		.uleb128 0xd
 3139 00fb 00       		.byte	0x0
 3140 00fc 03       		.uleb128 0x3
 3141 00fd 0E       		.uleb128 0xe
 3142 00fe 3A       		.uleb128 0x3a
 3143 00ff 0B       		.uleb128 0xb
 3144 0100 3B       		.uleb128 0x3b
 3145 0101 05       		.uleb128 0x5
 3146 0102 49       		.uleb128 0x49
 3147 0103 13       		.uleb128 0x13
ARM GAS  C:\Users\z80\AppData\Local\Temp\ccxb23Xc.s 			page 57


 3148 0104 38       		.uleb128 0x38
 3149 0105 0A       		.uleb128 0xa
 3150 0106 00       		.byte	0x0
 3151 0107 00       		.byte	0x0
 3152 0108 17       		.uleb128 0x17
 3153 0109 13       		.uleb128 0x13
 3154 010a 01       		.byte	0x1
 3155 010b 0B       		.uleb128 0xb
 3156 010c 0B       		.uleb128 0xb
 3157 010d 3A       		.uleb128 0x3a
 3158 010e 0B       		.uleb128 0xb
 3159 010f 3B       		.uleb128 0x3b
 3160 0110 05       		.uleb128 0x5
 3161 0111 01       		.uleb128 0x1
 3162 0112 13       		.uleb128 0x13
 3163 0113 00       		.byte	0x0
 3164 0114 00       		.byte	0x0
 3165 0115 18       		.uleb128 0x18
 3166 0116 04       		.uleb128 0x4
 3167 0117 01       		.byte	0x1
 3168 0118 0B       		.uleb128 0xb
 3169 0119 0B       		.uleb128 0xb
 3170 011a 3A       		.uleb128 0x3a
 3171 011b 0B       		.uleb128 0xb
 3172 011c 3B       		.uleb128 0x3b
 3173 011d 0B       		.uleb128 0xb
 3174 011e 01       		.uleb128 0x1
 3175 011f 13       		.uleb128 0x13
 3176 0120 00       		.byte	0x0
 3177 0121 00       		.byte	0x0
 3178 0122 19       		.uleb128 0x19
 3179 0123 28       		.uleb128 0x28
 3180 0124 00       		.byte	0x0
 3181 0125 03       		.uleb128 0x3
 3182 0126 0E       		.uleb128 0xe
 3183 0127 1C       		.uleb128 0x1c
 3184 0128 0D       		.uleb128 0xd
 3185 0129 00       		.byte	0x0
 3186 012a 00       		.byte	0x0
 3187 012b 1A       		.uleb128 0x1a
 3188 012c 01       		.uleb128 0x1
 3189 012d 01       		.byte	0x1
 3190 012e 49       		.uleb128 0x49
 3191 012f 13       		.uleb128 0x13
 3192 0130 01       		.uleb128 0x1
 3193 0131 13       		.uleb128 0x13
 3194 0132 00       		.byte	0x0
 3195 0133 00       		.byte	0x0
 3196 0134 1B       		.uleb128 0x1b
 3197 0135 21       		.uleb128 0x21
 3198 0136 00       		.byte	0x0
 3199 0137 49       		.uleb128 0x49
 3200 0138 13       		.uleb128 0x13
 3201 0139 2F       		.uleb128 0x2f
 3202 013a 0B       		.uleb128 0xb
 3203 013b 00       		.byte	0x0
 3204 013c 00       		.byte	0x0
ARM GAS  C:\Users\z80\AppData\Local\Temp\ccxb23Xc.s 			page 58


 3205 013d 1C       		.uleb128 0x1c
 3206 013e 2E       		.uleb128 0x2e
 3207 013f 01       		.byte	0x1
 3208 0140 03       		.uleb128 0x3
 3209 0141 0E       		.uleb128 0xe
 3210 0142 3A       		.uleb128 0x3a
 3211 0143 0B       		.uleb128 0xb
 3212 0144 3B       		.uleb128 0x3b
 3213 0145 0B       		.uleb128 0xb
 3214 0146 27       		.uleb128 0x27
 3215 0147 0C       		.uleb128 0xc
 3216 0148 49       		.uleb128 0x49
 3217 0149 13       		.uleb128 0x13
 3218 014a 11       		.uleb128 0x11
 3219 014b 01       		.uleb128 0x1
 3220 014c 12       		.uleb128 0x12
 3221 014d 01       		.uleb128 0x1
 3222 014e 40       		.uleb128 0x40
 3223 014f 06       		.uleb128 0x6
 3224 0150 01       		.uleb128 0x1
 3225 0151 13       		.uleb128 0x13
 3226 0152 00       		.byte	0x0
 3227 0153 00       		.byte	0x0
 3228 0154 1D       		.uleb128 0x1d
 3229 0155 05       		.uleb128 0x5
 3230 0156 00       		.byte	0x0
 3231 0157 03       		.uleb128 0x3
 3232 0158 08       		.uleb128 0x8
 3233 0159 3A       		.uleb128 0x3a
 3234 015a 0B       		.uleb128 0xb
 3235 015b 3B       		.uleb128 0x3b
 3236 015c 0B       		.uleb128 0xb
 3237 015d 49       		.uleb128 0x49
 3238 015e 13       		.uleb128 0x13
 3239 015f 02       		.uleb128 0x2
 3240 0160 0A       		.uleb128 0xa
 3241 0161 00       		.byte	0x0
 3242 0162 00       		.byte	0x0
 3243 0163 1E       		.uleb128 0x1e
 3244 0164 05       		.uleb128 0x5
 3245 0165 00       		.byte	0x0
 3246 0166 03       		.uleb128 0x3
 3247 0167 0E       		.uleb128 0xe
 3248 0168 3A       		.uleb128 0x3a
 3249 0169 0B       		.uleb128 0xb
 3250 016a 3B       		.uleb128 0x3b
 3251 016b 0B       		.uleb128 0xb
 3252 016c 49       		.uleb128 0x49
 3253 016d 13       		.uleb128 0x13
 3254 016e 02       		.uleb128 0x2
 3255 016f 0A       		.uleb128 0xa
 3256 0170 00       		.byte	0x0
 3257 0171 00       		.byte	0x0
 3258 0172 1F       		.uleb128 0x1f
 3259 0173 34       		.uleb128 0x34
 3260 0174 00       		.byte	0x0
 3261 0175 03       		.uleb128 0x3
ARM GAS  C:\Users\z80\AppData\Local\Temp\ccxb23Xc.s 			page 59


 3262 0176 0E       		.uleb128 0xe
 3263 0177 3A       		.uleb128 0x3a
 3264 0178 0B       		.uleb128 0xb
 3265 0179 3B       		.uleb128 0x3b
 3266 017a 0B       		.uleb128 0xb
 3267 017b 49       		.uleb128 0x49
 3268 017c 13       		.uleb128 0x13
 3269 017d 02       		.uleb128 0x2
 3270 017e 0A       		.uleb128 0xa
 3271 017f 00       		.byte	0x0
 3272 0180 00       		.byte	0x0
 3273 0181 20       		.uleb128 0x20
 3274 0182 0B       		.uleb128 0xb
 3275 0183 01       		.byte	0x1
 3276 0184 11       		.uleb128 0x11
 3277 0185 01       		.uleb128 0x1
 3278 0186 12       		.uleb128 0x12
 3279 0187 01       		.uleb128 0x1
 3280 0188 01       		.uleb128 0x1
 3281 0189 13       		.uleb128 0x13
 3282 018a 00       		.byte	0x0
 3283 018b 00       		.byte	0x0
 3284 018c 21       		.uleb128 0x21
 3285 018d 34       		.uleb128 0x34
 3286 018e 00       		.byte	0x0
 3287 018f 03       		.uleb128 0x3
 3288 0190 08       		.uleb128 0x8
 3289 0191 3A       		.uleb128 0x3a
 3290 0192 0B       		.uleb128 0xb
 3291 0193 3B       		.uleb128 0x3b
 3292 0194 0B       		.uleb128 0xb
 3293 0195 49       		.uleb128 0x49
 3294 0196 13       		.uleb128 0x13
 3295 0197 02       		.uleb128 0x2
 3296 0198 0A       		.uleb128 0xa
 3297 0199 00       		.byte	0x0
 3298 019a 00       		.byte	0x0
 3299 019b 22       		.uleb128 0x22
 3300 019c 0B       		.uleb128 0xb
 3301 019d 01       		.byte	0x1
 3302 019e 11       		.uleb128 0x11
 3303 019f 01       		.uleb128 0x1
 3304 01a0 12       		.uleb128 0x12
 3305 01a1 01       		.uleb128 0x1
 3306 01a2 00       		.byte	0x0
 3307 01a3 00       		.byte	0x0
 3308 01a4 23       		.uleb128 0x23
 3309 01a5 2E       		.uleb128 0x2e
 3310 01a6 00       		.byte	0x0
 3311 01a7 3F       		.uleb128 0x3f
 3312 01a8 0C       		.uleb128 0xc
 3313 01a9 03       		.uleb128 0x3
 3314 01aa 0E       		.uleb128 0xe
 3315 01ab 3A       		.uleb128 0x3a
 3316 01ac 0B       		.uleb128 0xb
 3317 01ad 3B       		.uleb128 0x3b
 3318 01ae 0B       		.uleb128 0xb
ARM GAS  C:\Users\z80\AppData\Local\Temp\ccxb23Xc.s 			page 60


 3319 01af 27       		.uleb128 0x27
 3320 01b0 0C       		.uleb128 0xc
 3321 01b1 11       		.uleb128 0x11
 3322 01b2 01       		.uleb128 0x1
 3323 01b3 12       		.uleb128 0x12
 3324 01b4 01       		.uleb128 0x1
 3325 01b5 40       		.uleb128 0x40
 3326 01b6 06       		.uleb128 0x6
 3327 01b7 00       		.byte	0x0
 3328 01b8 00       		.byte	0x0
 3329 01b9 24       		.uleb128 0x24
 3330 01ba 2E       		.uleb128 0x2e
 3331 01bb 01       		.byte	0x1
 3332 01bc 3F       		.uleb128 0x3f
 3333 01bd 0C       		.uleb128 0xc
 3334 01be 03       		.uleb128 0x3
 3335 01bf 0E       		.uleb128 0xe
 3336 01c0 3A       		.uleb128 0x3a
 3337 01c1 0B       		.uleb128 0xb
 3338 01c2 3B       		.uleb128 0x3b
 3339 01c3 0B       		.uleb128 0xb
 3340 01c4 27       		.uleb128 0x27
 3341 01c5 0C       		.uleb128 0xc
 3342 01c6 11       		.uleb128 0x11
 3343 01c7 01       		.uleb128 0x1
 3344 01c8 12       		.uleb128 0x12
 3345 01c9 01       		.uleb128 0x1
 3346 01ca 40       		.uleb128 0x40
 3347 01cb 06       		.uleb128 0x6
 3348 01cc 01       		.uleb128 0x1
 3349 01cd 13       		.uleb128 0x13
 3350 01ce 00       		.byte	0x0
 3351 01cf 00       		.byte	0x0
 3352 01d0 25       		.uleb128 0x25
 3353 01d1 2E       		.uleb128 0x2e
 3354 01d2 01       		.byte	0x1
 3355 01d3 3F       		.uleb128 0x3f
 3356 01d4 0C       		.uleb128 0xc
 3357 01d5 03       		.uleb128 0x3
 3358 01d6 0E       		.uleb128 0xe
 3359 01d7 3A       		.uleb128 0x3a
 3360 01d8 0B       		.uleb128 0xb
 3361 01d9 3B       		.uleb128 0x3b
 3362 01da 0B       		.uleb128 0xb
 3363 01db 27       		.uleb128 0x27
 3364 01dc 0C       		.uleb128 0xc
 3365 01dd 49       		.uleb128 0x49
 3366 01de 13       		.uleb128 0x13
 3367 01df 11       		.uleb128 0x11
 3368 01e0 01       		.uleb128 0x1
 3369 01e1 12       		.uleb128 0x12
 3370 01e2 01       		.uleb128 0x1
 3371 01e3 40       		.uleb128 0x40
 3372 01e4 06       		.uleb128 0x6
 3373 01e5 01       		.uleb128 0x1
 3374 01e6 13       		.uleb128 0x13
 3375 01e7 00       		.byte	0x0
ARM GAS  C:\Users\z80\AppData\Local\Temp\ccxb23Xc.s 			page 61


 3376 01e8 00       		.byte	0x0
 3377 01e9 26       		.uleb128 0x26
 3378 01ea 34       		.uleb128 0x34
 3379 01eb 00       		.byte	0x0
 3380 01ec 03       		.uleb128 0x3
 3381 01ed 0E       		.uleb128 0xe
 3382 01ee 3A       		.uleb128 0x3a
 3383 01ef 0B       		.uleb128 0xb
 3384 01f0 3B       		.uleb128 0x3b
 3385 01f1 05       		.uleb128 0x5
 3386 01f2 49       		.uleb128 0x49
 3387 01f3 13       		.uleb128 0x13
 3388 01f4 3F       		.uleb128 0x3f
 3389 01f5 0C       		.uleb128 0xc
 3390 01f6 3C       		.uleb128 0x3c
 3391 01f7 0C       		.uleb128 0xc
 3392 01f8 00       		.byte	0x0
 3393 01f9 00       		.byte	0x0
 3394 01fa 00       		.byte	0x0
 3395              		.section	.debug_pubnames,"",%progbits
 3396 0000 68000000 		.4byte	0x68
 3397 0004 0200     		.2byte	0x2
 3398 0006 00000000 		.4byte	.Ldebug_info0
 3399 000a BE0D0000 		.4byte	0xdbe
 3400 000e F80B0000 		.4byte	0xbf8
 3401 0012 7364496E 		.ascii	"sdInit\000"
 3401      697400
 3402 0019 0D0C0000 		.4byte	0xc0d
 3403 001d 73644F62 		.ascii	"sdObjectInit\000"
 3403      6A656374 
 3403      496E6974 
 3403      00
 3404 002a 570C0000 		.4byte	0xc57
 3405 002e 73645374 		.ascii	"sdStart\000"
 3405      61727400 
 3406 0036 CA0C0000 		.4byte	0xcca
 3407 003a 73645374 		.ascii	"sdStop\000"
 3407      6F7000
 3408 0041 240D0000 		.4byte	0xd24
 3409 0045 7364496E 		.ascii	"sdIncomingDataI\000"
 3409      636F6D69 
 3409      6E674461 
 3409      74614900 
 3410 0055 580D0000 		.4byte	0xd58
 3411 0059 73645265 		.ascii	"sdRequestDataI\000"
 3411      71756573 
 3411      74446174 
 3411      614900
 3412 0068 00000000 		.4byte	0x0
 3413              		.section	.debug_pubtypes,"",%progbits
 3414 0000 83020000 		.4byte	0x283
 3415 0004 0200     		.2byte	0x2
 3416 0006 00000000 		.4byte	.Ldebug_info0
 3417 000a BE0D0000 		.4byte	0xdbe
 3418 000e 30000000 		.4byte	0x30
 3419 0012 73697A65 		.ascii	"size_t\000"
 3419      5F7400
ARM GAS  C:\Users\z80\AppData\Local\Temp\ccxb23Xc.s 			page 62


 3420 0019 49000000 		.4byte	0x49
 3421 001d 75696E74 		.ascii	"uint8_t\000"
 3421      385F7400 
 3422 0025 62000000 		.4byte	0x62
 3423 0029 75696E74 		.ascii	"uint16_t\000"
 3423      31365F74 
 3423      00
 3424 0032 74000000 		.4byte	0x74
 3425 0036 696E7433 		.ascii	"int32_t\000"
 3425      325F7400 
 3426 003e 86000000 		.4byte	0x86
 3427 0042 75696E74 		.ascii	"uint32_t\000"
 3427      33325F74 
 3427      00
 3428 004b 9F000000 		.4byte	0x9f
 3429 004f 75696E74 		.ascii	"uint64_t\000"
 3429      36345F74 
 3429      00
 3430 0058 B1000000 		.4byte	0xb1
 3431 005c 75696E74 		.ascii	"uint_fast16_t\000"
 3431      5F666173 
 3431      7431365F 
 3431      7400
 3432 006a BC000000 		.4byte	0xbc
 3433 006e 626F6F6C 		.ascii	"bool_t\000"
 3433      5F7400
 3434 0075 C7000000 		.4byte	0xc7
 3435 0079 746D6F64 		.ascii	"tmode_t\000"
 3435      655F7400 
 3436 0081 D2000000 		.4byte	0xd2
 3437 0085 74737461 		.ascii	"tstate_t\000"
 3437      74655F74 
 3437      00
 3438 008e DD000000 		.4byte	0xdd
 3439 0092 74707269 		.ascii	"tprio_t\000"
 3439      6F5F7400 
 3440 009a E8000000 		.4byte	0xe8
 3441 009e 6D73675F 		.ascii	"msg_t\000"
 3441      7400
 3442 00a4 F3000000 		.4byte	0xf3
 3443 00a8 6576656E 		.ascii	"eventmask_t\000"
 3443      746D6173 
 3443      6B5F7400 
 3444 00b4 FE000000 		.4byte	0xfe
 3445 00b8 73797374 		.ascii	"systime_t\000"
 3445      696D655F 
 3445      7400
 3446 00c2 09010000 		.4byte	0x109
 3447 00c6 54687265 		.ascii	"Thread\000"
 3447      616400
 3448 00cd 48020000 		.4byte	0x248
 3449 00d1 54687265 		.ascii	"ThreadsQueue\000"
 3449      61647351 
 3449      75657565 
 3449      00
 3450 00de 6A020000 		.4byte	0x26a
 3451 00e2 54687265 		.ascii	"ThreadsList\000"
ARM GAS  C:\Users\z80\AppData\Local\Temp\ccxb23Xc.s 			page 63


 3451      6164734C 
 3451      69737400 
 3452 00ee 75020000 		.4byte	0x275
 3453 00f2 72656761 		.ascii	"regarm_t\000"
 3453      726D5F74 
 3453      00
 3454 00fb 82020000 		.4byte	0x282
 3455 00ff 73746B61 		.ascii	"stkalign_t\000"
 3455      6C69676E 
 3455      5F7400
 3456 010a 8D020000 		.4byte	0x28d
 3457 010e 696E7463 		.ascii	"intctx\000"
 3457      747800
 3458 0115 1A030000 		.4byte	0x31a
 3459 0119 636F6E74 		.ascii	"context\000"
 3459      65787400 
 3460 0121 45030000 		.4byte	0x345
 3461 0125 4D757465 		.ascii	"Mutex\000"
 3461      7800
 3462 012b 82030000 		.4byte	0x382
 3463 012f 4D757465 		.ascii	"Mutex\000"
 3463      7800
 3464 0135 8D030000 		.4byte	0x38d
 3465 0139 4576656E 		.ascii	"EventListener\000"
 3465      744C6973 
 3465      74656E65 
 3465      7200
 3466 0147 98030000 		.4byte	0x398
 3467 014b 4576656E 		.ascii	"EventListener\000"
 3467      744C6973 
 3467      74656E65 
 3467      7200
 3468 0159 D5030000 		.4byte	0x3d5
 3469 015d 4576656E 		.ascii	"EventSource\000"
 3469      74536F75 
 3469      72636500 
 3470 0169 F0030000 		.4byte	0x3f0
 3471 016d 4576656E 		.ascii	"EventSource\000"
 3471      74536F75 
 3471      72636500 
 3472 0179 14010000 		.4byte	0x114
 3473 017d 54687265 		.ascii	"Thread\000"
 3473      616400
 3474 0184 4E040000 		.4byte	0x44e
 3475 0188 47656E65 		.ascii	"GenericQueue\000"
 3475      72696351 
 3475      75657565 
 3475      00
 3476 0195 C8040000 		.4byte	0x4c8
 3477 0199 716E6F74 		.ascii	"qnotify_t\000"
 3477      6966795F 
 3477      7400
 3478 01a3 59040000 		.4byte	0x459
 3479 01a7 47656E65 		.ascii	"GenericQueue\000"
 3479      72696351 
 3479      75657565 
 3479      00
ARM GAS  C:\Users\z80\AppData\Local\Temp\ccxb23Xc.s 			page 64


 3480 01b4 F1040000 		.4byte	0x4f1
 3481 01b8 496E7075 		.ascii	"InputQueue\000"
 3481      74517565 
 3481      756500
 3482 01c3 FC040000 		.4byte	0x4fc
 3483 01c7 4F757470 		.ascii	"OutputQueue\000"
 3483      75745175 
 3483      65756500 
 3484 01d3 ED050000 		.4byte	0x5ed
 3485 01d7 696F666C 		.ascii	"ioflags_t\000"
 3485      6167735F 
 3485      7400
 3486 01e1 F9050000 		.4byte	0x5f9
 3487 01e5 42617365 		.ascii	"BaseAsynchronousChannelVMT\000"
 3487      4173796E 
 3487      6368726F 
 3487      6E6F7573 
 3487      4368616E 
 3488 0200 E6060000 		.4byte	0x6e6
 3489 0204 42617365 		.ascii	"BaseAsynchronousChannel\000"
 3489      4173796E 
 3489      6368726F 
 3489      6E6F7573 
 3489      4368616E 
 3490 021c D6070000 		.4byte	0x7d6
 3491 0220 55534152 		.ascii	"USART_TypeDef\000"
 3491      545F5479 
 3491      70654465 
 3491      6600
 3492 022e FD070000 		.4byte	0x7fd
 3493 0232 73647374 		.ascii	"sdstate_t\000"
 3493      6174655F 
 3493      7400
 3494 023c 08080000 		.4byte	0x808
 3495 0240 53657269 		.ascii	"SerialDriver\000"
 3495      616C4472 
 3495      69766572 
 3495      00
 3496 024d DF080000 		.4byte	0x8df
 3497 0251 53657269 		.ascii	"SerialConfig\000"
 3497      616C436F 
 3497      6E666967 
 3497      00
 3498 025e EA080000 		.4byte	0x8ea
 3499 0262 53657269 		.ascii	"SerialDriverVMT\000"
 3499      616C4472 
 3499      69766572 
 3499      564D5400 
 3500 0272 13080000 		.4byte	0x813
 3501 0276 53657269 		.ascii	"SerialDriver\000"
 3501      616C4472 
 3501      69766572 
 3501      00
 3502 0283 00000000 		.4byte	0x0
 3503              		.section	.debug_aranges,"",%progbits
 3504 0000 8C000000 		.4byte	0x8c
 3505 0004 0200     		.2byte	0x2
ARM GAS  C:\Users\z80\AppData\Local\Temp\ccxb23Xc.s 			page 65


 3506 0006 00000000 		.4byte	.Ldebug_info0
 3507 000a 04       		.byte	0x4
 3508 000b 00       		.byte	0x0
 3509 000c 0000     		.2byte	0x0
 3510 000e 0000     		.2byte	0x0
 3511 0010 00000000 		.4byte	.LFB62
 3512 0014 26000000 		.4byte	.LFE62-.LFB62
 3513 0018 00000000 		.4byte	.LFB63
 3514 001c 26000000 		.4byte	.LFE63-.LFB63
 3515 0020 00000000 		.4byte	.LFB64
 3516 0024 16000000 		.4byte	.LFE64-.LFB64
 3517 0028 00000000 		.4byte	.LFB65
 3518 002c 16000000 		.4byte	.LFE65-.LFB65
 3519 0030 00000000 		.4byte	.LFB66
 3520 0034 2A000000 		.4byte	.LFE66-.LFB66
 3521 0038 00000000 		.4byte	.LFB67
 3522 003c 1E000000 		.4byte	.LFE67-.LFB67
 3523 0040 00000000 		.4byte	.LFB68
 3524 0044 26000000 		.4byte	.LFE68-.LFB68
 3525 0048 00000000 		.4byte	.LFB69
 3526 004c 26000000 		.4byte	.LFE69-.LFB69
 3527 0050 00000000 		.4byte	.LFB70
 3528 0054 34000000 		.4byte	.LFE70-.LFB70
 3529 0058 00000000 		.4byte	.LFB71
 3530 005c 08000000 		.4byte	.LFE71-.LFB71
 3531 0060 00000000 		.4byte	.LFB72
 3532 0064 6A000000 		.4byte	.LFE72-.LFB72
 3533 0068 00000000 		.4byte	.LFB73
 3534 006c 62000000 		.4byte	.LFE73-.LFB73
 3535 0070 00000000 		.4byte	.LFB74
 3536 0074 7A000000 		.4byte	.LFE74-.LFB74
 3537 0078 00000000 		.4byte	.LFB75
 3538 007c 7E000000 		.4byte	.LFE75-.LFB75
 3539 0080 00000000 		.4byte	.LFB76
 3540 0084 56000000 		.4byte	.LFE76-.LFB76
 3541 0088 00000000 		.4byte	0x0
 3542 008c 00000000 		.4byte	0x0
 3543              		.section	.debug_ranges,"",%progbits
 3544              	.Ldebug_ranges0:
 3545 0000 00000000 		.4byte	.LFB62
 3546 0004 26000000 		.4byte	.LFE62
 3547 0008 00000000 		.4byte	.LFB63
 3548 000c 26000000 		.4byte	.LFE63
 3549 0010 00000000 		.4byte	.LFB64
 3550 0014 16000000 		.4byte	.LFE64
 3551 0018 00000000 		.4byte	.LFB65
 3552 001c 16000000 		.4byte	.LFE65
 3553 0020 00000000 		.4byte	.LFB66
 3554 0024 2A000000 		.4byte	.LFE66
 3555 0028 00000000 		.4byte	.LFB67
 3556 002c 1E000000 		.4byte	.LFE67
 3557 0030 00000000 		.4byte	.LFB68
 3558 0034 26000000 		.4byte	.LFE68
 3559 0038 00000000 		.4byte	.LFB69
 3560 003c 26000000 		.4byte	.LFE69
 3561 0040 00000000 		.4byte	.LFB70
 3562 0044 34000000 		.4byte	.LFE70
ARM GAS  C:\Users\z80\AppData\Local\Temp\ccxb23Xc.s 			page 66


 3563 0048 00000000 		.4byte	.LFB71
 3564 004c 08000000 		.4byte	.LFE71
 3565 0050 00000000 		.4byte	.LFB72
 3566 0054 6A000000 		.4byte	.LFE72
 3567 0058 00000000 		.4byte	.LFB73
 3568 005c 62000000 		.4byte	.LFE73
 3569 0060 00000000 		.4byte	.LFB74
 3570 0064 7A000000 		.4byte	.LFE74
 3571 0068 00000000 		.4byte	.LFB75
 3572 006c 7E000000 		.4byte	.LFE75
 3573 0070 00000000 		.4byte	.LFB76
 3574 0074 56000000 		.4byte	.LFE76
 3575 0078 00000000 		.4byte	0x0
 3576 007c 00000000 		.4byte	0x0
 3577              		.section	.debug_str,"MS",%progbits,1
 3578              	.LASF125:
 3579 0000 2E2E2F63 		.ascii	"../chibios_2.4.x/os/hal/src/serial.c\000"
 3579      68696269 
 3579      6F735F32 
 3579      2E342E78 
 3579      2F6F732F 
 3580              	.LASF103:
 3581 0025 73635F73 		.ascii	"sc_speed\000"
 3581      70656564 
 3581      00
 3582              	.LASF2:
 3583 002e 73697A65 		.ascii	"size_t\000"
 3583      5F7400
 3584              	.LASF57:
 3585 0035 7264796D 		.ascii	"rdymsg\000"
 3585      736700
 3586              	.LASF13:
 3587 003c 75696E74 		.ascii	"uint64_t\000"
 3587      36345F74 
 3587      00
 3588              	.LASF72:
 3589 0045 4F757470 		.ascii	"OutputQueue\000"
 3589      75745175 
 3589      65756500 
 3590              	.LASF21:
 3591 0051 6576656E 		.ascii	"eventmask_t\000"
 3591      746D6173 
 3591      6B5F7400 
 3592              	.LASF15:
 3593 005d 75696E74 		.ascii	"uint_fast16_t\000"
 3593      5F666173 
 3593      7431365F 
 3593      7400
 3594              	.LASF14:
 3595 006b 6C6F6E67 		.ascii	"long long unsigned int\000"
 3595      206C6F6E 
 3595      6720756E 
 3595      7369676E 
 3595      65642069 
 3596              	.LASF58:
 3597 0082 65786974 		.ascii	"exitcode\000"
 3597      636F6465 
ARM GAS  C:\Users\z80\AppData\Local\Temp\ccxb23Xc.s 			page 67


 3597      00
 3598              	.LASF123:
 3599 008b 49544D5F 		.ascii	"ITM_RxBuffer\000"
 3599      52784275 
 3599      66666572 
 3599      00
 3600              	.LASF118:
 3601 0098 73644F62 		.ascii	"sdObjectInit\000"
 3601      6A656374 
 3601      496E6974 
 3601      00
 3602              	.LASF110:
 3603 00a5 72656164 		.ascii	"reads\000"
 3603      7300
 3604              	.LASF80:
 3605 00ab 72656164 		.ascii	"readt\000"
 3605      7400
 3606              	.LASF63:
 3607 00b1 715F7761 		.ascii	"q_waiting\000"
 3607      6974696E 
 3607      6700
 3608              	.LASF12:
 3609 00bb 6C6F6E67 		.ascii	"long long int\000"
 3609      206C6F6E 
 3609      6720696E 
 3609      7400
 3610              	.LASF1:
 3611 00c9 7369676E 		.ascii	"signed char\000"
 3611      65642063 
 3611      68617200 
 3612              	.LASF91:
 3613 00d5 47545052 		.ascii	"GTPR\000"
 3613      00
 3614              	.LASF95:
 3615 00da 53445F53 		.ascii	"SD_STOP\000"
 3615      544F5000 
 3616              	.LASF16:
 3617 00e2 626F6F6C 		.ascii	"bool_t\000"
 3617      5F7400
 3618              	.LASF48:
 3619 00e9 6D5F7175 		.ascii	"m_queue\000"
 3619      65756500 
 3620              	.LASF99:
 3621 00f1 73746174 		.ascii	"state\000"
 3621      6500
 3622              	.LASF9:
 3623 00f7 6C6F6E67 		.ascii	"long int\000"
 3623      20696E74 
 3623      00
 3624              	.LASF18:
 3625 0100 74737461 		.ascii	"tstate_t\000"
 3625      74655F74 
 3625      00
 3626              	.LASF65:
 3627 0109 715F6275 		.ascii	"q_buffer\000"
 3627      66666572 
 3627      00
ARM GAS  C:\Users\z80\AppData\Local\Temp\ccxb23Xc.s 			page 68


 3628              	.LASF67:
 3629 0112 715F7772 		.ascii	"q_wrptr\000"
 3629      70747200 
 3630              	.LASF28:
 3631 011a 705F6E65 		.ascii	"p_newer\000"
 3631      77657200 
 3632              	.LASF77:
 3633 0122 70757477 		.ascii	"putwouldblock\000"
 3633      6F756C64 
 3633      626C6F63 
 3633      6B00
 3634              	.LASF115:
 3635 0130 6D61736B 		.ascii	"mask\000"
 3635      00
 3636              	.LASF43:
 3637 0135 72656761 		.ascii	"regarm_t\000"
 3637      726D5F74 
 3637      00
 3638              	.LASF55:
 3639 013e 4576656E 		.ascii	"EventSource\000"
 3639      74536F75 
 3639      72636500 
 3640              	.LASF74:
 3641 014a 42617365 		.ascii	"BaseAsynchronousChannelVMT\000"
 3641      4173796E 
 3641      6368726F 
 3641      6E6F7573 
 3641      4368616E 
 3642              	.LASF0:
 3643 0165 756E7369 		.ascii	"unsigned int\000"
 3643      676E6564 
 3643      20696E74 
 3643      00
 3644              	.LASF6:
 3645 0172 75696E74 		.ascii	"uint16_t\000"
 3645      31365F74 
 3645      00
 3646              	.LASF108:
 3647 017b 53657269 		.ascii	"SerialDriverVMT\000"
 3647      616C4472 
 3647      69766572 
 3647      564D5400 
 3648              	.LASF34:
 3649 018b 705F7469 		.ascii	"p_time\000"
 3649      6D6500
 3650              	.LASF116:
 3651 0192 696E6F74 		.ascii	"inotify\000"
 3651      69667900 
 3652              	.LASF100:
 3653 019a 69717565 		.ascii	"iqueue\000"
 3653      756500
 3654              	.LASF36:
 3655 01a1 705F6D73 		.ascii	"p_msgqueue\000"
 3655      67717565 
 3655      756500
 3656              	.LASF112:
 3657 01ac 74696D65 		.ascii	"timeout\000"
ARM GAS  C:\Users\z80\AppData\Local\Temp\ccxb23Xc.s 			page 69


 3657      6F757400 
 3658              	.LASF113:
 3659 01b4 67657474 		.ascii	"gett\000"
 3659      00
 3660              	.LASF82:
 3661 01b9 6576656E 		.ascii	"event\000"
 3661      7400
 3662              	.LASF7:
 3663 01bf 73686F72 		.ascii	"short unsigned int\000"
 3663      7420756E 
 3663      7369676E 
 3663      65642069 
 3663      6E7400
 3664              	.LASF20:
 3665 01d2 6D73675F 		.ascii	"msg_t\000"
 3665      7400
 3666              	.LASF101:
 3667 01d8 6F717565 		.ascii	"oqueue\000"
 3667      756500
 3668              	.LASF109:
 3669 01df 77726974 		.ascii	"writes\000"
 3669      657300
 3670              	.LASF79:
 3671 01e6 77726974 		.ascii	"writet\000"
 3671      657400
 3672              	.LASF17:
 3673 01ed 746D6F64 		.ascii	"tmode_t\000"
 3673      655F7400 
 3674              	.LASF42:
 3675 01f5 54687265 		.ascii	"ThreadsList\000"
 3675      6164734C 
 3675      69737400 
 3676              	.LASF102:
 3677 0201 75736172 		.ascii	"usart\000"
 3677      7400
 3678              	.LASF71:
 3679 0207 496E7075 		.ascii	"InputQueue\000"
 3679      74517565 
 3679      756500
 3680              	.LASF70:
 3681 0212 716E6F74 		.ascii	"qnotify_t\000"
 3681      6966795F 
 3681      7400
 3682              	.LASF62:
 3683 021c 47656E65 		.ascii	"GenericQueue\000"
 3683      72696351 
 3683      75657565 
 3683      00
 3684              	.LASF44:
 3685 0229 73746B61 		.ascii	"stkalign_t\000"
 3685      6C69676E 
 3685      5F7400
 3686              	.LASF75:
 3687 0234 77726974 		.ascii	"write\000"
 3687      6500
 3688              	.LASF111:
 3689 023a 70757474 		.ascii	"putt\000"
ARM GAS  C:\Users\z80\AppData\Local\Temp\ccxb23Xc.s 			page 70


 3689      00
 3690              	.LASF64:
 3691 023f 715F636F 		.ascii	"q_counter\000"
 3691      756E7465 
 3691      7200
 3692              	.LASF47:
 3693 0249 4D757465 		.ascii	"Mutex\000"
 3693      7800
 3694              	.LASF26:
 3695 024f 705F7072 		.ascii	"p_prio\000"
 3695      696F00
 3696              	.LASF54:
 3697 0256 656C5F6D 		.ascii	"el_mask\000"
 3697      61736B00 
 3698              	.LASF29:
 3699 025e 705F6F6C 		.ascii	"p_older\000"
 3699      64657200 
 3700              	.LASF81:
 3701 0266 67657466 		.ascii	"getflags\000"
 3701      6C616773 
 3701      00
 3702              	.LASF73:
 3703 026f 696F666C 		.ascii	"ioflags_t\000"
 3703      6167735F 
 3703      7400
 3704              	.LASF41:
 3705 0279 54687265 		.ascii	"ThreadsQueue\000"
 3705      61647351 
 3705      75657565 
 3705      00
 3706              	.LASF126:
 3707 0286 433A5C70 		.ascii	"C:\\projects\\voltamper.git\\firmware\\voltamp\000"
 3707      726F6A65 
 3707      6374735C 
 3707      766F6C74 
 3707      616D7065 
 3708              	.LASF121:
 3709 02b1 73645374 		.ascii	"sdStop\000"
 3709      6F7000
 3710              	.LASF114:
 3711 02b8 74696D65 		.ascii	"time\000"
 3711      00
 3712              	.LASF107:
 3713 02bd 53657269 		.ascii	"SerialConfig\000"
 3713      616C436F 
 3713      6E666967 
 3713      00
 3714              	.LASF85:
 3715 02ca 52455345 		.ascii	"RESERVED0\000"
 3715      52564544 
 3715      3000
 3716              	.LASF86:
 3717 02d4 52455345 		.ascii	"RESERVED1\000"
 3717      52564544 
 3717      3100
 3718              	.LASF87:
 3719 02de 52455345 		.ascii	"RESERVED2\000"
ARM GAS  C:\Users\z80\AppData\Local\Temp\ccxb23Xc.s 			page 71


 3719      52564544 
 3719      3200
 3720              	.LASF88:
 3721 02e8 52455345 		.ascii	"RESERVED3\000"
 3721      52564544 
 3721      3300
 3722              	.LASF89:
 3723 02f2 52455345 		.ascii	"RESERVED4\000"
 3723      52564544 
 3723      3400
 3724              	.LASF25:
 3725 02fc 705F7072 		.ascii	"p_prev\000"
 3725      657600
 3726              	.LASF92:
 3727 0303 52455345 		.ascii	"RESERVED6\000"
 3727      52564544 
 3727      3600
 3728              	.LASF19:
 3729 030d 74707269 		.ascii	"tprio_t\000"
 3729      6F5F7400 
 3730              	.LASF68:
 3731 0315 715F7264 		.ascii	"q_rdptr\000"
 3731      70747200 
 3732              	.LASF8:
 3733 031d 696E7433 		.ascii	"int32_t\000"
 3733      325F7400 
 3734              	.LASF4:
 3735 0325 756E7369 		.ascii	"unsigned char\000"
 3735      676E6564 
 3735      20636861 
 3735      7200
 3736              	.LASF93:
 3737 0333 55534152 		.ascii	"USART_TypeDef\000"
 3737      545F5479 
 3737      70654465 
 3737      6600
 3738              	.LASF53:
 3739 0341 656C5F6C 		.ascii	"el_listener\000"
 3739      69737465 
 3739      6E657200 
 3740              	.LASF32:
 3741 034d 705F7374 		.ascii	"p_state\000"
 3741      61746500 
 3742              	.LASF39:
 3743 0355 705F6D74 		.ascii	"p_mtxlist\000"
 3743      786C6973 
 3743      7400
 3744              	.LASF5:
 3745 035f 73686F72 		.ascii	"short int\000"
 3745      7420696E 
 3745      7400
 3746              	.LASF60:
 3747 0369 65776D61 		.ascii	"ewmask\000"
 3747      736B00
 3748              	.LASF24:
 3749 0370 705F6E65 		.ascii	"p_next\000"
 3749      787400
ARM GAS  C:\Users\z80\AppData\Local\Temp\ccxb23Xc.s 			page 72


 3750              	.LASF33:
 3751 0377 705F666C 		.ascii	"p_flags\000"
 3751      61677300 
 3752              	.LASF52:
 3753 037f 656C5F6E 		.ascii	"el_next\000"
 3753      65787400 
 3754              	.LASF23:
 3755 0387 54687265 		.ascii	"Thread\000"
 3755      616400
 3756              	.LASF38:
 3757 038e 705F6570 		.ascii	"p_epending\000"
 3757      656E6469 
 3757      6E6700
 3758              	.LASF94:
 3759 0399 53445F55 		.ascii	"SD_UNINIT\000"
 3759      4E494E49 
 3759      5400
 3760              	.LASF90:
 3761 03a3 52455345 		.ascii	"RESERVED5\000"
 3761      52564544 
 3761      3500
 3762              	.LASF10:
 3763 03ad 75696E74 		.ascii	"uint32_t\000"
 3763      33325F74 
 3763      00
 3764              	.LASF97:
 3765 03b6 73647374 		.ascii	"sdstate_t\000"
 3765      6174655F 
 3765      7400
 3766              	.LASF98:
 3767 03c0 53657269 		.ascii	"SerialDriver\000"
 3767      616C4472 
 3767      69766572 
 3767      00
 3768              	.LASF11:
 3769 03cd 6C6F6E67 		.ascii	"long unsigned int\000"
 3769      20756E73 
 3769      69676E65 
 3769      6420696E 
 3769      7400
 3770              	.LASF76:
 3771 03df 72656164 		.ascii	"read\000"
 3771      00
 3772              	.LASF61:
 3773 03e4 63686172 		.ascii	"char\000"
 3773      00
 3774              	.LASF122:
 3775 03e9 7364496E 		.ascii	"sdIncomingDataI\000"
 3775      636F6D69 
 3775      6E674461 
 3775      74614900 
 3776              	.LASF120:
 3777 03f9 636F6E66 		.ascii	"config\000"
 3777      696700
 3778              	.LASF119:
 3779 0400 73645374 		.ascii	"sdStart\000"
 3779      61727400 
ARM GAS  C:\Users\z80\AppData\Local\Temp\ccxb23Xc.s 			page 73


 3780              	.LASF50:
 3781 0408 6D5F6E65 		.ascii	"m_next\000"
 3781      787400
 3782              	.LASF22:
 3783 040f 73797374 		.ascii	"systime_t\000"
 3783      696D655F 
 3783      7400
 3784              	.LASF40:
 3785 0419 705F7265 		.ascii	"p_realprio\000"
 3785      616C7072 
 3785      696F00
 3786              	.LASF31:
 3787 0424 705F7374 		.ascii	"p_stklimit\000"
 3787      6B6C696D 
 3787      697400
 3788              	.LASF84:
 3789 042f 42617365 		.ascii	"BaseAsynchronousChannel\000"
 3789      4173796E 
 3789      6368726F 
 3789      6E6F7573 
 3789      4368616E 
 3790              	.LASF46:
 3791 0447 636F6E74 		.ascii	"context\000"
 3791      65787400 
 3792              	.LASF45:
 3793 044f 696E7463 		.ascii	"intctx\000"
 3793      747800
 3794              	.LASF96:
 3795 0456 53445F52 		.ascii	"SD_READY\000"
 3795      45414459 
 3795      00
 3796              	.LASF66:
 3797 045f 715F746F 		.ascii	"q_top\000"
 3797      7000
 3798              	.LASF30:
 3799 0465 705F6E61 		.ascii	"p_name\000"
 3799      6D6500
 3800              	.LASF56:
 3801 046c 65735F6E 		.ascii	"es_next\000"
 3801      65787400 
 3802              	.LASF69:
 3803 0474 715F6E6F 		.ascii	"q_notify\000"
 3803      74696679 
 3803      00
 3804              	.LASF37:
 3805 047d 705F6D73 		.ascii	"p_msg\000"
 3805      6700
 3806              	.LASF128:
 3807 0483 73645265 		.ascii	"sdRequestDataI\000"
 3807      71756573 
 3807      74446174 
 3807      614900
 3808              	.LASF3:
 3809 0492 75696E74 		.ascii	"uint8_t\000"
 3809      385F7400 
 3810              	.LASF83:
 3811 049a 666C6167 		.ascii	"flags\000"
ARM GAS  C:\Users\z80\AppData\Local\Temp\ccxb23Xc.s 			page 74


 3811      7300
 3812              	.LASF117:
 3813 04a0 6F6E6F74 		.ascii	"onotify\000"
 3813      69667900 
 3814              	.LASF51:
 3815 04a8 4576656E 		.ascii	"EventListener\000"
 3815      744C6973 
 3815      74656E65 
 3815      7200
 3816              	.LASF124:
 3817 04b6 474E5520 		.ascii	"GNU C 4.5.0\000"
 3817      4320342E 
 3817      352E3000 
 3818              	.LASF59:
 3819 04c2 77746F62 		.ascii	"wtobjp\000"
 3819      6A7000
 3820              	.LASF78:
 3821 04c9 67657477 		.ascii	"getwouldblock\000"
 3821      6F756C64 
 3821      626C6F63 
 3821      6B00
 3822              	.LASF104:
 3823 04d7 73635F63 		.ascii	"sc_cr1\000"
 3823      723100
 3824              	.LASF105:
 3825 04de 73635F63 		.ascii	"sc_cr2\000"
 3825      723200
 3826              	.LASF106:
 3827 04e5 73635F63 		.ascii	"sc_cr3\000"
 3827      723300
 3828              	.LASF127:
 3829 04ec 7364496E 		.ascii	"sdInit\000"
 3829      697400
 3830              	.LASF49:
 3831 04f3 6D5F6F77 		.ascii	"m_owner\000"
 3831      6E657200 
 3832              	.LASF27:
 3833 04fb 705F6374 		.ascii	"p_ctx\000"
 3833      7800
 3834              	.LASF35:
 3835 0501 705F7761 		.ascii	"p_waiting\000"
 3835      6974696E 
 3835      6700
 3836              		.ident	"GCC: (GNU) 4.5.0"
ARM GAS  C:\Users\z80\AppData\Local\Temp\ccxb23Xc.s 			page 75


DEFINED SYMBOLS
                            *ABS*:00000000 serial.c
C:\Users\z80\AppData\Local\Temp\ccxb23Xc.s:24     .text.writes:00000000 $t
C:\Users\z80\AppData\Local\Temp\ccxb23Xc.s:29     .text.writes:00000000 writes
C:\Users\z80\AppData\Local\Temp\ccxb23Xc.s:63     .text.reads:00000000 $t
C:\Users\z80\AppData\Local\Temp\ccxb23Xc.s:68     .text.reads:00000000 reads
C:\Users\z80\AppData\Local\Temp\ccxb23Xc.s:101    .text.putwouldblock:00000000 $t
C:\Users\z80\AppData\Local\Temp\ccxb23Xc.s:106    .text.putwouldblock:00000000 putwouldblock
C:\Users\z80\AppData\Local\Temp\ccxb23Xc.s:132    .text.getwouldblock:00000000 $t
C:\Users\z80\AppData\Local\Temp\ccxb23Xc.s:137    .text.getwouldblock:00000000 getwouldblock
C:\Users\z80\AppData\Local\Temp\ccxb23Xc.s:163    .text.putt:00000000 $t
C:\Users\z80\AppData\Local\Temp\ccxb23Xc.s:168    .text.putt:00000000 putt
C:\Users\z80\AppData\Local\Temp\ccxb23Xc.s:202    .text.gett:00000000 $t
C:\Users\z80\AppData\Local\Temp\ccxb23Xc.s:207    .text.gett:00000000 gett
C:\Users\z80\AppData\Local\Temp\ccxb23Xc.s:237    .text.writet:00000000 $t
C:\Users\z80\AppData\Local\Temp\ccxb23Xc.s:242    .text.writet:00000000 writet
C:\Users\z80\AppData\Local\Temp\ccxb23Xc.s:276    .text.readt:00000000 $t
C:\Users\z80\AppData\Local\Temp\ccxb23Xc.s:281    .text.readt:00000000 readt
C:\Users\z80\AppData\Local\Temp\ccxb23Xc.s:315    .text.getflags:00000000 $t
C:\Users\z80\AppData\Local\Temp\ccxb23Xc.s:320    .text.getflags:00000000 getflags
C:\Users\z80\AppData\Local\Temp\ccxb23Xc.s:366    .rodata.vmt:00000000 $d
C:\Users\z80\AppData\Local\Temp\ccxb23Xc.s:369    .rodata.vmt:00000000 vmt
C:\Users\z80\AppData\Local\Temp\ccxb23Xc.s:380    .text.sdInit:00000000 $t
C:\Users\z80\AppData\Local\Temp\ccxb23Xc.s:386    .text.sdInit:00000000 sdInit
C:\Users\z80\AppData\Local\Temp\ccxb23Xc.s:405    .text.sdObjectInit:00000000 $t
C:\Users\z80\AppData\Local\Temp\ccxb23Xc.s:411    .text.sdObjectInit:00000000 sdObjectInit
C:\Users\z80\AppData\Local\Temp\ccxb23Xc.s:473    .rodata:00000000 $d
C:\Users\z80\AppData\Local\Temp\ccxb23Xc.s:474    .rodata:00000000 .LC0
C:\Users\z80\AppData\Local\Temp\ccxb23Xc.s:477    .rodata:0000000c .LC1
C:\Users\z80\AppData\Local\Temp\ccxb23Xc.s:480    .text.sdStart:00000000 $t
C:\Users\z80\AppData\Local\Temp\ccxb23Xc.s:486    .text.sdStart:00000000 sdStart
C:\Users\z80\AppData\Local\Temp\ccxb23Xc.s:559    .rodata:0000001c .LC2
C:\Users\z80\AppData\Local\Temp\ccxb23Xc.s:562    .rodata:00000028 .LC3
C:\Users\z80\AppData\Local\Temp\ccxb23Xc.s:565    .text.sdStop:00000000 $t
C:\Users\z80\AppData\Local\Temp\ccxb23Xc.s:571    .text.sdStop:00000000 sdStop
C:\Users\z80\AppData\Local\Temp\ccxb23Xc.s:654    .rodata:00000038 .LC4
C:\Users\z80\AppData\Local\Temp\ccxb23Xc.s:657    .text.sdIncomingDataI:00000000 $t
C:\Users\z80\AppData\Local\Temp\ccxb23Xc.s:663    .text.sdIncomingDataI:00000000 sdIncomingDataI
C:\Users\z80\AppData\Local\Temp\ccxb23Xc.s:737    .rodata:0000004c .LC5
C:\Users\z80\AppData\Local\Temp\ccxb23Xc.s:740    .text.sdRequestDataI:00000000 $t
C:\Users\z80\AppData\Local\Temp\ccxb23Xc.s:746    .text.sdRequestDataI:00000000 sdRequestDataI
                     .debug_frame:00000010 $d

UNDEFINED SYMBOLS
chOQWriteTimeout
chIQReadTimeout
chOQPutTimeout
chIQGetTimeout
dbg_check_lock
dbg_check_unlock
sd_lld_init
chIQInit
chOQInit
chDbgPanic
sd_lld_start
sd_lld_stop
chOQResetI
ARM GAS  C:\Users\z80\AppData\Local\Temp\ccxb23Xc.s 			page 76


chIQResetI
chSchRescheduleS
chDbgCheckClassI
chEvtBroadcastFlagsI
chIQPutI
chOQGetI
